ARM GAS  C:\Users\tmj32\AppData\Local\Temp\ccPoPccU.s 			page 1


   1              		.syntax unified
   2              		.cpu cortex-m4
   3              		.eabi_attribute 27, 1
   4              		.fpu fpv4-sp-d16
   5              		.eabi_attribute 20, 1
   6              		.eabi_attribute 21, 1
   7              		.eabi_attribute 23, 3
   8              		.eabi_attribute 24, 1
   9              		.eabi_attribute 25, 1
  10              		.eabi_attribute 26, 1
  11              		.eabi_attribute 30, 6
  12              		.eabi_attribute 34, 1
  13              		.eabi_attribute 18, 4
  14              		.thumb
  15              		.syntax unified
  16              		.file	"lv_txt.c"
  17              		.text
  18              	.Ltext0:
  19              		.cfi_sections	.debug_frame
  20              		.section	.text.lv_font_get_line_height,"ax",%progbits
  21              		.align	2
  22              		.thumb
  23              		.thumb_func
  24              		.type	lv_font_get_line_height, %function
  25              	lv_font_get_line_height:
  26              	.LFB3:
  27              		.file 1 "..\\..\\..\\lvgl\\version_6.1.2\\lvgl\\src\\lv_misc\\../lv_font/lv_font.h"
   1:..\..\..\lvgl\version_6.1.2\lvgl\src\lv_misc\../lv_font/lv_font.h **** /**
   2:..\..\..\lvgl\version_6.1.2\lvgl\src\lv_misc\../lv_font/lv_font.h ****  * @file lv_font.h
   3:..\..\..\lvgl\version_6.1.2\lvgl\src\lv_misc\../lv_font/lv_font.h ****  *
   4:..\..\..\lvgl\version_6.1.2\lvgl\src\lv_misc\../lv_font/lv_font.h ****  */
   5:..\..\..\lvgl\version_6.1.2\lvgl\src\lv_misc\../lv_font/lv_font.h **** 
   6:..\..\..\lvgl\version_6.1.2\lvgl\src\lv_misc\../lv_font/lv_font.h **** #ifndef LV_FONT_H
   7:..\..\..\lvgl\version_6.1.2\lvgl\src\lv_misc\../lv_font/lv_font.h **** #define LV_FONT_H
   8:..\..\..\lvgl\version_6.1.2\lvgl\src\lv_misc\../lv_font/lv_font.h **** 
   9:..\..\..\lvgl\version_6.1.2\lvgl\src\lv_misc\../lv_font/lv_font.h **** #ifdef __cplusplus
  10:..\..\..\lvgl\version_6.1.2\lvgl\src\lv_misc\../lv_font/lv_font.h **** extern "C" {
  11:..\..\..\lvgl\version_6.1.2\lvgl\src\lv_misc\../lv_font/lv_font.h **** #endif
  12:..\..\..\lvgl\version_6.1.2\lvgl\src\lv_misc\../lv_font/lv_font.h **** 
  13:..\..\..\lvgl\version_6.1.2\lvgl\src\lv_misc\../lv_font/lv_font.h **** /*********************
  14:..\..\..\lvgl\version_6.1.2\lvgl\src\lv_misc\../lv_font/lv_font.h ****  *      INCLUDES
  15:..\..\..\lvgl\version_6.1.2\lvgl\src\lv_misc\../lv_font/lv_font.h ****  *********************/
  16:..\..\..\lvgl\version_6.1.2\lvgl\src\lv_misc\../lv_font/lv_font.h **** #ifdef LV_CONF_INCLUDE_SIMPLE
  17:..\..\..\lvgl\version_6.1.2\lvgl\src\lv_misc\../lv_font/lv_font.h **** #include "lv_conf.h"
  18:..\..\..\lvgl\version_6.1.2\lvgl\src\lv_misc\../lv_font/lv_font.h **** #else
  19:..\..\..\lvgl\version_6.1.2\lvgl\src\lv_misc\../lv_font/lv_font.h **** #include "../../../lv_conf.h"
  20:..\..\..\lvgl\version_6.1.2\lvgl\src\lv_misc\../lv_font/lv_font.h **** #endif
  21:..\..\..\lvgl\version_6.1.2\lvgl\src\lv_misc\../lv_font/lv_font.h **** 
  22:..\..\..\lvgl\version_6.1.2\lvgl\src\lv_misc\../lv_font/lv_font.h **** #include <stdint.h>
  23:..\..\..\lvgl\version_6.1.2\lvgl\src\lv_misc\../lv_font/lv_font.h **** #include <stddef.h>
  24:..\..\..\lvgl\version_6.1.2\lvgl\src\lv_misc\../lv_font/lv_font.h **** #include <stdbool.h>
  25:..\..\..\lvgl\version_6.1.2\lvgl\src\lv_misc\../lv_font/lv_font.h **** 
  26:..\..\..\lvgl\version_6.1.2\lvgl\src\lv_misc\../lv_font/lv_font.h **** #include "lv_symbol_def.h"
  27:..\..\..\lvgl\version_6.1.2\lvgl\src\lv_misc\../lv_font/lv_font.h **** 
  28:..\..\..\lvgl\version_6.1.2\lvgl\src\lv_misc\../lv_font/lv_font.h **** /*********************
  29:..\..\..\lvgl\version_6.1.2\lvgl\src\lv_misc\../lv_font/lv_font.h ****  *      DEFINES
  30:..\..\..\lvgl\version_6.1.2\lvgl\src\lv_misc\../lv_font/lv_font.h ****  *********************/
ARM GAS  C:\Users\tmj32\AppData\Local\Temp\ccPoPccU.s 			page 2


  31:..\..\..\lvgl\version_6.1.2\lvgl\src\lv_misc\../lv_font/lv_font.h **** /*Number of fractional digits in the advanced width (`adv_w`) field of `lv_font_glyph_dsc_t`*/
  32:..\..\..\lvgl\version_6.1.2\lvgl\src\lv_misc\../lv_font/lv_font.h **** #define LV_FONT_WIDTH_FRACT_DIGIT       4
  33:..\..\..\lvgl\version_6.1.2\lvgl\src\lv_misc\../lv_font/lv_font.h **** 
  34:..\..\..\lvgl\version_6.1.2\lvgl\src\lv_misc\../lv_font/lv_font.h **** #define LV_FONT_KERN_POSITIVE        0
  35:..\..\..\lvgl\version_6.1.2\lvgl\src\lv_misc\../lv_font/lv_font.h **** #define LV_FONT_KERN_NEGATIVE        1
  36:..\..\..\lvgl\version_6.1.2\lvgl\src\lv_misc\../lv_font/lv_font.h **** 
  37:..\..\..\lvgl\version_6.1.2\lvgl\src\lv_misc\../lv_font/lv_font.h **** /**********************
  38:..\..\..\lvgl\version_6.1.2\lvgl\src\lv_misc\../lv_font/lv_font.h ****  *      TYPEDEFS
  39:..\..\..\lvgl\version_6.1.2\lvgl\src\lv_misc\../lv_font/lv_font.h ****  **********************/
  40:..\..\..\lvgl\version_6.1.2\lvgl\src\lv_misc\../lv_font/lv_font.h **** 
  41:..\..\..\lvgl\version_6.1.2\lvgl\src\lv_misc\../lv_font/lv_font.h **** /*------------------
  42:..\..\..\lvgl\version_6.1.2\lvgl\src\lv_misc\../lv_font/lv_font.h ****  * General types
  43:..\..\..\lvgl\version_6.1.2\lvgl\src\lv_misc\../lv_font/lv_font.h ****  *-----------------*/
  44:..\..\..\lvgl\version_6.1.2\lvgl\src\lv_misc\../lv_font/lv_font.h **** 
  45:..\..\..\lvgl\version_6.1.2\lvgl\src\lv_misc\../lv_font/lv_font.h **** /** Describes the properties of a glyph. */
  46:..\..\..\lvgl\version_6.1.2\lvgl\src\lv_misc\../lv_font/lv_font.h **** typedef struct
  47:..\..\..\lvgl\version_6.1.2\lvgl\src\lv_misc\../lv_font/lv_font.h **** {
  48:..\..\..\lvgl\version_6.1.2\lvgl\src\lv_misc\../lv_font/lv_font.h ****     uint16_t adv_w; /**< The glyph needs this space. Draw the next glyph after this width. 8 bit in
  49:..\..\..\lvgl\version_6.1.2\lvgl\src\lv_misc\../lv_font/lv_font.h ****     uint8_t box_w;  /**< Width of the glyph's bounding box*/
  50:..\..\..\lvgl\version_6.1.2\lvgl\src\lv_misc\../lv_font/lv_font.h ****     uint8_t box_h;  /**< Height of the glyph's bounding box*/
  51:..\..\..\lvgl\version_6.1.2\lvgl\src\lv_misc\../lv_font/lv_font.h ****     int8_t ofs_x;   /**< x offset of the bounding box*/
  52:..\..\..\lvgl\version_6.1.2\lvgl\src\lv_misc\../lv_font/lv_font.h ****     int8_t ofs_y;  /**< y offset of the bounding box*/
  53:..\..\..\lvgl\version_6.1.2\lvgl\src\lv_misc\../lv_font/lv_font.h ****     uint8_t bpp;   /**< Bit-per-pixel: 1, 2, 4, 8*/
  54:..\..\..\lvgl\version_6.1.2\lvgl\src\lv_misc\../lv_font/lv_font.h **** }lv_font_glyph_dsc_t;
  55:..\..\..\lvgl\version_6.1.2\lvgl\src\lv_misc\../lv_font/lv_font.h **** 
  56:..\..\..\lvgl\version_6.1.2\lvgl\src\lv_misc\../lv_font/lv_font.h **** 
  57:..\..\..\lvgl\version_6.1.2\lvgl\src\lv_misc\../lv_font/lv_font.h **** /** The bitmaps might be upscaled by 3 to achieve subpixel rendering. */
  58:..\..\..\lvgl\version_6.1.2\lvgl\src\lv_misc\../lv_font/lv_font.h **** enum {
  59:..\..\..\lvgl\version_6.1.2\lvgl\src\lv_misc\../lv_font/lv_font.h ****     LV_FONT_SUBPX_NONE,
  60:..\..\..\lvgl\version_6.1.2\lvgl\src\lv_misc\../lv_font/lv_font.h ****     LV_FONT_SUBPX_HOR,
  61:..\..\..\lvgl\version_6.1.2\lvgl\src\lv_misc\../lv_font/lv_font.h ****     LV_FONT_SUBPX_VER,
  62:..\..\..\lvgl\version_6.1.2\lvgl\src\lv_misc\../lv_font/lv_font.h ****     LV_FONT_SUBPX_BOTH,
  63:..\..\..\lvgl\version_6.1.2\lvgl\src\lv_misc\../lv_font/lv_font.h **** };
  64:..\..\..\lvgl\version_6.1.2\lvgl\src\lv_misc\../lv_font/lv_font.h **** 
  65:..\..\..\lvgl\version_6.1.2\lvgl\src\lv_misc\../lv_font/lv_font.h **** typedef uint8_t lv_font_subpx_t;
  66:..\..\..\lvgl\version_6.1.2\lvgl\src\lv_misc\../lv_font/lv_font.h **** 
  67:..\..\..\lvgl\version_6.1.2\lvgl\src\lv_misc\../lv_font/lv_font.h **** /** Describe the properties of a font*/
  68:..\..\..\lvgl\version_6.1.2\lvgl\src\lv_misc\../lv_font/lv_font.h **** typedef struct _lv_font_struct
  69:..\..\..\lvgl\version_6.1.2\lvgl\src\lv_misc\../lv_font/lv_font.h **** {
  70:..\..\..\lvgl\version_6.1.2\lvgl\src\lv_misc\../lv_font/lv_font.h ****     /** Get a glyph's  descriptor from a font*/
  71:..\..\..\lvgl\version_6.1.2\lvgl\src\lv_misc\../lv_font/lv_font.h ****     bool (*get_glyph_dsc)(const struct _lv_font_struct *, lv_font_glyph_dsc_t *, uint32_t letter, u
  72:..\..\..\lvgl\version_6.1.2\lvgl\src\lv_misc\../lv_font/lv_font.h **** 
  73:..\..\..\lvgl\version_6.1.2\lvgl\src\lv_misc\../lv_font/lv_font.h ****     /** Get a glyph's bitmap from a font*/
  74:..\..\..\lvgl\version_6.1.2\lvgl\src\lv_misc\../lv_font/lv_font.h ****     const uint8_t * (*get_glyph_bitmap)(const struct _lv_font_struct *, uint32_t);
  75:..\..\..\lvgl\version_6.1.2\lvgl\src\lv_misc\../lv_font/lv_font.h **** 
  76:..\..\..\lvgl\version_6.1.2\lvgl\src\lv_misc\../lv_font/lv_font.h ****     /*Pointer to the font in a font pack (must have the same line height)*/
  77:..\..\..\lvgl\version_6.1.2\lvgl\src\lv_misc\../lv_font/lv_font.h ****     uint8_t line_height;      /**< The real line height where any text fits*/
  78:..\..\..\lvgl\version_6.1.2\lvgl\src\lv_misc\../lv_font/lv_font.h ****     int8_t base_line;        /**< Base line measured from the top of the line_height*/
  79:..\..\..\lvgl\version_6.1.2\lvgl\src\lv_misc\../lv_font/lv_font.h ****     uint8_t subpx  :2;        /**< An element of `lv_font_subpx_t`*/
  80:..\..\..\lvgl\version_6.1.2\lvgl\src\lv_misc\../lv_font/lv_font.h ****     void * dsc;               /**< Store implementation specific or run_time data or caching here*/
  81:..\..\..\lvgl\version_6.1.2\lvgl\src\lv_misc\../lv_font/lv_font.h **** #if LV_USE_USER_DATA
  82:..\..\..\lvgl\version_6.1.2\lvgl\src\lv_misc\../lv_font/lv_font.h ****     lv_font_user_data_t user_data; /**< Custom user data for font. */
  83:..\..\..\lvgl\version_6.1.2\lvgl\src\lv_misc\../lv_font/lv_font.h **** #endif
  84:..\..\..\lvgl\version_6.1.2\lvgl\src\lv_misc\../lv_font/lv_font.h **** 
  85:..\..\..\lvgl\version_6.1.2\lvgl\src\lv_misc\../lv_font/lv_font.h **** 
  86:..\..\..\lvgl\version_6.1.2\lvgl\src\lv_misc\../lv_font/lv_font.h **** } lv_font_t;
  87:..\..\..\lvgl\version_6.1.2\lvgl\src\lv_misc\../lv_font/lv_font.h **** 
ARM GAS  C:\Users\tmj32\AppData\Local\Temp\ccPoPccU.s 			page 3


  88:..\..\..\lvgl\version_6.1.2\lvgl\src\lv_misc\../lv_font/lv_font.h **** /**********************
  89:..\..\..\lvgl\version_6.1.2\lvgl\src\lv_misc\../lv_font/lv_font.h ****  * GLOBAL PROTOTYPES
  90:..\..\..\lvgl\version_6.1.2\lvgl\src\lv_misc\../lv_font/lv_font.h ****  **********************/
  91:..\..\..\lvgl\version_6.1.2\lvgl\src\lv_misc\../lv_font/lv_font.h **** 
  92:..\..\..\lvgl\version_6.1.2\lvgl\src\lv_misc\../lv_font/lv_font.h **** /**
  93:..\..\..\lvgl\version_6.1.2\lvgl\src\lv_misc\../lv_font/lv_font.h ****  * Return with the bitmap of a font.
  94:..\..\..\lvgl\version_6.1.2\lvgl\src\lv_misc\../lv_font/lv_font.h ****  * @param font_p pointer to a font
  95:..\..\..\lvgl\version_6.1.2\lvgl\src\lv_misc\../lv_font/lv_font.h ****  * @param letter an UNICODE character code
  96:..\..\..\lvgl\version_6.1.2\lvgl\src\lv_misc\../lv_font/lv_font.h ****  * @return  pointer to the bitmap of the letter
  97:..\..\..\lvgl\version_6.1.2\lvgl\src\lv_misc\../lv_font/lv_font.h ****  */
  98:..\..\..\lvgl\version_6.1.2\lvgl\src\lv_misc\../lv_font/lv_font.h **** const uint8_t * lv_font_get_glyph_bitmap(const lv_font_t * font_p, uint32_t letter);
  99:..\..\..\lvgl\version_6.1.2\lvgl\src\lv_misc\../lv_font/lv_font.h **** 
 100:..\..\..\lvgl\version_6.1.2\lvgl\src\lv_misc\../lv_font/lv_font.h **** /**
 101:..\..\..\lvgl\version_6.1.2\lvgl\src\lv_misc\../lv_font/lv_font.h ****  * Get the descriptor of a glyph
 102:..\..\..\lvgl\version_6.1.2\lvgl\src\lv_misc\../lv_font/lv_font.h ****  * @param font_p pointer to font
 103:..\..\..\lvgl\version_6.1.2\lvgl\src\lv_misc\../lv_font/lv_font.h ****  * @param dsc_out store the result descriptor here
 104:..\..\..\lvgl\version_6.1.2\lvgl\src\lv_misc\../lv_font/lv_font.h ****  * @param letter an UNICODE letter code
 105:..\..\..\lvgl\version_6.1.2\lvgl\src\lv_misc\../lv_font/lv_font.h ****  * @return true: descriptor is successfully loaded into `dsc_out`.
 106:..\..\..\lvgl\version_6.1.2\lvgl\src\lv_misc\../lv_font/lv_font.h ****  *         false: the letter was not found, no data is loaded to `dsc_out`
 107:..\..\..\lvgl\version_6.1.2\lvgl\src\lv_misc\../lv_font/lv_font.h ****  */
 108:..\..\..\lvgl\version_6.1.2\lvgl\src\lv_misc\../lv_font/lv_font.h **** bool lv_font_get_glyph_dsc(const lv_font_t * font_p, lv_font_glyph_dsc_t * dsc_out, uint32_t letter
 109:..\..\..\lvgl\version_6.1.2\lvgl\src\lv_misc\../lv_font/lv_font.h **** 
 110:..\..\..\lvgl\version_6.1.2\lvgl\src\lv_misc\../lv_font/lv_font.h **** /**
 111:..\..\..\lvgl\version_6.1.2\lvgl\src\lv_misc\../lv_font/lv_font.h ****  * Get the width of a glyph with kerning
 112:..\..\..\lvgl\version_6.1.2\lvgl\src\lv_misc\../lv_font/lv_font.h ****  * @param font pointer to a font
 113:..\..\..\lvgl\version_6.1.2\lvgl\src\lv_misc\../lv_font/lv_font.h ****  * @param letter an UNICODE letter
 114:..\..\..\lvgl\version_6.1.2\lvgl\src\lv_misc\../lv_font/lv_font.h ****  * @param letter_next the next letter after `letter`. Used for kerning
 115:..\..\..\lvgl\version_6.1.2\lvgl\src\lv_misc\../lv_font/lv_font.h ****  * @return the width of the glyph
 116:..\..\..\lvgl\version_6.1.2\lvgl\src\lv_misc\../lv_font/lv_font.h ****  */
 117:..\..\..\lvgl\version_6.1.2\lvgl\src\lv_misc\../lv_font/lv_font.h **** uint16_t lv_font_get_glyph_width(const lv_font_t * font, uint32_t letter, uint32_t letter_next);
 118:..\..\..\lvgl\version_6.1.2\lvgl\src\lv_misc\../lv_font/lv_font.h **** 
 119:..\..\..\lvgl\version_6.1.2\lvgl\src\lv_misc\../lv_font/lv_font.h **** /**
 120:..\..\..\lvgl\version_6.1.2\lvgl\src\lv_misc\../lv_font/lv_font.h ****  * Get the line height of a font. All characters fit into this height
 121:..\..\..\lvgl\version_6.1.2\lvgl\src\lv_misc\../lv_font/lv_font.h ****  * @param font_p pointer to a font
 122:..\..\..\lvgl\version_6.1.2\lvgl\src\lv_misc\../lv_font/lv_font.h ****  * @return the height of a font
 123:..\..\..\lvgl\version_6.1.2\lvgl\src\lv_misc\../lv_font/lv_font.h ****  */
 124:..\..\..\lvgl\version_6.1.2\lvgl\src\lv_misc\../lv_font/lv_font.h **** static inline uint8_t lv_font_get_line_height(const lv_font_t * font_p)
 125:..\..\..\lvgl\version_6.1.2\lvgl\src\lv_misc\../lv_font/lv_font.h **** {
  28              		.loc 1 125 0
  29              		.cfi_startproc
  30              		@ args = 0, pretend = 0, frame = 8
  31              		@ frame_needed = 1, uses_anonymous_args = 0
  32              		@ link register save eliminated.
  33 0000 80B4     		push	{r7}
  34              		.cfi_def_cfa_offset 4
  35              		.cfi_offset 7, -4
  36 0002 83B0     		sub	sp, sp, #12
  37              		.cfi_def_cfa_offset 16
  38 0004 00AF     		add	r7, sp, #0
  39              		.cfi_def_cfa_register 7
  40 0006 7860     		str	r0, [r7, #4]
 126:..\..\..\lvgl\version_6.1.2\lvgl\src\lv_misc\../lv_font/lv_font.h ****     return font_p->line_height;
  41              		.loc 1 126 0
  42 0008 7B68     		ldr	r3, [r7, #4]
  43 000a 1B7A     		ldrb	r3, [r3, #8]	@ zero_extendqisi2
 127:..\..\..\lvgl\version_6.1.2\lvgl\src\lv_misc\../lv_font/lv_font.h **** }
  44              		.loc 1 127 0
ARM GAS  C:\Users\tmj32\AppData\Local\Temp\ccPoPccU.s 			page 4


  45 000c 1846     		mov	r0, r3
  46 000e 0C37     		adds	r7, r7, #12
  47              		.cfi_def_cfa_offset 4
  48 0010 BD46     		mov	sp, r7
  49              		.cfi_def_cfa_register 13
  50              		@ sp needed
  51 0012 5DF8047B 		ldr	r7, [sp], #4
  52              		.cfi_restore 7
  53              		.cfi_def_cfa_offset 0
  54 0016 7047     		bx	lr
  55              		.cfi_endproc
  56              	.LFE3:
  57              		.size	lv_font_get_line_height, .-lv_font_get_line_height
  58              		.global	lv_txt_encoded_size
  59              		.data
  60              		.align	2
  61              		.type	lv_txt_encoded_size, %object
  62              		.size	lv_txt_encoded_size, 4
  63              	lv_txt_encoded_size:
  64 0000 00000000 		.word	lv_txt_iso8859_1_size
  65              		.global	lv_txt_unicode_to_encoded
  66              		.align	2
  67              		.type	lv_txt_unicode_to_encoded, %object
  68              		.size	lv_txt_unicode_to_encoded, 4
  69              	lv_txt_unicode_to_encoded:
  70 0004 00000000 		.word	lv_txt_unicode_to_iso8859_1
  71              		.global	lv_txt_encoded_conv_wc
  72              		.align	2
  73              		.type	lv_txt_encoded_conv_wc, %object
  74              		.size	lv_txt_encoded_conv_wc, 4
  75              	lv_txt_encoded_conv_wc:
  76 0008 00000000 		.word	lv_txt_iso8859_1_conv_wc
  77              		.global	lv_txt_encoded_next
  78              		.align	2
  79              		.type	lv_txt_encoded_next, %object
  80              		.size	lv_txt_encoded_next, 4
  81              	lv_txt_encoded_next:
  82 000c 00000000 		.word	lv_txt_iso8859_1_next
  83              		.global	lv_txt_encoded_prev
  84              		.align	2
  85              		.type	lv_txt_encoded_prev, %object
  86              		.size	lv_txt_encoded_prev, 4
  87              	lv_txt_encoded_prev:
  88 0010 00000000 		.word	lv_txt_iso8859_1_prev
  89              		.global	lv_txt_encoded_get_byte_id
  90              		.align	2
  91              		.type	lv_txt_encoded_get_byte_id, %object
  92              		.size	lv_txt_encoded_get_byte_id, 4
  93              	lv_txt_encoded_get_byte_id:
  94 0014 00000000 		.word	lv_txt_iso8859_1_get_byte_id
  95              		.global	lv_txt_encoded_get_char_id
  96              		.align	2
  97              		.type	lv_txt_encoded_get_char_id, %object
  98              		.size	lv_txt_encoded_get_char_id, 4
  99              	lv_txt_encoded_get_char_id:
 100 0018 00000000 		.word	lv_txt_iso8859_1_get_char_id
 101              		.global	lv_txt_get_encoded_length
ARM GAS  C:\Users\tmj32\AppData\Local\Temp\ccPoPccU.s 			page 5


 102              		.align	2
 103              		.type	lv_txt_get_encoded_length, %object
 104              		.size	lv_txt_get_encoded_length, 4
 105              	lv_txt_get_encoded_length:
 106 001c 00000000 		.word	lv_txt_iso8859_1_get_length
 107              		.section	.text.lv_txt_get_size,"ax",%progbits
 108              		.align	2
 109              		.global	lv_txt_get_size
 110              		.thumb
 111              		.thumb_func
 112              		.type	lv_txt_get_size, %function
 113              	lv_txt_get_size:
 114              	.LFB4:
 115              		.file 2 "..\\..\\..\\lvgl\\version_6.1.2\\lvgl\\src\\lv_misc\\lv_txt.c"
   1:..\..\..\lvgl\version_6.1.2\lvgl\src\lv_misc/lv_txt.c **** /**
   2:..\..\..\lvgl\version_6.1.2\lvgl\src\lv_misc/lv_txt.c ****  * @file lv_text.c
   3:..\..\..\lvgl\version_6.1.2\lvgl\src\lv_misc/lv_txt.c ****  *
   4:..\..\..\lvgl\version_6.1.2\lvgl\src\lv_misc/lv_txt.c ****  */
   5:..\..\..\lvgl\version_6.1.2\lvgl\src\lv_misc/lv_txt.c **** 
   6:..\..\..\lvgl\version_6.1.2\lvgl\src\lv_misc/lv_txt.c **** /*********************
   7:..\..\..\lvgl\version_6.1.2\lvgl\src\lv_misc/lv_txt.c ****  *      INCLUDES
   8:..\..\..\lvgl\version_6.1.2\lvgl\src\lv_misc/lv_txt.c ****  *********************/
   9:..\..\..\lvgl\version_6.1.2\lvgl\src\lv_misc/lv_txt.c **** #include "lv_txt.h"
  10:..\..\..\lvgl\version_6.1.2\lvgl\src\lv_misc/lv_txt.c **** #include "lv_math.h"
  11:..\..\..\lvgl\version_6.1.2\lvgl\src\lv_misc/lv_txt.c **** #include "lv_log.h"
  12:..\..\..\lvgl\version_6.1.2\lvgl\src\lv_misc/lv_txt.c **** 
  13:..\..\..\lvgl\version_6.1.2\lvgl\src\lv_misc/lv_txt.c **** /*********************
  14:..\..\..\lvgl\version_6.1.2\lvgl\src\lv_misc/lv_txt.c ****  *      DEFINES
  15:..\..\..\lvgl\version_6.1.2\lvgl\src\lv_misc/lv_txt.c ****  *********************/
  16:..\..\..\lvgl\version_6.1.2\lvgl\src\lv_misc/lv_txt.c **** #define NO_BREAK_FOUND UINT32_MAX
  17:..\..\..\lvgl\version_6.1.2\lvgl\src\lv_misc/lv_txt.c **** 
  18:..\..\..\lvgl\version_6.1.2\lvgl\src\lv_misc/lv_txt.c **** /**********************
  19:..\..\..\lvgl\version_6.1.2\lvgl\src\lv_misc/lv_txt.c ****  *      TYPEDEFS
  20:..\..\..\lvgl\version_6.1.2\lvgl\src\lv_misc/lv_txt.c ****  **********************/
  21:..\..\..\lvgl\version_6.1.2\lvgl\src\lv_misc/lv_txt.c **** 
  22:..\..\..\lvgl\version_6.1.2\lvgl\src\lv_misc/lv_txt.c **** /**********************
  23:..\..\..\lvgl\version_6.1.2\lvgl\src\lv_misc/lv_txt.c ****  *  STATIC PROTOTYPES
  24:..\..\..\lvgl\version_6.1.2\lvgl\src\lv_misc/lv_txt.c ****  **********************/
  25:..\..\..\lvgl\version_6.1.2\lvgl\src\lv_misc/lv_txt.c **** static inline bool is_break_char(uint32_t letter);
  26:..\..\..\lvgl\version_6.1.2\lvgl\src\lv_misc/lv_txt.c **** 
  27:..\..\..\lvgl\version_6.1.2\lvgl\src\lv_misc/lv_txt.c **** #if LV_TXT_ENC == LV_TXT_ENC_UTF8
  28:..\..\..\lvgl\version_6.1.2\lvgl\src\lv_misc/lv_txt.c **** static uint8_t lv_txt_utf8_size(const char * str);
  29:..\..\..\lvgl\version_6.1.2\lvgl\src\lv_misc/lv_txt.c **** static uint32_t lv_txt_unicode_to_utf8(uint32_t letter_uni);
  30:..\..\..\lvgl\version_6.1.2\lvgl\src\lv_misc/lv_txt.c **** static uint32_t lv_txt_utf8_conv_wc(uint32_t c);
  31:..\..\..\lvgl\version_6.1.2\lvgl\src\lv_misc/lv_txt.c **** static uint32_t lv_txt_utf8_next(const char * txt, uint32_t * i);
  32:..\..\..\lvgl\version_6.1.2\lvgl\src\lv_misc/lv_txt.c **** static uint32_t lv_txt_utf8_prev(const char * txt, uint32_t * i_start);
  33:..\..\..\lvgl\version_6.1.2\lvgl\src\lv_misc/lv_txt.c **** static uint32_t lv_txt_utf8_get_byte_id(const char * txt, uint32_t utf8_id);
  34:..\..\..\lvgl\version_6.1.2\lvgl\src\lv_misc/lv_txt.c **** static uint32_t lv_txt_utf8_get_char_id(const char * txt, uint32_t byte_id);
  35:..\..\..\lvgl\version_6.1.2\lvgl\src\lv_misc/lv_txt.c **** static uint32_t lv_txt_utf8_get_length(const char * txt);
  36:..\..\..\lvgl\version_6.1.2\lvgl\src\lv_misc/lv_txt.c **** #elif LV_TXT_ENC == LV_TXT_ENC_ASCII
  37:..\..\..\lvgl\version_6.1.2\lvgl\src\lv_misc/lv_txt.c **** static uint8_t lv_txt_iso8859_1_size(const char * str);
  38:..\..\..\lvgl\version_6.1.2\lvgl\src\lv_misc/lv_txt.c **** static uint32_t lv_txt_unicode_to_iso8859_1(uint32_t letter_uni);
  39:..\..\..\lvgl\version_6.1.2\lvgl\src\lv_misc/lv_txt.c **** static uint32_t lv_txt_iso8859_1_conv_wc(uint32_t c);
  40:..\..\..\lvgl\version_6.1.2\lvgl\src\lv_misc/lv_txt.c **** static uint32_t lv_txt_iso8859_1_next(const char * txt, uint32_t * i);
  41:..\..\..\lvgl\version_6.1.2\lvgl\src\lv_misc/lv_txt.c **** static uint32_t lv_txt_iso8859_1_prev(const char * txt, uint32_t * i_start);
  42:..\..\..\lvgl\version_6.1.2\lvgl\src\lv_misc/lv_txt.c **** static uint32_t lv_txt_iso8859_1_get_byte_id(const char * txt, uint32_t utf8_id);
  43:..\..\..\lvgl\version_6.1.2\lvgl\src\lv_misc/lv_txt.c **** static uint32_t lv_txt_iso8859_1_get_char_id(const char * txt, uint32_t byte_id);
ARM GAS  C:\Users\tmj32\AppData\Local\Temp\ccPoPccU.s 			page 6


  44:..\..\..\lvgl\version_6.1.2\lvgl\src\lv_misc/lv_txt.c **** static uint32_t lv_txt_iso8859_1_get_length(const char * txt);
  45:..\..\..\lvgl\version_6.1.2\lvgl\src\lv_misc/lv_txt.c **** #endif
  46:..\..\..\lvgl\version_6.1.2\lvgl\src\lv_misc/lv_txt.c **** /**********************
  47:..\..\..\lvgl\version_6.1.2\lvgl\src\lv_misc/lv_txt.c ****  *  STATIC VARIABLES
  48:..\..\..\lvgl\version_6.1.2\lvgl\src\lv_misc/lv_txt.c ****  **********************/
  49:..\..\..\lvgl\version_6.1.2\lvgl\src\lv_misc/lv_txt.c **** 
  50:..\..\..\lvgl\version_6.1.2\lvgl\src\lv_misc/lv_txt.c **** /**********************
  51:..\..\..\lvgl\version_6.1.2\lvgl\src\lv_misc/lv_txt.c ****  *  GLOBAL VARIABLES
  52:..\..\..\lvgl\version_6.1.2\lvgl\src\lv_misc/lv_txt.c ****  **********************/
  53:..\..\..\lvgl\version_6.1.2\lvgl\src\lv_misc/lv_txt.c **** #if LV_TXT_ENC == LV_TXT_ENC_UTF8
  54:..\..\..\lvgl\version_6.1.2\lvgl\src\lv_misc/lv_txt.c **** uint8_t (*lv_txt_encoded_size)(const char *)                   = lv_txt_utf8_size;
  55:..\..\..\lvgl\version_6.1.2\lvgl\src\lv_misc/lv_txt.c **** uint32_t (*lv_txt_unicode_to_encoded)(uint32_t)                = lv_txt_unicode_to_utf8;
  56:..\..\..\lvgl\version_6.1.2\lvgl\src\lv_misc/lv_txt.c **** uint32_t (*lv_txt_encoded_conv_wc)(uint32_t)                   = lv_txt_utf8_conv_wc;
  57:..\..\..\lvgl\version_6.1.2\lvgl\src\lv_misc/lv_txt.c **** uint32_t (*lv_txt_encoded_next)(const char *, uint32_t *)      = lv_txt_utf8_next;
  58:..\..\..\lvgl\version_6.1.2\lvgl\src\lv_misc/lv_txt.c **** uint32_t (*lv_txt_encoded_prev)(const char *, uint32_t *)      = lv_txt_utf8_prev;
  59:..\..\..\lvgl\version_6.1.2\lvgl\src\lv_misc/lv_txt.c **** uint32_t (*lv_txt_encoded_get_byte_id)(const char *, uint32_t) = lv_txt_utf8_get_byte_id;
  60:..\..\..\lvgl\version_6.1.2\lvgl\src\lv_misc/lv_txt.c **** uint32_t (*lv_txt_encoded_get_char_id)(const char *, uint32_t) = lv_txt_utf8_get_char_id;
  61:..\..\..\lvgl\version_6.1.2\lvgl\src\lv_misc/lv_txt.c **** uint32_t (*lv_txt_get_encoded_length)(const char *)            = lv_txt_utf8_get_length;
  62:..\..\..\lvgl\version_6.1.2\lvgl\src\lv_misc/lv_txt.c **** #elif LV_TXT_ENC == LV_TXT_ENC_ASCII
  63:..\..\..\lvgl\version_6.1.2\lvgl\src\lv_misc/lv_txt.c **** uint8_t (*lv_txt_encoded_size)(const char *)                   = lv_txt_iso8859_1_size;
  64:..\..\..\lvgl\version_6.1.2\lvgl\src\lv_misc/lv_txt.c **** uint32_t (*lv_txt_unicode_to_encoded)(uint32_t)                = lv_txt_unicode_to_iso8859_1;
  65:..\..\..\lvgl\version_6.1.2\lvgl\src\lv_misc/lv_txt.c **** uint32_t (*lv_txt_encoded_conv_wc)(uint32_t)                   = lv_txt_iso8859_1_conv_wc;
  66:..\..\..\lvgl\version_6.1.2\lvgl\src\lv_misc/lv_txt.c **** uint32_t (*lv_txt_encoded_next)(const char *, uint32_t *)      = lv_txt_iso8859_1_next;
  67:..\..\..\lvgl\version_6.1.2\lvgl\src\lv_misc/lv_txt.c **** uint32_t (*lv_txt_encoded_prev)(const char *, uint32_t *)      = lv_txt_iso8859_1_prev;
  68:..\..\..\lvgl\version_6.1.2\lvgl\src\lv_misc/lv_txt.c **** uint32_t (*lv_txt_encoded_get_byte_id)(const char *, uint32_t) = lv_txt_iso8859_1_get_byte_id;
  69:..\..\..\lvgl\version_6.1.2\lvgl\src\lv_misc/lv_txt.c **** uint32_t (*lv_txt_encoded_get_char_id)(const char *, uint32_t)     = lv_txt_iso8859_1_get_char_id;
  70:..\..\..\lvgl\version_6.1.2\lvgl\src\lv_misc/lv_txt.c **** uint32_t (*lv_txt_get_encoded_length)(const char *)            = lv_txt_iso8859_1_get_length;
  71:..\..\..\lvgl\version_6.1.2\lvgl\src\lv_misc/lv_txt.c **** 
  72:..\..\..\lvgl\version_6.1.2\lvgl\src\lv_misc/lv_txt.c **** #endif
  73:..\..\..\lvgl\version_6.1.2\lvgl\src\lv_misc/lv_txt.c **** 
  74:..\..\..\lvgl\version_6.1.2\lvgl\src\lv_misc/lv_txt.c **** /**********************
  75:..\..\..\lvgl\version_6.1.2\lvgl\src\lv_misc/lv_txt.c ****  *      MACROS
  76:..\..\..\lvgl\version_6.1.2\lvgl\src\lv_misc/lv_txt.c ****  **********************/
  77:..\..\..\lvgl\version_6.1.2\lvgl\src\lv_misc/lv_txt.c **** 
  78:..\..\..\lvgl\version_6.1.2\lvgl\src\lv_misc/lv_txt.c **** /**********************
  79:..\..\..\lvgl\version_6.1.2\lvgl\src\lv_misc/lv_txt.c ****  *   GLOBAL FUNCTIONS
  80:..\..\..\lvgl\version_6.1.2\lvgl\src\lv_misc/lv_txt.c ****  **********************/
  81:..\..\..\lvgl\version_6.1.2\lvgl\src\lv_misc/lv_txt.c **** 
  82:..\..\..\lvgl\version_6.1.2\lvgl\src\lv_misc/lv_txt.c **** /**
  83:..\..\..\lvgl\version_6.1.2\lvgl\src\lv_misc/lv_txt.c ****  * Get size of a text
  84:..\..\..\lvgl\version_6.1.2\lvgl\src\lv_misc/lv_txt.c ****  * @param size_res pointer to a 'point_t' variable to store the result
  85:..\..\..\lvgl\version_6.1.2\lvgl\src\lv_misc/lv_txt.c ****  * @param text pointer to a text
  86:..\..\..\lvgl\version_6.1.2\lvgl\src\lv_misc/lv_txt.c ****  * @param font pinter to font of the text
  87:..\..\..\lvgl\version_6.1.2\lvgl\src\lv_misc/lv_txt.c ****  * @param letter_space letter space of the text
  88:..\..\..\lvgl\version_6.1.2\lvgl\src\lv_misc/lv_txt.c ****  * @param txt.line_space line space of the text
  89:..\..\..\lvgl\version_6.1.2\lvgl\src\lv_misc/lv_txt.c ****  * @param flags settings for the text from 'txt_flag_t' enum
  90:..\..\..\lvgl\version_6.1.2\lvgl\src\lv_misc/lv_txt.c ****  * @param max_width max with of the text (break the lines to fit this size) Set CORD_MAX to avoid
  91:..\..\..\lvgl\version_6.1.2\lvgl\src\lv_misc/lv_txt.c ****  * line breaks
  92:..\..\..\lvgl\version_6.1.2\lvgl\src\lv_misc/lv_txt.c ****  */
  93:..\..\..\lvgl\version_6.1.2\lvgl\src\lv_misc/lv_txt.c **** void lv_txt_get_size(lv_point_t * size_res, const char * text, const lv_font_t * font, lv_coord_t l
  94:..\..\..\lvgl\version_6.1.2\lvgl\src\lv_misc/lv_txt.c ****                      lv_coord_t line_space, lv_coord_t max_width, lv_txt_flag_t flag)
  95:..\..\..\lvgl\version_6.1.2\lvgl\src\lv_misc/lv_txt.c **** {
 116              		.loc 2 95 0
 117              		.cfi_startproc
 118              		@ args = 12, pretend = 0, frame = 32
 119              		@ frame_needed = 1, uses_anonymous_args = 0
 120 0000 80B5     		push	{r7, lr}
ARM GAS  C:\Users\tmj32\AppData\Local\Temp\ccPoPccU.s 			page 7


 121              		.cfi_def_cfa_offset 8
 122              		.cfi_offset 7, -8
 123              		.cfi_offset 14, -4
 124 0002 8AB0     		sub	sp, sp, #40
 125              		.cfi_def_cfa_offset 48
 126 0004 02AF     		add	r7, sp, #8
 127              		.cfi_def_cfa 7, 40
 128 0006 F860     		str	r0, [r7, #12]
 129 0008 B960     		str	r1, [r7, #8]
 130 000a 7A60     		str	r2, [r7, #4]
 131 000c 7B80     		strh	r3, [r7, #2]	@ movhi
  96:..\..\..\lvgl\version_6.1.2\lvgl\src\lv_misc/lv_txt.c ****     size_res->x = 0;
 132              		.loc 2 96 0
 133 000e FB68     		ldr	r3, [r7, #12]
 134 0010 0022     		movs	r2, #0
 135 0012 1A80     		strh	r2, [r3]	@ movhi
  97:..\..\..\lvgl\version_6.1.2\lvgl\src\lv_misc/lv_txt.c ****     size_res->y = 0;
 136              		.loc 2 97 0
 137 0014 FB68     		ldr	r3, [r7, #12]
 138 0016 0022     		movs	r2, #0
 139 0018 5A80     		strh	r2, [r3, #2]	@ movhi
  98:..\..\..\lvgl\version_6.1.2\lvgl\src\lv_misc/lv_txt.c **** 
  99:..\..\..\lvgl\version_6.1.2\lvgl\src\lv_misc/lv_txt.c ****     if(text == NULL) return;
 140              		.loc 2 99 0
 141 001a BB68     		ldr	r3, [r7, #8]
 142 001c 002B     		cmp	r3, #0
 143 001e 00F0A680 		beq	.L14
 100:..\..\..\lvgl\version_6.1.2\lvgl\src\lv_misc/lv_txt.c ****     if(font == NULL) return;
 144              		.loc 2 100 0
 145 0022 7B68     		ldr	r3, [r7, #4]
 146 0024 002B     		cmp	r3, #0
 147 0026 00F0A480 		beq	.L15
 101:..\..\..\lvgl\version_6.1.2\lvgl\src\lv_misc/lv_txt.c **** 
 102:..\..\..\lvgl\version_6.1.2\lvgl\src\lv_misc/lv_txt.c ****     if(flag & LV_TXT_FLAG_EXPAND) max_width = LV_COORD_MAX;
 148              		.loc 2 102 0
 149 002a 97F83030 		ldrb	r3, [r7, #48]	@ zero_extendqisi2
 150 002e 03F00203 		and	r3, r3, #2
 151 0032 002B     		cmp	r3, #0
 152 0034 02D0     		beq	.L7
 153              		.loc 2 102 0 is_stmt 0 discriminator 1
 154 0036 47F61843 		movw	r3, #31768
 155 003a BB85     		strh	r3, [r7, #44]	@ movhi
 156              	.L7:
 103:..\..\..\lvgl\version_6.1.2\lvgl\src\lv_misc/lv_txt.c **** 
 104:..\..\..\lvgl\version_6.1.2\lvgl\src\lv_misc/lv_txt.c ****     uint32_t line_start     = 0;
 157              		.loc 2 104 0 is_stmt 1
 158 003c 0023     		movs	r3, #0
 159 003e FB61     		str	r3, [r7, #28]
 105:..\..\..\lvgl\version_6.1.2\lvgl\src\lv_misc/lv_txt.c ****     uint32_t new_line_start = 0;
 160              		.loc 2 105 0
 161 0040 0023     		movs	r3, #0
 162 0042 BB61     		str	r3, [r7, #24]
 106:..\..\..\lvgl\version_6.1.2\lvgl\src\lv_misc/lv_txt.c ****     lv_coord_t act_line_length;
 107:..\..\..\lvgl\version_6.1.2\lvgl\src\lv_misc/lv_txt.c ****     uint8_t letter_height = lv_font_get_line_height(font);
 163              		.loc 2 107 0
 164 0044 7868     		ldr	r0, [r7, #4]
 165 0046 FFF7FEFF 		bl	lv_font_get_line_height
ARM GAS  C:\Users\tmj32\AppData\Local\Temp\ccPoPccU.s 			page 8


 166 004a 0346     		mov	r3, r0
 167 004c FB75     		strb	r3, [r7, #23]
 108:..\..\..\lvgl\version_6.1.2\lvgl\src\lv_misc/lv_txt.c **** 
 109:..\..\..\lvgl\version_6.1.2\lvgl\src\lv_misc/lv_txt.c ****     /*Calc. the height and longest line*/
 110:..\..\..\lvgl\version_6.1.2\lvgl\src\lv_misc/lv_txt.c ****     while(text[line_start] != '\0') {
 168              		.loc 2 110 0
 169 004e 54E0     		b	.L8
 170              	.L10:
 111:..\..\..\lvgl\version_6.1.2\lvgl\src\lv_misc/lv_txt.c ****         new_line_start += lv_txt_get_next_line(&text[line_start], font, letter_space, max_width, fl
 171              		.loc 2 111 0
 172 0050 BA68     		ldr	r2, [r7, #8]
 173 0052 FB69     		ldr	r3, [r7, #28]
 174 0054 D018     		adds	r0, r2, r3
 175 0056 B7F92C10 		ldrsh	r1, [r7, #44]
 176 005a B7F90220 		ldrsh	r2, [r7, #2]
 177 005e 97F83030 		ldrb	r3, [r7, #48]	@ zero_extendqisi2
 178 0062 0093     		str	r3, [sp]
 179 0064 0B46     		mov	r3, r1
 180 0066 7968     		ldr	r1, [r7, #4]
 181 0068 FFF7FEFF 		bl	lv_txt_get_next_line
 182 006c 0346     		mov	r3, r0
 183 006e 1A46     		mov	r2, r3
 184 0070 BB69     		ldr	r3, [r7, #24]
 185 0072 1344     		add	r3, r3, r2
 186 0074 BB61     		str	r3, [r7, #24]
 112:..\..\..\lvgl\version_6.1.2\lvgl\src\lv_misc/lv_txt.c **** 
 113:..\..\..\lvgl\version_6.1.2\lvgl\src\lv_misc/lv_txt.c ****         if ((unsigned long)size_res->y + (unsigned long)letter_height + (unsigned long)line_space >
 187              		.loc 2 113 0
 188 0076 FB68     		ldr	r3, [r7, #12]
 189 0078 B3F90230 		ldrsh	r3, [r3, #2]
 190 007c 1A46     		mov	r2, r3
 191 007e FB7D     		ldrb	r3, [r7, #23]	@ zero_extendqisi2
 192 0080 1A44     		add	r2, r2, r3
 193 0082 B7F92830 		ldrsh	r3, [r7, #40]
 194 0086 1344     		add	r3, r3, r2
 195 0088 B3F5004F 		cmp	r3, #32768
 196 008c 73D2     		bcs	.L16
 114:..\..\..\lvgl\version_6.1.2\lvgl\src\lv_misc/lv_txt.c ****             LV_LOG_WARN("lv_txt_get_size: integer overflow while calculating text height");
 115:..\..\..\lvgl\version_6.1.2\lvgl\src\lv_misc/lv_txt.c ****             return;
 116:..\..\..\lvgl\version_6.1.2\lvgl\src\lv_misc/lv_txt.c ****         } else {
 117:..\..\..\lvgl\version_6.1.2\lvgl\src\lv_misc/lv_txt.c ****             size_res->y += letter_height;
 197              		.loc 2 117 0
 198 008e FB68     		ldr	r3, [r7, #12]
 199 0090 B3F90230 		ldrsh	r3, [r3, #2]
 200 0094 9AB2     		uxth	r2, r3
 201 0096 FB7D     		ldrb	r3, [r7, #23]	@ zero_extendqisi2
 202 0098 9BB2     		uxth	r3, r3
 203 009a 1344     		add	r3, r3, r2
 204 009c 9BB2     		uxth	r3, r3
 205 009e 1AB2     		sxth	r2, r3
 206 00a0 FB68     		ldr	r3, [r7, #12]
 207 00a2 5A80     		strh	r2, [r3, #2]	@ movhi
 118:..\..\..\lvgl\version_6.1.2\lvgl\src\lv_misc/lv_txt.c ****             size_res->y += line_space;
 208              		.loc 2 118 0
 209 00a4 FB68     		ldr	r3, [r7, #12]
 210 00a6 B3F90230 		ldrsh	r3, [r3, #2]
 211 00aa 9AB2     		uxth	r2, r3
ARM GAS  C:\Users\tmj32\AppData\Local\Temp\ccPoPccU.s 			page 9


 212 00ac 3B8D     		ldrh	r3, [r7, #40]
 213 00ae 1344     		add	r3, r3, r2
 214 00b0 9BB2     		uxth	r3, r3
 215 00b2 1AB2     		sxth	r2, r3
 216 00b4 FB68     		ldr	r3, [r7, #12]
 217 00b6 5A80     		strh	r2, [r3, #2]	@ movhi
 119:..\..\..\lvgl\version_6.1.2\lvgl\src\lv_misc/lv_txt.c ****         }
 120:..\..\..\lvgl\version_6.1.2\lvgl\src\lv_misc/lv_txt.c **** 
 121:..\..\..\lvgl\version_6.1.2\lvgl\src\lv_misc/lv_txt.c ****         /*Calculate the the longest line*/
 122:..\..\..\lvgl\version_6.1.2\lvgl\src\lv_misc/lv_txt.c ****         act_line_length = lv_txt_get_width(&text[line_start], new_line_start - line_start, font, le
 218              		.loc 2 122 0
 219 00b8 BA68     		ldr	r2, [r7, #8]
 220 00ba FB69     		ldr	r3, [r7, #28]
 221 00bc D018     		adds	r0, r2, r3
 222 00be BB69     		ldr	r3, [r7, #24]
 223 00c0 9AB2     		uxth	r2, r3
 224 00c2 FB69     		ldr	r3, [r7, #28]
 225 00c4 9BB2     		uxth	r3, r3
 226 00c6 D31A     		subs	r3, r2, r3
 227 00c8 99B2     		uxth	r1, r3
 228 00ca B7F90220 		ldrsh	r2, [r7, #2]
 229 00ce 97F83030 		ldrb	r3, [r7, #48]	@ zero_extendqisi2
 230 00d2 0093     		str	r3, [sp]
 231 00d4 1346     		mov	r3, r2
 232 00d6 7A68     		ldr	r2, [r7, #4]
 233 00d8 FFF7FEFF 		bl	lv_txt_get_width
 234 00dc 0346     		mov	r3, r0
 235 00de BB82     		strh	r3, [r7, #20]	@ movhi
 123:..\..\..\lvgl\version_6.1.2\lvgl\src\lv_misc/lv_txt.c **** 
 124:..\..\..\lvgl\version_6.1.2\lvgl\src\lv_misc/lv_txt.c ****         size_res->x = LV_MATH_MAX(act_line_length, size_res->x);
 236              		.loc 2 124 0
 237 00e0 FB68     		ldr	r3, [r7, #12]
 238 00e2 B3F90020 		ldrsh	r2, [r3]
 239 00e6 B7F91430 		ldrsh	r3, [r7, #20]
 240 00ea 9342     		cmp	r3, r2
 241 00ec B8BF     		it	lt
 242 00ee 1346     		movlt	r3, r2
 243 00f0 1AB2     		sxth	r2, r3
 244 00f2 FB68     		ldr	r3, [r7, #12]
 245 00f4 1A80     		strh	r2, [r3]	@ movhi
 125:..\..\..\lvgl\version_6.1.2\lvgl\src\lv_misc/lv_txt.c ****         line_start  = new_line_start;
 246              		.loc 2 125 0
 247 00f6 BB69     		ldr	r3, [r7, #24]
 248 00f8 FB61     		str	r3, [r7, #28]
 249              	.L8:
 110:..\..\..\lvgl\version_6.1.2\lvgl\src\lv_misc/lv_txt.c ****         new_line_start += lv_txt_get_next_line(&text[line_start], font, letter_space, max_width, fl
 250              		.loc 2 110 0
 251 00fa BA68     		ldr	r2, [r7, #8]
 252 00fc FB69     		ldr	r3, [r7, #28]
 253 00fe 1344     		add	r3, r3, r2
 254 0100 1B78     		ldrb	r3, [r3]	@ zero_extendqisi2
 255 0102 002B     		cmp	r3, #0
 256 0104 A4D1     		bne	.L10
 126:..\..\..\lvgl\version_6.1.2\lvgl\src\lv_misc/lv_txt.c ****     }
 127:..\..\..\lvgl\version_6.1.2\lvgl\src\lv_misc/lv_txt.c **** 
 128:..\..\..\lvgl\version_6.1.2\lvgl\src\lv_misc/lv_txt.c ****     /*Make the text one line taller if the last character is '\n' or '\r'*/
 129:..\..\..\lvgl\version_6.1.2\lvgl\src\lv_misc/lv_txt.c ****     if((line_start != 0) && (text[line_start - 1] == '\n' || text[line_start - 1] == '\r')) {
ARM GAS  C:\Users\tmj32\AppData\Local\Temp\ccPoPccU.s 			page 10


 257              		.loc 2 129 0
 258 0106 FB69     		ldr	r3, [r7, #28]
 259 0108 002B     		cmp	r3, #0
 260 010a 1BD0     		beq	.L11
 261              		.loc 2 129 0 is_stmt 0 discriminator 1
 262 010c FB69     		ldr	r3, [r7, #28]
 263 010e 013B     		subs	r3, r3, #1
 264 0110 BA68     		ldr	r2, [r7, #8]
 265 0112 1344     		add	r3, r3, r2
 266 0114 1B78     		ldrb	r3, [r3]	@ zero_extendqisi2
 267 0116 0A2B     		cmp	r3, #10
 268 0118 06D0     		beq	.L12
 269              		.loc 2 129 0 discriminator 2
 270 011a FB69     		ldr	r3, [r7, #28]
 271 011c 013B     		subs	r3, r3, #1
 272 011e BA68     		ldr	r2, [r7, #8]
 273 0120 1344     		add	r3, r3, r2
 274 0122 1B78     		ldrb	r3, [r3]	@ zero_extendqisi2
 275 0124 0D2B     		cmp	r3, #13
 276 0126 0DD1     		bne	.L11
 277              	.L12:
 130:..\..\..\lvgl\version_6.1.2\lvgl\src\lv_misc/lv_txt.c ****         size_res->y += letter_height + line_space;
 278              		.loc 2 130 0 is_stmt 1
 279 0128 FB68     		ldr	r3, [r7, #12]
 280 012a B3F90230 		ldrsh	r3, [r3, #2]
 281 012e 9AB2     		uxth	r2, r3
 282 0130 FB7D     		ldrb	r3, [r7, #23]	@ zero_extendqisi2
 283 0132 99B2     		uxth	r1, r3
 284 0134 3B8D     		ldrh	r3, [r7, #40]
 285 0136 0B44     		add	r3, r3, r1
 286 0138 9BB2     		uxth	r3, r3
 287 013a 1344     		add	r3, r3, r2
 288 013c 9BB2     		uxth	r3, r3
 289 013e 1AB2     		sxth	r2, r3
 290 0140 FB68     		ldr	r3, [r7, #12]
 291 0142 5A80     		strh	r2, [r3, #2]	@ movhi
 292              	.L11:
 131:..\..\..\lvgl\version_6.1.2\lvgl\src\lv_misc/lv_txt.c ****     }
 132:..\..\..\lvgl\version_6.1.2\lvgl\src\lv_misc/lv_txt.c **** 
 133:..\..\..\lvgl\version_6.1.2\lvgl\src\lv_misc/lv_txt.c ****     /*Correction with the last line space or set the height manually if the text is empty*/
 134:..\..\..\lvgl\version_6.1.2\lvgl\src\lv_misc/lv_txt.c ****     if(size_res->y == 0)
 293              		.loc 2 134 0
 294 0144 FB68     		ldr	r3, [r7, #12]
 295 0146 B3F90230 		ldrsh	r3, [r3, #2]
 296 014a 002B     		cmp	r3, #0
 297 014c 04D1     		bne	.L13
 135:..\..\..\lvgl\version_6.1.2\lvgl\src\lv_misc/lv_txt.c ****         size_res->y = letter_height;
 298              		.loc 2 135 0
 299 014e FB7D     		ldrb	r3, [r7, #23]	@ zero_extendqisi2
 300 0150 1AB2     		sxth	r2, r3
 301 0152 FB68     		ldr	r3, [r7, #12]
 302 0154 5A80     		strh	r2, [r3, #2]	@ movhi
 303 0156 0FE0     		b	.L3
 304              	.L13:
 136:..\..\..\lvgl\version_6.1.2\lvgl\src\lv_misc/lv_txt.c ****     else
 137:..\..\..\lvgl\version_6.1.2\lvgl\src\lv_misc/lv_txt.c ****         size_res->y -= line_space;
 305              		.loc 2 137 0
ARM GAS  C:\Users\tmj32\AppData\Local\Temp\ccPoPccU.s 			page 11


 306 0158 FB68     		ldr	r3, [r7, #12]
 307 015a B3F90230 		ldrsh	r3, [r3, #2]
 308 015e 9AB2     		uxth	r2, r3
 309 0160 3B8D     		ldrh	r3, [r7, #40]
 310 0162 D31A     		subs	r3, r2, r3
 311 0164 9BB2     		uxth	r3, r3
 312 0166 1AB2     		sxth	r2, r3
 313 0168 FB68     		ldr	r3, [r7, #12]
 314 016a 5A80     		strh	r2, [r3, #2]	@ movhi
 315 016c 04E0     		b	.L3
 316              	.L14:
  99:..\..\..\lvgl\version_6.1.2\lvgl\src\lv_misc/lv_txt.c ****     if(font == NULL) return;
 317              		.loc 2 99 0
 318 016e 00BF     		nop
 319 0170 02E0     		b	.L3
 320              	.L15:
 100:..\..\..\lvgl\version_6.1.2\lvgl\src\lv_misc/lv_txt.c **** 
 321              		.loc 2 100 0
 322 0172 00BF     		nop
 323 0174 00E0     		b	.L3
 324              	.L16:
 115:..\..\..\lvgl\version_6.1.2\lvgl\src\lv_misc/lv_txt.c ****         } else {
 325              		.loc 2 115 0
 326 0176 00BF     		nop
 327              	.L3:
 138:..\..\..\lvgl\version_6.1.2\lvgl\src\lv_misc/lv_txt.c **** }
 328              		.loc 2 138 0
 329 0178 2037     		adds	r7, r7, #32
 330              		.cfi_def_cfa_offset 8
 331 017a BD46     		mov	sp, r7
 332              		.cfi_def_cfa_register 13
 333              		@ sp needed
 334 017c 80BD     		pop	{r7, pc}
 335              		.cfi_endproc
 336              	.LFE4:
 337              		.size	lv_txt_get_size, .-lv_txt_get_size
 338 017e 00BF     		.section	.text.lv_txt_get_next_word,"ax",%progbits
 339              		.align	2
 340              		.thumb
 341              		.thumb_func
 342              		.type	lv_txt_get_next_word, %function
 343              	lv_txt_get_next_word:
 344              	.LFB5:
 139:..\..\..\lvgl\version_6.1.2\lvgl\src\lv_misc/lv_txt.c **** 
 140:..\..\..\lvgl\version_6.1.2\lvgl\src\lv_misc/lv_txt.c **** /**
 141:..\..\..\lvgl\version_6.1.2\lvgl\src\lv_misc/lv_txt.c ****  * Get the next word of text. A word is delimited by break characters.
 142:..\..\..\lvgl\version_6.1.2\lvgl\src\lv_misc/lv_txt.c ****  *
 143:..\..\..\lvgl\version_6.1.2\lvgl\src\lv_misc/lv_txt.c ****  * If the word cannot fit in the max_width space, obey LV_TXT_LINE_BREAK_LONG_* rules.
 144:..\..\..\lvgl\version_6.1.2\lvgl\src\lv_misc/lv_txt.c ****  *
 145:..\..\..\lvgl\version_6.1.2\lvgl\src\lv_misc/lv_txt.c ****  * If the next word cannot fit anything, return 0.
 146:..\..\..\lvgl\version_6.1.2\lvgl\src\lv_misc/lv_txt.c ****  *
 147:..\..\..\lvgl\version_6.1.2\lvgl\src\lv_misc/lv_txt.c ****  * If the first character is a break character, returns the next index.
 148:..\..\..\lvgl\version_6.1.2\lvgl\src\lv_misc/lv_txt.c ****  *
 149:..\..\..\lvgl\version_6.1.2\lvgl\src\lv_misc/lv_txt.c ****  * Example calls from lv_txt_get_next_line() assuming sufficent max_width and
 150:..\..\..\lvgl\version_6.1.2\lvgl\src\lv_misc/lv_txt.c ****  * txt = "Test text\n"
 151:..\..\..\lvgl\version_6.1.2\lvgl\src\lv_misc/lv_txt.c ****  *        0123456789
 152:..\..\..\lvgl\version_6.1.2\lvgl\src\lv_misc/lv_txt.c ****  *
ARM GAS  C:\Users\tmj32\AppData\Local\Temp\ccPoPccU.s 			page 12


 153:..\..\..\lvgl\version_6.1.2\lvgl\src\lv_misc/lv_txt.c ****  * Calls would be as follows:
 154:..\..\..\lvgl\version_6.1.2\lvgl\src\lv_misc/lv_txt.c ****  *     1. Return i=4, pointing at breakchar ' ', for the string "Test"
 155:..\..\..\lvgl\version_6.1.2\lvgl\src\lv_misc/lv_txt.c ****  *     2. Return i=5, since i=4 was a breakchar.
 156:..\..\..\lvgl\version_6.1.2\lvgl\src\lv_misc/lv_txt.c ****  *     3. Return i=9, pointing at breakchar '\n'
 157:..\..\..\lvgl\version_6.1.2\lvgl\src\lv_misc/lv_txt.c ****  *     4. Parenting lv_txt_get_next_line() would detect subsequent '\0'
 158:..\..\..\lvgl\version_6.1.2\lvgl\src\lv_misc/lv_txt.c ****  *
 159:..\..\..\lvgl\version_6.1.2\lvgl\src\lv_misc/lv_txt.c ****  * TODO: Returned word_w_ptr may overestimate the returned word's width when 
 160:..\..\..\lvgl\version_6.1.2\lvgl\src\lv_misc/lv_txt.c ****  * max_width is reached. In current usage, this has no impact.
 161:..\..\..\lvgl\version_6.1.2\lvgl\src\lv_misc/lv_txt.c ****  *
 162:..\..\..\lvgl\version_6.1.2\lvgl\src\lv_misc/lv_txt.c ****  * @param txt a '\0' terminated string
 163:..\..\..\lvgl\version_6.1.2\lvgl\src\lv_misc/lv_txt.c ****  * @param font pointer to a font
 164:..\..\..\lvgl\version_6.1.2\lvgl\src\lv_misc/lv_txt.c ****  * @param letter_space letter space
 165:..\..\..\lvgl\version_6.1.2\lvgl\src\lv_misc/lv_txt.c ****  * @param max_width max with of the text (break the lines to fit this size) Set CORD_MAX to avoid l
 166:..\..\..\lvgl\version_6.1.2\lvgl\src\lv_misc/lv_txt.c ****  * @param flags settings for the text from 'txt_flag_type' enum
 167:..\..\..\lvgl\version_6.1.2\lvgl\src\lv_misc/lv_txt.c ****  * @param[out] word_w_ptr width (in pixels) of the parsed word. May be NULL.
 168:..\..\..\lvgl\version_6.1.2\lvgl\src\lv_misc/lv_txt.c ****  * @param force Force return the fraction of the word that can fit in the provided space.
 169:..\..\..\lvgl\version_6.1.2\lvgl\src\lv_misc/lv_txt.c ****  * @return the index of the first char of the next word (in byte index not letter index. With UTF-8
 170:..\..\..\lvgl\version_6.1.2\lvgl\src\lv_misc/lv_txt.c ****  */
 171:..\..\..\lvgl\version_6.1.2\lvgl\src\lv_misc/lv_txt.c **** static uint16_t lv_txt_get_next_word(const char * txt, const lv_font_t * font,
 172:..\..\..\lvgl\version_6.1.2\lvgl\src\lv_misc/lv_txt.c ****                               lv_coord_t letter_space, lv_coord_t max_width,
 173:..\..\..\lvgl\version_6.1.2\lvgl\src\lv_misc/lv_txt.c ****                               lv_txt_flag_t flag, uint32_t *word_w_ptr, lv_txt_cmd_state_t * cmd_st
 174:..\..\..\lvgl\version_6.1.2\lvgl\src\lv_misc/lv_txt.c **** {
 345              		.loc 2 174 0
 346              		.cfi_startproc
 347              		@ args = 16, pretend = 0, frame = 64
 348              		@ frame_needed = 1, uses_anonymous_args = 0
 349 0000 80B5     		push	{r7, lr}
 350              		.cfi_def_cfa_offset 8
 351              		.cfi_offset 7, -8
 352              		.cfi_offset 14, -4
 353 0002 90B0     		sub	sp, sp, #64
 354              		.cfi_def_cfa_offset 72
 355 0004 00AF     		add	r7, sp, #0
 356              		.cfi_def_cfa_register 7
 357 0006 F860     		str	r0, [r7, #12]
 358 0008 B960     		str	r1, [r7, #8]
 359 000a 1146     		mov	r1, r2
 360 000c 1A46     		mov	r2, r3
 361 000e 0B46     		mov	r3, r1	@ movhi
 362 0010 FB80     		strh	r3, [r7, #6]	@ movhi
 363 0012 1346     		mov	r3, r2	@ movhi
 364 0014 BB80     		strh	r3, [r7, #4]	@ movhi
 175:..\..\..\lvgl\version_6.1.2\lvgl\src\lv_misc/lv_txt.c ****     if(txt == NULL || txt[0] == '\0') return 0;
 365              		.loc 2 175 0
 366 0016 FB68     		ldr	r3, [r7, #12]
 367 0018 002B     		cmp	r3, #0
 368 001a 03D0     		beq	.L18
 369              		.loc 2 175 0 is_stmt 0 discriminator 2
 370 001c FB68     		ldr	r3, [r7, #12]
 371 001e 1B78     		ldrb	r3, [r3]	@ zero_extendqisi2
 372 0020 002B     		cmp	r3, #0
 373 0022 01D1     		bne	.L19
 374              	.L18:
 375              		.loc 2 175 0 discriminator 3
 376 0024 0023     		movs	r3, #0
 377 0026 F3E0     		b	.L44
 378              	.L19:
ARM GAS  C:\Users\tmj32\AppData\Local\Temp\ccPoPccU.s 			page 13


 176:..\..\..\lvgl\version_6.1.2\lvgl\src\lv_misc/lv_txt.c ****     if(font == NULL) return 0;
 379              		.loc 2 176 0 is_stmt 1
 380 0028 BB68     		ldr	r3, [r7, #8]
 381 002a 002B     		cmp	r3, #0
 382 002c 01D1     		bne	.L21
 383              		.loc 2 176 0 is_stmt 0 discriminator 1
 384 002e 0023     		movs	r3, #0
 385 0030 EEE0     		b	.L44
 386              	.L21:
 177:..\..\..\lvgl\version_6.1.2\lvgl\src\lv_misc/lv_txt.c **** 
 178:..\..\..\lvgl\version_6.1.2\lvgl\src\lv_misc/lv_txt.c ****     if(flag & LV_TXT_FLAG_EXPAND) max_width = LV_COORD_MAX;
 387              		.loc 2 178 0 is_stmt 1
 388 0032 97F84830 		ldrb	r3, [r7, #72]	@ zero_extendqisi2
 389 0036 03F00203 		and	r3, r3, #2
 390 003a 002B     		cmp	r3, #0
 391 003c 02D0     		beq	.L22
 392              		.loc 2 178 0 is_stmt 0 discriminator 1
 393 003e 47F61843 		movw	r3, #31768
 394 0042 BB80     		strh	r3, [r7, #4]	@ movhi
 395              	.L22:
 179:..\..\..\lvgl\version_6.1.2\lvgl\src\lv_misc/lv_txt.c **** 
 180:..\..\..\lvgl\version_6.1.2\lvgl\src\lv_misc/lv_txt.c ****     uint32_t i = 0, i_next = 0, i_next_next = 0;  /* Iterating index into txt */
 396              		.loc 2 180 0 is_stmt 1
 397 0044 0023     		movs	r3, #0
 398 0046 FB61     		str	r3, [r7, #28]
 399 0048 0023     		movs	r3, #0
 400 004a BB61     		str	r3, [r7, #24]
 401 004c 0023     		movs	r3, #0
 402 004e 7B61     		str	r3, [r7, #20]
 181:..\..\..\lvgl\version_6.1.2\lvgl\src\lv_misc/lv_txt.c ****     uint32_t letter = 0;      /* Letter at i */
 403              		.loc 2 181 0
 404 0050 0023     		movs	r3, #0
 405 0052 FB63     		str	r3, [r7, #60]
 182:..\..\..\lvgl\version_6.1.2\lvgl\src\lv_misc/lv_txt.c ****     uint32_t letter_next = 0; /* Letter at i_next */
 406              		.loc 2 182 0
 407 0054 0023     		movs	r3, #0
 408 0056 BB63     		str	r3, [r7, #56]
 183:..\..\..\lvgl\version_6.1.2\lvgl\src\lv_misc/lv_txt.c ****     lv_coord_t letter_w;
 184:..\..\..\lvgl\version_6.1.2\lvgl\src\lv_misc/lv_txt.c ****     lv_coord_t cur_w = 0;  /* Pixel Width of transversed string */
 409              		.loc 2 184 0
 410 0058 0023     		movs	r3, #0
 411 005a FB86     		strh	r3, [r7, #54]	@ movhi
 185:..\..\..\lvgl\version_6.1.2\lvgl\src\lv_misc/lv_txt.c ****     uint32_t word_len = 0;   /* Number of characters in the transversed word */
 412              		.loc 2 185 0
 413 005c 0023     		movs	r3, #0
 414 005e 3B63     		str	r3, [r7, #48]
 186:..\..\..\lvgl\version_6.1.2\lvgl\src\lv_misc/lv_txt.c ****     uint32_t break_index = NO_BREAK_FOUND; /* only used for "long" words */
 415              		.loc 2 186 0
 416 0060 4FF0FF33 		mov	r3, #-1
 417 0064 FB62     		str	r3, [r7, #44]
 187:..\..\..\lvgl\version_6.1.2\lvgl\src\lv_misc/lv_txt.c ****     uint32_t break_letter_count = 0; /* Number of characters up to the long word break point */
 418              		.loc 2 187 0
 419 0066 0023     		movs	r3, #0
 420 0068 BB62     		str	r3, [r7, #40]
 188:..\..\..\lvgl\version_6.1.2\lvgl\src\lv_misc/lv_txt.c **** 
 189:..\..\..\lvgl\version_6.1.2\lvgl\src\lv_misc/lv_txt.c ****     letter = lv_txt_encoded_next(txt, &i_next);
 421              		.loc 2 189 0
ARM GAS  C:\Users\tmj32\AppData\Local\Temp\ccPoPccU.s 			page 14


 422 006a 6B4B     		ldr	r3, .L45
 423 006c 1B68     		ldr	r3, [r3]
 424 006e 07F11802 		add	r2, r7, #24
 425 0072 1146     		mov	r1, r2
 426 0074 F868     		ldr	r0, [r7, #12]
 427 0076 9847     		blx	r3
 428 0078 F863     		str	r0, [r7, #60]
 190:..\..\..\lvgl\version_6.1.2\lvgl\src\lv_misc/lv_txt.c ****     i_next_next = i_next;
 429              		.loc 2 190 0
 430 007a BB69     		ldr	r3, [r7, #24]
 431 007c 7B61     		str	r3, [r7, #20]
 191:..\..\..\lvgl\version_6.1.2\lvgl\src\lv_misc/lv_txt.c **** 
 192:..\..\..\lvgl\version_6.1.2\lvgl\src\lv_misc/lv_txt.c ****     /* Obtain the full word, regardless if it fits or not in max_width */
 193:..\..\..\lvgl\version_6.1.2\lvgl\src\lv_misc/lv_txt.c ****     while(txt[i] != '\0') {
 432              		.loc 2 193 0
 433 007e 74E0     		b	.L23
 434              	.L32:
 194:..\..\..\lvgl\version_6.1.2\lvgl\src\lv_misc/lv_txt.c ****         letter_next = lv_txt_encoded_next(txt, &i_next_next);
 435              		.loc 2 194 0
 436 0080 654B     		ldr	r3, .L45
 437 0082 1B68     		ldr	r3, [r3]
 438 0084 07F11402 		add	r2, r7, #20
 439 0088 1146     		mov	r1, r2
 440 008a F868     		ldr	r0, [r7, #12]
 441 008c 9847     		blx	r3
 442 008e B863     		str	r0, [r7, #56]
 195:..\..\..\lvgl\version_6.1.2\lvgl\src\lv_misc/lv_txt.c ****         word_len++;
 443              		.loc 2 195 0
 444 0090 3B6B     		ldr	r3, [r7, #48]
 445 0092 0133     		adds	r3, r3, #1
 446 0094 3B63     		str	r3, [r7, #48]
 196:..\..\..\lvgl\version_6.1.2\lvgl\src\lv_misc/lv_txt.c **** 
 197:..\..\..\lvgl\version_6.1.2\lvgl\src\lv_misc/lv_txt.c ****         /*Handle the recolor command*/
 198:..\..\..\lvgl\version_6.1.2\lvgl\src\lv_misc/lv_txt.c ****         if((flag & LV_TXT_FLAG_RECOLOR) != 0) {
 447              		.loc 2 198 0
 448 0096 97F84830 		ldrb	r3, [r7, #72]	@ zero_extendqisi2
 449 009a 03F00103 		and	r3, r3, #1
 450 009e 002B     		cmp	r3, #0
 451 00a0 0DD0     		beq	.L24
 199:..\..\..\lvgl\version_6.1.2\lvgl\src\lv_misc/lv_txt.c ****             if(lv_txt_is_cmd(cmd_state, letter) != false) {
 452              		.loc 2 199 0
 453 00a2 F96B     		ldr	r1, [r7, #60]
 454 00a4 386D     		ldr	r0, [r7, #80]
 455 00a6 FFF7FEFF 		bl	lv_txt_is_cmd
 456 00aa 0346     		mov	r3, r0
 457 00ac 002B     		cmp	r3, #0
 458 00ae 06D0     		beq	.L24
 200:..\..\..\lvgl\version_6.1.2\lvgl\src\lv_misc/lv_txt.c ****                 i = i_next;
 459              		.loc 2 200 0
 460 00b0 BB69     		ldr	r3, [r7, #24]
 461 00b2 FB61     		str	r3, [r7, #28]
 201:..\..\..\lvgl\version_6.1.2\lvgl\src\lv_misc/lv_txt.c ****                 i_next = i_next_next;
 462              		.loc 2 201 0
 463 00b4 7B69     		ldr	r3, [r7, #20]
 464 00b6 BB61     		str	r3, [r7, #24]
 202:..\..\..\lvgl\version_6.1.2\lvgl\src\lv_misc/lv_txt.c ****                 letter = letter_next;
 465              		.loc 2 202 0
ARM GAS  C:\Users\tmj32\AppData\Local\Temp\ccPoPccU.s 			page 15


 466 00b8 BB6B     		ldr	r3, [r7, #56]
 467 00ba FB63     		str	r3, [r7, #60]
 203:..\..\..\lvgl\version_6.1.2\lvgl\src\lv_misc/lv_txt.c ****                 continue;   /*Skip the letter is it is part of a command*/
 468              		.loc 2 203 0
 469 00bc 55E0     		b	.L23
 470              	.L24:
 204:..\..\..\lvgl\version_6.1.2\lvgl\src\lv_misc/lv_txt.c ****             }
 205:..\..\..\lvgl\version_6.1.2\lvgl\src\lv_misc/lv_txt.c ****         }
 206:..\..\..\lvgl\version_6.1.2\lvgl\src\lv_misc/lv_txt.c **** 
 207:..\..\..\lvgl\version_6.1.2\lvgl\src\lv_misc/lv_txt.c ****         letter_w = lv_font_get_glyph_width(font, letter, letter_next);
 471              		.loc 2 207 0
 472 00be BA6B     		ldr	r2, [r7, #56]
 473 00c0 F96B     		ldr	r1, [r7, #60]
 474 00c2 B868     		ldr	r0, [r7, #8]
 475 00c4 FFF7FEFF 		bl	lv_font_get_glyph_width
 476 00c8 0346     		mov	r3, r0
 477 00ca 7B84     		strh	r3, [r7, #34]	@ movhi
 208:..\..\..\lvgl\version_6.1.2\lvgl\src\lv_misc/lv_txt.c ****         cur_w += letter_w;
 478              		.loc 2 208 0
 479 00cc FA8E     		ldrh	r2, [r7, #54]
 480 00ce 7B8C     		ldrh	r3, [r7, #34]
 481 00d0 1344     		add	r3, r3, r2
 482 00d2 9BB2     		uxth	r3, r3
 483 00d4 FB86     		strh	r3, [r7, #54]	@ movhi
 209:..\..\..\lvgl\version_6.1.2\lvgl\src\lv_misc/lv_txt.c **** 
 210:..\..\..\lvgl\version_6.1.2\lvgl\src\lv_misc/lv_txt.c ****         if(letter_w > 0) {
 484              		.loc 2 210 0
 485 00d6 B7F92230 		ldrsh	r3, [r7, #34]
 486 00da 002B     		cmp	r3, #0
 487 00dc 04DD     		ble	.L25
 211:..\..\..\lvgl\version_6.1.2\lvgl\src\lv_misc/lv_txt.c ****             cur_w += letter_space;
 488              		.loc 2 211 0
 489 00de FA8E     		ldrh	r2, [r7, #54]
 490 00e0 FB88     		ldrh	r3, [r7, #6]
 491 00e2 1344     		add	r3, r3, r2
 492 00e4 9BB2     		uxth	r3, r3
 493 00e6 FB86     		strh	r3, [r7, #54]	@ movhi
 494              	.L25:
 212:..\..\..\lvgl\version_6.1.2\lvgl\src\lv_misc/lv_txt.c ****         }
 213:..\..\..\lvgl\version_6.1.2\lvgl\src\lv_misc/lv_txt.c **** 
 214:..\..\..\lvgl\version_6.1.2\lvgl\src\lv_misc/lv_txt.c ****         /* Test if this character fits within max_width */
 215:..\..\..\lvgl\version_6.1.2\lvgl\src\lv_misc/lv_txt.c ****         if(break_index == NO_BREAK_FOUND && (cur_w - letter_space) > max_width) {
 495              		.loc 2 215 0
 496 00e8 FB6A     		ldr	r3, [r7, #44]
 497 00ea B3F1FF3F 		cmp	r3, #-1
 498 00ee 0DD1     		bne	.L26
 499              		.loc 2 215 0 is_stmt 0 discriminator 1
 500 00f0 B7F93620 		ldrsh	r2, [r7, #54]
 501 00f4 B7F90630 		ldrsh	r3, [r7, #6]
 502 00f8 D21A     		subs	r2, r2, r3
 503 00fa B7F90430 		ldrsh	r3, [r7, #4]
 504 00fe 9A42     		cmp	r2, r3
 505 0100 04DD     		ble	.L26
 216:..\..\..\lvgl\version_6.1.2\lvgl\src\lv_misc/lv_txt.c ****             break_index = i; 
 506              		.loc 2 216 0 is_stmt 1
 507 0102 FB69     		ldr	r3, [r7, #28]
 508 0104 FB62     		str	r3, [r7, #44]
ARM GAS  C:\Users\tmj32\AppData\Local\Temp\ccPoPccU.s 			page 16


 217:..\..\..\lvgl\version_6.1.2\lvgl\src\lv_misc/lv_txt.c ****             break_letter_count = word_len - 1;
 509              		.loc 2 217 0
 510 0106 3B6B     		ldr	r3, [r7, #48]
 511 0108 013B     		subs	r3, r3, #1
 512 010a BB62     		str	r3, [r7, #40]
 513              	.L26:
 218:..\..\..\lvgl\version_6.1.2\lvgl\src\lv_misc/lv_txt.c ****             /* break_index is now pointing at the character that doesn't fit */
 219:..\..\..\lvgl\version_6.1.2\lvgl\src\lv_misc/lv_txt.c ****         }
 220:..\..\..\lvgl\version_6.1.2\lvgl\src\lv_misc/lv_txt.c **** 
 221:..\..\..\lvgl\version_6.1.2\lvgl\src\lv_misc/lv_txt.c ****         /*Check for new line chars and breakchars*/
 222:..\..\..\lvgl\version_6.1.2\lvgl\src\lv_misc/lv_txt.c ****         if(letter == '\n' || letter == '\r' || is_break_char(letter)) {
 514              		.loc 2 222 0
 515 010c FB6B     		ldr	r3, [r7, #60]
 516 010e 0A2B     		cmp	r3, #10
 517 0110 08D0     		beq	.L27
 518              		.loc 2 222 0 is_stmt 0 discriminator 1
 519 0112 FB6B     		ldr	r3, [r7, #60]
 520 0114 0D2B     		cmp	r3, #13
 521 0116 05D0     		beq	.L27
 522              		.loc 2 222 0 discriminator 2
 523 0118 F86B     		ldr	r0, [r7, #60]
 524 011a FFF7FEFF 		bl	is_break_char
 525 011e 0346     		mov	r3, r0
 526 0120 002B     		cmp	r3, #0
 527 0122 11D0     		beq	.L28
 528              	.L27:
 223:..\..\..\lvgl\version_6.1.2\lvgl\src\lv_misc/lv_txt.c ****             /* Update the output width on the first character if it fits.
 224:..\..\..\lvgl\version_6.1.2\lvgl\src\lv_misc/lv_txt.c ****              * Must do this here incase first letter is a break character. */
 225:..\..\..\lvgl\version_6.1.2\lvgl\src\lv_misc/lv_txt.c ****             if(i == 0 && break_index == NO_BREAK_FOUND && word_w_ptr != NULL) *word_w_ptr = cur_w;
 529              		.loc 2 225 0 is_stmt 1
 530 0124 FB69     		ldr	r3, [r7, #28]
 531 0126 002B     		cmp	r3, #0
 532 0128 0AD1     		bne	.L29
 533              		.loc 2 225 0 is_stmt 0 discriminator 1
 534 012a FB6A     		ldr	r3, [r7, #44]
 535 012c B3F1FF3F 		cmp	r3, #-1
 536 0130 06D1     		bne	.L29
 537              		.loc 2 225 0 discriminator 2
 538 0132 FB6C     		ldr	r3, [r7, #76]
 539 0134 002B     		cmp	r3, #0
 540 0136 03D0     		beq	.L29
 541              		.loc 2 225 0 discriminator 3
 542 0138 B7F93620 		ldrsh	r2, [r7, #54]
 543 013c FB6C     		ldr	r3, [r7, #76]
 544 013e 1A60     		str	r2, [r3]
 545              	.L29:
 226:..\..\..\lvgl\version_6.1.2\lvgl\src\lv_misc/lv_txt.c ****             word_len--;
 546              		.loc 2 226 0 is_stmt 1
 547 0140 3B6B     		ldr	r3, [r7, #48]
 548 0142 013B     		subs	r3, r3, #1
 549 0144 3B63     		str	r3, [r7, #48]
 227:..\..\..\lvgl\version_6.1.2\lvgl\src\lv_misc/lv_txt.c ****             break;
 550              		.loc 2 227 0
 551 0146 16E0     		b	.L30
 552              	.L28:
 228:..\..\..\lvgl\version_6.1.2\lvgl\src\lv_misc/lv_txt.c ****         }
 229:..\..\..\lvgl\version_6.1.2\lvgl\src\lv_misc/lv_txt.c **** 
ARM GAS  C:\Users\tmj32\AppData\Local\Temp\ccPoPccU.s 			page 17


 230:..\..\..\lvgl\version_6.1.2\lvgl\src\lv_misc/lv_txt.c ****         /* Update the output width */
 231:..\..\..\lvgl\version_6.1.2\lvgl\src\lv_misc/lv_txt.c ****         if( word_w_ptr != NULL && break_index == NO_BREAK_FOUND ) *word_w_ptr = cur_w;
 553              		.loc 2 231 0
 554 0148 FB6C     		ldr	r3, [r7, #76]
 555 014a 002B     		cmp	r3, #0
 556 014c 07D0     		beq	.L31
 557              		.loc 2 231 0 is_stmt 0 discriminator 1
 558 014e FB6A     		ldr	r3, [r7, #44]
 559 0150 B3F1FF3F 		cmp	r3, #-1
 560 0154 03D1     		bne	.L31
 561              		.loc 2 231 0 discriminator 2
 562 0156 B7F93620 		ldrsh	r2, [r7, #54]
 563 015a FB6C     		ldr	r3, [r7, #76]
 564 015c 1A60     		str	r2, [r3]
 565              	.L31:
 232:..\..\..\lvgl\version_6.1.2\lvgl\src\lv_misc/lv_txt.c **** 
 233:..\..\..\lvgl\version_6.1.2\lvgl\src\lv_misc/lv_txt.c **** 
 234:..\..\..\lvgl\version_6.1.2\lvgl\src\lv_misc/lv_txt.c ****         i = i_next;
 566              		.loc 2 234 0 is_stmt 1
 567 015e BB69     		ldr	r3, [r7, #24]
 568 0160 FB61     		str	r3, [r7, #28]
 235:..\..\..\lvgl\version_6.1.2\lvgl\src\lv_misc/lv_txt.c ****         i_next = i_next_next;
 569              		.loc 2 235 0
 570 0162 7B69     		ldr	r3, [r7, #20]
 571 0164 BB61     		str	r3, [r7, #24]
 236:..\..\..\lvgl\version_6.1.2\lvgl\src\lv_misc/lv_txt.c ****         letter = letter_next;
 572              		.loc 2 236 0
 573 0166 BB6B     		ldr	r3, [r7, #56]
 574 0168 FB63     		str	r3, [r7, #60]
 575              	.L23:
 193:..\..\..\lvgl\version_6.1.2\lvgl\src\lv_misc/lv_txt.c ****         letter_next = lv_txt_encoded_next(txt, &i_next_next);
 576              		.loc 2 193 0
 577 016a FB69     		ldr	r3, [r7, #28]
 578 016c FA68     		ldr	r2, [r7, #12]
 579 016e 1344     		add	r3, r3, r2
 580 0170 1B78     		ldrb	r3, [r3]	@ zero_extendqisi2
 581 0172 002B     		cmp	r3, #0
 582 0174 84D1     		bne	.L32
 583              	.L30:
 237:..\..\..\lvgl\version_6.1.2\lvgl\src\lv_misc/lv_txt.c ****     }
 238:..\..\..\lvgl\version_6.1.2\lvgl\src\lv_misc/lv_txt.c **** 
 239:..\..\..\lvgl\version_6.1.2\lvgl\src\lv_misc/lv_txt.c ****     /* Entire Word fits in the provided space */
 240:..\..\..\lvgl\version_6.1.2\lvgl\src\lv_misc/lv_txt.c ****     if( break_index == NO_BREAK_FOUND ) {
 584              		.loc 2 240 0
 585 0176 FB6A     		ldr	r3, [r7, #44]
 586 0178 B3F1FF3F 		cmp	r3, #-1
 587 017c 0DD1     		bne	.L33
 241:..\..\..\lvgl\version_6.1.2\lvgl\src\lv_misc/lv_txt.c ****         if( word_len == 0 || (letter == '\r' && letter_next == '\n') ) i = i_next;
 588              		.loc 2 241 0
 589 017e 3B6B     		ldr	r3, [r7, #48]
 590 0180 002B     		cmp	r3, #0
 591 0182 05D0     		beq	.L34
 592              		.loc 2 241 0 is_stmt 0 discriminator 2
 593 0184 FB6B     		ldr	r3, [r7, #60]
 594 0186 0D2B     		cmp	r3, #13
 595 0188 04D1     		bne	.L35
 596              		.loc 2 241 0 discriminator 3
ARM GAS  C:\Users\tmj32\AppData\Local\Temp\ccPoPccU.s 			page 18


 597 018a BB6B     		ldr	r3, [r7, #56]
 598 018c 0A2B     		cmp	r3, #10
 599 018e 01D1     		bne	.L35
 600              	.L34:
 601              		.loc 2 241 0 discriminator 4
 602 0190 BB69     		ldr	r3, [r7, #24]
 603 0192 FB61     		str	r3, [r7, #28]
 604              	.L35:
 242:..\..\..\lvgl\version_6.1.2\lvgl\src\lv_misc/lv_txt.c ****         return i;
 605              		.loc 2 242 0 is_stmt 1
 606 0194 FB69     		ldr	r3, [r7, #28]
 607 0196 9BB2     		uxth	r3, r3
 608 0198 3AE0     		b	.L44
 609              	.L33:
 243:..\..\..\lvgl\version_6.1.2\lvgl\src\lv_misc/lv_txt.c ****     }
 244:..\..\..\lvgl\version_6.1.2\lvgl\src\lv_misc/lv_txt.c **** 
 245:..\..\..\lvgl\version_6.1.2\lvgl\src\lv_misc/lv_txt.c **** #if LV_TXT_LINE_BREAK_LONG_LEN > 0
 246:..\..\..\lvgl\version_6.1.2\lvgl\src\lv_misc/lv_txt.c ****     /* Word doesn't fit in provided space, but isn't "long" */
 247:..\..\..\lvgl\version_6.1.2\lvgl\src\lv_misc/lv_txt.c ****     if(word_len < LV_TXT_LINE_BREAK_LONG_LEN) {
 610              		.loc 2 247 0
 611 019a 3B6B     		ldr	r3, [r7, #48]
 612 019c 0B2B     		cmp	r3, #11
 613 019e 0ED8     		bhi	.L36
 248:..\..\..\lvgl\version_6.1.2\lvgl\src\lv_misc/lv_txt.c ****         if( force ) return break_index;
 614              		.loc 2 248 0
 615 01a0 97F85430 		ldrb	r3, [r7, #84]	@ zero_extendqisi2
 616 01a4 002B     		cmp	r3, #0
 617 01a6 02D0     		beq	.L37
 618              		.loc 2 248 0 is_stmt 0 discriminator 1
 619 01a8 FB6A     		ldr	r3, [r7, #44]
 620 01aa 9BB2     		uxth	r3, r3
 621 01ac 30E0     		b	.L44
 622              	.L37:
 249:..\..\..\lvgl\version_6.1.2\lvgl\src\lv_misc/lv_txt.c ****         if(word_w_ptr != NULL) *word_w_ptr = 0; /* Return no word */
 623              		.loc 2 249 0 is_stmt 1
 624 01ae FB6C     		ldr	r3, [r7, #76]
 625 01b0 002B     		cmp	r3, #0
 626 01b2 02D0     		beq	.L38
 627              		.loc 2 249 0 is_stmt 0 discriminator 1
 628 01b4 FB6C     		ldr	r3, [r7, #76]
 629 01b6 0022     		movs	r2, #0
 630 01b8 1A60     		str	r2, [r3]
 631              	.L38:
 250:..\..\..\lvgl\version_6.1.2\lvgl\src\lv_misc/lv_txt.c ****         return 0;
 632              		.loc 2 250 0 is_stmt 1
 633 01ba 0023     		movs	r3, #0
 634 01bc 28E0     		b	.L44
 635              	.L36:
 251:..\..\..\lvgl\version_6.1.2\lvgl\src\lv_misc/lv_txt.c ****     }
 252:..\..\..\lvgl\version_6.1.2\lvgl\src\lv_misc/lv_txt.c **** 
 253:..\..\..\lvgl\version_6.1.2\lvgl\src\lv_misc/lv_txt.c ****     /* Word is "long," but insufficient amounts can fit in provided space */
 254:..\..\..\lvgl\version_6.1.2\lvgl\src\lv_misc/lv_txt.c ****     if(break_letter_count < LV_TXT_LINE_BREAK_LONG_PRE_MIN_LEN) {
 636              		.loc 2 254 0
 637 01be BB6A     		ldr	r3, [r7, #40]
 638 01c0 022B     		cmp	r3, #2
 639 01c2 0ED8     		bhi	.L39
 255:..\..\..\lvgl\version_6.1.2\lvgl\src\lv_misc/lv_txt.c ****         if( force ) return break_index;
ARM GAS  C:\Users\tmj32\AppData\Local\Temp\ccPoPccU.s 			page 19


 640              		.loc 2 255 0
 641 01c4 97F85430 		ldrb	r3, [r7, #84]	@ zero_extendqisi2
 642 01c8 002B     		cmp	r3, #0
 643 01ca 02D0     		beq	.L40
 644              		.loc 2 255 0 is_stmt 0 discriminator 1
 645 01cc FB6A     		ldr	r3, [r7, #44]
 646 01ce 9BB2     		uxth	r3, r3
 647 01d0 1EE0     		b	.L44
 648              	.L40:
 256:..\..\..\lvgl\version_6.1.2\lvgl\src\lv_misc/lv_txt.c ****         if(word_w_ptr != NULL) *word_w_ptr = 0;
 649              		.loc 2 256 0 is_stmt 1
 650 01d2 FB6C     		ldr	r3, [r7, #76]
 651 01d4 002B     		cmp	r3, #0
 652 01d6 02D0     		beq	.L41
 653              		.loc 2 256 0 is_stmt 0 discriminator 1
 654 01d8 FB6C     		ldr	r3, [r7, #76]
 655 01da 0022     		movs	r2, #0
 656 01dc 1A60     		str	r2, [r3]
 657              	.L41:
 257:..\..\..\lvgl\version_6.1.2\lvgl\src\lv_misc/lv_txt.c ****         return 0;
 658              		.loc 2 257 0 is_stmt 1
 659 01de 0023     		movs	r3, #0
 660 01e0 16E0     		b	.L44
 661              	.L39:
 662              	.LBB2:
 258:..\..\..\lvgl\version_6.1.2\lvgl\src\lv_misc/lv_txt.c ****     }
 259:..\..\..\lvgl\version_6.1.2\lvgl\src\lv_misc/lv_txt.c **** 
 260:..\..\..\lvgl\version_6.1.2\lvgl\src\lv_misc/lv_txt.c ****     /* Word is a "long", but letters may need to be better distributed */
 261:..\..\..\lvgl\version_6.1.2\lvgl\src\lv_misc/lv_txt.c ****     {
 262:..\..\..\lvgl\version_6.1.2\lvgl\src\lv_misc/lv_txt.c ****         i = break_index;
 663              		.loc 2 262 0
 664 01e2 FB6A     		ldr	r3, [r7, #44]
 665 01e4 FB61     		str	r3, [r7, #28]
 263:..\..\..\lvgl\version_6.1.2\lvgl\src\lv_misc/lv_txt.c ****         int32_t n_move = LV_TXT_LINE_BREAK_LONG_POST_MIN_LEN - (word_len - break_letter_count);
 666              		.loc 2 263 0
 667 01e6 BA6A     		ldr	r2, [r7, #40]
 668 01e8 3B6B     		ldr	r3, [r7, #48]
 669 01ea D31A     		subs	r3, r2, r3
 670 01ec 0333     		adds	r3, r3, #3
 671 01ee 7B62     		str	r3, [r7, #36]
 264:..\..\..\lvgl\version_6.1.2\lvgl\src\lv_misc/lv_txt.c ****         /* Move pointer "i" backwards */
 265:..\..\..\lvgl\version_6.1.2\lvgl\src\lv_misc/lv_txt.c ****         for(;n_move>0; n_move--){
 672              		.loc 2 265 0
 673 01f0 09E0     		b	.L42
 674              	.L43:
 266:..\..\..\lvgl\version_6.1.2\lvgl\src\lv_misc/lv_txt.c ****             lv_txt_encoded_prev(txt, &i);
 675              		.loc 2 266 0 discriminator 2
 676 01f2 0A4B     		ldr	r3, .L45+4
 677 01f4 1B68     		ldr	r3, [r3]
 678 01f6 07F11C02 		add	r2, r7, #28
 679 01fa 1146     		mov	r1, r2
 680 01fc F868     		ldr	r0, [r7, #12]
 681 01fe 9847     		blx	r3
 265:..\..\..\lvgl\version_6.1.2\lvgl\src\lv_misc/lv_txt.c ****             lv_txt_encoded_prev(txt, &i);
 682              		.loc 2 265 0 discriminator 2
 683 0200 7B6A     		ldr	r3, [r7, #36]
 684 0202 013B     		subs	r3, r3, #1
ARM GAS  C:\Users\tmj32\AppData\Local\Temp\ccPoPccU.s 			page 20


 685 0204 7B62     		str	r3, [r7, #36]
 686              	.L42:
 265:..\..\..\lvgl\version_6.1.2\lvgl\src\lv_misc/lv_txt.c ****             lv_txt_encoded_prev(txt, &i);
 687              		.loc 2 265 0 is_stmt 0 discriminator 1
 688 0206 7B6A     		ldr	r3, [r7, #36]
 689 0208 002B     		cmp	r3, #0
 690 020a F2DC     		bgt	.L43
 691              	.LBE2:
 267:..\..\..\lvgl\version_6.1.2\lvgl\src\lv_misc/lv_txt.c ****             // TODO: it would be appropriate to update the returned word width here
 268:..\..\..\lvgl\version_6.1.2\lvgl\src\lv_misc/lv_txt.c ****             // However, in current usage, this doesn't impact anything.
 269:..\..\..\lvgl\version_6.1.2\lvgl\src\lv_misc/lv_txt.c ****         }
 270:..\..\..\lvgl\version_6.1.2\lvgl\src\lv_misc/lv_txt.c ****     }
 271:..\..\..\lvgl\version_6.1.2\lvgl\src\lv_misc/lv_txt.c ****     return i;
 692              		.loc 2 271 0 is_stmt 1
 693 020c FB69     		ldr	r3, [r7, #28]
 694 020e 9BB2     		uxth	r3, r3
 695              	.L44:
 272:..\..\..\lvgl\version_6.1.2\lvgl\src\lv_misc/lv_txt.c **** #else
 273:..\..\..\lvgl\version_6.1.2\lvgl\src\lv_misc/lv_txt.c ****     if( force ) return break_index;
 274:..\..\..\lvgl\version_6.1.2\lvgl\src\lv_misc/lv_txt.c ****     if(word_w_ptr != NULL) *word_w_ptr = 0; /* Return no word */
 275:..\..\..\lvgl\version_6.1.2\lvgl\src\lv_misc/lv_txt.c ****     (void) break_letter_count;
 276:..\..\..\lvgl\version_6.1.2\lvgl\src\lv_misc/lv_txt.c ****     return 0;
 277:..\..\..\lvgl\version_6.1.2\lvgl\src\lv_misc/lv_txt.c **** #endif
 278:..\..\..\lvgl\version_6.1.2\lvgl\src\lv_misc/lv_txt.c **** }
 696              		.loc 2 278 0 discriminator 1
 697 0210 1846     		mov	r0, r3
 698 0212 4037     		adds	r7, r7, #64
 699              		.cfi_def_cfa_offset 8
 700 0214 BD46     		mov	sp, r7
 701              		.cfi_def_cfa_register 13
 702              		@ sp needed
 703 0216 80BD     		pop	{r7, pc}
 704              	.L46:
 705              		.align	2
 706              	.L45:
 707 0218 00000000 		.word	lv_txt_encoded_next
 708 021c 00000000 		.word	lv_txt_encoded_prev
 709              		.cfi_endproc
 710              	.LFE5:
 711              		.size	lv_txt_get_next_word, .-lv_txt_get_next_word
 712              		.section	.text.lv_txt_get_next_line,"ax",%progbits
 713              		.align	2
 714              		.global	lv_txt_get_next_line
 715              		.thumb
 716              		.thumb_func
 717              		.type	lv_txt_get_next_line, %function
 718              	lv_txt_get_next_line:
 719              	.LFB6:
 279:..\..\..\lvgl\version_6.1.2\lvgl\src\lv_misc/lv_txt.c **** 
 280:..\..\..\lvgl\version_6.1.2\lvgl\src\lv_misc/lv_txt.c **** /**
 281:..\..\..\lvgl\version_6.1.2\lvgl\src\lv_misc/lv_txt.c ****  * Get the next line of text. Check line length and break chars too.
 282:..\..\..\lvgl\version_6.1.2\lvgl\src\lv_misc/lv_txt.c ****  *
 283:..\..\..\lvgl\version_6.1.2\lvgl\src\lv_misc/lv_txt.c ****  * A line of txt includes the \n character.
 284:..\..\..\lvgl\version_6.1.2\lvgl\src\lv_misc/lv_txt.c ****  *
 285:..\..\..\lvgl\version_6.1.2\lvgl\src\lv_misc/lv_txt.c ****  * @param txt a '\0' terminated string
 286:..\..\..\lvgl\version_6.1.2\lvgl\src\lv_misc/lv_txt.c ****  * @param font pointer to a font
 287:..\..\..\lvgl\version_6.1.2\lvgl\src\lv_misc/lv_txt.c ****  * @param letter_space letter space
ARM GAS  C:\Users\tmj32\AppData\Local\Temp\ccPoPccU.s 			page 21


 288:..\..\..\lvgl\version_6.1.2\lvgl\src\lv_misc/lv_txt.c ****  * @param max_width max with of the text (break the lines to fit this size) Set CORD_MAX to avoid l
 289:..\..\..\lvgl\version_6.1.2\lvgl\src\lv_misc/lv_txt.c ****  * @param flags settings for the text from 'txt_flag_type' enum
 290:..\..\..\lvgl\version_6.1.2\lvgl\src\lv_misc/lv_txt.c ****  * @return the index of the first char of the new line (in byte index not letter index. With UTF-8 
 291:..\..\..\lvgl\version_6.1.2\lvgl\src\lv_misc/lv_txt.c ****  */
 292:..\..\..\lvgl\version_6.1.2\lvgl\src\lv_misc/lv_txt.c **** uint16_t lv_txt_get_next_line(const char * txt, const lv_font_t * font,
 293:..\..\..\lvgl\version_6.1.2\lvgl\src\lv_misc/lv_txt.c ****                               lv_coord_t letter_space, lv_coord_t max_width, lv_txt_flag_t flag)
 294:..\..\..\lvgl\version_6.1.2\lvgl\src\lv_misc/lv_txt.c **** {
 720              		.loc 2 294 0
 721              		.cfi_startproc
 722              		@ args = 4, pretend = 0, frame = 32
 723              		@ frame_needed = 1, uses_anonymous_args = 0
 724 0000 80B5     		push	{r7, lr}
 725              		.cfi_def_cfa_offset 8
 726              		.cfi_offset 7, -8
 727              		.cfi_offset 14, -4
 728 0002 8CB0     		sub	sp, sp, #48
 729              		.cfi_def_cfa_offset 56
 730 0004 04AF     		add	r7, sp, #16
 731              		.cfi_def_cfa 7, 40
 732 0006 F860     		str	r0, [r7, #12]
 733 0008 B960     		str	r1, [r7, #8]
 734 000a 1146     		mov	r1, r2
 735 000c 1A46     		mov	r2, r3
 736 000e 0B46     		mov	r3, r1	@ movhi
 737 0010 FB80     		strh	r3, [r7, #6]	@ movhi
 738 0012 1346     		mov	r3, r2	@ movhi
 739 0014 BB80     		strh	r3, [r7, #4]	@ movhi
 295:..\..\..\lvgl\version_6.1.2\lvgl\src\lv_misc/lv_txt.c ****     if(txt == NULL) return 0;
 740              		.loc 2 295 0
 741 0016 FB68     		ldr	r3, [r7, #12]
 742 0018 002B     		cmp	r3, #0
 743 001a 01D1     		bne	.L48
 744              		.loc 2 295 0 is_stmt 0 discriminator 1
 745 001c 0023     		movs	r3, #0
 746 001e 7AE0     		b	.L61
 747              	.L48:
 296:..\..\..\lvgl\version_6.1.2\lvgl\src\lv_misc/lv_txt.c ****     if(font == NULL) return 0;
 748              		.loc 2 296 0 is_stmt 1
 749 0020 BB68     		ldr	r3, [r7, #8]
 750 0022 002B     		cmp	r3, #0
 751 0024 01D1     		bne	.L50
 752              		.loc 2 296 0 is_stmt 0 discriminator 1
 753 0026 0023     		movs	r3, #0
 754 0028 75E0     		b	.L61
 755              	.L50:
 297:..\..\..\lvgl\version_6.1.2\lvgl\src\lv_misc/lv_txt.c **** 
 298:..\..\..\lvgl\version_6.1.2\lvgl\src\lv_misc/lv_txt.c ****     if(flag & LV_TXT_FLAG_EXPAND) max_width = LV_COORD_MAX;
 756              		.loc 2 298 0 is_stmt 1
 757 002a 97F82830 		ldrb	r3, [r7, #40]	@ zero_extendqisi2
 758 002e 03F00203 		and	r3, r3, #2
 759 0032 002B     		cmp	r3, #0
 760 0034 02D0     		beq	.L51
 761              		.loc 2 298 0 is_stmt 0 discriminator 1
 762 0036 47F61843 		movw	r3, #31768
 763 003a BB80     		strh	r3, [r7, #4]	@ movhi
 764              	.L51:
 299:..\..\..\lvgl\version_6.1.2\lvgl\src\lv_misc/lv_txt.c ****     lv_txt_cmd_state_t cmd_state = LV_TXT_CMD_STATE_WAIT;
ARM GAS  C:\Users\tmj32\AppData\Local\Temp\ccPoPccU.s 			page 22


 765              		.loc 2 299 0 is_stmt 1
 766 003c 0023     		movs	r3, #0
 767 003e FB76     		strb	r3, [r7, #27]
 300:..\..\..\lvgl\version_6.1.2\lvgl\src\lv_misc/lv_txt.c ****     uint32_t i = 0;                                        /* Iterating index into txt */
 768              		.loc 2 300 0
 769 0040 0023     		movs	r3, #0
 770 0042 7B61     		str	r3, [r7, #20]
 301:..\..\..\lvgl\version_6.1.2\lvgl\src\lv_misc/lv_txt.c **** 
 302:..\..\..\lvgl\version_6.1.2\lvgl\src\lv_misc/lv_txt.c ****     while(txt[i] != '\0' && max_width > 0) {
 771              		.loc 2 302 0
 772 0044 4FE0     		b	.L52
 773              	.L59:
 774              	.LBB3:
 303:..\..\..\lvgl\version_6.1.2\lvgl\src\lv_misc/lv_txt.c ****         uint32_t word_w = 0;
 775              		.loc 2 303 0
 776 0046 0023     		movs	r3, #0
 777 0048 3B61     		str	r3, [r7, #16]
 304:..\..\..\lvgl\version_6.1.2\lvgl\src\lv_misc/lv_txt.c ****         uint32_t advance = lv_txt_get_next_word(&txt[i], font, letter_space, max_width, flag, &word
 778              		.loc 2 304 0
 779 004a 7B69     		ldr	r3, [r7, #20]
 780 004c FA68     		ldr	r2, [r7, #12]
 781 004e D018     		adds	r0, r2, r3
 782 0050 7B69     		ldr	r3, [r7, #20]
 783 0052 002B     		cmp	r3, #0
 784 0054 0CBF     		ite	eq
 785 0056 0123     		moveq	r3, #1
 786 0058 0023     		movne	r3, #0
 787 005a DBB2     		uxtb	r3, r3
 788 005c B7F90410 		ldrsh	r1, [r7, #4]
 789 0060 B7F90620 		ldrsh	r2, [r7, #6]
 790 0064 0393     		str	r3, [sp, #12]
 791 0066 07F11B03 		add	r3, r7, #27
 792 006a 0293     		str	r3, [sp, #8]
 793 006c 07F11003 		add	r3, r7, #16
 794 0070 0193     		str	r3, [sp, #4]
 795 0072 97F82830 		ldrb	r3, [r7, #40]	@ zero_extendqisi2
 796 0076 0093     		str	r3, [sp]
 797 0078 0B46     		mov	r3, r1
 798 007a B968     		ldr	r1, [r7, #8]
 799 007c FFF7FEFF 		bl	lv_txt_get_next_word
 800 0080 0346     		mov	r3, r0
 801 0082 FB61     		str	r3, [r7, #28]
 305:..\..\..\lvgl\version_6.1.2\lvgl\src\lv_misc/lv_txt.c ****         max_width -= word_w;
 802              		.loc 2 305 0
 803 0084 BA88     		ldrh	r2, [r7, #4]
 804 0086 3B69     		ldr	r3, [r7, #16]
 805 0088 9BB2     		uxth	r3, r3
 806 008a D31A     		subs	r3, r2, r3
 807 008c 9BB2     		uxth	r3, r3
 808 008e BB80     		strh	r3, [r7, #4]	@ movhi
 306:..\..\..\lvgl\version_6.1.2\lvgl\src\lv_misc/lv_txt.c **** 
 307:..\..\..\lvgl\version_6.1.2\lvgl\src\lv_misc/lv_txt.c ****         if( advance == 0 ){
 809              		.loc 2 307 0
 810 0090 FB69     		ldr	r3, [r7, #28]
 811 0092 002B     		cmp	r3, #0
 812 0094 0AD1     		bne	.L53
 308:..\..\..\lvgl\version_6.1.2\lvgl\src\lv_misc/lv_txt.c ****             if(i == 0) lv_txt_encoded_next(txt, &i); // prevent inf loops
ARM GAS  C:\Users\tmj32\AppData\Local\Temp\ccPoPccU.s 			page 23


 813              		.loc 2 308 0
 814 0096 7B69     		ldr	r3, [r7, #20]
 815 0098 002B     		cmp	r3, #0
 816 009a 2FD1     		bne	.L62
 817              		.loc 2 308 0 is_stmt 0 discriminator 1
 818 009c 204B     		ldr	r3, .L63
 819 009e 1B68     		ldr	r3, [r3]
 820 00a0 07F11402 		add	r2, r7, #20
 821 00a4 1146     		mov	r1, r2
 822 00a6 F868     		ldr	r0, [r7, #12]
 823 00a8 9847     		blx	r3
 309:..\..\..\lvgl\version_6.1.2\lvgl\src\lv_misc/lv_txt.c ****             break;
 824              		.loc 2 309 0 is_stmt 1 discriminator 1
 825 00aa 27E0     		b	.L62
 826              	.L53:
 310:..\..\..\lvgl\version_6.1.2\lvgl\src\lv_misc/lv_txt.c ****         }
 311:..\..\..\lvgl\version_6.1.2\lvgl\src\lv_misc/lv_txt.c **** 
 312:..\..\..\lvgl\version_6.1.2\lvgl\src\lv_misc/lv_txt.c ****         i += advance;
 827              		.loc 2 312 0
 828 00ac 7A69     		ldr	r2, [r7, #20]
 829 00ae FB69     		ldr	r3, [r7, #28]
 830 00b0 1344     		add	r3, r3, r2
 831 00b2 7B61     		str	r3, [r7, #20]
 313:..\..\..\lvgl\version_6.1.2\lvgl\src\lv_misc/lv_txt.c **** 
 314:..\..\..\lvgl\version_6.1.2\lvgl\src\lv_misc/lv_txt.c ****         if(txt[0] == '\n' || txt[0] == '\r') break;
 832              		.loc 2 314 0
 833 00b4 FB68     		ldr	r3, [r7, #12]
 834 00b6 1B78     		ldrb	r3, [r3]	@ zero_extendqisi2
 835 00b8 0A2B     		cmp	r3, #10
 836 00ba 1FD0     		beq	.L62
 837              		.loc 2 314 0 is_stmt 0 discriminator 1
 838 00bc FB68     		ldr	r3, [r7, #12]
 839 00be 1B78     		ldrb	r3, [r3]	@ zero_extendqisi2
 840 00c0 0D2B     		cmp	r3, #13
 841 00c2 1BD0     		beq	.L62
 315:..\..\..\lvgl\version_6.1.2\lvgl\src\lv_misc/lv_txt.c **** 
 316:..\..\..\lvgl\version_6.1.2\lvgl\src\lv_misc/lv_txt.c ****         if(txt[i] == '\n' || txt[i] == '\r'){
 842              		.loc 2 316 0 is_stmt 1
 843 00c4 7B69     		ldr	r3, [r7, #20]
 844 00c6 FA68     		ldr	r2, [r7, #12]
 845 00c8 1344     		add	r3, r3, r2
 846 00ca 1B78     		ldrb	r3, [r3]	@ zero_extendqisi2
 847 00cc 0A2B     		cmp	r3, #10
 848 00ce 05D0     		beq	.L56
 849              		.loc 2 316 0 is_stmt 0 discriminator 1
 850 00d0 7B69     		ldr	r3, [r7, #20]
 851 00d2 FA68     		ldr	r2, [r7, #12]
 852 00d4 1344     		add	r3, r3, r2
 853 00d6 1B78     		ldrb	r3, [r3]	@ zero_extendqisi2
 854 00d8 0D2B     		cmp	r3, #13
 855 00da 04D1     		bne	.L52
 856              	.L56:
 317:..\..\..\lvgl\version_6.1.2\lvgl\src\lv_misc/lv_txt.c ****             i++;  /* Include the following newline in the current line */
 857              		.loc 2 317 0 is_stmt 1
 858 00dc 7B69     		ldr	r3, [r7, #20]
 859 00de 0133     		adds	r3, r3, #1
 860 00e0 7B61     		str	r3, [r7, #20]
ARM GAS  C:\Users\tmj32\AppData\Local\Temp\ccPoPccU.s 			page 24


 318:..\..\..\lvgl\version_6.1.2\lvgl\src\lv_misc/lv_txt.c ****             break;
 861              		.loc 2 318 0
 862 00e2 00BF     		nop
 863 00e4 0BE0     		b	.L58
 864              	.L52:
 865              	.LBE3:
 302:..\..\..\lvgl\version_6.1.2\lvgl\src\lv_misc/lv_txt.c ****         uint32_t word_w = 0;
 866              		.loc 2 302 0
 867 00e6 7B69     		ldr	r3, [r7, #20]
 868 00e8 FA68     		ldr	r2, [r7, #12]
 869 00ea 1344     		add	r3, r3, r2
 870 00ec 1B78     		ldrb	r3, [r3]	@ zero_extendqisi2
 871 00ee 002B     		cmp	r3, #0
 872 00f0 05D0     		beq	.L58
 302:..\..\..\lvgl\version_6.1.2\lvgl\src\lv_misc/lv_txt.c ****         uint32_t word_w = 0;
 873              		.loc 2 302 0 is_stmt 0 discriminator 1
 874 00f2 B7F90430 		ldrsh	r3, [r7, #4]
 875 00f6 002B     		cmp	r3, #0
 876 00f8 A5DC     		bgt	.L59
 877 00fa 00E0     		b	.L58
 878              	.L62:
 879              	.LBB4:
 309:..\..\..\lvgl\version_6.1.2\lvgl\src\lv_misc/lv_txt.c ****         }
 880              		.loc 2 309 0 is_stmt 1
 881 00fc 00BF     		nop
 882              	.L58:
 883              	.LBE4:
 319:..\..\..\lvgl\version_6.1.2\lvgl\src\lv_misc/lv_txt.c ****         }
 320:..\..\..\lvgl\version_6.1.2\lvgl\src\lv_misc/lv_txt.c **** 
 321:..\..\..\lvgl\version_6.1.2\lvgl\src\lv_misc/lv_txt.c ****     }
 322:..\..\..\lvgl\version_6.1.2\lvgl\src\lv_misc/lv_txt.c **** 
 323:..\..\..\lvgl\version_6.1.2\lvgl\src\lv_misc/lv_txt.c ****     /* Always step at least one to avoid infinite loops */
 324:..\..\..\lvgl\version_6.1.2\lvgl\src\lv_misc/lv_txt.c ****     if(i == 0) {
 884              		.loc 2 324 0
 885 00fe 7B69     		ldr	r3, [r7, #20]
 886 0100 002B     		cmp	r3, #0
 887 0102 06D1     		bne	.L60
 325:..\..\..\lvgl\version_6.1.2\lvgl\src\lv_misc/lv_txt.c ****         lv_txt_encoded_next(txt, &i);
 888              		.loc 2 325 0
 889 0104 064B     		ldr	r3, .L63
 890 0106 1B68     		ldr	r3, [r3]
 891 0108 07F11402 		add	r2, r7, #20
 892 010c 1146     		mov	r1, r2
 893 010e F868     		ldr	r0, [r7, #12]
 894 0110 9847     		blx	r3
 895              	.L60:
 326:..\..\..\lvgl\version_6.1.2\lvgl\src\lv_misc/lv_txt.c ****     }
 327:..\..\..\lvgl\version_6.1.2\lvgl\src\lv_misc/lv_txt.c **** 
 328:..\..\..\lvgl\version_6.1.2\lvgl\src\lv_misc/lv_txt.c ****     return i;
 896              		.loc 2 328 0
 897 0112 7B69     		ldr	r3, [r7, #20]
 898 0114 9BB2     		uxth	r3, r3
 899              	.L61:
 329:..\..\..\lvgl\version_6.1.2\lvgl\src\lv_misc/lv_txt.c **** }
 900              		.loc 2 329 0 discriminator 1
 901 0116 1846     		mov	r0, r3
 902 0118 2037     		adds	r7, r7, #32
ARM GAS  C:\Users\tmj32\AppData\Local\Temp\ccPoPccU.s 			page 25


 903              		.cfi_def_cfa_offset 8
 904 011a BD46     		mov	sp, r7
 905              		.cfi_def_cfa_register 13
 906              		@ sp needed
 907 011c 80BD     		pop	{r7, pc}
 908              	.L64:
 909 011e 00BF     		.align	2
 910              	.L63:
 911 0120 00000000 		.word	lv_txt_encoded_next
 912              		.cfi_endproc
 913              	.LFE6:
 914              		.size	lv_txt_get_next_line, .-lv_txt_get_next_line
 915              		.section	.text.lv_txt_get_width,"ax",%progbits
 916              		.align	2
 917              		.global	lv_txt_get_width
 918              		.thumb
 919              		.thumb_func
 920              		.type	lv_txt_get_width, %function
 921              	lv_txt_get_width:
 922              	.LFB7:
 330:..\..\..\lvgl\version_6.1.2\lvgl\src\lv_misc/lv_txt.c **** 
 331:..\..\..\lvgl\version_6.1.2\lvgl\src\lv_misc/lv_txt.c **** /**
 332:..\..\..\lvgl\version_6.1.2\lvgl\src\lv_misc/lv_txt.c ****  * Give the length of a text with a given font
 333:..\..\..\lvgl\version_6.1.2\lvgl\src\lv_misc/lv_txt.c ****  * @param txt a '\0' terminate string
 334:..\..\..\lvgl\version_6.1.2\lvgl\src\lv_misc/lv_txt.c ****  * @param length length of 'txt' in byte count and not characters ( is 1 character but 2 bytes in
 335:..\..\..\lvgl\version_6.1.2\lvgl\src\lv_misc/lv_txt.c ****  * UTF-8)
 336:..\..\..\lvgl\version_6.1.2\lvgl\src\lv_misc/lv_txt.c ****  * @param font pointer to a font
 337:..\..\..\lvgl\version_6.1.2\lvgl\src\lv_misc/lv_txt.c ****  * @param letter_space letter space
 338:..\..\..\lvgl\version_6.1.2\lvgl\src\lv_misc/lv_txt.c ****  * @param flags settings for the text from 'txt_flag_t' enum
 339:..\..\..\lvgl\version_6.1.2\lvgl\src\lv_misc/lv_txt.c ****  * @return length of a char_num long text
 340:..\..\..\lvgl\version_6.1.2\lvgl\src\lv_misc/lv_txt.c ****  */
 341:..\..\..\lvgl\version_6.1.2\lvgl\src\lv_misc/lv_txt.c **** lv_coord_t lv_txt_get_width(const char * txt, uint16_t length, const lv_font_t * font, lv_coord_t l
 342:..\..\..\lvgl\version_6.1.2\lvgl\src\lv_misc/lv_txt.c ****                             lv_txt_flag_t flag)
 343:..\..\..\lvgl\version_6.1.2\lvgl\src\lv_misc/lv_txt.c **** {
 923              		.loc 2 343 0
 924              		.cfi_startproc
 925              		@ args = 4, pretend = 0, frame = 40
 926              		@ frame_needed = 1, uses_anonymous_args = 0
 927 0000 80B5     		push	{r7, lr}
 928              		.cfi_def_cfa_offset 8
 929              		.cfi_offset 7, -8
 930              		.cfi_offset 14, -4
 931 0002 8AB0     		sub	sp, sp, #40
 932              		.cfi_def_cfa_offset 48
 933 0004 00AF     		add	r7, sp, #0
 934              		.cfi_def_cfa_register 7
 935 0006 F860     		str	r0, [r7, #12]
 936 0008 7A60     		str	r2, [r7, #4]
 937 000a 1A46     		mov	r2, r3
 938 000c 0B46     		mov	r3, r1	@ movhi
 939 000e 7B81     		strh	r3, [r7, #10]	@ movhi
 940 0010 1346     		mov	r3, r2	@ movhi
 941 0012 3B81     		strh	r3, [r7, #8]	@ movhi
 344:..\..\..\lvgl\version_6.1.2\lvgl\src\lv_misc/lv_txt.c ****     if(txt == NULL) return 0;
 942              		.loc 2 344 0
 943 0014 FB68     		ldr	r3, [r7, #12]
 944 0016 002B     		cmp	r3, #0
ARM GAS  C:\Users\tmj32\AppData\Local\Temp\ccPoPccU.s 			page 26


 945 0018 01D1     		bne	.L66
 946              		.loc 2 344 0 is_stmt 0 discriminator 1
 947 001a 0023     		movs	r3, #0
 948 001c 53E0     		b	.L73
 949              	.L66:
 345:..\..\..\lvgl\version_6.1.2\lvgl\src\lv_misc/lv_txt.c ****     if(font == NULL) return 0;
 950              		.loc 2 345 0 is_stmt 1
 951 001e 7B68     		ldr	r3, [r7, #4]
 952 0020 002B     		cmp	r3, #0
 953 0022 01D1     		bne	.L68
 954              		.loc 2 345 0 is_stmt 0 discriminator 1
 955 0024 0023     		movs	r3, #0
 956 0026 4EE0     		b	.L73
 957              	.L68:
 346:..\..\..\lvgl\version_6.1.2\lvgl\src\lv_misc/lv_txt.c **** 
 347:..\..\..\lvgl\version_6.1.2\lvgl\src\lv_misc/lv_txt.c ****     uint32_t i                   = 0;
 958              		.loc 2 347 0 is_stmt 1
 959 0028 0023     		movs	r3, #0
 960 002a 7B61     		str	r3, [r7, #20]
 348:..\..\..\lvgl\version_6.1.2\lvgl\src\lv_misc/lv_txt.c ****     lv_coord_t width             = 0;
 961              		.loc 2 348 0
 962 002c 0023     		movs	r3, #0
 963 002e FB84     		strh	r3, [r7, #38]	@ movhi
 349:..\..\..\lvgl\version_6.1.2\lvgl\src\lv_misc/lv_txt.c ****     lv_txt_cmd_state_t cmd_state = LV_TXT_CMD_STATE_WAIT;
 964              		.loc 2 349 0
 965 0030 0023     		movs	r3, #0
 966 0032 FB74     		strb	r3, [r7, #19]
 350:..\..\..\lvgl\version_6.1.2\lvgl\src\lv_misc/lv_txt.c ****     uint32_t letter;
 351:..\..\..\lvgl\version_6.1.2\lvgl\src\lv_misc/lv_txt.c ****     uint32_t letter_next;
 352:..\..\..\lvgl\version_6.1.2\lvgl\src\lv_misc/lv_txt.c **** 
 353:..\..\..\lvgl\version_6.1.2\lvgl\src\lv_misc/lv_txt.c ****     if(length != 0) {
 967              		.loc 2 353 0
 968 0034 7B89     		ldrh	r3, [r7, #10]
 969 0036 002B     		cmp	r3, #0
 970 0038 43D0     		beq	.L69
 354:..\..\..\lvgl\version_6.1.2\lvgl\src\lv_misc/lv_txt.c ****         while(i < length) {
 971              		.loc 2 354 0
 972 003a 35E0     		b	.L70
 973              	.L72:
 974              	.LBB5:
 355:..\..\..\lvgl\version_6.1.2\lvgl\src\lv_misc/lv_txt.c ****             letter      = lv_txt_encoded_next(txt, &i);
 975              		.loc 2 355 0
 976 003c 244B     		ldr	r3, .L74
 977 003e 1B68     		ldr	r3, [r3]
 978 0040 07F11402 		add	r2, r7, #20
 979 0044 1146     		mov	r1, r2
 980 0046 F868     		ldr	r0, [r7, #12]
 981 0048 9847     		blx	r3
 982 004a 3862     		str	r0, [r7, #32]
 356:..\..\..\lvgl\version_6.1.2\lvgl\src\lv_misc/lv_txt.c ****             letter_next = lv_txt_encoded_next(&txt[i], NULL);
 983              		.loc 2 356 0
 984 004c 204B     		ldr	r3, .L74
 985 004e 1B68     		ldr	r3, [r3]
 986 0050 7A69     		ldr	r2, [r7, #20]
 987 0052 F968     		ldr	r1, [r7, #12]
 988 0054 0A44     		add	r2, r2, r1
 989 0056 0021     		movs	r1, #0
ARM GAS  C:\Users\tmj32\AppData\Local\Temp\ccPoPccU.s 			page 27


 990 0058 1046     		mov	r0, r2
 991 005a 9847     		blx	r3
 992 005c F861     		str	r0, [r7, #28]
 357:..\..\..\lvgl\version_6.1.2\lvgl\src\lv_misc/lv_txt.c ****             if((flag & LV_TXT_FLAG_RECOLOR) != 0) {
 993              		.loc 2 357 0
 994 005e 97F83030 		ldrb	r3, [r7, #48]	@ zero_extendqisi2
 995 0062 03F00103 		and	r3, r3, #1
 996 0066 002B     		cmp	r3, #0
 997 0068 09D0     		beq	.L71
 358:..\..\..\lvgl\version_6.1.2\lvgl\src\lv_misc/lv_txt.c ****                 if(lv_txt_is_cmd(&cmd_state, letter) != false) {
 998              		.loc 2 358 0
 999 006a 07F11303 		add	r3, r7, #19
 1000 006e 396A     		ldr	r1, [r7, #32]
 1001 0070 1846     		mov	r0, r3
 1002 0072 FFF7FEFF 		bl	lv_txt_is_cmd
 1003 0076 0346     		mov	r3, r0
 1004 0078 002B     		cmp	r3, #0
 1005 007a 00D0     		beq	.L71
 359:..\..\..\lvgl\version_6.1.2\lvgl\src\lv_misc/lv_txt.c ****                     continue;
 1006              		.loc 2 359 0
 1007 007c 14E0     		b	.L70
 1008              	.L71:
 360:..\..\..\lvgl\version_6.1.2\lvgl\src\lv_misc/lv_txt.c ****                 }
 361:..\..\..\lvgl\version_6.1.2\lvgl\src\lv_misc/lv_txt.c ****             }
 362:..\..\..\lvgl\version_6.1.2\lvgl\src\lv_misc/lv_txt.c **** 
 363:..\..\..\lvgl\version_6.1.2\lvgl\src\lv_misc/lv_txt.c ****             lv_coord_t char_width = lv_font_get_glyph_width(font, letter, letter_next);
 1009              		.loc 2 363 0
 1010 007e FA69     		ldr	r2, [r7, #28]
 1011 0080 396A     		ldr	r1, [r7, #32]
 1012 0082 7868     		ldr	r0, [r7, #4]
 1013 0084 FFF7FEFF 		bl	lv_font_get_glyph_width
 1014 0088 0346     		mov	r3, r0
 1015 008a 7B83     		strh	r3, [r7, #26]	@ movhi
 364:..\..\..\lvgl\version_6.1.2\lvgl\src\lv_misc/lv_txt.c ****             if(char_width > 0) {
 1016              		.loc 2 364 0
 1017 008c B7F91A30 		ldrsh	r3, [r7, #26]
 1018 0090 002B     		cmp	r3, #0
 1019 0092 09DD     		ble	.L70
 365:..\..\..\lvgl\version_6.1.2\lvgl\src\lv_misc/lv_txt.c ****                 width += char_width;
 1020              		.loc 2 365 0
 1021 0094 FA8C     		ldrh	r2, [r7, #38]
 1022 0096 7B8B     		ldrh	r3, [r7, #26]
 1023 0098 1344     		add	r3, r3, r2
 1024 009a 9BB2     		uxth	r3, r3
 1025 009c FB84     		strh	r3, [r7, #38]	@ movhi
 366:..\..\..\lvgl\version_6.1.2\lvgl\src\lv_misc/lv_txt.c ****                 width += letter_space;
 1026              		.loc 2 366 0
 1027 009e FA8C     		ldrh	r2, [r7, #38]
 1028 00a0 3B89     		ldrh	r3, [r7, #8]
 1029 00a2 1344     		add	r3, r3, r2
 1030 00a4 9BB2     		uxth	r3, r3
 1031 00a6 FB84     		strh	r3, [r7, #38]	@ movhi
 1032              	.L70:
 1033              	.LBE5:
 354:..\..\..\lvgl\version_6.1.2\lvgl\src\lv_misc/lv_txt.c ****             letter      = lv_txt_encoded_next(txt, &i);
 1034              		.loc 2 354 0
 1035 00a8 7A89     		ldrh	r2, [r7, #10]
ARM GAS  C:\Users\tmj32\AppData\Local\Temp\ccPoPccU.s 			page 28


 1036 00aa 7B69     		ldr	r3, [r7, #20]
 1037 00ac 9A42     		cmp	r2, r3
 1038 00ae C5D8     		bhi	.L72
 367:..\..\..\lvgl\version_6.1.2\lvgl\src\lv_misc/lv_txt.c ****             }
 368:..\..\..\lvgl\version_6.1.2\lvgl\src\lv_misc/lv_txt.c ****         }
 369:..\..\..\lvgl\version_6.1.2\lvgl\src\lv_misc/lv_txt.c **** 
 370:..\..\..\lvgl\version_6.1.2\lvgl\src\lv_misc/lv_txt.c ****         if(width > 0) {
 1039              		.loc 2 370 0
 1040 00b0 B7F92630 		ldrsh	r3, [r7, #38]
 1041 00b4 002B     		cmp	r3, #0
 1042 00b6 04DD     		ble	.L69
 371:..\..\..\lvgl\version_6.1.2\lvgl\src\lv_misc/lv_txt.c ****             width -= letter_space; /*Trim the last letter space. Important if the text is center
 1043              		.loc 2 371 0
 1044 00b8 FA8C     		ldrh	r2, [r7, #38]
 1045 00ba 3B89     		ldrh	r3, [r7, #8]
 1046 00bc D31A     		subs	r3, r2, r3
 1047 00be 9BB2     		uxth	r3, r3
 1048 00c0 FB84     		strh	r3, [r7, #38]	@ movhi
 1049              	.L69:
 372:..\..\..\lvgl\version_6.1.2\lvgl\src\lv_misc/lv_txt.c ****                                       aligned */
 373:..\..\..\lvgl\version_6.1.2\lvgl\src\lv_misc/lv_txt.c ****         }
 374:..\..\..\lvgl\version_6.1.2\lvgl\src\lv_misc/lv_txt.c ****     }
 375:..\..\..\lvgl\version_6.1.2\lvgl\src\lv_misc/lv_txt.c **** 
 376:..\..\..\lvgl\version_6.1.2\lvgl\src\lv_misc/lv_txt.c ****     return width;
 1050              		.loc 2 376 0
 1051 00c2 B7F92630 		ldrsh	r3, [r7, #38]
 1052              	.L73:
 377:..\..\..\lvgl\version_6.1.2\lvgl\src\lv_misc/lv_txt.c **** }
 1053              		.loc 2 377 0 discriminator 1
 1054 00c6 1846     		mov	r0, r3
 1055 00c8 2837     		adds	r7, r7, #40
 1056              		.cfi_def_cfa_offset 8
 1057 00ca BD46     		mov	sp, r7
 1058              		.cfi_def_cfa_register 13
 1059              		@ sp needed
 1060 00cc 80BD     		pop	{r7, pc}
 1061              	.L75:
 1062 00ce 00BF     		.align	2
 1063              	.L74:
 1064 00d0 00000000 		.word	lv_txt_encoded_next
 1065              		.cfi_endproc
 1066              	.LFE7:
 1067              		.size	lv_txt_get_width, .-lv_txt_get_width
 1068              		.section	.text.lv_txt_is_cmd,"ax",%progbits
 1069              		.align	2
 1070              		.global	lv_txt_is_cmd
 1071              		.thumb
 1072              		.thumb_func
 1073              		.type	lv_txt_is_cmd, %function
 1074              	lv_txt_is_cmd:
 1075              	.LFB8:
 378:..\..\..\lvgl\version_6.1.2\lvgl\src\lv_misc/lv_txt.c **** 
 379:..\..\..\lvgl\version_6.1.2\lvgl\src\lv_misc/lv_txt.c **** /**
 380:..\..\..\lvgl\version_6.1.2\lvgl\src\lv_misc/lv_txt.c ****  * Check next character in a string and decide if the character is part of the command or not
 381:..\..\..\lvgl\version_6.1.2\lvgl\src\lv_misc/lv_txt.c ****  * @param state pointer to a txt_cmd_state_t variable which stores the current state of command
 382:..\..\..\lvgl\version_6.1.2\lvgl\src\lv_misc/lv_txt.c ****  * processing (Initied. to TXT_CMD_STATE_WAIT )
 383:..\..\..\lvgl\version_6.1.2\lvgl\src\lv_misc/lv_txt.c ****  * @param c the current character
ARM GAS  C:\Users\tmj32\AppData\Local\Temp\ccPoPccU.s 			page 29


 384:..\..\..\lvgl\version_6.1.2\lvgl\src\lv_misc/lv_txt.c ****  * @return true: the character is part of a command and should not be written,
 385:..\..\..\lvgl\version_6.1.2\lvgl\src\lv_misc/lv_txt.c ****  *         false: the character should be written
 386:..\..\..\lvgl\version_6.1.2\lvgl\src\lv_misc/lv_txt.c ****  */
 387:..\..\..\lvgl\version_6.1.2\lvgl\src\lv_misc/lv_txt.c **** bool lv_txt_is_cmd(lv_txt_cmd_state_t * state, uint32_t c)
 388:..\..\..\lvgl\version_6.1.2\lvgl\src\lv_misc/lv_txt.c **** {
 1076              		.loc 2 388 0
 1077              		.cfi_startproc
 1078              		@ args = 0, pretend = 0, frame = 16
 1079              		@ frame_needed = 1, uses_anonymous_args = 0
 1080              		@ link register save eliminated.
 1081 0000 80B4     		push	{r7}
 1082              		.cfi_def_cfa_offset 4
 1083              		.cfi_offset 7, -4
 1084 0002 85B0     		sub	sp, sp, #20
 1085              		.cfi_def_cfa_offset 24
 1086 0004 00AF     		add	r7, sp, #0
 1087              		.cfi_def_cfa_register 7
 1088 0006 7860     		str	r0, [r7, #4]
 1089 0008 3960     		str	r1, [r7]
 389:..\..\..\lvgl\version_6.1.2\lvgl\src\lv_misc/lv_txt.c ****     bool ret = false;
 1090              		.loc 2 389 0
 1091 000a 0023     		movs	r3, #0
 1092 000c FB73     		strb	r3, [r7, #15]
 390:..\..\..\lvgl\version_6.1.2\lvgl\src\lv_misc/lv_txt.c **** 
 391:..\..\..\lvgl\version_6.1.2\lvgl\src\lv_misc/lv_txt.c ****     if(c == (uint32_t)LV_TXT_COLOR_CMD[0]) {
 1093              		.loc 2 391 0
 1094 000e 2323     		movs	r3, #35
 1095 0010 1A46     		mov	r2, r3
 1096 0012 3B68     		ldr	r3, [r7]
 1097 0014 9A42     		cmp	r2, r3
 1098 0016 1AD1     		bne	.L77
 392:..\..\..\lvgl\version_6.1.2\lvgl\src\lv_misc/lv_txt.c ****         if(*state == LV_TXT_CMD_STATE_WAIT) { /*Start char*/
 1099              		.loc 2 392 0
 1100 0018 7B68     		ldr	r3, [r7, #4]
 1101 001a 1B78     		ldrb	r3, [r3]	@ zero_extendqisi2
 1102 001c 002B     		cmp	r3, #0
 1103 001e 05D1     		bne	.L78
 393:..\..\..\lvgl\version_6.1.2\lvgl\src\lv_misc/lv_txt.c ****             *state = LV_TXT_CMD_STATE_PAR;
 1104              		.loc 2 393 0
 1105 0020 7B68     		ldr	r3, [r7, #4]
 1106 0022 0122     		movs	r2, #1
 1107 0024 1A70     		strb	r2, [r3]
 394:..\..\..\lvgl\version_6.1.2\lvgl\src\lv_misc/lv_txt.c ****             ret    = true;
 1108              		.loc 2 394 0
 1109 0026 0123     		movs	r3, #1
 1110 0028 FB73     		strb	r3, [r7, #15]
 1111 002a 10E0     		b	.L77
 1112              	.L78:
 395:..\..\..\lvgl\version_6.1.2\lvgl\src\lv_misc/lv_txt.c ****         }
 396:..\..\..\lvgl\version_6.1.2\lvgl\src\lv_misc/lv_txt.c ****         /*Other start char in parameter is escaped cmd. char */
 397:..\..\..\lvgl\version_6.1.2\lvgl\src\lv_misc/lv_txt.c ****         else if(*state == LV_TXT_CMD_STATE_PAR) {
 1113              		.loc 2 397 0
 1114 002c 7B68     		ldr	r3, [r7, #4]
 1115 002e 1B78     		ldrb	r3, [r3]	@ zero_extendqisi2
 1116 0030 012B     		cmp	r3, #1
 1117 0032 03D1     		bne	.L79
 398:..\..\..\lvgl\version_6.1.2\lvgl\src\lv_misc/lv_txt.c ****             *state = LV_TXT_CMD_STATE_WAIT;
ARM GAS  C:\Users\tmj32\AppData\Local\Temp\ccPoPccU.s 			page 30


 1118              		.loc 2 398 0
 1119 0034 7B68     		ldr	r3, [r7, #4]
 1120 0036 0022     		movs	r2, #0
 1121 0038 1A70     		strb	r2, [r3]
 1122 003a 08E0     		b	.L77
 1123              	.L79:
 399:..\..\..\lvgl\version_6.1.2\lvgl\src\lv_misc/lv_txt.c ****         }
 400:..\..\..\lvgl\version_6.1.2\lvgl\src\lv_misc/lv_txt.c ****         /*Command end */
 401:..\..\..\lvgl\version_6.1.2\lvgl\src\lv_misc/lv_txt.c ****         else if(*state == LV_TXT_CMD_STATE_IN) {
 1124              		.loc 2 401 0
 1125 003c 7B68     		ldr	r3, [r7, #4]
 1126 003e 1B78     		ldrb	r3, [r3]	@ zero_extendqisi2
 1127 0040 022B     		cmp	r3, #2
 1128 0042 04D1     		bne	.L77
 402:..\..\..\lvgl\version_6.1.2\lvgl\src\lv_misc/lv_txt.c ****             *state = LV_TXT_CMD_STATE_WAIT;
 1129              		.loc 2 402 0
 1130 0044 7B68     		ldr	r3, [r7, #4]
 1131 0046 0022     		movs	r2, #0
 1132 0048 1A70     		strb	r2, [r3]
 403:..\..\..\lvgl\version_6.1.2\lvgl\src\lv_misc/lv_txt.c ****             ret    = true;
 1133              		.loc 2 403 0
 1134 004a 0123     		movs	r3, #1
 1135 004c FB73     		strb	r3, [r7, #15]
 1136              	.L77:
 404:..\..\..\lvgl\version_6.1.2\lvgl\src\lv_misc/lv_txt.c ****         }
 405:..\..\..\lvgl\version_6.1.2\lvgl\src\lv_misc/lv_txt.c ****     }
 406:..\..\..\lvgl\version_6.1.2\lvgl\src\lv_misc/lv_txt.c **** 
 407:..\..\..\lvgl\version_6.1.2\lvgl\src\lv_misc/lv_txt.c ****     /*Skip the color parameter and wait the space after it*/
 408:..\..\..\lvgl\version_6.1.2\lvgl\src\lv_misc/lv_txt.c ****     if(*state == LV_TXT_CMD_STATE_PAR) {
 1137              		.loc 2 408 0
 1138 004e 7B68     		ldr	r3, [r7, #4]
 1139 0050 1B78     		ldrb	r3, [r3]	@ zero_extendqisi2
 1140 0052 012B     		cmp	r3, #1
 1141 0054 07D1     		bne	.L80
 409:..\..\..\lvgl\version_6.1.2\lvgl\src\lv_misc/lv_txt.c ****         if(c == ' ') {
 1142              		.loc 2 409 0
 1143 0056 3B68     		ldr	r3, [r7]
 1144 0058 202B     		cmp	r3, #32
 1145 005a 02D1     		bne	.L81
 410:..\..\..\lvgl\version_6.1.2\lvgl\src\lv_misc/lv_txt.c ****             *state = LV_TXT_CMD_STATE_IN; /*After the parameter the text is in the command*/
 1146              		.loc 2 410 0
 1147 005c 7B68     		ldr	r3, [r7, #4]
 1148 005e 0222     		movs	r2, #2
 1149 0060 1A70     		strb	r2, [r3]
 1150              	.L81:
 411:..\..\..\lvgl\version_6.1.2\lvgl\src\lv_misc/lv_txt.c ****         }
 412:..\..\..\lvgl\version_6.1.2\lvgl\src\lv_misc/lv_txt.c ****         ret = true;
 1151              		.loc 2 412 0
 1152 0062 0123     		movs	r3, #1
 1153 0064 FB73     		strb	r3, [r7, #15]
 1154              	.L80:
 413:..\..\..\lvgl\version_6.1.2\lvgl\src\lv_misc/lv_txt.c ****     }
 414:..\..\..\lvgl\version_6.1.2\lvgl\src\lv_misc/lv_txt.c **** 
 415:..\..\..\lvgl\version_6.1.2\lvgl\src\lv_misc/lv_txt.c ****     return ret;
 1155              		.loc 2 415 0
 1156 0066 FB7B     		ldrb	r3, [r7, #15]	@ zero_extendqisi2
 416:..\..\..\lvgl\version_6.1.2\lvgl\src\lv_misc/lv_txt.c **** }
ARM GAS  C:\Users\tmj32\AppData\Local\Temp\ccPoPccU.s 			page 31


 1157              		.loc 2 416 0
 1158 0068 1846     		mov	r0, r3
 1159 006a 1437     		adds	r7, r7, #20
 1160              		.cfi_def_cfa_offset 4
 1161 006c BD46     		mov	sp, r7
 1162              		.cfi_def_cfa_register 13
 1163              		@ sp needed
 1164 006e 5DF8047B 		ldr	r7, [sp], #4
 1165              		.cfi_restore 7
 1166              		.cfi_def_cfa_offset 0
 1167 0072 7047     		bx	lr
 1168              		.cfi_endproc
 1169              	.LFE8:
 1170              		.size	lv_txt_is_cmd, .-lv_txt_is_cmd
 1171              		.section	.text.lv_txt_ins,"ax",%progbits
 1172              		.align	2
 1173              		.global	lv_txt_ins
 1174              		.thumb
 1175              		.thumb_func
 1176              		.type	lv_txt_ins, %function
 1177              	lv_txt_ins:
 1178              	.LFB9:
 417:..\..\..\lvgl\version_6.1.2\lvgl\src\lv_misc/lv_txt.c **** 
 418:..\..\..\lvgl\version_6.1.2\lvgl\src\lv_misc/lv_txt.c **** /**
 419:..\..\..\lvgl\version_6.1.2\lvgl\src\lv_misc/lv_txt.c ****  * Insert a string into an other
 420:..\..\..\lvgl\version_6.1.2\lvgl\src\lv_misc/lv_txt.c ****  * @param txt_buf the original text (must be big enough for the result text)
 421:..\..\..\lvgl\version_6.1.2\lvgl\src\lv_misc/lv_txt.c ****  * @param pos position to insert. Expressed in character index and not byte index (Different in
 422:..\..\..\lvgl\version_6.1.2\lvgl\src\lv_misc/lv_txt.c ****  * UTF-8) 0: before the original text, 1: after the first char etc.
 423:..\..\..\lvgl\version_6.1.2\lvgl\src\lv_misc/lv_txt.c ****  * @param ins_txt text to insert
 424:..\..\..\lvgl\version_6.1.2\lvgl\src\lv_misc/lv_txt.c ****  */
 425:..\..\..\lvgl\version_6.1.2\lvgl\src\lv_misc/lv_txt.c **** void lv_txt_ins(char * txt_buf, uint32_t pos, const char * ins_txt)
 426:..\..\..\lvgl\version_6.1.2\lvgl\src\lv_misc/lv_txt.c **** {
 1179              		.loc 2 426 0
 1180              		.cfi_startproc
 1181              		@ args = 0, pretend = 0, frame = 32
 1182              		@ frame_needed = 1, uses_anonymous_args = 0
 1183 0000 80B5     		push	{r7, lr}
 1184              		.cfi_def_cfa_offset 8
 1185              		.cfi_offset 7, -8
 1186              		.cfi_offset 14, -4
 1187 0002 88B0     		sub	sp, sp, #32
 1188              		.cfi_def_cfa_offset 40
 1189 0004 00AF     		add	r7, sp, #0
 1190              		.cfi_def_cfa_register 7
 1191 0006 F860     		str	r0, [r7, #12]
 1192 0008 B960     		str	r1, [r7, #8]
 1193 000a 7A60     		str	r2, [r7, #4]
 427:..\..\..\lvgl\version_6.1.2\lvgl\src\lv_misc/lv_txt.c ****     size_t old_len = strlen(txt_buf);
 1194              		.loc 2 427 0
 1195 000c F868     		ldr	r0, [r7, #12]
 1196 000e FFF7FEFF 		bl	strlen
 1197 0012 B861     		str	r0, [r7, #24]
 428:..\..\..\lvgl\version_6.1.2\lvgl\src\lv_misc/lv_txt.c ****     size_t ins_len = strlen(ins_txt);
 1198              		.loc 2 428 0
 1199 0014 7868     		ldr	r0, [r7, #4]
 1200 0016 FFF7FEFF 		bl	strlen
 1201 001a 7861     		str	r0, [r7, #20]
ARM GAS  C:\Users\tmj32\AppData\Local\Temp\ccPoPccU.s 			page 32


 429:..\..\..\lvgl\version_6.1.2\lvgl\src\lv_misc/lv_txt.c ****     size_t new_len = ins_len + old_len;
 1202              		.loc 2 429 0
 1203 001c 7A69     		ldr	r2, [r7, #20]
 1204 001e BB69     		ldr	r3, [r7, #24]
 1205 0020 1344     		add	r3, r3, r2
 1206 0022 3B61     		str	r3, [r7, #16]
 430:..\..\..\lvgl\version_6.1.2\lvgl\src\lv_misc/lv_txt.c ****     pos              = lv_txt_encoded_get_byte_id(txt_buf, pos); /*Convert to byte index instead of
 1207              		.loc 2 430 0
 1208 0024 134B     		ldr	r3, .L86
 1209 0026 1B68     		ldr	r3, [r3]
 1210 0028 B968     		ldr	r1, [r7, #8]
 1211 002a F868     		ldr	r0, [r7, #12]
 1212 002c 9847     		blx	r3
 1213 002e B860     		str	r0, [r7, #8]
 431:..\..\..\lvgl\version_6.1.2\lvgl\src\lv_misc/lv_txt.c **** 
 432:..\..\..\lvgl\version_6.1.2\lvgl\src\lv_misc/lv_txt.c ****     /*Copy the second part into the end to make place to text to insert*/
 433:..\..\..\lvgl\version_6.1.2\lvgl\src\lv_misc/lv_txt.c ****     size_t i;
 434:..\..\..\lvgl\version_6.1.2\lvgl\src\lv_misc/lv_txt.c ****     for(i = new_len; i >= pos + ins_len; i--) {
 1214              		.loc 2 434 0
 1215 0030 3B69     		ldr	r3, [r7, #16]
 1216 0032 FB61     		str	r3, [r7, #28]
 1217 0034 0CE0     		b	.L84
 1218              	.L85:
 435:..\..\..\lvgl\version_6.1.2\lvgl\src\lv_misc/lv_txt.c ****         txt_buf[i] = txt_buf[i - ins_len];
 1219              		.loc 2 435 0 discriminator 3
 1220 0036 FA68     		ldr	r2, [r7, #12]
 1221 0038 FB69     		ldr	r3, [r7, #28]
 1222 003a 1344     		add	r3, r3, r2
 1223 003c F969     		ldr	r1, [r7, #28]
 1224 003e 7A69     		ldr	r2, [r7, #20]
 1225 0040 8A1A     		subs	r2, r1, r2
 1226 0042 F968     		ldr	r1, [r7, #12]
 1227 0044 0A44     		add	r2, r2, r1
 1228 0046 1278     		ldrb	r2, [r2]	@ zero_extendqisi2
 1229 0048 1A70     		strb	r2, [r3]
 434:..\..\..\lvgl\version_6.1.2\lvgl\src\lv_misc/lv_txt.c ****         txt_buf[i] = txt_buf[i - ins_len];
 1230              		.loc 2 434 0 discriminator 3
 1231 004a FB69     		ldr	r3, [r7, #28]
 1232 004c 013B     		subs	r3, r3, #1
 1233 004e FB61     		str	r3, [r7, #28]
 1234              	.L84:
 434:..\..\..\lvgl\version_6.1.2\lvgl\src\lv_misc/lv_txt.c ****         txt_buf[i] = txt_buf[i - ins_len];
 1235              		.loc 2 434 0 is_stmt 0 discriminator 1
 1236 0050 BA68     		ldr	r2, [r7, #8]
 1237 0052 7B69     		ldr	r3, [r7, #20]
 1238 0054 1A44     		add	r2, r2, r3
 1239 0056 FB69     		ldr	r3, [r7, #28]
 1240 0058 9A42     		cmp	r2, r3
 1241 005a ECD9     		bls	.L85
 436:..\..\..\lvgl\version_6.1.2\lvgl\src\lv_misc/lv_txt.c ****     }
 437:..\..\..\lvgl\version_6.1.2\lvgl\src\lv_misc/lv_txt.c **** 
 438:..\..\..\lvgl\version_6.1.2\lvgl\src\lv_misc/lv_txt.c ****     /* Copy the text into the new space*/
 439:..\..\..\lvgl\version_6.1.2\lvgl\src\lv_misc/lv_txt.c ****     memcpy(txt_buf + pos, ins_txt, ins_len);
 1242              		.loc 2 439 0 is_stmt 1
 1243 005c FA68     		ldr	r2, [r7, #12]
 1244 005e BB68     		ldr	r3, [r7, #8]
 1245 0060 1344     		add	r3, r3, r2
ARM GAS  C:\Users\tmj32\AppData\Local\Temp\ccPoPccU.s 			page 33


 1246 0062 7A69     		ldr	r2, [r7, #20]
 1247 0064 7968     		ldr	r1, [r7, #4]
 1248 0066 1846     		mov	r0, r3
 1249 0068 FFF7FEFF 		bl	memcpy
 440:..\..\..\lvgl\version_6.1.2\lvgl\src\lv_misc/lv_txt.c **** }
 1250              		.loc 2 440 0
 1251 006c 00BF     		nop
 1252 006e 2037     		adds	r7, r7, #32
 1253              		.cfi_def_cfa_offset 8
 1254 0070 BD46     		mov	sp, r7
 1255              		.cfi_def_cfa_register 13
 1256              		@ sp needed
 1257 0072 80BD     		pop	{r7, pc}
 1258              	.L87:
 1259              		.align	2
 1260              	.L86:
 1261 0074 00000000 		.word	lv_txt_encoded_get_byte_id
 1262              		.cfi_endproc
 1263              	.LFE9:
 1264              		.size	lv_txt_ins, .-lv_txt_ins
 1265              		.section	.text.lv_txt_cut,"ax",%progbits
 1266              		.align	2
 1267              		.global	lv_txt_cut
 1268              		.thumb
 1269              		.thumb_func
 1270              		.type	lv_txt_cut, %function
 1271              	lv_txt_cut:
 1272              	.LFB10:
 441:..\..\..\lvgl\version_6.1.2\lvgl\src\lv_misc/lv_txt.c **** 
 442:..\..\..\lvgl\version_6.1.2\lvgl\src\lv_misc/lv_txt.c **** /**
 443:..\..\..\lvgl\version_6.1.2\lvgl\src\lv_misc/lv_txt.c ****  * Delete a part of a string
 444:..\..\..\lvgl\version_6.1.2\lvgl\src\lv_misc/lv_txt.c ****  * @param txt string to modify
 445:..\..\..\lvgl\version_6.1.2\lvgl\src\lv_misc/lv_txt.c ****  * @param pos position where to start the deleting (0: before the first char, 1: after the first
 446:..\..\..\lvgl\version_6.1.2\lvgl\src\lv_misc/lv_txt.c ****  * char etc.)
 447:..\..\..\lvgl\version_6.1.2\lvgl\src\lv_misc/lv_txt.c ****  * @param len number of characters to delete
 448:..\..\..\lvgl\version_6.1.2\lvgl\src\lv_misc/lv_txt.c ****  */
 449:..\..\..\lvgl\version_6.1.2\lvgl\src\lv_misc/lv_txt.c **** void lv_txt_cut(char * txt, uint32_t pos, uint32_t len)
 450:..\..\..\lvgl\version_6.1.2\lvgl\src\lv_misc/lv_txt.c **** {
 1273              		.loc 2 450 0
 1274              		.cfi_startproc
 1275              		@ args = 0, pretend = 0, frame = 24
 1276              		@ frame_needed = 1, uses_anonymous_args = 0
 1277 0000 80B5     		push	{r7, lr}
 1278              		.cfi_def_cfa_offset 8
 1279              		.cfi_offset 7, -8
 1280              		.cfi_offset 14, -4
 1281 0002 86B0     		sub	sp, sp, #24
 1282              		.cfi_def_cfa_offset 32
 1283 0004 00AF     		add	r7, sp, #0
 1284              		.cfi_def_cfa_register 7
 1285 0006 F860     		str	r0, [r7, #12]
 1286 0008 B960     		str	r1, [r7, #8]
 1287 000a 7A60     		str	r2, [r7, #4]
 451:..\..\..\lvgl\version_6.1.2\lvgl\src\lv_misc/lv_txt.c **** 
 452:..\..\..\lvgl\version_6.1.2\lvgl\src\lv_misc/lv_txt.c ****     size_t old_len = strlen(txt);
 1288              		.loc 2 452 0
 1289 000c F868     		ldr	r0, [r7, #12]
ARM GAS  C:\Users\tmj32\AppData\Local\Temp\ccPoPccU.s 			page 34


 1290 000e FFF7FEFF 		bl	strlen
 1291 0012 3861     		str	r0, [r7, #16]
 453:..\..\..\lvgl\version_6.1.2\lvgl\src\lv_misc/lv_txt.c **** 
 454:..\..\..\lvgl\version_6.1.2\lvgl\src\lv_misc/lv_txt.c ****     pos = lv_txt_encoded_get_byte_id(txt, pos); /*Convert to byte index instead of letter index*/
 1292              		.loc 2 454 0
 1293 0014 144B     		ldr	r3, .L91
 1294 0016 1B68     		ldr	r3, [r3]
 1295 0018 B968     		ldr	r1, [r7, #8]
 1296 001a F868     		ldr	r0, [r7, #12]
 1297 001c 9847     		blx	r3
 1298 001e B860     		str	r0, [r7, #8]
 455:..\..\..\lvgl\version_6.1.2\lvgl\src\lv_misc/lv_txt.c ****     len = lv_txt_encoded_get_byte_id(&txt[pos], len);
 1299              		.loc 2 455 0
 1300 0020 114B     		ldr	r3, .L91
 1301 0022 1B68     		ldr	r3, [r3]
 1302 0024 F968     		ldr	r1, [r7, #12]
 1303 0026 BA68     		ldr	r2, [r7, #8]
 1304 0028 0A44     		add	r2, r2, r1
 1305 002a 7968     		ldr	r1, [r7, #4]
 1306 002c 1046     		mov	r0, r2
 1307 002e 9847     		blx	r3
 1308 0030 7860     		str	r0, [r7, #4]
 456:..\..\..\lvgl\version_6.1.2\lvgl\src\lv_misc/lv_txt.c **** 
 457:..\..\..\lvgl\version_6.1.2\lvgl\src\lv_misc/lv_txt.c ****     /*Copy the second part into the end to make place to text to insert*/
 458:..\..\..\lvgl\version_6.1.2\lvgl\src\lv_misc/lv_txt.c ****     uint32_t i;
 459:..\..\..\lvgl\version_6.1.2\lvgl\src\lv_misc/lv_txt.c ****     for(i = pos; i <= old_len - len; i++) {
 1309              		.loc 2 459 0
 1310 0032 BB68     		ldr	r3, [r7, #8]
 1311 0034 7B61     		str	r3, [r7, #20]
 1312 0036 0CE0     		b	.L89
 1313              	.L90:
 460:..\..\..\lvgl\version_6.1.2\lvgl\src\lv_misc/lv_txt.c ****         txt[i] = txt[i + len];
 1314              		.loc 2 460 0 discriminator 3
 1315 0038 FA68     		ldr	r2, [r7, #12]
 1316 003a 7B69     		ldr	r3, [r7, #20]
 1317 003c 1344     		add	r3, r3, r2
 1318 003e 7969     		ldr	r1, [r7, #20]
 1319 0040 7A68     		ldr	r2, [r7, #4]
 1320 0042 0A44     		add	r2, r2, r1
 1321 0044 F968     		ldr	r1, [r7, #12]
 1322 0046 0A44     		add	r2, r2, r1
 1323 0048 1278     		ldrb	r2, [r2]	@ zero_extendqisi2
 1324 004a 1A70     		strb	r2, [r3]
 459:..\..\..\lvgl\version_6.1.2\lvgl\src\lv_misc/lv_txt.c ****         txt[i] = txt[i + len];
 1325              		.loc 2 459 0 discriminator 3
 1326 004c 7B69     		ldr	r3, [r7, #20]
 1327 004e 0133     		adds	r3, r3, #1
 1328 0050 7B61     		str	r3, [r7, #20]
 1329              	.L89:
 459:..\..\..\lvgl\version_6.1.2\lvgl\src\lv_misc/lv_txt.c ****         txt[i] = txt[i + len];
 1330              		.loc 2 459 0 is_stmt 0 discriminator 1
 1331 0052 3A69     		ldr	r2, [r7, #16]
 1332 0054 7B68     		ldr	r3, [r7, #4]
 1333 0056 D21A     		subs	r2, r2, r3
 1334 0058 7B69     		ldr	r3, [r7, #20]
 1335 005a 9A42     		cmp	r2, r3
 1336 005c ECD2     		bcs	.L90
ARM GAS  C:\Users\tmj32\AppData\Local\Temp\ccPoPccU.s 			page 35


 461:..\..\..\lvgl\version_6.1.2\lvgl\src\lv_misc/lv_txt.c ****     }
 462:..\..\..\lvgl\version_6.1.2\lvgl\src\lv_misc/lv_txt.c **** }
 1337              		.loc 2 462 0 is_stmt 1
 1338 005e 00BF     		nop
 1339 0060 1837     		adds	r7, r7, #24
 1340              		.cfi_def_cfa_offset 8
 1341 0062 BD46     		mov	sp, r7
 1342              		.cfi_def_cfa_register 13
 1343              		@ sp needed
 1344 0064 80BD     		pop	{r7, pc}
 1345              	.L92:
 1346 0066 00BF     		.align	2
 1347              	.L91:
 1348 0068 00000000 		.word	lv_txt_encoded_get_byte_id
 1349              		.cfi_endproc
 1350              	.LFE10:
 1351              		.size	lv_txt_cut, .-lv_txt_cut
 1352              		.section	.text.lv_txt_iso8859_1_size,"ax",%progbits
 1353              		.align	2
 1354              		.thumb
 1355              		.thumb_func
 1356              		.type	lv_txt_iso8859_1_size, %function
 1357              	lv_txt_iso8859_1_size:
 1358              	.LFB11:
 463:..\..\..\lvgl\version_6.1.2\lvgl\src\lv_misc/lv_txt.c **** 
 464:..\..\..\lvgl\version_6.1.2\lvgl\src\lv_misc/lv_txt.c **** #if LV_TXT_ENC == LV_TXT_ENC_UTF8
 465:..\..\..\lvgl\version_6.1.2\lvgl\src\lv_misc/lv_txt.c **** /*******************************
 466:..\..\..\lvgl\version_6.1.2\lvgl\src\lv_misc/lv_txt.c ****  *   UTF-8 ENCODER/DECOER
 467:..\..\..\lvgl\version_6.1.2\lvgl\src\lv_misc/lv_txt.c ****  ******************************/
 468:..\..\..\lvgl\version_6.1.2\lvgl\src\lv_misc/lv_txt.c **** 
 469:..\..\..\lvgl\version_6.1.2\lvgl\src\lv_misc/lv_txt.c **** /**
 470:..\..\..\lvgl\version_6.1.2\lvgl\src\lv_misc/lv_txt.c ****  * Give the size of an UTF-8 coded character
 471:..\..\..\lvgl\version_6.1.2\lvgl\src\lv_misc/lv_txt.c ****  * @param str pointer to a character in a string
 472:..\..\..\lvgl\version_6.1.2\lvgl\src\lv_misc/lv_txt.c ****  * @return length of the UTF-8 character (1,2,3 or 4). O on invalid code
 473:..\..\..\lvgl\version_6.1.2\lvgl\src\lv_misc/lv_txt.c ****  */
 474:..\..\..\lvgl\version_6.1.2\lvgl\src\lv_misc/lv_txt.c **** static uint8_t lv_txt_utf8_size(const char * str)
 475:..\..\..\lvgl\version_6.1.2\lvgl\src\lv_misc/lv_txt.c **** {
 476:..\..\..\lvgl\version_6.1.2\lvgl\src\lv_misc/lv_txt.c ****     if((str[0] & 0x80) == 0)
 477:..\..\..\lvgl\version_6.1.2\lvgl\src\lv_misc/lv_txt.c ****         return 1;
 478:..\..\..\lvgl\version_6.1.2\lvgl\src\lv_misc/lv_txt.c ****     else if((str[0] & 0xE0) == 0xC0)
 479:..\..\..\lvgl\version_6.1.2\lvgl\src\lv_misc/lv_txt.c ****         return 2;
 480:..\..\..\lvgl\version_6.1.2\lvgl\src\lv_misc/lv_txt.c ****     else if((str[0] & 0xF0) == 0xE0)
 481:..\..\..\lvgl\version_6.1.2\lvgl\src\lv_misc/lv_txt.c ****         return 3;
 482:..\..\..\lvgl\version_6.1.2\lvgl\src\lv_misc/lv_txt.c ****     else if((str[0] & 0xF8) == 0xF0)
 483:..\..\..\lvgl\version_6.1.2\lvgl\src\lv_misc/lv_txt.c ****         return 4;
 484:..\..\..\lvgl\version_6.1.2\lvgl\src\lv_misc/lv_txt.c ****     return 0; /*If the char was invalid tell it's 1 byte long*/
 485:..\..\..\lvgl\version_6.1.2\lvgl\src\lv_misc/lv_txt.c **** }
 486:..\..\..\lvgl\version_6.1.2\lvgl\src\lv_misc/lv_txt.c **** 
 487:..\..\..\lvgl\version_6.1.2\lvgl\src\lv_misc/lv_txt.c **** /**
 488:..\..\..\lvgl\version_6.1.2\lvgl\src\lv_misc/lv_txt.c ****  * Convert an Unicode letter to UTF-8.
 489:..\..\..\lvgl\version_6.1.2\lvgl\src\lv_misc/lv_txt.c ****  * @param letter_uni an Unicode letter
 490:..\..\..\lvgl\version_6.1.2\lvgl\src\lv_misc/lv_txt.c ****  * @return UTF-8 coded character in Little Endian to be compatible with C chars (e.g. '', '')
 491:..\..\..\lvgl\version_6.1.2\lvgl\src\lv_misc/lv_txt.c ****  */
 492:..\..\..\lvgl\version_6.1.2\lvgl\src\lv_misc/lv_txt.c **** static uint32_t lv_txt_unicode_to_utf8(uint32_t letter_uni)
 493:..\..\..\lvgl\version_6.1.2\lvgl\src\lv_misc/lv_txt.c **** {
 494:..\..\..\lvgl\version_6.1.2\lvgl\src\lv_misc/lv_txt.c ****     if(letter_uni < 128) return letter_uni;
 495:..\..\..\lvgl\version_6.1.2\lvgl\src\lv_misc/lv_txt.c ****     uint8_t bytes[4];
ARM GAS  C:\Users\tmj32\AppData\Local\Temp\ccPoPccU.s 			page 36


 496:..\..\..\lvgl\version_6.1.2\lvgl\src\lv_misc/lv_txt.c **** 
 497:..\..\..\lvgl\version_6.1.2\lvgl\src\lv_misc/lv_txt.c ****     if(letter_uni < 0x0800) {
 498:..\..\..\lvgl\version_6.1.2\lvgl\src\lv_misc/lv_txt.c ****         bytes[0] = ((letter_uni >> 6) & 0x1F) | 0xC0;
 499:..\..\..\lvgl\version_6.1.2\lvgl\src\lv_misc/lv_txt.c ****         bytes[1] = ((letter_uni >> 0) & 0x3F) | 0x80;
 500:..\..\..\lvgl\version_6.1.2\lvgl\src\lv_misc/lv_txt.c ****         bytes[2] = 0;
 501:..\..\..\lvgl\version_6.1.2\lvgl\src\lv_misc/lv_txt.c ****         bytes[3] = 0;
 502:..\..\..\lvgl\version_6.1.2\lvgl\src\lv_misc/lv_txt.c ****     } else if(letter_uni < 0x010000) {
 503:..\..\..\lvgl\version_6.1.2\lvgl\src\lv_misc/lv_txt.c ****         bytes[0] = ((letter_uni >> 12) & 0x0F) | 0xE0;
 504:..\..\..\lvgl\version_6.1.2\lvgl\src\lv_misc/lv_txt.c ****         bytes[1] = ((letter_uni >> 6) & 0x3F) | 0x80;
 505:..\..\..\lvgl\version_6.1.2\lvgl\src\lv_misc/lv_txt.c ****         bytes[2] = ((letter_uni >> 0) & 0x3F) | 0x80;
 506:..\..\..\lvgl\version_6.1.2\lvgl\src\lv_misc/lv_txt.c ****         bytes[3] = 0;
 507:..\..\..\lvgl\version_6.1.2\lvgl\src\lv_misc/lv_txt.c ****     } else if(letter_uni < 0x110000) {
 508:..\..\..\lvgl\version_6.1.2\lvgl\src\lv_misc/lv_txt.c ****         bytes[0] = ((letter_uni >> 18) & 0x07) | 0xF0;
 509:..\..\..\lvgl\version_6.1.2\lvgl\src\lv_misc/lv_txt.c ****         bytes[1] = ((letter_uni >> 12) & 0x3F) | 0x80;
 510:..\..\..\lvgl\version_6.1.2\lvgl\src\lv_misc/lv_txt.c ****         bytes[2] = ((letter_uni >> 6) & 0x3F) | 0x80;
 511:..\..\..\lvgl\version_6.1.2\lvgl\src\lv_misc/lv_txt.c ****         bytes[3] = ((letter_uni >> 0) & 0x3F) | 0x80;
 512:..\..\..\lvgl\version_6.1.2\lvgl\src\lv_misc/lv_txt.c ****     }
 513:..\..\..\lvgl\version_6.1.2\lvgl\src\lv_misc/lv_txt.c **** 
 514:..\..\..\lvgl\version_6.1.2\lvgl\src\lv_misc/lv_txt.c ****     uint32_t * res_p = (uint32_t *)bytes;
 515:..\..\..\lvgl\version_6.1.2\lvgl\src\lv_misc/lv_txt.c ****     return *res_p;
 516:..\..\..\lvgl\version_6.1.2\lvgl\src\lv_misc/lv_txt.c **** }
 517:..\..\..\lvgl\version_6.1.2\lvgl\src\lv_misc/lv_txt.c **** 
 518:..\..\..\lvgl\version_6.1.2\lvgl\src\lv_misc/lv_txt.c **** /**
 519:..\..\..\lvgl\version_6.1.2\lvgl\src\lv_misc/lv_txt.c ****  * Convert a wide character, e.g. '' little endian to be UTF-8 compatible
 520:..\..\..\lvgl\version_6.1.2\lvgl\src\lv_misc/lv_txt.c ****  * @param c a wide character or a  Little endian number
 521:..\..\..\lvgl\version_6.1.2\lvgl\src\lv_misc/lv_txt.c ****  * @return `c` in big endian
 522:..\..\..\lvgl\version_6.1.2\lvgl\src\lv_misc/lv_txt.c ****  */
 523:..\..\..\lvgl\version_6.1.2\lvgl\src\lv_misc/lv_txt.c **** static uint32_t lv_txt_utf8_conv_wc(uint32_t c)
 524:..\..\..\lvgl\version_6.1.2\lvgl\src\lv_misc/lv_txt.c **** {
 525:..\..\..\lvgl\version_6.1.2\lvgl\src\lv_misc/lv_txt.c ****     /*Swap the bytes (UTF-8 is big endian, but the MCUs are little endian)*/
 526:..\..\..\lvgl\version_6.1.2\lvgl\src\lv_misc/lv_txt.c ****     if((c & 0x80) != 0) {
 527:..\..\..\lvgl\version_6.1.2\lvgl\src\lv_misc/lv_txt.c ****         uint32_t swapped;
 528:..\..\..\lvgl\version_6.1.2\lvgl\src\lv_misc/lv_txt.c ****         uint8_t c8[4];
 529:..\..\..\lvgl\version_6.1.2\lvgl\src\lv_misc/lv_txt.c ****         memcpy(c8, &c, 4);
 530:..\..\..\lvgl\version_6.1.2\lvgl\src\lv_misc/lv_txt.c ****         swapped = (c8[0] << 24) + (c8[1] << 16) + (c8[2] << 8) + (c8[3]);
 531:..\..\..\lvgl\version_6.1.2\lvgl\src\lv_misc/lv_txt.c ****         uint8_t i;
 532:..\..\..\lvgl\version_6.1.2\lvgl\src\lv_misc/lv_txt.c ****         for(i = 0; i < 4; i++) {
 533:..\..\..\lvgl\version_6.1.2\lvgl\src\lv_misc/lv_txt.c ****             if((swapped & 0xFF) == 0)
 534:..\..\..\lvgl\version_6.1.2\lvgl\src\lv_misc/lv_txt.c ****                 swapped = (swapped >> 8); /*Ignore leading zeros (they were in the end originally)*
 535:..\..\..\lvgl\version_6.1.2\lvgl\src\lv_misc/lv_txt.c ****         }
 536:..\..\..\lvgl\version_6.1.2\lvgl\src\lv_misc/lv_txt.c ****         c = swapped;
 537:..\..\..\lvgl\version_6.1.2\lvgl\src\lv_misc/lv_txt.c ****     }
 538:..\..\..\lvgl\version_6.1.2\lvgl\src\lv_misc/lv_txt.c **** 
 539:..\..\..\lvgl\version_6.1.2\lvgl\src\lv_misc/lv_txt.c ****     return c;
 540:..\..\..\lvgl\version_6.1.2\lvgl\src\lv_misc/lv_txt.c **** }
 541:..\..\..\lvgl\version_6.1.2\lvgl\src\lv_misc/lv_txt.c **** 
 542:..\..\..\lvgl\version_6.1.2\lvgl\src\lv_misc/lv_txt.c **** /**
 543:..\..\..\lvgl\version_6.1.2\lvgl\src\lv_misc/lv_txt.c ****  * Decode an UTF-8 character from a string.
 544:..\..\..\lvgl\version_6.1.2\lvgl\src\lv_misc/lv_txt.c ****  * @param txt pointer to '\0' terminated string
 545:..\..\..\lvgl\version_6.1.2\lvgl\src\lv_misc/lv_txt.c ****  * @param i start byte index in 'txt' where to start.
 546:..\..\..\lvgl\version_6.1.2\lvgl\src\lv_misc/lv_txt.c ****  *          After call it will point to the next UTF-8 char in 'txt'.
 547:..\..\..\lvgl\version_6.1.2\lvgl\src\lv_misc/lv_txt.c ****  *          NULL to use txt[0] as index
 548:..\..\..\lvgl\version_6.1.2\lvgl\src\lv_misc/lv_txt.c ****  * @return the decoded Unicode character or 0 on invalid UTF-8 code
 549:..\..\..\lvgl\version_6.1.2\lvgl\src\lv_misc/lv_txt.c ****  */
 550:..\..\..\lvgl\version_6.1.2\lvgl\src\lv_misc/lv_txt.c **** static uint32_t lv_txt_utf8_next(const char * txt, uint32_t * i)
 551:..\..\..\lvgl\version_6.1.2\lvgl\src\lv_misc/lv_txt.c **** {
 552:..\..\..\lvgl\version_6.1.2\lvgl\src\lv_misc/lv_txt.c ****     /* Unicode to UTF-8
ARM GAS  C:\Users\tmj32\AppData\Local\Temp\ccPoPccU.s 			page 37


 553:..\..\..\lvgl\version_6.1.2\lvgl\src\lv_misc/lv_txt.c ****      * 00000000 00000000 00000000 0xxxxxxx -> 0xxxxxxx
 554:..\..\..\lvgl\version_6.1.2\lvgl\src\lv_misc/lv_txt.c ****      * 00000000 00000000 00000yyy yyxxxxxx -> 110yyyyy 10xxxxxx
 555:..\..\..\lvgl\version_6.1.2\lvgl\src\lv_misc/lv_txt.c ****      * 00000000 00000000 zzzzyyyy yyxxxxxx -> 1110zzzz 10yyyyyy 10xxxxxx
 556:..\..\..\lvgl\version_6.1.2\lvgl\src\lv_misc/lv_txt.c ****      * 00000000 000wwwzz zzzzyyyy yyxxxxxx -> 11110www 10zzzzzz 10yyyyyy 10xxxxxx
 557:..\..\..\lvgl\version_6.1.2\lvgl\src\lv_misc/lv_txt.c ****      * */
 558:..\..\..\lvgl\version_6.1.2\lvgl\src\lv_misc/lv_txt.c **** 
 559:..\..\..\lvgl\version_6.1.2\lvgl\src\lv_misc/lv_txt.c ****     uint32_t result = 0;
 560:..\..\..\lvgl\version_6.1.2\lvgl\src\lv_misc/lv_txt.c **** 
 561:..\..\..\lvgl\version_6.1.2\lvgl\src\lv_misc/lv_txt.c ****     /*Dummy 'i' pointer is required*/
 562:..\..\..\lvgl\version_6.1.2\lvgl\src\lv_misc/lv_txt.c ****     uint32_t i_tmp = 0;
 563:..\..\..\lvgl\version_6.1.2\lvgl\src\lv_misc/lv_txt.c ****     if(i == NULL) i = &i_tmp;
 564:..\..\..\lvgl\version_6.1.2\lvgl\src\lv_misc/lv_txt.c **** 
 565:..\..\..\lvgl\version_6.1.2\lvgl\src\lv_misc/lv_txt.c ****     /*Normal ASCII*/
 566:..\..\..\lvgl\version_6.1.2\lvgl\src\lv_misc/lv_txt.c ****     if((txt[*i] & 0x80) == 0) {
 567:..\..\..\lvgl\version_6.1.2\lvgl\src\lv_misc/lv_txt.c ****         result = txt[*i];
 568:..\..\..\lvgl\version_6.1.2\lvgl\src\lv_misc/lv_txt.c ****         (*i)++;
 569:..\..\..\lvgl\version_6.1.2\lvgl\src\lv_misc/lv_txt.c ****     }
 570:..\..\..\lvgl\version_6.1.2\lvgl\src\lv_misc/lv_txt.c ****     /*Real UTF-8 decode*/
 571:..\..\..\lvgl\version_6.1.2\lvgl\src\lv_misc/lv_txt.c ****     else {
 572:..\..\..\lvgl\version_6.1.2\lvgl\src\lv_misc/lv_txt.c ****         /*2 bytes UTF-8 code*/
 573:..\..\..\lvgl\version_6.1.2\lvgl\src\lv_misc/lv_txt.c ****         if((txt[*i] & 0xE0) == 0xC0) {
 574:..\..\..\lvgl\version_6.1.2\lvgl\src\lv_misc/lv_txt.c ****             result = (uint32_t)(txt[*i] & 0x1F) << 6;
 575:..\..\..\lvgl\version_6.1.2\lvgl\src\lv_misc/lv_txt.c ****             (*i)++;
 576:..\..\..\lvgl\version_6.1.2\lvgl\src\lv_misc/lv_txt.c ****             if((txt[*i] & 0xC0) != 0x80) return 0; /*Invalid UTF-8 code*/
 577:..\..\..\lvgl\version_6.1.2\lvgl\src\lv_misc/lv_txt.c ****             result += (txt[*i] & 0x3F);
 578:..\..\..\lvgl\version_6.1.2\lvgl\src\lv_misc/lv_txt.c ****             (*i)++;
 579:..\..\..\lvgl\version_6.1.2\lvgl\src\lv_misc/lv_txt.c ****         }
 580:..\..\..\lvgl\version_6.1.2\lvgl\src\lv_misc/lv_txt.c ****         /*3 bytes UTF-8 code*/
 581:..\..\..\lvgl\version_6.1.2\lvgl\src\lv_misc/lv_txt.c ****         else if((txt[*i] & 0xF0) == 0xE0) {
 582:..\..\..\lvgl\version_6.1.2\lvgl\src\lv_misc/lv_txt.c ****             result = (uint32_t)(txt[*i] & 0x0F) << 12;
 583:..\..\..\lvgl\version_6.1.2\lvgl\src\lv_misc/lv_txt.c ****             (*i)++;
 584:..\..\..\lvgl\version_6.1.2\lvgl\src\lv_misc/lv_txt.c **** 
 585:..\..\..\lvgl\version_6.1.2\lvgl\src\lv_misc/lv_txt.c ****             if((txt[*i] & 0xC0) != 0x80) return 0; /*Invalid UTF-8 code*/
 586:..\..\..\lvgl\version_6.1.2\lvgl\src\lv_misc/lv_txt.c ****             result += (uint32_t)(txt[*i] & 0x3F) << 6;
 587:..\..\..\lvgl\version_6.1.2\lvgl\src\lv_misc/lv_txt.c ****             (*i)++;
 588:..\..\..\lvgl\version_6.1.2\lvgl\src\lv_misc/lv_txt.c **** 
 589:..\..\..\lvgl\version_6.1.2\lvgl\src\lv_misc/lv_txt.c ****             if((txt[*i] & 0xC0) != 0x80) return 0; /*Invalid UTF-8 code*/
 590:..\..\..\lvgl\version_6.1.2\lvgl\src\lv_misc/lv_txt.c ****             result += (txt[*i] & 0x3F);
 591:..\..\..\lvgl\version_6.1.2\lvgl\src\lv_misc/lv_txt.c ****             (*i)++;
 592:..\..\..\lvgl\version_6.1.2\lvgl\src\lv_misc/lv_txt.c ****         }
 593:..\..\..\lvgl\version_6.1.2\lvgl\src\lv_misc/lv_txt.c ****         /*4 bytes UTF-8 code*/
 594:..\..\..\lvgl\version_6.1.2\lvgl\src\lv_misc/lv_txt.c ****         else if((txt[*i] & 0xF8) == 0xF0) {
 595:..\..\..\lvgl\version_6.1.2\lvgl\src\lv_misc/lv_txt.c ****             result = (uint32_t)(txt[*i] & 0x07) << 18;
 596:..\..\..\lvgl\version_6.1.2\lvgl\src\lv_misc/lv_txt.c ****             (*i)++;
 597:..\..\..\lvgl\version_6.1.2\lvgl\src\lv_misc/lv_txt.c **** 
 598:..\..\..\lvgl\version_6.1.2\lvgl\src\lv_misc/lv_txt.c ****             if((txt[*i] & 0xC0) != 0x80) return 0; /*Invalid UTF-8 code*/
 599:..\..\..\lvgl\version_6.1.2\lvgl\src\lv_misc/lv_txt.c ****             result += (uint32_t)(txt[*i] & 0x3F) << 12;
 600:..\..\..\lvgl\version_6.1.2\lvgl\src\lv_misc/lv_txt.c ****             (*i)++;
 601:..\..\..\lvgl\version_6.1.2\lvgl\src\lv_misc/lv_txt.c **** 
 602:..\..\..\lvgl\version_6.1.2\lvgl\src\lv_misc/lv_txt.c ****             if((txt[*i] & 0xC0) != 0x80) return 0; /*Invalid UTF-8 code*/
 603:..\..\..\lvgl\version_6.1.2\lvgl\src\lv_misc/lv_txt.c ****             result += (uint32_t)(txt[*i] & 0x3F) << 6;
 604:..\..\..\lvgl\version_6.1.2\lvgl\src\lv_misc/lv_txt.c ****             (*i)++;
 605:..\..\..\lvgl\version_6.1.2\lvgl\src\lv_misc/lv_txt.c **** 
 606:..\..\..\lvgl\version_6.1.2\lvgl\src\lv_misc/lv_txt.c ****             if((txt[*i] & 0xC0) != 0x80) return 0; /*Invalid UTF-8 code*/
 607:..\..\..\lvgl\version_6.1.2\lvgl\src\lv_misc/lv_txt.c ****             result += txt[*i] & 0x3F;
 608:..\..\..\lvgl\version_6.1.2\lvgl\src\lv_misc/lv_txt.c ****             (*i)++;
 609:..\..\..\lvgl\version_6.1.2\lvgl\src\lv_misc/lv_txt.c ****         } else {
ARM GAS  C:\Users\tmj32\AppData\Local\Temp\ccPoPccU.s 			page 38


 610:..\..\..\lvgl\version_6.1.2\lvgl\src\lv_misc/lv_txt.c ****             (*i)++; /*Not UTF-8 char. Go the next.*/
 611:..\..\..\lvgl\version_6.1.2\lvgl\src\lv_misc/lv_txt.c ****         }
 612:..\..\..\lvgl\version_6.1.2\lvgl\src\lv_misc/lv_txt.c ****     }
 613:..\..\..\lvgl\version_6.1.2\lvgl\src\lv_misc/lv_txt.c ****     return result;
 614:..\..\..\lvgl\version_6.1.2\lvgl\src\lv_misc/lv_txt.c **** }
 615:..\..\..\lvgl\version_6.1.2\lvgl\src\lv_misc/lv_txt.c **** 
 616:..\..\..\lvgl\version_6.1.2\lvgl\src\lv_misc/lv_txt.c **** /**
 617:..\..\..\lvgl\version_6.1.2\lvgl\src\lv_misc/lv_txt.c ****  * Get previous UTF-8 character form a string.
 618:..\..\..\lvgl\version_6.1.2\lvgl\src\lv_misc/lv_txt.c ****  * @param txt pointer to '\0' terminated string
 619:..\..\..\lvgl\version_6.1.2\lvgl\src\lv_misc/lv_txt.c ****  * @param i start byte index in 'txt' where to start. After the call it will point to the previous
 620:..\..\..\lvgl\version_6.1.2\lvgl\src\lv_misc/lv_txt.c ****  * UTF-8 char in 'txt'.
 621:..\..\..\lvgl\version_6.1.2\lvgl\src\lv_misc/lv_txt.c ****  * @return the decoded Unicode character or 0 on invalid UTF-8 code
 622:..\..\..\lvgl\version_6.1.2\lvgl\src\lv_misc/lv_txt.c ****  */
 623:..\..\..\lvgl\version_6.1.2\lvgl\src\lv_misc/lv_txt.c **** static uint32_t lv_txt_utf8_prev(const char * txt, uint32_t * i)
 624:..\..\..\lvgl\version_6.1.2\lvgl\src\lv_misc/lv_txt.c **** {
 625:..\..\..\lvgl\version_6.1.2\lvgl\src\lv_misc/lv_txt.c ****     uint8_t c_size;
 626:..\..\..\lvgl\version_6.1.2\lvgl\src\lv_misc/lv_txt.c ****     uint8_t cnt = 0;
 627:..\..\..\lvgl\version_6.1.2\lvgl\src\lv_misc/lv_txt.c **** 
 628:..\..\..\lvgl\version_6.1.2\lvgl\src\lv_misc/lv_txt.c ****     /*Try to find a !0 long UTF-8 char by stepping one character back*/
 629:..\..\..\lvgl\version_6.1.2\lvgl\src\lv_misc/lv_txt.c ****     (*i)--;
 630:..\..\..\lvgl\version_6.1.2\lvgl\src\lv_misc/lv_txt.c ****     do {
 631:..\..\..\lvgl\version_6.1.2\lvgl\src\lv_misc/lv_txt.c ****         if(cnt >= 4) return 0; /*No UTF-8 char found before the initial*/
 632:..\..\..\lvgl\version_6.1.2\lvgl\src\lv_misc/lv_txt.c **** 
 633:..\..\..\lvgl\version_6.1.2\lvgl\src\lv_misc/lv_txt.c ****         c_size = lv_txt_encoded_size(&txt[*i]);
 634:..\..\..\lvgl\version_6.1.2\lvgl\src\lv_misc/lv_txt.c ****         if(c_size == 0) {
 635:..\..\..\lvgl\version_6.1.2\lvgl\src\lv_misc/lv_txt.c ****             if(*i != 0)
 636:..\..\..\lvgl\version_6.1.2\lvgl\src\lv_misc/lv_txt.c ****                 (*i)--;
 637:..\..\..\lvgl\version_6.1.2\lvgl\src\lv_misc/lv_txt.c ****             else
 638:..\..\..\lvgl\version_6.1.2\lvgl\src\lv_misc/lv_txt.c ****                 return 0;
 639:..\..\..\lvgl\version_6.1.2\lvgl\src\lv_misc/lv_txt.c ****         }
 640:..\..\..\lvgl\version_6.1.2\lvgl\src\lv_misc/lv_txt.c ****         cnt++;
 641:..\..\..\lvgl\version_6.1.2\lvgl\src\lv_misc/lv_txt.c ****     } while(c_size == 0);
 642:..\..\..\lvgl\version_6.1.2\lvgl\src\lv_misc/lv_txt.c **** 
 643:..\..\..\lvgl\version_6.1.2\lvgl\src\lv_misc/lv_txt.c ****     uint32_t i_tmp  = *i;
 644:..\..\..\lvgl\version_6.1.2\lvgl\src\lv_misc/lv_txt.c ****     uint32_t letter = lv_txt_encoded_next(txt, &i_tmp); /*Character found, get it*/
 645:..\..\..\lvgl\version_6.1.2\lvgl\src\lv_misc/lv_txt.c **** 
 646:..\..\..\lvgl\version_6.1.2\lvgl\src\lv_misc/lv_txt.c ****     return letter;
 647:..\..\..\lvgl\version_6.1.2\lvgl\src\lv_misc/lv_txt.c **** }
 648:..\..\..\lvgl\version_6.1.2\lvgl\src\lv_misc/lv_txt.c **** 
 649:..\..\..\lvgl\version_6.1.2\lvgl\src\lv_misc/lv_txt.c **** /**
 650:..\..\..\lvgl\version_6.1.2\lvgl\src\lv_misc/lv_txt.c ****  * Convert a character index (in an UTF-8 text) to byte index.
 651:..\..\..\lvgl\version_6.1.2\lvgl\src\lv_misc/lv_txt.c ****  * E.g. in "ART" index of 'R' is 2th char but start at byte 3 because '' is 2 bytes long
 652:..\..\..\lvgl\version_6.1.2\lvgl\src\lv_misc/lv_txt.c ****  * @param txt a '\0' terminated UTF-8 string
 653:..\..\..\lvgl\version_6.1.2\lvgl\src\lv_misc/lv_txt.c ****  * @param utf8_id character index
 654:..\..\..\lvgl\version_6.1.2\lvgl\src\lv_misc/lv_txt.c ****  * @return byte index of the 'utf8_id'th letter
 655:..\..\..\lvgl\version_6.1.2\lvgl\src\lv_misc/lv_txt.c ****  */
 656:..\..\..\lvgl\version_6.1.2\lvgl\src\lv_misc/lv_txt.c **** static uint32_t lv_txt_utf8_get_byte_id(const char * txt, uint32_t utf8_id)
 657:..\..\..\lvgl\version_6.1.2\lvgl\src\lv_misc/lv_txt.c **** {
 658:..\..\..\lvgl\version_6.1.2\lvgl\src\lv_misc/lv_txt.c ****     uint32_t i;
 659:..\..\..\lvgl\version_6.1.2\lvgl\src\lv_misc/lv_txt.c ****     uint32_t byte_cnt = 0;
 660:..\..\..\lvgl\version_6.1.2\lvgl\src\lv_misc/lv_txt.c ****     for(i = 0; i < utf8_id; i++) {
 661:..\..\..\lvgl\version_6.1.2\lvgl\src\lv_misc/lv_txt.c ****         uint8_t c_size = lv_txt_encoded_size(&txt[byte_cnt]);
 662:..\..\..\lvgl\version_6.1.2\lvgl\src\lv_misc/lv_txt.c ****         byte_cnt += c_size > 0 ? c_size : 1;
 663:..\..\..\lvgl\version_6.1.2\lvgl\src\lv_misc/lv_txt.c ****     }
 664:..\..\..\lvgl\version_6.1.2\lvgl\src\lv_misc/lv_txt.c **** 
 665:..\..\..\lvgl\version_6.1.2\lvgl\src\lv_misc/lv_txt.c ****     return byte_cnt;
 666:..\..\..\lvgl\version_6.1.2\lvgl\src\lv_misc/lv_txt.c **** }
ARM GAS  C:\Users\tmj32\AppData\Local\Temp\ccPoPccU.s 			page 39


 667:..\..\..\lvgl\version_6.1.2\lvgl\src\lv_misc/lv_txt.c **** 
 668:..\..\..\lvgl\version_6.1.2\lvgl\src\lv_misc/lv_txt.c **** /**
 669:..\..\..\lvgl\version_6.1.2\lvgl\src\lv_misc/lv_txt.c ****  * Convert a byte index (in an UTF-8 text) to character index.
 670:..\..\..\lvgl\version_6.1.2\lvgl\src\lv_misc/lv_txt.c ****  * E.g. in "ART" index of 'R' is 2th char but start at byte 3 because '' is 2 bytes long
 671:..\..\..\lvgl\version_6.1.2\lvgl\src\lv_misc/lv_txt.c ****  * @param txt a '\0' terminated UTF-8 string
 672:..\..\..\lvgl\version_6.1.2\lvgl\src\lv_misc/lv_txt.c ****  * @param byte_id byte index
 673:..\..\..\lvgl\version_6.1.2\lvgl\src\lv_misc/lv_txt.c ****  * @return character index of the letter at 'byte_id'th position
 674:..\..\..\lvgl\version_6.1.2\lvgl\src\lv_misc/lv_txt.c ****  */
 675:..\..\..\lvgl\version_6.1.2\lvgl\src\lv_misc/lv_txt.c **** static uint32_t lv_txt_utf8_get_char_id(const char * txt, uint32_t byte_id)
 676:..\..\..\lvgl\version_6.1.2\lvgl\src\lv_misc/lv_txt.c **** {
 677:..\..\..\lvgl\version_6.1.2\lvgl\src\lv_misc/lv_txt.c ****     uint32_t i        = 0;
 678:..\..\..\lvgl\version_6.1.2\lvgl\src\lv_misc/lv_txt.c ****     uint32_t char_cnt = 0;
 679:..\..\..\lvgl\version_6.1.2\lvgl\src\lv_misc/lv_txt.c **** 
 680:..\..\..\lvgl\version_6.1.2\lvgl\src\lv_misc/lv_txt.c ****     while(i < byte_id) {
 681:..\..\..\lvgl\version_6.1.2\lvgl\src\lv_misc/lv_txt.c ****         lv_txt_encoded_next(txt, &i); /*'i' points to the next letter so use the prev. value*/
 682:..\..\..\lvgl\version_6.1.2\lvgl\src\lv_misc/lv_txt.c ****         char_cnt++;
 683:..\..\..\lvgl\version_6.1.2\lvgl\src\lv_misc/lv_txt.c ****     }
 684:..\..\..\lvgl\version_6.1.2\lvgl\src\lv_misc/lv_txt.c **** 
 685:..\..\..\lvgl\version_6.1.2\lvgl\src\lv_misc/lv_txt.c ****     return char_cnt;
 686:..\..\..\lvgl\version_6.1.2\lvgl\src\lv_misc/lv_txt.c **** }
 687:..\..\..\lvgl\version_6.1.2\lvgl\src\lv_misc/lv_txt.c **** 
 688:..\..\..\lvgl\version_6.1.2\lvgl\src\lv_misc/lv_txt.c **** /**
 689:..\..\..\lvgl\version_6.1.2\lvgl\src\lv_misc/lv_txt.c ****  * Get the number of characters (and NOT bytes) in a string. Decode it with UTF-8 if enabled.
 690:..\..\..\lvgl\version_6.1.2\lvgl\src\lv_misc/lv_txt.c ****  * E.g.: "BC" is 3 characters (but 4 bytes)
 691:..\..\..\lvgl\version_6.1.2\lvgl\src\lv_misc/lv_txt.c ****  * @param txt a '\0' terminated char string
 692:..\..\..\lvgl\version_6.1.2\lvgl\src\lv_misc/lv_txt.c ****  * @return number of characters
 693:..\..\..\lvgl\version_6.1.2\lvgl\src\lv_misc/lv_txt.c ****  */
 694:..\..\..\lvgl\version_6.1.2\lvgl\src\lv_misc/lv_txt.c **** static uint32_t lv_txt_utf8_get_length(const char * txt)
 695:..\..\..\lvgl\version_6.1.2\lvgl\src\lv_misc/lv_txt.c **** {
 696:..\..\..\lvgl\version_6.1.2\lvgl\src\lv_misc/lv_txt.c ****     uint32_t len = 0;
 697:..\..\..\lvgl\version_6.1.2\lvgl\src\lv_misc/lv_txt.c ****     uint32_t i   = 0;
 698:..\..\..\lvgl\version_6.1.2\lvgl\src\lv_misc/lv_txt.c **** 
 699:..\..\..\lvgl\version_6.1.2\lvgl\src\lv_misc/lv_txt.c ****     while(txt[i] != '\0') {
 700:..\..\..\lvgl\version_6.1.2\lvgl\src\lv_misc/lv_txt.c ****         lv_txt_encoded_next(txt, &i);
 701:..\..\..\lvgl\version_6.1.2\lvgl\src\lv_misc/lv_txt.c ****         len++;
 702:..\..\..\lvgl\version_6.1.2\lvgl\src\lv_misc/lv_txt.c ****     }
 703:..\..\..\lvgl\version_6.1.2\lvgl\src\lv_misc/lv_txt.c **** 
 704:..\..\..\lvgl\version_6.1.2\lvgl\src\lv_misc/lv_txt.c ****     return len;
 705:..\..\..\lvgl\version_6.1.2\lvgl\src\lv_misc/lv_txt.c **** }
 706:..\..\..\lvgl\version_6.1.2\lvgl\src\lv_misc/lv_txt.c **** 
 707:..\..\..\lvgl\version_6.1.2\lvgl\src\lv_misc/lv_txt.c **** #elif LV_TXT_ENC == LV_TXT_ENC_ASCII
 708:..\..\..\lvgl\version_6.1.2\lvgl\src\lv_misc/lv_txt.c **** /*******************************
 709:..\..\..\lvgl\version_6.1.2\lvgl\src\lv_misc/lv_txt.c ****  *  ASCII ENCODER/DECOER
 710:..\..\..\lvgl\version_6.1.2\lvgl\src\lv_misc/lv_txt.c ****  ******************************/
 711:..\..\..\lvgl\version_6.1.2\lvgl\src\lv_misc/lv_txt.c **** 
 712:..\..\..\lvgl\version_6.1.2\lvgl\src\lv_misc/lv_txt.c **** /**
 713:..\..\..\lvgl\version_6.1.2\lvgl\src\lv_misc/lv_txt.c ****  * Give the size of an ISO8859-1 coded character
 714:..\..\..\lvgl\version_6.1.2\lvgl\src\lv_misc/lv_txt.c ****  * @param str pointer to a character in a string
 715:..\..\..\lvgl\version_6.1.2\lvgl\src\lv_misc/lv_txt.c ****  * @return length of the UTF-8 character (1,2,3 or 4). O on invalid code
 716:..\..\..\lvgl\version_6.1.2\lvgl\src\lv_misc/lv_txt.c ****  */
 717:..\..\..\lvgl\version_6.1.2\lvgl\src\lv_misc/lv_txt.c **** static uint8_t lv_txt_iso8859_1_size(const char * str)
 718:..\..\..\lvgl\version_6.1.2\lvgl\src\lv_misc/lv_txt.c **** {
 1359              		.loc 2 718 0
 1360              		.cfi_startproc
 1361              		@ args = 0, pretend = 0, frame = 8
 1362              		@ frame_needed = 1, uses_anonymous_args = 0
 1363              		@ link register save eliminated.
ARM GAS  C:\Users\tmj32\AppData\Local\Temp\ccPoPccU.s 			page 40


 1364 0000 80B4     		push	{r7}
 1365              		.cfi_def_cfa_offset 4
 1366              		.cfi_offset 7, -4
 1367 0002 83B0     		sub	sp, sp, #12
 1368              		.cfi_def_cfa_offset 16
 1369 0004 00AF     		add	r7, sp, #0
 1370              		.cfi_def_cfa_register 7
 1371 0006 7860     		str	r0, [r7, #4]
 719:..\..\..\lvgl\version_6.1.2\lvgl\src\lv_misc/lv_txt.c ****     (void)str; /*Unused*/
 720:..\..\..\lvgl\version_6.1.2\lvgl\src\lv_misc/lv_txt.c ****     return 1;
 1372              		.loc 2 720 0
 1373 0008 0123     		movs	r3, #1
 721:..\..\..\lvgl\version_6.1.2\lvgl\src\lv_misc/lv_txt.c **** }
 1374              		.loc 2 721 0
 1375 000a 1846     		mov	r0, r3
 1376 000c 0C37     		adds	r7, r7, #12
 1377              		.cfi_def_cfa_offset 4
 1378 000e BD46     		mov	sp, r7
 1379              		.cfi_def_cfa_register 13
 1380              		@ sp needed
 1381 0010 5DF8047B 		ldr	r7, [sp], #4
 1382              		.cfi_restore 7
 1383              		.cfi_def_cfa_offset 0
 1384 0014 7047     		bx	lr
 1385              		.cfi_endproc
 1386              	.LFE11:
 1387              		.size	lv_txt_iso8859_1_size, .-lv_txt_iso8859_1_size
 1388 0016 00BF     		.section	.text.lv_txt_unicode_to_iso8859_1,"ax",%progbits
 1389              		.align	2
 1390              		.thumb
 1391              		.thumb_func
 1392              		.type	lv_txt_unicode_to_iso8859_1, %function
 1393              	lv_txt_unicode_to_iso8859_1:
 1394              	.LFB12:
 722:..\..\..\lvgl\version_6.1.2\lvgl\src\lv_misc/lv_txt.c **** 
 723:..\..\..\lvgl\version_6.1.2\lvgl\src\lv_misc/lv_txt.c **** /**
 724:..\..\..\lvgl\version_6.1.2\lvgl\src\lv_misc/lv_txt.c ****  * Convert an Unicode letter to ISO8859-1.
 725:..\..\..\lvgl\version_6.1.2\lvgl\src\lv_misc/lv_txt.c ****  * @param letter_uni an Unicode letter
 726:..\..\..\lvgl\version_6.1.2\lvgl\src\lv_misc/lv_txt.c ****  * @return ISO8859-1 coded character in Little Endian to be compatible with C chars (e.g. '', '
 727:..\..\..\lvgl\version_6.1.2\lvgl\src\lv_misc/lv_txt.c ****  */
 728:..\..\..\lvgl\version_6.1.2\lvgl\src\lv_misc/lv_txt.c **** static uint32_t lv_txt_unicode_to_iso8859_1(uint32_t letter_uni)
 729:..\..\..\lvgl\version_6.1.2\lvgl\src\lv_misc/lv_txt.c **** {
 1395              		.loc 2 729 0
 1396              		.cfi_startproc
 1397              		@ args = 0, pretend = 0, frame = 8
 1398              		@ frame_needed = 1, uses_anonymous_args = 0
 1399              		@ link register save eliminated.
 1400 0000 80B4     		push	{r7}
 1401              		.cfi_def_cfa_offset 4
 1402              		.cfi_offset 7, -4
 1403 0002 83B0     		sub	sp, sp, #12
 1404              		.cfi_def_cfa_offset 16
 1405 0004 00AF     		add	r7, sp, #0
 1406              		.cfi_def_cfa_register 7
 1407 0006 7860     		str	r0, [r7, #4]
 730:..\..\..\lvgl\version_6.1.2\lvgl\src\lv_misc/lv_txt.c ****     if(letter_uni < 128)
 1408              		.loc 2 730 0
ARM GAS  C:\Users\tmj32\AppData\Local\Temp\ccPoPccU.s 			page 41


 1409 0008 7B68     		ldr	r3, [r7, #4]
 1410 000a 7F2B     		cmp	r3, #127
 1411 000c 01D8     		bhi	.L96
 731:..\..\..\lvgl\version_6.1.2\lvgl\src\lv_misc/lv_txt.c ****         return letter_uni;
 1412              		.loc 2 731 0
 1413 000e 7B68     		ldr	r3, [r7, #4]
 1414 0010 00E0     		b	.L97
 1415              	.L96:
 732:..\..\..\lvgl\version_6.1.2\lvgl\src\lv_misc/lv_txt.c ****     else
 733:..\..\..\lvgl\version_6.1.2\lvgl\src\lv_misc/lv_txt.c ****         return ' ';
 1416              		.loc 2 733 0
 1417 0012 2023     		movs	r3, #32
 1418              	.L97:
 734:..\..\..\lvgl\version_6.1.2\lvgl\src\lv_misc/lv_txt.c **** }
 1419              		.loc 2 734 0
 1420 0014 1846     		mov	r0, r3
 1421 0016 0C37     		adds	r7, r7, #12
 1422              		.cfi_def_cfa_offset 4
 1423 0018 BD46     		mov	sp, r7
 1424              		.cfi_def_cfa_register 13
 1425              		@ sp needed
 1426 001a 5DF8047B 		ldr	r7, [sp], #4
 1427              		.cfi_restore 7
 1428              		.cfi_def_cfa_offset 0
 1429 001e 7047     		bx	lr
 1430              		.cfi_endproc
 1431              	.LFE12:
 1432              		.size	lv_txt_unicode_to_iso8859_1, .-lv_txt_unicode_to_iso8859_1
 1433              		.section	.text.lv_txt_iso8859_1_conv_wc,"ax",%progbits
 1434              		.align	2
 1435              		.thumb
 1436              		.thumb_func
 1437              		.type	lv_txt_iso8859_1_conv_wc, %function
 1438              	lv_txt_iso8859_1_conv_wc:
 1439              	.LFB13:
 735:..\..\..\lvgl\version_6.1.2\lvgl\src\lv_misc/lv_txt.c **** 
 736:..\..\..\lvgl\version_6.1.2\lvgl\src\lv_misc/lv_txt.c **** /**
 737:..\..\..\lvgl\version_6.1.2\lvgl\src\lv_misc/lv_txt.c ****  * Convert wide characters to ASCII, however wide characters in ASCII range (e.g. 'A') are ASCII co
 738:..\..\..\lvgl\version_6.1.2\lvgl\src\lv_misc/lv_txt.c ****  * So this function does nothing just returns with `c`.
 739:..\..\..\lvgl\version_6.1.2\lvgl\src\lv_misc/lv_txt.c ****  * @param c a character, e.g. 'A'
 740:..\..\..\lvgl\version_6.1.2\lvgl\src\lv_misc/lv_txt.c ****  * @return same as `c`
 741:..\..\..\lvgl\version_6.1.2\lvgl\src\lv_misc/lv_txt.c ****  */
 742:..\..\..\lvgl\version_6.1.2\lvgl\src\lv_misc/lv_txt.c **** static uint32_t lv_txt_iso8859_1_conv_wc(uint32_t c)
 743:..\..\..\lvgl\version_6.1.2\lvgl\src\lv_misc/lv_txt.c **** {
 1440              		.loc 2 743 0
 1441              		.cfi_startproc
 1442              		@ args = 0, pretend = 0, frame = 8
 1443              		@ frame_needed = 1, uses_anonymous_args = 0
 1444              		@ link register save eliminated.
 1445 0000 80B4     		push	{r7}
 1446              		.cfi_def_cfa_offset 4
 1447              		.cfi_offset 7, -4
 1448 0002 83B0     		sub	sp, sp, #12
 1449              		.cfi_def_cfa_offset 16
 1450 0004 00AF     		add	r7, sp, #0
 1451              		.cfi_def_cfa_register 7
 1452 0006 7860     		str	r0, [r7, #4]
ARM GAS  C:\Users\tmj32\AppData\Local\Temp\ccPoPccU.s 			page 42


 744:..\..\..\lvgl\version_6.1.2\lvgl\src\lv_misc/lv_txt.c ****     return c;
 1453              		.loc 2 744 0
 1454 0008 7B68     		ldr	r3, [r7, #4]
 745:..\..\..\lvgl\version_6.1.2\lvgl\src\lv_misc/lv_txt.c **** }
 1455              		.loc 2 745 0
 1456 000a 1846     		mov	r0, r3
 1457 000c 0C37     		adds	r7, r7, #12
 1458              		.cfi_def_cfa_offset 4
 1459 000e BD46     		mov	sp, r7
 1460              		.cfi_def_cfa_register 13
 1461              		@ sp needed
 1462 0010 5DF8047B 		ldr	r7, [sp], #4
 1463              		.cfi_restore 7
 1464              		.cfi_def_cfa_offset 0
 1465 0014 7047     		bx	lr
 1466              		.cfi_endproc
 1467              	.LFE13:
 1468              		.size	lv_txt_iso8859_1_conv_wc, .-lv_txt_iso8859_1_conv_wc
 1469 0016 00BF     		.section	.text.lv_txt_iso8859_1_next,"ax",%progbits
 1470              		.align	2
 1471              		.thumb
 1472              		.thumb_func
 1473              		.type	lv_txt_iso8859_1_next, %function
 1474              	lv_txt_iso8859_1_next:
 1475              	.LFB14:
 746:..\..\..\lvgl\version_6.1.2\lvgl\src\lv_misc/lv_txt.c **** 
 747:..\..\..\lvgl\version_6.1.2\lvgl\src\lv_misc/lv_txt.c **** /**
 748:..\..\..\lvgl\version_6.1.2\lvgl\src\lv_misc/lv_txt.c ****  * Decode an ISO8859-1 character from a string.
 749:..\..\..\lvgl\version_6.1.2\lvgl\src\lv_misc/lv_txt.c ****  * @param txt pointer to '\0' terminated string
 750:..\..\..\lvgl\version_6.1.2\lvgl\src\lv_misc/lv_txt.c ****  * @param i start byte index in 'txt' where to start.
 751:..\..\..\lvgl\version_6.1.2\lvgl\src\lv_misc/lv_txt.c ****  *          After call it will point to the next UTF-8 char in 'txt'.
 752:..\..\..\lvgl\version_6.1.2\lvgl\src\lv_misc/lv_txt.c ****  *          NULL to use txt[0] as index
 753:..\..\..\lvgl\version_6.1.2\lvgl\src\lv_misc/lv_txt.c ****  * @return the decoded Unicode character or 0 on invalid UTF-8 code
 754:..\..\..\lvgl\version_6.1.2\lvgl\src\lv_misc/lv_txt.c ****  */
 755:..\..\..\lvgl\version_6.1.2\lvgl\src\lv_misc/lv_txt.c **** static uint32_t lv_txt_iso8859_1_next(const char * txt, uint32_t * i)
 756:..\..\..\lvgl\version_6.1.2\lvgl\src\lv_misc/lv_txt.c **** {
 1476              		.loc 2 756 0
 1477              		.cfi_startproc
 1478              		@ args = 0, pretend = 0, frame = 16
 1479              		@ frame_needed = 1, uses_anonymous_args = 0
 1480              		@ link register save eliminated.
 1481 0000 80B4     		push	{r7}
 1482              		.cfi_def_cfa_offset 4
 1483              		.cfi_offset 7, -4
 1484 0002 85B0     		sub	sp, sp, #20
 1485              		.cfi_def_cfa_offset 24
 1486 0004 00AF     		add	r7, sp, #0
 1487              		.cfi_def_cfa_register 7
 1488 0006 7860     		str	r0, [r7, #4]
 1489 0008 3960     		str	r1, [r7]
 757:..\..\..\lvgl\version_6.1.2\lvgl\src\lv_misc/lv_txt.c ****     if(i == NULL) return txt[1]; /*Get the next char */
 1490              		.loc 2 757 0
 1491 000a 3B68     		ldr	r3, [r7]
 1492 000c 002B     		cmp	r3, #0
 1493 000e 03D1     		bne	.L101
 1494              		.loc 2 757 0 is_stmt 0 discriminator 1
 1495 0010 7B68     		ldr	r3, [r7, #4]
ARM GAS  C:\Users\tmj32\AppData\Local\Temp\ccPoPccU.s 			page 43


 1496 0012 0133     		adds	r3, r3, #1
 1497 0014 1B78     		ldrb	r3, [r3]	@ zero_extendqisi2
 1498 0016 0BE0     		b	.L102
 1499              	.L101:
 758:..\..\..\lvgl\version_6.1.2\lvgl\src\lv_misc/lv_txt.c **** 
 759:..\..\..\lvgl\version_6.1.2\lvgl\src\lv_misc/lv_txt.c ****     uint8_t letter = txt[*i];
 1500              		.loc 2 759 0 is_stmt 1
 1501 0018 3B68     		ldr	r3, [r7]
 1502 001a 1B68     		ldr	r3, [r3]
 1503 001c 7A68     		ldr	r2, [r7, #4]
 1504 001e 1344     		add	r3, r3, r2
 1505 0020 1B78     		ldrb	r3, [r3]
 1506 0022 FB73     		strb	r3, [r7, #15]
 760:..\..\..\lvgl\version_6.1.2\lvgl\src\lv_misc/lv_txt.c ****     (*i)++;
 1507              		.loc 2 760 0
 1508 0024 3B68     		ldr	r3, [r7]
 1509 0026 1B68     		ldr	r3, [r3]
 1510 0028 5A1C     		adds	r2, r3, #1
 1511 002a 3B68     		ldr	r3, [r7]
 1512 002c 1A60     		str	r2, [r3]
 761:..\..\..\lvgl\version_6.1.2\lvgl\src\lv_misc/lv_txt.c ****     return letter;
 1513              		.loc 2 761 0
 1514 002e FB7B     		ldrb	r3, [r7, #15]	@ zero_extendqisi2
 1515              	.L102:
 762:..\..\..\lvgl\version_6.1.2\lvgl\src\lv_misc/lv_txt.c **** }
 1516              		.loc 2 762 0
 1517 0030 1846     		mov	r0, r3
 1518 0032 1437     		adds	r7, r7, #20
 1519              		.cfi_def_cfa_offset 4
 1520 0034 BD46     		mov	sp, r7
 1521              		.cfi_def_cfa_register 13
 1522              		@ sp needed
 1523 0036 5DF8047B 		ldr	r7, [sp], #4
 1524              		.cfi_restore 7
 1525              		.cfi_def_cfa_offset 0
 1526 003a 7047     		bx	lr
 1527              		.cfi_endproc
 1528              	.LFE14:
 1529              		.size	lv_txt_iso8859_1_next, .-lv_txt_iso8859_1_next
 1530              		.section	.text.lv_txt_iso8859_1_prev,"ax",%progbits
 1531              		.align	2
 1532              		.thumb
 1533              		.thumb_func
 1534              		.type	lv_txt_iso8859_1_prev, %function
 1535              	lv_txt_iso8859_1_prev:
 1536              	.LFB15:
 763:..\..\..\lvgl\version_6.1.2\lvgl\src\lv_misc/lv_txt.c **** 
 764:..\..\..\lvgl\version_6.1.2\lvgl\src\lv_misc/lv_txt.c **** /**
 765:..\..\..\lvgl\version_6.1.2\lvgl\src\lv_misc/lv_txt.c ****  * Get previous ISO8859-1 character form a string.
 766:..\..\..\lvgl\version_6.1.2\lvgl\src\lv_misc/lv_txt.c ****  * @param txt pointer to '\0' terminated string
 767:..\..\..\lvgl\version_6.1.2\lvgl\src\lv_misc/lv_txt.c ****  * @param i start byte index in 'txt' where to start. After the call it will point to the previous 
 768:..\..\..\lvgl\version_6.1.2\lvgl\src\lv_misc/lv_txt.c ****  * @return the decoded Unicode character or 0 on invalid UTF-8 code
 769:..\..\..\lvgl\version_6.1.2\lvgl\src\lv_misc/lv_txt.c ****  */
 770:..\..\..\lvgl\version_6.1.2\lvgl\src\lv_misc/lv_txt.c **** static uint32_t lv_txt_iso8859_1_prev(const char * txt, uint32_t * i)
 771:..\..\..\lvgl\version_6.1.2\lvgl\src\lv_misc/lv_txt.c **** {
 1537              		.loc 2 771 0
 1538              		.cfi_startproc
ARM GAS  C:\Users\tmj32\AppData\Local\Temp\ccPoPccU.s 			page 44


 1539              		@ args = 0, pretend = 0, frame = 16
 1540              		@ frame_needed = 1, uses_anonymous_args = 0
 1541              		@ link register save eliminated.
 1542 0000 80B4     		push	{r7}
 1543              		.cfi_def_cfa_offset 4
 1544              		.cfi_offset 7, -4
 1545 0002 85B0     		sub	sp, sp, #20
 1546              		.cfi_def_cfa_offset 24
 1547 0004 00AF     		add	r7, sp, #0
 1548              		.cfi_def_cfa_register 7
 1549 0006 7860     		str	r0, [r7, #4]
 1550 0008 3960     		str	r1, [r7]
 772:..\..\..\lvgl\version_6.1.2\lvgl\src\lv_misc/lv_txt.c ****     if(i == NULL) return *(txt - 1); /*Get the prev. char */
 1551              		.loc 2 772 0
 1552 000a 3B68     		ldr	r3, [r7]
 1553 000c 002B     		cmp	r3, #0
 1554 000e 03D1     		bne	.L104
 1555              		.loc 2 772 0 is_stmt 0 discriminator 1
 1556 0010 7B68     		ldr	r3, [r7, #4]
 1557 0012 013B     		subs	r3, r3, #1
 1558 0014 1B78     		ldrb	r3, [r3]	@ zero_extendqisi2
 1559 0016 0BE0     		b	.L105
 1560              	.L104:
 773:..\..\..\lvgl\version_6.1.2\lvgl\src\lv_misc/lv_txt.c **** 
 774:..\..\..\lvgl\version_6.1.2\lvgl\src\lv_misc/lv_txt.c ****     (*i)--;
 1561              		.loc 2 774 0 is_stmt 1
 1562 0018 3B68     		ldr	r3, [r7]
 1563 001a 1B68     		ldr	r3, [r3]
 1564 001c 5A1E     		subs	r2, r3, #1
 1565 001e 3B68     		ldr	r3, [r7]
 1566 0020 1A60     		str	r2, [r3]
 775:..\..\..\lvgl\version_6.1.2\lvgl\src\lv_misc/lv_txt.c ****     uint8_t letter = txt[*i];
 1567              		.loc 2 775 0
 1568 0022 3B68     		ldr	r3, [r7]
 1569 0024 1B68     		ldr	r3, [r3]
 1570 0026 7A68     		ldr	r2, [r7, #4]
 1571 0028 1344     		add	r3, r3, r2
 1572 002a 1B78     		ldrb	r3, [r3]
 1573 002c FB73     		strb	r3, [r7, #15]
 776:..\..\..\lvgl\version_6.1.2\lvgl\src\lv_misc/lv_txt.c **** 
 777:..\..\..\lvgl\version_6.1.2\lvgl\src\lv_misc/lv_txt.c ****     return letter;
 1574              		.loc 2 777 0
 1575 002e FB7B     		ldrb	r3, [r7, #15]	@ zero_extendqisi2
 1576              	.L105:
 778:..\..\..\lvgl\version_6.1.2\lvgl\src\lv_misc/lv_txt.c **** }
 1577              		.loc 2 778 0
 1578 0030 1846     		mov	r0, r3
 1579 0032 1437     		adds	r7, r7, #20
 1580              		.cfi_def_cfa_offset 4
 1581 0034 BD46     		mov	sp, r7
 1582              		.cfi_def_cfa_register 13
 1583              		@ sp needed
 1584 0036 5DF8047B 		ldr	r7, [sp], #4
 1585              		.cfi_restore 7
 1586              		.cfi_def_cfa_offset 0
 1587 003a 7047     		bx	lr
 1588              		.cfi_endproc
ARM GAS  C:\Users\tmj32\AppData\Local\Temp\ccPoPccU.s 			page 45


 1589              	.LFE15:
 1590              		.size	lv_txt_iso8859_1_prev, .-lv_txt_iso8859_1_prev
 1591              		.section	.text.lv_txt_iso8859_1_get_byte_id,"ax",%progbits
 1592              		.align	2
 1593              		.thumb
 1594              		.thumb_func
 1595              		.type	lv_txt_iso8859_1_get_byte_id, %function
 1596              	lv_txt_iso8859_1_get_byte_id:
 1597              	.LFB16:
 779:..\..\..\lvgl\version_6.1.2\lvgl\src\lv_misc/lv_txt.c **** 
 780:..\..\..\lvgl\version_6.1.2\lvgl\src\lv_misc/lv_txt.c **** /**
 781:..\..\..\lvgl\version_6.1.2\lvgl\src\lv_misc/lv_txt.c ****  * Convert a character index (in an ISO8859-1 text) to byte index.
 782:..\..\..\lvgl\version_6.1.2\lvgl\src\lv_misc/lv_txt.c ****  * E.g. in "ART" index of 'R' is 2th char but start at byte 3 because '' is 2 bytes long
 783:..\..\..\lvgl\version_6.1.2\lvgl\src\lv_misc/lv_txt.c ****  * @param txt a '\0' terminated UTF-8 string
 784:..\..\..\lvgl\version_6.1.2\lvgl\src\lv_misc/lv_txt.c ****  * @param utf8_id character index
 785:..\..\..\lvgl\version_6.1.2\lvgl\src\lv_misc/lv_txt.c ****  * @return byte index of the 'utf8_id'th letter
 786:..\..\..\lvgl\version_6.1.2\lvgl\src\lv_misc/lv_txt.c ****  */
 787:..\..\..\lvgl\version_6.1.2\lvgl\src\lv_misc/lv_txt.c **** static uint32_t lv_txt_iso8859_1_get_byte_id(const char * txt, uint32_t utf8_id)
 788:..\..\..\lvgl\version_6.1.2\lvgl\src\lv_misc/lv_txt.c **** {
 1598              		.loc 2 788 0
 1599              		.cfi_startproc
 1600              		@ args = 0, pretend = 0, frame = 8
 1601              		@ frame_needed = 1, uses_anonymous_args = 0
 1602              		@ link register save eliminated.
 1603 0000 80B4     		push	{r7}
 1604              		.cfi_def_cfa_offset 4
 1605              		.cfi_offset 7, -4
 1606 0002 83B0     		sub	sp, sp, #12
 1607              		.cfi_def_cfa_offset 16
 1608 0004 00AF     		add	r7, sp, #0
 1609              		.cfi_def_cfa_register 7
 1610 0006 7860     		str	r0, [r7, #4]
 1611 0008 3960     		str	r1, [r7]
 789:..\..\..\lvgl\version_6.1.2\lvgl\src\lv_misc/lv_txt.c ****     (void)txt;      /*Unused*/
 790:..\..\..\lvgl\version_6.1.2\lvgl\src\lv_misc/lv_txt.c ****     return utf8_id; /*In Non encoded no difference*/
 1612              		.loc 2 790 0
 1613 000a 3B68     		ldr	r3, [r7]
 791:..\..\..\lvgl\version_6.1.2\lvgl\src\lv_misc/lv_txt.c **** }
 1614              		.loc 2 791 0
 1615 000c 1846     		mov	r0, r3
 1616 000e 0C37     		adds	r7, r7, #12
 1617              		.cfi_def_cfa_offset 4
 1618 0010 BD46     		mov	sp, r7
 1619              		.cfi_def_cfa_register 13
 1620              		@ sp needed
 1621 0012 5DF8047B 		ldr	r7, [sp], #4
 1622              		.cfi_restore 7
 1623              		.cfi_def_cfa_offset 0
 1624 0016 7047     		bx	lr
 1625              		.cfi_endproc
 1626              	.LFE16:
 1627              		.size	lv_txt_iso8859_1_get_byte_id, .-lv_txt_iso8859_1_get_byte_id
 1628              		.section	.text.lv_txt_iso8859_1_get_char_id,"ax",%progbits
 1629              		.align	2
 1630              		.thumb
 1631              		.thumb_func
 1632              		.type	lv_txt_iso8859_1_get_char_id, %function
ARM GAS  C:\Users\tmj32\AppData\Local\Temp\ccPoPccU.s 			page 46


 1633              	lv_txt_iso8859_1_get_char_id:
 1634              	.LFB17:
 792:..\..\..\lvgl\version_6.1.2\lvgl\src\lv_misc/lv_txt.c **** 
 793:..\..\..\lvgl\version_6.1.2\lvgl\src\lv_misc/lv_txt.c **** /**
 794:..\..\..\lvgl\version_6.1.2\lvgl\src\lv_misc/lv_txt.c ****  * Convert a byte index (in an ISO8859-1 text) to character index.
 795:..\..\..\lvgl\version_6.1.2\lvgl\src\lv_misc/lv_txt.c ****  * E.g. in "ART" index of 'R' is 2th char but start at byte 3 because '' is 2 bytes long
 796:..\..\..\lvgl\version_6.1.2\lvgl\src\lv_misc/lv_txt.c ****  * @param txt a '\0' terminated UTF-8 string
 797:..\..\..\lvgl\version_6.1.2\lvgl\src\lv_misc/lv_txt.c ****  * @param byte_id byte index
 798:..\..\..\lvgl\version_6.1.2\lvgl\src\lv_misc/lv_txt.c ****  * @return character index of the letter at 'byte_id'th position
 799:..\..\..\lvgl\version_6.1.2\lvgl\src\lv_misc/lv_txt.c ****  */
 800:..\..\..\lvgl\version_6.1.2\lvgl\src\lv_misc/lv_txt.c **** static uint32_t lv_txt_iso8859_1_get_char_id(const char * txt, uint32_t byte_id)
 801:..\..\..\lvgl\version_6.1.2\lvgl\src\lv_misc/lv_txt.c **** {
 1635              		.loc 2 801 0
 1636              		.cfi_startproc
 1637              		@ args = 0, pretend = 0, frame = 8
 1638              		@ frame_needed = 1, uses_anonymous_args = 0
 1639              		@ link register save eliminated.
 1640 0000 80B4     		push	{r7}
 1641              		.cfi_def_cfa_offset 4
 1642              		.cfi_offset 7, -4
 1643 0002 83B0     		sub	sp, sp, #12
 1644              		.cfi_def_cfa_offset 16
 1645 0004 00AF     		add	r7, sp, #0
 1646              		.cfi_def_cfa_register 7
 1647 0006 7860     		str	r0, [r7, #4]
 1648 0008 3960     		str	r1, [r7]
 802:..\..\..\lvgl\version_6.1.2\lvgl\src\lv_misc/lv_txt.c ****     (void)txt;      /*Unused*/
 803:..\..\..\lvgl\version_6.1.2\lvgl\src\lv_misc/lv_txt.c ****     return byte_id; /*In Non encoded no difference*/
 1649              		.loc 2 803 0
 1650 000a 3B68     		ldr	r3, [r7]
 804:..\..\..\lvgl\version_6.1.2\lvgl\src\lv_misc/lv_txt.c **** }
 1651              		.loc 2 804 0
 1652 000c 1846     		mov	r0, r3
 1653 000e 0C37     		adds	r7, r7, #12
 1654              		.cfi_def_cfa_offset 4
 1655 0010 BD46     		mov	sp, r7
 1656              		.cfi_def_cfa_register 13
 1657              		@ sp needed
 1658 0012 5DF8047B 		ldr	r7, [sp], #4
 1659              		.cfi_restore 7
 1660              		.cfi_def_cfa_offset 0
 1661 0016 7047     		bx	lr
 1662              		.cfi_endproc
 1663              	.LFE17:
 1664              		.size	lv_txt_iso8859_1_get_char_id, .-lv_txt_iso8859_1_get_char_id
 1665              		.section	.text.lv_txt_iso8859_1_get_length,"ax",%progbits
 1666              		.align	2
 1667              		.thumb
 1668              		.thumb_func
 1669              		.type	lv_txt_iso8859_1_get_length, %function
 1670              	lv_txt_iso8859_1_get_length:
 1671              	.LFB18:
 805:..\..\..\lvgl\version_6.1.2\lvgl\src\lv_misc/lv_txt.c **** 
 806:..\..\..\lvgl\version_6.1.2\lvgl\src\lv_misc/lv_txt.c **** /**
 807:..\..\..\lvgl\version_6.1.2\lvgl\src\lv_misc/lv_txt.c ****  * Get the number of characters (and NOT bytes) in a string. Decode it with UTF-8 if enabled.
 808:..\..\..\lvgl\version_6.1.2\lvgl\src\lv_misc/lv_txt.c ****  * E.g.: "BC" is 3 characters (but 4 bytes)
 809:..\..\..\lvgl\version_6.1.2\lvgl\src\lv_misc/lv_txt.c ****  * @param txt a '\0' terminated char string
ARM GAS  C:\Users\tmj32\AppData\Local\Temp\ccPoPccU.s 			page 47


 810:..\..\..\lvgl\version_6.1.2\lvgl\src\lv_misc/lv_txt.c ****  * @return number of characters
 811:..\..\..\lvgl\version_6.1.2\lvgl\src\lv_misc/lv_txt.c ****  */
 812:..\..\..\lvgl\version_6.1.2\lvgl\src\lv_misc/lv_txt.c **** static uint32_t lv_txt_iso8859_1_get_length(const char * txt)
 813:..\..\..\lvgl\version_6.1.2\lvgl\src\lv_misc/lv_txt.c **** {
 1672              		.loc 2 813 0
 1673              		.cfi_startproc
 1674              		@ args = 0, pretend = 0, frame = 8
 1675              		@ frame_needed = 1, uses_anonymous_args = 0
 1676 0000 80B5     		push	{r7, lr}
 1677              		.cfi_def_cfa_offset 8
 1678              		.cfi_offset 7, -8
 1679              		.cfi_offset 14, -4
 1680 0002 82B0     		sub	sp, sp, #8
 1681              		.cfi_def_cfa_offset 16
 1682 0004 00AF     		add	r7, sp, #0
 1683              		.cfi_def_cfa_register 7
 1684 0006 7860     		str	r0, [r7, #4]
 814:..\..\..\lvgl\version_6.1.2\lvgl\src\lv_misc/lv_txt.c ****     return strlen(txt);
 1685              		.loc 2 814 0
 1686 0008 7868     		ldr	r0, [r7, #4]
 1687 000a FFF7FEFF 		bl	strlen
 1688 000e 0346     		mov	r3, r0
 815:..\..\..\lvgl\version_6.1.2\lvgl\src\lv_misc/lv_txt.c **** }
 1689              		.loc 2 815 0
 1690 0010 1846     		mov	r0, r3
 1691 0012 0837     		adds	r7, r7, #8
 1692              		.cfi_def_cfa_offset 8
 1693 0014 BD46     		mov	sp, r7
 1694              		.cfi_def_cfa_register 13
 1695              		@ sp needed
 1696 0016 80BD     		pop	{r7, pc}
 1697              		.cfi_endproc
 1698              	.LFE18:
 1699              		.size	lv_txt_iso8859_1_get_length, .-lv_txt_iso8859_1_get_length
 1700              		.section	.rodata
 1701              		.align	2
 1702              	.LC0:
 1703 0000 202C2E3B 		.ascii	" ,.;:-_\000"
 1703      3A2D5F00 
 1704              		.section	.text.is_break_char,"ax",%progbits
 1705              		.align	2
 1706              		.thumb
 1707              		.thumb_func
 1708              		.type	is_break_char, %function
 1709              	is_break_char:
 1710              	.LFB19:
 816:..\..\..\lvgl\version_6.1.2\lvgl\src\lv_misc/lv_txt.c **** #else
 817:..\..\..\lvgl\version_6.1.2\lvgl\src\lv_misc/lv_txt.c **** 
 818:..\..\..\lvgl\version_6.1.2\lvgl\src\lv_misc/lv_txt.c **** #error "Invalid character encoding. See `LV_TXT_ENC` in `lv_conf.h`"
 819:..\..\..\lvgl\version_6.1.2\lvgl\src\lv_misc/lv_txt.c **** 
 820:..\..\..\lvgl\version_6.1.2\lvgl\src\lv_misc/lv_txt.c **** #endif
 821:..\..\..\lvgl\version_6.1.2\lvgl\src\lv_misc/lv_txt.c **** 
 822:..\..\..\lvgl\version_6.1.2\lvgl\src\lv_misc/lv_txt.c **** /**********************
 823:..\..\..\lvgl\version_6.1.2\lvgl\src\lv_misc/lv_txt.c ****  *   STATIC FUNCTIONS
 824:..\..\..\lvgl\version_6.1.2\lvgl\src\lv_misc/lv_txt.c ****  **********************/
 825:..\..\..\lvgl\version_6.1.2\lvgl\src\lv_misc/lv_txt.c **** 
 826:..\..\..\lvgl\version_6.1.2\lvgl\src\lv_misc/lv_txt.c **** /**
ARM GAS  C:\Users\tmj32\AppData\Local\Temp\ccPoPccU.s 			page 48


 827:..\..\..\lvgl\version_6.1.2\lvgl\src\lv_misc/lv_txt.c ****  * Test if char is break char or not (a text can broken here or not)
 828:..\..\..\lvgl\version_6.1.2\lvgl\src\lv_misc/lv_txt.c ****  * @param letter a letter
 829:..\..\..\lvgl\version_6.1.2\lvgl\src\lv_misc/lv_txt.c ****  * @return false: 'letter' is not break char
 830:..\..\..\lvgl\version_6.1.2\lvgl\src\lv_misc/lv_txt.c ****  */
 831:..\..\..\lvgl\version_6.1.2\lvgl\src\lv_misc/lv_txt.c **** static inline bool is_break_char(uint32_t letter)
 832:..\..\..\lvgl\version_6.1.2\lvgl\src\lv_misc/lv_txt.c **** {
 1711              		.loc 2 832 0
 1712              		.cfi_startproc
 1713              		@ args = 0, pretend = 0, frame = 16
 1714              		@ frame_needed = 1, uses_anonymous_args = 0
 1715              		@ link register save eliminated.
 1716 0000 80B4     		push	{r7}
 1717              		.cfi_def_cfa_offset 4
 1718              		.cfi_offset 7, -4
 1719 0002 85B0     		sub	sp, sp, #20
 1720              		.cfi_def_cfa_offset 24
 1721 0004 00AF     		add	r7, sp, #0
 1722              		.cfi_def_cfa_register 7
 1723 0006 7860     		str	r0, [r7, #4]
 833:..\..\..\lvgl\version_6.1.2\lvgl\src\lv_misc/lv_txt.c ****     uint8_t i;
 834:..\..\..\lvgl\version_6.1.2\lvgl\src\lv_misc/lv_txt.c ****     bool ret = false;
 1724              		.loc 2 834 0
 1725 0008 0023     		movs	r3, #0
 1726 000a BB73     		strb	r3, [r7, #14]
 835:..\..\..\lvgl\version_6.1.2\lvgl\src\lv_misc/lv_txt.c **** 
 836:..\..\..\lvgl\version_6.1.2\lvgl\src\lv_misc/lv_txt.c ****     /*Compare the letter to TXT_BREAK_CHARS*/
 837:..\..\..\lvgl\version_6.1.2\lvgl\src\lv_misc/lv_txt.c ****     for(i = 0; LV_TXT_BREAK_CHARS[i] != '\0'; i++) {
 1727              		.loc 2 837 0
 1728 000c 0023     		movs	r3, #0
 1729 000e FB73     		strb	r3, [r7, #15]
 1730 0010 0CE0     		b	.L113
 1731              	.L116:
 838:..\..\..\lvgl\version_6.1.2\lvgl\src\lv_misc/lv_txt.c ****         if(letter == (uint32_t)LV_TXT_BREAK_CHARS[i]) {
 1732              		.loc 2 838 0
 1733 0012 FB7B     		ldrb	r3, [r7, #15]	@ zero_extendqisi2
 1734 0014 0B4A     		ldr	r2, .L118
 1735 0016 D35C     		ldrb	r3, [r2, r3]	@ zero_extendqisi2
 1736 0018 1A46     		mov	r2, r3
 1737 001a 7B68     		ldr	r3, [r7, #4]
 1738 001c 9A42     		cmp	r2, r3
 1739 001e 02D1     		bne	.L114
 839:..\..\..\lvgl\version_6.1.2\lvgl\src\lv_misc/lv_txt.c ****             ret = true; /*If match then it is break char*/
 1740              		.loc 2 839 0
 1741 0020 0123     		movs	r3, #1
 1742 0022 BB73     		strb	r3, [r7, #14]
 840:..\..\..\lvgl\version_6.1.2\lvgl\src\lv_misc/lv_txt.c ****             break;
 1743              		.loc 2 840 0
 1744 0024 07E0     		b	.L115
 1745              	.L114:
 837:..\..\..\lvgl\version_6.1.2\lvgl\src\lv_misc/lv_txt.c ****         if(letter == (uint32_t)LV_TXT_BREAK_CHARS[i]) {
 1746              		.loc 2 837 0 discriminator 2
 1747 0026 FB7B     		ldrb	r3, [r7, #15]	@ zero_extendqisi2
 1748 0028 0133     		adds	r3, r3, #1
 1749 002a FB73     		strb	r3, [r7, #15]
 1750              	.L113:
 837:..\..\..\lvgl\version_6.1.2\lvgl\src\lv_misc/lv_txt.c ****         if(letter == (uint32_t)LV_TXT_BREAK_CHARS[i]) {
 1751              		.loc 2 837 0 is_stmt 0 discriminator 1
ARM GAS  C:\Users\tmj32\AppData\Local\Temp\ccPoPccU.s 			page 49


 1752 002c FB7B     		ldrb	r3, [r7, #15]	@ zero_extendqisi2
 1753 002e 054A     		ldr	r2, .L118
 1754 0030 D35C     		ldrb	r3, [r2, r3]	@ zero_extendqisi2
 1755 0032 002B     		cmp	r3, #0
 1756 0034 EDD1     		bne	.L116
 1757              	.L115:
 841:..\..\..\lvgl\version_6.1.2\lvgl\src\lv_misc/lv_txt.c ****         }
 842:..\..\..\lvgl\version_6.1.2\lvgl\src\lv_misc/lv_txt.c ****     }
 843:..\..\..\lvgl\version_6.1.2\lvgl\src\lv_misc/lv_txt.c **** 
 844:..\..\..\lvgl\version_6.1.2\lvgl\src\lv_misc/lv_txt.c ****     return ret;
 1758              		.loc 2 844 0 is_stmt 1
 1759 0036 BB7B     		ldrb	r3, [r7, #14]	@ zero_extendqisi2
 845:..\..\..\lvgl\version_6.1.2\lvgl\src\lv_misc/lv_txt.c **** }
 1760              		.loc 2 845 0
 1761 0038 1846     		mov	r0, r3
 1762 003a 1437     		adds	r7, r7, #20
 1763              		.cfi_def_cfa_offset 4
 1764 003c BD46     		mov	sp, r7
 1765              		.cfi_def_cfa_register 13
 1766              		@ sp needed
 1767 003e 5DF8047B 		ldr	r7, [sp], #4
 1768              		.cfi_restore 7
 1769              		.cfi_def_cfa_offset 0
 1770 0042 7047     		bx	lr
 1771              	.L119:
 1772              		.align	2
 1773              	.L118:
 1774 0044 00000000 		.word	.LC0
 1775              		.cfi_endproc
 1776              	.LFE19:
 1777              		.size	is_break_char, .-is_break_char
 1778              		.text
 1779              	.Letext0:
 1780              		.file 3 "c:\\program files (x86)\\cypress\\psoc creator\\4.3\\psoc creator\\import\\gnu\\arm\\5.4.
 1781              		.file 4 "c:\\program files (x86)\\cypress\\psoc creator\\4.3\\psoc creator\\import\\gnu\\arm\\5.4.
 1782              		.file 5 "..\\..\\..\\lvgl\\version_6.1.2\\lvgl\\src\\lv_misc\\../../../lv_conf.h"
 1783              		.file 6 "c:\\program files (x86)\\cypress\\psoc creator\\4.3\\psoc creator\\import\\gnu\\arm\\5.4.
 1784              		.file 7 "..\\..\\..\\lvgl\\version_6.1.2\\lvgl\\src\\lv_misc\\lv_area.h"
 1785              		.file 8 "..\\..\\..\\lvgl\\version_6.1.2\\lvgl\\src\\lv_misc\\lv_txt.h"
 1786              		.section	.debug_info,"",%progbits
 1787              	.Ldebug_info0:
 1788 0000 6D0A0000 		.4byte	0xa6d
 1789 0004 0400     		.2byte	0x4
 1790 0006 00000000 		.4byte	.Ldebug_abbrev0
 1791 000a 04       		.byte	0x4
 1792 000b 01       		.uleb128 0x1
 1793 000c 79060000 		.4byte	.LASF113
 1794 0010 0C       		.byte	0xc
 1795 0011 D7020000 		.4byte	.LASF114
 1796 0015 EF000000 		.4byte	.LASF115
 1797 0019 18000000 		.4byte	.Ldebug_ranges0+0x18
 1798 001d 00000000 		.4byte	0
 1799 0021 00000000 		.4byte	.Ldebug_line0
 1800 0025 02       		.uleb128 0x2
 1801 0026 33040000 		.4byte	.LASF0
 1802 002a 03       		.byte	0x3
 1803 002b 1B       		.byte	0x1b
ARM GAS  C:\Users\tmj32\AppData\Local\Temp\ccPoPccU.s 			page 50


 1804 002c 30000000 		.4byte	0x30
 1805 0030 03       		.uleb128 0x3
 1806 0031 01       		.byte	0x1
 1807 0032 06       		.byte	0x6
 1808 0033 15060000 		.4byte	.LASF2
 1809 0037 02       		.uleb128 0x2
 1810 0038 DE040000 		.4byte	.LASF1
 1811 003c 03       		.byte	0x3
 1812 003d 1D       		.byte	0x1d
 1813 003e 42000000 		.4byte	0x42
 1814 0042 03       		.uleb128 0x3
 1815 0043 01       		.byte	0x1
 1816 0044 08       		.byte	0x8
 1817 0045 A8050000 		.4byte	.LASF3
 1818 0049 02       		.uleb128 0x2
 1819 004a E0030000 		.4byte	.LASF4
 1820 004e 03       		.byte	0x3
 1821 004f 29       		.byte	0x29
 1822 0050 54000000 		.4byte	0x54
 1823 0054 03       		.uleb128 0x3
 1824 0055 02       		.byte	0x2
 1825 0056 05       		.byte	0x5
 1826 0057 95040000 		.4byte	.LASF5
 1827 005b 02       		.uleb128 0x2
 1828 005c 2D020000 		.4byte	.LASF6
 1829 0060 03       		.byte	0x3
 1830 0061 2B       		.byte	0x2b
 1831 0062 66000000 		.4byte	0x66
 1832 0066 03       		.uleb128 0x3
 1833 0067 02       		.byte	0x2
 1834 0068 07       		.byte	0x7
 1835 0069 3A060000 		.4byte	.LASF7
 1836 006d 02       		.uleb128 0x2
 1837 006e 87000000 		.4byte	.LASF8
 1838 0072 03       		.byte	0x3
 1839 0073 3F       		.byte	0x3f
 1840 0074 78000000 		.4byte	0x78
 1841 0078 03       		.uleb128 0x3
 1842 0079 04       		.byte	0x4
 1843 007a 05       		.byte	0x5
 1844 007b AA040000 		.4byte	.LASF9
 1845 007f 02       		.uleb128 0x2
 1846 0080 CC050000 		.4byte	.LASF10
 1847 0084 03       		.byte	0x3
 1848 0085 41       		.byte	0x41
 1849 0086 8A000000 		.4byte	0x8a
 1850 008a 03       		.uleb128 0x3
 1851 008b 04       		.byte	0x4
 1852 008c 07       		.byte	0x7
 1853 008d 0C050000 		.4byte	.LASF11
 1854 0091 03       		.uleb128 0x3
 1855 0092 08       		.byte	0x8
 1856 0093 05       		.byte	0x5
 1857 0094 AB030000 		.4byte	.LASF12
 1858 0098 03       		.uleb128 0x3
 1859 0099 08       		.byte	0x8
 1860 009a 07       		.byte	0x7
ARM GAS  C:\Users\tmj32\AppData\Local\Temp\ccPoPccU.s 			page 51


 1861 009b E0010000 		.4byte	.LASF13
 1862 009f 04       		.uleb128 0x4
 1863 00a0 04       		.byte	0x4
 1864 00a1 05       		.byte	0x5
 1865 00a2 696E7400 		.ascii	"int\000"
 1866 00a6 03       		.uleb128 0x3
 1867 00a7 04       		.byte	0x4
 1868 00a8 07       		.byte	0x7
 1869 00a9 55000000 		.4byte	.LASF14
 1870 00ad 02       		.uleb128 0x2
 1871 00ae B4010000 		.4byte	.LASF15
 1872 00b2 04       		.byte	0x4
 1873 00b3 14       		.byte	0x14
 1874 00b4 25000000 		.4byte	0x25
 1875 00b8 02       		.uleb128 0x2
 1876 00b9 77030000 		.4byte	.LASF16
 1877 00bd 04       		.byte	0x4
 1878 00be 18       		.byte	0x18
 1879 00bf 37000000 		.4byte	0x37
 1880 00c3 02       		.uleb128 0x2
 1881 00c4 C3010000 		.4byte	.LASF17
 1882 00c8 04       		.byte	0x4
 1883 00c9 20       		.byte	0x20
 1884 00ca 49000000 		.4byte	0x49
 1885 00ce 02       		.uleb128 0x2
 1886 00cf 63040000 		.4byte	.LASF18
 1887 00d3 04       		.byte	0x4
 1888 00d4 24       		.byte	0x24
 1889 00d5 5B000000 		.4byte	0x5b
 1890 00d9 02       		.uleb128 0x2
 1891 00da 73050000 		.4byte	.LASF19
 1892 00de 04       		.byte	0x4
 1893 00df 2C       		.byte	0x2c
 1894 00e0 6D000000 		.4byte	0x6d
 1895 00e4 02       		.uleb128 0x2
 1896 00e5 AB010000 		.4byte	.LASF20
 1897 00e9 04       		.byte	0x4
 1898 00ea 30       		.byte	0x30
 1899 00eb 7F000000 		.4byte	0x7f
 1900 00ef 02       		.uleb128 0x2
 1901 00f0 D3040000 		.4byte	.LASF21
 1902 00f4 05       		.byte	0x5
 1903 00f5 3C       		.byte	0x3c
 1904 00f6 C3000000 		.4byte	0xc3
 1905 00fa 05       		.uleb128 0x5
 1906 00fb 04       		.byte	0x4
 1907 00fc 02       		.uleb128 0x2
 1908 00fd 4A020000 		.4byte	.LASF22
 1909 0101 06       		.byte	0x6
 1910 0102 D8       		.byte	0xd8
 1911 0103 A6000000 		.4byte	0xa6
 1912 0107 03       		.uleb128 0x3
 1913 0108 08       		.byte	0x8
 1914 0109 04       		.byte	0x4
 1915 010a 57040000 		.4byte	.LASF23
 1916 010e 03       		.uleb128 0x3
 1917 010f 04       		.byte	0x4
ARM GAS  C:\Users\tmj32\AppData\Local\Temp\ccPoPccU.s 			page 52


 1918 0110 07       		.byte	0x7
 1919 0111 03050000 		.4byte	.LASF24
 1920 0115 06       		.uleb128 0x6
 1921 0116 04       		.byte	0x4
 1922 0117 1B010000 		.4byte	0x11b
 1923 011b 03       		.uleb128 0x3
 1924 011c 01       		.byte	0x1
 1925 011d 08       		.byte	0x8
 1926 011e 18030000 		.4byte	.LASF25
 1927 0122 06       		.uleb128 0x6
 1928 0123 04       		.byte	0x4
 1929 0124 28010000 		.4byte	0x128
 1930 0128 07       		.uleb128 0x7
 1931 0129 1B010000 		.4byte	0x11b
 1932 012d 08       		.uleb128 0x8
 1933 012e 04       		.byte	0x4
 1934 012f 07       		.byte	0x7
 1935 0130 2A       		.byte	0x2a
 1936 0131 4A010000 		.4byte	0x14a
 1937 0135 09       		.uleb128 0x9
 1938 0136 7800     		.ascii	"x\000"
 1939 0138 07       		.byte	0x7
 1940 0139 2C       		.byte	0x2c
 1941 013a EF000000 		.4byte	0xef
 1942 013e 00       		.byte	0
 1943 013f 09       		.uleb128 0x9
 1944 0140 7900     		.ascii	"y\000"
 1945 0142 07       		.byte	0x7
 1946 0143 2D       		.byte	0x2d
 1947 0144 EF000000 		.4byte	0xef
 1948 0148 02       		.byte	0x2
 1949 0149 00       		.byte	0
 1950 014a 02       		.uleb128 0x2
 1951 014b 7C000000 		.4byte	.LASF26
 1952 014f 07       		.byte	0x7
 1953 0150 2E       		.byte	0x2e
 1954 0151 2D010000 		.4byte	0x12d
 1955 0155 08       		.uleb128 0x8
 1956 0156 08       		.byte	0x8
 1957 0157 01       		.byte	0x1
 1958 0158 2E       		.byte	0x2e
 1959 0159 A6010000 		.4byte	0x1a6
 1960 015d 0A       		.uleb128 0xa
 1961 015e 6B070000 		.4byte	.LASF27
 1962 0162 01       		.byte	0x1
 1963 0163 30       		.byte	0x30
 1964 0164 CE000000 		.4byte	0xce
 1965 0168 00       		.byte	0
 1966 0169 0A       		.uleb128 0xa
 1967 016a 50050000 		.4byte	.LASF28
 1968 016e 01       		.byte	0x1
 1969 016f 31       		.byte	0x31
 1970 0170 B8000000 		.4byte	0xb8
 1971 0174 02       		.byte	0x2
 1972 0175 0A       		.uleb128 0xa
 1973 0176 E8040000 		.4byte	.LASF29
 1974 017a 01       		.byte	0x1
ARM GAS  C:\Users\tmj32\AppData\Local\Temp\ccPoPccU.s 			page 53


 1975 017b 32       		.byte	0x32
 1976 017c B8000000 		.4byte	0xb8
 1977 0180 03       		.byte	0x3
 1978 0181 0A       		.uleb128 0xa
 1979 0182 62000000 		.4byte	.LASF30
 1980 0186 01       		.byte	0x1
 1981 0187 33       		.byte	0x33
 1982 0188 AD000000 		.4byte	0xad
 1983 018c 04       		.byte	0x4
 1984 018d 0A       		.uleb128 0xa
 1985 018e 68000000 		.4byte	.LASF31
 1986 0192 01       		.byte	0x1
 1987 0193 34       		.byte	0x34
 1988 0194 AD000000 		.4byte	0xad
 1989 0198 05       		.byte	0x5
 1990 0199 09       		.uleb128 0x9
 1991 019a 62707000 		.ascii	"bpp\000"
 1992 019e 01       		.byte	0x1
 1993 019f 35       		.byte	0x35
 1994 01a0 B8000000 		.4byte	0xb8
 1995 01a4 06       		.byte	0x6
 1996 01a5 00       		.byte	0
 1997 01a6 02       		.uleb128 0x2
 1998 01a7 55030000 		.4byte	.LASF32
 1999 01ab 01       		.byte	0x1
 2000 01ac 36       		.byte	0x36
 2001 01ad 55010000 		.4byte	0x155
 2002 01b1 0B       		.uleb128 0xb
 2003 01b2 96020000 		.4byte	.LASF116
 2004 01b6 10       		.byte	0x10
 2005 01b7 01       		.byte	0x1
 2006 01b8 44       		.byte	0x44
 2007 01b9 09020000 		.4byte	0x209
 2008 01bd 0A       		.uleb128 0xa
 2009 01be 6E000000 		.4byte	.LASF33
 2010 01c2 01       		.byte	0x1
 2011 01c3 47       		.byte	0x47
 2012 01c4 3F020000 		.4byte	0x23f
 2013 01c8 00       		.byte	0
 2014 01c9 0A       		.uleb128 0xa
 2015 01ca D7050000 		.4byte	.LASF34
 2016 01ce 01       		.byte	0x1
 2017 01cf 4A       		.byte	0x4a
 2018 01d0 64020000 		.4byte	0x264
 2019 01d4 04       		.byte	0x4
 2020 01d5 0A       		.uleb128 0xa
 2021 01d6 CB020000 		.4byte	.LASF35
 2022 01da 01       		.byte	0x1
 2023 01db 4D       		.byte	0x4d
 2024 01dc B8000000 		.4byte	0xb8
 2025 01e0 08       		.byte	0x8
 2026 01e1 0A       		.uleb128 0xa
 2027 01e2 7B050000 		.4byte	.LASF36
 2028 01e6 01       		.byte	0x1
 2029 01e7 4E       		.byte	0x4e
 2030 01e8 AD000000 		.4byte	0xad
 2031 01ec 09       		.byte	0x9
ARM GAS  C:\Users\tmj32\AppData\Local\Temp\ccPoPccU.s 			page 54


 2032 01ed 0C       		.uleb128 0xc
 2033 01ee 2D040000 		.4byte	.LASF117
 2034 01f2 01       		.byte	0x1
 2035 01f3 4F       		.byte	0x4f
 2036 01f4 B8000000 		.4byte	0xb8
 2037 01f8 01       		.byte	0x1
 2038 01f9 02       		.byte	0x2
 2039 01fa 06       		.byte	0x6
 2040 01fb 0A       		.byte	0xa
 2041 01fc 09       		.uleb128 0x9
 2042 01fd 64736300 		.ascii	"dsc\000"
 2043 0201 01       		.byte	0x1
 2044 0202 50       		.byte	0x50
 2045 0203 FA000000 		.4byte	0xfa
 2046 0207 0C       		.byte	0xc
 2047 0208 00       		.byte	0
 2048 0209 0D       		.uleb128 0xd
 2049 020a 27020000 		.4byte	0x227
 2050 020e 27020000 		.4byte	0x227
 2051 0212 0E       		.uleb128 0xe
 2052 0213 2E020000 		.4byte	0x22e
 2053 0217 0E       		.uleb128 0xe
 2054 0218 39020000 		.4byte	0x239
 2055 021c 0E       		.uleb128 0xe
 2056 021d E4000000 		.4byte	0xe4
 2057 0221 0E       		.uleb128 0xe
 2058 0222 E4000000 		.4byte	0xe4
 2059 0226 00       		.byte	0
 2060 0227 03       		.uleb128 0x3
 2061 0228 01       		.byte	0x1
 2062 0229 02       		.byte	0x2
 2063 022a 6C020000 		.4byte	.LASF37
 2064 022e 06       		.uleb128 0x6
 2065 022f 04       		.byte	0x4
 2066 0230 34020000 		.4byte	0x234
 2067 0234 07       		.uleb128 0x7
 2068 0235 B1010000 		.4byte	0x1b1
 2069 0239 06       		.uleb128 0x6
 2070 023a 04       		.byte	0x4
 2071 023b A6010000 		.4byte	0x1a6
 2072 023f 06       		.uleb128 0x6
 2073 0240 04       		.byte	0x4
 2074 0241 09020000 		.4byte	0x209
 2075 0245 0D       		.uleb128 0xd
 2076 0246 59020000 		.4byte	0x259
 2077 024a 59020000 		.4byte	0x259
 2078 024e 0E       		.uleb128 0xe
 2079 024f 2E020000 		.4byte	0x22e
 2080 0253 0E       		.uleb128 0xe
 2081 0254 E4000000 		.4byte	0xe4
 2082 0258 00       		.byte	0
 2083 0259 06       		.uleb128 0x6
 2084 025a 04       		.byte	0x4
 2085 025b 5F020000 		.4byte	0x25f
 2086 025f 07       		.uleb128 0x7
 2087 0260 B8000000 		.4byte	0xb8
 2088 0264 06       		.uleb128 0x6
ARM GAS  C:\Users\tmj32\AppData\Local\Temp\ccPoPccU.s 			page 55


 2089 0265 04       		.byte	0x4
 2090 0266 45020000 		.4byte	0x245
 2091 026a 02       		.uleb128 0x2
 2092 026b 77040000 		.4byte	.LASF38
 2093 026f 01       		.byte	0x1
 2094 0270 56       		.byte	0x56
 2095 0271 B1010000 		.4byte	0x1b1
 2096 0275 0F       		.uleb128 0xf
 2097 0276 01       		.byte	0x1
 2098 0277 42000000 		.4byte	0x42
 2099 027b 08       		.byte	0x8
 2100 027c 2B       		.byte	0x2b
 2101 027d A0020000 		.4byte	0x2a0
 2102 0281 10       		.uleb128 0x10
 2103 0282 55060000 		.4byte	.LASF39
 2104 0286 00       		.byte	0
 2105 0287 10       		.uleb128 0x10
 2106 0288 DB000000 		.4byte	.LASF40
 2107 028c 01       		.byte	0x1
 2108 028d 10       		.uleb128 0x10
 2109 028e 66060000 		.4byte	.LASF41
 2110 0292 02       		.byte	0x2
 2111 0293 10       		.uleb128 0x10
 2112 0294 98010000 		.4byte	.LASF42
 2113 0298 04       		.byte	0x4
 2114 0299 10       		.uleb128 0x10
 2115 029a 38020000 		.4byte	.LASF43
 2116 029e 08       		.byte	0x8
 2117 029f 00       		.byte	0
 2118 02a0 02       		.uleb128 0x2
 2119 02a1 2C060000 		.4byte	.LASF44
 2120 02a5 08       		.byte	0x8
 2121 02a6 32       		.byte	0x32
 2122 02a7 B8000000 		.4byte	0xb8
 2123 02ab 0F       		.uleb128 0xf
 2124 02ac 01       		.byte	0x1
 2125 02ad 42000000 		.4byte	0x42
 2126 02b1 08       		.byte	0x8
 2127 02b2 36       		.byte	0x36
 2128 02b3 CA020000 		.4byte	0x2ca
 2129 02b7 10       		.uleb128 0x10
 2130 02b8 3A050000 		.4byte	.LASF45
 2131 02bc 00       		.byte	0
 2132 02bd 10       		.uleb128 0x10
 2133 02be CB030000 		.4byte	.LASF46
 2134 02c2 01       		.byte	0x1
 2135 02c3 10       		.uleb128 0x10
 2136 02c4 7A020000 		.4byte	.LASF47
 2137 02c8 02       		.byte	0x2
 2138 02c9 00       		.byte	0
 2139 02ca 02       		.uleb128 0x2
 2140 02cb B1020000 		.4byte	.LASF48
 2141 02cf 08       		.byte	0x8
 2142 02d0 3B       		.byte	0x3b
 2143 02d1 B8000000 		.4byte	0xb8
 2144 02d5 11       		.uleb128 0x11
 2145 02d6 2C070000 		.4byte	.LASF61
ARM GAS  C:\Users\tmj32\AppData\Local\Temp\ccPoPccU.s 			page 56


 2146 02da 01       		.byte	0x1
 2147 02db 7C       		.byte	0x7c
 2148 02dc B8000000 		.4byte	0xb8
 2149 02e0 00000000 		.4byte	.LFB3
 2150 02e4 18000000 		.4byte	.LFE3-.LFB3
 2151 02e8 01       		.uleb128 0x1
 2152 02e9 9C       		.byte	0x9c
 2153 02ea FD020000 		.4byte	0x2fd
 2154 02ee 12       		.uleb128 0x12
 2155 02ef C4020000 		.4byte	.LASF49
 2156 02f3 01       		.byte	0x1
 2157 02f4 7C       		.byte	0x7c
 2158 02f5 FD020000 		.4byte	0x2fd
 2159 02f9 02       		.uleb128 0x2
 2160 02fa 91       		.byte	0x91
 2161 02fb 74       		.sleb128 -12
 2162 02fc 00       		.byte	0
 2163 02fd 06       		.uleb128 0x6
 2164 02fe 04       		.byte	0x4
 2165 02ff 03030000 		.4byte	0x303
 2166 0303 07       		.uleb128 0x7
 2167 0304 6A020000 		.4byte	0x26a
 2168 0308 13       		.uleb128 0x13
 2169 0309 AE000000 		.4byte	.LASF85
 2170 030d 02       		.byte	0x2
 2171 030e 5D       		.byte	0x5d
 2172 030f 00000000 		.4byte	.LFB4
 2173 0313 7E010000 		.4byte	.LFE4-.LFB4
 2174 0317 01       		.uleb128 0x1
 2175 0318 9C       		.byte	0x9c
 2176 0319 B8030000 		.4byte	0x3b8
 2177 031d 12       		.uleb128 0x12
 2178 031e 1A020000 		.4byte	.LASF50
 2179 0322 02       		.byte	0x2
 2180 0323 5D       		.byte	0x5d
 2181 0324 B8030000 		.4byte	0x3b8
 2182 0328 02       		.uleb128 0x2
 2183 0329 91       		.byte	0x91
 2184 032a 64       		.sleb128 -28
 2185 032b 12       		.uleb128 0x12
 2186 032c 33030000 		.4byte	.LASF51
 2187 0330 02       		.byte	0x2
 2188 0331 5D       		.byte	0x5d
 2189 0332 22010000 		.4byte	0x122
 2190 0336 02       		.uleb128 0x2
 2191 0337 91       		.byte	0x91
 2192 0338 60       		.sleb128 -32
 2193 0339 12       		.uleb128 0x12
 2194 033a FE040000 		.4byte	.LASF52
 2195 033e 02       		.byte	0x2
 2196 033f 5D       		.byte	0x5d
 2197 0340 FD020000 		.4byte	0x2fd
 2198 0344 02       		.uleb128 0x2
 2199 0345 91       		.byte	0x91
 2200 0346 5C       		.sleb128 -36
 2201 0347 12       		.uleb128 0x12
 2202 0348 81040000 		.4byte	.LASF53
ARM GAS  C:\Users\tmj32\AppData\Local\Temp\ccPoPccU.s 			page 57


 2203 034c 02       		.byte	0x2
 2204 034d 5D       		.byte	0x5d
 2205 034e EF000000 		.4byte	0xef
 2206 0352 02       		.uleb128 0x2
 2207 0353 91       		.byte	0x91
 2208 0354 5A       		.sleb128 -38
 2209 0355 12       		.uleb128 0x12
 2210 0356 A6020000 		.4byte	.LASF54
 2211 035a 02       		.byte	0x2
 2212 035b 5E       		.byte	0x5e
 2213 035c EF000000 		.4byte	0xef
 2214 0360 02       		.uleb128 0x2
 2215 0361 91       		.byte	0x91
 2216 0362 00       		.sleb128 0
 2217 0363 12       		.uleb128 0x12
 2218 0364 A1030000 		.4byte	.LASF55
 2219 0368 02       		.byte	0x2
 2220 0369 5E       		.byte	0x5e
 2221 036a EF000000 		.4byte	0xef
 2222 036e 02       		.uleb128 0x2
 2223 036f 91       		.byte	0x91
 2224 0370 04       		.sleb128 4
 2225 0371 12       		.uleb128 0x12
 2226 0372 CE040000 		.4byte	.LASF56
 2227 0376 02       		.byte	0x2
 2228 0377 5E       		.byte	0x5e
 2229 0378 A0020000 		.4byte	0x2a0
 2230 037c 02       		.uleb128 0x2
 2231 037d 91       		.byte	0x91
 2232 037e 08       		.sleb128 8
 2233 037f 14       		.uleb128 0x14
 2234 0380 9F040000 		.4byte	.LASF57
 2235 0384 02       		.byte	0x2
 2236 0385 68       		.byte	0x68
 2237 0386 E4000000 		.4byte	0xe4
 2238 038a 02       		.uleb128 0x2
 2239 038b 91       		.byte	0x91
 2240 038c 74       		.sleb128 -12
 2241 038d 14       		.uleb128 0x14
 2242 038e 71070000 		.4byte	.LASF58
 2243 0392 02       		.byte	0x2
 2244 0393 69       		.byte	0x69
 2245 0394 E4000000 		.4byte	0xe4
 2246 0398 02       		.uleb128 0x2
 2247 0399 91       		.byte	0x91
 2248 039a 70       		.sleb128 -16
 2249 039b 14       		.uleb128 0x14
 2250 039c EE040000 		.4byte	.LASF59
 2251 03a0 02       		.byte	0x2
 2252 03a1 6A       		.byte	0x6a
 2253 03a2 EF000000 		.4byte	0xef
 2254 03a6 02       		.uleb128 0x2
 2255 03a7 91       		.byte	0x91
 2256 03a8 6C       		.sleb128 -20
 2257 03a9 14       		.uleb128 0x14
 2258 03aa 2E000000 		.4byte	.LASF60
 2259 03ae 02       		.byte	0x2
ARM GAS  C:\Users\tmj32\AppData\Local\Temp\ccPoPccU.s 			page 58


 2260 03af 6B       		.byte	0x6b
 2261 03b0 B8000000 		.4byte	0xb8
 2262 03b4 02       		.uleb128 0x2
 2263 03b5 91       		.byte	0x91
 2264 03b6 6F       		.sleb128 -17
 2265 03b7 00       		.byte	0
 2266 03b8 06       		.uleb128 0x6
 2267 03b9 04       		.byte	0x4
 2268 03ba 4A010000 		.4byte	0x14a
 2269 03be 15       		.uleb128 0x15
 2270 03bf CB010000 		.4byte	.LASF62
 2271 03c3 02       		.byte	0x2
 2272 03c4 AB       		.byte	0xab
 2273 03c5 CE000000 		.4byte	0xce
 2274 03c9 00000000 		.4byte	.LFB5
 2275 03cd 20020000 		.4byte	.LFE5-.LFB5
 2276 03d1 01       		.uleb128 0x1
 2277 03d2 9C       		.byte	0x9c
 2278 03d3 ED040000 		.4byte	0x4ed
 2279 03d7 16       		.uleb128 0x16
 2280 03d8 74787400 		.ascii	"txt\000"
 2281 03dc 02       		.byte	0x2
 2282 03dd AB       		.byte	0xab
 2283 03de 22010000 		.4byte	0x122
 2284 03e2 02       		.uleb128 0x2
 2285 03e3 91       		.byte	0x91
 2286 03e4 44       		.sleb128 -60
 2287 03e5 12       		.uleb128 0x12
 2288 03e6 FE040000 		.4byte	.LASF52
 2289 03ea 02       		.byte	0x2
 2290 03eb AB       		.byte	0xab
 2291 03ec FD020000 		.4byte	0x2fd
 2292 03f0 02       		.uleb128 0x2
 2293 03f1 91       		.byte	0x91
 2294 03f2 40       		.sleb128 -64
 2295 03f3 12       		.uleb128 0x12
 2296 03f4 81040000 		.4byte	.LASF53
 2297 03f8 02       		.byte	0x2
 2298 03f9 AC       		.byte	0xac
 2299 03fa EF000000 		.4byte	0xef
 2300 03fe 03       		.uleb128 0x3
 2301 03ff 91       		.byte	0x91
 2302 0400 BE7F     		.sleb128 -66
 2303 0402 12       		.uleb128 0x12
 2304 0403 A1030000 		.4byte	.LASF55
 2305 0407 02       		.byte	0x2
 2306 0408 AC       		.byte	0xac
 2307 0409 EF000000 		.4byte	0xef
 2308 040d 03       		.uleb128 0x3
 2309 040e 91       		.byte	0x91
 2310 040f BC7F     		.sleb128 -68
 2311 0411 12       		.uleb128 0x12
 2312 0412 CE040000 		.4byte	.LASF56
 2313 0416 02       		.byte	0x2
 2314 0417 AD       		.byte	0xad
 2315 0418 A0020000 		.4byte	0x2a0
 2316 041c 02       		.uleb128 0x2
ARM GAS  C:\Users\tmj32\AppData\Local\Temp\ccPoPccU.s 			page 59


 2317 041d 91       		.byte	0x91
 2318 041e 00       		.sleb128 0
 2319 041f 12       		.uleb128 0x12
 2320 0420 0D030000 		.4byte	.LASF63
 2321 0424 02       		.byte	0x2
 2322 0425 AD       		.byte	0xad
 2323 0426 ED040000 		.4byte	0x4ed
 2324 042a 02       		.uleb128 0x2
 2325 042b 91       		.byte	0x91
 2326 042c 04       		.sleb128 4
 2327 042d 12       		.uleb128 0x12
 2328 042e 23020000 		.4byte	.LASF64
 2329 0432 02       		.byte	0x2
 2330 0433 AD       		.byte	0xad
 2331 0434 F3040000 		.4byte	0x4f3
 2332 0438 02       		.uleb128 0x2
 2333 0439 91       		.byte	0x91
 2334 043a 08       		.sleb128 8
 2335 043b 12       		.uleb128 0x12
 2336 043c F7010000 		.4byte	.LASF65
 2337 0440 02       		.byte	0x2
 2338 0441 AD       		.byte	0xad
 2339 0442 27020000 		.4byte	0x227
 2340 0446 02       		.uleb128 0x2
 2341 0447 91       		.byte	0x91
 2342 0448 0C       		.sleb128 12
 2343 0449 17       		.uleb128 0x17
 2344 044a 6900     		.ascii	"i\000"
 2345 044c 02       		.byte	0x2
 2346 044d B4       		.byte	0xb4
 2347 044e E4000000 		.4byte	0xe4
 2348 0452 02       		.uleb128 0x2
 2349 0453 91       		.byte	0x91
 2350 0454 54       		.sleb128 -44
 2351 0455 14       		.uleb128 0x14
 2352 0456 7F030000 		.4byte	.LASF66
 2353 045a 02       		.byte	0x2
 2354 045b B4       		.byte	0xb4
 2355 045c E4000000 		.4byte	0xe4
 2356 0460 02       		.uleb128 0x2
 2357 0461 91       		.byte	0x91
 2358 0462 50       		.sleb128 -48
 2359 0463 14       		.uleb128 0x14
 2360 0464 00000000 		.4byte	.LASF67
 2361 0468 02       		.byte	0x2
 2362 0469 B4       		.byte	0xb4
 2363 046a E4000000 		.4byte	0xe4
 2364 046e 02       		.uleb128 0x2
 2365 046f 91       		.byte	0x91
 2366 0470 4C       		.sleb128 -52
 2367 0471 14       		.uleb128 0x14
 2368 0472 65020000 		.4byte	.LASF68
 2369 0476 02       		.byte	0x2
 2370 0477 B5       		.byte	0xb5
 2371 0478 E4000000 		.4byte	0xe4
 2372 047c 02       		.uleb128 0x2
 2373 047d 91       		.byte	0x91
ARM GAS  C:\Users\tmj32\AppData\Local\Temp\ccPoPccU.s 			page 60


 2374 047e 74       		.sleb128 -12
 2375 047f 14       		.uleb128 0x14
 2376 0480 8C010000 		.4byte	.LASF69
 2377 0484 02       		.byte	0x2
 2378 0485 B6       		.byte	0xb6
 2379 0486 E4000000 		.4byte	0xe4
 2380 048a 02       		.uleb128 0x2
 2381 048b 91       		.byte	0x91
 2382 048c 70       		.sleb128 -16
 2383 048d 14       		.uleb128 0x14
 2384 048e BE000000 		.4byte	.LASF70
 2385 0492 02       		.byte	0x2
 2386 0493 B7       		.byte	0xb7
 2387 0494 EF000000 		.4byte	0xef
 2388 0498 02       		.uleb128 0x2
 2389 0499 91       		.byte	0x91
 2390 049a 5A       		.sleb128 -38
 2391 049b 14       		.uleb128 0x14
 2392 049c C5030000 		.4byte	.LASF71
 2393 04a0 02       		.byte	0x2
 2394 04a1 B8       		.byte	0xb8
 2395 04a2 EF000000 		.4byte	0xef
 2396 04a6 02       		.uleb128 0x2
 2397 04a7 91       		.byte	0x91
 2398 04a8 6E       		.sleb128 -18
 2399 04a9 14       		.uleb128 0x14
 2400 04aa A5000000 		.4byte	.LASF72
 2401 04ae 02       		.byte	0x2
 2402 04af B9       		.byte	0xb9
 2403 04b0 E4000000 		.4byte	0xe4
 2404 04b4 02       		.uleb128 0x2
 2405 04b5 91       		.byte	0x91
 2406 04b6 68       		.sleb128 -24
 2407 04b7 14       		.uleb128 0x14
 2408 04b8 B9030000 		.4byte	.LASF73
 2409 04bc 02       		.byte	0x2
 2410 04bd BA       		.byte	0xba
 2411 04be E4000000 		.4byte	0xe4
 2412 04c2 02       		.uleb128 0x2
 2413 04c3 91       		.byte	0x91
 2414 04c4 64       		.sleb128 -28
 2415 04c5 14       		.uleb128 0x14
 2416 04c6 85050000 		.4byte	.LASF74
 2417 04ca 02       		.byte	0x2
 2418 04cb BB       		.byte	0xbb
 2419 04cc E4000000 		.4byte	0xe4
 2420 04d0 02       		.uleb128 0x2
 2421 04d1 91       		.byte	0x91
 2422 04d2 60       		.sleb128 -32
 2423 04d3 18       		.uleb128 0x18
 2424 04d4 E2010000 		.4byte	.LBB2
 2425 04d8 2A000000 		.4byte	.LBE2-.LBB2
 2426 04dc 19       		.uleb128 0x19
 2427 04dd 0F040000 		.4byte	.LASF75
 2428 04e1 02       		.byte	0x2
 2429 04e2 0701     		.2byte	0x107
 2430 04e4 D9000000 		.4byte	0xd9
ARM GAS  C:\Users\tmj32\AppData\Local\Temp\ccPoPccU.s 			page 61


 2431 04e8 02       		.uleb128 0x2
 2432 04e9 91       		.byte	0x91
 2433 04ea 5C       		.sleb128 -36
 2434 04eb 00       		.byte	0
 2435 04ec 00       		.byte	0
 2436 04ed 06       		.uleb128 0x6
 2437 04ee 04       		.byte	0x4
 2438 04ef E4000000 		.4byte	0xe4
 2439 04f3 06       		.uleb128 0x6
 2440 04f4 04       		.byte	0x4
 2441 04f5 CA020000 		.4byte	0x2ca
 2442 04f9 1A       		.uleb128 0x1a
 2443 04fa FD010000 		.4byte	.LASF78
 2444 04fe 02       		.byte	0x2
 2445 04ff 2401     		.2byte	0x124
 2446 0501 CE000000 		.4byte	0xce
 2447 0505 00000000 		.4byte	.LFB6
 2448 0509 24010000 		.4byte	.LFE6-.LFB6
 2449 050d 01       		.uleb128 0x1
 2450 050e 9C       		.byte	0x9c
 2451 050f 9F050000 		.4byte	0x59f
 2452 0513 1B       		.uleb128 0x1b
 2453 0514 74787400 		.ascii	"txt\000"
 2454 0518 02       		.byte	0x2
 2455 0519 2401     		.2byte	0x124
 2456 051b 22010000 		.4byte	0x122
 2457 051f 02       		.uleb128 0x2
 2458 0520 91       		.byte	0x91
 2459 0521 64       		.sleb128 -28
 2460 0522 1C       		.uleb128 0x1c
 2461 0523 FE040000 		.4byte	.LASF52
 2462 0527 02       		.byte	0x2
 2463 0528 2401     		.2byte	0x124
 2464 052a FD020000 		.4byte	0x2fd
 2465 052e 02       		.uleb128 0x2
 2466 052f 91       		.byte	0x91
 2467 0530 60       		.sleb128 -32
 2468 0531 1C       		.uleb128 0x1c
 2469 0532 81040000 		.4byte	.LASF53
 2470 0536 02       		.byte	0x2
 2471 0537 2501     		.2byte	0x125
 2472 0539 EF000000 		.4byte	0xef
 2473 053d 02       		.uleb128 0x2
 2474 053e 91       		.byte	0x91
 2475 053f 5E       		.sleb128 -34
 2476 0540 1C       		.uleb128 0x1c
 2477 0541 A1030000 		.4byte	.LASF55
 2478 0545 02       		.byte	0x2
 2479 0546 2501     		.2byte	0x125
 2480 0548 EF000000 		.4byte	0xef
 2481 054c 02       		.uleb128 0x2
 2482 054d 91       		.byte	0x91
 2483 054e 5C       		.sleb128 -36
 2484 054f 1C       		.uleb128 0x1c
 2485 0550 CE040000 		.4byte	.LASF56
 2486 0554 02       		.byte	0x2
 2487 0555 2501     		.2byte	0x125
ARM GAS  C:\Users\tmj32\AppData\Local\Temp\ccPoPccU.s 			page 62


 2488 0557 A0020000 		.4byte	0x2a0
 2489 055b 02       		.uleb128 0x2
 2490 055c 91       		.byte	0x91
 2491 055d 00       		.sleb128 0
 2492 055e 19       		.uleb128 0x19
 2493 055f 23020000 		.4byte	.LASF64
 2494 0563 02       		.byte	0x2
 2495 0564 2B01     		.2byte	0x12b
 2496 0566 CA020000 		.4byte	0x2ca
 2497 056a 02       		.uleb128 0x2
 2498 056b 91       		.byte	0x91
 2499 056c 73       		.sleb128 -13
 2500 056d 1D       		.uleb128 0x1d
 2501 056e 6900     		.ascii	"i\000"
 2502 0570 02       		.byte	0x2
 2503 0571 2C01     		.2byte	0x12c
 2504 0573 E4000000 		.4byte	0xe4
 2505 0577 02       		.uleb128 0x2
 2506 0578 91       		.byte	0x91
 2507 0579 6C       		.sleb128 -20
 2508 057a 1E       		.uleb128 0x1e
 2509 057b 00000000 		.4byte	.Ldebug_ranges0+0
 2510 057f 19       		.uleb128 0x19
 2511 0580 8E040000 		.4byte	.LASF76
 2512 0584 02       		.byte	0x2
 2513 0585 2F01     		.2byte	0x12f
 2514 0587 E4000000 		.4byte	0xe4
 2515 058b 02       		.uleb128 0x2
 2516 058c 91       		.byte	0x91
 2517 058d 68       		.sleb128 -24
 2518 058e 19       		.uleb128 0x19
 2519 058f BB010000 		.4byte	.LASF77
 2520 0593 02       		.byte	0x2
 2521 0594 3001     		.2byte	0x130
 2522 0596 E4000000 		.4byte	0xe4
 2523 059a 02       		.uleb128 0x2
 2524 059b 91       		.byte	0x91
 2525 059c 74       		.sleb128 -12
 2526 059d 00       		.byte	0
 2527 059e 00       		.byte	0
 2528 059f 1A       		.uleb128 0x1a
 2529 05a0 EE050000 		.4byte	.LASF79
 2530 05a4 02       		.byte	0x2
 2531 05a5 5501     		.2byte	0x155
 2532 05a7 EF000000 		.4byte	0xef
 2533 05ab 00000000 		.4byte	.LFB7
 2534 05af D4000000 		.4byte	.LFE7-.LFB7
 2535 05b3 01       		.uleb128 0x1
 2536 05b4 9C       		.byte	0x9c
 2537 05b5 67060000 		.4byte	0x667
 2538 05b9 1B       		.uleb128 0x1b
 2539 05ba 74787400 		.ascii	"txt\000"
 2540 05be 02       		.byte	0x2
 2541 05bf 5501     		.2byte	0x155
 2542 05c1 22010000 		.4byte	0x122
 2543 05c5 02       		.uleb128 0x2
 2544 05c6 91       		.byte	0x91
ARM GAS  C:\Users\tmj32\AppData\Local\Temp\ccPoPccU.s 			page 63


 2545 05c7 5C       		.sleb128 -36
 2546 05c8 1C       		.uleb128 0x1c
 2547 05c9 C7040000 		.4byte	.LASF80
 2548 05cd 02       		.byte	0x2
 2549 05ce 5501     		.2byte	0x155
 2550 05d0 CE000000 		.4byte	0xce
 2551 05d4 02       		.uleb128 0x2
 2552 05d5 91       		.byte	0x91
 2553 05d6 5A       		.sleb128 -38
 2554 05d7 1C       		.uleb128 0x1c
 2555 05d8 FE040000 		.4byte	.LASF52
 2556 05dc 02       		.byte	0x2
 2557 05dd 5501     		.2byte	0x155
 2558 05df FD020000 		.4byte	0x2fd
 2559 05e3 02       		.uleb128 0x2
 2560 05e4 91       		.byte	0x91
 2561 05e5 54       		.sleb128 -44
 2562 05e6 1C       		.uleb128 0x1c
 2563 05e7 81040000 		.4byte	.LASF53
 2564 05eb 02       		.byte	0x2
 2565 05ec 5501     		.2byte	0x155
 2566 05ee EF000000 		.4byte	0xef
 2567 05f2 02       		.uleb128 0x2
 2568 05f3 91       		.byte	0x91
 2569 05f4 58       		.sleb128 -40
 2570 05f5 1C       		.uleb128 0x1c
 2571 05f6 CE040000 		.4byte	.LASF56
 2572 05fa 02       		.byte	0x2
 2573 05fb 5601     		.2byte	0x156
 2574 05fd A0020000 		.4byte	0x2a0
 2575 0601 02       		.uleb128 0x2
 2576 0602 91       		.byte	0x91
 2577 0603 00       		.sleb128 0
 2578 0604 1D       		.uleb128 0x1d
 2579 0605 6900     		.ascii	"i\000"
 2580 0607 02       		.byte	0x2
 2581 0608 5B01     		.2byte	0x15b
 2582 060a E4000000 		.4byte	0xe4
 2583 060e 02       		.uleb128 0x2
 2584 060f 91       		.byte	0x91
 2585 0610 64       		.sleb128 -28
 2586 0611 19       		.uleb128 0x19
 2587 0612 51020000 		.4byte	.LASF81
 2588 0616 02       		.byte	0x2
 2589 0617 5C01     		.2byte	0x15c
 2590 0619 EF000000 		.4byte	0xef
 2591 061d 02       		.uleb128 0x2
 2592 061e 91       		.byte	0x91
 2593 061f 76       		.sleb128 -10
 2594 0620 19       		.uleb128 0x19
 2595 0621 23020000 		.4byte	.LASF64
 2596 0625 02       		.byte	0x2
 2597 0626 5D01     		.2byte	0x15d
 2598 0628 CA020000 		.4byte	0x2ca
 2599 062c 02       		.uleb128 0x2
 2600 062d 91       		.byte	0x91
 2601 062e 63       		.sleb128 -29
ARM GAS  C:\Users\tmj32\AppData\Local\Temp\ccPoPccU.s 			page 64


 2602 062f 19       		.uleb128 0x19
 2603 0630 65020000 		.4byte	.LASF68
 2604 0634 02       		.byte	0x2
 2605 0635 5E01     		.2byte	0x15e
 2606 0637 E4000000 		.4byte	0xe4
 2607 063b 02       		.uleb128 0x2
 2608 063c 91       		.byte	0x91
 2609 063d 70       		.sleb128 -16
 2610 063e 19       		.uleb128 0x19
 2611 063f 8C010000 		.4byte	.LASF69
 2612 0643 02       		.byte	0x2
 2613 0644 5F01     		.2byte	0x15f
 2614 0646 E4000000 		.4byte	0xe4
 2615 064a 02       		.uleb128 0x2
 2616 064b 91       		.byte	0x91
 2617 064c 6C       		.sleb128 -20
 2618 064d 18       		.uleb128 0x18
 2619 064e 3C000000 		.4byte	.LBB5
 2620 0652 6C000000 		.4byte	.LBE5-.LBB5
 2621 0656 19       		.uleb128 0x19
 2622 0657 6C040000 		.4byte	.LASF82
 2623 065b 02       		.byte	0x2
 2624 065c 6B01     		.2byte	0x16b
 2625 065e EF000000 		.4byte	0xef
 2626 0662 02       		.uleb128 0x2
 2627 0663 91       		.byte	0x91
 2628 0664 6A       		.sleb128 -22
 2629 0665 00       		.byte	0
 2630 0666 00       		.byte	0
 2631 0667 1F       		.uleb128 0x1f
 2632 0668 69030000 		.4byte	.LASF83
 2633 066c 02       		.byte	0x2
 2634 066d 8301     		.2byte	0x183
 2635 066f 27020000 		.4byte	0x227
 2636 0673 00000000 		.4byte	.LFB8
 2637 0677 74000000 		.4byte	.LFE8-.LFB8
 2638 067b 01       		.uleb128 0x1
 2639 067c 9C       		.byte	0x9c
 2640 067d AD060000 		.4byte	0x6ad
 2641 0681 1C       		.uleb128 0x1c
 2642 0682 E8050000 		.4byte	.LASF84
 2643 0686 02       		.byte	0x2
 2644 0687 8301     		.2byte	0x183
 2645 0689 F3040000 		.4byte	0x4f3
 2646 068d 02       		.uleb128 0x2
 2647 068e 91       		.byte	0x91
 2648 068f 6C       		.sleb128 -20
 2649 0690 1B       		.uleb128 0x1b
 2650 0691 6300     		.ascii	"c\000"
 2651 0693 02       		.byte	0x2
 2652 0694 8301     		.2byte	0x183
 2653 0696 E4000000 		.4byte	0xe4
 2654 069a 02       		.uleb128 0x2
 2655 069b 91       		.byte	0x91
 2656 069c 68       		.sleb128 -24
 2657 069d 1D       		.uleb128 0x1d
 2658 069e 72657400 		.ascii	"ret\000"
ARM GAS  C:\Users\tmj32\AppData\Local\Temp\ccPoPccU.s 			page 65


 2659 06a2 02       		.byte	0x2
 2660 06a3 8501     		.2byte	0x185
 2661 06a5 27020000 		.4byte	0x227
 2662 06a9 02       		.uleb128 0x2
 2663 06aa 91       		.byte	0x91
 2664 06ab 77       		.sleb128 -9
 2665 06ac 00       		.byte	0
 2666 06ad 20       		.uleb128 0x20
 2667 06ae 21060000 		.4byte	.LASF86
 2668 06b2 02       		.byte	0x2
 2669 06b3 A901     		.2byte	0x1a9
 2670 06b5 00000000 		.4byte	.LFB9
 2671 06b9 78000000 		.4byte	.LFE9-.LFB9
 2672 06bd 01       		.uleb128 0x1
 2673 06be 9C       		.byte	0x9c
 2674 06bf 2B070000 		.4byte	0x72b
 2675 06c3 1C       		.uleb128 0x1c
 2676 06c4 A0050000 		.4byte	.LASF87
 2677 06c8 02       		.byte	0x2
 2678 06c9 A901     		.2byte	0x1a9
 2679 06cb 15010000 		.4byte	0x115
 2680 06cf 02       		.uleb128 0x2
 2681 06d0 91       		.byte	0x91
 2682 06d1 64       		.sleb128 -28
 2683 06d2 1B       		.uleb128 0x1b
 2684 06d3 706F7300 		.ascii	"pos\000"
 2685 06d7 02       		.byte	0x2
 2686 06d8 A901     		.2byte	0x1a9
 2687 06da E4000000 		.4byte	0xe4
 2688 06de 02       		.uleb128 0x2
 2689 06df 91       		.byte	0x91
 2690 06e0 60       		.sleb128 -32
 2691 06e1 1C       		.uleb128 0x1c
 2692 06e2 8E020000 		.4byte	.LASF88
 2693 06e6 02       		.byte	0x2
 2694 06e7 A901     		.2byte	0x1a9
 2695 06e9 22010000 		.4byte	0x122
 2696 06ed 02       		.uleb128 0x2
 2697 06ee 91       		.byte	0x91
 2698 06ef 5C       		.sleb128 -36
 2699 06f0 19       		.uleb128 0x19
 2700 06f1 26000000 		.4byte	.LASF89
 2701 06f5 02       		.byte	0x2
 2702 06f6 AB01     		.2byte	0x1ab
 2703 06f8 FC000000 		.4byte	0xfc
 2704 06fc 02       		.uleb128 0x2
 2705 06fd 91       		.byte	0x91
 2706 06fe 70       		.sleb128 -16
 2707 06ff 19       		.uleb128 0x19
 2708 0700 4D060000 		.4byte	.LASF90
 2709 0704 02       		.byte	0x2
 2710 0705 AC01     		.2byte	0x1ac
 2711 0707 FC000000 		.4byte	0xfc
 2712 070b 02       		.uleb128 0x2
 2713 070c 91       		.byte	0x91
 2714 070d 6C       		.sleb128 -20
 2715 070e 19       		.uleb128 0x19
ARM GAS  C:\Users\tmj32\AppData\Local\Temp\ccPoPccU.s 			page 66


 2716 070f 98050000 		.4byte	.LASF91
 2717 0713 02       		.byte	0x2
 2718 0714 AD01     		.2byte	0x1ad
 2719 0716 FC000000 		.4byte	0xfc
 2720 071a 02       		.uleb128 0x2
 2721 071b 91       		.byte	0x91
 2722 071c 68       		.sleb128 -24
 2723 071d 1D       		.uleb128 0x1d
 2724 071e 6900     		.ascii	"i\000"
 2725 0720 02       		.byte	0x2
 2726 0721 B101     		.2byte	0x1b1
 2727 0723 FC000000 		.4byte	0xfc
 2728 0727 02       		.uleb128 0x2
 2729 0728 91       		.byte	0x91
 2730 0729 74       		.sleb128 -12
 2731 072a 00       		.byte	0
 2732 072b 20       		.uleb128 0x20
 2733 072c 60070000 		.4byte	.LASF92
 2734 0730 02       		.byte	0x2
 2735 0731 C101     		.2byte	0x1c1
 2736 0733 00000000 		.4byte	.LFB10
 2737 0737 6C000000 		.4byte	.LFE10-.LFB10
 2738 073b 01       		.uleb128 0x1
 2739 073c 9C       		.byte	0x9c
 2740 073d 8B070000 		.4byte	0x78b
 2741 0741 1B       		.uleb128 0x1b
 2742 0742 74787400 		.ascii	"txt\000"
 2743 0746 02       		.byte	0x2
 2744 0747 C101     		.2byte	0x1c1
 2745 0749 15010000 		.4byte	0x115
 2746 074d 02       		.uleb128 0x2
 2747 074e 91       		.byte	0x91
 2748 074f 6C       		.sleb128 -20
 2749 0750 1B       		.uleb128 0x1b
 2750 0751 706F7300 		.ascii	"pos\000"
 2751 0755 02       		.byte	0x2
 2752 0756 C101     		.2byte	0x1c1
 2753 0758 E4000000 		.4byte	0xe4
 2754 075c 02       		.uleb128 0x2
 2755 075d 91       		.byte	0x91
 2756 075e 68       		.sleb128 -24
 2757 075f 1B       		.uleb128 0x1b
 2758 0760 6C656E00 		.ascii	"len\000"
 2759 0764 02       		.byte	0x2
 2760 0765 C101     		.2byte	0x1c1
 2761 0767 E4000000 		.4byte	0xe4
 2762 076b 02       		.uleb128 0x2
 2763 076c 91       		.byte	0x91
 2764 076d 64       		.sleb128 -28
 2765 076e 19       		.uleb128 0x19
 2766 076f 26000000 		.4byte	.LASF89
 2767 0773 02       		.byte	0x2
 2768 0774 C401     		.2byte	0x1c4
 2769 0776 FC000000 		.4byte	0xfc
 2770 077a 02       		.uleb128 0x2
 2771 077b 91       		.byte	0x91
 2772 077c 70       		.sleb128 -16
ARM GAS  C:\Users\tmj32\AppData\Local\Temp\ccPoPccU.s 			page 67


 2773 077d 1D       		.uleb128 0x1d
 2774 077e 6900     		.ascii	"i\000"
 2775 0780 02       		.byte	0x2
 2776 0781 CA01     		.2byte	0x1ca
 2777 0783 E4000000 		.4byte	0xe4
 2778 0787 02       		.uleb128 0x2
 2779 0788 91       		.byte	0x91
 2780 0789 74       		.sleb128 -12
 2781 078a 00       		.byte	0
 2782 078b 21       		.uleb128 0x21
 2783 078c 1D030000 		.4byte	.LASF93
 2784 0790 02       		.byte	0x2
 2785 0791 CD02     		.2byte	0x2cd
 2786 0793 B8000000 		.4byte	0xb8
 2787 0797 00000000 		.4byte	.LFB11
 2788 079b 16000000 		.4byte	.LFE11-.LFB11
 2789 079f 01       		.uleb128 0x1
 2790 07a0 9C       		.byte	0x9c
 2791 07a1 B5070000 		.4byte	0x7b5
 2792 07a5 1B       		.uleb128 0x1b
 2793 07a6 73747200 		.ascii	"str\000"
 2794 07aa 02       		.byte	0x2
 2795 07ab CD02     		.2byte	0x2cd
 2796 07ad 22010000 		.4byte	0x122
 2797 07b1 02       		.uleb128 0x2
 2798 07b2 91       		.byte	0x91
 2799 07b3 74       		.sleb128 -12
 2800 07b4 00       		.byte	0
 2801 07b5 21       		.uleb128 0x21
 2802 07b6 44070000 		.4byte	.LASF94
 2803 07ba 02       		.byte	0x2
 2804 07bb D802     		.2byte	0x2d8
 2805 07bd E4000000 		.4byte	0xe4
 2806 07c1 00000000 		.4byte	.LFB12
 2807 07c5 20000000 		.4byte	.LFE12-.LFB12
 2808 07c9 01       		.uleb128 0x1
 2809 07ca 9C       		.byte	0x9c
 2810 07cb DF070000 		.4byte	0x7df
 2811 07cf 1C       		.uleb128 0x1c
 2812 07d0 04040000 		.4byte	.LASF95
 2813 07d4 02       		.byte	0x2
 2814 07d5 D802     		.2byte	0x2d8
 2815 07d7 E4000000 		.4byte	0xe4
 2816 07db 02       		.uleb128 0x2
 2817 07dc 91       		.byte	0x91
 2818 07dd 74       		.sleb128 -12
 2819 07de 00       		.byte	0
 2820 07df 21       		.uleb128 0x21
 2821 07e0 3C000000 		.4byte	.LASF96
 2822 07e4 02       		.byte	0x2
 2823 07e5 E602     		.2byte	0x2e6
 2824 07e7 E4000000 		.4byte	0xe4
 2825 07eb 00000000 		.4byte	.LFB13
 2826 07ef 16000000 		.4byte	.LFE13-.LFB13
 2827 07f3 01       		.uleb128 0x1
 2828 07f4 9C       		.byte	0x9c
 2829 07f5 07080000 		.4byte	0x807
ARM GAS  C:\Users\tmj32\AppData\Local\Temp\ccPoPccU.s 			page 68


 2830 07f9 1B       		.uleb128 0x1b
 2831 07fa 6300     		.ascii	"c\000"
 2832 07fc 02       		.byte	0x2
 2833 07fd E602     		.2byte	0x2e6
 2834 07ff E4000000 		.4byte	0xe4
 2835 0803 02       		.uleb128 0x2
 2836 0804 91       		.byte	0x91
 2837 0805 74       		.sleb128 -12
 2838 0806 00       		.byte	0
 2839 0807 21       		.uleb128 0x21
 2840 0808 B6050000 		.4byte	.LASF97
 2841 080c 02       		.byte	0x2
 2842 080d F302     		.2byte	0x2f3
 2843 080f E4000000 		.4byte	0xe4
 2844 0813 00000000 		.4byte	.LFB14
 2845 0817 3C000000 		.4byte	.LFE14-.LFB14
 2846 081b 01       		.uleb128 0x1
 2847 081c 9C       		.byte	0x9c
 2848 081d 4D080000 		.4byte	0x84d
 2849 0821 1B       		.uleb128 0x1b
 2850 0822 74787400 		.ascii	"txt\000"
 2851 0826 02       		.byte	0x2
 2852 0827 F302     		.2byte	0x2f3
 2853 0829 22010000 		.4byte	0x122
 2854 082d 02       		.uleb128 0x2
 2855 082e 91       		.byte	0x91
 2856 082f 6C       		.sleb128 -20
 2857 0830 1B       		.uleb128 0x1b
 2858 0831 6900     		.ascii	"i\000"
 2859 0833 02       		.byte	0x2
 2860 0834 F302     		.2byte	0x2f3
 2861 0836 ED040000 		.4byte	0x4ed
 2862 083a 02       		.uleb128 0x2
 2863 083b 91       		.byte	0x91
 2864 083c 68       		.sleb128 -24
 2865 083d 19       		.uleb128 0x19
 2866 083e 65020000 		.4byte	.LASF68
 2867 0842 02       		.byte	0x2
 2868 0843 F702     		.2byte	0x2f7
 2869 0845 B8000000 		.4byte	0xb8
 2870 0849 02       		.uleb128 0x2
 2871 084a 91       		.byte	0x91
 2872 084b 77       		.sleb128 -9
 2873 084c 00       		.byte	0
 2874 084d 21       		.uleb128 0x21
 2875 084e FF050000 		.4byte	.LASF98
 2876 0852 02       		.byte	0x2
 2877 0853 0203     		.2byte	0x302
 2878 0855 E4000000 		.4byte	0xe4
 2879 0859 00000000 		.4byte	.LFB15
 2880 085d 3C000000 		.4byte	.LFE15-.LFB15
 2881 0861 01       		.uleb128 0x1
 2882 0862 9C       		.byte	0x9c
 2883 0863 93080000 		.4byte	0x893
 2884 0867 1B       		.uleb128 0x1b
 2885 0868 74787400 		.ascii	"txt\000"
 2886 086c 02       		.byte	0x2
ARM GAS  C:\Users\tmj32\AppData\Local\Temp\ccPoPccU.s 			page 69


 2887 086d 0203     		.2byte	0x302
 2888 086f 22010000 		.4byte	0x122
 2889 0873 02       		.uleb128 0x2
 2890 0874 91       		.byte	0x91
 2891 0875 6C       		.sleb128 -20
 2892 0876 1B       		.uleb128 0x1b
 2893 0877 6900     		.ascii	"i\000"
 2894 0879 02       		.byte	0x2
 2895 087a 0203     		.2byte	0x302
 2896 087c ED040000 		.4byte	0x4ed
 2897 0880 02       		.uleb128 0x2
 2898 0881 91       		.byte	0x91
 2899 0882 68       		.sleb128 -24
 2900 0883 19       		.uleb128 0x19
 2901 0884 65020000 		.4byte	.LASF68
 2902 0888 02       		.byte	0x2
 2903 0889 0703     		.2byte	0x307
 2904 088b B8000000 		.4byte	0xb8
 2905 088f 02       		.uleb128 0x2
 2906 0890 91       		.byte	0x91
 2907 0891 77       		.sleb128 -9
 2908 0892 00       		.byte	0
 2909 0893 21       		.uleb128 0x21
 2910 0894 38030000 		.4byte	.LASF99
 2911 0898 02       		.byte	0x2
 2912 0899 1303     		.2byte	0x313
 2913 089b E4000000 		.4byte	0xe4
 2914 089f 00000000 		.4byte	.LFB16
 2915 08a3 18000000 		.4byte	.LFE16-.LFB16
 2916 08a7 01       		.uleb128 0x1
 2917 08a8 9C       		.byte	0x9c
 2918 08a9 CC080000 		.4byte	0x8cc
 2919 08ad 1B       		.uleb128 0x1b
 2920 08ae 74787400 		.ascii	"txt\000"
 2921 08b2 02       		.byte	0x2
 2922 08b3 1303     		.2byte	0x313
 2923 08b5 22010000 		.4byte	0x122
 2924 08b9 02       		.uleb128 0x2
 2925 08ba 91       		.byte	0x91
 2926 08bb 74       		.sleb128 -12
 2927 08bc 1C       		.uleb128 0x1c
 2928 08bd 72020000 		.4byte	.LASF100
 2929 08c1 02       		.byte	0x2
 2930 08c2 1303     		.2byte	0x313
 2931 08c4 E4000000 		.4byte	0xe4
 2932 08c8 02       		.uleb128 0x2
 2933 08c9 91       		.byte	0x91
 2934 08ca 70       		.sleb128 -16
 2935 08cb 00       		.byte	0
 2936 08cc 21       		.uleb128 0x21
 2937 08cd 56050000 		.4byte	.LASF101
 2938 08d1 02       		.byte	0x2
 2939 08d2 2003     		.2byte	0x320
 2940 08d4 E4000000 		.4byte	0xe4
 2941 08d8 00000000 		.4byte	.LFB17
 2942 08dc 18000000 		.4byte	.LFE17-.LFB17
 2943 08e0 01       		.uleb128 0x1
ARM GAS  C:\Users\tmj32\AppData\Local\Temp\ccPoPccU.s 			page 70


 2944 08e1 9C       		.byte	0x9c
 2945 08e2 05090000 		.4byte	0x905
 2946 08e6 1B       		.uleb128 0x1b
 2947 08e7 74787400 		.ascii	"txt\000"
 2948 08eb 02       		.byte	0x2
 2949 08ec 2003     		.2byte	0x320
 2950 08ee 22010000 		.4byte	0x122
 2951 08f2 02       		.uleb128 0x2
 2952 08f3 91       		.byte	0x91
 2953 08f4 74       		.sleb128 -12
 2954 08f5 1C       		.uleb128 0x1c
 2955 08f6 12020000 		.4byte	.LASF102
 2956 08fa 02       		.byte	0x2
 2957 08fb 2003     		.2byte	0x320
 2958 08fd E4000000 		.4byte	0xe4
 2959 0901 02       		.uleb128 0x2
 2960 0902 91       		.byte	0x91
 2961 0903 70       		.sleb128 -16
 2962 0904 00       		.byte	0
 2963 0905 22       		.uleb128 0x22
 2964 0906 1E050000 		.4byte	.LASF103
 2965 090a 02       		.byte	0x2
 2966 090b 2C03     		.2byte	0x32c
 2967 090d E4000000 		.4byte	0xe4
 2968 0911 00000000 		.4byte	.LFB18
 2969 0915 18000000 		.4byte	.LFE18-.LFB18
 2970 0919 01       		.uleb128 0x1
 2971 091a 9C       		.byte	0x9c
 2972 091b 2F090000 		.4byte	0x92f
 2973 091f 1B       		.uleb128 0x1b
 2974 0920 74787400 		.ascii	"txt\000"
 2975 0924 02       		.byte	0x2
 2976 0925 2C03     		.2byte	0x32c
 2977 0927 22010000 		.4byte	0x122
 2978 092b 02       		.uleb128 0x2
 2979 092c 91       		.byte	0x91
 2980 092d 74       		.sleb128 -12
 2981 092e 00       		.byte	0
 2982 092f 21       		.uleb128 0x21
 2983 0930 57020000 		.4byte	.LASF104
 2984 0934 02       		.byte	0x2
 2985 0935 3F03     		.2byte	0x33f
 2986 0937 27020000 		.4byte	0x227
 2987 093b 00000000 		.4byte	.LFB19
 2988 093f 48000000 		.4byte	.LFE19-.LFB19
 2989 0943 01       		.uleb128 0x1
 2990 0944 9C       		.byte	0x9c
 2991 0945 75090000 		.4byte	0x975
 2992 0949 1C       		.uleb128 0x1c
 2993 094a 65020000 		.4byte	.LASF68
 2994 094e 02       		.byte	0x2
 2995 094f 3F03     		.2byte	0x33f
 2996 0951 E4000000 		.4byte	0xe4
 2997 0955 02       		.uleb128 0x2
 2998 0956 91       		.byte	0x91
 2999 0957 6C       		.sleb128 -20
 3000 0958 1D       		.uleb128 0x1d
ARM GAS  C:\Users\tmj32\AppData\Local\Temp\ccPoPccU.s 			page 71


 3001 0959 6900     		.ascii	"i\000"
 3002 095b 02       		.byte	0x2
 3003 095c 4103     		.2byte	0x341
 3004 095e B8000000 		.4byte	0xb8
 3005 0962 02       		.uleb128 0x2
 3006 0963 91       		.byte	0x91
 3007 0964 77       		.sleb128 -9
 3008 0965 1D       		.uleb128 0x1d
 3009 0966 72657400 		.ascii	"ret\000"
 3010 096a 02       		.byte	0x2
 3011 096b 4203     		.2byte	0x342
 3012 096d 27020000 		.4byte	0x227
 3013 0971 02       		.uleb128 0x2
 3014 0972 91       		.byte	0x91
 3015 0973 76       		.sleb128 -10
 3016 0974 00       		.byte	0
 3017 0975 0D       		.uleb128 0xd
 3018 0976 B8000000 		.4byte	0xb8
 3019 097a 84090000 		.4byte	0x984
 3020 097e 0E       		.uleb128 0xe
 3021 097f 22010000 		.4byte	0x122
 3022 0983 00       		.byte	0
 3023 0984 23       		.uleb128 0x23
 3024 0985 B3040000 		.4byte	.LASF105
 3025 0989 02       		.byte	0x2
 3026 098a 3F       		.byte	0x3f
 3027 098b 95090000 		.4byte	0x995
 3028 098f 05       		.uleb128 0x5
 3029 0990 03       		.byte	0x3
 3030 0991 00000000 		.4byte	lv_txt_encoded_size
 3031 0995 06       		.uleb128 0x6
 3032 0996 04       		.byte	0x4
 3033 0997 75090000 		.4byte	0x975
 3034 099b 0D       		.uleb128 0xd
 3035 099c E4000000 		.4byte	0xe4
 3036 09a0 AA090000 		.4byte	0x9aa
 3037 09a4 0E       		.uleb128 0xe
 3038 09a5 E4000000 		.4byte	0xe4
 3039 09a9 00       		.byte	0
 3040 09aa 23       		.uleb128 0x23
 3041 09ab 0C000000 		.4byte	.LASF106
 3042 09af 02       		.byte	0x2
 3043 09b0 40       		.byte	0x40
 3044 09b1 BB090000 		.4byte	0x9bb
 3045 09b5 05       		.uleb128 0x5
 3046 09b6 03       		.byte	0x3
 3047 09b7 00000000 		.4byte	lv_txt_unicode_to_encoded
 3048 09bb 06       		.uleb128 0x6
 3049 09bc 04       		.byte	0x4
 3050 09bd 9B090000 		.4byte	0x99b
 3051 09c1 23       		.uleb128 0x23
 3052 09c2 16040000 		.4byte	.LASF107
 3053 09c6 02       		.byte	0x2
 3054 09c7 41       		.byte	0x41
 3055 09c8 BB090000 		.4byte	0x9bb
 3056 09cc 05       		.uleb128 0x5
 3057 09cd 03       		.byte	0x3
ARM GAS  C:\Users\tmj32\AppData\Local\Temp\ccPoPccU.s 			page 72


 3058 09ce 00000000 		.4byte	lv_txt_encoded_conv_wc
 3059 09d2 0D       		.uleb128 0xd
 3060 09d3 E4000000 		.4byte	0xe4
 3061 09d7 E6090000 		.4byte	0x9e6
 3062 09db 0E       		.uleb128 0xe
 3063 09dc 22010000 		.4byte	0x122
 3064 09e0 0E       		.uleb128 0xe
 3065 09e1 ED040000 		.4byte	0x4ed
 3066 09e5 00       		.byte	0
 3067 09e6 23       		.uleb128 0x23
 3068 09e7 91000000 		.4byte	.LASF108
 3069 09eb 02       		.byte	0x2
 3070 09ec 42       		.byte	0x42
 3071 09ed F7090000 		.4byte	0x9f7
 3072 09f1 05       		.uleb128 0x5
 3073 09f2 03       		.byte	0x3
 3074 09f3 00000000 		.4byte	lv_txt_encoded_next
 3075 09f7 06       		.uleb128 0x6
 3076 09f8 04       		.byte	0x4
 3077 09f9 D2090000 		.4byte	0x9d2
 3078 09fd 23       		.uleb128 0x23
 3079 09fe C7000000 		.4byte	.LASF109
 3080 0a02 02       		.byte	0x2
 3081 0a03 43       		.byte	0x43
 3082 0a04 F7090000 		.4byte	0x9f7
 3083 0a08 05       		.uleb128 0x5
 3084 0a09 03       		.byte	0x3
 3085 0a0a 00000000 		.4byte	lv_txt_encoded_prev
 3086 0a0e 0D       		.uleb128 0xd
 3087 0a0f E4000000 		.4byte	0xe4
 3088 0a13 220A0000 		.4byte	0xa22
 3089 0a17 0E       		.uleb128 0xe
 3090 0a18 22010000 		.4byte	0x122
 3091 0a1c 0E       		.uleb128 0xe
 3092 0a1d E4000000 		.4byte	0xe4
 3093 0a21 00       		.byte	0
 3094 0a22 23       		.uleb128 0x23
 3095 0a23 86030000 		.4byte	.LASF110
 3096 0a27 02       		.byte	0x2
 3097 0a28 44       		.byte	0x44
 3098 0a29 330A0000 		.4byte	0xa33
 3099 0a2d 05       		.uleb128 0x5
 3100 0a2e 03       		.byte	0x3
 3101 0a2f 00000000 		.4byte	lv_txt_encoded_get_byte_id
 3102 0a33 06       		.uleb128 0x6
 3103 0a34 04       		.byte	0x4
 3104 0a35 0E0A0000 		.4byte	0xa0e
 3105 0a39 23       		.uleb128 0x23
 3106 0a3a 3C040000 		.4byte	.LASF111
 3107 0a3e 02       		.byte	0x2
 3108 0a3f 45       		.byte	0x45
 3109 0a40 330A0000 		.4byte	0xa33
 3110 0a44 05       		.uleb128 0x5
 3111 0a45 03       		.byte	0x3
 3112 0a46 00000000 		.4byte	lv_txt_encoded_get_char_id
 3113 0a4a 0D       		.uleb128 0xd
 3114 0a4b E4000000 		.4byte	0xe4
ARM GAS  C:\Users\tmj32\AppData\Local\Temp\ccPoPccU.s 			page 73


 3115 0a4f 590A0000 		.4byte	0xa59
 3116 0a53 0E       		.uleb128 0xe
 3117 0a54 22010000 		.4byte	0x122
 3118 0a58 00       		.byte	0
 3119 0a59 23       		.uleb128 0x23
 3120 0a5a EA030000 		.4byte	.LASF112
 3121 0a5e 02       		.byte	0x2
 3122 0a5f 46       		.byte	0x46
 3123 0a60 6A0A0000 		.4byte	0xa6a
 3124 0a64 05       		.uleb128 0x5
 3125 0a65 03       		.byte	0x3
 3126 0a66 00000000 		.4byte	lv_txt_get_encoded_length
 3127 0a6a 06       		.uleb128 0x6
 3128 0a6b 04       		.byte	0x4
 3129 0a6c 4A0A0000 		.4byte	0xa4a
 3130 0a70 00       		.byte	0
 3131              		.section	.debug_abbrev,"",%progbits
 3132              	.Ldebug_abbrev0:
 3133 0000 01       		.uleb128 0x1
 3134 0001 11       		.uleb128 0x11
 3135 0002 01       		.byte	0x1
 3136 0003 25       		.uleb128 0x25
 3137 0004 0E       		.uleb128 0xe
 3138 0005 13       		.uleb128 0x13
 3139 0006 0B       		.uleb128 0xb
 3140 0007 03       		.uleb128 0x3
 3141 0008 0E       		.uleb128 0xe
 3142 0009 1B       		.uleb128 0x1b
 3143 000a 0E       		.uleb128 0xe
 3144 000b 55       		.uleb128 0x55
 3145 000c 17       		.uleb128 0x17
 3146 000d 11       		.uleb128 0x11
 3147 000e 01       		.uleb128 0x1
 3148 000f 10       		.uleb128 0x10
 3149 0010 17       		.uleb128 0x17
 3150 0011 00       		.byte	0
 3151 0012 00       		.byte	0
 3152 0013 02       		.uleb128 0x2
 3153 0014 16       		.uleb128 0x16
 3154 0015 00       		.byte	0
 3155 0016 03       		.uleb128 0x3
 3156 0017 0E       		.uleb128 0xe
 3157 0018 3A       		.uleb128 0x3a
 3158 0019 0B       		.uleb128 0xb
 3159 001a 3B       		.uleb128 0x3b
 3160 001b 0B       		.uleb128 0xb
 3161 001c 49       		.uleb128 0x49
 3162 001d 13       		.uleb128 0x13
 3163 001e 00       		.byte	0
 3164 001f 00       		.byte	0
 3165 0020 03       		.uleb128 0x3
 3166 0021 24       		.uleb128 0x24
 3167 0022 00       		.byte	0
 3168 0023 0B       		.uleb128 0xb
 3169 0024 0B       		.uleb128 0xb
 3170 0025 3E       		.uleb128 0x3e
 3171 0026 0B       		.uleb128 0xb
ARM GAS  C:\Users\tmj32\AppData\Local\Temp\ccPoPccU.s 			page 74


 3172 0027 03       		.uleb128 0x3
 3173 0028 0E       		.uleb128 0xe
 3174 0029 00       		.byte	0
 3175 002a 00       		.byte	0
 3176 002b 04       		.uleb128 0x4
 3177 002c 24       		.uleb128 0x24
 3178 002d 00       		.byte	0
 3179 002e 0B       		.uleb128 0xb
 3180 002f 0B       		.uleb128 0xb
 3181 0030 3E       		.uleb128 0x3e
 3182 0031 0B       		.uleb128 0xb
 3183 0032 03       		.uleb128 0x3
 3184 0033 08       		.uleb128 0x8
 3185 0034 00       		.byte	0
 3186 0035 00       		.byte	0
 3187 0036 05       		.uleb128 0x5
 3188 0037 0F       		.uleb128 0xf
 3189 0038 00       		.byte	0
 3190 0039 0B       		.uleb128 0xb
 3191 003a 0B       		.uleb128 0xb
 3192 003b 00       		.byte	0
 3193 003c 00       		.byte	0
 3194 003d 06       		.uleb128 0x6
 3195 003e 0F       		.uleb128 0xf
 3196 003f 00       		.byte	0
 3197 0040 0B       		.uleb128 0xb
 3198 0041 0B       		.uleb128 0xb
 3199 0042 49       		.uleb128 0x49
 3200 0043 13       		.uleb128 0x13
 3201 0044 00       		.byte	0
 3202 0045 00       		.byte	0
 3203 0046 07       		.uleb128 0x7
 3204 0047 26       		.uleb128 0x26
 3205 0048 00       		.byte	0
 3206 0049 49       		.uleb128 0x49
 3207 004a 13       		.uleb128 0x13
 3208 004b 00       		.byte	0
 3209 004c 00       		.byte	0
 3210 004d 08       		.uleb128 0x8
 3211 004e 13       		.uleb128 0x13
 3212 004f 01       		.byte	0x1
 3213 0050 0B       		.uleb128 0xb
 3214 0051 0B       		.uleb128 0xb
 3215 0052 3A       		.uleb128 0x3a
 3216 0053 0B       		.uleb128 0xb
 3217 0054 3B       		.uleb128 0x3b
 3218 0055 0B       		.uleb128 0xb
 3219 0056 01       		.uleb128 0x1
 3220 0057 13       		.uleb128 0x13
 3221 0058 00       		.byte	0
 3222 0059 00       		.byte	0
 3223 005a 09       		.uleb128 0x9
 3224 005b 0D       		.uleb128 0xd
 3225 005c 00       		.byte	0
 3226 005d 03       		.uleb128 0x3
 3227 005e 08       		.uleb128 0x8
 3228 005f 3A       		.uleb128 0x3a
ARM GAS  C:\Users\tmj32\AppData\Local\Temp\ccPoPccU.s 			page 75


 3229 0060 0B       		.uleb128 0xb
 3230 0061 3B       		.uleb128 0x3b
 3231 0062 0B       		.uleb128 0xb
 3232 0063 49       		.uleb128 0x49
 3233 0064 13       		.uleb128 0x13
 3234 0065 38       		.uleb128 0x38
 3235 0066 0B       		.uleb128 0xb
 3236 0067 00       		.byte	0
 3237 0068 00       		.byte	0
 3238 0069 0A       		.uleb128 0xa
 3239 006a 0D       		.uleb128 0xd
 3240 006b 00       		.byte	0
 3241 006c 03       		.uleb128 0x3
 3242 006d 0E       		.uleb128 0xe
 3243 006e 3A       		.uleb128 0x3a
 3244 006f 0B       		.uleb128 0xb
 3245 0070 3B       		.uleb128 0x3b
 3246 0071 0B       		.uleb128 0xb
 3247 0072 49       		.uleb128 0x49
 3248 0073 13       		.uleb128 0x13
 3249 0074 38       		.uleb128 0x38
 3250 0075 0B       		.uleb128 0xb
 3251 0076 00       		.byte	0
 3252 0077 00       		.byte	0
 3253 0078 0B       		.uleb128 0xb
 3254 0079 13       		.uleb128 0x13
 3255 007a 01       		.byte	0x1
 3256 007b 03       		.uleb128 0x3
 3257 007c 0E       		.uleb128 0xe
 3258 007d 0B       		.uleb128 0xb
 3259 007e 0B       		.uleb128 0xb
 3260 007f 3A       		.uleb128 0x3a
 3261 0080 0B       		.uleb128 0xb
 3262 0081 3B       		.uleb128 0x3b
 3263 0082 0B       		.uleb128 0xb
 3264 0083 01       		.uleb128 0x1
 3265 0084 13       		.uleb128 0x13
 3266 0085 00       		.byte	0
 3267 0086 00       		.byte	0
 3268 0087 0C       		.uleb128 0xc
 3269 0088 0D       		.uleb128 0xd
 3270 0089 00       		.byte	0
 3271 008a 03       		.uleb128 0x3
 3272 008b 0E       		.uleb128 0xe
 3273 008c 3A       		.uleb128 0x3a
 3274 008d 0B       		.uleb128 0xb
 3275 008e 3B       		.uleb128 0x3b
 3276 008f 0B       		.uleb128 0xb
 3277 0090 49       		.uleb128 0x49
 3278 0091 13       		.uleb128 0x13
 3279 0092 0B       		.uleb128 0xb
 3280 0093 0B       		.uleb128 0xb
 3281 0094 0D       		.uleb128 0xd
 3282 0095 0B       		.uleb128 0xb
 3283 0096 0C       		.uleb128 0xc
 3284 0097 0B       		.uleb128 0xb
 3285 0098 38       		.uleb128 0x38
ARM GAS  C:\Users\tmj32\AppData\Local\Temp\ccPoPccU.s 			page 76


 3286 0099 0B       		.uleb128 0xb
 3287 009a 00       		.byte	0
 3288 009b 00       		.byte	0
 3289 009c 0D       		.uleb128 0xd
 3290 009d 15       		.uleb128 0x15
 3291 009e 01       		.byte	0x1
 3292 009f 27       		.uleb128 0x27
 3293 00a0 19       		.uleb128 0x19
 3294 00a1 49       		.uleb128 0x49
 3295 00a2 13       		.uleb128 0x13
 3296 00a3 01       		.uleb128 0x1
 3297 00a4 13       		.uleb128 0x13
 3298 00a5 00       		.byte	0
 3299 00a6 00       		.byte	0
 3300 00a7 0E       		.uleb128 0xe
 3301 00a8 05       		.uleb128 0x5
 3302 00a9 00       		.byte	0
 3303 00aa 49       		.uleb128 0x49
 3304 00ab 13       		.uleb128 0x13
 3305 00ac 00       		.byte	0
 3306 00ad 00       		.byte	0
 3307 00ae 0F       		.uleb128 0xf
 3308 00af 04       		.uleb128 0x4
 3309 00b0 01       		.byte	0x1
 3310 00b1 0B       		.uleb128 0xb
 3311 00b2 0B       		.uleb128 0xb
 3312 00b3 49       		.uleb128 0x49
 3313 00b4 13       		.uleb128 0x13
 3314 00b5 3A       		.uleb128 0x3a
 3315 00b6 0B       		.uleb128 0xb
 3316 00b7 3B       		.uleb128 0x3b
 3317 00b8 0B       		.uleb128 0xb
 3318 00b9 01       		.uleb128 0x1
 3319 00ba 13       		.uleb128 0x13
 3320 00bb 00       		.byte	0
 3321 00bc 00       		.byte	0
 3322 00bd 10       		.uleb128 0x10
 3323 00be 28       		.uleb128 0x28
 3324 00bf 00       		.byte	0
 3325 00c0 03       		.uleb128 0x3
 3326 00c1 0E       		.uleb128 0xe
 3327 00c2 1C       		.uleb128 0x1c
 3328 00c3 0B       		.uleb128 0xb
 3329 00c4 00       		.byte	0
 3330 00c5 00       		.byte	0
 3331 00c6 11       		.uleb128 0x11
 3332 00c7 2E       		.uleb128 0x2e
 3333 00c8 01       		.byte	0x1
 3334 00c9 03       		.uleb128 0x3
 3335 00ca 0E       		.uleb128 0xe
 3336 00cb 3A       		.uleb128 0x3a
 3337 00cc 0B       		.uleb128 0xb
 3338 00cd 3B       		.uleb128 0x3b
 3339 00ce 0B       		.uleb128 0xb
 3340 00cf 27       		.uleb128 0x27
 3341 00d0 19       		.uleb128 0x19
 3342 00d1 49       		.uleb128 0x49
ARM GAS  C:\Users\tmj32\AppData\Local\Temp\ccPoPccU.s 			page 77


 3343 00d2 13       		.uleb128 0x13
 3344 00d3 11       		.uleb128 0x11
 3345 00d4 01       		.uleb128 0x1
 3346 00d5 12       		.uleb128 0x12
 3347 00d6 06       		.uleb128 0x6
 3348 00d7 40       		.uleb128 0x40
 3349 00d8 18       		.uleb128 0x18
 3350 00d9 9742     		.uleb128 0x2117
 3351 00db 19       		.uleb128 0x19
 3352 00dc 01       		.uleb128 0x1
 3353 00dd 13       		.uleb128 0x13
 3354 00de 00       		.byte	0
 3355 00df 00       		.byte	0
 3356 00e0 12       		.uleb128 0x12
 3357 00e1 05       		.uleb128 0x5
 3358 00e2 00       		.byte	0
 3359 00e3 03       		.uleb128 0x3
 3360 00e4 0E       		.uleb128 0xe
 3361 00e5 3A       		.uleb128 0x3a
 3362 00e6 0B       		.uleb128 0xb
 3363 00e7 3B       		.uleb128 0x3b
 3364 00e8 0B       		.uleb128 0xb
 3365 00e9 49       		.uleb128 0x49
 3366 00ea 13       		.uleb128 0x13
 3367 00eb 02       		.uleb128 0x2
 3368 00ec 18       		.uleb128 0x18
 3369 00ed 00       		.byte	0
 3370 00ee 00       		.byte	0
 3371 00ef 13       		.uleb128 0x13
 3372 00f0 2E       		.uleb128 0x2e
 3373 00f1 01       		.byte	0x1
 3374 00f2 3F       		.uleb128 0x3f
 3375 00f3 19       		.uleb128 0x19
 3376 00f4 03       		.uleb128 0x3
 3377 00f5 0E       		.uleb128 0xe
 3378 00f6 3A       		.uleb128 0x3a
 3379 00f7 0B       		.uleb128 0xb
 3380 00f8 3B       		.uleb128 0x3b
 3381 00f9 0B       		.uleb128 0xb
 3382 00fa 27       		.uleb128 0x27
 3383 00fb 19       		.uleb128 0x19
 3384 00fc 11       		.uleb128 0x11
 3385 00fd 01       		.uleb128 0x1
 3386 00fe 12       		.uleb128 0x12
 3387 00ff 06       		.uleb128 0x6
 3388 0100 40       		.uleb128 0x40
 3389 0101 18       		.uleb128 0x18
 3390 0102 9642     		.uleb128 0x2116
 3391 0104 19       		.uleb128 0x19
 3392 0105 01       		.uleb128 0x1
 3393 0106 13       		.uleb128 0x13
 3394 0107 00       		.byte	0
 3395 0108 00       		.byte	0
 3396 0109 14       		.uleb128 0x14
 3397 010a 34       		.uleb128 0x34
 3398 010b 00       		.byte	0
 3399 010c 03       		.uleb128 0x3
ARM GAS  C:\Users\tmj32\AppData\Local\Temp\ccPoPccU.s 			page 78


 3400 010d 0E       		.uleb128 0xe
 3401 010e 3A       		.uleb128 0x3a
 3402 010f 0B       		.uleb128 0xb
 3403 0110 3B       		.uleb128 0x3b
 3404 0111 0B       		.uleb128 0xb
 3405 0112 49       		.uleb128 0x49
 3406 0113 13       		.uleb128 0x13
 3407 0114 02       		.uleb128 0x2
 3408 0115 18       		.uleb128 0x18
 3409 0116 00       		.byte	0
 3410 0117 00       		.byte	0
 3411 0118 15       		.uleb128 0x15
 3412 0119 2E       		.uleb128 0x2e
 3413 011a 01       		.byte	0x1
 3414 011b 03       		.uleb128 0x3
 3415 011c 0E       		.uleb128 0xe
 3416 011d 3A       		.uleb128 0x3a
 3417 011e 0B       		.uleb128 0xb
 3418 011f 3B       		.uleb128 0x3b
 3419 0120 0B       		.uleb128 0xb
 3420 0121 27       		.uleb128 0x27
 3421 0122 19       		.uleb128 0x19
 3422 0123 49       		.uleb128 0x49
 3423 0124 13       		.uleb128 0x13
 3424 0125 11       		.uleb128 0x11
 3425 0126 01       		.uleb128 0x1
 3426 0127 12       		.uleb128 0x12
 3427 0128 06       		.uleb128 0x6
 3428 0129 40       		.uleb128 0x40
 3429 012a 18       		.uleb128 0x18
 3430 012b 9642     		.uleb128 0x2116
 3431 012d 19       		.uleb128 0x19
 3432 012e 01       		.uleb128 0x1
 3433 012f 13       		.uleb128 0x13
 3434 0130 00       		.byte	0
 3435 0131 00       		.byte	0
 3436 0132 16       		.uleb128 0x16
 3437 0133 05       		.uleb128 0x5
 3438 0134 00       		.byte	0
 3439 0135 03       		.uleb128 0x3
 3440 0136 08       		.uleb128 0x8
 3441 0137 3A       		.uleb128 0x3a
 3442 0138 0B       		.uleb128 0xb
 3443 0139 3B       		.uleb128 0x3b
 3444 013a 0B       		.uleb128 0xb
 3445 013b 49       		.uleb128 0x49
 3446 013c 13       		.uleb128 0x13
 3447 013d 02       		.uleb128 0x2
 3448 013e 18       		.uleb128 0x18
 3449 013f 00       		.byte	0
 3450 0140 00       		.byte	0
 3451 0141 17       		.uleb128 0x17
 3452 0142 34       		.uleb128 0x34
 3453 0143 00       		.byte	0
 3454 0144 03       		.uleb128 0x3
 3455 0145 08       		.uleb128 0x8
 3456 0146 3A       		.uleb128 0x3a
ARM GAS  C:\Users\tmj32\AppData\Local\Temp\ccPoPccU.s 			page 79


 3457 0147 0B       		.uleb128 0xb
 3458 0148 3B       		.uleb128 0x3b
 3459 0149 0B       		.uleb128 0xb
 3460 014a 49       		.uleb128 0x49
 3461 014b 13       		.uleb128 0x13
 3462 014c 02       		.uleb128 0x2
 3463 014d 18       		.uleb128 0x18
 3464 014e 00       		.byte	0
 3465 014f 00       		.byte	0
 3466 0150 18       		.uleb128 0x18
 3467 0151 0B       		.uleb128 0xb
 3468 0152 01       		.byte	0x1
 3469 0153 11       		.uleb128 0x11
 3470 0154 01       		.uleb128 0x1
 3471 0155 12       		.uleb128 0x12
 3472 0156 06       		.uleb128 0x6
 3473 0157 00       		.byte	0
 3474 0158 00       		.byte	0
 3475 0159 19       		.uleb128 0x19
 3476 015a 34       		.uleb128 0x34
 3477 015b 00       		.byte	0
 3478 015c 03       		.uleb128 0x3
 3479 015d 0E       		.uleb128 0xe
 3480 015e 3A       		.uleb128 0x3a
 3481 015f 0B       		.uleb128 0xb
 3482 0160 3B       		.uleb128 0x3b
 3483 0161 05       		.uleb128 0x5
 3484 0162 49       		.uleb128 0x49
 3485 0163 13       		.uleb128 0x13
 3486 0164 02       		.uleb128 0x2
 3487 0165 18       		.uleb128 0x18
 3488 0166 00       		.byte	0
 3489 0167 00       		.byte	0
 3490 0168 1A       		.uleb128 0x1a
 3491 0169 2E       		.uleb128 0x2e
 3492 016a 01       		.byte	0x1
 3493 016b 3F       		.uleb128 0x3f
 3494 016c 19       		.uleb128 0x19
 3495 016d 03       		.uleb128 0x3
 3496 016e 0E       		.uleb128 0xe
 3497 016f 3A       		.uleb128 0x3a
 3498 0170 0B       		.uleb128 0xb
 3499 0171 3B       		.uleb128 0x3b
 3500 0172 05       		.uleb128 0x5
 3501 0173 27       		.uleb128 0x27
 3502 0174 19       		.uleb128 0x19
 3503 0175 49       		.uleb128 0x49
 3504 0176 13       		.uleb128 0x13
 3505 0177 11       		.uleb128 0x11
 3506 0178 01       		.uleb128 0x1
 3507 0179 12       		.uleb128 0x12
 3508 017a 06       		.uleb128 0x6
 3509 017b 40       		.uleb128 0x40
 3510 017c 18       		.uleb128 0x18
 3511 017d 9642     		.uleb128 0x2116
 3512 017f 19       		.uleb128 0x19
 3513 0180 01       		.uleb128 0x1
ARM GAS  C:\Users\tmj32\AppData\Local\Temp\ccPoPccU.s 			page 80


 3514 0181 13       		.uleb128 0x13
 3515 0182 00       		.byte	0
 3516 0183 00       		.byte	0
 3517 0184 1B       		.uleb128 0x1b
 3518 0185 05       		.uleb128 0x5
 3519 0186 00       		.byte	0
 3520 0187 03       		.uleb128 0x3
 3521 0188 08       		.uleb128 0x8
 3522 0189 3A       		.uleb128 0x3a
 3523 018a 0B       		.uleb128 0xb
 3524 018b 3B       		.uleb128 0x3b
 3525 018c 05       		.uleb128 0x5
 3526 018d 49       		.uleb128 0x49
 3527 018e 13       		.uleb128 0x13
 3528 018f 02       		.uleb128 0x2
 3529 0190 18       		.uleb128 0x18
 3530 0191 00       		.byte	0
 3531 0192 00       		.byte	0
 3532 0193 1C       		.uleb128 0x1c
 3533 0194 05       		.uleb128 0x5
 3534 0195 00       		.byte	0
 3535 0196 03       		.uleb128 0x3
 3536 0197 0E       		.uleb128 0xe
 3537 0198 3A       		.uleb128 0x3a
 3538 0199 0B       		.uleb128 0xb
 3539 019a 3B       		.uleb128 0x3b
 3540 019b 05       		.uleb128 0x5
 3541 019c 49       		.uleb128 0x49
 3542 019d 13       		.uleb128 0x13
 3543 019e 02       		.uleb128 0x2
 3544 019f 18       		.uleb128 0x18
 3545 01a0 00       		.byte	0
 3546 01a1 00       		.byte	0
 3547 01a2 1D       		.uleb128 0x1d
 3548 01a3 34       		.uleb128 0x34
 3549 01a4 00       		.byte	0
 3550 01a5 03       		.uleb128 0x3
 3551 01a6 08       		.uleb128 0x8
 3552 01a7 3A       		.uleb128 0x3a
 3553 01a8 0B       		.uleb128 0xb
 3554 01a9 3B       		.uleb128 0x3b
 3555 01aa 05       		.uleb128 0x5
 3556 01ab 49       		.uleb128 0x49
 3557 01ac 13       		.uleb128 0x13
 3558 01ad 02       		.uleb128 0x2
 3559 01ae 18       		.uleb128 0x18
 3560 01af 00       		.byte	0
 3561 01b0 00       		.byte	0
 3562 01b1 1E       		.uleb128 0x1e
 3563 01b2 0B       		.uleb128 0xb
 3564 01b3 01       		.byte	0x1
 3565 01b4 55       		.uleb128 0x55
 3566 01b5 17       		.uleb128 0x17
 3567 01b6 00       		.byte	0
 3568 01b7 00       		.byte	0
 3569 01b8 1F       		.uleb128 0x1f
 3570 01b9 2E       		.uleb128 0x2e
ARM GAS  C:\Users\tmj32\AppData\Local\Temp\ccPoPccU.s 			page 81


 3571 01ba 01       		.byte	0x1
 3572 01bb 3F       		.uleb128 0x3f
 3573 01bc 19       		.uleb128 0x19
 3574 01bd 03       		.uleb128 0x3
 3575 01be 0E       		.uleb128 0xe
 3576 01bf 3A       		.uleb128 0x3a
 3577 01c0 0B       		.uleb128 0xb
 3578 01c1 3B       		.uleb128 0x3b
 3579 01c2 05       		.uleb128 0x5
 3580 01c3 27       		.uleb128 0x27
 3581 01c4 19       		.uleb128 0x19
 3582 01c5 49       		.uleb128 0x49
 3583 01c6 13       		.uleb128 0x13
 3584 01c7 11       		.uleb128 0x11
 3585 01c8 01       		.uleb128 0x1
 3586 01c9 12       		.uleb128 0x12
 3587 01ca 06       		.uleb128 0x6
 3588 01cb 40       		.uleb128 0x40
 3589 01cc 18       		.uleb128 0x18
 3590 01cd 9742     		.uleb128 0x2117
 3591 01cf 19       		.uleb128 0x19
 3592 01d0 01       		.uleb128 0x1
 3593 01d1 13       		.uleb128 0x13
 3594 01d2 00       		.byte	0
 3595 01d3 00       		.byte	0
 3596 01d4 20       		.uleb128 0x20
 3597 01d5 2E       		.uleb128 0x2e
 3598 01d6 01       		.byte	0x1
 3599 01d7 3F       		.uleb128 0x3f
 3600 01d8 19       		.uleb128 0x19
 3601 01d9 03       		.uleb128 0x3
 3602 01da 0E       		.uleb128 0xe
 3603 01db 3A       		.uleb128 0x3a
 3604 01dc 0B       		.uleb128 0xb
 3605 01dd 3B       		.uleb128 0x3b
 3606 01de 05       		.uleb128 0x5
 3607 01df 27       		.uleb128 0x27
 3608 01e0 19       		.uleb128 0x19
 3609 01e1 11       		.uleb128 0x11
 3610 01e2 01       		.uleb128 0x1
 3611 01e3 12       		.uleb128 0x12
 3612 01e4 06       		.uleb128 0x6
 3613 01e5 40       		.uleb128 0x40
 3614 01e6 18       		.uleb128 0x18
 3615 01e7 9642     		.uleb128 0x2116
 3616 01e9 19       		.uleb128 0x19
 3617 01ea 01       		.uleb128 0x1
 3618 01eb 13       		.uleb128 0x13
 3619 01ec 00       		.byte	0
 3620 01ed 00       		.byte	0
 3621 01ee 21       		.uleb128 0x21
 3622 01ef 2E       		.uleb128 0x2e
 3623 01f0 01       		.byte	0x1
 3624 01f1 03       		.uleb128 0x3
 3625 01f2 0E       		.uleb128 0xe
 3626 01f3 3A       		.uleb128 0x3a
 3627 01f4 0B       		.uleb128 0xb
ARM GAS  C:\Users\tmj32\AppData\Local\Temp\ccPoPccU.s 			page 82


 3628 01f5 3B       		.uleb128 0x3b
 3629 01f6 05       		.uleb128 0x5
 3630 01f7 27       		.uleb128 0x27
 3631 01f8 19       		.uleb128 0x19
 3632 01f9 49       		.uleb128 0x49
 3633 01fa 13       		.uleb128 0x13
 3634 01fb 11       		.uleb128 0x11
 3635 01fc 01       		.uleb128 0x1
 3636 01fd 12       		.uleb128 0x12
 3637 01fe 06       		.uleb128 0x6
 3638 01ff 40       		.uleb128 0x40
 3639 0200 18       		.uleb128 0x18
 3640 0201 9742     		.uleb128 0x2117
 3641 0203 19       		.uleb128 0x19
 3642 0204 01       		.uleb128 0x1
 3643 0205 13       		.uleb128 0x13
 3644 0206 00       		.byte	0
 3645 0207 00       		.byte	0
 3646 0208 22       		.uleb128 0x22
 3647 0209 2E       		.uleb128 0x2e
 3648 020a 01       		.byte	0x1
 3649 020b 03       		.uleb128 0x3
 3650 020c 0E       		.uleb128 0xe
 3651 020d 3A       		.uleb128 0x3a
 3652 020e 0B       		.uleb128 0xb
 3653 020f 3B       		.uleb128 0x3b
 3654 0210 05       		.uleb128 0x5
 3655 0211 27       		.uleb128 0x27
 3656 0212 19       		.uleb128 0x19
 3657 0213 49       		.uleb128 0x49
 3658 0214 13       		.uleb128 0x13
 3659 0215 11       		.uleb128 0x11
 3660 0216 01       		.uleb128 0x1
 3661 0217 12       		.uleb128 0x12
 3662 0218 06       		.uleb128 0x6
 3663 0219 40       		.uleb128 0x40
 3664 021a 18       		.uleb128 0x18
 3665 021b 9642     		.uleb128 0x2116
 3666 021d 19       		.uleb128 0x19
 3667 021e 01       		.uleb128 0x1
 3668 021f 13       		.uleb128 0x13
 3669 0220 00       		.byte	0
 3670 0221 00       		.byte	0
 3671 0222 23       		.uleb128 0x23
 3672 0223 34       		.uleb128 0x34
 3673 0224 00       		.byte	0
 3674 0225 03       		.uleb128 0x3
 3675 0226 0E       		.uleb128 0xe
 3676 0227 3A       		.uleb128 0x3a
 3677 0228 0B       		.uleb128 0xb
 3678 0229 3B       		.uleb128 0x3b
 3679 022a 0B       		.uleb128 0xb
 3680 022b 49       		.uleb128 0x49
 3681 022c 13       		.uleb128 0x13
 3682 022d 3F       		.uleb128 0x3f
 3683 022e 19       		.uleb128 0x19
 3684 022f 02       		.uleb128 0x2
ARM GAS  C:\Users\tmj32\AppData\Local\Temp\ccPoPccU.s 			page 83


 3685 0230 18       		.uleb128 0x18
 3686 0231 00       		.byte	0
 3687 0232 00       		.byte	0
 3688 0233 00       		.byte	0
 3689              		.section	.debug_aranges,"",%progbits
 3690 0000 9C000000 		.4byte	0x9c
 3691 0004 0200     		.2byte	0x2
 3692 0006 00000000 		.4byte	.Ldebug_info0
 3693 000a 04       		.byte	0x4
 3694 000b 00       		.byte	0
 3695 000c 0000     		.2byte	0
 3696 000e 0000     		.2byte	0
 3697 0010 00000000 		.4byte	.LFB3
 3698 0014 18000000 		.4byte	.LFE3-.LFB3
 3699 0018 00000000 		.4byte	.LFB4
 3700 001c 7E010000 		.4byte	.LFE4-.LFB4
 3701 0020 00000000 		.4byte	.LFB5
 3702 0024 20020000 		.4byte	.LFE5-.LFB5
 3703 0028 00000000 		.4byte	.LFB6
 3704 002c 24010000 		.4byte	.LFE6-.LFB6
 3705 0030 00000000 		.4byte	.LFB7
 3706 0034 D4000000 		.4byte	.LFE7-.LFB7
 3707 0038 00000000 		.4byte	.LFB8
 3708 003c 74000000 		.4byte	.LFE8-.LFB8
 3709 0040 00000000 		.4byte	.LFB9
 3710 0044 78000000 		.4byte	.LFE9-.LFB9
 3711 0048 00000000 		.4byte	.LFB10
 3712 004c 6C000000 		.4byte	.LFE10-.LFB10
 3713 0050 00000000 		.4byte	.LFB11
 3714 0054 16000000 		.4byte	.LFE11-.LFB11
 3715 0058 00000000 		.4byte	.LFB12
 3716 005c 20000000 		.4byte	.LFE12-.LFB12
 3717 0060 00000000 		.4byte	.LFB13
 3718 0064 16000000 		.4byte	.LFE13-.LFB13
 3719 0068 00000000 		.4byte	.LFB14
 3720 006c 3C000000 		.4byte	.LFE14-.LFB14
 3721 0070 00000000 		.4byte	.LFB15
 3722 0074 3C000000 		.4byte	.LFE15-.LFB15
 3723 0078 00000000 		.4byte	.LFB16
 3724 007c 18000000 		.4byte	.LFE16-.LFB16
 3725 0080 00000000 		.4byte	.LFB17
 3726 0084 18000000 		.4byte	.LFE17-.LFB17
 3727 0088 00000000 		.4byte	.LFB18
 3728 008c 18000000 		.4byte	.LFE18-.LFB18
 3729 0090 00000000 		.4byte	.LFB19
 3730 0094 48000000 		.4byte	.LFE19-.LFB19
 3731 0098 00000000 		.4byte	0
 3732 009c 00000000 		.4byte	0
 3733              		.section	.debug_ranges,"",%progbits
 3734              	.Ldebug_ranges0:
 3735 0000 46000000 		.4byte	.LBB3
 3736 0004 E6000000 		.4byte	.LBE3
 3737 0008 FC000000 		.4byte	.LBB4
 3738 000c FE000000 		.4byte	.LBE4
 3739 0010 00000000 		.4byte	0
 3740 0014 00000000 		.4byte	0
 3741 0018 00000000 		.4byte	.LFB3
ARM GAS  C:\Users\tmj32\AppData\Local\Temp\ccPoPccU.s 			page 84


 3742 001c 18000000 		.4byte	.LFE3
 3743 0020 00000000 		.4byte	.LFB4
 3744 0024 7E010000 		.4byte	.LFE4
 3745 0028 00000000 		.4byte	.LFB5
 3746 002c 20020000 		.4byte	.LFE5
 3747 0030 00000000 		.4byte	.LFB6
 3748 0034 24010000 		.4byte	.LFE6
 3749 0038 00000000 		.4byte	.LFB7
 3750 003c D4000000 		.4byte	.LFE7
 3751 0040 00000000 		.4byte	.LFB8
 3752 0044 74000000 		.4byte	.LFE8
 3753 0048 00000000 		.4byte	.LFB9
 3754 004c 78000000 		.4byte	.LFE9
 3755 0050 00000000 		.4byte	.LFB10
 3756 0054 6C000000 		.4byte	.LFE10
 3757 0058 00000000 		.4byte	.LFB11
 3758 005c 16000000 		.4byte	.LFE11
 3759 0060 00000000 		.4byte	.LFB12
 3760 0064 20000000 		.4byte	.LFE12
 3761 0068 00000000 		.4byte	.LFB13
 3762 006c 16000000 		.4byte	.LFE13
 3763 0070 00000000 		.4byte	.LFB14
 3764 0074 3C000000 		.4byte	.LFE14
 3765 0078 00000000 		.4byte	.LFB15
 3766 007c 3C000000 		.4byte	.LFE15
 3767 0080 00000000 		.4byte	.LFB16
 3768 0084 18000000 		.4byte	.LFE16
 3769 0088 00000000 		.4byte	.LFB17
 3770 008c 18000000 		.4byte	.LFE17
 3771 0090 00000000 		.4byte	.LFB18
 3772 0094 18000000 		.4byte	.LFE18
 3773 0098 00000000 		.4byte	.LFB19
 3774 009c 48000000 		.4byte	.LFE19
 3775 00a0 00000000 		.4byte	0
 3776 00a4 00000000 		.4byte	0
 3777              		.section	.debug_line,"",%progbits
 3778              	.Ldebug_line0:
 3779 0000 99050000 		.section	.debug_str,"MS",%progbits,1
 3779      02006C02 
 3779      00000201 
 3779      FB0E0D00 
 3779      01010101 
 3780              	.LASF67:
 3781 0000 695F6E65 		.ascii	"i_next_next\000"
 3781      78745F6E 
 3781      65787400 
 3782              	.LASF106:
 3783 000c 6C765F74 		.ascii	"lv_txt_unicode_to_encoded\000"
 3783      78745F75 
 3783      6E69636F 
 3783      64655F74 
 3783      6F5F656E 
 3784              	.LASF89:
 3785 0026 6F6C645F 		.ascii	"old_len\000"
 3785      6C656E00 
 3786              	.LASF60:
 3787 002e 6C657474 		.ascii	"letter_height\000"
ARM GAS  C:\Users\tmj32\AppData\Local\Temp\ccPoPccU.s 			page 85


 3787      65725F68 
 3787      65696768 
 3787      7400
 3788              	.LASF96:
 3789 003c 6C765F74 		.ascii	"lv_txt_iso8859_1_conv_wc\000"
 3789      78745F69 
 3789      736F3838 
 3789      35395F31 
 3789      5F636F6E 
 3790              	.LASF14:
 3791 0055 756E7369 		.ascii	"unsigned int\000"
 3791      676E6564 
 3791      20696E74 
 3791      00
 3792              	.LASF30:
 3793 0062 6F66735F 		.ascii	"ofs_x\000"
 3793      7800
 3794              	.LASF31:
 3795 0068 6F66735F 		.ascii	"ofs_y\000"
 3795      7900
 3796              	.LASF33:
 3797 006e 6765745F 		.ascii	"get_glyph_dsc\000"
 3797      676C7970 
 3797      685F6473 
 3797      6300
 3798              	.LASF26:
 3799 007c 6C765F70 		.ascii	"lv_point_t\000"
 3799      6F696E74 
 3799      5F7400
 3800              	.LASF8:
 3801 0087 5F5F696E 		.ascii	"__int32_t\000"
 3801      7433325F 
 3801      7400
 3802              	.LASF108:
 3803 0091 6C765F74 		.ascii	"lv_txt_encoded_next\000"
 3803      78745F65 
 3803      6E636F64 
 3803      65645F6E 
 3803      65787400 
 3804              	.LASF72:
 3805 00a5 776F7264 		.ascii	"word_len\000"
 3805      5F6C656E 
 3805      00
 3806              	.LASF85:
 3807 00ae 6C765F74 		.ascii	"lv_txt_get_size\000"
 3807      78745F67 
 3807      65745F73 
 3807      697A6500 
 3808              	.LASF70:
 3809 00be 6C657474 		.ascii	"letter_w\000"
 3809      65725F77 
 3809      00
 3810              	.LASF109:
 3811 00c7 6C765F74 		.ascii	"lv_txt_encoded_prev\000"
 3811      78745F65 
 3811      6E636F64 
 3811      65645F70 
ARM GAS  C:\Users\tmj32\AppData\Local\Temp\ccPoPccU.s 			page 86


 3811      72657600 
 3812              	.LASF40:
 3813 00db 4C565F54 		.ascii	"LV_TXT_FLAG_RECOLOR\000"
 3813      58545F46 
 3813      4C41475F 
 3813      5245434F 
 3813      4C4F5200 
 3814              	.LASF115:
 3815 00ef 433A5C55 		.ascii	"C:\\Users\\tmj32\\Documents\\TCNJ\\Senior_Project\\"
 3815      73657273 
 3815      5C746D6A 
 3815      33325C44 
 3815      6F63756D 
 3816 011c 4F736369 		.ascii	"Oscilloscope_Senior_Project\\tcom_engineering\\embe"
 3816      6C6C6F73 
 3816      636F7065 
 3816      5F53656E 
 3816      696F725F 
 3817 014d 645F7377 		.ascii	"d_sw\\tcom_app\\tcom_app_psoc6_lvgl6\\tcom_displ_te"
 3817      5C74636F 
 3817      6D5F6170 
 3817      705C7463 
 3817      6F6D5F61 
 3818 017d 73745F70 		.ascii	"st_psoc6.cydsn\000"
 3818      736F6336 
 3818      2E637964 
 3818      736E00
 3819              	.LASF69:
 3820 018c 6C657474 		.ascii	"letter_next\000"
 3820      65725F6E 
 3820      65787400 
 3821              	.LASF42:
 3822 0198 4C565F54 		.ascii	"LV_TXT_FLAG_CENTER\000"
 3822      58545F46 
 3822      4C41475F 
 3822      43454E54 
 3822      455200
 3823              	.LASF20:
 3824 01ab 75696E74 		.ascii	"uint32_t\000"
 3824      33325F74 
 3824      00
 3825              	.LASF15:
 3826 01b4 696E7438 		.ascii	"int8_t\000"
 3826      5F7400
 3827              	.LASF77:
 3828 01bb 61647661 		.ascii	"advance\000"
 3828      6E636500 
 3829              	.LASF17:
 3830 01c3 696E7431 		.ascii	"int16_t\000"
 3830      365F7400 
 3831              	.LASF62:
 3832 01cb 6C765F74 		.ascii	"lv_txt_get_next_word\000"
 3832      78745F67 
 3832      65745F6E 
 3832      6578745F 
 3832      776F7264 
 3833              	.LASF13:
ARM GAS  C:\Users\tmj32\AppData\Local\Temp\ccPoPccU.s 			page 87


 3834 01e0 6C6F6E67 		.ascii	"long long unsigned int\000"
 3834      206C6F6E 
 3834      6720756E 
 3834      7369676E 
 3834      65642069 
 3835              	.LASF65:
 3836 01f7 666F7263 		.ascii	"force\000"
 3836      6500
 3837              	.LASF78:
 3838 01fd 6C765F74 		.ascii	"lv_txt_get_next_line\000"
 3838      78745F67 
 3838      65745F6E 
 3838      6578745F 
 3838      6C696E65 
 3839              	.LASF102:
 3840 0212 62797465 		.ascii	"byte_id\000"
 3840      5F696400 
 3841              	.LASF50:
 3842 021a 73697A65 		.ascii	"size_res\000"
 3842      5F726573 
 3842      00
 3843              	.LASF64:
 3844 0223 636D645F 		.ascii	"cmd_state\000"
 3844      73746174 
 3844      6500
 3845              	.LASF6:
 3846 022d 5F5F7569 		.ascii	"__uint16_t\000"
 3846      6E743136 
 3846      5F7400
 3847              	.LASF43:
 3848 0238 4C565F54 		.ascii	"LV_TXT_FLAG_RIGHT\000"
 3848      58545F46 
 3848      4C41475F 
 3848      52494748 
 3848      5400
 3849              	.LASF22:
 3850 024a 73697A65 		.ascii	"size_t\000"
 3850      5F7400
 3851              	.LASF81:
 3852 0251 77696474 		.ascii	"width\000"
 3852      6800
 3853              	.LASF104:
 3854 0257 69735F62 		.ascii	"is_break_char\000"
 3854      7265616B 
 3854      5F636861 
 3854      7200
 3855              	.LASF68:
 3856 0265 6C657474 		.ascii	"letter\000"
 3856      657200
 3857              	.LASF37:
 3858 026c 5F426F6F 		.ascii	"_Bool\000"
 3858      6C00
 3859              	.LASF100:
 3860 0272 75746638 		.ascii	"utf8_id\000"
 3860      5F696400 
 3861              	.LASF47:
 3862 027a 4C565F54 		.ascii	"LV_TXT_CMD_STATE_IN\000"
ARM GAS  C:\Users\tmj32\AppData\Local\Temp\ccPoPccU.s 			page 88


 3862      58545F43 
 3862      4D445F53 
 3862      54415445 
 3862      5F494E00 
 3863              	.LASF88:
 3864 028e 696E735F 		.ascii	"ins_txt\000"
 3864      74787400 
 3865              	.LASF116:
 3866 0296 5F6C765F 		.ascii	"_lv_font_struct\000"
 3866      666F6E74 
 3866      5F737472 
 3866      75637400 
 3867              	.LASF54:
 3868 02a6 6C696E65 		.ascii	"line_space\000"
 3868      5F737061 
 3868      636500
 3869              	.LASF48:
 3870 02b1 6C765F74 		.ascii	"lv_txt_cmd_state_t\000"
 3870      78745F63 
 3870      6D645F73 
 3870      74617465 
 3870      5F7400
 3871              	.LASF49:
 3872 02c4 666F6E74 		.ascii	"font_p\000"
 3872      5F7000
 3873              	.LASF35:
 3874 02cb 6C696E65 		.ascii	"line_height\000"
 3874      5F686569 
 3874      67687400 
 3875              	.LASF114:
 3876 02d7 2E2E5C2E 		.ascii	"..\\..\\..\\lvgl\\version_6.1.2\\lvgl\\src\\lv_misc"
 3876      2E5C2E2E 
 3876      5C6C7667 
 3876      6C5C7665 
 3876      7273696F 
 3877 0303 5C6C765F 		.ascii	"\\lv_txt.c\000"
 3877      7478742E 
 3877      6300
 3878              	.LASF63:
 3879 030d 776F7264 		.ascii	"word_w_ptr\000"
 3879      5F775F70 
 3879      747200
 3880              	.LASF25:
 3881 0318 63686172 		.ascii	"char\000"
 3881      00
 3882              	.LASF93:
 3883 031d 6C765F74 		.ascii	"lv_txt_iso8859_1_size\000"
 3883      78745F69 
 3883      736F3838 
 3883      35395F31 
 3883      5F73697A 
 3884              	.LASF51:
 3885 0333 74657874 		.ascii	"text\000"
 3885      00
 3886              	.LASF99:
 3887 0338 6C765F74 		.ascii	"lv_txt_iso8859_1_get_byte_id\000"
 3887      78745F69 
ARM GAS  C:\Users\tmj32\AppData\Local\Temp\ccPoPccU.s 			page 89


 3887      736F3838 
 3887      35395F31 
 3887      5F676574 
 3888              	.LASF32:
 3889 0355 6C765F66 		.ascii	"lv_font_glyph_dsc_t\000"
 3889      6F6E745F 
 3889      676C7970 
 3889      685F6473 
 3889      635F7400 
 3890              	.LASF83:
 3891 0369 6C765F74 		.ascii	"lv_txt_is_cmd\000"
 3891      78745F69 
 3891      735F636D 
 3891      6400
 3892              	.LASF16:
 3893 0377 75696E74 		.ascii	"uint8_t\000"
 3893      385F7400 
 3894              	.LASF66:
 3895 037f 695F6E65 		.ascii	"i_next\000"
 3895      787400
 3896              	.LASF110:
 3897 0386 6C765F74 		.ascii	"lv_txt_encoded_get_byte_id\000"
 3897      78745F65 
 3897      6E636F64 
 3897      65645F67 
 3897      65745F62 
 3898              	.LASF55:
 3899 03a1 6D61785F 		.ascii	"max_width\000"
 3899      77696474 
 3899      6800
 3900              	.LASF12:
 3901 03ab 6C6F6E67 		.ascii	"long long int\000"
 3901      206C6F6E 
 3901      6720696E 
 3901      7400
 3902              	.LASF73:
 3903 03b9 62726561 		.ascii	"break_index\000"
 3903      6B5F696E 
 3903      64657800 
 3904              	.LASF71:
 3905 03c5 6375725F 		.ascii	"cur_w\000"
 3905      7700
 3906              	.LASF46:
 3907 03cb 4C565F54 		.ascii	"LV_TXT_CMD_STATE_PAR\000"
 3907      58545F43 
 3907      4D445F53 
 3907      54415445 
 3907      5F504152 
 3908              	.LASF4:
 3909 03e0 5F5F696E 		.ascii	"__int16_t\000"
 3909      7431365F 
 3909      7400
 3910              	.LASF112:
 3911 03ea 6C765F74 		.ascii	"lv_txt_get_encoded_length\000"
 3911      78745F67 
 3911      65745F65 
 3911      6E636F64 
ARM GAS  C:\Users\tmj32\AppData\Local\Temp\ccPoPccU.s 			page 90


 3911      65645F6C 
 3912              	.LASF95:
 3913 0404 6C657474 		.ascii	"letter_uni\000"
 3913      65725F75 
 3913      6E6900
 3914              	.LASF75:
 3915 040f 6E5F6D6F 		.ascii	"n_move\000"
 3915      766500
 3916              	.LASF107:
 3917 0416 6C765F74 		.ascii	"lv_txt_encoded_conv_wc\000"
 3917      78745F65 
 3917      6E636F64 
 3917      65645F63 
 3917      6F6E765F 
 3918              	.LASF117:
 3919 042d 73756270 		.ascii	"subpx\000"
 3919      7800
 3920              	.LASF0:
 3921 0433 5F5F696E 		.ascii	"__int8_t\000"
 3921      74385F74 
 3921      00
 3922              	.LASF111:
 3923 043c 6C765F74 		.ascii	"lv_txt_encoded_get_char_id\000"
 3923      78745F65 
 3923      6E636F64 
 3923      65645F67 
 3923      65745F63 
 3924              	.LASF23:
 3925 0457 6C6F6E67 		.ascii	"long double\000"
 3925      20646F75 
 3925      626C6500 
 3926              	.LASF18:
 3927 0463 75696E74 		.ascii	"uint16_t\000"
 3927      31365F74 
 3927      00
 3928              	.LASF82:
 3929 046c 63686172 		.ascii	"char_width\000"
 3929      5F776964 
 3929      746800
 3930              	.LASF38:
 3931 0477 6C765F66 		.ascii	"lv_font_t\000"
 3931      6F6E745F 
 3931      7400
 3932              	.LASF53:
 3933 0481 6C657474 		.ascii	"letter_space\000"
 3933      65725F73 
 3933      70616365 
 3933      00
 3934              	.LASF76:
 3935 048e 776F7264 		.ascii	"word_w\000"
 3935      5F7700
 3936              	.LASF5:
 3937 0495 73686F72 		.ascii	"short int\000"
 3937      7420696E 
 3937      7400
 3938              	.LASF57:
 3939 049f 6C696E65 		.ascii	"line_start\000"
ARM GAS  C:\Users\tmj32\AppData\Local\Temp\ccPoPccU.s 			page 91


 3939      5F737461 
 3939      727400
 3940              	.LASF9:
 3941 04aa 6C6F6E67 		.ascii	"long int\000"
 3941      20696E74 
 3941      00
 3942              	.LASF105:
 3943 04b3 6C765F74 		.ascii	"lv_txt_encoded_size\000"
 3943      78745F65 
 3943      6E636F64 
 3943      65645F73 
 3943      697A6500 
 3944              	.LASF80:
 3945 04c7 6C656E67 		.ascii	"length\000"
 3945      746800
 3946              	.LASF56:
 3947 04ce 666C6167 		.ascii	"flag\000"
 3947      00
 3948              	.LASF21:
 3949 04d3 6C765F63 		.ascii	"lv_coord_t\000"
 3949      6F6F7264 
 3949      5F7400
 3950              	.LASF1:
 3951 04de 5F5F7569 		.ascii	"__uint8_t\000"
 3951      6E74385F 
 3951      7400
 3952              	.LASF29:
 3953 04e8 626F785F 		.ascii	"box_h\000"
 3953      6800
 3954              	.LASF59:
 3955 04ee 6163745F 		.ascii	"act_line_length\000"
 3955      6C696E65 
 3955      5F6C656E 
 3955      67746800 
 3956              	.LASF52:
 3957 04fe 666F6E74 		.ascii	"font\000"
 3957      00
 3958              	.LASF24:
 3959 0503 73697A65 		.ascii	"sizetype\000"
 3959      74797065 
 3959      00
 3960              	.LASF11:
 3961 050c 6C6F6E67 		.ascii	"long unsigned int\000"
 3961      20756E73 
 3961      69676E65 
 3961      6420696E 
 3961      7400
 3962              	.LASF103:
 3963 051e 6C765F74 		.ascii	"lv_txt_iso8859_1_get_length\000"
 3963      78745F69 
 3963      736F3838 
 3963      35395F31 
 3963      5F676574 
 3964              	.LASF45:
 3965 053a 4C565F54 		.ascii	"LV_TXT_CMD_STATE_WAIT\000"
 3965      58545F43 
 3965      4D445F53 
ARM GAS  C:\Users\tmj32\AppData\Local\Temp\ccPoPccU.s 			page 92


 3965      54415445 
 3965      5F574149 
 3966              	.LASF28:
 3967 0550 626F785F 		.ascii	"box_w\000"
 3967      7700
 3968              	.LASF101:
 3969 0556 6C765F74 		.ascii	"lv_txt_iso8859_1_get_char_id\000"
 3969      78745F69 
 3969      736F3838 
 3969      35395F31 
 3969      5F676574 
 3970              	.LASF19:
 3971 0573 696E7433 		.ascii	"int32_t\000"
 3971      325F7400 
 3972              	.LASF36:
 3973 057b 62617365 		.ascii	"base_line\000"
 3973      5F6C696E 
 3973      6500
 3974              	.LASF74:
 3975 0585 62726561 		.ascii	"break_letter_count\000"
 3975      6B5F6C65 
 3975      74746572 
 3975      5F636F75 
 3975      6E7400
 3976              	.LASF91:
 3977 0598 6E65775F 		.ascii	"new_len\000"
 3977      6C656E00 
 3978              	.LASF87:
 3979 05a0 7478745F 		.ascii	"txt_buf\000"
 3979      62756600 
 3980              	.LASF3:
 3981 05a8 756E7369 		.ascii	"unsigned char\000"
 3981      676E6564 
 3981      20636861 
 3981      7200
 3982              	.LASF97:
 3983 05b6 6C765F74 		.ascii	"lv_txt_iso8859_1_next\000"
 3983      78745F69 
 3983      736F3838 
 3983      35395F31 
 3983      5F6E6578 
 3984              	.LASF10:
 3985 05cc 5F5F7569 		.ascii	"__uint32_t\000"
 3985      6E743332 
 3985      5F7400
 3986              	.LASF34:
 3987 05d7 6765745F 		.ascii	"get_glyph_bitmap\000"
 3987      676C7970 
 3987      685F6269 
 3987      746D6170 
 3987      00
 3988              	.LASF84:
 3989 05e8 73746174 		.ascii	"state\000"
 3989      6500
 3990              	.LASF79:
 3991 05ee 6C765F74 		.ascii	"lv_txt_get_width\000"
 3991      78745F67 
ARM GAS  C:\Users\tmj32\AppData\Local\Temp\ccPoPccU.s 			page 93


 3991      65745F77 
 3991      69647468 
 3991      00
 3992              	.LASF98:
 3993 05ff 6C765F74 		.ascii	"lv_txt_iso8859_1_prev\000"
 3993      78745F69 
 3993      736F3838 
 3993      35395F31 
 3993      5F707265 
 3994              	.LASF2:
 3995 0615 7369676E 		.ascii	"signed char\000"
 3995      65642063 
 3995      68617200 
 3996              	.LASF86:
 3997 0621 6C765F74 		.ascii	"lv_txt_ins\000"
 3997      78745F69 
 3997      6E7300
 3998              	.LASF44:
 3999 062c 6C765F74 		.ascii	"lv_txt_flag_t\000"
 3999      78745F66 
 3999      6C61675F 
 3999      7400
 4000              	.LASF7:
 4001 063a 73686F72 		.ascii	"short unsigned int\000"
 4001      7420756E 
 4001      7369676E 
 4001      65642069 
 4001      6E7400
 4002              	.LASF90:
 4003 064d 696E735F 		.ascii	"ins_len\000"
 4003      6C656E00 
 4004              	.LASF39:
 4005 0655 4C565F54 		.ascii	"LV_TXT_FLAG_NONE\000"
 4005      58545F46 
 4005      4C41475F 
 4005      4E4F4E45 
 4005      00
 4006              	.LASF41:
 4007 0666 4C565F54 		.ascii	"LV_TXT_FLAG_EXPAND\000"
 4007      58545F46 
 4007      4C41475F 
 4007      45585041 
 4007      4E4400
 4008              	.LASF113:
 4009 0679 474E5520 		.ascii	"GNU C11 5.4.1 20160609 (release) [ARM/embedded-5-br"
 4009      43313120 
 4009      352E342E 
 4009      31203230 
 4009      31363036 
 4010 06ac 616E6368 		.ascii	"anch revision 237715] -mcpu=cortex-m4 -mfloat-abi=s"
 4010      20726576 
 4010      6973696F 
 4010      6E203233 
 4010      37373135 
 4011 06df 6F667466 		.ascii	"oftfp -mfpu=fpv4-sp-d16 -mthumb -g -O0 -ffunction-s"
 4011      70202D6D 
 4011      6670753D 
ARM GAS  C:\Users\tmj32\AppData\Local\Temp\ccPoPccU.s 			page 94


 4011      66707634 
 4011      2D73702D 
 4012 0712 65637469 		.ascii	"ections -ffat-lto-objects\000"
 4012      6F6E7320 
 4012      2D666661 
 4012      742D6C74 
 4012      6F2D6F62 
 4013              	.LASF61:
 4014 072c 6C765F66 		.ascii	"lv_font_get_line_height\000"
 4014      6F6E745F 
 4014      6765745F 
 4014      6C696E65 
 4014      5F686569 
 4015              	.LASF94:
 4016 0744 6C765F74 		.ascii	"lv_txt_unicode_to_iso8859_1\000"
 4016      78745F75 
 4016      6E69636F 
 4016      64655F74 
 4016      6F5F6973 
 4017              	.LASF92:
 4018 0760 6C765F74 		.ascii	"lv_txt_cut\000"
 4018      78745F63 
 4018      757400
 4019              	.LASF27:
 4020 076b 6164765F 		.ascii	"adv_w\000"
 4020      7700
 4021              	.LASF58:
 4022 0771 6E65775F 		.ascii	"new_line_start\000"
 4022      6C696E65 
 4022      5F737461 
 4022      727400
 4023              		.ident	"GCC: (GNU Tools for ARM Embedded Processors) 5.4.1 20160609 (release) [ARM/embedded-5-bran
