ARM GAS  C:\Users\tmj32\AppData\Local\Temp\cc94ZBZn.s 			page 1


   1              		.syntax unified
   2              		.cpu cortex-m4
   3              		.eabi_attribute 27, 1
   4              		.fpu fpv4-sp-d16
   5              		.eabi_attribute 20, 1
   6              		.eabi_attribute 21, 1
   7              		.eabi_attribute 23, 3
   8              		.eabi_attribute 24, 1
   9              		.eabi_attribute 25, 1
  10              		.eabi_attribute 26, 1
  11              		.eabi_attribute 30, 6
  12              		.eabi_attribute 34, 1
  13              		.eabi_attribute 18, 4
  14              		.thumb
  15              		.syntax unified
  16              		.file	"lv_tabview.c"
  17              		.text
  18              	.Ltext0:
  19              		.cfi_sections	.debug_frame
  20              		.section	.text.lv_font_get_line_height,"ax",%progbits
  21              		.align	2
  22              		.thumb
  23              		.thumb_func
  24              		.type	lv_font_get_line_height, %function
  25              	lv_font_get_line_height:
  26              	.LFB0:
  27              		.file 1 "..\\..\\..\\lvgl\\version_6.1.2\\lvgl\\src\\lv_objx\\../lv_core/../lv_font/lv_font.h"
   1:..\..\..\lvgl\version_6.1.2\lvgl\src\lv_objx\../lv_core/../lv_font/lv_font.h **** /**
   2:..\..\..\lvgl\version_6.1.2\lvgl\src\lv_objx\../lv_core/../lv_font/lv_font.h ****  * @file lv_font.h
   3:..\..\..\lvgl\version_6.1.2\lvgl\src\lv_objx\../lv_core/../lv_font/lv_font.h ****  *
   4:..\..\..\lvgl\version_6.1.2\lvgl\src\lv_objx\../lv_core/../lv_font/lv_font.h ****  */
   5:..\..\..\lvgl\version_6.1.2\lvgl\src\lv_objx\../lv_core/../lv_font/lv_font.h **** 
   6:..\..\..\lvgl\version_6.1.2\lvgl\src\lv_objx\../lv_core/../lv_font/lv_font.h **** #ifndef LV_FONT_H
   7:..\..\..\lvgl\version_6.1.2\lvgl\src\lv_objx\../lv_core/../lv_font/lv_font.h **** #define LV_FONT_H
   8:..\..\..\lvgl\version_6.1.2\lvgl\src\lv_objx\../lv_core/../lv_font/lv_font.h **** 
   9:..\..\..\lvgl\version_6.1.2\lvgl\src\lv_objx\../lv_core/../lv_font/lv_font.h **** #ifdef __cplusplus
  10:..\..\..\lvgl\version_6.1.2\lvgl\src\lv_objx\../lv_core/../lv_font/lv_font.h **** extern "C" {
  11:..\..\..\lvgl\version_6.1.2\lvgl\src\lv_objx\../lv_core/../lv_font/lv_font.h **** #endif
  12:..\..\..\lvgl\version_6.1.2\lvgl\src\lv_objx\../lv_core/../lv_font/lv_font.h **** 
  13:..\..\..\lvgl\version_6.1.2\lvgl\src\lv_objx\../lv_core/../lv_font/lv_font.h **** /*********************
  14:..\..\..\lvgl\version_6.1.2\lvgl\src\lv_objx\../lv_core/../lv_font/lv_font.h ****  *      INCLUDES
  15:..\..\..\lvgl\version_6.1.2\lvgl\src\lv_objx\../lv_core/../lv_font/lv_font.h ****  *********************/
  16:..\..\..\lvgl\version_6.1.2\lvgl\src\lv_objx\../lv_core/../lv_font/lv_font.h **** #ifdef LV_CONF_INCLUDE_SIMPLE
  17:..\..\..\lvgl\version_6.1.2\lvgl\src\lv_objx\../lv_core/../lv_font/lv_font.h **** #include "lv_conf.h"
  18:..\..\..\lvgl\version_6.1.2\lvgl\src\lv_objx\../lv_core/../lv_font/lv_font.h **** #else
  19:..\..\..\lvgl\version_6.1.2\lvgl\src\lv_objx\../lv_core/../lv_font/lv_font.h **** #include "../../../lv_conf.h"
  20:..\..\..\lvgl\version_6.1.2\lvgl\src\lv_objx\../lv_core/../lv_font/lv_font.h **** #endif
  21:..\..\..\lvgl\version_6.1.2\lvgl\src\lv_objx\../lv_core/../lv_font/lv_font.h **** 
  22:..\..\..\lvgl\version_6.1.2\lvgl\src\lv_objx\../lv_core/../lv_font/lv_font.h **** #include <stdint.h>
  23:..\..\..\lvgl\version_6.1.2\lvgl\src\lv_objx\../lv_core/../lv_font/lv_font.h **** #include <stddef.h>
  24:..\..\..\lvgl\version_6.1.2\lvgl\src\lv_objx\../lv_core/../lv_font/lv_font.h **** #include <stdbool.h>
  25:..\..\..\lvgl\version_6.1.2\lvgl\src\lv_objx\../lv_core/../lv_font/lv_font.h **** 
  26:..\..\..\lvgl\version_6.1.2\lvgl\src\lv_objx\../lv_core/../lv_font/lv_font.h **** #include "lv_symbol_def.h"
  27:..\..\..\lvgl\version_6.1.2\lvgl\src\lv_objx\../lv_core/../lv_font/lv_font.h **** 
  28:..\..\..\lvgl\version_6.1.2\lvgl\src\lv_objx\../lv_core/../lv_font/lv_font.h **** /*********************
  29:..\..\..\lvgl\version_6.1.2\lvgl\src\lv_objx\../lv_core/../lv_font/lv_font.h ****  *      DEFINES
  30:..\..\..\lvgl\version_6.1.2\lvgl\src\lv_objx\../lv_core/../lv_font/lv_font.h ****  *********************/
ARM GAS  C:\Users\tmj32\AppData\Local\Temp\cc94ZBZn.s 			page 2


  31:..\..\..\lvgl\version_6.1.2\lvgl\src\lv_objx\../lv_core/../lv_font/lv_font.h **** /*Number of fractional digits in the advanced width (`adv_w`) field of `lv_font_glyph_dsc_t`*/
  32:..\..\..\lvgl\version_6.1.2\lvgl\src\lv_objx\../lv_core/../lv_font/lv_font.h **** #define LV_FONT_WIDTH_FRACT_DIGIT       4
  33:..\..\..\lvgl\version_6.1.2\lvgl\src\lv_objx\../lv_core/../lv_font/lv_font.h **** 
  34:..\..\..\lvgl\version_6.1.2\lvgl\src\lv_objx\../lv_core/../lv_font/lv_font.h **** #define LV_FONT_KERN_POSITIVE        0
  35:..\..\..\lvgl\version_6.1.2\lvgl\src\lv_objx\../lv_core/../lv_font/lv_font.h **** #define LV_FONT_KERN_NEGATIVE        1
  36:..\..\..\lvgl\version_6.1.2\lvgl\src\lv_objx\../lv_core/../lv_font/lv_font.h **** 
  37:..\..\..\lvgl\version_6.1.2\lvgl\src\lv_objx\../lv_core/../lv_font/lv_font.h **** /**********************
  38:..\..\..\lvgl\version_6.1.2\lvgl\src\lv_objx\../lv_core/../lv_font/lv_font.h ****  *      TYPEDEFS
  39:..\..\..\lvgl\version_6.1.2\lvgl\src\lv_objx\../lv_core/../lv_font/lv_font.h ****  **********************/
  40:..\..\..\lvgl\version_6.1.2\lvgl\src\lv_objx\../lv_core/../lv_font/lv_font.h **** 
  41:..\..\..\lvgl\version_6.1.2\lvgl\src\lv_objx\../lv_core/../lv_font/lv_font.h **** /*------------------
  42:..\..\..\lvgl\version_6.1.2\lvgl\src\lv_objx\../lv_core/../lv_font/lv_font.h ****  * General types
  43:..\..\..\lvgl\version_6.1.2\lvgl\src\lv_objx\../lv_core/../lv_font/lv_font.h ****  *-----------------*/
  44:..\..\..\lvgl\version_6.1.2\lvgl\src\lv_objx\../lv_core/../lv_font/lv_font.h **** 
  45:..\..\..\lvgl\version_6.1.2\lvgl\src\lv_objx\../lv_core/../lv_font/lv_font.h **** /** Describes the properties of a glyph. */
  46:..\..\..\lvgl\version_6.1.2\lvgl\src\lv_objx\../lv_core/../lv_font/lv_font.h **** typedef struct
  47:..\..\..\lvgl\version_6.1.2\lvgl\src\lv_objx\../lv_core/../lv_font/lv_font.h **** {
  48:..\..\..\lvgl\version_6.1.2\lvgl\src\lv_objx\../lv_core/../lv_font/lv_font.h ****     uint16_t adv_w; /**< The glyph needs this space. Draw the next glyph after this width. 8 bit in
  49:..\..\..\lvgl\version_6.1.2\lvgl\src\lv_objx\../lv_core/../lv_font/lv_font.h ****     uint8_t box_w;  /**< Width of the glyph's bounding box*/
  50:..\..\..\lvgl\version_6.1.2\lvgl\src\lv_objx\../lv_core/../lv_font/lv_font.h ****     uint8_t box_h;  /**< Height of the glyph's bounding box*/
  51:..\..\..\lvgl\version_6.1.2\lvgl\src\lv_objx\../lv_core/../lv_font/lv_font.h ****     int8_t ofs_x;   /**< x offset of the bounding box*/
  52:..\..\..\lvgl\version_6.1.2\lvgl\src\lv_objx\../lv_core/../lv_font/lv_font.h ****     int8_t ofs_y;  /**< y offset of the bounding box*/
  53:..\..\..\lvgl\version_6.1.2\lvgl\src\lv_objx\../lv_core/../lv_font/lv_font.h ****     uint8_t bpp;   /**< Bit-per-pixel: 1, 2, 4, 8*/
  54:..\..\..\lvgl\version_6.1.2\lvgl\src\lv_objx\../lv_core/../lv_font/lv_font.h **** }lv_font_glyph_dsc_t;
  55:..\..\..\lvgl\version_6.1.2\lvgl\src\lv_objx\../lv_core/../lv_font/lv_font.h **** 
  56:..\..\..\lvgl\version_6.1.2\lvgl\src\lv_objx\../lv_core/../lv_font/lv_font.h **** 
  57:..\..\..\lvgl\version_6.1.2\lvgl\src\lv_objx\../lv_core/../lv_font/lv_font.h **** /** The bitmaps might be upscaled by 3 to achieve subpixel rendering. */
  58:..\..\..\lvgl\version_6.1.2\lvgl\src\lv_objx\../lv_core/../lv_font/lv_font.h **** enum {
  59:..\..\..\lvgl\version_6.1.2\lvgl\src\lv_objx\../lv_core/../lv_font/lv_font.h ****     LV_FONT_SUBPX_NONE,
  60:..\..\..\lvgl\version_6.1.2\lvgl\src\lv_objx\../lv_core/../lv_font/lv_font.h ****     LV_FONT_SUBPX_HOR,
  61:..\..\..\lvgl\version_6.1.2\lvgl\src\lv_objx\../lv_core/../lv_font/lv_font.h ****     LV_FONT_SUBPX_VER,
  62:..\..\..\lvgl\version_6.1.2\lvgl\src\lv_objx\../lv_core/../lv_font/lv_font.h ****     LV_FONT_SUBPX_BOTH,
  63:..\..\..\lvgl\version_6.1.2\lvgl\src\lv_objx\../lv_core/../lv_font/lv_font.h **** };
  64:..\..\..\lvgl\version_6.1.2\lvgl\src\lv_objx\../lv_core/../lv_font/lv_font.h **** 
  65:..\..\..\lvgl\version_6.1.2\lvgl\src\lv_objx\../lv_core/../lv_font/lv_font.h **** typedef uint8_t lv_font_subpx_t;
  66:..\..\..\lvgl\version_6.1.2\lvgl\src\lv_objx\../lv_core/../lv_font/lv_font.h **** 
  67:..\..\..\lvgl\version_6.1.2\lvgl\src\lv_objx\../lv_core/../lv_font/lv_font.h **** /** Describe the properties of a font*/
  68:..\..\..\lvgl\version_6.1.2\lvgl\src\lv_objx\../lv_core/../lv_font/lv_font.h **** typedef struct _lv_font_struct
  69:..\..\..\lvgl\version_6.1.2\lvgl\src\lv_objx\../lv_core/../lv_font/lv_font.h **** {
  70:..\..\..\lvgl\version_6.1.2\lvgl\src\lv_objx\../lv_core/../lv_font/lv_font.h ****     /** Get a glyph's  descriptor from a font*/
  71:..\..\..\lvgl\version_6.1.2\lvgl\src\lv_objx\../lv_core/../lv_font/lv_font.h ****     bool (*get_glyph_dsc)(const struct _lv_font_struct *, lv_font_glyph_dsc_t *, uint32_t letter, u
  72:..\..\..\lvgl\version_6.1.2\lvgl\src\lv_objx\../lv_core/../lv_font/lv_font.h **** 
  73:..\..\..\lvgl\version_6.1.2\lvgl\src\lv_objx\../lv_core/../lv_font/lv_font.h ****     /** Get a glyph's bitmap from a font*/
  74:..\..\..\lvgl\version_6.1.2\lvgl\src\lv_objx\../lv_core/../lv_font/lv_font.h ****     const uint8_t * (*get_glyph_bitmap)(const struct _lv_font_struct *, uint32_t);
  75:..\..\..\lvgl\version_6.1.2\lvgl\src\lv_objx\../lv_core/../lv_font/lv_font.h **** 
  76:..\..\..\lvgl\version_6.1.2\lvgl\src\lv_objx\../lv_core/../lv_font/lv_font.h ****     /*Pointer to the font in a font pack (must have the same line height)*/
  77:..\..\..\lvgl\version_6.1.2\lvgl\src\lv_objx\../lv_core/../lv_font/lv_font.h ****     uint8_t line_height;      /**< The real line height where any text fits*/
  78:..\..\..\lvgl\version_6.1.2\lvgl\src\lv_objx\../lv_core/../lv_font/lv_font.h ****     int8_t base_line;        /**< Base line measured from the top of the line_height*/
  79:..\..\..\lvgl\version_6.1.2\lvgl\src\lv_objx\../lv_core/../lv_font/lv_font.h ****     uint8_t subpx  :2;        /**< An element of `lv_font_subpx_t`*/
  80:..\..\..\lvgl\version_6.1.2\lvgl\src\lv_objx\../lv_core/../lv_font/lv_font.h ****     void * dsc;               /**< Store implementation specific or run_time data or caching here*/
  81:..\..\..\lvgl\version_6.1.2\lvgl\src\lv_objx\../lv_core/../lv_font/lv_font.h **** #if LV_USE_USER_DATA
  82:..\..\..\lvgl\version_6.1.2\lvgl\src\lv_objx\../lv_core/../lv_font/lv_font.h ****     lv_font_user_data_t user_data; /**< Custom user data for font. */
  83:..\..\..\lvgl\version_6.1.2\lvgl\src\lv_objx\../lv_core/../lv_font/lv_font.h **** #endif
  84:..\..\..\lvgl\version_6.1.2\lvgl\src\lv_objx\../lv_core/../lv_font/lv_font.h **** 
  85:..\..\..\lvgl\version_6.1.2\lvgl\src\lv_objx\../lv_core/../lv_font/lv_font.h **** 
  86:..\..\..\lvgl\version_6.1.2\lvgl\src\lv_objx\../lv_core/../lv_font/lv_font.h **** } lv_font_t;
  87:..\..\..\lvgl\version_6.1.2\lvgl\src\lv_objx\../lv_core/../lv_font/lv_font.h **** 
ARM GAS  C:\Users\tmj32\AppData\Local\Temp\cc94ZBZn.s 			page 3


  88:..\..\..\lvgl\version_6.1.2\lvgl\src\lv_objx\../lv_core/../lv_font/lv_font.h **** /**********************
  89:..\..\..\lvgl\version_6.1.2\lvgl\src\lv_objx\../lv_core/../lv_font/lv_font.h ****  * GLOBAL PROTOTYPES
  90:..\..\..\lvgl\version_6.1.2\lvgl\src\lv_objx\../lv_core/../lv_font/lv_font.h ****  **********************/
  91:..\..\..\lvgl\version_6.1.2\lvgl\src\lv_objx\../lv_core/../lv_font/lv_font.h **** 
  92:..\..\..\lvgl\version_6.1.2\lvgl\src\lv_objx\../lv_core/../lv_font/lv_font.h **** /**
  93:..\..\..\lvgl\version_6.1.2\lvgl\src\lv_objx\../lv_core/../lv_font/lv_font.h ****  * Return with the bitmap of a font.
  94:..\..\..\lvgl\version_6.1.2\lvgl\src\lv_objx\../lv_core/../lv_font/lv_font.h ****  * @param font_p pointer to a font
  95:..\..\..\lvgl\version_6.1.2\lvgl\src\lv_objx\../lv_core/../lv_font/lv_font.h ****  * @param letter an UNICODE character code
  96:..\..\..\lvgl\version_6.1.2\lvgl\src\lv_objx\../lv_core/../lv_font/lv_font.h ****  * @return  pointer to the bitmap of the letter
  97:..\..\..\lvgl\version_6.1.2\lvgl\src\lv_objx\../lv_core/../lv_font/lv_font.h ****  */
  98:..\..\..\lvgl\version_6.1.2\lvgl\src\lv_objx\../lv_core/../lv_font/lv_font.h **** const uint8_t * lv_font_get_glyph_bitmap(const lv_font_t * font_p, uint32_t letter);
  99:..\..\..\lvgl\version_6.1.2\lvgl\src\lv_objx\../lv_core/../lv_font/lv_font.h **** 
 100:..\..\..\lvgl\version_6.1.2\lvgl\src\lv_objx\../lv_core/../lv_font/lv_font.h **** /**
 101:..\..\..\lvgl\version_6.1.2\lvgl\src\lv_objx\../lv_core/../lv_font/lv_font.h ****  * Get the descriptor of a glyph
 102:..\..\..\lvgl\version_6.1.2\lvgl\src\lv_objx\../lv_core/../lv_font/lv_font.h ****  * @param font_p pointer to font
 103:..\..\..\lvgl\version_6.1.2\lvgl\src\lv_objx\../lv_core/../lv_font/lv_font.h ****  * @param dsc_out store the result descriptor here
 104:..\..\..\lvgl\version_6.1.2\lvgl\src\lv_objx\../lv_core/../lv_font/lv_font.h ****  * @param letter an UNICODE letter code
 105:..\..\..\lvgl\version_6.1.2\lvgl\src\lv_objx\../lv_core/../lv_font/lv_font.h ****  * @return true: descriptor is successfully loaded into `dsc_out`.
 106:..\..\..\lvgl\version_6.1.2\lvgl\src\lv_objx\../lv_core/../lv_font/lv_font.h ****  *         false: the letter was not found, no data is loaded to `dsc_out`
 107:..\..\..\lvgl\version_6.1.2\lvgl\src\lv_objx\../lv_core/../lv_font/lv_font.h ****  */
 108:..\..\..\lvgl\version_6.1.2\lvgl\src\lv_objx\../lv_core/../lv_font/lv_font.h **** bool lv_font_get_glyph_dsc(const lv_font_t * font_p, lv_font_glyph_dsc_t * dsc_out, uint32_t letter
 109:..\..\..\lvgl\version_6.1.2\lvgl\src\lv_objx\../lv_core/../lv_font/lv_font.h **** 
 110:..\..\..\lvgl\version_6.1.2\lvgl\src\lv_objx\../lv_core/../lv_font/lv_font.h **** /**
 111:..\..\..\lvgl\version_6.1.2\lvgl\src\lv_objx\../lv_core/../lv_font/lv_font.h ****  * Get the width of a glyph with kerning
 112:..\..\..\lvgl\version_6.1.2\lvgl\src\lv_objx\../lv_core/../lv_font/lv_font.h ****  * @param font pointer to a font
 113:..\..\..\lvgl\version_6.1.2\lvgl\src\lv_objx\../lv_core/../lv_font/lv_font.h ****  * @param letter an UNICODE letter
 114:..\..\..\lvgl\version_6.1.2\lvgl\src\lv_objx\../lv_core/../lv_font/lv_font.h ****  * @param letter_next the next letter after `letter`. Used for kerning
 115:..\..\..\lvgl\version_6.1.2\lvgl\src\lv_objx\../lv_core/../lv_font/lv_font.h ****  * @return the width of the glyph
 116:..\..\..\lvgl\version_6.1.2\lvgl\src\lv_objx\../lv_core/../lv_font/lv_font.h ****  */
 117:..\..\..\lvgl\version_6.1.2\lvgl\src\lv_objx\../lv_core/../lv_font/lv_font.h **** uint16_t lv_font_get_glyph_width(const lv_font_t * font, uint32_t letter, uint32_t letter_next);
 118:..\..\..\lvgl\version_6.1.2\lvgl\src\lv_objx\../lv_core/../lv_font/lv_font.h **** 
 119:..\..\..\lvgl\version_6.1.2\lvgl\src\lv_objx\../lv_core/../lv_font/lv_font.h **** /**
 120:..\..\..\lvgl\version_6.1.2\lvgl\src\lv_objx\../lv_core/../lv_font/lv_font.h ****  * Get the line height of a font. All characters fit into this height
 121:..\..\..\lvgl\version_6.1.2\lvgl\src\lv_objx\../lv_core/../lv_font/lv_font.h ****  * @param font_p pointer to a font
 122:..\..\..\lvgl\version_6.1.2\lvgl\src\lv_objx\../lv_core/../lv_font/lv_font.h ****  * @return the height of a font
 123:..\..\..\lvgl\version_6.1.2\lvgl\src\lv_objx\../lv_core/../lv_font/lv_font.h ****  */
 124:..\..\..\lvgl\version_6.1.2\lvgl\src\lv_objx\../lv_core/../lv_font/lv_font.h **** static inline uint8_t lv_font_get_line_height(const lv_font_t * font_p)
 125:..\..\..\lvgl\version_6.1.2\lvgl\src\lv_objx\../lv_core/../lv_font/lv_font.h **** {
  28              		.loc 1 125 0
  29              		.cfi_startproc
  30              		@ args = 0, pretend = 0, frame = 8
  31              		@ frame_needed = 1, uses_anonymous_args = 0
  32              		@ link register save eliminated.
  33 0000 80B4     		push	{r7}
  34              		.cfi_def_cfa_offset 4
  35              		.cfi_offset 7, -4
  36 0002 83B0     		sub	sp, sp, #12
  37              		.cfi_def_cfa_offset 16
  38 0004 00AF     		add	r7, sp, #0
  39              		.cfi_def_cfa_register 7
  40 0006 7860     		str	r0, [r7, #4]
 126:..\..\..\lvgl\version_6.1.2\lvgl\src\lv_objx\../lv_core/../lv_font/lv_font.h ****     return font_p->line_height;
  41              		.loc 1 126 0
  42 0008 7B68     		ldr	r3, [r7, #4]
  43 000a 1B7A     		ldrb	r3, [r3, #8]	@ zero_extendqisi2
 127:..\..\..\lvgl\version_6.1.2\lvgl\src\lv_objx\../lv_core/../lv_font/lv_font.h **** }
  44              		.loc 1 127 0
ARM GAS  C:\Users\tmj32\AppData\Local\Temp\cc94ZBZn.s 			page 4


  45 000c 1846     		mov	r0, r3
  46 000e 0C37     		adds	r7, r7, #12
  47              		.cfi_def_cfa_offset 4
  48 0010 BD46     		mov	sp, r7
  49              		.cfi_def_cfa_register 13
  50              		@ sp needed
  51 0012 5DF8047B 		ldr	r7, [sp], #4
  52              		.cfi_restore 7
  53              		.cfi_def_cfa_offset 0
  54 0016 7047     		bx	lr
  55              		.cfi_endproc
  56              	.LFE0:
  57              		.size	lv_font_get_line_height, .-lv_font_get_line_height
  58              		.section	.text.lv_area_get_width,"ax",%progbits
  59              		.align	2
  60              		.thumb
  61              		.thumb_func
  62              		.type	lv_area_get_width, %function
  63              	lv_area_get_width:
  64              	.LFB11:
  65              		.file 2 "..\\..\\..\\lvgl\\version_6.1.2\\lvgl\\src\\lv_objx\\../lv_core/../lv_misc/lv_area.h"
   1:..\..\..\lvgl\version_6.1.2\lvgl\src\lv_objx\../lv_core/../lv_misc/lv_area.h **** /**
   2:..\..\..\lvgl\version_6.1.2\lvgl\src\lv_objx\../lv_core/../lv_misc/lv_area.h ****  * @file lv_area.h
   3:..\..\..\lvgl\version_6.1.2\lvgl\src\lv_objx\../lv_core/../lv_misc/lv_area.h ****  *
   4:..\..\..\lvgl\version_6.1.2\lvgl\src\lv_objx\../lv_core/../lv_misc/lv_area.h ****  */
   5:..\..\..\lvgl\version_6.1.2\lvgl\src\lv_objx\../lv_core/../lv_misc/lv_area.h **** 
   6:..\..\..\lvgl\version_6.1.2\lvgl\src\lv_objx\../lv_core/../lv_misc/lv_area.h **** #ifndef LV_AREA_H
   7:..\..\..\lvgl\version_6.1.2\lvgl\src\lv_objx\../lv_core/../lv_misc/lv_area.h **** #define LV_AREA_H
   8:..\..\..\lvgl\version_6.1.2\lvgl\src\lv_objx\../lv_core/../lv_misc/lv_area.h **** 
   9:..\..\..\lvgl\version_6.1.2\lvgl\src\lv_objx\../lv_core/../lv_misc/lv_area.h **** #ifdef __cplusplus
  10:..\..\..\lvgl\version_6.1.2\lvgl\src\lv_objx\../lv_core/../lv_misc/lv_area.h **** extern "C" {
  11:..\..\..\lvgl\version_6.1.2\lvgl\src\lv_objx\../lv_core/../lv_misc/lv_area.h **** #endif
  12:..\..\..\lvgl\version_6.1.2\lvgl\src\lv_objx\../lv_core/../lv_misc/lv_area.h **** 
  13:..\..\..\lvgl\version_6.1.2\lvgl\src\lv_objx\../lv_core/../lv_misc/lv_area.h **** /*********************
  14:..\..\..\lvgl\version_6.1.2\lvgl\src\lv_objx\../lv_core/../lv_misc/lv_area.h ****  *      INCLUDES
  15:..\..\..\lvgl\version_6.1.2\lvgl\src\lv_objx\../lv_core/../lv_misc/lv_area.h ****  *********************/
  16:..\..\..\lvgl\version_6.1.2\lvgl\src\lv_objx\../lv_core/../lv_misc/lv_area.h **** #include <string.h>
  17:..\..\..\lvgl\version_6.1.2\lvgl\src\lv_objx\../lv_core/../lv_misc/lv_area.h **** #include <stdbool.h>
  18:..\..\..\lvgl\version_6.1.2\lvgl\src\lv_objx\../lv_core/../lv_misc/lv_area.h **** #include <stdint.h>
  19:..\..\..\lvgl\version_6.1.2\lvgl\src\lv_objx\../lv_core/../lv_misc/lv_area.h **** #ifdef LV_CONF_INCLUDE_SIMPLE
  20:..\..\..\lvgl\version_6.1.2\lvgl\src\lv_objx\../lv_core/../lv_misc/lv_area.h **** #include "lv_conf.h"
  21:..\..\..\lvgl\version_6.1.2\lvgl\src\lv_objx\../lv_core/../lv_misc/lv_area.h **** #else
  22:..\..\..\lvgl\version_6.1.2\lvgl\src\lv_objx\../lv_core/../lv_misc/lv_area.h **** #include "../../../lv_conf.h"
  23:..\..\..\lvgl\version_6.1.2\lvgl\src\lv_objx\../lv_core/../lv_misc/lv_area.h **** #endif
  24:..\..\..\lvgl\version_6.1.2\lvgl\src\lv_objx\../lv_core/../lv_misc/lv_area.h **** 
  25:..\..\..\lvgl\version_6.1.2\lvgl\src\lv_objx\../lv_core/../lv_misc/lv_area.h **** /*********************
  26:..\..\..\lvgl\version_6.1.2\lvgl\src\lv_objx\../lv_core/../lv_misc/lv_area.h ****  *      DEFINES
  27:..\..\..\lvgl\version_6.1.2\lvgl\src\lv_objx\../lv_core/../lv_misc/lv_area.h ****  *********************/
  28:..\..\..\lvgl\version_6.1.2\lvgl\src\lv_objx\../lv_core/../lv_misc/lv_area.h **** /*To avoid overflow don't let the max ranges (reduce with 1000) */
  29:..\..\..\lvgl\version_6.1.2\lvgl\src\lv_objx\../lv_core/../lv_misc/lv_area.h **** #define LV_COORD_MAX ((lv_coord_t)((uint32_t)((uint32_t)1 << (8 * sizeof(lv_coord_t) - 1)) - 1000))
  30:..\..\..\lvgl\version_6.1.2\lvgl\src\lv_objx\../lv_core/../lv_misc/lv_area.h **** #define LV_COORD_MIN (-LV_COORD_MAX)
  31:..\..\..\lvgl\version_6.1.2\lvgl\src\lv_objx\../lv_core/../lv_misc/lv_area.h **** 
  32:..\..\..\lvgl\version_6.1.2\lvgl\src\lv_objx\../lv_core/../lv_misc/lv_area.h **** LV_EXPORT_CONST_INT(LV_COORD_MAX);
  33:..\..\..\lvgl\version_6.1.2\lvgl\src\lv_objx\../lv_core/../lv_misc/lv_area.h **** LV_EXPORT_CONST_INT(LV_COORD_MIN);
  34:..\..\..\lvgl\version_6.1.2\lvgl\src\lv_objx\../lv_core/../lv_misc/lv_area.h **** 
  35:..\..\..\lvgl\version_6.1.2\lvgl\src\lv_objx\../lv_core/../lv_misc/lv_area.h **** /**********************
  36:..\..\..\lvgl\version_6.1.2\lvgl\src\lv_objx\../lv_core/../lv_misc/lv_area.h ****  *      TYPEDEFS
ARM GAS  C:\Users\tmj32\AppData\Local\Temp\cc94ZBZn.s 			page 5


  37:..\..\..\lvgl\version_6.1.2\lvgl\src\lv_objx\../lv_core/../lv_misc/lv_area.h ****  **********************/
  38:..\..\..\lvgl\version_6.1.2\lvgl\src\lv_objx\../lv_core/../lv_misc/lv_area.h **** 
  39:..\..\..\lvgl\version_6.1.2\lvgl\src\lv_objx\../lv_core/../lv_misc/lv_area.h **** /**
  40:..\..\..\lvgl\version_6.1.2\lvgl\src\lv_objx\../lv_core/../lv_misc/lv_area.h ****  * Represents a point on the screen.
  41:..\..\..\lvgl\version_6.1.2\lvgl\src\lv_objx\../lv_core/../lv_misc/lv_area.h ****  */
  42:..\..\..\lvgl\version_6.1.2\lvgl\src\lv_objx\../lv_core/../lv_misc/lv_area.h **** typedef struct
  43:..\..\..\lvgl\version_6.1.2\lvgl\src\lv_objx\../lv_core/../lv_misc/lv_area.h **** {
  44:..\..\..\lvgl\version_6.1.2\lvgl\src\lv_objx\../lv_core/../lv_misc/lv_area.h ****     lv_coord_t x;
  45:..\..\..\lvgl\version_6.1.2\lvgl\src\lv_objx\../lv_core/../lv_misc/lv_area.h ****     lv_coord_t y;
  46:..\..\..\lvgl\version_6.1.2\lvgl\src\lv_objx\../lv_core/../lv_misc/lv_area.h **** } lv_point_t;
  47:..\..\..\lvgl\version_6.1.2\lvgl\src\lv_objx\../lv_core/../lv_misc/lv_area.h **** 
  48:..\..\..\lvgl\version_6.1.2\lvgl\src\lv_objx\../lv_core/../lv_misc/lv_area.h **** /** Represents an area of the screen. */
  49:..\..\..\lvgl\version_6.1.2\lvgl\src\lv_objx\../lv_core/../lv_misc/lv_area.h **** typedef struct
  50:..\..\..\lvgl\version_6.1.2\lvgl\src\lv_objx\../lv_core/../lv_misc/lv_area.h **** {
  51:..\..\..\lvgl\version_6.1.2\lvgl\src\lv_objx\../lv_core/../lv_misc/lv_area.h ****     lv_coord_t x1;
  52:..\..\..\lvgl\version_6.1.2\lvgl\src\lv_objx\../lv_core/../lv_misc/lv_area.h ****     lv_coord_t y1;
  53:..\..\..\lvgl\version_6.1.2\lvgl\src\lv_objx\../lv_core/../lv_misc/lv_area.h ****     lv_coord_t x2;
  54:..\..\..\lvgl\version_6.1.2\lvgl\src\lv_objx\../lv_core/../lv_misc/lv_area.h ****     lv_coord_t y2;
  55:..\..\..\lvgl\version_6.1.2\lvgl\src\lv_objx\../lv_core/../lv_misc/lv_area.h **** } lv_area_t;
  56:..\..\..\lvgl\version_6.1.2\lvgl\src\lv_objx\../lv_core/../lv_misc/lv_area.h **** 
  57:..\..\..\lvgl\version_6.1.2\lvgl\src\lv_objx\../lv_core/../lv_misc/lv_area.h **** /**********************
  58:..\..\..\lvgl\version_6.1.2\lvgl\src\lv_objx\../lv_core/../lv_misc/lv_area.h ****  * GLOBAL PROTOTYPES
  59:..\..\..\lvgl\version_6.1.2\lvgl\src\lv_objx\../lv_core/../lv_misc/lv_area.h ****  **********************/
  60:..\..\..\lvgl\version_6.1.2\lvgl\src\lv_objx\../lv_core/../lv_misc/lv_area.h **** 
  61:..\..\..\lvgl\version_6.1.2\lvgl\src\lv_objx\../lv_core/../lv_misc/lv_area.h **** /**
  62:..\..\..\lvgl\version_6.1.2\lvgl\src\lv_objx\../lv_core/../lv_misc/lv_area.h ****  * Initialize an area
  63:..\..\..\lvgl\version_6.1.2\lvgl\src\lv_objx\../lv_core/../lv_misc/lv_area.h ****  * @param area_p pointer to an area
  64:..\..\..\lvgl\version_6.1.2\lvgl\src\lv_objx\../lv_core/../lv_misc/lv_area.h ****  * @param x1 left coordinate of the area
  65:..\..\..\lvgl\version_6.1.2\lvgl\src\lv_objx\../lv_core/../lv_misc/lv_area.h ****  * @param y1 top coordinate of the area
  66:..\..\..\lvgl\version_6.1.2\lvgl\src\lv_objx\../lv_core/../lv_misc/lv_area.h ****  * @param x2 right coordinate of the area
  67:..\..\..\lvgl\version_6.1.2\lvgl\src\lv_objx\../lv_core/../lv_misc/lv_area.h ****  * @param y2 bottom coordinate of the area
  68:..\..\..\lvgl\version_6.1.2\lvgl\src\lv_objx\../lv_core/../lv_misc/lv_area.h ****  */
  69:..\..\..\lvgl\version_6.1.2\lvgl\src\lv_objx\../lv_core/../lv_misc/lv_area.h **** void lv_area_set(lv_area_t * area_p, lv_coord_t x1, lv_coord_t y1, lv_coord_t x2, lv_coord_t y2);
  70:..\..\..\lvgl\version_6.1.2\lvgl\src\lv_objx\../lv_core/../lv_misc/lv_area.h **** 
  71:..\..\..\lvgl\version_6.1.2\lvgl\src\lv_objx\../lv_core/../lv_misc/lv_area.h **** /**
  72:..\..\..\lvgl\version_6.1.2\lvgl\src\lv_objx\../lv_core/../lv_misc/lv_area.h ****  * Copy an area
  73:..\..\..\lvgl\version_6.1.2\lvgl\src\lv_objx\../lv_core/../lv_misc/lv_area.h ****  * @param dest pointer to the destination area
  74:..\..\..\lvgl\version_6.1.2\lvgl\src\lv_objx\../lv_core/../lv_misc/lv_area.h ****  * @param src pointer to the source area
  75:..\..\..\lvgl\version_6.1.2\lvgl\src\lv_objx\../lv_core/../lv_misc/lv_area.h ****  */
  76:..\..\..\lvgl\version_6.1.2\lvgl\src\lv_objx\../lv_core/../lv_misc/lv_area.h **** inline static void lv_area_copy(lv_area_t * dest, const lv_area_t * src)
  77:..\..\..\lvgl\version_6.1.2\lvgl\src\lv_objx\../lv_core/../lv_misc/lv_area.h **** {
  78:..\..\..\lvgl\version_6.1.2\lvgl\src\lv_objx\../lv_core/../lv_misc/lv_area.h ****     memcpy(dest, src, sizeof(lv_area_t));
  79:..\..\..\lvgl\version_6.1.2\lvgl\src\lv_objx\../lv_core/../lv_misc/lv_area.h **** }
  80:..\..\..\lvgl\version_6.1.2\lvgl\src\lv_objx\../lv_core/../lv_misc/lv_area.h **** 
  81:..\..\..\lvgl\version_6.1.2\lvgl\src\lv_objx\../lv_core/../lv_misc/lv_area.h **** /**
  82:..\..\..\lvgl\version_6.1.2\lvgl\src\lv_objx\../lv_core/../lv_misc/lv_area.h ****  * Get the width of an area
  83:..\..\..\lvgl\version_6.1.2\lvgl\src\lv_objx\../lv_core/../lv_misc/lv_area.h ****  * @param area_p pointer to an area
  84:..\..\..\lvgl\version_6.1.2\lvgl\src\lv_objx\../lv_core/../lv_misc/lv_area.h ****  * @return the width of the area (if x1 == x2 -> width = 1)
  85:..\..\..\lvgl\version_6.1.2\lvgl\src\lv_objx\../lv_core/../lv_misc/lv_area.h ****  */
  86:..\..\..\lvgl\version_6.1.2\lvgl\src\lv_objx\../lv_core/../lv_misc/lv_area.h **** static inline lv_coord_t lv_area_get_width(const lv_area_t * area_p)
  87:..\..\..\lvgl\version_6.1.2\lvgl\src\lv_objx\../lv_core/../lv_misc/lv_area.h **** {
  66              		.loc 2 87 0
  67              		.cfi_startproc
  68              		@ args = 0, pretend = 0, frame = 8
  69              		@ frame_needed = 1, uses_anonymous_args = 0
  70              		@ link register save eliminated.
  71 0000 80B4     		push	{r7}
ARM GAS  C:\Users\tmj32\AppData\Local\Temp\cc94ZBZn.s 			page 6


  72              		.cfi_def_cfa_offset 4
  73              		.cfi_offset 7, -4
  74 0002 83B0     		sub	sp, sp, #12
  75              		.cfi_def_cfa_offset 16
  76 0004 00AF     		add	r7, sp, #0
  77              		.cfi_def_cfa_register 7
  78 0006 7860     		str	r0, [r7, #4]
  88:..\..\..\lvgl\version_6.1.2\lvgl\src\lv_objx\../lv_core/../lv_misc/lv_area.h ****     return (lv_coord_t)(area_p->x2 - area_p->x1 + 1);
  79              		.loc 2 88 0
  80 0008 7B68     		ldr	r3, [r7, #4]
  81 000a B3F90430 		ldrsh	r3, [r3, #4]
  82 000e 9AB2     		uxth	r2, r3
  83 0010 7B68     		ldr	r3, [r7, #4]
  84 0012 B3F90030 		ldrsh	r3, [r3]
  85 0016 9BB2     		uxth	r3, r3
  86 0018 D31A     		subs	r3, r2, r3
  87 001a 9BB2     		uxth	r3, r3
  88 001c 0133     		adds	r3, r3, #1
  89 001e 9BB2     		uxth	r3, r3
  90 0020 1BB2     		sxth	r3, r3
  89:..\..\..\lvgl\version_6.1.2\lvgl\src\lv_objx\../lv_core/../lv_misc/lv_area.h **** }
  91              		.loc 2 89 0
  92 0022 1846     		mov	r0, r3
  93 0024 0C37     		adds	r7, r7, #12
  94              		.cfi_def_cfa_offset 4
  95 0026 BD46     		mov	sp, r7
  96              		.cfi_def_cfa_register 13
  97              		@ sp needed
  98 0028 5DF8047B 		ldr	r7, [sp], #4
  99              		.cfi_restore 7
 100              		.cfi_def_cfa_offset 0
 101 002c 7047     		bx	lr
 102              		.cfi_endproc
 103              	.LFE11:
 104              		.size	lv_area_get_width, .-lv_area_get_width
 105 002e 00BF     		.section	.text.lv_area_get_height,"ax",%progbits
 106              		.align	2
 107              		.thumb
 108              		.thumb_func
 109              		.type	lv_area_get_height, %function
 110              	lv_area_get_height:
 111              	.LFB12:
  90:..\..\..\lvgl\version_6.1.2\lvgl\src\lv_objx\../lv_core/../lv_misc/lv_area.h **** 
  91:..\..\..\lvgl\version_6.1.2\lvgl\src\lv_objx\../lv_core/../lv_misc/lv_area.h **** /**
  92:..\..\..\lvgl\version_6.1.2\lvgl\src\lv_objx\../lv_core/../lv_misc/lv_area.h ****  * Get the height of an area
  93:..\..\..\lvgl\version_6.1.2\lvgl\src\lv_objx\../lv_core/../lv_misc/lv_area.h ****  * @param area_p pointer to an area
  94:..\..\..\lvgl\version_6.1.2\lvgl\src\lv_objx\../lv_core/../lv_misc/lv_area.h ****  * @return the height of the area (if y1 == y2 -> height = 1)
  95:..\..\..\lvgl\version_6.1.2\lvgl\src\lv_objx\../lv_core/../lv_misc/lv_area.h ****  */
  96:..\..\..\lvgl\version_6.1.2\lvgl\src\lv_objx\../lv_core/../lv_misc/lv_area.h **** static inline lv_coord_t lv_area_get_height(const lv_area_t * area_p)
  97:..\..\..\lvgl\version_6.1.2\lvgl\src\lv_objx\../lv_core/../lv_misc/lv_area.h **** {
 112              		.loc 2 97 0
 113              		.cfi_startproc
 114              		@ args = 0, pretend = 0, frame = 8
 115              		@ frame_needed = 1, uses_anonymous_args = 0
 116              		@ link register save eliminated.
 117 0000 80B4     		push	{r7}
 118              		.cfi_def_cfa_offset 4
ARM GAS  C:\Users\tmj32\AppData\Local\Temp\cc94ZBZn.s 			page 7


 119              		.cfi_offset 7, -4
 120 0002 83B0     		sub	sp, sp, #12
 121              		.cfi_def_cfa_offset 16
 122 0004 00AF     		add	r7, sp, #0
 123              		.cfi_def_cfa_register 7
 124 0006 7860     		str	r0, [r7, #4]
  98:..\..\..\lvgl\version_6.1.2\lvgl\src\lv_objx\../lv_core/../lv_misc/lv_area.h ****     return (lv_coord_t)(area_p->y2 - area_p->y1 + 1);
 125              		.loc 2 98 0
 126 0008 7B68     		ldr	r3, [r7, #4]
 127 000a B3F90630 		ldrsh	r3, [r3, #6]
 128 000e 9AB2     		uxth	r2, r3
 129 0010 7B68     		ldr	r3, [r7, #4]
 130 0012 B3F90230 		ldrsh	r3, [r3, #2]
 131 0016 9BB2     		uxth	r3, r3
 132 0018 D31A     		subs	r3, r2, r3
 133 001a 9BB2     		uxth	r3, r3
 134 001c 0133     		adds	r3, r3, #1
 135 001e 9BB2     		uxth	r3, r3
 136 0020 1BB2     		sxth	r3, r3
  99:..\..\..\lvgl\version_6.1.2\lvgl\src\lv_objx\../lv_core/../lv_misc/lv_area.h **** }
 137              		.loc 2 99 0
 138 0022 1846     		mov	r0, r3
 139 0024 0C37     		adds	r7, r7, #12
 140              		.cfi_def_cfa_offset 4
 141 0026 BD46     		mov	sp, r7
 142              		.cfi_def_cfa_register 13
 143              		@ sp needed
 144 0028 5DF8047B 		ldr	r7, [sp], #4
 145              		.cfi_restore 7
 146              		.cfi_def_cfa_offset 0
 147 002c 7047     		bx	lr
 148              		.cfi_endproc
 149              	.LFE12:
 150              		.size	lv_area_get_height, .-lv_area_get_height
 151 002e 00BF     		.section	.text.lv_cont_set_fit2,"ax",%progbits
 152              		.align	2
 153              		.thumb
 154              		.thumb_func
 155              		.type	lv_cont_set_fit2, %function
 156              	lv_cont_set_fit2:
 157              	.LFB31:
 158              		.file 3 "..\\..\\..\\lvgl\\version_6.1.2\\lvgl\\src\\lv_objx\\../lv_objx/lv_cont.h"
   1:..\..\..\lvgl\version_6.1.2\lvgl\src\lv_objx\../lv_objx/lv_cont.h **** /**
   2:..\..\..\lvgl\version_6.1.2\lvgl\src\lv_objx\../lv_objx/lv_cont.h ****  * @file lv_cont.h
   3:..\..\..\lvgl\version_6.1.2\lvgl\src\lv_objx\../lv_objx/lv_cont.h ****  *
   4:..\..\..\lvgl\version_6.1.2\lvgl\src\lv_objx\../lv_objx/lv_cont.h ****  */
   5:..\..\..\lvgl\version_6.1.2\lvgl\src\lv_objx\../lv_objx/lv_cont.h **** 
   6:..\..\..\lvgl\version_6.1.2\lvgl\src\lv_objx\../lv_objx/lv_cont.h **** #ifndef LV_CONT_H
   7:..\..\..\lvgl\version_6.1.2\lvgl\src\lv_objx\../lv_objx/lv_cont.h **** #define LV_CONT_H
   8:..\..\..\lvgl\version_6.1.2\lvgl\src\lv_objx\../lv_objx/lv_cont.h **** 
   9:..\..\..\lvgl\version_6.1.2\lvgl\src\lv_objx\../lv_objx/lv_cont.h **** #ifdef __cplusplus
  10:..\..\..\lvgl\version_6.1.2\lvgl\src\lv_objx\../lv_objx/lv_cont.h **** extern "C" {
  11:..\..\..\lvgl\version_6.1.2\lvgl\src\lv_objx\../lv_objx/lv_cont.h **** #endif
  12:..\..\..\lvgl\version_6.1.2\lvgl\src\lv_objx\../lv_objx/lv_cont.h **** 
  13:..\..\..\lvgl\version_6.1.2\lvgl\src\lv_objx\../lv_objx/lv_cont.h **** /*********************
  14:..\..\..\lvgl\version_6.1.2\lvgl\src\lv_objx\../lv_objx/lv_cont.h ****  *      INCLUDES
  15:..\..\..\lvgl\version_6.1.2\lvgl\src\lv_objx\../lv_objx/lv_cont.h ****  *********************/
ARM GAS  C:\Users\tmj32\AppData\Local\Temp\cc94ZBZn.s 			page 8


  16:..\..\..\lvgl\version_6.1.2\lvgl\src\lv_objx\../lv_objx/lv_cont.h **** #ifdef LV_CONF_INCLUDE_SIMPLE
  17:..\..\..\lvgl\version_6.1.2\lvgl\src\lv_objx\../lv_objx/lv_cont.h **** #include "lv_conf.h"
  18:..\..\..\lvgl\version_6.1.2\lvgl\src\lv_objx\../lv_objx/lv_cont.h **** #else
  19:..\..\..\lvgl\version_6.1.2\lvgl\src\lv_objx\../lv_objx/lv_cont.h **** #include "../../../lv_conf.h"
  20:..\..\..\lvgl\version_6.1.2\lvgl\src\lv_objx\../lv_objx/lv_cont.h **** #endif
  21:..\..\..\lvgl\version_6.1.2\lvgl\src\lv_objx\../lv_objx/lv_cont.h **** 
  22:..\..\..\lvgl\version_6.1.2\lvgl\src\lv_objx\../lv_objx/lv_cont.h **** #if LV_USE_CONT != 0
  23:..\..\..\lvgl\version_6.1.2\lvgl\src\lv_objx\../lv_objx/lv_cont.h **** 
  24:..\..\..\lvgl\version_6.1.2\lvgl\src\lv_objx\../lv_objx/lv_cont.h **** #include "../lv_core/lv_obj.h"
  25:..\..\..\lvgl\version_6.1.2\lvgl\src\lv_objx\../lv_objx/lv_cont.h **** 
  26:..\..\..\lvgl\version_6.1.2\lvgl\src\lv_objx\../lv_objx/lv_cont.h **** /*********************
  27:..\..\..\lvgl\version_6.1.2\lvgl\src\lv_objx\../lv_objx/lv_cont.h ****  *      DEFINES
  28:..\..\..\lvgl\version_6.1.2\lvgl\src\lv_objx\../lv_objx/lv_cont.h ****  *********************/
  29:..\..\..\lvgl\version_6.1.2\lvgl\src\lv_objx\../lv_objx/lv_cont.h **** 
  30:..\..\..\lvgl\version_6.1.2\lvgl\src\lv_objx\../lv_objx/lv_cont.h **** /**********************
  31:..\..\..\lvgl\version_6.1.2\lvgl\src\lv_objx\../lv_objx/lv_cont.h ****  *      TYPEDEFS
  32:..\..\..\lvgl\version_6.1.2\lvgl\src\lv_objx\../lv_objx/lv_cont.h ****  **********************/
  33:..\..\..\lvgl\version_6.1.2\lvgl\src\lv_objx\../lv_objx/lv_cont.h **** 
  34:..\..\..\lvgl\version_6.1.2\lvgl\src\lv_objx\../lv_objx/lv_cont.h **** /** Container layout options*/
  35:..\..\..\lvgl\version_6.1.2\lvgl\src\lv_objx\../lv_objx/lv_cont.h **** enum {
  36:..\..\..\lvgl\version_6.1.2\lvgl\src\lv_objx\../lv_objx/lv_cont.h ****     LV_LAYOUT_OFF = 0, /**< No layout */
  37:..\..\..\lvgl\version_6.1.2\lvgl\src\lv_objx\../lv_objx/lv_cont.h ****     LV_LAYOUT_CENTER, /**< Center objects */
  38:..\..\..\lvgl\version_6.1.2\lvgl\src\lv_objx\../lv_objx/lv_cont.h ****     LV_LAYOUT_COL_L,  /**< Column left align*/
  39:..\..\..\lvgl\version_6.1.2\lvgl\src\lv_objx\../lv_objx/lv_cont.h ****     LV_LAYOUT_COL_M,  /**< Column middle align*/
  40:..\..\..\lvgl\version_6.1.2\lvgl\src\lv_objx\../lv_objx/lv_cont.h ****     LV_LAYOUT_COL_R,  /**< Column right align*/
  41:..\..\..\lvgl\version_6.1.2\lvgl\src\lv_objx\../lv_objx/lv_cont.h ****     LV_LAYOUT_ROW_T,  /**< Row top align*/
  42:..\..\..\lvgl\version_6.1.2\lvgl\src\lv_objx\../lv_objx/lv_cont.h ****     LV_LAYOUT_ROW_M,  /**< Row middle align*/
  43:..\..\..\lvgl\version_6.1.2\lvgl\src\lv_objx\../lv_objx/lv_cont.h ****     LV_LAYOUT_ROW_B,  /**< Row bottom align*/
  44:..\..\..\lvgl\version_6.1.2\lvgl\src\lv_objx\../lv_objx/lv_cont.h ****     LV_LAYOUT_PRETTY, /**< Put as many object as possible in row and begin a new row*/
  45:..\..\..\lvgl\version_6.1.2\lvgl\src\lv_objx\../lv_objx/lv_cont.h ****     LV_LAYOUT_GRID,   /**< Align same-sized object into a grid*/
  46:..\..\..\lvgl\version_6.1.2\lvgl\src\lv_objx\../lv_objx/lv_cont.h ****     _LV_LAYOUT_NUM
  47:..\..\..\lvgl\version_6.1.2\lvgl\src\lv_objx\../lv_objx/lv_cont.h **** };
  48:..\..\..\lvgl\version_6.1.2\lvgl\src\lv_objx\../lv_objx/lv_cont.h **** typedef uint8_t lv_layout_t;
  49:..\..\..\lvgl\version_6.1.2\lvgl\src\lv_objx\../lv_objx/lv_cont.h **** 
  50:..\..\..\lvgl\version_6.1.2\lvgl\src\lv_objx\../lv_objx/lv_cont.h **** /**
  51:..\..\..\lvgl\version_6.1.2\lvgl\src\lv_objx\../lv_objx/lv_cont.h ****  * How to resize the container around the children.
  52:..\..\..\lvgl\version_6.1.2\lvgl\src\lv_objx\../lv_objx/lv_cont.h ****  */
  53:..\..\..\lvgl\version_6.1.2\lvgl\src\lv_objx\../lv_objx/lv_cont.h **** enum {
  54:..\..\..\lvgl\version_6.1.2\lvgl\src\lv_objx\../lv_objx/lv_cont.h ****     LV_FIT_NONE,  /**< Do not change the size automatically*/
  55:..\..\..\lvgl\version_6.1.2\lvgl\src\lv_objx\../lv_objx/lv_cont.h ****     LV_FIT_TIGHT, /**< Shrink wrap around the children */
  56:..\..\..\lvgl\version_6.1.2\lvgl\src\lv_objx\../lv_objx/lv_cont.h ****     LV_FIT_FLOOD, /**< Align the size to the parent's edge*/
  57:..\..\..\lvgl\version_6.1.2\lvgl\src\lv_objx\../lv_objx/lv_cont.h ****     LV_FIT_FILL,  /**< Align the size to the parent's edge first but if there is an object out of i
  58:..\..\..\lvgl\version_6.1.2\lvgl\src\lv_objx\../lv_objx/lv_cont.h ****                      then get larger */
  59:..\..\..\lvgl\version_6.1.2\lvgl\src\lv_objx\../lv_objx/lv_cont.h ****     _LV_FIT_NUM
  60:..\..\..\lvgl\version_6.1.2\lvgl\src\lv_objx\../lv_objx/lv_cont.h **** };
  61:..\..\..\lvgl\version_6.1.2\lvgl\src\lv_objx\../lv_objx/lv_cont.h **** typedef uint8_t lv_fit_t;
  62:..\..\..\lvgl\version_6.1.2\lvgl\src\lv_objx\../lv_objx/lv_cont.h **** 
  63:..\..\..\lvgl\version_6.1.2\lvgl\src\lv_objx\../lv_objx/lv_cont.h **** typedef struct
  64:..\..\..\lvgl\version_6.1.2\lvgl\src\lv_objx\../lv_objx/lv_cont.h **** {
  65:..\..\..\lvgl\version_6.1.2\lvgl\src\lv_objx\../lv_objx/lv_cont.h ****     /*Inherited from 'base_obj' so no inherited ext. */ /*Ext. of ancestor*/
  66:..\..\..\lvgl\version_6.1.2\lvgl\src\lv_objx\../lv_objx/lv_cont.h ****     /*New data for this type */
  67:..\..\..\lvgl\version_6.1.2\lvgl\src\lv_objx\../lv_objx/lv_cont.h ****     uint8_t layout : 4;     /*A layout from 'lv_layout_t' enum*/
  68:..\..\..\lvgl\version_6.1.2\lvgl\src\lv_objx\../lv_objx/lv_cont.h ****     uint8_t fit_left : 2;   /*A fit type from `lv_fit_t` enum */
  69:..\..\..\lvgl\version_6.1.2\lvgl\src\lv_objx\../lv_objx/lv_cont.h ****     uint8_t fit_right : 2;  /*A fit type from `lv_fit_t` enum */
  70:..\..\..\lvgl\version_6.1.2\lvgl\src\lv_objx\../lv_objx/lv_cont.h ****     uint8_t fit_top : 2;    /*A fit type from `lv_fit_t` enum */
  71:..\..\..\lvgl\version_6.1.2\lvgl\src\lv_objx\../lv_objx/lv_cont.h ****     uint8_t fit_bottom : 2; /*A fit type from `lv_fit_t` enum */
  72:..\..\..\lvgl\version_6.1.2\lvgl\src\lv_objx\../lv_objx/lv_cont.h **** } lv_cont_ext_t;
ARM GAS  C:\Users\tmj32\AppData\Local\Temp\cc94ZBZn.s 			page 9


  73:..\..\..\lvgl\version_6.1.2\lvgl\src\lv_objx\../lv_objx/lv_cont.h **** 
  74:..\..\..\lvgl\version_6.1.2\lvgl\src\lv_objx\../lv_objx/lv_cont.h **** /*Styles*/
  75:..\..\..\lvgl\version_6.1.2\lvgl\src\lv_objx\../lv_objx/lv_cont.h **** enum {
  76:..\..\..\lvgl\version_6.1.2\lvgl\src\lv_objx\../lv_objx/lv_cont.h ****     LV_CONT_STYLE_MAIN,
  77:..\..\..\lvgl\version_6.1.2\lvgl\src\lv_objx\../lv_objx/lv_cont.h **** };
  78:..\..\..\lvgl\version_6.1.2\lvgl\src\lv_objx\../lv_objx/lv_cont.h **** typedef uint8_t lv_cont_style_t;
  79:..\..\..\lvgl\version_6.1.2\lvgl\src\lv_objx\../lv_objx/lv_cont.h **** 
  80:..\..\..\lvgl\version_6.1.2\lvgl\src\lv_objx\../lv_objx/lv_cont.h **** /**********************
  81:..\..\..\lvgl\version_6.1.2\lvgl\src\lv_objx\../lv_objx/lv_cont.h ****  * GLOBAL PROTOTYPES
  82:..\..\..\lvgl\version_6.1.2\lvgl\src\lv_objx\../lv_objx/lv_cont.h ****  **********************/
  83:..\..\..\lvgl\version_6.1.2\lvgl\src\lv_objx\../lv_objx/lv_cont.h **** 
  84:..\..\..\lvgl\version_6.1.2\lvgl\src\lv_objx\../lv_objx/lv_cont.h **** /**
  85:..\..\..\lvgl\version_6.1.2\lvgl\src\lv_objx\../lv_objx/lv_cont.h ****  * Create a container objects
  86:..\..\..\lvgl\version_6.1.2\lvgl\src\lv_objx\../lv_objx/lv_cont.h ****  * @param par pointer to an object, it will be the parent of the new container
  87:..\..\..\lvgl\version_6.1.2\lvgl\src\lv_objx\../lv_objx/lv_cont.h ****  * @param copy pointer to a container object, if not NULL then the new object will be copied from i
  88:..\..\..\lvgl\version_6.1.2\lvgl\src\lv_objx\../lv_objx/lv_cont.h ****  * @return pointer to the created container
  89:..\..\..\lvgl\version_6.1.2\lvgl\src\lv_objx\../lv_objx/lv_cont.h ****  */
  90:..\..\..\lvgl\version_6.1.2\lvgl\src\lv_objx\../lv_objx/lv_cont.h **** lv_obj_t * lv_cont_create(lv_obj_t * par, const lv_obj_t * copy);
  91:..\..\..\lvgl\version_6.1.2\lvgl\src\lv_objx\../lv_objx/lv_cont.h **** 
  92:..\..\..\lvgl\version_6.1.2\lvgl\src\lv_objx\../lv_objx/lv_cont.h **** /*=====================
  93:..\..\..\lvgl\version_6.1.2\lvgl\src\lv_objx\../lv_objx/lv_cont.h ****  * Setter functions
  94:..\..\..\lvgl\version_6.1.2\lvgl\src\lv_objx\../lv_objx/lv_cont.h ****  *====================*/
  95:..\..\..\lvgl\version_6.1.2\lvgl\src\lv_objx\../lv_objx/lv_cont.h **** 
  96:..\..\..\lvgl\version_6.1.2\lvgl\src\lv_objx\../lv_objx/lv_cont.h **** /**
  97:..\..\..\lvgl\version_6.1.2\lvgl\src\lv_objx\../lv_objx/lv_cont.h ****  * Set a layout on a container
  98:..\..\..\lvgl\version_6.1.2\lvgl\src\lv_objx\../lv_objx/lv_cont.h ****  * @param cont pointer to a container object
  99:..\..\..\lvgl\version_6.1.2\lvgl\src\lv_objx\../lv_objx/lv_cont.h ****  * @param layout a layout from 'lv_cont_layout_t'
 100:..\..\..\lvgl\version_6.1.2\lvgl\src\lv_objx\../lv_objx/lv_cont.h ****  */
 101:..\..\..\lvgl\version_6.1.2\lvgl\src\lv_objx\../lv_objx/lv_cont.h **** void lv_cont_set_layout(lv_obj_t * cont, lv_layout_t layout);
 102:..\..\..\lvgl\version_6.1.2\lvgl\src\lv_objx\../lv_objx/lv_cont.h **** 
 103:..\..\..\lvgl\version_6.1.2\lvgl\src\lv_objx\../lv_objx/lv_cont.h **** /**
 104:..\..\..\lvgl\version_6.1.2\lvgl\src\lv_objx\../lv_objx/lv_cont.h ****  * Set the fit policy in all 4 directions separately.
 105:..\..\..\lvgl\version_6.1.2\lvgl\src\lv_objx\../lv_objx/lv_cont.h ****  * It tell how to change the container's size automatically.
 106:..\..\..\lvgl\version_6.1.2\lvgl\src\lv_objx\../lv_objx/lv_cont.h ****  * @param cont pointer to a container object
 107:..\..\..\lvgl\version_6.1.2\lvgl\src\lv_objx\../lv_objx/lv_cont.h ****  * @param left left fit policy from `lv_fit_t`
 108:..\..\..\lvgl\version_6.1.2\lvgl\src\lv_objx\../lv_objx/lv_cont.h ****  * @param right right fit policy from `lv_fit_t`
 109:..\..\..\lvgl\version_6.1.2\lvgl\src\lv_objx\../lv_objx/lv_cont.h ****  * @param top top fit policy from `lv_fit_t`
 110:..\..\..\lvgl\version_6.1.2\lvgl\src\lv_objx\../lv_objx/lv_cont.h ****  * @param bottom bottom fit policy from `lv_fit_t`
 111:..\..\..\lvgl\version_6.1.2\lvgl\src\lv_objx\../lv_objx/lv_cont.h ****  */
 112:..\..\..\lvgl\version_6.1.2\lvgl\src\lv_objx\../lv_objx/lv_cont.h **** void lv_cont_set_fit4(lv_obj_t * cont, lv_fit_t left, lv_fit_t right, lv_fit_t top, lv_fit_t bottom
 113:..\..\..\lvgl\version_6.1.2\lvgl\src\lv_objx\../lv_objx/lv_cont.h **** 
 114:..\..\..\lvgl\version_6.1.2\lvgl\src\lv_objx\../lv_objx/lv_cont.h **** /**
 115:..\..\..\lvgl\version_6.1.2\lvgl\src\lv_objx\../lv_objx/lv_cont.h ****  * Set the fit policy horizontally and vertically separately.
 116:..\..\..\lvgl\version_6.1.2\lvgl\src\lv_objx\../lv_objx/lv_cont.h ****  * It tells how to change the container's size automatically.
 117:..\..\..\lvgl\version_6.1.2\lvgl\src\lv_objx\../lv_objx/lv_cont.h ****  * @param cont pointer to a container object
 118:..\..\..\lvgl\version_6.1.2\lvgl\src\lv_objx\../lv_objx/lv_cont.h ****  * @param hor horizontal fit policy from `lv_fit_t`
 119:..\..\..\lvgl\version_6.1.2\lvgl\src\lv_objx\../lv_objx/lv_cont.h ****  * @param ver vertical fit policy from `lv_fit_t`
 120:..\..\..\lvgl\version_6.1.2\lvgl\src\lv_objx\../lv_objx/lv_cont.h ****  */
 121:..\..\..\lvgl\version_6.1.2\lvgl\src\lv_objx\../lv_objx/lv_cont.h **** static inline void lv_cont_set_fit2(lv_obj_t * cont, lv_fit_t hor, lv_fit_t ver)
 122:..\..\..\lvgl\version_6.1.2\lvgl\src\lv_objx\../lv_objx/lv_cont.h **** {
 159              		.loc 3 122 0
 160              		.cfi_startproc
 161              		@ args = 0, pretend = 0, frame = 8
 162              		@ frame_needed = 1, uses_anonymous_args = 0
 163 0000 80B5     		push	{r7, lr}
 164              		.cfi_def_cfa_offset 8
 165              		.cfi_offset 7, -8
ARM GAS  C:\Users\tmj32\AppData\Local\Temp\cc94ZBZn.s 			page 10


 166              		.cfi_offset 14, -4
 167 0002 84B0     		sub	sp, sp, #16
 168              		.cfi_def_cfa_offset 24
 169 0004 02AF     		add	r7, sp, #8
 170              		.cfi_def_cfa 7, 16
 171 0006 7860     		str	r0, [r7, #4]
 172 0008 0B46     		mov	r3, r1
 173 000a FB70     		strb	r3, [r7, #3]
 174 000c 1346     		mov	r3, r2
 175 000e BB70     		strb	r3, [r7, #2]
 123:..\..\..\lvgl\version_6.1.2\lvgl\src\lv_objx\../lv_objx/lv_cont.h ****     lv_cont_set_fit4(cont, hor, hor, ver, ver);
 176              		.loc 3 123 0
 177 0010 B878     		ldrb	r0, [r7, #2]	@ zero_extendqisi2
 178 0012 FA78     		ldrb	r2, [r7, #3]	@ zero_extendqisi2
 179 0014 F978     		ldrb	r1, [r7, #3]	@ zero_extendqisi2
 180 0016 BB78     		ldrb	r3, [r7, #2]	@ zero_extendqisi2
 181 0018 0093     		str	r3, [sp]
 182 001a 0346     		mov	r3, r0
 183 001c 7868     		ldr	r0, [r7, #4]
 184 001e FFF7FEFF 		bl	lv_cont_set_fit4
 124:..\..\..\lvgl\version_6.1.2\lvgl\src\lv_objx\../lv_objx/lv_cont.h **** }
 185              		.loc 3 124 0
 186 0022 00BF     		nop
 187 0024 0837     		adds	r7, r7, #8
 188              		.cfi_def_cfa_offset 8
 189 0026 BD46     		mov	sp, r7
 190              		.cfi_def_cfa_register 13
 191              		@ sp needed
 192 0028 80BD     		pop	{r7, pc}
 193              		.cfi_endproc
 194              	.LFE31:
 195              		.size	lv_cont_set_fit2, .-lv_cont_set_fit2
 196 002a 00BF     		.section	.text.lv_cont_set_style,"ax",%progbits
 197              		.align	2
 198              		.thumb
 199              		.thumb_func
 200              		.type	lv_cont_set_style, %function
 201              	lv_cont_set_style:
 202              	.LFB33:
 125:..\..\..\lvgl\version_6.1.2\lvgl\src\lv_objx\../lv_objx/lv_cont.h **** 
 126:..\..\..\lvgl\version_6.1.2\lvgl\src\lv_objx\../lv_objx/lv_cont.h **** /**
 127:..\..\..\lvgl\version_6.1.2\lvgl\src\lv_objx\../lv_objx/lv_cont.h ****  * Set the fit policy in all 4 direction at once.
 128:..\..\..\lvgl\version_6.1.2\lvgl\src\lv_objx\../lv_objx/lv_cont.h ****  * It tells how to change the container's size automatically.
 129:..\..\..\lvgl\version_6.1.2\lvgl\src\lv_objx\../lv_objx/lv_cont.h ****  * @param cont pointer to a container object
 130:..\..\..\lvgl\version_6.1.2\lvgl\src\lv_objx\../lv_objx/lv_cont.h ****  * @param fit fit policy from `lv_fit_t`
 131:..\..\..\lvgl\version_6.1.2\lvgl\src\lv_objx\../lv_objx/lv_cont.h ****  */
 132:..\..\..\lvgl\version_6.1.2\lvgl\src\lv_objx\../lv_objx/lv_cont.h **** static inline void lv_cont_set_fit(lv_obj_t * cont, lv_fit_t fit)
 133:..\..\..\lvgl\version_6.1.2\lvgl\src\lv_objx\../lv_objx/lv_cont.h **** {
 134:..\..\..\lvgl\version_6.1.2\lvgl\src\lv_objx\../lv_objx/lv_cont.h ****     lv_cont_set_fit4(cont, fit, fit, fit, fit);
 135:..\..\..\lvgl\version_6.1.2\lvgl\src\lv_objx\../lv_objx/lv_cont.h **** }
 136:..\..\..\lvgl\version_6.1.2\lvgl\src\lv_objx\../lv_objx/lv_cont.h **** 
 137:..\..\..\lvgl\version_6.1.2\lvgl\src\lv_objx\../lv_objx/lv_cont.h **** /**
 138:..\..\..\lvgl\version_6.1.2\lvgl\src\lv_objx\../lv_objx/lv_cont.h ****  * Set the style of a container
 139:..\..\..\lvgl\version_6.1.2\lvgl\src\lv_objx\../lv_objx/lv_cont.h ****  * @param cont pointer to a container object
 140:..\..\..\lvgl\version_6.1.2\lvgl\src\lv_objx\../lv_objx/lv_cont.h ****  * @param type which style should be set (can be only `LV_CONT_STYLE_MAIN`)
 141:..\..\..\lvgl\version_6.1.2\lvgl\src\lv_objx\../lv_objx/lv_cont.h ****  * @param style pointer to the new style
 142:..\..\..\lvgl\version_6.1.2\lvgl\src\lv_objx\../lv_objx/lv_cont.h ****  */
ARM GAS  C:\Users\tmj32\AppData\Local\Temp\cc94ZBZn.s 			page 11


 143:..\..\..\lvgl\version_6.1.2\lvgl\src\lv_objx\../lv_objx/lv_cont.h **** static inline void lv_cont_set_style(lv_obj_t * cont, lv_cont_style_t type, const lv_style_t * styl
 144:..\..\..\lvgl\version_6.1.2\lvgl\src\lv_objx\../lv_objx/lv_cont.h **** {
 203              		.loc 3 144 0
 204              		.cfi_startproc
 205              		@ args = 0, pretend = 0, frame = 16
 206              		@ frame_needed = 1, uses_anonymous_args = 0
 207 0000 80B5     		push	{r7, lr}
 208              		.cfi_def_cfa_offset 8
 209              		.cfi_offset 7, -8
 210              		.cfi_offset 14, -4
 211 0002 84B0     		sub	sp, sp, #16
 212              		.cfi_def_cfa_offset 24
 213 0004 00AF     		add	r7, sp, #0
 214              		.cfi_def_cfa_register 7
 215 0006 F860     		str	r0, [r7, #12]
 216 0008 0B46     		mov	r3, r1
 217 000a 7A60     		str	r2, [r7, #4]
 218 000c FB72     		strb	r3, [r7, #11]
 145:..\..\..\lvgl\version_6.1.2\lvgl\src\lv_objx\../lv_objx/lv_cont.h ****     (void)type; /*Unused*/
 146:..\..\..\lvgl\version_6.1.2\lvgl\src\lv_objx\../lv_objx/lv_cont.h ****     lv_obj_set_style(cont, style);
 219              		.loc 3 146 0
 220 000e 7968     		ldr	r1, [r7, #4]
 221 0010 F868     		ldr	r0, [r7, #12]
 222 0012 FFF7FEFF 		bl	lv_obj_set_style
 147:..\..\..\lvgl\version_6.1.2\lvgl\src\lv_objx\../lv_objx/lv_cont.h **** }
 223              		.loc 3 147 0
 224 0016 00BF     		nop
 225 0018 1037     		adds	r7, r7, #16
 226              		.cfi_def_cfa_offset 8
 227 001a BD46     		mov	sp, r7
 228              		.cfi_def_cfa_register 13
 229              		@ sp needed
 230 001c 80BD     		pop	{r7, pc}
 231              		.cfi_endproc
 232              	.LFE33:
 233              		.size	lv_cont_set_style, .-lv_cont_set_style
 234 001e 00BF     		.bss
 235              		.align	2
 236              	ancestor_signal:
 237 0000 00000000 		.space	4
 238              		.align	2
 239              	page_signal:
 240 0004 00000000 		.space	4
 241              		.align	2
 242              	page_scrl_signal:
 243 0008 00000000 		.space	4
 244              		.section	.rodata
 245              		.align	2
 246              	.LC0:
 247 0000 00       		.ascii	"\000"
 248              		.data
 249              		.align	2
 250              		.type	tab_def, %object
 251              		.size	tab_def, 4
 252              	tab_def:
 253 0000 00000000 		.word	.LC0
 254              		.section	.text.lv_tabview_create,"ax",%progbits
ARM GAS  C:\Users\tmj32\AppData\Local\Temp\cc94ZBZn.s 			page 12


 255              		.align	2
 256              		.global	lv_tabview_create
 257              		.thumb
 258              		.thumb_func
 259              		.type	lv_tabview_create, %function
 260              	lv_tabview_create:
 261              	.LFB68:
 262              		.file 4 "..\\..\\..\\lvgl\\version_6.1.2\\lvgl\\src\\lv_objx\\lv_tabview.c"
   1:..\..\..\lvgl\version_6.1.2\lvgl\src\lv_objx/lv_tabview.c **** /**
   2:..\..\..\lvgl\version_6.1.2\lvgl\src\lv_objx/lv_tabview.c ****  * @file lv_tab.c
   3:..\..\..\lvgl\version_6.1.2\lvgl\src\lv_objx/lv_tabview.c ****  *
   4:..\..\..\lvgl\version_6.1.2\lvgl\src\lv_objx/lv_tabview.c ****  */
   5:..\..\..\lvgl\version_6.1.2\lvgl\src\lv_objx/lv_tabview.c **** 
   6:..\..\..\lvgl\version_6.1.2\lvgl\src\lv_objx/lv_tabview.c **** /*********************
   7:..\..\..\lvgl\version_6.1.2\lvgl\src\lv_objx/lv_tabview.c ****  *      INCLUDES
   8:..\..\..\lvgl\version_6.1.2\lvgl\src\lv_objx/lv_tabview.c ****  *********************/
   9:..\..\..\lvgl\version_6.1.2\lvgl\src\lv_objx/lv_tabview.c **** #include "lv_tabview.h"
  10:..\..\..\lvgl\version_6.1.2\lvgl\src\lv_objx/lv_tabview.c **** #if LV_USE_TABVIEW != 0
  11:..\..\..\lvgl\version_6.1.2\lvgl\src\lv_objx/lv_tabview.c **** 
  12:..\..\..\lvgl\version_6.1.2\lvgl\src\lv_objx/lv_tabview.c **** #include "lv_btnm.h"
  13:..\..\..\lvgl\version_6.1.2\lvgl\src\lv_objx/lv_tabview.c **** #include "../lv_core/lv_debug.h"
  14:..\..\..\lvgl\version_6.1.2\lvgl\src\lv_objx/lv_tabview.c **** #include "../lv_themes/lv_theme.h"
  15:..\..\..\lvgl\version_6.1.2\lvgl\src\lv_objx/lv_tabview.c **** #include "../lv_misc/lv_anim.h"
  16:..\..\..\lvgl\version_6.1.2\lvgl\src\lv_objx/lv_tabview.c **** #include "../lv_core/lv_disp.h"
  17:..\..\..\lvgl\version_6.1.2\lvgl\src\lv_objx/lv_tabview.c **** 
  18:..\..\..\lvgl\version_6.1.2\lvgl\src\lv_objx/lv_tabview.c **** /*********************
  19:..\..\..\lvgl\version_6.1.2\lvgl\src\lv_objx/lv_tabview.c ****  *      DEFINES
  20:..\..\..\lvgl\version_6.1.2\lvgl\src\lv_objx/lv_tabview.c ****  *********************/
  21:..\..\..\lvgl\version_6.1.2\lvgl\src\lv_objx/lv_tabview.c **** #define LV_OBJX_NAME "lv_tabview"
  22:..\..\..\lvgl\version_6.1.2\lvgl\src\lv_objx/lv_tabview.c **** 
  23:..\..\..\lvgl\version_6.1.2\lvgl\src\lv_objx/lv_tabview.c **** #if LV_USE_ANIMATION
  24:..\..\..\lvgl\version_6.1.2\lvgl\src\lv_objx/lv_tabview.c **** #ifndef LV_TABVIEW_DEF_ANIM_TIME
  25:..\..\..\lvgl\version_6.1.2\lvgl\src\lv_objx/lv_tabview.c **** #define LV_TABVIEW_DEF_ANIM_TIME 300 /*Animation time of focusing to the a list element [ms] (0: no
  26:..\..\..\lvgl\version_6.1.2\lvgl\src\lv_objx/lv_tabview.c **** #endif
  27:..\..\..\lvgl\version_6.1.2\lvgl\src\lv_objx/lv_tabview.c **** #else
  28:..\..\..\lvgl\version_6.1.2\lvgl\src\lv_objx/lv_tabview.c **** #undef LV_TABVIEW_DEF_ANIM_TIME
  29:..\..\..\lvgl\version_6.1.2\lvgl\src\lv_objx/lv_tabview.c **** #define LV_TABVIEW_DEF_ANIM_TIME 0 /*No animations*/
  30:..\..\..\lvgl\version_6.1.2\lvgl\src\lv_objx/lv_tabview.c **** #endif
  31:..\..\..\lvgl\version_6.1.2\lvgl\src\lv_objx/lv_tabview.c **** 
  32:..\..\..\lvgl\version_6.1.2\lvgl\src\lv_objx/lv_tabview.c **** /**********************
  33:..\..\..\lvgl\version_6.1.2\lvgl\src\lv_objx/lv_tabview.c ****  *      TYPEDEFS
  34:..\..\..\lvgl\version_6.1.2\lvgl\src\lv_objx/lv_tabview.c ****  **********************/
  35:..\..\..\lvgl\version_6.1.2\lvgl\src\lv_objx/lv_tabview.c **** 
  36:..\..\..\lvgl\version_6.1.2\lvgl\src\lv_objx/lv_tabview.c **** /**********************
  37:..\..\..\lvgl\version_6.1.2\lvgl\src\lv_objx/lv_tabview.c ****  *  STATIC PROTOTYPES
  38:..\..\..\lvgl\version_6.1.2\lvgl\src\lv_objx/lv_tabview.c ****  **********************/
  39:..\..\..\lvgl\version_6.1.2\lvgl\src\lv_objx/lv_tabview.c **** static lv_res_t lv_tabview_signal(lv_obj_t * tabview, lv_signal_t sign, void * param);
  40:..\..\..\lvgl\version_6.1.2\lvgl\src\lv_objx/lv_tabview.c **** static lv_res_t tabpage_signal(lv_obj_t * tab_page, lv_signal_t sign, void * param);
  41:..\..\..\lvgl\version_6.1.2\lvgl\src\lv_objx/lv_tabview.c **** static lv_res_t tabpage_scrl_signal(lv_obj_t * tab_scrl, lv_signal_t sign, void * param);
  42:..\..\..\lvgl\version_6.1.2\lvgl\src\lv_objx/lv_tabview.c **** 
  43:..\..\..\lvgl\version_6.1.2\lvgl\src\lv_objx/lv_tabview.c **** static void tabpage_pressed_handler(lv_obj_t * tabview, lv_obj_t * tabpage);
  44:..\..\..\lvgl\version_6.1.2\lvgl\src\lv_objx/lv_tabview.c **** static void tabpage_pressing_handler(lv_obj_t * tabview, lv_obj_t * tabpage);
  45:..\..\..\lvgl\version_6.1.2\lvgl\src\lv_objx/lv_tabview.c **** static void tabpage_press_lost_handler(lv_obj_t * tabview, lv_obj_t * tabpage);
  46:..\..\..\lvgl\version_6.1.2\lvgl\src\lv_objx/lv_tabview.c **** static void tab_btnm_event_cb(lv_obj_t * tab_btnm, lv_event_t event);
  47:..\..\..\lvgl\version_6.1.2\lvgl\src\lv_objx/lv_tabview.c **** static void tabview_realign(lv_obj_t * tabview);
  48:..\..\..\lvgl\version_6.1.2\lvgl\src\lv_objx/lv_tabview.c **** 
  49:..\..\..\lvgl\version_6.1.2\lvgl\src\lv_objx/lv_tabview.c **** /**********************
ARM GAS  C:\Users\tmj32\AppData\Local\Temp\cc94ZBZn.s 			page 13


  50:..\..\..\lvgl\version_6.1.2\lvgl\src\lv_objx/lv_tabview.c ****  *  STATIC VARIABLES
  51:..\..\..\lvgl\version_6.1.2\lvgl\src\lv_objx/lv_tabview.c ****  **********************/
  52:..\..\..\lvgl\version_6.1.2\lvgl\src\lv_objx/lv_tabview.c **** static lv_signal_cb_t ancestor_signal;
  53:..\..\..\lvgl\version_6.1.2\lvgl\src\lv_objx/lv_tabview.c **** static lv_signal_cb_t page_signal;
  54:..\..\..\lvgl\version_6.1.2\lvgl\src\lv_objx/lv_tabview.c **** static lv_signal_cb_t page_scrl_signal;
  55:..\..\..\lvgl\version_6.1.2\lvgl\src\lv_objx/lv_tabview.c **** static const char * tab_def[] = {""};
  56:..\..\..\lvgl\version_6.1.2\lvgl\src\lv_objx/lv_tabview.c **** 
  57:..\..\..\lvgl\version_6.1.2\lvgl\src\lv_objx/lv_tabview.c **** /**********************
  58:..\..\..\lvgl\version_6.1.2\lvgl\src\lv_objx/lv_tabview.c ****  *      MACROS
  59:..\..\..\lvgl\version_6.1.2\lvgl\src\lv_objx/lv_tabview.c ****  **********************/
  60:..\..\..\lvgl\version_6.1.2\lvgl\src\lv_objx/lv_tabview.c **** 
  61:..\..\..\lvgl\version_6.1.2\lvgl\src\lv_objx/lv_tabview.c **** /**********************
  62:..\..\..\lvgl\version_6.1.2\lvgl\src\lv_objx/lv_tabview.c ****  *   GLOBAL FUNCTIONS
  63:..\..\..\lvgl\version_6.1.2\lvgl\src\lv_objx/lv_tabview.c ****  **********************/
  64:..\..\..\lvgl\version_6.1.2\lvgl\src\lv_objx/lv_tabview.c **** 
  65:..\..\..\lvgl\version_6.1.2\lvgl\src\lv_objx/lv_tabview.c **** /**
  66:..\..\..\lvgl\version_6.1.2\lvgl\src\lv_objx/lv_tabview.c ****  * Create a Tab view object
  67:..\..\..\lvgl\version_6.1.2\lvgl\src\lv_objx/lv_tabview.c ****  * @param par pointer to an object, it will be the parent of the new tab
  68:..\..\..\lvgl\version_6.1.2\lvgl\src\lv_objx/lv_tabview.c ****  * @param copy pointer to a tab object, if not NULL then the new object will be copied from it
  69:..\..\..\lvgl\version_6.1.2\lvgl\src\lv_objx/lv_tabview.c ****  * @return pointer to the created tab
  70:..\..\..\lvgl\version_6.1.2\lvgl\src\lv_objx/lv_tabview.c ****  */
  71:..\..\..\lvgl\version_6.1.2\lvgl\src\lv_objx/lv_tabview.c **** lv_obj_t * lv_tabview_create(lv_obj_t * par, const lv_obj_t * copy)
  72:..\..\..\lvgl\version_6.1.2\lvgl\src\lv_objx/lv_tabview.c **** {
 263              		.loc 4 72 0
 264              		.cfi_startproc
 265              		@ args = 0, pretend = 0, frame = 40
 266              		@ frame_needed = 1, uses_anonymous_args = 0
 267 0000 B0B5     		push	{r4, r5, r7, lr}
 268              		.cfi_def_cfa_offset 16
 269              		.cfi_offset 4, -16
 270              		.cfi_offset 5, -12
 271              		.cfi_offset 7, -8
 272              		.cfi_offset 14, -4
 273 0002 8CB0     		sub	sp, sp, #48
 274              		.cfi_def_cfa_offset 64
 275 0004 02AF     		add	r7, sp, #8
 276              		.cfi_def_cfa 7, 56
 277 0006 7860     		str	r0, [r7, #4]
 278 0008 3960     		str	r1, [r7]
  73:..\..\..\lvgl\version_6.1.2\lvgl\src\lv_objx/lv_tabview.c ****     LV_LOG_TRACE("tab view create started");
  74:..\..\..\lvgl\version_6.1.2\lvgl\src\lv_objx/lv_tabview.c **** 
  75:..\..\..\lvgl\version_6.1.2\lvgl\src\lv_objx/lv_tabview.c ****     /*Create the ancestor of tab*/
  76:..\..\..\lvgl\version_6.1.2\lvgl\src\lv_objx/lv_tabview.c ****     lv_obj_t * new_tabview = lv_obj_create(par, copy);
 279              		.loc 4 76 0
 280 000a 3968     		ldr	r1, [r7]
 281 000c 7868     		ldr	r0, [r7, #4]
 282 000e FFF7FEFF 		bl	lv_obj_create
 283 0012 F861     		str	r0, [r7, #28]
  77:..\..\..\lvgl\version_6.1.2\lvgl\src\lv_objx/lv_tabview.c ****     LV_ASSERT_MEM(new_tabview);
  78:..\..\..\lvgl\version_6.1.2\lvgl\src\lv_objx/lv_tabview.c ****     if(new_tabview == NULL) return NULL;
 284              		.loc 4 78 0
 285 0014 FB69     		ldr	r3, [r7, #28]
 286 0016 002B     		cmp	r3, #0
 287 0018 01D1     		bne	.L10
 288              		.loc 4 78 0 is_stmt 0 discriminator 1
 289 001a 0023     		movs	r3, #0
 290 001c DFE1     		b	.L11
ARM GAS  C:\Users\tmj32\AppData\Local\Temp\cc94ZBZn.s 			page 14


 291              	.L10:
  79:..\..\..\lvgl\version_6.1.2\lvgl\src\lv_objx/lv_tabview.c ****     if(ancestor_signal == NULL) ancestor_signal = lv_obj_get_signal_cb(new_tabview);
 292              		.loc 4 79 0 is_stmt 1
 293 001e A64B     		ldr	r3, .L24
 294 0020 1B68     		ldr	r3, [r3]
 295 0022 002B     		cmp	r3, #0
 296 0024 05D1     		bne	.L12
 297              		.loc 4 79 0 is_stmt 0 discriminator 1
 298 0026 F869     		ldr	r0, [r7, #28]
 299 0028 FFF7FEFF 		bl	lv_obj_get_signal_cb
 300 002c 0246     		mov	r2, r0
 301 002e A24B     		ldr	r3, .L24
 302 0030 1A60     		str	r2, [r3]
 303              	.L12:
  80:..\..\..\lvgl\version_6.1.2\lvgl\src\lv_objx/lv_tabview.c **** 
  81:..\..\..\lvgl\version_6.1.2\lvgl\src\lv_objx/lv_tabview.c ****     /*Allocate the tab type specific extended data*/
  82:..\..\..\lvgl\version_6.1.2\lvgl\src\lv_objx/lv_tabview.c ****     lv_tabview_ext_t * ext = lv_obj_allocate_ext_attr(new_tabview, sizeof(lv_tabview_ext_t));
 304              		.loc 4 82 0 is_stmt 1
 305 0032 1C21     		movs	r1, #28
 306 0034 F869     		ldr	r0, [r7, #28]
 307 0036 FFF7FEFF 		bl	lv_obj_allocate_ext_attr
 308 003a B861     		str	r0, [r7, #24]
  83:..\..\..\lvgl\version_6.1.2\lvgl\src\lv_objx/lv_tabview.c ****     LV_ASSERT_MEM(ext);
  84:..\..\..\lvgl\version_6.1.2\lvgl\src\lv_objx/lv_tabview.c ****     if(ext == NULL) return NULL;
 309              		.loc 4 84 0
 310 003c BB69     		ldr	r3, [r7, #24]
 311 003e 002B     		cmp	r3, #0
 312 0040 01D1     		bne	.L13
 313              		.loc 4 84 0 is_stmt 0 discriminator 1
 314 0042 0023     		movs	r3, #0
 315 0044 CBE1     		b	.L11
 316              	.L13:
  85:..\..\..\lvgl\version_6.1.2\lvgl\src\lv_objx/lv_tabview.c **** 
  86:..\..\..\lvgl\version_6.1.2\lvgl\src\lv_objx/lv_tabview.c ****     /*Initialize the allocated 'ext' */
  87:..\..\..\lvgl\version_6.1.2\lvgl\src\lv_objx/lv_tabview.c ****     ext->drag_hor     = 0;
 317              		.loc 4 87 0 is_stmt 1
 318 0046 BA69     		ldr	r2, [r7, #24]
 319 0048 937E     		ldrb	r3, [r2, #26]
 320 004a 6FF38203 		bfc	r3, #2, #1
 321 004e 9376     		strb	r3, [r2, #26]
  88:..\..\..\lvgl\version_6.1.2\lvgl\src\lv_objx/lv_tabview.c ****     ext->draging      = 0;
 322              		.loc 4 88 0
 323 0050 BA69     		ldr	r2, [r7, #24]
 324 0052 937E     		ldrb	r3, [r2, #26]
 325 0054 6FF34103 		bfc	r3, #1, #1
 326 0058 9376     		strb	r3, [r2, #26]
  89:..\..\..\lvgl\version_6.1.2\lvgl\src\lv_objx/lv_tabview.c ****     ext->scroll_ver   = 0;
 327              		.loc 4 89 0
 328 005a BA69     		ldr	r2, [r7, #24]
 329 005c 937E     		ldrb	r3, [r2, #26]
 330 005e 6FF3C303 		bfc	r3, #3, #1
 331 0062 9376     		strb	r3, [r2, #26]
  90:..\..\..\lvgl\version_6.1.2\lvgl\src\lv_objx/lv_tabview.c ****     ext->slide_enable = 1;
 332              		.loc 4 90 0
 333 0064 BA69     		ldr	r2, [r7, #24]
 334 0066 937E     		ldrb	r3, [r2, #26]
 335 0068 43F00103 		orr	r3, r3, #1
ARM GAS  C:\Users\tmj32\AppData\Local\Temp\cc94ZBZn.s 			page 15


 336 006c 9376     		strb	r3, [r2, #26]
  91:..\..\..\lvgl\version_6.1.2\lvgl\src\lv_objx/lv_tabview.c ****     ext->tab_cur      = 0;
 337              		.loc 4 91 0
 338 006e BB69     		ldr	r3, [r7, #24]
 339 0070 0022     		movs	r2, #0
 340 0072 9A82     		strh	r2, [r3, #20]	@ movhi
  92:..\..\..\lvgl\version_6.1.2\lvgl\src\lv_objx/lv_tabview.c ****     ext->point_last.x = 0;
 341              		.loc 4 92 0
 342 0074 BB69     		ldr	r3, [r7, #24]
 343 0076 0022     		movs	r2, #0
 344 0078 1A82     		strh	r2, [r3, #16]	@ movhi
  93:..\..\..\lvgl\version_6.1.2\lvgl\src\lv_objx/lv_tabview.c ****     ext->point_last.y = 0;
 345              		.loc 4 93 0
 346 007a BB69     		ldr	r3, [r7, #24]
 347 007c 0022     		movs	r2, #0
 348 007e 5A82     		strh	r2, [r3, #18]	@ movhi
  94:..\..\..\lvgl\version_6.1.2\lvgl\src\lv_objx/lv_tabview.c ****     ext->content      = NULL;
 349              		.loc 4 94 0
 350 0080 BB69     		ldr	r3, [r7, #24]
 351 0082 0022     		movs	r2, #0
 352 0084 9A60     		str	r2, [r3, #8]
  95:..\..\..\lvgl\version_6.1.2\lvgl\src\lv_objx/lv_tabview.c ****     ext->indic        = NULL;
 353              		.loc 4 95 0
 354 0086 BB69     		ldr	r3, [r7, #24]
 355 0088 0022     		movs	r2, #0
 356 008a 5A60     		str	r2, [r3, #4]
  96:..\..\..\lvgl\version_6.1.2\lvgl\src\lv_objx/lv_tabview.c ****     ext->btns         = NULL;
 357              		.loc 4 96 0
 358 008c BB69     		ldr	r3, [r7, #24]
 359 008e 0022     		movs	r2, #0
 360 0090 1A60     		str	r2, [r3]
  97:..\..\..\lvgl\version_6.1.2\lvgl\src\lv_objx/lv_tabview.c ****     ext->btns_pos     = LV_TABVIEW_BTNS_POS_TOP;
 361              		.loc 4 97 0
 362 0092 BA69     		ldr	r2, [r7, #24]
 363 0094 937E     		ldrb	r3, [r2, #26]
 364 0096 6FF34613 		bfc	r3, #5, #2
 365 009a 9376     		strb	r3, [r2, #26]
  98:..\..\..\lvgl\version_6.1.2\lvgl\src\lv_objx/lv_tabview.c **** #if LV_USE_ANIMATION
  99:..\..\..\lvgl\version_6.1.2\lvgl\src\lv_objx/lv_tabview.c ****     ext->anim_time = LV_TABVIEW_DEF_ANIM_TIME;
 366              		.loc 4 99 0
 367 009c BB69     		ldr	r3, [r7, #24]
 368 009e 4FF49672 		mov	r2, #300
 369 00a2 1A83     		strh	r2, [r3, #24]	@ movhi
 100:..\..\..\lvgl\version_6.1.2\lvgl\src\lv_objx/lv_tabview.c **** #endif
 101:..\..\..\lvgl\version_6.1.2\lvgl\src\lv_objx/lv_tabview.c ****     ext->btns_hide = 0;
 370              		.loc 4 101 0
 371 00a4 BA69     		ldr	r2, [r7, #24]
 372 00a6 937E     		ldrb	r3, [r2, #26]
 373 00a8 6FF30413 		bfc	r3, #4, #1
 374 00ac 9376     		strb	r3, [r2, #26]
 102:..\..\..\lvgl\version_6.1.2\lvgl\src\lv_objx/lv_tabview.c **** 
 103:..\..\..\lvgl\version_6.1.2\lvgl\src\lv_objx/lv_tabview.c ****     /*The signal and design functions are not copied so set them here*/
 104:..\..\..\lvgl\version_6.1.2\lvgl\src\lv_objx/lv_tabview.c ****     lv_obj_set_signal_cb(new_tabview, lv_tabview_signal);
 375              		.loc 4 104 0
 376 00ae 8349     		ldr	r1, .L24+4
 377 00b0 F869     		ldr	r0, [r7, #28]
 378 00b2 FFF7FEFF 		bl	lv_obj_set_signal_cb
ARM GAS  C:\Users\tmj32\AppData\Local\Temp\cc94ZBZn.s 			page 16


 105:..\..\..\lvgl\version_6.1.2\lvgl\src\lv_objx/lv_tabview.c **** 
 106:..\..\..\lvgl\version_6.1.2\lvgl\src\lv_objx/lv_tabview.c ****     /*Init the new tab tab*/
 107:..\..\..\lvgl\version_6.1.2\lvgl\src\lv_objx/lv_tabview.c ****     if(copy == NULL) {
 379              		.loc 4 107 0
 380 00b6 3B68     		ldr	r3, [r7]
 381 00b8 002B     		cmp	r3, #0
 382 00ba 40F00F81 		bne	.L14
 383              	.LBB2:
 108:..\..\..\lvgl\version_6.1.2\lvgl\src\lv_objx/lv_tabview.c ****         ext->tab_name_ptr = lv_mem_alloc(sizeof(char *));
 384              		.loc 4 108 0
 385 00be 0420     		movs	r0, #4
 386 00c0 FFF7FEFF 		bl	lv_mem_alloc
 387 00c4 0246     		mov	r2, r0
 388 00c6 BB69     		ldr	r3, [r7, #24]
 389 00c8 DA60     		str	r2, [r3, #12]
 109:..\..\..\lvgl\version_6.1.2\lvgl\src\lv_objx/lv_tabview.c ****         LV_ASSERT_MEM(ext->tab_name_ptr);
 110:..\..\..\lvgl\version_6.1.2\lvgl\src\lv_objx/lv_tabview.c ****         if(ext->tab_name_ptr == NULL) return NULL;
 390              		.loc 4 110 0
 391 00ca BB69     		ldr	r3, [r7, #24]
 392 00cc DB68     		ldr	r3, [r3, #12]
 393 00ce 002B     		cmp	r3, #0
 394 00d0 01D1     		bne	.L15
 395              		.loc 4 110 0 is_stmt 0 discriminator 1
 396 00d2 0023     		movs	r3, #0
 397 00d4 83E1     		b	.L11
 398              	.L15:
 111:..\..\..\lvgl\version_6.1.2\lvgl\src\lv_objx/lv_tabview.c ****         ext->tab_name_ptr[0] = "";
 399              		.loc 4 111 0 is_stmt 1
 400 00d6 BB69     		ldr	r3, [r7, #24]
 401 00d8 DB68     		ldr	r3, [r3, #12]
 402 00da 794A     		ldr	r2, .L24+8
 403 00dc 1A60     		str	r2, [r3]
 112:..\..\..\lvgl\version_6.1.2\lvgl\src\lv_objx/lv_tabview.c ****         ext->tab_cnt         = 0;
 404              		.loc 4 112 0
 405 00de BB69     		ldr	r3, [r7, #24]
 406 00e0 0022     		movs	r2, #0
 407 00e2 DA82     		strh	r2, [r3, #22]	@ movhi
 113:..\..\..\lvgl\version_6.1.2\lvgl\src\lv_objx/lv_tabview.c **** 
 114:..\..\..\lvgl\version_6.1.2\lvgl\src\lv_objx/lv_tabview.c ****         /* Set a size which fits into the parent.
 115:..\..\..\lvgl\version_6.1.2\lvgl\src\lv_objx/lv_tabview.c ****          * Don't use `par` directly because if the tabview is created on a page it is moved to the
 116:..\..\..\lvgl\version_6.1.2\lvgl\src\lv_objx/lv_tabview.c ****          * scrollable so the parent has changed */
 117:..\..\..\lvgl\version_6.1.2\lvgl\src\lv_objx/lv_tabview.c ****         lv_coord_t w;
 118:..\..\..\lvgl\version_6.1.2\lvgl\src\lv_objx/lv_tabview.c ****         lv_coord_t h;
 119:..\..\..\lvgl\version_6.1.2\lvgl\src\lv_objx/lv_tabview.c ****         if(par) {
 408              		.loc 4 119 0
 409 00e4 7B68     		ldr	r3, [r7, #4]
 410 00e6 002B     		cmp	r3, #0
 411 00e8 12D0     		beq	.L16
 120:..\..\..\lvgl\version_6.1.2\lvgl\src\lv_objx/lv_tabview.c ****             w = lv_obj_get_width_fit(lv_obj_get_parent(new_tabview));
 412              		.loc 4 120 0
 413 00ea F869     		ldr	r0, [r7, #28]
 414 00ec FFF7FEFF 		bl	lv_obj_get_parent
 415 00f0 0346     		mov	r3, r0
 416 00f2 1846     		mov	r0, r3
 417 00f4 FFF7FEFF 		bl	lv_obj_get_width_fit
 418 00f8 0346     		mov	r3, r0
 419 00fa FB84     		strh	r3, [r7, #38]	@ movhi
ARM GAS  C:\Users\tmj32\AppData\Local\Temp\cc94ZBZn.s 			page 17


 121:..\..\..\lvgl\version_6.1.2\lvgl\src\lv_objx/lv_tabview.c ****             h = lv_obj_get_height_fit(lv_obj_get_parent(new_tabview));
 420              		.loc 4 121 0
 421 00fc F869     		ldr	r0, [r7, #28]
 422 00fe FFF7FEFF 		bl	lv_obj_get_parent
 423 0102 0346     		mov	r3, r0
 424 0104 1846     		mov	r0, r3
 425 0106 FFF7FEFF 		bl	lv_obj_get_height_fit
 426 010a 0346     		mov	r3, r0
 427 010c BB84     		strh	r3, [r7, #36]	@ movhi
 428 010e 09E0     		b	.L17
 429              	.L16:
 122:..\..\..\lvgl\version_6.1.2\lvgl\src\lv_objx/lv_tabview.c ****         } else {
 123:..\..\..\lvgl\version_6.1.2\lvgl\src\lv_objx/lv_tabview.c ****             w = lv_disp_get_hor_res(NULL);
 430              		.loc 4 123 0
 431 0110 0020     		movs	r0, #0
 432 0112 FFF7FEFF 		bl	lv_disp_get_hor_res
 433 0116 0346     		mov	r3, r0
 434 0118 FB84     		strh	r3, [r7, #38]	@ movhi
 124:..\..\..\lvgl\version_6.1.2\lvgl\src\lv_objx/lv_tabview.c ****             h = lv_disp_get_ver_res(NULL);
 435              		.loc 4 124 0
 436 011a 0020     		movs	r0, #0
 437 011c FFF7FEFF 		bl	lv_disp_get_ver_res
 438 0120 0346     		mov	r3, r0
 439 0122 BB84     		strh	r3, [r7, #36]	@ movhi
 440              	.L17:
 125:..\..\..\lvgl\version_6.1.2\lvgl\src\lv_objx/lv_tabview.c ****         }
 126:..\..\..\lvgl\version_6.1.2\lvgl\src\lv_objx/lv_tabview.c **** 
 127:..\..\..\lvgl\version_6.1.2\lvgl\src\lv_objx/lv_tabview.c ****         lv_obj_set_size(new_tabview, w, h);
 441              		.loc 4 127 0
 442 0124 B7F92420 		ldrsh	r2, [r7, #36]
 443 0128 B7F92630 		ldrsh	r3, [r7, #38]
 444 012c 1946     		mov	r1, r3
 445 012e F869     		ldr	r0, [r7, #28]
 446 0130 FFF7FEFF 		bl	lv_obj_set_size
 128:..\..\..\lvgl\version_6.1.2\lvgl\src\lv_objx/lv_tabview.c **** 
 129:..\..\..\lvgl\version_6.1.2\lvgl\src\lv_objx/lv_tabview.c ****         ext->content = lv_cont_create(new_tabview, NULL);
 447              		.loc 4 129 0
 448 0134 0021     		movs	r1, #0
 449 0136 F869     		ldr	r0, [r7, #28]
 450 0138 FFF7FEFF 		bl	lv_cont_create
 451 013c 0246     		mov	r2, r0
 452 013e BB69     		ldr	r3, [r7, #24]
 453 0140 9A60     		str	r2, [r3, #8]
 130:..\..\..\lvgl\version_6.1.2\lvgl\src\lv_objx/lv_tabview.c ****         ext->btns    = lv_btnm_create(new_tabview, NULL);
 454              		.loc 4 130 0
 455 0142 0021     		movs	r1, #0
 456 0144 F869     		ldr	r0, [r7, #28]
 457 0146 FFF7FEFF 		bl	lv_btnm_create
 458 014a 0246     		mov	r2, r0
 459 014c BB69     		ldr	r3, [r7, #24]
 460 014e 1A60     		str	r2, [r3]
 131:..\..\..\lvgl\version_6.1.2\lvgl\src\lv_objx/lv_tabview.c ****         ext->indic   = lv_obj_create(ext->btns, NULL);
 461              		.loc 4 131 0
 462 0150 BB69     		ldr	r3, [r7, #24]
 463 0152 1B68     		ldr	r3, [r3]
 464 0154 0021     		movs	r1, #0
 465 0156 1846     		mov	r0, r3
ARM GAS  C:\Users\tmj32\AppData\Local\Temp\cc94ZBZn.s 			page 18


 466 0158 FFF7FEFF 		bl	lv_obj_create
 467 015c 0246     		mov	r2, r0
 468 015e BB69     		ldr	r3, [r7, #24]
 469 0160 5A60     		str	r2, [r3, #4]
 132:..\..\..\lvgl\version_6.1.2\lvgl\src\lv_objx/lv_tabview.c **** 
 133:..\..\..\lvgl\version_6.1.2\lvgl\src\lv_objx/lv_tabview.c ****         lv_obj_set_height(ext->btns, 3 * LV_DPI / 4);
 470              		.loc 4 133 0
 471 0162 BB69     		ldr	r3, [r7, #24]
 472 0164 1B68     		ldr	r3, [r3]
 473 0166 7021     		movs	r1, #112
 474 0168 1846     		mov	r0, r3
 475 016a FFF7FEFF 		bl	lv_obj_set_height
 134:..\..\..\lvgl\version_6.1.2\lvgl\src\lv_objx/lv_tabview.c ****         lv_btnm_set_map(ext->btns, tab_def);
 476              		.loc 4 134 0
 477 016e BB69     		ldr	r3, [r7, #24]
 478 0170 1B68     		ldr	r3, [r3]
 479 0172 5449     		ldr	r1, .L24+12
 480 0174 1846     		mov	r0, r3
 481 0176 FFF7FEFF 		bl	lv_btnm_set_map
 135:..\..\..\lvgl\version_6.1.2\lvgl\src\lv_objx/lv_tabview.c ****         lv_obj_set_event_cb(ext->btns, tab_btnm_event_cb);
 482              		.loc 4 135 0
 483 017a BB69     		ldr	r3, [r7, #24]
 484 017c 1B68     		ldr	r3, [r3]
 485 017e 5249     		ldr	r1, .L24+16
 486 0180 1846     		mov	r0, r3
 487 0182 FFF7FEFF 		bl	lv_obj_set_event_cb
 136:..\..\..\lvgl\version_6.1.2\lvgl\src\lv_objx/lv_tabview.c **** 
 137:..\..\..\lvgl\version_6.1.2\lvgl\src\lv_objx/lv_tabview.c ****         lv_obj_set_width(ext->indic, LV_DPI);
 488              		.loc 4 137 0
 489 0186 BB69     		ldr	r3, [r7, #24]
 490 0188 5B68     		ldr	r3, [r3, #4]
 491 018a 9621     		movs	r1, #150
 492 018c 1846     		mov	r0, r3
 493 018e FFF7FEFF 		bl	lv_obj_set_width
 138:..\..\..\lvgl\version_6.1.2\lvgl\src\lv_objx/lv_tabview.c ****         lv_obj_align(ext->indic, ext->btns, LV_ALIGN_IN_BOTTOM_LEFT, 0, 0);
 494              		.loc 4 138 0
 495 0192 BB69     		ldr	r3, [r7, #24]
 496 0194 5868     		ldr	r0, [r3, #4]
 497 0196 BB69     		ldr	r3, [r7, #24]
 498 0198 1968     		ldr	r1, [r3]
 499 019a 0023     		movs	r3, #0
 500 019c 0093     		str	r3, [sp]
 501 019e 0023     		movs	r3, #0
 502 01a0 0422     		movs	r2, #4
 503 01a2 FFF7FEFF 		bl	lv_obj_align
 139:..\..\..\lvgl\version_6.1.2\lvgl\src\lv_objx/lv_tabview.c ****         lv_obj_set_click(ext->indic, false);
 504              		.loc 4 139 0
 505 01a6 BB69     		ldr	r3, [r7, #24]
 506 01a8 5B68     		ldr	r3, [r3, #4]
 507 01aa 0021     		movs	r1, #0
 508 01ac 1846     		mov	r0, r3
 509 01ae FFF7FEFF 		bl	lv_obj_set_click
 140:..\..\..\lvgl\version_6.1.2\lvgl\src\lv_objx/lv_tabview.c **** 
 141:..\..\..\lvgl\version_6.1.2\lvgl\src\lv_objx/lv_tabview.c ****         lv_cont_set_fit2(ext->content, LV_FIT_TIGHT, LV_FIT_NONE);
 510              		.loc 4 141 0
 511 01b2 BB69     		ldr	r3, [r7, #24]
 512 01b4 9B68     		ldr	r3, [r3, #8]
ARM GAS  C:\Users\tmj32\AppData\Local\Temp\cc94ZBZn.s 			page 19


 513 01b6 0022     		movs	r2, #0
 514 01b8 0121     		movs	r1, #1
 515 01ba 1846     		mov	r0, r3
 516 01bc FFF7FEFF 		bl	lv_cont_set_fit2
 142:..\..\..\lvgl\version_6.1.2\lvgl\src\lv_objx/lv_tabview.c ****         lv_cont_set_layout(ext->content, LV_LAYOUT_ROW_T);
 517              		.loc 4 142 0
 518 01c0 BB69     		ldr	r3, [r7, #24]
 519 01c2 9B68     		ldr	r3, [r3, #8]
 520 01c4 0521     		movs	r1, #5
 521 01c6 1846     		mov	r0, r3
 522 01c8 FFF7FEFF 		bl	lv_cont_set_layout
 143:..\..\..\lvgl\version_6.1.2\lvgl\src\lv_objx/lv_tabview.c ****         lv_cont_set_style(ext->content, LV_CONT_STYLE_MAIN, &lv_style_transp_tight);
 523              		.loc 4 143 0
 524 01cc BB69     		ldr	r3, [r7, #24]
 525 01ce 9B68     		ldr	r3, [r3, #8]
 526 01d0 3E4A     		ldr	r2, .L24+20
 527 01d2 0021     		movs	r1, #0
 528 01d4 1846     		mov	r0, r3
 529 01d6 FFF7FEFF 		bl	lv_cont_set_style
 144:..\..\..\lvgl\version_6.1.2\lvgl\src\lv_objx/lv_tabview.c ****         lv_obj_set_height(ext->content, lv_obj_get_height(new_tabview) - lv_obj_get_height(ext->btn
 530              		.loc 4 144 0
 531 01da BB69     		ldr	r3, [r7, #24]
 532 01dc 9D68     		ldr	r5, [r3, #8]
 533 01de F869     		ldr	r0, [r7, #28]
 534 01e0 FFF7FEFF 		bl	lv_obj_get_height
 535 01e4 0346     		mov	r3, r0
 536 01e6 9CB2     		uxth	r4, r3
 537 01e8 BB69     		ldr	r3, [r7, #24]
 538 01ea 1B68     		ldr	r3, [r3]
 539 01ec 1846     		mov	r0, r3
 540 01ee FFF7FEFF 		bl	lv_obj_get_height
 541 01f2 0346     		mov	r3, r0
 542 01f4 9BB2     		uxth	r3, r3
 543 01f6 E31A     		subs	r3, r4, r3
 544 01f8 9BB2     		uxth	r3, r3
 545 01fa 1BB2     		sxth	r3, r3
 546 01fc 1946     		mov	r1, r3
 547 01fe 2846     		mov	r0, r5
 548 0200 FFF7FEFF 		bl	lv_obj_set_height
 145:..\..\..\lvgl\version_6.1.2\lvgl\src\lv_objx/lv_tabview.c ****         lv_obj_align(ext->content, ext->btns, LV_ALIGN_OUT_BOTTOM_LEFT, 0, 0);
 549              		.loc 4 145 0
 550 0204 BB69     		ldr	r3, [r7, #24]
 551 0206 9868     		ldr	r0, [r3, #8]
 552 0208 BB69     		ldr	r3, [r7, #24]
 553 020a 1968     		ldr	r1, [r3]
 554 020c 0023     		movs	r3, #0
 555 020e 0093     		str	r3, [sp]
 556 0210 0023     		movs	r3, #0
 557 0212 0C22     		movs	r2, #12
 558 0214 FFF7FEFF 		bl	lv_obj_align
 146:..\..\..\lvgl\version_6.1.2\lvgl\src\lv_objx/lv_tabview.c **** 
 147:..\..\..\lvgl\version_6.1.2\lvgl\src\lv_objx/lv_tabview.c ****         /*Set the default styles*/
 148:..\..\..\lvgl\version_6.1.2\lvgl\src\lv_objx/lv_tabview.c ****         lv_theme_t * th = lv_theme_get_current();
 559              		.loc 4 148 0
 560 0218 FFF7FEFF 		bl	lv_theme_get_current
 561 021c 7861     		str	r0, [r7, #20]
 149:..\..\..\lvgl\version_6.1.2\lvgl\src\lv_objx/lv_tabview.c ****         if(th) {
ARM GAS  C:\Users\tmj32\AppData\Local\Temp\cc94ZBZn.s 			page 20


 562              		.loc 4 149 0
 563 021e 7B69     		ldr	r3, [r7, #20]
 564 0220 002B     		cmp	r3, #0
 565 0222 38D0     		beq	.L18
 150:..\..\..\lvgl\version_6.1.2\lvgl\src\lv_objx/lv_tabview.c ****             lv_tabview_set_style(new_tabview, LV_TABVIEW_STYLE_BG, th->style.tabview.bg);
 566              		.loc 4 150 0
 567 0224 7B69     		ldr	r3, [r7, #20]
 568 0226 D3F86031 		ldr	r3, [r3, #352]
 569 022a 1A46     		mov	r2, r3
 570 022c 0021     		movs	r1, #0
 571 022e F869     		ldr	r0, [r7, #28]
 572 0230 FFF7FEFF 		bl	lv_tabview_set_style
 151:..\..\..\lvgl\version_6.1.2\lvgl\src\lv_objx/lv_tabview.c ****             lv_tabview_set_style(new_tabview, LV_TABVIEW_STYLE_INDIC, th->style.tabview.indic);
 573              		.loc 4 151 0
 574 0234 7B69     		ldr	r3, [r7, #20]
 575 0236 D3F86431 		ldr	r3, [r3, #356]
 576 023a 1A46     		mov	r2, r3
 577 023c 0121     		movs	r1, #1
 578 023e F869     		ldr	r0, [r7, #28]
 579 0240 FFF7FEFF 		bl	lv_tabview_set_style
 152:..\..\..\lvgl\version_6.1.2\lvgl\src\lv_objx/lv_tabview.c ****             lv_tabview_set_style(new_tabview, LV_TABVIEW_STYLE_BTN_BG, th->style.tabview.btn.bg);
 580              		.loc 4 152 0
 581 0244 7B69     		ldr	r3, [r7, #20]
 582 0246 D3F86831 		ldr	r3, [r3, #360]
 583 024a 1A46     		mov	r2, r3
 584 024c 0221     		movs	r1, #2
 585 024e F869     		ldr	r0, [r7, #28]
 586 0250 FFF7FEFF 		bl	lv_tabview_set_style
 153:..\..\..\lvgl\version_6.1.2\lvgl\src\lv_objx/lv_tabview.c ****             lv_tabview_set_style(new_tabview, LV_TABVIEW_STYLE_BTN_REL, th->style.tabview.btn.rel);
 587              		.loc 4 153 0
 588 0254 7B69     		ldr	r3, [r7, #20]
 589 0256 D3F86C31 		ldr	r3, [r3, #364]
 590 025a 1A46     		mov	r2, r3
 591 025c 0321     		movs	r1, #3
 592 025e F869     		ldr	r0, [r7, #28]
 593 0260 FFF7FEFF 		bl	lv_tabview_set_style
 154:..\..\..\lvgl\version_6.1.2\lvgl\src\lv_objx/lv_tabview.c ****             lv_tabview_set_style(new_tabview, LV_TABVIEW_STYLE_BTN_PR, th->style.tabview.btn.pr);
 594              		.loc 4 154 0
 595 0264 7B69     		ldr	r3, [r7, #20]
 596 0266 D3F87031 		ldr	r3, [r3, #368]
 597 026a 1A46     		mov	r2, r3
 598 026c 0421     		movs	r1, #4
 599 026e F869     		ldr	r0, [r7, #28]
 600 0270 FFF7FEFF 		bl	lv_tabview_set_style
 155:..\..\..\lvgl\version_6.1.2\lvgl\src\lv_objx/lv_tabview.c ****             lv_tabview_set_style(new_tabview, LV_TABVIEW_STYLE_BTN_TGL_REL, th->style.tabview.btn.t
 601              		.loc 4 155 0
 602 0274 7B69     		ldr	r3, [r7, #20]
 603 0276 D3F87431 		ldr	r3, [r3, #372]
 604 027a 1A46     		mov	r2, r3
 605 027c 0521     		movs	r1, #5
 606 027e F869     		ldr	r0, [r7, #28]
 607 0280 FFF7FEFF 		bl	lv_tabview_set_style
 156:..\..\..\lvgl\version_6.1.2\lvgl\src\lv_objx/lv_tabview.c ****             lv_tabview_set_style(new_tabview, LV_TABVIEW_STYLE_BTN_TGL_PR, th->style.tabview.btn.tg
 608              		.loc 4 156 0
 609 0284 7B69     		ldr	r3, [r7, #20]
 610 0286 D3F87831 		ldr	r3, [r3, #376]
 611 028a 1A46     		mov	r2, r3
ARM GAS  C:\Users\tmj32\AppData\Local\Temp\cc94ZBZn.s 			page 21


 612 028c 0621     		movs	r1, #6
 613 028e F869     		ldr	r0, [r7, #28]
 614 0290 FFF7FEFF 		bl	lv_tabview_set_style
 615 0294 A2E0     		b	.L20
 616              	.L18:
 157:..\..\..\lvgl\version_6.1.2\lvgl\src\lv_objx/lv_tabview.c ****         } else {
 158:..\..\..\lvgl\version_6.1.2\lvgl\src\lv_objx/lv_tabview.c ****             lv_tabview_set_style(new_tabview, LV_TABVIEW_STYLE_BG, &lv_style_plain);
 617              		.loc 4 158 0
 618 0296 0E4A     		ldr	r2, .L24+24
 619 0298 0021     		movs	r1, #0
 620 029a F869     		ldr	r0, [r7, #28]
 621 029c FFF7FEFF 		bl	lv_tabview_set_style
 159:..\..\..\lvgl\version_6.1.2\lvgl\src\lv_objx/lv_tabview.c ****             lv_tabview_set_style(new_tabview, LV_TABVIEW_STYLE_BTN_BG, &lv_style_pretty);//transp);
 622              		.loc 4 159 0
 623 02a0 0C4A     		ldr	r2, .L24+28
 624 02a2 0221     		movs	r1, #2
 625 02a4 F869     		ldr	r0, [r7, #28]
 626 02a6 FFF7FEFF 		bl	lv_tabview_set_style
 160:..\..\..\lvgl\version_6.1.2\lvgl\src\lv_objx/lv_tabview.c ****             lv_tabview_set_style(new_tabview, LV_TABVIEW_STYLE_INDIC, &lv_style_plain_color);
 627              		.loc 4 160 0
 628 02aa 0B4A     		ldr	r2, .L24+32
 629 02ac 0121     		movs	r1, #1
 630 02ae F869     		ldr	r0, [r7, #28]
 631 02b0 FFF7FEFF 		bl	lv_tabview_set_style
 632 02b4 92E0     		b	.L20
 633              	.L25:
 634 02b6 00BF     		.align	2
 635              	.L24:
 636 02b8 00000000 		.word	ancestor_signal
 637 02bc 00000000 		.word	lv_tabview_signal
 638 02c0 00000000 		.word	.LC0
 639 02c4 00000000 		.word	tab_def
 640 02c8 00000000 		.word	tab_btnm_event_cb
 641 02cc 00000000 		.word	lv_style_transp_tight
 642 02d0 00000000 		.word	lv_style_plain
 643 02d4 00000000 		.word	lv_style_pretty
 644 02d8 00000000 		.word	lv_style_plain_color
 645              	.L14:
 646              	.LBE2:
 647              	.LBB3:
 161:..\..\..\lvgl\version_6.1.2\lvgl\src\lv_objx/lv_tabview.c ****         }
 162:..\..\..\lvgl\version_6.1.2\lvgl\src\lv_objx/lv_tabview.c ****     }
 163:..\..\..\lvgl\version_6.1.2\lvgl\src\lv_objx/lv_tabview.c ****     /*Copy an existing tab view*/
 164:..\..\..\lvgl\version_6.1.2\lvgl\src\lv_objx/lv_tabview.c ****     else {
 165:..\..\..\lvgl\version_6.1.2\lvgl\src\lv_objx/lv_tabview.c ****         lv_tabview_ext_t * copy_ext = lv_obj_get_ext_attr(copy);
 648              		.loc 4 165 0
 649 02dc 3868     		ldr	r0, [r7]
 650 02de FFF7FEFF 		bl	lv_obj_get_ext_attr
 651 02e2 3861     		str	r0, [r7, #16]
 166:..\..\..\lvgl\version_6.1.2\lvgl\src\lv_objx/lv_tabview.c ****         ext->point_last.x           = 0;
 652              		.loc 4 166 0
 653 02e4 BB69     		ldr	r3, [r7, #24]
 654 02e6 0022     		movs	r2, #0
 655 02e8 1A82     		strh	r2, [r3, #16]	@ movhi
 167:..\..\..\lvgl\version_6.1.2\lvgl\src\lv_objx/lv_tabview.c ****         ext->point_last.y           = 0;
 656              		.loc 4 167 0
 657 02ea BB69     		ldr	r3, [r7, #24]
ARM GAS  C:\Users\tmj32\AppData\Local\Temp\cc94ZBZn.s 			page 22


 658 02ec 0022     		movs	r2, #0
 659 02ee 5A82     		strh	r2, [r3, #18]	@ movhi
 168:..\..\..\lvgl\version_6.1.2\lvgl\src\lv_objx/lv_tabview.c ****         ext->btns                   = lv_btnm_create(new_tabview, copy_ext->btns);
 660              		.loc 4 168 0
 661 02f0 3B69     		ldr	r3, [r7, #16]
 662 02f2 1B68     		ldr	r3, [r3]
 663 02f4 1946     		mov	r1, r3
 664 02f6 F869     		ldr	r0, [r7, #28]
 665 02f8 FFF7FEFF 		bl	lv_btnm_create
 666 02fc 0246     		mov	r2, r0
 667 02fe BB69     		ldr	r3, [r7, #24]
 668 0300 1A60     		str	r2, [r3]
 169:..\..\..\lvgl\version_6.1.2\lvgl\src\lv_objx/lv_tabview.c ****         ext->indic                  = lv_obj_create(ext->btns, copy_ext->indic);
 669              		.loc 4 169 0
 670 0302 BB69     		ldr	r3, [r7, #24]
 671 0304 1A68     		ldr	r2, [r3]
 672 0306 3B69     		ldr	r3, [r7, #16]
 673 0308 5B68     		ldr	r3, [r3, #4]
 674 030a 1946     		mov	r1, r3
 675 030c 1046     		mov	r0, r2
 676 030e FFF7FEFF 		bl	lv_obj_create
 677 0312 0246     		mov	r2, r0
 678 0314 BB69     		ldr	r3, [r7, #24]
 679 0316 5A60     		str	r2, [r3, #4]
 170:..\..\..\lvgl\version_6.1.2\lvgl\src\lv_objx/lv_tabview.c ****         ext->content                = lv_cont_create(new_tabview, copy_ext->content);
 680              		.loc 4 170 0
 681 0318 3B69     		ldr	r3, [r7, #16]
 682 031a 9B68     		ldr	r3, [r3, #8]
 683 031c 1946     		mov	r1, r3
 684 031e F869     		ldr	r0, [r7, #28]
 685 0320 FFF7FEFF 		bl	lv_cont_create
 686 0324 0246     		mov	r2, r0
 687 0326 BB69     		ldr	r3, [r7, #24]
 688 0328 9A60     		str	r2, [r3, #8]
 171:..\..\..\lvgl\version_6.1.2\lvgl\src\lv_objx/lv_tabview.c **** #if LV_USE_ANIMATION
 172:..\..\..\lvgl\version_6.1.2\lvgl\src\lv_objx/lv_tabview.c ****         ext->anim_time = copy_ext->anim_time;
 689              		.loc 4 172 0
 690 032a 3B69     		ldr	r3, [r7, #16]
 691 032c 1A8B     		ldrh	r2, [r3, #24]
 692 032e BB69     		ldr	r3, [r7, #24]
 693 0330 1A83     		strh	r2, [r3, #24]	@ movhi
 173:..\..\..\lvgl\version_6.1.2\lvgl\src\lv_objx/lv_tabview.c **** #endif
 174:..\..\..\lvgl\version_6.1.2\lvgl\src\lv_objx/lv_tabview.c **** 
 175:..\..\..\lvgl\version_6.1.2\lvgl\src\lv_objx/lv_tabview.c ****         ext->tab_name_ptr = lv_mem_alloc(sizeof(char *));
 694              		.loc 4 175 0
 695 0332 0420     		movs	r0, #4
 696 0334 FFF7FEFF 		bl	lv_mem_alloc
 697 0338 0246     		mov	r2, r0
 698 033a BB69     		ldr	r3, [r7, #24]
 699 033c DA60     		str	r2, [r3, #12]
 176:..\..\..\lvgl\version_6.1.2\lvgl\src\lv_objx/lv_tabview.c ****         LV_ASSERT_MEM(ext->tab_name_ptr);
 177:..\..\..\lvgl\version_6.1.2\lvgl\src\lv_objx/lv_tabview.c ****         if(ext->tab_name_ptr == NULL) return NULL;
 700              		.loc 4 177 0
 701 033e BB69     		ldr	r3, [r7, #24]
 702 0340 DB68     		ldr	r3, [r3, #12]
 703 0342 002B     		cmp	r3, #0
 704 0344 01D1     		bne	.L21
ARM GAS  C:\Users\tmj32\AppData\Local\Temp\cc94ZBZn.s 			page 23


 705              		.loc 4 177 0 is_stmt 0 discriminator 1
 706 0346 0023     		movs	r3, #0
 707 0348 49E0     		b	.L11
 708              	.L21:
 178:..\..\..\lvgl\version_6.1.2\lvgl\src\lv_objx/lv_tabview.c ****         ext->tab_name_ptr[0] = "";
 709              		.loc 4 178 0 is_stmt 1
 710 034a BB69     		ldr	r3, [r7, #24]
 711 034c DB68     		ldr	r3, [r3, #12]
 712 034e 264A     		ldr	r2, .L26
 713 0350 1A60     		str	r2, [r3]
 179:..\..\..\lvgl\version_6.1.2\lvgl\src\lv_objx/lv_tabview.c ****         lv_btnm_set_map(ext->btns, ext->tab_name_ptr);
 714              		.loc 4 179 0
 715 0352 BB69     		ldr	r3, [r7, #24]
 716 0354 1A68     		ldr	r2, [r3]
 717 0356 BB69     		ldr	r3, [r7, #24]
 718 0358 DB68     		ldr	r3, [r3, #12]
 719 035a 1946     		mov	r1, r3
 720 035c 1046     		mov	r0, r2
 721 035e FFF7FEFF 		bl	lv_btnm_set_map
 180:..\..\..\lvgl\version_6.1.2\lvgl\src\lv_objx/lv_tabview.c **** 
 181:..\..\..\lvgl\version_6.1.2\lvgl\src\lv_objx/lv_tabview.c ****         uint16_t i;
 182:..\..\..\lvgl\version_6.1.2\lvgl\src\lv_objx/lv_tabview.c ****         lv_obj_t * new_tab;
 183:..\..\..\lvgl\version_6.1.2\lvgl\src\lv_objx/lv_tabview.c ****         lv_obj_t * copy_tab;
 184:..\..\..\lvgl\version_6.1.2\lvgl\src\lv_objx/lv_tabview.c ****         for(i = 0; i < copy_ext->tab_cnt; i++) {
 722              		.loc 4 184 0
 723 0362 0023     		movs	r3, #0
 724 0364 7B84     		strh	r3, [r7, #34]	@ movhi
 725 0366 31E0     		b	.L22
 726              	.L23:
 185:..\..\..\lvgl\version_6.1.2\lvgl\src\lv_objx/lv_tabview.c ****             new_tab  = lv_tabview_add_tab(new_tabview, copy_ext->tab_name_ptr[i]);
 727              		.loc 4 185 0 discriminator 3
 728 0368 3B69     		ldr	r3, [r7, #16]
 729 036a DA68     		ldr	r2, [r3, #12]
 730 036c 7B8C     		ldrh	r3, [r7, #34]
 731 036e 9B00     		lsls	r3, r3, #2
 732 0370 1344     		add	r3, r3, r2
 733 0372 1B68     		ldr	r3, [r3]
 734 0374 1946     		mov	r1, r3
 735 0376 F869     		ldr	r0, [r7, #28]
 736 0378 FFF7FEFF 		bl	lv_tabview_add_tab
 737 037c F860     		str	r0, [r7, #12]
 186:..\..\..\lvgl\version_6.1.2\lvgl\src\lv_objx/lv_tabview.c ****             copy_tab = lv_tabview_get_tab(copy, i);
 738              		.loc 4 186 0 discriminator 3
 739 037e 7B8C     		ldrh	r3, [r7, #34]
 740 0380 1946     		mov	r1, r3
 741 0382 3868     		ldr	r0, [r7]
 742 0384 FFF7FEFF 		bl	lv_tabview_get_tab
 743 0388 B860     		str	r0, [r7, #8]
 187:..\..\..\lvgl\version_6.1.2\lvgl\src\lv_objx/lv_tabview.c ****             lv_page_set_style(new_tab, LV_PAGE_STYLE_BG, lv_page_get_style(copy_tab, LV_PAGE_STYLE_
 744              		.loc 4 187 0 discriminator 3
 745 038a 0021     		movs	r1, #0
 746 038c B868     		ldr	r0, [r7, #8]
 747 038e FFF7FEFF 		bl	lv_page_get_style
 748 0392 0346     		mov	r3, r0
 749 0394 1A46     		mov	r2, r3
 750 0396 0021     		movs	r1, #0
 751 0398 F868     		ldr	r0, [r7, #12]
ARM GAS  C:\Users\tmj32\AppData\Local\Temp\cc94ZBZn.s 			page 24


 752 039a FFF7FEFF 		bl	lv_page_set_style
 188:..\..\..\lvgl\version_6.1.2\lvgl\src\lv_objx/lv_tabview.c ****             lv_page_set_style(new_tab, LV_PAGE_STYLE_SCRL, lv_page_get_style(copy_tab, LV_PAGE_STYL
 753              		.loc 4 188 0 discriminator 3
 754 039e 0121     		movs	r1, #1
 755 03a0 B868     		ldr	r0, [r7, #8]
 756 03a2 FFF7FEFF 		bl	lv_page_get_style
 757 03a6 0346     		mov	r3, r0
 758 03a8 1A46     		mov	r2, r3
 759 03aa 0121     		movs	r1, #1
 760 03ac F868     		ldr	r0, [r7, #12]
 761 03ae FFF7FEFF 		bl	lv_page_set_style
 189:..\..\..\lvgl\version_6.1.2\lvgl\src\lv_objx/lv_tabview.c ****             lv_page_set_style(new_tab, LV_PAGE_STYLE_SB, lv_page_get_style(copy_tab, LV_PAGE_STYLE_
 762              		.loc 4 189 0 discriminator 3
 763 03b2 0221     		movs	r1, #2
 764 03b4 B868     		ldr	r0, [r7, #8]
 765 03b6 FFF7FEFF 		bl	lv_page_get_style
 766 03ba 0346     		mov	r3, r0
 767 03bc 1A46     		mov	r2, r3
 768 03be 0221     		movs	r1, #2
 769 03c0 F868     		ldr	r0, [r7, #12]
 770 03c2 FFF7FEFF 		bl	lv_page_set_style
 184:..\..\..\lvgl\version_6.1.2\lvgl\src\lv_objx/lv_tabview.c ****             new_tab  = lv_tabview_add_tab(new_tabview, copy_ext->tab_name_ptr[i]);
 771              		.loc 4 184 0 discriminator 3
 772 03c6 7B8C     		ldrh	r3, [r7, #34]
 773 03c8 0133     		adds	r3, r3, #1
 774 03ca 7B84     		strh	r3, [r7, #34]	@ movhi
 775              	.L22:
 184:..\..\..\lvgl\version_6.1.2\lvgl\src\lv_objx/lv_tabview.c ****             new_tab  = lv_tabview_add_tab(new_tabview, copy_ext->tab_name_ptr[i]);
 776              		.loc 4 184 0 is_stmt 0 discriminator 1
 777 03cc 3B69     		ldr	r3, [r7, #16]
 778 03ce DB8A     		ldrh	r3, [r3, #22]
 779 03d0 7A8C     		ldrh	r2, [r7, #34]
 780 03d2 9A42     		cmp	r2, r3
 781 03d4 C8D3     		bcc	.L23
 190:..\..\..\lvgl\version_6.1.2\lvgl\src\lv_objx/lv_tabview.c ****         }
 191:..\..\..\lvgl\version_6.1.2\lvgl\src\lv_objx/lv_tabview.c **** 
 192:..\..\..\lvgl\version_6.1.2\lvgl\src\lv_objx/lv_tabview.c ****         /*Refresh the style with new signal function*/
 193:..\..\..\lvgl\version_6.1.2\lvgl\src\lv_objx/lv_tabview.c ****         lv_obj_refresh_style(new_tabview);
 782              		.loc 4 193 0 is_stmt 1
 783 03d6 F869     		ldr	r0, [r7, #28]
 784 03d8 FFF7FEFF 		bl	lv_obj_refresh_style
 785              	.L20:
 786              	.LBE3:
 194:..\..\..\lvgl\version_6.1.2\lvgl\src\lv_objx/lv_tabview.c ****     }
 195:..\..\..\lvgl\version_6.1.2\lvgl\src\lv_objx/lv_tabview.c **** 
 196:..\..\..\lvgl\version_6.1.2\lvgl\src\lv_objx/lv_tabview.c ****     LV_LOG_INFO("tab view created");
 197:..\..\..\lvgl\version_6.1.2\lvgl\src\lv_objx/lv_tabview.c **** 
 198:..\..\..\lvgl\version_6.1.2\lvgl\src\lv_objx/lv_tabview.c ****     return new_tabview;
 787              		.loc 4 198 0
 788 03dc FB69     		ldr	r3, [r7, #28]
 789              	.L11:
 199:..\..\..\lvgl\version_6.1.2\lvgl\src\lv_objx/lv_tabview.c **** }
 790              		.loc 4 199 0
 791 03de 1846     		mov	r0, r3
 792 03e0 2837     		adds	r7, r7, #40
 793              		.cfi_def_cfa_offset 16
 794 03e2 BD46     		mov	sp, r7
ARM GAS  C:\Users\tmj32\AppData\Local\Temp\cc94ZBZn.s 			page 25


 795              		.cfi_def_cfa_register 13
 796              		@ sp needed
 797 03e4 B0BD     		pop	{r4, r5, r7, pc}
 798              	.L27:
 799 03e6 00BF     		.align	2
 800              	.L26:
 801 03e8 00000000 		.word	.LC0
 802              		.cfi_endproc
 803              	.LFE68:
 804              		.size	lv_tabview_create, .-lv_tabview_create
 805              		.section	.text.lv_tabview_clean,"ax",%progbits
 806              		.align	2
 807              		.global	lv_tabview_clean
 808              		.thumb
 809              		.thumb_func
 810              		.type	lv_tabview_clean, %function
 811              	lv_tabview_clean:
 812              	.LFB69:
 200:..\..\..\lvgl\version_6.1.2\lvgl\src\lv_objx/lv_tabview.c **** 
 201:..\..\..\lvgl\version_6.1.2\lvgl\src\lv_objx/lv_tabview.c **** /**
 202:..\..\..\lvgl\version_6.1.2\lvgl\src\lv_objx/lv_tabview.c ****  * Delete all children of the scrl object, without deleting scrl child.
 203:..\..\..\lvgl\version_6.1.2\lvgl\src\lv_objx/lv_tabview.c ****  * @param tabview pointer to an object
 204:..\..\..\lvgl\version_6.1.2\lvgl\src\lv_objx/lv_tabview.c ****  */
 205:..\..\..\lvgl\version_6.1.2\lvgl\src\lv_objx/lv_tabview.c **** void lv_tabview_clean(lv_obj_t * tabview)
 206:..\..\..\lvgl\version_6.1.2\lvgl\src\lv_objx/lv_tabview.c **** {
 813              		.loc 4 206 0
 814              		.cfi_startproc
 815              		@ args = 0, pretend = 0, frame = 16
 816              		@ frame_needed = 1, uses_anonymous_args = 0
 817 0000 80B5     		push	{r7, lr}
 818              		.cfi_def_cfa_offset 8
 819              		.cfi_offset 7, -8
 820              		.cfi_offset 14, -4
 821 0002 84B0     		sub	sp, sp, #16
 822              		.cfi_def_cfa_offset 24
 823 0004 00AF     		add	r7, sp, #0
 824              		.cfi_def_cfa_register 7
 825 0006 7860     		str	r0, [r7, #4]
 207:..\..\..\lvgl\version_6.1.2\lvgl\src\lv_objx/lv_tabview.c ****     LV_ASSERT_OBJ(tabview, LV_OBJX_NAME);
 208:..\..\..\lvgl\version_6.1.2\lvgl\src\lv_objx/lv_tabview.c **** 
 209:..\..\..\lvgl\version_6.1.2\lvgl\src\lv_objx/lv_tabview.c ****     lv_obj_t * scrl = lv_page_get_scrl(tabview);
 826              		.loc 4 209 0
 827 0008 7868     		ldr	r0, [r7, #4]
 828 000a FFF7FEFF 		bl	lv_page_get_scrl
 829 000e F860     		str	r0, [r7, #12]
 210:..\..\..\lvgl\version_6.1.2\lvgl\src\lv_objx/lv_tabview.c ****     lv_obj_clean(scrl);
 830              		.loc 4 210 0
 831 0010 F868     		ldr	r0, [r7, #12]
 832 0012 FFF7FEFF 		bl	lv_obj_clean
 211:..\..\..\lvgl\version_6.1.2\lvgl\src\lv_objx/lv_tabview.c **** }
 833              		.loc 4 211 0
 834 0016 00BF     		nop
 835 0018 1037     		adds	r7, r7, #16
 836              		.cfi_def_cfa_offset 8
 837 001a BD46     		mov	sp, r7
 838              		.cfi_def_cfa_register 13
 839              		@ sp needed
ARM GAS  C:\Users\tmj32\AppData\Local\Temp\cc94ZBZn.s 			page 26


 840 001c 80BD     		pop	{r7, pc}
 841              		.cfi_endproc
 842              	.LFE69:
 843              		.size	lv_tabview_clean, .-lv_tabview_clean
 844 001e 00BF     		.section	.rodata
 845 0001 000000   		.align	2
 846              	.LC1:
 847 0004 0A00     		.ascii	"\012\000"
 848              		.section	.text.lv_tabview_add_tab,"ax",%progbits
 849              		.align	2
 850              		.global	lv_tabview_add_tab
 851              		.thumb
 852              		.thumb_func
 853              		.type	lv_tabview_add_tab, %function
 854              	lv_tabview_add_tab:
 855              	.LFB70:
 212:..\..\..\lvgl\version_6.1.2\lvgl\src\lv_objx/lv_tabview.c **** 
 213:..\..\..\lvgl\version_6.1.2\lvgl\src\lv_objx/lv_tabview.c **** /*======================
 214:..\..\..\lvgl\version_6.1.2\lvgl\src\lv_objx/lv_tabview.c ****  * Add/remove functions
 215:..\..\..\lvgl\version_6.1.2\lvgl\src\lv_objx/lv_tabview.c ****  *=====================*/
 216:..\..\..\lvgl\version_6.1.2\lvgl\src\lv_objx/lv_tabview.c **** 
 217:..\..\..\lvgl\version_6.1.2\lvgl\src\lv_objx/lv_tabview.c **** /**
 218:..\..\..\lvgl\version_6.1.2\lvgl\src\lv_objx/lv_tabview.c ****  * Add a new tab with the given name
 219:..\..\..\lvgl\version_6.1.2\lvgl\src\lv_objx/lv_tabview.c ****  * @param tabview pointer to Tab view object where to ass the new tab
 220:..\..\..\lvgl\version_6.1.2\lvgl\src\lv_objx/lv_tabview.c ****  * @param name the text on the tab button
 221:..\..\..\lvgl\version_6.1.2\lvgl\src\lv_objx/lv_tabview.c ****  * @return pointer to the created page object (lv_page). You can create your content here
 222:..\..\..\lvgl\version_6.1.2\lvgl\src\lv_objx/lv_tabview.c ****  */
 223:..\..\..\lvgl\version_6.1.2\lvgl\src\lv_objx/lv_tabview.c **** lv_obj_t * lv_tabview_add_tab(lv_obj_t * tabview, const char * name)
 224:..\..\..\lvgl\version_6.1.2\lvgl\src\lv_objx/lv_tabview.c **** {
 856              		.loc 4 224 0
 857              		.cfi_startproc
 858              		@ args = 0, pretend = 0, frame = 40
 859              		@ frame_needed = 1, uses_anonymous_args = 0
 860 0000 90B5     		push	{r4, r7, lr}
 861              		.cfi_def_cfa_offset 12
 862              		.cfi_offset 4, -12
 863              		.cfi_offset 7, -8
 864              		.cfi_offset 14, -4
 865 0002 8BB0     		sub	sp, sp, #44
 866              		.cfi_def_cfa_offset 56
 867 0004 00AF     		add	r7, sp, #0
 868              		.cfi_def_cfa_register 7
 869 0006 7860     		str	r0, [r7, #4]
 870 0008 3960     		str	r1, [r7]
 225:..\..\..\lvgl\version_6.1.2\lvgl\src\lv_objx/lv_tabview.c ****     LV_ASSERT_OBJ(tabview, LV_OBJX_NAME);
 226:..\..\..\lvgl\version_6.1.2\lvgl\src\lv_objx/lv_tabview.c ****     LV_ASSERT_STR(name);
 227:..\..\..\lvgl\version_6.1.2\lvgl\src\lv_objx/lv_tabview.c **** 
 228:..\..\..\lvgl\version_6.1.2\lvgl\src\lv_objx/lv_tabview.c ****     lv_tabview_ext_t * ext = lv_obj_get_ext_attr(tabview);
 871              		.loc 4 228 0
 872 000a 7868     		ldr	r0, [r7, #4]
 873 000c FFF7FEFF 		bl	lv_obj_get_ext_attr
 874 0010 7862     		str	r0, [r7, #36]
 229:..\..\..\lvgl\version_6.1.2\lvgl\src\lv_objx/lv_tabview.c **** 
 230:..\..\..\lvgl\version_6.1.2\lvgl\src\lv_objx/lv_tabview.c ****     /*Create the container page*/
 231:..\..\..\lvgl\version_6.1.2\lvgl\src\lv_objx/lv_tabview.c ****     lv_obj_t * h = lv_page_create(ext->content, NULL);
 875              		.loc 4 231 0
 876 0012 7B6A     		ldr	r3, [r7, #36]
ARM GAS  C:\Users\tmj32\AppData\Local\Temp\cc94ZBZn.s 			page 27


 877 0014 9B68     		ldr	r3, [r3, #8]
 878 0016 0021     		movs	r1, #0
 879 0018 1846     		mov	r0, r3
 880 001a FFF7FEFF 		bl	lv_page_create
 881 001e 3862     		str	r0, [r7, #32]
 232:..\..\..\lvgl\version_6.1.2\lvgl\src\lv_objx/lv_tabview.c ****     lv_obj_set_size(h, lv_obj_get_width(tabview), lv_obj_get_height(ext->content));
 882              		.loc 4 232 0
 883 0020 7868     		ldr	r0, [r7, #4]
 884 0022 FFF7FEFF 		bl	lv_obj_get_width
 885 0026 0346     		mov	r3, r0
 886 0028 1C46     		mov	r4, r3
 887 002a 7B6A     		ldr	r3, [r7, #36]
 888 002c 9B68     		ldr	r3, [r3, #8]
 889 002e 1846     		mov	r0, r3
 890 0030 FFF7FEFF 		bl	lv_obj_get_height
 891 0034 0346     		mov	r3, r0
 892 0036 1A46     		mov	r2, r3
 893 0038 2146     		mov	r1, r4
 894 003a 386A     		ldr	r0, [r7, #32]
 895 003c FFF7FEFF 		bl	lv_obj_set_size
 233:..\..\..\lvgl\version_6.1.2\lvgl\src\lv_objx/lv_tabview.c ****     lv_page_set_sb_mode(h, LV_SB_MODE_AUTO);
 896              		.loc 4 233 0
 897 0040 0321     		movs	r1, #3
 898 0042 386A     		ldr	r0, [r7, #32]
 899 0044 FFF7FEFF 		bl	lv_page_set_sb_mode
 234:..\..\..\lvgl\version_6.1.2\lvgl\src\lv_objx/lv_tabview.c ****     lv_page_set_style(h, LV_PAGE_STYLE_BG, &lv_style_transp_tight);
 900              		.loc 4 234 0
 901 0048 8C4A     		ldr	r2, .L51
 902 004a 0021     		movs	r1, #0
 903 004c 386A     		ldr	r0, [r7, #32]
 904 004e FFF7FEFF 		bl	lv_page_set_style
 235:..\..\..\lvgl\version_6.1.2\lvgl\src\lv_objx/lv_tabview.c ****     lv_page_set_style(h, LV_PAGE_STYLE_SCRL, &lv_style_transp);//plain_color);
 905              		.loc 4 235 0
 906 0052 8B4A     		ldr	r2, .L51+4
 907 0054 0121     		movs	r1, #1
 908 0056 386A     		ldr	r0, [r7, #32]
 909 0058 FFF7FEFF 		bl	lv_page_set_style
 236:..\..\..\lvgl\version_6.1.2\lvgl\src\lv_objx/lv_tabview.c **** 
 237:..\..\..\lvgl\version_6.1.2\lvgl\src\lv_objx/lv_tabview.c ****     if(page_signal == NULL) page_signal = lv_obj_get_signal_cb(h);
 910              		.loc 4 237 0
 911 005c 894B     		ldr	r3, .L51+8
 912 005e 1B68     		ldr	r3, [r3]
 913 0060 002B     		cmp	r3, #0
 914 0062 05D1     		bne	.L30
 915              		.loc 4 237 0 is_stmt 0 discriminator 1
 916 0064 386A     		ldr	r0, [r7, #32]
 917 0066 FFF7FEFF 		bl	lv_obj_get_signal_cb
 918 006a 0246     		mov	r2, r0
 919 006c 854B     		ldr	r3, .L51+8
 920 006e 1A60     		str	r2, [r3]
 921              	.L30:
 238:..\..\..\lvgl\version_6.1.2\lvgl\src\lv_objx/lv_tabview.c ****     if(page_scrl_signal == NULL) page_scrl_signal = lv_obj_get_signal_cb(lv_page_get_scrl(h));
 922              		.loc 4 238 0 is_stmt 1
 923 0070 854B     		ldr	r3, .L51+12
 924 0072 1B68     		ldr	r3, [r3]
 925 0074 002B     		cmp	r3, #0
 926 0076 09D1     		bne	.L31
ARM GAS  C:\Users\tmj32\AppData\Local\Temp\cc94ZBZn.s 			page 28


 927              		.loc 4 238 0 is_stmt 0 discriminator 1
 928 0078 386A     		ldr	r0, [r7, #32]
 929 007a FFF7FEFF 		bl	lv_page_get_scrl
 930 007e 0346     		mov	r3, r0
 931 0080 1846     		mov	r0, r3
 932 0082 FFF7FEFF 		bl	lv_obj_get_signal_cb
 933 0086 0246     		mov	r2, r0
 934 0088 7F4B     		ldr	r3, .L51+12
 935 008a 1A60     		str	r2, [r3]
 936              	.L31:
 239:..\..\..\lvgl\version_6.1.2\lvgl\src\lv_objx/lv_tabview.c ****     lv_obj_set_signal_cb(h, tabpage_signal);
 937              		.loc 4 239 0 is_stmt 1
 938 008c 7F49     		ldr	r1, .L51+16
 939 008e 386A     		ldr	r0, [r7, #32]
 940 0090 FFF7FEFF 		bl	lv_obj_set_signal_cb
 240:..\..\..\lvgl\version_6.1.2\lvgl\src\lv_objx/lv_tabview.c ****     lv_obj_set_signal_cb(lv_page_get_scrl(h), tabpage_scrl_signal);
 941              		.loc 4 240 0
 942 0094 386A     		ldr	r0, [r7, #32]
 943 0096 FFF7FEFF 		bl	lv_page_get_scrl
 944 009a 0346     		mov	r3, r0
 945 009c 7C49     		ldr	r1, .L51+20
 946 009e 1846     		mov	r0, r3
 947 00a0 FFF7FEFF 		bl	lv_obj_set_signal_cb
 241:..\..\..\lvgl\version_6.1.2\lvgl\src\lv_objx/lv_tabview.c **** 
 242:..\..\..\lvgl\version_6.1.2\lvgl\src\lv_objx/lv_tabview.c ****     /*Extend the button matrix map with the new name*/
 243:..\..\..\lvgl\version_6.1.2\lvgl\src\lv_objx/lv_tabview.c ****     char * name_dm;
 244:..\..\..\lvgl\version_6.1.2\lvgl\src\lv_objx/lv_tabview.c ****     name_dm = lv_mem_alloc(strlen(name) + 1); /*+1 for the the closing '\0' */
 948              		.loc 4 244 0
 949 00a4 3868     		ldr	r0, [r7]
 950 00a6 FFF7FEFF 		bl	strlen
 951 00aa 0346     		mov	r3, r0
 952 00ac 0133     		adds	r3, r3, #1
 953 00ae 1846     		mov	r0, r3
 954 00b0 FFF7FEFF 		bl	lv_mem_alloc
 955 00b4 F861     		str	r0, [r7, #28]
 245:..\..\..\lvgl\version_6.1.2\lvgl\src\lv_objx/lv_tabview.c ****     LV_ASSERT_MEM(name_dm);
 246:..\..\..\lvgl\version_6.1.2\lvgl\src\lv_objx/lv_tabview.c ****     if(name_dm == NULL) return NULL;
 956              		.loc 4 246 0
 957 00b6 FB69     		ldr	r3, [r7, #28]
 958 00b8 002B     		cmp	r3, #0
 959 00ba 01D1     		bne	.L32
 960              		.loc 4 246 0 is_stmt 0 discriminator 1
 961 00bc 0023     		movs	r3, #0
 962 00be 53E1     		b	.L33
 963              	.L32:
 247:..\..\..\lvgl\version_6.1.2\lvgl\src\lv_objx/lv_tabview.c ****     strcpy(name_dm, name);
 964              		.loc 4 247 0 is_stmt 1
 965 00c0 3968     		ldr	r1, [r7]
 966 00c2 F869     		ldr	r0, [r7, #28]
 967 00c4 FFF7FEFF 		bl	strcpy
 248:..\..\..\lvgl\version_6.1.2\lvgl\src\lv_objx/lv_tabview.c **** 
 249:..\..\..\lvgl\version_6.1.2\lvgl\src\lv_objx/lv_tabview.c ****     ext->tab_cnt++;
 968              		.loc 4 249 0
 969 00c8 7B6A     		ldr	r3, [r7, #36]
 970 00ca DB8A     		ldrh	r3, [r3, #22]
 971 00cc 0133     		adds	r3, r3, #1
 972 00ce 9AB2     		uxth	r2, r3
ARM GAS  C:\Users\tmj32\AppData\Local\Temp\cc94ZBZn.s 			page 29


 973 00d0 7B6A     		ldr	r3, [r7, #36]
 974 00d2 DA82     		strh	r2, [r3, #22]	@ movhi
 250:..\..\..\lvgl\version_6.1.2\lvgl\src\lv_objx/lv_tabview.c **** 
 251:..\..\..\lvgl\version_6.1.2\lvgl\src\lv_objx/lv_tabview.c ****     switch(ext->btns_pos) {
 975              		.loc 4 251 0
 976 00d4 7B6A     		ldr	r3, [r7, #36]
 977 00d6 9B7E     		ldrb	r3, [r3, #26]
 978 00d8 C3F34113 		ubfx	r3, r3, #5, #2
 979 00dc DBB2     		uxtb	r3, r3
 980 00de 023B     		subs	r3, r3, #2
 981 00e0 012B     		cmp	r3, #1
 982 00e2 0DD9     		bls	.L47
 252:..\..\..\lvgl\version_6.1.2\lvgl\src\lv_objx/lv_tabview.c ****         case LV_TABVIEW_BTNS_POS_TOP:
 253:..\..\..\lvgl\version_6.1.2\lvgl\src\lv_objx/lv_tabview.c ****         case LV_TABVIEW_BTNS_POS_BOTTOM:
 254:..\..\..\lvgl\version_6.1.2\lvgl\src\lv_objx/lv_tabview.c ****             ext->tab_name_ptr = lv_mem_realloc((void*)ext->tab_name_ptr, sizeof(char *) * (ext->tab
 983              		.loc 4 254 0
 984 00e4 7B6A     		ldr	r3, [r7, #36]
 985 00e6 DA68     		ldr	r2, [r3, #12]
 986 00e8 7B6A     		ldr	r3, [r7, #36]
 987 00ea DB8A     		ldrh	r3, [r3, #22]
 988 00ec 0133     		adds	r3, r3, #1
 989 00ee 9B00     		lsls	r3, r3, #2
 990 00f0 1946     		mov	r1, r3
 991 00f2 1046     		mov	r0, r2
 992 00f4 FFF7FEFF 		bl	lv_mem_realloc
 993 00f8 0246     		mov	r2, r0
 994 00fa 7B6A     		ldr	r3, [r7, #36]
 995 00fc DA60     		str	r2, [r3, #12]
 255:..\..\..\lvgl\version_6.1.2\lvgl\src\lv_objx/lv_tabview.c ****             break;
 996              		.loc 4 255 0
 997 00fe 0CE0     		b	.L36
 998              	.L47:
 256:..\..\..\lvgl\version_6.1.2\lvgl\src\lv_objx/lv_tabview.c ****         case LV_TABVIEW_BTNS_POS_LEFT:
 257:..\..\..\lvgl\version_6.1.2\lvgl\src\lv_objx/lv_tabview.c ****         case LV_TABVIEW_BTNS_POS_RIGHT:
 258:..\..\..\lvgl\version_6.1.2\lvgl\src\lv_objx/lv_tabview.c ****             ext->tab_name_ptr = lv_mem_realloc((void*)ext->tab_name_ptr, sizeof(char *) * (ext->tab
 999              		.loc 4 258 0
 1000 0100 7B6A     		ldr	r3, [r7, #36]
 1001 0102 DA68     		ldr	r2, [r3, #12]
 1002 0104 7B6A     		ldr	r3, [r7, #36]
 1003 0106 DB8A     		ldrh	r3, [r3, #22]
 1004 0108 DB00     		lsls	r3, r3, #3
 1005 010a 1946     		mov	r1, r3
 1006 010c 1046     		mov	r0, r2
 1007 010e FFF7FEFF 		bl	lv_mem_realloc
 1008 0112 0246     		mov	r2, r0
 1009 0114 7B6A     		ldr	r3, [r7, #36]
 1010 0116 DA60     		str	r2, [r3, #12]
 259:..\..\..\lvgl\version_6.1.2\lvgl\src\lv_objx/lv_tabview.c ****             break;
 1011              		.loc 4 259 0
 1012 0118 00BF     		nop
 1013              	.L36:
 260:..\..\..\lvgl\version_6.1.2\lvgl\src\lv_objx/lv_tabview.c ****     }
 261:..\..\..\lvgl\version_6.1.2\lvgl\src\lv_objx/lv_tabview.c **** 
 262:..\..\..\lvgl\version_6.1.2\lvgl\src\lv_objx/lv_tabview.c ****     LV_ASSERT_MEM(ext->tab_name_ptr);
 263:..\..\..\lvgl\version_6.1.2\lvgl\src\lv_objx/lv_tabview.c ****     if(ext->tab_name_ptr == NULL) return NULL;
 1014              		.loc 4 263 0
 1015 011a 7B6A     		ldr	r3, [r7, #36]
ARM GAS  C:\Users\tmj32\AppData\Local\Temp\cc94ZBZn.s 			page 30


 1016 011c DB68     		ldr	r3, [r3, #12]
 1017 011e 002B     		cmp	r3, #0
 1018 0120 01D1     		bne	.L37
 1019              		.loc 4 263 0 is_stmt 0 discriminator 1
 1020 0122 0023     		movs	r3, #0
 1021 0124 20E1     		b	.L33
 1022              	.L37:
 264:..\..\..\lvgl\version_6.1.2\lvgl\src\lv_objx/lv_tabview.c **** 
 265:..\..\..\lvgl\version_6.1.2\lvgl\src\lv_objx/lv_tabview.c ****     /* FIXME: It is not possible yet to switch tab button position from/to top/bottom from/to left/
 266:..\..\..\lvgl\version_6.1.2\lvgl\src\lv_objx/lv_tabview.c ****      * Method: clean extra \n when switch from LV_TABVIEW_BTNS_POS_LEFT or LV_TABVIEW_BTNS_POS_RIGH
 267:..\..\..\lvgl\version_6.1.2\lvgl\src\lv_objx/lv_tabview.c ****      * to LV_TABVIEW_BTNS_POS_TOP or LV_TABVIEW_BTNS_POS_BOTTOM.
 268:..\..\..\lvgl\version_6.1.2\lvgl\src\lv_objx/lv_tabview.c ****      */
 269:..\..\..\lvgl\version_6.1.2\lvgl\src\lv_objx/lv_tabview.c ****     switch(ext->btns_pos) {
 1023              		.loc 4 269 0 is_stmt 1
 1024 0126 7B6A     		ldr	r3, [r7, #36]
 1025 0128 9B7E     		ldrb	r3, [r3, #26]
 1026 012a C3F34113 		ubfx	r3, r3, #5, #2
 1027 012e DBB2     		uxtb	r3, r3
 1028 0130 023B     		subs	r3, r3, #2
 1029 0132 012B     		cmp	r3, #1
 1030 0134 13D9     		bls	.L48
 270:..\..\..\lvgl\version_6.1.2\lvgl\src\lv_objx/lv_tabview.c ****         case LV_TABVIEW_BTNS_POS_TOP:
 271:..\..\..\lvgl\version_6.1.2\lvgl\src\lv_objx/lv_tabview.c ****         case LV_TABVIEW_BTNS_POS_BOTTOM:
 272:..\..\..\lvgl\version_6.1.2\lvgl\src\lv_objx/lv_tabview.c ****             ext->tab_name_ptr[ext->tab_cnt - 1] = name_dm;
 1031              		.loc 4 272 0
 1032 0136 7B6A     		ldr	r3, [r7, #36]
 1033 0138 DA68     		ldr	r2, [r3, #12]
 1034 013a 7B6A     		ldr	r3, [r7, #36]
 1035 013c DB8A     		ldrh	r3, [r3, #22]
 1036 013e 03F18043 		add	r3, r3, #1073741824
 1037 0142 013B     		subs	r3, r3, #1
 1038 0144 9B00     		lsls	r3, r3, #2
 1039 0146 1344     		add	r3, r3, r2
 1040 0148 FA69     		ldr	r2, [r7, #28]
 1041 014a 1A60     		str	r2, [r3]
 273:..\..\..\lvgl\version_6.1.2\lvgl\src\lv_objx/lv_tabview.c ****             ext->tab_name_ptr[ext->tab_cnt]     = "";
 1042              		.loc 4 273 0
 1043 014c 7B6A     		ldr	r3, [r7, #36]
 1044 014e DA68     		ldr	r2, [r3, #12]
 1045 0150 7B6A     		ldr	r3, [r7, #36]
 1046 0152 DB8A     		ldrh	r3, [r3, #22]
 1047 0154 9B00     		lsls	r3, r3, #2
 1048 0156 1344     		add	r3, r3, r2
 1049 0158 4E4A     		ldr	r2, .L51+24
 1050 015a 1A60     		str	r2, [r3]
 274:..\..\..\lvgl\version_6.1.2\lvgl\src\lv_objx/lv_tabview.c ****             break;
 1051              		.loc 4 274 0
 1052 015c 29E0     		b	.L40
 1053              	.L48:
 275:..\..\..\lvgl\version_6.1.2\lvgl\src\lv_objx/lv_tabview.c ****         case LV_TABVIEW_BTNS_POS_LEFT:
 276:..\..\..\lvgl\version_6.1.2\lvgl\src\lv_objx/lv_tabview.c ****         case LV_TABVIEW_BTNS_POS_RIGHT:
 277:..\..\..\lvgl\version_6.1.2\lvgl\src\lv_objx/lv_tabview.c ****             if(ext->tab_cnt == 1) {
 1054              		.loc 4 277 0
 1055 015e 7B6A     		ldr	r3, [r7, #36]
 1056 0160 DB8A     		ldrh	r3, [r3, #22]
 1057 0162 012B     		cmp	r3, #1
 1058 0164 09D1     		bne	.L41
ARM GAS  C:\Users\tmj32\AppData\Local\Temp\cc94ZBZn.s 			page 31


 278:..\..\..\lvgl\version_6.1.2\lvgl\src\lv_objx/lv_tabview.c ****                 ext->tab_name_ptr[0] = name_dm;
 1059              		.loc 4 278 0
 1060 0166 7B6A     		ldr	r3, [r7, #36]
 1061 0168 DB68     		ldr	r3, [r3, #12]
 1062 016a FA69     		ldr	r2, [r7, #28]
 1063 016c 1A60     		str	r2, [r3]
 279:..\..\..\lvgl\version_6.1.2\lvgl\src\lv_objx/lv_tabview.c ****                 ext->tab_name_ptr[1] = "";
 1064              		.loc 4 279 0
 1065 016e 7B6A     		ldr	r3, [r7, #36]
 1066 0170 DB68     		ldr	r3, [r3, #12]
 1067 0172 0433     		adds	r3, r3, #4
 1068 0174 474A     		ldr	r2, .L51+24
 1069 0176 1A60     		str	r2, [r3]
 280:..\..\..\lvgl\version_6.1.2\lvgl\src\lv_objx/lv_tabview.c ****             } else {
 281:..\..\..\lvgl\version_6.1.2\lvgl\src\lv_objx/lv_tabview.c ****                 ext->tab_name_ptr[ext->tab_cnt * 2 - 3] = "\n";
 282:..\..\..\lvgl\version_6.1.2\lvgl\src\lv_objx/lv_tabview.c ****                 ext->tab_name_ptr[ext->tab_cnt * 2 - 2] = name_dm;
 283:..\..\..\lvgl\version_6.1.2\lvgl\src\lv_objx/lv_tabview.c ****                 ext->tab_name_ptr[ext->tab_cnt * 2 - 1] = "";
 284:..\..\..\lvgl\version_6.1.2\lvgl\src\lv_objx/lv_tabview.c ****             }
 285:..\..\..\lvgl\version_6.1.2\lvgl\src\lv_objx/lv_tabview.c ****             break;
 1070              		.loc 4 285 0
 1071 0178 1AE0     		b	.L50
 1072              	.L41:
 281:..\..\..\lvgl\version_6.1.2\lvgl\src\lv_objx/lv_tabview.c ****                 ext->tab_name_ptr[ext->tab_cnt * 2 - 2] = name_dm;
 1073              		.loc 4 281 0
 1074 017a 7B6A     		ldr	r3, [r7, #36]
 1075 017c DA68     		ldr	r2, [r3, #12]
 1076 017e 7B6A     		ldr	r3, [r7, #36]
 1077 0180 DB8A     		ldrh	r3, [r3, #22]
 1078 0182 DB00     		lsls	r3, r3, #3
 1079 0184 0C3B     		subs	r3, r3, #12
 1080 0186 1344     		add	r3, r3, r2
 1081 0188 434A     		ldr	r2, .L51+28
 1082 018a 1A60     		str	r2, [r3]
 282:..\..\..\lvgl\version_6.1.2\lvgl\src\lv_objx/lv_tabview.c ****                 ext->tab_name_ptr[ext->tab_cnt * 2 - 1] = "";
 1083              		.loc 4 282 0
 1084 018c 7B6A     		ldr	r3, [r7, #36]
 1085 018e DA68     		ldr	r2, [r3, #12]
 1086 0190 7B6A     		ldr	r3, [r7, #36]
 1087 0192 DB8A     		ldrh	r3, [r3, #22]
 1088 0194 DB00     		lsls	r3, r3, #3
 1089 0196 083B     		subs	r3, r3, #8
 1090 0198 1344     		add	r3, r3, r2
 1091 019a FA69     		ldr	r2, [r7, #28]
 1092 019c 1A60     		str	r2, [r3]
 283:..\..\..\lvgl\version_6.1.2\lvgl\src\lv_objx/lv_tabview.c ****             }
 1093              		.loc 4 283 0
 1094 019e 7B6A     		ldr	r3, [r7, #36]
 1095 01a0 DA68     		ldr	r2, [r3, #12]
 1096 01a2 7B6A     		ldr	r3, [r7, #36]
 1097 01a4 DB8A     		ldrh	r3, [r3, #22]
 1098 01a6 DB00     		lsls	r3, r3, #3
 1099 01a8 043B     		subs	r3, r3, #4
 1100 01aa 1344     		add	r3, r3, r2
 1101 01ac 394A     		ldr	r2, .L51+24
 1102 01ae 1A60     		str	r2, [r3]
 1103              	.L50:
 1104              		.loc 4 285 0
ARM GAS  C:\Users\tmj32\AppData\Local\Temp\cc94ZBZn.s 			page 32


 1105 01b0 00BF     		nop
 1106              	.L40:
 286:..\..\..\lvgl\version_6.1.2\lvgl\src\lv_objx/lv_tabview.c ****     }
 287:..\..\..\lvgl\version_6.1.2\lvgl\src\lv_objx/lv_tabview.c **** 
 288:..\..\..\lvgl\version_6.1.2\lvgl\src\lv_objx/lv_tabview.c ****     /* The button matrix's map still points to the old `tab_name_ptr` which might be freed by
 289:..\..\..\lvgl\version_6.1.2\lvgl\src\lv_objx/lv_tabview.c ****      * `lv_mem_realloc`. So make its current map invalid*/
 290:..\..\..\lvgl\version_6.1.2\lvgl\src\lv_objx/lv_tabview.c ****     lv_btnm_ext_t * btnm_ext = lv_obj_get_ext_attr(ext->btns);
 1107              		.loc 4 290 0
 1108 01b2 7B6A     		ldr	r3, [r7, #36]
 1109 01b4 1B68     		ldr	r3, [r3]
 1110 01b6 1846     		mov	r0, r3
 1111 01b8 FFF7FEFF 		bl	lv_obj_get_ext_attr
 1112 01bc B861     		str	r0, [r7, #24]
 291:..\..\..\lvgl\version_6.1.2\lvgl\src\lv_objx/lv_tabview.c ****     btnm_ext->map_p          = NULL;
 1113              		.loc 4 291 0
 1114 01be BB69     		ldr	r3, [r7, #24]
 1115 01c0 0022     		movs	r2, #0
 1116 01c2 1A60     		str	r2, [r3]
 292:..\..\..\lvgl\version_6.1.2\lvgl\src\lv_objx/lv_tabview.c **** 
 293:..\..\..\lvgl\version_6.1.2\lvgl\src\lv_objx/lv_tabview.c ****     lv_btnm_set_map(ext->btns, ext->tab_name_ptr);
 1117              		.loc 4 293 0
 1118 01c4 7B6A     		ldr	r3, [r7, #36]
 1119 01c6 1A68     		ldr	r2, [r3]
 1120 01c8 7B6A     		ldr	r3, [r7, #36]
 1121 01ca DB68     		ldr	r3, [r3, #12]
 1122 01cc 1946     		mov	r1, r3
 1123 01ce 1046     		mov	r0, r2
 1124 01d0 FFF7FEFF 		bl	lv_btnm_set_map
 294:..\..\..\lvgl\version_6.1.2\lvgl\src\lv_objx/lv_tabview.c ****     lv_btnm_set_btn_ctrl(ext->btns, ext->tab_cur, LV_BTNM_CTRL_NO_REPEAT);
 1125              		.loc 4 294 0
 1126 01d4 7B6A     		ldr	r3, [r7, #36]
 1127 01d6 1868     		ldr	r0, [r3]
 1128 01d8 7B6A     		ldr	r3, [r7, #36]
 1129 01da 9B8A     		ldrh	r3, [r3, #20]
 1130 01dc 1022     		movs	r2, #16
 1131 01de 1946     		mov	r1, r3
 1132 01e0 FFF7FEFF 		bl	lv_btnm_set_btn_ctrl
 295:..\..\..\lvgl\version_6.1.2\lvgl\src\lv_objx/lv_tabview.c **** 
 296:..\..\..\lvgl\version_6.1.2\lvgl\src\lv_objx/lv_tabview.c ****     /*Modify the indicator size*/
 297:..\..\..\lvgl\version_6.1.2\lvgl\src\lv_objx/lv_tabview.c ****     const lv_style_t * style_tabs = lv_obj_get_style(ext->btns);
 1133              		.loc 4 297 0
 1134 01e4 7B6A     		ldr	r3, [r7, #36]
 1135 01e6 1B68     		ldr	r3, [r3]
 1136 01e8 1846     		mov	r0, r3
 1137 01ea FFF7FEFF 		bl	lv_obj_get_style
 1138 01ee 7861     		str	r0, [r7, #20]
 298:..\..\..\lvgl\version_6.1.2\lvgl\src\lv_objx/lv_tabview.c ****     lv_coord_t indic_size;
 299:..\..\..\lvgl\version_6.1.2\lvgl\src\lv_objx/lv_tabview.c ****     lv_coord_t max_h, btn_h, act_y;
 300:..\..\..\lvgl\version_6.1.2\lvgl\src\lv_objx/lv_tabview.c **** 
 301:..\..\..\lvgl\version_6.1.2\lvgl\src\lv_objx/lv_tabview.c ****     switch(ext->btns_pos) {
 1139              		.loc 4 301 0
 1140 01f0 7B6A     		ldr	r3, [r7, #36]
 1141 01f2 9B7E     		ldrb	r3, [r3, #26]
 1142 01f4 C3F34113 		ubfx	r3, r3, #5, #2
 1143 01f8 DBB2     		uxtb	r3, r3
 1144 01fa 023B     		subs	r3, r3, #2
 1145 01fc 012B     		cmp	r3, #1
ARM GAS  C:\Users\tmj32\AppData\Local\Temp\cc94ZBZn.s 			page 33


 1146 01fe 4DD9     		bls	.L49
 302:..\..\..\lvgl\version_6.1.2\lvgl\src\lv_objx/lv_tabview.c ****         case LV_TABVIEW_BTNS_POS_TOP:
 303:..\..\..\lvgl\version_6.1.2\lvgl\src\lv_objx/lv_tabview.c ****         case LV_TABVIEW_BTNS_POS_BOTTOM:
 304:..\..\..\lvgl\version_6.1.2\lvgl\src\lv_objx/lv_tabview.c ****             indic_size = (lv_obj_get_width(tabview) - style_tabs->body.padding.inner * (ext->tab_cn
 1147              		.loc 4 304 0
 1148 0200 7868     		ldr	r0, [r7, #4]
 1149 0202 FFF7FEFF 		bl	lv_obj_get_width
 1150 0206 0346     		mov	r3, r0
 1151 0208 1A46     		mov	r2, r3
 1152 020a 7B69     		ldr	r3, [r7, #20]
 1153 020c B3F92830 		ldrsh	r3, [r3, #40]
 1154 0210 1946     		mov	r1, r3
 1155 0212 7B6A     		ldr	r3, [r7, #36]
 1156 0214 DB8A     		ldrh	r3, [r3, #22]
 1157 0216 013B     		subs	r3, r3, #1
 1158 0218 03FB01F3 		mul	r3, r3, r1
 1159 021c D31A     		subs	r3, r2, r3
 305:..\..\..\lvgl\version_6.1.2\lvgl\src\lv_objx/lv_tabview.c ****                           style_tabs->body.padding.left - style_tabs->body.padding.right) /
 1160              		.loc 4 305 0
 1161 021e 7A69     		ldr	r2, [r7, #20]
 1162 0220 B2F92420 		ldrsh	r2, [r2, #36]
 304:..\..\..\lvgl\version_6.1.2\lvgl\src\lv_objx/lv_tabview.c ****                           style_tabs->body.padding.left - style_tabs->body.padding.right) /
 1163              		.loc 4 304 0
 1164 0224 9B1A     		subs	r3, r3, r2
 1165              		.loc 4 305 0
 1166 0226 7A69     		ldr	r2, [r7, #20]
 1167 0228 B2F92620 		ldrsh	r2, [r2, #38]
 1168 022c 9B1A     		subs	r3, r3, r2
 306:..\..\..\lvgl\version_6.1.2\lvgl\src\lv_objx/lv_tabview.c ****                          ext->tab_cnt;
 1169              		.loc 4 306 0
 1170 022e 7A6A     		ldr	r2, [r7, #36]
 1171 0230 D28A     		ldrh	r2, [r2, #22]
 305:..\..\..\lvgl\version_6.1.2\lvgl\src\lv_objx/lv_tabview.c ****                           style_tabs->body.padding.left - style_tabs->body.padding.right) /
 1172              		.loc 4 305 0
 1173 0232 93FBF2F3 		sdiv	r3, r3, r2
 304:..\..\..\lvgl\version_6.1.2\lvgl\src\lv_objx/lv_tabview.c ****                           style_tabs->body.padding.left - style_tabs->body.padding.right) /
 1174              		.loc 4 304 0
 1175 0236 7B82     		strh	r3, [r7, #18]	@ movhi
 307:..\..\..\lvgl\version_6.1.2\lvgl\src\lv_objx/lv_tabview.c ****             lv_obj_set_width(ext->indic, indic_size);
 1176              		.loc 4 307 0
 1177 0238 7B6A     		ldr	r3, [r7, #36]
 1178 023a 5B68     		ldr	r3, [r3, #4]
 1179 023c B7F91220 		ldrsh	r2, [r7, #18]
 1180 0240 1146     		mov	r1, r2
 1181 0242 1846     		mov	r0, r3
 1182 0244 FFF7FEFF 		bl	lv_obj_set_width
 308:..\..\..\lvgl\version_6.1.2\lvgl\src\lv_objx/lv_tabview.c ****             lv_obj_set_x(ext->indic, indic_size * ext->tab_cur + style_tabs->body.padding.inner * e
 1183              		.loc 4 308 0
 1184 0248 7B6A     		ldr	r3, [r7, #36]
 1185 024a 5868     		ldr	r0, [r3, #4]
 1186 024c B7F91230 		ldrsh	r3, [r7, #18]
 1187 0250 7A69     		ldr	r2, [r7, #20]
 1188 0252 B2F92820 		ldrsh	r2, [r2, #40]
 1189 0256 1344     		add	r3, r3, r2
 1190 0258 9AB2     		uxth	r2, r3
 1191 025a 7B6A     		ldr	r3, [r7, #36]
 1192 025c 9B8A     		ldrh	r3, [r3, #20]
ARM GAS  C:\Users\tmj32\AppData\Local\Temp\cc94ZBZn.s 			page 34


 1193 025e 12FB03F3 		smulbb	r3, r2, r3
 1194 0262 9AB2     		uxth	r2, r3
 309:..\..\..\lvgl\version_6.1.2\lvgl\src\lv_objx/lv_tabview.c ****                                          style_tabs->body.padding.left);
 1195              		.loc 4 309 0
 1196 0264 7B69     		ldr	r3, [r7, #20]
 1197 0266 B3F92430 		ldrsh	r3, [r3, #36]
 308:..\..\..\lvgl\version_6.1.2\lvgl\src\lv_objx/lv_tabview.c ****             lv_obj_set_x(ext->indic, indic_size * ext->tab_cur + style_tabs->body.padding.inner * e
 1198              		.loc 4 308 0
 1199 026a 9BB2     		uxth	r3, r3
 1200 026c 1344     		add	r3, r3, r2
 1201 026e 9BB2     		uxth	r3, r3
 1202 0270 1BB2     		sxth	r3, r3
 1203 0272 1946     		mov	r1, r3
 1204 0274 FFF7FEFF 		bl	lv_obj_set_x
 310:..\..\..\lvgl\version_6.1.2\lvgl\src\lv_objx/lv_tabview.c ****             break;
 1205              		.loc 4 310 0
 1206 0278 64E0     		b	.L45
 1207              	.L52:
 1208 027a 00BF     		.align	2
 1209              	.L51:
 1210 027c 00000000 		.word	lv_style_transp_tight
 1211 0280 00000000 		.word	lv_style_transp
 1212 0284 04000000 		.word	page_signal
 1213 0288 08000000 		.word	page_scrl_signal
 1214 028c 00000000 		.word	tabpage_signal
 1215 0290 00000000 		.word	tabpage_scrl_signal
 1216 0294 00000000 		.word	.LC0
 1217 0298 04000000 		.word	.LC1
 1218              	.L49:
 311:..\..\..\lvgl\version_6.1.2\lvgl\src\lv_objx/lv_tabview.c ****         case LV_TABVIEW_BTNS_POS_LEFT:
 312:..\..\..\lvgl\version_6.1.2\lvgl\src\lv_objx/lv_tabview.c ****         case LV_TABVIEW_BTNS_POS_RIGHT:
 313:..\..\..\lvgl\version_6.1.2\lvgl\src\lv_objx/lv_tabview.c ****             max_h = lv_obj_get_height(ext->btns) - style_tabs->body.padding.top - style_tabs->body.
 1219              		.loc 4 313 0
 1220 029c 7B6A     		ldr	r3, [r7, #36]
 1221 029e 1B68     		ldr	r3, [r3]
 1222 02a0 1846     		mov	r0, r3
 1223 02a2 FFF7FEFF 		bl	lv_obj_get_height
 1224 02a6 0346     		mov	r3, r0
 1225 02a8 9AB2     		uxth	r2, r3
 1226 02aa 7B69     		ldr	r3, [r7, #20]
 1227 02ac B3F92030 		ldrsh	r3, [r3, #32]
 1228 02b0 9BB2     		uxth	r3, r3
 1229 02b2 D31A     		subs	r3, r2, r3
 1230 02b4 9AB2     		uxth	r2, r3
 1231 02b6 7B69     		ldr	r3, [r7, #20]
 1232 02b8 B3F92230 		ldrsh	r3, [r3, #34]
 1233 02bc 9BB2     		uxth	r3, r3
 1234 02be D31A     		subs	r3, r2, r3
 1235 02c0 9BB2     		uxth	r3, r3
 1236 02c2 3B82     		strh	r3, [r7, #16]	@ movhi
 314:..\..\..\lvgl\version_6.1.2\lvgl\src\lv_objx/lv_tabview.c ****             btn_h = max_h - ((ext->tab_cnt - 1) * style_tabs->body.padding.inner);
 1237              		.loc 4 314 0
 1238 02c4 3A8A     		ldrh	r2, [r7, #16]
 1239 02c6 7B6A     		ldr	r3, [r7, #36]
 1240 02c8 DB8A     		ldrh	r3, [r3, #22]
 1241 02ca 013B     		subs	r3, r3, #1
 1242 02cc 99B2     		uxth	r1, r3
ARM GAS  C:\Users\tmj32\AppData\Local\Temp\cc94ZBZn.s 			page 35


 1243 02ce 7B69     		ldr	r3, [r7, #20]
 1244 02d0 B3F92830 		ldrsh	r3, [r3, #40]
 1245 02d4 9BB2     		uxth	r3, r3
 1246 02d6 11FB03F3 		smulbb	r3, r1, r3
 1247 02da 9BB2     		uxth	r3, r3
 1248 02dc D31A     		subs	r3, r2, r3
 1249 02de 9BB2     		uxth	r3, r3
 1250 02e0 FB81     		strh	r3, [r7, #14]	@ movhi
 315:..\..\..\lvgl\version_6.1.2\lvgl\src\lv_objx/lv_tabview.c ****             btn_h = btn_h / ext->tab_cnt;
 1251              		.loc 4 315 0
 1252 02e2 B7F90E30 		ldrsh	r3, [r7, #14]
 1253 02e6 7A6A     		ldr	r2, [r7, #36]
 1254 02e8 D28A     		ldrh	r2, [r2, #22]
 1255 02ea 93FBF2F3 		sdiv	r3, r3, r2
 1256 02ee FB81     		strh	r3, [r7, #14]	@ movhi
 316:..\..\..\lvgl\version_6.1.2\lvgl\src\lv_objx/lv_tabview.c ****             btn_h--; /*-1 because e.g. height = 100 means 101 pixels (0..100)*/
 1257              		.loc 4 316 0
 1258 02f0 B7F90E30 		ldrsh	r3, [r7, #14]
 1259 02f4 9BB2     		uxth	r3, r3
 1260 02f6 013B     		subs	r3, r3, #1
 1261 02f8 9BB2     		uxth	r3, r3
 1262 02fa FB81     		strh	r3, [r7, #14]	@ movhi
 317:..\..\..\lvgl\version_6.1.2\lvgl\src\lv_objx/lv_tabview.c ****             act_y = style_tabs->body.padding.top + ext->tab_cur * (btn_h + style_tabs->body.padding
 1263              		.loc 4 317 0
 1264 02fc 7B69     		ldr	r3, [r7, #20]
 1265 02fe B3F92030 		ldrsh	r3, [r3, #32]
 1266 0302 9AB2     		uxth	r2, r3
 1267 0304 7B6A     		ldr	r3, [r7, #36]
 1268 0306 998A     		ldrh	r1, [r3, #20]
 1269 0308 B7F90E30 		ldrsh	r3, [r7, #14]
 1270 030c 7869     		ldr	r0, [r7, #20]
 1271 030e B0F92800 		ldrsh	r0, [r0, #40]
 1272 0312 0344     		add	r3, r3, r0
 1273 0314 9BB2     		uxth	r3, r3
 1274 0316 11FB03F3 		smulbb	r3, r1, r3
 1275 031a 9BB2     		uxth	r3, r3
 1276 031c 1344     		add	r3, r3, r2
 1277 031e 9BB2     		uxth	r3, r3
 1278 0320 BB81     		strh	r3, [r7, #12]	@ movhi
 318:..\..\..\lvgl\version_6.1.2\lvgl\src\lv_objx/lv_tabview.c **** 
 319:..\..\..\lvgl\version_6.1.2\lvgl\src\lv_objx/lv_tabview.c ****             lv_obj_set_height(ext->indic, btn_h);
 1279              		.loc 4 319 0
 1280 0322 7B6A     		ldr	r3, [r7, #36]
 1281 0324 5B68     		ldr	r3, [r3, #4]
 1282 0326 B7F90E20 		ldrsh	r2, [r7, #14]
 1283 032a 1146     		mov	r1, r2
 1284 032c 1846     		mov	r0, r3
 1285 032e FFF7FEFF 		bl	lv_obj_set_height
 320:..\..\..\lvgl\version_6.1.2\lvgl\src\lv_objx/lv_tabview.c ****             lv_obj_set_y(ext->indic, act_y);
 1286              		.loc 4 320 0
 1287 0332 7B6A     		ldr	r3, [r7, #36]
 1288 0334 5B68     		ldr	r3, [r3, #4]
 1289 0336 B7F90C20 		ldrsh	r2, [r7, #12]
 1290 033a 1146     		mov	r1, r2
 1291 033c 1846     		mov	r0, r3
 1292 033e FFF7FEFF 		bl	lv_obj_set_y
 321:..\..\..\lvgl\version_6.1.2\lvgl\src\lv_objx/lv_tabview.c ****             break;
ARM GAS  C:\Users\tmj32\AppData\Local\Temp\cc94ZBZn.s 			page 36


 1293              		.loc 4 321 0
 1294 0342 00BF     		nop
 1295              	.L45:
 322:..\..\..\lvgl\version_6.1.2\lvgl\src\lv_objx/lv_tabview.c ****     }
 323:..\..\..\lvgl\version_6.1.2\lvgl\src\lv_objx/lv_tabview.c **** 
 324:..\..\..\lvgl\version_6.1.2\lvgl\src\lv_objx/lv_tabview.c ****     /*Set the first btn as active*/
 325:..\..\..\lvgl\version_6.1.2\lvgl\src\lv_objx/lv_tabview.c ****     if(ext->tab_cnt == 1) {
 1296              		.loc 4 325 0
 1297 0344 7B6A     		ldr	r3, [r7, #36]
 1298 0346 DB8A     		ldrh	r3, [r3, #22]
 1299 0348 012B     		cmp	r3, #1
 1300 034a 02D1     		bne	.L46
 326:..\..\..\lvgl\version_6.1.2\lvgl\src\lv_objx/lv_tabview.c ****         ext->tab_cur = 0;
 1301              		.loc 4 326 0
 1302 034c 7B6A     		ldr	r3, [r7, #36]
 1303 034e 0022     		movs	r2, #0
 1304 0350 9A82     		strh	r2, [r3, #20]	@ movhi
 1305              	.L46:
 327:..\..\..\lvgl\version_6.1.2\lvgl\src\lv_objx/lv_tabview.c ****     }
 328:..\..\..\lvgl\version_6.1.2\lvgl\src\lv_objx/lv_tabview.c **** 
 329:..\..\..\lvgl\version_6.1.2\lvgl\src\lv_objx/lv_tabview.c ****     tabview_realign(tabview); /*Set the size of the pages, tab buttons and indicator*/
 1306              		.loc 4 329 0
 1307 0352 7868     		ldr	r0, [r7, #4]
 1308 0354 FFF7FEFF 		bl	tabview_realign
 330:..\..\..\lvgl\version_6.1.2\lvgl\src\lv_objx/lv_tabview.c **** 
 331:..\..\..\lvgl\version_6.1.2\lvgl\src\lv_objx/lv_tabview.c ****     lv_tabview_set_tab_act(tabview, ext->tab_cur, false);
 1309              		.loc 4 331 0
 1310 0358 7B6A     		ldr	r3, [r7, #36]
 1311 035a 9B8A     		ldrh	r3, [r3, #20]
 1312 035c 0022     		movs	r2, #0
 1313 035e 1946     		mov	r1, r3
 1314 0360 7868     		ldr	r0, [r7, #4]
 1315 0362 FFF7FEFF 		bl	lv_tabview_set_tab_act
 332:..\..\..\lvgl\version_6.1.2\lvgl\src\lv_objx/lv_tabview.c **** 
 333:..\..\..\lvgl\version_6.1.2\lvgl\src\lv_objx/lv_tabview.c ****     return h;
 1316              		.loc 4 333 0
 1317 0366 3B6A     		ldr	r3, [r7, #32]
 1318              	.L33:
 334:..\..\..\lvgl\version_6.1.2\lvgl\src\lv_objx/lv_tabview.c **** }
 1319              		.loc 4 334 0
 1320 0368 1846     		mov	r0, r3
 1321 036a 2C37     		adds	r7, r7, #44
 1322              		.cfi_def_cfa_offset 12
 1323 036c BD46     		mov	sp, r7
 1324              		.cfi_def_cfa_register 13
 1325              		@ sp needed
 1326 036e 90BD     		pop	{r4, r7, pc}
 1327              		.cfi_endproc
 1328              	.LFE70:
 1329              		.size	lv_tabview_add_tab, .-lv_tabview_add_tab
 1330              		.section	.text.lv_tabview_set_tab_act,"ax",%progbits
 1331              		.align	2
 1332              		.global	lv_tabview_set_tab_act
 1333              		.thumb
 1334              		.thumb_func
 1335              		.type	lv_tabview_set_tab_act, %function
 1336              	lv_tabview_set_tab_act:
ARM GAS  C:\Users\tmj32\AppData\Local\Temp\cc94ZBZn.s 			page 37


 1337              	.LFB71:
 335:..\..\..\lvgl\version_6.1.2\lvgl\src\lv_objx/lv_tabview.c **** 
 336:..\..\..\lvgl\version_6.1.2\lvgl\src\lv_objx/lv_tabview.c **** /*=====================
 337:..\..\..\lvgl\version_6.1.2\lvgl\src\lv_objx/lv_tabview.c ****  * Setter functions
 338:..\..\..\lvgl\version_6.1.2\lvgl\src\lv_objx/lv_tabview.c ****  *====================*/
 339:..\..\..\lvgl\version_6.1.2\lvgl\src\lv_objx/lv_tabview.c **** 
 340:..\..\..\lvgl\version_6.1.2\lvgl\src\lv_objx/lv_tabview.c **** /**
 341:..\..\..\lvgl\version_6.1.2\lvgl\src\lv_objx/lv_tabview.c ****  * Set a new tab
 342:..\..\..\lvgl\version_6.1.2\lvgl\src\lv_objx/lv_tabview.c ****  * @param tabview pointer to Tab view object
 343:..\..\..\lvgl\version_6.1.2\lvgl\src\lv_objx/lv_tabview.c ****  * @param id index of a tab to load
 344:..\..\..\lvgl\version_6.1.2\lvgl\src\lv_objx/lv_tabview.c ****  * @param anim LV_ANIM_ON: set the value with an animation; LV_ANIM_OFF: change the value immediate
 345:..\..\..\lvgl\version_6.1.2\lvgl\src\lv_objx/lv_tabview.c ****  */
 346:..\..\..\lvgl\version_6.1.2\lvgl\src\lv_objx/lv_tabview.c **** void lv_tabview_set_tab_act(lv_obj_t * tabview, uint16_t id, lv_anim_enable_t anim)
 347:..\..\..\lvgl\version_6.1.2\lvgl\src\lv_objx/lv_tabview.c **** {
 1338              		.loc 4 347 0
 1339              		.cfi_startproc
 1340              		@ args = 0, pretend = 0, frame = 72
 1341              		@ frame_needed = 1, uses_anonymous_args = 0
 1342 0000 B0B5     		push	{r4, r5, r7, lr}
 1343              		.cfi_def_cfa_offset 16
 1344              		.cfi_offset 4, -16
 1345              		.cfi_offset 5, -12
 1346              		.cfi_offset 7, -8
 1347              		.cfi_offset 14, -4
 1348 0002 92B0     		sub	sp, sp, #72
 1349              		.cfi_def_cfa_offset 88
 1350 0004 00AF     		add	r7, sp, #0
 1351              		.cfi_def_cfa_register 7
 1352 0006 7860     		str	r0, [r7, #4]
 1353 0008 0B46     		mov	r3, r1
 1354 000a 7B80     		strh	r3, [r7, #2]	@ movhi
 1355 000c 1346     		mov	r3, r2
 1356 000e 7B70     		strb	r3, [r7, #1]
 348:..\..\..\lvgl\version_6.1.2\lvgl\src\lv_objx/lv_tabview.c ****     LV_ASSERT_OBJ(tabview, LV_OBJX_NAME);
 349:..\..\..\lvgl\version_6.1.2\lvgl\src\lv_objx/lv_tabview.c **** 
 350:..\..\..\lvgl\version_6.1.2\lvgl\src\lv_objx/lv_tabview.c **** #if LV_USE_ANIMATION == 0
 351:..\..\..\lvgl\version_6.1.2\lvgl\src\lv_objx/lv_tabview.c ****     anim = LV_ANIM_OFF;
 352:..\..\..\lvgl\version_6.1.2\lvgl\src\lv_objx/lv_tabview.c **** #endif
 353:..\..\..\lvgl\version_6.1.2\lvgl\src\lv_objx/lv_tabview.c ****     lv_tabview_ext_t * ext = lv_obj_get_ext_attr(tabview);
 1357              		.loc 4 353 0
 1358 0010 7868     		ldr	r0, [r7, #4]
 1359 0012 FFF7FEFF 		bl	lv_obj_get_ext_attr
 1360 0016 3864     		str	r0, [r7, #64]
 354:..\..\..\lvgl\version_6.1.2\lvgl\src\lv_objx/lv_tabview.c **** 
 355:..\..\..\lvgl\version_6.1.2\lvgl\src\lv_objx/lv_tabview.c ****     const lv_style_t * style = lv_obj_get_style(ext->content);
 1361              		.loc 4 355 0
 1362 0018 3B6C     		ldr	r3, [r7, #64]
 1363 001a 9B68     		ldr	r3, [r3, #8]
 1364 001c 1846     		mov	r0, r3
 1365 001e FFF7FEFF 		bl	lv_obj_get_style
 1366 0022 F863     		str	r0, [r7, #60]
 356:..\..\..\lvgl\version_6.1.2\lvgl\src\lv_objx/lv_tabview.c **** 
 357:..\..\..\lvgl\version_6.1.2\lvgl\src\lv_objx/lv_tabview.c ****     if(id >= ext->tab_cnt) id = ext->tab_cnt - 1;
 1367              		.loc 4 357 0
 1368 0024 3B6C     		ldr	r3, [r7, #64]
 1369 0026 DB8A     		ldrh	r3, [r3, #22]
 1370 0028 7A88     		ldrh	r2, [r7, #2]
ARM GAS  C:\Users\tmj32\AppData\Local\Temp\cc94ZBZn.s 			page 38


 1371 002a 9A42     		cmp	r2, r3
 1372 002c 03D3     		bcc	.L54
 1373              		.loc 4 357 0 is_stmt 0 discriminator 1
 1374 002e 3B6C     		ldr	r3, [r7, #64]
 1375 0030 DB8A     		ldrh	r3, [r3, #22]
 1376 0032 013B     		subs	r3, r3, #1
 1377 0034 7B80     		strh	r3, [r7, #2]	@ movhi
 1378              	.L54:
 358:..\..\..\lvgl\version_6.1.2\lvgl\src\lv_objx/lv_tabview.c **** 
 359:..\..\..\lvgl\version_6.1.2\lvgl\src\lv_objx/lv_tabview.c ****     lv_btnm_clear_btn_ctrl(ext->btns, ext->tab_cur, LV_BTNM_CTRL_TGL_STATE);
 1379              		.loc 4 359 0 is_stmt 1
 1380 0036 3B6C     		ldr	r3, [r7, #64]
 1381 0038 1868     		ldr	r0, [r3]
 1382 003a 3B6C     		ldr	r3, [r7, #64]
 1383 003c 9B8A     		ldrh	r3, [r3, #20]
 1384 003e 8022     		movs	r2, #128
 1385 0040 1946     		mov	r1, r3
 1386 0042 FFF7FEFF 		bl	lv_btnm_clear_btn_ctrl
 360:..\..\..\lvgl\version_6.1.2\lvgl\src\lv_objx/lv_tabview.c **** 
 361:..\..\..\lvgl\version_6.1.2\lvgl\src\lv_objx/lv_tabview.c ****     ext->tab_cur = id;
 1387              		.loc 4 361 0
 1388 0046 3B6C     		ldr	r3, [r7, #64]
 1389 0048 7A88     		ldrh	r2, [r7, #2]	@ movhi
 1390 004a 9A82     		strh	r2, [r3, #20]	@ movhi
 362:..\..\..\lvgl\version_6.1.2\lvgl\src\lv_objx/lv_tabview.c **** 
 363:..\..\..\lvgl\version_6.1.2\lvgl\src\lv_objx/lv_tabview.c ****     if(lv_obj_get_base_dir(tabview) == LV_BIDI_DIR_RTL) {
 1391              		.loc 4 363 0
 1392 004c 7868     		ldr	r0, [r7, #4]
 1393 004e FFF7FEFF 		bl	lv_obj_get_base_dir
 1394 0052 0346     		mov	r3, r0
 1395 0054 012B     		cmp	r3, #1
 1396 0056 06D1     		bne	.L55
 364:..\..\..\lvgl\version_6.1.2\lvgl\src\lv_objx/lv_tabview.c ****         id = (ext->tab_cnt - (id + 1));
 1397              		.loc 4 364 0
 1398 0058 3B6C     		ldr	r3, [r7, #64]
 1399 005a DA8A     		ldrh	r2, [r3, #22]
 1400 005c 7B88     		ldrh	r3, [r7, #2]	@ movhi
 1401 005e D31A     		subs	r3, r2, r3
 1402 0060 9BB2     		uxth	r3, r3
 1403 0062 013B     		subs	r3, r3, #1
 1404 0064 7B80     		strh	r3, [r7, #2]	@ movhi
 1405              	.L55:
 365:..\..\..\lvgl\version_6.1.2\lvgl\src\lv_objx/lv_tabview.c ****     }
 366:..\..\..\lvgl\version_6.1.2\lvgl\src\lv_objx/lv_tabview.c **** 
 367:..\..\..\lvgl\version_6.1.2\lvgl\src\lv_objx/lv_tabview.c ****     lv_coord_t cont_x;
 368:..\..\..\lvgl\version_6.1.2\lvgl\src\lv_objx/lv_tabview.c **** 
 369:..\..\..\lvgl\version_6.1.2\lvgl\src\lv_objx/lv_tabview.c ****     switch(ext->btns_pos) {
 1406              		.loc 4 369 0
 1407 0066 3B6C     		ldr	r3, [r7, #64]
 1408 0068 9B7E     		ldrb	r3, [r3, #26]
 1409 006a C3F34113 		ubfx	r3, r3, #5, #2
 1410 006e DBB2     		uxtb	r3, r3
 1411 0070 022B     		cmp	r3, #2
 1412 0072 1AD0     		beq	.L57
 1413 0074 032B     		cmp	r3, #3
 1414 0076 3FD0     		beq	.L58
 370:..\..\..\lvgl\version_6.1.2\lvgl\src\lv_objx/lv_tabview.c ****         case LV_TABVIEW_BTNS_POS_TOP:
ARM GAS  C:\Users\tmj32\AppData\Local\Temp\cc94ZBZn.s 			page 39


 371:..\..\..\lvgl\version_6.1.2\lvgl\src\lv_objx/lv_tabview.c ****         case LV_TABVIEW_BTNS_POS_BOTTOM:
 372:..\..\..\lvgl\version_6.1.2\lvgl\src\lv_objx/lv_tabview.c ****             cont_x = -(lv_obj_get_width(tabview) * id + style->body.padding.inner * id + style->bod
 1415              		.loc 4 372 0
 1416 0078 7868     		ldr	r0, [r7, #4]
 1417 007a FFF7FEFF 		bl	lv_obj_get_width
 1418 007e 0346     		mov	r3, r0
 1419 0080 1A46     		mov	r2, r3
 1420 0082 FB6B     		ldr	r3, [r7, #60]
 1421 0084 B3F92830 		ldrsh	r3, [r3, #40]
 1422 0088 1344     		add	r3, r3, r2
 1423 008a 9BB2     		uxth	r3, r3
 1424 008c 7A88     		ldrh	r2, [r7, #2]	@ movhi
 1425 008e 12FB03F3 		smulbb	r3, r2, r3
 1426 0092 9AB2     		uxth	r2, r3
 1427 0094 FB6B     		ldr	r3, [r7, #60]
 1428 0096 B3F92430 		ldrsh	r3, [r3, #36]
 1429 009a 9BB2     		uxth	r3, r3
 1430 009c 1344     		add	r3, r3, r2
 1431 009e 9BB2     		uxth	r3, r3
 1432 00a0 5B42     		negs	r3, r3
 1433 00a2 9BB2     		uxth	r3, r3
 1434 00a4 A7F84630 		strh	r3, [r7, #70]	@ movhi
 373:..\..\..\lvgl\version_6.1.2\lvgl\src\lv_objx/lv_tabview.c ****             break;
 1435              		.loc 4 373 0
 1436 00a8 46E0     		b	.L59
 1437              	.L57:
 374:..\..\..\lvgl\version_6.1.2\lvgl\src\lv_objx/lv_tabview.c ****         case LV_TABVIEW_BTNS_POS_LEFT:
 375:..\..\..\lvgl\version_6.1.2\lvgl\src\lv_objx/lv_tabview.c ****             cont_x = -((lv_obj_get_width(tabview) - lv_obj_get_width(ext->btns)) * id + style->body
 376:..\..\..\lvgl\version_6.1.2\lvgl\src\lv_objx/lv_tabview.c ****                        style->body.padding.left) +
 377:..\..\..\lvgl\version_6.1.2\lvgl\src\lv_objx/lv_tabview.c ****                      lv_obj_get_width(ext->btns);
 1438              		.loc 4 377 0
 1439 00aa 3B6C     		ldr	r3, [r7, #64]
 1440 00ac 1B68     		ldr	r3, [r3]
 1441 00ae 1846     		mov	r0, r3
 1442 00b0 FFF7FEFF 		bl	lv_obj_get_width
 1443 00b4 0346     		mov	r3, r0
 375:..\..\..\lvgl\version_6.1.2\lvgl\src\lv_objx/lv_tabview.c ****                        style->body.padding.left) +
 1444              		.loc 4 375 0
 1445 00b6 9CB2     		uxth	r4, r3
 1446 00b8 7868     		ldr	r0, [r7, #4]
 1447 00ba FFF7FEFF 		bl	lv_obj_get_width
 1448 00be 0346     		mov	r3, r0
 1449 00c0 1D46     		mov	r5, r3
 1450 00c2 3B6C     		ldr	r3, [r7, #64]
 1451 00c4 1B68     		ldr	r3, [r3]
 1452 00c6 1846     		mov	r0, r3
 1453 00c8 FFF7FEFF 		bl	lv_obj_get_width
 1454 00cc 0346     		mov	r3, r0
 1455 00ce EB1A     		subs	r3, r5, r3
 1456 00d0 FA6B     		ldr	r2, [r7, #60]
 1457 00d2 B2F92820 		ldrsh	r2, [r2, #40]
 1458 00d6 1344     		add	r3, r3, r2
 1459 00d8 9BB2     		uxth	r3, r3
 1460 00da 7A88     		ldrh	r2, [r7, #2]	@ movhi
 1461 00dc 12FB03F3 		smulbb	r3, r2, r3
 1462 00e0 9AB2     		uxth	r2, r3
 376:..\..\..\lvgl\version_6.1.2\lvgl\src\lv_objx/lv_tabview.c ****                      lv_obj_get_width(ext->btns);
ARM GAS  C:\Users\tmj32\AppData\Local\Temp\cc94ZBZn.s 			page 40


 1463              		.loc 4 376 0
 1464 00e2 FB6B     		ldr	r3, [r7, #60]
 1465 00e4 B3F92430 		ldrsh	r3, [r3, #36]
 375:..\..\..\lvgl\version_6.1.2\lvgl\src\lv_objx/lv_tabview.c ****                        style->body.padding.left) +
 1466              		.loc 4 375 0
 1467 00e8 9BB2     		uxth	r3, r3
 1468 00ea 1344     		add	r3, r3, r2
 1469 00ec 9BB2     		uxth	r3, r3
 1470 00ee E31A     		subs	r3, r4, r3
 1471 00f0 9BB2     		uxth	r3, r3
 1472 00f2 A7F84630 		strh	r3, [r7, #70]	@ movhi
 378:..\..\..\lvgl\version_6.1.2\lvgl\src\lv_objx/lv_tabview.c ****             break;
 1473              		.loc 4 378 0
 1474 00f6 1FE0     		b	.L59
 1475              	.L58:
 379:..\..\..\lvgl\version_6.1.2\lvgl\src\lv_objx/lv_tabview.c ****         case LV_TABVIEW_BTNS_POS_RIGHT:
 380:..\..\..\lvgl\version_6.1.2\lvgl\src\lv_objx/lv_tabview.c ****             cont_x = -((lv_obj_get_width(tabview) - lv_obj_get_width(ext->btns)) * id + style->body
 1476              		.loc 4 380 0
 1477 00f8 7868     		ldr	r0, [r7, #4]
 1478 00fa FFF7FEFF 		bl	lv_obj_get_width
 1479 00fe 0346     		mov	r3, r0
 1480 0100 1C46     		mov	r4, r3
 1481 0102 3B6C     		ldr	r3, [r7, #64]
 1482 0104 1B68     		ldr	r3, [r3]
 1483 0106 1846     		mov	r0, r3
 1484 0108 FFF7FEFF 		bl	lv_obj_get_width
 1485 010c 0346     		mov	r3, r0
 1486 010e E31A     		subs	r3, r4, r3
 1487 0110 FA6B     		ldr	r2, [r7, #60]
 1488 0112 B2F92820 		ldrsh	r2, [r2, #40]
 1489 0116 1344     		add	r3, r3, r2
 1490 0118 9BB2     		uxth	r3, r3
 1491 011a 7A88     		ldrh	r2, [r7, #2]	@ movhi
 1492 011c 12FB03F3 		smulbb	r3, r2, r3
 1493 0120 9AB2     		uxth	r2, r3
 381:..\..\..\lvgl\version_6.1.2\lvgl\src\lv_objx/lv_tabview.c ****                        style->body.padding.left);
 1494              		.loc 4 381 0
 1495 0122 FB6B     		ldr	r3, [r7, #60]
 1496 0124 B3F92430 		ldrsh	r3, [r3, #36]
 380:..\..\..\lvgl\version_6.1.2\lvgl\src\lv_objx/lv_tabview.c ****                        style->body.padding.left);
 1497              		.loc 4 380 0
 1498 0128 9BB2     		uxth	r3, r3
 1499 012a 1344     		add	r3, r3, r2
 1500 012c 9BB2     		uxth	r3, r3
 1501 012e 5B42     		negs	r3, r3
 1502 0130 9BB2     		uxth	r3, r3
 1503 0132 A7F84630 		strh	r3, [r7, #70]	@ movhi
 382:..\..\..\lvgl\version_6.1.2\lvgl\src\lv_objx/lv_tabview.c ****             break;
 1504              		.loc 4 382 0
 1505 0136 00BF     		nop
 1506              	.L59:
 383:..\..\..\lvgl\version_6.1.2\lvgl\src\lv_objx/lv_tabview.c ****     }
 384:..\..\..\lvgl\version_6.1.2\lvgl\src\lv_objx/lv_tabview.c **** 
 385:..\..\..\lvgl\version_6.1.2\lvgl\src\lv_objx/lv_tabview.c ****     if(anim == LV_ANIM_OFF || lv_tabview_get_anim_time(tabview) == 0) {
 1507              		.loc 4 385 0
 1508 0138 7B78     		ldrb	r3, [r7, #1]	@ zero_extendqisi2
 1509 013a 002B     		cmp	r3, #0
ARM GAS  C:\Users\tmj32\AppData\Local\Temp\cc94ZBZn.s 			page 41


 1510 013c 05D0     		beq	.L60
 1511              		.loc 4 385 0 is_stmt 0 discriminator 1
 1512 013e 7868     		ldr	r0, [r7, #4]
 1513 0140 FFF7FEFF 		bl	lv_tabview_get_anim_time
 1514 0144 0346     		mov	r3, r0
 1515 0146 002B     		cmp	r3, #0
 1516 0148 08D1     		bne	.L61
 1517              	.L60:
 386:..\..\..\lvgl\version_6.1.2\lvgl\src\lv_objx/lv_tabview.c ****         lv_obj_set_x(ext->content, cont_x);
 1518              		.loc 4 386 0 is_stmt 1
 1519 014a 3B6C     		ldr	r3, [r7, #64]
 1520 014c 9B68     		ldr	r3, [r3, #8]
 1521 014e B7F94620 		ldrsh	r2, [r7, #70]
 1522 0152 1146     		mov	r1, r2
 1523 0154 1846     		mov	r0, r3
 1524 0156 FFF7FEFF 		bl	lv_obj_set_x
 1525 015a 2CE0     		b	.L62
 1526              	.L61:
 1527              	.LBB4:
 387:..\..\..\lvgl\version_6.1.2\lvgl\src\lv_objx/lv_tabview.c ****     }
 388:..\..\..\lvgl\version_6.1.2\lvgl\src\lv_objx/lv_tabview.c **** #if LV_USE_ANIMATION
 389:..\..\..\lvgl\version_6.1.2\lvgl\src\lv_objx/lv_tabview.c ****     else {
 390:..\..\..\lvgl\version_6.1.2\lvgl\src\lv_objx/lv_tabview.c ****         lv_anim_t a;
 391:..\..\..\lvgl\version_6.1.2\lvgl\src\lv_objx/lv_tabview.c ****         a.var            = ext->content;
 1528              		.loc 4 391 0
 1529 015c 3B6C     		ldr	r3, [r7, #64]
 1530 015e 9B68     		ldr	r3, [r3, #8]
 1531 0160 BB60     		str	r3, [r7, #8]
 392:..\..\..\lvgl\version_6.1.2\lvgl\src\lv_objx/lv_tabview.c ****         a.start          = lv_obj_get_x(ext->content);
 1532              		.loc 4 392 0
 1533 0162 3B6C     		ldr	r3, [r7, #64]
 1534 0164 9B68     		ldr	r3, [r3, #8]
 1535 0166 1846     		mov	r0, r3
 1536 0168 FFF7FEFF 		bl	lv_obj_get_x
 1537 016c 0346     		mov	r3, r0
 1538 016e BB61     		str	r3, [r7, #24]
 393:..\..\..\lvgl\version_6.1.2\lvgl\src\lv_objx/lv_tabview.c ****         a.end            = cont_x;
 1539              		.loc 4 393 0
 1540 0170 B7F94630 		ldrsh	r3, [r7, #70]
 1541 0174 FB61     		str	r3, [r7, #28]
 394:..\..\..\lvgl\version_6.1.2\lvgl\src\lv_objx/lv_tabview.c ****         a.exec_cb        = (lv_anim_exec_xcb_t)lv_obj_set_x;
 1542              		.loc 4 394 0
 1543 0176 774B     		ldr	r3, .L81
 1544 0178 FB60     		str	r3, [r7, #12]
 395:..\..\..\lvgl\version_6.1.2\lvgl\src\lv_objx/lv_tabview.c ****         a.path_cb        = lv_anim_path_linear;
 1545              		.loc 4 395 0
 1546 017a 774B     		ldr	r3, .L81+4
 1547 017c 3B61     		str	r3, [r7, #16]
 396:..\..\..\lvgl\version_6.1.2\lvgl\src\lv_objx/lv_tabview.c ****         a.ready_cb       = NULL;
 1548              		.loc 4 396 0
 1549 017e 0023     		movs	r3, #0
 1550 0180 7B61     		str	r3, [r7, #20]
 397:..\..\..\lvgl\version_6.1.2\lvgl\src\lv_objx/lv_tabview.c ****         a.act_time       = 0;
 1551              		.loc 4 397 0
 1552 0182 0023     		movs	r3, #0
 1553 0184 7B84     		strh	r3, [r7, #34]	@ movhi
 398:..\..\..\lvgl\version_6.1.2\lvgl\src\lv_objx/lv_tabview.c ****         a.time           = ext->anim_time;
ARM GAS  C:\Users\tmj32\AppData\Local\Temp\cc94ZBZn.s 			page 42


 1554              		.loc 4 398 0
 1555 0186 3B6C     		ldr	r3, [r7, #64]
 1556 0188 1B8B     		ldrh	r3, [r3, #24]
 1557 018a 3B84     		strh	r3, [r7, #32]	@ movhi
 399:..\..\..\lvgl\version_6.1.2\lvgl\src\lv_objx/lv_tabview.c ****         a.playback       = 0;
 1558              		.loc 4 399 0
 1559 018c 97F82830 		ldrb	r3, [r7, #40]
 1560 0190 6FF30003 		bfc	r3, #0, #1
 1561 0194 87F82830 		strb	r3, [r7, #40]
 400:..\..\..\lvgl\version_6.1.2\lvgl\src\lv_objx/lv_tabview.c ****         a.playback_pause = 0;
 1562              		.loc 4 400 0
 1563 0198 0023     		movs	r3, #0
 1564 019a BB84     		strh	r3, [r7, #36]	@ movhi
 401:..\..\..\lvgl\version_6.1.2\lvgl\src\lv_objx/lv_tabview.c ****         a.repeat         = 0;
 1565              		.loc 4 401 0
 1566 019c 97F82830 		ldrb	r3, [r7, #40]
 1567 01a0 6FF34103 		bfc	r3, #1, #1
 1568 01a4 87F82830 		strb	r3, [r7, #40]
 402:..\..\..\lvgl\version_6.1.2\lvgl\src\lv_objx/lv_tabview.c ****         a.repeat_pause   = 0;
 1569              		.loc 4 402 0
 1570 01a8 0023     		movs	r3, #0
 1571 01aa FB84     		strh	r3, [r7, #38]	@ movhi
 403:..\..\..\lvgl\version_6.1.2\lvgl\src\lv_objx/lv_tabview.c ****         lv_anim_create(&a);
 1572              		.loc 4 403 0
 1573 01ac 07F10803 		add	r3, r7, #8
 1574 01b0 1846     		mov	r0, r3
 1575 01b2 FFF7FEFF 		bl	lv_anim_create
 1576              	.L62:
 1577              	.LBE4:
 404:..\..\..\lvgl\version_6.1.2\lvgl\src\lv_objx/lv_tabview.c ****     }
 405:..\..\..\lvgl\version_6.1.2\lvgl\src\lv_objx/lv_tabview.c **** #endif
 406:..\..\..\lvgl\version_6.1.2\lvgl\src\lv_objx/lv_tabview.c **** 
 407:..\..\..\lvgl\version_6.1.2\lvgl\src\lv_objx/lv_tabview.c ****     /*Move the indicator*/
 408:..\..\..\lvgl\version_6.1.2\lvgl\src\lv_objx/lv_tabview.c ****     const lv_style_t * tabs_style = lv_obj_get_style(ext->btns);
 1578              		.loc 4 408 0
 1579 01b6 3B6C     		ldr	r3, [r7, #64]
 1580 01b8 1B68     		ldr	r3, [r3]
 1581 01ba 1846     		mov	r0, r3
 1582 01bc FFF7FEFF 		bl	lv_obj_get_style
 1583 01c0 B863     		str	r0, [r7, #56]
 409:..\..\..\lvgl\version_6.1.2\lvgl\src\lv_objx/lv_tabview.c ****     lv_coord_t indic_size;
 410:..\..\..\lvgl\version_6.1.2\lvgl\src\lv_objx/lv_tabview.c ****     lv_coord_t indic_pos;
 411:..\..\..\lvgl\version_6.1.2\lvgl\src\lv_objx/lv_tabview.c **** 
 412:..\..\..\lvgl\version_6.1.2\lvgl\src\lv_objx/lv_tabview.c ****     switch(ext->btns_pos) {
 1584              		.loc 4 412 0
 1585 01c2 3B6C     		ldr	r3, [r7, #64]
 1586 01c4 9B7E     		ldrb	r3, [r3, #26]
 1587 01c6 C3F34113 		ubfx	r3, r3, #5, #2
 1588 01ca DBB2     		uxtb	r3, r3
 1589 01cc 023B     		subs	r3, r3, #2
 1590 01ce 012B     		cmp	r3, #1
 1591 01d0 1AD9     		bls	.L77
 1592              	.LBB5:
 413:..\..\..\lvgl\version_6.1.2\lvgl\src\lv_objx/lv_tabview.c ****         case LV_TABVIEW_BTNS_POS_TOP:
 414:..\..\..\lvgl\version_6.1.2\lvgl\src\lv_objx/lv_tabview.c ****         case LV_TABVIEW_BTNS_POS_BOTTOM:
 415:..\..\..\lvgl\version_6.1.2\lvgl\src\lv_objx/lv_tabview.c ****             indic_size = lv_obj_get_width(ext->indic);
 1593              		.loc 4 415 0
ARM GAS  C:\Users\tmj32\AppData\Local\Temp\cc94ZBZn.s 			page 43


 1594 01d2 3B6C     		ldr	r3, [r7, #64]
 1595 01d4 5B68     		ldr	r3, [r3, #4]
 1596 01d6 1846     		mov	r0, r3
 1597 01d8 FFF7FEFF 		bl	lv_obj_get_width
 1598 01dc 0346     		mov	r3, r0
 1599 01de FB86     		strh	r3, [r7, #54]	@ movhi
 416:..\..\..\lvgl\version_6.1.2\lvgl\src\lv_objx/lv_tabview.c ****             indic_pos  = indic_size * id + tabs_style->body.padding.inner * id + tabs_style->body.p
 1600              		.loc 4 416 0
 1601 01e0 B7F93630 		ldrsh	r3, [r7, #54]
 1602 01e4 BA6B     		ldr	r2, [r7, #56]
 1603 01e6 B2F92820 		ldrsh	r2, [r2, #40]
 1604 01ea 1344     		add	r3, r3, r2
 1605 01ec 9BB2     		uxth	r3, r3
 1606 01ee 7A88     		ldrh	r2, [r7, #2]	@ movhi
 1607 01f0 12FB03F3 		smulbb	r3, r2, r3
 1608 01f4 9AB2     		uxth	r2, r3
 1609 01f6 BB6B     		ldr	r3, [r7, #56]
 1610 01f8 B3F92430 		ldrsh	r3, [r3, #36]
 1611 01fc 9BB2     		uxth	r3, r3
 1612 01fe 1344     		add	r3, r3, r2
 1613 0200 9BB2     		uxth	r3, r3
 1614 0202 A7F84430 		strh	r3, [r7, #68]	@ movhi
 417:..\..\..\lvgl\version_6.1.2\lvgl\src\lv_objx/lv_tabview.c ****             break;
 1615              		.loc 4 417 0
 1616 0206 34E0     		b	.L65
 1617              	.L77:
 418:..\..\..\lvgl\version_6.1.2\lvgl\src\lv_objx/lv_tabview.c ****         case LV_TABVIEW_BTNS_POS_LEFT:
 419:..\..\..\lvgl\version_6.1.2\lvgl\src\lv_objx/lv_tabview.c ****         case LV_TABVIEW_BTNS_POS_RIGHT:
 420:..\..\..\lvgl\version_6.1.2\lvgl\src\lv_objx/lv_tabview.c ****             indic_size = lv_obj_get_height(ext->indic);
 1618              		.loc 4 420 0
 1619 0208 3B6C     		ldr	r3, [r7, #64]
 1620 020a 5B68     		ldr	r3, [r3, #4]
 1621 020c 1846     		mov	r0, r3
 1622 020e FFF7FEFF 		bl	lv_obj_get_height
 1623 0212 0346     		mov	r3, r0
 1624 0214 FB86     		strh	r3, [r7, #54]	@ movhi
 421:..\..\..\lvgl\version_6.1.2\lvgl\src\lv_objx/lv_tabview.c ****             const lv_style_t * style_tabs = lv_tabview_get_style(tabview, LV_TABVIEW_STYLE_BTN_BG);
 1625              		.loc 4 421 0
 1626 0216 0221     		movs	r1, #2
 1627 0218 7868     		ldr	r0, [r7, #4]
 1628 021a FFF7FEFF 		bl	lv_tabview_get_style
 1629 021e 3863     		str	r0, [r7, #48]
 422:..\..\..\lvgl\version_6.1.2\lvgl\src\lv_objx/lv_tabview.c ****             lv_coord_t max_h = lv_obj_get_height(ext->btns) - style_tabs->body.padding.top - style_
 1630              		.loc 4 422 0
 1631 0220 3B6C     		ldr	r3, [r7, #64]
 1632 0222 1B68     		ldr	r3, [r3]
 1633 0224 1846     		mov	r0, r3
 1634 0226 FFF7FEFF 		bl	lv_obj_get_height
 1635 022a 0346     		mov	r3, r0
 1636 022c 9AB2     		uxth	r2, r3
 1637 022e 3B6B     		ldr	r3, [r7, #48]
 1638 0230 B3F92030 		ldrsh	r3, [r3, #32]
 1639 0234 9BB2     		uxth	r3, r3
 1640 0236 D31A     		subs	r3, r2, r3
 1641 0238 9AB2     		uxth	r2, r3
 1642 023a 3B6B     		ldr	r3, [r7, #48]
 1643 023c B3F92230 		ldrsh	r3, [r3, #34]
ARM GAS  C:\Users\tmj32\AppData\Local\Temp\cc94ZBZn.s 			page 44


 1644 0240 9BB2     		uxth	r3, r3
 1645 0242 D31A     		subs	r3, r2, r3
 1646 0244 9BB2     		uxth	r3, r3
 1647 0246 FB85     		strh	r3, [r7, #46]	@ movhi
 423:..\..\..\lvgl\version_6.1.2\lvgl\src\lv_objx/lv_tabview.c **** 
 424:..\..\..\lvgl\version_6.1.2\lvgl\src\lv_objx/lv_tabview.c ****             if(ext->tab_cnt) indic_pos = (max_h * ext->tab_cur) / ext->tab_cnt;
 1648              		.loc 4 424 0
 1649 0248 3B6C     		ldr	r3, [r7, #64]
 1650 024a DB8A     		ldrh	r3, [r3, #22]
 1651 024c 002B     		cmp	r3, #0
 1652 024e 0CD0     		beq	.L66
 1653              		.loc 4 424 0 is_stmt 0 discriminator 1
 1654 0250 B7F92E30 		ldrsh	r3, [r7, #46]
 1655 0254 3A6C     		ldr	r2, [r7, #64]
 1656 0256 928A     		ldrh	r2, [r2, #20]
 1657 0258 02FB03F3 		mul	r3, r2, r3
 1658 025c 3A6C     		ldr	r2, [r7, #64]
 1659 025e D28A     		ldrh	r2, [r2, #22]
 1660 0260 93FBF2F3 		sdiv	r3, r3, r2
 1661 0264 A7F84430 		strh	r3, [r7, #68]	@ movhi
 425:..\..\..\lvgl\version_6.1.2\lvgl\src\lv_objx/lv_tabview.c ****             else  indic_pos = 0;
 426:..\..\..\lvgl\version_6.1.2\lvgl\src\lv_objx/lv_tabview.c ****             break;
 1662              		.loc 4 426 0 is_stmt 1 discriminator 1
 1663 0268 02E0     		b	.L80
 1664              	.L66:
 425:..\..\..\lvgl\version_6.1.2\lvgl\src\lv_objx/lv_tabview.c ****             else  indic_pos = 0;
 1665              		.loc 4 425 0
 1666 026a 0023     		movs	r3, #0
 1667 026c A7F84430 		strh	r3, [r7, #68]	@ movhi
 1668              	.L80:
 1669              		.loc 4 426 0
 1670 0270 00BF     		nop
 1671              	.L65:
 1672              	.LBE5:
 427:..\..\..\lvgl\version_6.1.2\lvgl\src\lv_objx/lv_tabview.c ****     }
 428:..\..\..\lvgl\version_6.1.2\lvgl\src\lv_objx/lv_tabview.c **** 
 429:..\..\..\lvgl\version_6.1.2\lvgl\src\lv_objx/lv_tabview.c **** #if LV_USE_ANIMATION
 430:..\..\..\lvgl\version_6.1.2\lvgl\src\lv_objx/lv_tabview.c ****     if(anim == LV_ANIM_OFF || ext->anim_time == 0)
 1673              		.loc 4 430 0
 1674 0272 7B78     		ldrb	r3, [r7, #1]	@ zero_extendqisi2
 1675 0274 002B     		cmp	r3, #0
 1676 0276 03D0     		beq	.L68
 1677              		.loc 4 430 0 is_stmt 0 discriminator 1
 1678 0278 3B6C     		ldr	r3, [r7, #64]
 1679 027a 1B8B     		ldrh	r3, [r3, #24]
 1680 027c 002B     		cmp	r3, #0
 1681 027e 1AD1     		bne	.L69
 1682              	.L68:
 431:..\..\..\lvgl\version_6.1.2\lvgl\src\lv_objx/lv_tabview.c **** #endif
 432:..\..\..\lvgl\version_6.1.2\lvgl\src\lv_objx/lv_tabview.c ****     {
 433:..\..\..\lvgl\version_6.1.2\lvgl\src\lv_objx/lv_tabview.c ****         switch(ext->btns_pos) {
 1683              		.loc 4 433 0 is_stmt 1
 1684 0280 3B6C     		ldr	r3, [r7, #64]
 1685 0282 9B7E     		ldrb	r3, [r3, #26]
 1686 0284 C3F34113 		ubfx	r3, r3, #5, #2
 1687 0288 DBB2     		uxtb	r3, r3
 1688 028a 023B     		subs	r3, r3, #2
ARM GAS  C:\Users\tmj32\AppData\Local\Temp\cc94ZBZn.s 			page 45


 1689 028c 012B     		cmp	r3, #1
 1690 028e 08D9     		bls	.L78
 434:..\..\..\lvgl\version_6.1.2\lvgl\src\lv_objx/lv_tabview.c ****             case LV_TABVIEW_BTNS_POS_TOP:
 435:..\..\..\lvgl\version_6.1.2\lvgl\src\lv_objx/lv_tabview.c ****             case LV_TABVIEW_BTNS_POS_BOTTOM: lv_obj_set_x(ext->indic, indic_pos); break;
 1691              		.loc 4 435 0
 1692 0290 3B6C     		ldr	r3, [r7, #64]
 1693 0292 5B68     		ldr	r3, [r3, #4]
 1694 0294 B7F94420 		ldrsh	r2, [r7, #68]
 1695 0298 1146     		mov	r1, r2
 1696 029a 1846     		mov	r0, r3
 1697 029c FFF7FEFF 		bl	lv_obj_set_x
 1698 02a0 08E0     		b	.L72
 1699              	.L78:
 436:..\..\..\lvgl\version_6.1.2\lvgl\src\lv_objx/lv_tabview.c ****             case LV_TABVIEW_BTNS_POS_LEFT:
 437:..\..\..\lvgl\version_6.1.2\lvgl\src\lv_objx/lv_tabview.c ****             case LV_TABVIEW_BTNS_POS_RIGHT: lv_obj_set_y(ext->indic, indic_pos); break;
 1700              		.loc 4 437 0
 1701 02a2 3B6C     		ldr	r3, [r7, #64]
 1702 02a4 5B68     		ldr	r3, [r3, #4]
 1703 02a6 B7F94420 		ldrsh	r2, [r7, #68]
 1704 02aa 1146     		mov	r1, r2
 1705 02ac 1846     		mov	r0, r3
 1706 02ae FFF7FEFF 		bl	lv_obj_set_y
 1707 02b2 00BF     		nop
 1708              	.L72:
 438:..\..\..\lvgl\version_6.1.2\lvgl\src\lv_objx/lv_tabview.c ****         }
 439:..\..\..\lvgl\version_6.1.2\lvgl\src\lv_objx/lv_tabview.c ****     }
 1709              		.loc 4 439 0
 1710 02b4 42E0     		b	.L73
 1711              	.L69:
 1712              	.LBB6:
 440:..\..\..\lvgl\version_6.1.2\lvgl\src\lv_objx/lv_tabview.c **** #if LV_USE_ANIMATION
 441:..\..\..\lvgl\version_6.1.2\lvgl\src\lv_objx/lv_tabview.c ****     else {
 442:..\..\..\lvgl\version_6.1.2\lvgl\src\lv_objx/lv_tabview.c ****         lv_anim_t a;
 443:..\..\..\lvgl\version_6.1.2\lvgl\src\lv_objx/lv_tabview.c ****         a.var = ext->indic;
 1713              		.loc 4 443 0
 1714 02b6 3B6C     		ldr	r3, [r7, #64]
 1715 02b8 5B68     		ldr	r3, [r3, #4]
 1716 02ba BB60     		str	r3, [r7, #8]
 444:..\..\..\lvgl\version_6.1.2\lvgl\src\lv_objx/lv_tabview.c **** 
 445:..\..\..\lvgl\version_6.1.2\lvgl\src\lv_objx/lv_tabview.c ****         switch(ext->btns_pos) {
 1717              		.loc 4 445 0
 1718 02bc 3B6C     		ldr	r3, [r7, #64]
 1719 02be 9B7E     		ldrb	r3, [r3, #26]
 1720 02c0 C3F34113 		ubfx	r3, r3, #5, #2
 1721 02c4 DBB2     		uxtb	r3, r3
 1722 02c6 023B     		subs	r3, r3, #2
 1723 02c8 012B     		cmp	r3, #1
 1724 02ca 0CD9     		bls	.L79
 446:..\..\..\lvgl\version_6.1.2\lvgl\src\lv_objx/lv_tabview.c ****             case LV_TABVIEW_BTNS_POS_TOP:
 447:..\..\..\lvgl\version_6.1.2\lvgl\src\lv_objx/lv_tabview.c ****             case LV_TABVIEW_BTNS_POS_BOTTOM:
 448:..\..\..\lvgl\version_6.1.2\lvgl\src\lv_objx/lv_tabview.c ****                 a.start   = lv_obj_get_x(ext->indic);
 1725              		.loc 4 448 0
 1726 02cc 3B6C     		ldr	r3, [r7, #64]
 1727 02ce 5B68     		ldr	r3, [r3, #4]
 1728 02d0 1846     		mov	r0, r3
 1729 02d2 FFF7FEFF 		bl	lv_obj_get_x
 1730 02d6 0346     		mov	r3, r0
ARM GAS  C:\Users\tmj32\AppData\Local\Temp\cc94ZBZn.s 			page 46


 1731 02d8 BB61     		str	r3, [r7, #24]
 449:..\..\..\lvgl\version_6.1.2\lvgl\src\lv_objx/lv_tabview.c ****                 a.end     = indic_pos;
 1732              		.loc 4 449 0
 1733 02da B7F94430 		ldrsh	r3, [r7, #68]
 1734 02de FB61     		str	r3, [r7, #28]
 450:..\..\..\lvgl\version_6.1.2\lvgl\src\lv_objx/lv_tabview.c ****                 a.exec_cb = (lv_anim_exec_xcb_t)lv_obj_set_x;
 1735              		.loc 4 450 0
 1736 02e0 1C4B     		ldr	r3, .L81
 1737 02e2 FB60     		str	r3, [r7, #12]
 451:..\..\..\lvgl\version_6.1.2\lvgl\src\lv_objx/lv_tabview.c ****                 break;
 1738              		.loc 4 451 0
 1739 02e4 0CE0     		b	.L76
 1740              	.L79:
 452:..\..\..\lvgl\version_6.1.2\lvgl\src\lv_objx/lv_tabview.c ****             case LV_TABVIEW_BTNS_POS_LEFT:
 453:..\..\..\lvgl\version_6.1.2\lvgl\src\lv_objx/lv_tabview.c ****             case LV_TABVIEW_BTNS_POS_RIGHT:
 454:..\..\..\lvgl\version_6.1.2\lvgl\src\lv_objx/lv_tabview.c ****                 a.start   = lv_obj_get_y(ext->indic);
 1741              		.loc 4 454 0
 1742 02e6 3B6C     		ldr	r3, [r7, #64]
 1743 02e8 5B68     		ldr	r3, [r3, #4]
 1744 02ea 1846     		mov	r0, r3
 1745 02ec FFF7FEFF 		bl	lv_obj_get_y
 1746 02f0 0346     		mov	r3, r0
 1747 02f2 BB61     		str	r3, [r7, #24]
 455:..\..\..\lvgl\version_6.1.2\lvgl\src\lv_objx/lv_tabview.c ****                 a.end     = indic_pos;
 1748              		.loc 4 455 0
 1749 02f4 B7F94430 		ldrsh	r3, [r7, #68]
 1750 02f8 FB61     		str	r3, [r7, #28]
 456:..\..\..\lvgl\version_6.1.2\lvgl\src\lv_objx/lv_tabview.c ****                 a.exec_cb = (lv_anim_exec_xcb_t)lv_obj_set_y;
 1751              		.loc 4 456 0
 1752 02fa 184B     		ldr	r3, .L81+8
 1753 02fc FB60     		str	r3, [r7, #12]
 457:..\..\..\lvgl\version_6.1.2\lvgl\src\lv_objx/lv_tabview.c ****                 break;
 1754              		.loc 4 457 0
 1755 02fe 00BF     		nop
 1756              	.L76:
 458:..\..\..\lvgl\version_6.1.2\lvgl\src\lv_objx/lv_tabview.c ****         }
 459:..\..\..\lvgl\version_6.1.2\lvgl\src\lv_objx/lv_tabview.c **** 
 460:..\..\..\lvgl\version_6.1.2\lvgl\src\lv_objx/lv_tabview.c ****         a.path_cb        = lv_anim_path_linear;
 1757              		.loc 4 460 0
 1758 0300 154B     		ldr	r3, .L81+4
 1759 0302 3B61     		str	r3, [r7, #16]
 461:..\..\..\lvgl\version_6.1.2\lvgl\src\lv_objx/lv_tabview.c ****         a.ready_cb       = NULL;
 1760              		.loc 4 461 0
 1761 0304 0023     		movs	r3, #0
 1762 0306 7B61     		str	r3, [r7, #20]
 462:..\..\..\lvgl\version_6.1.2\lvgl\src\lv_objx/lv_tabview.c ****         a.act_time       = 0;
 1763              		.loc 4 462 0
 1764 0308 0023     		movs	r3, #0
 1765 030a 7B84     		strh	r3, [r7, #34]	@ movhi
 463:..\..\..\lvgl\version_6.1.2\lvgl\src\lv_objx/lv_tabview.c ****         a.time           = ext->anim_time;
 1766              		.loc 4 463 0
 1767 030c 3B6C     		ldr	r3, [r7, #64]
 1768 030e 1B8B     		ldrh	r3, [r3, #24]
 1769 0310 3B84     		strh	r3, [r7, #32]	@ movhi
 464:..\..\..\lvgl\version_6.1.2\lvgl\src\lv_objx/lv_tabview.c ****         a.playback       = 0;
 1770              		.loc 4 464 0
 1771 0312 97F82830 		ldrb	r3, [r7, #40]
ARM GAS  C:\Users\tmj32\AppData\Local\Temp\cc94ZBZn.s 			page 47


 1772 0316 6FF30003 		bfc	r3, #0, #1
 1773 031a 87F82830 		strb	r3, [r7, #40]
 465:..\..\..\lvgl\version_6.1.2\lvgl\src\lv_objx/lv_tabview.c ****         a.playback_pause = 0;
 1774              		.loc 4 465 0
 1775 031e 0023     		movs	r3, #0
 1776 0320 BB84     		strh	r3, [r7, #36]	@ movhi
 466:..\..\..\lvgl\version_6.1.2\lvgl\src\lv_objx/lv_tabview.c ****         a.repeat         = 0;
 1777              		.loc 4 466 0
 1778 0322 97F82830 		ldrb	r3, [r7, #40]
 1779 0326 6FF34103 		bfc	r3, #1, #1
 1780 032a 87F82830 		strb	r3, [r7, #40]
 467:..\..\..\lvgl\version_6.1.2\lvgl\src\lv_objx/lv_tabview.c ****         a.repeat_pause   = 0;
 1781              		.loc 4 467 0
 1782 032e 0023     		movs	r3, #0
 1783 0330 FB84     		strh	r3, [r7, #38]	@ movhi
 468:..\..\..\lvgl\version_6.1.2\lvgl\src\lv_objx/lv_tabview.c ****         lv_anim_create(&a);
 1784              		.loc 4 468 0
 1785 0332 07F10803 		add	r3, r7, #8
 1786 0336 1846     		mov	r0, r3
 1787 0338 FFF7FEFF 		bl	lv_anim_create
 1788              	.L73:
 1789              	.LBE6:
 469:..\..\..\lvgl\version_6.1.2\lvgl\src\lv_objx/lv_tabview.c ****     }
 470:..\..\..\lvgl\version_6.1.2\lvgl\src\lv_objx/lv_tabview.c **** #endif
 471:..\..\..\lvgl\version_6.1.2\lvgl\src\lv_objx/lv_tabview.c **** 
 472:..\..\..\lvgl\version_6.1.2\lvgl\src\lv_objx/lv_tabview.c ****     lv_btnm_set_btn_ctrl(ext->btns, ext->tab_cur, LV_BTNM_CTRL_TGL_STATE);
 1790              		.loc 4 472 0
 1791 033c 3B6C     		ldr	r3, [r7, #64]
 1792 033e 1868     		ldr	r0, [r3]
 1793 0340 3B6C     		ldr	r3, [r7, #64]
 1794 0342 9B8A     		ldrh	r3, [r3, #20]
 1795 0344 8022     		movs	r2, #128
 1796 0346 1946     		mov	r1, r3
 1797 0348 FFF7FEFF 		bl	lv_btnm_set_btn_ctrl
 473:..\..\..\lvgl\version_6.1.2\lvgl\src\lv_objx/lv_tabview.c **** }
 1798              		.loc 4 473 0
 1799 034c 00BF     		nop
 1800 034e 4837     		adds	r7, r7, #72
 1801              		.cfi_def_cfa_offset 16
 1802 0350 BD46     		mov	sp, r7
 1803              		.cfi_def_cfa_register 13
 1804              		@ sp needed
 1805 0352 B0BD     		pop	{r4, r5, r7, pc}
 1806              	.L82:
 1807              		.align	2
 1808              	.L81:
 1809 0354 00000000 		.word	lv_obj_set_x
 1810 0358 00000000 		.word	lv_anim_path_linear
 1811 035c 00000000 		.word	lv_obj_set_y
 1812              		.cfi_endproc
 1813              	.LFE71:
 1814              		.size	lv_tabview_set_tab_act, .-lv_tabview_set_tab_act
 1815              		.section	.text.lv_tabview_set_sliding,"ax",%progbits
 1816              		.align	2
 1817              		.global	lv_tabview_set_sliding
 1818              		.thumb
 1819              		.thumb_func
ARM GAS  C:\Users\tmj32\AppData\Local\Temp\cc94ZBZn.s 			page 48


 1820              		.type	lv_tabview_set_sliding, %function
 1821              	lv_tabview_set_sliding:
 1822              	.LFB72:
 474:..\..\..\lvgl\version_6.1.2\lvgl\src\lv_objx/lv_tabview.c **** 
 475:..\..\..\lvgl\version_6.1.2\lvgl\src\lv_objx/lv_tabview.c **** /**
 476:..\..\..\lvgl\version_6.1.2\lvgl\src\lv_objx/lv_tabview.c ****  * Enable horizontal sliding with touch pad
 477:..\..\..\lvgl\version_6.1.2\lvgl\src\lv_objx/lv_tabview.c ****  * @param tabview pointer to Tab view object
 478:..\..\..\lvgl\version_6.1.2\lvgl\src\lv_objx/lv_tabview.c ****  * @param en true: enable sliding; false: disable sliding
 479:..\..\..\lvgl\version_6.1.2\lvgl\src\lv_objx/lv_tabview.c ****  */
 480:..\..\..\lvgl\version_6.1.2\lvgl\src\lv_objx/lv_tabview.c **** void lv_tabview_set_sliding(lv_obj_t * tabview, bool en)
 481:..\..\..\lvgl\version_6.1.2\lvgl\src\lv_objx/lv_tabview.c **** {
 1823              		.loc 4 481 0
 1824              		.cfi_startproc
 1825              		@ args = 0, pretend = 0, frame = 16
 1826              		@ frame_needed = 1, uses_anonymous_args = 0
 1827 0000 80B5     		push	{r7, lr}
 1828              		.cfi_def_cfa_offset 8
 1829              		.cfi_offset 7, -8
 1830              		.cfi_offset 14, -4
 1831 0002 84B0     		sub	sp, sp, #16
 1832              		.cfi_def_cfa_offset 24
 1833 0004 00AF     		add	r7, sp, #0
 1834              		.cfi_def_cfa_register 7
 1835 0006 7860     		str	r0, [r7, #4]
 1836 0008 0B46     		mov	r3, r1
 1837 000a FB70     		strb	r3, [r7, #3]
 482:..\..\..\lvgl\version_6.1.2\lvgl\src\lv_objx/lv_tabview.c ****     LV_ASSERT_OBJ(tabview, LV_OBJX_NAME);
 483:..\..\..\lvgl\version_6.1.2\lvgl\src\lv_objx/lv_tabview.c **** 
 484:..\..\..\lvgl\version_6.1.2\lvgl\src\lv_objx/lv_tabview.c ****     lv_tabview_ext_t * ext = lv_obj_get_ext_attr(tabview);
 1838              		.loc 4 484 0
 1839 000c 7868     		ldr	r0, [r7, #4]
 1840 000e FFF7FEFF 		bl	lv_obj_get_ext_attr
 1841 0012 F860     		str	r0, [r7, #12]
 485:..\..\..\lvgl\version_6.1.2\lvgl\src\lv_objx/lv_tabview.c ****     ext->slide_enable      = en == false ? 0 : 1;
 1842              		.loc 4 485 0
 1843 0014 FB78     		ldrb	r3, [r7, #3]
 1844 0016 83F00103 		eor	r3, r3, #1
 1845 001a DBB2     		uxtb	r3, r3
 1846 001c 002B     		cmp	r3, #0
 1847 001e 01D0     		beq	.L84
 1848              		.loc 4 485 0 is_stmt 0 discriminator 1
 1849 0020 0021     		movs	r1, #0
 1850 0022 00E0     		b	.L85
 1851              	.L84:
 1852              		.loc 4 485 0 discriminator 2
 1853 0024 0121     		movs	r1, #1
 1854              	.L85:
 1855              		.loc 4 485 0 discriminator 4
 1856 0026 FA68     		ldr	r2, [r7, #12]
 1857 0028 937E     		ldrb	r3, [r2, #26]
 1858 002a 61F30003 		bfi	r3, r1, #0, #1
 1859 002e 9376     		strb	r3, [r2, #26]
 486:..\..\..\lvgl\version_6.1.2\lvgl\src\lv_objx/lv_tabview.c **** }
 1860              		.loc 4 486 0 is_stmt 1 discriminator 4
 1861 0030 00BF     		nop
 1862 0032 1037     		adds	r7, r7, #16
 1863              		.cfi_def_cfa_offset 8
ARM GAS  C:\Users\tmj32\AppData\Local\Temp\cc94ZBZn.s 			page 49


 1864 0034 BD46     		mov	sp, r7
 1865              		.cfi_def_cfa_register 13
 1866              		@ sp needed
 1867 0036 80BD     		pop	{r7, pc}
 1868              		.cfi_endproc
 1869              	.LFE72:
 1870              		.size	lv_tabview_set_sliding, .-lv_tabview_set_sliding
 1871              		.section	.text.lv_tabview_set_anim_time,"ax",%progbits
 1872              		.align	2
 1873              		.global	lv_tabview_set_anim_time
 1874              		.thumb
 1875              		.thumb_func
 1876              		.type	lv_tabview_set_anim_time, %function
 1877              	lv_tabview_set_anim_time:
 1878              	.LFB73:
 487:..\..\..\lvgl\version_6.1.2\lvgl\src\lv_objx/lv_tabview.c **** 
 488:..\..\..\lvgl\version_6.1.2\lvgl\src\lv_objx/lv_tabview.c **** /**
 489:..\..\..\lvgl\version_6.1.2\lvgl\src\lv_objx/lv_tabview.c ****  * Set the animation time of tab view when a new tab is loaded
 490:..\..\..\lvgl\version_6.1.2\lvgl\src\lv_objx/lv_tabview.c ****  * @param tabview pointer to Tab view object
 491:..\..\..\lvgl\version_6.1.2\lvgl\src\lv_objx/lv_tabview.c ****  * @param anim_time_ms time of animation in milliseconds
 492:..\..\..\lvgl\version_6.1.2\lvgl\src\lv_objx/lv_tabview.c ****  */
 493:..\..\..\lvgl\version_6.1.2\lvgl\src\lv_objx/lv_tabview.c **** void lv_tabview_set_anim_time(lv_obj_t * tabview, uint16_t anim_time)
 494:..\..\..\lvgl\version_6.1.2\lvgl\src\lv_objx/lv_tabview.c **** {
 1879              		.loc 4 494 0
 1880              		.cfi_startproc
 1881              		@ args = 0, pretend = 0, frame = 16
 1882              		@ frame_needed = 1, uses_anonymous_args = 0
 1883 0000 80B5     		push	{r7, lr}
 1884              		.cfi_def_cfa_offset 8
 1885              		.cfi_offset 7, -8
 1886              		.cfi_offset 14, -4
 1887 0002 84B0     		sub	sp, sp, #16
 1888              		.cfi_def_cfa_offset 24
 1889 0004 00AF     		add	r7, sp, #0
 1890              		.cfi_def_cfa_register 7
 1891 0006 7860     		str	r0, [r7, #4]
 1892 0008 0B46     		mov	r3, r1
 1893 000a 7B80     		strh	r3, [r7, #2]	@ movhi
 495:..\..\..\lvgl\version_6.1.2\lvgl\src\lv_objx/lv_tabview.c ****     LV_ASSERT_OBJ(tabview, LV_OBJX_NAME);
 496:..\..\..\lvgl\version_6.1.2\lvgl\src\lv_objx/lv_tabview.c **** 
 497:..\..\..\lvgl\version_6.1.2\lvgl\src\lv_objx/lv_tabview.c **** #if LV_USE_ANIMATION
 498:..\..\..\lvgl\version_6.1.2\lvgl\src\lv_objx/lv_tabview.c ****     lv_tabview_ext_t * ext = lv_obj_get_ext_attr(tabview);
 1894              		.loc 4 498 0
 1895 000c 7868     		ldr	r0, [r7, #4]
 1896 000e FFF7FEFF 		bl	lv_obj_get_ext_attr
 1897 0012 F860     		str	r0, [r7, #12]
 499:..\..\..\lvgl\version_6.1.2\lvgl\src\lv_objx/lv_tabview.c ****     ext->anim_time         = anim_time;
 1898              		.loc 4 499 0
 1899 0014 FB68     		ldr	r3, [r7, #12]
 1900 0016 7A88     		ldrh	r2, [r7, #2]	@ movhi
 1901 0018 1A83     		strh	r2, [r3, #24]	@ movhi
 500:..\..\..\lvgl\version_6.1.2\lvgl\src\lv_objx/lv_tabview.c **** #else
 501:..\..\..\lvgl\version_6.1.2\lvgl\src\lv_objx/lv_tabview.c ****     (void)tabview;
 502:..\..\..\lvgl\version_6.1.2\lvgl\src\lv_objx/lv_tabview.c ****     (void)anim_time;
 503:..\..\..\lvgl\version_6.1.2\lvgl\src\lv_objx/lv_tabview.c **** #endif
 504:..\..\..\lvgl\version_6.1.2\lvgl\src\lv_objx/lv_tabview.c **** }
 1902              		.loc 4 504 0
ARM GAS  C:\Users\tmj32\AppData\Local\Temp\cc94ZBZn.s 			page 50


 1903 001a 00BF     		nop
 1904 001c 1037     		adds	r7, r7, #16
 1905              		.cfi_def_cfa_offset 8
 1906 001e BD46     		mov	sp, r7
 1907              		.cfi_def_cfa_register 13
 1908              		@ sp needed
 1909 0020 80BD     		pop	{r7, pc}
 1910              		.cfi_endproc
 1911              	.LFE73:
 1912              		.size	lv_tabview_set_anim_time, .-lv_tabview_set_anim_time
 1913 0022 00BF     		.section	.text.lv_tabview_set_style,"ax",%progbits
 1914              		.align	2
 1915              		.global	lv_tabview_set_style
 1916              		.thumb
 1917              		.thumb_func
 1918              		.type	lv_tabview_set_style, %function
 1919              	lv_tabview_set_style:
 1920              	.LFB74:
 505:..\..\..\lvgl\version_6.1.2\lvgl\src\lv_objx/lv_tabview.c **** 
 506:..\..\..\lvgl\version_6.1.2\lvgl\src\lv_objx/lv_tabview.c **** /**
 507:..\..\..\lvgl\version_6.1.2\lvgl\src\lv_objx/lv_tabview.c ****  * Set the style of a tab view
 508:..\..\..\lvgl\version_6.1.2\lvgl\src\lv_objx/lv_tabview.c ****  * @param tabview pointer to a tan view object
 509:..\..\..\lvgl\version_6.1.2\lvgl\src\lv_objx/lv_tabview.c ****  * @param type which style should be set
 510:..\..\..\lvgl\version_6.1.2\lvgl\src\lv_objx/lv_tabview.c ****  * @param style pointer to the new style
 511:..\..\..\lvgl\version_6.1.2\lvgl\src\lv_objx/lv_tabview.c ****  */
 512:..\..\..\lvgl\version_6.1.2\lvgl\src\lv_objx/lv_tabview.c **** void lv_tabview_set_style(lv_obj_t * tabview, lv_tabview_style_t type, const lv_style_t * style)
 513:..\..\..\lvgl\version_6.1.2\lvgl\src\lv_objx/lv_tabview.c **** {
 1921              		.loc 4 513 0
 1922              		.cfi_startproc
 1923              		@ args = 0, pretend = 0, frame = 24
 1924              		@ frame_needed = 1, uses_anonymous_args = 0
 1925 0000 80B5     		push	{r7, lr}
 1926              		.cfi_def_cfa_offset 8
 1927              		.cfi_offset 7, -8
 1928              		.cfi_offset 14, -4
 1929 0002 86B0     		sub	sp, sp, #24
 1930              		.cfi_def_cfa_offset 32
 1931 0004 00AF     		add	r7, sp, #0
 1932              		.cfi_def_cfa_register 7
 1933 0006 F860     		str	r0, [r7, #12]
 1934 0008 0B46     		mov	r3, r1
 1935 000a 7A60     		str	r2, [r7, #4]
 1936 000c FB72     		strb	r3, [r7, #11]
 514:..\..\..\lvgl\version_6.1.2\lvgl\src\lv_objx/lv_tabview.c ****     LV_ASSERT_OBJ(tabview, LV_OBJX_NAME);
 515:..\..\..\lvgl\version_6.1.2\lvgl\src\lv_objx/lv_tabview.c **** 
 516:..\..\..\lvgl\version_6.1.2\lvgl\src\lv_objx/lv_tabview.c ****     lv_tabview_ext_t * ext = lv_obj_get_ext_attr(tabview);
 1937              		.loc 4 516 0
 1938 000e F868     		ldr	r0, [r7, #12]
 1939 0010 FFF7FEFF 		bl	lv_obj_get_ext_attr
 1940 0014 7861     		str	r0, [r7, #20]
 517:..\..\..\lvgl\version_6.1.2\lvgl\src\lv_objx/lv_tabview.c **** 
 518:..\..\..\lvgl\version_6.1.2\lvgl\src\lv_objx/lv_tabview.c ****     switch(type) {
 1941              		.loc 4 518 0
 1942 0016 FB7A     		ldrb	r3, [r7, #11]	@ zero_extendqisi2
 1943 0018 062B     		cmp	r3, #6
 1944 001a 6AD8     		bhi	.L101
 1945 001c 01A2     		adr	r2, .L90
ARM GAS  C:\Users\tmj32\AppData\Local\Temp\cc94ZBZn.s 			page 51


 1946 001e 52F823F0 		ldr	pc, [r2, r3, lsl #2]
 1947 0022 00BF     		.p2align 2
 1948              	.L90:
 1949 0024 41000000 		.word	.L89+1
 1950 0028 A7000000 		.word	.L91+1
 1951 002c 4B000000 		.word	.L92+1
 1952 0030 61000000 		.word	.L93+1
 1953 0034 77000000 		.word	.L94+1
 1954 0038 87000000 		.word	.L95+1
 1955 003c 97000000 		.word	.L96+1
 1956              		.p2align 1
 1957              	.L89:
 519:..\..\..\lvgl\version_6.1.2\lvgl\src\lv_objx/lv_tabview.c ****         case LV_TABVIEW_STYLE_BG: lv_obj_set_style(tabview, style); break;
 1958              		.loc 4 519 0
 1959 0040 7968     		ldr	r1, [r7, #4]
 1960 0042 F868     		ldr	r0, [r7, #12]
 1961 0044 FFF7FEFF 		bl	lv_obj_set_style
 1962 0048 53E0     		b	.L88
 1963              	.L92:
 520:..\..\..\lvgl\version_6.1.2\lvgl\src\lv_objx/lv_tabview.c ****         case LV_TABVIEW_STYLE_BTN_BG:
 521:..\..\..\lvgl\version_6.1.2\lvgl\src\lv_objx/lv_tabview.c ****             lv_btnm_set_style(ext->btns, LV_BTNM_STYLE_BG, style);
 1964              		.loc 4 521 0
 1965 004a 7B69     		ldr	r3, [r7, #20]
 1966 004c 1B68     		ldr	r3, [r3]
 1967 004e 7A68     		ldr	r2, [r7, #4]
 1968 0050 0021     		movs	r1, #0
 1969 0052 1846     		mov	r0, r3
 1970 0054 FFF7FEFF 		bl	lv_btnm_set_style
 522:..\..\..\lvgl\version_6.1.2\lvgl\src\lv_objx/lv_tabview.c ****             tabview_realign(tabview);
 1971              		.loc 4 522 0
 1972 0058 F868     		ldr	r0, [r7, #12]
 1973 005a FFF7FEFF 		bl	tabview_realign
 523:..\..\..\lvgl\version_6.1.2\lvgl\src\lv_objx/lv_tabview.c ****             break;
 1974              		.loc 4 523 0
 1975 005e 48E0     		b	.L88
 1976              	.L93:
 524:..\..\..\lvgl\version_6.1.2\lvgl\src\lv_objx/lv_tabview.c ****         case LV_TABVIEW_STYLE_BTN_REL:
 525:..\..\..\lvgl\version_6.1.2\lvgl\src\lv_objx/lv_tabview.c ****             lv_btnm_set_style(ext->btns, LV_BTNM_STYLE_BTN_REL, style);
 1977              		.loc 4 525 0
 1978 0060 7B69     		ldr	r3, [r7, #20]
 1979 0062 1B68     		ldr	r3, [r3]
 1980 0064 7A68     		ldr	r2, [r7, #4]
 1981 0066 0121     		movs	r1, #1
 1982 0068 1846     		mov	r0, r3
 1983 006a FFF7FEFF 		bl	lv_btnm_set_style
 526:..\..\..\lvgl\version_6.1.2\lvgl\src\lv_objx/lv_tabview.c ****             tabview_realign(tabview);
 1984              		.loc 4 526 0
 1985 006e F868     		ldr	r0, [r7, #12]
 1986 0070 FFF7FEFF 		bl	tabview_realign
 527:..\..\..\lvgl\version_6.1.2\lvgl\src\lv_objx/lv_tabview.c ****             break;
 1987              		.loc 4 527 0
 1988 0074 3DE0     		b	.L88
 1989              	.L94:
 528:..\..\..\lvgl\version_6.1.2\lvgl\src\lv_objx/lv_tabview.c ****         case LV_TABVIEW_STYLE_BTN_PR: lv_btnm_set_style(ext->btns, LV_BTNM_STYLE_BTN_PR, style); br
 1990              		.loc 4 528 0
 1991 0076 7B69     		ldr	r3, [r7, #20]
 1992 0078 1B68     		ldr	r3, [r3]
ARM GAS  C:\Users\tmj32\AppData\Local\Temp\cc94ZBZn.s 			page 52


 1993 007a 7A68     		ldr	r2, [r7, #4]
 1994 007c 0221     		movs	r1, #2
 1995 007e 1846     		mov	r0, r3
 1996 0080 FFF7FEFF 		bl	lv_btnm_set_style
 1997 0084 35E0     		b	.L88
 1998              	.L95:
 529:..\..\..\lvgl\version_6.1.2\lvgl\src\lv_objx/lv_tabview.c ****         case LV_TABVIEW_STYLE_BTN_TGL_REL: lv_btnm_set_style(ext->btns, LV_BTNM_STYLE_BTN_TGL_REL, 
 1999              		.loc 4 529 0
 2000 0086 7B69     		ldr	r3, [r7, #20]
 2001 0088 1B68     		ldr	r3, [r3]
 2002 008a 7A68     		ldr	r2, [r7, #4]
 2003 008c 0321     		movs	r1, #3
 2004 008e 1846     		mov	r0, r3
 2005 0090 FFF7FEFF 		bl	lv_btnm_set_style
 2006 0094 2DE0     		b	.L88
 2007              	.L96:
 530:..\..\..\lvgl\version_6.1.2\lvgl\src\lv_objx/lv_tabview.c ****         case LV_TABVIEW_STYLE_BTN_TGL_PR: lv_btnm_set_style(ext->btns, LV_BTNM_STYLE_BTN_TGL_PR, st
 2008              		.loc 4 530 0
 2009 0096 7B69     		ldr	r3, [r7, #20]
 2010 0098 1B68     		ldr	r3, [r3]
 2011 009a 7A68     		ldr	r2, [r7, #4]
 2012 009c 0421     		movs	r1, #4
 2013 009e 1846     		mov	r0, r3
 2014 00a0 FFF7FEFF 		bl	lv_btnm_set_style
 2015 00a4 25E0     		b	.L88
 2016              	.L91:
 531:..\..\..\lvgl\version_6.1.2\lvgl\src\lv_objx/lv_tabview.c ****         case LV_TABVIEW_STYLE_INDIC:
 532:..\..\..\lvgl\version_6.1.2\lvgl\src\lv_objx/lv_tabview.c ****             lv_obj_set_style(ext->indic, style);
 2017              		.loc 4 532 0
 2018 00a6 7B69     		ldr	r3, [r7, #20]
 2019 00a8 5B68     		ldr	r3, [r3, #4]
 2020 00aa 7968     		ldr	r1, [r7, #4]
 2021 00ac 1846     		mov	r0, r3
 2022 00ae FFF7FEFF 		bl	lv_obj_set_style
 533:..\..\..\lvgl\version_6.1.2\lvgl\src\lv_objx/lv_tabview.c **** 
 534:..\..\..\lvgl\version_6.1.2\lvgl\src\lv_objx/lv_tabview.c ****             switch(ext->btns_pos) {
 2023              		.loc 4 534 0
 2024 00b2 7B69     		ldr	r3, [r7, #20]
 2025 00b4 9B7E     		ldrb	r3, [r3, #26]
 2026 00b6 C3F34113 		ubfx	r3, r3, #5, #2
 2027 00ba DBB2     		uxtb	r3, r3
 2028 00bc 023B     		subs	r3, r3, #2
 2029 00be 012B     		cmp	r3, #1
 2030 00c0 09D9     		bls	.L100
 535:..\..\..\lvgl\version_6.1.2\lvgl\src\lv_objx/lv_tabview.c ****                 case LV_TABVIEW_BTNS_POS_TOP:
 536:..\..\..\lvgl\version_6.1.2\lvgl\src\lv_objx/lv_tabview.c ****                 case LV_TABVIEW_BTNS_POS_BOTTOM: lv_obj_set_height(ext->indic, style->body.padding.
 2031              		.loc 4 536 0
 2032 00c2 7B69     		ldr	r3, [r7, #20]
 2033 00c4 5A68     		ldr	r2, [r3, #4]
 2034 00c6 7B68     		ldr	r3, [r7, #4]
 2035 00c8 B3F92830 		ldrsh	r3, [r3, #40]
 2036 00cc 1946     		mov	r1, r3
 2037 00ce 1046     		mov	r0, r2
 2038 00d0 FFF7FEFF 		bl	lv_obj_set_height
 2039 00d4 09E0     		b	.L99
 2040              	.L100:
 537:..\..\..\lvgl\version_6.1.2\lvgl\src\lv_objx/lv_tabview.c ****                 case LV_TABVIEW_BTNS_POS_LEFT:
ARM GAS  C:\Users\tmj32\AppData\Local\Temp\cc94ZBZn.s 			page 53


 538:..\..\..\lvgl\version_6.1.2\lvgl\src\lv_objx/lv_tabview.c ****                 case LV_TABVIEW_BTNS_POS_RIGHT: lv_obj_set_width(ext->indic, style->body.padding.in
 2041              		.loc 4 538 0
 2042 00d6 7B69     		ldr	r3, [r7, #20]
 2043 00d8 5A68     		ldr	r2, [r3, #4]
 2044 00da 7B68     		ldr	r3, [r7, #4]
 2045 00dc B3F92830 		ldrsh	r3, [r3, #40]
 2046 00e0 1946     		mov	r1, r3
 2047 00e2 1046     		mov	r0, r2
 2048 00e4 FFF7FEFF 		bl	lv_obj_set_width
 2049 00e8 00BF     		nop
 2050              	.L99:
 539:..\..\..\lvgl\version_6.1.2\lvgl\src\lv_objx/lv_tabview.c ****             }
 540:..\..\..\lvgl\version_6.1.2\lvgl\src\lv_objx/lv_tabview.c **** 
 541:..\..\..\lvgl\version_6.1.2\lvgl\src\lv_objx/lv_tabview.c ****             tabview_realign(tabview);
 2051              		.loc 4 541 0
 2052 00ea F868     		ldr	r0, [r7, #12]
 2053 00ec FFF7FEFF 		bl	tabview_realign
 542:..\..\..\lvgl\version_6.1.2\lvgl\src\lv_objx/lv_tabview.c ****             break;
 2054              		.loc 4 542 0
 2055 00f0 00BF     		nop
 2056              	.L88:
 2057              	.L101:
 543:..\..\..\lvgl\version_6.1.2\lvgl\src\lv_objx/lv_tabview.c ****     }
 544:..\..\..\lvgl\version_6.1.2\lvgl\src\lv_objx/lv_tabview.c **** }
 2058              		.loc 4 544 0
 2059 00f2 00BF     		nop
 2060 00f4 1837     		adds	r7, r7, #24
 2061              		.cfi_def_cfa_offset 8
 2062 00f6 BD46     		mov	sp, r7
 2063              		.cfi_def_cfa_register 13
 2064              		@ sp needed
 2065 00f8 80BD     		pop	{r7, pc}
 2066              		.cfi_endproc
 2067              	.LFE74:
 2068              		.size	lv_tabview_set_style, .-lv_tabview_set_style
 2069 00fa 00BF     		.section	.text.lv_tabview_set_btns_pos,"ax",%progbits
 2070              		.align	2
 2071              		.global	lv_tabview_set_btns_pos
 2072              		.thumb
 2073              		.thumb_func
 2074              		.type	lv_tabview_set_btns_pos, %function
 2075              	lv_tabview_set_btns_pos:
 2076              	.LFB75:
 545:..\..\..\lvgl\version_6.1.2\lvgl\src\lv_objx/lv_tabview.c **** 
 546:..\..\..\lvgl\version_6.1.2\lvgl\src\lv_objx/lv_tabview.c **** /**
 547:..\..\..\lvgl\version_6.1.2\lvgl\src\lv_objx/lv_tabview.c ****  * Set the position of tab select buttons
 548:..\..\..\lvgl\version_6.1.2\lvgl\src\lv_objx/lv_tabview.c ****  * @param tabview pointer to a tan view object
 549:..\..\..\lvgl\version_6.1.2\lvgl\src\lv_objx/lv_tabview.c ****  * @param btns_pos which button position
 550:..\..\..\lvgl\version_6.1.2\lvgl\src\lv_objx/lv_tabview.c ****  */
 551:..\..\..\lvgl\version_6.1.2\lvgl\src\lv_objx/lv_tabview.c **** void lv_tabview_set_btns_pos(lv_obj_t * tabview, lv_tabview_btns_pos_t btns_pos)
 552:..\..\..\lvgl\version_6.1.2\lvgl\src\lv_objx/lv_tabview.c **** {
 2077              		.loc 4 552 0
 2078              		.cfi_startproc
 2079              		@ args = 0, pretend = 0, frame = 16
 2080              		@ frame_needed = 1, uses_anonymous_args = 0
 2081 0000 80B5     		push	{r7, lr}
 2082              		.cfi_def_cfa_offset 8
ARM GAS  C:\Users\tmj32\AppData\Local\Temp\cc94ZBZn.s 			page 54


 2083              		.cfi_offset 7, -8
 2084              		.cfi_offset 14, -4
 2085 0002 84B0     		sub	sp, sp, #16
 2086              		.cfi_def_cfa_offset 24
 2087 0004 00AF     		add	r7, sp, #0
 2088              		.cfi_def_cfa_register 7
 2089 0006 7860     		str	r0, [r7, #4]
 2090 0008 0B46     		mov	r3, r1
 2091 000a FB70     		strb	r3, [r7, #3]
 553:..\..\..\lvgl\version_6.1.2\lvgl\src\lv_objx/lv_tabview.c ****     LV_ASSERT_OBJ(tabview, LV_OBJX_NAME);
 554:..\..\..\lvgl\version_6.1.2\lvgl\src\lv_objx/lv_tabview.c **** 
 555:..\..\..\lvgl\version_6.1.2\lvgl\src\lv_objx/lv_tabview.c ****     lv_tabview_ext_t * ext = lv_obj_get_ext_attr(tabview);
 2092              		.loc 4 555 0
 2093 000c 7868     		ldr	r0, [r7, #4]
 2094 000e FFF7FEFF 		bl	lv_obj_get_ext_attr
 2095 0012 F860     		str	r0, [r7, #12]
 556:..\..\..\lvgl\version_6.1.2\lvgl\src\lv_objx/lv_tabview.c **** 
 557:..\..\..\lvgl\version_6.1.2\lvgl\src\lv_objx/lv_tabview.c ****     ext->btns_pos = btns_pos;
 2096              		.loc 4 557 0
 2097 0014 FB78     		ldrb	r3, [r7, #3]
 2098 0016 03F00303 		and	r3, r3, #3
 2099 001a D9B2     		uxtb	r1, r3
 2100 001c FA68     		ldr	r2, [r7, #12]
 2101 001e 937E     		ldrb	r3, [r2, #26]
 2102 0020 61F34613 		bfi	r3, r1, #5, #2
 2103 0024 9376     		strb	r3, [r2, #26]
 558:..\..\..\lvgl\version_6.1.2\lvgl\src\lv_objx/lv_tabview.c ****     tabview_realign(tabview);
 2104              		.loc 4 558 0
 2105 0026 7868     		ldr	r0, [r7, #4]
 2106 0028 FFF7FEFF 		bl	tabview_realign
 559:..\..\..\lvgl\version_6.1.2\lvgl\src\lv_objx/lv_tabview.c **** }
 2107              		.loc 4 559 0
 2108 002c 00BF     		nop
 2109 002e 1037     		adds	r7, r7, #16
 2110              		.cfi_def_cfa_offset 8
 2111 0030 BD46     		mov	sp, r7
 2112              		.cfi_def_cfa_register 13
 2113              		@ sp needed
 2114 0032 80BD     		pop	{r7, pc}
 2115              		.cfi_endproc
 2116              	.LFE75:
 2117              		.size	lv_tabview_set_btns_pos, .-lv_tabview_set_btns_pos
 2118              		.section	.text.lv_tabview_set_btns_hidden,"ax",%progbits
 2119              		.align	2
 2120              		.global	lv_tabview_set_btns_hidden
 2121              		.thumb
 2122              		.thumb_func
 2123              		.type	lv_tabview_set_btns_hidden, %function
 2124              	lv_tabview_set_btns_hidden:
 2125              	.LFB76:
 560:..\..\..\lvgl\version_6.1.2\lvgl\src\lv_objx/lv_tabview.c **** 
 561:..\..\..\lvgl\version_6.1.2\lvgl\src\lv_objx/lv_tabview.c **** /**
 562:..\..\..\lvgl\version_6.1.2\lvgl\src\lv_objx/lv_tabview.c ****  * Set whether tab buttons are hidden
 563:..\..\..\lvgl\version_6.1.2\lvgl\src\lv_objx/lv_tabview.c ****  * @param tabview pointer to a tab view object
 564:..\..\..\lvgl\version_6.1.2\lvgl\src\lv_objx/lv_tabview.c ****  * @param en whether tab buttons are hidden
 565:..\..\..\lvgl\version_6.1.2\lvgl\src\lv_objx/lv_tabview.c ****  */
 566:..\..\..\lvgl\version_6.1.2\lvgl\src\lv_objx/lv_tabview.c **** void lv_tabview_set_btns_hidden(lv_obj_t * tabview, bool en)
ARM GAS  C:\Users\tmj32\AppData\Local\Temp\cc94ZBZn.s 			page 55


 567:..\..\..\lvgl\version_6.1.2\lvgl\src\lv_objx/lv_tabview.c **** {
 2126              		.loc 4 567 0
 2127              		.cfi_startproc
 2128              		@ args = 0, pretend = 0, frame = 16
 2129              		@ frame_needed = 1, uses_anonymous_args = 0
 2130 0000 80B5     		push	{r7, lr}
 2131              		.cfi_def_cfa_offset 8
 2132              		.cfi_offset 7, -8
 2133              		.cfi_offset 14, -4
 2134 0002 84B0     		sub	sp, sp, #16
 2135              		.cfi_def_cfa_offset 24
 2136 0004 00AF     		add	r7, sp, #0
 2137              		.cfi_def_cfa_register 7
 2138 0006 7860     		str	r0, [r7, #4]
 2139 0008 0B46     		mov	r3, r1
 2140 000a FB70     		strb	r3, [r7, #3]
 568:..\..\..\lvgl\version_6.1.2\lvgl\src\lv_objx/lv_tabview.c ****     LV_ASSERT_OBJ(tabview, LV_OBJX_NAME);
 569:..\..\..\lvgl\version_6.1.2\lvgl\src\lv_objx/lv_tabview.c **** 
 570:..\..\..\lvgl\version_6.1.2\lvgl\src\lv_objx/lv_tabview.c ****     lv_tabview_ext_t * ext = lv_obj_get_ext_attr(tabview);
 2141              		.loc 4 570 0
 2142 000c 7868     		ldr	r0, [r7, #4]
 2143 000e FFF7FEFF 		bl	lv_obj_get_ext_attr
 2144 0012 F860     		str	r0, [r7, #12]
 571:..\..\..\lvgl\version_6.1.2\lvgl\src\lv_objx/lv_tabview.c **** 
 572:..\..\..\lvgl\version_6.1.2\lvgl\src\lv_objx/lv_tabview.c ****     ext->btns_hide = en;
 2145              		.loc 4 572 0
 2146 0014 FA68     		ldr	r2, [r7, #12]
 2147 0016 937E     		ldrb	r3, [r2, #26]
 2148 0018 F978     		ldrb	r1, [r7, #3]
 2149 001a 61F30413 		bfi	r3, r1, #4, #1
 2150 001e 9376     		strb	r3, [r2, #26]
 573:..\..\..\lvgl\version_6.1.2\lvgl\src\lv_objx/lv_tabview.c ****     tabview_realign(tabview);
 2151              		.loc 4 573 0
 2152 0020 7868     		ldr	r0, [r7, #4]
 2153 0022 FFF7FEFF 		bl	tabview_realign
 574:..\..\..\lvgl\version_6.1.2\lvgl\src\lv_objx/lv_tabview.c **** }
 2154              		.loc 4 574 0
 2155 0026 00BF     		nop
 2156 0028 1037     		adds	r7, r7, #16
 2157              		.cfi_def_cfa_offset 8
 2158 002a BD46     		mov	sp, r7
 2159              		.cfi_def_cfa_register 13
 2160              		@ sp needed
 2161 002c 80BD     		pop	{r7, pc}
 2162              		.cfi_endproc
 2163              	.LFE76:
 2164              		.size	lv_tabview_set_btns_hidden, .-lv_tabview_set_btns_hidden
 2165 002e 00BF     		.section	.text.lv_tabview_get_tab_act,"ax",%progbits
 2166              		.align	2
 2167              		.global	lv_tabview_get_tab_act
 2168              		.thumb
 2169              		.thumb_func
 2170              		.type	lv_tabview_get_tab_act, %function
 2171              	lv_tabview_get_tab_act:
 2172              	.LFB77:
 575:..\..\..\lvgl\version_6.1.2\lvgl\src\lv_objx/lv_tabview.c **** 
 576:..\..\..\lvgl\version_6.1.2\lvgl\src\lv_objx/lv_tabview.c **** /*=====================
ARM GAS  C:\Users\tmj32\AppData\Local\Temp\cc94ZBZn.s 			page 56


 577:..\..\..\lvgl\version_6.1.2\lvgl\src\lv_objx/lv_tabview.c ****  * Getter functions
 578:..\..\..\lvgl\version_6.1.2\lvgl\src\lv_objx/lv_tabview.c ****  *====================*/
 579:..\..\..\lvgl\version_6.1.2\lvgl\src\lv_objx/lv_tabview.c **** 
 580:..\..\..\lvgl\version_6.1.2\lvgl\src\lv_objx/lv_tabview.c **** /**
 581:..\..\..\lvgl\version_6.1.2\lvgl\src\lv_objx/lv_tabview.c ****  * Get the index of the currently active tab
 582:..\..\..\lvgl\version_6.1.2\lvgl\src\lv_objx/lv_tabview.c ****  * @param tabview pointer to Tab view object
 583:..\..\..\lvgl\version_6.1.2\lvgl\src\lv_objx/lv_tabview.c ****  * @return the active btn index
 584:..\..\..\lvgl\version_6.1.2\lvgl\src\lv_objx/lv_tabview.c ****  */
 585:..\..\..\lvgl\version_6.1.2\lvgl\src\lv_objx/lv_tabview.c **** uint16_t lv_tabview_get_tab_act(const lv_obj_t * tabview)
 586:..\..\..\lvgl\version_6.1.2\lvgl\src\lv_objx/lv_tabview.c **** {
 2173              		.loc 4 586 0
 2174              		.cfi_startproc
 2175              		@ args = 0, pretend = 0, frame = 16
 2176              		@ frame_needed = 1, uses_anonymous_args = 0
 2177 0000 80B5     		push	{r7, lr}
 2178              		.cfi_def_cfa_offset 8
 2179              		.cfi_offset 7, -8
 2180              		.cfi_offset 14, -4
 2181 0002 84B0     		sub	sp, sp, #16
 2182              		.cfi_def_cfa_offset 24
 2183 0004 00AF     		add	r7, sp, #0
 2184              		.cfi_def_cfa_register 7
 2185 0006 7860     		str	r0, [r7, #4]
 587:..\..\..\lvgl\version_6.1.2\lvgl\src\lv_objx/lv_tabview.c ****     LV_ASSERT_OBJ(tabview, LV_OBJX_NAME);
 588:..\..\..\lvgl\version_6.1.2\lvgl\src\lv_objx/lv_tabview.c **** 
 589:..\..\..\lvgl\version_6.1.2\lvgl\src\lv_objx/lv_tabview.c ****     lv_tabview_ext_t * ext = lv_obj_get_ext_attr(tabview);
 2186              		.loc 4 589 0
 2187 0008 7868     		ldr	r0, [r7, #4]
 2188 000a FFF7FEFF 		bl	lv_obj_get_ext_attr
 2189 000e F860     		str	r0, [r7, #12]
 590:..\..\..\lvgl\version_6.1.2\lvgl\src\lv_objx/lv_tabview.c ****     return ext->tab_cur;
 2190              		.loc 4 590 0
 2191 0010 FB68     		ldr	r3, [r7, #12]
 2192 0012 9B8A     		ldrh	r3, [r3, #20]
 591:..\..\..\lvgl\version_6.1.2\lvgl\src\lv_objx/lv_tabview.c **** }
 2193              		.loc 4 591 0
 2194 0014 1846     		mov	r0, r3
 2195 0016 1037     		adds	r7, r7, #16
 2196              		.cfi_def_cfa_offset 8
 2197 0018 BD46     		mov	sp, r7
 2198              		.cfi_def_cfa_register 13
 2199              		@ sp needed
 2200 001a 80BD     		pop	{r7, pc}
 2201              		.cfi_endproc
 2202              	.LFE77:
 2203              		.size	lv_tabview_get_tab_act, .-lv_tabview_get_tab_act
 2204              		.section	.text.lv_tabview_get_tab_count,"ax",%progbits
 2205              		.align	2
 2206              		.global	lv_tabview_get_tab_count
 2207              		.thumb
 2208              		.thumb_func
 2209              		.type	lv_tabview_get_tab_count, %function
 2210              	lv_tabview_get_tab_count:
 2211              	.LFB78:
 592:..\..\..\lvgl\version_6.1.2\lvgl\src\lv_objx/lv_tabview.c **** 
 593:..\..\..\lvgl\version_6.1.2\lvgl\src\lv_objx/lv_tabview.c **** /**
 594:..\..\..\lvgl\version_6.1.2\lvgl\src\lv_objx/lv_tabview.c ****  * Get the number of tabs
ARM GAS  C:\Users\tmj32\AppData\Local\Temp\cc94ZBZn.s 			page 57


 595:..\..\..\lvgl\version_6.1.2\lvgl\src\lv_objx/lv_tabview.c ****  * @param tabview pointer to Tab view object
 596:..\..\..\lvgl\version_6.1.2\lvgl\src\lv_objx/lv_tabview.c ****  * @return btn count
 597:..\..\..\lvgl\version_6.1.2\lvgl\src\lv_objx/lv_tabview.c ****  */
 598:..\..\..\lvgl\version_6.1.2\lvgl\src\lv_objx/lv_tabview.c **** uint16_t lv_tabview_get_tab_count(const lv_obj_t * tabview)
 599:..\..\..\lvgl\version_6.1.2\lvgl\src\lv_objx/lv_tabview.c **** {
 2212              		.loc 4 599 0
 2213              		.cfi_startproc
 2214              		@ args = 0, pretend = 0, frame = 16
 2215              		@ frame_needed = 1, uses_anonymous_args = 0
 2216 0000 80B5     		push	{r7, lr}
 2217              		.cfi_def_cfa_offset 8
 2218              		.cfi_offset 7, -8
 2219              		.cfi_offset 14, -4
 2220 0002 84B0     		sub	sp, sp, #16
 2221              		.cfi_def_cfa_offset 24
 2222 0004 00AF     		add	r7, sp, #0
 2223              		.cfi_def_cfa_register 7
 2224 0006 7860     		str	r0, [r7, #4]
 600:..\..\..\lvgl\version_6.1.2\lvgl\src\lv_objx/lv_tabview.c ****     LV_ASSERT_OBJ(tabview, LV_OBJX_NAME);
 601:..\..\..\lvgl\version_6.1.2\lvgl\src\lv_objx/lv_tabview.c **** 
 602:..\..\..\lvgl\version_6.1.2\lvgl\src\lv_objx/lv_tabview.c ****     lv_tabview_ext_t * ext = lv_obj_get_ext_attr(tabview);
 2225              		.loc 4 602 0
 2226 0008 7868     		ldr	r0, [r7, #4]
 2227 000a FFF7FEFF 		bl	lv_obj_get_ext_attr
 2228 000e F860     		str	r0, [r7, #12]
 603:..\..\..\lvgl\version_6.1.2\lvgl\src\lv_objx/lv_tabview.c ****     return ext->tab_cnt;
 2229              		.loc 4 603 0
 2230 0010 FB68     		ldr	r3, [r7, #12]
 2231 0012 DB8A     		ldrh	r3, [r3, #22]
 604:..\..\..\lvgl\version_6.1.2\lvgl\src\lv_objx/lv_tabview.c **** }
 2232              		.loc 4 604 0
 2233 0014 1846     		mov	r0, r3
 2234 0016 1037     		adds	r7, r7, #16
 2235              		.cfi_def_cfa_offset 8
 2236 0018 BD46     		mov	sp, r7
 2237              		.cfi_def_cfa_register 13
 2238              		@ sp needed
 2239 001a 80BD     		pop	{r7, pc}
 2240              		.cfi_endproc
 2241              	.LFE78:
 2242              		.size	lv_tabview_get_tab_count, .-lv_tabview_get_tab_count
 2243              		.section	.text.lv_tabview_get_tab,"ax",%progbits
 2244              		.align	2
 2245              		.global	lv_tabview_get_tab
 2246              		.thumb
 2247              		.thumb_func
 2248              		.type	lv_tabview_get_tab, %function
 2249              	lv_tabview_get_tab:
 2250              	.LFB79:
 605:..\..\..\lvgl\version_6.1.2\lvgl\src\lv_objx/lv_tabview.c **** 
 606:..\..\..\lvgl\version_6.1.2\lvgl\src\lv_objx/lv_tabview.c **** /**
 607:..\..\..\lvgl\version_6.1.2\lvgl\src\lv_objx/lv_tabview.c ****  * Get the page (content area) of a tab
 608:..\..\..\lvgl\version_6.1.2\lvgl\src\lv_objx/lv_tabview.c ****  * @param tabview pointer to Tab view object
 609:..\..\..\lvgl\version_6.1.2\lvgl\src\lv_objx/lv_tabview.c ****  * @param id index of the btn (>= 0)
 610:..\..\..\lvgl\version_6.1.2\lvgl\src\lv_objx/lv_tabview.c ****  * @return pointer to page (lv_page) object
 611:..\..\..\lvgl\version_6.1.2\lvgl\src\lv_objx/lv_tabview.c ****  */
 612:..\..\..\lvgl\version_6.1.2\lvgl\src\lv_objx/lv_tabview.c **** lv_obj_t * lv_tabview_get_tab(const lv_obj_t * tabview, uint16_t id)
ARM GAS  C:\Users\tmj32\AppData\Local\Temp\cc94ZBZn.s 			page 58


 613:..\..\..\lvgl\version_6.1.2\lvgl\src\lv_objx/lv_tabview.c **** {
 2251              		.loc 4 613 0
 2252              		.cfi_startproc
 2253              		@ args = 0, pretend = 0, frame = 24
 2254              		@ frame_needed = 1, uses_anonymous_args = 0
 2255 0000 80B5     		push	{r7, lr}
 2256              		.cfi_def_cfa_offset 8
 2257              		.cfi_offset 7, -8
 2258              		.cfi_offset 14, -4
 2259 0002 86B0     		sub	sp, sp, #24
 2260              		.cfi_def_cfa_offset 32
 2261 0004 00AF     		add	r7, sp, #0
 2262              		.cfi_def_cfa_register 7
 2263 0006 7860     		str	r0, [r7, #4]
 2264 0008 0B46     		mov	r3, r1
 2265 000a 7B80     		strh	r3, [r7, #2]	@ movhi
 614:..\..\..\lvgl\version_6.1.2\lvgl\src\lv_objx/lv_tabview.c ****     LV_ASSERT_OBJ(tabview, LV_OBJX_NAME);
 615:..\..\..\lvgl\version_6.1.2\lvgl\src\lv_objx/lv_tabview.c **** 
 616:..\..\..\lvgl\version_6.1.2\lvgl\src\lv_objx/lv_tabview.c ****     lv_tabview_ext_t * ext = lv_obj_get_ext_attr(tabview);
 2266              		.loc 4 616 0
 2267 000c 7868     		ldr	r0, [r7, #4]
 2268 000e FFF7FEFF 		bl	lv_obj_get_ext_attr
 2269 0012 F860     		str	r0, [r7, #12]
 617:..\..\..\lvgl\version_6.1.2\lvgl\src\lv_objx/lv_tabview.c ****     uint16_t i             = 0;
 2270              		.loc 4 617 0
 2271 0014 0023     		movs	r3, #0
 2272 0016 FB82     		strh	r3, [r7, #22]	@ movhi
 618:..\..\..\lvgl\version_6.1.2\lvgl\src\lv_objx/lv_tabview.c ****     lv_obj_t * page        = lv_obj_get_child_back(ext->content, NULL);
 2273              		.loc 4 618 0
 2274 0018 FB68     		ldr	r3, [r7, #12]
 2275 001a 9B68     		ldr	r3, [r3, #8]
 2276 001c 0021     		movs	r1, #0
 2277 001e 1846     		mov	r0, r3
 2278 0020 FFF7FEFF 		bl	lv_obj_get_child_back
 2279 0024 3861     		str	r0, [r7, #16]
 619:..\..\..\lvgl\version_6.1.2\lvgl\src\lv_objx/lv_tabview.c **** 
 620:..\..\..\lvgl\version_6.1.2\lvgl\src\lv_objx/lv_tabview.c ****     while(page != NULL && i != id) {
 2280              		.loc 4 620 0
 2281 0026 09E0     		b	.L109
 2282              	.L111:
 621:..\..\..\lvgl\version_6.1.2\lvgl\src\lv_objx/lv_tabview.c ****         i++;
 2283              		.loc 4 621 0
 2284 0028 FB8A     		ldrh	r3, [r7, #22]
 2285 002a 0133     		adds	r3, r3, #1
 2286 002c FB82     		strh	r3, [r7, #22]	@ movhi
 622:..\..\..\lvgl\version_6.1.2\lvgl\src\lv_objx/lv_tabview.c ****         page = lv_obj_get_child_back(ext->content, page);
 2287              		.loc 4 622 0
 2288 002e FB68     		ldr	r3, [r7, #12]
 2289 0030 9B68     		ldr	r3, [r3, #8]
 2290 0032 3969     		ldr	r1, [r7, #16]
 2291 0034 1846     		mov	r0, r3
 2292 0036 FFF7FEFF 		bl	lv_obj_get_child_back
 2293 003a 3861     		str	r0, [r7, #16]
 2294              	.L109:
 620:..\..\..\lvgl\version_6.1.2\lvgl\src\lv_objx/lv_tabview.c ****         i++;
 2295              		.loc 4 620 0
 2296 003c 3B69     		ldr	r3, [r7, #16]
ARM GAS  C:\Users\tmj32\AppData\Local\Temp\cc94ZBZn.s 			page 59


 2297 003e 002B     		cmp	r3, #0
 2298 0040 03D0     		beq	.L110
 620:..\..\..\lvgl\version_6.1.2\lvgl\src\lv_objx/lv_tabview.c ****         i++;
 2299              		.loc 4 620 0 is_stmt 0 discriminator 1
 2300 0042 FA8A     		ldrh	r2, [r7, #22]
 2301 0044 7B88     		ldrh	r3, [r7, #2]
 2302 0046 9A42     		cmp	r2, r3
 2303 0048 EED1     		bne	.L111
 2304              	.L110:
 623:..\..\..\lvgl\version_6.1.2\lvgl\src\lv_objx/lv_tabview.c ****     }
 624:..\..\..\lvgl\version_6.1.2\lvgl\src\lv_objx/lv_tabview.c **** 
 625:..\..\..\lvgl\version_6.1.2\lvgl\src\lv_objx/lv_tabview.c ****     if(i == id) return page;
 2305              		.loc 4 625 0 is_stmt 1
 2306 004a FA8A     		ldrh	r2, [r7, #22]
 2307 004c 7B88     		ldrh	r3, [r7, #2]
 2308 004e 9A42     		cmp	r2, r3
 2309 0050 01D1     		bne	.L112
 2310              		.loc 4 625 0 is_stmt 0 discriminator 1
 2311 0052 3B69     		ldr	r3, [r7, #16]
 2312 0054 00E0     		b	.L113
 2313              	.L112:
 626:..\..\..\lvgl\version_6.1.2\lvgl\src\lv_objx/lv_tabview.c **** 
 627:..\..\..\lvgl\version_6.1.2\lvgl\src\lv_objx/lv_tabview.c ****     return NULL;
 2314              		.loc 4 627 0 is_stmt 1
 2315 0056 0023     		movs	r3, #0
 2316              	.L113:
 628:..\..\..\lvgl\version_6.1.2\lvgl\src\lv_objx/lv_tabview.c **** }
 2317              		.loc 4 628 0
 2318 0058 1846     		mov	r0, r3
 2319 005a 1837     		adds	r7, r7, #24
 2320              		.cfi_def_cfa_offset 8
 2321 005c BD46     		mov	sp, r7
 2322              		.cfi_def_cfa_register 13
 2323              		@ sp needed
 2324 005e 80BD     		pop	{r7, pc}
 2325              		.cfi_endproc
 2326              	.LFE79:
 2327              		.size	lv_tabview_get_tab, .-lv_tabview_get_tab
 2328              		.section	.text.lv_tabview_get_sliding,"ax",%progbits
 2329              		.align	2
 2330              		.global	lv_tabview_get_sliding
 2331              		.thumb
 2332              		.thumb_func
 2333              		.type	lv_tabview_get_sliding, %function
 2334              	lv_tabview_get_sliding:
 2335              	.LFB80:
 629:..\..\..\lvgl\version_6.1.2\lvgl\src\lv_objx/lv_tabview.c **** 
 630:..\..\..\lvgl\version_6.1.2\lvgl\src\lv_objx/lv_tabview.c **** /**
 631:..\..\..\lvgl\version_6.1.2\lvgl\src\lv_objx/lv_tabview.c ****  * Get horizontal sliding is enabled or not
 632:..\..\..\lvgl\version_6.1.2\lvgl\src\lv_objx/lv_tabview.c ****  * @param tabview pointer to Tab view object
 633:..\..\..\lvgl\version_6.1.2\lvgl\src\lv_objx/lv_tabview.c ****  * @return true: enable sliding; false: disable sliding
 634:..\..\..\lvgl\version_6.1.2\lvgl\src\lv_objx/lv_tabview.c ****  */
 635:..\..\..\lvgl\version_6.1.2\lvgl\src\lv_objx/lv_tabview.c **** bool lv_tabview_get_sliding(const lv_obj_t * tabview)
 636:..\..\..\lvgl\version_6.1.2\lvgl\src\lv_objx/lv_tabview.c **** {
 2336              		.loc 4 636 0
 2337              		.cfi_startproc
 2338              		@ args = 0, pretend = 0, frame = 16
ARM GAS  C:\Users\tmj32\AppData\Local\Temp\cc94ZBZn.s 			page 60


 2339              		@ frame_needed = 1, uses_anonymous_args = 0
 2340 0000 80B5     		push	{r7, lr}
 2341              		.cfi_def_cfa_offset 8
 2342              		.cfi_offset 7, -8
 2343              		.cfi_offset 14, -4
 2344 0002 84B0     		sub	sp, sp, #16
 2345              		.cfi_def_cfa_offset 24
 2346 0004 00AF     		add	r7, sp, #0
 2347              		.cfi_def_cfa_register 7
 2348 0006 7860     		str	r0, [r7, #4]
 637:..\..\..\lvgl\version_6.1.2\lvgl\src\lv_objx/lv_tabview.c ****     LV_ASSERT_OBJ(tabview, LV_OBJX_NAME);
 638:..\..\..\lvgl\version_6.1.2\lvgl\src\lv_objx/lv_tabview.c **** 
 639:..\..\..\lvgl\version_6.1.2\lvgl\src\lv_objx/lv_tabview.c ****     lv_tabview_ext_t * ext = lv_obj_get_ext_attr(tabview);
 2349              		.loc 4 639 0
 2350 0008 7868     		ldr	r0, [r7, #4]
 2351 000a FFF7FEFF 		bl	lv_obj_get_ext_attr
 2352 000e F860     		str	r0, [r7, #12]
 640:..\..\..\lvgl\version_6.1.2\lvgl\src\lv_objx/lv_tabview.c ****     return ext->slide_enable ? true : false;
 2353              		.loc 4 640 0
 2354 0010 FB68     		ldr	r3, [r7, #12]
 2355 0012 9B7E     		ldrb	r3, [r3, #26]	@ zero_extendqisi2
 2356 0014 03F00103 		and	r3, r3, #1
 2357 0018 DBB2     		uxtb	r3, r3
 2358 001a 002B     		cmp	r3, #0
 2359 001c 14BF     		ite	ne
 2360 001e 0123     		movne	r3, #1
 2361 0020 0023     		moveq	r3, #0
 2362 0022 DBB2     		uxtb	r3, r3
 641:..\..\..\lvgl\version_6.1.2\lvgl\src\lv_objx/lv_tabview.c **** }
 2363              		.loc 4 641 0
 2364 0024 1846     		mov	r0, r3
 2365 0026 1037     		adds	r7, r7, #16
 2366              		.cfi_def_cfa_offset 8
 2367 0028 BD46     		mov	sp, r7
 2368              		.cfi_def_cfa_register 13
 2369              		@ sp needed
 2370 002a 80BD     		pop	{r7, pc}
 2371              		.cfi_endproc
 2372              	.LFE80:
 2373              		.size	lv_tabview_get_sliding, .-lv_tabview_get_sliding
 2374              		.section	.text.lv_tabview_get_anim_time,"ax",%progbits
 2375              		.align	2
 2376              		.global	lv_tabview_get_anim_time
 2377              		.thumb
 2378              		.thumb_func
 2379              		.type	lv_tabview_get_anim_time, %function
 2380              	lv_tabview_get_anim_time:
 2381              	.LFB81:
 642:..\..\..\lvgl\version_6.1.2\lvgl\src\lv_objx/lv_tabview.c **** 
 643:..\..\..\lvgl\version_6.1.2\lvgl\src\lv_objx/lv_tabview.c **** /**
 644:..\..\..\lvgl\version_6.1.2\lvgl\src\lv_objx/lv_tabview.c ****  * Get the animation time of tab view when a new tab is loaded
 645:..\..\..\lvgl\version_6.1.2\lvgl\src\lv_objx/lv_tabview.c ****  * @param tabview pointer to Tab view object
 646:..\..\..\lvgl\version_6.1.2\lvgl\src\lv_objx/lv_tabview.c ****  * @return time of animation in milliseconds
 647:..\..\..\lvgl\version_6.1.2\lvgl\src\lv_objx/lv_tabview.c ****  */
 648:..\..\..\lvgl\version_6.1.2\lvgl\src\lv_objx/lv_tabview.c **** uint16_t lv_tabview_get_anim_time(const lv_obj_t * tabview)
 649:..\..\..\lvgl\version_6.1.2\lvgl\src\lv_objx/lv_tabview.c **** {
 2382              		.loc 4 649 0
ARM GAS  C:\Users\tmj32\AppData\Local\Temp\cc94ZBZn.s 			page 61


 2383              		.cfi_startproc
 2384              		@ args = 0, pretend = 0, frame = 16
 2385              		@ frame_needed = 1, uses_anonymous_args = 0
 2386 0000 80B5     		push	{r7, lr}
 2387              		.cfi_def_cfa_offset 8
 2388              		.cfi_offset 7, -8
 2389              		.cfi_offset 14, -4
 2390 0002 84B0     		sub	sp, sp, #16
 2391              		.cfi_def_cfa_offset 24
 2392 0004 00AF     		add	r7, sp, #0
 2393              		.cfi_def_cfa_register 7
 2394 0006 7860     		str	r0, [r7, #4]
 650:..\..\..\lvgl\version_6.1.2\lvgl\src\lv_objx/lv_tabview.c ****     LV_ASSERT_OBJ(tabview, LV_OBJX_NAME);
 651:..\..\..\lvgl\version_6.1.2\lvgl\src\lv_objx/lv_tabview.c **** 
 652:..\..\..\lvgl\version_6.1.2\lvgl\src\lv_objx/lv_tabview.c **** #if LV_USE_ANIMATION
 653:..\..\..\lvgl\version_6.1.2\lvgl\src\lv_objx/lv_tabview.c ****     lv_tabview_ext_t * ext = lv_obj_get_ext_attr(tabview);
 2395              		.loc 4 653 0
 2396 0008 7868     		ldr	r0, [r7, #4]
 2397 000a FFF7FEFF 		bl	lv_obj_get_ext_attr
 2398 000e F860     		str	r0, [r7, #12]
 654:..\..\..\lvgl\version_6.1.2\lvgl\src\lv_objx/lv_tabview.c ****     return ext->anim_time;
 2399              		.loc 4 654 0
 2400 0010 FB68     		ldr	r3, [r7, #12]
 2401 0012 1B8B     		ldrh	r3, [r3, #24]
 655:..\..\..\lvgl\version_6.1.2\lvgl\src\lv_objx/lv_tabview.c **** #else
 656:..\..\..\lvgl\version_6.1.2\lvgl\src\lv_objx/lv_tabview.c ****     (void)tabview;
 657:..\..\..\lvgl\version_6.1.2\lvgl\src\lv_objx/lv_tabview.c ****     return 0;
 658:..\..\..\lvgl\version_6.1.2\lvgl\src\lv_objx/lv_tabview.c **** #endif
 659:..\..\..\lvgl\version_6.1.2\lvgl\src\lv_objx/lv_tabview.c **** }
 2402              		.loc 4 659 0
 2403 0014 1846     		mov	r0, r3
 2404 0016 1037     		adds	r7, r7, #16
 2405              		.cfi_def_cfa_offset 8
 2406 0018 BD46     		mov	sp, r7
 2407              		.cfi_def_cfa_register 13
 2408              		@ sp needed
 2409 001a 80BD     		pop	{r7, pc}
 2410              		.cfi_endproc
 2411              	.LFE81:
 2412              		.size	lv_tabview_get_anim_time, .-lv_tabview_get_anim_time
 2413              		.section	.text.lv_tabview_get_style,"ax",%progbits
 2414              		.align	2
 2415              		.global	lv_tabview_get_style
 2416              		.thumb
 2417              		.thumb_func
 2418              		.type	lv_tabview_get_style, %function
 2419              	lv_tabview_get_style:
 2420              	.LFB82:
 660:..\..\..\lvgl\version_6.1.2\lvgl\src\lv_objx/lv_tabview.c **** 
 661:..\..\..\lvgl\version_6.1.2\lvgl\src\lv_objx/lv_tabview.c **** /**
 662:..\..\..\lvgl\version_6.1.2\lvgl\src\lv_objx/lv_tabview.c ****  * Get a style of a tab view
 663:..\..\..\lvgl\version_6.1.2\lvgl\src\lv_objx/lv_tabview.c ****  * @param tabview pointer to a ab view object
 664:..\..\..\lvgl\version_6.1.2\lvgl\src\lv_objx/lv_tabview.c ****  * @param type which style should be get
 665:..\..\..\lvgl\version_6.1.2\lvgl\src\lv_objx/lv_tabview.c ****  * @return style pointer to a style
 666:..\..\..\lvgl\version_6.1.2\lvgl\src\lv_objx/lv_tabview.c ****  */
 667:..\..\..\lvgl\version_6.1.2\lvgl\src\lv_objx/lv_tabview.c **** const lv_style_t * lv_tabview_get_style(const lv_obj_t * tabview, lv_tabview_style_t type)
 668:..\..\..\lvgl\version_6.1.2\lvgl\src\lv_objx/lv_tabview.c **** {
ARM GAS  C:\Users\tmj32\AppData\Local\Temp\cc94ZBZn.s 			page 62


 2421              		.loc 4 668 0
 2422              		.cfi_startproc
 2423              		@ args = 0, pretend = 0, frame = 16
 2424              		@ frame_needed = 1, uses_anonymous_args = 0
 2425 0000 80B5     		push	{r7, lr}
 2426              		.cfi_def_cfa_offset 8
 2427              		.cfi_offset 7, -8
 2428              		.cfi_offset 14, -4
 2429 0002 84B0     		sub	sp, sp, #16
 2430              		.cfi_def_cfa_offset 24
 2431 0004 00AF     		add	r7, sp, #0
 2432              		.cfi_def_cfa_register 7
 2433 0006 7860     		str	r0, [r7, #4]
 2434 0008 0B46     		mov	r3, r1
 2435 000a FB70     		strb	r3, [r7, #3]
 669:..\..\..\lvgl\version_6.1.2\lvgl\src\lv_objx/lv_tabview.c ****     LV_ASSERT_OBJ(tabview, LV_OBJX_NAME);
 670:..\..\..\lvgl\version_6.1.2\lvgl\src\lv_objx/lv_tabview.c **** 
 671:..\..\..\lvgl\version_6.1.2\lvgl\src\lv_objx/lv_tabview.c ****     const lv_style_t * style = NULL;
 2436              		.loc 4 671 0
 2437 000c 0023     		movs	r3, #0
 2438 000e FB60     		str	r3, [r7, #12]
 672:..\..\..\lvgl\version_6.1.2\lvgl\src\lv_objx/lv_tabview.c ****     lv_tabview_ext_t * ext   = lv_obj_get_ext_attr(tabview);
 2439              		.loc 4 672 0
 2440 0010 7868     		ldr	r0, [r7, #4]
 2441 0012 FFF7FEFF 		bl	lv_obj_get_ext_attr
 2442 0016 B860     		str	r0, [r7, #8]
 673:..\..\..\lvgl\version_6.1.2\lvgl\src\lv_objx/lv_tabview.c **** 
 674:..\..\..\lvgl\version_6.1.2\lvgl\src\lv_objx/lv_tabview.c ****     switch(type) {
 2443              		.loc 4 674 0
 2444 0018 FB78     		ldrb	r3, [r7, #3]	@ zero_extendqisi2
 2445 001a 062B     		cmp	r3, #6
 2446 001c 3DD8     		bhi	.L119
 2447 001e 01A2     		adr	r2, .L121
 2448 0020 52F823F0 		ldr	pc, [r2, r3, lsl #2]
 2449              		.p2align 2
 2450              	.L121:
 2451 0024 41000000 		.word	.L120+1
 2452 0028 9B000000 		.word	.L119+1
 2453 002c 4B000000 		.word	.L122+1
 2454 0030 5B000000 		.word	.L123+1
 2455 0034 6B000000 		.word	.L124+1
 2456 0038 7B000000 		.word	.L125+1
 2457 003c 8B000000 		.word	.L126+1
 2458              		.p2align 1
 2459              	.L120:
 675:..\..\..\lvgl\version_6.1.2\lvgl\src\lv_objx/lv_tabview.c ****         case LV_TABVIEW_STYLE_BG: style = lv_obj_get_style(tabview); break;
 2460              		.loc 4 675 0
 2461 0040 7868     		ldr	r0, [r7, #4]
 2462 0042 FFF7FEFF 		bl	lv_obj_get_style
 2463 0046 F860     		str	r0, [r7, #12]
 2464 0048 2AE0     		b	.L127
 2465              	.L122:
 676:..\..\..\lvgl\version_6.1.2\lvgl\src\lv_objx/lv_tabview.c ****         case LV_TABVIEW_STYLE_BTN_BG: style = lv_btnm_get_style(ext->btns, LV_BTNM_STYLE_BG); break
 2466              		.loc 4 676 0
 2467 004a BB68     		ldr	r3, [r7, #8]
 2468 004c 1B68     		ldr	r3, [r3]
 2469 004e 0021     		movs	r1, #0
ARM GAS  C:\Users\tmj32\AppData\Local\Temp\cc94ZBZn.s 			page 63


 2470 0050 1846     		mov	r0, r3
 2471 0052 FFF7FEFF 		bl	lv_btnm_get_style
 2472 0056 F860     		str	r0, [r7, #12]
 2473 0058 22E0     		b	.L127
 2474              	.L123:
 677:..\..\..\lvgl\version_6.1.2\lvgl\src\lv_objx/lv_tabview.c ****         case LV_TABVIEW_STYLE_BTN_REL: style = lv_btnm_get_style(ext->btns, LV_BTNM_STYLE_BTN_REL);
 2475              		.loc 4 677 0
 2476 005a BB68     		ldr	r3, [r7, #8]
 2477 005c 1B68     		ldr	r3, [r3]
 2478 005e 0121     		movs	r1, #1
 2479 0060 1846     		mov	r0, r3
 2480 0062 FFF7FEFF 		bl	lv_btnm_get_style
 2481 0066 F860     		str	r0, [r7, #12]
 2482 0068 1AE0     		b	.L127
 2483              	.L124:
 678:..\..\..\lvgl\version_6.1.2\lvgl\src\lv_objx/lv_tabview.c ****         case LV_TABVIEW_STYLE_BTN_PR: style = lv_btnm_get_style(ext->btns, LV_BTNM_STYLE_BTN_PR); b
 2484              		.loc 4 678 0
 2485 006a BB68     		ldr	r3, [r7, #8]
 2486 006c 1B68     		ldr	r3, [r3]
 2487 006e 0221     		movs	r1, #2
 2488 0070 1846     		mov	r0, r3
 2489 0072 FFF7FEFF 		bl	lv_btnm_get_style
 2490 0076 F860     		str	r0, [r7, #12]
 2491 0078 12E0     		b	.L127
 2492              	.L125:
 679:..\..\..\lvgl\version_6.1.2\lvgl\src\lv_objx/lv_tabview.c ****         case LV_TABVIEW_STYLE_BTN_TGL_REL: style = lv_btnm_get_style(ext->btns, LV_BTNM_STYLE_BTN_T
 2493              		.loc 4 679 0
 2494 007a BB68     		ldr	r3, [r7, #8]
 2495 007c 1B68     		ldr	r3, [r3]
 2496 007e 0321     		movs	r1, #3
 2497 0080 1846     		mov	r0, r3
 2498 0082 FFF7FEFF 		bl	lv_btnm_get_style
 2499 0086 F860     		str	r0, [r7, #12]
 2500 0088 0AE0     		b	.L127
 2501              	.L126:
 680:..\..\..\lvgl\version_6.1.2\lvgl\src\lv_objx/lv_tabview.c ****         case LV_TABVIEW_STYLE_BTN_TGL_PR: style = lv_btnm_get_style(ext->btns, LV_BTNM_STYLE_BTN_TG
 2502              		.loc 4 680 0
 2503 008a BB68     		ldr	r3, [r7, #8]
 2504 008c 1B68     		ldr	r3, [r3]
 2505 008e 0421     		movs	r1, #4
 2506 0090 1846     		mov	r0, r3
 2507 0092 FFF7FEFF 		bl	lv_btnm_get_style
 2508 0096 F860     		str	r0, [r7, #12]
 2509 0098 02E0     		b	.L127
 2510              	.L119:
 681:..\..\..\lvgl\version_6.1.2\lvgl\src\lv_objx/lv_tabview.c ****         default: style = NULL; break;
 2511              		.loc 4 681 0
 2512 009a 0023     		movs	r3, #0
 2513 009c FB60     		str	r3, [r7, #12]
 2514 009e 00BF     		nop
 2515              	.L127:
 682:..\..\..\lvgl\version_6.1.2\lvgl\src\lv_objx/lv_tabview.c ****     }
 683:..\..\..\lvgl\version_6.1.2\lvgl\src\lv_objx/lv_tabview.c **** 
 684:..\..\..\lvgl\version_6.1.2\lvgl\src\lv_objx/lv_tabview.c ****     return style;
 2516              		.loc 4 684 0
 2517 00a0 FB68     		ldr	r3, [r7, #12]
 685:..\..\..\lvgl\version_6.1.2\lvgl\src\lv_objx/lv_tabview.c **** }
ARM GAS  C:\Users\tmj32\AppData\Local\Temp\cc94ZBZn.s 			page 64


 2518              		.loc 4 685 0
 2519 00a2 1846     		mov	r0, r3
 2520 00a4 1037     		adds	r7, r7, #16
 2521              		.cfi_def_cfa_offset 8
 2522 00a6 BD46     		mov	sp, r7
 2523              		.cfi_def_cfa_register 13
 2524              		@ sp needed
 2525 00a8 80BD     		pop	{r7, pc}
 2526              		.cfi_endproc
 2527              	.LFE82:
 2528              		.size	lv_tabview_get_style, .-lv_tabview_get_style
 2529 00aa 00BF     		.section	.text.lv_tabview_get_btns_pos,"ax",%progbits
 2530              		.align	2
 2531              		.global	lv_tabview_get_btns_pos
 2532              		.thumb
 2533              		.thumb_func
 2534              		.type	lv_tabview_get_btns_pos, %function
 2535              	lv_tabview_get_btns_pos:
 2536              	.LFB83:
 686:..\..\..\lvgl\version_6.1.2\lvgl\src\lv_objx/lv_tabview.c **** 
 687:..\..\..\lvgl\version_6.1.2\lvgl\src\lv_objx/lv_tabview.c **** /**
 688:..\..\..\lvgl\version_6.1.2\lvgl\src\lv_objx/lv_tabview.c ****  * Get position of tab select buttons
 689:..\..\..\lvgl\version_6.1.2\lvgl\src\lv_objx/lv_tabview.c ****  * @param tabview pointer to a ab view object
 690:..\..\..\lvgl\version_6.1.2\lvgl\src\lv_objx/lv_tabview.c ****  */
 691:..\..\..\lvgl\version_6.1.2\lvgl\src\lv_objx/lv_tabview.c **** lv_tabview_btns_pos_t lv_tabview_get_btns_pos(const lv_obj_t * tabview)
 692:..\..\..\lvgl\version_6.1.2\lvgl\src\lv_objx/lv_tabview.c **** {
 2537              		.loc 4 692 0
 2538              		.cfi_startproc
 2539              		@ args = 0, pretend = 0, frame = 16
 2540              		@ frame_needed = 1, uses_anonymous_args = 0
 2541 0000 80B5     		push	{r7, lr}
 2542              		.cfi_def_cfa_offset 8
 2543              		.cfi_offset 7, -8
 2544              		.cfi_offset 14, -4
 2545 0002 84B0     		sub	sp, sp, #16
 2546              		.cfi_def_cfa_offset 24
 2547 0004 00AF     		add	r7, sp, #0
 2548              		.cfi_def_cfa_register 7
 2549 0006 7860     		str	r0, [r7, #4]
 693:..\..\..\lvgl\version_6.1.2\lvgl\src\lv_objx/lv_tabview.c ****     LV_ASSERT_OBJ(tabview, LV_OBJX_NAME);
 694:..\..\..\lvgl\version_6.1.2\lvgl\src\lv_objx/lv_tabview.c **** 
 695:..\..\..\lvgl\version_6.1.2\lvgl\src\lv_objx/lv_tabview.c ****     lv_tabview_ext_t * ext = lv_obj_get_ext_attr(tabview);
 2550              		.loc 4 695 0
 2551 0008 7868     		ldr	r0, [r7, #4]
 2552 000a FFF7FEFF 		bl	lv_obj_get_ext_attr
 2553 000e F860     		str	r0, [r7, #12]
 696:..\..\..\lvgl\version_6.1.2\lvgl\src\lv_objx/lv_tabview.c ****     return ext->btns_pos;
 2554              		.loc 4 696 0
 2555 0010 FB68     		ldr	r3, [r7, #12]
 2556 0012 9B7E     		ldrb	r3, [r3, #26]
 2557 0014 C3F34113 		ubfx	r3, r3, #5, #2
 2558 0018 DBB2     		uxtb	r3, r3
 697:..\..\..\lvgl\version_6.1.2\lvgl\src\lv_objx/lv_tabview.c **** }
 2559              		.loc 4 697 0
 2560 001a 1846     		mov	r0, r3
 2561 001c 1037     		adds	r7, r7, #16
 2562              		.cfi_def_cfa_offset 8
ARM GAS  C:\Users\tmj32\AppData\Local\Temp\cc94ZBZn.s 			page 65


 2563 001e BD46     		mov	sp, r7
 2564              		.cfi_def_cfa_register 13
 2565              		@ sp needed
 2566 0020 80BD     		pop	{r7, pc}
 2567              		.cfi_endproc
 2568              	.LFE83:
 2569              		.size	lv_tabview_get_btns_pos, .-lv_tabview_get_btns_pos
 2570 0022 00BF     		.section	.text.lv_tabview_get_btns_hidden,"ax",%progbits
 2571              		.align	2
 2572              		.global	lv_tabview_get_btns_hidden
 2573              		.thumb
 2574              		.thumb_func
 2575              		.type	lv_tabview_get_btns_hidden, %function
 2576              	lv_tabview_get_btns_hidden:
 2577              	.LFB84:
 698:..\..\..\lvgl\version_6.1.2\lvgl\src\lv_objx/lv_tabview.c **** 
 699:..\..\..\lvgl\version_6.1.2\lvgl\src\lv_objx/lv_tabview.c **** /**
 700:..\..\..\lvgl\version_6.1.2\lvgl\src\lv_objx/lv_tabview.c ****  * Get whether tab buttons are hidden
 701:..\..\..\lvgl\version_6.1.2\lvgl\src\lv_objx/lv_tabview.c ****  * @param tabview pointer to a tab view object
 702:..\..\..\lvgl\version_6.1.2\lvgl\src\lv_objx/lv_tabview.c ****  * @return whether tab buttons are hidden
 703:..\..\..\lvgl\version_6.1.2\lvgl\src\lv_objx/lv_tabview.c ****  */
 704:..\..\..\lvgl\version_6.1.2\lvgl\src\lv_objx/lv_tabview.c **** bool lv_tabview_get_btns_hidden(const lv_obj_t * tabview)
 705:..\..\..\lvgl\version_6.1.2\lvgl\src\lv_objx/lv_tabview.c **** {
 2578              		.loc 4 705 0
 2579              		.cfi_startproc
 2580              		@ args = 0, pretend = 0, frame = 16
 2581              		@ frame_needed = 1, uses_anonymous_args = 0
 2582 0000 80B5     		push	{r7, lr}
 2583              		.cfi_def_cfa_offset 8
 2584              		.cfi_offset 7, -8
 2585              		.cfi_offset 14, -4
 2586 0002 84B0     		sub	sp, sp, #16
 2587              		.cfi_def_cfa_offset 24
 2588 0004 00AF     		add	r7, sp, #0
 2589              		.cfi_def_cfa_register 7
 2590 0006 7860     		str	r0, [r7, #4]
 706:..\..\..\lvgl\version_6.1.2\lvgl\src\lv_objx/lv_tabview.c ****     LV_ASSERT_OBJ(tabview, LV_OBJX_NAME);
 707:..\..\..\lvgl\version_6.1.2\lvgl\src\lv_objx/lv_tabview.c **** 
 708:..\..\..\lvgl\version_6.1.2\lvgl\src\lv_objx/lv_tabview.c ****     lv_tabview_ext_t * ext = lv_obj_get_ext_attr(tabview);
 2591              		.loc 4 708 0
 2592 0008 7868     		ldr	r0, [r7, #4]
 2593 000a FFF7FEFF 		bl	lv_obj_get_ext_attr
 2594 000e F860     		str	r0, [r7, #12]
 709:..\..\..\lvgl\version_6.1.2\lvgl\src\lv_objx/lv_tabview.c **** 
 710:..\..\..\lvgl\version_6.1.2\lvgl\src\lv_objx/lv_tabview.c ****     return ext->btns_hide;
 2595              		.loc 4 710 0
 2596 0010 FB68     		ldr	r3, [r7, #12]
 2597 0012 9B7E     		ldrb	r3, [r3, #26]
 2598 0014 C3F30013 		ubfx	r3, r3, #4, #1
 2599 0018 DBB2     		uxtb	r3, r3
 2600 001a 002B     		cmp	r3, #0
 2601 001c 14BF     		ite	ne
 2602 001e 0123     		movne	r3, #1
 2603 0020 0023     		moveq	r3, #0
 2604 0022 DBB2     		uxtb	r3, r3
 711:..\..\..\lvgl\version_6.1.2\lvgl\src\lv_objx/lv_tabview.c **** }
 2605              		.loc 4 711 0
ARM GAS  C:\Users\tmj32\AppData\Local\Temp\cc94ZBZn.s 			page 66


 2606 0024 1846     		mov	r0, r3
 2607 0026 1037     		adds	r7, r7, #16
 2608              		.cfi_def_cfa_offset 8
 2609 0028 BD46     		mov	sp, r7
 2610              		.cfi_def_cfa_register 13
 2611              		@ sp needed
 2612 002a 80BD     		pop	{r7, pc}
 2613              		.cfi_endproc
 2614              	.LFE84:
 2615              		.size	lv_tabview_get_btns_hidden, .-lv_tabview_get_btns_hidden
 2616              		.section	.rodata
 2617 0006 0000     		.align	2
 2618              	.LC2:
 2619 0008 6C765F74 		.ascii	"lv_tabview\000"
 2619      61627669 
 2619      657700
 2620              		.section	.text.lv_tabview_signal,"ax",%progbits
 2621              		.align	2
 2622              		.thumb
 2623              		.thumb_func
 2624              		.type	lv_tabview_signal, %function
 2625              	lv_tabview_signal:
 2626              	.LFB85:
 712:..\..\..\lvgl\version_6.1.2\lvgl\src\lv_objx/lv_tabview.c **** 
 713:..\..\..\lvgl\version_6.1.2\lvgl\src\lv_objx/lv_tabview.c **** /**********************
 714:..\..\..\lvgl\version_6.1.2\lvgl\src\lv_objx/lv_tabview.c ****  *   STATIC FUNCTIONS
 715:..\..\..\lvgl\version_6.1.2\lvgl\src\lv_objx/lv_tabview.c ****  **********************/
 716:..\..\..\lvgl\version_6.1.2\lvgl\src\lv_objx/lv_tabview.c **** 
 717:..\..\..\lvgl\version_6.1.2\lvgl\src\lv_objx/lv_tabview.c **** /**
 718:..\..\..\lvgl\version_6.1.2\lvgl\src\lv_objx/lv_tabview.c ****  * Signal function of the Tab view
 719:..\..\..\lvgl\version_6.1.2\lvgl\src\lv_objx/lv_tabview.c ****  * @param tabview pointer to a Tab view object
 720:..\..\..\lvgl\version_6.1.2\lvgl\src\lv_objx/lv_tabview.c ****  * @param sign a signal type from lv_signal_t enum
 721:..\..\..\lvgl\version_6.1.2\lvgl\src\lv_objx/lv_tabview.c ****  * @param param pointer to a signal specific variable
 722:..\..\..\lvgl\version_6.1.2\lvgl\src\lv_objx/lv_tabview.c ****  * @return LV_RES_OK: the object is not deleted in the function; LV_RES_INV: the object is deleted
 723:..\..\..\lvgl\version_6.1.2\lvgl\src\lv_objx/lv_tabview.c ****  */
 724:..\..\..\lvgl\version_6.1.2\lvgl\src\lv_objx/lv_tabview.c **** static lv_res_t lv_tabview_signal(lv_obj_t * tabview, lv_signal_t sign, void * param)
 725:..\..\..\lvgl\version_6.1.2\lvgl\src\lv_objx/lv_tabview.c **** {
 2627              		.loc 4 725 0
 2628              		.cfi_startproc
 2629              		@ args = 0, pretend = 0, frame = 32
 2630              		@ frame_needed = 1, uses_anonymous_args = 0
 2631 0000 90B5     		push	{r4, r7, lr}
 2632              		.cfi_def_cfa_offset 12
 2633              		.cfi_offset 4, -12
 2634              		.cfi_offset 7, -8
 2635              		.cfi_offset 14, -4
 2636 0002 89B0     		sub	sp, sp, #36
 2637              		.cfi_def_cfa_offset 48
 2638 0004 00AF     		add	r7, sp, #0
 2639              		.cfi_def_cfa_register 7
 2640 0006 F860     		str	r0, [r7, #12]
 2641 0008 0B46     		mov	r3, r1
 2642 000a 7A60     		str	r2, [r7, #4]
 2643 000c FB72     		strb	r3, [r7, #11]
 726:..\..\..\lvgl\version_6.1.2\lvgl\src\lv_objx/lv_tabview.c ****     lv_res_t res;
 727:..\..\..\lvgl\version_6.1.2\lvgl\src\lv_objx/lv_tabview.c **** 
 728:..\..\..\lvgl\version_6.1.2\lvgl\src\lv_objx/lv_tabview.c ****     /* Include the ancient signal function */
ARM GAS  C:\Users\tmj32\AppData\Local\Temp\cc94ZBZn.s 			page 67


 729:..\..\..\lvgl\version_6.1.2\lvgl\src\lv_objx/lv_tabview.c ****     res = ancestor_signal(tabview, sign, param);
 2644              		.loc 4 729 0
 2645 000e 574B     		ldr	r3, .L150
 2646 0010 1B68     		ldr	r3, [r3]
 2647 0012 F97A     		ldrb	r1, [r7, #11]	@ zero_extendqisi2
 2648 0014 7A68     		ldr	r2, [r7, #4]
 2649 0016 F868     		ldr	r0, [r7, #12]
 2650 0018 9847     		blx	r3
 2651 001a 0346     		mov	r3, r0
 2652 001c 7B77     		strb	r3, [r7, #29]
 730:..\..\..\lvgl\version_6.1.2\lvgl\src\lv_objx/lv_tabview.c ****     if(res != LV_RES_OK) return res;
 2653              		.loc 4 730 0
 2654 001e 7B7F     		ldrb	r3, [r7, #29]	@ zero_extendqisi2
 2655 0020 012B     		cmp	r3, #1
 2656 0022 01D0     		beq	.L134
 2657              		.loc 4 730 0 is_stmt 0 discriminator 1
 2658 0024 7B7F     		ldrb	r3, [r7, #29]	@ zero_extendqisi2
 2659 0026 9DE0     		b	.L135
 2660              	.L134:
 731:..\..\..\lvgl\version_6.1.2\lvgl\src\lv_objx/lv_tabview.c ****     if(sign == LV_SIGNAL_GET_TYPE) return lv_obj_handle_get_type_signal(param, LV_OBJX_NAME);
 2661              		.loc 4 731 0 is_stmt 1
 2662 0028 FB7A     		ldrb	r3, [r7, #11]	@ zero_extendqisi2
 2663 002a 072B     		cmp	r3, #7
 2664 002c 05D1     		bne	.L136
 2665              		.loc 4 731 0 is_stmt 0 discriminator 1
 2666 002e 5049     		ldr	r1, .L150+4
 2667 0030 7868     		ldr	r0, [r7, #4]
 2668 0032 FFF7FEFF 		bl	lv_obj_handle_get_type_signal
 2669 0036 0346     		mov	r3, r0
 2670 0038 94E0     		b	.L135
 2671              	.L136:
 732:..\..\..\lvgl\version_6.1.2\lvgl\src\lv_objx/lv_tabview.c **** 
 733:..\..\..\lvgl\version_6.1.2\lvgl\src\lv_objx/lv_tabview.c ****     lv_tabview_ext_t * ext = lv_obj_get_ext_attr(tabview);
 2672              		.loc 4 733 0 is_stmt 1
 2673 003a F868     		ldr	r0, [r7, #12]
 2674 003c FFF7FEFF 		bl	lv_obj_get_ext_attr
 2675 0040 B861     		str	r0, [r7, #24]
 734:..\..\..\lvgl\version_6.1.2\lvgl\src\lv_objx/lv_tabview.c ****     if(sign == LV_SIGNAL_CLEANUP) {
 2676              		.loc 4 734 0
 2677 0042 FB7A     		ldrb	r3, [r7, #11]	@ zero_extendqisi2
 2678 0044 002B     		cmp	r3, #0
 2679 0046 26D1     		bne	.L137
 2680              	.LBB7:
 735:..\..\..\lvgl\version_6.1.2\lvgl\src\lv_objx/lv_tabview.c ****         uint8_t i;
 736:..\..\..\lvgl\version_6.1.2\lvgl\src\lv_objx/lv_tabview.c ****         for(i = 0; ext->tab_name_ptr[i][0] != '\0'; i++) lv_mem_free(ext->tab_name_ptr[i]);
 2681              		.loc 4 736 0
 2682 0048 0023     		movs	r3, #0
 2683 004a FB77     		strb	r3, [r7, #31]
 2684 004c 0BE0     		b	.L138
 2685              	.L139:
 2686              		.loc 4 736 0 is_stmt 0 discriminator 3
 2687 004e BB69     		ldr	r3, [r7, #24]
 2688 0050 DA68     		ldr	r2, [r3, #12]
 2689 0052 FB7F     		ldrb	r3, [r7, #31]	@ zero_extendqisi2
 2690 0054 9B00     		lsls	r3, r3, #2
 2691 0056 1344     		add	r3, r3, r2
 2692 0058 1B68     		ldr	r3, [r3]
ARM GAS  C:\Users\tmj32\AppData\Local\Temp\cc94ZBZn.s 			page 68


 2693 005a 1846     		mov	r0, r3
 2694 005c FFF7FEFF 		bl	lv_mem_free
 2695 0060 FB7F     		ldrb	r3, [r7, #31]	@ zero_extendqisi2
 2696 0062 0133     		adds	r3, r3, #1
 2697 0064 FB77     		strb	r3, [r7, #31]
 2698              	.L138:
 2699              		.loc 4 736 0 discriminator 1
 2700 0066 BB69     		ldr	r3, [r7, #24]
 2701 0068 DA68     		ldr	r2, [r3, #12]
 2702 006a FB7F     		ldrb	r3, [r7, #31]	@ zero_extendqisi2
 2703 006c 9B00     		lsls	r3, r3, #2
 2704 006e 1344     		add	r3, r3, r2
 2705 0070 1B68     		ldr	r3, [r3]
 2706 0072 1B78     		ldrb	r3, [r3]	@ zero_extendqisi2
 2707 0074 002B     		cmp	r3, #0
 2708 0076 EAD1     		bne	.L139
 737:..\..\..\lvgl\version_6.1.2\lvgl\src\lv_objx/lv_tabview.c **** 
 738:..\..\..\lvgl\version_6.1.2\lvgl\src\lv_objx/lv_tabview.c ****         lv_mem_free(ext->tab_name_ptr);
 2709              		.loc 4 738 0 is_stmt 1
 2710 0078 BB69     		ldr	r3, [r7, #24]
 2711 007a DB68     		ldr	r3, [r3, #12]
 2712 007c 1846     		mov	r0, r3
 2713 007e FFF7FEFF 		bl	lv_mem_free
 739:..\..\..\lvgl\version_6.1.2\lvgl\src\lv_objx/lv_tabview.c ****         ext->tab_name_ptr = NULL;
 2714              		.loc 4 739 0
 2715 0082 BB69     		ldr	r3, [r7, #24]
 2716 0084 0022     		movs	r2, #0
 2717 0086 DA60     		str	r2, [r3, #12]
 740:..\..\..\lvgl\version_6.1.2\lvgl\src\lv_objx/lv_tabview.c ****         ext->btns         = NULL; /*These objects were children so they are already invalid*/
 2718              		.loc 4 740 0
 2719 0088 BB69     		ldr	r3, [r7, #24]
 2720 008a 0022     		movs	r2, #0
 2721 008c 1A60     		str	r2, [r3]
 741:..\..\..\lvgl\version_6.1.2\lvgl\src\lv_objx/lv_tabview.c ****         ext->content      = NULL;
 2722              		.loc 4 741 0
 2723 008e BB69     		ldr	r3, [r7, #24]
 2724 0090 0022     		movs	r2, #0
 2725 0092 9A60     		str	r2, [r3, #8]
 2726              	.LBE7:
 2727 0094 65E0     		b	.L140
 2728              	.L137:
 742:..\..\..\lvgl\version_6.1.2\lvgl\src\lv_objx/lv_tabview.c ****     } else if(sign == LV_SIGNAL_CORD_CHG) {
 2729              		.loc 4 742 0
 2730 0096 FB7A     		ldrb	r3, [r7, #11]	@ zero_extendqisi2
 2731 0098 022B     		cmp	r3, #2
 2732 009a 1DD1     		bne	.L141
 743:..\..\..\lvgl\version_6.1.2\lvgl\src\lv_objx/lv_tabview.c ****         if(ext->content != NULL && (lv_obj_get_width(tabview) != lv_area_get_width(param) ||
 2733              		.loc 4 743 0
 2734 009c BB69     		ldr	r3, [r7, #24]
 2735 009e 9B68     		ldr	r3, [r3, #8]
 2736 00a0 002B     		cmp	r3, #0
 2737 00a2 5ED0     		beq	.L140
 2738              		.loc 4 743 0 is_stmt 0 discriminator 1
 2739 00a4 F868     		ldr	r0, [r7, #12]
 2740 00a6 FFF7FEFF 		bl	lv_obj_get_width
 2741 00aa 0346     		mov	r3, r0
 2742 00ac 1C46     		mov	r4, r3
ARM GAS  C:\Users\tmj32\AppData\Local\Temp\cc94ZBZn.s 			page 69


 2743 00ae 7868     		ldr	r0, [r7, #4]
 2744 00b0 FFF7FEFF 		bl	lv_area_get_width
 2745 00b4 0346     		mov	r3, r0
 2746 00b6 9C42     		cmp	r4, r3
 2747 00b8 0AD1     		bne	.L143
 744:..\..\..\lvgl\version_6.1.2\lvgl\src\lv_objx/lv_tabview.c ****                                     lv_obj_get_height(tabview) != lv_area_get_height(param))) {
 2748              		.loc 4 744 0 is_stmt 1 discriminator 2
 2749 00ba F868     		ldr	r0, [r7, #12]
 2750 00bc FFF7FEFF 		bl	lv_obj_get_height
 2751 00c0 0346     		mov	r3, r0
 2752 00c2 1C46     		mov	r4, r3
 2753 00c4 7868     		ldr	r0, [r7, #4]
 2754 00c6 FFF7FEFF 		bl	lv_area_get_height
 2755 00ca 0346     		mov	r3, r0
 743:..\..\..\lvgl\version_6.1.2\lvgl\src\lv_objx/lv_tabview.c ****         if(ext->content != NULL && (lv_obj_get_width(tabview) != lv_area_get_width(param) ||
 2756              		.loc 4 743 0 discriminator 2
 2757 00cc 9C42     		cmp	r4, r3
 2758 00ce 48D0     		beq	.L140
 2759              	.L143:
 745:..\..\..\lvgl\version_6.1.2\lvgl\src\lv_objx/lv_tabview.c ****             tabview_realign(tabview);
 2760              		.loc 4 745 0
 2761 00d0 F868     		ldr	r0, [r7, #12]
 2762 00d2 FFF7FEFF 		bl	tabview_realign
 2763 00d6 44E0     		b	.L140
 2764              	.L141:
 746:..\..\..\lvgl\version_6.1.2\lvgl\src\lv_objx/lv_tabview.c ****         }
 747:..\..\..\lvgl\version_6.1.2\lvgl\src\lv_objx/lv_tabview.c ****     } else if(sign == LV_SIGNAL_RELEASED) {
 2765              		.loc 4 747 0
 2766 00d8 FB7A     		ldrb	r3, [r7, #11]	@ zero_extendqisi2
 2767 00da 0B2B     		cmp	r3, #11
 2768 00dc 41D0     		beq	.L140
 748:..\..\..\lvgl\version_6.1.2\lvgl\src\lv_objx/lv_tabview.c **** #if LV_USE_GROUP
 749:..\..\..\lvgl\version_6.1.2\lvgl\src\lv_objx/lv_tabview.c ****         /*If released by a KEYPAD or ENCODER then really the tab buttons should be released.
 750:..\..\..\lvgl\version_6.1.2\lvgl\src\lv_objx/lv_tabview.c ****          * So simulate a CLICK on the tab buttons*/
 751:..\..\..\lvgl\version_6.1.2\lvgl\src\lv_objx/lv_tabview.c ****         lv_indev_t * indev         = lv_indev_get_act();
 752:..\..\..\lvgl\version_6.1.2\lvgl\src\lv_objx/lv_tabview.c ****         lv_indev_type_t indev_type = lv_indev_get_type(indev);
 753:..\..\..\lvgl\version_6.1.2\lvgl\src\lv_objx/lv_tabview.c ****         if(indev_type == LV_INDEV_TYPE_KEYPAD ||
 754:..\..\..\lvgl\version_6.1.2\lvgl\src\lv_objx/lv_tabview.c ****            (indev_type == LV_INDEV_TYPE_ENCODER && lv_group_get_editing(lv_obj_get_group(tabview)))
 755:..\..\..\lvgl\version_6.1.2\lvgl\src\lv_objx/lv_tabview.c ****             lv_event_send(ext->btns, LV_EVENT_CLICKED, lv_event_get_data());
 756:..\..\..\lvgl\version_6.1.2\lvgl\src\lv_objx/lv_tabview.c ****         }
 757:..\..\..\lvgl\version_6.1.2\lvgl\src\lv_objx/lv_tabview.c **** #endif
 758:..\..\..\lvgl\version_6.1.2\lvgl\src\lv_objx/lv_tabview.c ****     } else if(sign == LV_SIGNAL_FOCUS || sign == LV_SIGNAL_DEFOCUS || sign == LV_SIGNAL_CONTROL) {
 2769              		.loc 4 758 0
 2770 00de FB7A     		ldrb	r3, [r7, #11]	@ zero_extendqisi2
 2771 00e0 102B     		cmp	r3, #16
 2772 00e2 05D0     		beq	.L144
 2773              		.loc 4 758 0 is_stmt 0 discriminator 1
 2774 00e4 FB7A     		ldrb	r3, [r7, #11]	@ zero_extendqisi2
 2775 00e6 112B     		cmp	r3, #17
 2776 00e8 02D0     		beq	.L144
 2777              		.loc 4 758 0 discriminator 2
 2778 00ea FB7A     		ldrb	r3, [r7, #11]	@ zero_extendqisi2
 2779 00ec 122B     		cmp	r3, #18
 2780 00ee 2ED1     		bne	.L145
 2781              	.L144:
 759:..\..\..\lvgl\version_6.1.2\lvgl\src\lv_objx/lv_tabview.c ****         /* The button matrix is not in a group (the tab view is in it) but it should handle the
 760:..\..\..\lvgl\version_6.1.2\lvgl\src\lv_objx/lv_tabview.c ****          * group signals. So propagate the related signals to the button matrix manually*/
ARM GAS  C:\Users\tmj32\AppData\Local\Temp\cc94ZBZn.s 			page 70


 761:..\..\..\lvgl\version_6.1.2\lvgl\src\lv_objx/lv_tabview.c ****         if(ext->btns) {
 2782              		.loc 4 761 0 is_stmt 1
 2783 00f0 BB69     		ldr	r3, [r7, #24]
 2784 00f2 1B68     		ldr	r3, [r3]
 2785 00f4 002B     		cmp	r3, #0
 2786 00f6 07D0     		beq	.L146
 762:..\..\..\lvgl\version_6.1.2\lvgl\src\lv_objx/lv_tabview.c ****             ext->btns->signal_cb(ext->btns, sign, param);
 2787              		.loc 4 762 0
 2788 00f8 BB69     		ldr	r3, [r7, #24]
 2789 00fa 1B68     		ldr	r3, [r3]
 2790 00fc DB69     		ldr	r3, [r3, #28]
 2791 00fe BA69     		ldr	r2, [r7, #24]
 2792 0100 1068     		ldr	r0, [r2]
 2793 0102 F97A     		ldrb	r1, [r7, #11]	@ zero_extendqisi2
 2794 0104 7A68     		ldr	r2, [r7, #4]
 2795 0106 9847     		blx	r3
 2796              	.L146:
 763:..\..\..\lvgl\version_6.1.2\lvgl\src\lv_objx/lv_tabview.c ****         }
 764:..\..\..\lvgl\version_6.1.2\lvgl\src\lv_objx/lv_tabview.c **** 
 765:..\..\..\lvgl\version_6.1.2\lvgl\src\lv_objx/lv_tabview.c ****         if(sign == LV_SIGNAL_FOCUS) {
 2797              		.loc 4 765 0
 2798 0108 FB7A     		ldrb	r3, [r7, #11]	@ zero_extendqisi2
 2799 010a 102B     		cmp	r3, #16
 2800 010c 28D1     		bne	.L149
 2801              	.LBB8:
 766:..\..\..\lvgl\version_6.1.2\lvgl\src\lv_objx/lv_tabview.c ****             lv_indev_type_t indev_type = lv_indev_get_type(lv_indev_get_act());
 2802              		.loc 4 766 0
 2803 010e FFF7FEFF 		bl	lv_indev_get_act
 2804 0112 0346     		mov	r3, r0
 2805 0114 1846     		mov	r0, r3
 2806 0116 FFF7FEFF 		bl	lv_indev_get_type
 2807 011a 0346     		mov	r3, r0
 2808 011c BB77     		strb	r3, [r7, #30]
 767:..\..\..\lvgl\version_6.1.2\lvgl\src\lv_objx/lv_tabview.c ****             /*If not focused by an input device assume the last input device*/
 768:..\..\..\lvgl\version_6.1.2\lvgl\src\lv_objx/lv_tabview.c ****             if(indev_type == LV_INDEV_TYPE_NONE) {
 2809              		.loc 4 768 0
 2810 011e BB7F     		ldrb	r3, [r7, #30]	@ zero_extendqisi2
 2811 0120 002B     		cmp	r3, #0
 2812 0122 08D1     		bne	.L148
 769:..\..\..\lvgl\version_6.1.2\lvgl\src\lv_objx/lv_tabview.c ****                 indev_type = lv_indev_get_type(lv_indev_get_next(NULL));
 2813              		.loc 4 769 0
 2814 0124 0020     		movs	r0, #0
 2815 0126 FFF7FEFF 		bl	lv_indev_get_next
 2816 012a 0346     		mov	r3, r0
 2817 012c 1846     		mov	r0, r3
 2818 012e FFF7FEFF 		bl	lv_indev_get_type
 2819 0132 0346     		mov	r3, r0
 2820 0134 BB77     		strb	r3, [r7, #30]
 2821              	.L148:
 770:..\..\..\lvgl\version_6.1.2\lvgl\src\lv_objx/lv_tabview.c ****             }
 771:..\..\..\lvgl\version_6.1.2\lvgl\src\lv_objx/lv_tabview.c **** 
 772:..\..\..\lvgl\version_6.1.2\lvgl\src\lv_objx/lv_tabview.c ****             /*With ENCODER select the first button only in edit mode*/
 773:..\..\..\lvgl\version_6.1.2\lvgl\src\lv_objx/lv_tabview.c ****             if(indev_type == LV_INDEV_TYPE_ENCODER) {
 2822              		.loc 4 773 0
 2823 0136 BB7F     		ldrb	r3, [r7, #30]	@ zero_extendqisi2
 2824 0138 042B     		cmp	r3, #4
 2825 013a 11D0     		beq	.L149
ARM GAS  C:\Users\tmj32\AppData\Local\Temp\cc94ZBZn.s 			page 71


 774:..\..\..\lvgl\version_6.1.2\lvgl\src\lv_objx/lv_tabview.c **** #if LV_USE_GROUP
 775:..\..\..\lvgl\version_6.1.2\lvgl\src\lv_objx/lv_tabview.c ****                 lv_group_t * g = lv_obj_get_group(tabview);
 776:..\..\..\lvgl\version_6.1.2\lvgl\src\lv_objx/lv_tabview.c ****                 if(lv_group_get_editing(g)) {
 777:..\..\..\lvgl\version_6.1.2\lvgl\src\lv_objx/lv_tabview.c ****                     lv_btnm_set_pressed(ext->btns, ext->tab_cur);
 778:..\..\..\lvgl\version_6.1.2\lvgl\src\lv_objx/lv_tabview.c ****                 }
 779:..\..\..\lvgl\version_6.1.2\lvgl\src\lv_objx/lv_tabview.c **** #endif
 780:..\..\..\lvgl\version_6.1.2\lvgl\src\lv_objx/lv_tabview.c ****             } else {
 781:..\..\..\lvgl\version_6.1.2\lvgl\src\lv_objx/lv_tabview.c ****                 lv_btnm_set_pressed(ext->btns, ext->tab_cur);
 2826              		.loc 4 781 0
 2827 013c BB69     		ldr	r3, [r7, #24]
 2828 013e 1A68     		ldr	r2, [r3]
 2829 0140 BB69     		ldr	r3, [r7, #24]
 2830 0142 9B8A     		ldrh	r3, [r3, #20]
 2831 0144 1946     		mov	r1, r3
 2832 0146 1046     		mov	r0, r2
 2833 0148 FFF7FEFF 		bl	lv_btnm_set_pressed
 2834              	.LBE8:
 765:..\..\..\lvgl\version_6.1.2\lvgl\src\lv_objx/lv_tabview.c ****             lv_indev_type_t indev_type = lv_indev_get_type(lv_indev_get_act());
 2835              		.loc 4 765 0
 2836 014c 08E0     		b	.L149
 2837              	.L145:
 782:..\..\..\lvgl\version_6.1.2\lvgl\src\lv_objx/lv_tabview.c ****             }
 783:..\..\..\lvgl\version_6.1.2\lvgl\src\lv_objx/lv_tabview.c ****         }
 784:..\..\..\lvgl\version_6.1.2\lvgl\src\lv_objx/lv_tabview.c ****     } else if(sign == LV_SIGNAL_GET_EDITABLE) {
 2838              		.loc 4 784 0
 2839 014e FB7A     		ldrb	r3, [r7, #11]	@ zero_extendqisi2
 2840 0150 132B     		cmp	r3, #19
 2841 0152 06D1     		bne	.L140
 2842              	.LBB9:
 785:..\..\..\lvgl\version_6.1.2\lvgl\src\lv_objx/lv_tabview.c ****         bool * editable = (bool *)param;
 2843              		.loc 4 785 0
 2844 0154 7B68     		ldr	r3, [r7, #4]
 2845 0156 7B61     		str	r3, [r7, #20]
 786:..\..\..\lvgl\version_6.1.2\lvgl\src\lv_objx/lv_tabview.c ****         *editable       = true;
 2846              		.loc 4 786 0
 2847 0158 7B69     		ldr	r3, [r7, #20]
 2848 015a 0122     		movs	r2, #1
 2849 015c 1A70     		strb	r2, [r3]
 2850 015e 00E0     		b	.L140
 2851              	.L149:
 2852              	.LBE9:
 765:..\..\..\lvgl\version_6.1.2\lvgl\src\lv_objx/lv_tabview.c ****             lv_indev_type_t indev_type = lv_indev_get_type(lv_indev_get_act());
 2853              		.loc 4 765 0
 2854 0160 00BF     		nop
 2855              	.L140:
 787:..\..\..\lvgl\version_6.1.2\lvgl\src\lv_objx/lv_tabview.c ****     }
 788:..\..\..\lvgl\version_6.1.2\lvgl\src\lv_objx/lv_tabview.c **** 
 789:..\..\..\lvgl\version_6.1.2\lvgl\src\lv_objx/lv_tabview.c ****     return res;
 2856              		.loc 4 789 0
 2857 0162 7B7F     		ldrb	r3, [r7, #29]	@ zero_extendqisi2
 2858              	.L135:
 790:..\..\..\lvgl\version_6.1.2\lvgl\src\lv_objx/lv_tabview.c **** }
 2859              		.loc 4 790 0
 2860 0164 1846     		mov	r0, r3
 2861 0166 2437     		adds	r7, r7, #36
 2862              		.cfi_def_cfa_offset 12
 2863 0168 BD46     		mov	sp, r7
ARM GAS  C:\Users\tmj32\AppData\Local\Temp\cc94ZBZn.s 			page 72


 2864              		.cfi_def_cfa_register 13
 2865              		@ sp needed
 2866 016a 90BD     		pop	{r4, r7, pc}
 2867              	.L151:
 2868              		.align	2
 2869              	.L150:
 2870 016c 00000000 		.word	ancestor_signal
 2871 0170 08000000 		.word	.LC2
 2872              		.cfi_endproc
 2873              	.LFE85:
 2874              		.size	lv_tabview_signal, .-lv_tabview_signal
 2875              		.section	.text.tabpage_signal,"ax",%progbits
 2876              		.align	2
 2877              		.thumb
 2878              		.thumb_func
 2879              		.type	tabpage_signal, %function
 2880              	tabpage_signal:
 2881              	.LFB86:
 791:..\..\..\lvgl\version_6.1.2\lvgl\src\lv_objx/lv_tabview.c **** 
 792:..\..\..\lvgl\version_6.1.2\lvgl\src\lv_objx/lv_tabview.c **** /**
 793:..\..\..\lvgl\version_6.1.2\lvgl\src\lv_objx/lv_tabview.c ****  * Signal function of a tab's page
 794:..\..\..\lvgl\version_6.1.2\lvgl\src\lv_objx/lv_tabview.c ****  * @param tab pointer to a tab page object
 795:..\..\..\lvgl\version_6.1.2\lvgl\src\lv_objx/lv_tabview.c ****  * @param sign a signal type from lv_signal_t enum
 796:..\..\..\lvgl\version_6.1.2\lvgl\src\lv_objx/lv_tabview.c ****  * @param param pointer to a signal specific variable
 797:..\..\..\lvgl\version_6.1.2\lvgl\src\lv_objx/lv_tabview.c ****  * @return LV_RES_OK: the object is not deleted in the function; LV_RES_INV: the object is deleted
 798:..\..\..\lvgl\version_6.1.2\lvgl\src\lv_objx/lv_tabview.c ****  */
 799:..\..\..\lvgl\version_6.1.2\lvgl\src\lv_objx/lv_tabview.c **** static lv_res_t tabpage_signal(lv_obj_t * tab_page, lv_signal_t sign, void * param)
 800:..\..\..\lvgl\version_6.1.2\lvgl\src\lv_objx/lv_tabview.c **** {
 2882              		.loc 4 800 0
 2883              		.cfi_startproc
 2884              		@ args = 0, pretend = 0, frame = 32
 2885              		@ frame_needed = 1, uses_anonymous_args = 0
 2886 0000 80B5     		push	{r7, lr}
 2887              		.cfi_def_cfa_offset 8
 2888              		.cfi_offset 7, -8
 2889              		.cfi_offset 14, -4
 2890 0002 88B0     		sub	sp, sp, #32
 2891              		.cfi_def_cfa_offset 40
 2892 0004 00AF     		add	r7, sp, #0
 2893              		.cfi_def_cfa_register 7
 2894 0006 F860     		str	r0, [r7, #12]
 2895 0008 0B46     		mov	r3, r1
 2896 000a 7A60     		str	r2, [r7, #4]
 2897 000c FB72     		strb	r3, [r7, #11]
 801:..\..\..\lvgl\version_6.1.2\lvgl\src\lv_objx/lv_tabview.c ****     lv_res_t res;
 802:..\..\..\lvgl\version_6.1.2\lvgl\src\lv_objx/lv_tabview.c **** 
 803:..\..\..\lvgl\version_6.1.2\lvgl\src\lv_objx/lv_tabview.c ****     /* Include the ancient signal function */
 804:..\..\..\lvgl\version_6.1.2\lvgl\src\lv_objx/lv_tabview.c ****     res = page_signal(tab_page, sign, param);
 2898              		.loc 4 804 0
 2899 000e 244B     		ldr	r3, .L161
 2900 0010 1B68     		ldr	r3, [r3]
 2901 0012 F97A     		ldrb	r1, [r7, #11]	@ zero_extendqisi2
 2902 0014 7A68     		ldr	r2, [r7, #4]
 2903 0016 F868     		ldr	r0, [r7, #12]
 2904 0018 9847     		blx	r3
 2905 001a 0346     		mov	r3, r0
 2906 001c FB77     		strb	r3, [r7, #31]
ARM GAS  C:\Users\tmj32\AppData\Local\Temp\cc94ZBZn.s 			page 73


 805:..\..\..\lvgl\version_6.1.2\lvgl\src\lv_objx/lv_tabview.c ****     if(res != LV_RES_OK) return res;
 2907              		.loc 4 805 0
 2908 001e FB7F     		ldrb	r3, [r7, #31]	@ zero_extendqisi2
 2909 0020 012B     		cmp	r3, #1
 2910 0022 01D0     		beq	.L153
 2911              		.loc 4 805 0 is_stmt 0 discriminator 1
 2912 0024 FB7F     		ldrb	r3, [r7, #31]	@ zero_extendqisi2
 2913 0026 36E0     		b	.L154
 2914              	.L153:
 806:..\..\..\lvgl\version_6.1.2\lvgl\src\lv_objx/lv_tabview.c ****     if(sign == LV_SIGNAL_GET_TYPE) return lv_obj_handle_get_type_signal(param, "");
 2915              		.loc 4 806 0 is_stmt 1
 2916 0028 FB7A     		ldrb	r3, [r7, #11]	@ zero_extendqisi2
 2917 002a 072B     		cmp	r3, #7
 2918 002c 05D1     		bne	.L155
 2919              		.loc 4 806 0 is_stmt 0 discriminator 1
 2920 002e 1D49     		ldr	r1, .L161+4
 2921 0030 7868     		ldr	r0, [r7, #4]
 2922 0032 FFF7FEFF 		bl	lv_obj_handle_get_type_signal
 2923 0036 0346     		mov	r3, r0
 2924 0038 2DE0     		b	.L154
 2925              	.L155:
 807:..\..\..\lvgl\version_6.1.2\lvgl\src\lv_objx/lv_tabview.c **** 
 808:..\..\..\lvgl\version_6.1.2\lvgl\src\lv_objx/lv_tabview.c ****     lv_obj_t * cont    = lv_obj_get_parent(tab_page);
 2926              		.loc 4 808 0 is_stmt 1
 2927 003a F868     		ldr	r0, [r7, #12]
 2928 003c FFF7FEFF 		bl	lv_obj_get_parent
 2929 0040 B861     		str	r0, [r7, #24]
 809:..\..\..\lvgl\version_6.1.2\lvgl\src\lv_objx/lv_tabview.c ****     lv_obj_t * tabview = lv_obj_get_parent(cont);
 2930              		.loc 4 809 0
 2931 0042 B869     		ldr	r0, [r7, #24]
 2932 0044 FFF7FEFF 		bl	lv_obj_get_parent
 2933 0048 7861     		str	r0, [r7, #20]
 810:..\..\..\lvgl\version_6.1.2\lvgl\src\lv_objx/lv_tabview.c **** 
 811:..\..\..\lvgl\version_6.1.2\lvgl\src\lv_objx/lv_tabview.c ****     if(lv_tabview_get_sliding(tabview) == false) return res;
 2934              		.loc 4 811 0
 2935 004a 7869     		ldr	r0, [r7, #20]
 2936 004c FFF7FEFF 		bl	lv_tabview_get_sliding
 2937 0050 0346     		mov	r3, r0
 2938 0052 83F00103 		eor	r3, r3, #1
 2939 0056 DBB2     		uxtb	r3, r3
 2940 0058 002B     		cmp	r3, #0
 2941 005a 01D0     		beq	.L156
 2942              		.loc 4 811 0 is_stmt 0 discriminator 1
 2943 005c FB7F     		ldrb	r3, [r7, #31]	@ zero_extendqisi2
 2944 005e 1AE0     		b	.L154
 2945              	.L156:
 812:..\..\..\lvgl\version_6.1.2\lvgl\src\lv_objx/lv_tabview.c **** 
 813:..\..\..\lvgl\version_6.1.2\lvgl\src\lv_objx/lv_tabview.c ****     if(sign == LV_SIGNAL_PRESSED) {
 2946              		.loc 4 813 0 is_stmt 1
 2947 0060 FB7A     		ldrb	r3, [r7, #11]	@ zero_extendqisi2
 2948 0062 082B     		cmp	r3, #8
 2949 0064 04D1     		bne	.L157
 814:..\..\..\lvgl\version_6.1.2\lvgl\src\lv_objx/lv_tabview.c ****         tabpage_pressed_handler(tabview, tab_page);
 2950              		.loc 4 814 0
 2951 0066 F968     		ldr	r1, [r7, #12]
 2952 0068 7869     		ldr	r0, [r7, #20]
 2953 006a FFF7FEFF 		bl	tabpage_pressed_handler
ARM GAS  C:\Users\tmj32\AppData\Local\Temp\cc94ZBZn.s 			page 74


 2954 006e 11E0     		b	.L158
 2955              	.L157:
 815:..\..\..\lvgl\version_6.1.2\lvgl\src\lv_objx/lv_tabview.c ****     } else if(sign == LV_SIGNAL_PRESSING) {
 2956              		.loc 4 815 0
 2957 0070 FB7A     		ldrb	r3, [r7, #11]	@ zero_extendqisi2
 2958 0072 092B     		cmp	r3, #9
 2959 0074 04D1     		bne	.L159
 816:..\..\..\lvgl\version_6.1.2\lvgl\src\lv_objx/lv_tabview.c ****         tabpage_pressing_handler(tabview, tab_page);
 2960              		.loc 4 816 0
 2961 0076 F968     		ldr	r1, [r7, #12]
 2962 0078 7869     		ldr	r0, [r7, #20]
 2963 007a FFF7FEFF 		bl	tabpage_pressing_handler
 2964 007e 09E0     		b	.L158
 2965              	.L159:
 817:..\..\..\lvgl\version_6.1.2\lvgl\src\lv_objx/lv_tabview.c ****     } else if(sign == LV_SIGNAL_RELEASED || sign == LV_SIGNAL_PRESS_LOST) {
 2966              		.loc 4 817 0
 2967 0080 FB7A     		ldrb	r3, [r7, #11]	@ zero_extendqisi2
 2968 0082 0B2B     		cmp	r3, #11
 2969 0084 02D0     		beq	.L160
 2970              		.loc 4 817 0 is_stmt 0 discriminator 1
 2971 0086 FB7A     		ldrb	r3, [r7, #11]	@ zero_extendqisi2
 2972 0088 0A2B     		cmp	r3, #10
 2973 008a 03D1     		bne	.L158
 2974              	.L160:
 818:..\..\..\lvgl\version_6.1.2\lvgl\src\lv_objx/lv_tabview.c ****         tabpage_press_lost_handler(tabview, tab_page);
 2975              		.loc 4 818 0 is_stmt 1
 2976 008c F968     		ldr	r1, [r7, #12]
 2977 008e 7869     		ldr	r0, [r7, #20]
 2978 0090 FFF7FEFF 		bl	tabpage_press_lost_handler
 2979              	.L158:
 819:..\..\..\lvgl\version_6.1.2\lvgl\src\lv_objx/lv_tabview.c ****     }
 820:..\..\..\lvgl\version_6.1.2\lvgl\src\lv_objx/lv_tabview.c **** 
 821:..\..\..\lvgl\version_6.1.2\lvgl\src\lv_objx/lv_tabview.c ****     return res;
 2980              		.loc 4 821 0
 2981 0094 FB7F     		ldrb	r3, [r7, #31]	@ zero_extendqisi2
 2982              	.L154:
 822:..\..\..\lvgl\version_6.1.2\lvgl\src\lv_objx/lv_tabview.c **** }
 2983              		.loc 4 822 0
 2984 0096 1846     		mov	r0, r3
 2985 0098 2037     		adds	r7, r7, #32
 2986              		.cfi_def_cfa_offset 8
 2987 009a BD46     		mov	sp, r7
 2988              		.cfi_def_cfa_register 13
 2989              		@ sp needed
 2990 009c 80BD     		pop	{r7, pc}
 2991              	.L162:
 2992 009e 00BF     		.align	2
 2993              	.L161:
 2994 00a0 04000000 		.word	page_signal
 2995 00a4 00000000 		.word	.LC0
 2996              		.cfi_endproc
 2997              	.LFE86:
 2998              		.size	tabpage_signal, .-tabpage_signal
 2999              		.section	.text.tabpage_scrl_signal,"ax",%progbits
 3000              		.align	2
 3001              		.thumb
 3002              		.thumb_func
ARM GAS  C:\Users\tmj32\AppData\Local\Temp\cc94ZBZn.s 			page 75


 3003              		.type	tabpage_scrl_signal, %function
 3004              	tabpage_scrl_signal:
 3005              	.LFB87:
 823:..\..\..\lvgl\version_6.1.2\lvgl\src\lv_objx/lv_tabview.c **** /**
 824:..\..\..\lvgl\version_6.1.2\lvgl\src\lv_objx/lv_tabview.c ****  * Signal function of the tab page's scrollable object
 825:..\..\..\lvgl\version_6.1.2\lvgl\src\lv_objx/lv_tabview.c ****  * @param tab_scrl pointer to a tab page's scrollable object
 826:..\..\..\lvgl\version_6.1.2\lvgl\src\lv_objx/lv_tabview.c ****  * @param sign a signal type from lv_signal_t enum
 827:..\..\..\lvgl\version_6.1.2\lvgl\src\lv_objx/lv_tabview.c ****  * @param param pointer to a signal specific variable
 828:..\..\..\lvgl\version_6.1.2\lvgl\src\lv_objx/lv_tabview.c ****  * @return LV_RES_OK: the object is not deleted in the function; LV_RES_INV: the object is deleted
 829:..\..\..\lvgl\version_6.1.2\lvgl\src\lv_objx/lv_tabview.c ****  */
 830:..\..\..\lvgl\version_6.1.2\lvgl\src\lv_objx/lv_tabview.c **** static lv_res_t tabpage_scrl_signal(lv_obj_t * tab_scrl, lv_signal_t sign, void * param)
 831:..\..\..\lvgl\version_6.1.2\lvgl\src\lv_objx/lv_tabview.c **** {
 3006              		.loc 4 831 0
 3007              		.cfi_startproc
 3008              		@ args = 0, pretend = 0, frame = 32
 3009              		@ frame_needed = 1, uses_anonymous_args = 0
 3010 0000 80B5     		push	{r7, lr}
 3011              		.cfi_def_cfa_offset 8
 3012              		.cfi_offset 7, -8
 3013              		.cfi_offset 14, -4
 3014 0002 88B0     		sub	sp, sp, #32
 3015              		.cfi_def_cfa_offset 40
 3016 0004 00AF     		add	r7, sp, #0
 3017              		.cfi_def_cfa_register 7
 3018 0006 F860     		str	r0, [r7, #12]
 3019 0008 0B46     		mov	r3, r1
 3020 000a 7A60     		str	r2, [r7, #4]
 3021 000c FB72     		strb	r3, [r7, #11]
 832:..\..\..\lvgl\version_6.1.2\lvgl\src\lv_objx/lv_tabview.c ****     lv_res_t res;
 833:..\..\..\lvgl\version_6.1.2\lvgl\src\lv_objx/lv_tabview.c **** 
 834:..\..\..\lvgl\version_6.1.2\lvgl\src\lv_objx/lv_tabview.c ****     /* Include the ancient signal function */
 835:..\..\..\lvgl\version_6.1.2\lvgl\src\lv_objx/lv_tabview.c ****     res = page_scrl_signal(tab_scrl, sign, param);
 3022              		.loc 4 835 0
 3023 000e 264B     		ldr	r3, .L172
 3024 0010 1B68     		ldr	r3, [r3]
 3025 0012 F97A     		ldrb	r1, [r7, #11]	@ zero_extendqisi2
 3026 0014 7A68     		ldr	r2, [r7, #4]
 3027 0016 F868     		ldr	r0, [r7, #12]
 3028 0018 9847     		blx	r3
 3029 001a 0346     		mov	r3, r0
 3030 001c FB77     		strb	r3, [r7, #31]
 836:..\..\..\lvgl\version_6.1.2\lvgl\src\lv_objx/lv_tabview.c ****     if(res != LV_RES_OK) return res;
 3031              		.loc 4 836 0
 3032 001e FB7F     		ldrb	r3, [r7, #31]	@ zero_extendqisi2
 3033 0020 012B     		cmp	r3, #1
 3034 0022 01D0     		beq	.L164
 3035              		.loc 4 836 0 is_stmt 0 discriminator 1
 3036 0024 FB7F     		ldrb	r3, [r7, #31]	@ zero_extendqisi2
 3037 0026 3AE0     		b	.L165
 3038              	.L164:
 837:..\..\..\lvgl\version_6.1.2\lvgl\src\lv_objx/lv_tabview.c ****     if(sign == LV_SIGNAL_GET_TYPE) return lv_obj_handle_get_type_signal(param, "");
 3039              		.loc 4 837 0 is_stmt 1
 3040 0028 FB7A     		ldrb	r3, [r7, #11]	@ zero_extendqisi2
 3041 002a 072B     		cmp	r3, #7
 3042 002c 05D1     		bne	.L166
 3043              		.loc 4 837 0 is_stmt 0 discriminator 1
 3044 002e 1F49     		ldr	r1, .L172+4
ARM GAS  C:\Users\tmj32\AppData\Local\Temp\cc94ZBZn.s 			page 76


 3045 0030 7868     		ldr	r0, [r7, #4]
 3046 0032 FFF7FEFF 		bl	lv_obj_handle_get_type_signal
 3047 0036 0346     		mov	r3, r0
 3048 0038 31E0     		b	.L165
 3049              	.L166:
 838:..\..\..\lvgl\version_6.1.2\lvgl\src\lv_objx/lv_tabview.c **** 
 839:..\..\..\lvgl\version_6.1.2\lvgl\src\lv_objx/lv_tabview.c ****     lv_obj_t * tab_page = lv_obj_get_parent(tab_scrl);
 3050              		.loc 4 839 0 is_stmt 1
 3051 003a F868     		ldr	r0, [r7, #12]
 3052 003c FFF7FEFF 		bl	lv_obj_get_parent
 3053 0040 B861     		str	r0, [r7, #24]
 840:..\..\..\lvgl\version_6.1.2\lvgl\src\lv_objx/lv_tabview.c ****     lv_obj_t * cont     = lv_obj_get_parent(tab_page);
 3054              		.loc 4 840 0
 3055 0042 B869     		ldr	r0, [r7, #24]
 3056 0044 FFF7FEFF 		bl	lv_obj_get_parent
 3057 0048 7861     		str	r0, [r7, #20]
 841:..\..\..\lvgl\version_6.1.2\lvgl\src\lv_objx/lv_tabview.c ****     lv_obj_t * tabview  = lv_obj_get_parent(cont);
 3058              		.loc 4 841 0
 3059 004a 7869     		ldr	r0, [r7, #20]
 3060 004c FFF7FEFF 		bl	lv_obj_get_parent
 3061 0050 3861     		str	r0, [r7, #16]
 842:..\..\..\lvgl\version_6.1.2\lvgl\src\lv_objx/lv_tabview.c **** 
 843:..\..\..\lvgl\version_6.1.2\lvgl\src\lv_objx/lv_tabview.c ****     if(lv_tabview_get_sliding(tabview) == false) return res;
 3062              		.loc 4 843 0
 3063 0052 3869     		ldr	r0, [r7, #16]
 3064 0054 FFF7FEFF 		bl	lv_tabview_get_sliding
 3065 0058 0346     		mov	r3, r0
 3066 005a 83F00103 		eor	r3, r3, #1
 3067 005e DBB2     		uxtb	r3, r3
 3068 0060 002B     		cmp	r3, #0
 3069 0062 01D0     		beq	.L167
 3070              		.loc 4 843 0 is_stmt 0 discriminator 1
 3071 0064 FB7F     		ldrb	r3, [r7, #31]	@ zero_extendqisi2
 3072 0066 1AE0     		b	.L165
 3073              	.L167:
 844:..\..\..\lvgl\version_6.1.2\lvgl\src\lv_objx/lv_tabview.c **** 
 845:..\..\..\lvgl\version_6.1.2\lvgl\src\lv_objx/lv_tabview.c ****     if(sign == LV_SIGNAL_PRESSED) {
 3074              		.loc 4 845 0 is_stmt 1
 3075 0068 FB7A     		ldrb	r3, [r7, #11]	@ zero_extendqisi2
 3076 006a 082B     		cmp	r3, #8
 3077 006c 04D1     		bne	.L168
 846:..\..\..\lvgl\version_6.1.2\lvgl\src\lv_objx/lv_tabview.c ****         tabpage_pressed_handler(tabview, tab_page);
 3078              		.loc 4 846 0
 3079 006e B969     		ldr	r1, [r7, #24]
 3080 0070 3869     		ldr	r0, [r7, #16]
 3081 0072 FFF7FEFF 		bl	tabpage_pressed_handler
 3082 0076 11E0     		b	.L169
 3083              	.L168:
 847:..\..\..\lvgl\version_6.1.2\lvgl\src\lv_objx/lv_tabview.c ****     } else if(sign == LV_SIGNAL_PRESSING) {
 3084              		.loc 4 847 0
 3085 0078 FB7A     		ldrb	r3, [r7, #11]	@ zero_extendqisi2
 3086 007a 092B     		cmp	r3, #9
 3087 007c 04D1     		bne	.L170
 848:..\..\..\lvgl\version_6.1.2\lvgl\src\lv_objx/lv_tabview.c ****         tabpage_pressing_handler(tabview, tab_page);
 3088              		.loc 4 848 0
 3089 007e B969     		ldr	r1, [r7, #24]
 3090 0080 3869     		ldr	r0, [r7, #16]
ARM GAS  C:\Users\tmj32\AppData\Local\Temp\cc94ZBZn.s 			page 77


 3091 0082 FFF7FEFF 		bl	tabpage_pressing_handler
 3092 0086 09E0     		b	.L169
 3093              	.L170:
 849:..\..\..\lvgl\version_6.1.2\lvgl\src\lv_objx/lv_tabview.c ****     } else if(sign == LV_SIGNAL_RELEASED || sign == LV_SIGNAL_PRESS_LOST) {
 3094              		.loc 4 849 0
 3095 0088 FB7A     		ldrb	r3, [r7, #11]	@ zero_extendqisi2
 3096 008a 0B2B     		cmp	r3, #11
 3097 008c 02D0     		beq	.L171
 3098              		.loc 4 849 0 is_stmt 0 discriminator 1
 3099 008e FB7A     		ldrb	r3, [r7, #11]	@ zero_extendqisi2
 3100 0090 0A2B     		cmp	r3, #10
 3101 0092 03D1     		bne	.L169
 3102              	.L171:
 850:..\..\..\lvgl\version_6.1.2\lvgl\src\lv_objx/lv_tabview.c ****         tabpage_press_lost_handler(tabview, tab_page);
 3103              		.loc 4 850 0 is_stmt 1
 3104 0094 B969     		ldr	r1, [r7, #24]
 3105 0096 3869     		ldr	r0, [r7, #16]
 3106 0098 FFF7FEFF 		bl	tabpage_press_lost_handler
 3107              	.L169:
 851:..\..\..\lvgl\version_6.1.2\lvgl\src\lv_objx/lv_tabview.c ****     }
 852:..\..\..\lvgl\version_6.1.2\lvgl\src\lv_objx/lv_tabview.c **** 
 853:..\..\..\lvgl\version_6.1.2\lvgl\src\lv_objx/lv_tabview.c ****     return res;
 3108              		.loc 4 853 0
 3109 009c FB7F     		ldrb	r3, [r7, #31]	@ zero_extendqisi2
 3110              	.L165:
 854:..\..\..\lvgl\version_6.1.2\lvgl\src\lv_objx/lv_tabview.c **** }
 3111              		.loc 4 854 0
 3112 009e 1846     		mov	r0, r3
 3113 00a0 2037     		adds	r7, r7, #32
 3114              		.cfi_def_cfa_offset 8
 3115 00a2 BD46     		mov	sp, r7
 3116              		.cfi_def_cfa_register 13
 3117              		@ sp needed
 3118 00a4 80BD     		pop	{r7, pc}
 3119              	.L173:
 3120 00a6 00BF     		.align	2
 3121              	.L172:
 3122 00a8 08000000 		.word	page_scrl_signal
 3123 00ac 00000000 		.word	.LC0
 3124              		.cfi_endproc
 3125              	.LFE87:
 3126              		.size	tabpage_scrl_signal, .-tabpage_scrl_signal
 3127              		.section	.text.tabpage_pressed_handler,"ax",%progbits
 3128              		.align	2
 3129              		.thumb
 3130              		.thumb_func
 3131              		.type	tabpage_pressed_handler, %function
 3132              	tabpage_pressed_handler:
 3133              	.LFB88:
 855:..\..\..\lvgl\version_6.1.2\lvgl\src\lv_objx/lv_tabview.c **** 
 856:..\..\..\lvgl\version_6.1.2\lvgl\src\lv_objx/lv_tabview.c **** /**
 857:..\..\..\lvgl\version_6.1.2\lvgl\src\lv_objx/lv_tabview.c ****  * Called when a tab's page or scrollable object is pressed
 858:..\..\..\lvgl\version_6.1.2\lvgl\src\lv_objx/lv_tabview.c ****  * @param tabview pointer to the btn view object
 859:..\..\..\lvgl\version_6.1.2\lvgl\src\lv_objx/lv_tabview.c ****  * @param tabpage pointer to the page of a btn
 860:..\..\..\lvgl\version_6.1.2\lvgl\src\lv_objx/lv_tabview.c ****  */
 861:..\..\..\lvgl\version_6.1.2\lvgl\src\lv_objx/lv_tabview.c **** static void tabpage_pressed_handler(lv_obj_t * tabview, lv_obj_t * tabpage)
 862:..\..\..\lvgl\version_6.1.2\lvgl\src\lv_objx/lv_tabview.c **** {
ARM GAS  C:\Users\tmj32\AppData\Local\Temp\cc94ZBZn.s 			page 78


 3134              		.loc 4 862 0
 3135              		.cfi_startproc
 3136              		@ args = 0, pretend = 0, frame = 16
 3137              		@ frame_needed = 1, uses_anonymous_args = 0
 3138 0000 80B5     		push	{r7, lr}
 3139              		.cfi_def_cfa_offset 8
 3140              		.cfi_offset 7, -8
 3141              		.cfi_offset 14, -4
 3142 0002 84B0     		sub	sp, sp, #16
 3143              		.cfi_def_cfa_offset 24
 3144 0004 00AF     		add	r7, sp, #0
 3145              		.cfi_def_cfa_register 7
 3146 0006 7860     		str	r0, [r7, #4]
 3147 0008 3960     		str	r1, [r7]
 863:..\..\..\lvgl\version_6.1.2\lvgl\src\lv_objx/lv_tabview.c ****     (void)tabpage;
 864:..\..\..\lvgl\version_6.1.2\lvgl\src\lv_objx/lv_tabview.c **** 
 865:..\..\..\lvgl\version_6.1.2\lvgl\src\lv_objx/lv_tabview.c ****     lv_tabview_ext_t * ext = lv_obj_get_ext_attr(tabview);
 3148              		.loc 4 865 0
 3149 000a 7868     		ldr	r0, [r7, #4]
 3150 000c FFF7FEFF 		bl	lv_obj_get_ext_attr
 3151 0010 F860     		str	r0, [r7, #12]
 866:..\..\..\lvgl\version_6.1.2\lvgl\src\lv_objx/lv_tabview.c ****     lv_indev_t * indev     = lv_indev_get_act();
 3152              		.loc 4 866 0
 3153 0012 FFF7FEFF 		bl	lv_indev_get_act
 3154 0016 B860     		str	r0, [r7, #8]
 867:..\..\..\lvgl\version_6.1.2\lvgl\src\lv_objx/lv_tabview.c ****     lv_indev_get_point(indev, &ext->point_last);
 3155              		.loc 4 867 0
 3156 0018 FB68     		ldr	r3, [r7, #12]
 3157 001a 1033     		adds	r3, r3, #16
 3158 001c 1946     		mov	r1, r3
 3159 001e B868     		ldr	r0, [r7, #8]
 3160 0020 FFF7FEFF 		bl	lv_indev_get_point
 868:..\..\..\lvgl\version_6.1.2\lvgl\src\lv_objx/lv_tabview.c **** }
 3161              		.loc 4 868 0
 3162 0024 00BF     		nop
 3163 0026 1037     		adds	r7, r7, #16
 3164              		.cfi_def_cfa_offset 8
 3165 0028 BD46     		mov	sp, r7
 3166              		.cfi_def_cfa_register 13
 3167              		@ sp needed
 3168 002a 80BD     		pop	{r7, pc}
 3169              		.cfi_endproc
 3170              	.LFE88:
 3171              		.size	tabpage_pressed_handler, .-tabpage_pressed_handler
 3172              		.section	.text.tabpage_pressing_handler,"ax",%progbits
 3173              		.align	2
 3174              		.thumb
 3175              		.thumb_func
 3176              		.type	tabpage_pressing_handler, %function
 3177              	tabpage_pressing_handler:
 3178              	.LFB89:
 869:..\..\..\lvgl\version_6.1.2\lvgl\src\lv_objx/lv_tabview.c **** 
 870:..\..\..\lvgl\version_6.1.2\lvgl\src\lv_objx/lv_tabview.c **** /**
 871:..\..\..\lvgl\version_6.1.2\lvgl\src\lv_objx/lv_tabview.c ****  * Called when a tab's page or scrollable object is being pressed
 872:..\..\..\lvgl\version_6.1.2\lvgl\src\lv_objx/lv_tabview.c ****  * @param tabview pointer to the btn view object
 873:..\..\..\lvgl\version_6.1.2\lvgl\src\lv_objx/lv_tabview.c ****  * @param tabpage pointer to the page of a btn
 874:..\..\..\lvgl\version_6.1.2\lvgl\src\lv_objx/lv_tabview.c ****  */
ARM GAS  C:\Users\tmj32\AppData\Local\Temp\cc94ZBZn.s 			page 79


 875:..\..\..\lvgl\version_6.1.2\lvgl\src\lv_objx/lv_tabview.c **** static void tabpage_pressing_handler(lv_obj_t * tabview, lv_obj_t * tabpage)
 876:..\..\..\lvgl\version_6.1.2\lvgl\src\lv_objx/lv_tabview.c **** {
 3179              		.loc 4 876 0
 3180              		.cfi_startproc
 3181              		@ args = 0, pretend = 0, frame = 48
 3182              		@ frame_needed = 1, uses_anonymous_args = 0
 3183 0000 90B5     		push	{r4, r7, lr}
 3184              		.cfi_def_cfa_offset 12
 3185              		.cfi_offset 4, -12
 3186              		.cfi_offset 7, -8
 3187              		.cfi_offset 14, -4
 3188 0002 8DB0     		sub	sp, sp, #52
 3189              		.cfi_def_cfa_offset 64
 3190 0004 00AF     		add	r7, sp, #0
 3191              		.cfi_def_cfa_register 7
 3192 0006 7860     		str	r0, [r7, #4]
 3193 0008 3960     		str	r1, [r7]
 877:..\..\..\lvgl\version_6.1.2\lvgl\src\lv_objx/lv_tabview.c ****     lv_tabview_ext_t * ext = lv_obj_get_ext_attr(tabview);
 3194              		.loc 4 877 0
 3195 000a 7868     		ldr	r0, [r7, #4]
 3196 000c FFF7FEFF 		bl	lv_obj_get_ext_attr
 3197 0010 B862     		str	r0, [r7, #40]
 878:..\..\..\lvgl\version_6.1.2\lvgl\src\lv_objx/lv_tabview.c ****     lv_indev_t * indev     = lv_indev_get_act();
 3198              		.loc 4 878 0
 3199 0012 FFF7FEFF 		bl	lv_indev_get_act
 3200 0016 7862     		str	r0, [r7, #36]
 879:..\..\..\lvgl\version_6.1.2\lvgl\src\lv_objx/lv_tabview.c ****     lv_point_t point_act;
 880:..\..\..\lvgl\version_6.1.2\lvgl\src\lv_objx/lv_tabview.c ****     lv_indev_get_point(indev, &point_act);
 3201              		.loc 4 880 0
 3202 0018 07F10C03 		add	r3, r7, #12
 3203 001c 1946     		mov	r1, r3
 3204 001e 786A     		ldr	r0, [r7, #36]
 3205 0020 FFF7FEFF 		bl	lv_indev_get_point
 881:..\..\..\lvgl\version_6.1.2\lvgl\src\lv_objx/lv_tabview.c ****     lv_coord_t x_diff = point_act.x - ext->point_last.x;
 3206              		.loc 4 881 0
 3207 0024 B7F90C30 		ldrsh	r3, [r7, #12]
 3208 0028 9AB2     		uxth	r2, r3
 3209 002a BB6A     		ldr	r3, [r7, #40]
 3210 002c B3F91030 		ldrsh	r3, [r3, #16]
 3211 0030 9BB2     		uxth	r3, r3
 3212 0032 D31A     		subs	r3, r2, r3
 3213 0034 9BB2     		uxth	r3, r3
 3214 0036 7B84     		strh	r3, [r7, #34]	@ movhi
 882:..\..\..\lvgl\version_6.1.2\lvgl\src\lv_objx/lv_tabview.c ****     lv_coord_t y_diff = point_act.y - ext->point_last.y;
 3215              		.loc 4 882 0
 3216 0038 B7F90E30 		ldrsh	r3, [r7, #14]
 3217 003c 9AB2     		uxth	r2, r3
 3218 003e BB6A     		ldr	r3, [r7, #40]
 3219 0040 B3F91230 		ldrsh	r3, [r3, #18]
 3220 0044 9BB2     		uxth	r3, r3
 3221 0046 D31A     		subs	r3, r2, r3
 3222 0048 9BB2     		uxth	r3, r3
 3223 004a 3B84     		strh	r3, [r7, #32]	@ movhi
 883:..\..\..\lvgl\version_6.1.2\lvgl\src\lv_objx/lv_tabview.c **** 
 884:..\..\..\lvgl\version_6.1.2\lvgl\src\lv_objx/lv_tabview.c ****     if(!ext->scroll_ver && (x_diff >= LV_INDEV_DEF_DRAG_LIMIT || x_diff <= -LV_INDEV_DEF_DRAG_LIMIT
 3224              		.loc 4 884 0
 3225 004c BB6A     		ldr	r3, [r7, #40]
ARM GAS  C:\Users\tmj32\AppData\Local\Temp\cc94ZBZn.s 			page 80


 3226 004e 9B7E     		ldrb	r3, [r3, #26]	@ zero_extendqisi2
 3227 0050 03F00803 		and	r3, r3, #8
 3228 0054 DBB2     		uxtb	r3, r3
 3229 0056 002B     		cmp	r3, #0
 3230 0058 4DD1     		bne	.L176
 3231              		.loc 4 884 0 is_stmt 0 discriminator 1
 3232 005a B7F92230 		ldrsh	r3, [r7, #34]
 3233 005e 092B     		cmp	r3, #9
 3234 0060 04DC     		bgt	.L177
 3235              		.loc 4 884 0 discriminator 2
 3236 0062 B7F92230 		ldrsh	r3, [r7, #34]
 3237 0066 13F1090F 		cmn	r3, #9
 3238 006a 44DA     		bge	.L176
 3239              	.L177:
 885:..\..\..\lvgl\version_6.1.2\lvgl\src\lv_objx/lv_tabview.c ****         ext->draging = 1;
 3240              		.loc 4 885 0 is_stmt 1
 3241 006c BA6A     		ldr	r2, [r7, #40]
 3242 006e 937E     		ldrb	r3, [r2, #26]
 3243 0070 43F00203 		orr	r3, r3, #2
 3244 0074 9376     		strb	r3, [r2, #26]
 886:..\..\..\lvgl\version_6.1.2\lvgl\src\lv_objx/lv_tabview.c ****         /*Check if the page is on the edge */
 887:..\..\..\lvgl\version_6.1.2\lvgl\src\lv_objx/lv_tabview.c ****         if((lv_page_on_edge(tabpage, LV_PAGE_EDGE_LEFT) && x_diff > 0) ||
 3245              		.loc 4 887 0
 3246 0076 0121     		movs	r1, #1
 3247 0078 3868     		ldr	r0, [r7]
 3248 007a FFF7FEFF 		bl	lv_page_on_edge
 3249 007e 0346     		mov	r3, r0
 3250 0080 002B     		cmp	r3, #0
 3251 0082 03D0     		beq	.L178
 3252              		.loc 4 887 0 is_stmt 0 discriminator 1
 3253 0084 B7F92230 		ldrsh	r3, [r7, #34]
 3254 0088 002B     		cmp	r3, #0
 3255 008a 0ADC     		bgt	.L179
 3256              	.L178:
 888:..\..\..\lvgl\version_6.1.2\lvgl\src\lv_objx/lv_tabview.c ****            (lv_page_on_edge(tabpage, LV_PAGE_EDGE_RIGHT) && x_diff < 0)) {
 3257              		.loc 4 888 0 is_stmt 1 discriminator 3
 3258 008c 0421     		movs	r1, #4
 3259 008e 3868     		ldr	r0, [r7]
 3260 0090 FFF7FEFF 		bl	lv_page_on_edge
 3261 0094 0346     		mov	r3, r0
 887:..\..\..\lvgl\version_6.1.2\lvgl\src\lv_objx/lv_tabview.c ****            (lv_page_on_edge(tabpage, LV_PAGE_EDGE_RIGHT) && x_diff < 0)) {
 3262              		.loc 4 887 0 discriminator 3
 3263 0096 002B     		cmp	r3, #0
 3264 0098 20D0     		beq	.L180
 3265              		.loc 4 888 0
 3266 009a B7F92230 		ldrsh	r3, [r7, #34]
 3267 009e 002B     		cmp	r3, #0
 3268 00a0 1CDA     		bge	.L180
 3269              	.L179:
 889:..\..\..\lvgl\version_6.1.2\lvgl\src\lv_objx/lv_tabview.c ****             if(ext->drag_hor == 0) {
 3270              		.loc 4 889 0
 3271 00a2 BB6A     		ldr	r3, [r7, #40]
 3272 00a4 9B7E     		ldrb	r3, [r3, #26]	@ zero_extendqisi2
 3273 00a6 03F00403 		and	r3, r3, #4
 3274 00aa DBB2     		uxtb	r3, r3
 3275 00ac 002B     		cmp	r3, #0
 3276 00ae 07D1     		bne	.L181
ARM GAS  C:\Users\tmj32\AppData\Local\Temp\cc94ZBZn.s 			page 81


 890:..\..\..\lvgl\version_6.1.2\lvgl\src\lv_objx/lv_tabview.c ****                 ext->point_last.x = point_act.x;
 3277              		.loc 4 890 0
 3278 00b0 B7F90C20 		ldrsh	r2, [r7, #12]
 3279 00b4 BB6A     		ldr	r3, [r7, #40]
 3280 00b6 1A82     		strh	r2, [r3, #16]	@ movhi
 891:..\..\..\lvgl\version_6.1.2\lvgl\src\lv_objx/lv_tabview.c ****                 ext->point_last.y = point_act.y;
 3281              		.loc 4 891 0
 3282 00b8 B7F90E20 		ldrsh	r2, [r7, #14]
 3283 00bc BB6A     		ldr	r3, [r7, #40]
 3284 00be 5A82     		strh	r2, [r3, #18]	@ movhi
 3285              	.L181:
 892:..\..\..\lvgl\version_6.1.2\lvgl\src\lv_objx/lv_tabview.c ****             }
 893:..\..\..\lvgl\version_6.1.2\lvgl\src\lv_objx/lv_tabview.c ****             ext->drag_hor = 1;
 3286              		.loc 4 893 0
 3287 00c0 BA6A     		ldr	r2, [r7, #40]
 3288 00c2 937E     		ldrb	r3, [r2, #26]
 3289 00c4 43F00403 		orr	r3, r3, #4
 3290 00c8 9376     		strb	r3, [r2, #26]
 894:..\..\..\lvgl\version_6.1.2\lvgl\src\lv_objx/lv_tabview.c ****             lv_obj_set_drag(lv_page_get_scrl(tabpage), false);
 3291              		.loc 4 894 0
 3292 00ca 3868     		ldr	r0, [r7]
 3293 00cc FFF7FEFF 		bl	lv_page_get_scrl
 3294 00d0 0346     		mov	r3, r0
 3295 00d2 0021     		movs	r1, #0
 3296 00d4 1846     		mov	r0, r3
 3297 00d6 FFF7FEFF 		bl	lv_obj_set_drag
 887:..\..\..\lvgl\version_6.1.2\lvgl\src\lv_objx/lv_tabview.c ****            (lv_page_on_edge(tabpage, LV_PAGE_EDGE_RIGHT) && x_diff < 0)) {
 3298              		.loc 4 887 0
 3299 00da 2BE0     		b	.L191
 3300              	.L180:
 895:..\..\..\lvgl\version_6.1.2\lvgl\src\lv_objx/lv_tabview.c **** 
 896:..\..\..\lvgl\version_6.1.2\lvgl\src\lv_objx/lv_tabview.c ****         } else if(ext->drag_hor == 0) {
 3301              		.loc 4 896 0
 3302 00dc BB6A     		ldr	r3, [r7, #40]
 3303 00de 9B7E     		ldrb	r3, [r3, #26]	@ zero_extendqisi2
 3304 00e0 03F00403 		and	r3, r3, #4
 3305 00e4 DBB2     		uxtb	r3, r3
 3306 00e6 002B     		cmp	r3, #0
 3307 00e8 24D1     		bne	.L191
 897:..\..\..\lvgl\version_6.1.2\lvgl\src\lv_objx/lv_tabview.c ****             ext->drag_hor = 0;
 3308              		.loc 4 897 0
 3309 00ea BA6A     		ldr	r2, [r7, #40]
 3310 00ec 937E     		ldrb	r3, [r2, #26]
 3311 00ee 6FF38203 		bfc	r3, #2, #1
 3312 00f2 9376     		strb	r3, [r2, #26]
 887:..\..\..\lvgl\version_6.1.2\lvgl\src\lv_objx/lv_tabview.c ****            (lv_page_on_edge(tabpage, LV_PAGE_EDGE_RIGHT) && x_diff < 0)) {
 3313              		.loc 4 887 0
 3314 00f4 1EE0     		b	.L191
 3315              	.L176:
 898:..\..\..\lvgl\version_6.1.2\lvgl\src\lv_objx/lv_tabview.c ****         }
 899:..\..\..\lvgl\version_6.1.2\lvgl\src\lv_objx/lv_tabview.c ****     } else if(y_diff >= LV_INDEV_DEF_DRAG_LIMIT || y_diff <= -LV_INDEV_DEF_DRAG_LIMIT) {
 3316              		.loc 4 899 0
 3317 00f6 B7F92030 		ldrsh	r3, [r7, #32]
 3318 00fa 092B     		cmp	r3, #9
 3319 00fc 04DC     		bgt	.L184
 3320              		.loc 4 899 0 is_stmt 0 discriminator 1
 3321 00fe B7F92030 		ldrsh	r3, [r7, #32]
ARM GAS  C:\Users\tmj32\AppData\Local\Temp\cc94ZBZn.s 			page 82


 3322 0102 13F1090F 		cmn	r3, #9
 3323 0106 0FDA     		bge	.L185
 3324              	.L184:
 900:..\..\..\lvgl\version_6.1.2\lvgl\src\lv_objx/lv_tabview.c ****         ext->drag_hor   = 0;
 3325              		.loc 4 900 0 is_stmt 1
 3326 0108 BA6A     		ldr	r2, [r7, #40]
 3327 010a 937E     		ldrb	r3, [r2, #26]
 3328 010c 6FF38203 		bfc	r3, #2, #1
 3329 0110 9376     		strb	r3, [r2, #26]
 901:..\..\..\lvgl\version_6.1.2\lvgl\src\lv_objx/lv_tabview.c ****         ext->draging    = 1;
 3330              		.loc 4 901 0
 3331 0112 BA6A     		ldr	r2, [r7, #40]
 3332 0114 937E     		ldrb	r3, [r2, #26]
 3333 0116 43F00203 		orr	r3, r3, #2
 3334 011a 9376     		strb	r3, [r2, #26]
 902:..\..\..\lvgl\version_6.1.2\lvgl\src\lv_objx/lv_tabview.c ****         ext->scroll_ver = 1;
 3335              		.loc 4 902 0
 3336 011c BA6A     		ldr	r2, [r7, #40]
 3337 011e 937E     		ldrb	r3, [r2, #26]
 3338 0120 43F00803 		orr	r3, r3, #8
 3339 0124 9376     		strb	r3, [r2, #26]
 3340 0126 06E0     		b	.L183
 3341              	.L185:
 903:..\..\..\lvgl\version_6.1.2\lvgl\src\lv_objx/lv_tabview.c ****     } else
 904:..\..\..\lvgl\version_6.1.2\lvgl\src\lv_objx/lv_tabview.c ****         ext->draging = 0;
 3342              		.loc 4 904 0
 3343 0128 BA6A     		ldr	r2, [r7, #40]
 3344 012a 937E     		ldrb	r3, [r2, #26]
 3345 012c 6FF34103 		bfc	r3, #1, #1
 3346 0130 9376     		strb	r3, [r2, #26]
 3347 0132 00E0     		b	.L183
 3348              	.L191:
 887:..\..\..\lvgl\version_6.1.2\lvgl\src\lv_objx/lv_tabview.c ****            (lv_page_on_edge(tabpage, LV_PAGE_EDGE_RIGHT) && x_diff < 0)) {
 3349              		.loc 4 887 0
 3350 0134 00BF     		nop
 3351              	.L183:
 905:..\..\..\lvgl\version_6.1.2\lvgl\src\lv_objx/lv_tabview.c **** 
 906:..\..\..\lvgl\version_6.1.2\lvgl\src\lv_objx/lv_tabview.c ****     if(ext->drag_hor) {
 3352              		.loc 4 906 0
 3353 0136 BB6A     		ldr	r3, [r7, #40]
 3354 0138 9B7E     		ldrb	r3, [r3, #26]	@ zero_extendqisi2
 3355 013a 03F00403 		and	r3, r3, #4
 3356 013e DBB2     		uxtb	r3, r3
 3357 0140 002B     		cmp	r3, #0
 3358 0142 00F0A180 		beq	.L192
 3359              	.LBB10:
 907:..\..\..\lvgl\version_6.1.2\lvgl\src\lv_objx/lv_tabview.c ****         lv_obj_set_x(ext->content, lv_obj_get_x(ext->content) + point_act.x - ext->point_last.x);
 3360              		.loc 4 907 0
 3361 0146 BB6A     		ldr	r3, [r7, #40]
 3362 0148 9C68     		ldr	r4, [r3, #8]
 3363 014a BB6A     		ldr	r3, [r7, #40]
 3364 014c 9B68     		ldr	r3, [r3, #8]
 3365 014e 1846     		mov	r0, r3
 3366 0150 FFF7FEFF 		bl	lv_obj_get_x
 3367 0154 0346     		mov	r3, r0
 3368 0156 9AB2     		uxth	r2, r3
 3369 0158 B7F90C30 		ldrsh	r3, [r7, #12]
ARM GAS  C:\Users\tmj32\AppData\Local\Temp\cc94ZBZn.s 			page 83


 3370 015c 9BB2     		uxth	r3, r3
 3371 015e 1344     		add	r3, r3, r2
 3372 0160 9AB2     		uxth	r2, r3
 3373 0162 BB6A     		ldr	r3, [r7, #40]
 3374 0164 B3F91030 		ldrsh	r3, [r3, #16]
 3375 0168 9BB2     		uxth	r3, r3
 3376 016a D31A     		subs	r3, r2, r3
 3377 016c 9BB2     		uxth	r3, r3
 3378 016e 1BB2     		sxth	r3, r3
 3379 0170 1946     		mov	r1, r3
 3380 0172 2046     		mov	r0, r4
 3381 0174 FFF7FEFF 		bl	lv_obj_set_x
 908:..\..\..\lvgl\version_6.1.2\lvgl\src\lv_objx/lv_tabview.c ****         ext->point_last.x = point_act.x;
 3382              		.loc 4 908 0
 3383 0178 B7F90C20 		ldrsh	r2, [r7, #12]
 3384 017c BB6A     		ldr	r3, [r7, #40]
 3385 017e 1A82     		strh	r2, [r3, #16]	@ movhi
 909:..\..\..\lvgl\version_6.1.2\lvgl\src\lv_objx/lv_tabview.c ****         ext->point_last.y = point_act.y;
 3386              		.loc 4 909 0
 3387 0180 B7F90E20 		ldrsh	r2, [r7, #14]
 3388 0184 BB6A     		ldr	r3, [r7, #40]
 3389 0186 5A82     		strh	r2, [r3, #18]	@ movhi
 910:..\..\..\lvgl\version_6.1.2\lvgl\src\lv_objx/lv_tabview.c **** 
 911:..\..\..\lvgl\version_6.1.2\lvgl\src\lv_objx/lv_tabview.c ****         /*Move the indicator*/
 912:..\..\..\lvgl\version_6.1.2\lvgl\src\lv_objx/lv_tabview.c ****         const lv_style_t * tabs_style = lv_obj_get_style(ext->btns);
 3390              		.loc 4 912 0
 3391 0188 BB6A     		ldr	r3, [r7, #40]
 3392 018a 1B68     		ldr	r3, [r3]
 3393 018c 1846     		mov	r0, r3
 3394 018e FFF7FEFF 		bl	lv_obj_get_style
 3395 0192 F861     		str	r0, [r7, #28]
 913:..\..\..\lvgl\version_6.1.2\lvgl\src\lv_objx/lv_tabview.c ****         lv_coord_t indic_size;
 914:..\..\..\lvgl\version_6.1.2\lvgl\src\lv_objx/lv_tabview.c ****         lv_coord_t p;
 915:..\..\..\lvgl\version_6.1.2\lvgl\src\lv_objx/lv_tabview.c ****         lv_coord_t indic_y;
 916:..\..\..\lvgl\version_6.1.2\lvgl\src\lv_objx/lv_tabview.c ****         const lv_style_t * indic_style;
 917:..\..\..\lvgl\version_6.1.2\lvgl\src\lv_objx/lv_tabview.c **** 
 918:..\..\..\lvgl\version_6.1.2\lvgl\src\lv_objx/lv_tabview.c ****         switch(ext->btns_pos) {
 3396              		.loc 4 918 0
 3397 0194 BB6A     		ldr	r3, [r7, #40]
 3398 0196 9B7E     		ldrb	r3, [r3, #26]
 3399 0198 C3F34113 		ubfx	r3, r3, #5, #2
 3400 019c DBB2     		uxtb	r3, r3
 3401 019e 023B     		subs	r3, r3, #2
 3402 01a0 012B     		cmp	r3, #1
 3403 01a2 4ED9     		bls	.L190
 919:..\..\..\lvgl\version_6.1.2\lvgl\src\lv_objx/lv_tabview.c ****             case LV_TABVIEW_BTNS_POS_TOP:
 920:..\..\..\lvgl\version_6.1.2\lvgl\src\lv_objx/lv_tabview.c ****             case LV_TABVIEW_BTNS_POS_BOTTOM:
 921:..\..\..\lvgl\version_6.1.2\lvgl\src\lv_objx/lv_tabview.c ****                 indic_size  = lv_obj_get_width(ext->indic);
 3404              		.loc 4 921 0
 3405 01a4 BB6A     		ldr	r3, [r7, #40]
 3406 01a6 5B68     		ldr	r3, [r3, #4]
 3407 01a8 1846     		mov	r0, r3
 3408 01aa FFF7FEFF 		bl	lv_obj_get_width
 3409 01ae 0346     		mov	r3, r0
 3410 01b0 7B83     		strh	r3, [r7, #26]	@ movhi
 922:..\..\..\lvgl\version_6.1.2\lvgl\src\lv_objx/lv_tabview.c ****                 indic_style = lv_obj_get_style(ext->indic);
 3411              		.loc 4 922 0
ARM GAS  C:\Users\tmj32\AppData\Local\Temp\cc94ZBZn.s 			page 84


 3412 01b2 BB6A     		ldr	r3, [r7, #40]
 3413 01b4 5B68     		ldr	r3, [r3, #4]
 3414 01b6 1846     		mov	r0, r3
 3415 01b8 FFF7FEFF 		bl	lv_obj_get_style
 3416 01bc 7861     		str	r0, [r7, #20]
 923:..\..\..\lvgl\version_6.1.2\lvgl\src\lv_objx/lv_tabview.c ****                 p = ((tabpage->coords.x1 - tabview->coords.x1) * (indic_size + tabs_style->body.pad
 3417              		.loc 4 923 0
 3418 01be 3B68     		ldr	r3, [r7]
 3419 01c0 B3F91030 		ldrsh	r3, [r3, #16]
 3420 01c4 1A46     		mov	r2, r3
 3421 01c6 7B68     		ldr	r3, [r7, #4]
 3422 01c8 B3F91030 		ldrsh	r3, [r3, #16]
 3423 01cc D31A     		subs	r3, r2, r3
 3424 01ce B7F91A20 		ldrsh	r2, [r7, #26]
 3425 01d2 F969     		ldr	r1, [r7, #28]
 3426 01d4 B1F92810 		ldrsh	r1, [r1, #40]
 3427 01d8 0A44     		add	r2, r2, r1
 3428 01da 02FB03F4 		mul	r4, r2, r3
 924:..\..\..\lvgl\version_6.1.2\lvgl\src\lv_objx/lv_tabview.c ****                     lv_obj_get_width(tabview);
 3429              		.loc 4 924 0
 3430 01de 7868     		ldr	r0, [r7, #4]
 3431 01e0 FFF7FEFF 		bl	lv_obj_get_width
 3432 01e4 0346     		mov	r3, r0
 923:..\..\..\lvgl\version_6.1.2\lvgl\src\lv_objx/lv_tabview.c ****                 p = ((tabpage->coords.x1 - tabview->coords.x1) * (indic_size + tabs_style->body.pad
 3433              		.loc 4 923 0
 3434 01e6 94FBF3F3 		sdiv	r3, r4, r3
 3435 01ea 7B82     		strh	r3, [r7, #18]	@ movhi
 3436              	.LBB11:
 925:..\..\..\lvgl\version_6.1.2\lvgl\src\lv_objx/lv_tabview.c **** 
 926:..\..\..\lvgl\version_6.1.2\lvgl\src\lv_objx/lv_tabview.c ****                 {
 927:..\..\..\lvgl\version_6.1.2\lvgl\src\lv_objx/lv_tabview.c ****                     uint16_t id = ext->tab_cur;
 3437              		.loc 4 927 0
 3438 01ec BB6A     		ldr	r3, [r7, #40]
 3439 01ee 9B8A     		ldrh	r3, [r3, #20]	@ movhi
 3440 01f0 FB85     		strh	r3, [r7, #46]	@ movhi
 928:..\..\..\lvgl\version_6.1.2\lvgl\src\lv_objx/lv_tabview.c ****                     if(lv_obj_get_base_dir(tabview) == LV_BIDI_DIR_RTL) {
 3441              		.loc 4 928 0
 3442 01f2 7868     		ldr	r0, [r7, #4]
 3443 01f4 FFF7FEFF 		bl	lv_obj_get_base_dir
 3444 01f8 0346     		mov	r3, r0
 3445 01fa 012B     		cmp	r3, #1
 3446 01fc 06D1     		bne	.L189
 929:..\..\..\lvgl\version_6.1.2\lvgl\src\lv_objx/lv_tabview.c ****                         id = (ext->tab_cnt - (id + 1));
 3447              		.loc 4 929 0
 3448 01fe BB6A     		ldr	r3, [r7, #40]
 3449 0200 DA8A     		ldrh	r2, [r3, #22]
 3450 0202 FB8D     		ldrh	r3, [r7, #46]	@ movhi
 3451 0204 D31A     		subs	r3, r2, r3
 3452 0206 9BB2     		uxth	r3, r3
 3453 0208 013B     		subs	r3, r3, #1
 3454 020a FB85     		strh	r3, [r7, #46]	@ movhi
 3455              	.L189:
 930:..\..\..\lvgl\version_6.1.2\lvgl\src\lv_objx/lv_tabview.c ****                     }
 931:..\..\..\lvgl\version_6.1.2\lvgl\src\lv_objx/lv_tabview.c ****                     lv_obj_set_x(ext->indic, indic_size * id + tabs_style->body.padding.inner * id 
 3456              		.loc 4 931 0
 3457 020c BB6A     		ldr	r3, [r7, #40]
 3458 020e 5868     		ldr	r0, [r3, #4]
ARM GAS  C:\Users\tmj32\AppData\Local\Temp\cc94ZBZn.s 			page 85


 3459 0210 B7F91A30 		ldrsh	r3, [r7, #26]
 3460 0214 FA69     		ldr	r2, [r7, #28]
 3461 0216 B2F92820 		ldrsh	r2, [r2, #40]
 3462 021a 1344     		add	r3, r3, r2
 3463 021c 9BB2     		uxth	r3, r3
 3464 021e FA8D     		ldrh	r2, [r7, #46]	@ movhi
 3465 0220 12FB03F3 		smulbb	r3, r2, r3
 3466 0224 9AB2     		uxth	r2, r3
 932:..\..\..\lvgl\version_6.1.2\lvgl\src\lv_objx/lv_tabview.c ****                                                  indic_style->body.padding.left - p);
 3467              		.loc 4 932 0
 3468 0226 7B69     		ldr	r3, [r7, #20]
 3469 0228 B3F92430 		ldrsh	r3, [r3, #36]
 931:..\..\..\lvgl\version_6.1.2\lvgl\src\lv_objx/lv_tabview.c ****                                                  indic_style->body.padding.left - p);
 3470              		.loc 4 931 0
 3471 022c 9BB2     		uxth	r3, r3
 3472 022e 1344     		add	r3, r3, r2
 3473 0230 9AB2     		uxth	r2, r3
 3474 0232 7B8A     		ldrh	r3, [r7, #18]
 3475 0234 D31A     		subs	r3, r2, r3
 3476 0236 9BB2     		uxth	r3, r3
 3477 0238 1BB2     		sxth	r3, r3
 3478 023a 1946     		mov	r1, r3
 3479 023c FFF7FEFF 		bl	lv_obj_set_x
 3480              	.LBE11:
 933:..\..\..\lvgl\version_6.1.2\lvgl\src\lv_objx/lv_tabview.c ****                 }
 934:..\..\..\lvgl\version_6.1.2\lvgl\src\lv_objx/lv_tabview.c ****                 break;
 3481              		.loc 4 934 0
 3482 0240 22E0     		b	.L186
 3483              	.L190:
 935:..\..\..\lvgl\version_6.1.2\lvgl\src\lv_objx/lv_tabview.c ****             case LV_TABVIEW_BTNS_POS_LEFT:
 936:..\..\..\lvgl\version_6.1.2\lvgl\src\lv_objx/lv_tabview.c ****             case LV_TABVIEW_BTNS_POS_RIGHT:
 937:..\..\..\lvgl\version_6.1.2\lvgl\src\lv_objx/lv_tabview.c ****                 indic_size = lv_obj_get_height(ext->indic);
 3484              		.loc 4 937 0
 3485 0242 BB6A     		ldr	r3, [r7, #40]
 3486 0244 5B68     		ldr	r3, [r3, #4]
 3487 0246 1846     		mov	r0, r3
 3488 0248 FFF7FEFF 		bl	lv_obj_get_height
 3489 024c 0346     		mov	r3, r0
 3490 024e 7B83     		strh	r3, [r7, #26]	@ movhi
 938:..\..\..\lvgl\version_6.1.2\lvgl\src\lv_objx/lv_tabview.c ****                 indic_y = tabs_style->body.padding.top + ext->tab_cur * (indic_size + tabs_style->b
 3491              		.loc 4 938 0
 3492 0250 FB69     		ldr	r3, [r7, #28]
 3493 0252 B3F92030 		ldrsh	r3, [r3, #32]
 3494 0256 9AB2     		uxth	r2, r3
 3495 0258 BB6A     		ldr	r3, [r7, #40]
 3496 025a 998A     		ldrh	r1, [r3, #20]
 3497 025c B7F91A30 		ldrsh	r3, [r7, #26]
 3498 0260 F869     		ldr	r0, [r7, #28]
 3499 0262 B0F92800 		ldrsh	r0, [r0, #40]
 3500 0266 0344     		add	r3, r3, r0
 3501 0268 9BB2     		uxth	r3, r3
 3502 026a 11FB03F3 		smulbb	r3, r1, r3
 3503 026e 9BB2     		uxth	r3, r3
 3504 0270 1344     		add	r3, r3, r2
 3505 0272 9BB2     		uxth	r3, r3
 3506 0274 3B82     		strh	r3, [r7, #16]	@ movhi
 939:..\..\..\lvgl\version_6.1.2\lvgl\src\lv_objx/lv_tabview.c ****                 lv_obj_set_y(ext->indic, indic_y);
ARM GAS  C:\Users\tmj32\AppData\Local\Temp\cc94ZBZn.s 			page 86


 3507              		.loc 4 939 0
 3508 0276 BB6A     		ldr	r3, [r7, #40]
 3509 0278 5B68     		ldr	r3, [r3, #4]
 3510 027a B7F91020 		ldrsh	r2, [r7, #16]
 3511 027e 1146     		mov	r1, r2
 3512 0280 1846     		mov	r0, r3
 3513 0282 FFF7FEFF 		bl	lv_obj_set_y
 940:..\..\..\lvgl\version_6.1.2\lvgl\src\lv_objx/lv_tabview.c ****                 break;
 3514              		.loc 4 940 0
 3515 0286 00BF     		nop
 3516              	.L186:
 3517              	.L192:
 3518              	.LBE10:
 941:..\..\..\lvgl\version_6.1.2\lvgl\src\lv_objx/lv_tabview.c ****         }
 942:..\..\..\lvgl\version_6.1.2\lvgl\src\lv_objx/lv_tabview.c ****     }
 943:..\..\..\lvgl\version_6.1.2\lvgl\src\lv_objx/lv_tabview.c **** }
 3519              		.loc 4 943 0
 3520 0288 00BF     		nop
 3521 028a 3437     		adds	r7, r7, #52
 3522              		.cfi_def_cfa_offset 12
 3523 028c BD46     		mov	sp, r7
 3524              		.cfi_def_cfa_register 13
 3525              		@ sp needed
 3526 028e 90BD     		pop	{r4, r7, pc}
 3527              		.cfi_endproc
 3528              	.LFE89:
 3529              		.size	tabpage_pressing_handler, .-tabpage_pressing_handler
 3530              		.section	.text.tabpage_press_lost_handler,"ax",%progbits
 3531              		.align	2
 3532              		.thumb
 3533              		.thumb_func
 3534              		.type	tabpage_press_lost_handler, %function
 3535              	tabpage_press_lost_handler:
 3536              	.LFB90:
 944:..\..\..\lvgl\version_6.1.2\lvgl\src\lv_objx/lv_tabview.c **** 
 945:..\..\..\lvgl\version_6.1.2\lvgl\src\lv_objx/lv_tabview.c **** /**
 946:..\..\..\lvgl\version_6.1.2\lvgl\src\lv_objx/lv_tabview.c ****  * Called when a tab's page or scrollable object is released or the press is lost
 947:..\..\..\lvgl\version_6.1.2\lvgl\src\lv_objx/lv_tabview.c ****  * @param tabview pointer to the btn view object
 948:..\..\..\lvgl\version_6.1.2\lvgl\src\lv_objx/lv_tabview.c ****  * @param tabpage pointer to the page of a btn
 949:..\..\..\lvgl\version_6.1.2\lvgl\src\lv_objx/lv_tabview.c ****  */
 950:..\..\..\lvgl\version_6.1.2\lvgl\src\lv_objx/lv_tabview.c **** static void tabpage_press_lost_handler(lv_obj_t * tabview, lv_obj_t * tabpage)
 951:..\..\..\lvgl\version_6.1.2\lvgl\src\lv_objx/lv_tabview.c **** {
 3537              		.loc 4 951 0
 3538              		.cfi_startproc
 3539              		@ args = 0, pretend = 0, frame = 48
 3540              		@ frame_needed = 1, uses_anonymous_args = 0
 3541 0000 80B5     		push	{r7, lr}
 3542              		.cfi_def_cfa_offset 8
 3543              		.cfi_offset 7, -8
 3544              		.cfi_offset 14, -4
 3545 0002 8CB0     		sub	sp, sp, #48
 3546              		.cfi_def_cfa_offset 56
 3547 0004 00AF     		add	r7, sp, #0
 3548              		.cfi_def_cfa_register 7
 3549 0006 7860     		str	r0, [r7, #4]
 3550 0008 3960     		str	r1, [r7]
 952:..\..\..\lvgl\version_6.1.2\lvgl\src\lv_objx/lv_tabview.c ****     lv_tabview_ext_t * ext = lv_obj_get_ext_attr(tabview);
ARM GAS  C:\Users\tmj32\AppData\Local\Temp\cc94ZBZn.s 			page 87


 3551              		.loc 4 952 0
 3552 000a 7868     		ldr	r0, [r7, #4]
 3553 000c FFF7FEFF 		bl	lv_obj_get_ext_attr
 3554 0010 7862     		str	r0, [r7, #36]
 953:..\..\..\lvgl\version_6.1.2\lvgl\src\lv_objx/lv_tabview.c ****     ext->drag_hor          = 0;
 3555              		.loc 4 953 0
 3556 0012 7A6A     		ldr	r2, [r7, #36]
 3557 0014 937E     		ldrb	r3, [r2, #26]
 3558 0016 6FF38203 		bfc	r3, #2, #1
 3559 001a 9376     		strb	r3, [r2, #26]
 954:..\..\..\lvgl\version_6.1.2\lvgl\src\lv_objx/lv_tabview.c ****     ext->draging           = 0;
 3560              		.loc 4 954 0
 3561 001c 7A6A     		ldr	r2, [r7, #36]
 3562 001e 937E     		ldrb	r3, [r2, #26]
 3563 0020 6FF34103 		bfc	r3, #1, #1
 3564 0024 9376     		strb	r3, [r2, #26]
 955:..\..\..\lvgl\version_6.1.2\lvgl\src\lv_objx/lv_tabview.c ****     ext->scroll_ver        = 0;
 3565              		.loc 4 955 0
 3566 0026 7A6A     		ldr	r2, [r7, #36]
 3567 0028 937E     		ldrb	r3, [r2, #26]
 3568 002a 6FF3C303 		bfc	r3, #3, #1
 3569 002e 9376     		strb	r3, [r2, #26]
 956:..\..\..\lvgl\version_6.1.2\lvgl\src\lv_objx/lv_tabview.c **** 
 957:..\..\..\lvgl\version_6.1.2\lvgl\src\lv_objx/lv_tabview.c ****     lv_obj_set_drag(lv_page_get_scrl(tabpage), true);
 3570              		.loc 4 957 0
 3571 0030 3868     		ldr	r0, [r7]
 3572 0032 FFF7FEFF 		bl	lv_page_get_scrl
 3573 0036 0346     		mov	r3, r0
 3574 0038 0121     		movs	r1, #1
 3575 003a 1846     		mov	r0, r3
 3576 003c FFF7FEFF 		bl	lv_obj_set_drag
 958:..\..\..\lvgl\version_6.1.2\lvgl\src\lv_objx/lv_tabview.c **** 
 959:..\..\..\lvgl\version_6.1.2\lvgl\src\lv_objx/lv_tabview.c ****     lv_indev_t * indev = lv_indev_get_act();
 3577              		.loc 4 959 0
 3578 0040 FFF7FEFF 		bl	lv_indev_get_act
 3579 0044 3862     		str	r0, [r7, #32]
 960:..\..\..\lvgl\version_6.1.2\lvgl\src\lv_objx/lv_tabview.c ****     lv_point_t point_act;
 961:..\..\..\lvgl\version_6.1.2\lvgl\src\lv_objx/lv_tabview.c ****     lv_indev_get_point(indev, &point_act);
 3580              		.loc 4 961 0
 3581 0046 07F11003 		add	r3, r7, #16
 3582 004a 1946     		mov	r1, r3
 3583 004c 386A     		ldr	r0, [r7, #32]
 3584 004e FFF7FEFF 		bl	lv_indev_get_point
 962:..\..\..\lvgl\version_6.1.2\lvgl\src\lv_objx/lv_tabview.c ****     lv_point_t vect;
 963:..\..\..\lvgl\version_6.1.2\lvgl\src\lv_objx/lv_tabview.c ****     lv_indev_get_vect(indev, &vect);
 3585              		.loc 4 963 0
 3586 0052 07F10C03 		add	r3, r7, #12
 3587 0056 1946     		mov	r1, r3
 3588 0058 386A     		ldr	r0, [r7, #32]
 3589 005a FFF7FEFF 		bl	lv_indev_get_vect
 964:..\..\..\lvgl\version_6.1.2\lvgl\src\lv_objx/lv_tabview.c ****     lv_coord_t x_predict = 0;
 3590              		.loc 4 964 0
 3591 005e 0023     		movs	r3, #0
 3592 0060 FB85     		strh	r3, [r7, #46]	@ movhi
 965:..\..\..\lvgl\version_6.1.2\lvgl\src\lv_objx/lv_tabview.c **** 
 966:..\..\..\lvgl\version_6.1.2\lvgl\src\lv_objx/lv_tabview.c ****     while(vect.x != 0) {
 3593              		.loc 4 966 0
ARM GAS  C:\Users\tmj32\AppData\Local\Temp\cc94ZBZn.s 			page 88


 3594 0062 15E0     		b	.L194
 3595              	.L195:
 967:..\..\..\lvgl\version_6.1.2\lvgl\src\lv_objx/lv_tabview.c ****         x_predict += vect.x;
 3596              		.loc 4 967 0
 3597 0064 B7F90C30 		ldrsh	r3, [r7, #12]
 3598 0068 9AB2     		uxth	r2, r3
 3599 006a FB8D     		ldrh	r3, [r7, #46]
 3600 006c 1344     		add	r3, r3, r2
 3601 006e 9BB2     		uxth	r3, r3
 3602 0070 FB85     		strh	r3, [r7, #46]	@ movhi
 968:..\..\..\lvgl\version_6.1.2\lvgl\src\lv_objx/lv_tabview.c ****         vect.x = vect.x * (100 - LV_INDEV_DEF_DRAG_THROW) / 100;
 3603              		.loc 4 968 0
 3604 0072 B7F90C30 		ldrsh	r3, [r7, #12]
 3605 0076 1A46     		mov	r2, r3
 3606 0078 1346     		mov	r3, r2
 3607 007a 9B00     		lsls	r3, r3, #2
 3608 007c 1344     		add	r3, r3, r2
 3609 007e 1B01     		lsls	r3, r3, #4
 3610 0080 4D4A     		ldr	r2, .L206
 3611 0082 82FB0312 		smull	r1, r2, r2, r3
 3612 0086 5211     		asrs	r2, r2, #5
 3613 0088 DB17     		asrs	r3, r3, #31
 3614 008a D31A     		subs	r3, r2, r3
 3615 008c 1BB2     		sxth	r3, r3
 3616 008e BB81     		strh	r3, [r7, #12]	@ movhi
 3617              	.L194:
 966:..\..\..\lvgl\version_6.1.2\lvgl\src\lv_objx/lv_tabview.c ****         x_predict += vect.x;
 3618              		.loc 4 966 0
 3619 0090 B7F90C30 		ldrsh	r3, [r7, #12]
 3620 0094 002B     		cmp	r3, #0
 3621 0096 E5D1     		bne	.L195
 969:..\..\..\lvgl\version_6.1.2\lvgl\src\lv_objx/lv_tabview.c ****     }
 970:..\..\..\lvgl\version_6.1.2\lvgl\src\lv_objx/lv_tabview.c **** 
 971:..\..\..\lvgl\version_6.1.2\lvgl\src\lv_objx/lv_tabview.c ****     lv_coord_t page_x1  = tabpage->coords.x1 - tabview->coords.x1 + x_predict;
 3622              		.loc 4 971 0
 3623 0098 3B68     		ldr	r3, [r7]
 3624 009a B3F91030 		ldrsh	r3, [r3, #16]
 3625 009e 9AB2     		uxth	r2, r3
 3626 00a0 7B68     		ldr	r3, [r7, #4]
 3627 00a2 B3F91030 		ldrsh	r3, [r3, #16]
 3628 00a6 9BB2     		uxth	r3, r3
 3629 00a8 D31A     		subs	r3, r2, r3
 3630 00aa 9AB2     		uxth	r2, r3
 3631 00ac FB8D     		ldrh	r3, [r7, #46]
 3632 00ae 1344     		add	r3, r3, r2
 3633 00b0 9BB2     		uxth	r3, r3
 3634 00b2 FB83     		strh	r3, [r7, #30]	@ movhi
 972:..\..\..\lvgl\version_6.1.2\lvgl\src\lv_objx/lv_tabview.c ****     lv_coord_t page_x2  = page_x1 + lv_obj_get_width(tabpage);
 3635              		.loc 4 972 0
 3636 00b4 3868     		ldr	r0, [r7]
 3637 00b6 FFF7FEFF 		bl	lv_obj_get_width
 3638 00ba 0346     		mov	r3, r0
 3639 00bc 9AB2     		uxth	r2, r3
 3640 00be FB8B     		ldrh	r3, [r7, #30]
 3641 00c0 1344     		add	r3, r3, r2
 3642 00c2 9BB2     		uxth	r3, r3
 3643 00c4 BB83     		strh	r3, [r7, #28]	@ movhi
ARM GAS  C:\Users\tmj32\AppData\Local\Temp\cc94ZBZn.s 			page 89


 973:..\..\..\lvgl\version_6.1.2\lvgl\src\lv_objx/lv_tabview.c ****     lv_coord_t treshold = lv_obj_get_width(tabview) / 2;
 3644              		.loc 4 973 0
 3645 00c6 7868     		ldr	r0, [r7, #4]
 3646 00c8 FFF7FEFF 		bl	lv_obj_get_width
 3647 00cc 0346     		mov	r3, r0
 3648 00ce DA0F     		lsrs	r2, r3, #31
 3649 00d0 1344     		add	r3, r3, r2
 3650 00d2 5B10     		asrs	r3, r3, #1
 3651 00d4 7B83     		strh	r3, [r7, #26]	@ movhi
 974:..\..\..\lvgl\version_6.1.2\lvgl\src\lv_objx/lv_tabview.c **** 
 975:..\..\..\lvgl\version_6.1.2\lvgl\src\lv_objx/lv_tabview.c ****     int16_t tab_cur = ext->tab_cur;
 3652              		.loc 4 975 0
 3653 00d6 7B6A     		ldr	r3, [r7, #36]
 3654 00d8 9B8A     		ldrh	r3, [r3, #20]
 3655 00da BB85     		strh	r3, [r7, #44]	@ movhi
 976:..\..\..\lvgl\version_6.1.2\lvgl\src\lv_objx/lv_tabview.c ****     if(page_x1 > treshold) {
 3656              		.loc 4 976 0
 3657 00dc B7F91E20 		ldrsh	r2, [r7, #30]
 3658 00e0 B7F91A30 		ldrsh	r3, [r7, #26]
 3659 00e4 9A42     		cmp	r2, r3
 3660 00e6 13DD     		ble	.L196
 977:..\..\..\lvgl\version_6.1.2\lvgl\src\lv_objx/lv_tabview.c ****             if(lv_obj_get_base_dir(tabview) == LV_BIDI_DIR_RTL) tab_cur++;
 3661              		.loc 4 977 0
 3662 00e8 7868     		ldr	r0, [r7, #4]
 3663 00ea FFF7FEFF 		bl	lv_obj_get_base_dir
 3664 00ee 0346     		mov	r3, r0
 3665 00f0 012B     		cmp	r3, #1
 3666 00f2 06D1     		bne	.L197
 3667              		.loc 4 977 0 is_stmt 0 discriminator 1
 3668 00f4 B7F92C30 		ldrsh	r3, [r7, #44]
 3669 00f8 9BB2     		uxth	r3, r3
 3670 00fa 0133     		adds	r3, r3, #1
 3671 00fc 9BB2     		uxth	r3, r3
 3672 00fe BB85     		strh	r3, [r7, #44]	@ movhi
 3673 0100 1FE0     		b	.L199
 3674              	.L197:
 978:..\..\..\lvgl\version_6.1.2\lvgl\src\lv_objx/lv_tabview.c ****             else tab_cur--;
 3675              		.loc 4 978 0 is_stmt 1
 3676 0102 B7F92C30 		ldrsh	r3, [r7, #44]
 3677 0106 9BB2     		uxth	r3, r3
 3678 0108 013B     		subs	r3, r3, #1
 3679 010a 9BB2     		uxth	r3, r3
 3680 010c BB85     		strh	r3, [r7, #44]	@ movhi
 3681 010e 18E0     		b	.L199
 3682              	.L196:
 979:..\..\..\lvgl\version_6.1.2\lvgl\src\lv_objx/lv_tabview.c ****     } else if(page_x2 < treshold) {
 3683              		.loc 4 979 0
 3684 0110 B7F91C20 		ldrsh	r2, [r7, #28]
 3685 0114 B7F91A30 		ldrsh	r3, [r7, #26]
 3686 0118 9A42     		cmp	r2, r3
 3687 011a 12DA     		bge	.L199
 980:..\..\..\lvgl\version_6.1.2\lvgl\src\lv_objx/lv_tabview.c ****             if(lv_obj_get_base_dir(tabview) == LV_BIDI_DIR_RTL) tab_cur--;
 3688              		.loc 4 980 0
 3689 011c 7868     		ldr	r0, [r7, #4]
 3690 011e FFF7FEFF 		bl	lv_obj_get_base_dir
 3691 0122 0346     		mov	r3, r0
 3692 0124 012B     		cmp	r3, #1
ARM GAS  C:\Users\tmj32\AppData\Local\Temp\cc94ZBZn.s 			page 90


 3693 0126 06D1     		bne	.L200
 3694              		.loc 4 980 0 is_stmt 0 discriminator 1
 3695 0128 B7F92C30 		ldrsh	r3, [r7, #44]
 3696 012c 9BB2     		uxth	r3, r3
 3697 012e 013B     		subs	r3, r3, #1
 3698 0130 9BB2     		uxth	r3, r3
 3699 0132 BB85     		strh	r3, [r7, #44]	@ movhi
 3700 0134 05E0     		b	.L199
 3701              	.L200:
 981:..\..\..\lvgl\version_6.1.2\lvgl\src\lv_objx/lv_tabview.c ****             else tab_cur++;
 3702              		.loc 4 981 0 is_stmt 1
 3703 0136 B7F92C30 		ldrsh	r3, [r7, #44]
 3704 013a 9BB2     		uxth	r3, r3
 3705 013c 0133     		adds	r3, r3, #1
 3706 013e 9BB2     		uxth	r3, r3
 3707 0140 BB85     		strh	r3, [r7, #44]	@ movhi
 3708              	.L199:
 982:..\..\..\lvgl\version_6.1.2\lvgl\src\lv_objx/lv_tabview.c ****     }
 983:..\..\..\lvgl\version_6.1.2\lvgl\src\lv_objx/lv_tabview.c **** 
 984:..\..\..\lvgl\version_6.1.2\lvgl\src\lv_objx/lv_tabview.c ****     if(tab_cur > ext->tab_cnt - 1) tab_cur = ext->tab_cnt - 1;
 3709              		.loc 4 984 0
 3710 0142 B7F92C20 		ldrsh	r2, [r7, #44]
 3711 0146 7B6A     		ldr	r3, [r7, #36]
 3712 0148 DB8A     		ldrh	r3, [r3, #22]
 3713 014a 013B     		subs	r3, r3, #1
 3714 014c 9A42     		cmp	r2, r3
 3715 014e 05DD     		ble	.L201
 3716              		.loc 4 984 0 is_stmt 0 discriminator 1
 3717 0150 7B6A     		ldr	r3, [r7, #36]
 3718 0152 DB8A     		ldrh	r3, [r3, #22]
 3719 0154 013B     		subs	r3, r3, #1
 3720 0156 9BB2     		uxth	r3, r3
 3721 0158 BB85     		strh	r3, [r7, #44]	@ movhi
 3722 015a 05E0     		b	.L202
 3723              	.L201:
 985:..\..\..\lvgl\version_6.1.2\lvgl\src\lv_objx/lv_tabview.c ****     else if(tab_cur < 0) tab_cur = 0;
 3724              		.loc 4 985 0 is_stmt 1
 3725 015c B7F92C30 		ldrsh	r3, [r7, #44]
 3726 0160 002B     		cmp	r3, #0
 3727 0162 01DA     		bge	.L202
 3728              		.loc 4 985 0 is_stmt 0 discriminator 1
 3729 0164 0023     		movs	r3, #0
 3730 0166 BB85     		strh	r3, [r7, #44]	@ movhi
 3731              	.L202:
 986:..\..\..\lvgl\version_6.1.2\lvgl\src\lv_objx/lv_tabview.c **** 
 987:..\..\..\lvgl\version_6.1.2\lvgl\src\lv_objx/lv_tabview.c ****     uint32_t id_prev = lv_tabview_get_tab_act(tabview);
 3732              		.loc 4 987 0 is_stmt 1
 3733 0168 7868     		ldr	r0, [r7, #4]
 3734 016a FFF7FEFF 		bl	lv_tabview_get_tab_act
 3735 016e 0346     		mov	r3, r0
 3736 0170 7B61     		str	r3, [r7, #20]
 988:..\..\..\lvgl\version_6.1.2\lvgl\src\lv_objx/lv_tabview.c ****     lv_tabview_set_tab_act(tabview, tab_cur, LV_ANIM_ON);
 3737              		.loc 4 988 0
 3738 0172 BB8D     		ldrh	r3, [r7, #44]
 3739 0174 0122     		movs	r2, #1
 3740 0176 1946     		mov	r1, r3
 3741 0178 7868     		ldr	r0, [r7, #4]
ARM GAS  C:\Users\tmj32\AppData\Local\Temp\cc94ZBZn.s 			page 91


 3742 017a FFF7FEFF 		bl	lv_tabview_set_tab_act
 989:..\..\..\lvgl\version_6.1.2\lvgl\src\lv_objx/lv_tabview.c ****     uint32_t id_new = lv_tabview_get_tab_act(tabview);
 3743              		.loc 4 989 0
 3744 017e 7868     		ldr	r0, [r7, #4]
 3745 0180 FFF7FEFF 		bl	lv_tabview_get_tab_act
 3746 0184 0346     		mov	r3, r0
 3747 0186 BB60     		str	r3, [r7, #8]
 990:..\..\..\lvgl\version_6.1.2\lvgl\src\lv_objx/lv_tabview.c **** 
 991:..\..\..\lvgl\version_6.1.2\lvgl\src\lv_objx/lv_tabview.c ****     lv_res_t res = LV_RES_OK;
 3748              		.loc 4 991 0
 3749 0188 0123     		movs	r3, #1
 3750 018a 87F82B30 		strb	r3, [r7, #43]
 992:..\..\..\lvgl\version_6.1.2\lvgl\src\lv_objx/lv_tabview.c ****     if(id_prev != id_new) res = lv_event_send(tabview, LV_EVENT_VALUE_CHANGED, &id_new);
 3751              		.loc 4 992 0
 3752 018e BB68     		ldr	r3, [r7, #8]
 3753 0190 7A69     		ldr	r2, [r7, #20]
 3754 0192 9A42     		cmp	r2, r3
 3755 0194 09D0     		beq	.L203
 3756              		.loc 4 992 0 is_stmt 0 discriminator 1
 3757 0196 07F10803 		add	r3, r7, #8
 3758 019a 1A46     		mov	r2, r3
 3759 019c 0E21     		movs	r1, #14
 3760 019e 7868     		ldr	r0, [r7, #4]
 3761 01a0 FFF7FEFF 		bl	lv_event_send
 3762 01a4 0346     		mov	r3, r0
 3763 01a6 87F82B30 		strb	r3, [r7, #43]
 3764              	.L203:
 993:..\..\..\lvgl\version_6.1.2\lvgl\src\lv_objx/lv_tabview.c **** 
 994:..\..\..\lvgl\version_6.1.2\lvgl\src\lv_objx/lv_tabview.c ****     if(res != LV_RES_OK) return;
 3765              		.loc 4 994 0 is_stmt 1
 3766 01aa 97F82B30 		ldrb	r3, [r7, #43]	@ zero_extendqisi2
 3767 01ae 012B     		cmp	r3, #1
 995:..\..\..\lvgl\version_6.1.2\lvgl\src\lv_objx/lv_tabview.c **** }
 3768              		.loc 4 995 0
 3769 01b0 3037     		adds	r7, r7, #48
 3770              		.cfi_def_cfa_offset 8
 3771 01b2 BD46     		mov	sp, r7
 3772              		.cfi_def_cfa_register 13
 3773              		@ sp needed
 3774 01b4 80BD     		pop	{r7, pc}
 3775              	.L207:
 3776 01b6 00BF     		.align	2
 3777              	.L206:
 3778 01b8 1F85EB51 		.word	1374389535
 3779              		.cfi_endproc
 3780              	.LFE90:
 3781              		.size	tabpage_press_lost_handler, .-tabpage_press_lost_handler
 3782              		.section	.text.tab_btnm_event_cb,"ax",%progbits
 3783              		.align	2
 3784              		.thumb
 3785              		.thumb_func
 3786              		.type	tab_btnm_event_cb, %function
 3787              	tab_btnm_event_cb:
 3788              	.LFB91:
 996:..\..\..\lvgl\version_6.1.2\lvgl\src\lv_objx/lv_tabview.c **** 
 997:..\..\..\lvgl\version_6.1.2\lvgl\src\lv_objx/lv_tabview.c **** /**
 998:..\..\..\lvgl\version_6.1.2\lvgl\src\lv_objx/lv_tabview.c ****  * Called when a tab button is clicked
ARM GAS  C:\Users\tmj32\AppData\Local\Temp\cc94ZBZn.s 			page 92


 999:..\..\..\lvgl\version_6.1.2\lvgl\src\lv_objx/lv_tabview.c ****  * @param tab_btnm pointer to the tab's button matrix object
1000:..\..\..\lvgl\version_6.1.2\lvgl\src\lv_objx/lv_tabview.c ****  * @param event type of the event
1001:..\..\..\lvgl\version_6.1.2\lvgl\src\lv_objx/lv_tabview.c ****  */
1002:..\..\..\lvgl\version_6.1.2\lvgl\src\lv_objx/lv_tabview.c **** static void tab_btnm_event_cb(lv_obj_t * tab_btnm, lv_event_t event)
1003:..\..\..\lvgl\version_6.1.2\lvgl\src\lv_objx/lv_tabview.c **** {
 3789              		.loc 4 1003 0
 3790              		.cfi_startproc
 3791              		@ args = 0, pretend = 0, frame = 24
 3792              		@ frame_needed = 1, uses_anonymous_args = 0
 3793 0000 80B5     		push	{r7, lr}
 3794              		.cfi_def_cfa_offset 8
 3795              		.cfi_offset 7, -8
 3796              		.cfi_offset 14, -4
 3797 0002 86B0     		sub	sp, sp, #24
 3798              		.cfi_def_cfa_offset 32
 3799 0004 00AF     		add	r7, sp, #0
 3800              		.cfi_def_cfa_register 7
 3801 0006 7860     		str	r0, [r7, #4]
 3802 0008 0B46     		mov	r3, r1
 3803 000a FB70     		strb	r3, [r7, #3]
1004:..\..\..\lvgl\version_6.1.2\lvgl\src\lv_objx/lv_tabview.c ****     if(event != LV_EVENT_CLICKED) return;
 3804              		.loc 4 1004 0
 3805 000c FB78     		ldrb	r3, [r7, #3]	@ zero_extendqisi2
 3806 000e 062B     		cmp	r3, #6
 3807 0010 39D1     		bne	.L215
1005:..\..\..\lvgl\version_6.1.2\lvgl\src\lv_objx/lv_tabview.c **** 
1006:..\..\..\lvgl\version_6.1.2\lvgl\src\lv_objx/lv_tabview.c ****     uint16_t btn_id = lv_btnm_get_active_btn(tab_btnm);
 3808              		.loc 4 1006 0
 3809 0012 7868     		ldr	r0, [r7, #4]
 3810 0014 FFF7FEFF 		bl	lv_btnm_get_active_btn
 3811 0018 0346     		mov	r3, r0
 3812 001a BB82     		strh	r3, [r7, #20]	@ movhi
1007:..\..\..\lvgl\version_6.1.2\lvgl\src\lv_objx/lv_tabview.c ****     if(btn_id == LV_BTNM_BTN_NONE) return;
 3813              		.loc 4 1007 0
 3814 001c BB8A     		ldrh	r3, [r7, #20]
 3815 001e 4FF6FF72 		movw	r2, #65535
 3816 0022 9342     		cmp	r3, r2
 3817 0024 31D0     		beq	.L216
1008:..\..\..\lvgl\version_6.1.2\lvgl\src\lv_objx/lv_tabview.c **** 
1009:..\..\..\lvgl\version_6.1.2\lvgl\src\lv_objx/lv_tabview.c ****     lv_btnm_clear_btn_ctrl_all(tab_btnm, LV_BTNM_CTRL_TGL_STATE);
 3818              		.loc 4 1009 0
 3819 0026 8021     		movs	r1, #128
 3820 0028 7868     		ldr	r0, [r7, #4]
 3821 002a FFF7FEFF 		bl	lv_btnm_clear_btn_ctrl_all
1010:..\..\..\lvgl\version_6.1.2\lvgl\src\lv_objx/lv_tabview.c ****     lv_btnm_set_btn_ctrl(tab_btnm, btn_id, LV_BTNM_CTRL_TGL_STATE);
 3822              		.loc 4 1010 0
 3823 002e BB8A     		ldrh	r3, [r7, #20]
 3824 0030 8022     		movs	r2, #128
 3825 0032 1946     		mov	r1, r3
 3826 0034 7868     		ldr	r0, [r7, #4]
 3827 0036 FFF7FEFF 		bl	lv_btnm_set_btn_ctrl
1011:..\..\..\lvgl\version_6.1.2\lvgl\src\lv_objx/lv_tabview.c **** 
1012:..\..\..\lvgl\version_6.1.2\lvgl\src\lv_objx/lv_tabview.c ****     lv_obj_t * tabview = lv_obj_get_parent(tab_btnm);
 3828              		.loc 4 1012 0
 3829 003a 7868     		ldr	r0, [r7, #4]
 3830 003c FFF7FEFF 		bl	lv_obj_get_parent
 3831 0040 3861     		str	r0, [r7, #16]
ARM GAS  C:\Users\tmj32\AppData\Local\Temp\cc94ZBZn.s 			page 93


1013:..\..\..\lvgl\version_6.1.2\lvgl\src\lv_objx/lv_tabview.c **** 
1014:..\..\..\lvgl\version_6.1.2\lvgl\src\lv_objx/lv_tabview.c ****     uint32_t id_prev = lv_tabview_get_tab_act(tabview);
 3832              		.loc 4 1014 0
 3833 0042 3869     		ldr	r0, [r7, #16]
 3834 0044 FFF7FEFF 		bl	lv_tabview_get_tab_act
 3835 0048 0346     		mov	r3, r0
 3836 004a FB60     		str	r3, [r7, #12]
1015:..\..\..\lvgl\version_6.1.2\lvgl\src\lv_objx/lv_tabview.c ****     lv_tabview_set_tab_act(tabview, btn_id, LV_ANIM_ON);
 3837              		.loc 4 1015 0
 3838 004c BB8A     		ldrh	r3, [r7, #20]
 3839 004e 0122     		movs	r2, #1
 3840 0050 1946     		mov	r1, r3
 3841 0052 3869     		ldr	r0, [r7, #16]
 3842 0054 FFF7FEFF 		bl	lv_tabview_set_tab_act
1016:..\..\..\lvgl\version_6.1.2\lvgl\src\lv_objx/lv_tabview.c ****     uint32_t id_new = lv_tabview_get_tab_act(tabview);
 3843              		.loc 4 1016 0
 3844 0058 3869     		ldr	r0, [r7, #16]
 3845 005a FFF7FEFF 		bl	lv_tabview_get_tab_act
 3846 005e 0346     		mov	r3, r0
 3847 0060 BB60     		str	r3, [r7, #8]
1017:..\..\..\lvgl\version_6.1.2\lvgl\src\lv_objx/lv_tabview.c **** 
1018:..\..\..\lvgl\version_6.1.2\lvgl\src\lv_objx/lv_tabview.c ****     lv_res_t res = LV_RES_OK;
 3848              		.loc 4 1018 0
 3849 0062 0123     		movs	r3, #1
 3850 0064 FB75     		strb	r3, [r7, #23]
1019:..\..\..\lvgl\version_6.1.2\lvgl\src\lv_objx/lv_tabview.c ****     if(id_prev != id_new) res = lv_event_send(tabview, LV_EVENT_VALUE_CHANGED, &id_new);
 3851              		.loc 4 1019 0
 3852 0066 BB68     		ldr	r3, [r7, #8]
 3853 0068 FA68     		ldr	r2, [r7, #12]
 3854 006a 9A42     		cmp	r2, r3
 3855 006c 08D0     		beq	.L212
 3856              		.loc 4 1019 0 is_stmt 0 discriminator 1
 3857 006e 07F10803 		add	r3, r7, #8
 3858 0072 1A46     		mov	r2, r3
 3859 0074 0E21     		movs	r1, #14
 3860 0076 3869     		ldr	r0, [r7, #16]
 3861 0078 FFF7FEFF 		bl	lv_event_send
 3862 007c 0346     		mov	r3, r0
 3863 007e FB75     		strb	r3, [r7, #23]
 3864              	.L212:
1020:..\..\..\lvgl\version_6.1.2\lvgl\src\lv_objx/lv_tabview.c **** 
1021:..\..\..\lvgl\version_6.1.2\lvgl\src\lv_objx/lv_tabview.c ****     if(res != LV_RES_OK) return;
 3865              		.loc 4 1021 0 is_stmt 1
 3866 0080 FB7D     		ldrb	r3, [r7, #23]	@ zero_extendqisi2
 3867 0082 012B     		cmp	r3, #1
 3868 0084 02E0     		b	.L208
 3869              	.L215:
1004:..\..\..\lvgl\version_6.1.2\lvgl\src\lv_objx/lv_tabview.c **** 
 3870              		.loc 4 1004 0
 3871 0086 00BF     		nop
 3872 0088 00E0     		b	.L208
 3873              	.L216:
1007:..\..\..\lvgl\version_6.1.2\lvgl\src\lv_objx/lv_tabview.c **** 
 3874              		.loc 4 1007 0
 3875 008a 00BF     		nop
 3876              	.L208:
1022:..\..\..\lvgl\version_6.1.2\lvgl\src\lv_objx/lv_tabview.c **** }
ARM GAS  C:\Users\tmj32\AppData\Local\Temp\cc94ZBZn.s 			page 94


 3877              		.loc 4 1022 0
 3878 008c 1837     		adds	r7, r7, #24
 3879              		.cfi_def_cfa_offset 8
 3880 008e BD46     		mov	sp, r7
 3881              		.cfi_def_cfa_register 13
 3882              		@ sp needed
 3883 0090 80BD     		pop	{r7, pc}
 3884              		.cfi_endproc
 3885              	.LFE91:
 3886              		.size	tab_btnm_event_cb, .-tab_btnm_event_cb
 3887 0092 00BF     		.section	.text.tabview_realign,"ax",%progbits
 3888              		.align	2
 3889              		.thumb
 3890              		.thumb_func
 3891              		.type	tabview_realign, %function
 3892              	tabview_realign:
 3893              	.LFB92:
1023:..\..\..\lvgl\version_6.1.2\lvgl\src\lv_objx/lv_tabview.c **** 
1024:..\..\..\lvgl\version_6.1.2\lvgl\src\lv_objx/lv_tabview.c **** /**
1025:..\..\..\lvgl\version_6.1.2\lvgl\src\lv_objx/lv_tabview.c ****  * Realign and resize the elements of Tab view
1026:..\..\..\lvgl\version_6.1.2\lvgl\src\lv_objx/lv_tabview.c ****  * @param tabview pointer to a Tab view object
1027:..\..\..\lvgl\version_6.1.2\lvgl\src\lv_objx/lv_tabview.c ****  */
1028:..\..\..\lvgl\version_6.1.2\lvgl\src\lv_objx/lv_tabview.c **** static void tabview_realign(lv_obj_t * tabview)
1029:..\..\..\lvgl\version_6.1.2\lvgl\src\lv_objx/lv_tabview.c **** {
 3894              		.loc 4 1029 0
 3895              		.cfi_startproc
 3896              		@ args = 0, pretend = 0, frame = 32
 3897              		@ frame_needed = 1, uses_anonymous_args = 0
 3898 0000 B0B5     		push	{r4, r5, r7, lr}
 3899              		.cfi_def_cfa_offset 16
 3900              		.cfi_offset 4, -16
 3901              		.cfi_offset 5, -12
 3902              		.cfi_offset 7, -8
 3903              		.cfi_offset 14, -4
 3904 0002 8AB0     		sub	sp, sp, #40
 3905              		.cfi_def_cfa_offset 56
 3906 0004 02AF     		add	r7, sp, #8
 3907              		.cfi_def_cfa 7, 48
 3908 0006 7860     		str	r0, [r7, #4]
1030:..\..\..\lvgl\version_6.1.2\lvgl\src\lv_objx/lv_tabview.c ****     lv_tabview_ext_t * ext = lv_obj_get_ext_attr(tabview);
 3909              		.loc 4 1030 0
 3910 0008 7868     		ldr	r0, [r7, #4]
 3911 000a FFF7FEFF 		bl	lv_obj_get_ext_attr
 3912 000e B861     		str	r0, [r7, #24]
1031:..\..\..\lvgl\version_6.1.2\lvgl\src\lv_objx/lv_tabview.c **** 
1032:..\..\..\lvgl\version_6.1.2\lvgl\src\lv_objx/lv_tabview.c ****     lv_obj_set_width(ext->btns, lv_obj_get_width(tabview));
 3913              		.loc 4 1032 0
 3914 0010 BB69     		ldr	r3, [r7, #24]
 3915 0012 1C68     		ldr	r4, [r3]
 3916 0014 7868     		ldr	r0, [r7, #4]
 3917 0016 FFF7FEFF 		bl	lv_obj_get_width
 3918 001a 0346     		mov	r3, r0
 3919 001c 1946     		mov	r1, r3
 3920 001e 2046     		mov	r0, r4
 3921 0020 FFF7FEFF 		bl	lv_obj_set_width
1033:..\..\..\lvgl\version_6.1.2\lvgl\src\lv_objx/lv_tabview.c **** 
1034:..\..\..\lvgl\version_6.1.2\lvgl\src\lv_objx/lv_tabview.c ****     if(ext->btns_hide) {
ARM GAS  C:\Users\tmj32\AppData\Local\Temp\cc94ZBZn.s 			page 95


 3922              		.loc 4 1034 0
 3923 0024 BB69     		ldr	r3, [r7, #24]
 3924 0026 9B7E     		ldrb	r3, [r3, #26]	@ zero_extendqisi2
 3925 0028 03F01003 		and	r3, r3, #16
 3926 002c DBB2     		uxtb	r3, r3
 3927 002e 002B     		cmp	r3, #0
 3928 0030 1FD0     		beq	.L218
1035:..\..\..\lvgl\version_6.1.2\lvgl\src\lv_objx/lv_tabview.c ****         lv_obj_set_hidden(ext->btns, true);
 3929              		.loc 4 1035 0
 3930 0032 BB69     		ldr	r3, [r7, #24]
 3931 0034 1B68     		ldr	r3, [r3]
 3932 0036 0121     		movs	r1, #1
 3933 0038 1846     		mov	r0, r3
 3934 003a FFF7FEFF 		bl	lv_obj_set_hidden
1036:..\..\..\lvgl\version_6.1.2\lvgl\src\lv_objx/lv_tabview.c ****         lv_obj_set_hidden(ext->indic, true);
 3935              		.loc 4 1036 0
 3936 003e BB69     		ldr	r3, [r7, #24]
 3937 0040 5B68     		ldr	r3, [r3, #4]
 3938 0042 0121     		movs	r1, #1
 3939 0044 1846     		mov	r0, r3
 3940 0046 FFF7FEFF 		bl	lv_obj_set_hidden
1037:..\..\..\lvgl\version_6.1.2\lvgl\src\lv_objx/lv_tabview.c ****         lv_obj_set_height(ext->content, lv_obj_get_height(tabview));
 3941              		.loc 4 1037 0
 3942 004a BB69     		ldr	r3, [r7, #24]
 3943 004c 9C68     		ldr	r4, [r3, #8]
 3944 004e 7868     		ldr	r0, [r7, #4]
 3945 0050 FFF7FEFF 		bl	lv_obj_get_height
 3946 0054 0346     		mov	r3, r0
 3947 0056 1946     		mov	r1, r3
 3948 0058 2046     		mov	r0, r4
 3949 005a FFF7FEFF 		bl	lv_obj_set_height
1038:..\..\..\lvgl\version_6.1.2\lvgl\src\lv_objx/lv_tabview.c ****         lv_obj_align(ext->content, NULL, LV_ALIGN_IN_TOP_LEFT, 0, 0);
 3950              		.loc 4 1038 0
 3951 005e BB69     		ldr	r3, [r7, #24]
 3952 0060 9868     		ldr	r0, [r3, #8]
 3953 0062 0023     		movs	r3, #0
 3954 0064 0093     		str	r3, [sp]
 3955 0066 0023     		movs	r3, #0
 3956 0068 0122     		movs	r2, #1
 3957 006a 0021     		movs	r1, #0
 3958 006c FFF7FEFF 		bl	lv_obj_align
 3959 0070 48E2     		b	.L219
 3960              	.L218:
1039:..\..\..\lvgl\version_6.1.2\lvgl\src\lv_objx/lv_tabview.c ****     } else if(ext->tab_cnt != 0) {
 3961              		.loc 4 1039 0
 3962 0072 BB69     		ldr	r3, [r7, #24]
 3963 0074 DB8A     		ldrh	r3, [r3, #22]
 3964 0076 002B     		cmp	r3, #0
 3965 0078 00F04482 		beq	.L219
 3966              	.LBB12:
1040:..\..\..\lvgl\version_6.1.2\lvgl\src\lv_objx/lv_tabview.c ****         lv_obj_set_hidden(ext->btns, false);
 3967              		.loc 4 1040 0
 3968 007c BB69     		ldr	r3, [r7, #24]
 3969 007e 1B68     		ldr	r3, [r3]
 3970 0080 0021     		movs	r1, #0
 3971 0082 1846     		mov	r0, r3
 3972 0084 FFF7FEFF 		bl	lv_obj_set_hidden
ARM GAS  C:\Users\tmj32\AppData\Local\Temp\cc94ZBZn.s 			page 96


1041:..\..\..\lvgl\version_6.1.2\lvgl\src\lv_objx/lv_tabview.c ****         lv_obj_set_hidden(ext->indic, false);
 3973              		.loc 4 1041 0
 3974 0088 BB69     		ldr	r3, [r7, #24]
 3975 008a 5B68     		ldr	r3, [r3, #4]
 3976 008c 0021     		movs	r1, #0
 3977 008e 1846     		mov	r0, r3
 3978 0090 FFF7FEFF 		bl	lv_obj_set_hidden
1042:..\..\..\lvgl\version_6.1.2\lvgl\src\lv_objx/lv_tabview.c **** 
1043:..\..\..\lvgl\version_6.1.2\lvgl\src\lv_objx/lv_tabview.c ****         const lv_style_t * style_btn_bg  = lv_tabview_get_style(tabview, LV_TABVIEW_STYLE_BTN_BG);
 3979              		.loc 4 1043 0
 3980 0094 0221     		movs	r1, #2
 3981 0096 7868     		ldr	r0, [r7, #4]
 3982 0098 FFF7FEFF 		bl	lv_tabview_get_style
 3983 009c 7861     		str	r0, [r7, #20]
1044:..\..\..\lvgl\version_6.1.2\lvgl\src\lv_objx/lv_tabview.c ****         const lv_style_t * style_btn_rel = lv_tabview_get_style(tabview, LV_TABVIEW_STYLE_BTN_REL);
 3984              		.loc 4 1044 0
 3985 009e 0321     		movs	r1, #3
 3986 00a0 7868     		ldr	r0, [r7, #4]
 3987 00a2 FFF7FEFF 		bl	lv_tabview_get_style
 3988 00a6 3861     		str	r0, [r7, #16]
1045:..\..\..\lvgl\version_6.1.2\lvgl\src\lv_objx/lv_tabview.c **** 
1046:..\..\..\lvgl\version_6.1.2\lvgl\src\lv_objx/lv_tabview.c ****         /*Set the indicator width/height*/
1047:..\..\..\lvgl\version_6.1.2\lvgl\src\lv_objx/lv_tabview.c ****         lv_coord_t indic_size;
1048:..\..\..\lvgl\version_6.1.2\lvgl\src\lv_objx/lv_tabview.c ****         lv_coord_t max_h;
1049:..\..\..\lvgl\version_6.1.2\lvgl\src\lv_objx/lv_tabview.c **** 
1050:..\..\..\lvgl\version_6.1.2\lvgl\src\lv_objx/lv_tabview.c ****         switch(ext->btns_pos) {
 3989              		.loc 4 1050 0
 3990 00a8 BB69     		ldr	r3, [r7, #24]
 3991 00aa 9B7E     		ldrb	r3, [r3, #26]
 3992 00ac C3F34113 		ubfx	r3, r3, #5, #2
 3993 00b0 DBB2     		uxtb	r3, r3
 3994 00b2 023B     		subs	r3, r3, #2
 3995 00b4 012B     		cmp	r3, #1
 3996 00b6 24D9     		bls	.L243
1051:..\..\..\lvgl\version_6.1.2\lvgl\src\lv_objx/lv_tabview.c ****             case LV_TABVIEW_BTNS_POS_TOP:
1052:..\..\..\lvgl\version_6.1.2\lvgl\src\lv_objx/lv_tabview.c ****             case LV_TABVIEW_BTNS_POS_BOTTOM:
1053:..\..\..\lvgl\version_6.1.2\lvgl\src\lv_objx/lv_tabview.c ****                 indic_size = (lv_obj_get_width(tabview) - style_btn_bg->body.padding.inner * (ext->
 3997              		.loc 4 1053 0
 3998 00b8 7868     		ldr	r0, [r7, #4]
 3999 00ba FFF7FEFF 		bl	lv_obj_get_width
 4000 00be 0346     		mov	r3, r0
 4001 00c0 1A46     		mov	r2, r3
 4002 00c2 7B69     		ldr	r3, [r7, #20]
 4003 00c4 B3F92830 		ldrsh	r3, [r3, #40]
 4004 00c8 1946     		mov	r1, r3
 4005 00ca BB69     		ldr	r3, [r7, #24]
 4006 00cc DB8A     		ldrh	r3, [r3, #22]
 4007 00ce 013B     		subs	r3, r3, #1
 4008 00d0 03FB01F3 		mul	r3, r3, r1
 4009 00d4 D31A     		subs	r3, r2, r3
1054:..\..\..\lvgl\version_6.1.2\lvgl\src\lv_objx/lv_tabview.c ****                               style_btn_bg->body.padding.left - style_btn_bg->body.padding.right) /
 4010              		.loc 4 1054 0
 4011 00d6 7A69     		ldr	r2, [r7, #20]
 4012 00d8 B2F92420 		ldrsh	r2, [r2, #36]
1053:..\..\..\lvgl\version_6.1.2\lvgl\src\lv_objx/lv_tabview.c ****                               style_btn_bg->body.padding.left - style_btn_bg->body.padding.right) /
 4013              		.loc 4 1053 0
 4014 00dc 9B1A     		subs	r3, r3, r2
ARM GAS  C:\Users\tmj32\AppData\Local\Temp\cc94ZBZn.s 			page 97


 4015              		.loc 4 1054 0
 4016 00de 7A69     		ldr	r2, [r7, #20]
 4017 00e0 B2F92620 		ldrsh	r2, [r2, #38]
 4018 00e4 9B1A     		subs	r3, r3, r2
1055:..\..\..\lvgl\version_6.1.2\lvgl\src\lv_objx/lv_tabview.c ****                              ext->tab_cnt;
 4019              		.loc 4 1055 0
 4020 00e6 BA69     		ldr	r2, [r7, #24]
 4021 00e8 D28A     		ldrh	r2, [r2, #22]
1054:..\..\..\lvgl\version_6.1.2\lvgl\src\lv_objx/lv_tabview.c ****                               style_btn_bg->body.padding.left - style_btn_bg->body.padding.right) /
 4022              		.loc 4 1054 0
 4023 00ea 93FBF2F3 		sdiv	r3, r3, r2
1053:..\..\..\lvgl\version_6.1.2\lvgl\src\lv_objx/lv_tabview.c ****                               style_btn_bg->body.padding.left - style_btn_bg->body.padding.right) /
 4024              		.loc 4 1053 0
 4025 00ee FB81     		strh	r3, [r7, #14]	@ movhi
1056:..\..\..\lvgl\version_6.1.2\lvgl\src\lv_objx/lv_tabview.c ****                 lv_obj_set_width(ext->indic, indic_size);
 4026              		.loc 4 1056 0
 4027 00f0 BB69     		ldr	r3, [r7, #24]
 4028 00f2 5B68     		ldr	r3, [r3, #4]
 4029 00f4 B7F90E20 		ldrsh	r2, [r7, #14]
 4030 00f8 1146     		mov	r1, r2
 4031 00fa 1846     		mov	r0, r3
 4032 00fc FFF7FEFF 		bl	lv_obj_set_width
1057:..\..\..\lvgl\version_6.1.2\lvgl\src\lv_objx/lv_tabview.c ****                 break;
 4033              		.loc 4 1057 0
 4034 0100 42E0     		b	.L222
 4035              	.L243:
1058:..\..\..\lvgl\version_6.1.2\lvgl\src\lv_objx/lv_tabview.c ****             case LV_TABVIEW_BTNS_POS_LEFT:
1059:..\..\..\lvgl\version_6.1.2\lvgl\src\lv_objx/lv_tabview.c ****             case LV_TABVIEW_BTNS_POS_RIGHT:
1060:..\..\..\lvgl\version_6.1.2\lvgl\src\lv_objx/lv_tabview.c ****                 lv_obj_set_height(ext->btns, lv_obj_get_height(tabview));
 4036              		.loc 4 1060 0
 4037 0102 BB69     		ldr	r3, [r7, #24]
 4038 0104 1C68     		ldr	r4, [r3]
 4039 0106 7868     		ldr	r0, [r7, #4]
 4040 0108 FFF7FEFF 		bl	lv_obj_get_height
 4041 010c 0346     		mov	r3, r0
 4042 010e 1946     		mov	r1, r3
 4043 0110 2046     		mov	r0, r4
 4044 0112 FFF7FEFF 		bl	lv_obj_set_height
1061:..\..\..\lvgl\version_6.1.2\lvgl\src\lv_objx/lv_tabview.c **** 
1062:..\..\..\lvgl\version_6.1.2\lvgl\src\lv_objx/lv_tabview.c ****                 max_h =
1063:..\..\..\lvgl\version_6.1.2\lvgl\src\lv_objx/lv_tabview.c ****                     lv_obj_get_height(ext->btns) - style_btn_bg->body.padding.top - style_btn_bg->b
 4045              		.loc 4 1063 0
 4046 0116 BB69     		ldr	r3, [r7, #24]
 4047 0118 1B68     		ldr	r3, [r3]
 4048 011a 1846     		mov	r0, r3
 4049 011c FFF7FEFF 		bl	lv_obj_get_height
 4050 0120 0346     		mov	r3, r0
1062:..\..\..\lvgl\version_6.1.2\lvgl\src\lv_objx/lv_tabview.c ****                     lv_obj_get_height(ext->btns) - style_btn_bg->body.padding.top - style_btn_bg->b
 4051              		.loc 4 1062 0
 4052 0122 9AB2     		uxth	r2, r3
 4053              		.loc 4 1063 0
 4054 0124 7B69     		ldr	r3, [r7, #20]
 4055 0126 B3F92030 		ldrsh	r3, [r3, #32]
1062:..\..\..\lvgl\version_6.1.2\lvgl\src\lv_objx/lv_tabview.c ****                     lv_obj_get_height(ext->btns) - style_btn_bg->body.padding.top - style_btn_bg->b
 4056              		.loc 4 1062 0
 4057 012a 9BB2     		uxth	r3, r3
 4058 012c D31A     		subs	r3, r2, r3
ARM GAS  C:\Users\tmj32\AppData\Local\Temp\cc94ZBZn.s 			page 98


 4059 012e 9AB2     		uxth	r2, r3
 4060              		.loc 4 1063 0
 4061 0130 7B69     		ldr	r3, [r7, #20]
 4062 0132 B3F92230 		ldrsh	r3, [r3, #34]
1062:..\..\..\lvgl\version_6.1.2\lvgl\src\lv_objx/lv_tabview.c ****                     lv_obj_get_height(ext->btns) - style_btn_bg->body.padding.top - style_btn_bg->b
 4063              		.loc 4 1062 0
 4064 0136 9BB2     		uxth	r3, r3
 4065 0138 D31A     		subs	r3, r2, r3
 4066 013a 9BB2     		uxth	r3, r3
 4067 013c BB81     		strh	r3, [r7, #12]	@ movhi
1064:..\..\..\lvgl\version_6.1.2\lvgl\src\lv_objx/lv_tabview.c ****                 indic_size = max_h - ((ext->tab_cnt - 1) * style_btn_bg->body.padding.inner);
 4068              		.loc 4 1064 0
 4069 013e BA89     		ldrh	r2, [r7, #12]
 4070 0140 BB69     		ldr	r3, [r7, #24]
 4071 0142 DB8A     		ldrh	r3, [r3, #22]
 4072 0144 013B     		subs	r3, r3, #1
 4073 0146 99B2     		uxth	r1, r3
 4074 0148 7B69     		ldr	r3, [r7, #20]
 4075 014a B3F92830 		ldrsh	r3, [r3, #40]
 4076 014e 9BB2     		uxth	r3, r3
 4077 0150 11FB03F3 		smulbb	r3, r1, r3
 4078 0154 9BB2     		uxth	r3, r3
 4079 0156 D31A     		subs	r3, r2, r3
 4080 0158 9BB2     		uxth	r3, r3
 4081 015a FB81     		strh	r3, [r7, #14]	@ movhi
1065:..\..\..\lvgl\version_6.1.2\lvgl\src\lv_objx/lv_tabview.c ****                 indic_size = indic_size / ext->tab_cnt;
 4082              		.loc 4 1065 0
 4083 015c B7F90E30 		ldrsh	r3, [r7, #14]
 4084 0160 BA69     		ldr	r2, [r7, #24]
 4085 0162 D28A     		ldrh	r2, [r2, #22]
 4086 0164 93FBF2F3 		sdiv	r3, r3, r2
 4087 0168 FB81     		strh	r3, [r7, #14]	@ movhi
1066:..\..\..\lvgl\version_6.1.2\lvgl\src\lv_objx/lv_tabview.c ****                 indic_size--; /*-1 because e.g. height = 100 means 101 pixels (0..100)*/
 4088              		.loc 4 1066 0
 4089 016a B7F90E30 		ldrsh	r3, [r7, #14]
 4090 016e 9BB2     		uxth	r3, r3
 4091 0170 013B     		subs	r3, r3, #1
 4092 0172 9BB2     		uxth	r3, r3
 4093 0174 FB81     		strh	r3, [r7, #14]	@ movhi
1067:..\..\..\lvgl\version_6.1.2\lvgl\src\lv_objx/lv_tabview.c ****                 lv_obj_set_height(ext->indic, indic_size);
 4094              		.loc 4 1067 0
 4095 0176 BB69     		ldr	r3, [r7, #24]
 4096 0178 5B68     		ldr	r3, [r3, #4]
 4097 017a B7F90E20 		ldrsh	r2, [r7, #14]
 4098 017e 1146     		mov	r1, r2
 4099 0180 1846     		mov	r0, r3
 4100 0182 FFF7FEFF 		bl	lv_obj_set_height
1068:..\..\..\lvgl\version_6.1.2\lvgl\src\lv_objx/lv_tabview.c ****                 break;
 4101              		.loc 4 1068 0
 4102 0186 00BF     		nop
 4103              	.L222:
1069:..\..\..\lvgl\version_6.1.2\lvgl\src\lv_objx/lv_tabview.c ****         }
1070:..\..\..\lvgl\version_6.1.2\lvgl\src\lv_objx/lv_tabview.c **** 
1071:..\..\..\lvgl\version_6.1.2\lvgl\src\lv_objx/lv_tabview.c ****         /*Set the tabs height/width*/
1072:..\..\..\lvgl\version_6.1.2\lvgl\src\lv_objx/lv_tabview.c ****         lv_coord_t btns_size;
1073:..\..\..\lvgl\version_6.1.2\lvgl\src\lv_objx/lv_tabview.c **** 
1074:..\..\..\lvgl\version_6.1.2\lvgl\src\lv_objx/lv_tabview.c ****         switch(ext->btns_pos) {
ARM GAS  C:\Users\tmj32\AppData\Local\Temp\cc94ZBZn.s 			page 99


 4104              		.loc 4 1074 0
 4105 0188 BB69     		ldr	r3, [r7, #24]
 4106 018a 9B7E     		ldrb	r3, [r3, #26]
 4107 018c C3F34113 		ubfx	r3, r3, #5, #2
 4108 0190 DBB2     		uxtb	r3, r3
 4109 0192 023B     		subs	r3, r3, #2
 4110 0194 012B     		cmp	r3, #1
 4111 0196 28D9     		bls	.L244
1075:..\..\..\lvgl\version_6.1.2\lvgl\src\lv_objx/lv_tabview.c ****             case LV_TABVIEW_BTNS_POS_TOP:
1076:..\..\..\lvgl\version_6.1.2\lvgl\src\lv_objx/lv_tabview.c ****             case LV_TABVIEW_BTNS_POS_BOTTOM:
1077:..\..\..\lvgl\version_6.1.2\lvgl\src\lv_objx/lv_tabview.c ****                 btns_size = lv_font_get_line_height(style_btn_rel->text.font) + style_btn_rel->body
 4112              		.loc 4 1077 0
 4113 0198 3B69     		ldr	r3, [r7, #16]
 4114 019a 5B6B     		ldr	r3, [r3, #52]
 4115 019c 1846     		mov	r0, r3
 4116 019e FFF7FEFF 		bl	lv_font_get_line_height
 4117 01a2 0346     		mov	r3, r0
 4118 01a4 9AB2     		uxth	r2, r3
 4119 01a6 3B69     		ldr	r3, [r7, #16]
 4120 01a8 B3F92030 		ldrsh	r3, [r3, #32]
 4121 01ac 9BB2     		uxth	r3, r3
 4122 01ae 1344     		add	r3, r3, r2
 4123 01b0 9AB2     		uxth	r2, r3
1078:..\..\..\lvgl\version_6.1.2\lvgl\src\lv_objx/lv_tabview.c ****                             style_btn_rel->body.padding.bottom + style_btn_bg->body.padding.top +
 4124              		.loc 4 1078 0
 4125 01b2 3B69     		ldr	r3, [r7, #16]
 4126 01b4 B3F92230 		ldrsh	r3, [r3, #34]
1077:..\..\..\lvgl\version_6.1.2\lvgl\src\lv_objx/lv_tabview.c ****                             style_btn_rel->body.padding.bottom + style_btn_bg->body.padding.top +
 4127              		.loc 4 1077 0
 4128 01b8 9BB2     		uxth	r3, r3
 4129 01ba 1344     		add	r3, r3, r2
 4130 01bc 9AB2     		uxth	r2, r3
 4131              		.loc 4 1078 0
 4132 01be 7B69     		ldr	r3, [r7, #20]
 4133 01c0 B3F92030 		ldrsh	r3, [r3, #32]
1077:..\..\..\lvgl\version_6.1.2\lvgl\src\lv_objx/lv_tabview.c ****                             style_btn_rel->body.padding.bottom + style_btn_bg->body.padding.top +
 4134              		.loc 4 1077 0
 4135 01c4 9BB2     		uxth	r3, r3
 4136 01c6 1344     		add	r3, r3, r2
 4137 01c8 9AB2     		uxth	r2, r3
1079:..\..\..\lvgl\version_6.1.2\lvgl\src\lv_objx/lv_tabview.c ****                             style_btn_bg->body.padding.bottom;
 4138              		.loc 4 1079 0
 4139 01ca 7B69     		ldr	r3, [r7, #20]
 4140 01cc B3F92230 		ldrsh	r3, [r3, #34]
1077:..\..\..\lvgl\version_6.1.2\lvgl\src\lv_objx/lv_tabview.c ****                             style_btn_rel->body.padding.bottom + style_btn_bg->body.padding.top +
 4141              		.loc 4 1077 0
 4142 01d0 9BB2     		uxth	r3, r3
 4143 01d2 1344     		add	r3, r3, r2
 4144 01d4 9BB2     		uxth	r3, r3
 4145 01d6 7B81     		strh	r3, [r7, #10]	@ movhi
1080:..\..\..\lvgl\version_6.1.2\lvgl\src\lv_objx/lv_tabview.c ****                 lv_obj_set_height(ext->btns, btns_size);
 4146              		.loc 4 1080 0
 4147 01d8 BB69     		ldr	r3, [r7, #24]
 4148 01da 1B68     		ldr	r3, [r3]
 4149 01dc B7F90A20 		ldrsh	r2, [r7, #10]
 4150 01e0 1146     		mov	r1, r2
 4151 01e2 1846     		mov	r0, r3
ARM GAS  C:\Users\tmj32\AppData\Local\Temp\cc94ZBZn.s 			page 100


 4152 01e4 FFF7FEFF 		bl	lv_obj_set_height
1081:..\..\..\lvgl\version_6.1.2\lvgl\src\lv_objx/lv_tabview.c ****                 break;
 4153              		.loc 4 1081 0
 4154 01e8 2AE0     		b	.L225
 4155              	.L244:
1082:..\..\..\lvgl\version_6.1.2\lvgl\src\lv_objx/lv_tabview.c ****             case LV_TABVIEW_BTNS_POS_LEFT:
1083:..\..\..\lvgl\version_6.1.2\lvgl\src\lv_objx/lv_tabview.c ****             case LV_TABVIEW_BTNS_POS_RIGHT:
1084:..\..\..\lvgl\version_6.1.2\lvgl\src\lv_objx/lv_tabview.c ****                 btns_size = lv_font_get_glyph_width(style_btn_rel->text.font, 'A', '\0') +
 4156              		.loc 4 1084 0
 4157 01ea 3B69     		ldr	r3, [r7, #16]
 4158 01ec 5B6B     		ldr	r3, [r3, #52]
 4159 01ee 0022     		movs	r2, #0
 4160 01f0 4121     		movs	r1, #65
 4161 01f2 1846     		mov	r0, r3
 4162 01f4 FFF7FEFF 		bl	lv_font_get_glyph_width
 4163 01f8 0346     		mov	r3, r0
 4164 01fa 1A46     		mov	r2, r3
1085:..\..\..\lvgl\version_6.1.2\lvgl\src\lv_objx/lv_tabview.c ****                             style_btn_rel->body.padding.left + style_btn_rel->body.padding.right +
 4165              		.loc 4 1085 0
 4166 01fc 3B69     		ldr	r3, [r7, #16]
 4167 01fe B3F92430 		ldrsh	r3, [r3, #36]
1084:..\..\..\lvgl\version_6.1.2\lvgl\src\lv_objx/lv_tabview.c ****                             style_btn_rel->body.padding.left + style_btn_rel->body.padding.right +
 4168              		.loc 4 1084 0
 4169 0202 9BB2     		uxth	r3, r3
 4170 0204 1344     		add	r3, r3, r2
 4171 0206 9AB2     		uxth	r2, r3
 4172              		.loc 4 1085 0
 4173 0208 3B69     		ldr	r3, [r7, #16]
 4174 020a B3F92630 		ldrsh	r3, [r3, #38]
1084:..\..\..\lvgl\version_6.1.2\lvgl\src\lv_objx/lv_tabview.c ****                             style_btn_rel->body.padding.left + style_btn_rel->body.padding.right +
 4175              		.loc 4 1084 0
 4176 020e 9BB2     		uxth	r3, r3
 4177 0210 1344     		add	r3, r3, r2
 4178 0212 9AB2     		uxth	r2, r3
1086:..\..\..\lvgl\version_6.1.2\lvgl\src\lv_objx/lv_tabview.c ****                             style_btn_bg->body.padding.left + style_btn_bg->body.padding.right;
 4179              		.loc 4 1086 0
 4180 0214 7B69     		ldr	r3, [r7, #20]
 4181 0216 B3F92430 		ldrsh	r3, [r3, #36]
1084:..\..\..\lvgl\version_6.1.2\lvgl\src\lv_objx/lv_tabview.c ****                             style_btn_rel->body.padding.left + style_btn_rel->body.padding.right +
 4182              		.loc 4 1084 0
 4183 021a 9BB2     		uxth	r3, r3
 4184 021c 1344     		add	r3, r3, r2
 4185 021e 9AB2     		uxth	r2, r3
 4186              		.loc 4 1086 0
 4187 0220 7B69     		ldr	r3, [r7, #20]
 4188 0222 B3F92630 		ldrsh	r3, [r3, #38]
1084:..\..\..\lvgl\version_6.1.2\lvgl\src\lv_objx/lv_tabview.c ****                             style_btn_rel->body.padding.left + style_btn_rel->body.padding.right +
 4189              		.loc 4 1084 0
 4190 0226 9BB2     		uxth	r3, r3
 4191 0228 1344     		add	r3, r3, r2
 4192 022a 9BB2     		uxth	r3, r3
 4193 022c 7B81     		strh	r3, [r7, #10]	@ movhi
1087:..\..\..\lvgl\version_6.1.2\lvgl\src\lv_objx/lv_tabview.c ****                 lv_obj_set_width(ext->btns, btns_size);
 4194              		.loc 4 1087 0
 4195 022e BB69     		ldr	r3, [r7, #24]
 4196 0230 1B68     		ldr	r3, [r3]
 4197 0232 B7F90A20 		ldrsh	r2, [r7, #10]
ARM GAS  C:\Users\tmj32\AppData\Local\Temp\cc94ZBZn.s 			page 101


 4198 0236 1146     		mov	r1, r2
 4199 0238 1846     		mov	r0, r3
 4200 023a FFF7FEFF 		bl	lv_obj_set_width
1088:..\..\..\lvgl\version_6.1.2\lvgl\src\lv_objx/lv_tabview.c ****                 break;
 4201              		.loc 4 1088 0
 4202 023e 00BF     		nop
 4203              	.L225:
1089:..\..\..\lvgl\version_6.1.2\lvgl\src\lv_objx/lv_tabview.c ****         }
1090:..\..\..\lvgl\version_6.1.2\lvgl\src\lv_objx/lv_tabview.c **** 
1091:..\..\..\lvgl\version_6.1.2\lvgl\src\lv_objx/lv_tabview.c ****         switch(ext->btns_pos) {
 4204              		.loc 4 1091 0
 4205 0240 BB69     		ldr	r3, [r7, #24]
 4206 0242 9B7E     		ldrb	r3, [r3, #26]
 4207 0244 C3F34113 		ubfx	r3, r3, #5, #2
 4208 0248 DBB2     		uxtb	r3, r3
 4209 024a 023B     		subs	r3, r3, #2
 4210 024c 012B     		cmp	r3, #1
 4211 024e 15D9     		bls	.L245
1092:..\..\..\lvgl\version_6.1.2\lvgl\src\lv_objx/lv_tabview.c ****             case LV_TABVIEW_BTNS_POS_TOP:
1093:..\..\..\lvgl\version_6.1.2\lvgl\src\lv_objx/lv_tabview.c ****             case LV_TABVIEW_BTNS_POS_BOTTOM:
1094:..\..\..\lvgl\version_6.1.2\lvgl\src\lv_objx/lv_tabview.c ****                 lv_obj_set_height(ext->content, lv_obj_get_height(tabview) - lv_obj_get_height(ext-
 4212              		.loc 4 1094 0
 4213 0250 BB69     		ldr	r3, [r7, #24]
 4214 0252 9D68     		ldr	r5, [r3, #8]
 4215 0254 7868     		ldr	r0, [r7, #4]
 4216 0256 FFF7FEFF 		bl	lv_obj_get_height
 4217 025a 0346     		mov	r3, r0
 4218 025c 9CB2     		uxth	r4, r3
 4219 025e BB69     		ldr	r3, [r7, #24]
 4220 0260 1B68     		ldr	r3, [r3]
 4221 0262 1846     		mov	r0, r3
 4222 0264 FFF7FEFF 		bl	lv_obj_get_height
 4223 0268 0346     		mov	r3, r0
 4224 026a 9BB2     		uxth	r3, r3
 4225 026c E31A     		subs	r3, r4, r3
 4226 026e 9BB2     		uxth	r3, r3
 4227 0270 1BB2     		sxth	r3, r3
 4228 0272 1946     		mov	r1, r3
 4229 0274 2846     		mov	r0, r5
 4230 0276 FFF7FEFF 		bl	lv_obj_set_height
1095:..\..\..\lvgl\version_6.1.2\lvgl\src\lv_objx/lv_tabview.c ****                 break;
 4231              		.loc 4 1095 0
 4232 027a 0AE0     		b	.L228
 4233              	.L245:
1096:..\..\..\lvgl\version_6.1.2\lvgl\src\lv_objx/lv_tabview.c ****             case LV_TABVIEW_BTNS_POS_LEFT:
1097:..\..\..\lvgl\version_6.1.2\lvgl\src\lv_objx/lv_tabview.c ****             case LV_TABVIEW_BTNS_POS_RIGHT: lv_obj_set_height(ext->content, lv_obj_get_height(tabvi
 4234              		.loc 4 1097 0
 4235 027c BB69     		ldr	r3, [r7, #24]
 4236 027e 9C68     		ldr	r4, [r3, #8]
 4237 0280 7868     		ldr	r0, [r7, #4]
 4238 0282 FFF7FEFF 		bl	lv_obj_get_height
 4239 0286 0346     		mov	r3, r0
 4240 0288 1946     		mov	r1, r3
 4241 028a 2046     		mov	r0, r4
 4242 028c FFF7FEFF 		bl	lv_obj_set_height
 4243 0290 00BF     		nop
 4244              	.L228:
ARM GAS  C:\Users\tmj32\AppData\Local\Temp\cc94ZBZn.s 			page 102


1098:..\..\..\lvgl\version_6.1.2\lvgl\src\lv_objx/lv_tabview.c ****         }
1099:..\..\..\lvgl\version_6.1.2\lvgl\src\lv_objx/lv_tabview.c **** 
1100:..\..\..\lvgl\version_6.1.2\lvgl\src\lv_objx/lv_tabview.c ****         switch(ext->btns_pos) {
 4245              		.loc 4 1100 0
 4246 0292 BB69     		ldr	r3, [r7, #24]
 4247 0294 9B7E     		ldrb	r3, [r3, #26]
 4248 0296 C3F34113 		ubfx	r3, r3, #5, #2
 4249 029a DBB2     		uxtb	r3, r3
 4250 029c 022B     		cmp	r3, #2
 4251 029e 00F08580 		beq	.L230
 4252 02a2 032B     		cmp	r3, #3
 4253 02a4 00F0DC80 		beq	.L231
 4254 02a8 012B     		cmp	r3, #1
 4255 02aa 3FD0     		beq	.L232
1101:..\..\..\lvgl\version_6.1.2\lvgl\src\lv_objx/lv_tabview.c ****             case LV_TABVIEW_BTNS_POS_TOP:
1102:..\..\..\lvgl\version_6.1.2\lvgl\src\lv_objx/lv_tabview.c ****                 lv_obj_align(ext->btns, NULL, LV_ALIGN_IN_TOP_LEFT, 0, 0);
 4256              		.loc 4 1102 0
 4257 02ac BB69     		ldr	r3, [r7, #24]
 4258 02ae 1868     		ldr	r0, [r3]
 4259 02b0 0023     		movs	r3, #0
 4260 02b2 0093     		str	r3, [sp]
 4261 02b4 0023     		movs	r3, #0
 4262 02b6 0122     		movs	r2, #1
 4263 02b8 0021     		movs	r1, #0
 4264 02ba FFF7FEFF 		bl	lv_obj_align
1103:..\..\..\lvgl\version_6.1.2\lvgl\src\lv_objx/lv_tabview.c ****                 lv_obj_align(ext->content, ext->btns, LV_ALIGN_OUT_BOTTOM_LEFT, 0, 0);
 4265              		.loc 4 1103 0
 4266 02be BB69     		ldr	r3, [r7, #24]
 4267 02c0 9868     		ldr	r0, [r3, #8]
 4268 02c2 BB69     		ldr	r3, [r7, #24]
 4269 02c4 1968     		ldr	r1, [r3]
 4270 02c6 0023     		movs	r3, #0
 4271 02c8 0093     		str	r3, [sp]
 4272 02ca 0023     		movs	r3, #0
 4273 02cc 0C22     		movs	r2, #12
 4274 02ce FFF7FEFF 		bl	lv_obj_align
1104:..\..\..\lvgl\version_6.1.2\lvgl\src\lv_objx/lv_tabview.c ****                 lv_obj_align(ext->indic, ext->btns, LV_ALIGN_IN_BOTTOM_LEFT, 0, 0);
 4275              		.loc 4 1104 0
 4276 02d2 BB69     		ldr	r3, [r7, #24]
 4277 02d4 5868     		ldr	r0, [r3, #4]
 4278 02d6 BB69     		ldr	r3, [r7, #24]
 4279 02d8 1968     		ldr	r1, [r3]
 4280 02da 0023     		movs	r3, #0
 4281 02dc 0093     		str	r3, [sp]
 4282 02de 0023     		movs	r3, #0
 4283 02e0 0422     		movs	r2, #4
 4284 02e2 FFF7FEFF 		bl	lv_obj_align
1105:..\..\..\lvgl\version_6.1.2\lvgl\src\lv_objx/lv_tabview.c **** 
1106:..\..\..\lvgl\version_6.1.2\lvgl\src\lv_objx/lv_tabview.c ****                 lv_cont_set_fit2(ext->content, LV_FIT_TIGHT, LV_FIT_NONE);
 4285              		.loc 4 1106 0
 4286 02e6 BB69     		ldr	r3, [r7, #24]
 4287 02e8 9B68     		ldr	r3, [r3, #8]
 4288 02ea 0022     		movs	r2, #0
 4289 02ec 0121     		movs	r1, #1
 4290 02ee 1846     		mov	r0, r3
 4291 02f0 FFF7FEFF 		bl	lv_cont_set_fit2
1107:..\..\..\lvgl\version_6.1.2\lvgl\src\lv_objx/lv_tabview.c ****                 lv_cont_set_layout(ext->content, LV_LAYOUT_ROW_T);
ARM GAS  C:\Users\tmj32\AppData\Local\Temp\cc94ZBZn.s 			page 103


 4292              		.loc 4 1107 0
 4293 02f4 BB69     		ldr	r3, [r7, #24]
 4294 02f6 9B68     		ldr	r3, [r3, #8]
 4295 02f8 0521     		movs	r1, #5
 4296 02fa 1846     		mov	r0, r3
 4297 02fc FFF7FEFF 		bl	lv_cont_set_layout
1108:..\..\..\lvgl\version_6.1.2\lvgl\src\lv_objx/lv_tabview.c ****                 lv_obj_set_height(ext->content, lv_obj_get_height(tabview) - lv_obj_get_height(ext-
 4298              		.loc 4 1108 0
 4299 0300 BB69     		ldr	r3, [r7, #24]
 4300 0302 9D68     		ldr	r5, [r3, #8]
 4301 0304 7868     		ldr	r0, [r7, #4]
 4302 0306 FFF7FEFF 		bl	lv_obj_get_height
 4303 030a 0346     		mov	r3, r0
 4304 030c 9CB2     		uxth	r4, r3
 4305 030e BB69     		ldr	r3, [r7, #24]
 4306 0310 1B68     		ldr	r3, [r3]
 4307 0312 1846     		mov	r0, r3
 4308 0314 FFF7FEFF 		bl	lv_obj_get_height
 4309 0318 0346     		mov	r3, r0
 4310 031a 9BB2     		uxth	r3, r3
 4311 031c E31A     		subs	r3, r4, r3
 4312 031e 9BB2     		uxth	r3, r3
 4313 0320 1BB2     		sxth	r3, r3
 4314 0322 1946     		mov	r1, r3
 4315 0324 2846     		mov	r0, r5
 4316 0326 FFF7FEFF 		bl	lv_obj_set_height
1109:..\..\..\lvgl\version_6.1.2\lvgl\src\lv_objx/lv_tabview.c ****                 break;
 4317              		.loc 4 1109 0
 4318 032a EBE0     		b	.L219
 4319              	.L232:
1110:..\..\..\lvgl\version_6.1.2\lvgl\src\lv_objx/lv_tabview.c ****             case LV_TABVIEW_BTNS_POS_BOTTOM:
1111:..\..\..\lvgl\version_6.1.2\lvgl\src\lv_objx/lv_tabview.c ****                 lv_obj_align(ext->content, NULL, LV_ALIGN_IN_TOP_LEFT, 0, 0);
 4320              		.loc 4 1111 0
 4321 032c BB69     		ldr	r3, [r7, #24]
 4322 032e 9868     		ldr	r0, [r3, #8]
 4323 0330 0023     		movs	r3, #0
 4324 0332 0093     		str	r3, [sp]
 4325 0334 0023     		movs	r3, #0
 4326 0336 0122     		movs	r2, #1
 4327 0338 0021     		movs	r1, #0
 4328 033a FFF7FEFF 		bl	lv_obj_align
1112:..\..\..\lvgl\version_6.1.2\lvgl\src\lv_objx/lv_tabview.c ****                 lv_obj_align(ext->btns, ext->content, LV_ALIGN_OUT_BOTTOM_LEFT, 0, 0);
 4329              		.loc 4 1112 0
 4330 033e BB69     		ldr	r3, [r7, #24]
 4331 0340 1868     		ldr	r0, [r3]
 4332 0342 BB69     		ldr	r3, [r7, #24]
 4333 0344 9968     		ldr	r1, [r3, #8]
 4334 0346 0023     		movs	r3, #0
 4335 0348 0093     		str	r3, [sp]
 4336 034a 0023     		movs	r3, #0
 4337 034c 0C22     		movs	r2, #12
 4338 034e FFF7FEFF 		bl	lv_obj_align
1113:..\..\..\lvgl\version_6.1.2\lvgl\src\lv_objx/lv_tabview.c ****                 lv_obj_align(ext->indic, ext->btns, LV_ALIGN_IN_TOP_LEFT, 0, 0);
 4339              		.loc 4 1113 0
 4340 0352 BB69     		ldr	r3, [r7, #24]
 4341 0354 5868     		ldr	r0, [r3, #4]
 4342 0356 BB69     		ldr	r3, [r7, #24]
ARM GAS  C:\Users\tmj32\AppData\Local\Temp\cc94ZBZn.s 			page 104


 4343 0358 1968     		ldr	r1, [r3]
 4344 035a 0023     		movs	r3, #0
 4345 035c 0093     		str	r3, [sp]
 4346 035e 0023     		movs	r3, #0
 4347 0360 0122     		movs	r2, #1
 4348 0362 FFF7FEFF 		bl	lv_obj_align
1114:..\..\..\lvgl\version_6.1.2\lvgl\src\lv_objx/lv_tabview.c **** 
1115:..\..\..\lvgl\version_6.1.2\lvgl\src\lv_objx/lv_tabview.c ****                 lv_cont_set_fit2(ext->content, LV_FIT_TIGHT, LV_FIT_NONE);
 4349              		.loc 4 1115 0
 4350 0366 BB69     		ldr	r3, [r7, #24]
 4351 0368 9B68     		ldr	r3, [r3, #8]
 4352 036a 0022     		movs	r2, #0
 4353 036c 0121     		movs	r1, #1
 4354 036e 1846     		mov	r0, r3
 4355 0370 FFF7FEFF 		bl	lv_cont_set_fit2
1116:..\..\..\lvgl\version_6.1.2\lvgl\src\lv_objx/lv_tabview.c ****                 lv_cont_set_layout(ext->content, LV_LAYOUT_ROW_T);
 4356              		.loc 4 1116 0
 4357 0374 BB69     		ldr	r3, [r7, #24]
 4358 0376 9B68     		ldr	r3, [r3, #8]
 4359 0378 0521     		movs	r1, #5
 4360 037a 1846     		mov	r0, r3
 4361 037c FFF7FEFF 		bl	lv_cont_set_layout
1117:..\..\..\lvgl\version_6.1.2\lvgl\src\lv_objx/lv_tabview.c ****                 lv_obj_set_height(ext->content, lv_obj_get_height(tabview) - lv_obj_get_height(ext-
 4362              		.loc 4 1117 0
 4363 0380 BB69     		ldr	r3, [r7, #24]
 4364 0382 9D68     		ldr	r5, [r3, #8]
 4365 0384 7868     		ldr	r0, [r7, #4]
 4366 0386 FFF7FEFF 		bl	lv_obj_get_height
 4367 038a 0346     		mov	r3, r0
 4368 038c 9CB2     		uxth	r4, r3
 4369 038e BB69     		ldr	r3, [r7, #24]
 4370 0390 1B68     		ldr	r3, [r3]
 4371 0392 1846     		mov	r0, r3
 4372 0394 FFF7FEFF 		bl	lv_obj_get_height
 4373 0398 0346     		mov	r3, r0
 4374 039a 9BB2     		uxth	r3, r3
 4375 039c E31A     		subs	r3, r4, r3
 4376 039e 9BB2     		uxth	r3, r3
 4377 03a0 1BB2     		sxth	r3, r3
 4378 03a2 1946     		mov	r1, r3
 4379 03a4 2846     		mov	r0, r5
 4380 03a6 FFF7FEFF 		bl	lv_obj_set_height
1118:..\..\..\lvgl\version_6.1.2\lvgl\src\lv_objx/lv_tabview.c ****                 break;
 4381              		.loc 4 1118 0
 4382 03aa ABE0     		b	.L219
 4383              	.L230:
1119:..\..\..\lvgl\version_6.1.2\lvgl\src\lv_objx/lv_tabview.c ****             case LV_TABVIEW_BTNS_POS_LEFT:
1120:..\..\..\lvgl\version_6.1.2\lvgl\src\lv_objx/lv_tabview.c ****                 lv_obj_align(ext->btns, NULL, LV_ALIGN_IN_TOP_LEFT, 0, 0);
 4384              		.loc 4 1120 0
 4385 03ac BB69     		ldr	r3, [r7, #24]
 4386 03ae 1868     		ldr	r0, [r3]
 4387 03b0 0023     		movs	r3, #0
 4388 03b2 0093     		str	r3, [sp]
 4389 03b4 0023     		movs	r3, #0
 4390 03b6 0122     		movs	r2, #1
 4391 03b8 0021     		movs	r1, #0
 4392 03ba FFF7FEFF 		bl	lv_obj_align
ARM GAS  C:\Users\tmj32\AppData\Local\Temp\cc94ZBZn.s 			page 105


1121:..\..\..\lvgl\version_6.1.2\lvgl\src\lv_objx/lv_tabview.c ****                 lv_obj_align(ext->content, tabview, LV_ALIGN_IN_TOP_LEFT, lv_obj_get_width(ext->btn
 4393              		.loc 4 1121 0
 4394 03be BB69     		ldr	r3, [r7, #24]
 4395 03c0 9C68     		ldr	r4, [r3, #8]
 4396 03c2 BB69     		ldr	r3, [r7, #24]
 4397 03c4 1B68     		ldr	r3, [r3]
 4398 03c6 1846     		mov	r0, r3
 4399 03c8 FFF7FEFF 		bl	lv_obj_get_width
 4400 03cc 0346     		mov	r3, r0
 4401 03ce 1A46     		mov	r2, r3
 4402 03d0 0023     		movs	r3, #0
 4403 03d2 0093     		str	r3, [sp]
 4404 03d4 1346     		mov	r3, r2
 4405 03d6 0122     		movs	r2, #1
 4406 03d8 7968     		ldr	r1, [r7, #4]
 4407 03da 2046     		mov	r0, r4
 4408 03dc FFF7FEFF 		bl	lv_obj_align
1122:..\..\..\lvgl\version_6.1.2\lvgl\src\lv_objx/lv_tabview.c ****                 lv_obj_align(ext->indic, ext->btns, LV_ALIGN_IN_TOP_RIGHT, 0, 0);
 4409              		.loc 4 1122 0
 4410 03e0 BB69     		ldr	r3, [r7, #24]
 4411 03e2 5868     		ldr	r0, [r3, #4]
 4412 03e4 BB69     		ldr	r3, [r7, #24]
 4413 03e6 1968     		ldr	r1, [r3]
 4414 03e8 0023     		movs	r3, #0
 4415 03ea 0093     		str	r3, [sp]
 4416 03ec 0023     		movs	r3, #0
 4417 03ee 0322     		movs	r2, #3
 4418 03f0 FFF7FEFF 		bl	lv_obj_align
1123:..\..\..\lvgl\version_6.1.2\lvgl\src\lv_objx/lv_tabview.c **** 
1124:..\..\..\lvgl\version_6.1.2\lvgl\src\lv_objx/lv_tabview.c ****                 lv_cont_set_fit2(ext->content, LV_FIT_TIGHT, LV_FIT_NONE);
 4419              		.loc 4 1124 0
 4420 03f4 BB69     		ldr	r3, [r7, #24]
 4421 03f6 9B68     		ldr	r3, [r3, #8]
 4422 03f8 0022     		movs	r2, #0
 4423 03fa 0121     		movs	r1, #1
 4424 03fc 1846     		mov	r0, r3
 4425 03fe FFF7FEFF 		bl	lv_cont_set_fit2
1125:..\..\..\lvgl\version_6.1.2\lvgl\src\lv_objx/lv_tabview.c ****                 lv_cont_set_layout(ext->content, LV_LAYOUT_ROW_T);
 4426              		.loc 4 1125 0
 4427 0402 BB69     		ldr	r3, [r7, #24]
 4428 0404 9B68     		ldr	r3, [r3, #8]
 4429 0406 0521     		movs	r1, #5
 4430 0408 1846     		mov	r0, r3
 4431 040a FFF7FEFF 		bl	lv_cont_set_layout
1126:..\..\..\lvgl\version_6.1.2\lvgl\src\lv_objx/lv_tabview.c ****                 lv_obj_set_width(ext->content, lv_obj_get_width(tabview) - lv_obj_get_width(ext->bt
 4432              		.loc 4 1126 0
 4433 040e BB69     		ldr	r3, [r7, #24]
 4434 0410 9D68     		ldr	r5, [r3, #8]
 4435 0412 7868     		ldr	r0, [r7, #4]
 4436 0414 FFF7FEFF 		bl	lv_obj_get_width
 4437 0418 0346     		mov	r3, r0
 4438 041a 9CB2     		uxth	r4, r3
 4439 041c BB69     		ldr	r3, [r7, #24]
 4440 041e 1B68     		ldr	r3, [r3]
 4441 0420 1846     		mov	r0, r3
 4442 0422 FFF7FEFF 		bl	lv_obj_get_width
 4443 0426 0346     		mov	r3, r0
ARM GAS  C:\Users\tmj32\AppData\Local\Temp\cc94ZBZn.s 			page 106


 4444 0428 9BB2     		uxth	r3, r3
 4445 042a E31A     		subs	r3, r4, r3
 4446 042c 9BB2     		uxth	r3, r3
 4447 042e 1BB2     		sxth	r3, r3
 4448 0430 1946     		mov	r1, r3
 4449 0432 2846     		mov	r0, r5
 4450 0434 FFF7FEFF 		bl	lv_obj_set_width
1127:..\..\..\lvgl\version_6.1.2\lvgl\src\lv_objx/lv_tabview.c **** 
1128:..\..\..\lvgl\version_6.1.2\lvgl\src\lv_objx/lv_tabview.c ****                 lv_obj_set_height(ext->btns, lv_obj_get_height(tabview));
 4451              		.loc 4 1128 0
 4452 0438 BB69     		ldr	r3, [r7, #24]
 4453 043a 1C68     		ldr	r4, [r3]
 4454 043c 7868     		ldr	r0, [r7, #4]
 4455 043e FFF7FEFF 		bl	lv_obj_get_height
 4456 0442 0346     		mov	r3, r0
 4457 0444 1946     		mov	r1, r3
 4458 0446 2046     		mov	r0, r4
 4459 0448 FFF7FEFF 		bl	lv_obj_set_height
1129:..\..\..\lvgl\version_6.1.2\lvgl\src\lv_objx/lv_tabview.c ****                 lv_obj_set_width(ext->indic, style_btn_bg->body.padding.inner);
 4460              		.loc 4 1129 0
 4461 044c BB69     		ldr	r3, [r7, #24]
 4462 044e 5A68     		ldr	r2, [r3, #4]
 4463 0450 7B69     		ldr	r3, [r7, #20]
 4464 0452 B3F92830 		ldrsh	r3, [r3, #40]
 4465 0456 1946     		mov	r1, r3
 4466 0458 1046     		mov	r0, r2
 4467 045a FFF7FEFF 		bl	lv_obj_set_width
1130:..\..\..\lvgl\version_6.1.2\lvgl\src\lv_objx/lv_tabview.c ****                 break;
 4468              		.loc 4 1130 0
 4469 045e 51E0     		b	.L219
 4470              	.L231:
1131:..\..\..\lvgl\version_6.1.2\lvgl\src\lv_objx/lv_tabview.c ****             case LV_TABVIEW_BTNS_POS_RIGHT:
1132:..\..\..\lvgl\version_6.1.2\lvgl\src\lv_objx/lv_tabview.c ****                 lv_obj_align(ext->btns, NULL, LV_ALIGN_IN_TOP_RIGHT, 0, 0);
 4471              		.loc 4 1132 0
 4472 0460 BB69     		ldr	r3, [r7, #24]
 4473 0462 1868     		ldr	r0, [r3]
 4474 0464 0023     		movs	r3, #0
 4475 0466 0093     		str	r3, [sp]
 4476 0468 0023     		movs	r3, #0
 4477 046a 0322     		movs	r2, #3
 4478 046c 0021     		movs	r1, #0
 4479 046e FFF7FEFF 		bl	lv_obj_align
1133:..\..\..\lvgl\version_6.1.2\lvgl\src\lv_objx/lv_tabview.c ****                 lv_obj_align(ext->content, tabview, LV_ALIGN_IN_TOP_LEFT, 0, 0);
 4480              		.loc 4 1133 0
 4481 0472 BB69     		ldr	r3, [r7, #24]
 4482 0474 9868     		ldr	r0, [r3, #8]
 4483 0476 0023     		movs	r3, #0
 4484 0478 0093     		str	r3, [sp]
 4485 047a 0023     		movs	r3, #0
 4486 047c 0122     		movs	r2, #1
 4487 047e 7968     		ldr	r1, [r7, #4]
 4488 0480 FFF7FEFF 		bl	lv_obj_align
1134:..\..\..\lvgl\version_6.1.2\lvgl\src\lv_objx/lv_tabview.c ****                 lv_obj_align(ext->indic, ext->btns, LV_ALIGN_IN_TOP_LEFT, 0, 0);
 4489              		.loc 4 1134 0
 4490 0484 BB69     		ldr	r3, [r7, #24]
 4491 0486 5868     		ldr	r0, [r3, #4]
 4492 0488 BB69     		ldr	r3, [r7, #24]
ARM GAS  C:\Users\tmj32\AppData\Local\Temp\cc94ZBZn.s 			page 107


 4493 048a 1968     		ldr	r1, [r3]
 4494 048c 0023     		movs	r3, #0
 4495 048e 0093     		str	r3, [sp]
 4496 0490 0023     		movs	r3, #0
 4497 0492 0122     		movs	r2, #1
 4498 0494 FFF7FEFF 		bl	lv_obj_align
1135:..\..\..\lvgl\version_6.1.2\lvgl\src\lv_objx/lv_tabview.c **** 
1136:..\..\..\lvgl\version_6.1.2\lvgl\src\lv_objx/lv_tabview.c ****                 lv_cont_set_fit2(ext->content, LV_FIT_TIGHT, LV_FIT_NONE);
 4499              		.loc 4 1136 0
 4500 0498 BB69     		ldr	r3, [r7, #24]
 4501 049a 9B68     		ldr	r3, [r3, #8]
 4502 049c 0022     		movs	r2, #0
 4503 049e 0121     		movs	r1, #1
 4504 04a0 1846     		mov	r0, r3
 4505 04a2 FFF7FEFF 		bl	lv_cont_set_fit2
1137:..\..\..\lvgl\version_6.1.2\lvgl\src\lv_objx/lv_tabview.c ****                 lv_cont_set_layout(ext->content, LV_LAYOUT_ROW_T);
 4506              		.loc 4 1137 0
 4507 04a6 BB69     		ldr	r3, [r7, #24]
 4508 04a8 9B68     		ldr	r3, [r3, #8]
 4509 04aa 0521     		movs	r1, #5
 4510 04ac 1846     		mov	r0, r3
 4511 04ae FFF7FEFF 		bl	lv_cont_set_layout
1138:..\..\..\lvgl\version_6.1.2\lvgl\src\lv_objx/lv_tabview.c ****                 lv_obj_set_width(ext->content, lv_obj_get_width(tabview) - lv_obj_get_width(ext->bt
 4512              		.loc 4 1138 0
 4513 04b2 BB69     		ldr	r3, [r7, #24]
 4514 04b4 9D68     		ldr	r5, [r3, #8]
 4515 04b6 7868     		ldr	r0, [r7, #4]
 4516 04b8 FFF7FEFF 		bl	lv_obj_get_width
 4517 04bc 0346     		mov	r3, r0
 4518 04be 9CB2     		uxth	r4, r3
 4519 04c0 BB69     		ldr	r3, [r7, #24]
 4520 04c2 1B68     		ldr	r3, [r3]
 4521 04c4 1846     		mov	r0, r3
 4522 04c6 FFF7FEFF 		bl	lv_obj_get_width
 4523 04ca 0346     		mov	r3, r0
 4524 04cc 9BB2     		uxth	r3, r3
 4525 04ce E31A     		subs	r3, r4, r3
 4526 04d0 9BB2     		uxth	r3, r3
 4527 04d2 1BB2     		sxth	r3, r3
 4528 04d4 1946     		mov	r1, r3
 4529 04d6 2846     		mov	r0, r5
 4530 04d8 FFF7FEFF 		bl	lv_obj_set_width
1139:..\..\..\lvgl\version_6.1.2\lvgl\src\lv_objx/lv_tabview.c **** 
1140:..\..\..\lvgl\version_6.1.2\lvgl\src\lv_objx/lv_tabview.c ****                 lv_obj_set_height(ext->btns, lv_obj_get_height(tabview));
 4531              		.loc 4 1140 0
 4532 04dc BB69     		ldr	r3, [r7, #24]
 4533 04de 1C68     		ldr	r4, [r3]
 4534 04e0 7868     		ldr	r0, [r7, #4]
 4535 04e2 FFF7FEFF 		bl	lv_obj_get_height
 4536 04e6 0346     		mov	r3, r0
 4537 04e8 1946     		mov	r1, r3
 4538 04ea 2046     		mov	r0, r4
 4539 04ec FFF7FEFF 		bl	lv_obj_set_height
1141:..\..\..\lvgl\version_6.1.2\lvgl\src\lv_objx/lv_tabview.c ****                 lv_obj_set_width(ext->indic, style_btn_bg->body.padding.inner);
 4540              		.loc 4 1141 0
 4541 04f0 BB69     		ldr	r3, [r7, #24]
 4542 04f2 5A68     		ldr	r2, [r3, #4]
ARM GAS  C:\Users\tmj32\AppData\Local\Temp\cc94ZBZn.s 			page 108


 4543 04f4 7B69     		ldr	r3, [r7, #20]
 4544 04f6 B3F92830 		ldrsh	r3, [r3, #40]
 4545 04fa 1946     		mov	r1, r3
 4546 04fc 1046     		mov	r0, r2
 4547 04fe FFF7FEFF 		bl	lv_obj_set_width
1142:..\..\..\lvgl\version_6.1.2\lvgl\src\lv_objx/lv_tabview.c ****                 break;
 4548              		.loc 4 1142 0
 4549 0502 00BF     		nop
 4550              	.L219:
 4551              	.LBE12:
1143:..\..\..\lvgl\version_6.1.2\lvgl\src\lv_objx/lv_tabview.c ****         }
1144:..\..\..\lvgl\version_6.1.2\lvgl\src\lv_objx/lv_tabview.c ****     }
1145:..\..\..\lvgl\version_6.1.2\lvgl\src\lv_objx/lv_tabview.c **** 
1146:..\..\..\lvgl\version_6.1.2\lvgl\src\lv_objx/lv_tabview.c ****     lv_obj_t * pages = lv_obj_get_child(ext->content, NULL);
 4552              		.loc 4 1146 0
 4553 0504 BB69     		ldr	r3, [r7, #24]
 4554 0506 9B68     		ldr	r3, [r3, #8]
 4555 0508 0021     		movs	r1, #0
 4556 050a 1846     		mov	r0, r3
 4557 050c FFF7FEFF 		bl	lv_obj_get_child
 4558 0510 F861     		str	r0, [r7, #28]
1147:..\..\..\lvgl\version_6.1.2\lvgl\src\lv_objx/lv_tabview.c ****     while(pages != NULL) {
 4559              		.loc 4 1147 0
 4560 0512 41E0     		b	.L233
 4561              	.L237:
1148:..\..\..\lvgl\version_6.1.2\lvgl\src\lv_objx/lv_tabview.c ****         if(lv_obj_get_signal_cb(pages) == tabpage_signal) { /*Be sure adjust only the pages (user c
 4562              		.loc 4 1148 0
 4563 0514 F869     		ldr	r0, [r7, #28]
 4564 0516 FFF7FEFF 		bl	lv_obj_get_signal_cb
 4565 051a 0246     		mov	r2, r0
 4566 051c 444B     		ldr	r3, .L247
 4567 051e 9A42     		cmp	r2, r3
 4568 0520 33D1     		bne	.L234
1149:..\..\..\lvgl\version_6.1.2\lvgl\src\lv_objx/lv_tabview.c ****             switch(ext->btns_pos) {
 4569              		.loc 4 1149 0
 4570 0522 BB69     		ldr	r3, [r7, #24]
 4571 0524 9B7E     		ldrb	r3, [r3, #26]
 4572 0526 C3F34113 		ubfx	r3, r3, #5, #2
 4573 052a DBB2     		uxtb	r3, r3
 4574 052c 023B     		subs	r3, r3, #2
 4575 052e 012B     		cmp	r3, #1
 4576 0530 10D9     		bls	.L246
1150:..\..\..\lvgl\version_6.1.2\lvgl\src\lv_objx/lv_tabview.c ****                 case LV_TABVIEW_BTNS_POS_TOP:
1151:..\..\..\lvgl\version_6.1.2\lvgl\src\lv_objx/lv_tabview.c ****                 case LV_TABVIEW_BTNS_POS_BOTTOM:
1152:..\..\..\lvgl\version_6.1.2\lvgl\src\lv_objx/lv_tabview.c ****                     lv_obj_set_size(pages, lv_obj_get_width(tabview), lv_obj_get_height(ext->conten
 4577              		.loc 4 1152 0
 4578 0532 7868     		ldr	r0, [r7, #4]
 4579 0534 FFF7FEFF 		bl	lv_obj_get_width
 4580 0538 0346     		mov	r3, r0
 4581 053a 1C46     		mov	r4, r3
 4582 053c BB69     		ldr	r3, [r7, #24]
 4583 053e 9B68     		ldr	r3, [r3, #8]
 4584 0540 1846     		mov	r0, r3
 4585 0542 FFF7FEFF 		bl	lv_obj_get_height
 4586 0546 0346     		mov	r3, r0
 4587 0548 1A46     		mov	r2, r3
 4588 054a 2146     		mov	r1, r4
ARM GAS  C:\Users\tmj32\AppData\Local\Temp\cc94ZBZn.s 			page 109


 4589 054c F869     		ldr	r0, [r7, #28]
 4590 054e FFF7FEFF 		bl	lv_obj_set_size
1153:..\..\..\lvgl\version_6.1.2\lvgl\src\lv_objx/lv_tabview.c ****                     break;
 4591              		.loc 4 1153 0
 4592 0552 1AE0     		b	.L234
 4593              	.L246:
1154:..\..\..\lvgl\version_6.1.2\lvgl\src\lv_objx/lv_tabview.c ****                 case LV_TABVIEW_BTNS_POS_LEFT:
1155:..\..\..\lvgl\version_6.1.2\lvgl\src\lv_objx/lv_tabview.c ****                 case LV_TABVIEW_BTNS_POS_RIGHT:
1156:..\..\..\lvgl\version_6.1.2\lvgl\src\lv_objx/lv_tabview.c ****                     lv_obj_set_size(pages, lv_obj_get_width(tabview) - lv_obj_get_width(ext->btns),
 4594              		.loc 4 1156 0
 4595 0554 7868     		ldr	r0, [r7, #4]
 4596 0556 FFF7FEFF 		bl	lv_obj_get_width
 4597 055a 0346     		mov	r3, r0
 4598 055c 9CB2     		uxth	r4, r3
 4599 055e BB69     		ldr	r3, [r7, #24]
 4600 0560 1B68     		ldr	r3, [r3]
 4601 0562 1846     		mov	r0, r3
 4602 0564 FFF7FEFF 		bl	lv_obj_get_width
 4603 0568 0346     		mov	r3, r0
 4604 056a 9BB2     		uxth	r3, r3
 4605 056c E31A     		subs	r3, r4, r3
 4606 056e 9BB2     		uxth	r3, r3
 4607 0570 1CB2     		sxth	r4, r3
1157:..\..\..\lvgl\version_6.1.2\lvgl\src\lv_objx/lv_tabview.c ****                                     lv_obj_get_height(ext->content));
 4608              		.loc 4 1157 0
 4609 0572 BB69     		ldr	r3, [r7, #24]
 4610 0574 9B68     		ldr	r3, [r3, #8]
1156:..\..\..\lvgl\version_6.1.2\lvgl\src\lv_objx/lv_tabview.c ****                                     lv_obj_get_height(ext->content));
 4611              		.loc 4 1156 0
 4612 0576 1846     		mov	r0, r3
 4613 0578 FFF7FEFF 		bl	lv_obj_get_height
 4614 057c 0346     		mov	r3, r0
 4615 057e 1A46     		mov	r2, r3
 4616 0580 2146     		mov	r1, r4
 4617 0582 F869     		ldr	r0, [r7, #28]
 4618 0584 FFF7FEFF 		bl	lv_obj_set_size
1158:..\..\..\lvgl\version_6.1.2\lvgl\src\lv_objx/lv_tabview.c ****                     break;
 4619              		.loc 4 1158 0
 4620 0588 00BF     		nop
 4621              	.L234:
1159:..\..\..\lvgl\version_6.1.2\lvgl\src\lv_objx/lv_tabview.c ****             }
1160:..\..\..\lvgl\version_6.1.2\lvgl\src\lv_objx/lv_tabview.c ****         }
1161:..\..\..\lvgl\version_6.1.2\lvgl\src\lv_objx/lv_tabview.c ****         pages = lv_obj_get_child(ext->content, pages);
 4622              		.loc 4 1161 0
 4623 058a BB69     		ldr	r3, [r7, #24]
 4624 058c 9B68     		ldr	r3, [r3, #8]
 4625 058e F969     		ldr	r1, [r7, #28]
 4626 0590 1846     		mov	r0, r3
 4627 0592 FFF7FEFF 		bl	lv_obj_get_child
 4628 0596 F861     		str	r0, [r7, #28]
 4629              	.L233:
1147:..\..\..\lvgl\version_6.1.2\lvgl\src\lv_objx/lv_tabview.c ****         if(lv_obj_get_signal_cb(pages) == tabpage_signal) { /*Be sure adjust only the pages (user c
 4630              		.loc 4 1147 0
 4631 0598 FB69     		ldr	r3, [r7, #28]
 4632 059a 002B     		cmp	r3, #0
 4633 059c BAD1     		bne	.L237
1162:..\..\..\lvgl\version_6.1.2\lvgl\src\lv_objx/lv_tabview.c ****     }
ARM GAS  C:\Users\tmj32\AppData\Local\Temp\cc94ZBZn.s 			page 110


1163:..\..\..\lvgl\version_6.1.2\lvgl\src\lv_objx/lv_tabview.c **** 
1164:..\..\..\lvgl\version_6.1.2\lvgl\src\lv_objx/lv_tabview.c ****     if(!ext->btns_hide) {
 4634              		.loc 4 1164 0
 4635 059e BB69     		ldr	r3, [r7, #24]
 4636 05a0 9B7E     		ldrb	r3, [r3, #26]	@ zero_extendqisi2
 4637 05a2 03F01003 		and	r3, r3, #16
 4638 05a6 DBB2     		uxtb	r3, r3
 4639 05a8 002B     		cmp	r3, #0
 4640 05aa 36D1     		bne	.L238
1165:..\..\..\lvgl\version_6.1.2\lvgl\src\lv_objx/lv_tabview.c ****         switch(ext->btns_pos) {
 4641              		.loc 4 1165 0
 4642 05ac BB69     		ldr	r3, [r7, #24]
 4643 05ae 9B7E     		ldrb	r3, [r3, #26]
 4644 05b0 C3F34113 		ubfx	r3, r3, #5, #2
 4645 05b4 DBB2     		uxtb	r3, r3
 4646 05b6 022B     		cmp	r3, #2
 4647 05b8 19D0     		beq	.L240
 4648 05ba 032B     		cmp	r3, #3
 4649 05bc 22D0     		beq	.L241
 4650 05be 012B     		cmp	r3, #1
 4651 05c0 0AD0     		beq	.L242
1166:..\..\..\lvgl\version_6.1.2\lvgl\src\lv_objx/lv_tabview.c ****             case LV_TABVIEW_BTNS_POS_TOP: lv_obj_align(ext->indic, ext->btns, LV_ALIGN_IN_BOTTOM_LE
 4652              		.loc 4 1166 0
 4653 05c2 BB69     		ldr	r3, [r7, #24]
 4654 05c4 5868     		ldr	r0, [r3, #4]
 4655 05c6 BB69     		ldr	r3, [r7, #24]
 4656 05c8 1968     		ldr	r1, [r3]
 4657 05ca 0023     		movs	r3, #0
 4658 05cc 0093     		str	r3, [sp]
 4659 05ce 0023     		movs	r3, #0
 4660 05d0 0422     		movs	r2, #4
 4661 05d2 FFF7FEFF 		bl	lv_obj_align
 4662 05d6 20E0     		b	.L238
 4663              	.L242:
1167:..\..\..\lvgl\version_6.1.2\lvgl\src\lv_objx/lv_tabview.c ****             case LV_TABVIEW_BTNS_POS_BOTTOM: lv_obj_align(ext->indic, ext->btns, LV_ALIGN_IN_TOP_LE
 4664              		.loc 4 1167 0
 4665 05d8 BB69     		ldr	r3, [r7, #24]
 4666 05da 5868     		ldr	r0, [r3, #4]
 4667 05dc BB69     		ldr	r3, [r7, #24]
 4668 05de 1968     		ldr	r1, [r3]
 4669 05e0 0023     		movs	r3, #0
 4670 05e2 0093     		str	r3, [sp]
 4671 05e4 0023     		movs	r3, #0
 4672 05e6 0122     		movs	r2, #1
 4673 05e8 FFF7FEFF 		bl	lv_obj_align
 4674 05ec 15E0     		b	.L238
 4675              	.L240:
1168:..\..\..\lvgl\version_6.1.2\lvgl\src\lv_objx/lv_tabview.c ****             case LV_TABVIEW_BTNS_POS_LEFT: lv_obj_align(ext->indic, ext->btns, LV_ALIGN_IN_TOP_RIGH
 4676              		.loc 4 1168 0
 4677 05ee BB69     		ldr	r3, [r7, #24]
 4678 05f0 5868     		ldr	r0, [r3, #4]
 4679 05f2 BB69     		ldr	r3, [r7, #24]
 4680 05f4 1968     		ldr	r1, [r3]
 4681 05f6 0023     		movs	r3, #0
 4682 05f8 0093     		str	r3, [sp]
 4683 05fa 0023     		movs	r3, #0
 4684 05fc 0322     		movs	r2, #3
ARM GAS  C:\Users\tmj32\AppData\Local\Temp\cc94ZBZn.s 			page 111


 4685 05fe FFF7FEFF 		bl	lv_obj_align
 4686 0602 0AE0     		b	.L238
 4687              	.L241:
1169:..\..\..\lvgl\version_6.1.2\lvgl\src\lv_objx/lv_tabview.c ****             case LV_TABVIEW_BTNS_POS_RIGHT: lv_obj_align(ext->indic, ext->btns, LV_ALIGN_IN_TOP_LEF
 4688              		.loc 4 1169 0
 4689 0604 BB69     		ldr	r3, [r7, #24]
 4690 0606 5868     		ldr	r0, [r3, #4]
 4691 0608 BB69     		ldr	r3, [r7, #24]
 4692 060a 1968     		ldr	r1, [r3]
 4693 060c 0023     		movs	r3, #0
 4694 060e 0093     		str	r3, [sp]
 4695 0610 0023     		movs	r3, #0
 4696 0612 0122     		movs	r2, #1
 4697 0614 FFF7FEFF 		bl	lv_obj_align
 4698 0618 00BF     		nop
 4699              	.L238:
1170:..\..\..\lvgl\version_6.1.2\lvgl\src\lv_objx/lv_tabview.c ****         }
1171:..\..\..\lvgl\version_6.1.2\lvgl\src\lv_objx/lv_tabview.c ****     }
1172:..\..\..\lvgl\version_6.1.2\lvgl\src\lv_objx/lv_tabview.c **** 
1173:..\..\..\lvgl\version_6.1.2\lvgl\src\lv_objx/lv_tabview.c ****     lv_tabview_set_tab_act(tabview, ext->tab_cur, LV_ANIM_OFF);
 4700              		.loc 4 1173 0
 4701 061a BB69     		ldr	r3, [r7, #24]
 4702 061c 9B8A     		ldrh	r3, [r3, #20]
 4703 061e 0022     		movs	r2, #0
 4704 0620 1946     		mov	r1, r3
 4705 0622 7868     		ldr	r0, [r7, #4]
 4706 0624 FFF7FEFF 		bl	lv_tabview_set_tab_act
1174:..\..\..\lvgl\version_6.1.2\lvgl\src\lv_objx/lv_tabview.c **** }
 4707              		.loc 4 1174 0
 4708 0628 00BF     		nop
 4709 062a 2037     		adds	r7, r7, #32
 4710              		.cfi_def_cfa_offset 16
 4711 062c BD46     		mov	sp, r7
 4712              		.cfi_def_cfa_register 13
 4713              		@ sp needed
 4714 062e B0BD     		pop	{r4, r5, r7, pc}
 4715              	.L248:
 4716              		.align	2
 4717              	.L247:
 4718 0630 00000000 		.word	tabpage_signal
 4719              		.cfi_endproc
 4720              	.LFE92:
 4721              		.size	tabview_realign, .-tabview_realign
 4722              		.text
 4723              	.Letext0:
 4724              		.file 5 "c:\\program files (x86)\\cypress\\psoc creator\\4.3\\psoc creator\\import\\gnu\\arm\\5.4.
 4725              		.file 6 "c:\\program files (x86)\\cypress\\psoc creator\\4.3\\psoc creator\\import\\gnu\\arm\\5.4.
 4726              		.file 7 "..\\..\\..\\lvgl\\version_6.1.2\\lvgl\\src\\lv_objx\\../../../lv_conf.h"
 4727              		.file 8 "..\\..\\..\\lvgl\\version_6.1.2\\lvgl\\src\\lv_objx\\../lv_core/../lv_misc/lv_color.h"
 4728              		.file 9 "..\\..\\..\\lvgl\\version_6.1.2\\lvgl\\src\\lv_objx\\../lv_core/../lv_misc/lv_anim.h"
 4729              		.file 10 "..\\..\\..\\lvgl\\version_6.1.2\\lvgl\\src\\lv_objx\\../lv_core/lv_style.h"
 4730              		.file 11 "..\\..\\..\\lvgl\\version_6.1.2\\lvgl\\src\\lv_objx\\../lv_core/../lv_misc/lv_types.h"
 4731              		.file 12 "..\\..\\..\\lvgl\\version_6.1.2\\lvgl\\src\\lv_objx\\../lv_core/../lv_misc/lv_ll.h"
 4732              		.file 13 "..\\..\\..\\lvgl\\version_6.1.2\\lvgl\\src\\lv_objx\\../lv_core/../lv_misc/lv_bidi.h"
 4733              		.file 14 "..\\..\\..\\lvgl\\version_6.1.2\\lvgl\\src\\lv_objx\\../lv_core/../lv_hal/../lv_misc/lv_
 4734              		.file 15 "..\\..\\..\\lvgl\\version_6.1.2\\lvgl\\src\\lv_objx\\../lv_core/../lv_hal/lv_hal_disp.h"
 4735              		.file 16 "..\\..\\..\\lvgl\\version_6.1.2\\lvgl\\src\\lv_objx\\../lv_core/lv_obj.h"
ARM GAS  C:\Users\tmj32\AppData\Local\Temp\cc94ZBZn.s 			page 112


 4736              		.file 17 "..\\..\\..\\lvgl\\version_6.1.2\\lvgl\\src\\lv_objx\\../lv_core/../lv_hal/lv_hal_indev.h
 4737              		.file 18 "..\\..\\..\\lvgl\\version_6.1.2\\lvgl\\src\\lv_objx\\../lv_objx/lv_btn.h"
 4738              		.file 19 "..\\..\\..\\lvgl\\version_6.1.2\\lvgl\\src\\lv_objx\\../lv_objx/lv_page.h"
 4739              		.file 20 "..\\..\\..\\lvgl\\version_6.1.2\\lvgl\\src\\lv_objx\\lv_tabview.h"
 4740              		.file 21 "..\\..\\..\\lvgl\\version_6.1.2\\lvgl\\src\\lv_objx\\lv_btnm.h"
 4741              		.file 22 "..\\..\\..\\lvgl\\version_6.1.2\\lvgl\\src\\lv_objx\\../lv_themes/lv_theme.h"
 4742              		.section	.debug_info,"",%progbits
 4743              	.Ldebug_info0:
 4744 0000 61290000 		.4byte	0x2961
 4745 0004 0400     		.2byte	0x4
 4746 0006 00000000 		.4byte	.Ldebug_abbrev0
 4747 000a 04       		.byte	0x4
 4748 000b 01       		.uleb128 0x1
 4749 000c 41140000 		.4byte	.LASF514
 4750 0010 0C       		.byte	0xc
 4751 0011 2D150000 		.4byte	.LASF515
 4752 0015 5D0D0000 		.4byte	.LASF516
 4753 0019 00000000 		.4byte	.Ldebug_ranges0+0
 4754 001d 00000000 		.4byte	0
 4755 0021 00000000 		.4byte	.Ldebug_line0
 4756 0025 02       		.uleb128 0x2
 4757 0026 AF120000 		.4byte	.LASF0
 4758 002a 05       		.byte	0x5
 4759 002b 1B       		.byte	0x1b
 4760 002c 30000000 		.4byte	0x30
 4761 0030 03       		.uleb128 0x3
 4762 0031 01       		.byte	0x1
 4763 0032 06       		.byte	0x6
 4764 0033 F2040000 		.4byte	.LASF2
 4765 0037 02       		.uleb128 0x2
 4766 0038 0A030000 		.4byte	.LASF1
 4767 003c 05       		.byte	0x5
 4768 003d 1D       		.byte	0x1d
 4769 003e 42000000 		.4byte	0x42
 4770 0042 03       		.uleb128 0x3
 4771 0043 01       		.byte	0x1
 4772 0044 08       		.byte	0x8
 4773 0045 DE050000 		.4byte	.LASF3
 4774 0049 02       		.uleb128 0x2
 4775 004a 23150000 		.4byte	.LASF4
 4776 004e 05       		.byte	0x5
 4777 004f 29       		.byte	0x29
 4778 0050 54000000 		.4byte	0x54
 4779 0054 03       		.uleb128 0x3
 4780 0055 02       		.byte	0x2
 4781 0056 05       		.byte	0x5
 4782 0057 1F170000 		.4byte	.LASF5
 4783 005b 02       		.uleb128 0x2
 4784 005c 51070000 		.4byte	.LASF6
 4785 0060 05       		.byte	0x5
 4786 0061 2B       		.byte	0x2b
 4787 0062 66000000 		.4byte	0x66
 4788 0066 03       		.uleb128 0x3
 4789 0067 02       		.byte	0x2
 4790 0068 07       		.byte	0x7
 4791 0069 1A1A0000 		.4byte	.LASF7
 4792 006d 02       		.uleb128 0x2
ARM GAS  C:\Users\tmj32\AppData\Local\Temp\cc94ZBZn.s 			page 113


 4793 006e C31A0000 		.4byte	.LASF8
 4794 0072 05       		.byte	0x5
 4795 0073 3F       		.byte	0x3f
 4796 0074 78000000 		.4byte	0x78
 4797 0078 03       		.uleb128 0x3
 4798 0079 04       		.byte	0x4
 4799 007a 05       		.byte	0x5
 4800 007b 8A030000 		.4byte	.LASF9
 4801 007f 02       		.uleb128 0x2
 4802 0080 1A0D0000 		.4byte	.LASF10
 4803 0084 05       		.byte	0x5
 4804 0085 41       		.byte	0x41
 4805 0086 8A000000 		.4byte	0x8a
 4806 008a 03       		.uleb128 0x3
 4807 008b 04       		.byte	0x4
 4808 008c 07       		.byte	0x7
 4809 008d 760B0000 		.4byte	.LASF11
 4810 0091 03       		.uleb128 0x3
 4811 0092 08       		.byte	0x8
 4812 0093 05       		.byte	0x5
 4813 0094 4F0D0000 		.4byte	.LASF12
 4814 0098 03       		.uleb128 0x3
 4815 0099 08       		.byte	0x8
 4816 009a 07       		.byte	0x7
 4817 009b 08130000 		.4byte	.LASF13
 4818 009f 04       		.uleb128 0x4
 4819 00a0 04       		.byte	0x4
 4820 00a1 05       		.byte	0x5
 4821 00a2 696E7400 		.ascii	"int\000"
 4822 00a6 03       		.uleb128 0x3
 4823 00a7 04       		.byte	0x4
 4824 00a8 07       		.byte	0x7
 4825 00a9 0F0F0000 		.4byte	.LASF14
 4826 00ad 02       		.uleb128 0x2
 4827 00ae 00000000 		.4byte	.LASF15
 4828 00b2 06       		.byte	0x6
 4829 00b3 14       		.byte	0x14
 4830 00b4 25000000 		.4byte	0x25
 4831 00b8 02       		.uleb128 0x2
 4832 00b9 FE040000 		.4byte	.LASF16
 4833 00bd 06       		.byte	0x6
 4834 00be 18       		.byte	0x18
 4835 00bf 37000000 		.4byte	0x37
 4836 00c3 02       		.uleb128 0x2
 4837 00c4 6F170000 		.4byte	.LASF17
 4838 00c8 06       		.byte	0x6
 4839 00c9 20       		.byte	0x20
 4840 00ca 49000000 		.4byte	0x49
 4841 00ce 02       		.uleb128 0x2
 4842 00cf 5A130000 		.4byte	.LASF18
 4843 00d3 06       		.byte	0x6
 4844 00d4 24       		.byte	0x24
 4845 00d5 5B000000 		.4byte	0x5b
 4846 00d9 02       		.uleb128 0x2
 4847 00da 08010000 		.4byte	.LASF19
 4848 00de 06       		.byte	0x6
 4849 00df 2C       		.byte	0x2c
ARM GAS  C:\Users\tmj32\AppData\Local\Temp\cc94ZBZn.s 			page 114


 4850 00e0 6D000000 		.4byte	0x6d
 4851 00e4 02       		.uleb128 0x2
 4852 00e5 9D190000 		.4byte	.LASF20
 4853 00e9 06       		.byte	0x6
 4854 00ea 30       		.byte	0x30
 4855 00eb 7F000000 		.4byte	0x7f
 4856 00ef 02       		.uleb128 0x2
 4857 00f0 4D1A0000 		.4byte	.LASF21
 4858 00f4 07       		.byte	0x7
 4859 00f5 3C       		.byte	0x3c
 4860 00f6 C3000000 		.4byte	0xc3
 4861 00fa 05       		.uleb128 0x5
 4862 00fb 04       		.byte	0x4
 4863 00fc 03       		.uleb128 0x3
 4864 00fd 08       		.byte	0x8
 4865 00fe 04       		.byte	0x4
 4866 00ff 3C110000 		.4byte	.LASF22
 4867 0103 06       		.uleb128 0x6
 4868 0104 08       		.byte	0x8
 4869 0105 01       		.byte	0x1
 4870 0106 2E       		.byte	0x2e
 4871 0107 54010000 		.4byte	0x154
 4872 010b 07       		.uleb128 0x7
 4873 010c 39000000 		.4byte	.LASF23
 4874 0110 01       		.byte	0x1
 4875 0111 30       		.byte	0x30
 4876 0112 CE000000 		.4byte	0xce
 4877 0116 00       		.byte	0
 4878 0117 07       		.uleb128 0x7
 4879 0118 19170000 		.4byte	.LASF24
 4880 011c 01       		.byte	0x1
 4881 011d 31       		.byte	0x31
 4882 011e B8000000 		.4byte	0xb8
 4883 0122 02       		.byte	0x2
 4884 0123 07       		.uleb128 0x7
 4885 0124 E1160000 		.4byte	.LASF25
 4886 0128 01       		.byte	0x1
 4887 0129 32       		.byte	0x32
 4888 012a B8000000 		.4byte	0xb8
 4889 012e 03       		.byte	0x3
 4890 012f 07       		.uleb128 0x7
 4891 0130 5D060000 		.4byte	.LASF26
 4892 0134 01       		.byte	0x1
 4893 0135 33       		.byte	0x33
 4894 0136 AD000000 		.4byte	0xad
 4895 013a 04       		.byte	0x4
 4896 013b 07       		.uleb128 0x7
 4897 013c 63060000 		.4byte	.LASF27
 4898 0140 01       		.byte	0x1
 4899 0141 34       		.byte	0x34
 4900 0142 AD000000 		.4byte	0xad
 4901 0146 05       		.byte	0x5
 4902 0147 08       		.uleb128 0x8
 4903 0148 62707000 		.ascii	"bpp\000"
 4904 014c 01       		.byte	0x1
 4905 014d 35       		.byte	0x35
 4906 014e B8000000 		.4byte	0xb8
ARM GAS  C:\Users\tmj32\AppData\Local\Temp\cc94ZBZn.s 			page 115


 4907 0152 06       		.byte	0x6
 4908 0153 00       		.byte	0
 4909 0154 02       		.uleb128 0x2
 4910 0155 3D100000 		.4byte	.LASF28
 4911 0159 01       		.byte	0x1
 4912 015a 36       		.byte	0x36
 4913 015b 03010000 		.4byte	0x103
 4914 015f 09       		.uleb128 0x9
 4915 0160 431B0000 		.4byte	.LASF51
 4916 0164 10       		.byte	0x10
 4917 0165 01       		.byte	0x1
 4918 0166 44       		.byte	0x44
 4919 0167 B7010000 		.4byte	0x1b7
 4920 016b 07       		.uleb128 0x7
 4921 016c B51A0000 		.4byte	.LASF29
 4922 0170 01       		.byte	0x1
 4923 0171 47       		.byte	0x47
 4924 0172 ED010000 		.4byte	0x1ed
 4925 0176 00       		.byte	0
 4926 0177 07       		.uleb128 0x7
 4927 0178 A2050000 		.4byte	.LASF30
 4928 017c 01       		.byte	0x1
 4929 017d 4A       		.byte	0x4a
 4930 017e 12020000 		.4byte	0x212
 4931 0182 04       		.byte	0x4
 4932 0183 07       		.uleb128 0x7
 4933 0184 9D010000 		.4byte	.LASF31
 4934 0188 01       		.byte	0x1
 4935 0189 4D       		.byte	0x4d
 4936 018a B8000000 		.4byte	0xb8
 4937 018e 08       		.byte	0x8
 4938 018f 07       		.uleb128 0x7
 4939 0190 39170000 		.4byte	.LASF32
 4940 0194 01       		.byte	0x1
 4941 0195 4E       		.byte	0x4e
 4942 0196 AD000000 		.4byte	0xad
 4943 019a 09       		.byte	0x9
 4944 019b 0A       		.uleb128 0xa
 4945 019c D6110000 		.4byte	.LASF61
 4946 01a0 01       		.byte	0x1
 4947 01a1 4F       		.byte	0x4f
 4948 01a2 B8000000 		.4byte	0xb8
 4949 01a6 01       		.byte	0x1
 4950 01a7 02       		.byte	0x2
 4951 01a8 06       		.byte	0x6
 4952 01a9 0A       		.byte	0xa
 4953 01aa 08       		.uleb128 0x8
 4954 01ab 64736300 		.ascii	"dsc\000"
 4955 01af 01       		.byte	0x1
 4956 01b0 50       		.byte	0x50
 4957 01b1 FA000000 		.4byte	0xfa
 4958 01b5 0C       		.byte	0xc
 4959 01b6 00       		.byte	0
 4960 01b7 0B       		.uleb128 0xb
 4961 01b8 D5010000 		.4byte	0x1d5
 4962 01bc D5010000 		.4byte	0x1d5
 4963 01c0 0C       		.uleb128 0xc
ARM GAS  C:\Users\tmj32\AppData\Local\Temp\cc94ZBZn.s 			page 116


 4964 01c1 DC010000 		.4byte	0x1dc
 4965 01c5 0C       		.uleb128 0xc
 4966 01c6 E7010000 		.4byte	0x1e7
 4967 01ca 0C       		.uleb128 0xc
 4968 01cb E4000000 		.4byte	0xe4
 4969 01cf 0C       		.uleb128 0xc
 4970 01d0 E4000000 		.4byte	0xe4
 4971 01d4 00       		.byte	0
 4972 01d5 03       		.uleb128 0x3
 4973 01d6 01       		.byte	0x1
 4974 01d7 02       		.byte	0x2
 4975 01d8 70060000 		.4byte	.LASF33
 4976 01dc 0D       		.uleb128 0xd
 4977 01dd 04       		.byte	0x4
 4978 01de E2010000 		.4byte	0x1e2
 4979 01e2 0E       		.uleb128 0xe
 4980 01e3 5F010000 		.4byte	0x15f
 4981 01e7 0D       		.uleb128 0xd
 4982 01e8 04       		.byte	0x4
 4983 01e9 54010000 		.4byte	0x154
 4984 01ed 0D       		.uleb128 0xd
 4985 01ee 04       		.byte	0x4
 4986 01ef B7010000 		.4byte	0x1b7
 4987 01f3 0B       		.uleb128 0xb
 4988 01f4 07020000 		.4byte	0x207
 4989 01f8 07020000 		.4byte	0x207
 4990 01fc 0C       		.uleb128 0xc
 4991 01fd DC010000 		.4byte	0x1dc
 4992 0201 0C       		.uleb128 0xc
 4993 0202 E4000000 		.4byte	0xe4
 4994 0206 00       		.byte	0
 4995 0207 0D       		.uleb128 0xd
 4996 0208 04       		.byte	0x4
 4997 0209 0D020000 		.4byte	0x20d
 4998 020d 0E       		.uleb128 0xe
 4999 020e B8000000 		.4byte	0xb8
 5000 0212 0D       		.uleb128 0xd
 5001 0213 04       		.byte	0x4
 5002 0214 F3010000 		.4byte	0x1f3
 5003 0218 02       		.uleb128 0x2
 5004 0219 F1190000 		.4byte	.LASF34
 5005 021d 01       		.byte	0x1
 5006 021e 56       		.byte	0x56
 5007 021f 5F010000 		.4byte	0x15f
 5008 0223 06       		.uleb128 0x6
 5009 0224 04       		.byte	0x4
 5010 0225 08       		.byte	0x8
 5011 0226 F3       		.byte	0xf3
 5012 0227 5C020000 		.4byte	0x25c
 5013 022b 07       		.uleb128 0x7
 5014 022c B8050000 		.4byte	.LASF35
 5015 0230 08       		.byte	0x8
 5016 0231 F5       		.byte	0xf5
 5017 0232 B8000000 		.4byte	0xb8
 5018 0236 00       		.byte	0
 5019 0237 07       		.uleb128 0x7
 5020 0238 EB190000 		.4byte	.LASF36
ARM GAS  C:\Users\tmj32\AppData\Local\Temp\cc94ZBZn.s 			page 117


 5021 023c 08       		.byte	0x8
 5022 023d F6       		.byte	0xf6
 5023 023e B8000000 		.4byte	0xb8
 5024 0242 01       		.byte	0x1
 5025 0243 08       		.uleb128 0x8
 5026 0244 72656400 		.ascii	"red\000"
 5027 0248 08       		.byte	0x8
 5028 0249 F7       		.byte	0xf7
 5029 024a B8000000 		.4byte	0xb8
 5030 024e 02       		.byte	0x2
 5031 024f 07       		.uleb128 0x7
 5032 0250 14030000 		.4byte	.LASF37
 5033 0254 08       		.byte	0x8
 5034 0255 F8       		.byte	0xf8
 5035 0256 B8000000 		.4byte	0xb8
 5036 025a 03       		.byte	0x3
 5037 025b 00       		.byte	0
 5038 025c 0F       		.uleb128 0xf
 5039 025d 04       		.byte	0x4
 5040 025e 08       		.byte	0x8
 5041 025f F1       		.byte	0xf1
 5042 0260 7A020000 		.4byte	0x27a
 5043 0264 10       		.uleb128 0x10
 5044 0265 636800   		.ascii	"ch\000"
 5045 0268 08       		.byte	0x8
 5046 0269 F9       		.byte	0xf9
 5047 026a 23020000 		.4byte	0x223
 5048 026e 11       		.uleb128 0x11
 5049 026f 9D150000 		.4byte	.LASF38
 5050 0273 08       		.byte	0x8
 5051 0274 FA       		.byte	0xfa
 5052 0275 E4000000 		.4byte	0xe4
 5053 0279 00       		.byte	0
 5054 027a 02       		.uleb128 0x2
 5055 027b 65000000 		.4byte	.LASF39
 5056 027f 08       		.byte	0x8
 5057 0280 FB       		.byte	0xfb
 5058 0281 5C020000 		.4byte	0x25c
 5059 0285 12       		.uleb128 0x12
 5060 0286 A6130000 		.4byte	.LASF40
 5061 028a 08       		.byte	0x8
 5062 028b 0801     		.2byte	0x108
 5063 028d 7A020000 		.4byte	0x27a
 5064 0291 12       		.uleb128 0x12
 5065 0292 FF000000 		.4byte	.LASF41
 5066 0296 08       		.byte	0x8
 5067 0297 0D01     		.2byte	0x10d
 5068 0299 B8000000 		.4byte	0xb8
 5069 029d 03       		.uleb128 0x3
 5070 029e 04       		.byte	0x4
 5071 029f 07       		.byte	0x7
 5072 02a0 56000000 		.4byte	.LASF42
 5073 02a4 0D       		.uleb128 0xd
 5074 02a5 04       		.byte	0x4
 5075 02a6 AA020000 		.4byte	0x2aa
 5076 02aa 03       		.uleb128 0x3
 5077 02ab 01       		.byte	0x1
ARM GAS  C:\Users\tmj32\AppData\Local\Temp\cc94ZBZn.s 			page 118


 5078 02ac 08       		.byte	0x8
 5079 02ad A5060000 		.4byte	.LASF43
 5080 02b1 0D       		.uleb128 0xd
 5081 02b2 04       		.byte	0x4
 5082 02b3 B7020000 		.4byte	0x2b7
 5083 02b7 0E       		.uleb128 0xe
 5084 02b8 AA020000 		.4byte	0x2aa
 5085 02bc 06       		.uleb128 0x6
 5086 02bd 04       		.byte	0x4
 5087 02be 02       		.byte	0x2
 5088 02bf 2A       		.byte	0x2a
 5089 02c0 D9020000 		.4byte	0x2d9
 5090 02c4 08       		.uleb128 0x8
 5091 02c5 7800     		.ascii	"x\000"
 5092 02c7 02       		.byte	0x2
 5093 02c8 2C       		.byte	0x2c
 5094 02c9 EF000000 		.4byte	0xef
 5095 02cd 00       		.byte	0
 5096 02ce 08       		.uleb128 0x8
 5097 02cf 7900     		.ascii	"y\000"
 5098 02d1 02       		.byte	0x2
 5099 02d2 2D       		.byte	0x2d
 5100 02d3 EF000000 		.4byte	0xef
 5101 02d7 02       		.byte	0x2
 5102 02d8 00       		.byte	0
 5103 02d9 02       		.uleb128 0x2
 5104 02da 57010000 		.4byte	.LASF44
 5105 02de 02       		.byte	0x2
 5106 02df 2E       		.byte	0x2e
 5107 02e0 BC020000 		.4byte	0x2bc
 5108 02e4 06       		.uleb128 0x6
 5109 02e5 08       		.byte	0x8
 5110 02e6 02       		.byte	0x2
 5111 02e7 31       		.byte	0x31
 5112 02e8 19030000 		.4byte	0x319
 5113 02ec 08       		.uleb128 0x8
 5114 02ed 783100   		.ascii	"x1\000"
 5115 02f0 02       		.byte	0x2
 5116 02f1 33       		.byte	0x33
 5117 02f2 EF000000 		.4byte	0xef
 5118 02f6 00       		.byte	0
 5119 02f7 08       		.uleb128 0x8
 5120 02f8 793100   		.ascii	"y1\000"
 5121 02fb 02       		.byte	0x2
 5122 02fc 34       		.byte	0x34
 5123 02fd EF000000 		.4byte	0xef
 5124 0301 02       		.byte	0x2
 5125 0302 08       		.uleb128 0x8
 5126 0303 783200   		.ascii	"x2\000"
 5127 0306 02       		.byte	0x2
 5128 0307 35       		.byte	0x35
 5129 0308 EF000000 		.4byte	0xef
 5130 030c 04       		.byte	0x4
 5131 030d 08       		.uleb128 0x8
 5132 030e 793200   		.ascii	"y2\000"
 5133 0311 02       		.byte	0x2
 5134 0312 36       		.byte	0x36
ARM GAS  C:\Users\tmj32\AppData\Local\Temp\cc94ZBZn.s 			page 119


 5135 0313 EF000000 		.4byte	0xef
 5136 0317 06       		.byte	0x6
 5137 0318 00       		.byte	0
 5138 0319 02       		.uleb128 0x2
 5139 031a 9F090000 		.4byte	.LASF45
 5140 031e 02       		.byte	0x2
 5141 031f 37       		.byte	0x37
 5142 0320 E4020000 		.4byte	0x2e4
 5143 0324 13       		.uleb128 0x13
 5144 0325 01       		.byte	0x1
 5145 0326 42000000 		.4byte	0x42
 5146 032a 09       		.byte	0x9
 5147 032b 23       		.byte	0x23
 5148 032c 3D030000 		.4byte	0x33d
 5149 0330 14       		.uleb128 0x14
 5150 0331 56050000 		.4byte	.LASF46
 5151 0335 00       		.byte	0
 5152 0336 14       		.uleb128 0x14
 5153 0337 88000000 		.4byte	.LASF47
 5154 033b 01       		.byte	0x1
 5155 033c 00       		.byte	0
 5156 033d 02       		.uleb128 0x2
 5157 033e 570C0000 		.4byte	.LASF48
 5158 0342 09       		.byte	0x9
 5159 0343 28       		.byte	0x28
 5160 0344 B8000000 		.4byte	0xb8
 5161 0348 02       		.uleb128 0x2
 5162 0349 02080000 		.4byte	.LASF49
 5163 034d 09       		.byte	0x9
 5164 034e 2B       		.byte	0x2b
 5165 034f EF000000 		.4byte	0xef
 5166 0353 02       		.uleb128 0x2
 5167 0354 DC060000 		.4byte	.LASF50
 5168 0358 09       		.byte	0x9
 5169 0359 37       		.byte	0x37
 5170 035a 5E030000 		.4byte	0x35e
 5171 035e 0D       		.uleb128 0xd
 5172 035f 04       		.byte	0x4
 5173 0360 64030000 		.4byte	0x364
 5174 0364 15       		.uleb128 0x15
 5175 0365 74030000 		.4byte	0x374
 5176 0369 0C       		.uleb128 0xc
 5177 036a FA000000 		.4byte	0xfa
 5178 036e 0C       		.uleb128 0xc
 5179 036f 48030000 		.4byte	0x348
 5180 0373 00       		.byte	0
 5181 0374 0D       		.uleb128 0xd
 5182 0375 04       		.byte	0x4
 5183 0376 7A030000 		.4byte	0x37a
 5184 037a 09       		.uleb128 0x9
 5185 037b 591B0000 		.4byte	.LASF52
 5186 037f 24       		.byte	0x24
 5187 0380 09       		.byte	0x9
 5188 0381 44       		.byte	0x44
 5189 0382 3B040000 		.4byte	0x43b
 5190 0386 08       		.uleb128 0x8
 5191 0387 76617200 		.ascii	"var\000"
ARM GAS  C:\Users\tmj32\AppData\Local\Temp\cc94ZBZn.s 			page 120


 5192 038b 09       		.byte	0x9
 5193 038c 46       		.byte	0x46
 5194 038d FA000000 		.4byte	0xfa
 5195 0391 00       		.byte	0
 5196 0392 07       		.uleb128 0x7
 5197 0393 11140000 		.4byte	.LASF53
 5198 0397 09       		.byte	0x9
 5199 0398 47       		.byte	0x47
 5200 0399 53030000 		.4byte	0x353
 5201 039d 04       		.byte	0x4
 5202 039e 07       		.uleb128 0x7
 5203 039f A9010000 		.4byte	.LASF54
 5204 03a3 09       		.byte	0x9
 5205 03a4 48       		.byte	0x48
 5206 03a5 3B040000 		.4byte	0x43b
 5207 03a9 08       		.byte	0x8
 5208 03aa 07       		.uleb128 0x7
 5209 03ab E1080000 		.4byte	.LASF55
 5210 03af 09       		.byte	0x9
 5211 03b0 49       		.byte	0x49
 5212 03b1 66040000 		.4byte	0x466
 5213 03b5 0C       		.byte	0xc
 5214 03b6 07       		.uleb128 0x7
 5215 03b7 5F000000 		.4byte	.LASF56
 5216 03bb 09       		.byte	0x9
 5217 03bc 4A       		.byte	0x4a
 5218 03bd D9000000 		.4byte	0xd9
 5219 03c1 10       		.byte	0x10
 5220 03c2 08       		.uleb128 0x8
 5221 03c3 656E6400 		.ascii	"end\000"
 5222 03c7 09       		.byte	0x9
 5223 03c8 4B       		.byte	0x4b
 5224 03c9 D9000000 		.4byte	0xd9
 5225 03cd 14       		.byte	0x14
 5226 03ce 07       		.uleb128 0x7
 5227 03cf BE150000 		.4byte	.LASF57
 5228 03d3 09       		.byte	0x9
 5229 03d4 4C       		.byte	0x4c
 5230 03d5 CE000000 		.4byte	0xce
 5231 03d9 18       		.byte	0x18
 5232 03da 07       		.uleb128 0x7
 5233 03db E6180000 		.4byte	.LASF58
 5234 03df 09       		.byte	0x9
 5235 03e0 4D       		.byte	0x4d
 5236 03e1 C3000000 		.4byte	0xc3
 5237 03e5 1A       		.byte	0x1a
 5238 03e6 07       		.uleb128 0x7
 5239 03e7 B1190000 		.4byte	.LASF59
 5240 03eb 09       		.byte	0x9
 5241 03ec 4E       		.byte	0x4e
 5242 03ed CE000000 		.4byte	0xce
 5243 03f1 1C       		.byte	0x1c
 5244 03f2 07       		.uleb128 0x7
 5245 03f3 61030000 		.4byte	.LASF60
 5246 03f7 09       		.byte	0x9
 5247 03f8 4F       		.byte	0x4f
 5248 03f9 CE000000 		.4byte	0xce
ARM GAS  C:\Users\tmj32\AppData\Local\Temp\cc94ZBZn.s 			page 121


 5249 03fd 1E       		.byte	0x1e
 5250 03fe 0A       		.uleb128 0xa
 5251 03ff 29170000 		.4byte	.LASF62
 5252 0403 09       		.byte	0x9
 5253 0404 54       		.byte	0x54
 5254 0405 B8000000 		.4byte	0xb8
 5255 0409 01       		.byte	0x1
 5256 040a 01       		.byte	0x1
 5257 040b 07       		.byte	0x7
 5258 040c 20       		.byte	0x20
 5259 040d 0A       		.uleb128 0xa
 5260 040e D3000000 		.4byte	.LASF63
 5261 0412 09       		.byte	0x9
 5262 0413 55       		.byte	0x55
 5263 0414 B8000000 		.4byte	0xb8
 5264 0418 01       		.byte	0x1
 5265 0419 01       		.byte	0x1
 5266 041a 06       		.byte	0x6
 5267 041b 20       		.byte	0x20
 5268 041c 0A       		.uleb128 0xa
 5269 041d 9B1A0000 		.4byte	.LASF64
 5270 0421 09       		.byte	0x9
 5271 0422 57       		.byte	0x57
 5272 0423 B8000000 		.4byte	0xb8
 5273 0427 01       		.byte	0x1
 5274 0428 01       		.byte	0x1
 5275 0429 05       		.byte	0x5
 5276 042a 20       		.byte	0x20
 5277 042b 0A       		.uleb128 0xa
 5278 042c D5120000 		.4byte	.LASF65
 5279 0430 09       		.byte	0x9
 5280 0431 58       		.byte	0x58
 5281 0432 E4000000 		.4byte	0xe4
 5282 0436 04       		.byte	0x4
 5283 0437 01       		.byte	0x1
 5284 0438 1C       		.byte	0x1c
 5285 0439 20       		.byte	0x20
 5286 043a 00       		.byte	0
 5287 043b 02       		.uleb128 0x2
 5288 043c 4D0F0000 		.4byte	.LASF66
 5289 0440 09       		.byte	0x9
 5290 0441 3E       		.byte	0x3e
 5291 0442 46040000 		.4byte	0x446
 5292 0446 0D       		.uleb128 0xd
 5293 0447 04       		.byte	0x4
 5294 0448 4C040000 		.4byte	0x44c
 5295 044c 0B       		.uleb128 0xb
 5296 044d 48030000 		.4byte	0x348
 5297 0451 5B040000 		.4byte	0x45b
 5298 0455 0C       		.uleb128 0xc
 5299 0456 5B040000 		.4byte	0x45b
 5300 045a 00       		.byte	0
 5301 045b 0D       		.uleb128 0xd
 5302 045c 04       		.byte	0x4
 5303 045d 61040000 		.4byte	0x461
 5304 0461 0E       		.uleb128 0xe
 5305 0462 7A030000 		.4byte	0x37a
ARM GAS  C:\Users\tmj32\AppData\Local\Temp\cc94ZBZn.s 			page 122


 5306 0466 02       		.uleb128 0x2
 5307 0467 3F0A0000 		.4byte	.LASF67
 5308 046b 09       		.byte	0x9
 5309 046c 41       		.byte	0x41
 5310 046d 71040000 		.4byte	0x471
 5311 0471 0D       		.uleb128 0xd
 5312 0472 04       		.byte	0x4
 5313 0473 77040000 		.4byte	0x477
 5314 0477 15       		.uleb128 0x15
 5315 0478 82040000 		.4byte	0x482
 5316 047c 0C       		.uleb128 0xc
 5317 047d 74030000 		.4byte	0x374
 5318 0481 00       		.byte	0
 5319 0482 02       		.uleb128 0x2
 5320 0483 5F0B0000 		.4byte	.LASF68
 5321 0487 09       		.byte	0x9
 5322 0488 59       		.byte	0x59
 5323 0489 7A030000 		.4byte	0x37a
 5324 048d 02       		.uleb128 0x2
 5325 048e DB1A0000 		.4byte	.LASF69
 5326 0492 0A       		.byte	0xa
 5327 0493 2C       		.byte	0x2c
 5328 0494 B8000000 		.4byte	0xb8
 5329 0498 02       		.uleb128 0x2
 5330 0499 22160000 		.4byte	.LASF70
 5331 049d 0A       		.byte	0xa
 5332 049e 33       		.byte	0x33
 5333 049f B8000000 		.4byte	0xb8
 5334 04a3 06       		.uleb128 0x6
 5335 04a4 08       		.byte	0x8
 5336 04a5 0A       		.byte	0xa
 5337 04a6 48       		.byte	0x48
 5338 04a7 DC040000 		.4byte	0x4dc
 5339 04ab 07       		.uleb128 0x7
 5340 04ac B8150000 		.4byte	.LASF71
 5341 04b0 0A       		.byte	0xa
 5342 04b1 4A       		.byte	0x4a
 5343 04b2 85020000 		.4byte	0x285
 5344 04b6 00       		.byte	0
 5345 04b7 07       		.uleb128 0x7
 5346 04b8 130E0000 		.4byte	.LASF72
 5347 04bc 0A       		.byte	0xa
 5348 04bd 4B       		.byte	0x4b
 5349 04be EF000000 		.4byte	0xef
 5350 04c2 04       		.byte	0x4
 5351 04c3 07       		.uleb128 0x7
 5352 04c4 3B1A0000 		.4byte	.LASF73
 5353 04c8 0A       		.byte	0xa
 5354 04c9 4C       		.byte	0x4c
 5355 04ca 8D040000 		.4byte	0x48d
 5356 04ce 06       		.byte	0x6
 5357 04cf 08       		.uleb128 0x8
 5358 04d0 6F706100 		.ascii	"opa\000"
 5359 04d4 0A       		.byte	0xa
 5360 04d5 4D       		.byte	0x4d
 5361 04d6 91020000 		.4byte	0x291
 5362 04da 07       		.byte	0x7
ARM GAS  C:\Users\tmj32\AppData\Local\Temp\cc94ZBZn.s 			page 123


 5363 04db 00       		.byte	0
 5364 04dc 06       		.uleb128 0x6
 5365 04dd 08       		.byte	0x8
 5366 04de 0A       		.byte	0xa
 5367 04df 51       		.byte	0x51
 5368 04e0 09050000 		.4byte	0x509
 5369 04e4 07       		.uleb128 0x7
 5370 04e5 B8150000 		.4byte	.LASF71
 5371 04e9 0A       		.byte	0xa
 5372 04ea 53       		.byte	0x53
 5373 04eb 85020000 		.4byte	0x285
 5374 04ef 00       		.byte	0
 5375 04f0 07       		.uleb128 0x7
 5376 04f1 130E0000 		.4byte	.LASF72
 5377 04f5 0A       		.byte	0xa
 5378 04f6 54       		.byte	0x54
 5379 04f7 EF000000 		.4byte	0xef
 5380 04fb 04       		.byte	0x4
 5381 04fc 07       		.uleb128 0x7
 5382 04fd 5C020000 		.4byte	.LASF74
 5383 0501 0A       		.byte	0xa
 5384 0502 55       		.byte	0x55
 5385 0503 98040000 		.4byte	0x498
 5386 0507 06       		.byte	0x6
 5387 0508 00       		.byte	0
 5388 0509 06       		.uleb128 0x6
 5389 050a 0A       		.byte	0xa
 5390 050b 0A       		.byte	0xa
 5391 050c 58       		.byte	0x58
 5392 050d 4E050000 		.4byte	0x54e
 5393 0511 08       		.uleb128 0x8
 5394 0512 746F7000 		.ascii	"top\000"
 5395 0516 0A       		.byte	0xa
 5396 0517 5A       		.byte	0x5a
 5397 0518 EF000000 		.4byte	0xef
 5398 051c 00       		.byte	0
 5399 051d 07       		.uleb128 0x7
 5400 051e 410E0000 		.4byte	.LASF75
 5401 0522 0A       		.byte	0xa
 5402 0523 5B       		.byte	0x5b
 5403 0524 EF000000 		.4byte	0xef
 5404 0528 02       		.byte	0x2
 5405 0529 07       		.uleb128 0x7
 5406 052a 240A0000 		.4byte	.LASF76
 5407 052e 0A       		.byte	0xa
 5408 052f 5C       		.byte	0x5c
 5409 0530 EF000000 		.4byte	0xef
 5410 0534 04       		.byte	0x4
 5411 0535 07       		.uleb128 0x7
 5412 0536 410D0000 		.4byte	.LASF77
 5413 053a 0A       		.byte	0xa
 5414 053b 5D       		.byte	0x5d
 5415 053c EF000000 		.4byte	0xef
 5416 0540 06       		.byte	0x6
 5417 0541 07       		.uleb128 0x7
 5418 0542 380B0000 		.4byte	.LASF78
 5419 0546 0A       		.byte	0xa
ARM GAS  C:\Users\tmj32\AppData\Local\Temp\cc94ZBZn.s 			page 124


 5420 0547 5E       		.byte	0x5e
 5421 0548 EF000000 		.4byte	0xef
 5422 054c 08       		.byte	0x8
 5423 054d 00       		.byte	0
 5424 054e 06       		.uleb128 0x6
 5425 054f 28       		.byte	0x28
 5426 0550 0A       		.byte	0xa
 5427 0551 41       		.byte	0x41
 5428 0552 AB050000 		.4byte	0x5ab
 5429 0556 07       		.uleb128 0x7
 5430 0557 90120000 		.4byte	.LASF79
 5431 055b 0A       		.byte	0xa
 5432 055c 43       		.byte	0x43
 5433 055d 85020000 		.4byte	0x285
 5434 0561 00       		.byte	0
 5435 0562 07       		.uleb128 0x7
 5436 0563 5B100000 		.4byte	.LASF80
 5437 0567 0A       		.byte	0xa
 5438 0568 44       		.byte	0x44
 5439 0569 85020000 		.4byte	0x285
 5440 056d 04       		.byte	0x4
 5441 056e 07       		.uleb128 0x7
 5442 056f 89010000 		.4byte	.LASF81
 5443 0573 0A       		.byte	0xa
 5444 0574 45       		.byte	0x45
 5445 0575 EF000000 		.4byte	0xef
 5446 0579 08       		.byte	0x8
 5447 057a 08       		.uleb128 0x8
 5448 057b 6F706100 		.ascii	"opa\000"
 5449 057f 0A       		.byte	0xa
 5450 0580 46       		.byte	0x46
 5451 0581 91020000 		.4byte	0x291
 5452 0585 0A       		.byte	0xa
 5453 0586 07       		.uleb128 0x7
 5454 0587 A81A0000 		.4byte	.LASF82
 5455 058b 0A       		.byte	0xa
 5456 058c 4E       		.byte	0x4e
 5457 058d A3040000 		.4byte	0x4a3
 5458 0591 0C       		.byte	0xc
 5459 0592 07       		.uleb128 0x7
 5460 0593 1E180000 		.4byte	.LASF83
 5461 0597 0A       		.byte	0xa
 5462 0598 56       		.byte	0x56
 5463 0599 DC040000 		.4byte	0x4dc
 5464 059d 14       		.byte	0x14
 5465 059e 07       		.uleb128 0x7
 5466 059f 76190000 		.4byte	.LASF84
 5467 05a3 0A       		.byte	0xa
 5468 05a4 5F       		.byte	0x5f
 5469 05a5 09050000 		.4byte	0x509
 5470 05a9 1C       		.byte	0x1c
 5471 05aa 00       		.byte	0
 5472 05ab 06       		.uleb128 0x6
 5473 05ac 14       		.byte	0x14
 5474 05ad 0A       		.byte	0xa
 5475 05ae 63       		.byte	0x63
 5476 05af FC050000 		.4byte	0x5fc
ARM GAS  C:\Users\tmj32\AppData\Local\Temp\cc94ZBZn.s 			page 125


 5477 05b3 07       		.uleb128 0x7
 5478 05b4 B8150000 		.4byte	.LASF71
 5479 05b8 0A       		.byte	0xa
 5480 05b9 65       		.byte	0x65
 5481 05ba 85020000 		.4byte	0x285
 5482 05be 00       		.byte	0
 5483 05bf 07       		.uleb128 0x7
 5484 05c0 201B0000 		.4byte	.LASF85
 5485 05c4 0A       		.byte	0xa
 5486 05c5 66       		.byte	0x66
 5487 05c6 85020000 		.4byte	0x285
 5488 05ca 04       		.byte	0x4
 5489 05cb 07       		.uleb128 0x7
 5490 05cc 96160000 		.4byte	.LASF86
 5491 05d0 0A       		.byte	0xa
 5492 05d1 67       		.byte	0x67
 5493 05d2 FC050000 		.4byte	0x5fc
 5494 05d6 08       		.byte	0x8
 5495 05d7 07       		.uleb128 0x7
 5496 05d8 B1160000 		.4byte	.LASF87
 5497 05dc 0A       		.byte	0xa
 5498 05dd 68       		.byte	0x68
 5499 05de EF000000 		.4byte	0xef
 5500 05e2 0C       		.byte	0xc
 5501 05e3 07       		.uleb128 0x7
 5502 05e4 D2150000 		.4byte	.LASF88
 5503 05e8 0A       		.byte	0xa
 5504 05e9 69       		.byte	0x69
 5505 05ea EF000000 		.4byte	0xef
 5506 05ee 0E       		.byte	0xe
 5507 05ef 08       		.uleb128 0x8
 5508 05f0 6F706100 		.ascii	"opa\000"
 5509 05f4 0A       		.byte	0xa
 5510 05f5 6A       		.byte	0x6a
 5511 05f6 91020000 		.4byte	0x291
 5512 05fa 10       		.byte	0x10
 5513 05fb 00       		.byte	0
 5514 05fc 0D       		.uleb128 0xd
 5515 05fd 04       		.byte	0x4
 5516 05fe 02060000 		.4byte	0x602
 5517 0602 0E       		.uleb128 0xe
 5518 0603 18020000 		.4byte	0x218
 5519 0607 06       		.uleb128 0x6
 5520 0608 08       		.byte	0x8
 5521 0609 0A       		.byte	0xa
 5522 060a 6E       		.byte	0x6e
 5523 060b 34060000 		.4byte	0x634
 5524 060f 07       		.uleb128 0x7
 5525 0610 B8150000 		.4byte	.LASF71
 5526 0614 0A       		.byte	0xa
 5527 0615 70       		.byte	0x70
 5528 0616 85020000 		.4byte	0x285
 5529 061a 00       		.byte	0
 5530 061b 07       		.uleb128 0x7
 5531 061c 18010000 		.4byte	.LASF89
 5532 0620 0A       		.byte	0xa
 5533 0621 71       		.byte	0x71
ARM GAS  C:\Users\tmj32\AppData\Local\Temp\cc94ZBZn.s 			page 126


 5534 0622 91020000 		.4byte	0x291
 5535 0626 04       		.byte	0x4
 5536 0627 08       		.uleb128 0x8
 5537 0628 6F706100 		.ascii	"opa\000"
 5538 062c 0A       		.byte	0xa
 5539 062d 72       		.byte	0x72
 5540 062e 91020000 		.4byte	0x291
 5541 0632 05       		.byte	0x5
 5542 0633 00       		.byte	0
 5543 0634 06       		.uleb128 0x6
 5544 0635 08       		.byte	0x8
 5545 0636 0A       		.byte	0xa
 5546 0637 76       		.byte	0x76
 5547 0638 70060000 		.4byte	0x670
 5548 063c 07       		.uleb128 0x7
 5549 063d B8150000 		.4byte	.LASF71
 5550 0641 0A       		.byte	0xa
 5551 0642 78       		.byte	0x78
 5552 0643 85020000 		.4byte	0x285
 5553 0647 00       		.byte	0
 5554 0648 07       		.uleb128 0x7
 5555 0649 130E0000 		.4byte	.LASF72
 5556 064d 0A       		.byte	0xa
 5557 064e 79       		.byte	0x79
 5558 064f EF000000 		.4byte	0xef
 5559 0653 04       		.byte	0x4
 5560 0654 08       		.uleb128 0x8
 5561 0655 6F706100 		.ascii	"opa\000"
 5562 0659 0A       		.byte	0xa
 5563 065a 7A       		.byte	0x7a
 5564 065b 91020000 		.4byte	0x291
 5565 065f 06       		.byte	0x6
 5566 0660 0A       		.uleb128 0xa
 5567 0661 29090000 		.4byte	.LASF90
 5568 0665 0A       		.byte	0xa
 5569 0666 7B       		.byte	0x7b
 5570 0667 B8000000 		.4byte	0xb8
 5571 066b 01       		.byte	0x1
 5572 066c 01       		.byte	0x1
 5573 066d 07       		.byte	0x7
 5574 066e 07       		.byte	0x7
 5575 066f 00       		.byte	0
 5576 0670 06       		.uleb128 0x6
 5577 0671 50       		.byte	0x50
 5578 0672 0A       		.byte	0xa
 5579 0673 3C       		.byte	0x3c
 5580 0674 B8060000 		.4byte	0x6b8
 5581 0678 0A       		.uleb128 0xa
 5582 0679 E30E0000 		.4byte	.LASF91
 5583 067d 0A       		.byte	0xa
 5584 067e 3E       		.byte	0x3e
 5585 067f B8000000 		.4byte	0xb8
 5586 0683 01       		.byte	0x1
 5587 0684 01       		.byte	0x1
 5588 0685 07       		.byte	0x7
 5589 0686 00       		.byte	0
 5590 0687 07       		.uleb128 0x7
ARM GAS  C:\Users\tmj32\AppData\Local\Temp\cc94ZBZn.s 			page 127


 5591 0688 FE060000 		.4byte	.LASF92
 5592 068c 0A       		.byte	0xa
 5593 068d 60       		.byte	0x60
 5594 068e 4E050000 		.4byte	0x54e
 5595 0692 04       		.byte	0x4
 5596 0693 07       		.uleb128 0x7
 5597 0694 F1080000 		.4byte	.LASF93
 5598 0698 0A       		.byte	0xa
 5599 0699 6B       		.byte	0x6b
 5600 069a AB050000 		.4byte	0x5ab
 5601 069e 2C       		.byte	0x2c
 5602 069f 07       		.uleb128 0x7
 5603 06a0 23090000 		.4byte	.LASF94
 5604 06a4 0A       		.byte	0xa
 5605 06a5 73       		.byte	0x73
 5606 06a6 07060000 		.4byte	0x607
 5607 06aa 40       		.byte	0x40
 5608 06ab 07       		.uleb128 0x7
 5609 06ac 0C0C0000 		.4byte	.LASF95
 5610 06b0 0A       		.byte	0xa
 5611 06b1 7C       		.byte	0x7c
 5612 06b2 34060000 		.4byte	0x634
 5613 06b6 48       		.byte	0x48
 5614 06b7 00       		.byte	0
 5615 06b8 02       		.uleb128 0x2
 5616 06b9 2D0B0000 		.4byte	.LASF96
 5617 06bd 0A       		.byte	0xa
 5618 06be 84       		.byte	0x84
 5619 06bf 70060000 		.4byte	0x670
 5620 06c3 0D       		.uleb128 0xd
 5621 06c4 04       		.byte	0x4
 5622 06c5 B8060000 		.4byte	0x6b8
 5623 06c9 13       		.uleb128 0x13
 5624 06ca 01       		.byte	0x1
 5625 06cb 42000000 		.4byte	0x42
 5626 06cf 0B       		.byte	0xb
 5627 06d0 27       		.byte	0x27
 5628 06d1 E2060000 		.4byte	0x6e2
 5629 06d5 14       		.uleb128 0x14
 5630 06d6 28020000 		.4byte	.LASF97
 5631 06da 00       		.byte	0
 5632 06db 14       		.uleb128 0x14
 5633 06dc 63130000 		.4byte	.LASF98
 5634 06e0 01       		.byte	0x1
 5635 06e1 00       		.byte	0
 5636 06e2 02       		.uleb128 0x2
 5637 06e3 18110000 		.4byte	.LASF99
 5638 06e7 0B       		.byte	0xb
 5639 06e8 2C       		.byte	0x2c
 5640 06e9 B8000000 		.4byte	0xb8
 5641 06ed 02       		.uleb128 0x2
 5642 06ee 18000000 		.4byte	.LASF100
 5643 06f2 0C       		.byte	0xc
 5644 06f3 1E       		.byte	0x1e
 5645 06f4 B8000000 		.4byte	0xb8
 5646 06f8 06       		.uleb128 0x6
 5647 06f9 0C       		.byte	0xc
ARM GAS  C:\Users\tmj32\AppData\Local\Temp\cc94ZBZn.s 			page 128


 5648 06fa 0C       		.byte	0xc
 5649 06fb 21       		.byte	0x21
 5650 06fc 25070000 		.4byte	0x725
 5651 0700 07       		.uleb128 0x7
 5652 0701 641B0000 		.4byte	.LASF101
 5653 0705 0C       		.byte	0xc
 5654 0706 23       		.byte	0x23
 5655 0707 E4000000 		.4byte	0xe4
 5656 070b 00       		.byte	0
 5657 070c 07       		.uleb128 0x7
 5658 070d 7F040000 		.4byte	.LASF102
 5659 0711 0C       		.byte	0xc
 5660 0712 24       		.byte	0x24
 5661 0713 25070000 		.4byte	0x725
 5662 0717 04       		.byte	0x4
 5663 0718 07       		.uleb128 0x7
 5664 0719 9A000000 		.4byte	.LASF103
 5665 071d 0C       		.byte	0xc
 5666 071e 25       		.byte	0x25
 5667 071f 25070000 		.4byte	0x725
 5668 0723 08       		.byte	0x8
 5669 0724 00       		.byte	0
 5670 0725 0D       		.uleb128 0xd
 5671 0726 04       		.byte	0x4
 5672 0727 ED060000 		.4byte	0x6ed
 5673 072b 02       		.uleb128 0x2
 5674 072c 49170000 		.4byte	.LASF104
 5675 0730 0C       		.byte	0xc
 5676 0731 26       		.byte	0x26
 5677 0732 F8060000 		.4byte	0x6f8
 5678 0736 13       		.uleb128 0x13
 5679 0737 01       		.byte	0x1
 5680 0738 42000000 		.4byte	0x42
 5681 073c 0D       		.byte	0xd
 5682 073d 25       		.byte	0x25
 5683 073e 67070000 		.4byte	0x767
 5684 0742 14       		.uleb128 0x14
 5685 0743 B7010000 		.4byte	.LASF105
 5686 0747 00       		.byte	0
 5687 0748 14       		.uleb128 0x14
 5688 0749 5E190000 		.4byte	.LASF106
 5689 074d 01       		.byte	0x1
 5690 074e 14       		.uleb128 0x14
 5691 074f 8C150000 		.4byte	.LASF107
 5692 0753 02       		.byte	0x2
 5693 0754 14       		.uleb128 0x14
 5694 0755 C1090000 		.4byte	.LASF108
 5695 0759 03       		.byte	0x3
 5696 075a 14       		.uleb128 0x14
 5697 075b EF130000 		.4byte	.LASF109
 5698 075f 20       		.byte	0x20
 5699 0760 14       		.uleb128 0x14
 5700 0761 77000000 		.4byte	.LASF110
 5701 0765 21       		.byte	0x21
 5702 0766 00       		.byte	0
 5703 0767 02       		.uleb128 0x2
 5704 0768 53090000 		.4byte	.LASF111
ARM GAS  C:\Users\tmj32\AppData\Local\Temp\cc94ZBZn.s 			page 129


 5705 076c 0D       		.byte	0xd
 5706 076d 30       		.byte	0x30
 5707 076e B8000000 		.4byte	0xb8
 5708 0772 02       		.uleb128 0x2
 5709 0773 2A1B0000 		.4byte	.LASF112
 5710 0777 0E       		.byte	0xe
 5711 0778 2B       		.byte	0x2b
 5712 0779 7D070000 		.4byte	0x77d
 5713 077d 0D       		.uleb128 0xd
 5714 077e 04       		.byte	0x4
 5715 077f 83070000 		.4byte	0x783
 5716 0783 15       		.uleb128 0x15
 5717 0784 8E070000 		.4byte	0x78e
 5718 0788 0C       		.uleb128 0xc
 5719 0789 8E070000 		.4byte	0x78e
 5720 078d 00       		.byte	0
 5721 078e 0D       		.uleb128 0xd
 5722 078f 04       		.byte	0x4
 5723 0790 94070000 		.4byte	0x794
 5724 0794 09       		.uleb128 0x9
 5725 0795 46070000 		.4byte	.LASF113
 5726 0799 14       		.byte	0x14
 5727 079a 0E       		.byte	0xe
 5728 079b 3E       		.byte	0x3e
 5729 079c EF070000 		.4byte	0x7ef
 5730 07a0 07       		.uleb128 0x7
 5731 07a1 F4140000 		.4byte	.LASF114
 5732 07a5 0E       		.byte	0xe
 5733 07a6 40       		.byte	0x40
 5734 07a7 E4000000 		.4byte	0xe4
 5735 07ab 00       		.byte	0
 5736 07ac 07       		.uleb128 0x7
 5737 07ad 85130000 		.4byte	.LASF115
 5738 07b1 0E       		.byte	0xe
 5739 07b2 41       		.byte	0x41
 5740 07b3 E4000000 		.4byte	0xe4
 5741 07b7 04       		.byte	0x4
 5742 07b8 07       		.uleb128 0x7
 5743 07b9 3B060000 		.4byte	.LASF116
 5744 07bd 0E       		.byte	0xe
 5745 07be 42       		.byte	0x42
 5746 07bf 72070000 		.4byte	0x772
 5747 07c3 08       		.byte	0x8
 5748 07c4 07       		.uleb128 0x7
 5749 07c5 741A0000 		.4byte	.LASF117
 5750 07c9 0E       		.byte	0xe
 5751 07ca 44       		.byte	0x44
 5752 07cb FA000000 		.4byte	0xfa
 5753 07cf 0C       		.byte	0xc
 5754 07d0 0A       		.uleb128 0xa
 5755 07d1 E6020000 		.4byte	.LASF118
 5756 07d5 0E       		.byte	0xe
 5757 07d6 46       		.byte	0x46
 5758 07d7 B8000000 		.4byte	0xb8
 5759 07db 01       		.byte	0x1
 5760 07dc 03       		.byte	0x3
 5761 07dd 05       		.byte	0x5
ARM GAS  C:\Users\tmj32\AppData\Local\Temp\cc94ZBZn.s 			page 130


 5762 07de 10       		.byte	0x10
 5763 07df 0A       		.uleb128 0xa
 5764 07e0 1F100000 		.4byte	.LASF119
 5765 07e4 0E       		.byte	0xe
 5766 07e5 47       		.byte	0x47
 5767 07e6 B8000000 		.4byte	0xb8
 5768 07ea 01       		.byte	0x1
 5769 07eb 01       		.byte	0x1
 5770 07ec 04       		.byte	0x4
 5771 07ed 10       		.byte	0x10
 5772 07ee 00       		.byte	0
 5773 07ef 02       		.uleb128 0x2
 5774 07f0 D2130000 		.4byte	.LASF120
 5775 07f4 0E       		.byte	0xe
 5776 07f5 48       		.byte	0x48
 5777 07f6 94070000 		.4byte	0x794
 5778 07fa 06       		.uleb128 0x6
 5779 07fb 1C       		.byte	0x1c
 5780 07fc 0F       		.byte	0xf
 5781 07fd 2F       		.byte	0x2f
 5782 07fe 4E080000 		.4byte	0x84e
 5783 0802 07       		.uleb128 0x7
 5784 0803 5F0E0000 		.4byte	.LASF121
 5785 0807 0F       		.byte	0xf
 5786 0808 31       		.byte	0x31
 5787 0809 FA000000 		.4byte	0xfa
 5788 080d 00       		.byte	0
 5789 080e 07       		.uleb128 0x7
 5790 080f 640E0000 		.4byte	.LASF122
 5791 0813 0F       		.byte	0xf
 5792 0814 32       		.byte	0x32
 5793 0815 FA000000 		.4byte	0xfa
 5794 0819 04       		.byte	0x4
 5795 081a 07       		.uleb128 0x7
 5796 081b 34110000 		.4byte	.LASF123
 5797 081f 0F       		.byte	0xf
 5798 0820 35       		.byte	0x35
 5799 0821 FA000000 		.4byte	0xfa
 5800 0825 08       		.byte	0x8
 5801 0826 07       		.uleb128 0x7
 5802 0827 48110000 		.4byte	.LASF124
 5803 082b 0F       		.byte	0xf
 5804 082c 36       		.byte	0x36
 5805 082d E4000000 		.4byte	0xe4
 5806 0831 0C       		.byte	0xc
 5807 0832 07       		.uleb128 0x7
 5808 0833 050B0000 		.4byte	.LASF125
 5809 0837 0F       		.byte	0xf
 5810 0838 37       		.byte	0x37
 5811 0839 19030000 		.4byte	0x319
 5812 083d 10       		.byte	0x10
 5813 083e 0A       		.uleb128 0xa
 5814 083f AE080000 		.4byte	.LASF126
 5815 0843 0F       		.byte	0xf
 5816 0844 38       		.byte	0x38
 5817 0845 4E080000 		.4byte	0x84e
 5818 0849 04       		.byte	0x4
ARM GAS  C:\Users\tmj32\AppData\Local\Temp\cc94ZBZn.s 			page 131


 5819 084a 01       		.byte	0x1
 5820 084b 1F       		.byte	0x1f
 5821 084c 18       		.byte	0x18
 5822 084d 00       		.byte	0
 5823 084e 16       		.uleb128 0x16
 5824 084f E4000000 		.4byte	0xe4
 5825 0853 02       		.uleb128 0x2
 5826 0854 DE0C0000 		.4byte	.LASF127
 5827 0858 0F       		.byte	0xf
 5828 0859 39       		.byte	0x39
 5829 085a FA070000 		.4byte	0x7fa
 5830 085e 09       		.uleb128 0x9
 5831 085f 680C0000 		.4byte	.LASF128
 5832 0863 20       		.byte	0x20
 5833 0864 0F       		.byte	0xf
 5834 0865 3E       		.byte	0x3e
 5835 0866 DA080000 		.4byte	0x8da
 5836 086a 07       		.uleb128 0x7
 5837 086b 06050000 		.4byte	.LASF129
 5838 086f 0F       		.byte	0xf
 5839 0870 41       		.byte	0x41
 5840 0871 EF000000 		.4byte	0xef
 5841 0875 00       		.byte	0
 5842 0876 07       		.uleb128 0x7
 5843 0877 1A030000 		.4byte	.LASF130
 5844 087b 0F       		.byte	0xf
 5845 087c 42       		.byte	0x42
 5846 087d EF000000 		.4byte	0xef
 5847 0881 02       		.byte	0x2
 5848 0882 07       		.uleb128 0x7
 5849 0883 B1090000 		.4byte	.LASF131
 5850 0887 0F       		.byte	0xf
 5851 0888 46       		.byte	0x46
 5852 0889 DA080000 		.4byte	0x8da
 5853 088d 04       		.byte	0x4
 5854 088e 0A       		.uleb128 0xa
 5855 088f A7030000 		.4byte	.LASF132
 5856 0893 0F       		.byte	0xf
 5857 0894 4B       		.byte	0x4b
 5858 0895 E4000000 		.4byte	0xe4
 5859 0899 04       		.byte	0x4
 5860 089a 01       		.byte	0x1
 5861 089b 1F       		.byte	0x1f
 5862 089c 08       		.byte	0x8
 5863 089d 07       		.uleb128 0x7
 5864 089e 6B1A0000 		.4byte	.LASF133
 5865 08a2 0F       		.byte	0xf
 5866 08a3 55       		.byte	0x55
 5867 08a4 0C090000 		.4byte	0x90c
 5868 08a8 0C       		.byte	0xc
 5869 08a9 07       		.uleb128 0x7
 5870 08aa FB140000 		.4byte	.LASF134
 5871 08ae 0F       		.byte	0xf
 5872 08af 59       		.byte	0x59
 5873 08b0 28090000 		.4byte	0x928
 5874 08b4 10       		.byte	0x10
 5875 08b5 07       		.uleb128 0x7
ARM GAS  C:\Users\tmj32\AppData\Local\Temp\cc94ZBZn.s 			page 132


 5876 08b6 E8040000 		.4byte	.LASF135
 5877 08ba 0F       		.byte	0xf
 5878 08bb 5E       		.byte	0x5e
 5879 08bc 5D090000 		.4byte	0x95d
 5880 08c0 14       		.byte	0x14
 5881 08c1 07       		.uleb128 0x7
 5882 08c2 0F1A0000 		.4byte	.LASF136
 5883 08c6 0F       		.byte	0xf
 5884 08c7 63       		.byte	0x63
 5885 08c8 78090000 		.4byte	0x978
 5886 08cc 18       		.byte	0x18
 5887 08cd 07       		.uleb128 0x7
 5888 08ce 07000000 		.4byte	.LASF137
 5889 08d2 0F       		.byte	0xf
 5890 08d3 71       		.byte	0x71
 5891 08d4 85020000 		.4byte	0x285
 5892 08d8 1C       		.byte	0x1c
 5893 08d9 00       		.byte	0
 5894 08da 0D       		.uleb128 0xd
 5895 08db 04       		.byte	0x4
 5896 08dc 53080000 		.4byte	0x853
 5897 08e0 15       		.uleb128 0x15
 5898 08e1 F5080000 		.4byte	0x8f5
 5899 08e5 0C       		.uleb128 0xc
 5900 08e6 F5080000 		.4byte	0x8f5
 5901 08ea 0C       		.uleb128 0xc
 5902 08eb FB080000 		.4byte	0x8fb
 5903 08ef 0C       		.uleb128 0xc
 5904 08f0 06090000 		.4byte	0x906
 5905 08f4 00       		.byte	0
 5906 08f5 0D       		.uleb128 0xd
 5907 08f6 04       		.byte	0x4
 5908 08f7 5E080000 		.4byte	0x85e
 5909 08fb 0D       		.uleb128 0xd
 5910 08fc 04       		.byte	0x4
 5911 08fd 01090000 		.4byte	0x901
 5912 0901 0E       		.uleb128 0xe
 5913 0902 19030000 		.4byte	0x319
 5914 0906 0D       		.uleb128 0xd
 5915 0907 04       		.byte	0x4
 5916 0908 85020000 		.4byte	0x285
 5917 090c 0D       		.uleb128 0xd
 5918 090d 04       		.byte	0x4
 5919 090e E0080000 		.4byte	0x8e0
 5920 0912 15       		.uleb128 0x15
 5921 0913 22090000 		.4byte	0x922
 5922 0917 0C       		.uleb128 0xc
 5923 0918 F5080000 		.4byte	0x8f5
 5924 091c 0C       		.uleb128 0xc
 5925 091d 22090000 		.4byte	0x922
 5926 0921 00       		.byte	0
 5927 0922 0D       		.uleb128 0xd
 5928 0923 04       		.byte	0x4
 5929 0924 19030000 		.4byte	0x319
 5930 0928 0D       		.uleb128 0xd
 5931 0929 04       		.byte	0x4
 5932 092a 12090000 		.4byte	0x912
ARM GAS  C:\Users\tmj32\AppData\Local\Temp\cc94ZBZn.s 			page 133


 5933 092e 15       		.uleb128 0x15
 5934 092f 57090000 		.4byte	0x957
 5935 0933 0C       		.uleb128 0xc
 5936 0934 F5080000 		.4byte	0x8f5
 5937 0938 0C       		.uleb128 0xc
 5938 0939 57090000 		.4byte	0x957
 5939 093d 0C       		.uleb128 0xc
 5940 093e EF000000 		.4byte	0xef
 5941 0942 0C       		.uleb128 0xc
 5942 0943 EF000000 		.4byte	0xef
 5943 0947 0C       		.uleb128 0xc
 5944 0948 EF000000 		.4byte	0xef
 5945 094c 0C       		.uleb128 0xc
 5946 094d 85020000 		.4byte	0x285
 5947 0951 0C       		.uleb128 0xc
 5948 0952 91020000 		.4byte	0x291
 5949 0956 00       		.byte	0
 5950 0957 0D       		.uleb128 0xd
 5951 0958 04       		.byte	0x4
 5952 0959 B8000000 		.4byte	0xb8
 5953 095d 0D       		.uleb128 0xd
 5954 095e 04       		.byte	0x4
 5955 095f 2E090000 		.4byte	0x92e
 5956 0963 15       		.uleb128 0x15
 5957 0964 78090000 		.4byte	0x978
 5958 0968 0C       		.uleb128 0xc
 5959 0969 F5080000 		.4byte	0x8f5
 5960 096d 0C       		.uleb128 0xc
 5961 096e E4000000 		.4byte	0xe4
 5962 0972 0C       		.uleb128 0xc
 5963 0973 E4000000 		.4byte	0xe4
 5964 0977 00       		.byte	0
 5965 0978 0D       		.uleb128 0xd
 5966 0979 04       		.byte	0x4
 5967 097a 63090000 		.4byte	0x963
 5968 097e 02       		.uleb128 0x2
 5969 097f 07190000 		.4byte	.LASF138
 5970 0983 0F       		.byte	0xf
 5971 0984 77       		.byte	0x77
 5972 0985 5E080000 		.4byte	0x85e
 5973 0989 17       		.uleb128 0x17
 5974 098a 94100000 		.4byte	.LASF139
 5975 098e 6401     		.2byte	0x164
 5976 0990 0F       		.byte	0xf
 5977 0991 7F       		.byte	0x7f
 5978 0992 150A0000 		.4byte	0xa15
 5979 0996 07       		.uleb128 0x7
 5980 0997 BE160000 		.4byte	.LASF140
 5981 099b 0F       		.byte	0xf
 5982 099c 82       		.byte	0x82
 5983 099d 7E090000 		.4byte	0x97e
 5984 09a1 00       		.byte	0
 5985 09a2 07       		.uleb128 0x7
 5986 09a3 93030000 		.4byte	.LASF141
 5987 09a7 0F       		.byte	0xf
 5988 09a8 85       		.byte	0x85
 5989 09a9 150A0000 		.4byte	0xa15
ARM GAS  C:\Users\tmj32\AppData\Local\Temp\cc94ZBZn.s 			page 134


 5990 09ad 20       		.byte	0x20
 5991 09ae 07       		.uleb128 0x7
 5992 09af EB020000 		.4byte	.LASF142
 5993 09b3 0F       		.byte	0xf
 5994 09b4 88       		.byte	0x88
 5995 09b5 2B070000 		.4byte	0x72b
 5996 09b9 24       		.byte	0x24
 5997 09ba 07       		.uleb128 0x7
 5998 09bb CB000000 		.4byte	.LASF143
 5999 09bf 0F       		.byte	0xf
 6000 09c0 89       		.byte	0x89
 6001 09c1 5D0B0000 		.4byte	0xb5d
 6002 09c5 30       		.byte	0x30
 6003 09c6 07       		.uleb128 0x7
 6004 09c7 EC050000 		.4byte	.LASF144
 6005 09cb 0F       		.byte	0xf
 6006 09cc 8A       		.byte	0x8a
 6007 09cd 5D0B0000 		.4byte	0xb5d
 6008 09d1 34       		.byte	0x34
 6009 09d2 07       		.uleb128 0x7
 6010 09d3 CC170000 		.4byte	.LASF145
 6011 09d7 0F       		.byte	0xf
 6012 09d8 8B       		.byte	0x8b
 6013 09d9 5D0B0000 		.4byte	0xb5d
 6014 09dd 38       		.byte	0x38
 6015 09de 07       		.uleb128 0x7
 6016 09df E40F0000 		.4byte	.LASF146
 6017 09e3 0F       		.byte	0xf
 6018 09e4 8E       		.byte	0x8e
 6019 09e5 630B0000 		.4byte	0xb63
 6020 09e9 3C       		.byte	0x3c
 6021 09ea 18       		.uleb128 0x18
 6022 09eb 8B060000 		.4byte	.LASF147
 6023 09ef 0F       		.byte	0xf
 6024 09f0 8F       		.byte	0x8f
 6025 09f1 730B0000 		.4byte	0xb73
 6026 09f5 3C01     		.2byte	0x13c
 6027 09f7 19       		.uleb128 0x19
 6028 09f8 43170000 		.4byte	.LASF148
 6029 09fc 0F       		.byte	0xf
 6030 09fd 90       		.byte	0x90
 6031 09fe E4000000 		.4byte	0xe4
 6032 0a02 04       		.byte	0x4
 6033 0a03 0A       		.byte	0xa
 6034 0a04 16       		.byte	0x16
 6035 0a05 5C01     		.2byte	0x15c
 6036 0a07 18       		.uleb128 0x18
 6037 0a08 77030000 		.4byte	.LASF149
 6038 0a0c 0F       		.byte	0xf
 6039 0a0d 93       		.byte	0x93
 6040 0a0e E4000000 		.4byte	0xe4
 6041 0a12 6001     		.2byte	0x160
 6042 0a14 00       		.byte	0
 6043 0a15 0D       		.uleb128 0xd
 6044 0a16 04       		.byte	0x4
 6045 0a17 EF070000 		.4byte	0x7ef
 6046 0a1b 09       		.uleb128 0x9
ARM GAS  C:\Users\tmj32\AppData\Local\Temp\cc94ZBZn.s 			page 135


 6047 0a1c 77160000 		.4byte	.LASF150
 6048 0a20 40       		.byte	0x40
 6049 0a21 10       		.byte	0x10
 6050 0a22 BB       		.byte	0xbb
 6051 0a23 5D0B0000 		.4byte	0xb5d
 6052 0a27 08       		.uleb128 0x8
 6053 0a28 70617200 		.ascii	"par\000"
 6054 0a2c 10       		.byte	0x10
 6055 0a2d BD       		.byte	0xbd
 6056 0a2e 5D0B0000 		.4byte	0xb5d
 6057 0a32 00       		.byte	0
 6058 0a33 07       		.uleb128 0x7
 6059 0a34 480E0000 		.4byte	.LASF151
 6060 0a38 10       		.byte	0x10
 6061 0a39 BE       		.byte	0xbe
 6062 0a3a 2B070000 		.4byte	0x72b
 6063 0a3e 04       		.byte	0x4
 6064 0a3f 07       		.uleb128 0x7
 6065 0a40 AA170000 		.4byte	.LASF152
 6066 0a44 10       		.byte	0x10
 6067 0a45 C0       		.byte	0xc0
 6068 0a46 19030000 		.4byte	0x319
 6069 0a4a 10       		.byte	0x10
 6070 0a4b 07       		.uleb128 0x7
 6071 0a4c 250D0000 		.4byte	.LASF153
 6072 0a50 10       		.byte	0x10
 6073 0a51 C2       		.byte	0xc2
 6074 0a52 540F0000 		.4byte	0xf54
 6075 0a56 18       		.byte	0x18
 6076 0a57 07       		.uleb128 0x7
 6077 0a58 93190000 		.4byte	.LASF154
 6078 0a5c 10       		.byte	0x10
 6079 0a5d C3       		.byte	0xc3
 6080 0a5e 05100000 		.4byte	0x1005
 6081 0a62 1C       		.byte	0x1c
 6082 0a63 07       		.uleb128 0x7
 6083 0a64 39080000 		.4byte	.LASF155
 6084 0a68 10       		.byte	0x10
 6085 0a69 C4       		.byte	0xc4
 6086 0a6a 9A0E0000 		.4byte	0xe9a
 6087 0a6e 20       		.byte	0x20
 6088 0a6f 07       		.uleb128 0x7
 6089 0a70 71110000 		.4byte	.LASF156
 6090 0a74 10       		.byte	0x10
 6091 0a75 C6       		.byte	0xc6
 6092 0a76 FA000000 		.4byte	0xfa
 6093 0a7a 24       		.byte	0x24
 6094 0a7b 07       		.uleb128 0x7
 6095 0a7c 470D0000 		.4byte	.LASF157
 6096 0a80 10       		.byte	0x10
 6097 0a81 C7       		.byte	0xc7
 6098 0a82 3D110000 		.4byte	0x113d
 6099 0a86 28       		.byte	0x28
 6100 0a87 0A       		.uleb128 0xa
 6101 0a88 B1010000 		.4byte	.LASF158
 6102 0a8c 10       		.byte	0x10
 6103 0a8d D7       		.byte	0xd7
ARM GAS  C:\Users\tmj32\AppData\Local\Temp\cc94ZBZn.s 			page 136


 6104 0a8e B8000000 		.4byte	0xb8
 6105 0a92 01       		.byte	0x1
 6106 0a93 01       		.byte	0x1
 6107 0a94 07       		.byte	0x7
 6108 0a95 2C       		.byte	0x2c
 6109 0a96 0A       		.uleb128 0xa
 6110 0a97 33160000 		.4byte	.LASF159
 6111 0a9b 10       		.byte	0x10
 6112 0a9c D8       		.byte	0xd8
 6113 0a9d B8000000 		.4byte	0xb8
 6114 0aa1 01       		.byte	0x1
 6115 0aa2 01       		.byte	0x1
 6116 0aa3 06       		.byte	0x6
 6117 0aa4 2C       		.byte	0x2c
 6118 0aa5 0A       		.uleb128 0xa
 6119 0aa6 37090000 		.4byte	.LASF160
 6120 0aaa 10       		.byte	0x10
 6121 0aab D9       		.byte	0xd9
 6122 0aac B8000000 		.4byte	0xb8
 6123 0ab0 01       		.byte	0x1
 6124 0ab1 01       		.byte	0x1
 6125 0ab2 05       		.byte	0x5
 6126 0ab3 2C       		.byte	0x2c
 6127 0ab4 0A       		.uleb128 0xa
 6128 0ab5 B4180000 		.4byte	.LASF161
 6129 0ab9 10       		.byte	0x10
 6130 0aba DA       		.byte	0xda
 6131 0abb B8000000 		.4byte	0xb8
 6132 0abf 01       		.byte	0x1
 6133 0ac0 01       		.byte	0x1
 6134 0ac1 04       		.byte	0x4
 6135 0ac2 2C       		.byte	0x2c
 6136 0ac3 0A       		.uleb128 0xa
 6137 0ac4 5A030000 		.4byte	.LASF162
 6138 0ac8 10       		.byte	0x10
 6139 0ac9 DB       		.byte	0xdb
 6140 0aca B8000000 		.4byte	0xb8
 6141 0ace 01       		.byte	0x1
 6142 0acf 01       		.byte	0x1
 6143 0ad0 03       		.byte	0x3
 6144 0ad1 2C       		.byte	0x2c
 6145 0ad2 1A       		.uleb128 0x1a
 6146 0ad3 746F7000 		.ascii	"top\000"
 6147 0ad7 10       		.byte	0x10
 6148 0ad8 DC       		.byte	0xdc
 6149 0ad9 B8000000 		.4byte	0xb8
 6150 0add 01       		.byte	0x1
 6151 0ade 01       		.byte	0x1
 6152 0adf 02       		.byte	0x2
 6153 0ae0 2C       		.byte	0x2c
 6154 0ae1 0A       		.uleb128 0xa
 6155 0ae2 FF170000 		.4byte	.LASF163
 6156 0ae6 10       		.byte	0x10
 6157 0ae7 DD       		.byte	0xdd
 6158 0ae8 B8000000 		.4byte	0xb8
 6159 0aec 01       		.byte	0x1
 6160 0aed 01       		.byte	0x1
ARM GAS  C:\Users\tmj32\AppData\Local\Temp\cc94ZBZn.s 			page 137


 6161 0aee 01       		.byte	0x1
 6162 0aef 2C       		.byte	0x2c
 6163 0af0 0A       		.uleb128 0xa
 6164 0af1 930E0000 		.4byte	.LASF164
 6165 0af5 10       		.byte	0x10
 6166 0af6 DE       		.byte	0xde
 6167 0af7 B8000000 		.4byte	0xb8
 6168 0afb 01       		.byte	0x1
 6169 0afc 01       		.byte	0x1
 6170 0afd 00       		.byte	0
 6171 0afe 2C       		.byte	0x2c
 6172 0aff 0A       		.uleb128 0xa
 6173 0b00 12060000 		.4byte	.LASF165
 6174 0b04 10       		.byte	0x10
 6175 0b05 DF       		.byte	0xdf
 6176 0b06 32110000 		.4byte	0x1132
 6177 0b0a 01       		.byte	0x1
 6178 0b0b 02       		.byte	0x2
 6179 0b0c 06       		.byte	0x6
 6180 0b0d 2D       		.byte	0x2d
 6181 0b0e 0A       		.uleb128 0xa
 6182 0b0f C5160000 		.4byte	.LASF166
 6183 0b13 10       		.byte	0x10
 6184 0b14 E0       		.byte	0xe0
 6185 0b15 67070000 		.4byte	0x767
 6186 0b19 01       		.byte	0x1
 6187 0b1a 02       		.byte	0x2
 6188 0b1b 04       		.byte	0x4
 6189 0b1c 2D       		.byte	0x2d
 6190 0b1d 0A       		.uleb128 0xa
 6191 0b1e FB190000 		.4byte	.LASF167
 6192 0b22 10       		.byte	0x10
 6193 0b23 E1       		.byte	0xe1
 6194 0b24 B8000000 		.4byte	0xb8
 6195 0b28 01       		.byte	0x1
 6196 0b29 03       		.byte	0x3
 6197 0b2a 01       		.byte	0x1
 6198 0b2b 2D       		.byte	0x2d
 6199 0b2c 07       		.uleb128 0x7
 6200 0b2d 570E0000 		.4byte	.LASF168
 6201 0b31 10       		.byte	0x10
 6202 0b32 E2       		.byte	0xe2
 6203 0b33 B8000000 		.4byte	0xb8
 6204 0b37 2E       		.byte	0x2e
 6205 0b38 07       		.uleb128 0x7
 6206 0b39 C21B0000 		.4byte	.LASF169
 6207 0b3d 10       		.byte	0x10
 6208 0b3e E4       		.byte	0xe4
 6209 0b3f 91020000 		.4byte	0x291
 6210 0b43 2F       		.byte	0x2f
 6211 0b44 07       		.uleb128 0x7
 6212 0b45 7E090000 		.4byte	.LASF170
 6213 0b49 10       		.byte	0x10
 6214 0b4a E6       		.byte	0xe6
 6215 0b4b EF000000 		.4byte	0xef
 6216 0b4f 30       		.byte	0x30
 6217 0b50 07       		.uleb128 0x7
ARM GAS  C:\Users\tmj32\AppData\Local\Temp\cc94ZBZn.s 			page 138


 6218 0b51 610A0000 		.4byte	.LASF171
 6219 0b55 10       		.byte	0x10
 6220 0b56 E9       		.byte	0xe9
 6221 0b57 27110000 		.4byte	0x1127
 6222 0b5b 34       		.byte	0x34
 6223 0b5c 00       		.byte	0
 6224 0b5d 0D       		.uleb128 0xd
 6225 0b5e 04       		.byte	0x4
 6226 0b5f 1B0A0000 		.4byte	0xa1b
 6227 0b63 1B       		.uleb128 0x1b
 6228 0b64 19030000 		.4byte	0x319
 6229 0b68 730B0000 		.4byte	0xb73
 6230 0b6c 1C       		.uleb128 0x1c
 6231 0b6d 9D020000 		.4byte	0x29d
 6232 0b71 1F       		.byte	0x1f
 6233 0b72 00       		.byte	0
 6234 0b73 1B       		.uleb128 0x1b
 6235 0b74 B8000000 		.4byte	0xb8
 6236 0b78 830B0000 		.4byte	0xb83
 6237 0b7c 1C       		.uleb128 0x1c
 6238 0b7d 9D020000 		.4byte	0x29d
 6239 0b81 1F       		.byte	0x1f
 6240 0b82 00       		.byte	0
 6241 0b83 13       		.uleb128 0x13
 6242 0b84 01       		.byte	0x1
 6243 0b85 42000000 		.4byte	0x42
 6244 0b89 11       		.byte	0x11
 6245 0b8a 2B       		.byte	0x2b
 6246 0b8b AE0B0000 		.4byte	0xbae
 6247 0b8f 14       		.uleb128 0x14
 6248 0b90 581A0000 		.4byte	.LASF172
 6249 0b94 00       		.byte	0
 6250 0b95 14       		.uleb128 0x14
 6251 0b96 A2110000 		.4byte	.LASF173
 6252 0b9a 01       		.byte	0x1
 6253 0b9b 14       		.uleb128 0x14
 6254 0b9c 19140000 		.4byte	.LASF174
 6255 0ba0 02       		.byte	0x2
 6256 0ba1 14       		.uleb128 0x14
 6257 0ba2 EC0C0000 		.4byte	.LASF175
 6258 0ba6 03       		.byte	0x3
 6259 0ba7 14       		.uleb128 0x14
 6260 0ba8 290A0000 		.4byte	.LASF176
 6261 0bac 04       		.byte	0x4
 6262 0bad 00       		.byte	0
 6263 0bae 02       		.uleb128 0x2
 6264 0baf AF0C0000 		.4byte	.LASF177
 6265 0bb3 11       		.byte	0x11
 6266 0bb4 33       		.byte	0x33
 6267 0bb5 B8000000 		.4byte	0xb8
 6268 0bb9 02       		.uleb128 0x2
 6269 0bba 42090000 		.4byte	.LASF178
 6270 0bbe 11       		.byte	0x11
 6271 0bbf 37       		.byte	0x37
 6272 0bc0 B8000000 		.4byte	0xb8
 6273 0bc4 06       		.uleb128 0x6
 6274 0bc5 10       		.byte	0x10
ARM GAS  C:\Users\tmj32\AppData\Local\Temp\cc94ZBZn.s 			page 139


 6275 0bc6 11       		.byte	0x11
 6276 0bc7 3A       		.byte	0x3a
 6277 0bc8 090C0000 		.4byte	0xc09
 6278 0bcc 07       		.uleb128 0x7
 6279 0bcd F2020000 		.4byte	.LASF179
 6280 0bd1 11       		.byte	0x11
 6281 0bd2 3C       		.byte	0x3c
 6282 0bd3 D9020000 		.4byte	0x2d9
 6283 0bd7 00       		.byte	0
 6284 0bd8 08       		.uleb128 0x8
 6285 0bd9 6B657900 		.ascii	"key\000"
 6286 0bdd 11       		.byte	0x11
 6287 0bde 3D       		.byte	0x3d
 6288 0bdf E4000000 		.4byte	0xe4
 6289 0be3 04       		.byte	0x4
 6290 0be4 07       		.uleb128 0x7
 6291 0be5 D5060000 		.4byte	.LASF180
 6292 0be9 11       		.byte	0x11
 6293 0bea 3E       		.byte	0x3e
 6294 0beb E4000000 		.4byte	0xe4
 6295 0bef 08       		.byte	0x8
 6296 0bf0 07       		.uleb128 0x7
 6297 0bf1 8A0F0000 		.4byte	.LASF181
 6298 0bf5 11       		.byte	0x11
 6299 0bf6 3F       		.byte	0x3f
 6300 0bf7 C3000000 		.4byte	0xc3
 6301 0bfb 0C       		.byte	0xc
 6302 0bfc 07       		.uleb128 0x7
 6303 0bfd 08020000 		.4byte	.LASF182
 6304 0c01 11       		.byte	0x11
 6305 0c02 41       		.byte	0x41
 6306 0c03 B90B0000 		.4byte	0xbb9
 6307 0c07 0E       		.byte	0xe
 6308 0c08 00       		.byte	0
 6309 0c09 02       		.uleb128 0x2
 6310 0c0a 43190000 		.4byte	.LASF183
 6311 0c0e 11       		.byte	0x11
 6312 0c0f 42       		.byte	0x42
 6313 0c10 C40B0000 		.4byte	0xbc4
 6314 0c14 09       		.uleb128 0x9
 6315 0c15 A7020000 		.4byte	.LASF184
 6316 0c19 1C       		.byte	0x1c
 6317 0c1a 11       		.byte	0x11
 6318 0c1b 45       		.byte	0x45
 6319 0c1c 8D0C0000 		.4byte	0xc8d
 6320 0c20 07       		.uleb128 0x7
 6321 0c21 5C020000 		.4byte	.LASF74
 6322 0c25 11       		.byte	0x11
 6323 0c26 49       		.byte	0x49
 6324 0c27 AE0B0000 		.4byte	0xbae
 6325 0c2b 00       		.byte	0
 6326 0c2c 07       		.uleb128 0x7
 6327 0c2d B1040000 		.4byte	.LASF185
 6328 0c31 11       		.byte	0x11
 6329 0c32 4E       		.byte	0x4e
 6330 0c33 AD0C0000 		.4byte	0xcad
 6331 0c37 04       		.byte	0x4
ARM GAS  C:\Users\tmj32\AppData\Local\Temp\cc94ZBZn.s 			page 140


 6332 0c38 07       		.uleb128 0x7
 6333 0c39 16120000 		.4byte	.LASF186
 6334 0c3d 11       		.byte	0x11
 6335 0c3e 52       		.byte	0x52
 6336 0c3f C30C0000 		.4byte	0xcc3
 6337 0c43 08       		.byte	0x8
 6338 0c44 07       		.uleb128 0x7
 6339 0c45 5F0F0000 		.4byte	.LASF187
 6340 0c49 11       		.byte	0x11
 6341 0c4a 59       		.byte	0x59
 6342 0c4b C90C0000 		.4byte	0xcc9
 6343 0c4f 0C       		.byte	0xc
 6344 0c50 07       		.uleb128 0x7
 6345 0c51 F7110000 		.4byte	.LASF188
 6346 0c55 11       		.byte	0x11
 6347 0c56 5C       		.byte	0x5c
 6348 0c57 150A0000 		.4byte	0xa15
 6349 0c5b 10       		.byte	0x10
 6350 0c5c 07       		.uleb128 0x7
 6351 0c5d FC180000 		.4byte	.LASF189
 6352 0c61 11       		.byte	0x11
 6353 0c62 5F       		.byte	0x5f
 6354 0c63 B8000000 		.4byte	0xb8
 6355 0c67 14       		.byte	0x14
 6356 0c68 07       		.uleb128 0x7
 6357 0c69 37090000 		.4byte	.LASF160
 6358 0c6d 11       		.byte	0x11
 6359 0c6e 62       		.byte	0x62
 6360 0c6f B8000000 		.4byte	0xb8
 6361 0c73 15       		.byte	0x15
 6362 0c74 07       		.uleb128 0x7
 6363 0c75 DD120000 		.4byte	.LASF190
 6364 0c79 11       		.byte	0x11
 6365 0c7a 65       		.byte	0x65
 6366 0c7b CE000000 		.4byte	0xce
 6367 0c7f 16       		.byte	0x16
 6368 0c80 07       		.uleb128 0x7
 6369 0c81 8B090000 		.4byte	.LASF191
 6370 0c85 11       		.byte	0x11
 6371 0c86 68       		.byte	0x68
 6372 0c87 CE000000 		.4byte	0xce
 6373 0c8b 18       		.byte	0x18
 6374 0c8c 00       		.byte	0
 6375 0c8d 0B       		.uleb128 0xb
 6376 0c8e D5010000 		.4byte	0x1d5
 6377 0c92 A10C0000 		.4byte	0xca1
 6378 0c96 0C       		.uleb128 0xc
 6379 0c97 A10C0000 		.4byte	0xca1
 6380 0c9b 0C       		.uleb128 0xc
 6381 0c9c A70C0000 		.4byte	0xca7
 6382 0ca0 00       		.byte	0
 6383 0ca1 0D       		.uleb128 0xd
 6384 0ca2 04       		.byte	0x4
 6385 0ca3 140C0000 		.4byte	0xc14
 6386 0ca7 0D       		.uleb128 0xd
 6387 0ca8 04       		.byte	0x4
 6388 0ca9 090C0000 		.4byte	0xc09
ARM GAS  C:\Users\tmj32\AppData\Local\Temp\cc94ZBZn.s 			page 141


 6389 0cad 0D       		.uleb128 0xd
 6390 0cae 04       		.byte	0x4
 6391 0caf 8D0C0000 		.4byte	0xc8d
 6392 0cb3 15       		.uleb128 0x15
 6393 0cb4 C30C0000 		.4byte	0xcc3
 6394 0cb8 0C       		.uleb128 0xc
 6395 0cb9 A10C0000 		.4byte	0xca1
 6396 0cbd 0C       		.uleb128 0xc
 6397 0cbe B8000000 		.4byte	0xb8
 6398 0cc2 00       		.byte	0
 6399 0cc3 0D       		.uleb128 0xd
 6400 0cc4 04       		.byte	0x4
 6401 0cc5 B30C0000 		.4byte	0xcb3
 6402 0cc9 0D       		.uleb128 0xd
 6403 0cca 04       		.byte	0x4
 6404 0ccb 89090000 		.4byte	0x989
 6405 0ccf 02       		.uleb128 0x2
 6406 0cd0 C0180000 		.4byte	.LASF192
 6407 0cd4 11       		.byte	0x11
 6408 0cd5 69       		.byte	0x69
 6409 0cd6 140C0000 		.4byte	0xc14
 6410 0cda 06       		.uleb128 0x6
 6411 0cdb 24       		.byte	0x24
 6412 0cdc 11       		.byte	0x11
 6413 0cdd 73       		.byte	0x73
 6414 0cde 610D0000 		.4byte	0xd61
 6415 0ce2 07       		.uleb128 0x7
 6416 0ce3 9C0C0000 		.4byte	.LASF193
 6417 0ce7 11       		.byte	0x11
 6418 0ce8 75       		.byte	0x75
 6419 0ce9 D9020000 		.4byte	0x2d9
 6420 0ced 00       		.byte	0
 6421 0cee 07       		.uleb128 0x7
 6422 0cef 780E0000 		.4byte	.LASF194
 6423 0cf3 11       		.byte	0x11
 6424 0cf4 76       		.byte	0x76
 6425 0cf5 D9020000 		.4byte	0x2d9
 6426 0cf9 04       		.byte	0x4
 6427 0cfa 07       		.uleb128 0x7
 6428 0cfb 53110000 		.4byte	.LASF195
 6429 0cff 11       		.byte	0x11
 6430 0d00 77       		.byte	0x77
 6431 0d01 D9020000 		.4byte	0x2d9
 6432 0d05 08       		.byte	0x8
 6433 0d06 07       		.uleb128 0x7
 6434 0d07 83110000 		.4byte	.LASF196
 6435 0d0b 11       		.byte	0x11
 6436 0d0c 78       		.byte	0x78
 6437 0d0d D9020000 		.4byte	0x2d9
 6438 0d11 0C       		.byte	0xc
 6439 0d12 07       		.uleb128 0x7
 6440 0d13 0D070000 		.4byte	.LASF197
 6441 0d17 11       		.byte	0x11
 6442 0d18 79       		.byte	0x79
 6443 0d19 D9020000 		.4byte	0x2d9
 6444 0d1d 10       		.byte	0x10
 6445 0d1e 07       		.uleb128 0x7
ARM GAS  C:\Users\tmj32\AppData\Local\Temp\cc94ZBZn.s 			page 142


 6446 0d1f 830E0000 		.4byte	.LASF198
 6447 0d23 11       		.byte	0x11
 6448 0d24 7A       		.byte	0x7a
 6449 0d25 5D0B0000 		.4byte	0xb5d
 6450 0d29 14       		.byte	0x14
 6451 0d2a 07       		.uleb128 0x7
 6452 0d2b A60C0000 		.4byte	.LASF199
 6453 0d2f 11       		.byte	0x11
 6454 0d30 7B       		.byte	0x7b
 6455 0d31 5D0B0000 		.4byte	0xb5d
 6456 0d35 18       		.byte	0x18
 6457 0d36 07       		.uleb128 0x7
 6458 0d37 CF040000 		.4byte	.LASF200
 6459 0d3b 11       		.byte	0x11
 6460 0d3c 7D       		.byte	0x7d
 6461 0d3d 5D0B0000 		.4byte	0xb5d
 6462 0d41 1C       		.byte	0x1c
 6463 0d42 0A       		.uleb128 0xa
 6464 0d43 C3150000 		.4byte	.LASF201
 6465 0d47 11       		.byte	0x11
 6466 0d48 80       		.byte	0x80
 6467 0d49 B8000000 		.4byte	0xb8
 6468 0d4d 01       		.byte	0x1
 6469 0d4e 01       		.byte	0x1
 6470 0d4f 07       		.byte	0x7
 6471 0d50 20       		.byte	0x20
 6472 0d51 0A       		.uleb128 0xa
 6473 0d52 6D150000 		.4byte	.LASF202
 6474 0d56 11       		.byte	0x11
 6475 0d57 81       		.byte	0x81
 6476 0d58 B8000000 		.4byte	0xb8
 6477 0d5c 01       		.byte	0x1
 6478 0d5d 01       		.byte	0x1
 6479 0d5e 06       		.byte	0x6
 6480 0d5f 20       		.byte	0x20
 6481 0d60 00       		.byte	0
 6482 0d61 06       		.uleb128 0x6
 6483 0d62 08       		.byte	0x8
 6484 0d63 11       		.byte	0x11
 6485 0d64 83       		.byte	0x83
 6486 0d65 820D0000 		.4byte	0xd82
 6487 0d69 07       		.uleb128 0x7
 6488 0d6a C8030000 		.4byte	.LASF203
 6489 0d6e 11       		.byte	0x11
 6490 0d6f 85       		.byte	0x85
 6491 0d70 B90B0000 		.4byte	0xbb9
 6492 0d74 00       		.byte	0
 6493 0d75 07       		.uleb128 0x7
 6494 0d76 0A0B0000 		.4byte	.LASF204
 6495 0d7a 11       		.byte	0x11
 6496 0d7b 86       		.byte	0x86
 6497 0d7c E4000000 		.4byte	0xe4
 6498 0d80 04       		.byte	0x4
 6499 0d81 00       		.byte	0
 6500 0d82 0F       		.uleb128 0xf
 6501 0d83 24       		.byte	0x24
 6502 0d84 11       		.byte	0x11
ARM GAS  C:\Users\tmj32\AppData\Local\Temp\cc94ZBZn.s 			page 143


 6503 0d85 71       		.byte	0x71
 6504 0d86 A10D0000 		.4byte	0xda1
 6505 0d8a 11       		.uleb128 0x11
 6506 0d8b 07090000 		.4byte	.LASF205
 6507 0d8f 11       		.byte	0x11
 6508 0d90 82       		.byte	0x82
 6509 0d91 DA0C0000 		.4byte	0xcda
 6510 0d95 11       		.uleb128 0x11
 6511 0d96 51170000 		.4byte	.LASF206
 6512 0d9a 11       		.byte	0x11
 6513 0d9b 87       		.byte	0x87
 6514 0d9c 610D0000 		.4byte	0xd61
 6515 0da0 00       		.byte	0
 6516 0da1 09       		.uleb128 0x9
 6517 0da2 B8120000 		.4byte	.LASF207
 6518 0da6 34       		.byte	0x34
 6519 0da7 11       		.byte	0x11
 6520 0da8 6E       		.byte	0x6e
 6521 0da9 1A0E0000 		.4byte	0xe1a
 6522 0dad 07       		.uleb128 0x7
 6523 0dae 08020000 		.4byte	.LASF182
 6524 0db2 11       		.byte	0x11
 6525 0db3 70       		.byte	0x70
 6526 0db4 B90B0000 		.4byte	0xbb9
 6527 0db8 00       		.byte	0
 6528 0db9 07       		.uleb128 0x7
 6529 0dba 531B0000 		.4byte	.LASF208
 6530 0dbe 11       		.byte	0x11
 6531 0dbf 88       		.byte	0x88
 6532 0dc0 820D0000 		.4byte	0xd82
 6533 0dc4 04       		.byte	0x4
 6534 0dc5 07       		.uleb128 0x7
 6535 0dc6 B8110000 		.4byte	.LASF209
 6536 0dca 11       		.byte	0x11
 6537 0dcb 8A       		.byte	0x8a
 6538 0dcc E4000000 		.4byte	0xe4
 6539 0dd0 28       		.byte	0x28
 6540 0dd1 07       		.uleb128 0x7
 6541 0dd2 EE0F0000 		.4byte	.LASF210
 6542 0dd6 11       		.byte	0x11
 6543 0dd7 8B       		.byte	0x8b
 6544 0dd8 E4000000 		.4byte	0xe4
 6545 0ddc 2C       		.byte	0x2c
 6546 0ddd 0A       		.uleb128 0xa
 6547 0dde EC1A0000 		.4byte	.LASF211
 6548 0de2 11       		.byte	0x11
 6549 0de3 8E       		.byte	0x8e
 6550 0de4 B8000000 		.4byte	0xb8
 6551 0de8 01       		.byte	0x1
 6552 0de9 01       		.byte	0x1
 6553 0dea 07       		.byte	0x7
 6554 0deb 30       		.byte	0x30
 6555 0dec 0A       		.uleb128 0xa
 6556 0ded C6130000 		.4byte	.LASF212
 6557 0df1 11       		.byte	0x11
 6558 0df2 8F       		.byte	0x8f
 6559 0df3 B8000000 		.4byte	0xb8
ARM GAS  C:\Users\tmj32\AppData\Local\Temp\cc94ZBZn.s 			page 144


 6560 0df7 01       		.byte	0x1
 6561 0df8 01       		.byte	0x1
 6562 0df9 06       		.byte	0x6
 6563 0dfa 30       		.byte	0x30
 6564 0dfb 0A       		.uleb128 0xa
 6565 0dfc 3E0B0000 		.4byte	.LASF213
 6566 0e00 11       		.byte	0x11
 6567 0e01 90       		.byte	0x90
 6568 0e02 B8000000 		.4byte	0xb8
 6569 0e06 01       		.byte	0x1
 6570 0e07 01       		.byte	0x1
 6571 0e08 05       		.byte	0x5
 6572 0e09 30       		.byte	0x30
 6573 0e0a 0A       		.uleb128 0xa
 6574 0e0b CE0A0000 		.4byte	.LASF214
 6575 0e0f 11       		.byte	0x11
 6576 0e10 91       		.byte	0x91
 6577 0e11 B8000000 		.4byte	0xb8
 6578 0e15 01       		.byte	0x1
 6579 0e16 01       		.byte	0x1
 6580 0e17 04       		.byte	0x4
 6581 0e18 30       		.byte	0x30
 6582 0e19 00       		.byte	0
 6583 0e1a 02       		.uleb128 0x2
 6584 0e1b 25180000 		.4byte	.LASF215
 6585 0e1f 11       		.byte	0x11
 6586 0e20 92       		.byte	0x92
 6587 0e21 A10D0000 		.4byte	0xda1
 6588 0e25 09       		.uleb128 0x9
 6589 0e26 43030000 		.4byte	.LASF216
 6590 0e2a 5C       		.byte	0x5c
 6591 0e2b 11       		.byte	0x11
 6592 0e2c 99       		.byte	0x99
 6593 0e2d 6E0E0000 		.4byte	0xe6e
 6594 0e31 07       		.uleb128 0x7
 6595 0e32 BE160000 		.4byte	.LASF140
 6596 0e36 11       		.byte	0x11
 6597 0e37 9B       		.byte	0x9b
 6598 0e38 CF0C0000 		.4byte	0xccf
 6599 0e3c 00       		.byte	0
 6600 0e3d 07       		.uleb128 0x7
 6601 0e3e 34080000 		.4byte	.LASF217
 6602 0e42 11       		.byte	0x11
 6603 0e43 9C       		.byte	0x9c
 6604 0e44 1A0E0000 		.4byte	0xe1a
 6605 0e48 1C       		.byte	0x1c
 6606 0e49 07       		.uleb128 0x7
 6607 0e4a 7D1B0000 		.4byte	.LASF218
 6608 0e4e 11       		.byte	0x11
 6609 0e4f 9D       		.byte	0x9d
 6610 0e50 5D0B0000 		.4byte	0xb5d
 6611 0e54 50       		.byte	0x50
 6612 0e55 07       		.uleb128 0x7
 6613 0e56 740C0000 		.4byte	.LASF219
 6614 0e5a 11       		.byte	0x11
 6615 0e5b 9E       		.byte	0x9e
 6616 0e5c 730E0000 		.4byte	0xe73
ARM GAS  C:\Users\tmj32\AppData\Local\Temp\cc94ZBZn.s 			page 145


 6617 0e60 54       		.byte	0x54
 6618 0e61 07       		.uleb128 0x7
 6619 0e62 8E0A0000 		.4byte	.LASF220
 6620 0e66 11       		.byte	0x11
 6621 0e67 9F       		.byte	0x9f
 6622 0e68 790E0000 		.4byte	0xe79
 6623 0e6c 58       		.byte	0x58
 6624 0e6d 00       		.byte	0
 6625 0e6e 1D       		.uleb128 0x1d
 6626 0e6f 841B0000 		.4byte	.LASF517
 6627 0e73 0D       		.uleb128 0xd
 6628 0e74 04       		.byte	0x4
 6629 0e75 6E0E0000 		.4byte	0xe6e
 6630 0e79 0D       		.uleb128 0xd
 6631 0e7a 04       		.byte	0x4
 6632 0e7b 7F0E0000 		.4byte	0xe7f
 6633 0e7f 0E       		.uleb128 0xe
 6634 0e80 D9020000 		.4byte	0x2d9
 6635 0e84 02       		.uleb128 0x2
 6636 0e85 830A0000 		.4byte	.LASF221
 6637 0e89 11       		.byte	0x11
 6638 0e8a A1       		.byte	0xa1
 6639 0e8b 250E0000 		.4byte	0xe25
 6640 0e8f 02       		.uleb128 0x2
 6641 0e90 C5110000 		.4byte	.LASF222
 6642 0e94 10       		.byte	0x10
 6643 0e95 42       		.byte	0x42
 6644 0e96 B8000000 		.4byte	0xb8
 6645 0e9a 02       		.uleb128 0x2
 6646 0e9b A21B0000 		.4byte	.LASF223
 6647 0e9f 10       		.byte	0x10
 6648 0ea0 48       		.byte	0x48
 6649 0ea1 A50E0000 		.4byte	0xea5
 6650 0ea5 0D       		.uleb128 0xd
 6651 0ea6 04       		.byte	0x4
 6652 0ea7 AB0E0000 		.4byte	0xeab
 6653 0eab 0B       		.uleb128 0xb
 6654 0eac D5010000 		.4byte	0x1d5
 6655 0eb0 C40E0000 		.4byte	0xec4
 6656 0eb4 0C       		.uleb128 0xc
 6657 0eb5 5D0B0000 		.4byte	0xb5d
 6658 0eb9 0C       		.uleb128 0xc
 6659 0eba FB080000 		.4byte	0x8fb
 6660 0ebe 0C       		.uleb128 0xc
 6661 0ebf 8F0E0000 		.4byte	0xe8f
 6662 0ec3 00       		.byte	0
 6663 0ec4 13       		.uleb128 0x13
 6664 0ec5 01       		.byte	0x1
 6665 0ec6 42000000 		.4byte	0x42
 6666 0eca 10       		.byte	0x10
 6667 0ecb 4A       		.byte	0x4a
 6668 0ecc 490F0000 		.4byte	0xf49
 6669 0ed0 14       		.uleb128 0x14
 6670 0ed1 42120000 		.4byte	.LASF224
 6671 0ed5 00       		.byte	0
 6672 0ed6 14       		.uleb128 0x14
 6673 0ed7 66100000 		.4byte	.LASF225
ARM GAS  C:\Users\tmj32\AppData\Local\Temp\cc94ZBZn.s 			page 146


 6674 0edb 01       		.byte	0x1
 6675 0edc 14       		.uleb128 0x14
 6676 0edd 7E1A0000 		.4byte	.LASF226
 6677 0ee1 02       		.byte	0x2
 6678 0ee2 14       		.uleb128 0x14
 6679 0ee3 BE100000 		.4byte	.LASF227
 6680 0ee7 03       		.byte	0x3
 6681 0ee8 14       		.uleb128 0x14
 6682 0ee9 61020000 		.4byte	.LASF228
 6683 0eed 04       		.byte	0x4
 6684 0eee 14       		.uleb128 0x14
 6685 0eef D5100000 		.4byte	.LASF229
 6686 0ef3 05       		.byte	0x5
 6687 0ef4 14       		.uleb128 0x14
 6688 0ef5 E6090000 		.4byte	.LASF230
 6689 0ef9 06       		.byte	0x6
 6690 0efa 14       		.uleb128 0x14
 6691 0efb 901B0000 		.4byte	.LASF231
 6692 0eff 07       		.byte	0x7
 6693 0f00 14       		.uleb128 0x14
 6694 0f01 0F090000 		.4byte	.LASF232
 6695 0f05 08       		.byte	0x8
 6696 0f06 14       		.uleb128 0x14
 6697 0f07 DC110000 		.4byte	.LASF233
 6698 0f0b 09       		.byte	0x9
 6699 0f0c 14       		.uleb128 0x14
 6700 0f0d 690A0000 		.4byte	.LASF234
 6701 0f11 0A       		.byte	0xa
 6702 0f12 14       		.uleb128 0x14
 6703 0f13 401A0000 		.4byte	.LASF235
 6704 0f17 0B       		.byte	0xb
 6705 0f18 14       		.uleb128 0x14
 6706 0f19 C9080000 		.4byte	.LASF236
 6707 0f1d 0C       		.byte	0xc
 6708 0f1e 14       		.uleb128 0x14
 6709 0f1f 35180000 		.4byte	.LASF237
 6710 0f23 0D       		.byte	0xd
 6711 0f24 14       		.uleb128 0x14
 6712 0f25 BC0F0000 		.4byte	.LASF238
 6713 0f29 0E       		.byte	0xe
 6714 0f2a 14       		.uleb128 0x14
 6715 0f2b 39010000 		.4byte	.LASF239
 6716 0f2f 0F       		.byte	0xf
 6717 0f30 14       		.uleb128 0x14
 6718 0f31 460C0000 		.4byte	.LASF240
 6719 0f35 10       		.byte	0x10
 6720 0f36 14       		.uleb128 0x14
 6721 0f37 520A0000 		.4byte	.LASF241
 6722 0f3b 11       		.byte	0x11
 6723 0f3c 14       		.uleb128 0x14
 6724 0f3d 6D120000 		.4byte	.LASF242
 6725 0f41 12       		.byte	0x12
 6726 0f42 14       		.uleb128 0x14
 6727 0f43 FF0E0000 		.4byte	.LASF243
 6728 0f47 13       		.byte	0x13
 6729 0f48 00       		.byte	0
 6730 0f49 02       		.uleb128 0x2
ARM GAS  C:\Users\tmj32\AppData\Local\Temp\cc94ZBZn.s 			page 147


 6731 0f4a FD010000 		.4byte	.LASF244
 6732 0f4e 10       		.byte	0x10
 6733 0f4f 61       		.byte	0x61
 6734 0f50 B8000000 		.4byte	0xb8
 6735 0f54 02       		.uleb128 0x2
 6736 0f55 F91A0000 		.4byte	.LASF245
 6737 0f59 10       		.byte	0x10
 6738 0f5a 68       		.byte	0x68
 6739 0f5b 5F0F0000 		.4byte	0xf5f
 6740 0f5f 0D       		.uleb128 0xd
 6741 0f60 04       		.byte	0x4
 6742 0f61 650F0000 		.4byte	0xf65
 6743 0f65 15       		.uleb128 0x15
 6744 0f66 750F0000 		.4byte	0xf75
 6745 0f6a 0C       		.uleb128 0xc
 6746 0f6b 5D0B0000 		.4byte	0xb5d
 6747 0f6f 0C       		.uleb128 0xc
 6748 0f70 490F0000 		.4byte	0xf49
 6749 0f74 00       		.byte	0
 6750 0f75 13       		.uleb128 0x13
 6751 0f76 01       		.byte	0x1
 6752 0f77 42000000 		.4byte	0x42
 6753 0f7b 10       		.byte	0x10
 6754 0f7c 6D       		.byte	0x6d
 6755 0f7d FA0F0000 		.4byte	0xffa
 6756 0f81 14       		.uleb128 0x14
 6757 0f82 A00E0000 		.4byte	.LASF246
 6758 0f86 00       		.byte	0
 6759 0f87 14       		.uleb128 0x14
 6760 0f88 240F0000 		.4byte	.LASF247
 6761 0f8c 01       		.byte	0x1
 6762 0f8d 14       		.uleb128 0x14
 6763 0f8e 77170000 		.4byte	.LASF248
 6764 0f92 02       		.byte	0x2
 6765 0f93 14       		.uleb128 0x14
 6766 0f94 53120000 		.4byte	.LASF249
 6767 0f98 03       		.byte	0x3
 6768 0f99 14       		.uleb128 0x14
 6769 0f9a B7000000 		.4byte	.LASF250
 6770 0f9e 04       		.byte	0x4
 6771 0f9f 14       		.uleb128 0x14
 6772 0fa0 CF180000 		.4byte	.LASF251
 6773 0fa4 05       		.byte	0x5
 6774 0fa5 14       		.uleb128 0x14
 6775 0fa6 F6050000 		.4byte	.LASF252
 6776 0faa 06       		.byte	0x6
 6777 0fab 14       		.uleb128 0x14
 6778 0fac BB0A0000 		.4byte	.LASF253
 6779 0fb0 07       		.byte	0x7
 6780 0fb1 14       		.uleb128 0x14
 6781 0fb2 4A020000 		.4byte	.LASF254
 6782 0fb6 08       		.byte	0x8
 6783 0fb7 14       		.uleb128 0x14
 6784 0fb8 AB100000 		.4byte	.LASF255
 6785 0fbc 09       		.byte	0x9
 6786 0fbd 14       		.uleb128 0x14
 6787 0fbe 01120000 		.4byte	.LASF256
ARM GAS  C:\Users\tmj32\AppData\Local\Temp\cc94ZBZn.s 			page 148


 6788 0fc2 0A       		.byte	0xa
 6789 0fc3 14       		.uleb128 0x14
 6790 0fc4 7D120000 		.4byte	.LASF257
 6791 0fc8 0B       		.byte	0xb
 6792 0fc9 14       		.uleb128 0x14
 6793 0fca 74010000 		.4byte	.LASF258
 6794 0fce 0C       		.byte	0xc
 6795 0fcf 14       		.uleb128 0x14
 6796 0fd0 BD050000 		.4byte	.LASF259
 6797 0fd4 0D       		.byte	0xd
 6798 0fd5 14       		.uleb128 0x14
 6799 0fd6 D2010000 		.4byte	.LASF260
 6800 0fda 0E       		.byte	0xe
 6801 0fdb 14       		.uleb128 0x14
 6802 0fdc 22120000 		.4byte	.LASF261
 6803 0fe0 0F       		.byte	0xf
 6804 0fe1 14       		.uleb128 0x14
 6805 0fe2 1C0C0000 		.4byte	.LASF262
 6806 0fe6 10       		.byte	0x10
 6807 0fe7 14       		.uleb128 0x14
 6808 0fe8 B7080000 		.4byte	.LASF263
 6809 0fec 11       		.byte	0x11
 6810 0fed 14       		.uleb128 0x14
 6811 0fee 2F0E0000 		.4byte	.LASF264
 6812 0ff2 12       		.byte	0x12
 6813 0ff3 14       		.uleb128 0x14
 6814 0ff4 BF0C0000 		.4byte	.LASF265
 6815 0ff8 13       		.byte	0x13
 6816 0ff9 00       		.byte	0
 6817 0ffa 02       		.uleb128 0x2
 6818 0ffb C9120000 		.4byte	.LASF266
 6819 0fff 10       		.byte	0x10
 6820 1000 88       		.byte	0x88
 6821 1001 B8000000 		.4byte	0xb8
 6822 1005 02       		.uleb128 0x2
 6823 1006 76060000 		.4byte	.LASF267
 6824 100a 10       		.byte	0x10
 6825 100b 8A       		.byte	0x8a
 6826 100c 10100000 		.4byte	0x1010
 6827 1010 0D       		.uleb128 0xd
 6828 1011 04       		.byte	0x4
 6829 1012 16100000 		.4byte	0x1016
 6830 1016 0B       		.uleb128 0xb
 6831 1017 E2060000 		.4byte	0x6e2
 6832 101b 2F100000 		.4byte	0x102f
 6833 101f 0C       		.uleb128 0xc
 6834 1020 5D0B0000 		.4byte	0xb5d
 6835 1024 0C       		.uleb128 0xc
 6836 1025 FA0F0000 		.4byte	0xffa
 6837 1029 0C       		.uleb128 0xc
 6838 102a FA000000 		.4byte	0xfa
 6839 102e 00       		.byte	0
 6840 102f 13       		.uleb128 0x13
 6841 1030 01       		.byte	0x1
 6842 1031 42000000 		.4byte	0x42
 6843 1035 10       		.byte	0x10
 6844 1036 8D       		.byte	0x8d
ARM GAS  C:\Users\tmj32\AppData\Local\Temp\cc94ZBZn.s 			page 149


 6845 1037 BA100000 		.4byte	0x10ba
 6846 103b 14       		.uleb128 0x14
 6847 103c 9B0F0000 		.4byte	.LASF268
 6848 1040 00       		.byte	0
 6849 1041 14       		.uleb128 0x14
 6850 1042 81160000 		.4byte	.LASF269
 6851 1046 01       		.byte	0x1
 6852 1047 14       		.uleb128 0x14
 6853 1048 9B120000 		.4byte	.LASF270
 6854 104c 02       		.byte	0x2
 6855 104d 14       		.uleb128 0x14
 6856 104e 190E0000 		.4byte	.LASF271
 6857 1052 03       		.byte	0x3
 6858 1053 14       		.uleb128 0x14
 6859 1054 CB0E0000 		.4byte	.LASF272
 6860 1058 04       		.byte	0x4
 6861 1059 14       		.uleb128 0x14
 6862 105a 0D040000 		.4byte	.LASF273
 6863 105e 05       		.byte	0x5
 6864 105f 14       		.uleb128 0x14
 6865 1060 58110000 		.4byte	.LASF274
 6866 1064 06       		.byte	0x6
 6867 1065 14       		.uleb128 0x14
 6868 1066 7D180000 		.4byte	.LASF275
 6869 106a 07       		.byte	0x7
 6870 106b 14       		.uleb128 0x14
 6871 106c A2150000 		.4byte	.LASF276
 6872 1070 08       		.byte	0x8
 6873 1071 14       		.uleb128 0x14
 6874 1072 8C110000 		.4byte	.LASF277
 6875 1076 09       		.byte	0x9
 6876 1077 14       		.uleb128 0x14
 6877 1078 2E190000 		.4byte	.LASF278
 6878 107c 0A       		.byte	0xa
 6879 107d 14       		.uleb128 0x14
 6880 107e 58170000 		.4byte	.LASF279
 6881 1082 0B       		.byte	0xb
 6882 1083 14       		.uleb128 0x14
 6883 1084 010D0000 		.4byte	.LASF280
 6884 1088 0C       		.byte	0xc
 6885 1089 14       		.uleb128 0x14
 6886 108a 470B0000 		.4byte	.LASF281
 6887 108e 0D       		.byte	0xd
 6888 108f 14       		.uleb128 0x14
 6889 1090 A10A0000 		.4byte	.LASF282
 6890 1094 0E       		.byte	0xe
 6891 1095 14       		.uleb128 0x14
 6892 1096 D0190000 		.4byte	.LASF283
 6893 109a 0F       		.byte	0xf
 6894 109b 14       		.uleb128 0x14
 6895 109c DC070000 		.4byte	.LASF284
 6896 10a0 10       		.byte	0x10
 6897 10a1 14       		.uleb128 0x14
 6898 10a2 FA0D0000 		.4byte	.LASF285
 6899 10a6 11       		.byte	0x11
 6900 10a7 14       		.uleb128 0x14
 6901 10a8 43130000 		.4byte	.LASF286
ARM GAS  C:\Users\tmj32\AppData\Local\Temp\cc94ZBZn.s 			page 150


 6902 10ac 12       		.byte	0x12
 6903 10ad 14       		.uleb128 0x14
 6904 10ae 33020000 		.4byte	.LASF287
 6905 10b2 13       		.byte	0x13
 6906 10b3 14       		.uleb128 0x14
 6907 10b4 130B0000 		.4byte	.LASF288
 6908 10b8 14       		.byte	0x14
 6909 10b9 00       		.byte	0
 6910 10ba 02       		.uleb128 0x2
 6911 10bb C7010000 		.4byte	.LASF289
 6912 10bf 10       		.byte	0x10
 6913 10c0 A4       		.byte	0xa4
 6914 10c1 B8000000 		.4byte	0xb8
 6915 10c5 06       		.uleb128 0x6
 6916 10c6 0C       		.byte	0xc
 6917 10c7 10       		.byte	0x10
 6918 10c8 A7       		.byte	0xa7
 6919 10c9 1C110000 		.4byte	0x111c
 6920 10cd 07       		.uleb128 0x7
 6921 10ce 14170000 		.4byte	.LASF290
 6922 10d2 10       		.byte	0x10
 6923 10d3 A9       		.byte	0xa9
 6924 10d4 1C110000 		.4byte	0x111c
 6925 10d8 00       		.byte	0
 6926 10d9 07       		.uleb128 0x7
 6927 10da DD150000 		.4byte	.LASF291
 6928 10de 10       		.byte	0x10
 6929 10df AA       		.byte	0xaa
 6930 10e0 EF000000 		.4byte	0xef
 6931 10e4 04       		.byte	0x4
 6932 10e5 07       		.uleb128 0x7
 6933 10e6 C1130000 		.4byte	.LASF292
 6934 10ea 10       		.byte	0x10
 6935 10eb AB       		.byte	0xab
 6936 10ec EF000000 		.4byte	0xef
 6937 10f0 06       		.byte	0x6
 6938 10f1 07       		.uleb128 0x7
 6939 10f2 C50E0000 		.4byte	.LASF293
 6940 10f6 10       		.byte	0x10
 6941 10f7 AC       		.byte	0xac
 6942 10f8 BA100000 		.4byte	0x10ba
 6943 10fc 08       		.byte	0x8
 6944 10fd 0A       		.uleb128 0xa
 6945 10fe 03100000 		.4byte	.LASF294
 6946 1102 10       		.byte	0x10
 6947 1103 AD       		.byte	0xad
 6948 1104 B8000000 		.4byte	0xb8
 6949 1108 01       		.byte	0x1
 6950 1109 01       		.byte	0x1
 6951 110a 07       		.byte	0x7
 6952 110b 09       		.byte	0x9
 6953 110c 0A       		.uleb128 0xa
 6954 110d 0F1B0000 		.4byte	.LASF295
 6955 1111 10       		.byte	0x10
 6956 1112 AE       		.byte	0xae
 6957 1113 B8000000 		.4byte	0xb8
 6958 1117 01       		.byte	0x1
ARM GAS  C:\Users\tmj32\AppData\Local\Temp\cc94ZBZn.s 			page 151


 6959 1118 01       		.byte	0x1
 6960 1119 06       		.byte	0x6
 6961 111a 09       		.byte	0x9
 6962 111b 00       		.byte	0
 6963 111c 0D       		.uleb128 0xd
 6964 111d 04       		.byte	0x4
 6965 111e 22110000 		.4byte	0x1122
 6966 1122 0E       		.uleb128 0xe
 6967 1123 1B0A0000 		.4byte	0xa1b
 6968 1127 02       		.uleb128 0x2
 6969 1128 90010000 		.4byte	.LASF296
 6970 112c 10       		.byte	0x10
 6971 112d B0       		.byte	0xb0
 6972 112e C5100000 		.4byte	0x10c5
 6973 1132 02       		.uleb128 0x2
 6974 1133 CD1A0000 		.4byte	.LASF297
 6975 1137 10       		.byte	0x10
 6976 1138 B9       		.byte	0xb9
 6977 1139 B8000000 		.4byte	0xb8
 6978 113d 0D       		.uleb128 0xd
 6979 113e 04       		.byte	0x4
 6980 113f 43110000 		.4byte	0x1143
 6981 1143 0E       		.uleb128 0xe
 6982 1144 B8060000 		.4byte	0x6b8
 6983 1148 02       		.uleb128 0x2
 6984 1149 F8150000 		.4byte	.LASF298
 6985 114d 10       		.byte	0x10
 6986 114e F0       		.byte	0xf0
 6987 114f 1B0A0000 		.4byte	0xa1b
 6988 1153 13       		.uleb128 0x13
 6989 1154 01       		.byte	0x1
 6990 1155 42000000 		.4byte	0x42
 6991 1159 03       		.byte	0x3
 6992 115a 23       		.byte	0x23
 6993 115b A2110000 		.4byte	0x11a2
 6994 115f 14       		.uleb128 0x14
 6995 1160 D90B0000 		.4byte	.LASF299
 6996 1164 00       		.byte	0
 6997 1165 14       		.uleb128 0x14
 6998 1166 94040000 		.4byte	.LASF300
 6999 116a 01       		.byte	0x1
 7000 116b 14       		.uleb128 0x14
 7001 116c 65070000 		.4byte	.LASF301
 7002 1170 02       		.byte	0x2
 7003 1171 14       		.uleb128 0x14
 7004 1172 75070000 		.4byte	.LASF302
 7005 1176 03       		.byte	0x3
 7006 1177 14       		.uleb128 0x14
 7007 1178 A0070000 		.4byte	.LASF303
 7008 117c 04       		.byte	0x4
 7009 117d 14       		.uleb128 0x14
 7010 117e B9040000 		.4byte	.LASF304
 7011 1182 05       		.byte	0x5
 7012 1183 14       		.uleb128 0x14
 7013 1184 84040000 		.4byte	.LASF305
 7014 1188 06       		.byte	0x6
 7015 1189 14       		.uleb128 0x14
ARM GAS  C:\Users\tmj32\AppData\Local\Temp\cc94ZBZn.s 			page 152


 7016 118a 43040000 		.4byte	.LASF306
 7017 118e 07       		.byte	0x7
 7018 118f 14       		.uleb128 0x14
 7019 1190 53040000 		.4byte	.LASF307
 7020 1194 08       		.byte	0x8
 7021 1195 14       		.uleb128 0x14
 7022 1196 13160000 		.4byte	.LASF308
 7023 119a 09       		.byte	0x9
 7024 119b 14       		.uleb128 0x14
 7025 119c EF060000 		.4byte	.LASF309
 7026 11a0 0A       		.byte	0xa
 7027 11a1 00       		.byte	0
 7028 11a2 13       		.uleb128 0x13
 7029 11a3 01       		.byte	0x1
 7030 11a4 42000000 		.4byte	0x42
 7031 11a8 03       		.byte	0x3
 7032 11a9 35       		.byte	0x35
 7033 11aa CD110000 		.4byte	0x11cd
 7034 11ae 14       		.uleb128 0x14
 7035 11af 8F020000 		.4byte	.LASF310
 7036 11b3 00       		.byte	0
 7037 11b4 14       		.uleb128 0x14
 7038 11b5 86190000 		.4byte	.LASF311
 7039 11b9 01       		.byte	0x1
 7040 11ba 14       		.uleb128 0x14
 7041 11bb 690B0000 		.4byte	.LASF312
 7042 11bf 02       		.byte	0x2
 7043 11c0 14       		.uleb128 0x14
 7044 11c1 48160000 		.4byte	.LASF313
 7045 11c5 03       		.byte	0x3
 7046 11c6 14       		.uleb128 0x14
 7047 11c7 EC150000 		.4byte	.LASF314
 7048 11cb 04       		.byte	0x4
 7049 11cc 00       		.byte	0
 7050 11cd 02       		.uleb128 0x2
 7051 11ce 03140000 		.4byte	.LASF315
 7052 11d2 03       		.byte	0x3
 7053 11d3 3D       		.byte	0x3d
 7054 11d4 B8000000 		.4byte	0xb8
 7055 11d8 13       		.uleb128 0x13
 7056 11d9 01       		.byte	0x1
 7057 11da 42000000 		.4byte	0x42
 7058 11de 03       		.byte	0x3
 7059 11df 4B       		.byte	0x4b
 7060 11e0 EB110000 		.4byte	0x11eb
 7061 11e4 14       		.uleb128 0x14
 7062 11e5 24040000 		.4byte	.LASF316
 7063 11e9 00       		.byte	0
 7064 11ea 00       		.byte	0
 7065 11eb 02       		.uleb128 0x2
 7066 11ec F50A0000 		.4byte	.LASF317
 7067 11f0 03       		.byte	0x3
 7068 11f1 4E       		.byte	0x4e
 7069 11f2 B8000000 		.4byte	0xb8
 7070 11f6 13       		.uleb128 0x13
 7071 11f7 01       		.byte	0x1
 7072 11f8 42000000 		.4byte	0x42
ARM GAS  C:\Users\tmj32\AppData\Local\Temp\cc94ZBZn.s 			page 153


 7073 11fc 12       		.byte	0x12
 7074 11fd 2A       		.byte	0x2a
 7075 11fe 27120000 		.4byte	0x1227
 7076 1202 14       		.uleb128 0x14
 7077 1203 D5020000 		.4byte	.LASF318
 7078 1207 00       		.byte	0
 7079 1208 14       		.uleb128 0x14
 7080 1209 F8120000 		.4byte	.LASF319
 7081 120d 01       		.byte	0x1
 7082 120e 14       		.uleb128 0x14
 7083 120f AB0B0000 		.4byte	.LASF320
 7084 1213 02       		.byte	0x2
 7085 1214 14       		.uleb128 0x14
 7086 1215 25000000 		.4byte	.LASF321
 7087 1219 03       		.byte	0x3
 7088 121a 14       		.uleb128 0x14
 7089 121b D30F0000 		.4byte	.LASF322
 7090 121f 04       		.byte	0x4
 7091 1220 14       		.uleb128 0x14
 7092 1221 6B1B0000 		.4byte	.LASF323
 7093 1225 05       		.byte	0x5
 7094 1226 00       		.byte	0
 7095 1227 1B       		.uleb128 0x1b
 7096 1228 3D110000 		.4byte	0x113d
 7097 122c 37120000 		.4byte	0x1237
 7098 1230 1C       		.uleb128 0x1c
 7099 1231 9D020000 		.4byte	0x29d
 7100 1235 04       		.byte	0x4
 7101 1236 00       		.byte	0
 7102 1237 13       		.uleb128 0x13
 7103 1238 01       		.byte	0x1
 7104 1239 42000000 		.4byte	0x42
 7105 123d 13       		.byte	0x13
 7106 123e 2A       		.byte	0x2a
 7107 123f 68120000 		.4byte	0x1268
 7108 1243 14       		.uleb128 0x14
 7109 1244 690E0000 		.4byte	.LASF324
 7110 1248 00       		.byte	0
 7111 1249 14       		.uleb128 0x14
 7112 124a 0A110000 		.4byte	.LASF325
 7113 124e 01       		.byte	0x1
 7114 124f 14       		.uleb128 0x14
 7115 1250 C0190000 		.4byte	.LASF326
 7116 1254 02       		.byte	0x2
 7117 1255 14       		.uleb128 0x14
 7118 1256 F2070000 		.4byte	.LASF327
 7119 125a 03       		.byte	0x3
 7120 125b 14       		.uleb128 0x14
 7121 125c 3F050000 		.4byte	.LASF328
 7122 1260 04       		.byte	0x4
 7123 1261 14       		.uleb128 0x14
 7124 1262 16020000 		.4byte	.LASF329
 7125 1266 05       		.byte	0x5
 7126 1267 00       		.byte	0
 7127 1268 13       		.uleb128 0x13
 7128 1269 01       		.byte	0x1
 7129 126a 42000000 		.4byte	0x42
ARM GAS  C:\Users\tmj32\AppData\Local\Temp\cc94ZBZn.s 			page 154


 7130 126e 13       		.byte	0x13
 7131 126f 35       		.byte	0x35
 7132 1270 8D120000 		.4byte	0x128d
 7133 1274 14       		.uleb128 0x14
 7134 1275 01160000 		.4byte	.LASF330
 7135 1279 01       		.byte	0x1
 7136 127a 14       		.uleb128 0x14
 7137 127b 48180000 		.4byte	.LASF331
 7138 127f 02       		.byte	0x2
 7139 1280 14       		.uleb128 0x14
 7140 1281 21110000 		.4byte	.LASF332
 7141 1285 04       		.byte	0x4
 7142 1286 14       		.uleb128 0x14
 7143 1287 E10A0000 		.4byte	.LASF333
 7144 128b 08       		.byte	0x8
 7145 128c 00       		.byte	0
 7146 128d 0D       		.uleb128 0xd
 7147 128e 04       		.byte	0x4
 7148 128f 48110000 		.4byte	0x1148
 7149 1293 13       		.uleb128 0x13
 7150 1294 01       		.byte	0x1
 7151 1295 42000000 		.4byte	0x42
 7152 1299 13       		.byte	0x13
 7153 129a 5E       		.byte	0x5e
 7154 129b B8120000 		.4byte	0x12b8
 7155 129f 14       		.uleb128 0x14
 7156 12a0 03170000 		.4byte	.LASF334
 7157 12a4 00       		.byte	0
 7158 12a5 14       		.uleb128 0x14
 7159 12a6 2E140000 		.4byte	.LASF335
 7160 12aa 01       		.byte	0x1
 7161 12ab 14       		.uleb128 0x14
 7162 12ac D5090000 		.4byte	.LASF336
 7163 12b0 02       		.byte	0x2
 7164 12b1 14       		.uleb128 0x14
 7165 12b2 20010000 		.4byte	.LASF337
 7166 12b6 03       		.byte	0x3
 7167 12b7 00       		.byte	0
 7168 12b8 13       		.uleb128 0x13
 7169 12b9 01       		.byte	0x1
 7170 12ba 42000000 		.4byte	0x42
 7171 12be 14       		.byte	0x14
 7172 12bf 2E       		.byte	0x2e
 7173 12c0 DD120000 		.4byte	0x12dd
 7174 12c4 14       		.uleb128 0x14
 7175 12c5 DA000000 		.4byte	.LASF338
 7176 12c9 00       		.byte	0
 7177 12ca 14       		.uleb128 0x14
 7178 12cb C1070000 		.4byte	.LASF339
 7179 12cf 01       		.byte	0x1
 7180 12d0 14       		.uleb128 0x14
 7181 12d1 1D070000 		.4byte	.LASF340
 7182 12d5 02       		.byte	0x2
 7183 12d6 14       		.uleb128 0x14
 7184 12d7 43060000 		.4byte	.LASF341
 7185 12db 03       		.byte	0x3
 7186 12dc 00       		.byte	0
ARM GAS  C:\Users\tmj32\AppData\Local\Temp\cc94ZBZn.s 			page 155


 7187 12dd 02       		.uleb128 0x2
 7188 12de 9B160000 		.4byte	.LASF342
 7189 12e2 14       		.byte	0x14
 7190 12e3 2F       		.byte	0x2f
 7191 12e4 B8000000 		.4byte	0xb8
 7192 12e8 06       		.uleb128 0x6
 7193 12e9 1C       		.byte	0x1c
 7194 12ea 14       		.byte	0x14
 7195 12eb 32       		.byte	0x32
 7196 12ec AB130000 		.4byte	0x13ab
 7197 12f0 07       		.uleb128 0x7
 7198 12f1 56100000 		.4byte	.LASF343
 7199 12f5 14       		.byte	0x14
 7200 12f6 36       		.byte	0x36
 7201 12f7 8D120000 		.4byte	0x128d
 7202 12fb 00       		.byte	0
 7203 12fc 07       		.uleb128 0x7
 7204 12fd 510E0000 		.4byte	.LASF344
 7205 1301 14       		.byte	0x14
 7206 1302 37       		.byte	0x37
 7207 1303 8D120000 		.4byte	0x128d
 7208 1307 04       		.byte	0x4
 7209 1308 07       		.uleb128 0x7
 7210 1309 6E190000 		.4byte	.LASF345
 7211 130d 14       		.byte	0x14
 7212 130e 38       		.byte	0x38
 7213 130f 8D120000 		.4byte	0x128d
 7214 1313 08       		.byte	0x8
 7215 1314 07       		.uleb128 0x7
 7216 1315 7D0F0000 		.4byte	.LASF346
 7217 1319 14       		.byte	0x14
 7218 131a 39       		.byte	0x39
 7219 131b AB130000 		.4byte	0x13ab
 7220 131f 0C       		.byte	0xc
 7221 1320 07       		.uleb128 0x7
 7222 1321 22030000 		.4byte	.LASF347
 7223 1325 14       		.byte	0x14
 7224 1326 3A       		.byte	0x3a
 7225 1327 D9020000 		.4byte	0x2d9
 7226 132b 10       		.byte	0x10
 7227 132c 07       		.uleb128 0x7
 7228 132d D6050000 		.4byte	.LASF348
 7229 1331 14       		.byte	0x14
 7230 1332 3B       		.byte	0x3b
 7231 1333 CE000000 		.4byte	0xce
 7232 1337 14       		.byte	0x14
 7233 1338 07       		.uleb128 0x7
 7234 1339 10010000 		.4byte	.LASF349
 7235 133d 14       		.byte	0x14
 7236 133e 3C       		.byte	0x3c
 7237 133f CE000000 		.4byte	0xce
 7238 1343 16       		.byte	0x16
 7239 1344 07       		.uleb128 0x7
 7240 1345 03070000 		.4byte	.LASF350
 7241 1349 14       		.byte	0x14
 7242 134a 3E       		.byte	0x3e
 7243 134b CE000000 		.4byte	0xce
ARM GAS  C:\Users\tmj32\AppData\Local\Temp\cc94ZBZn.s 			page 156


 7244 134f 18       		.byte	0x18
 7245 1350 0A       		.uleb128 0xa
 7246 1351 32050000 		.4byte	.LASF351
 7247 1355 14       		.byte	0x14
 7248 1356 40       		.byte	0x40
 7249 1357 B8000000 		.4byte	0xb8
 7250 135b 01       		.byte	0x1
 7251 135c 01       		.byte	0x1
 7252 135d 07       		.byte	0x7
 7253 135e 1A       		.byte	0x1a
 7254 135f 0A       		.uleb128 0xa
 7255 1360 A9090000 		.4byte	.LASF352
 7256 1364 14       		.byte	0x14
 7257 1365 41       		.byte	0x41
 7258 1366 B8000000 		.4byte	0xb8
 7259 136a 01       		.byte	0x1
 7260 136b 01       		.byte	0x1
 7261 136c 06       		.byte	0x6
 7262 136d 1A       		.byte	0x1a
 7263 136e 0A       		.uleb128 0xa
 7264 136f 1B060000 		.4byte	.LASF353
 7265 1373 14       		.byte	0x14
 7266 1374 42       		.byte	0x42
 7267 1375 B8000000 		.4byte	0xb8
 7268 1379 01       		.byte	0x1
 7269 137a 01       		.byte	0x1
 7270 137b 05       		.byte	0x5
 7271 137c 1A       		.byte	0x1a
 7272 137d 0A       		.uleb128 0xa
 7273 137e A6190000 		.4byte	.LASF354
 7274 1382 14       		.byte	0x14
 7275 1383 43       		.byte	0x43
 7276 1384 B8000000 		.4byte	0xb8
 7277 1388 01       		.byte	0x1
 7278 1389 01       		.byte	0x1
 7279 138a 04       		.byte	0x4
 7280 138b 1A       		.byte	0x1a
 7281 138c 0A       		.uleb128 0xa
 7282 138d AA180000 		.4byte	.LASF355
 7283 1391 14       		.byte	0x14
 7284 1392 44       		.byte	0x44
 7285 1393 B8000000 		.4byte	0xb8
 7286 1397 01       		.byte	0x1
 7287 1398 01       		.byte	0x1
 7288 1399 03       		.byte	0x3
 7289 139a 1A       		.byte	0x1a
 7290 139b 0A       		.uleb128 0xa
 7291 139c F8020000 		.4byte	.LASF356
 7292 13a0 14       		.byte	0x14
 7293 13a1 45       		.byte	0x45
 7294 13a2 DD120000 		.4byte	0x12dd
 7295 13a6 01       		.byte	0x1
 7296 13a7 02       		.byte	0x2
 7297 13a8 01       		.byte	0x1
 7298 13a9 1A       		.byte	0x1a
 7299 13aa 00       		.byte	0
 7300 13ab 0D       		.uleb128 0xd
ARM GAS  C:\Users\tmj32\AppData\Local\Temp\cc94ZBZn.s 			page 157


 7301 13ac 04       		.byte	0x4
 7302 13ad B1020000 		.4byte	0x2b1
 7303 13b1 02       		.uleb128 0x2
 7304 13b2 B0070000 		.4byte	.LASF357
 7305 13b6 14       		.byte	0x14
 7306 13b7 46       		.byte	0x46
 7307 13b8 E8120000 		.4byte	0x12e8
 7308 13bc 13       		.uleb128 0x13
 7309 13bd 01       		.byte	0x1
 7310 13be 42000000 		.4byte	0x42
 7311 13c2 14       		.byte	0x14
 7312 13c3 48       		.byte	0x48
 7313 13c4 F3130000 		.4byte	0x13f3
 7314 13c8 14       		.uleb128 0x14
 7315 13c9 BC020000 		.4byte	.LASF358
 7316 13cd 00       		.byte	0
 7317 13ce 14       		.uleb128 0x14
 7318 13cf 24060000 		.4byte	.LASF359
 7319 13d3 01       		.byte	0x1
 7320 13d4 14       		.uleb128 0x14
 7321 13d5 E7170000 		.4byte	.LASF360
 7322 13d9 02       		.byte	0x2
 7323 13da 14       		.uleb128 0x14
 7324 13db 15190000 		.4byte	.LASF361
 7325 13df 03       		.byte	0x3
 7326 13e0 14       		.uleb128 0x14
 7327 13e1 59080000 		.4byte	.LASF362
 7328 13e5 04       		.byte	0x4
 7329 13e6 14       		.uleb128 0x14
 7330 13e7 61090000 		.4byte	.LASF363
 7331 13eb 05       		.byte	0x5
 7332 13ec 14       		.uleb128 0x14
 7333 13ed E7160000 		.4byte	.LASF364
 7334 13f1 06       		.byte	0x6
 7335 13f2 00       		.byte	0
 7336 13f3 02       		.uleb128 0x2
 7337 13f4 2E0D0000 		.4byte	.LASF365
 7338 13f8 14       		.byte	0x14
 7339 13f9 51       		.byte	0x51
 7340 13fa B8000000 		.4byte	0xb8
 7341 13fe 13       		.uleb128 0x13
 7342 13ff 02       		.byte	0x2
 7343 1400 66000000 		.4byte	0x66
 7344 1404 15       		.byte	0x15
 7345 1405 29       		.byte	0x29
 7346 1406 30140000 		.4byte	0x1430
 7347 140a 14       		.uleb128 0x14
 7348 140b 690F0000 		.4byte	.LASF366
 7349 140f 08       		.byte	0x8
 7350 1410 14       		.uleb128 0x14
 7351 1411 3F000000 		.4byte	.LASF367
 7352 1415 10       		.byte	0x10
 7353 1416 14       		.uleb128 0x14
 7354 1417 2D030000 		.4byte	.LASF368
 7355 141b 20       		.byte	0x20
 7356 141c 14       		.uleb128 0x14
 7357 141d 92180000 		.4byte	.LASF369
ARM GAS  C:\Users\tmj32\AppData\Local\Temp\cc94ZBZn.s 			page 158


 7358 1421 40       		.byte	0x40
 7359 1422 14       		.uleb128 0x14
 7360 1423 78100000 		.4byte	.LASF370
 7361 1427 80       		.byte	0x80
 7362 1428 1E       		.uleb128 0x1e
 7363 1429 F5030000 		.4byte	.LASF371
 7364 142d 0001     		.2byte	0x100
 7365 142f 00       		.byte	0
 7366 1430 02       		.uleb128 0x2
 7367 1431 71080000 		.4byte	.LASF372
 7368 1435 15       		.byte	0x15
 7369 1436 31       		.byte	0x31
 7370 1437 CE000000 		.4byte	0xce
 7371 143b 06       		.uleb128 0x6
 7372 143c 28       		.byte	0x28
 7373 143d 15       		.byte	0x15
 7374 143e 34       		.byte	0x34
 7375 143f B6140000 		.4byte	0x14b6
 7376 1443 07       		.uleb128 0x7
 7377 1444 9F0B0000 		.4byte	.LASF373
 7378 1448 15       		.byte	0x15
 7379 1449 38       		.byte	0x38
 7380 144a AB130000 		.4byte	0x13ab
 7381 144e 00       		.byte	0
 7382 144f 07       		.uleb128 0x7
 7383 1450 EF180000 		.4byte	.LASF374
 7384 1454 15       		.byte	0x15
 7385 1455 39       		.byte	0x39
 7386 1456 22090000 		.4byte	0x922
 7387 145a 04       		.byte	0x4
 7388 145b 07       		.uleb128 0x7
 7389 145c A0170000 		.4byte	.LASF375
 7390 1460 15       		.byte	0x15
 7391 1461 3A       		.byte	0x3a
 7392 1462 B6140000 		.4byte	0x14b6
 7393 1466 08       		.byte	0x8
 7394 1467 07       		.uleb128 0x7
 7395 1468 4F030000 		.4byte	.LASF376
 7396 146c 15       		.byte	0x15
 7397 146d 3B       		.byte	0x3b
 7398 146e 27120000 		.4byte	0x1227
 7399 1472 0C       		.byte	0xc
 7400 1473 07       		.uleb128 0x7
 7401 1474 F70E0000 		.4byte	.LASF377
 7402 1478 15       		.byte	0x15
 7403 1479 3C       		.byte	0x3c
 7404 147a CE000000 		.4byte	0xce
 7405 147e 20       		.byte	0x20
 7406 147f 07       		.uleb128 0x7
 7407 1480 F90B0000 		.4byte	.LASF378
 7408 1484 15       		.byte	0x15
 7409 1485 3D       		.byte	0x3d
 7410 1486 CE000000 		.4byte	0xce
 7411 148a 22       		.byte	0x22
 7412 148b 07       		.uleb128 0x7
 7413 148c 69010000 		.4byte	.LASF379
 7414 1490 15       		.byte	0x15
ARM GAS  C:\Users\tmj32\AppData\Local\Temp\cc94ZBZn.s 			page 159


 7415 1491 3E       		.byte	0x3e
 7416 1492 CE000000 		.4byte	0xce
 7417 1496 24       		.byte	0x24
 7418 1497 0A       		.uleb128 0xa
 7419 1498 3E0C0000 		.4byte	.LASF380
 7420 149c 15       		.byte	0x15
 7421 149d 3F       		.byte	0x3f
 7422 149e B8000000 		.4byte	0xb8
 7423 14a2 01       		.byte	0x1
 7424 14a3 01       		.byte	0x1
 7425 14a4 07       		.byte	0x7
 7426 14a5 26       		.byte	0x26
 7427 14a6 0A       		.uleb128 0xa
 7428 14a7 110C0000 		.4byte	.LASF381
 7429 14ab 15       		.byte	0x15
 7430 14ac 40       		.byte	0x40
 7431 14ad B8000000 		.4byte	0xb8
 7432 14b1 01       		.byte	0x1
 7433 14b2 01       		.byte	0x1
 7434 14b3 06       		.byte	0x6
 7435 14b4 26       		.byte	0x26
 7436 14b5 00       		.byte	0
 7437 14b6 0D       		.uleb128 0xd
 7438 14b7 04       		.byte	0x4
 7439 14b8 30140000 		.4byte	0x1430
 7440 14bc 02       		.uleb128 0x2
 7441 14bd 2D1A0000 		.4byte	.LASF382
 7442 14c1 15       		.byte	0x15
 7443 14c2 41       		.byte	0x41
 7444 14c3 3B140000 		.4byte	0x143b
 7445 14c7 13       		.uleb128 0x13
 7446 14c8 01       		.byte	0x1
 7447 14c9 42000000 		.4byte	0x42
 7448 14cd 15       		.byte	0x15
 7449 14ce 43       		.byte	0x43
 7450 14cf F8140000 		.4byte	0x14f8
 7451 14d3 14       		.uleb128 0x14
 7452 14d4 80080000 		.4byte	.LASF383
 7453 14d8 00       		.byte	0
 7454 14d9 14       		.uleb128 0x14
 7455 14da 43080000 		.4byte	.LASF384
 7456 14de 01       		.byte	0x1
 7457 14df 14       		.uleb128 0x14
 7458 14e0 1F130000 		.4byte	.LASF385
 7459 14e4 02       		.byte	0x2
 7460 14e5 14       		.uleb128 0x14
 7461 14e6 18050000 		.4byte	.LASF386
 7462 14ea 03       		.byte	0x3
 7463 14eb 14       		.uleb128 0x14
 7464 14ec C00B0000 		.4byte	.LASF387
 7465 14f0 04       		.byte	0x4
 7466 14f1 14       		.uleb128 0x14
 7467 14f2 54160000 		.4byte	.LASF388
 7468 14f6 05       		.byte	0x5
 7469 14f7 00       		.byte	0
 7470 14f8 06       		.uleb128 0x6
 7471 14f9 14       		.byte	0x14
ARM GAS  C:\Users\tmj32\AppData\Local\Temp\cc94ZBZn.s 			page 160


 7472 14fa 16       		.byte	0x16
 7473 14fb 34       		.byte	0x34
 7474 14fc 3C150000 		.4byte	0x153c
 7475 1500 08       		.uleb128 0x8
 7476 1501 72656C00 		.ascii	"rel\000"
 7477 1505 16       		.byte	0x16
 7478 1506 36       		.byte	0x36
 7479 1507 C3060000 		.4byte	0x6c3
 7480 150b 00       		.byte	0
 7481 150c 08       		.uleb128 0x8
 7482 150d 707200   		.ascii	"pr\000"
 7483 1510 16       		.byte	0x16
 7484 1511 37       		.byte	0x37
 7485 1512 C3060000 		.4byte	0x6c3
 7486 1516 04       		.byte	0x4
 7487 1517 07       		.uleb128 0x7
 7488 1518 930F0000 		.4byte	.LASF389
 7489 151c 16       		.byte	0x16
 7490 151d 38       		.byte	0x38
 7491 151e C3060000 		.4byte	0x6c3
 7492 1522 08       		.byte	0x8
 7493 1523 07       		.uleb128 0x7
 7494 1524 4F050000 		.4byte	.LASF390
 7495 1528 16       		.byte	0x16
 7496 1529 39       		.byte	0x39
 7497 152a C3060000 		.4byte	0x6c3
 7498 152e 0C       		.byte	0xc
 7499 152f 08       		.uleb128 0x8
 7500 1530 696E6100 		.ascii	"ina\000"
 7501 1534 16       		.byte	0x16
 7502 1535 3A       		.byte	0x3a
 7503 1536 C3060000 		.4byte	0x6c3
 7504 153a 10       		.byte	0x10
 7505 153b 00       		.byte	0
 7506 153c 06       		.uleb128 0x6
 7507 153d 14       		.byte	0x14
 7508 153e 16       		.byte	0x16
 7509 153f 3F       		.byte	0x3f
 7510 1540 80150000 		.4byte	0x1580
 7511 1544 08       		.uleb128 0x8
 7512 1545 72656C00 		.ascii	"rel\000"
 7513 1549 16       		.byte	0x16
 7514 154a 41       		.byte	0x41
 7515 154b C3060000 		.4byte	0x6c3
 7516 154f 00       		.byte	0
 7517 1550 08       		.uleb128 0x8
 7518 1551 707200   		.ascii	"pr\000"
 7519 1554 16       		.byte	0x16
 7520 1555 42       		.byte	0x42
 7521 1556 C3060000 		.4byte	0x6c3
 7522 155a 04       		.byte	0x4
 7523 155b 07       		.uleb128 0x7
 7524 155c 930F0000 		.4byte	.LASF389
 7525 1560 16       		.byte	0x16
 7526 1561 43       		.byte	0x43
 7527 1562 C3060000 		.4byte	0x6c3
 7528 1566 08       		.byte	0x8
ARM GAS  C:\Users\tmj32\AppData\Local\Temp\cc94ZBZn.s 			page 161


 7529 1567 07       		.uleb128 0x7
 7530 1568 4F050000 		.4byte	.LASF390
 7531 156c 16       		.byte	0x16
 7532 156d 44       		.byte	0x44
 7533 156e C3060000 		.4byte	0x6c3
 7534 1572 0C       		.byte	0xc
 7535 1573 08       		.uleb128 0x8
 7536 1574 696E6100 		.ascii	"ina\000"
 7537 1578 16       		.byte	0x16
 7538 1579 45       		.byte	0x45
 7539 157a C3060000 		.4byte	0x6c3
 7540 157e 10       		.byte	0x10
 7541 157f 00       		.byte	0
 7542 1580 06       		.uleb128 0x6
 7543 1581 0C       		.byte	0xc
 7544 1582 16       		.byte	0x16
 7545 1583 4A       		.byte	0x4a
 7546 1584 AD150000 		.4byte	0x15ad
 7547 1588 07       		.uleb128 0x7
 7548 1589 D0020000 		.4byte	.LASF391
 7549 158d 16       		.byte	0x16
 7550 158e 4C       		.byte	0x4c
 7551 158f C3060000 		.4byte	0x6c3
 7552 1593 00       		.byte	0
 7553 1594 08       		.uleb128 0x8
 7554 1595 73656300 		.ascii	"sec\000"
 7555 1599 16       		.byte	0x16
 7556 159a 4D       		.byte	0x4d
 7557 159b C3060000 		.4byte	0x6c3
 7558 159f 04       		.byte	0x4
 7559 15a0 07       		.uleb128 0x7
 7560 15a1 3D120000 		.4byte	.LASF392
 7561 15a5 16       		.byte	0x16
 7562 15a6 4E       		.byte	0x4e
 7563 15a7 C3060000 		.4byte	0x6c3
 7564 15ab 08       		.byte	0x8
 7565 15ac 00       		.byte	0
 7566 15ad 06       		.uleb128 0x6
 7567 15ae 08       		.byte	0x8
 7568 15af 16       		.byte	0x16
 7569 15b0 53       		.byte	0x53
 7570 15b1 CE150000 		.4byte	0x15ce
 7571 15b5 07       		.uleb128 0x7
 7572 15b6 9B020000 		.4byte	.LASF393
 7573 15ba 16       		.byte	0x16
 7574 15bb 55       		.byte	0x55
 7575 15bc C3060000 		.4byte	0x6c3
 7576 15c0 00       		.byte	0
 7577 15c1 07       		.uleb128 0x7
 7578 15c2 E6190000 		.4byte	.LASF394
 7579 15c6 16       		.byte	0x16
 7580 15c7 56       		.byte	0x56
 7581 15c8 C3060000 		.4byte	0x6c3
 7582 15cc 04       		.byte	0x4
 7583 15cd 00       		.byte	0
 7584 15ce 06       		.uleb128 0x6
 7585 15cf 04       		.byte	0x4
ARM GAS  C:\Users\tmj32\AppData\Local\Temp\cc94ZBZn.s 			page 162


 7586 15d0 16       		.byte	0x16
 7587 15d1 5B       		.byte	0x5b
 7588 15d2 E3150000 		.4byte	0x15e3
 7589 15d6 07       		.uleb128 0x7
 7590 15d7 06150000 		.4byte	.LASF395
 7591 15db 16       		.byte	0x16
 7592 15dc 5D       		.byte	0x5d
 7593 15dd C3060000 		.4byte	0x6c3
 7594 15e1 00       		.byte	0
 7595 15e2 00       		.byte	0
 7596 15e3 06       		.uleb128 0x6
 7597 15e4 08       		.byte	0x8
 7598 15e5 16       		.byte	0x16
 7599 15e6 66       		.byte	0x66
 7600 15e7 03160000 		.4byte	0x1603
 7601 15eb 08       		.uleb128 0x8
 7602 15ec 626700   		.ascii	"bg\000"
 7603 15ef 16       		.byte	0x16
 7604 15f0 68       		.byte	0x68
 7605 15f1 C3060000 		.4byte	0x6c3
 7606 15f5 00       		.byte	0
 7607 15f6 07       		.uleb128 0x7
 7608 15f7 510E0000 		.4byte	.LASF344
 7609 15fb 16       		.byte	0x16
 7610 15fc 69       		.byte	0x69
 7611 15fd C3060000 		.4byte	0x6c3
 7612 1601 04       		.byte	0x4
 7613 1602 00       		.byte	0
 7614 1603 06       		.uleb128 0x6
 7615 1604 0C       		.byte	0xc
 7616 1605 16       		.byte	0x16
 7617 1606 6E       		.byte	0x6e
 7618 1607 2F160000 		.4byte	0x162f
 7619 160b 08       		.uleb128 0x8
 7620 160c 626700   		.ascii	"bg\000"
 7621 160f 16       		.byte	0x16
 7622 1610 70       		.byte	0x70
 7623 1611 C3060000 		.4byte	0x6c3
 7624 1615 00       		.byte	0
 7625 1616 07       		.uleb128 0x7
 7626 1617 510E0000 		.4byte	.LASF344
 7627 161b 16       		.byte	0x16
 7628 161c 71       		.byte	0x71
 7629 161d C3060000 		.4byte	0x6c3
 7630 1621 04       		.byte	0x4
 7631 1622 07       		.uleb128 0x7
 7632 1623 1B1B0000 		.4byte	.LASF396
 7633 1627 16       		.byte	0x16
 7634 1628 72       		.byte	0x72
 7635 1629 C3060000 		.4byte	0x6c3
 7636 162d 08       		.byte	0x8
 7637 162e 00       		.byte	0
 7638 162f 06       		.uleb128 0x6
 7639 1630 10       		.byte	0x10
 7640 1631 16       		.byte	0x16
 7641 1632 87       		.byte	0x87
 7642 1633 67160000 		.4byte	0x1667
ARM GAS  C:\Users\tmj32\AppData\Local\Temp\cc94ZBZn.s 			page 163


 7643 1637 08       		.uleb128 0x8
 7644 1638 626700   		.ascii	"bg\000"
 7645 163b 16       		.byte	0x16
 7646 163c 89       		.byte	0x89
 7647 163d C3060000 		.4byte	0x6c3
 7648 1641 00       		.byte	0
 7649 1642 07       		.uleb128 0x7
 7650 1643 510E0000 		.4byte	.LASF344
 7651 1647 16       		.byte	0x16
 7652 1648 8A       		.byte	0x8a
 7653 1649 C3060000 		.4byte	0x6c3
 7654 164d 04       		.byte	0x4
 7655 164e 07       		.uleb128 0x7
 7656 164f 9C100000 		.4byte	.LASF397
 7657 1653 16       		.byte	0x16
 7658 1654 8B       		.byte	0x8b
 7659 1655 C3060000 		.4byte	0x6c3
 7660 1659 08       		.byte	0x8
 7661 165a 07       		.uleb128 0x7
 7662 165b 16180000 		.4byte	.LASF398
 7663 165f 16       		.byte	0x16
 7664 1660 8C       		.byte	0x8c
 7665 1661 C3060000 		.4byte	0x6c3
 7666 1665 0C       		.byte	0xc
 7667 1666 00       		.byte	0
 7668 1667 06       		.uleb128 0x6
 7669 1668 20       		.byte	0x20
 7670 1669 16       		.byte	0x16
 7671 166a 95       		.byte	0x95
 7672 166b CF160000 		.4byte	0x16cf
 7673 166f 08       		.uleb128 0x8
 7674 1670 626700   		.ascii	"bg\000"
 7675 1673 16       		.byte	0x16
 7676 1674 97       		.byte	0x97
 7677 1675 C3060000 		.4byte	0x6c3
 7678 1679 00       		.byte	0
 7679 167a 07       		.uleb128 0x7
 7680 167b 69060000 		.4byte	.LASF399
 7681 167f 16       		.byte	0x16
 7682 1680 98       		.byte	0x98
 7683 1681 C3060000 		.4byte	0x6c3
 7684 1685 04       		.byte	0x4
 7685 1686 07       		.uleb128 0x7
 7686 1687 8E130000 		.4byte	.LASF400
 7687 168b 16       		.byte	0x16
 7688 168c 99       		.byte	0x99
 7689 168d C3060000 		.4byte	0x6c3
 7690 1691 08       		.byte	0x8
 7691 1692 07       		.uleb128 0x7
 7692 1693 0C180000 		.4byte	.LASF401
 7693 1697 16       		.byte	0x16
 7694 1698 9A       		.byte	0x9a
 7695 1699 C3060000 		.4byte	0x6c3
 7696 169d 0C       		.byte	0xc
 7697 169e 07       		.uleb128 0x7
 7698 169f E7010000 		.4byte	.LASF402
 7699 16a3 16       		.byte	0x16
ARM GAS  C:\Users\tmj32\AppData\Local\Temp\cc94ZBZn.s 			page 164


 7700 16a4 9B       		.byte	0x9b
 7701 16a5 C3060000 		.4byte	0x6c3
 7702 16a9 10       		.byte	0x10
 7703 16aa 07       		.uleb128 0x7
 7704 16ab 98130000 		.4byte	.LASF403
 7705 16af 16       		.byte	0x16
 7706 16b0 9C       		.byte	0x9c
 7707 16b1 C3060000 		.4byte	0x6c3
 7708 16b5 14       		.byte	0x14
 7709 16b6 07       		.uleb128 0x7
 7710 16b7 5C070000 		.4byte	.LASF404
 7711 16bb 16       		.byte	0x16
 7712 16bc 9D       		.byte	0x9d
 7713 16bd C3060000 		.4byte	0x6c3
 7714 16c1 18       		.byte	0x18
 7715 16c2 07       		.uleb128 0x7
 7716 16c3 0E050000 		.4byte	.LASF405
 7717 16c7 16       		.byte	0x16
 7718 16c8 9E       		.byte	0x9e
 7719 16c9 C3060000 		.4byte	0x6c3
 7720 16cd 1C       		.byte	0x1c
 7721 16ce 00       		.byte	0
 7722 16cf 06       		.uleb128 0x6
 7723 16d0 14       		.byte	0x14
 7724 16d1 16       		.byte	0x16
 7725 16d2 A6       		.byte	0xa6
 7726 16d3 13170000 		.4byte	0x1713
 7727 16d7 08       		.uleb128 0x8
 7728 16d8 72656C00 		.ascii	"rel\000"
 7729 16dc 16       		.byte	0x16
 7730 16dd A8       		.byte	0xa8
 7731 16de C3060000 		.4byte	0x6c3
 7732 16e2 00       		.byte	0
 7733 16e3 08       		.uleb128 0x8
 7734 16e4 707200   		.ascii	"pr\000"
 7735 16e7 16       		.byte	0x16
 7736 16e8 A9       		.byte	0xa9
 7737 16e9 C3060000 		.4byte	0x6c3
 7738 16ed 04       		.byte	0x4
 7739 16ee 07       		.uleb128 0x7
 7740 16ef 930F0000 		.4byte	.LASF389
 7741 16f3 16       		.byte	0x16
 7742 16f4 AA       		.byte	0xaa
 7743 16f5 C3060000 		.4byte	0x6c3
 7744 16f9 08       		.byte	0x8
 7745 16fa 07       		.uleb128 0x7
 7746 16fb 4F050000 		.4byte	.LASF390
 7747 16ff 16       		.byte	0x16
 7748 1700 AB       		.byte	0xab
 7749 1701 C3060000 		.4byte	0x6c3
 7750 1705 0C       		.byte	0xc
 7751 1706 08       		.uleb128 0x8
 7752 1707 696E6100 		.ascii	"ina\000"
 7753 170b 16       		.byte	0x16
 7754 170c AC       		.byte	0xac
 7755 170d C3060000 		.4byte	0x6c3
 7756 1711 10       		.byte	0x10
ARM GAS  C:\Users\tmj32\AppData\Local\Temp\cc94ZBZn.s 			page 165


 7757 1712 00       		.byte	0
 7758 1713 06       		.uleb128 0x6
 7759 1714 18       		.byte	0x18
 7760 1715 16       		.byte	0x16
 7761 1716 A3       		.byte	0xa3
 7762 1717 33170000 		.4byte	0x1733
 7763 171b 08       		.uleb128 0x8
 7764 171c 626700   		.ascii	"bg\000"
 7765 171f 16       		.byte	0x16
 7766 1720 A5       		.byte	0xa5
 7767 1721 C3060000 		.4byte	0x6c3
 7768 1725 00       		.byte	0
 7769 1726 08       		.uleb128 0x8
 7770 1727 626F7800 		.ascii	"box\000"
 7771 172b 16       		.byte	0x16
 7772 172c AD       		.byte	0xad
 7773 172d CF160000 		.4byte	0x16cf
 7774 1731 04       		.byte	0x4
 7775 1732 00       		.byte	0
 7776 1733 06       		.uleb128 0x6
 7777 1734 14       		.byte	0x14
 7778 1735 16       		.byte	0x16
 7779 1736 B5       		.byte	0xb5
 7780 1737 77170000 		.4byte	0x1777
 7781 173b 08       		.uleb128 0x8
 7782 173c 72656C00 		.ascii	"rel\000"
 7783 1740 16       		.byte	0x16
 7784 1741 B7       		.byte	0xb7
 7785 1742 C3060000 		.4byte	0x6c3
 7786 1746 00       		.byte	0
 7787 1747 08       		.uleb128 0x8
 7788 1748 707200   		.ascii	"pr\000"
 7789 174b 16       		.byte	0x16
 7790 174c B8       		.byte	0xb8
 7791 174d C3060000 		.4byte	0x6c3
 7792 1751 04       		.byte	0x4
 7793 1752 07       		.uleb128 0x7
 7794 1753 930F0000 		.4byte	.LASF389
 7795 1757 16       		.byte	0x16
 7796 1758 B9       		.byte	0xb9
 7797 1759 C3060000 		.4byte	0x6c3
 7798 175d 08       		.byte	0x8
 7799 175e 07       		.uleb128 0x7
 7800 175f 4F050000 		.4byte	.LASF390
 7801 1763 16       		.byte	0x16
 7802 1764 BA       		.byte	0xba
 7803 1765 C3060000 		.4byte	0x6c3
 7804 1769 0C       		.byte	0xc
 7805 176a 08       		.uleb128 0x8
 7806 176b 696E6100 		.ascii	"ina\000"
 7807 176f 16       		.byte	0x16
 7808 1770 BB       		.byte	0xbb
 7809 1771 C3060000 		.4byte	0x6c3
 7810 1775 10       		.byte	0x10
 7811 1776 00       		.byte	0
 7812 1777 06       		.uleb128 0x6
 7813 1778 18       		.byte	0x18
ARM GAS  C:\Users\tmj32\AppData\Local\Temp\cc94ZBZn.s 			page 166


 7814 1779 16       		.byte	0x16
 7815 177a B2       		.byte	0xb2
 7816 177b 97170000 		.4byte	0x1797
 7817 177f 08       		.uleb128 0x8
 7818 1780 626700   		.ascii	"bg\000"
 7819 1783 16       		.byte	0x16
 7820 1784 B4       		.byte	0xb4
 7821 1785 C3060000 		.4byte	0x6c3
 7822 1789 00       		.byte	0
 7823 178a 08       		.uleb128 0x8
 7824 178b 62746E00 		.ascii	"btn\000"
 7825 178f 16       		.byte	0x16
 7826 1790 BC       		.byte	0xbc
 7827 1791 33170000 		.4byte	0x1733
 7828 1795 04       		.byte	0x4
 7829 1796 00       		.byte	0
 7830 1797 06       		.uleb128 0x6
 7831 1798 14       		.byte	0x14
 7832 1799 16       		.byte	0x16
 7833 179a C4       		.byte	0xc4
 7834 179b DB170000 		.4byte	0x17db
 7835 179f 08       		.uleb128 0x8
 7836 17a0 72656C00 		.ascii	"rel\000"
 7837 17a4 16       		.byte	0x16
 7838 17a5 C6       		.byte	0xc6
 7839 17a6 C3060000 		.4byte	0x6c3
 7840 17aa 00       		.byte	0
 7841 17ab 08       		.uleb128 0x8
 7842 17ac 707200   		.ascii	"pr\000"
 7843 17af 16       		.byte	0x16
 7844 17b0 C7       		.byte	0xc7
 7845 17b1 C3060000 		.4byte	0x6c3
 7846 17b5 04       		.byte	0x4
 7847 17b6 07       		.uleb128 0x7
 7848 17b7 930F0000 		.4byte	.LASF389
 7849 17bb 16       		.byte	0x16
 7850 17bc C8       		.byte	0xc8
 7851 17bd C3060000 		.4byte	0x6c3
 7852 17c1 08       		.byte	0x8
 7853 17c2 07       		.uleb128 0x7
 7854 17c3 4F050000 		.4byte	.LASF390
 7855 17c7 16       		.byte	0x16
 7856 17c8 C9       		.byte	0xc9
 7857 17c9 C3060000 		.4byte	0x6c3
 7858 17cd 0C       		.byte	0xc
 7859 17ce 08       		.uleb128 0x8
 7860 17cf 696E6100 		.ascii	"ina\000"
 7861 17d3 16       		.byte	0x16
 7862 17d4 CA       		.byte	0xca
 7863 17d5 C3060000 		.4byte	0x6c3
 7864 17d9 10       		.byte	0x10
 7865 17da 00       		.byte	0
 7866 17db 06       		.uleb128 0x6
 7867 17dc 18       		.byte	0x18
 7868 17dd 16       		.byte	0x16
 7869 17de C1       		.byte	0xc1
 7870 17df FB170000 		.4byte	0x17fb
ARM GAS  C:\Users\tmj32\AppData\Local\Temp\cc94ZBZn.s 			page 167


 7871 17e3 08       		.uleb128 0x8
 7872 17e4 626700   		.ascii	"bg\000"
 7873 17e7 16       		.byte	0x16
 7874 17e8 C3       		.byte	0xc3
 7875 17e9 C3060000 		.4byte	0x6c3
 7876 17ed 00       		.byte	0
 7877 17ee 08       		.uleb128 0x8
 7878 17ef 62746E00 		.ascii	"btn\000"
 7879 17f3 16       		.byte	0x16
 7880 17f4 CB       		.byte	0xcb
 7881 17f5 97170000 		.4byte	0x1797
 7882 17f9 04       		.byte	0x4
 7883 17fa 00       		.byte	0
 7884 17fb 06       		.uleb128 0x6
 7885 17fc 0C       		.byte	0xc
 7886 17fd 16       		.byte	0x16
 7887 17fe D3       		.byte	0xd3
 7888 17ff 26180000 		.4byte	0x1826
 7889 1803 08       		.uleb128 0x8
 7890 1804 626700   		.ascii	"bg\000"
 7891 1807 16       		.byte	0x16
 7892 1808 D5       		.byte	0xd5
 7893 1809 C3060000 		.4byte	0x6c3
 7894 180d 00       		.byte	0
 7895 180e 08       		.uleb128 0x8
 7896 180f 72656C00 		.ascii	"rel\000"
 7897 1813 16       		.byte	0x16
 7898 1814 D6       		.byte	0xd6
 7899 1815 C3060000 		.4byte	0x6c3
 7900 1819 04       		.byte	0x4
 7901 181a 08       		.uleb128 0x8
 7902 181b 707200   		.ascii	"pr\000"
 7903 181e 16       		.byte	0x16
 7904 181f D7       		.byte	0xd7
 7905 1820 C3060000 		.4byte	0x6c3
 7906 1824 08       		.byte	0x8
 7907 1825 00       		.byte	0
 7908 1826 06       		.uleb128 0x6
 7909 1827 10       		.byte	0x10
 7910 1828 16       		.byte	0x16
 7911 1829 D0       		.byte	0xd0
 7912 182a 46180000 		.4byte	0x1846
 7913 182e 08       		.uleb128 0x8
 7914 182f 626700   		.ascii	"bg\000"
 7915 1832 16       		.byte	0x16
 7916 1833 D2       		.byte	0xd2
 7917 1834 C3060000 		.4byte	0x6c3
 7918 1838 00       		.byte	0
 7919 1839 08       		.uleb128 0x8
 7920 183a 62746E00 		.ascii	"btn\000"
 7921 183e 16       		.byte	0x16
 7922 183f D8       		.byte	0xd8
 7923 1840 FB170000 		.4byte	0x17fb
 7924 1844 04       		.byte	0x4
 7925 1845 00       		.byte	0
 7926 1846 06       		.uleb128 0x6
 7927 1847 0C       		.byte	0xc
ARM GAS  C:\Users\tmj32\AppData\Local\Temp\cc94ZBZn.s 			page 168


 7928 1848 16       		.byte	0x16
 7929 1849 DD       		.byte	0xdd
 7930 184a 71180000 		.4byte	0x1871
 7931 184e 08       		.uleb128 0x8
 7932 184f 626700   		.ascii	"bg\000"
 7933 1852 16       		.byte	0x16
 7934 1853 DF       		.byte	0xdf
 7935 1854 C3060000 		.4byte	0x6c3
 7936 1858 00       		.byte	0
 7937 1859 07       		.uleb128 0x7
 7938 185a B3050000 		.4byte	.LASF406
 7939 185e 16       		.byte	0x16
 7940 185f E0       		.byte	0xe0
 7941 1860 C3060000 		.4byte	0x6c3
 7942 1864 04       		.byte	0x4
 7943 1865 08       		.uleb128 0x8
 7944 1866 736200   		.ascii	"sb\000"
 7945 1869 16       		.byte	0x16
 7946 186a E1       		.byte	0xe1
 7947 186b C3060000 		.4byte	0x6c3
 7948 186f 08       		.byte	0x8
 7949 1870 00       		.byte	0
 7950 1871 06       		.uleb128 0x6
 7951 1872 10       		.byte	0x10
 7952 1873 16       		.byte	0x16
 7953 1874 E6       		.byte	0xe6
 7954 1875 A9180000 		.4byte	0x18a9
 7955 1879 07       		.uleb128 0x7
 7956 187a 050B0000 		.4byte	.LASF125
 7957 187e 16       		.byte	0x16
 7958 187f E8       		.byte	0xe8
 7959 1880 C3060000 		.4byte	0x6c3
 7960 1884 00       		.byte	0
 7961 1885 07       		.uleb128 0x7
 7962 1886 D60C0000 		.4byte	.LASF407
 7963 188a 16       		.byte	0x16
 7964 188b E9       		.byte	0xe9
 7965 188c C3060000 		.4byte	0x6c3
 7966 1890 04       		.byte	0x4
 7967 1891 07       		.uleb128 0x7
 7968 1892 7D1B0000 		.4byte	.LASF218
 7969 1896 16       		.byte	0x16
 7970 1897 EA       		.byte	0xea
 7971 1898 C3060000 		.4byte	0x6c3
 7972 189c 08       		.byte	0x8
 7973 189d 08       		.uleb128 0x8
 7974 189e 736200   		.ascii	"sb\000"
 7975 18a1 16       		.byte	0x16
 7976 18a2 EB       		.byte	0xeb
 7977 18a3 C3060000 		.4byte	0x6c3
 7978 18a7 0C       		.byte	0xc
 7979 18a8 00       		.byte	0
 7980 18a9 06       		.uleb128 0x6
 7981 18aa 0C       		.byte	0xc
 7982 18ab 16       		.byte	0x16
 7983 18ac F0       		.byte	0xf0
 7984 18ad D4180000 		.4byte	0x18d4
ARM GAS  C:\Users\tmj32\AppData\Local\Temp\cc94ZBZn.s 			page 169


 7985 18b1 08       		.uleb128 0x8
 7986 18b2 626700   		.ascii	"bg\000"
 7987 18b5 16       		.byte	0x16
 7988 18b6 F2       		.byte	0xf2
 7989 18b7 C3060000 		.4byte	0x6c3
 7990 18bb 00       		.byte	0
 7991 18bc 07       		.uleb128 0x7
 7992 18bd 7D1B0000 		.4byte	.LASF218
 7993 18c1 16       		.byte	0x16
 7994 18c2 F3       		.byte	0xf3
 7995 18c3 C3060000 		.4byte	0x6c3
 7996 18c7 04       		.byte	0x4
 7997 18c8 08       		.uleb128 0x8
 7998 18c9 736200   		.ascii	"sb\000"
 7999 18cc 16       		.byte	0x16
 8000 18cd F4       		.byte	0xf4
 8001 18ce C3060000 		.4byte	0x6c3
 8002 18d2 08       		.byte	0x8
 8003 18d3 00       		.byte	0
 8004 18d4 06       		.uleb128 0x6
 8005 18d5 14       		.byte	0x14
 8006 18d6 16       		.byte	0x16
 8007 18d7 FE       		.byte	0xfe
 8008 18d8 1D190000 		.4byte	0x191d
 8009 18dc 1F       		.uleb128 0x1f
 8010 18dd 72656C00 		.ascii	"rel\000"
 8011 18e1 16       		.byte	0x16
 8012 18e2 0001     		.2byte	0x100
 8013 18e4 C3060000 		.4byte	0x6c3
 8014 18e8 00       		.byte	0
 8015 18e9 1F       		.uleb128 0x1f
 8016 18ea 707200   		.ascii	"pr\000"
 8017 18ed 16       		.byte	0x16
 8018 18ee 0101     		.2byte	0x101
 8019 18f0 C3060000 		.4byte	0x6c3
 8020 18f4 04       		.byte	0x4
 8021 18f5 20       		.uleb128 0x20
 8022 18f6 930F0000 		.4byte	.LASF389
 8023 18fa 16       		.byte	0x16
 8024 18fb 0201     		.2byte	0x102
 8025 18fd C3060000 		.4byte	0x6c3
 8026 1901 08       		.byte	0x8
 8027 1902 20       		.uleb128 0x20
 8028 1903 4F050000 		.4byte	.LASF390
 8029 1907 16       		.byte	0x16
 8030 1908 0301     		.2byte	0x103
 8031 190a C3060000 		.4byte	0x6c3
 8032 190e 0C       		.byte	0xc
 8033 190f 1F       		.uleb128 0x1f
 8034 1910 696E6100 		.ascii	"ina\000"
 8035 1914 16       		.byte	0x16
 8036 1915 0401     		.2byte	0x104
 8037 1917 C3060000 		.4byte	0x6c3
 8038 191b 10       		.byte	0x10
 8039 191c 00       		.byte	0
 8040 191d 06       		.uleb128 0x6
 8041 191e 20       		.byte	0x20
ARM GAS  C:\Users\tmj32\AppData\Local\Temp\cc94ZBZn.s 			page 170


 8042 191f 16       		.byte	0x16
 8043 1920 F9       		.byte	0xf9
 8044 1921 55190000 		.4byte	0x1955
 8045 1925 08       		.uleb128 0x8
 8046 1926 626700   		.ascii	"bg\000"
 8047 1929 16       		.byte	0x16
 8048 192a FB       		.byte	0xfb
 8049 192b C3060000 		.4byte	0x6c3
 8050 192f 00       		.byte	0
 8051 1930 07       		.uleb128 0x7
 8052 1931 B3050000 		.4byte	.LASF406
 8053 1935 16       		.byte	0x16
 8054 1936 FC       		.byte	0xfc
 8055 1937 C3060000 		.4byte	0x6c3
 8056 193b 04       		.byte	0x4
 8057 193c 08       		.uleb128 0x8
 8058 193d 736200   		.ascii	"sb\000"
 8059 1940 16       		.byte	0x16
 8060 1941 FD       		.byte	0xfd
 8061 1942 C3060000 		.4byte	0x6c3
 8062 1946 08       		.byte	0x8
 8063 1947 1F       		.uleb128 0x1f
 8064 1948 62746E00 		.ascii	"btn\000"
 8065 194c 16       		.byte	0x16
 8066 194d 0501     		.2byte	0x105
 8067 194f D4180000 		.4byte	0x18d4
 8068 1953 0C       		.byte	0xc
 8069 1954 00       		.byte	0
 8070 1955 21       		.uleb128 0x21
 8071 1956 0C       		.byte	0xc
 8072 1957 16       		.byte	0x16
 8073 1958 0A01     		.2byte	0x10a
 8074 195a 84190000 		.4byte	0x1984
 8075 195e 1F       		.uleb128 0x1f
 8076 195f 626700   		.ascii	"bg\000"
 8077 1962 16       		.byte	0x16
 8078 1963 0C01     		.2byte	0x10c
 8079 1965 C3060000 		.4byte	0x6c3
 8080 1969 00       		.byte	0
 8081 196a 1F       		.uleb128 0x1f
 8082 196b 73656C00 		.ascii	"sel\000"
 8083 196f 16       		.byte	0x16
 8084 1970 0D01     		.2byte	0x10d
 8085 1972 C3060000 		.4byte	0x6c3
 8086 1976 04       		.byte	0x4
 8087 1977 1F       		.uleb128 0x1f
 8088 1978 736200   		.ascii	"sb\000"
 8089 197b 16       		.byte	0x16
 8090 197c 0E01     		.2byte	0x10e
 8091 197e C3060000 		.4byte	0x6c3
 8092 1982 08       		.byte	0x8
 8093 1983 00       		.byte	0
 8094 1984 21       		.uleb128 0x21
 8095 1985 08       		.byte	0x8
 8096 1986 16       		.byte	0x16
 8097 1987 1301     		.2byte	0x113
 8098 1989 A7190000 		.4byte	0x19a7
ARM GAS  C:\Users\tmj32\AppData\Local\Temp\cc94ZBZn.s 			page 171


 8099 198d 1F       		.uleb128 0x1f
 8100 198e 626700   		.ascii	"bg\000"
 8101 1991 16       		.byte	0x16
 8102 1992 1501     		.2byte	0x115
 8103 1994 C3060000 		.4byte	0x6c3
 8104 1998 00       		.byte	0
 8105 1999 1F       		.uleb128 0x1f
 8106 199a 73656C00 		.ascii	"sel\000"
 8107 199e 16       		.byte	0x16
 8108 199f 1601     		.2byte	0x116
 8109 19a1 C3060000 		.4byte	0x6c3
 8110 19a5 04       		.byte	0x4
 8111 19a6 00       		.byte	0
 8112 19a7 21       		.uleb128 0x21
 8113 19a8 14       		.byte	0x14
 8114 19a9 16       		.byte	0x16
 8115 19aa 1F01     		.2byte	0x11f
 8116 19ac F0190000 		.4byte	0x19f0
 8117 19b0 1F       		.uleb128 0x1f
 8118 19b1 626700   		.ascii	"bg\000"
 8119 19b4 16       		.byte	0x16
 8120 19b5 2101     		.2byte	0x121
 8121 19b7 C3060000 		.4byte	0x6c3
 8122 19bb 00       		.byte	0
 8123 19bc 1F       		.uleb128 0x1f
 8124 19bd 72656C00 		.ascii	"rel\000"
 8125 19c1 16       		.byte	0x16
 8126 19c2 2201     		.2byte	0x122
 8127 19c4 C3060000 		.4byte	0x6c3
 8128 19c8 04       		.byte	0x4
 8129 19c9 1F       		.uleb128 0x1f
 8130 19ca 707200   		.ascii	"pr\000"
 8131 19cd 16       		.byte	0x16
 8132 19ce 2301     		.2byte	0x123
 8133 19d0 C3060000 		.4byte	0x6c3
 8134 19d4 08       		.byte	0x8
 8135 19d5 20       		.uleb128 0x20
 8136 19d6 930F0000 		.4byte	.LASF389
 8137 19da 16       		.byte	0x16
 8138 19db 2401     		.2byte	0x124
 8139 19dd C3060000 		.4byte	0x6c3
 8140 19e1 0C       		.byte	0xc
 8141 19e2 20       		.uleb128 0x20
 8142 19e3 4F050000 		.4byte	.LASF390
 8143 19e7 16       		.byte	0x16
 8144 19e8 2501     		.2byte	0x125
 8145 19ea C3060000 		.4byte	0x6c3
 8146 19ee 10       		.byte	0x10
 8147 19ef 00       		.byte	0
 8148 19f0 21       		.uleb128 0x21
 8149 19f1 1C       		.byte	0x1c
 8150 19f2 16       		.byte	0x16
 8151 19f3 1B01     		.2byte	0x11b
 8152 19f5 201A0000 		.4byte	0x1a20
 8153 19f9 1F       		.uleb128 0x1f
 8154 19fa 626700   		.ascii	"bg\000"
 8155 19fd 16       		.byte	0x16
ARM GAS  C:\Users\tmj32\AppData\Local\Temp\cc94ZBZn.s 			page 172


 8156 19fe 1D01     		.2byte	0x11d
 8157 1a00 C3060000 		.4byte	0x6c3
 8158 1a04 00       		.byte	0
 8159 1a05 20       		.uleb128 0x20
 8160 1a06 510E0000 		.4byte	.LASF344
 8161 1a0a 16       		.byte	0x16
 8162 1a0b 1E01     		.2byte	0x11e
 8163 1a0d C3060000 		.4byte	0x6c3
 8164 1a11 04       		.byte	0x4
 8165 1a12 1F       		.uleb128 0x1f
 8166 1a13 62746E00 		.ascii	"btn\000"
 8167 1a17 16       		.byte	0x16
 8168 1a18 2601     		.2byte	0x126
 8169 1a1a A7190000 		.4byte	0x19a7
 8170 1a1e 08       		.byte	0x8
 8171 1a1f 00       		.byte	0
 8172 1a20 21       		.uleb128 0x21
 8173 1a21 0C       		.byte	0xc
 8174 1a22 16       		.byte	0x16
 8175 1a23 2B01     		.2byte	0x12b
 8176 1a25 4F1A0000 		.4byte	0x1a4f
 8177 1a29 1F       		.uleb128 0x1f
 8178 1a2a 626700   		.ascii	"bg\000"
 8179 1a2d 16       		.byte	0x16
 8180 1a2e 2D01     		.2byte	0x12d
 8181 1a30 C3060000 		.4byte	0x6c3
 8182 1a34 00       		.byte	0
 8183 1a35 20       		.uleb128 0x20
 8184 1a36 B3050000 		.4byte	.LASF406
 8185 1a3a 16       		.byte	0x16
 8186 1a3b 2E01     		.2byte	0x12e
 8187 1a3d C3060000 		.4byte	0x6c3
 8188 1a41 04       		.byte	0x4
 8189 1a42 1F       		.uleb128 0x1f
 8190 1a43 736200   		.ascii	"sb\000"
 8191 1a46 16       		.byte	0x16
 8192 1a47 2F01     		.2byte	0x12f
 8193 1a49 C3060000 		.4byte	0x6c3
 8194 1a4d 08       		.byte	0x8
 8195 1a4e 00       		.byte	0
 8196 1a4f 21       		.uleb128 0x21
 8197 1a50 08       		.byte	0x8
 8198 1a51 16       		.byte	0x16
 8199 1a52 3401     		.2byte	0x134
 8200 1a54 721A0000 		.4byte	0x1a72
 8201 1a58 1F       		.uleb128 0x1f
 8202 1a59 626700   		.ascii	"bg\000"
 8203 1a5c 16       		.byte	0x16
 8204 1a5d 3601     		.2byte	0x136
 8205 1a5f C3060000 		.4byte	0x6c3
 8206 1a63 00       		.byte	0
 8207 1a64 20       		.uleb128 0x20
 8208 1a65 72000000 		.4byte	.LASF408
 8209 1a69 16       		.byte	0x16
 8210 1a6a 3701     		.2byte	0x137
 8211 1a6c C3060000 		.4byte	0x6c3
 8212 1a70 04       		.byte	0x4
ARM GAS  C:\Users\tmj32\AppData\Local\Temp\cc94ZBZn.s 			page 173


 8213 1a71 00       		.byte	0
 8214 1a72 21       		.uleb128 0x21
 8215 1a73 08       		.byte	0x8
 8216 1a74 16       		.byte	0x16
 8217 1a75 4201     		.2byte	0x142
 8218 1a77 951A0000 		.4byte	0x1a95
 8219 1a7b 1F       		.uleb128 0x1f
 8220 1a7c 72656C00 		.ascii	"rel\000"
 8221 1a80 16       		.byte	0x16
 8222 1a81 4401     		.2byte	0x144
 8223 1a83 C3060000 		.4byte	0x6c3
 8224 1a87 00       		.byte	0
 8225 1a88 1F       		.uleb128 0x1f
 8226 1a89 707200   		.ascii	"pr\000"
 8227 1a8c 16       		.byte	0x16
 8228 1a8d 4501     		.2byte	0x145
 8229 1a8f C3060000 		.4byte	0x6c3
 8230 1a93 04       		.byte	0x4
 8231 1a94 00       		.byte	0
 8232 1a95 21       		.uleb128 0x21
 8233 1a96 18       		.byte	0x18
 8234 1a97 16       		.byte	0x16
 8235 1a98 3C01     		.2byte	0x13c
 8236 1a9a DE1A0000 		.4byte	0x1ade
 8237 1a9e 1F       		.uleb128 0x1f
 8238 1a9f 626700   		.ascii	"bg\000"
 8239 1aa2 16       		.byte	0x16
 8240 1aa3 3E01     		.2byte	0x13e
 8241 1aa5 C3060000 		.4byte	0x6c3
 8242 1aa9 00       		.byte	0
 8243 1aaa 1F       		.uleb128 0x1f
 8244 1aab 736200   		.ascii	"sb\000"
 8245 1aae 16       		.byte	0x16
 8246 1aaf 3F01     		.2byte	0x13f
 8247 1ab1 C3060000 		.4byte	0x6c3
 8248 1ab5 04       		.byte	0x4
 8249 1ab6 20       		.uleb128 0x20
 8250 1ab7 69060000 		.4byte	.LASF399
 8251 1abb 16       		.byte	0x16
 8252 1abc 4001     		.2byte	0x140
 8253 1abe C3060000 		.4byte	0x6c3
 8254 1ac2 08       		.byte	0x8
 8255 1ac3 20       		.uleb128 0x20
 8256 1ac4 6E190000 		.4byte	.LASF345
 8257 1ac8 16       		.byte	0x16
 8258 1ac9 4101     		.2byte	0x141
 8259 1acb C3060000 		.4byte	0x6c3
 8260 1acf 0C       		.byte	0xc
 8261 1ad0 1F       		.uleb128 0x1f
 8262 1ad1 62746E00 		.ascii	"btn\000"
 8263 1ad5 16       		.byte	0x16
 8264 1ad6 4601     		.2byte	0x146
 8265 1ad8 721A0000 		.4byte	0x1a72
 8266 1adc 10       		.byte	0x10
 8267 1add 00       		.byte	0
 8268 1ade 22       		.uleb128 0x22
 8269 1adf A801     		.2byte	0x1a8
ARM GAS  C:\Users\tmj32\AppData\Local\Temp\cc94ZBZn.s 			page 174


 8270 1ae1 16       		.byte	0x16
 8271 1ae2 29       		.byte	0x29
 8272 1ae3 801C0000 		.4byte	0x1c80
 8273 1ae7 08       		.uleb128 0x8
 8274 1ae8 73637200 		.ascii	"scr\000"
 8275 1aec 16       		.byte	0x16
 8276 1aed 2B       		.byte	0x2b
 8277 1aee C3060000 		.4byte	0x6c3
 8278 1af2 00       		.byte	0
 8279 1af3 08       		.uleb128 0x8
 8280 1af4 626700   		.ascii	"bg\000"
 8281 1af7 16       		.byte	0x16
 8282 1af8 2C       		.byte	0x2c
 8283 1af9 C3060000 		.4byte	0x6c3
 8284 1afd 04       		.byte	0x4
 8285 1afe 07       		.uleb128 0x7
 8286 1aff 67150000 		.4byte	.LASF409
 8287 1b03 16       		.byte	0x16
 8288 1b04 2D       		.byte	0x2d
 8289 1b05 C3060000 		.4byte	0x6c3
 8290 1b09 08       		.byte	0x8
 8291 1b0a 07       		.uleb128 0x7
 8292 1b0b B7020000 		.4byte	.LASF410
 8293 1b0f 16       		.byte	0x16
 8294 1b10 30       		.byte	0x30
 8295 1b11 C3060000 		.4byte	0x6c3
 8296 1b15 0C       		.byte	0xc
 8297 1b16 08       		.uleb128 0x8
 8298 1b17 62746E00 		.ascii	"btn\000"
 8299 1b1b 16       		.byte	0x16
 8300 1b1c 3B       		.byte	0x3b
 8301 1b1d F8140000 		.4byte	0x14f8
 8302 1b21 10       		.byte	0x10
 8303 1b22 07       		.uleb128 0x7
 8304 1b23 1C150000 		.4byte	.LASF411
 8305 1b27 16       		.byte	0x16
 8306 1b28 46       		.byte	0x46
 8307 1b29 3C150000 		.4byte	0x153c
 8308 1b2d 24       		.byte	0x24
 8309 1b2e 07       		.uleb128 0x7
 8310 1b2f AF1A0000 		.4byte	.LASF412
 8311 1b33 16       		.byte	0x16
 8312 1b34 4F       		.byte	0x4f
 8313 1b35 80150000 		.4byte	0x1580
 8314 1b39 38       		.byte	0x38
 8315 1b3a 08       		.uleb128 0x8
 8316 1b3b 696D6700 		.ascii	"img\000"
 8317 1b3f 16       		.byte	0x16
 8318 1b40 57       		.byte	0x57
 8319 1b41 AD150000 		.4byte	0x15ad
 8320 1b45 44       		.byte	0x44
 8321 1b46 07       		.uleb128 0x7
 8322 1b47 0C0C0000 		.4byte	.LASF95
 8323 1b4b 16       		.byte	0x16
 8324 1b4c 5E       		.byte	0x5e
 8325 1b4d CE150000 		.4byte	0x15ce
 8326 1b51 4C       		.byte	0x4c
ARM GAS  C:\Users\tmj32\AppData\Local\Temp\cc94ZBZn.s 			page 175


 8327 1b52 08       		.uleb128 0x8
 8328 1b53 6C656400 		.ascii	"led\000"
 8329 1b57 16       		.byte	0x16
 8330 1b58 62       		.byte	0x62
 8331 1b59 C3060000 		.4byte	0x6c3
 8332 1b5d 50       		.byte	0x50
 8333 1b5e 08       		.uleb128 0x8
 8334 1b5f 62617200 		.ascii	"bar\000"
 8335 1b63 16       		.byte	0x16
 8336 1b64 6A       		.byte	0x6a
 8337 1b65 E3150000 		.4byte	0x15e3
 8338 1b69 54       		.byte	0x54
 8339 1b6a 07       		.uleb128 0x7
 8340 1b6b 2C0C0000 		.4byte	.LASF413
 8341 1b6f 16       		.byte	0x16
 8342 1b70 73       		.byte	0x73
 8343 1b71 03160000 		.4byte	0x1603
 8344 1b75 5C       		.byte	0x5c
 8345 1b76 07       		.uleb128 0x7
 8346 1b77 62010000 		.4byte	.LASF414
 8347 1b7b 16       		.byte	0x16
 8348 1b7c 77       		.byte	0x77
 8349 1b7d C3060000 		.4byte	0x6c3
 8350 1b81 68       		.byte	0x68
 8351 1b82 07       		.uleb128 0x7
 8352 1b83 A5100000 		.4byte	.LASF415
 8353 1b87 16       		.byte	0x16
 8354 1b88 7B       		.byte	0x7b
 8355 1b89 C3060000 		.4byte	0x6c3
 8356 1b8d 6C       		.byte	0x6c
 8357 1b8e 08       		.uleb128 0x8
 8358 1b8f 61726300 		.ascii	"arc\000"
 8359 1b93 16       		.byte	0x16
 8360 1b94 7F       		.byte	0x7f
 8361 1b95 C3060000 		.4byte	0x6c3
 8362 1b99 70       		.byte	0x70
 8363 1b9a 07       		.uleb128 0x7
 8364 1b9b 071B0000 		.4byte	.LASF416
 8365 1b9f 16       		.byte	0x16
 8366 1ba0 83       		.byte	0x83
 8367 1ba1 C3060000 		.4byte	0x6c3
 8368 1ba5 74       		.byte	0x74
 8369 1ba6 08       		.uleb128 0x8
 8370 1ba7 737700   		.ascii	"sw\000"
 8371 1baa 16       		.byte	0x16
 8372 1bab 8D       		.byte	0x8d
 8373 1bac 2F160000 		.4byte	0x162f
 8374 1bb0 78       		.byte	0x78
 8375 1bb1 07       		.uleb128 0x7
 8376 1bb2 C9040000 		.4byte	.LASF417
 8377 1bb6 16       		.byte	0x16
 8378 1bb7 91       		.byte	0x91
 8379 1bb8 C3060000 		.4byte	0x6c3
 8380 1bbc 88       		.byte	0x88
 8381 1bbd 07       		.uleb128 0x7
 8382 1bbe B8090000 		.4byte	.LASF418
 8383 1bc2 16       		.byte	0x16
ARM GAS  C:\Users\tmj32\AppData\Local\Temp\cc94ZBZn.s 			page 176


 8384 1bc3 9F       		.byte	0x9f
 8385 1bc4 67160000 		.4byte	0x1667
 8386 1bc8 8C       		.byte	0x8c
 8387 1bc9 08       		.uleb128 0x8
 8388 1bca 636200   		.ascii	"cb\000"
 8389 1bcd 16       		.byte	0x16
 8390 1bce AE       		.byte	0xae
 8391 1bcf 13170000 		.4byte	0x1713
 8392 1bd3 AC       		.byte	0xac
 8393 1bd4 07       		.uleb128 0x7
 8394 1bd5 DC040000 		.4byte	.LASF419
 8395 1bd9 16       		.byte	0x16
 8396 1bda BD       		.byte	0xbd
 8397 1bdb 77170000 		.4byte	0x1777
 8398 1bdf C4       		.byte	0xc4
 8399 1be0 08       		.uleb128 0x8
 8400 1be1 6B6200   		.ascii	"kb\000"
 8401 1be4 16       		.byte	0x16
 8402 1be5 CC       		.byte	0xcc
 8403 1be6 DB170000 		.4byte	0x17db
 8404 1bea DC       		.byte	0xdc
 8405 1beb 07       		.uleb128 0x7
 8406 1bec 640F0000 		.4byte	.LASF420
 8407 1bf0 16       		.byte	0x16
 8408 1bf1 D9       		.byte	0xd9
 8409 1bf2 26180000 		.4byte	0x1826
 8410 1bf6 F4       		.byte	0xf4
 8411 1bf7 18       		.uleb128 0x18
 8412 1bf8 8F100000 		.4byte	.LASF421
 8413 1bfc 16       		.byte	0x16
 8414 1bfd E2       		.byte	0xe2
 8415 1bfe 46180000 		.4byte	0x1846
 8416 1c02 0401     		.2byte	0x104
 8417 1c04 23       		.uleb128 0x23
 8418 1c05 746100   		.ascii	"ta\000"
 8419 1c08 16       		.byte	0x16
 8420 1c09 EC       		.byte	0xec
 8421 1c0a 71180000 		.4byte	0x1871
 8422 1c0e 1001     		.2byte	0x110
 8423 1c10 18       		.uleb128 0x18
 8424 1c11 D6170000 		.4byte	.LASF422
 8425 1c15 16       		.byte	0x16
 8426 1c16 F5       		.byte	0xf5
 8427 1c17 A9180000 		.4byte	0x18a9
 8428 1c1b 2001     		.2byte	0x120
 8429 1c1d 24       		.uleb128 0x24
 8430 1c1e 51100000 		.4byte	.LASF423
 8431 1c22 16       		.byte	0x16
 8432 1c23 0601     		.2byte	0x106
 8433 1c25 1D190000 		.4byte	0x191d
 8434 1c29 2C01     		.2byte	0x12c
 8435 1c2b 24       		.uleb128 0x24
 8436 1c2c DA080000 		.4byte	.LASF424
 8437 1c30 16       		.byte	0x16
 8438 1c31 0F01     		.2byte	0x10f
 8439 1c33 55190000 		.4byte	0x1955
 8440 1c37 4C01     		.2byte	0x14c
ARM GAS  C:\Users\tmj32\AppData\Local\Temp\cc94ZBZn.s 			page 177


 8441 1c39 24       		.uleb128 0x24
 8442 1c3a CC1B0000 		.4byte	.LASF425
 8443 1c3e 16       		.byte	0x16
 8444 1c3f 1701     		.2byte	0x117
 8445 1c41 84190000 		.4byte	0x1984
 8446 1c45 5801     		.2byte	0x158
 8447 1c47 24       		.uleb128 0x24
 8448 1c48 8B0E0000 		.4byte	.LASF426
 8449 1c4c 16       		.byte	0x16
 8450 1c4d 2701     		.2byte	0x127
 8451 1c4f F0190000 		.4byte	0x19f0
 8452 1c53 6001     		.2byte	0x160
 8453 1c55 24       		.uleb128 0x24
 8454 1c56 EC030000 		.4byte	.LASF427
 8455 1c5a 16       		.byte	0x16
 8456 1c5b 3001     		.2byte	0x130
 8457 1c5d 201A0000 		.4byte	0x1a20
 8458 1c61 7C01     		.2byte	0x17c
 8459 1c63 24       		.uleb128 0x24
 8460 1c64 85060000 		.4byte	.LASF428
 8461 1c68 16       		.byte	0x16
 8462 1c69 3801     		.2byte	0x138
 8463 1c6b 4F1A0000 		.4byte	0x1a4f
 8464 1c6f 8801     		.2byte	0x188
 8465 1c71 25       		.uleb128 0x25
 8466 1c72 77696E00 		.ascii	"win\000"
 8467 1c76 16       		.byte	0x16
 8468 1c77 4701     		.2byte	0x147
 8469 1c79 951A0000 		.4byte	0x1a95
 8470 1c7d 9001     		.2byte	0x190
 8471 1c7f 00       		.byte	0
 8472 1c80 22       		.uleb128 0x22
 8473 1c81 A801     		.2byte	0x1a8
 8474 1c83 16       		.byte	0x16
 8475 1c84 27       		.byte	0x27
 8476 1c85 971C0000 		.4byte	0x1c97
 8477 1c89 20       		.uleb128 0x20
 8478 1c8a 4D110000 		.4byte	.LASF429
 8479 1c8e 16       		.byte	0x16
 8480 1c8f 4901     		.2byte	0x149
 8481 1c91 DE1A0000 		.4byte	0x1ade
 8482 1c95 00       		.byte	0
 8483 1c96 00       		.byte	0
 8484 1c97 12       		.uleb128 0x12
 8485 1c98 041A0000 		.4byte	.LASF430
 8486 1c9c 16       		.byte	0x16
 8487 1c9d 5401     		.2byte	0x154
 8488 1c9f 801C0000 		.4byte	0x1c80
 8489 1ca3 26       		.uleb128 0x26
 8490 1ca4 9F000000 		.4byte	.LASF431
 8491 1ca8 01       		.byte	0x1
 8492 1ca9 7C       		.byte	0x7c
 8493 1caa B8000000 		.4byte	0xb8
 8494 1cae 00000000 		.4byte	.LFB0
 8495 1cb2 18000000 		.4byte	.LFE0-.LFB0
 8496 1cb6 01       		.uleb128 0x1
 8497 1cb7 9C       		.byte	0x9c
ARM GAS  C:\Users\tmj32\AppData\Local\Temp\cc94ZBZn.s 			page 178


 8498 1cb8 CB1C0000 		.4byte	0x1ccb
 8499 1cbc 27       		.uleb128 0x27
 8500 1cbd 93000000 		.4byte	.LASF433
 8501 1cc1 01       		.byte	0x1
 8502 1cc2 7C       		.byte	0x7c
 8503 1cc3 FC050000 		.4byte	0x5fc
 8504 1cc7 02       		.uleb128 0x2
 8505 1cc8 91       		.byte	0x91
 8506 1cc9 74       		.sleb128 -12
 8507 1cca 00       		.byte	0
 8508 1ccb 26       		.uleb128 0x26
 8509 1ccc 6B180000 		.4byte	.LASF432
 8510 1cd0 02       		.byte	0x2
 8511 1cd1 56       		.byte	0x56
 8512 1cd2 EF000000 		.4byte	0xef
 8513 1cd6 00000000 		.4byte	.LFB11
 8514 1cda 2E000000 		.4byte	.LFE11-.LFB11
 8515 1cde 01       		.uleb128 0x1
 8516 1cdf 9C       		.byte	0x9c
 8517 1ce0 F31C0000 		.4byte	0x1cf3
 8518 1ce4 27       		.uleb128 0x27
 8519 1ce5 3C040000 		.4byte	.LASF434
 8520 1ce9 02       		.byte	0x2
 8521 1cea 56       		.byte	0x56
 8522 1ceb FB080000 		.4byte	0x8fb
 8523 1cef 02       		.uleb128 0x2
 8524 1cf0 91       		.byte	0x91
 8525 1cf1 74       		.sleb128 -12
 8526 1cf2 00       		.byte	0
 8527 1cf3 26       		.uleb128 0x26
 8528 1cf4 DC130000 		.4byte	.LASF435
 8529 1cf8 02       		.byte	0x2
 8530 1cf9 60       		.byte	0x60
 8531 1cfa EF000000 		.4byte	0xef
 8532 1cfe 00000000 		.4byte	.LFB12
 8533 1d02 2E000000 		.4byte	.LFE12-.LFB12
 8534 1d06 01       		.uleb128 0x1
 8535 1d07 9C       		.byte	0x9c
 8536 1d08 1B1D0000 		.4byte	0x1d1b
 8537 1d0c 27       		.uleb128 0x27
 8538 1d0d 3C040000 		.4byte	.LASF434
 8539 1d11 02       		.byte	0x2
 8540 1d12 60       		.byte	0x60
 8541 1d13 FB080000 		.4byte	0x8fb
 8542 1d17 02       		.uleb128 0x2
 8543 1d18 91       		.byte	0x91
 8544 1d19 74       		.sleb128 -12
 8545 1d1a 00       		.byte	0
 8546 1d1b 28       		.uleb128 0x28
 8547 1d1c F6080000 		.4byte	.LASF436
 8548 1d20 03       		.byte	0x3
 8549 1d21 79       		.byte	0x79
 8550 1d22 00000000 		.4byte	.LFB31
 8551 1d26 2A000000 		.4byte	.LFE31-.LFB31
 8552 1d2a 01       		.uleb128 0x1
 8553 1d2b 9C       		.byte	0x9c
 8554 1d2c 5B1D0000 		.4byte	0x1d5b
ARM GAS  C:\Users\tmj32\AppData\Local\Temp\cc94ZBZn.s 			page 179


 8555 1d30 27       		.uleb128 0x27
 8556 1d31 B7020000 		.4byte	.LASF410
 8557 1d35 03       		.byte	0x3
 8558 1d36 79       		.byte	0x79
 8559 1d37 8D120000 		.4byte	0x128d
 8560 1d3b 02       		.uleb128 0x2
 8561 1d3c 91       		.byte	0x91
 8562 1d3d 74       		.sleb128 -12
 8563 1d3e 29       		.uleb128 0x29
 8564 1d3f 686F7200 		.ascii	"hor\000"
 8565 1d43 03       		.byte	0x3
 8566 1d44 79       		.byte	0x79
 8567 1d45 CD110000 		.4byte	0x11cd
 8568 1d49 02       		.uleb128 0x2
 8569 1d4a 91       		.byte	0x91
 8570 1d4b 73       		.sleb128 -13
 8571 1d4c 29       		.uleb128 0x29
 8572 1d4d 76657200 		.ascii	"ver\000"
 8573 1d51 03       		.byte	0x3
 8574 1d52 79       		.byte	0x79
 8575 1d53 CD110000 		.4byte	0x11cd
 8576 1d57 02       		.uleb128 0x2
 8577 1d58 91       		.byte	0x91
 8578 1d59 72       		.sleb128 -14
 8579 1d5a 00       		.byte	0
 8580 1d5b 28       		.uleb128 0x28
 8581 1d5c E70B0000 		.4byte	.LASF437
 8582 1d60 03       		.byte	0x3
 8583 1d61 8F       		.byte	0x8f
 8584 1d62 00000000 		.4byte	.LFB33
 8585 1d66 1E000000 		.4byte	.LFE33-.LFB33
 8586 1d6a 01       		.uleb128 0x1
 8587 1d6b 9C       		.byte	0x9c
 8588 1d6c 9B1D0000 		.4byte	0x1d9b
 8589 1d70 27       		.uleb128 0x27
 8590 1d71 B7020000 		.4byte	.LASF410
 8591 1d75 03       		.byte	0x3
 8592 1d76 8F       		.byte	0x8f
 8593 1d77 8D120000 		.4byte	0x128d
 8594 1d7b 02       		.uleb128 0x2
 8595 1d7c 91       		.byte	0x91
 8596 1d7d 74       		.sleb128 -12
 8597 1d7e 27       		.uleb128 0x27
 8598 1d7f 5C020000 		.4byte	.LASF74
 8599 1d83 03       		.byte	0x3
 8600 1d84 8F       		.byte	0x8f
 8601 1d85 EB110000 		.4byte	0x11eb
 8602 1d89 02       		.uleb128 0x2
 8603 1d8a 91       		.byte	0x91
 8604 1d8b 73       		.sleb128 -13
 8605 1d8c 27       		.uleb128 0x27
 8606 1d8d 4D110000 		.4byte	.LASF429
 8607 1d91 03       		.byte	0x3
 8608 1d92 8F       		.byte	0x8f
 8609 1d93 3D110000 		.4byte	0x113d
 8610 1d97 02       		.uleb128 0x2
 8611 1d98 91       		.byte	0x91
ARM GAS  C:\Users\tmj32\AppData\Local\Temp\cc94ZBZn.s 			page 180


 8612 1d99 6C       		.sleb128 -20
 8613 1d9a 00       		.byte	0
 8614 1d9b 2A       		.uleb128 0x2a
 8615 1d9c 22080000 		.4byte	.LASF443
 8616 1da0 04       		.byte	0x4
 8617 1da1 47       		.byte	0x47
 8618 1da2 8D120000 		.4byte	0x128d
 8619 1da6 00000000 		.4byte	.LFB68
 8620 1daa EC030000 		.4byte	.LFE68-.LFB68
 8621 1dae 01       		.uleb128 0x1
 8622 1daf 9C       		.byte	0x9c
 8623 1db0 601E0000 		.4byte	0x1e60
 8624 1db4 29       		.uleb128 0x29
 8625 1db5 70617200 		.ascii	"par\000"
 8626 1db9 04       		.byte	0x4
 8627 1dba 47       		.byte	0x47
 8628 1dbb 8D120000 		.4byte	0x128d
 8629 1dbf 02       		.uleb128 0x2
 8630 1dc0 91       		.byte	0x91
 8631 1dc1 4C       		.sleb128 -52
 8632 1dc2 27       		.uleb128 0x27
 8633 1dc3 37040000 		.4byte	.LASF438
 8634 1dc7 04       		.byte	0x4
 8635 1dc8 47       		.byte	0x47
 8636 1dc9 601E0000 		.4byte	0x1e60
 8637 1dcd 02       		.uleb128 0x2
 8638 1dce 91       		.byte	0x91
 8639 1dcf 48       		.sleb128 -56
 8640 1dd0 2B       		.uleb128 0x2b
 8641 1dd1 371B0000 		.4byte	.LASF439
 8642 1dd5 04       		.byte	0x4
 8643 1dd6 4C       		.byte	0x4c
 8644 1dd7 8D120000 		.4byte	0x128d
 8645 1ddb 02       		.uleb128 0x2
 8646 1ddc 91       		.byte	0x91
 8647 1ddd 64       		.sleb128 -28
 8648 1dde 2C       		.uleb128 0x2c
 8649 1ddf 65787400 		.ascii	"ext\000"
 8650 1de3 04       		.byte	0x4
 8651 1de4 52       		.byte	0x52
 8652 1de5 6B1E0000 		.4byte	0x1e6b
 8653 1de9 02       		.uleb128 0x2
 8654 1dea 91       		.byte	0x91
 8655 1deb 60       		.sleb128 -32
 8656 1dec 2D       		.uleb128 0x2d
 8657 1ded BE000000 		.4byte	.LBB2
 8658 1df1 1E020000 		.4byte	.LBE2-.LBB2
 8659 1df5 1F1E0000 		.4byte	0x1e1f
 8660 1df9 2C       		.uleb128 0x2c
 8661 1dfa 7700     		.ascii	"w\000"
 8662 1dfc 04       		.byte	0x4
 8663 1dfd 75       		.byte	0x75
 8664 1dfe EF000000 		.4byte	0xef
 8665 1e02 02       		.uleb128 0x2
 8666 1e03 91       		.byte	0x91
 8667 1e04 6E       		.sleb128 -18
 8668 1e05 2C       		.uleb128 0x2c
ARM GAS  C:\Users\tmj32\AppData\Local\Temp\cc94ZBZn.s 			page 181


 8669 1e06 6800     		.ascii	"h\000"
 8670 1e08 04       		.byte	0x4
 8671 1e09 76       		.byte	0x76
 8672 1e0a EF000000 		.4byte	0xef
 8673 1e0e 02       		.uleb128 0x2
 8674 1e0f 91       		.byte	0x91
 8675 1e10 6C       		.sleb128 -20
 8676 1e11 2C       		.uleb128 0x2c
 8677 1e12 746800   		.ascii	"th\000"
 8678 1e15 04       		.byte	0x4
 8679 1e16 94       		.byte	0x94
 8680 1e17 711E0000 		.4byte	0x1e71
 8681 1e1b 02       		.uleb128 0x2
 8682 1e1c 91       		.byte	0x91
 8683 1e1d 5C       		.sleb128 -36
 8684 1e1e 00       		.byte	0
 8685 1e1f 2E       		.uleb128 0x2e
 8686 1e20 DC020000 		.4byte	.LBB3
 8687 1e24 00010000 		.4byte	.LBE3-.LBB3
 8688 1e28 2B       		.uleb128 0x2b
 8689 1e29 01030000 		.4byte	.LASF440
 8690 1e2d 04       		.byte	0x4
 8691 1e2e A5       		.byte	0xa5
 8692 1e2f 6B1E0000 		.4byte	0x1e6b
 8693 1e33 02       		.uleb128 0x2
 8694 1e34 91       		.byte	0x91
 8695 1e35 58       		.sleb128 -40
 8696 1e36 2C       		.uleb128 0x2c
 8697 1e37 6900     		.ascii	"i\000"
 8698 1e39 04       		.byte	0x4
 8699 1e3a B5       		.byte	0xb5
 8700 1e3b CE000000 		.4byte	0xce
 8701 1e3f 02       		.uleb128 0x2
 8702 1e40 91       		.byte	0x91
 8703 1e41 6A       		.sleb128 -22
 8704 1e42 2B       		.uleb128 0x2b
 8705 1e43 92050000 		.4byte	.LASF441
 8706 1e47 04       		.byte	0x4
 8707 1e48 B6       		.byte	0xb6
 8708 1e49 8D120000 		.4byte	0x128d
 8709 1e4d 02       		.uleb128 0x2
 8710 1e4e 91       		.byte	0x91
 8711 1e4f 54       		.sleb128 -44
 8712 1e50 2B       		.uleb128 0x2b
 8713 1e51 6E030000 		.4byte	.LASF442
 8714 1e55 04       		.byte	0x4
 8715 1e56 B7       		.byte	0xb7
 8716 1e57 8D120000 		.4byte	0x128d
 8717 1e5b 02       		.uleb128 0x2
 8718 1e5c 91       		.byte	0x91
 8719 1e5d 50       		.sleb128 -48
 8720 1e5e 00       		.byte	0
 8721 1e5f 00       		.byte	0
 8722 1e60 0D       		.uleb128 0xd
 8723 1e61 04       		.byte	0x4
 8724 1e62 661E0000 		.4byte	0x1e66
 8725 1e66 0E       		.uleb128 0xe
ARM GAS  C:\Users\tmj32\AppData\Local\Temp\cc94ZBZn.s 			page 182


 8726 1e67 48110000 		.4byte	0x1148
 8727 1e6b 0D       		.uleb128 0xd
 8728 1e6c 04       		.byte	0x4
 8729 1e6d B1130000 		.4byte	0x13b1
 8730 1e71 0D       		.uleb128 0xd
 8731 1e72 04       		.byte	0x4
 8732 1e73 971C0000 		.4byte	0x1c97
 8733 1e77 2F       		.uleb128 0x2f
 8734 1e78 AB0F0000 		.4byte	.LASF453
 8735 1e7c 04       		.byte	0x4
 8736 1e7d CD       		.byte	0xcd
 8737 1e7e 00000000 		.4byte	.LFB69
 8738 1e82 1E000000 		.4byte	.LFE69-.LFB69
 8739 1e86 01       		.uleb128 0x1
 8740 1e87 9C       		.byte	0x9c
 8741 1e88 A91E0000 		.4byte	0x1ea9
 8742 1e8c 27       		.uleb128 0x27
 8743 1e8d 8B0E0000 		.4byte	.LASF426
 8744 1e91 04       		.byte	0x4
 8745 1e92 CD       		.byte	0xcd
 8746 1e93 8D120000 		.4byte	0x128d
 8747 1e97 02       		.uleb128 0x2
 8748 1e98 91       		.byte	0x91
 8749 1e99 6C       		.sleb128 -20
 8750 1e9a 2B       		.uleb128 0x2b
 8751 1e9b B3050000 		.4byte	.LASF406
 8752 1e9f 04       		.byte	0x4
 8753 1ea0 D1       		.byte	0xd1
 8754 1ea1 8D120000 		.4byte	0x128d
 8755 1ea5 02       		.uleb128 0x2
 8756 1ea6 91       		.byte	0x91
 8757 1ea7 74       		.sleb128 -12
 8758 1ea8 00       		.byte	0
 8759 1ea9 2A       		.uleb128 0x2a
 8760 1eaa B20E0000 		.4byte	.LASF444
 8761 1eae 04       		.byte	0x4
 8762 1eaf DF       		.byte	0xdf
 8763 1eb0 8D120000 		.4byte	0x128d
 8764 1eb4 00000000 		.4byte	.LFB70
 8765 1eb8 70030000 		.4byte	.LFE70-.LFB70
 8766 1ebc 01       		.uleb128 0x1
 8767 1ebd 9C       		.byte	0x9c
 8768 1ebe 611F0000 		.4byte	0x1f61
 8769 1ec2 27       		.uleb128 0x27
 8770 1ec3 8B0E0000 		.4byte	.LASF426
 8771 1ec7 04       		.byte	0x4
 8772 1ec8 DF       		.byte	0xdf
 8773 1ec9 8D120000 		.4byte	0x128d
 8774 1ecd 02       		.uleb128 0x2
 8775 1ece 91       		.byte	0x91
 8776 1ecf 4C       		.sleb128 -52
 8777 1ed0 27       		.uleb128 0x27
 8778 1ed1 36070000 		.4byte	.LASF445
 8779 1ed5 04       		.byte	0x4
 8780 1ed6 DF       		.byte	0xdf
 8781 1ed7 B1020000 		.4byte	0x2b1
 8782 1edb 02       		.uleb128 0x2
ARM GAS  C:\Users\tmj32\AppData\Local\Temp\cc94ZBZn.s 			page 183


 8783 1edc 91       		.byte	0x91
 8784 1edd 48       		.sleb128 -56
 8785 1ede 2C       		.uleb128 0x2c
 8786 1edf 65787400 		.ascii	"ext\000"
 8787 1ee3 04       		.byte	0x4
 8788 1ee4 E4       		.byte	0xe4
 8789 1ee5 6B1E0000 		.4byte	0x1e6b
 8790 1ee9 02       		.uleb128 0x2
 8791 1eea 91       		.byte	0x91
 8792 1eeb 6C       		.sleb128 -20
 8793 1eec 2C       		.uleb128 0x2c
 8794 1eed 6800     		.ascii	"h\000"
 8795 1eef 04       		.byte	0x4
 8796 1ef0 E7       		.byte	0xe7
 8797 1ef1 8D120000 		.4byte	0x128d
 8798 1ef5 02       		.uleb128 0x2
 8799 1ef6 91       		.byte	0x91
 8800 1ef7 68       		.sleb128 -24
 8801 1ef8 2B       		.uleb128 0x2b
 8802 1ef9 1C0F0000 		.4byte	.LASF446
 8803 1efd 04       		.byte	0x4
 8804 1efe F3       		.byte	0xf3
 8805 1eff A4020000 		.4byte	0x2a4
 8806 1f03 02       		.uleb128 0x2
 8807 1f04 91       		.byte	0x91
 8808 1f05 64       		.sleb128 -28
 8809 1f06 30       		.uleb128 0x30
 8810 1f07 7A0C0000 		.4byte	.LASF447
 8811 1f0b 04       		.byte	0x4
 8812 1f0c 2201     		.2byte	0x122
 8813 1f0e 611F0000 		.4byte	0x1f61
 8814 1f12 02       		.uleb128 0x2
 8815 1f13 91       		.byte	0x91
 8816 1f14 60       		.sleb128 -32
 8817 1f15 30       		.uleb128 0x30
 8818 1f16 3B070000 		.4byte	.LASF448
 8819 1f1a 04       		.byte	0x4
 8820 1f1b 2901     		.2byte	0x129
 8821 1f1d 3D110000 		.4byte	0x113d
 8822 1f21 02       		.uleb128 0x2
 8823 1f22 91       		.byte	0x91
 8824 1f23 5C       		.sleb128 -36
 8825 1f24 30       		.uleb128 0x30
 8826 1f25 ED120000 		.4byte	.LASF449
 8827 1f29 04       		.byte	0x4
 8828 1f2a 2A01     		.2byte	0x12a
 8829 1f2c EF000000 		.4byte	0xef
 8830 1f30 02       		.uleb128 0x2
 8831 1f31 91       		.byte	0x91
 8832 1f32 5A       		.sleb128 -38
 8833 1f33 30       		.uleb128 0x30
 8834 1f34 F9000000 		.4byte	.LASF450
 8835 1f38 04       		.byte	0x4
 8836 1f39 2B01     		.2byte	0x12b
 8837 1f3b EF000000 		.4byte	0xef
 8838 1f3f 02       		.uleb128 0x2
 8839 1f40 91       		.byte	0x91
ARM GAS  C:\Users\tmj32\AppData\Local\Temp\cc94ZBZn.s 			page 184


 8840 1f41 58       		.sleb128 -40
 8841 1f42 30       		.uleb128 0x30
 8842 1f43 A8080000 		.4byte	.LASF451
 8843 1f47 04       		.byte	0x4
 8844 1f48 2B01     		.2byte	0x12b
 8845 1f4a EF000000 		.4byte	0xef
 8846 1f4e 02       		.uleb128 0x2
 8847 1f4f 91       		.byte	0x91
 8848 1f50 56       		.sleb128 -42
 8849 1f51 30       		.uleb128 0x30
 8850 1f52 A1020000 		.4byte	.LASF452
 8851 1f56 04       		.byte	0x4
 8852 1f57 2B01     		.2byte	0x12b
 8853 1f59 EF000000 		.4byte	0xef
 8854 1f5d 02       		.uleb128 0x2
 8855 1f5e 91       		.byte	0x91
 8856 1f5f 54       		.sleb128 -44
 8857 1f60 00       		.byte	0
 8858 1f61 0D       		.uleb128 0xd
 8859 1f62 04       		.byte	0x4
 8860 1f63 BC140000 		.4byte	0x14bc
 8861 1f67 31       		.uleb128 0x31
 8862 1f68 91080000 		.4byte	.LASF454
 8863 1f6c 04       		.byte	0x4
 8864 1f6d 5A01     		.2byte	0x15a
 8865 1f6f 00000000 		.4byte	.LFB71
 8866 1f73 60030000 		.4byte	.LFE71-.LFB71
 8867 1f77 01       		.uleb128 0x1
 8868 1f78 9C       		.byte	0x9c
 8869 1f79 67200000 		.4byte	0x2067
 8870 1f7d 32       		.uleb128 0x32
 8871 1f7e 8B0E0000 		.4byte	.LASF426
 8872 1f82 04       		.byte	0x4
 8873 1f83 5A01     		.2byte	0x15a
 8874 1f85 8D120000 		.4byte	0x128d
 8875 1f89 03       		.uleb128 0x3
 8876 1f8a 91       		.byte	0x91
 8877 1f8b AC7F     		.sleb128 -84
 8878 1f8d 33       		.uleb128 0x33
 8879 1f8e 696400   		.ascii	"id\000"
 8880 1f91 04       		.byte	0x4
 8881 1f92 5A01     		.2byte	0x15a
 8882 1f94 CE000000 		.4byte	0xce
 8883 1f98 03       		.uleb128 0x3
 8884 1f99 91       		.byte	0x91
 8885 1f9a AA7F     		.sleb128 -86
 8886 1f9c 32       		.uleb128 0x32
 8887 1f9d 0C140000 		.4byte	.LASF455
 8888 1fa1 04       		.byte	0x4
 8889 1fa2 5A01     		.2byte	0x15a
 8890 1fa4 3D030000 		.4byte	0x33d
 8891 1fa8 03       		.uleb128 0x3
 8892 1fa9 91       		.byte	0x91
 8893 1faa A97F     		.sleb128 -87
 8894 1fac 34       		.uleb128 0x34
 8895 1fad 65787400 		.ascii	"ext\000"
 8896 1fb1 04       		.byte	0x4
ARM GAS  C:\Users\tmj32\AppData\Local\Temp\cc94ZBZn.s 			page 185


 8897 1fb2 6101     		.2byte	0x161
 8898 1fb4 6B1E0000 		.4byte	0x1e6b
 8899 1fb8 02       		.uleb128 0x2
 8900 1fb9 91       		.byte	0x91
 8901 1fba 68       		.sleb128 -24
 8902 1fbb 30       		.uleb128 0x30
 8903 1fbc 4D110000 		.4byte	.LASF429
 8904 1fc0 04       		.byte	0x4
 8905 1fc1 6301     		.2byte	0x163
 8906 1fc3 3D110000 		.4byte	0x113d
 8907 1fc7 02       		.uleb128 0x2
 8908 1fc8 91       		.byte	0x91
 8909 1fc9 64       		.sleb128 -28
 8910 1fca 30       		.uleb128 0x30
 8911 1fcb EA080000 		.4byte	.LASF456
 8912 1fcf 04       		.byte	0x4
 8913 1fd0 6F01     		.2byte	0x16f
 8914 1fd2 EF000000 		.4byte	0xef
 8915 1fd6 02       		.uleb128 0x2
 8916 1fd7 91       		.byte	0x91
 8917 1fd8 6E       		.sleb128 -18
 8918 1fd9 30       		.uleb128 0x30
 8919 1fda 330C0000 		.4byte	.LASF457
 8920 1fde 04       		.byte	0x4
 8921 1fdf 9801     		.2byte	0x198
 8922 1fe1 3D110000 		.4byte	0x113d
 8923 1fe5 02       		.uleb128 0x2
 8924 1fe6 91       		.byte	0x91
 8925 1fe7 60       		.sleb128 -32
 8926 1fe8 30       		.uleb128 0x30
 8927 1fe9 ED120000 		.4byte	.LASF449
 8928 1fed 04       		.byte	0x4
 8929 1fee 9901     		.2byte	0x199
 8930 1ff0 EF000000 		.4byte	0xef
 8931 1ff4 02       		.uleb128 0x2
 8932 1ff5 91       		.byte	0x91
 8933 1ff6 5E       		.sleb128 -34
 8934 1ff7 30       		.uleb128 0x30
 8935 1ff8 9B060000 		.4byte	.LASF458
 8936 1ffc 04       		.byte	0x4
 8937 1ffd 9A01     		.2byte	0x19a
 8938 1fff EF000000 		.4byte	0xef
 8939 2003 02       		.uleb128 0x2
 8940 2004 91       		.byte	0x91
 8941 2005 6C       		.sleb128 -20
 8942 2006 2D       		.uleb128 0x2d
 8943 2007 5C010000 		.4byte	.LBB4
 8944 200b 5A000000 		.4byte	.LBE4-.LBB4
 8945 200f 22200000 		.4byte	0x2022
 8946 2013 34       		.uleb128 0x34
 8947 2014 6100     		.ascii	"a\000"
 8948 2016 04       		.byte	0x4
 8949 2017 8601     		.2byte	0x186
 8950 2019 82040000 		.4byte	0x482
 8951 201d 03       		.uleb128 0x3
 8952 201e 91       		.byte	0x91
 8953 201f B07F     		.sleb128 -80
ARM GAS  C:\Users\tmj32\AppData\Local\Temp\cc94ZBZn.s 			page 186


 8954 2021 00       		.byte	0
 8955 2022 2D       		.uleb128 0x2d
 8956 2023 D2010000 		.4byte	.LBB5
 8957 2027 A0000000 		.4byte	.LBE5-.LBB5
 8958 202b 4E200000 		.4byte	0x204e
 8959 202f 30       		.uleb128 0x30
 8960 2030 3B070000 		.4byte	.LASF448
 8961 2034 04       		.byte	0x4
 8962 2035 A501     		.2byte	0x1a5
 8963 2037 3D110000 		.4byte	0x113d
 8964 203b 02       		.uleb128 0x2
 8965 203c 91       		.byte	0x91
 8966 203d 58       		.sleb128 -40
 8967 203e 30       		.uleb128 0x30
 8968 203f F9000000 		.4byte	.LASF450
 8969 2043 04       		.byte	0x4
 8970 2044 A601     		.2byte	0x1a6
 8971 2046 EF000000 		.4byte	0xef
 8972 204a 02       		.uleb128 0x2
 8973 204b 91       		.byte	0x91
 8974 204c 56       		.sleb128 -42
 8975 204d 00       		.byte	0
 8976 204e 2E       		.uleb128 0x2e
 8977 204f B6020000 		.4byte	.LBB6
 8978 2053 86000000 		.4byte	.LBE6-.LBB6
 8979 2057 34       		.uleb128 0x34
 8980 2058 6100     		.ascii	"a\000"
 8981 205a 04       		.byte	0x4
 8982 205b BA01     		.2byte	0x1ba
 8983 205d 82040000 		.4byte	0x482
 8984 2061 03       		.uleb128 0x3
 8985 2062 91       		.byte	0x91
 8986 2063 B07F     		.sleb128 -80
 8987 2065 00       		.byte	0
 8988 2066 00       		.byte	0
 8989 2067 31       		.uleb128 0x31
 8990 2068 880B0000 		.4byte	.LASF459
 8991 206c 04       		.byte	0x4
 8992 206d E001     		.2byte	0x1e0
 8993 206f 00000000 		.4byte	.LFB72
 8994 2073 38000000 		.4byte	.LFE72-.LFB72
 8995 2077 01       		.uleb128 0x1
 8996 2078 9C       		.byte	0x9c
 8997 2079 AA200000 		.4byte	0x20aa
 8998 207d 32       		.uleb128 0x32
 8999 207e 8B0E0000 		.4byte	.LASF426
 9000 2082 04       		.byte	0x4
 9001 2083 E001     		.2byte	0x1e0
 9002 2085 8D120000 		.4byte	0x128d
 9003 2089 02       		.uleb128 0x2
 9004 208a 91       		.byte	0x91
 9005 208b 6C       		.sleb128 -20
 9006 208c 33       		.uleb128 0x33
 9007 208d 656E00   		.ascii	"en\000"
 9008 2090 04       		.byte	0x4
 9009 2091 E001     		.2byte	0x1e0
 9010 2093 D5010000 		.4byte	0x1d5
ARM GAS  C:\Users\tmj32\AppData\Local\Temp\cc94ZBZn.s 			page 187


 9011 2097 02       		.uleb128 0x2
 9012 2098 91       		.byte	0x91
 9013 2099 6B       		.sleb128 -21
 9014 209a 34       		.uleb128 0x34
 9015 209b 65787400 		.ascii	"ext\000"
 9016 209f 04       		.byte	0x4
 9017 20a0 E401     		.2byte	0x1e4
 9018 20a2 6B1E0000 		.4byte	0x1e6b
 9019 20a6 02       		.uleb128 0x2
 9020 20a7 91       		.byte	0x91
 9021 20a8 74       		.sleb128 -12
 9022 20a9 00       		.byte	0
 9023 20aa 31       		.uleb128 0x31
 9024 20ab 830C0000 		.4byte	.LASF460
 9025 20af 04       		.byte	0x4
 9026 20b0 ED01     		.2byte	0x1ed
 9027 20b2 00000000 		.4byte	.LFB73
 9028 20b6 22000000 		.4byte	.LFE73-.LFB73
 9029 20ba 01       		.uleb128 0x1
 9030 20bb 9C       		.byte	0x9c
 9031 20bc EE200000 		.4byte	0x20ee
 9032 20c0 32       		.uleb128 0x32
 9033 20c1 8B0E0000 		.4byte	.LASF426
 9034 20c5 04       		.byte	0x4
 9035 20c6 ED01     		.2byte	0x1ed
 9036 20c8 8D120000 		.4byte	0x128d
 9037 20cc 02       		.uleb128 0x2
 9038 20cd 91       		.byte	0x91
 9039 20ce 6C       		.sleb128 -20
 9040 20cf 32       		.uleb128 0x32
 9041 20d0 03070000 		.4byte	.LASF350
 9042 20d4 04       		.byte	0x4
 9043 20d5 ED01     		.2byte	0x1ed
 9044 20d7 CE000000 		.4byte	0xce
 9045 20db 02       		.uleb128 0x2
 9046 20dc 91       		.byte	0x91
 9047 20dd 6A       		.sleb128 -22
 9048 20de 34       		.uleb128 0x34
 9049 20df 65787400 		.ascii	"ext\000"
 9050 20e3 04       		.byte	0x4
 9051 20e4 F201     		.2byte	0x1f2
 9052 20e6 6B1E0000 		.4byte	0x1e6b
 9053 20ea 02       		.uleb128 0x2
 9054 20eb 91       		.byte	0x91
 9055 20ec 74       		.sleb128 -12
 9056 20ed 00       		.byte	0
 9057 20ee 31       		.uleb128 0x31
 9058 20ef 7D050000 		.4byte	.LASF461
 9059 20f3 04       		.byte	0x4
 9060 20f4 0002     		.2byte	0x200
 9061 20f6 00000000 		.4byte	.LFB74
 9062 20fa FA000000 		.4byte	.LFE74-.LFB74
 9063 20fe 01       		.uleb128 0x1
 9064 20ff 9C       		.byte	0x9c
 9065 2100 41210000 		.4byte	0x2141
 9066 2104 32       		.uleb128 0x32
 9067 2105 8B0E0000 		.4byte	.LASF426
ARM GAS  C:\Users\tmj32\AppData\Local\Temp\cc94ZBZn.s 			page 188


 9068 2109 04       		.byte	0x4
 9069 210a 0002     		.2byte	0x200
 9070 210c 8D120000 		.4byte	0x128d
 9071 2110 02       		.uleb128 0x2
 9072 2111 91       		.byte	0x91
 9073 2112 6C       		.sleb128 -20
 9074 2113 32       		.uleb128 0x32
 9075 2114 5C020000 		.4byte	.LASF74
 9076 2118 04       		.byte	0x4
 9077 2119 0002     		.2byte	0x200
 9078 211b F3130000 		.4byte	0x13f3
 9079 211f 02       		.uleb128 0x2
 9080 2120 91       		.byte	0x91
 9081 2121 6B       		.sleb128 -21
 9082 2122 32       		.uleb128 0x32
 9083 2123 4D110000 		.4byte	.LASF429
 9084 2127 04       		.byte	0x4
 9085 2128 0002     		.2byte	0x200
 9086 212a 3D110000 		.4byte	0x113d
 9087 212e 02       		.uleb128 0x2
 9088 212f 91       		.byte	0x91
 9089 2130 64       		.sleb128 -28
 9090 2131 34       		.uleb128 0x34
 9091 2132 65787400 		.ascii	"ext\000"
 9092 2136 04       		.byte	0x4
 9093 2137 0402     		.2byte	0x204
 9094 2139 6B1E0000 		.4byte	0x1e6b
 9095 213d 02       		.uleb128 0x2
 9096 213e 91       		.byte	0x91
 9097 213f 74       		.sleb128 -12
 9098 2140 00       		.byte	0
 9099 2141 31       		.uleb128 0x31
 9100 2142 F2100000 		.4byte	.LASF462
 9101 2146 04       		.byte	0x4
 9102 2147 2702     		.2byte	0x227
 9103 2149 00000000 		.4byte	.LFB75
 9104 214d 34000000 		.4byte	.LFE75-.LFB75
 9105 2151 01       		.uleb128 0x1
 9106 2152 9C       		.byte	0x9c
 9107 2153 85210000 		.4byte	0x2185
 9108 2157 32       		.uleb128 0x32
 9109 2158 8B0E0000 		.4byte	.LASF426
 9110 215c 04       		.byte	0x4
 9111 215d 2702     		.2byte	0x227
 9112 215f 8D120000 		.4byte	0x128d
 9113 2163 02       		.uleb128 0x2
 9114 2164 91       		.byte	0x91
 9115 2165 6C       		.sleb128 -20
 9116 2166 32       		.uleb128 0x32
 9117 2167 F8020000 		.4byte	.LASF356
 9118 216b 04       		.byte	0x4
 9119 216c 2702     		.2byte	0x227
 9120 216e DD120000 		.4byte	0x12dd
 9121 2172 02       		.uleb128 0x2
 9122 2173 91       		.byte	0x91
 9123 2174 6B       		.sleb128 -21
 9124 2175 34       		.uleb128 0x34
ARM GAS  C:\Users\tmj32\AppData\Local\Temp\cc94ZBZn.s 			page 189


 9125 2176 65787400 		.ascii	"ext\000"
 9126 217a 04       		.byte	0x4
 9127 217b 2B02     		.2byte	0x22b
 9128 217d 6B1E0000 		.4byte	0x1e6b
 9129 2181 02       		.uleb128 0x2
 9130 2182 91       		.byte	0x91
 9131 2183 74       		.sleb128 -12
 9132 2184 00       		.byte	0
 9133 2185 31       		.uleb128 0x31
 9134 2186 64040000 		.4byte	.LASF463
 9135 218a 04       		.byte	0x4
 9136 218b 3602     		.2byte	0x236
 9137 218d 00000000 		.4byte	.LFB76
 9138 2191 2E000000 		.4byte	.LFE76-.LFB76
 9139 2195 01       		.uleb128 0x1
 9140 2196 9C       		.byte	0x9c
 9141 2197 C8210000 		.4byte	0x21c8
 9142 219b 32       		.uleb128 0x32
 9143 219c 8B0E0000 		.4byte	.LASF426
 9144 21a0 04       		.byte	0x4
 9145 21a1 3602     		.2byte	0x236
 9146 21a3 8D120000 		.4byte	0x128d
 9147 21a7 02       		.uleb128 0x2
 9148 21a8 91       		.byte	0x91
 9149 21a9 6C       		.sleb128 -20
 9150 21aa 33       		.uleb128 0x33
 9151 21ab 656E00   		.ascii	"en\000"
 9152 21ae 04       		.byte	0x4
 9153 21af 3602     		.2byte	0x236
 9154 21b1 D5010000 		.4byte	0x1d5
 9155 21b5 02       		.uleb128 0x2
 9156 21b6 91       		.byte	0x91
 9157 21b7 6B       		.sleb128 -21
 9158 21b8 34       		.uleb128 0x34
 9159 21b9 65787400 		.ascii	"ext\000"
 9160 21bd 04       		.byte	0x4
 9161 21be 3A02     		.2byte	0x23a
 9162 21c0 6B1E0000 		.4byte	0x1e6b
 9163 21c4 02       		.uleb128 0x2
 9164 21c5 91       		.byte	0x91
 9165 21c6 74       		.sleb128 -12
 9166 21c7 00       		.byte	0
 9167 21c8 35       		.uleb128 0x35
 9168 21c9 BE060000 		.4byte	.LASF464
 9169 21cd 04       		.byte	0x4
 9170 21ce 4902     		.2byte	0x249
 9171 21d0 CE000000 		.4byte	0xce
 9172 21d4 00000000 		.4byte	.LFB77
 9173 21d8 1C000000 		.4byte	.LFE77-.LFB77
 9174 21dc 01       		.uleb128 0x1
 9175 21dd 9C       		.byte	0x9c
 9176 21de 01220000 		.4byte	0x2201
 9177 21e2 32       		.uleb128 0x32
 9178 21e3 8B0E0000 		.4byte	.LASF426
 9179 21e7 04       		.byte	0x4
 9180 21e8 4902     		.2byte	0x249
 9181 21ea 601E0000 		.4byte	0x1e60
ARM GAS  C:\Users\tmj32\AppData\Local\Temp\cc94ZBZn.s 			page 190


 9182 21ee 02       		.uleb128 0x2
 9183 21ef 91       		.byte	0x91
 9184 21f0 6C       		.sleb128 -20
 9185 21f1 34       		.uleb128 0x34
 9186 21f2 65787400 		.ascii	"ext\000"
 9187 21f6 04       		.byte	0x4
 9188 21f7 4D02     		.2byte	0x24d
 9189 21f9 6B1E0000 		.4byte	0x1e6b
 9190 21fd 02       		.uleb128 0x2
 9191 21fe 91       		.byte	0x91
 9192 21ff 74       		.sleb128 -12
 9193 2200 00       		.byte	0
 9194 2201 35       		.uleb128 0x35
 9195 2202 D3030000 		.4byte	.LASF465
 9196 2206 04       		.byte	0x4
 9197 2207 5602     		.2byte	0x256
 9198 2209 CE000000 		.4byte	0xce
 9199 220d 00000000 		.4byte	.LFB78
 9200 2211 1C000000 		.4byte	.LFE78-.LFB78
 9201 2215 01       		.uleb128 0x1
 9202 2216 9C       		.byte	0x9c
 9203 2217 3A220000 		.4byte	0x223a
 9204 221b 32       		.uleb128 0x32
 9205 221c 8B0E0000 		.4byte	.LASF426
 9206 2220 04       		.byte	0x4
 9207 2221 5602     		.2byte	0x256
 9208 2223 601E0000 		.4byte	0x1e60
 9209 2227 02       		.uleb128 0x2
 9210 2228 91       		.byte	0x91
 9211 2229 6C       		.sleb128 -20
 9212 222a 34       		.uleb128 0x34
 9213 222b 65787400 		.ascii	"ext\000"
 9214 222f 04       		.byte	0x4
 9215 2230 5A02     		.2byte	0x25a
 9216 2232 6B1E0000 		.4byte	0x1e6b
 9217 2236 02       		.uleb128 0x2
 9218 2237 91       		.byte	0x91
 9219 2238 74       		.sleb128 -12
 9220 2239 00       		.byte	0
 9221 223a 35       		.uleb128 0x35
 9222 223b CE160000 		.4byte	.LASF466
 9223 223f 04       		.byte	0x4
 9224 2240 6402     		.2byte	0x264
 9225 2242 8D120000 		.4byte	0x128d
 9226 2246 00000000 		.4byte	.LFB79
 9227 224a 60000000 		.4byte	.LFE79-.LFB79
 9228 224e 01       		.uleb128 0x1
 9229 224f 9C       		.byte	0x9c
 9230 2250 9D220000 		.4byte	0x229d
 9231 2254 32       		.uleb128 0x32
 9232 2255 8B0E0000 		.4byte	.LASF426
 9233 2259 04       		.byte	0x4
 9234 225a 6402     		.2byte	0x264
 9235 225c 601E0000 		.4byte	0x1e60
 9236 2260 02       		.uleb128 0x2
 9237 2261 91       		.byte	0x91
 9238 2262 64       		.sleb128 -28
ARM GAS  C:\Users\tmj32\AppData\Local\Temp\cc94ZBZn.s 			page 191


 9239 2263 33       		.uleb128 0x33
 9240 2264 696400   		.ascii	"id\000"
 9241 2267 04       		.byte	0x4
 9242 2268 6402     		.2byte	0x264
 9243 226a CE000000 		.4byte	0xce
 9244 226e 02       		.uleb128 0x2
 9245 226f 91       		.byte	0x91
 9246 2270 62       		.sleb128 -30
 9247 2271 34       		.uleb128 0x34
 9248 2272 65787400 		.ascii	"ext\000"
 9249 2276 04       		.byte	0x4
 9250 2277 6802     		.2byte	0x268
 9251 2279 6B1E0000 		.4byte	0x1e6b
 9252 227d 02       		.uleb128 0x2
 9253 227e 91       		.byte	0x91
 9254 227f 6C       		.sleb128 -20
 9255 2280 34       		.uleb128 0x34
 9256 2281 6900     		.ascii	"i\000"
 9257 2283 04       		.byte	0x4
 9258 2284 6902     		.2byte	0x269
 9259 2286 CE000000 		.4byte	0xce
 9260 228a 02       		.uleb128 0x2
 9261 228b 91       		.byte	0x91
 9262 228c 76       		.sleb128 -10
 9263 228d 30       		.uleb128 0x30
 9264 228e 8F100000 		.4byte	.LASF421
 9265 2292 04       		.byte	0x4
 9266 2293 6A02     		.2byte	0x26a
 9267 2295 8D120000 		.4byte	0x128d
 9268 2299 02       		.uleb128 0x2
 9269 229a 91       		.byte	0x91
 9270 229b 70       		.sleb128 -16
 9271 229c 00       		.byte	0
 9272 229d 35       		.uleb128 0x35
 9273 229e 030A0000 		.4byte	.LASF467
 9274 22a2 04       		.byte	0x4
 9275 22a3 7B02     		.2byte	0x27b
 9276 22a5 D5010000 		.4byte	0x1d5
 9277 22a9 00000000 		.4byte	.LFB80
 9278 22ad 2C000000 		.4byte	.LFE80-.LFB80
 9279 22b1 01       		.uleb128 0x1
 9280 22b2 9C       		.byte	0x9c
 9281 22b3 D6220000 		.4byte	0x22d6
 9282 22b7 32       		.uleb128 0x32
 9283 22b8 8B0E0000 		.4byte	.LASF426
 9284 22bc 04       		.byte	0x4
 9285 22bd 7B02     		.2byte	0x27b
 9286 22bf 601E0000 		.4byte	0x1e60
 9287 22c3 02       		.uleb128 0x2
 9288 22c4 91       		.byte	0x91
 9289 22c5 6C       		.sleb128 -20
 9290 22c6 34       		.uleb128 0x34
 9291 22c7 65787400 		.ascii	"ext\000"
 9292 22cb 04       		.byte	0x4
 9293 22cc 7F02     		.2byte	0x27f
 9294 22ce 6B1E0000 		.4byte	0x1e6b
 9295 22d2 02       		.uleb128 0x2
ARM GAS  C:\Users\tmj32\AppData\Local\Temp\cc94ZBZn.s 			page 192


 9296 22d3 91       		.byte	0x91
 9297 22d4 74       		.sleb128 -12
 9298 22d5 00       		.byte	0
 9299 22d6 35       		.uleb128 0x35
 9300 22d7 AF030000 		.4byte	.LASF468
 9301 22db 04       		.byte	0x4
 9302 22dc 8802     		.2byte	0x288
 9303 22de CE000000 		.4byte	0xce
 9304 22e2 00000000 		.4byte	.LFB81
 9305 22e6 1C000000 		.4byte	.LFE81-.LFB81
 9306 22ea 01       		.uleb128 0x1
 9307 22eb 9C       		.byte	0x9c
 9308 22ec 0F230000 		.4byte	0x230f
 9309 22f0 32       		.uleb128 0x32
 9310 22f1 8B0E0000 		.4byte	.LASF426
 9311 22f5 04       		.byte	0x4
 9312 22f6 8802     		.2byte	0x288
 9313 22f8 601E0000 		.4byte	0x1e60
 9314 22fc 02       		.uleb128 0x2
 9315 22fd 91       		.byte	0x91
 9316 22fe 6C       		.sleb128 -20
 9317 22ff 34       		.uleb128 0x34
 9318 2300 65787400 		.ascii	"ext\000"
 9319 2304 04       		.byte	0x4
 9320 2305 8D02     		.2byte	0x28d
 9321 2307 6B1E0000 		.4byte	0x1e6b
 9322 230b 02       		.uleb128 0x2
 9323 230c 91       		.byte	0x91
 9324 230d 74       		.sleb128 -12
 9325 230e 00       		.byte	0
 9326 230f 35       		.uleb128 0x35
 9327 2310 380F0000 		.4byte	.LASF469
 9328 2314 04       		.byte	0x4
 9329 2315 9B02     		.2byte	0x29b
 9330 2317 3D110000 		.4byte	0x113d
 9331 231b 00000000 		.4byte	.LFB82
 9332 231f AA000000 		.4byte	.LFE82-.LFB82
 9333 2323 01       		.uleb128 0x1
 9334 2324 9C       		.byte	0x9c
 9335 2325 66230000 		.4byte	0x2366
 9336 2329 32       		.uleb128 0x32
 9337 232a 8B0E0000 		.4byte	.LASF426
 9338 232e 04       		.byte	0x4
 9339 232f 9B02     		.2byte	0x29b
 9340 2331 601E0000 		.4byte	0x1e60
 9341 2335 02       		.uleb128 0x2
 9342 2336 91       		.byte	0x91
 9343 2337 6C       		.sleb128 -20
 9344 2338 32       		.uleb128 0x32
 9345 2339 5C020000 		.4byte	.LASF74
 9346 233d 04       		.byte	0x4
 9347 233e 9B02     		.2byte	0x29b
 9348 2340 F3130000 		.4byte	0x13f3
 9349 2344 02       		.uleb128 0x2
 9350 2345 91       		.byte	0x91
 9351 2346 6B       		.sleb128 -21
 9352 2347 30       		.uleb128 0x30
ARM GAS  C:\Users\tmj32\AppData\Local\Temp\cc94ZBZn.s 			page 193


 9353 2348 4D110000 		.4byte	.LASF429
 9354 234c 04       		.byte	0x4
 9355 234d 9F02     		.2byte	0x29f
 9356 234f 3D110000 		.4byte	0x113d
 9357 2353 02       		.uleb128 0x2
 9358 2354 91       		.byte	0x91
 9359 2355 74       		.sleb128 -12
 9360 2356 34       		.uleb128 0x34
 9361 2357 65787400 		.ascii	"ext\000"
 9362 235b 04       		.byte	0x4
 9363 235c A002     		.2byte	0x2a0
 9364 235e 6B1E0000 		.4byte	0x1e6b
 9365 2362 02       		.uleb128 0x2
 9366 2363 91       		.byte	0x91
 9367 2364 70       		.sleb128 -16
 9368 2365 00       		.byte	0
 9369 2366 35       		.uleb128 0x35
 9370 2367 77020000 		.4byte	.LASF470
 9371 236b 04       		.byte	0x4
 9372 236c B302     		.2byte	0x2b3
 9373 236e DD120000 		.4byte	0x12dd
 9374 2372 00000000 		.4byte	.LFB83
 9375 2376 22000000 		.4byte	.LFE83-.LFB83
 9376 237a 01       		.uleb128 0x1
 9377 237b 9C       		.byte	0x9c
 9378 237c 9F230000 		.4byte	0x239f
 9379 2380 32       		.uleb128 0x32
 9380 2381 8B0E0000 		.4byte	.LASF426
 9381 2385 04       		.byte	0x4
 9382 2386 B302     		.2byte	0x2b3
 9383 2388 601E0000 		.4byte	0x1e60
 9384 238c 02       		.uleb128 0x2
 9385 238d 91       		.byte	0x91
 9386 238e 6C       		.sleb128 -20
 9387 238f 34       		.uleb128 0x34
 9388 2390 65787400 		.ascii	"ext\000"
 9389 2394 04       		.byte	0x4
 9390 2395 B702     		.2byte	0x2b7
 9391 2397 6B1E0000 		.4byte	0x1e6b
 9392 239b 02       		.uleb128 0x2
 9393 239c 91       		.byte	0x91
 9394 239d 74       		.sleb128 -12
 9395 239e 00       		.byte	0
 9396 239f 35       		.uleb128 0x35
 9397 23a0 85070000 		.4byte	.LASF471
 9398 23a4 04       		.byte	0x4
 9399 23a5 C002     		.2byte	0x2c0
 9400 23a7 D5010000 		.4byte	0x1d5
 9401 23ab 00000000 		.4byte	.LFB84
 9402 23af 2C000000 		.4byte	.LFE84-.LFB84
 9403 23b3 01       		.uleb128 0x1
 9404 23b4 9C       		.byte	0x9c
 9405 23b5 D8230000 		.4byte	0x23d8
 9406 23b9 32       		.uleb128 0x32
 9407 23ba 8B0E0000 		.4byte	.LASF426
 9408 23be 04       		.byte	0x4
 9409 23bf C002     		.2byte	0x2c0
ARM GAS  C:\Users\tmj32\AppData\Local\Temp\cc94ZBZn.s 			page 194


 9410 23c1 601E0000 		.4byte	0x1e60
 9411 23c5 02       		.uleb128 0x2
 9412 23c6 91       		.byte	0x91
 9413 23c7 6C       		.sleb128 -20
 9414 23c8 34       		.uleb128 0x34
 9415 23c9 65787400 		.ascii	"ext\000"
 9416 23cd 04       		.byte	0x4
 9417 23ce C402     		.2byte	0x2c4
 9418 23d0 6B1E0000 		.4byte	0x1e6b
 9419 23d4 02       		.uleb128 0x2
 9420 23d5 91       		.byte	0x91
 9421 23d6 74       		.sleb128 -12
 9422 23d7 00       		.byte	0
 9423 23d8 36       		.uleb128 0x36
 9424 23d9 7A150000 		.4byte	.LASF472
 9425 23dd 04       		.byte	0x4
 9426 23de D402     		.2byte	0x2d4
 9427 23e0 E2060000 		.4byte	0x6e2
 9428 23e4 00000000 		.4byte	.LFB85
 9429 23e8 74010000 		.4byte	.LFE85-.LFB85
 9430 23ec 01       		.uleb128 0x1
 9431 23ed 9C       		.byte	0x9c
 9432 23ee 8F240000 		.4byte	0x248f
 9433 23f2 32       		.uleb128 0x32
 9434 23f3 8B0E0000 		.4byte	.LASF426
 9435 23f7 04       		.byte	0x4
 9436 23f8 D402     		.2byte	0x2d4
 9437 23fa 8D120000 		.4byte	0x128d
 9438 23fe 02       		.uleb128 0x2
 9439 23ff 91       		.byte	0x91
 9440 2400 5C       		.sleb128 -36
 9441 2401 32       		.uleb128 0x32
 9442 2402 F8010000 		.4byte	.LASF473
 9443 2406 04       		.byte	0x4
 9444 2407 D402     		.2byte	0x2d4
 9445 2409 FA0F0000 		.4byte	0xffa
 9446 240d 02       		.uleb128 0x2
 9447 240e 91       		.byte	0x91
 9448 240f 5B       		.sleb128 -37
 9449 2410 32       		.uleb128 0x32
 9450 2411 A50B0000 		.4byte	.LASF474
 9451 2415 04       		.byte	0x4
 9452 2416 D402     		.2byte	0x2d4
 9453 2418 FA000000 		.4byte	0xfa
 9454 241c 02       		.uleb128 0x2
 9455 241d 91       		.byte	0x91
 9456 241e 54       		.sleb128 -44
 9457 241f 34       		.uleb128 0x34
 9458 2420 72657300 		.ascii	"res\000"
 9459 2424 04       		.byte	0x4
 9460 2425 D602     		.2byte	0x2d6
 9461 2427 E2060000 		.4byte	0x6e2
 9462 242b 02       		.uleb128 0x2
 9463 242c 91       		.byte	0x91
 9464 242d 6D       		.sleb128 -19
 9465 242e 34       		.uleb128 0x34
 9466 242f 65787400 		.ascii	"ext\000"
ARM GAS  C:\Users\tmj32\AppData\Local\Temp\cc94ZBZn.s 			page 195


 9467 2433 04       		.byte	0x4
 9468 2434 DD02     		.2byte	0x2dd
 9469 2436 6B1E0000 		.4byte	0x1e6b
 9470 243a 02       		.uleb128 0x2
 9471 243b 91       		.byte	0x91
 9472 243c 68       		.sleb128 -24
 9473 243d 2D       		.uleb128 0x2d
 9474 243e 48000000 		.4byte	.LBB7
 9475 2442 4C000000 		.4byte	.LBE7-.LBB7
 9476 2446 58240000 		.4byte	0x2458
 9477 244a 34       		.uleb128 0x34
 9478 244b 6900     		.ascii	"i\000"
 9479 244d 04       		.byte	0x4
 9480 244e DF02     		.2byte	0x2df
 9481 2450 B8000000 		.4byte	0xb8
 9482 2454 02       		.uleb128 0x2
 9483 2455 91       		.byte	0x91
 9484 2456 6F       		.sleb128 -17
 9485 2457 00       		.byte	0
 9486 2458 2D       		.uleb128 0x2d
 9487 2459 0E010000 		.4byte	.LBB8
 9488 245d 3E000000 		.4byte	.LBE8-.LBB8
 9489 2461 75240000 		.4byte	0x2475
 9490 2465 30       		.uleb128 0x30
 9491 2466 53190000 		.4byte	.LASF475
 9492 246a 04       		.byte	0x4
 9493 246b FE02     		.2byte	0x2fe
 9494 246d AE0B0000 		.4byte	0xbae
 9495 2471 02       		.uleb128 0x2
 9496 2472 91       		.byte	0x91
 9497 2473 6E       		.sleb128 -18
 9498 2474 00       		.byte	0
 9499 2475 2E       		.uleb128 0x2e
 9500 2476 54010000 		.4byte	.LBB9
 9501 247a 0C000000 		.4byte	.LBE9-.LBB9
 9502 247e 30       		.uleb128 0x30
 9503 247f 030C0000 		.4byte	.LASF476
 9504 2483 04       		.byte	0x4
 9505 2484 1103     		.2byte	0x311
 9506 2486 8F240000 		.4byte	0x248f
 9507 248a 02       		.uleb128 0x2
 9508 248b 91       		.byte	0x91
 9509 248c 64       		.sleb128 -28
 9510 248d 00       		.byte	0
 9511 248e 00       		.byte	0
 9512 248f 0D       		.uleb128 0xd
 9513 2490 04       		.byte	0x4
 9514 2491 D5010000 		.4byte	0x1d5
 9515 2495 36       		.uleb128 0x36
 9516 2496 34130000 		.4byte	.LASF477
 9517 249a 04       		.byte	0x4
 9518 249b 1F03     		.2byte	0x31f
 9519 249d E2060000 		.4byte	0x6e2
 9520 24a1 00000000 		.4byte	.LFB86
 9521 24a5 A8000000 		.4byte	.LFE86-.LFB86
 9522 24a9 01       		.uleb128 0x1
 9523 24aa 9C       		.byte	0x9c
ARM GAS  C:\Users\tmj32\AppData\Local\Temp\cc94ZBZn.s 			page 196


 9524 24ab 0A250000 		.4byte	0x250a
 9525 24af 32       		.uleb128 0x32
 9526 24b0 EE110000 		.4byte	.LASF478
 9527 24b4 04       		.byte	0x4
 9528 24b5 1F03     		.2byte	0x31f
 9529 24b7 8D120000 		.4byte	0x128d
 9530 24bb 02       		.uleb128 0x2
 9531 24bc 91       		.byte	0x91
 9532 24bd 64       		.sleb128 -28
 9533 24be 32       		.uleb128 0x32
 9534 24bf F8010000 		.4byte	.LASF473
 9535 24c3 04       		.byte	0x4
 9536 24c4 1F03     		.2byte	0x31f
 9537 24c6 FA0F0000 		.4byte	0xffa
 9538 24ca 02       		.uleb128 0x2
 9539 24cb 91       		.byte	0x91
 9540 24cc 63       		.sleb128 -29
 9541 24cd 32       		.uleb128 0x32
 9542 24ce A50B0000 		.4byte	.LASF474
 9543 24d2 04       		.byte	0x4
 9544 24d3 1F03     		.2byte	0x31f
 9545 24d5 FA000000 		.4byte	0xfa
 9546 24d9 02       		.uleb128 0x2
 9547 24da 91       		.byte	0x91
 9548 24db 5C       		.sleb128 -36
 9549 24dc 34       		.uleb128 0x34
 9550 24dd 72657300 		.ascii	"res\000"
 9551 24e1 04       		.byte	0x4
 9552 24e2 2103     		.2byte	0x321
 9553 24e4 E2060000 		.4byte	0x6e2
 9554 24e8 02       		.uleb128 0x2
 9555 24e9 91       		.byte	0x91
 9556 24ea 77       		.sleb128 -9
 9557 24eb 30       		.uleb128 0x30
 9558 24ec B7020000 		.4byte	.LASF410
 9559 24f0 04       		.byte	0x4
 9560 24f1 2803     		.2byte	0x328
 9561 24f3 8D120000 		.4byte	0x128d
 9562 24f7 02       		.uleb128 0x2
 9563 24f8 91       		.byte	0x91
 9564 24f9 70       		.sleb128 -16
 9565 24fa 30       		.uleb128 0x30
 9566 24fb 8B0E0000 		.4byte	.LASF426
 9567 24ff 04       		.byte	0x4
 9568 2500 2903     		.2byte	0x329
 9569 2502 8D120000 		.4byte	0x128d
 9570 2506 02       		.uleb128 0x2
 9571 2507 91       		.byte	0x91
 9572 2508 6C       		.sleb128 -20
 9573 2509 00       		.byte	0
 9574 250a 36       		.uleb128 0x36
 9575 250b AA060000 		.4byte	.LASF479
 9576 250f 04       		.byte	0x4
 9577 2510 3E03     		.2byte	0x33e
 9578 2512 E2060000 		.4byte	0x6e2
 9579 2516 00000000 		.4byte	.LFB87
 9580 251a B0000000 		.4byte	.LFE87-.LFB87
ARM GAS  C:\Users\tmj32\AppData\Local\Temp\cc94ZBZn.s 			page 197


 9581 251e 01       		.uleb128 0x1
 9582 251f 9C       		.byte	0x9c
 9583 2520 8E250000 		.4byte	0x258e
 9584 2524 32       		.uleb128 0x32
 9585 2525 921A0000 		.4byte	.LASF480
 9586 2529 04       		.byte	0x4
 9587 252a 3E03     		.2byte	0x33e
 9588 252c 8D120000 		.4byte	0x128d
 9589 2530 02       		.uleb128 0x2
 9590 2531 91       		.byte	0x91
 9591 2532 64       		.sleb128 -28
 9592 2533 32       		.uleb128 0x32
 9593 2534 F8010000 		.4byte	.LASF473
 9594 2538 04       		.byte	0x4
 9595 2539 3E03     		.2byte	0x33e
 9596 253b FA0F0000 		.4byte	0xffa
 9597 253f 02       		.uleb128 0x2
 9598 2540 91       		.byte	0x91
 9599 2541 63       		.sleb128 -29
 9600 2542 32       		.uleb128 0x32
 9601 2543 A50B0000 		.4byte	.LASF474
 9602 2547 04       		.byte	0x4
 9603 2548 3E03     		.2byte	0x33e
 9604 254a FA000000 		.4byte	0xfa
 9605 254e 02       		.uleb128 0x2
 9606 254f 91       		.byte	0x91
 9607 2550 5C       		.sleb128 -36
 9608 2551 34       		.uleb128 0x34
 9609 2552 72657300 		.ascii	"res\000"
 9610 2556 04       		.byte	0x4
 9611 2557 4003     		.2byte	0x340
 9612 2559 E2060000 		.4byte	0x6e2
 9613 255d 02       		.uleb128 0x2
 9614 255e 91       		.byte	0x91
 9615 255f 77       		.sleb128 -9
 9616 2560 30       		.uleb128 0x30
 9617 2561 EE110000 		.4byte	.LASF478
 9618 2565 04       		.byte	0x4
 9619 2566 4703     		.2byte	0x347
 9620 2568 8D120000 		.4byte	0x128d
 9621 256c 02       		.uleb128 0x2
 9622 256d 91       		.byte	0x91
 9623 256e 70       		.sleb128 -16
 9624 256f 30       		.uleb128 0x30
 9625 2570 B7020000 		.4byte	.LASF410
 9626 2574 04       		.byte	0x4
 9627 2575 4803     		.2byte	0x348
 9628 2577 8D120000 		.4byte	0x128d
 9629 257b 02       		.uleb128 0x2
 9630 257c 91       		.byte	0x91
 9631 257d 6C       		.sleb128 -20
 9632 257e 30       		.uleb128 0x30
 9633 257f 8B0E0000 		.4byte	.LASF426
 9634 2583 04       		.byte	0x4
 9635 2584 4903     		.2byte	0x349
 9636 2586 8D120000 		.4byte	0x128d
 9637 258a 02       		.uleb128 0x2
ARM GAS  C:\Users\tmj32\AppData\Local\Temp\cc94ZBZn.s 			page 198


 9638 258b 91       		.byte	0x91
 9639 258c 68       		.sleb128 -24
 9640 258d 00       		.byte	0
 9641 258e 37       		.uleb128 0x37
 9642 258f 6D130000 		.4byte	.LASF481
 9643 2593 04       		.byte	0x4
 9644 2594 5D03     		.2byte	0x35d
 9645 2596 00000000 		.4byte	.LFB88
 9646 259a 2C000000 		.4byte	.LFE88-.LFB88
 9647 259e 01       		.uleb128 0x1
 9648 259f 9C       		.byte	0x9c
 9649 25a0 E1250000 		.4byte	0x25e1
 9650 25a4 32       		.uleb128 0x32
 9651 25a5 8B0E0000 		.4byte	.LASF426
 9652 25a9 04       		.byte	0x4
 9653 25aa 5D03     		.2byte	0x35d
 9654 25ac 8D120000 		.4byte	0x128d
 9655 25b0 02       		.uleb128 0x2
 9656 25b1 91       		.byte	0x91
 9657 25b2 6C       		.sleb128 -20
 9658 25b3 32       		.uleb128 0x32
 9659 25b4 990A0000 		.4byte	.LASF482
 9660 25b8 04       		.byte	0x4
 9661 25b9 5D03     		.2byte	0x35d
 9662 25bb 8D120000 		.4byte	0x128d
 9663 25bf 02       		.uleb128 0x2
 9664 25c0 91       		.byte	0x91
 9665 25c1 68       		.sleb128 -24
 9666 25c2 34       		.uleb128 0x34
 9667 25c3 65787400 		.ascii	"ext\000"
 9668 25c7 04       		.byte	0x4
 9669 25c8 6103     		.2byte	0x361
 9670 25ca 6B1E0000 		.4byte	0x1e6b
 9671 25ce 02       		.uleb128 0x2
 9672 25cf 91       		.byte	0x91
 9673 25d0 74       		.sleb128 -12
 9674 25d1 30       		.uleb128 0x30
 9675 25d2 C6170000 		.4byte	.LASF483
 9676 25d6 04       		.byte	0x4
 9677 25d7 6203     		.2byte	0x362
 9678 25d9 E1250000 		.4byte	0x25e1
 9679 25dd 02       		.uleb128 0x2
 9680 25de 91       		.byte	0x91
 9681 25df 70       		.sleb128 -16
 9682 25e0 00       		.byte	0
 9683 25e1 0D       		.uleb128 0xd
 9684 25e2 04       		.byte	0x4
 9685 25e3 840E0000 		.4byte	0xe84
 9686 25e7 37       		.uleb128 0x37
 9687 25e8 24100000 		.4byte	.LASF484
 9688 25ec 04       		.byte	0x4
 9689 25ed 6B03     		.2byte	0x36b
 9690 25ef 00000000 		.4byte	.LFB89
 9691 25f3 90020000 		.4byte	.LFE89-.LFB89
 9692 25f7 01       		.uleb128 0x1
 9693 25f8 9C       		.byte	0x9c
 9694 25f9 D2260000 		.4byte	0x26d2
ARM GAS  C:\Users\tmj32\AppData\Local\Temp\cc94ZBZn.s 			page 199


 9695 25fd 32       		.uleb128 0x32
 9696 25fe 8B0E0000 		.4byte	.LASF426
 9697 2602 04       		.byte	0x4
 9698 2603 6B03     		.2byte	0x36b
 9699 2605 8D120000 		.4byte	0x128d
 9700 2609 02       		.uleb128 0x2
 9701 260a 91       		.byte	0x91
 9702 260b 44       		.sleb128 -60
 9703 260c 32       		.uleb128 0x32
 9704 260d 990A0000 		.4byte	.LASF482
 9705 2611 04       		.byte	0x4
 9706 2612 6B03     		.2byte	0x36b
 9707 2614 8D120000 		.4byte	0x128d
 9708 2618 02       		.uleb128 0x2
 9709 2619 91       		.byte	0x91
 9710 261a 40       		.sleb128 -64
 9711 261b 34       		.uleb128 0x34
 9712 261c 65787400 		.ascii	"ext\000"
 9713 2620 04       		.byte	0x4
 9714 2621 6D03     		.2byte	0x36d
 9715 2623 6B1E0000 		.4byte	0x1e6b
 9716 2627 02       		.uleb128 0x2
 9717 2628 91       		.byte	0x91
 9718 2629 68       		.sleb128 -24
 9719 262a 30       		.uleb128 0x30
 9720 262b C6170000 		.4byte	.LASF483
 9721 262f 04       		.byte	0x4
 9722 2630 6E03     		.2byte	0x36e
 9723 2632 E1250000 		.4byte	0x25e1
 9724 2636 02       		.uleb128 0x2
 9725 2637 91       		.byte	0x91
 9726 2638 64       		.sleb128 -28
 9727 2639 30       		.uleb128 0x30
 9728 263a 1A0A0000 		.4byte	.LASF485
 9729 263e 04       		.byte	0x4
 9730 263f 6F03     		.2byte	0x36f
 9731 2641 D9020000 		.4byte	0x2d9
 9732 2645 02       		.uleb128 0x2
 9733 2646 91       		.byte	0x91
 9734 2647 4C       		.sleb128 -52
 9735 2648 30       		.uleb128 0x30
 9736 2649 E1040000 		.4byte	.LASF486
 9737 264d 04       		.byte	0x4
 9738 264e 7103     		.2byte	0x371
 9739 2650 EF000000 		.4byte	0xef
 9740 2654 02       		.uleb128 0x2
 9741 2655 91       		.byte	0x91
 9742 2656 62       		.sleb128 -30
 9743 2657 30       		.uleb128 0x30
 9744 2658 32170000 		.4byte	.LASF487
 9745 265c 04       		.byte	0x4
 9746 265d 7203     		.2byte	0x372
 9747 265f EF000000 		.4byte	0xef
 9748 2663 02       		.uleb128 0x2
 9749 2664 91       		.byte	0x91
 9750 2665 60       		.sleb128 -32
 9751 2666 2E       		.uleb128 0x2e
ARM GAS  C:\Users\tmj32\AppData\Local\Temp\cc94ZBZn.s 			page 200


 9752 2667 46010000 		.4byte	.LBB10
 9753 266b 42010000 		.4byte	.LBE10-.LBB10
 9754 266f 30       		.uleb128 0x30
 9755 2670 330C0000 		.4byte	.LASF457
 9756 2674 04       		.byte	0x4
 9757 2675 9003     		.2byte	0x390
 9758 2677 3D110000 		.4byte	0x113d
 9759 267b 02       		.uleb128 0x2
 9760 267c 91       		.byte	0x91
 9761 267d 5C       		.sleb128 -36
 9762 267e 30       		.uleb128 0x30
 9763 267f ED120000 		.4byte	.LASF449
 9764 2683 04       		.byte	0x4
 9765 2684 9103     		.2byte	0x391
 9766 2686 EF000000 		.4byte	0xef
 9767 268a 02       		.uleb128 0x2
 9768 268b 91       		.byte	0x91
 9769 268c 5A       		.sleb128 -38
 9770 268d 34       		.uleb128 0x34
 9771 268e 7000     		.ascii	"p\000"
 9772 2690 04       		.byte	0x4
 9773 2691 9203     		.2byte	0x392
 9774 2693 EF000000 		.4byte	0xef
 9775 2697 02       		.uleb128 0x2
 9776 2698 91       		.byte	0x91
 9777 2699 52       		.sleb128 -46
 9778 269a 30       		.uleb128 0x30
 9779 269b 35120000 		.4byte	.LASF488
 9780 269f 04       		.byte	0x4
 9781 26a0 9303     		.2byte	0x393
 9782 26a2 EF000000 		.4byte	0xef
 9783 26a6 02       		.uleb128 0x2
 9784 26a7 91       		.byte	0x91
 9785 26a8 50       		.sleb128 -48
 9786 26a9 30       		.uleb128 0x30
 9787 26aa F7090000 		.4byte	.LASF489
 9788 26ae 04       		.byte	0x4
 9789 26af 9403     		.2byte	0x394
 9790 26b1 3D110000 		.4byte	0x113d
 9791 26b5 02       		.uleb128 0x2
 9792 26b6 91       		.byte	0x91
 9793 26b7 54       		.sleb128 -44
 9794 26b8 2E       		.uleb128 0x2e
 9795 26b9 EC010000 		.4byte	.LBB11
 9796 26bd 54000000 		.4byte	.LBE11-.LBB11
 9797 26c1 34       		.uleb128 0x34
 9798 26c2 696400   		.ascii	"id\000"
 9799 26c5 04       		.byte	0x4
 9800 26c6 9F03     		.2byte	0x39f
 9801 26c8 CE000000 		.4byte	0xce
 9802 26cc 02       		.uleb128 0x2
 9803 26cd 91       		.byte	0x91
 9804 26ce 6E       		.sleb128 -18
 9805 26cf 00       		.byte	0
 9806 26d0 00       		.byte	0
 9807 26d1 00       		.byte	0
 9808 26d2 37       		.uleb128 0x37
ARM GAS  C:\Users\tmj32\AppData\Local\Temp\cc94ZBZn.s 			page 201


 9809 26d3 62050000 		.4byte	.LASF490
 9810 26d7 04       		.byte	0x4
 9811 26d8 B603     		.2byte	0x3b6
 9812 26da 00000000 		.4byte	.LFB90
 9813 26de BC010000 		.4byte	.LFE90-.LFB90
 9814 26e2 01       		.uleb128 0x1
 9815 26e3 9C       		.byte	0x9c
 9816 26e4 BB270000 		.4byte	0x27bb
 9817 26e8 32       		.uleb128 0x32
 9818 26e9 8B0E0000 		.4byte	.LASF426
 9819 26ed 04       		.byte	0x4
 9820 26ee B603     		.2byte	0x3b6
 9821 26f0 8D120000 		.4byte	0x128d
 9822 26f4 02       		.uleb128 0x2
 9823 26f5 91       		.byte	0x91
 9824 26f6 4C       		.sleb128 -52
 9825 26f7 32       		.uleb128 0x32
 9826 26f8 990A0000 		.4byte	.LASF482
 9827 26fc 04       		.byte	0x4
 9828 26fd B603     		.2byte	0x3b6
 9829 26ff 8D120000 		.4byte	0x128d
 9830 2703 02       		.uleb128 0x2
 9831 2704 91       		.byte	0x91
 9832 2705 48       		.sleb128 -56
 9833 2706 34       		.uleb128 0x34
 9834 2707 65787400 		.ascii	"ext\000"
 9835 270b 04       		.byte	0x4
 9836 270c B803     		.2byte	0x3b8
 9837 270e 6B1E0000 		.4byte	0x1e6b
 9838 2712 02       		.uleb128 0x2
 9839 2713 91       		.byte	0x91
 9840 2714 6C       		.sleb128 -20
 9841 2715 30       		.uleb128 0x30
 9842 2716 C6170000 		.4byte	.LASF483
 9843 271a 04       		.byte	0x4
 9844 271b BF03     		.2byte	0x3bf
 9845 271d E1250000 		.4byte	0x25e1
 9846 2721 02       		.uleb128 0x2
 9847 2722 91       		.byte	0x91
 9848 2723 68       		.sleb128 -24
 9849 2724 30       		.uleb128 0x30
 9850 2725 1A0A0000 		.4byte	.LASF485
 9851 2729 04       		.byte	0x4
 9852 272a C003     		.2byte	0x3c0
 9853 272c D9020000 		.4byte	0x2d9
 9854 2730 02       		.uleb128 0x2
 9855 2731 91       		.byte	0x91
 9856 2732 58       		.sleb128 -40
 9857 2733 30       		.uleb128 0x30
 9858 2734 53110000 		.4byte	.LASF195
 9859 2738 04       		.byte	0x4
 9860 2739 C203     		.2byte	0x3c2
 9861 273b D9020000 		.4byte	0x2d9
 9862 273f 02       		.uleb128 0x2
 9863 2740 91       		.byte	0x91
 9864 2741 54       		.sleb128 -44
 9865 2742 30       		.uleb128 0x30
ARM GAS  C:\Users\tmj32\AppData\Local\Temp\cc94ZBZn.s 			page 202


 9866 2743 E2150000 		.4byte	.LASF491
 9867 2747 04       		.byte	0x4
 9868 2748 C403     		.2byte	0x3c4
 9869 274a EF000000 		.4byte	0xef
 9870 274e 02       		.uleb128 0x2
 9871 274f 91       		.byte	0x91
 9872 2750 76       		.sleb128 -10
 9873 2751 30       		.uleb128 0x30
 9874 2752 9A050000 		.4byte	.LASF492
 9875 2756 04       		.byte	0x4
 9876 2757 CB03     		.2byte	0x3cb
 9877 2759 EF000000 		.4byte	0xef
 9878 275d 02       		.uleb128 0x2
 9879 275e 91       		.byte	0x91
 9880 275f 66       		.sleb128 -26
 9881 2760 30       		.uleb128 0x30
 9882 2761 EF0E0000 		.4byte	.LASF493
 9883 2765 04       		.byte	0x4
 9884 2766 CC03     		.2byte	0x3cc
 9885 2768 EF000000 		.4byte	0xef
 9886 276c 02       		.uleb128 0x2
 9887 276d 91       		.byte	0x91
 9888 276e 64       		.sleb128 -28
 9889 276f 30       		.uleb128 0x30
 9890 2770 DE170000 		.4byte	.LASF494
 9891 2774 04       		.byte	0x4
 9892 2775 CD03     		.2byte	0x3cd
 9893 2777 EF000000 		.4byte	0xef
 9894 277b 02       		.uleb128 0x2
 9895 277c 91       		.byte	0x91
 9896 277d 62       		.sleb128 -30
 9897 277e 30       		.uleb128 0x30
 9898 277f D6050000 		.4byte	.LASF348
 9899 2783 04       		.byte	0x4
 9900 2784 CF03     		.2byte	0x3cf
 9901 2786 C3000000 		.4byte	0xc3
 9902 278a 02       		.uleb128 0x2
 9903 278b 91       		.byte	0x91
 9904 278c 74       		.sleb128 -12
 9905 278d 30       		.uleb128 0x30
 9906 278e 0E020000 		.4byte	.LASF495
 9907 2792 04       		.byte	0x4
 9908 2793 DB03     		.2byte	0x3db
 9909 2795 E4000000 		.4byte	0xe4
 9910 2799 02       		.uleb128 0x2
 9911 279a 91       		.byte	0x91
 9912 279b 5C       		.sleb128 -36
 9913 279c 30       		.uleb128 0x30
 9914 279d F2000000 		.4byte	.LASF496
 9915 27a1 04       		.byte	0x4
 9916 27a2 DD03     		.2byte	0x3dd
 9917 27a4 E4000000 		.4byte	0xe4
 9918 27a8 02       		.uleb128 0x2
 9919 27a9 91       		.byte	0x91
 9920 27aa 50       		.sleb128 -48
 9921 27ab 34       		.uleb128 0x34
 9922 27ac 72657300 		.ascii	"res\000"
ARM GAS  C:\Users\tmj32\AppData\Local\Temp\cc94ZBZn.s 			page 203


 9923 27b0 04       		.byte	0x4
 9924 27b1 DF03     		.2byte	0x3df
 9925 27b3 E2060000 		.4byte	0x6e2
 9926 27b7 02       		.uleb128 0x2
 9927 27b8 91       		.byte	0x91
 9928 27b9 73       		.sleb128 -13
 9929 27ba 00       		.byte	0
 9930 27bb 37       		.uleb128 0x37
 9931 27bc 59180000 		.4byte	.LASF497
 9932 27c0 04       		.byte	0x4
 9933 27c1 EA03     		.2byte	0x3ea
 9934 27c3 00000000 		.4byte	.LFB91
 9935 27c7 92000000 		.4byte	.LFE91-.LFB91
 9936 27cb 01       		.uleb128 0x1
 9937 27cc 9C       		.byte	0x9c
 9938 27cd 3B280000 		.4byte	0x283b
 9939 27d1 32       		.uleb128 0x32
 9940 27d2 7A110000 		.4byte	.LASF498
 9941 27d6 04       		.byte	0x4
 9942 27d7 EA03     		.2byte	0x3ea
 9943 27d9 8D120000 		.4byte	0x128d
 9944 27dd 02       		.uleb128 0x2
 9945 27de 91       		.byte	0x91
 9946 27df 64       		.sleb128 -28
 9947 27e0 32       		.uleb128 0x32
 9948 27e1 E90E0000 		.4byte	.LASF499
 9949 27e5 04       		.byte	0x4
 9950 27e6 EA03     		.2byte	0x3ea
 9951 27e8 490F0000 		.4byte	0xf49
 9952 27ec 02       		.uleb128 0x2
 9953 27ed 91       		.byte	0x91
 9954 27ee 63       		.sleb128 -29
 9955 27ef 30       		.uleb128 0x30
 9956 27f0 D5060000 		.4byte	.LASF180
 9957 27f4 04       		.byte	0x4
 9958 27f5 EE03     		.2byte	0x3ee
 9959 27f7 CE000000 		.4byte	0xce
 9960 27fb 02       		.uleb128 0x2
 9961 27fc 91       		.byte	0x91
 9962 27fd 74       		.sleb128 -12
 9963 27fe 30       		.uleb128 0x30
 9964 27ff 8B0E0000 		.4byte	.LASF426
 9965 2803 04       		.byte	0x4
 9966 2804 F403     		.2byte	0x3f4
 9967 2806 8D120000 		.4byte	0x128d
 9968 280a 02       		.uleb128 0x2
 9969 280b 91       		.byte	0x91
 9970 280c 70       		.sleb128 -16
 9971 280d 30       		.uleb128 0x30
 9972 280e 0E020000 		.4byte	.LASF495
 9973 2812 04       		.byte	0x4
 9974 2813 F603     		.2byte	0x3f6
 9975 2815 E4000000 		.4byte	0xe4
 9976 2819 02       		.uleb128 0x2
 9977 281a 91       		.byte	0x91
 9978 281b 6C       		.sleb128 -20
 9979 281c 30       		.uleb128 0x30
ARM GAS  C:\Users\tmj32\AppData\Local\Temp\cc94ZBZn.s 			page 204


 9980 281d F2000000 		.4byte	.LASF496
 9981 2821 04       		.byte	0x4
 9982 2822 F803     		.2byte	0x3f8
 9983 2824 E4000000 		.4byte	0xe4
 9984 2828 02       		.uleb128 0x2
 9985 2829 91       		.byte	0x91
 9986 282a 68       		.sleb128 -24
 9987 282b 34       		.uleb128 0x34
 9988 282c 72657300 		.ascii	"res\000"
 9989 2830 04       		.byte	0x4
 9990 2831 FA03     		.2byte	0x3fa
 9991 2833 E2060000 		.4byte	0x6e2
 9992 2837 02       		.uleb128 0x2
 9993 2838 91       		.byte	0x91
 9994 2839 77       		.sleb128 -9
 9995 283a 00       		.byte	0
 9996 283b 37       		.uleb128 0x37
 9997 283c 0C150000 		.4byte	.LASF500
 9998 2840 04       		.byte	0x4
 9999 2841 0404     		.2byte	0x404
 10000 2843 00000000 		.4byte	.LFB92
 10001 2847 34060000 		.4byte	.LFE92-.LFB92
 10002 284b 01       		.uleb128 0x1
 10003 284c 9C       		.byte	0x9c
 10004 284d D4280000 		.4byte	0x28d4
 10005 2851 32       		.uleb128 0x32
 10006 2852 8B0E0000 		.4byte	.LASF426
 10007 2856 04       		.byte	0x4
 10008 2857 0404     		.2byte	0x404
 10009 2859 8D120000 		.4byte	0x128d
 10010 285d 02       		.uleb128 0x2
 10011 285e 91       		.byte	0x91
 10012 285f 54       		.sleb128 -44
 10013 2860 34       		.uleb128 0x34
 10014 2861 65787400 		.ascii	"ext\000"
 10015 2865 04       		.byte	0x4
 10016 2866 0604     		.2byte	0x406
 10017 2868 6B1E0000 		.4byte	0x1e6b
 10018 286c 02       		.uleb128 0x2
 10019 286d 91       		.byte	0x91
 10020 286e 68       		.sleb128 -24
 10021 286f 30       		.uleb128 0x30
 10022 2870 31090000 		.4byte	.LASF501
 10023 2874 04       		.byte	0x4
 10024 2875 7A04     		.2byte	0x47a
 10025 2877 8D120000 		.4byte	0x128d
 10026 287b 02       		.uleb128 0x2
 10027 287c 91       		.byte	0x91
 10028 287d 6C       		.sleb128 -20
 10029 287e 2E       		.uleb128 0x2e
 10030 287f 7C000000 		.4byte	.LBB12
 10031 2883 88040000 		.4byte	.LBE12-.LBB12
 10032 2887 30       		.uleb128 0x30
 10033 2888 6A160000 		.4byte	.LASF502
 10034 288c 04       		.byte	0x4
 10035 288d 1304     		.2byte	0x413
 10036 288f 3D110000 		.4byte	0x113d
ARM GAS  C:\Users\tmj32\AppData\Local\Temp\cc94ZBZn.s 			page 205


 10037 2893 02       		.uleb128 0x2
 10038 2894 91       		.byte	0x91
 10039 2895 64       		.sleb128 -28
 10040 2896 30       		.uleb128 0x30
 10041 2897 49010000 		.4byte	.LASF503
 10042 289b 04       		.byte	0x4
 10043 289c 1404     		.2byte	0x414
 10044 289e 3D110000 		.4byte	0x113d
 10045 28a2 02       		.uleb128 0x2
 10046 28a3 91       		.byte	0x91
 10047 28a4 60       		.sleb128 -32
 10048 28a5 30       		.uleb128 0x30
 10049 28a6 ED120000 		.4byte	.LASF449
 10050 28aa 04       		.byte	0x4
 10051 28ab 1704     		.2byte	0x417
 10052 28ad EF000000 		.4byte	0xef
 10053 28b1 02       		.uleb128 0x2
 10054 28b2 91       		.byte	0x91
 10055 28b3 5E       		.sleb128 -34
 10056 28b4 30       		.uleb128 0x30
 10057 28b5 F9000000 		.4byte	.LASF450
 10058 28b9 04       		.byte	0x4
 10059 28ba 1804     		.2byte	0x418
 10060 28bc EF000000 		.4byte	0xef
 10061 28c0 02       		.uleb128 0x2
 10062 28c1 91       		.byte	0x91
 10063 28c2 5C       		.sleb128 -36
 10064 28c3 30       		.uleb128 0x30
 10065 28c4 9D030000 		.4byte	.LASF504
 10066 28c8 04       		.byte	0x4
 10067 28c9 3004     		.2byte	0x430
 10068 28cb EF000000 		.4byte	0xef
 10069 28cf 02       		.uleb128 0x2
 10070 28d0 91       		.byte	0x91
 10071 28d1 5A       		.sleb128 -38
 10072 28d2 00       		.byte	0
 10073 28d3 00       		.byte	0
 10074 28d4 2B       		.uleb128 0x2b
 10075 28d5 B1130000 		.4byte	.LASF505
 10076 28d9 04       		.byte	0x4
 10077 28da 34       		.byte	0x34
 10078 28db 05100000 		.4byte	0x1005
 10079 28df 05       		.uleb128 0x5
 10080 28e0 03       		.byte	0x3
 10081 28e1 00000000 		.4byte	ancestor_signal
 10082 28e5 2B       		.uleb128 0x2b
 10083 28e6 A5040000 		.4byte	.LASF506
 10084 28ea 04       		.byte	0x4
 10085 28eb 35       		.byte	0x35
 10086 28ec 05100000 		.4byte	0x1005
 10087 28f0 05       		.uleb128 0x5
 10088 28f1 03       		.byte	0x3
 10089 28f2 04000000 		.4byte	page_signal
 10090 28f6 2B       		.uleb128 0x2b
 10091 28f7 B11B0000 		.4byte	.LASF507
 10092 28fb 04       		.byte	0x4
 10093 28fc 36       		.byte	0x36
ARM GAS  C:\Users\tmj32\AppData\Local\Temp\cc94ZBZn.s 			page 206


 10094 28fd 05100000 		.4byte	0x1005
 10095 2901 05       		.uleb128 0x5
 10096 2902 03       		.byte	0x3
 10097 2903 08000000 		.4byte	page_scrl_signal
 10098 2907 1B       		.uleb128 0x1b
 10099 2908 B1020000 		.4byte	0x2b1
 10100 290c 17290000 		.4byte	0x2917
 10101 2910 1C       		.uleb128 0x1c
 10102 2911 9D020000 		.4byte	0x29d
 10103 2915 00       		.byte	0
 10104 2916 00       		.byte	0
 10105 2917 2B       		.uleb128 0x2b
 10106 2918 7E190000 		.4byte	.LASF508
 10107 291c 04       		.byte	0x4
 10108 291d 37       		.byte	0x37
 10109 291e 07290000 		.4byte	0x2907
 10110 2922 05       		.uleb128 0x5
 10111 2923 03       		.byte	0x3
 10112 2924 00000000 		.4byte	tab_def
 10113 2928 38       		.uleb128 0x38
 10114 2929 12080000 		.4byte	.LASF509
 10115 292d 0A       		.byte	0xa
 10116 292e 0C01     		.2byte	0x10c
 10117 2930 B8060000 		.4byte	0x6b8
 10118 2934 38       		.uleb128 0x38
 10119 2935 8A170000 		.4byte	.LASF510
 10120 2939 0A       		.byte	0xa
 10121 293a 0E01     		.2byte	0x10e
 10122 293c B8060000 		.4byte	0x6b8
 10123 2940 38       		.uleb128 0x38
 10124 2941 10100000 		.4byte	.LASF511
 10125 2945 0A       		.byte	0xa
 10126 2946 0F01     		.2byte	0x10f
 10127 2948 B8060000 		.4byte	0x6b8
 10128 294c 38       		.uleb128 0x38
 10129 294d B1170000 		.4byte	.LASF512
 10130 2951 0A       		.byte	0xa
 10131 2952 1001     		.2byte	0x110
 10132 2954 B8060000 		.4byte	0x6b8
 10133 2958 38       		.uleb128 0x38
 10134 2959 38160000 		.4byte	.LASF513
 10135 295d 0A       		.byte	0xa
 10136 295e 1101     		.2byte	0x111
 10137 2960 B8060000 		.4byte	0x6b8
 10138 2964 00       		.byte	0
 10139              		.section	.debug_abbrev,"",%progbits
 10140              	.Ldebug_abbrev0:
 10141 0000 01       		.uleb128 0x1
 10142 0001 11       		.uleb128 0x11
 10143 0002 01       		.byte	0x1
 10144 0003 25       		.uleb128 0x25
 10145 0004 0E       		.uleb128 0xe
 10146 0005 13       		.uleb128 0x13
 10147 0006 0B       		.uleb128 0xb
 10148 0007 03       		.uleb128 0x3
 10149 0008 0E       		.uleb128 0xe
 10150 0009 1B       		.uleb128 0x1b
ARM GAS  C:\Users\tmj32\AppData\Local\Temp\cc94ZBZn.s 			page 207


 10151 000a 0E       		.uleb128 0xe
 10152 000b 55       		.uleb128 0x55
 10153 000c 17       		.uleb128 0x17
 10154 000d 11       		.uleb128 0x11
 10155 000e 01       		.uleb128 0x1
 10156 000f 10       		.uleb128 0x10
 10157 0010 17       		.uleb128 0x17
 10158 0011 00       		.byte	0
 10159 0012 00       		.byte	0
 10160 0013 02       		.uleb128 0x2
 10161 0014 16       		.uleb128 0x16
 10162 0015 00       		.byte	0
 10163 0016 03       		.uleb128 0x3
 10164 0017 0E       		.uleb128 0xe
 10165 0018 3A       		.uleb128 0x3a
 10166 0019 0B       		.uleb128 0xb
 10167 001a 3B       		.uleb128 0x3b
 10168 001b 0B       		.uleb128 0xb
 10169 001c 49       		.uleb128 0x49
 10170 001d 13       		.uleb128 0x13
 10171 001e 00       		.byte	0
 10172 001f 00       		.byte	0
 10173 0020 03       		.uleb128 0x3
 10174 0021 24       		.uleb128 0x24
 10175 0022 00       		.byte	0
 10176 0023 0B       		.uleb128 0xb
 10177 0024 0B       		.uleb128 0xb
 10178 0025 3E       		.uleb128 0x3e
 10179 0026 0B       		.uleb128 0xb
 10180 0027 03       		.uleb128 0x3
 10181 0028 0E       		.uleb128 0xe
 10182 0029 00       		.byte	0
 10183 002a 00       		.byte	0
 10184 002b 04       		.uleb128 0x4
 10185 002c 24       		.uleb128 0x24
 10186 002d 00       		.byte	0
 10187 002e 0B       		.uleb128 0xb
 10188 002f 0B       		.uleb128 0xb
 10189 0030 3E       		.uleb128 0x3e
 10190 0031 0B       		.uleb128 0xb
 10191 0032 03       		.uleb128 0x3
 10192 0033 08       		.uleb128 0x8
 10193 0034 00       		.byte	0
 10194 0035 00       		.byte	0
 10195 0036 05       		.uleb128 0x5
 10196 0037 0F       		.uleb128 0xf
 10197 0038 00       		.byte	0
 10198 0039 0B       		.uleb128 0xb
 10199 003a 0B       		.uleb128 0xb
 10200 003b 00       		.byte	0
 10201 003c 00       		.byte	0
 10202 003d 06       		.uleb128 0x6
 10203 003e 13       		.uleb128 0x13
 10204 003f 01       		.byte	0x1
 10205 0040 0B       		.uleb128 0xb
 10206 0041 0B       		.uleb128 0xb
 10207 0042 3A       		.uleb128 0x3a
ARM GAS  C:\Users\tmj32\AppData\Local\Temp\cc94ZBZn.s 			page 208


 10208 0043 0B       		.uleb128 0xb
 10209 0044 3B       		.uleb128 0x3b
 10210 0045 0B       		.uleb128 0xb
 10211 0046 01       		.uleb128 0x1
 10212 0047 13       		.uleb128 0x13
 10213 0048 00       		.byte	0
 10214 0049 00       		.byte	0
 10215 004a 07       		.uleb128 0x7
 10216 004b 0D       		.uleb128 0xd
 10217 004c 00       		.byte	0
 10218 004d 03       		.uleb128 0x3
 10219 004e 0E       		.uleb128 0xe
 10220 004f 3A       		.uleb128 0x3a
 10221 0050 0B       		.uleb128 0xb
 10222 0051 3B       		.uleb128 0x3b
 10223 0052 0B       		.uleb128 0xb
 10224 0053 49       		.uleb128 0x49
 10225 0054 13       		.uleb128 0x13
 10226 0055 38       		.uleb128 0x38
 10227 0056 0B       		.uleb128 0xb
 10228 0057 00       		.byte	0
 10229 0058 00       		.byte	0
 10230 0059 08       		.uleb128 0x8
 10231 005a 0D       		.uleb128 0xd
 10232 005b 00       		.byte	0
 10233 005c 03       		.uleb128 0x3
 10234 005d 08       		.uleb128 0x8
 10235 005e 3A       		.uleb128 0x3a
 10236 005f 0B       		.uleb128 0xb
 10237 0060 3B       		.uleb128 0x3b
 10238 0061 0B       		.uleb128 0xb
 10239 0062 49       		.uleb128 0x49
 10240 0063 13       		.uleb128 0x13
 10241 0064 38       		.uleb128 0x38
 10242 0065 0B       		.uleb128 0xb
 10243 0066 00       		.byte	0
 10244 0067 00       		.byte	0
 10245 0068 09       		.uleb128 0x9
 10246 0069 13       		.uleb128 0x13
 10247 006a 01       		.byte	0x1
 10248 006b 03       		.uleb128 0x3
 10249 006c 0E       		.uleb128 0xe
 10250 006d 0B       		.uleb128 0xb
 10251 006e 0B       		.uleb128 0xb
 10252 006f 3A       		.uleb128 0x3a
 10253 0070 0B       		.uleb128 0xb
 10254 0071 3B       		.uleb128 0x3b
 10255 0072 0B       		.uleb128 0xb
 10256 0073 01       		.uleb128 0x1
 10257 0074 13       		.uleb128 0x13
 10258 0075 00       		.byte	0
 10259 0076 00       		.byte	0
 10260 0077 0A       		.uleb128 0xa
 10261 0078 0D       		.uleb128 0xd
 10262 0079 00       		.byte	0
 10263 007a 03       		.uleb128 0x3
 10264 007b 0E       		.uleb128 0xe
ARM GAS  C:\Users\tmj32\AppData\Local\Temp\cc94ZBZn.s 			page 209


 10265 007c 3A       		.uleb128 0x3a
 10266 007d 0B       		.uleb128 0xb
 10267 007e 3B       		.uleb128 0x3b
 10268 007f 0B       		.uleb128 0xb
 10269 0080 49       		.uleb128 0x49
 10270 0081 13       		.uleb128 0x13
 10271 0082 0B       		.uleb128 0xb
 10272 0083 0B       		.uleb128 0xb
 10273 0084 0D       		.uleb128 0xd
 10274 0085 0B       		.uleb128 0xb
 10275 0086 0C       		.uleb128 0xc
 10276 0087 0B       		.uleb128 0xb
 10277 0088 38       		.uleb128 0x38
 10278 0089 0B       		.uleb128 0xb
 10279 008a 00       		.byte	0
 10280 008b 00       		.byte	0
 10281 008c 0B       		.uleb128 0xb
 10282 008d 15       		.uleb128 0x15
 10283 008e 01       		.byte	0x1
 10284 008f 27       		.uleb128 0x27
 10285 0090 19       		.uleb128 0x19
 10286 0091 49       		.uleb128 0x49
 10287 0092 13       		.uleb128 0x13
 10288 0093 01       		.uleb128 0x1
 10289 0094 13       		.uleb128 0x13
 10290 0095 00       		.byte	0
 10291 0096 00       		.byte	0
 10292 0097 0C       		.uleb128 0xc
 10293 0098 05       		.uleb128 0x5
 10294 0099 00       		.byte	0
 10295 009a 49       		.uleb128 0x49
 10296 009b 13       		.uleb128 0x13
 10297 009c 00       		.byte	0
 10298 009d 00       		.byte	0
 10299 009e 0D       		.uleb128 0xd
 10300 009f 0F       		.uleb128 0xf
 10301 00a0 00       		.byte	0
 10302 00a1 0B       		.uleb128 0xb
 10303 00a2 0B       		.uleb128 0xb
 10304 00a3 49       		.uleb128 0x49
 10305 00a4 13       		.uleb128 0x13
 10306 00a5 00       		.byte	0
 10307 00a6 00       		.byte	0
 10308 00a7 0E       		.uleb128 0xe
 10309 00a8 26       		.uleb128 0x26
 10310 00a9 00       		.byte	0
 10311 00aa 49       		.uleb128 0x49
 10312 00ab 13       		.uleb128 0x13
 10313 00ac 00       		.byte	0
 10314 00ad 00       		.byte	0
 10315 00ae 0F       		.uleb128 0xf
 10316 00af 17       		.uleb128 0x17
 10317 00b0 01       		.byte	0x1
 10318 00b1 0B       		.uleb128 0xb
 10319 00b2 0B       		.uleb128 0xb
 10320 00b3 3A       		.uleb128 0x3a
 10321 00b4 0B       		.uleb128 0xb
ARM GAS  C:\Users\tmj32\AppData\Local\Temp\cc94ZBZn.s 			page 210


 10322 00b5 3B       		.uleb128 0x3b
 10323 00b6 0B       		.uleb128 0xb
 10324 00b7 01       		.uleb128 0x1
 10325 00b8 13       		.uleb128 0x13
 10326 00b9 00       		.byte	0
 10327 00ba 00       		.byte	0
 10328 00bb 10       		.uleb128 0x10
 10329 00bc 0D       		.uleb128 0xd
 10330 00bd 00       		.byte	0
 10331 00be 03       		.uleb128 0x3
 10332 00bf 08       		.uleb128 0x8
 10333 00c0 3A       		.uleb128 0x3a
 10334 00c1 0B       		.uleb128 0xb
 10335 00c2 3B       		.uleb128 0x3b
 10336 00c3 0B       		.uleb128 0xb
 10337 00c4 49       		.uleb128 0x49
 10338 00c5 13       		.uleb128 0x13
 10339 00c6 00       		.byte	0
 10340 00c7 00       		.byte	0
 10341 00c8 11       		.uleb128 0x11
 10342 00c9 0D       		.uleb128 0xd
 10343 00ca 00       		.byte	0
 10344 00cb 03       		.uleb128 0x3
 10345 00cc 0E       		.uleb128 0xe
 10346 00cd 3A       		.uleb128 0x3a
 10347 00ce 0B       		.uleb128 0xb
 10348 00cf 3B       		.uleb128 0x3b
 10349 00d0 0B       		.uleb128 0xb
 10350 00d1 49       		.uleb128 0x49
 10351 00d2 13       		.uleb128 0x13
 10352 00d3 00       		.byte	0
 10353 00d4 00       		.byte	0
 10354 00d5 12       		.uleb128 0x12
 10355 00d6 16       		.uleb128 0x16
 10356 00d7 00       		.byte	0
 10357 00d8 03       		.uleb128 0x3
 10358 00d9 0E       		.uleb128 0xe
 10359 00da 3A       		.uleb128 0x3a
 10360 00db 0B       		.uleb128 0xb
 10361 00dc 3B       		.uleb128 0x3b
 10362 00dd 05       		.uleb128 0x5
 10363 00de 49       		.uleb128 0x49
 10364 00df 13       		.uleb128 0x13
 10365 00e0 00       		.byte	0
 10366 00e1 00       		.byte	0
 10367 00e2 13       		.uleb128 0x13
 10368 00e3 04       		.uleb128 0x4
 10369 00e4 01       		.byte	0x1
 10370 00e5 0B       		.uleb128 0xb
 10371 00e6 0B       		.uleb128 0xb
 10372 00e7 49       		.uleb128 0x49
 10373 00e8 13       		.uleb128 0x13
 10374 00e9 3A       		.uleb128 0x3a
 10375 00ea 0B       		.uleb128 0xb
 10376 00eb 3B       		.uleb128 0x3b
 10377 00ec 0B       		.uleb128 0xb
 10378 00ed 01       		.uleb128 0x1
ARM GAS  C:\Users\tmj32\AppData\Local\Temp\cc94ZBZn.s 			page 211


 10379 00ee 13       		.uleb128 0x13
 10380 00ef 00       		.byte	0
 10381 00f0 00       		.byte	0
 10382 00f1 14       		.uleb128 0x14
 10383 00f2 28       		.uleb128 0x28
 10384 00f3 00       		.byte	0
 10385 00f4 03       		.uleb128 0x3
 10386 00f5 0E       		.uleb128 0xe
 10387 00f6 1C       		.uleb128 0x1c
 10388 00f7 0B       		.uleb128 0xb
 10389 00f8 00       		.byte	0
 10390 00f9 00       		.byte	0
 10391 00fa 15       		.uleb128 0x15
 10392 00fb 15       		.uleb128 0x15
 10393 00fc 01       		.byte	0x1
 10394 00fd 27       		.uleb128 0x27
 10395 00fe 19       		.uleb128 0x19
 10396 00ff 01       		.uleb128 0x1
 10397 0100 13       		.uleb128 0x13
 10398 0101 00       		.byte	0
 10399 0102 00       		.byte	0
 10400 0103 16       		.uleb128 0x16
 10401 0104 35       		.uleb128 0x35
 10402 0105 00       		.byte	0
 10403 0106 49       		.uleb128 0x49
 10404 0107 13       		.uleb128 0x13
 10405 0108 00       		.byte	0
 10406 0109 00       		.byte	0
 10407 010a 17       		.uleb128 0x17
 10408 010b 13       		.uleb128 0x13
 10409 010c 01       		.byte	0x1
 10410 010d 03       		.uleb128 0x3
 10411 010e 0E       		.uleb128 0xe
 10412 010f 0B       		.uleb128 0xb
 10413 0110 05       		.uleb128 0x5
 10414 0111 3A       		.uleb128 0x3a
 10415 0112 0B       		.uleb128 0xb
 10416 0113 3B       		.uleb128 0x3b
 10417 0114 0B       		.uleb128 0xb
 10418 0115 01       		.uleb128 0x1
 10419 0116 13       		.uleb128 0x13
 10420 0117 00       		.byte	0
 10421 0118 00       		.byte	0
 10422 0119 18       		.uleb128 0x18
 10423 011a 0D       		.uleb128 0xd
 10424 011b 00       		.byte	0
 10425 011c 03       		.uleb128 0x3
 10426 011d 0E       		.uleb128 0xe
 10427 011e 3A       		.uleb128 0x3a
 10428 011f 0B       		.uleb128 0xb
 10429 0120 3B       		.uleb128 0x3b
 10430 0121 0B       		.uleb128 0xb
 10431 0122 49       		.uleb128 0x49
 10432 0123 13       		.uleb128 0x13
 10433 0124 38       		.uleb128 0x38
 10434 0125 05       		.uleb128 0x5
 10435 0126 00       		.byte	0
ARM GAS  C:\Users\tmj32\AppData\Local\Temp\cc94ZBZn.s 			page 212


 10436 0127 00       		.byte	0
 10437 0128 19       		.uleb128 0x19
 10438 0129 0D       		.uleb128 0xd
 10439 012a 00       		.byte	0
 10440 012b 03       		.uleb128 0x3
 10441 012c 0E       		.uleb128 0xe
 10442 012d 3A       		.uleb128 0x3a
 10443 012e 0B       		.uleb128 0xb
 10444 012f 3B       		.uleb128 0x3b
 10445 0130 0B       		.uleb128 0xb
 10446 0131 49       		.uleb128 0x49
 10447 0132 13       		.uleb128 0x13
 10448 0133 0B       		.uleb128 0xb
 10449 0134 0B       		.uleb128 0xb
 10450 0135 0D       		.uleb128 0xd
 10451 0136 0B       		.uleb128 0xb
 10452 0137 0C       		.uleb128 0xc
 10453 0138 0B       		.uleb128 0xb
 10454 0139 38       		.uleb128 0x38
 10455 013a 05       		.uleb128 0x5
 10456 013b 00       		.byte	0
 10457 013c 00       		.byte	0
 10458 013d 1A       		.uleb128 0x1a
 10459 013e 0D       		.uleb128 0xd
 10460 013f 00       		.byte	0
 10461 0140 03       		.uleb128 0x3
 10462 0141 08       		.uleb128 0x8
 10463 0142 3A       		.uleb128 0x3a
 10464 0143 0B       		.uleb128 0xb
 10465 0144 3B       		.uleb128 0x3b
 10466 0145 0B       		.uleb128 0xb
 10467 0146 49       		.uleb128 0x49
 10468 0147 13       		.uleb128 0x13
 10469 0148 0B       		.uleb128 0xb
 10470 0149 0B       		.uleb128 0xb
 10471 014a 0D       		.uleb128 0xd
 10472 014b 0B       		.uleb128 0xb
 10473 014c 0C       		.uleb128 0xc
 10474 014d 0B       		.uleb128 0xb
 10475 014e 38       		.uleb128 0x38
 10476 014f 0B       		.uleb128 0xb
 10477 0150 00       		.byte	0
 10478 0151 00       		.byte	0
 10479 0152 1B       		.uleb128 0x1b
 10480 0153 01       		.uleb128 0x1
 10481 0154 01       		.byte	0x1
 10482 0155 49       		.uleb128 0x49
 10483 0156 13       		.uleb128 0x13
 10484 0157 01       		.uleb128 0x1
 10485 0158 13       		.uleb128 0x13
 10486 0159 00       		.byte	0
 10487 015a 00       		.byte	0
 10488 015b 1C       		.uleb128 0x1c
 10489 015c 21       		.uleb128 0x21
 10490 015d 00       		.byte	0
 10491 015e 49       		.uleb128 0x49
 10492 015f 13       		.uleb128 0x13
ARM GAS  C:\Users\tmj32\AppData\Local\Temp\cc94ZBZn.s 			page 213


 10493 0160 2F       		.uleb128 0x2f
 10494 0161 0B       		.uleb128 0xb
 10495 0162 00       		.byte	0
 10496 0163 00       		.byte	0
 10497 0164 1D       		.uleb128 0x1d
 10498 0165 13       		.uleb128 0x13
 10499 0166 00       		.byte	0
 10500 0167 03       		.uleb128 0x3
 10501 0168 0E       		.uleb128 0xe
 10502 0169 3C       		.uleb128 0x3c
 10503 016a 19       		.uleb128 0x19
 10504 016b 00       		.byte	0
 10505 016c 00       		.byte	0
 10506 016d 1E       		.uleb128 0x1e
 10507 016e 28       		.uleb128 0x28
 10508 016f 00       		.byte	0
 10509 0170 03       		.uleb128 0x3
 10510 0171 0E       		.uleb128 0xe
 10511 0172 1C       		.uleb128 0x1c
 10512 0173 05       		.uleb128 0x5
 10513 0174 00       		.byte	0
 10514 0175 00       		.byte	0
 10515 0176 1F       		.uleb128 0x1f
 10516 0177 0D       		.uleb128 0xd
 10517 0178 00       		.byte	0
 10518 0179 03       		.uleb128 0x3
 10519 017a 08       		.uleb128 0x8
 10520 017b 3A       		.uleb128 0x3a
 10521 017c 0B       		.uleb128 0xb
 10522 017d 3B       		.uleb128 0x3b
 10523 017e 05       		.uleb128 0x5
 10524 017f 49       		.uleb128 0x49
 10525 0180 13       		.uleb128 0x13
 10526 0181 38       		.uleb128 0x38
 10527 0182 0B       		.uleb128 0xb
 10528 0183 00       		.byte	0
 10529 0184 00       		.byte	0
 10530 0185 20       		.uleb128 0x20
 10531 0186 0D       		.uleb128 0xd
 10532 0187 00       		.byte	0
 10533 0188 03       		.uleb128 0x3
 10534 0189 0E       		.uleb128 0xe
 10535 018a 3A       		.uleb128 0x3a
 10536 018b 0B       		.uleb128 0xb
 10537 018c 3B       		.uleb128 0x3b
 10538 018d 05       		.uleb128 0x5
 10539 018e 49       		.uleb128 0x49
 10540 018f 13       		.uleb128 0x13
 10541 0190 38       		.uleb128 0x38
 10542 0191 0B       		.uleb128 0xb
 10543 0192 00       		.byte	0
 10544 0193 00       		.byte	0
 10545 0194 21       		.uleb128 0x21
 10546 0195 13       		.uleb128 0x13
 10547 0196 01       		.byte	0x1
 10548 0197 0B       		.uleb128 0xb
 10549 0198 0B       		.uleb128 0xb
ARM GAS  C:\Users\tmj32\AppData\Local\Temp\cc94ZBZn.s 			page 214


 10550 0199 3A       		.uleb128 0x3a
 10551 019a 0B       		.uleb128 0xb
 10552 019b 3B       		.uleb128 0x3b
 10553 019c 05       		.uleb128 0x5
 10554 019d 01       		.uleb128 0x1
 10555 019e 13       		.uleb128 0x13
 10556 019f 00       		.byte	0
 10557 01a0 00       		.byte	0
 10558 01a1 22       		.uleb128 0x22
 10559 01a2 13       		.uleb128 0x13
 10560 01a3 01       		.byte	0x1
 10561 01a4 0B       		.uleb128 0xb
 10562 01a5 05       		.uleb128 0x5
 10563 01a6 3A       		.uleb128 0x3a
 10564 01a7 0B       		.uleb128 0xb
 10565 01a8 3B       		.uleb128 0x3b
 10566 01a9 0B       		.uleb128 0xb
 10567 01aa 01       		.uleb128 0x1
 10568 01ab 13       		.uleb128 0x13
 10569 01ac 00       		.byte	0
 10570 01ad 00       		.byte	0
 10571 01ae 23       		.uleb128 0x23
 10572 01af 0D       		.uleb128 0xd
 10573 01b0 00       		.byte	0
 10574 01b1 03       		.uleb128 0x3
 10575 01b2 08       		.uleb128 0x8
 10576 01b3 3A       		.uleb128 0x3a
 10577 01b4 0B       		.uleb128 0xb
 10578 01b5 3B       		.uleb128 0x3b
 10579 01b6 0B       		.uleb128 0xb
 10580 01b7 49       		.uleb128 0x49
 10581 01b8 13       		.uleb128 0x13
 10582 01b9 38       		.uleb128 0x38
 10583 01ba 05       		.uleb128 0x5
 10584 01bb 00       		.byte	0
 10585 01bc 00       		.byte	0
 10586 01bd 24       		.uleb128 0x24
 10587 01be 0D       		.uleb128 0xd
 10588 01bf 00       		.byte	0
 10589 01c0 03       		.uleb128 0x3
 10590 01c1 0E       		.uleb128 0xe
 10591 01c2 3A       		.uleb128 0x3a
 10592 01c3 0B       		.uleb128 0xb
 10593 01c4 3B       		.uleb128 0x3b
 10594 01c5 05       		.uleb128 0x5
 10595 01c6 49       		.uleb128 0x49
 10596 01c7 13       		.uleb128 0x13
 10597 01c8 38       		.uleb128 0x38
 10598 01c9 05       		.uleb128 0x5
 10599 01ca 00       		.byte	0
 10600 01cb 00       		.byte	0
 10601 01cc 25       		.uleb128 0x25
 10602 01cd 0D       		.uleb128 0xd
 10603 01ce 00       		.byte	0
 10604 01cf 03       		.uleb128 0x3
 10605 01d0 08       		.uleb128 0x8
 10606 01d1 3A       		.uleb128 0x3a
ARM GAS  C:\Users\tmj32\AppData\Local\Temp\cc94ZBZn.s 			page 215


 10607 01d2 0B       		.uleb128 0xb
 10608 01d3 3B       		.uleb128 0x3b
 10609 01d4 05       		.uleb128 0x5
 10610 01d5 49       		.uleb128 0x49
 10611 01d6 13       		.uleb128 0x13
 10612 01d7 38       		.uleb128 0x38
 10613 01d8 05       		.uleb128 0x5
 10614 01d9 00       		.byte	0
 10615 01da 00       		.byte	0
 10616 01db 26       		.uleb128 0x26
 10617 01dc 2E       		.uleb128 0x2e
 10618 01dd 01       		.byte	0x1
 10619 01de 03       		.uleb128 0x3
 10620 01df 0E       		.uleb128 0xe
 10621 01e0 3A       		.uleb128 0x3a
 10622 01e1 0B       		.uleb128 0xb
 10623 01e2 3B       		.uleb128 0x3b
 10624 01e3 0B       		.uleb128 0xb
 10625 01e4 27       		.uleb128 0x27
 10626 01e5 19       		.uleb128 0x19
 10627 01e6 49       		.uleb128 0x49
 10628 01e7 13       		.uleb128 0x13
 10629 01e8 11       		.uleb128 0x11
 10630 01e9 01       		.uleb128 0x1
 10631 01ea 12       		.uleb128 0x12
 10632 01eb 06       		.uleb128 0x6
 10633 01ec 40       		.uleb128 0x40
 10634 01ed 18       		.uleb128 0x18
 10635 01ee 9742     		.uleb128 0x2117
 10636 01f0 19       		.uleb128 0x19
 10637 01f1 01       		.uleb128 0x1
 10638 01f2 13       		.uleb128 0x13
 10639 01f3 00       		.byte	0
 10640 01f4 00       		.byte	0
 10641 01f5 27       		.uleb128 0x27
 10642 01f6 05       		.uleb128 0x5
 10643 01f7 00       		.byte	0
 10644 01f8 03       		.uleb128 0x3
 10645 01f9 0E       		.uleb128 0xe
 10646 01fa 3A       		.uleb128 0x3a
 10647 01fb 0B       		.uleb128 0xb
 10648 01fc 3B       		.uleb128 0x3b
 10649 01fd 0B       		.uleb128 0xb
 10650 01fe 49       		.uleb128 0x49
 10651 01ff 13       		.uleb128 0x13
 10652 0200 02       		.uleb128 0x2
 10653 0201 18       		.uleb128 0x18
 10654 0202 00       		.byte	0
 10655 0203 00       		.byte	0
 10656 0204 28       		.uleb128 0x28
 10657 0205 2E       		.uleb128 0x2e
 10658 0206 01       		.byte	0x1
 10659 0207 03       		.uleb128 0x3
 10660 0208 0E       		.uleb128 0xe
 10661 0209 3A       		.uleb128 0x3a
 10662 020a 0B       		.uleb128 0xb
 10663 020b 3B       		.uleb128 0x3b
ARM GAS  C:\Users\tmj32\AppData\Local\Temp\cc94ZBZn.s 			page 216


 10664 020c 0B       		.uleb128 0xb
 10665 020d 27       		.uleb128 0x27
 10666 020e 19       		.uleb128 0x19
 10667 020f 11       		.uleb128 0x11
 10668 0210 01       		.uleb128 0x1
 10669 0211 12       		.uleb128 0x12
 10670 0212 06       		.uleb128 0x6
 10671 0213 40       		.uleb128 0x40
 10672 0214 18       		.uleb128 0x18
 10673 0215 9642     		.uleb128 0x2116
 10674 0217 19       		.uleb128 0x19
 10675 0218 01       		.uleb128 0x1
 10676 0219 13       		.uleb128 0x13
 10677 021a 00       		.byte	0
 10678 021b 00       		.byte	0
 10679 021c 29       		.uleb128 0x29
 10680 021d 05       		.uleb128 0x5
 10681 021e 00       		.byte	0
 10682 021f 03       		.uleb128 0x3
 10683 0220 08       		.uleb128 0x8
 10684 0221 3A       		.uleb128 0x3a
 10685 0222 0B       		.uleb128 0xb
 10686 0223 3B       		.uleb128 0x3b
 10687 0224 0B       		.uleb128 0xb
 10688 0225 49       		.uleb128 0x49
 10689 0226 13       		.uleb128 0x13
 10690 0227 02       		.uleb128 0x2
 10691 0228 18       		.uleb128 0x18
 10692 0229 00       		.byte	0
 10693 022a 00       		.byte	0
 10694 022b 2A       		.uleb128 0x2a
 10695 022c 2E       		.uleb128 0x2e
 10696 022d 01       		.byte	0x1
 10697 022e 3F       		.uleb128 0x3f
 10698 022f 19       		.uleb128 0x19
 10699 0230 03       		.uleb128 0x3
 10700 0231 0E       		.uleb128 0xe
 10701 0232 3A       		.uleb128 0x3a
 10702 0233 0B       		.uleb128 0xb
 10703 0234 3B       		.uleb128 0x3b
 10704 0235 0B       		.uleb128 0xb
 10705 0236 27       		.uleb128 0x27
 10706 0237 19       		.uleb128 0x19
 10707 0238 49       		.uleb128 0x49
 10708 0239 13       		.uleb128 0x13
 10709 023a 11       		.uleb128 0x11
 10710 023b 01       		.uleb128 0x1
 10711 023c 12       		.uleb128 0x12
 10712 023d 06       		.uleb128 0x6
 10713 023e 40       		.uleb128 0x40
 10714 023f 18       		.uleb128 0x18
 10715 0240 9642     		.uleb128 0x2116
 10716 0242 19       		.uleb128 0x19
 10717 0243 01       		.uleb128 0x1
 10718 0244 13       		.uleb128 0x13
 10719 0245 00       		.byte	0
 10720 0246 00       		.byte	0
ARM GAS  C:\Users\tmj32\AppData\Local\Temp\cc94ZBZn.s 			page 217


 10721 0247 2B       		.uleb128 0x2b
 10722 0248 34       		.uleb128 0x34
 10723 0249 00       		.byte	0
 10724 024a 03       		.uleb128 0x3
 10725 024b 0E       		.uleb128 0xe
 10726 024c 3A       		.uleb128 0x3a
 10727 024d 0B       		.uleb128 0xb
 10728 024e 3B       		.uleb128 0x3b
 10729 024f 0B       		.uleb128 0xb
 10730 0250 49       		.uleb128 0x49
 10731 0251 13       		.uleb128 0x13
 10732 0252 02       		.uleb128 0x2
 10733 0253 18       		.uleb128 0x18
 10734 0254 00       		.byte	0
 10735 0255 00       		.byte	0
 10736 0256 2C       		.uleb128 0x2c
 10737 0257 34       		.uleb128 0x34
 10738 0258 00       		.byte	0
 10739 0259 03       		.uleb128 0x3
 10740 025a 08       		.uleb128 0x8
 10741 025b 3A       		.uleb128 0x3a
 10742 025c 0B       		.uleb128 0xb
 10743 025d 3B       		.uleb128 0x3b
 10744 025e 0B       		.uleb128 0xb
 10745 025f 49       		.uleb128 0x49
 10746 0260 13       		.uleb128 0x13
 10747 0261 02       		.uleb128 0x2
 10748 0262 18       		.uleb128 0x18
 10749 0263 00       		.byte	0
 10750 0264 00       		.byte	0
 10751 0265 2D       		.uleb128 0x2d
 10752 0266 0B       		.uleb128 0xb
 10753 0267 01       		.byte	0x1
 10754 0268 11       		.uleb128 0x11
 10755 0269 01       		.uleb128 0x1
 10756 026a 12       		.uleb128 0x12
 10757 026b 06       		.uleb128 0x6
 10758 026c 01       		.uleb128 0x1
 10759 026d 13       		.uleb128 0x13
 10760 026e 00       		.byte	0
 10761 026f 00       		.byte	0
 10762 0270 2E       		.uleb128 0x2e
 10763 0271 0B       		.uleb128 0xb
 10764 0272 01       		.byte	0x1
 10765 0273 11       		.uleb128 0x11
 10766 0274 01       		.uleb128 0x1
 10767 0275 12       		.uleb128 0x12
 10768 0276 06       		.uleb128 0x6
 10769 0277 00       		.byte	0
 10770 0278 00       		.byte	0
 10771 0279 2F       		.uleb128 0x2f
 10772 027a 2E       		.uleb128 0x2e
 10773 027b 01       		.byte	0x1
 10774 027c 3F       		.uleb128 0x3f
 10775 027d 19       		.uleb128 0x19
 10776 027e 03       		.uleb128 0x3
 10777 027f 0E       		.uleb128 0xe
ARM GAS  C:\Users\tmj32\AppData\Local\Temp\cc94ZBZn.s 			page 218


 10778 0280 3A       		.uleb128 0x3a
 10779 0281 0B       		.uleb128 0xb
 10780 0282 3B       		.uleb128 0x3b
 10781 0283 0B       		.uleb128 0xb
 10782 0284 27       		.uleb128 0x27
 10783 0285 19       		.uleb128 0x19
 10784 0286 11       		.uleb128 0x11
 10785 0287 01       		.uleb128 0x1
 10786 0288 12       		.uleb128 0x12
 10787 0289 06       		.uleb128 0x6
 10788 028a 40       		.uleb128 0x40
 10789 028b 18       		.uleb128 0x18
 10790 028c 9642     		.uleb128 0x2116
 10791 028e 19       		.uleb128 0x19
 10792 028f 01       		.uleb128 0x1
 10793 0290 13       		.uleb128 0x13
 10794 0291 00       		.byte	0
 10795 0292 00       		.byte	0
 10796 0293 30       		.uleb128 0x30
 10797 0294 34       		.uleb128 0x34
 10798 0295 00       		.byte	0
 10799 0296 03       		.uleb128 0x3
 10800 0297 0E       		.uleb128 0xe
 10801 0298 3A       		.uleb128 0x3a
 10802 0299 0B       		.uleb128 0xb
 10803 029a 3B       		.uleb128 0x3b
 10804 029b 05       		.uleb128 0x5
 10805 029c 49       		.uleb128 0x49
 10806 029d 13       		.uleb128 0x13
 10807 029e 02       		.uleb128 0x2
 10808 029f 18       		.uleb128 0x18
 10809 02a0 00       		.byte	0
 10810 02a1 00       		.byte	0
 10811 02a2 31       		.uleb128 0x31
 10812 02a3 2E       		.uleb128 0x2e
 10813 02a4 01       		.byte	0x1
 10814 02a5 3F       		.uleb128 0x3f
 10815 02a6 19       		.uleb128 0x19
 10816 02a7 03       		.uleb128 0x3
 10817 02a8 0E       		.uleb128 0xe
 10818 02a9 3A       		.uleb128 0x3a
 10819 02aa 0B       		.uleb128 0xb
 10820 02ab 3B       		.uleb128 0x3b
 10821 02ac 05       		.uleb128 0x5
 10822 02ad 27       		.uleb128 0x27
 10823 02ae 19       		.uleb128 0x19
 10824 02af 11       		.uleb128 0x11
 10825 02b0 01       		.uleb128 0x1
 10826 02b1 12       		.uleb128 0x12
 10827 02b2 06       		.uleb128 0x6
 10828 02b3 40       		.uleb128 0x40
 10829 02b4 18       		.uleb128 0x18
 10830 02b5 9642     		.uleb128 0x2116
 10831 02b7 19       		.uleb128 0x19
 10832 02b8 01       		.uleb128 0x1
 10833 02b9 13       		.uleb128 0x13
 10834 02ba 00       		.byte	0
ARM GAS  C:\Users\tmj32\AppData\Local\Temp\cc94ZBZn.s 			page 219


 10835 02bb 00       		.byte	0
 10836 02bc 32       		.uleb128 0x32
 10837 02bd 05       		.uleb128 0x5
 10838 02be 00       		.byte	0
 10839 02bf 03       		.uleb128 0x3
 10840 02c0 0E       		.uleb128 0xe
 10841 02c1 3A       		.uleb128 0x3a
 10842 02c2 0B       		.uleb128 0xb
 10843 02c3 3B       		.uleb128 0x3b
 10844 02c4 05       		.uleb128 0x5
 10845 02c5 49       		.uleb128 0x49
 10846 02c6 13       		.uleb128 0x13
 10847 02c7 02       		.uleb128 0x2
 10848 02c8 18       		.uleb128 0x18
 10849 02c9 00       		.byte	0
 10850 02ca 00       		.byte	0
 10851 02cb 33       		.uleb128 0x33
 10852 02cc 05       		.uleb128 0x5
 10853 02cd 00       		.byte	0
 10854 02ce 03       		.uleb128 0x3
 10855 02cf 08       		.uleb128 0x8
 10856 02d0 3A       		.uleb128 0x3a
 10857 02d1 0B       		.uleb128 0xb
 10858 02d2 3B       		.uleb128 0x3b
 10859 02d3 05       		.uleb128 0x5
 10860 02d4 49       		.uleb128 0x49
 10861 02d5 13       		.uleb128 0x13
 10862 02d6 02       		.uleb128 0x2
 10863 02d7 18       		.uleb128 0x18
 10864 02d8 00       		.byte	0
 10865 02d9 00       		.byte	0
 10866 02da 34       		.uleb128 0x34
 10867 02db 34       		.uleb128 0x34
 10868 02dc 00       		.byte	0
 10869 02dd 03       		.uleb128 0x3
 10870 02de 08       		.uleb128 0x8
 10871 02df 3A       		.uleb128 0x3a
 10872 02e0 0B       		.uleb128 0xb
 10873 02e1 3B       		.uleb128 0x3b
 10874 02e2 05       		.uleb128 0x5
 10875 02e3 49       		.uleb128 0x49
 10876 02e4 13       		.uleb128 0x13
 10877 02e5 02       		.uleb128 0x2
 10878 02e6 18       		.uleb128 0x18
 10879 02e7 00       		.byte	0
 10880 02e8 00       		.byte	0
 10881 02e9 35       		.uleb128 0x35
 10882 02ea 2E       		.uleb128 0x2e
 10883 02eb 01       		.byte	0x1
 10884 02ec 3F       		.uleb128 0x3f
 10885 02ed 19       		.uleb128 0x19
 10886 02ee 03       		.uleb128 0x3
 10887 02ef 0E       		.uleb128 0xe
 10888 02f0 3A       		.uleb128 0x3a
 10889 02f1 0B       		.uleb128 0xb
 10890 02f2 3B       		.uleb128 0x3b
 10891 02f3 05       		.uleb128 0x5
ARM GAS  C:\Users\tmj32\AppData\Local\Temp\cc94ZBZn.s 			page 220


 10892 02f4 27       		.uleb128 0x27
 10893 02f5 19       		.uleb128 0x19
 10894 02f6 49       		.uleb128 0x49
 10895 02f7 13       		.uleb128 0x13
 10896 02f8 11       		.uleb128 0x11
 10897 02f9 01       		.uleb128 0x1
 10898 02fa 12       		.uleb128 0x12
 10899 02fb 06       		.uleb128 0x6
 10900 02fc 40       		.uleb128 0x40
 10901 02fd 18       		.uleb128 0x18
 10902 02fe 9642     		.uleb128 0x2116
 10903 0300 19       		.uleb128 0x19
 10904 0301 01       		.uleb128 0x1
 10905 0302 13       		.uleb128 0x13
 10906 0303 00       		.byte	0
 10907 0304 00       		.byte	0
 10908 0305 36       		.uleb128 0x36
 10909 0306 2E       		.uleb128 0x2e
 10910 0307 01       		.byte	0x1
 10911 0308 03       		.uleb128 0x3
 10912 0309 0E       		.uleb128 0xe
 10913 030a 3A       		.uleb128 0x3a
 10914 030b 0B       		.uleb128 0xb
 10915 030c 3B       		.uleb128 0x3b
 10916 030d 05       		.uleb128 0x5
 10917 030e 27       		.uleb128 0x27
 10918 030f 19       		.uleb128 0x19
 10919 0310 49       		.uleb128 0x49
 10920 0311 13       		.uleb128 0x13
 10921 0312 11       		.uleb128 0x11
 10922 0313 01       		.uleb128 0x1
 10923 0314 12       		.uleb128 0x12
 10924 0315 06       		.uleb128 0x6
 10925 0316 40       		.uleb128 0x40
 10926 0317 18       		.uleb128 0x18
 10927 0318 9642     		.uleb128 0x2116
 10928 031a 19       		.uleb128 0x19
 10929 031b 01       		.uleb128 0x1
 10930 031c 13       		.uleb128 0x13
 10931 031d 00       		.byte	0
 10932 031e 00       		.byte	0
 10933 031f 37       		.uleb128 0x37
 10934 0320 2E       		.uleb128 0x2e
 10935 0321 01       		.byte	0x1
 10936 0322 03       		.uleb128 0x3
 10937 0323 0E       		.uleb128 0xe
 10938 0324 3A       		.uleb128 0x3a
 10939 0325 0B       		.uleb128 0xb
 10940 0326 3B       		.uleb128 0x3b
 10941 0327 05       		.uleb128 0x5
 10942 0328 27       		.uleb128 0x27
 10943 0329 19       		.uleb128 0x19
 10944 032a 11       		.uleb128 0x11
 10945 032b 01       		.uleb128 0x1
 10946 032c 12       		.uleb128 0x12
 10947 032d 06       		.uleb128 0x6
 10948 032e 40       		.uleb128 0x40
ARM GAS  C:\Users\tmj32\AppData\Local\Temp\cc94ZBZn.s 			page 221


 10949 032f 18       		.uleb128 0x18
 10950 0330 9642     		.uleb128 0x2116
 10951 0332 19       		.uleb128 0x19
 10952 0333 01       		.uleb128 0x1
 10953 0334 13       		.uleb128 0x13
 10954 0335 00       		.byte	0
 10955 0336 00       		.byte	0
 10956 0337 38       		.uleb128 0x38
 10957 0338 34       		.uleb128 0x34
 10958 0339 00       		.byte	0
 10959 033a 03       		.uleb128 0x3
 10960 033b 0E       		.uleb128 0xe
 10961 033c 3A       		.uleb128 0x3a
 10962 033d 0B       		.uleb128 0xb
 10963 033e 3B       		.uleb128 0x3b
 10964 033f 05       		.uleb128 0x5
 10965 0340 49       		.uleb128 0x49
 10966 0341 13       		.uleb128 0x13
 10967 0342 3F       		.uleb128 0x3f
 10968 0343 19       		.uleb128 0x19
 10969 0344 3C       		.uleb128 0x3c
 10970 0345 19       		.uleb128 0x19
 10971 0346 00       		.byte	0
 10972 0347 00       		.byte	0
 10973 0348 00       		.byte	0
 10974              		.section	.debug_aranges,"",%progbits
 10975 0000 04010000 		.4byte	0x104
 10976 0004 0200     		.2byte	0x2
 10977 0006 00000000 		.4byte	.Ldebug_info0
 10978 000a 04       		.byte	0x4
 10979 000b 00       		.byte	0
 10980 000c 0000     		.2byte	0
 10981 000e 0000     		.2byte	0
 10982 0010 00000000 		.4byte	.LFB0
 10983 0014 18000000 		.4byte	.LFE0-.LFB0
 10984 0018 00000000 		.4byte	.LFB11
 10985 001c 2E000000 		.4byte	.LFE11-.LFB11
 10986 0020 00000000 		.4byte	.LFB12
 10987 0024 2E000000 		.4byte	.LFE12-.LFB12
 10988 0028 00000000 		.4byte	.LFB31
 10989 002c 2A000000 		.4byte	.LFE31-.LFB31
 10990 0030 00000000 		.4byte	.LFB33
 10991 0034 1E000000 		.4byte	.LFE33-.LFB33
 10992 0038 00000000 		.4byte	.LFB68
 10993 003c EC030000 		.4byte	.LFE68-.LFB68
 10994 0040 00000000 		.4byte	.LFB69
 10995 0044 1E000000 		.4byte	.LFE69-.LFB69
 10996 0048 00000000 		.4byte	.LFB70
 10997 004c 70030000 		.4byte	.LFE70-.LFB70
 10998 0050 00000000 		.4byte	.LFB71
 10999 0054 60030000 		.4byte	.LFE71-.LFB71
 11000 0058 00000000 		.4byte	.LFB72
 11001 005c 38000000 		.4byte	.LFE72-.LFB72
 11002 0060 00000000 		.4byte	.LFB73
 11003 0064 22000000 		.4byte	.LFE73-.LFB73
 11004 0068 00000000 		.4byte	.LFB74
 11005 006c FA000000 		.4byte	.LFE74-.LFB74
ARM GAS  C:\Users\tmj32\AppData\Local\Temp\cc94ZBZn.s 			page 222


 11006 0070 00000000 		.4byte	.LFB75
 11007 0074 34000000 		.4byte	.LFE75-.LFB75
 11008 0078 00000000 		.4byte	.LFB76
 11009 007c 2E000000 		.4byte	.LFE76-.LFB76
 11010 0080 00000000 		.4byte	.LFB77
 11011 0084 1C000000 		.4byte	.LFE77-.LFB77
 11012 0088 00000000 		.4byte	.LFB78
 11013 008c 1C000000 		.4byte	.LFE78-.LFB78
 11014 0090 00000000 		.4byte	.LFB79
 11015 0094 60000000 		.4byte	.LFE79-.LFB79
 11016 0098 00000000 		.4byte	.LFB80
 11017 009c 2C000000 		.4byte	.LFE80-.LFB80
 11018 00a0 00000000 		.4byte	.LFB81
 11019 00a4 1C000000 		.4byte	.LFE81-.LFB81
 11020 00a8 00000000 		.4byte	.LFB82
 11021 00ac AA000000 		.4byte	.LFE82-.LFB82
 11022 00b0 00000000 		.4byte	.LFB83
 11023 00b4 22000000 		.4byte	.LFE83-.LFB83
 11024 00b8 00000000 		.4byte	.LFB84
 11025 00bc 2C000000 		.4byte	.LFE84-.LFB84
 11026 00c0 00000000 		.4byte	.LFB85
 11027 00c4 74010000 		.4byte	.LFE85-.LFB85
 11028 00c8 00000000 		.4byte	.LFB86
 11029 00cc A8000000 		.4byte	.LFE86-.LFB86
 11030 00d0 00000000 		.4byte	.LFB87
 11031 00d4 B0000000 		.4byte	.LFE87-.LFB87
 11032 00d8 00000000 		.4byte	.LFB88
 11033 00dc 2C000000 		.4byte	.LFE88-.LFB88
 11034 00e0 00000000 		.4byte	.LFB89
 11035 00e4 90020000 		.4byte	.LFE89-.LFB89
 11036 00e8 00000000 		.4byte	.LFB90
 11037 00ec BC010000 		.4byte	.LFE90-.LFB90
 11038 00f0 00000000 		.4byte	.LFB91
 11039 00f4 92000000 		.4byte	.LFE91-.LFB91
 11040 00f8 00000000 		.4byte	.LFB92
 11041 00fc 34060000 		.4byte	.LFE92-.LFB92
 11042 0100 00000000 		.4byte	0
 11043 0104 00000000 		.4byte	0
 11044              		.section	.debug_ranges,"",%progbits
 11045              	.Ldebug_ranges0:
 11046 0000 00000000 		.4byte	.LFB0
 11047 0004 18000000 		.4byte	.LFE0
 11048 0008 00000000 		.4byte	.LFB11
 11049 000c 2E000000 		.4byte	.LFE11
 11050 0010 00000000 		.4byte	.LFB12
 11051 0014 2E000000 		.4byte	.LFE12
 11052 0018 00000000 		.4byte	.LFB31
 11053 001c 2A000000 		.4byte	.LFE31
 11054 0020 00000000 		.4byte	.LFB33
 11055 0024 1E000000 		.4byte	.LFE33
 11056 0028 00000000 		.4byte	.LFB68
 11057 002c EC030000 		.4byte	.LFE68
 11058 0030 00000000 		.4byte	.LFB69
 11059 0034 1E000000 		.4byte	.LFE69
 11060 0038 00000000 		.4byte	.LFB70
 11061 003c 70030000 		.4byte	.LFE70
 11062 0040 00000000 		.4byte	.LFB71
ARM GAS  C:\Users\tmj32\AppData\Local\Temp\cc94ZBZn.s 			page 223


 11063 0044 60030000 		.4byte	.LFE71
 11064 0048 00000000 		.4byte	.LFB72
 11065 004c 38000000 		.4byte	.LFE72
 11066 0050 00000000 		.4byte	.LFB73
 11067 0054 22000000 		.4byte	.LFE73
 11068 0058 00000000 		.4byte	.LFB74
 11069 005c FA000000 		.4byte	.LFE74
 11070 0060 00000000 		.4byte	.LFB75
 11071 0064 34000000 		.4byte	.LFE75
 11072 0068 00000000 		.4byte	.LFB76
 11073 006c 2E000000 		.4byte	.LFE76
 11074 0070 00000000 		.4byte	.LFB77
 11075 0074 1C000000 		.4byte	.LFE77
 11076 0078 00000000 		.4byte	.LFB78
 11077 007c 1C000000 		.4byte	.LFE78
 11078 0080 00000000 		.4byte	.LFB79
 11079 0084 60000000 		.4byte	.LFE79
 11080 0088 00000000 		.4byte	.LFB80
 11081 008c 2C000000 		.4byte	.LFE80
 11082 0090 00000000 		.4byte	.LFB81
 11083 0094 1C000000 		.4byte	.LFE81
 11084 0098 00000000 		.4byte	.LFB82
 11085 009c AA000000 		.4byte	.LFE82
 11086 00a0 00000000 		.4byte	.LFB83
 11087 00a4 22000000 		.4byte	.LFE83
 11088 00a8 00000000 		.4byte	.LFB84
 11089 00ac 2C000000 		.4byte	.LFE84
 11090 00b0 00000000 		.4byte	.LFB85
 11091 00b4 74010000 		.4byte	.LFE85
 11092 00b8 00000000 		.4byte	.LFB86
 11093 00bc A8000000 		.4byte	.LFE86
 11094 00c0 00000000 		.4byte	.LFB87
 11095 00c4 B0000000 		.4byte	.LFE87
 11096 00c8 00000000 		.4byte	.LFB88
 11097 00cc 2C000000 		.4byte	.LFE88
 11098 00d0 00000000 		.4byte	.LFB89
 11099 00d4 90020000 		.4byte	.LFE89
 11100 00d8 00000000 		.4byte	.LFB90
 11101 00dc BC010000 		.4byte	.LFE90
 11102 00e0 00000000 		.4byte	.LFB91
 11103 00e4 92000000 		.4byte	.LFE91
 11104 00e8 00000000 		.4byte	.LFB92
 11105 00ec 34060000 		.4byte	.LFE92
 11106 00f0 00000000 		.4byte	0
 11107 00f4 00000000 		.4byte	0
 11108              		.section	.debug_line,"",%progbits
 11109              	.Ldebug_line0:
 11110 0000 2F0A0000 		.section	.debug_str,"MS",%progbits,1
 11110      02004504 
 11110      00000201 
 11110      FB0E0D00 
 11110      01010101 
 11111              	.LASF15:
 11112 0000 696E7438 		.ascii	"int8_t\000"
 11112      5F7400
 11113              	.LASF137:
 11114 0007 636F6C6F 		.ascii	"color_chroma_key\000"
ARM GAS  C:\Users\tmj32\AppData\Local\Temp\cc94ZBZn.s 			page 224


 11114      725F6368 
 11114      726F6D61 
 11114      5F6B6579 
 11114      00
 11115              	.LASF100:
 11116 0018 6C765F6C 		.ascii	"lv_ll_node_t\000"
 11116      6C5F6E6F 
 11116      64655F74 
 11116      00
 11117              	.LASF321:
 11118 0025 4C565F42 		.ascii	"LV_BTN_STATE_TGL_PR\000"
 11118      544E5F53 
 11118      54415445 
 11118      5F54474C 
 11118      5F505200 
 11119              	.LASF23:
 11120 0039 6164765F 		.ascii	"adv_w\000"
 11120      7700
 11121              	.LASF367:
 11122 003f 4C565F42 		.ascii	"LV_BTNM_CTRL_NO_REPEAT\000"
 11122      544E4D5F 
 11122      4354524C 
 11122      5F4E4F5F 
 11122      52455045 
 11123              	.LASF42:
 11124 0056 73697A65 		.ascii	"sizetype\000"
 11124      74797065 
 11124      00
 11125              	.LASF56:
 11126 005f 73746172 		.ascii	"start\000"
 11126      7400
 11127              	.LASF39:
 11128 0065 6C765F63 		.ascii	"lv_color32_t\000"
 11128      6F6C6F72 
 11128      33325F74 
 11128      00
 11129              	.LASF408:
 11130 0072 63656C6C 		.ascii	"cell\000"
 11130      00
 11131              	.LASF110:
 11132 0077 4C565F42 		.ascii	"LV_BIDI_DIR_WEAK\000"
 11132      4944495F 
 11132      4449525F 
 11132      5745414B 
 11132      00
 11133              	.LASF47:
 11134 0088 4C565F41 		.ascii	"LV_ANIM_ON\000"
 11134      4E494D5F 
 11134      4F4E00
 11135              	.LASF433:
 11136 0093 666F6E74 		.ascii	"font_p\000"
 11136      5F7000
 11137              	.LASF103:
 11138 009a 7461696C 		.ascii	"tail\000"
 11138      00
 11139              	.LASF431:
 11140 009f 6C765F66 		.ascii	"lv_font_get_line_height\000"
ARM GAS  C:\Users\tmj32\AppData\Local\Temp\cc94ZBZn.s 			page 225


 11140      6F6E745F 
 11140      6765745F 
 11140      6C696E65 
 11140      5F686569 
 11141              	.LASF250:
 11142 00b7 4C565F53 		.ascii	"LV_SIGNAL_STYLE_CHG\000"
 11142      49474E41 
 11142      4C5F5354 
 11142      594C455F 
 11142      43484700 
 11143              	.LASF143:
 11144 00cb 6163745F 		.ascii	"act_scr\000"
 11144      73637200 
 11145              	.LASF63:
 11146 00d3 72657065 		.ascii	"repeat\000"
 11146      617400
 11147              	.LASF338:
 11148 00da 4C565F54 		.ascii	"LV_TABVIEW_BTNS_POS_TOP\000"
 11148      41425649 
 11148      45575F42 
 11148      544E535F 
 11148      504F535F 
 11149              	.LASF496:
 11150 00f2 69645F6E 		.ascii	"id_new\000"
 11150      657700
 11151              	.LASF450:
 11152 00f9 6D61785F 		.ascii	"max_h\000"
 11152      6800
 11153              	.LASF41:
 11154 00ff 6C765F6F 		.ascii	"lv_opa_t\000"
 11154      70615F74 
 11154      00
 11155              	.LASF19:
 11156 0108 696E7433 		.ascii	"int32_t\000"
 11156      325F7400 
 11157              	.LASF349:
 11158 0110 7461625F 		.ascii	"tab_cnt\000"
 11158      636E7400 
 11159              	.LASF89:
 11160 0118 696E7465 		.ascii	"intense\000"
 11160      6E736500 
 11161              	.LASF337:
 11162 0120 4C565F50 		.ascii	"LV_PAGE_STYLE_EDGE_FLASH\000"
 11162      4147455F 
 11162      5354594C 
 11162      455F4544 
 11162      47455F46 
 11163              	.LASF239:
 11164 0139 4C565F45 		.ascii	"LV_EVENT_INSERT\000"
 11164      56454E54 
 11164      5F494E53 
 11164      45525400 
 11165              	.LASF503:
 11166 0149 7374796C 		.ascii	"style_btn_rel\000"
 11166      655F6274 
 11166      6E5F7265 
 11166      6C00
ARM GAS  C:\Users\tmj32\AppData\Local\Temp\cc94ZBZn.s 			page 226


 11167              	.LASF44:
 11168 0157 6C765F70 		.ascii	"lv_point_t\000"
 11168      6F696E74 
 11168      5F7400
 11169              	.LASF414:
 11170 0162 6C6D6574 		.ascii	"lmeter\000"
 11170      657200
 11171              	.LASF379:
 11172 0169 62746E5F 		.ascii	"btn_id_act\000"
 11172      69645F61 
 11172      637400
 11173              	.LASF258:
 11174 0174 4C565F53 		.ascii	"LV_SIGNAL_LONG_PRESS\000"
 11174      49474E41 
 11174      4C5F4C4F 
 11174      4E475F50 
 11174      52455353 
 11175              	.LASF81:
 11176 0189 72616469 		.ascii	"radius\000"
 11176      757300
 11177              	.LASF296:
 11178 0190 6C765F72 		.ascii	"lv_reailgn_t\000"
 11178      6561696C 
 11178      676E5F74 
 11178      00
 11179              	.LASF31:
 11180 019d 6C696E65 		.ascii	"line_height\000"
 11180      5F686569 
 11180      67687400 
 11181              	.LASF54:
 11182 01a9 70617468 		.ascii	"path_cb\000"
 11182      5F636200 
 11183              	.LASF158:
 11184 01b1 636C6963 		.ascii	"click\000"
 11184      6B00
 11185              	.LASF105:
 11186 01b7 4C565F42 		.ascii	"LV_BIDI_DIR_LTR\000"
 11186      4944495F 
 11186      4449525F 
 11186      4C545200 
 11187              	.LASF289:
 11188 01c7 6C765F61 		.ascii	"lv_align_t\000"
 11188      6C69676E 
 11188      5F7400
 11189              	.LASF260:
 11190 01d2 4C565F53 		.ascii	"LV_SIGNAL_DRAG_BEGIN\000"
 11190      49474E41 
 11190      4C5F4452 
 11190      41475F42 
 11190      4547494E 
 11191              	.LASF402:
 11192 01e7 68696768 		.ascii	"highlighted_days\000"
 11192      6C696768 
 11192      7465645F 
 11192      64617973 
 11192      00
 11193              	.LASF473:
ARM GAS  C:\Users\tmj32\AppData\Local\Temp\cc94ZBZn.s 			page 227


 11194 01f8 7369676E 		.ascii	"sign\000"
 11194      00
 11195              	.LASF244:
 11196 01fd 6C765F65 		.ascii	"lv_event_t\000"
 11196      76656E74 
 11196      5F7400
 11197              	.LASF182:
 11198 0208 73746174 		.ascii	"state\000"
 11198      6500
 11199              	.LASF495:
 11200 020e 69645F70 		.ascii	"id_prev\000"
 11200      72657600 
 11201              	.LASF329:
 11202 0216 4C565F53 		.ascii	"LV_SB_MODE_UNHIDE\000"
 11202      425F4D4F 
 11202      44455F55 
 11202      4E484944 
 11202      4500
 11203              	.LASF97:
 11204 0228 4C565F52 		.ascii	"LV_RES_INV\000"
 11204      45535F49 
 11204      4E5600
 11205              	.LASF287:
 11206 0233 4C565F41 		.ascii	"LV_ALIGN_OUT_RIGHT_MID\000"
 11206      4C49474E 
 11206      5F4F5554 
 11206      5F524947 
 11206      48545F4D 
 11207              	.LASF254:
 11208 024a 4C565F53 		.ascii	"LV_SIGNAL_PRESSED\000"
 11208      49474E41 
 11208      4C5F5052 
 11208      45535345 
 11208      4400
 11209              	.LASF74:
 11210 025c 74797065 		.ascii	"type\000"
 11210      00
 11211              	.LASF228:
 11212 0261 4C565F45 		.ascii	"LV_EVENT_LONG_PRESSED\000"
 11212      56454E54 
 11212      5F4C4F4E 
 11212      475F5052 
 11212      45535345 
 11213              	.LASF470:
 11214 0277 6C765F74 		.ascii	"lv_tabview_get_btns_pos\000"
 11214      61627669 
 11214      65775F67 
 11214      65745F62 
 11214      746E735F 
 11215              	.LASF310:
 11216 028f 4C565F46 		.ascii	"LV_FIT_NONE\000"
 11216      49545F4E 
 11216      4F4E4500 
 11217              	.LASF393:
 11218 029b 6C696768 		.ascii	"light\000"
 11218      7400
 11219              	.LASF452:
ARM GAS  C:\Users\tmj32\AppData\Local\Temp\cc94ZBZn.s 			page 228


 11220 02a1 6163745F 		.ascii	"act_y\000"
 11220      7900
 11221              	.LASF184:
 11222 02a7 5F6C765F 		.ascii	"_lv_indev_drv_t\000"
 11222      696E6465 
 11222      765F6472 
 11222      765F7400 
 11223              	.LASF410:
 11224 02b7 636F6E74 		.ascii	"cont\000"
 11224      00
 11225              	.LASF358:
 11226 02bc 4C565F54 		.ascii	"LV_TABVIEW_STYLE_BG\000"
 11226      41425649 
 11226      45575F53 
 11226      54594C45 
 11226      5F424700 
 11227              	.LASF391:
 11228 02d0 7072696D 		.ascii	"prim\000"
 11228      00
 11229              	.LASF318:
 11230 02d5 4C565F42 		.ascii	"LV_BTN_STATE_REL\000"
 11230      544E5F53 
 11230      54415445 
 11230      5F52454C 
 11230      00
 11231              	.LASF118:
 11232 02e6 7072696F 		.ascii	"prio\000"
 11232      00
 11233              	.LASF142:
 11234 02eb 7363725F 		.ascii	"scr_ll\000"
 11234      6C6C00
 11235              	.LASF179:
 11236 02f2 706F696E 		.ascii	"point\000"
 11236      7400
 11237              	.LASF356:
 11238 02f8 62746E73 		.ascii	"btns_pos\000"
 11238      5F706F73 
 11238      00
 11239              	.LASF440:
 11240 0301 636F7079 		.ascii	"copy_ext\000"
 11240      5F657874 
 11240      00
 11241              	.LASF1:
 11242 030a 5F5F7569 		.ascii	"__uint8_t\000"
 11242      6E74385F 
 11242      7400
 11243              	.LASF37:
 11244 0314 616C7068 		.ascii	"alpha\000"
 11244      6100
 11245              	.LASF130:
 11246 031a 7665725F 		.ascii	"ver_res\000"
 11246      72657300 
 11247              	.LASF347:
 11248 0322 706F696E 		.ascii	"point_last\000"
 11248      745F6C61 
 11248      737400
 11249              	.LASF368:
ARM GAS  C:\Users\tmj32\AppData\Local\Temp\cc94ZBZn.s 			page 229


 11250 032d 4C565F42 		.ascii	"LV_BTNM_CTRL_INACTIVE\000"
 11250      544E4D5F 
 11250      4354524C 
 11250      5F494E41 
 11250      43544956 
 11251              	.LASF216:
 11252 0343 5F6C765F 		.ascii	"_lv_indev_t\000"
 11252      696E6465 
 11252      765F7400 
 11253              	.LASF376:
 11254 034f 7374796C 		.ascii	"styles_btn\000"
 11254      65735F62 
 11254      746E00
 11255              	.LASF162:
 11256 035a 68696464 		.ascii	"hidden\000"
 11256      656E00
 11257              	.LASF60:
 11258 0361 72657065 		.ascii	"repeat_pause\000"
 11258      61745F70 
 11258      61757365 
 11258      00
 11259              	.LASF442:
 11260 036e 636F7079 		.ascii	"copy_tab\000"
 11260      5F746162 
 11260      00
 11261              	.LASF149:
 11262 0377 6C617374 		.ascii	"last_activity_time\000"
 11262      5F616374 
 11262      69766974 
 11262      795F7469 
 11262      6D6500
 11263              	.LASF9:
 11264 038a 6C6F6E67 		.ascii	"long int\000"
 11264      20696E74 
 11264      00
 11265              	.LASF141:
 11266 0393 72656672 		.ascii	"refr_task\000"
 11266      5F746173 
 11266      6B00
 11267              	.LASF504:
 11268 039d 62746E73 		.ascii	"btns_size\000"
 11268      5F73697A 
 11268      6500
 11269              	.LASF132:
 11270 03a7 726F7461 		.ascii	"rotated\000"
 11270      74656400 
 11271              	.LASF468:
 11272 03af 6C765F74 		.ascii	"lv_tabview_get_anim_time\000"
 11272      61627669 
 11272      65775F67 
 11272      65745F61 
 11272      6E696D5F 
 11273              	.LASF203:
 11274 03c8 6C617374 		.ascii	"last_state\000"
 11274      5F737461 
 11274      746500
 11275              	.LASF465:
ARM GAS  C:\Users\tmj32\AppData\Local\Temp\cc94ZBZn.s 			page 230


 11276 03d3 6C765F74 		.ascii	"lv_tabview_get_tab_count\000"
 11276      61627669 
 11276      65775F67 
 11276      65745F74 
 11276      61625F63 
 11277              	.LASF427:
 11278 03ec 74696C65 		.ascii	"tileview\000"
 11278      76696577 
 11278      00
 11279              	.LASF371:
 11280 03f5 4C565F42 		.ascii	"LV_BTNM_CTRL_CLICK_TRIG\000"
 11280      544E4D5F 
 11280      4354524C 
 11280      5F434C49 
 11280      434B5F54 
 11281              	.LASF273:
 11282 040d 4C565F41 		.ascii	"LV_ALIGN_IN_BOTTOM_MID\000"
 11282      4C49474E 
 11282      5F494E5F 
 11282      424F5454 
 11282      4F4D5F4D 
 11283              	.LASF316:
 11284 0424 4C565F43 		.ascii	"LV_CONT_STYLE_MAIN\000"
 11284      4F4E545F 
 11284      5354594C 
 11284      455F4D41 
 11284      494E00
 11285              	.LASF438:
 11286 0437 636F7079 		.ascii	"copy\000"
 11286      00
 11287              	.LASF434:
 11288 043c 61726561 		.ascii	"area_p\000"
 11288      5F7000
 11289              	.LASF306:
 11290 0443 4C565F4C 		.ascii	"LV_LAYOUT_ROW_B\000"
 11290      41594F55 
 11290      545F524F 
 11290      575F4200 
 11291              	.LASF307:
 11292 0453 4C565F4C 		.ascii	"LV_LAYOUT_PRETTY\000"
 11292      41594F55 
 11292      545F5052 
 11292      45545459 
 11292      00
 11293              	.LASF463:
 11294 0464 6C765F74 		.ascii	"lv_tabview_set_btns_hidden\000"
 11294      61627669 
 11294      65775F73 
 11294      65745F62 
 11294      746E735F 
 11295              	.LASF102:
 11296 047f 68656164 		.ascii	"head\000"
 11296      00
 11297              	.LASF305:
 11298 0484 4C565F4C 		.ascii	"LV_LAYOUT_ROW_M\000"
 11298      41594F55 
 11298      545F524F 
ARM GAS  C:\Users\tmj32\AppData\Local\Temp\cc94ZBZn.s 			page 231


 11298      575F4D00 
 11299              	.LASF300:
 11300 0494 4C565F4C 		.ascii	"LV_LAYOUT_CENTER\000"
 11300      41594F55 
 11300      545F4345 
 11300      4E544552 
 11300      00
 11301              	.LASF506:
 11302 04a5 70616765 		.ascii	"page_signal\000"
 11302      5F736967 
 11302      6E616C00 
 11303              	.LASF185:
 11304 04b1 72656164 		.ascii	"read_cb\000"
 11304      5F636200 
 11305              	.LASF304:
 11306 04b9 4C565F4C 		.ascii	"LV_LAYOUT_ROW_T\000"
 11306      41594F55 
 11306      545F524F 
 11306      575F5400 
 11307              	.LASF417:
 11308 04c9 63686172 		.ascii	"chart\000"
 11308      7400
 11309              	.LASF200:
 11310 04cf 6C617374 		.ascii	"last_pressed\000"
 11310      5F707265 
 11310      73736564 
 11310      00
 11311              	.LASF419:
 11312 04dc 62746E6D 		.ascii	"btnm\000"
 11312      00
 11313              	.LASF486:
 11314 04e1 785F6469 		.ascii	"x_diff\000"
 11314      666600
 11315              	.LASF135:
 11316 04e8 7365745F 		.ascii	"set_px_cb\000"
 11316      70785F63 
 11316      6200
 11317              	.LASF2:
 11318 04f2 7369676E 		.ascii	"signed char\000"
 11318      65642063 
 11318      68617200 
 11319              	.LASF16:
 11320 04fe 75696E74 		.ascii	"uint8_t\000"
 11320      385F7400 
 11321              	.LASF129:
 11322 0506 686F725F 		.ascii	"hor_res\000"
 11322      72657300 
 11323              	.LASF405:
 11324 050e 746F6461 		.ascii	"today_box\000"
 11324      795F626F 
 11324      7800
 11325              	.LASF386:
 11326 0518 4C565F42 		.ascii	"LV_BTNM_STYLE_BTN_TGL_REL\000"
 11326      544E4D5F 
 11326      5354594C 
 11326      455F4254 
 11326      4E5F5447 
ARM GAS  C:\Users\tmj32\AppData\Local\Temp\cc94ZBZn.s 			page 232


 11327              	.LASF351:
 11328 0532 736C6964 		.ascii	"slide_enable\000"
 11328      655F656E 
 11328      61626C65 
 11328      00
 11329              	.LASF328:
 11330 053f 4C565F53 		.ascii	"LV_SB_MODE_HIDE\000"
 11330      425F4D4F 
 11330      44455F48 
 11330      49444500 
 11331              	.LASF390:
 11332 054f 74676C5F 		.ascii	"tgl_pr\000"
 11332      707200
 11333              	.LASF46:
 11334 0556 4C565F41 		.ascii	"LV_ANIM_OFF\000"
 11334      4E494D5F 
 11334      4F464600 
 11335              	.LASF490:
 11336 0562 74616270 		.ascii	"tabpage_press_lost_handler\000"
 11336      6167655F 
 11336      70726573 
 11336      735F6C6F 
 11336      73745F68 
 11337              	.LASF461:
 11338 057d 6C765F74 		.ascii	"lv_tabview_set_style\000"
 11338      61627669 
 11338      65775F73 
 11338      65745F73 
 11338      74796C65 
 11339              	.LASF441:
 11340 0592 6E65775F 		.ascii	"new_tab\000"
 11340      74616200 
 11341              	.LASF492:
 11342 059a 70616765 		.ascii	"page_x1\000"
 11342      5F783100 
 11343              	.LASF30:
 11344 05a2 6765745F 		.ascii	"get_glyph_bitmap\000"
 11344      676C7970 
 11344      685F6269 
 11344      746D6170 
 11344      00
 11345              	.LASF406:
 11346 05b3 7363726C 		.ascii	"scrl\000"
 11346      00
 11347              	.LASF35:
 11348 05b8 626C7565 		.ascii	"blue\000"
 11348      00
 11349              	.LASF259:
 11350 05bd 4C565F53 		.ascii	"LV_SIGNAL_LONG_PRESS_REP\000"
 11350      49474E41 
 11350      4C5F4C4F 
 11350      4E475F50 
 11350      52455353 
 11351              	.LASF348:
 11352 05d6 7461625F 		.ascii	"tab_cur\000"
 11352      63757200 
 11353              	.LASF3:
ARM GAS  C:\Users\tmj32\AppData\Local\Temp\cc94ZBZn.s 			page 233


 11354 05de 756E7369 		.ascii	"unsigned char\000"
 11354      676E6564 
 11354      20636861 
 11354      7200
 11355              	.LASF144:
 11356 05ec 746F705F 		.ascii	"top_layer\000"
 11356      6C617965 
 11356      7200
 11357              	.LASF252:
 11358 05f6 4C565F53 		.ascii	"LV_SIGNAL_REFR_EXT_DRAW_PAD\000"
 11358      49474E41 
 11358      4C5F5245 
 11358      46525F45 
 11358      58545F44 
 11359              	.LASF165:
 11360 0612 64726167 		.ascii	"drag_dir\000"
 11360      5F646972 
 11360      00
 11361              	.LASF353:
 11362 061b 64726167 		.ascii	"drag_hor\000"
 11362      5F686F72 
 11362      00
 11363              	.LASF359:
 11364 0624 4C565F54 		.ascii	"LV_TABVIEW_STYLE_INDIC\000"
 11364      41425649 
 11364      45575F53 
 11364      54594C45 
 11364      5F494E44 
 11365              	.LASF116:
 11366 063b 7461736B 		.ascii	"task_cb\000"
 11366      5F636200 
 11367              	.LASF341:
 11368 0643 4C565F54 		.ascii	"LV_TABVIEW_BTNS_POS_RIGHT\000"
 11368      41425649 
 11368      45575F42 
 11368      544E535F 
 11368      504F535F 
 11369              	.LASF26:
 11370 065d 6F66735F 		.ascii	"ofs_x\000"
 11370      7800
 11371              	.LASF27:
 11372 0663 6F66735F 		.ascii	"ofs_y\000"
 11372      7900
 11373              	.LASF399:
 11374 0669 68656164 		.ascii	"header\000"
 11374      657200
 11375              	.LASF33:
 11376 0670 5F426F6F 		.ascii	"_Bool\000"
 11376      6C00
 11377              	.LASF267:
 11378 0676 6C765F73 		.ascii	"lv_signal_cb_t\000"
 11378      69676E61 
 11378      6C5F6362 
 11378      5F7400
 11379              	.LASF428:
 11380 0685 7461626C 		.ascii	"table\000"
 11380      6500
ARM GAS  C:\Users\tmj32\AppData\Local\Temp\cc94ZBZn.s 			page 234


 11381              	.LASF147:
 11382 068b 696E765F 		.ascii	"inv_area_joined\000"
 11382      61726561 
 11382      5F6A6F69 
 11382      6E656400 
 11383              	.LASF458:
 11384 069b 696E6469 		.ascii	"indic_pos\000"
 11384      635F706F 
 11384      7300
 11385              	.LASF43:
 11386 06a5 63686172 		.ascii	"char\000"
 11386      00
 11387              	.LASF479:
 11388 06aa 74616270 		.ascii	"tabpage_scrl_signal\000"
 11388      6167655F 
 11388      7363726C 
 11388      5F736967 
 11388      6E616C00 
 11389              	.LASF464:
 11390 06be 6C765F74 		.ascii	"lv_tabview_get_tab_act\000"
 11390      61627669 
 11390      65775F67 
 11390      65745F74 
 11390      61625F61 
 11391              	.LASF180:
 11392 06d5 62746E5F 		.ascii	"btn_id\000"
 11392      696400
 11393              	.LASF50:
 11394 06dc 6C765F61 		.ascii	"lv_anim_exec_xcb_t\000"
 11394      6E696D5F 
 11394      65786563 
 11394      5F786362 
 11394      5F7400
 11395              	.LASF309:
 11396 06ef 5F4C565F 		.ascii	"_LV_LAYOUT_NUM\000"
 11396      4C41594F 
 11396      55545F4E 
 11396      554D00
 11397              	.LASF92:
 11398 06fe 626F6479 		.ascii	"body\000"
 11398      00
 11399              	.LASF350:
 11400 0703 616E696D 		.ascii	"anim_time\000"
 11400      5F74696D 
 11400      6500
 11401              	.LASF197:
 11402 070d 64726167 		.ascii	"drag_throw_vect\000"
 11402      5F746872 
 11402      6F775F76 
 11402      65637400 
 11403              	.LASF340:
 11404 071d 4C565F54 		.ascii	"LV_TABVIEW_BTNS_POS_LEFT\000"
 11404      41425649 
 11404      45575F42 
 11404      544E535F 
 11404      504F535F 
 11405              	.LASF445:
ARM GAS  C:\Users\tmj32\AppData\Local\Temp\cc94ZBZn.s 			page 235


 11406 0736 6E616D65 		.ascii	"name\000"
 11406      00
 11407              	.LASF448:
 11408 073b 7374796C 		.ascii	"style_tabs\000"
 11408      655F7461 
 11408      627300
 11409              	.LASF113:
 11410 0746 5F6C765F 		.ascii	"_lv_task_t\000"
 11410      7461736B 
 11410      5F7400
 11411              	.LASF6:
 11412 0751 5F5F7569 		.ascii	"__uint16_t\000"
 11412      6E743136 
 11412      5F7400
 11413              	.LASF404:
 11414 075c 7765656B 		.ascii	"week_box\000"
 11414      5F626F78 
 11414      00
 11415              	.LASF301:
 11416 0765 4C565F4C 		.ascii	"LV_LAYOUT_COL_L\000"
 11416      41594F55 
 11416      545F434F 
 11416      4C5F4C00 
 11417              	.LASF302:
 11418 0775 4C565F4C 		.ascii	"LV_LAYOUT_COL_M\000"
 11418      41594F55 
 11418      545F434F 
 11418      4C5F4D00 
 11419              	.LASF471:
 11420 0785 6C765F74 		.ascii	"lv_tabview_get_btns_hidden\000"
 11420      61627669 
 11420      65775F67 
 11420      65745F62 
 11420      746E735F 
 11421              	.LASF303:
 11422 07a0 4C565F4C 		.ascii	"LV_LAYOUT_COL_R\000"
 11422      41594F55 
 11422      545F434F 
 11422      4C5F5200 
 11423              	.LASF357:
 11424 07b0 6C765F74 		.ascii	"lv_tabview_ext_t\000"
 11424      61627669 
 11424      65775F65 
 11424      78745F74 
 11424      00
 11425              	.LASF339:
 11426 07c1 4C565F54 		.ascii	"LV_TABVIEW_BTNS_POS_BOTTOM\000"
 11426      41425649 
 11426      45575F42 
 11426      544E535F 
 11426      504F535F 
 11427              	.LASF284:
 11428 07dc 4C565F41 		.ascii	"LV_ALIGN_OUT_LEFT_MID\000"
 11428      4C49474E 
 11428      5F4F5554 
 11428      5F4C4546 
 11428      545F4D49 
ARM GAS  C:\Users\tmj32\AppData\Local\Temp\cc94ZBZn.s 			page 236


 11429              	.LASF327:
 11430 07f2 4C565F53 		.ascii	"LV_SB_MODE_AUTO\000"
 11430      425F4D4F 
 11430      44455F41 
 11430      55544F00 
 11431              	.LASF49:
 11432 0802 6C765F61 		.ascii	"lv_anim_value_t\000"
 11432      6E696D5F 
 11432      76616C75 
 11432      655F7400 
 11433              	.LASF509:
 11434 0812 6C765F73 		.ascii	"lv_style_transp\000"
 11434      74796C65 
 11434      5F747261 
 11434      6E737000 
 11435              	.LASF443:
 11436 0822 6C765F74 		.ascii	"lv_tabview_create\000"
 11436      61627669 
 11436      65775F63 
 11436      72656174 
 11436      6500
 11437              	.LASF217:
 11438 0834 70726F63 		.ascii	"proc\000"
 11438      00
 11439              	.LASF155:
 11440 0839 64657369 		.ascii	"design_cb\000"
 11440      676E5F63 
 11440      6200
 11441              	.LASF384:
 11442 0843 4C565F42 		.ascii	"LV_BTNM_STYLE_BTN_REL\000"
 11442      544E4D5F 
 11442      5354594C 
 11442      455F4254 
 11442      4E5F5245 
 11443              	.LASF362:
 11444 0859 4C565F54 		.ascii	"LV_TABVIEW_STYLE_BTN_PR\000"
 11444      41425649 
 11444      45575F53 
 11444      54594C45 
 11444      5F42544E 
 11445              	.LASF372:
 11446 0871 6C765F62 		.ascii	"lv_btnm_ctrl_t\000"
 11446      746E6D5F 
 11446      6374726C 
 11446      5F7400
 11447              	.LASF383:
 11448 0880 4C565F42 		.ascii	"LV_BTNM_STYLE_BG\000"
 11448      544E4D5F 
 11448      5354594C 
 11448      455F4247 
 11448      00
 11449              	.LASF454:
 11450 0891 6C765F74 		.ascii	"lv_tabview_set_tab_act\000"
 11450      61627669 
 11450      65775F73 
 11450      65745F74 
 11450      61625F61 
ARM GAS  C:\Users\tmj32\AppData\Local\Temp\cc94ZBZn.s 			page 237


 11451              	.LASF451:
 11452 08a8 62746E5F 		.ascii	"btn_h\000"
 11452      6800
 11453              	.LASF126:
 11454 08ae 666C7573 		.ascii	"flushing\000"
 11454      68696E67 
 11454      00
 11455              	.LASF263:
 11456 08b7 4C565F53 		.ascii	"LV_SIGNAL_DEFOCUS\000"
 11456      49474E41 
 11456      4C5F4445 
 11456      464F4355 
 11456      5300
 11457              	.LASF236:
 11458 08c9 4C565F45 		.ascii	"LV_EVENT_FOCUSED\000"
 11458      56454E54 
 11458      5F464F43 
 11458      55534544 
 11458      00
 11459              	.LASF424:
 11460 08da 64646C69 		.ascii	"ddlist\000"
 11460      737400
 11461              	.LASF55:
 11462 08e1 72656164 		.ascii	"ready_cb\000"
 11462      795F6362 
 11462      00
 11463              	.LASF456:
 11464 08ea 636F6E74 		.ascii	"cont_x\000"
 11464      5F7800
 11465              	.LASF93:
 11466 08f1 74657874 		.ascii	"text\000"
 11466      00
 11467              	.LASF436:
 11468 08f6 6C765F63 		.ascii	"lv_cont_set_fit2\000"
 11468      6F6E745F 
 11468      7365745F 
 11468      66697432 
 11468      00
 11469              	.LASF205:
 11470 0907 706F696E 		.ascii	"pointer\000"
 11470      74657200 
 11471              	.LASF232:
 11472 090f 4C565F45 		.ascii	"LV_EVENT_DRAG_BEGIN\000"
 11472      56454E54 
 11472      5F445241 
 11472      475F4245 
 11472      47494E00 
 11473              	.LASF94:
 11474 0923 696D6167 		.ascii	"image\000"
 11474      6500
 11475              	.LASF90:
 11476 0929 726F756E 		.ascii	"rounded\000"
 11476      64656400 
 11477              	.LASF501:
 11478 0931 70616765 		.ascii	"pages\000"
 11478      7300
 11479              	.LASF160:
ARM GAS  C:\Users\tmj32\AppData\Local\Temp\cc94ZBZn.s 			page 238


 11480 0937 64726167 		.ascii	"drag_throw\000"
 11480      5F746872 
 11480      6F7700
 11481              	.LASF178:
 11482 0942 6C765F69 		.ascii	"lv_indev_state_t\000"
 11482      6E646576 
 11482      5F737461 
 11482      74655F74 
 11482      00
 11483              	.LASF111:
 11484 0953 6C765F62 		.ascii	"lv_bidi_dir_t\000"
 11484      6964695F 
 11484      6469725F 
 11484      7400
 11485              	.LASF363:
 11486 0961 4C565F54 		.ascii	"LV_TABVIEW_STYLE_BTN_TGL_REL\000"
 11486      41425649 
 11486      45575F53 
 11486      54594C45 
 11486      5F42544E 
 11487              	.LASF170:
 11488 097e 6578745F 		.ascii	"ext_draw_pad\000"
 11488      64726177 
 11488      5F706164 
 11488      00
 11489              	.LASF191:
 11490 098b 6C6F6E67 		.ascii	"long_press_rep_time\000"
 11490      5F707265 
 11490      73735F72 
 11490      65705F74 
 11490      696D6500 
 11491              	.LASF45:
 11492 099f 6C765F61 		.ascii	"lv_area_t\000"
 11492      7265615F 
 11492      7400
 11493              	.LASF352:
 11494 09a9 64726167 		.ascii	"draging\000"
 11494      696E6700 
 11495              	.LASF131:
 11496 09b1 62756666 		.ascii	"buffer\000"
 11496      657200
 11497              	.LASF418:
 11498 09b8 63616C65 		.ascii	"calendar\000"
 11498      6E646172 
 11498      00
 11499              	.LASF108:
 11500 09c1 4C565F42 		.ascii	"LV_BIDI_DIR_INHERIT\000"
 11500      4944495F 
 11500      4449525F 
 11500      494E4845 
 11500      52495400 
 11501              	.LASF336:
 11502 09d5 4C565F50 		.ascii	"LV_PAGE_STYLE_SB\000"
 11502      4147455F 
 11502      5354594C 
 11502      455F5342 
 11502      00
ARM GAS  C:\Users\tmj32\AppData\Local\Temp\cc94ZBZn.s 			page 239


 11503              	.LASF230:
 11504 09e6 4C565F45 		.ascii	"LV_EVENT_CLICKED\000"
 11504      56454E54 
 11504      5F434C49 
 11504      434B4544 
 11504      00
 11505              	.LASF489:
 11506 09f7 696E6469 		.ascii	"indic_style\000"
 11506      635F7374 
 11506      796C6500 
 11507              	.LASF467:
 11508 0a03 6C765F74 		.ascii	"lv_tabview_get_sliding\000"
 11508      61627669 
 11508      65775F67 
 11508      65745F73 
 11508      6C696469 
 11509              	.LASF485:
 11510 0a1a 706F696E 		.ascii	"point_act\000"
 11510      745F6163 
 11510      7400
 11511              	.LASF76:
 11512 0a24 6C656674 		.ascii	"left\000"
 11512      00
 11513              	.LASF176:
 11514 0a29 4C565F49 		.ascii	"LV_INDEV_TYPE_ENCODER\000"
 11514      4E444556 
 11514      5F545950 
 11514      455F454E 
 11514      434F4445 
 11515              	.LASF67:
 11516 0a3f 6C765F61 		.ascii	"lv_anim_ready_cb_t\000"
 11516      6E696D5F 
 11516      72656164 
 11516      795F6362 
 11516      5F7400
 11517              	.LASF241:
 11518 0a52 4C565F45 		.ascii	"LV_EVENT_APPLY\000"
 11518      56454E54 
 11518      5F415050 
 11518      4C5900
 11519              	.LASF171:
 11520 0a61 7265616C 		.ascii	"realign\000"
 11520      69676E00 
 11521              	.LASF234:
 11522 0a69 4C565F45 		.ascii	"LV_EVENT_DRAG_THROW_BEGIN\000"
 11522      56454E54 
 11522      5F445241 
 11522      475F5448 
 11522      524F575F 
 11523              	.LASF221:
 11524 0a83 6C765F69 		.ascii	"lv_indev_t\000"
 11524      6E646576 
 11524      5F7400
 11525              	.LASF220:
 11526 0a8e 62746E5F 		.ascii	"btn_points\000"
 11526      706F696E 
 11526      747300
ARM GAS  C:\Users\tmj32\AppData\Local\Temp\cc94ZBZn.s 			page 240


 11527              	.LASF482:
 11528 0a99 74616270 		.ascii	"tabpage\000"
 11528      61676500 
 11529              	.LASF282:
 11530 0aa1 4C565F41 		.ascii	"LV_ALIGN_OUT_BOTTOM_RIGHT\000"
 11530      4C49474E 
 11530      5F4F5554 
 11530      5F424F54 
 11530      544F4D5F 
 11531              	.LASF253:
 11532 0abb 4C565F53 		.ascii	"LV_SIGNAL_GET_TYPE\000"
 11532      49474E41 
 11532      4C5F4745 
 11532      545F5459 
 11532      504500
 11533              	.LASF214:
 11534 0ace 77616974 		.ascii	"wait_until_release\000"
 11534      5F756E74 
 11534      696C5F72 
 11534      656C6561 
 11534      736500
 11535              	.LASF333:
 11536 0ae1 4C565F50 		.ascii	"LV_PAGE_EDGE_BOTTOM\000"
 11536      4147455F 
 11536      45444745 
 11536      5F424F54 
 11536      544F4D00 
 11537              	.LASF317:
 11538 0af5 6C765F63 		.ascii	"lv_cont_style_t\000"
 11538      6F6E745F 
 11538      7374796C 
 11538      655F7400 
 11539              	.LASF125:
 11540 0b05 61726561 		.ascii	"area\000"
 11540      00
 11541              	.LASF204:
 11542 0b0a 6C617374 		.ascii	"last_key\000"
 11542      5F6B6579 
 11542      00
 11543              	.LASF288:
 11544 0b13 4C565F41 		.ascii	"LV_ALIGN_OUT_RIGHT_BOTTOM\000"
 11544      4C49474E 
 11544      5F4F5554 
 11544      5F524947 
 11544      48545F42 
 11545              	.LASF96:
 11546 0b2d 6C765F73 		.ascii	"lv_style_t\000"
 11546      74796C65 
 11546      5F7400
 11547              	.LASF78:
 11548 0b38 696E6E65 		.ascii	"inner\000"
 11548      7200
 11549              	.LASF213:
 11550 0b3e 64697361 		.ascii	"disabled\000"
 11550      626C6564 
 11550      00
 11551              	.LASF281:
ARM GAS  C:\Users\tmj32\AppData\Local\Temp\cc94ZBZn.s 			page 241


 11552 0b47 4C565F41 		.ascii	"LV_ALIGN_OUT_BOTTOM_MID\000"
 11552      4C49474E 
 11552      5F4F5554 
 11552      5F424F54 
 11552      544F4D5F 
 11553              	.LASF68:
 11554 0b5f 6C765F61 		.ascii	"lv_anim_t\000"
 11554      6E696D5F 
 11554      7400
 11555              	.LASF312:
 11556 0b69 4C565F46 		.ascii	"LV_FIT_FLOOD\000"
 11556      49545F46 
 11556      4C4F4F44 
 11556      00
 11557              	.LASF11:
 11558 0b76 6C6F6E67 		.ascii	"long unsigned int\000"
 11558      20756E73 
 11558      69676E65 
 11558      6420696E 
 11558      7400
 11559              	.LASF459:
 11560 0b88 6C765F74 		.ascii	"lv_tabview_set_sliding\000"
 11560      61627669 
 11560      65775F73 
 11560      65745F73 
 11560      6C696469 
 11561              	.LASF373:
 11562 0b9f 6D61705F 		.ascii	"map_p\000"
 11562      7000
 11563              	.LASF474:
 11564 0ba5 70617261 		.ascii	"param\000"
 11564      6D00
 11565              	.LASF320:
 11566 0bab 4C565F42 		.ascii	"LV_BTN_STATE_TGL_REL\000"
 11566      544E5F53 
 11566      54415445 
 11566      5F54474C 
 11566      5F52454C 
 11567              	.LASF387:
 11568 0bc0 4C565F42 		.ascii	"LV_BTNM_STYLE_BTN_TGL_PR\000"
 11568      544E4D5F 
 11568      5354594C 
 11568      455F4254 
 11568      4E5F5447 
 11569              	.LASF299:
 11570 0bd9 4C565F4C 		.ascii	"LV_LAYOUT_OFF\000"
 11570      41594F55 
 11570      545F4F46 
 11570      4600
 11571              	.LASF437:
 11572 0be7 6C765F63 		.ascii	"lv_cont_set_style\000"
 11572      6F6E745F 
 11572      7365745F 
 11572      7374796C 
 11572      6500
 11573              	.LASF378:
 11574 0bf9 62746E5F 		.ascii	"btn_id_pr\000"
ARM GAS  C:\Users\tmj32\AppData\Local\Temp\cc94ZBZn.s 			page 242


 11574      69645F70 
 11574      7200
 11575              	.LASF476:
 11576 0c03 65646974 		.ascii	"editable\000"
 11576      61626C65 
 11576      00
 11577              	.LASF95:
 11578 0c0c 6C696E65 		.ascii	"line\000"
 11578      00
 11579              	.LASF381:
 11580 0c11 6F6E655F 		.ascii	"one_toggle\000"
 11580      746F6767 
 11580      6C6500
 11581              	.LASF262:
 11582 0c1c 4C565F53 		.ascii	"LV_SIGNAL_FOCUS\000"
 11582      49474E41 
 11582      4C5F464F 
 11582      43555300 
 11583              	.LASF413:
 11584 0c2c 736C6964 		.ascii	"slider\000"
 11584      657200
 11585              	.LASF457:
 11586 0c33 74616273 		.ascii	"tabs_style\000"
 11586      5F737479 
 11586      6C6500
 11587              	.LASF380:
 11588 0c3e 7265636F 		.ascii	"recolor\000"
 11588      6C6F7200 
 11589              	.LASF240:
 11590 0c46 4C565F45 		.ascii	"LV_EVENT_REFRESH\000"
 11590      56454E54 
 11590      5F524546 
 11590      52455348 
 11590      00
 11591              	.LASF48:
 11592 0c57 6C765F61 		.ascii	"lv_anim_enable_t\000"
 11592      6E696D5F 
 11592      656E6162 
 11592      6C655F74 
 11592      00
 11593              	.LASF128:
 11594 0c68 5F646973 		.ascii	"_disp_drv_t\000"
 11594      705F6472 
 11594      765F7400 
 11595              	.LASF219:
 11596 0c74 67726F75 		.ascii	"group\000"
 11596      7000
 11597              	.LASF447:
 11598 0c7a 62746E6D 		.ascii	"btnm_ext\000"
 11598      5F657874 
 11598      00
 11599              	.LASF460:
 11600 0c83 6C765F74 		.ascii	"lv_tabview_set_anim_time\000"
 11600      61627669 
 11600      65775F73 
 11600      65745F61 
 11600      6E696D5F 
ARM GAS  C:\Users\tmj32\AppData\Local\Temp\cc94ZBZn.s 			page 243


 11601              	.LASF193:
 11602 0c9c 6163745F 		.ascii	"act_point\000"
 11602      706F696E 
 11602      7400
 11603              	.LASF199:
 11604 0ca6 6C617374 		.ascii	"last_obj\000"
 11604      5F6F626A 
 11604      00
 11605              	.LASF177:
 11606 0caf 6C765F69 		.ascii	"lv_indev_type_t\000"
 11606      6E646576 
 11606      5F747970 
 11606      655F7400 
 11607              	.LASF265:
 11608 0cbf 4C565F53 		.ascii	"LV_SIGNAL_GET_EDITABLE\000"
 11608      49474E41 
 11608      4C5F4745 
 11608      545F4544 
 11608      49544142 
 11609              	.LASF407:
 11610 0cd6 6F6E656C 		.ascii	"oneline\000"
 11610      696E6500 
 11611              	.LASF127:
 11612 0cde 6C765F64 		.ascii	"lv_disp_buf_t\000"
 11612      6973705F 
 11612      6275665F 
 11612      7400
 11613              	.LASF175:
 11614 0cec 4C565F49 		.ascii	"LV_INDEV_TYPE_BUTTON\000"
 11614      4E444556 
 11614      5F545950 
 11614      455F4255 
 11614      54544F4E 
 11615              	.LASF280:
 11616 0d01 4C565F41 		.ascii	"LV_ALIGN_OUT_BOTTOM_LEFT\000"
 11616      4C49474E 
 11616      5F4F5554 
 11616      5F424F54 
 11616      544F4D5F 
 11617              	.LASF10:
 11618 0d1a 5F5F7569 		.ascii	"__uint32_t\000"
 11618      6E743332 
 11618      5F7400
 11619              	.LASF153:
 11620 0d25 6576656E 		.ascii	"event_cb\000"
 11620      745F6362 
 11620      00
 11621              	.LASF365:
 11622 0d2e 6C765F74 		.ascii	"lv_tabview_style_t\000"
 11622      61627669 
 11622      65775F73 
 11622      74796C65 
 11622      5F7400
 11623              	.LASF77:
 11624 0d41 72696768 		.ascii	"right\000"
 11624      7400
 11625              	.LASF157:
ARM GAS  C:\Users\tmj32\AppData\Local\Temp\cc94ZBZn.s 			page 244


 11626 0d47 7374796C 		.ascii	"style_p\000"
 11626      655F7000 
 11627              	.LASF12:
 11628 0d4f 6C6F6E67 		.ascii	"long long int\000"
 11628      206C6F6E 
 11628      6720696E 
 11628      7400
 11629              	.LASF516:
 11630 0d5d 433A5C55 		.ascii	"C:\\Users\\tmj32\\Documents\\TCNJ\\Senior_Project\\"
 11630      73657273 
 11630      5C746D6A 
 11630      33325C44 
 11630      6F63756D 
 11631 0d8a 4F736369 		.ascii	"Oscilloscope_Senior_Project\\tcom_engineering\\embe"
 11631      6C6C6F73 
 11631      636F7065 
 11631      5F53656E 
 11631      696F725F 
 11632 0dbb 645F7377 		.ascii	"d_sw\\tcom_app\\tcom_app_psoc6_lvgl6\\tcom_displ_te"
 11632      5C74636F 
 11632      6D5F6170 
 11632      705C7463 
 11632      6F6D5F61 
 11633 0deb 73745F70 		.ascii	"st_psoc6.cydsn\000"
 11633      736F6336 
 11633      2E637964 
 11633      736E00
 11634              	.LASF285:
 11635 0dfa 4C565F41 		.ascii	"LV_ALIGN_OUT_LEFT_BOTTOM\000"
 11635      4C49474E 
 11635      5F4F5554 
 11635      5F4C4546 
 11635      545F424F 
 11636              	.LASF72:
 11637 0e13 77696474 		.ascii	"width\000"
 11637      6800
 11638              	.LASF271:
 11639 0e19 4C565F41 		.ascii	"LV_ALIGN_IN_TOP_RIGHT\000"
 11639      4C49474E 
 11639      5F494E5F 
 11639      544F505F 
 11639      52494748 
 11640              	.LASF264:
 11641 0e2f 4C565F53 		.ascii	"LV_SIGNAL_CONTROL\000"
 11641      49474E41 
 11641      4C5F434F 
 11641      4E54524F 
 11641      4C00
 11642              	.LASF75:
 11643 0e41 626F7474 		.ascii	"bottom\000"
 11643      6F6D00
 11644              	.LASF151:
 11645 0e48 6368696C 		.ascii	"child_ll\000"
 11645      645F6C6C 
 11645      00
 11646              	.LASF344:
 11647 0e51 696E6469 		.ascii	"indic\000"
ARM GAS  C:\Users\tmj32\AppData\Local\Temp\cc94ZBZn.s 			page 245


 11647      6300
 11648              	.LASF168:
 11649 0e57 70726F74 		.ascii	"protect\000"
 11649      65637400 
 11650              	.LASF121:
 11651 0e5f 62756631 		.ascii	"buf1\000"
 11651      00
 11652              	.LASF122:
 11653 0e64 62756632 		.ascii	"buf2\000"
 11653      00
 11654              	.LASF324:
 11655 0e69 4C565F53 		.ascii	"LV_SB_MODE_OFF\000"
 11655      425F4D4F 
 11655      44455F4F 
 11655      464600
 11656              	.LASF194:
 11657 0e78 6C617374 		.ascii	"last_point\000"
 11657      5F706F69 
 11657      6E7400
 11658              	.LASF198:
 11659 0e83 6163745F 		.ascii	"act_obj\000"
 11659      6F626A00 
 11660              	.LASF426:
 11661 0e8b 74616276 		.ascii	"tabview\000"
 11661      69657700 
 11662              	.LASF164:
 11663 0e93 70617265 		.ascii	"parent_event\000"
 11663      6E745F65 
 11663      76656E74 
 11663      00
 11664              	.LASF246:
 11665 0ea0 4C565F53 		.ascii	"LV_SIGNAL_CLEANUP\000"
 11665      49474E41 
 11665      4C5F434C 
 11665      45414E55 
 11665      5000
 11666              	.LASF444:
 11667 0eb2 6C765F74 		.ascii	"lv_tabview_add_tab\000"
 11667      61627669 
 11667      65775F61 
 11667      64645F74 
 11667      616200
 11668              	.LASF293:
 11669 0ec5 616C6967 		.ascii	"align\000"
 11669      6E00
 11670              	.LASF272:
 11671 0ecb 4C565F41 		.ascii	"LV_ALIGN_IN_BOTTOM_LEFT\000"
 11671      4C49474E 
 11671      5F494E5F 
 11671      424F5454 
 11671      4F4D5F4C 
 11672              	.LASF91:
 11673 0ee3 676C6173 		.ascii	"glass\000"
 11673      7300
 11674              	.LASF499:
 11675 0ee9 6576656E 		.ascii	"event\000"
 11675      7400
ARM GAS  C:\Users\tmj32\AppData\Local\Temp\cc94ZBZn.s 			page 246


 11676              	.LASF493:
 11677 0eef 70616765 		.ascii	"page_x2\000"
 11677      5F783200 
 11678              	.LASF377:
 11679 0ef7 62746E5F 		.ascii	"btn_cnt\000"
 11679      636E7400 
 11680              	.LASF243:
 11681 0eff 4C565F45 		.ascii	"LV_EVENT_DELETE\000"
 11681      56454E54 
 11681      5F44454C 
 11681      45544500 
 11682              	.LASF14:
 11683 0f0f 756E7369 		.ascii	"unsigned int\000"
 11683      676E6564 
 11683      20696E74 
 11683      00
 11684              	.LASF446:
 11685 0f1c 6E616D65 		.ascii	"name_dm\000"
 11685      5F646D00 
 11686              	.LASF247:
 11687 0f24 4C565F53 		.ascii	"LV_SIGNAL_CHILD_CHG\000"
 11687      49474E41 
 11687      4C5F4348 
 11687      494C445F 
 11687      43484700 
 11688              	.LASF469:
 11689 0f38 6C765F74 		.ascii	"lv_tabview_get_style\000"
 11689      61627669 
 11689      65775F67 
 11689      65745F73 
 11689      74796C65 
 11690              	.LASF66:
 11691 0f4d 6C765F61 		.ascii	"lv_anim_path_cb_t\000"
 11691      6E696D5F 
 11691      70617468 
 11691      5F63625F 
 11691      7400
 11692              	.LASF187:
 11693 0f5f 64697370 		.ascii	"disp\000"
 11693      00
 11694              	.LASF420:
 11695 0f64 6D626F78 		.ascii	"mbox\000"
 11695      00
 11696              	.LASF366:
 11697 0f69 4C565F42 		.ascii	"LV_BTNM_CTRL_HIDDEN\000"
 11697      544E4D5F 
 11697      4354524C 
 11697      5F484944 
 11697      44454E00 
 11698              	.LASF346:
 11699 0f7d 7461625F 		.ascii	"tab_name_ptr\000"
 11699      6E616D65 
 11699      5F707472 
 11699      00
 11700              	.LASF181:
 11701 0f8a 656E635F 		.ascii	"enc_diff\000"
 11701      64696666 
ARM GAS  C:\Users\tmj32\AppData\Local\Temp\cc94ZBZn.s 			page 247


 11701      00
 11702              	.LASF389:
 11703 0f93 74676C5F 		.ascii	"tgl_rel\000"
 11703      72656C00 
 11704              	.LASF268:
 11705 0f9b 4C565F41 		.ascii	"LV_ALIGN_CENTER\000"
 11705      4C49474E 
 11705      5F43454E 
 11705      54455200 
 11706              	.LASF453:
 11707 0fab 6C765F74 		.ascii	"lv_tabview_clean\000"
 11707      61627669 
 11707      65775F63 
 11707      6C65616E 
 11707      00
 11708              	.LASF238:
 11709 0fbc 4C565F45 		.ascii	"LV_EVENT_VALUE_CHANGED\000"
 11709      56454E54 
 11709      5F56414C 
 11709      55455F43 
 11709      48414E47 
 11710              	.LASF322:
 11711 0fd3 4C565F42 		.ascii	"LV_BTN_STATE_INA\000"
 11711      544E5F53 
 11711      54415445 
 11711      5F494E41 
 11711      00
 11712              	.LASF146:
 11713 0fe4 696E765F 		.ascii	"inv_areas\000"
 11713      61726561 
 11713      7300
 11714              	.LASF210:
 11715 0fee 6C6F6E67 		.ascii	"longpr_rep_timestamp\000"
 11715      70725F72 
 11715      65705F74 
 11715      696D6573 
 11715      74616D70 
 11716              	.LASF294:
 11717 1003 6175746F 		.ascii	"auto_realign\000"
 11717      5F726561 
 11717      6C69676E 
 11717      00
 11718              	.LASF511:
 11719 1010 6C765F73 		.ascii	"lv_style_plain\000"
 11719      74796C65 
 11719      5F706C61 
 11719      696E00
 11720              	.LASF119:
 11721 101f 6F6E6365 		.ascii	"once\000"
 11721      00
 11722              	.LASF484:
 11723 1024 74616270 		.ascii	"tabpage_pressing_handler\000"
 11723      6167655F 
 11723      70726573 
 11723      73696E67 
 11723      5F68616E 
 11724              	.LASF28:
ARM GAS  C:\Users\tmj32\AppData\Local\Temp\cc94ZBZn.s 			page 248


 11725 103d 6C765F66 		.ascii	"lv_font_glyph_dsc_t\000"
 11725      6F6E745F 
 11725      676C7970 
 11725      685F6473 
 11725      635F7400 
 11726              	.LASF423:
 11727 1051 6C697374 		.ascii	"list\000"
 11727      00
 11728              	.LASF343:
 11729 1056 62746E73 		.ascii	"btns\000"
 11729      00
 11730              	.LASF80:
 11731 105b 67726164 		.ascii	"grad_color\000"
 11731      5F636F6C 
 11731      6F7200
 11732              	.LASF225:
 11733 1066 4C565F45 		.ascii	"LV_EVENT_PRESSING\000"
 11733      56454E54 
 11733      5F505245 
 11733      5353494E 
 11733      4700
 11734              	.LASF370:
 11735 1078 4C565F42 		.ascii	"LV_BTNM_CTRL_TGL_STATE\000"
 11735      544E4D5F 
 11735      4354524C 
 11735      5F54474C 
 11735      5F535441 
 11736              	.LASF421:
 11737 108f 70616765 		.ascii	"page\000"
 11737      00
 11738              	.LASF139:
 11739 1094 5F646973 		.ascii	"_disp_t\000"
 11739      705F7400 
 11740              	.LASF397:
 11741 109c 6B6E6F62 		.ascii	"knob_off\000"
 11741      5F6F6666 
 11741      00
 11742              	.LASF415:
 11743 10a5 67617567 		.ascii	"gauge\000"
 11743      6500
 11744              	.LASF255:
 11745 10ab 4C565F53 		.ascii	"LV_SIGNAL_PRESSING\000"
 11745      49474E41 
 11745      4C5F5052 
 11745      45535349 
 11745      4E4700
 11746              	.LASF227:
 11747 10be 4C565F45 		.ascii	"LV_EVENT_SHORT_CLICKED\000"
 11747      56454E54 
 11747      5F53484F 
 11747      52545F43 
 11747      4C49434B 
 11748              	.LASF229:
 11749 10d5 4C565F45 		.ascii	"LV_EVENT_LONG_PRESSED_REPEAT\000"
 11749      56454E54 
 11749      5F4C4F4E 
 11749      475F5052 
ARM GAS  C:\Users\tmj32\AppData\Local\Temp\cc94ZBZn.s 			page 249


 11749      45535345 
 11750              	.LASF462:
 11751 10f2 6C765F74 		.ascii	"lv_tabview_set_btns_pos\000"
 11751      61627669 
 11751      65775F73 
 11751      65745F62 
 11751      746E735F 
 11752              	.LASF325:
 11753 110a 4C565F53 		.ascii	"LV_SB_MODE_ON\000"
 11753      425F4D4F 
 11753      44455F4F 
 11753      4E00
 11754              	.LASF99:
 11755 1118 6C765F72 		.ascii	"lv_res_t\000"
 11755      65735F74 
 11755      00
 11756              	.LASF332:
 11757 1121 4C565F50 		.ascii	"LV_PAGE_EDGE_RIGHT\000"
 11757      4147455F 
 11757      45444745 
 11757      5F524947 
 11757      485400
 11758              	.LASF123:
 11759 1134 6275665F 		.ascii	"buf_act\000"
 11759      61637400 
 11760              	.LASF22:
 11761 113c 6C6F6E67 		.ascii	"long double\000"
 11761      20646F75 
 11761      626C6500 
 11762              	.LASF124:
 11763 1148 73697A65 		.ascii	"size\000"
 11763      00
 11764              	.LASF429:
 11765 114d 7374796C 		.ascii	"style\000"
 11765      6500
 11766              	.LASF195:
 11767 1153 76656374 		.ascii	"vect\000"
 11767      00
 11768              	.LASF274:
 11769 1158 4C565F41 		.ascii	"LV_ALIGN_IN_BOTTOM_RIGHT\000"
 11769      4C49474E 
 11769      5F494E5F 
 11769      424F5454 
 11769      4F4D5F52 
 11770              	.LASF156:
 11771 1171 6578745F 		.ascii	"ext_attr\000"
 11771      61747472 
 11771      00
 11772              	.LASF498:
 11773 117a 7461625F 		.ascii	"tab_btnm\000"
 11773      62746E6D 
 11773      00
 11774              	.LASF196:
 11775 1183 64726167 		.ascii	"drag_sum\000"
 11775      5F73756D 
 11775      00
 11776              	.LASF277:
ARM GAS  C:\Users\tmj32\AppData\Local\Temp\cc94ZBZn.s 			page 250


 11777 118c 4C565F41 		.ascii	"LV_ALIGN_OUT_TOP_LEFT\000"
 11777      4C49474E 
 11777      5F4F5554 
 11777      5F544F50 
 11777      5F4C4546 
 11778              	.LASF173:
 11779 11a2 4C565F49 		.ascii	"LV_INDEV_TYPE_POINTER\000"
 11779      4E444556 
 11779      5F545950 
 11779      455F504F 
 11779      494E5445 
 11780              	.LASF209:
 11781 11b8 70725F74 		.ascii	"pr_timestamp\000"
 11781      696D6573 
 11781      74616D70 
 11781      00
 11782              	.LASF222:
 11783 11c5 6C765F64 		.ascii	"lv_design_mode_t\000"
 11783      65736967 
 11783      6E5F6D6F 
 11783      64655F74 
 11783      00
 11784              	.LASF61:
 11785 11d6 73756270 		.ascii	"subpx\000"
 11785      7800
 11786              	.LASF233:
 11787 11dc 4C565F45 		.ascii	"LV_EVENT_DRAG_END\000"
 11787      56454E54 
 11787      5F445241 
 11787      475F454E 
 11787      4400
 11788              	.LASF478:
 11789 11ee 7461625F 		.ascii	"tab_page\000"
 11789      70616765 
 11789      00
 11790              	.LASF188:
 11791 11f7 72656164 		.ascii	"read_task\000"
 11791      5F746173 
 11791      6B00
 11792              	.LASF256:
 11793 1201 4C565F53 		.ascii	"LV_SIGNAL_PRESS_LOST\000"
 11793      49474E41 
 11793      4C5F5052 
 11793      4553535F 
 11793      4C4F5354 
 11794              	.LASF186:
 11795 1216 66656564 		.ascii	"feedback_cb\000"
 11795      6261636B 
 11795      5F636200 
 11796              	.LASF261:
 11797 1222 4C565F53 		.ascii	"LV_SIGNAL_DRAG_END\000"
 11797      49474E41 
 11797      4C5F4452 
 11797      41475F45 
 11797      4E4400
 11798              	.LASF488:
 11799 1235 696E6469 		.ascii	"indic_y\000"
ARM GAS  C:\Users\tmj32\AppData\Local\Temp\cc94ZBZn.s 			page 251


 11799      635F7900 
 11800              	.LASF392:
 11801 123d 68696E74 		.ascii	"hint\000"
 11801      00
 11802              	.LASF224:
 11803 1242 4C565F45 		.ascii	"LV_EVENT_PRESSED\000"
 11803      56454E54 
 11803      5F505245 
 11803      53534544 
 11803      00
 11804              	.LASF249:
 11805 1253 4C565F53 		.ascii	"LV_SIGNAL_PARENT_SIZE_CHG\000"
 11805      49474E41 
 11805      4C5F5041 
 11805      52454E54 
 11805      5F53495A 
 11806              	.LASF242:
 11807 126d 4C565F45 		.ascii	"LV_EVENT_CANCEL\000"
 11807      56454E54 
 11807      5F43414E 
 11807      43454C00 
 11808              	.LASF257:
 11809 127d 4C565F53 		.ascii	"LV_SIGNAL_RELEASED\000"
 11809      49474E41 
 11809      4C5F5245 
 11809      4C454153 
 11809      454400
 11810              	.LASF79:
 11811 1290 6D61696E 		.ascii	"main_color\000"
 11811      5F636F6C 
 11811      6F7200
 11812              	.LASF270:
 11813 129b 4C565F41 		.ascii	"LV_ALIGN_IN_TOP_MID\000"
 11813      4C49474E 
 11813      5F494E5F 
 11813      544F505F 
 11813      4D494400 
 11814              	.LASF0:
 11815 12af 5F5F696E 		.ascii	"__int8_t\000"
 11815      74385F74 
 11815      00
 11816              	.LASF207:
 11817 12b8 5F6C765F 		.ascii	"_lv_indev_proc_t\000"
 11817      696E6465 
 11817      765F7072 
 11817      6F635F74 
 11817      00
 11818              	.LASF266:
 11819 12c9 6C765F73 		.ascii	"lv_signal_t\000"
 11819      69676E61 
 11819      6C5F7400 
 11820              	.LASF65:
 11821 12d5 6861735F 		.ascii	"has_run\000"
 11821      72756E00 
 11822              	.LASF190:
 11823 12dd 6C6F6E67 		.ascii	"long_press_time\000"
 11823      5F707265 
ARM GAS  C:\Users\tmj32\AppData\Local\Temp\cc94ZBZn.s 			page 252


 11823      73735F74 
 11823      696D6500 
 11824              	.LASF449:
 11825 12ed 696E6469 		.ascii	"indic_size\000"
 11825      635F7369 
 11825      7A6500
 11826              	.LASF319:
 11827 12f8 4C565F42 		.ascii	"LV_BTN_STATE_PR\000"
 11827      544E5F53 
 11827      54415445 
 11827      5F505200 
 11828              	.LASF13:
 11829 1308 6C6F6E67 		.ascii	"long long unsigned int\000"
 11829      206C6F6E 
 11829      6720756E 
 11829      7369676E 
 11829      65642069 
 11830              	.LASF385:
 11831 131f 4C565F42 		.ascii	"LV_BTNM_STYLE_BTN_PR\000"
 11831      544E4D5F 
 11831      5354594C 
 11831      455F4254 
 11831      4E5F5052 
 11832              	.LASF477:
 11833 1334 74616270 		.ascii	"tabpage_signal\000"
 11833      6167655F 
 11833      7369676E 
 11833      616C00
 11834              	.LASF286:
 11835 1343 4C565F41 		.ascii	"LV_ALIGN_OUT_RIGHT_TOP\000"
 11835      4C49474E 
 11835      5F4F5554 
 11835      5F524947 
 11835      48545F54 
 11836              	.LASF18:
 11837 135a 75696E74 		.ascii	"uint16_t\000"
 11837      31365F74 
 11837      00
 11838              	.LASF98:
 11839 1363 4C565F52 		.ascii	"LV_RES_OK\000"
 11839      45535F4F 
 11839      4B00
 11840              	.LASF481:
 11841 136d 74616270 		.ascii	"tabpage_pressed_handler\000"
 11841      6167655F 
 11841      70726573 
 11841      7365645F 
 11841      68616E64 
 11842              	.LASF115:
 11843 1385 6C617374 		.ascii	"last_run\000"
 11843      5F72756E 
 11843      00
 11844              	.LASF400:
 11845 138e 68656164 		.ascii	"header_pr\000"
 11845      65725F70 
 11845      7200
 11846              	.LASF403:
ARM GAS  C:\Users\tmj32\AppData\Local\Temp\cc94ZBZn.s 			page 253


 11847 1398 696E6163 		.ascii	"inactive_days\000"
 11847      74697665 
 11847      5F646179 
 11847      7300
 11848              	.LASF40:
 11849 13a6 6C765F63 		.ascii	"lv_color_t\000"
 11849      6F6C6F72 
 11849      5F7400
 11850              	.LASF505:
 11851 13b1 616E6365 		.ascii	"ancestor_signal\000"
 11851      73746F72 
 11851      5F736967 
 11851      6E616C00 
 11852              	.LASF292:
 11853 13c1 796F6673 		.ascii	"yofs\000"
 11853      00
 11854              	.LASF212:
 11855 13c6 72657365 		.ascii	"reset_query\000"
 11855      745F7175 
 11855      65727900 
 11856              	.LASF120:
 11857 13d2 6C765F74 		.ascii	"lv_task_t\000"
 11857      61736B5F 
 11857      7400
 11858              	.LASF435:
 11859 13dc 6C765F61 		.ascii	"lv_area_get_height\000"
 11859      7265615F 
 11859      6765745F 
 11859      68656967 
 11859      687400
 11860              	.LASF109:
 11861 13ef 4C565F42 		.ascii	"LV_BIDI_DIR_NEUTRAL\000"
 11861      4944495F 
 11861      4449525F 
 11861      4E455554 
 11861      52414C00 
 11862              	.LASF315:
 11863 1403 6C765F66 		.ascii	"lv_fit_t\000"
 11863      69745F74 
 11863      00
 11864              	.LASF455:
 11865 140c 616E696D 		.ascii	"anim\000"
 11865      00
 11866              	.LASF53:
 11867 1411 65786563 		.ascii	"exec_cb\000"
 11867      5F636200 
 11868              	.LASF174:
 11869 1419 4C565F49 		.ascii	"LV_INDEV_TYPE_KEYPAD\000"
 11869      4E444556 
 11869      5F545950 
 11869      455F4B45 
 11869      59504144 
 11870              	.LASF335:
 11871 142e 4C565F50 		.ascii	"LV_PAGE_STYLE_SCRL\000"
 11871      4147455F 
 11871      5354594C 
 11871      455F5343 
ARM GAS  C:\Users\tmj32\AppData\Local\Temp\cc94ZBZn.s 			page 254


 11871      524C00
 11872              	.LASF514:
 11873 1441 474E5520 		.ascii	"GNU C11 5.4.1 20160609 (release) [ARM/embedded-5-br"
 11873      43313120 
 11873      352E342E 
 11873      31203230 
 11873      31363036 
 11874 1474 616E6368 		.ascii	"anch revision 237715] -mcpu=cortex-m4 -mfloat-abi=s"
 11874      20726576 
 11874      6973696F 
 11874      6E203233 
 11874      37373135 
 11875 14a7 6F667466 		.ascii	"oftfp -mfpu=fpv4-sp-d16 -mthumb -g -O0 -ffunction-s"
 11875      70202D6D 
 11875      6670753D 
 11875      66707634 
 11875      2D73702D 
 11876 14da 65637469 		.ascii	"ections -ffat-lto-objects\000"
 11876      6F6E7320 
 11876      2D666661 
 11876      742D6C74 
 11876      6F2D6F62 
 11877              	.LASF114:
 11878 14f4 70657269 		.ascii	"period\000"
 11878      6F6400
 11879              	.LASF134:
 11880 14fb 726F756E 		.ascii	"rounder_cb\000"
 11880      6465725F 
 11880      636200
 11881              	.LASF395:
 11882 1506 6465636F 		.ascii	"decor\000"
 11882      7200
 11883              	.LASF500:
 11884 150c 74616276 		.ascii	"tabview_realign\000"
 11884      6965775F 
 11884      7265616C 
 11884      69676E00 
 11885              	.LASF411:
 11886 151c 696D6762 		.ascii	"imgbtn\000"
 11886      746E00
 11887              	.LASF4:
 11888 1523 5F5F696E 		.ascii	"__int16_t\000"
 11888      7431365F 
 11888      7400
 11889              	.LASF515:
 11890 152d 2E2E5C2E 		.ascii	"..\\..\\..\\lvgl\\version_6.1.2\\lvgl\\src\\lv_objx"
 11890      2E5C2E2E 
 11890      5C6C7667 
 11890      6C5C7665 
 11890      7273696F 
 11891 1559 5C6C765F 		.ascii	"\\lv_tabview.c\000"
 11891      74616276 
 11891      6965772E 
 11891      6300
 11892              	.LASF409:
 11893 1567 70616E65 		.ascii	"panel\000"
 11893      6C00
ARM GAS  C:\Users\tmj32\AppData\Local\Temp\cc94ZBZn.s 			page 255


 11894              	.LASF202:
 11895 156d 64726167 		.ascii	"drag_in_prog\000"
 11895      5F696E5F 
 11895      70726F67 
 11895      00
 11896              	.LASF472:
 11897 157a 6C765F74 		.ascii	"lv_tabview_signal\000"
 11897      61627669 
 11897      65775F73 
 11897      69676E61 
 11897      6C00
 11898              	.LASF107:
 11899 158c 4C565F42 		.ascii	"LV_BIDI_DIR_AUTO\000"
 11899      4944495F 
 11899      4449525F 
 11899      4155544F 
 11899      00
 11900              	.LASF38:
 11901 159d 66756C6C 		.ascii	"full\000"
 11901      00
 11902              	.LASF276:
 11903 15a2 4C565F41 		.ascii	"LV_ALIGN_IN_RIGHT_MID\000"
 11903      4C49474E 
 11903      5F494E5F 
 11903      52494748 
 11903      545F4D49 
 11904              	.LASF71:
 11905 15b8 636F6C6F 		.ascii	"color\000"
 11905      7200
 11906              	.LASF57:
 11907 15be 74696D65 		.ascii	"time\000"
 11907      00
 11908              	.LASF201:
 11909 15c3 64726167 		.ascii	"drag_limit_out\000"
 11909      5F6C696D 
 11909      69745F6F 
 11909      757400
 11910              	.LASF88:
 11911 15d2 6C696E65 		.ascii	"line_space\000"
 11911      5F737061 
 11911      636500
 11912              	.LASF291:
 11913 15dd 786F6673 		.ascii	"xofs\000"
 11913      00
 11914              	.LASF491:
 11915 15e2 785F7072 		.ascii	"x_predict\000"
 11915      65646963 
 11915      7400
 11916              	.LASF314:
 11917 15ec 5F4C565F 		.ascii	"_LV_FIT_NUM\000"
 11917      4649545F 
 11917      4E554D00 
 11918              	.LASF298:
 11919 15f8 6C765F6F 		.ascii	"lv_obj_t\000"
 11919      626A5F74 
 11919      00
 11920              	.LASF330:
ARM GAS  C:\Users\tmj32\AppData\Local\Temp\cc94ZBZn.s 			page 256


 11921 1601 4C565F50 		.ascii	"LV_PAGE_EDGE_LEFT\000"
 11921      4147455F 
 11921      45444745 
 11921      5F4C4546 
 11921      5400
 11922              	.LASF308:
 11923 1613 4C565F4C 		.ascii	"LV_LAYOUT_GRID\000"
 11923      41594F55 
 11923      545F4752 
 11923      494400
 11924              	.LASF70:
 11925 1622 6C765F73 		.ascii	"lv_shadow_type_t\000"
 11925      6861646F 
 11925      775F7479 
 11925      70655F74 
 11925      00
 11926              	.LASF159:
 11927 1633 64726167 		.ascii	"drag\000"
 11927      00
 11928              	.LASF513:
 11929 1638 6C765F73 		.ascii	"lv_style_pretty\000"
 11929      74796C65 
 11929      5F707265 
 11929      74747900 
 11930              	.LASF313:
 11931 1648 4C565F46 		.ascii	"LV_FIT_FILL\000"
 11931      49545F46 
 11931      494C4C00 
 11932              	.LASF388:
 11933 1654 4C565F42 		.ascii	"LV_BTNM_STYLE_BTN_INA\000"
 11933      544E4D5F 
 11933      5354594C 
 11933      455F4254 
 11933      4E5F494E 
 11934              	.LASF502:
 11935 166a 7374796C 		.ascii	"style_btn_bg\000"
 11935      655F6274 
 11935      6E5F6267 
 11935      00
 11936              	.LASF150:
 11937 1677 5F6C765F 		.ascii	"_lv_obj_t\000"
 11937      6F626A5F 
 11937      7400
 11938              	.LASF269:
 11939 1681 4C565F41 		.ascii	"LV_ALIGN_IN_TOP_LEFT\000"
 11939      4C49474E 
 11939      5F494E5F 
 11939      544F505F 
 11939      4C454654 
 11940              	.LASF86:
 11941 1696 666F6E74 		.ascii	"font\000"
 11941      00
 11942              	.LASF342:
 11943 169b 6C765F74 		.ascii	"lv_tabview_btns_pos_t\000"
 11943      61627669 
 11943      65775F62 
 11943      746E735F 
ARM GAS  C:\Users\tmj32\AppData\Local\Temp\cc94ZBZn.s 			page 257


 11943      706F735F 
 11944              	.LASF87:
 11945 16b1 6C657474 		.ascii	"letter_space\000"
 11945      65725F73 
 11945      70616365 
 11945      00
 11946              	.LASF140:
 11947 16be 64726976 		.ascii	"driver\000"
 11947      657200
 11948              	.LASF166:
 11949 16c5 62617365 		.ascii	"base_dir\000"
 11949      5F646972 
 11949      00
 11950              	.LASF466:
 11951 16ce 6C765F74 		.ascii	"lv_tabview_get_tab\000"
 11951      61627669 
 11951      65775F67 
 11951      65745F74 
 11951      616200
 11952              	.LASF25:
 11953 16e1 626F785F 		.ascii	"box_h\000"
 11953      6800
 11954              	.LASF364:
 11955 16e7 4C565F54 		.ascii	"LV_TABVIEW_STYLE_BTN_TGL_PR\000"
 11955      41425649 
 11955      45575F53 
 11955      54594C45 
 11955      5F42544E 
 11956              	.LASF334:
 11957 1703 4C565F50 		.ascii	"LV_PAGE_STYLE_BG\000"
 11957      4147455F 
 11957      5354594C 
 11957      455F4247 
 11957      00
 11958              	.LASF290:
 11959 1714 62617365 		.ascii	"base\000"
 11959      00
 11960              	.LASF24:
 11961 1719 626F785F 		.ascii	"box_w\000"
 11961      7700
 11962              	.LASF5:
 11963 171f 73686F72 		.ascii	"short int\000"
 11963      7420696E 
 11963      7400
 11964              	.LASF62:
 11965 1729 706C6179 		.ascii	"playback\000"
 11965      6261636B 
 11965      00
 11966              	.LASF487:
 11967 1732 795F6469 		.ascii	"y_diff\000"
 11967      666600
 11968              	.LASF32:
 11969 1739 62617365 		.ascii	"base_line\000"
 11969      5F6C696E 
 11969      6500
 11970              	.LASF148:
 11971 1743 696E765F 		.ascii	"inv_p\000"
ARM GAS  C:\Users\tmj32\AppData\Local\Temp\cc94ZBZn.s 			page 258


 11971      7000
 11972              	.LASF104:
 11973 1749 6C765F6C 		.ascii	"lv_ll_t\000"
 11973      6C5F7400 
 11974              	.LASF206:
 11975 1751 6B657970 		.ascii	"keypad\000"
 11975      616400
 11976              	.LASF279:
 11977 1758 4C565F41 		.ascii	"LV_ALIGN_OUT_TOP_RIGHT\000"
 11977      4C49474E 
 11977      5F4F5554 
 11977      5F544F50 
 11977      5F524947 
 11978              	.LASF17:
 11979 176f 696E7431 		.ascii	"int16_t\000"
 11979      365F7400 
 11980              	.LASF248:
 11981 1777 4C565F53 		.ascii	"LV_SIGNAL_CORD_CHG\000"
 11981      49474E41 
 11981      4C5F434F 
 11981      52445F43 
 11981      484700
 11982              	.LASF510:
 11983 178a 6C765F73 		.ascii	"lv_style_transp_tight\000"
 11983      74796C65 
 11983      5F747261 
 11983      6E73705F 
 11983      74696768 
 11984              	.LASF375:
 11985 17a0 6374726C 		.ascii	"ctrl_bits\000"
 11985      5F626974 
 11985      7300
 11986              	.LASF152:
 11987 17aa 636F6F72 		.ascii	"coords\000"
 11987      647300
 11988              	.LASF512:
 11989 17b1 6C765F73 		.ascii	"lv_style_plain_color\000"
 11989      74796C65 
 11989      5F706C61 
 11989      696E5F63 
 11989      6F6C6F72 
 11990              	.LASF483:
 11991 17c6 696E6465 		.ascii	"indev\000"
 11991      7600
 11992              	.LASF145:
 11993 17cc 7379735F 		.ascii	"sys_layer\000"
 11993      6C617965 
 11993      7200
 11994              	.LASF422:
 11995 17d6 7370696E 		.ascii	"spinbox\000"
 11995      626F7800 
 11996              	.LASF494:
 11997 17de 74726573 		.ascii	"treshold\000"
 11997      686F6C64 
 11997      00
 11998              	.LASF360:
 11999 17e7 4C565F54 		.ascii	"LV_TABVIEW_STYLE_BTN_BG\000"
ARM GAS  C:\Users\tmj32\AppData\Local\Temp\cc94ZBZn.s 			page 259


 11999      41425649 
 11999      45575F53 
 11999      54594C45 
 11999      5F42544E 
 12000              	.LASF163:
 12001 17ff 6F70615F 		.ascii	"opa_scale_en\000"
 12001      7363616C 
 12001      655F656E 
 12001      00
 12002              	.LASF401:
 12003 180c 6461795F 		.ascii	"day_names\000"
 12003      6E616D65 
 12003      7300
 12004              	.LASF398:
 12005 1816 6B6E6F62 		.ascii	"knob_on\000"
 12005      5F6F6E00 
 12006              	.LASF83:
 12007 181e 73686164 		.ascii	"shadow\000"
 12007      6F7700
 12008              	.LASF215:
 12009 1825 6C765F69 		.ascii	"lv_indev_proc_t\000"
 12009      6E646576 
 12009      5F70726F 
 12009      635F7400 
 12010              	.LASF237:
 12011 1835 4C565F45 		.ascii	"LV_EVENT_DEFOCUSED\000"
 12011      56454E54 
 12011      5F444546 
 12011      4F435553 
 12011      454400
 12012              	.LASF331:
 12013 1848 4C565F50 		.ascii	"LV_PAGE_EDGE_TOP\000"
 12013      4147455F 
 12013      45444745 
 12013      5F544F50 
 12013      00
 12014              	.LASF497:
 12015 1859 7461625F 		.ascii	"tab_btnm_event_cb\000"
 12015      62746E6D 
 12015      5F657665 
 12015      6E745F63 
 12015      6200
 12016              	.LASF432:
 12017 186b 6C765F61 		.ascii	"lv_area_get_width\000"
 12017      7265615F 
 12017      6765745F 
 12017      77696474 
 12017      6800
 12018              	.LASF275:
 12019 187d 4C565F41 		.ascii	"LV_ALIGN_IN_LEFT_MID\000"
 12019      4C49474E 
 12019      5F494E5F 
 12019      4C454654 
 12019      5F4D4944 
 12020              	.LASF369:
 12021 1892 4C565F42 		.ascii	"LV_BTNM_CTRL_TGL_ENABLE\000"
 12021      544E4D5F 
ARM GAS  C:\Users\tmj32\AppData\Local\Temp\cc94ZBZn.s 			page 260


 12021      4354524C 
 12021      5F54474C 
 12021      5F454E41 
 12022              	.LASF355:
 12023 18aa 62746E73 		.ascii	"btns_hide\000"
 12023      5F686964 
 12023      6500
 12024              	.LASF161:
 12025 18b4 64726167 		.ascii	"drag_parent\000"
 12025      5F706172 
 12025      656E7400 
 12026              	.LASF192:
 12027 18c0 6C765F69 		.ascii	"lv_indev_drv_t\000"
 12027      6E646576 
 12027      5F647276 
 12027      5F7400
 12028              	.LASF251:
 12029 18cf 4C565F53 		.ascii	"LV_SIGNAL_BASE_DIR_CHG\000"
 12029      49474E41 
 12029      4C5F4241 
 12029      53455F44 
 12029      49525F43 
 12030              	.LASF58:
 12031 18e6 6163745F 		.ascii	"act_time\000"
 12031      74696D65 
 12031      00
 12032              	.LASF374:
 12033 18ef 62757474 		.ascii	"button_areas\000"
 12033      6F6E5F61 
 12033      72656173 
 12033      00
 12034              	.LASF189:
 12035 18fc 64726167 		.ascii	"drag_limit\000"
 12035      5F6C696D 
 12035      697400
 12036              	.LASF138:
 12037 1907 6C765F64 		.ascii	"lv_disp_drv_t\000"
 12037      6973705F 
 12037      6472765F 
 12037      7400
 12038              	.LASF361:
 12039 1915 4C565F54 		.ascii	"LV_TABVIEW_STYLE_BTN_REL\000"
 12039      41425649 
 12039      45575F53 
 12039      54594C45 
 12039      5F42544E 
 12040              	.LASF278:
 12041 192e 4C565F41 		.ascii	"LV_ALIGN_OUT_TOP_MID\000"
 12041      4C49474E 
 12041      5F4F5554 
 12041      5F544F50 
 12041      5F4D4944 
 12042              	.LASF183:
 12043 1943 6C765F69 		.ascii	"lv_indev_data_t\000"
 12043      6E646576 
 12043      5F646174 
 12043      615F7400 
ARM GAS  C:\Users\tmj32\AppData\Local\Temp\cc94ZBZn.s 			page 261


 12044              	.LASF475:
 12045 1953 696E6465 		.ascii	"indev_type\000"
 12045      765F7479 
 12045      706500
 12046              	.LASF106:
 12047 195e 4C565F42 		.ascii	"LV_BIDI_DIR_RTL\000"
 12047      4944495F 
 12047      4449525F 
 12047      52544C00 
 12048              	.LASF345:
 12049 196e 636F6E74 		.ascii	"content\000"
 12049      656E7400 
 12050              	.LASF84:
 12051 1976 70616464 		.ascii	"padding\000"
 12051      696E6700 
 12052              	.LASF508:
 12053 197e 7461625F 		.ascii	"tab_def\000"
 12053      64656600 
 12054              	.LASF311:
 12055 1986 4C565F46 		.ascii	"LV_FIT_TIGHT\000"
 12055      49545F54 
 12055      49474854 
 12055      00
 12056              	.LASF154:
 12057 1993 7369676E 		.ascii	"signal_cb\000"
 12057      616C5F63 
 12057      6200
 12058              	.LASF20:
 12059 199d 75696E74 		.ascii	"uint32_t\000"
 12059      33325F74 
 12059      00
 12060              	.LASF354:
 12061 19a6 7363726F 		.ascii	"scroll_ver\000"
 12061      6C6C5F76 
 12061      657200
 12062              	.LASF59:
 12063 19b1 706C6179 		.ascii	"playback_pause\000"
 12063      6261636B 
 12063      5F706175 
 12063      736500
 12064              	.LASF326:
 12065 19c0 4C565F53 		.ascii	"LV_SB_MODE_DRAG\000"
 12065      425F4D4F 
 12065      44455F44 
 12065      52414700 
 12066              	.LASF283:
 12067 19d0 4C565F41 		.ascii	"LV_ALIGN_OUT_LEFT_TOP\000"
 12067      4C49474E 
 12067      5F4F5554 
 12067      5F4C4546 
 12067      545F544F 
 12068              	.LASF394:
 12069 19e6 6461726B 		.ascii	"dark\000"
 12069      00
 12070              	.LASF36:
 12071 19eb 67726565 		.ascii	"green\000"
 12071      6E00
ARM GAS  C:\Users\tmj32\AppData\Local\Temp\cc94ZBZn.s 			page 262


 12072              	.LASF34:
 12073 19f1 6C765F66 		.ascii	"lv_font_t\000"
 12073      6F6E745F 
 12073      7400
 12074              	.LASF167:
 12075 19fb 72657365 		.ascii	"reserved\000"
 12075      72766564 
 12075      00
 12076              	.LASF430:
 12077 1a04 6C765F74 		.ascii	"lv_theme_t\000"
 12077      68656D65 
 12077      5F7400
 12078              	.LASF136:
 12079 1a0f 6D6F6E69 		.ascii	"monitor_cb\000"
 12079      746F725F 
 12079      636200
 12080              	.LASF7:
 12081 1a1a 73686F72 		.ascii	"short unsigned int\000"
 12081      7420756E 
 12081      7369676E 
 12081      65642069 
 12081      6E7400
 12082              	.LASF382:
 12083 1a2d 6C765F62 		.ascii	"lv_btnm_ext_t\000"
 12083      746E6D5F 
 12083      6578745F 
 12083      7400
 12084              	.LASF73:
 12085 1a3b 70617274 		.ascii	"part\000"
 12085      00
 12086              	.LASF235:
 12087 1a40 4C565F45 		.ascii	"LV_EVENT_KEY\000"
 12087      56454E54 
 12087      5F4B4559 
 12087      00
 12088              	.LASF21:
 12089 1a4d 6C765F63 		.ascii	"lv_coord_t\000"
 12089      6F6F7264 
 12089      5F7400
 12090              	.LASF172:
 12091 1a58 4C565F49 		.ascii	"LV_INDEV_TYPE_NONE\000"
 12091      4E444556 
 12091      5F545950 
 12091      455F4E4F 
 12091      4E4500
 12092              	.LASF133:
 12093 1a6b 666C7573 		.ascii	"flush_cb\000"
 12093      685F6362 
 12093      00
 12094              	.LASF117:
 12095 1a74 75736572 		.ascii	"user_data\000"
 12095      5F646174 
 12095      6100
 12096              	.LASF226:
 12097 1a7e 4C565F45 		.ascii	"LV_EVENT_PRESS_LOST\000"
 12097      56454E54 
 12097      5F505245 
ARM GAS  C:\Users\tmj32\AppData\Local\Temp\cc94ZBZn.s 			page 263


 12097      53535F4C 
 12097      4F535400 
 12098              	.LASF480:
 12099 1a92 7461625F 		.ascii	"tab_scrl\000"
 12099      7363726C 
 12099      00
 12100              	.LASF64:
 12101 1a9b 706C6179 		.ascii	"playback_now\000"
 12101      6261636B 
 12101      5F6E6F77 
 12101      00
 12102              	.LASF82:
 12103 1aa8 626F7264 		.ascii	"border\000"
 12103      657200
 12104              	.LASF412:
 12105 1aaf 6C616265 		.ascii	"label\000"
 12105      6C00
 12106              	.LASF29:
 12107 1ab5 6765745F 		.ascii	"get_glyph_dsc\000"
 12107      676C7970 
 12107      685F6473 
 12107      6300
 12108              	.LASF8:
 12109 1ac3 5F5F696E 		.ascii	"__int32_t\000"
 12109      7433325F 
 12109      7400
 12110              	.LASF297:
 12111 1acd 6C765F64 		.ascii	"lv_drag_dir_t\000"
 12111      7261675F 
 12111      6469725F 
 12111      7400
 12112              	.LASF69:
 12113 1adb 6C765F62 		.ascii	"lv_border_part_t\000"
 12113      6F726465 
 12113      725F7061 
 12113      72745F74 
 12113      00
 12114              	.LASF211:
 12115 1aec 6C6F6E67 		.ascii	"long_pr_sent\000"
 12115      5F70725F 
 12115      73656E74 
 12115      00
 12116              	.LASF245:
 12117 1af9 6C765F65 		.ascii	"lv_event_cb_t\000"
 12117      76656E74 
 12117      5F63625F 
 12117      7400
 12118              	.LASF416:
 12119 1b07 7072656C 		.ascii	"preload\000"
 12119      6F616400 
 12120              	.LASF295:
 12121 1b0f 6F726967 		.ascii	"origo_align\000"
 12121      6F5F616C 
 12121      69676E00 
 12122              	.LASF396:
 12123 1b1b 6B6E6F62 		.ascii	"knob\000"
 12123      00
ARM GAS  C:\Users\tmj32\AppData\Local\Temp\cc94ZBZn.s 			page 264


 12124              	.LASF85:
 12125 1b20 73656C5F 		.ascii	"sel_color\000"
 12125      636F6C6F 
 12125      7200
 12126              	.LASF112:
 12127 1b2a 6C765F74 		.ascii	"lv_task_cb_t\000"
 12127      61736B5F 
 12127      63625F74 
 12127      00
 12128              	.LASF439:
 12129 1b37 6E65775F 		.ascii	"new_tabview\000"
 12129      74616276 
 12129      69657700 
 12130              	.LASF51:
 12131 1b43 5F6C765F 		.ascii	"_lv_font_struct\000"
 12131      666F6E74 
 12131      5F737472 
 12131      75637400 
 12132              	.LASF208:
 12133 1b53 74797065 		.ascii	"types\000"
 12133      7300
 12134              	.LASF52:
 12135 1b59 5F6C765F 		.ascii	"_lv_anim_t\000"
 12135      616E696D 
 12135      5F7400
 12136              	.LASF101:
 12137 1b64 6E5F7369 		.ascii	"n_size\000"
 12137      7A6500
 12138              	.LASF323:
 12139 1b6b 5F4C565F 		.ascii	"_LV_BTN_STATE_NUM\000"
 12139      42544E5F 
 12139      53544154 
 12139      455F4E55 
 12139      4D00
 12140              	.LASF218:
 12141 1b7d 63757273 		.ascii	"cursor\000"
 12141      6F7200
 12142              	.LASF517:
 12143 1b84 5F6C765F 		.ascii	"_lv_group_t\000"
 12143      67726F75 
 12143      705F7400 
 12144              	.LASF231:
 12145 1b90 4C565F45 		.ascii	"LV_EVENT_RELEASED\000"
 12145      56454E54 
 12145      5F52454C 
 12145      45415345 
 12145      4400
 12146              	.LASF223:
 12147 1ba2 6C765F64 		.ascii	"lv_design_cb_t\000"
 12147      65736967 
 12147      6E5F6362 
 12147      5F7400
 12148              	.LASF507:
 12149 1bb1 70616765 		.ascii	"page_scrl_signal\000"
 12149      5F736372 
 12149      6C5F7369 
 12149      676E616C 
ARM GAS  C:\Users\tmj32\AppData\Local\Temp\cc94ZBZn.s 			page 265


 12149      00
 12150              	.LASF169:
 12151 1bc2 6F70615F 		.ascii	"opa_scale\000"
 12151      7363616C 
 12151      6500
 12152              	.LASF425:
 12153 1bcc 726F6C6C 		.ascii	"roller\000"
 12153      657200
 12154              		.ident	"GCC: (GNU Tools for ARM Embedded Processors) 5.4.1 20160609 (release) [ARM/embedded-5-bran
