ARM GAS  C:\Users\tmj32\AppData\Local\Temp\cc94ZBZn.s 			page 1


   1              		.syntax unified
   2              		.cpu cortex-m4
   3              		.eabi_attribute 27, 1
   4              		.fpu fpv4-sp-d16
   5              		.eabi_attribute 20, 1
   6              		.eabi_attribute 21, 1
   7              		.eabi_attribute 23, 3
   8              		.eabi_attribute 24, 1
   9              		.eabi_attribute 25, 1
  10              		.eabi_attribute 26, 1
  11              		.eabi_attribute 30, 6
  12              		.eabi_attribute 34, 1
  13              		.eabi_attribute 18, 4
  14              		.thumb
  15              		.syntax unified
  16              		.file	"lv_tabview.c"
  17              		.text
  18              	.Ltext0:
  19              		.cfi_sections	.debug_frame
  20              		.section	.text.lv_font_get_line_height,"ax",%progbits
  21              		.align	2
  22              		.thumb
  23              		.thumb_func
  24              		.type	lv_font_get_line_height, %function
  25              	lv_font_get_line_height:
  26              	.LFB0:
  27              		.file 1 "..\\..\\..\\lvgl\\version_6.1.2\\lvgl\\src\\lv_objx\\../lv_core/../lv_font/lv_font.h"
   1:..\..\..\lvgl\version_6.1.2\lvgl\src\lv_objx\../lv_core/../lv_font/lv_font.h **** /**
   2:..\..\..\lvgl\version_6.1.2\lvgl\src\lv_objx\../lv_core/../lv_font/lv_font.h ****  * @file lv_font.h
   3:..\..\..\lvgl\version_6.1.2\lvgl\src\lv_objx\../lv_core/../lv_font/lv_font.h ****  *
   4:..\..\..\lvgl\version_6.1.2\lvgl\src\lv_objx\../lv_core/../lv_font/lv_font.h ****  */
   5:..\..\..\lvgl\version_6.1.2\lvgl\src\lv_objx\../lv_core/../lv_font/lv_font.h **** 
   6:..\..\..\lvgl\version_6.1.2\lvgl\src\lv_objx\../lv_core/../lv_font/lv_font.h **** #ifndef LV_FONT_H
   7:..\..\..\lvgl\version_6.1.2\lvgl\src\lv_objx\../lv_core/../lv_font/lv_font.h **** #define LV_FONT_H
   8:..\..\..\lvgl\version_6.1.2\lvgl\src\lv_objx\../lv_core/../lv_font/lv_font.h **** 
   9:..\..\..\lvgl\version_6.1.2\lvgl\src\lv_objx\../lv_core/../lv_font/lv_font.h **** #ifdef __cplusplus
  10:..\..\..\lvgl\version_6.1.2\lvgl\src\lv_objx\../lv_core/../lv_font/lv_font.h **** extern "C" {
  11:..\..\..\lvgl\version_6.1.2\lvgl\src\lv_objx\../lv_core/../lv_font/lv_font.h **** #endif
  12:..\..\..\lvgl\version_6.1.2\lvgl\src\lv_objx\../lv_core/../lv_font/lv_font.h **** 
  13:..\..\..\lvgl\version_6.1.2\lvgl\src\lv_objx\../lv_core/../lv_font/lv_font.h **** /*********************
  14:..\..\..\lvgl\version_6.1.2\lvgl\src\lv_objx\../lv_core/../lv_font/lv_font.h ****  *      INCLUDES
  15:..\..\..\lvgl\version_6.1.2\lvgl\src\lv_objx\../lv_core/../lv_font/lv_font.h ****  *********************/
  16:..\..\..\lvgl\version_6.1.2\lvgl\src\lv_objx\../lv_core/../lv_font/lv_font.h **** #ifdef LV_CONF_INCLUDE_SIMPLE
  17:..\..\..\lvgl\version_6.1.2\lvgl\src\lv_objx\../lv_core/../lv_font/lv_font.h **** #include "lv_conf.h"
  18:..\..\..\lvgl\version_6.1.2\lvgl\src\lv_objx\../lv_core/../lv_font/lv_font.h **** #else
  19:..\..\..\lvgl\version_6.1.2\lvgl\src\lv_objx\../lv_core/../lv_font/lv_font.h **** #include "../../../lv_conf.h"
  20:..\..\..\lvgl\version_6.1.2\lvgl\src\lv_objx\../lv_core/../lv_font/lv_font.h **** #endif
  21:..\..\..\lvgl\version_6.1.2\lvgl\src\lv_objx\../lv_core/../lv_font/lv_font.h **** 
  22:..\..\..\lvgl\version_6.1.2\lvgl\src\lv_objx\../lv_core/../lv_font/lv_font.h **** #include <stdint.h>
  23:..\..\..\lvgl\version_6.1.2\lvgl\src\lv_objx\../lv_core/../lv_font/lv_font.h **** #include <stddef.h>
  24:..\..\..\lvgl\version_6.1.2\lvgl\src\lv_objx\../lv_core/../lv_font/lv_font.h **** #include <stdbool.h>
  25:..\..\..\lvgl\version_6.1.2\lvgl\src\lv_objx\../lv_core/../lv_font/lv_font.h **** 
  26:..\..\..\lvgl\version_6.1.2\lvgl\src\lv_objx\../lv_core/../lv_font/lv_font.h **** #include "lv_symbol_def.h"
  27:..\..\..\lvgl\version_6.1.2\lvgl\src\lv_objx\../lv_core/../lv_font/lv_font.h **** 
  28:..\..\..\lvgl\version_6.1.2\lvgl\src\lv_objx\../lv_core/../lv_font/lv_font.h **** /*********************
  29:..\..\..\lvgl\version_6.1.2\lvgl\src\lv_objx\../lv_core/../lv_font/lv_font.h ****  *      DEFINES
  30:..\..\..\lvgl\version_6.1.2\lvgl\src\lv_objx\../lv_core/../lv_font/lv_font.h ****  *********************/
ARM GAS  C:\Users\tmj32\AppData\Local\Temp\cc94ZBZn.s 			page 2


  31:..\..\..\lvgl\version_6.1.2\lvgl\src\lv_objx\../lv_core/../lv_font/lv_font.h **** /*Number of fractional digits in the advanced width (`adv_w`) field of `lv_font_glyph_dsc_t`*/
  32:..\..\..\lvgl\version_6.1.2\lvgl\src\lv_objx\../lv_core/../lv_font/lv_font.h **** #define LV_FONT_WIDTH_FRACT_DIGIT       4
  33:..\..\..\lvgl\version_6.1.2\lvgl\src\lv_objx\../lv_core/../lv_font/lv_font.h **** 
  34:..\..\..\lvgl\version_6.1.2\lvgl\src\lv_objx\../lv_core/../lv_font/lv_font.h **** #define LV_FONT_KERN_POSITIVE        0
  35:..\..\..\lvgl\version_6.1.2\lvgl\src\lv_objx\../lv_core/../lv_font/lv_font.h **** #define LV_FONT_KERN_NEGATIVE        1
  36:..\..\..\lvgl\version_6.1.2\lvgl\src\lv_objx\../lv_core/../lv_font/lv_font.h **** 
  37:..\..\..\lvgl\version_6.1.2\lvgl\src\lv_objx\../lv_core/../lv_font/lv_font.h **** /**********************
  38:..\..\..\lvgl\version_6.1.2\lvgl\src\lv_objx\../lv_core/../lv_font/lv_font.h ****  *      TYPEDEFS
  39:..\..\..\lvgl\version_6.1.2\lvgl\src\lv_objx\../lv_core/../lv_font/lv_font.h ****  **********************/
  40:..\..\..\lvgl\version_6.1.2\lvgl\src\lv_objx\../lv_core/../lv_font/lv_font.h **** 
  41:..\..\..\lvgl\version_6.1.2\lvgl\src\lv_objx\../lv_core/../lv_font/lv_font.h **** /*------------------
  42:..\..\..\lvgl\version_6.1.2\lvgl\src\lv_objx\../lv_core/../lv_font/lv_font.h ****  * General types
  43:..\..\..\lvgl\version_6.1.2\lvgl\src\lv_objx\../lv_core/../lv_font/lv_font.h ****  *-----------------*/
  44:..\..\..\lvgl\version_6.1.2\lvgl\src\lv_objx\../lv_core/../lv_font/lv_font.h **** 
  45:..\..\..\lvgl\version_6.1.2\lvgl\src\lv_objx\../lv_core/../lv_font/lv_font.h **** /** Describes the properties of a glyph. */
  46:..\..\..\lvgl\version_6.1.2\lvgl\src\lv_objx\../lv_core/../lv_font/lv_font.h **** typedef struct
  47:..\..\..\lvgl\version_6.1.2\lvgl\src\lv_objx\../lv_core/../lv_font/lv_font.h **** {
  48:..\..\..\lvgl\version_6.1.2\lvgl\src\lv_objx\../lv_core/../lv_font/lv_font.h ****     uint16_t adv_w; /**< The glyph needs this space. Draw the next glyph after this width. 8 bit in
  49:..\..\..\lvgl\version_6.1.2\lvgl\src\lv_objx\../lv_core/../lv_font/lv_font.h ****     uint8_t box_w;  /**< Width of the glyph's bounding box*/
  50:..\..\..\lvgl\version_6.1.2\lvgl\src\lv_objx\../lv_core/../lv_font/lv_font.h ****     uint8_t box_h;  /**< Height of the glyph's bounding box*/
  51:..\..\..\lvgl\version_6.1.2\lvgl\src\lv_objx\../lv_core/../lv_font/lv_font.h ****     int8_t ofs_x;   /**< x offset of the bounding box*/
  52:..\..\..\lvgl\version_6.1.2\lvgl\src\lv_objx\../lv_core/../lv_font/lv_font.h ****     int8_t ofs_y;  /**< y offset of the bounding box*/
  53:..\..\..\lvgl\version_6.1.2\lvgl\src\lv_objx\../lv_core/../lv_font/lv_font.h ****     uint8_t bpp;   /**< Bit-per-pixel: 1, 2, 4, 8*/
  54:..\..\..\lvgl\version_6.1.2\lvgl\src\lv_objx\../lv_core/../lv_font/lv_font.h **** }lv_font_glyph_dsc_t;
  55:..\..\..\lvgl\version_6.1.2\lvgl\src\lv_objx\../lv_core/../lv_font/lv_font.h **** 
  56:..\..\..\lvgl\version_6.1.2\lvgl\src\lv_objx\../lv_core/../lv_font/lv_font.h **** 
  57:..\..\..\lvgl\version_6.1.2\lvgl\src\lv_objx\../lv_core/../lv_font/lv_font.h **** /** The bitmaps might be upscaled by 3 to achieve subpixel rendering. */
  58:..\..\..\lvgl\version_6.1.2\lvgl\src\lv_objx\../lv_core/../lv_font/lv_font.h **** enum {
  59:..\..\..\lvgl\version_6.1.2\lvgl\src\lv_objx\../lv_core/../lv_font/lv_font.h ****     LV_FONT_SUBPX_NONE,
  60:..\..\..\lvgl\version_6.1.2\lvgl\src\lv_objx\../lv_core/../lv_font/lv_font.h ****     LV_FONT_SUBPX_HOR,
  61:..\..\..\lvgl\version_6.1.2\lvgl\src\lv_objx\../lv_core/../lv_font/lv_font.h ****     LV_FONT_SUBPX_VER,
  62:..\..\..\lvgl\version_6.1.2\lvgl\src\lv_objx\../lv_core/../lv_font/lv_font.h ****     LV_FONT_SUBPX_BOTH,
  63:..\..\..\lvgl\version_6.1.2\lvgl\src\lv_objx\../lv_core/../lv_font/lv_font.h **** };
  64:..\..\..\lvgl\version_6.1.2\lvgl\src\lv_objx\../lv_core/../lv_font/lv_font.h **** 
  65:..\..\..\lvgl\version_6.1.2\lvgl\src\lv_objx\../lv_core/../lv_font/lv_font.h **** typedef uint8_t lv_font_subpx_t;
  66:..\..\..\lvgl\version_6.1.2\lvgl\src\lv_objx\../lv_core/../lv_font/lv_font.h **** 
  67:..\..\..\lvgl\version_6.1.2\lvgl\src\lv_objx\../lv_core/../lv_font/lv_font.h **** /** Describe the properties of a font*/
  68:..\..\..\lvgl\version_6.1.2\lvgl\src\lv_objx\../lv_core/../lv_font/lv_font.h **** typedef struct _lv_font_struct
  69:..\..\..\lvgl\version_6.1.2\lvgl\src\lv_objx\../lv_core/../lv_font/lv_font.h **** {
  70:..\..\..\lvgl\version_6.1.2\lvgl\src\lv_objx\../lv_core/../lv_font/lv_font.h ****     /** Get a glyph's  descriptor from a font*/
  71:..\..\..\lvgl\version_6.1.2\lvgl\src\lv_objx\../lv_core/../lv_font/lv_font.h ****     bool (*get_glyph_dsc)(const struct _lv_font_struct *, lv_font_glyph_dsc_t *, uint32_t letter, u
  72:..\..\..\lvgl\version_6.1.2\lvgl\src\lv_objx\../lv_core/../lv_font/lv_font.h **** 
  73:..\..\..\lvgl\version_6.1.2\lvgl\src\lv_objx\../lv_core/../lv_font/lv_font.h ****     /** Get a glyph's bitmap from a font*/
  74:..\..\..\lvgl\version_6.1.2\lvgl\src\lv_objx\../lv_core/../lv_font/lv_font.h ****     const uint8_t * (*get_glyph_bitmap)(const struct _lv_font_struct *, uint32_t);
  75:..\..\..\lvgl\version_6.1.2\lvgl\src\lv_objx\../lv_core/../lv_font/lv_font.h **** 
  76:..\..\..\lvgl\version_6.1.2\lvgl\src\lv_objx\../lv_core/../lv_font/lv_font.h ****     /*Pointer to the font in a font pack (must have the same line height)*/
  77:..\..\..\lvgl\version_6.1.2\lvgl\src\lv_objx\../lv_core/../lv_font/lv_font.h ****     uint8_t line_height;      /**< The real line height where any text fits*/
  78:..\..\..\lvgl\version_6.1.2\lvgl\src\lv_objx\../lv_core/../lv_font/lv_font.h ****     int8_t base_line;        /**< Base line measured from the top of the line_height*/
  79:..\..\..\lvgl\version_6.1.2\lvgl\src\lv_objx\../lv_core/../lv_font/lv_font.h ****     uint8_t subpx  :2;        /**< An element of `lv_font_subpx_t`*/
  80:..\..\..\lvgl\version_6.1.2\lvgl\src\lv_objx\../lv_core/../lv_font/lv_font.h ****     void * dsc;               /**< Store implementation specific or run_time data or caching here*/
  81:..\..\..\lvgl\version_6.1.2\lvgl\src\lv_objx\../lv_core/../lv_font/lv_font.h **** #if LV_USE_USER_DATA
  82:..\..\..\lvgl\version_6.1.2\lvgl\src\lv_objx\../lv_core/../lv_font/lv_font.h ****     lv_font_user_data_t user_data; /**< Custom user data for font. */
  83:..\..\..\lvgl\version_6.1.2\lvgl\src\lv_objx\../lv_core/../lv_font/lv_font.h **** #endif
  84:..\..\..\lvgl\version_6.1.2\lvgl\src\lv_objx\../lv_core/../lv_font/lv_font.h **** 
  85:..\..\..\lvgl\version_6.1.2\lvgl\src\lv_objx\../lv_core/../lv_font/lv_font.h **** 
  86:..\..\..\lvgl\version_6.1.2\lvgl\src\lv_objx\../lv_core/../lv_font/lv_font.h **** } lv_font_t;
  87:..\..\..\lvgl\version_6.1.2\lvgl\src\lv_objx\../lv_core/../lv_font/lv_font.h **** 
ARM GAS  C:\Users\tmj32\AppData\Local\Temp\cc94ZBZn.s 			page 3


  88:..\..\..\lvgl\version_6.1.2\lvgl\src\lv_objx\../lv_core/../lv_font/lv_font.h **** /**********************
  89:..\..\..\lvgl\version_6.1.2\lvgl\src\lv_objx\../lv_core/../lv_font/lv_font.h ****  * GLOBAL PROTOTYPES
  90:..\..\..\lvgl\version_6.1.2\lvgl\src\lv_objx\../lv_core/../lv_font/lv_font.h ****  **********************/
  91:..\..\..\lvgl\version_6.1.2\lvgl\src\lv_objx\../lv_core/../lv_font/lv_font.h **** 
  92:..\..\..\lvgl\version_6.1.2\lvgl\src\lv_objx\../lv_core/../lv_font/lv_font.h **** /**
  93:..\..\..\lvgl\version_6.1.2\lvgl\src\lv_objx\../lv_core/../lv_font/lv_font.h ****  * Return with the bitmap of a font.
  94:..\..\..\lvgl\version_6.1.2\lvgl\src\lv_objx\../lv_core/../lv_font/lv_font.h ****  * @param font_p pointer to a font
  95:..\..\..\lvgl\version_6.1.2\lvgl\src\lv_objx\../lv_core/../lv_font/lv_font.h ****  * @param letter an UNICODE character code
  96:..\..\..\lvgl\version_6.1.2\lvgl\src\lv_objx\../lv_core/../lv_font/lv_font.h ****  * @return  pointer to the bitmap of the letter
  97:..\..\..\lvgl\version_6.1.2\lvgl\src\lv_objx\../lv_core/../lv_font/lv_font.h ****  */
  98:..\..\..\lvgl\version_6.1.2\lvgl\src\lv_objx\../lv_core/../lv_font/lv_font.h **** const uint8_t * lv_font_get_glyph_bitmap(const lv_font_t * font_p, uint32_t letter);
  99:..\..\..\lvgl\version_6.1.2\lvgl\src\lv_objx\../lv_core/../lv_font/lv_font.h **** 
 100:..\..\..\lvgl\version_6.1.2\lvgl\src\lv_objx\../lv_core/../lv_font/lv_font.h **** /**
 101:..\..\..\lvgl\version_6.1.2\lvgl\src\lv_objx\../lv_core/../lv_font/lv_font.h ****  * Get the descriptor of a glyph
 102:..\..\..\lvgl\version_6.1.2\lvgl\src\lv_objx\../lv_core/../lv_font/lv_font.h ****  * @param font_p pointer to font
 103:..\..\..\lvgl\version_6.1.2\lvgl\src\lv_objx\../lv_core/../lv_font/lv_font.h ****  * @param dsc_out store the result descriptor here
 104:..\..\..\lvgl\version_6.1.2\lvgl\src\lv_objx\../lv_core/../lv_font/lv_font.h ****  * @param letter an UNICODE letter code
 105:..\..\..\lvgl\version_6.1.2\lvgl\src\lv_objx\../lv_core/../lv_font/lv_font.h ****  * @return true: descriptor is successfully loaded into `dsc_out`.
 106:..\..\..\lvgl\version_6.1.2\lvgl\src\lv_objx\../lv_core/../lv_font/lv_font.h ****  *         false: the letter was not found, no data is loaded to `dsc_out`
 107:..\..\..\lvgl\version_6.1.2\lvgl\src\lv_objx\../lv_core/../lv_font/lv_font.h ****  */
 108:..\..\..\lvgl\version_6.1.2\lvgl\src\lv_objx\../lv_core/../lv_font/lv_font.h **** bool lv_font_get_glyph_dsc(const lv_font_t * font_p, lv_font_glyph_dsc_t * dsc_out, uint32_t letter
 109:..\..\..\lvgl\version_6.1.2\lvgl\src\lv_objx\../lv_core/../lv_font/lv_font.h **** 
 110:..\..\..\lvgl\version_6.1.2\lvgl\src\lv_objx\../lv_core/../lv_font/lv_font.h **** /**
 111:..\..\..\lvgl\version_6.1.2\lvgl\src\lv_objx\../lv_core/../lv_font/lv_font.h ****  * Get the width of a glyph with kerning
 112:..\..\..\lvgl\version_6.1.2\lvgl\src\lv_objx\../lv_core/../lv_font/lv_font.h ****  * @param font pointer to a font
 113:..\..\..\lvgl\version_6.1.2\lvgl\src\lv_objx\../lv_core/../lv_font/lv_font.h ****  * @param letter an UNICODE letter
 114:..\..\..\lvgl\version_6.1.2\lvgl\src\lv_objx\../lv_core/../lv_font/lv_font.h ****  * @param letter_next the next letter after `letter`. Used for kerning
 115:..\..\..\lvgl\version_6.1.2\lvgl\src\lv_objx\../lv_core/../lv_font/lv_font.h ****  * @return the width of the glyph
 116:..\..\..\lvgl\version_6.1.2\lvgl\src\lv_objx\../lv_core/../lv_font/lv_font.h ****  */
 117:..\..\..\lvgl\version_6.1.2\lvgl\src\lv_objx\../lv_core/../lv_font/lv_font.h **** uint16_t lv_font_get_glyph_width(const lv_font_t * font, uint32_t letter, uint32_t letter_next);
 118:..\..\..\lvgl\version_6.1.2\lvgl\src\lv_objx\../lv_core/../lv_font/lv_font.h **** 
 119:..\..\..\lvgl\version_6.1.2\lvgl\src\lv_objx\../lv_core/../lv_font/lv_font.h **** /**
 120:..\..\..\lvgl\version_6.1.2\lvgl\src\lv_objx\../lv_core/../lv_font/lv_font.h ****  * Get the line height of a font. All characters fit into this height
 121:..\..\..\lvgl\version_6.1.2\lvgl\src\lv_objx\../lv_core/../lv_font/lv_font.h ****  * @param font_p pointer to a font
 122:..\..\..\lvgl\version_6.1.2\lvgl\src\lv_objx\../lv_core/../lv_font/lv_font.h ****  * @return the height of a font
 123:..\..\..\lvgl\version_6.1.2\lvgl\src\lv_objx\../lv_core/../lv_font/lv_font.h ****  */
 124:..\..\..\lvgl\version_6.1.2\lvgl\src\lv_objx\../lv_core/../lv_font/lv_font.h **** static inline uint8_t lv_font_get_line_height(const lv_font_t * font_p)
 125:..\..\..\lvgl\version_6.1.2\lvgl\src\lv_objx\../lv_core/../lv_font/lv_font.h **** {
  28              		.loc 1 125 0
  29              		.cfi_startproc
  30              		@ args = 0, pretend = 0, frame = 8
  31              		@ frame_needed = 1, uses_anonymous_args = 0
  32              		@ link register save eliminated.
  33 0000 80B4     		push	{r7}
  34              		.cfi_def_cfa_offset 4
  35              		.cfi_offset 7, -4
  36 0002 83B0     		sub	sp, sp, #12
  37              		.cfi_def_cfa_offset 16
  38 0004 00AF     		add	r7, sp, #0
  39              		.cfi_def_cfa_register 7
  40 0006 7860     		str	r0, [r7, #4]
 126:..\..\..\lvgl\version_6.1.2\lvgl\src\lv_objx\../lv_core/../lv_font/lv_font.h ****     return font_p->line_height;
  41              		.loc 1 126 0
  42 0008 7B68     		ldr	r3, [r7, #4]
  43 000a 1B7A     		ldrb	r3, [r3, #8]	@ zero_extendqisi2
 127:..\..\..\lvgl\version_6.1.2\lvgl\src\lv_objx\../lv_core/../lv_font/lv_font.h **** }
  44              		.loc 1 127 0
ARM GAS  C:\Users\tmj32\AppData\Local\Temp\cc94ZBZn.s 			page 4


  45 000c 1846     		mov	r0, r3
  46 000e 0C37     		adds	r7, r7, #12
  47              		.cfi_def_cfa_offset 4
  48 0010 BD46     		mov	sp, r7
  49              		.cfi_def_cfa_register 13
  50              		@ sp needed
  51 0012 5DF8047B 		ldr	r7, [sp], #4
  52              		.cfi_restore 7
  53              		.cfi_def_cfa_offset 0
  54 0016 7047     		bx	lr
  55              		.cfi_endproc
  56              	.LFE0:
  57              		.size	lv_font_get_line_height, .-lv_font_get_line_height
  58              		.section	.text.lv_area_get_width,"ax",%progbits
  59              		.align	2
  60              		.thumb
  61              		.thumb_func
  62              		.type	lv_area_get_width, %function
  63              	lv_area_get_width:
  64              	.LFB11:
  65              		.file 2 "..\\..\\..\\lvgl\\version_6.1.2\\lvgl\\src\\lv_objx\\../lv_core/../lv_misc/lv_area.h"
   1:..\..\..\lvgl\version_6.1.2\lvgl\src\lv_objx\../lv_core/../lv_misc/lv_area.h **** /**
   2:..\..\..\lvgl\version_6.1.2\lvgl\src\lv_objx\../lv_core/../lv_misc/lv_area.h ****  * @file lv_area.h
   3:..\..\..\lvgl\version_6.1.2\lvgl\src\lv_objx\../lv_core/../lv_misc/lv_area.h ****  *
   4:..\..\..\lvgl\version_6.1.2\lvgl\src\lv_objx\../lv_core/../lv_misc/lv_area.h ****  */
   5:..\..\..\lvgl\version_6.1.2\lvgl\src\lv_objx\../lv_core/../lv_misc/lv_area.h **** 
   6:..\..\..\lvgl\version_6.1.2\lvgl\src\lv_objx\../lv_core/../lv_misc/lv_area.h **** #ifndef LV_AREA_H
   7:..\..\..\lvgl\version_6.1.2\lvgl\src\lv_objx\../lv_core/../lv_misc/lv_area.h **** #define LV_AREA_H
   8:..\..\..\lvgl\version_6.1.2\lvgl\src\lv_objx\../lv_core/../lv_misc/lv_area.h **** 
   9:..\..\..\lvgl\version_6.1.2\lvgl\src\lv_objx\../lv_core/../lv_misc/lv_area.h **** #ifdef __cplusplus
  10:..\..\..\lvgl\version_6.1.2\lvgl\src\lv_objx\../lv_core/../lv_misc/lv_area.h **** extern "C" {
  11:..\..\..\lvgl\version_6.1.2\lvgl\src\lv_objx\../lv_core/../lv_misc/lv_area.h **** #endif
  12:..\..\..\lvgl\version_6.1.2\lvgl\src\lv_objx\../lv_core/../lv_misc/lv_area.h **** 
  13:..\..\..\lvgl\version_6.1.2\lvgl\src\lv_objx\../lv_core/../lv_misc/lv_area.h **** /*********************
  14:..\..\..\lvgl\version_6.1.2\lvgl\src\lv_objx\../lv_core/../lv_misc/lv_area.h ****  *      INCLUDES
  15:..\..\..\lvgl\version_6.1.2\lvgl\src\lv_objx\../lv_core/../lv_misc/lv_area.h ****  *********************/
  16:..\..\..\lvgl\version_6.1.2\lvgl\src\lv_objx\../lv_core/../lv_misc/lv_area.h **** #include <string.h>
  17:..\..\..\lvgl\version_6.1.2\lvgl\src\lv_objx\../lv_core/../lv_misc/lv_area.h **** #include <stdbool.h>
  18:..\..\..\lvgl\version_6.1.2\lvgl\src\lv_objx\../lv_core/../lv_misc/lv_area.h **** #include <stdint.h>
  19:..\..\..\lvgl\version_6.1.2\lvgl\src\lv_objx\../lv_core/../lv_misc/lv_area.h **** #ifdef LV_CONF_INCLUDE_SIMPLE
  20:..\..\..\lvgl\version_6.1.2\lvgl\src\lv_objx\../lv_core/../lv_misc/lv_area.h **** #include "lv_conf.h"
  21:..\..\..\lvgl\version_6.1.2\lvgl\src\lv_objx\../lv_core/../lv_misc/lv_area.h **** #else
  22:..\..\..\lvgl\version_6.1.2\lvgl\src\lv_objx\../lv_core/../lv_misc/lv_area.h **** #include "../../../lv_conf.h"
  23:..\..\..\lvgl\version_6.1.2\lvgl\src\lv_objx\../lv_core/../lv_misc/lv_area.h **** #endif
  24:..\..\..\lvgl\version_6.1.2\lvgl\src\lv_objx\../lv_core/../lv_misc/lv_area.h **** 
  25:..\..\..\lvgl\version_6.1.2\lvgl\src\lv_objx\../lv_core/../lv_misc/lv_area.h **** /*********************
  26:..\..\..\lvgl\version_6.1.2\lvgl\src\lv_objx\../lv_core/../lv_misc/lv_area.h ****  *      DEFINES
  27:..\..\..\lvgl\version_6.1.2\lvgl\src\lv_objx\../lv_core/../lv_misc/lv_area.h ****  *********************/
  28:..\..\..\lvgl\version_6.1.2\lvgl\src\lv_objx\../lv_core/../lv_misc/lv_area.h **** /*To avoid overflow don't let the max ranges (reduce with 1000) */
  29:..\..\..\lvgl\version_6.1.2\lvgl\src\lv_objx\../lv_core/../lv_misc/lv_area.h **** #define LV_COORD_MAX ((lv_coord_t)((uint32_t)((uint32_t)1 << (8 * sizeof(lv_coord_t) - 1)) - 1000))
  30:..\..\..\lvgl\version_6.1.2\lvgl\src\lv_objx\../lv_core/../lv_misc/lv_area.h **** #define LV_COORD_MIN (-LV_COORD_MAX)
  31:..\..\..\lvgl\version_6.1.2\lvgl\src\lv_objx\../lv_core/../lv_misc/lv_area.h **** 
  32:..\..\..\lvgl\version_6.1.2\lvgl\src\lv_objx\../lv_core/../lv_misc/lv_area.h **** LV_EXPORT_CONST_INT(LV_COORD_MAX);
  33:..\..\..\lvgl\version_6.1.2\lvgl\src\lv_objx\../lv_core/../lv_misc/lv_area.h **** LV_EXPORT_CONST_INT(LV_COORD_MIN);
  34:..\..\..\lvgl\version_6.1.2\lvgl\src\lv_objx\../lv_core/../lv_misc/lv_area.h **** 
  35:..\..\..\lvgl\version_6.1.2\lvgl\src\lv_objx\../lv_core/../lv_misc/lv_area.h **** /**********************
  36:..\..\..\lvgl\version_6.1.2\lvgl\src\lv_objx\../lv_core/../lv_misc/lv_area.h ****  *      TYPEDEFS
ARM GAS  C:\Users\tmj32\AppData\Local\Temp\cc94ZBZn.s 			page 5


  37:..\..\..\lvgl\version_6.1.2\lvgl\src\lv_objx\../lv_core/../lv_misc/lv_area.h ****  **********************/
  38:..\..\..\lvgl\version_6.1.2\lvgl\src\lv_objx\../lv_core/../lv_misc/lv_area.h **** 
  39:..\..\..\lvgl\version_6.1.2\lvgl\src\lv_objx\../lv_core/../lv_misc/lv_area.h **** /**
  40:..\..\..\lvgl\version_6.1.2\lvgl\src\lv_objx\../lv_core/../lv_misc/lv_area.h ****  * Represents a point on the screen.
  41:..\..\..\lvgl\version_6.1.2\lvgl\src\lv_objx\../lv_core/../lv_misc/lv_area.h ****  */
  42:..\..\..\lvgl\version_6.1.2\lvgl\src\lv_objx\../lv_core/../lv_misc/lv_area.h **** typedef struct
  43:..\..\..\lvgl\version_6.1.2\lvgl\src\lv_objx\../lv_core/../lv_misc/lv_area.h **** {
  44:..\..\..\lvgl\version_6.1.2\lvgl\src\lv_objx\../lv_core/../lv_misc/lv_area.h ****     lv_coord_t x;
  45:..\..\..\lvgl\version_6.1.2\lvgl\src\lv_objx\../lv_core/../lv_misc/lv_area.h ****     lv_coord_t y;
  46:..\..\..\lvgl\version_6.1.2\lvgl\src\lv_objx\../lv_core/../lv_misc/lv_area.h **** } lv_point_t;
  47:..\..\..\lvgl\version_6.1.2\lvgl\src\lv_objx\../lv_core/../lv_misc/lv_area.h **** 
  48:..\..\..\lvgl\version_6.1.2\lvgl\src\lv_objx\../lv_core/../lv_misc/lv_area.h **** /** Represents an area of the screen. */
  49:..\..\..\lvgl\version_6.1.2\lvgl\src\lv_objx\../lv_core/../lv_misc/lv_area.h **** typedef struct
  50:..\..\..\lvgl\version_6.1.2\lvgl\src\lv_objx\../lv_core/../lv_misc/lv_area.h **** {
  51:..\..\..\lvgl\version_6.1.2\lvgl\src\lv_objx\../lv_core/../lv_misc/lv_area.h ****     lv_coord_t x1;
  52:..\..\..\lvgl\version_6.1.2\lvgl\src\lv_objx\../lv_core/../lv_misc/lv_area.h ****     lv_coord_t y1;
  53:..\..\..\lvgl\version_6.1.2\lvgl\src\lv_objx\../lv_core/../lv_misc/lv_area.h ****     lv_coord_t x2;
  54:..\..\..\lvgl\version_6.1.2\lvgl\src\lv_objx\../lv_core/../lv_misc/lv_area.h ****     lv_coord_t y2;
  55:..\..\..\lvgl\version_6.1.2\lvgl\src\lv_objx\../lv_core/../lv_misc/lv_area.h **** } lv_area_t;
  56:..\..\..\lvgl\version_6.1.2\lvgl\src\lv_objx\../lv_core/../lv_misc/lv_area.h **** 
  57:..\..\..\lvgl\version_6.1.2\lvgl\src\lv_objx\../lv_core/../lv_misc/lv_area.h **** /**********************
  58:..\..\..\lvgl\version_6.1.2\lvgl\src\lv_objx\../lv_core/../lv_misc/lv_area.h ****  * GLOBAL PROTOTYPES
  59:..\..\..\lvgl\version_6.1.2\lvgl\src\lv_objx\../lv_core/../lv_misc/lv_area.h ****  **********************/
  60:..\..\..\lvgl\version_6.1.2\lvgl\src\lv_objx\../lv_core/../lv_misc/lv_area.h **** 
  61:..\..\..\lvgl\version_6.1.2\lvgl\src\lv_objx\../lv_core/../lv_misc/lv_area.h **** /**
  62:..\..\..\lvgl\version_6.1.2\lvgl\src\lv_objx\../lv_core/../lv_misc/lv_area.h ****  * Initialize an area
  63:..\..\..\lvgl\version_6.1.2\lvgl\src\lv_objx\../lv_core/../lv_misc/lv_area.h ****  * @param area_p pointer to an area
  64:..\..\..\lvgl\version_6.1.2\lvgl\src\lv_objx\../lv_core/../lv_misc/lv_area.h ****  * @param x1 left coordinate of the area
  65:..\..\..\lvgl\version_6.1.2\lvgl\src\lv_objx\../lv_core/../lv_misc/lv_area.h ****  * @param y1 top coordinate of the area
  66:..\..\..\lvgl\version_6.1.2\lvgl\src\lv_objx\../lv_core/../lv_misc/lv_area.h ****  * @param x2 right coordinate of the area
  67:..\..\..\lvgl\version_6.1.2\lvgl\src\lv_objx\../lv_core/../lv_misc/lv_area.h ****  * @param y2 bottom coordinate of the area
  68:..\..\..\lvgl\version_6.1.2\lvgl\src\lv_objx\../lv_core/../lv_misc/lv_area.h ****  */
  69:..\..\..\lvgl\version_6.1.2\lvgl\src\lv_objx\../lv_core/../lv_misc/lv_area.h **** void lv_area_set(lv_area_t * area_p, lv_coord_t x1, lv_coord_t y1, lv_coord_t x2, lv_coord_t y2);
  70:..\..\..\lvgl\version_6.1.2\lvgl\src\lv_objx\../lv_core/../lv_misc/lv_area.h **** 
  71:..\..\..\lvgl\version_6.1.2\lvgl\src\lv_objx\../lv_core/../lv_misc/lv_area.h **** /**
  72:..\..\..\lvgl\version_6.1.2\lvgl\src\lv_objx\../lv_core/../lv_misc/lv_area.h ****  * Copy an area
  73:..\..\..\lvgl\version_6.1.2\lvgl\src\lv_objx\../lv_core/../lv_misc/lv_area.h ****  * @param dest pointer to the destination area
  74:..\..\..\lvgl\version_6.1.2\lvgl\src\lv_objx\../lv_core/../lv_misc/lv_area.h ****  * @param src pointer to the source area
  75:..\..\..\lvgl\version_6.1.2\lvgl\src\lv_objx\../lv_core/../lv_misc/lv_area.h ****  */
  76:..\..\..\lvgl\version_6.1.2\lvgl\src\lv_objx\../lv_core/../lv_misc/lv_area.h **** inline static void lv_area_copy(lv_area_t * dest, const lv_area_t * src)
  77:..\..\..\lvgl\version_6.1.2\lvgl\src\lv_objx\../lv_core/../lv_misc/lv_area.h **** {
  78:..\..\..\lvgl\version_6.1.2\lvgl\src\lv_objx\../lv_core/../lv_misc/lv_area.h ****     memcpy(dest, src, sizeof(lv_area_t));
  79:..\..\..\lvgl\version_6.1.2\lvgl\src\lv_objx\../lv_core/../lv_misc/lv_area.h **** }
  80:..\..\..\lvgl\version_6.1.2\lvgl\src\lv_objx\../lv_core/../lv_misc/lv_area.h **** 
  81:..\..\..\lvgl\version_6.1.2\lvgl\src\lv_objx\../lv_core/../lv_misc/lv_area.h **** /**
  82:..\..\..\lvgl\version_6.1.2\lvgl\src\lv_objx\../lv_core/../lv_misc/lv_area.h ****  * Get the width of an area
  83:..\..\..\lvgl\version_6.1.2\lvgl\src\lv_objx\../lv_core/../lv_misc/lv_area.h ****  * @param area_p pointer to an area
  84:..\..\..\lvgl\version_6.1.2\lvgl\src\lv_objx\../lv_core/../lv_misc/lv_area.h ****  * @return the width of the area (if x1 == x2 -> width = 1)
  85:..\..\..\lvgl\version_6.1.2\lvgl\src\lv_objx\../lv_core/../lv_misc/lv_area.h ****  */
  86:..\..\..\lvgl\version_6.1.2\lvgl\src\lv_objx\../lv_core/../lv_misc/lv_area.h **** static inline lv_coord_t lv_area_get_width(const lv_area_t * area_p)
  87:..\..\..\lvgl\version_6.1.2\lvgl\src\lv_objx\../lv_core/../lv_misc/lv_area.h **** {
  66              		.loc 2 87 0
  67              		.cfi_startproc
  68              		@ args = 0, pretend = 0, frame = 8
  69              		@ frame_needed = 1, uses_anonymous_args = 0
  70              		@ link register save eliminated.
  71 0000 80B4     		push	{r7}
ARM GAS  C:\Users\tmj32\AppData\Local\Temp\cc94ZBZn.s 			page 6


  72              		.cfi_def_cfa_offset 4
  73              		.cfi_offset 7, -4
  74 0002 83B0     		sub	sp, sp, #12
  75              		.cfi_def_cfa_offset 16
  76 0004 00AF     		add	r7, sp, #0
  77              		.cfi_def_cfa_register 7
  78 0006 7860     		str	r0, [r7, #4]
  88:..\..\..\lvgl\version_6.1.2\lvgl\src\lv_objx\../lv_core/../lv_misc/lv_area.h ****     return (lv_coord_t)(area_p->x2 - area_p->x1 + 1);
  79              		.loc 2 88 0
  80 0008 7B68     		ldr	r3, [r7, #4]
  81 000a B3F90430 		ldrsh	r3, [r3, #4]
  82 000e 9AB2     		uxth	r2, r3
  83 0010 7B68     		ldr	r3, [r7, #4]
  84 0012 B3F90030 		ldrsh	r3, [r3]
  85 0016 9BB2     		uxth	r3, r3
  86 0018 D31A     		subs	r3, r2, r3
  87 001a 9BB2     		uxth	r3, r3
  88 001c 0133     		adds	r3, r3, #1
  89 001e 9BB2     		uxth	r3, r3
  90 0020 1BB2     		sxth	r3, r3
  89:..\..\..\lvgl\version_6.1.2\lvgl\src\lv_objx\../lv_core/../lv_misc/lv_area.h **** }
  91              		.loc 2 89 0
  92 0022 1846     		mov	r0, r3
  93 0024 0C37     		adds	r7, r7, #12
  94              		.cfi_def_cfa_offset 4
  95 0026 BD46     		mov	sp, r7
  96              		.cfi_def_cfa_register 13
  97              		@ sp needed
  98 0028 5DF8047B 		ldr	r7, [sp], #4
  99              		.cfi_restore 7
 100              		.cfi_def_cfa_offset 0
 101 002c 7047     		bx	lr
 102              		.cfi_endproc
 103              	.LFE11:
 104              		.size	lv_area_get_width, .-lv_area_get_width
 105 002e 00BF     		.section	.text.lv_area_get_height,"ax",%progbits
 106              		.align	2
 107              		.thumb
 108              		.thumb_func
 109              		.type	lv_area_get_height, %function
 110              	lv_area_get_height:
 111              	.LFB12:
  90:..\..\..\lvgl\version_6.1.2\lvgl\src\lv_objx\../lv_core/../lv_misc/lv_area.h **** 
  91:..\..\..\lvgl\version_6.1.2\lvgl\src\lv_objx\../lv_core/../lv_misc/lv_area.h **** /**
  92:..\..\..\lvgl\version_6.1.2\lvgl\src\lv_objx\../lv_core/../lv_misc/lv_area.h ****  * Get the height of an area
  93:..\..\..\lvgl\version_6.1.2\lvgl\src\lv_objx\../lv_core/../lv_misc/lv_area.h ****  * @param area_p pointer to an area
  94:..\..\..\lvgl\version_6.1.2\lvgl\src\lv_objx\../lv_core/../lv_misc/lv_area.h ****  * @return the height of the area (if y1 == y2 -> height = 1)
  95:..\..\..\lvgl\version_6.1.2\lvgl\src\lv_objx\../lv_core/../lv_misc/lv_area.h ****  */
  96:..\..\..\lvgl\version_6.1.2\lvgl\src\lv_objx\../lv_core/../lv_misc/lv_area.h **** static inline lv_coord_t lv_area_get_height(const lv_area_t * area_p)
  97:..\..\..\lvgl\version_6.1.2\lvgl\src\lv_objx\../lv_core/../lv_misc/lv_area.h **** {
 112              		.loc 2 97 0
 113              		.cfi_startproc
 114              		@ args = 0, pretend = 0, frame = 8
 115              		@ frame_needed = 1, uses_anonymous_args = 0
 116              		@ link register save eliminated.
 117 0000 80B4     		push	{r7}
 118              		.cfi_def_cfa_offset 4
ARM GAS  C:\Users\tmj32\AppData\Local\Temp\cc94ZBZn.s 			page 7


 119              		.cfi_offset 7, -4
 120 0002 83B0     		sub	sp, sp, #12
 121              		.cfi_def_cfa_offset 16
 122 0004 00AF     		add	r7, sp, #0
 123              		.cfi_def_cfa_register 7
 124 0006 7860     		str	r0, [r7, #4]
  98:..\..\..\lvgl\version_6.1.2\lvgl\src\lv_objx\../lv_core/../lv_misc/lv_area.h ****     return (lv_coord_t)(area_p->y2 - area_p->y1 + 1);
 125              		.loc 2 98 0
 126 0008 7B68     		ldr	r3, [r7, #4]
 127 000a B3F90630 		ldrsh	r3, [r3, #6]
 128 000e 9AB2     		uxth	r2, r3
 129 0010 7B68     		ldr	r3, [r7, #4]
 130 0012 B3F90230 		ldrsh	r3, [r3, #2]
 131 0016 9BB2     		uxth	r3, r3
 132 0018 D31A     		subs	r3, r2, r3
 133 001a 9BB2     		uxth	r3, r3
 134 001c 0133     		adds	r3, r3, #1
 135 001e 9BB2     		uxth	r3, r3
 136 0020 1BB2     		sxth	r3, r3
  99:..\..\..\lvgl\version_6.1.2\lvgl\src\lv_objx\../lv_core/../lv_misc/lv_area.h **** }
 137              		.loc 2 99 0
 138 0022 1846     		mov	r0, r3
 139 0024 0C37     		adds	r7, r7, #12
 140              		.cfi_def_cfa_offset 4
 141 0026 BD46     		mov	sp, r7
 142              		.cfi_def_cfa_register 13
 143              		@ sp needed
 144 0028 5DF8047B 		ldr	r7, [sp], #4
 145              		.cfi_restore 7
 146              		.cfi_def_cfa_offset 0
 147 002c 7047     		bx	lr
 148              		.cfi_endproc
 149              	.LFE12:
 150              		.size	lv_area_get_height, .-lv_area_get_height
 151 002e 00BF     		.section	.text.lv_cont_set_fit2,"ax",%progbits
 152              		.align	2
 153              		.thumb
 154              		.thumb_func
 155              		.type	lv_cont_set_fit2, %function
 156              	lv_cont_set_fit2:
 157              	.LFB31:
 158              		.file 3 "..\\..\\..\\lvgl\\version_6.1.2\\lvgl\\src\\lv_objx\\../lv_objx/lv_cont.h"
   1:..\..\..\lvgl\version_6.1.2\lvgl\src\lv_objx\../lv_objx/lv_cont.h **** /**
   2:..\..\..\lvgl\version_6.1.2\lvgl\src\lv_objx\../lv_objx/lv_cont.h ****  * @file lv_cont.h
   3:..\..\..\lvgl\version_6.1.2\lvgl\src\lv_objx\../lv_objx/lv_cont.h ****  *
   4:..\..\..\lvgl\version_6.1.2\lvgl\src\lv_objx\../lv_objx/lv_cont.h ****  */
   5:..\..\..\lvgl\version_6.1.2\lvgl\src\lv_objx\../lv_objx/lv_cont.h **** 
   6:..\..\..\lvgl\version_6.1.2\lvgl\src\lv_objx\../lv_objx/lv_cont.h **** #ifndef LV_CONT_H
   7:..\..\..\lvgl\version_6.1.2\lvgl\src\lv_objx\../lv_objx/lv_cont.h **** #define LV_CONT_H
   8:..\..\..\lvgl\version_6.1.2\lvgl\src\lv_objx\../lv_objx/lv_cont.h **** 
   9:..\..\..\lvgl\version_6.1.2\lvgl\src\lv_objx\../lv_objx/lv_cont.h **** #ifdef __cplusplus
  10:..\..\..\lvgl\version_6.1.2\lvgl\src\lv_objx\../lv_objx/lv_cont.h **** extern "C" {
  11:..\..\..\lvgl\version_6.1.2\lvgl\src\lv_objx\../lv_objx/lv_cont.h **** #endif
  12:..\..\..\lvgl\version_6.1.2\lvgl\src\lv_objx\../lv_objx/lv_cont.h **** 
  13:..\..\..\lvgl\version_6.1.2\lvgl\src\lv_objx\../lv_objx/lv_cont.h **** /*********************
  14:..\..\..\lvgl\version_6.1.2\lvgl\src\lv_objx\../lv_objx/lv_cont.h ****  *      INCLUDES
  15:..\..\..\lvgl\version_6.1.2\lvgl\src\lv_objx\../lv_objx/lv_cont.h ****  *********************/
ARM GAS  C:\Users\tmj32\AppData\Local\Temp\cc94ZBZn.s 			page 8


  16:..\..\..\lvgl\version_6.1.2\lvgl\src\lv_objx\../lv_objx/lv_cont.h **** #ifdef LV_CONF_INCLUDE_SIMPLE
  17:..\..\..\lvgl\version_6.1.2\lvgl\src\lv_objx\../lv_objx/lv_cont.h **** #include "lv_conf.h"
  18:..\..\..\lvgl\version_6.1.2\lvgl\src\lv_objx\../lv_objx/lv_cont.h **** #else
  19:..\..\..\lvgl\version_6.1.2\lvgl\src\lv_objx\../lv_objx/lv_cont.h **** #include "../../../lv_conf.h"
  20:..\..\..\lvgl\version_6.1.2\lvgl\src\lv_objx\../lv_objx/lv_cont.h **** #endif
  21:..\..\..\lvgl\version_6.1.2\lvgl\src\lv_objx\../lv_objx/lv_cont.h **** 
  22:..\..\..\lvgl\version_6.1.2\lvgl\src\lv_objx\../lv_objx/lv_cont.h **** #if LV_USE_CONT != 0
  23:..\..\..\lvgl\version_6.1.2\lvgl\src\lv_objx\../lv_objx/lv_cont.h **** 
  24:..\..\..\lvgl\version_6.1.2\lvgl\src\lv_objx\../lv_objx/lv_cont.h **** #include "../lv_core/lv_obj.h"
  25:..\..\..\lvgl\version_6.1.2\lvgl\src\lv_objx\../lv_objx/lv_cont.h **** 
  26:..\..\..\lvgl\version_6.1.2\lvgl\src\lv_objx\../lv_objx/lv_cont.h **** /*********************
  27:..\..\..\lvgl\version_6.1.2\lvgl\src\lv_objx\../lv_objx/lv_cont.h ****  *      DEFINES
  28:..\..\..\lvgl\version_6.1.2\lvgl\src\lv_objx\../lv_objx/lv_cont.h ****  *********************/
  29:..\..\..\lvgl\version_6.1.2\lvgl\src\lv_objx\../lv_objx/lv_cont.h **** 
  30:..\..\..\lvgl\version_6.1.2\lvgl\src\lv_objx\../lv_objx/lv_cont.h **** /**********************
  31:..\..\..\lvgl\version_6.1.2\lvgl\src\lv_objx\../lv_objx/lv_cont.h ****  *      TYPEDEFS
  32:..\..\..\lvgl\version_6.1.2\lvgl\src\lv_objx\../lv_objx/lv_cont.h ****  **********************/
  33:..\..\..\lvgl\version_6.1.2\lvgl\src\lv_objx\../lv_objx/lv_cont.h **** 
  34:..\..\..\lvgl\version_6.1.2\lvgl\src\lv_objx\../lv_objx/lv_cont.h **** /** Container layout options*/
  35:..\..\..\lvgl\version_6.1.2\lvgl\src\lv_objx\../lv_objx/lv_cont.h **** enum {
  36:..\..\..\lvgl\version_6.1.2\lvgl\src\lv_objx\../lv_objx/lv_cont.h ****     LV_LAYOUT_OFF = 0, /**< No layout */
  37:..\..\..\lvgl\version_6.1.2\lvgl\src\lv_objx\../lv_objx/lv_cont.h ****     LV_LAYOUT_CENTER, /**< Center objects */
  38:..\..\..\lvgl\version_6.1.2\lvgl\src\lv_objx\../lv_objx/lv_cont.h ****     LV_LAYOUT_COL_L,  /**< Column left align*/
  39:..\..\..\lvgl\version_6.1.2\lvgl\src\lv_objx\../lv_objx/lv_cont.h ****     LV_LAYOUT_COL_M,  /**< Column middle align*/
  40:..\..\..\lvgl\version_6.1.2\lvgl\src\lv_objx\../lv_objx/lv_cont.h ****     LV_LAYOUT_COL_R,  /**< Column right align*/
  41:..\..\..\lvgl\version_6.1.2\lvgl\src\lv_objx\../lv_objx/lv_cont.h ****     LV_LAYOUT_ROW_T,  /**< Row top align*/
  42:..\..\..\lvgl\version_6.1.2\lvgl\src\lv_objx\../lv_objx/lv_cont.h ****     LV_LAYOUT_ROW_M,  /**< Row middle align*/
  43:..\..\..\lvgl\version_6.1.2\lvgl\src\lv_objx\../lv_objx/lv_cont.h ****     LV_LAYOUT_ROW_B,  /**< Row bottom align*/
  44:..\..\..\lvgl\version_6.1.2\lvgl\src\lv_objx\../lv_objx/lv_cont.h ****     LV_LAYOUT_PRETTY, /**< Put as many object as possible in row and begin a new row*/
  45:..\..\..\lvgl\version_6.1.2\lvgl\src\lv_objx\../lv_objx/lv_cont.h ****     LV_LAYOUT_GRID,   /**< Align same-sized object into a grid*/
  46:..\..\..\lvgl\version_6.1.2\lvgl\src\lv_objx\../lv_objx/lv_cont.h ****     _LV_LAYOUT_NUM
  47:..\..\..\lvgl\version_6.1.2\lvgl\src\lv_objx\../lv_objx/lv_cont.h **** };
  48:..\..\..\lvgl\version_6.1.2\lvgl\src\lv_objx\../lv_objx/lv_cont.h **** typedef uint8_t lv_layout_t;
  49:..\..\..\lvgl\version_6.1.2\lvgl\src\lv_objx\../lv_objx/lv_cont.h **** 
  50:..\..\..\lvgl\version_6.1.2\lvgl\src\lv_objx\../lv_objx/lv_cont.h **** /**
  51:..\..\..\lvgl\version_6.1.2\lvgl\src\lv_objx\../lv_objx/lv_cont.h ****  * How to resize the container around the children.
  52:..\..\..\lvgl\version_6.1.2\lvgl\src\lv_objx\../lv_objx/lv_cont.h ****  */
  53:..\..\..\lvgl\version_6.1.2\lvgl\src\lv_objx\../lv_objx/lv_cont.h **** enum {
  54:..\..\..\lvgl\version_6.1.2\lvgl\src\lv_objx\../lv_objx/lv_cont.h ****     LV_FIT_NONE,  /**< Do not change the size automatically*/
  55:..\..\..\lvgl\version_6.1.2\lvgl\src\lv_objx\../lv_objx/lv_cont.h ****     LV_FIT_TIGHT, /**< Shrink wrap around the children */
  56:..\..\..\lvgl\version_6.1.2\lvgl\src\lv_objx\../lv_objx/lv_cont.h ****     LV_FIT_FLOOD, /**< Align the size to the parent's edge*/
  57:..\..\..\lvgl\version_6.1.2\lvgl\src\lv_objx\../lv_objx/lv_cont.h ****     LV_FIT_FILL,  /**< Align the size to the parent's edge first but if there is an object out of i
  58:..\..\..\lvgl\version_6.1.2\lvgl\src\lv_objx\../lv_objx/lv_cont.h ****                      then get larger */
  59:..\..\..\lvgl\version_6.1.2\lvgl\src\lv_objx\../lv_objx/lv_cont.h ****     _LV_FIT_NUM
  60:..\..\..\lvgl\version_6.1.2\lvgl\src\lv_objx\../lv_objx/lv_cont.h **** };
  61:..\..\..\lvgl\version_6.1.2\lvgl\src\lv_objx\../lv_objx/lv_cont.h **** typedef uint8_t lv_fit_t;
  62:..\..\..\lvgl\version_6.1.2\lvgl\src\lv_objx\../lv_objx/lv_cont.h **** 
  63:..\..\..\lvgl\version_6.1.2\lvgl\src\lv_objx\../lv_objx/lv_cont.h **** typedef struct
  64:..\..\..\lvgl\version_6.1.2\lvgl\src\lv_objx\../lv_objx/lv_cont.h **** {
  65:..\..\..\lvgl\version_6.1.2\lvgl\src\lv_objx\../lv_objx/lv_cont.h ****     /*Inherited from 'base_obj' so no inherited ext. */ /*Ext. of ancestor*/
  66:..\..\..\lvgl\version_6.1.2\lvgl\src\lv_objx\../lv_objx/lv_cont.h ****     /*New data for this type */
  67:..\..\..\lvgl\version_6.1.2\lvgl\src\lv_objx\../lv_objx/lv_cont.h ****     uint8_t layout : 4;     /*A layout from 'lv_layout_t' enum*/
  68:..\..\..\lvgl\version_6.1.2\lvgl\src\lv_objx\../lv_objx/lv_cont.h ****     uint8_t fit_left : 2;   /*A fit type from `lv_fit_t` enum */
  69:..\..\..\lvgl\version_6.1.2\lvgl\src\lv_objx\../lv_objx/lv_cont.h ****     uint8_t fit_right : 2;  /*A fit type from `lv_fit_t` enum */
  70:..\..\..\lvgl\version_6.1.2\lvgl\src\lv_objx\../lv_objx/lv_cont.h ****     uint8_t fit_top : 2;    /*A fit type from `lv_fit_t` enum */
  71:..\..\..\lvgl\version_6.1.2\lvgl\src\lv_objx\../lv_objx/lv_cont.h ****     uint8_t fit_bottom : 2; /*A fit type from `lv_fit_t` enum */
  72:..\..\..\lvgl\version_6.1.2\lvgl\src\lv_objx\../lv_objx/lv_cont.h **** } lv_cont_ext_t;
ARM GAS  C:\Users\tmj32\AppData\Local\Temp\cc94ZBZn.s 			page 9


  73:..\..\..\lvgl\version_6.1.2\lvgl\src\lv_objx\../lv_objx/lv_cont.h **** 
  74:..\..\..\lvgl\version_6.1.2\lvgl\src\lv_objx\../lv_objx/lv_cont.h **** /*Styles*/
  75:..\..\..\lvgl\version_6.1.2\lvgl\src\lv_objx\../lv_objx/lv_cont.h **** enum {
  76:..\..\..\lvgl\version_6.1.2\lvgl\src\lv_objx\../lv_objx/lv_cont.h ****     LV_CONT_STYLE_MAIN,
  77:..\..\..\lvgl\version_6.1.2\lvgl\src\lv_objx\../lv_objx/lv_cont.h **** };
  78:..\..\..\lvgl\version_6.1.2\lvgl\src\lv_objx\../lv_objx/lv_cont.h **** typedef uint8_t lv_cont_style_t;
  79:..\..\..\lvgl\version_6.1.2\lvgl\src\lv_objx\../lv_objx/lv_cont.h **** 
  80:..\..\..\lvgl\version_6.1.2\lvgl\src\lv_objx\../lv_objx/lv_cont.h **** /**********************
  81:..\..\..\lvgl\version_6.1.2\lvgl\src\lv_objx\../lv_objx/lv_cont.h ****  * GLOBAL PROTOTYPES
  82:..\..\..\lvgl\version_6.1.2\lvgl\src\lv_objx\../lv_objx/lv_cont.h ****  **********************/
  83:..\..\..\lvgl\version_6.1.2\lvgl\src\lv_objx\../lv_objx/lv_cont.h **** 
  84:..\..\..\lvgl\version_6.1.2\lvgl\src\lv_objx\../lv_objx/lv_cont.h **** /**
  85:..\..\..\lvgl\version_6.1.2\lvgl\src\lv_objx\../lv_objx/lv_cont.h ****  * Create a container objects
  86:..\..\..\lvgl\version_6.1.2\lvgl\src\lv_objx\../lv_objx/lv_cont.h ****  * @param par pointer to an object, it will be the parent of the new container
  87:..\..\..\lvgl\version_6.1.2\lvgl\src\lv_objx\../lv_objx/lv_cont.h ****  * @param copy pointer to a container object, if not NULL then the new object will be copied from i
  88:..\..\..\lvgl\version_6.1.2\lvgl\src\lv_objx\../lv_objx/lv_cont.h ****  * @return pointer to the created container
  89:..\..\..\lvgl\version_6.1.2\lvgl\src\lv_objx\../lv_objx/lv_cont.h ****  */
  90:..\..\..\lvgl\version_6.1.2\lvgl\src\lv_objx\../lv_objx/lv_cont.h **** lv_obj_t * lv_cont_create(lv_obj_t * par, const lv_obj_t * copy);
  91:..\..\..\lvgl\version_6.1.2\lvgl\src\lv_objx\../lv_objx/lv_cont.h **** 
  92:..\..\..\lvgl\version_6.1.2\lvgl\src\lv_objx\../lv_objx/lv_cont.h **** /*=====================
  93:..\..\..\lvgl\version_6.1.2\lvgl\src\lv_objx\../lv_objx/lv_cont.h ****  * Setter functions
  94:..\..\..\lvgl\version_6.1.2\lvgl\src\lv_objx\../lv_objx/lv_cont.h ****  *====================*/
  95:..\..\..\lvgl\version_6.1.2\lvgl\src\lv_objx\../lv_objx/lv_cont.h **** 
  96:..\..\..\lvgl\version_6.1.2\lvgl\src\lv_objx\../lv_objx/lv_cont.h **** /**
  97:..\..\..\lvgl\version_6.1.2\lvgl\src\lv_objx\../lv_objx/lv_cont.h ****  * Set a layout on a container
  98:..\..\..\lvgl\version_6.1.2\lvgl\src\lv_objx\../lv_objx/lv_cont.h ****  * @param cont pointer to a container object
  99:..\..\..\lvgl\version_6.1.2\lvgl\src\lv_objx\../lv_objx/lv_cont.h ****  * @param layout a layout from 'lv_cont_layout_t'
 100:..\..\..\lvgl\version_6.1.2\lvgl\src\lv_objx\../lv_objx/lv_cont.h ****  */
 101:..\..\..\lvgl\version_6.1.2\lvgl\src\lv_objx\../lv_objx/lv_cont.h **** void lv_cont_set_layout(lv_obj_t * cont, lv_layout_t layout);
 102:..\..\..\lvgl\version_6.1.2\lvgl\src\lv_objx\../lv_objx/lv_cont.h **** 
 103:..\..\..\lvgl\version_6.1.2\lvgl\src\lv_objx\../lv_objx/lv_cont.h **** /**
 104:..\..\..\lvgl\version_6.1.2\lvgl\src\lv_objx\../lv_objx/lv_cont.h ****  * Set the fit policy in all 4 directions separately.
 105:..\..\..\lvgl\version_6.1.2\lvgl\src\lv_objx\../lv_objx/lv_cont.h ****  * It tell how to change the container's size automatically.
 106:..\..\..\lvgl\version_6.1.2\lvgl\src\lv_objx\../lv_objx/lv_cont.h ****  * @param cont pointer to a container object
 107:..\..\..\lvgl\version_6.1.2\lvgl\src\lv_objx\../lv_objx/lv_cont.h ****  * @param left left fit policy from `lv_fit_t`
 108:..\..\..\lvgl\version_6.1.2\lvgl\src\lv_objx\../lv_objx/lv_cont.h ****  * @param right right fit policy from `lv_fit_t`
 109:..\..\..\lvgl\version_6.1.2\lvgl\src\lv_objx\../lv_objx/lv_cont.h ****  * @param top top fit policy from `lv_fit_t`
 110:..\..\..\lvgl\version_6.1.2\lvgl\src\lv_objx\../lv_objx/lv_cont.h ****  * @param bottom bottom fit policy from `lv_fit_t`
 111:..\..\..\lvgl\version_6.1.2\lvgl\src\lv_objx\../lv_objx/lv_cont.h ****  */
 112:..\..\..\lvgl\version_6.1.2\lvgl\src\lv_objx\../lv_objx/lv_cont.h **** void lv_cont_set_fit4(lv_obj_t * cont, lv_fit_t left, lv_fit_t right, lv_fit_t top, lv_fit_t bottom
 113:..\..\..\lvgl\version_6.1.2\lvgl\src\lv_objx\../lv_objx/lv_cont.h **** 
 114:..\..\..\lvgl\version_6.1.2\lvgl\src\lv_objx\../lv_objx/lv_cont.h **** /**
 115:..\..\..\lvgl\version_6.1.2\lvgl\src\lv_objx\../lv_objx/lv_cont.h ****  * Set the fit policy horizontally and vertically separately.
 116:..\..\..\lvgl\version_6.1.2\lvgl\src\lv_objx\../lv_objx/lv_cont.h ****  * It tells how to change the container's size automatically.
 117:..\..\..\lvgl\version_6.1.2\lvgl\src\lv_objx\../lv_objx/lv_cont.h ****  * @param cont pointer to a container object
 118:..\..\..\lvgl\version_6.1.2\lvgl\src\lv_objx\../lv_objx/lv_cont.h ****  * @param hor horizontal fit policy from `lv_fit_t`
 119:..\..\..\lvgl\version_6.1.2\lvgl\src\lv_objx\../lv_objx/lv_cont.h ****  * @param ver vertical fit policy from `lv_fit_t`
 120:..\..\..\lvgl\version_6.1.2\lvgl\src\lv_objx\../lv_objx/lv_cont.h ****  */
 121:..\..\..\lvgl\version_6.1.2\lvgl\src\lv_objx\../lv_objx/lv_cont.h **** static inline void lv_cont_set_fit2(lv_obj_t * cont, lv_fit_t hor, lv_fit_t ver)
 122:..\..\..\lvgl\version_6.1.2\lvgl\src\lv_objx\../lv_objx/lv_cont.h **** {
 159              		.loc 3 122 0
 160              		.cfi_startproc
 161              		@ args = 0, pretend = 0, frame = 8
 162              		@ frame_needed = 1, uses_anonymous_args = 0
 163 0000 80B5     		push	{r7, lr}
 164              		.cfi_def_cfa_offset 8
 165              		.cfi_offset 7, -8
ARM GAS  C:\Users\tmj32\AppData\Local\Temp\cc94ZBZn.s 			page 10


 166              		.cfi_offset 14, -4
 167 0002 84B0     		sub	sp, sp, #16
 168              		.cfi_def_cfa_offset 24
 169 0004 02AF     		add	r7, sp, #8
 170              		.cfi_def_cfa 7, 16
 171 0006 7860     		str	r0, [r7, #4]
 172 0008 0B46     		mov	r3, r1
 173 000a FB70     		strb	r3, [r7, #3]
 174 000c 1346     		mov	r3, r2
 175 000e BB70     		strb	r3, [r7, #2]
 123:..\..\..\lvgl\version_6.1.2\lvgl\src\lv_objx\../lv_objx/lv_cont.h ****     lv_cont_set_fit4(cont, hor, hor, ver, ver);
 176              		.loc 3 123 0
 177 0010 B878     		ldrb	r0, [r7, #2]	@ zero_extendqisi2
 178 0012 FA78     		ldrb	r2, [r7, #3]	@ zero_extendqisi2
 179 0014 F978     		ldrb	r1, [r7, #3]	@ zero_extendqisi2
 180 0016 BB78     		ldrb	r3, [r7, #2]	@ zero_extendqisi2
 181 0018 0093     		str	r3, [sp]
 182 001a 0346     		mov	r3, r0
 183 001c 7868     		ldr	r0, [r7, #4]
 184 001e FFF7FEFF 		bl	lv_cont_set_fit4
 124:..\..\..\lvgl\version_6.1.2\lvgl\src\lv_objx\../lv_objx/lv_cont.h **** }
 185              		.loc 3 124 0
 186 0022 00BF     		nop
 187 0024 0837     		adds	r7, r7, #8
 188              		.cfi_def_cfa_offset 8
 189 0026 BD46     		mov	sp, r7
 190              		.cfi_def_cfa_register 13
 191              		@ sp needed
 192 0028 80BD     		pop	{r7, pc}
 193              		.cfi_endproc
 194              	.LFE31:
 195              		.size	lv_cont_set_fit2, .-lv_cont_set_fit2
 196 002a 00BF     		.section	.text.lv_cont_set_style,"ax",%progbits
 197              		.align	2
 198              		.thumb
 199              		.thumb_func
 200              		.type	lv_cont_set_style, %function
 201              	lv_cont_set_style:
 202              	.LFB33:
 125:..\..\..\lvgl\version_6.1.2\lvgl\src\lv_objx\../lv_objx/lv_cont.h **** 
 126:..\..\..\lvgl\version_6.1.2\lvgl\src\lv_objx\../lv_objx/lv_cont.h **** /**
 127:..\..\..\lvgl\version_6.1.2\lvgl\src\lv_objx\../lv_objx/lv_cont.h ****  * Set the fit policy in all 4 direction at once.
 128:..\..\..\lvgl\version_6.1.2\lvgl\src\lv_objx\../lv_objx/lv_cont.h ****  * It tells how to change the container's size automatically.
 129:..\..\..\lvgl\version_6.1.2\lvgl\src\lv_objx\../lv_objx/lv_cont.h ****  * @param cont pointer to a container object
 130:..\..\..\lvgl\version_6.1.2\lvgl\src\lv_objx\../lv_objx/lv_cont.h ****  * @param fit fit policy from `lv_fit_t`
 131:..\..\..\lvgl\version_6.1.2\lvgl\src\lv_objx\../lv_objx/lv_cont.h ****  */
 132:..\..\..\lvgl\version_6.1.2\lvgl\src\lv_objx\../lv_objx/lv_cont.h **** static inline void lv_cont_set_fit(lv_obj_t * cont, lv_fit_t fit)
 133:..\..\..\lvgl\version_6.1.2\lvgl\src\lv_objx\../lv_objx/lv_cont.h **** {
 134:..\..\..\lvgl\version_6.1.2\lvgl\src\lv_objx\../lv_objx/lv_cont.h ****     lv_cont_set_fit4(cont, fit, fit, fit, fit);
 135:..\..\..\lvgl\version_6.1.2\lvgl\src\lv_objx\../lv_objx/lv_cont.h **** }
 136:..\..\..\lvgl\version_6.1.2\lvgl\src\lv_objx\../lv_objx/lv_cont.h **** 
 137:..\..\..\lvgl\version_6.1.2\lvgl\src\lv_objx\../lv_objx/lv_cont.h **** /**
 138:..\..\..\lvgl\version_6.1.2\lvgl\src\lv_objx\../lv_objx/lv_cont.h ****  * Set the style of a container
 139:..\..\..\lvgl\version_6.1.2\lvgl\src\lv_objx\../lv_objx/lv_cont.h ****  * @param cont pointer to a container object
 140:..\..\..\lvgl\version_6.1.2\lvgl\src\lv_objx\../lv_objx/lv_cont.h ****  * @param type which style should be set (can be only `LV_CONT_STYLE_MAIN`)
 141:..\..\..\lvgl\version_6.1.2\lvgl\src\lv_objx\../lv_objx/lv_cont.h ****  * @param style pointer to the new style
 142:..\..\..\lvgl\version_6.1.2\lvgl\src\lv_objx\../lv_objx/lv_cont.h ****  */
ARM GAS  C:\Users\tmj32\AppData\Local\Temp\cc94ZBZn.s 			page 11


 143:..\..\..\lvgl\version_6.1.2\lvgl\src\lv_objx\../lv_objx/lv_cont.h **** static inline void lv_cont_set_style(lv_obj_t * cont, lv_cont_style_t type, const lv_style_t * styl
 144:..\..\..\lvgl\version_6.1.2\lvgl\src\lv_objx\../lv_objx/lv_cont.h **** {
 203              		.loc 3 144 0
 204              		.cfi_startproc
 205              		@ args = 0, pretend = 0, frame = 16
 206              		@ frame_needed = 1, uses_anonymous_args = 0
 207 0000 80B5     		push	{r7, lr}
 208              		.cfi_def_cfa_offset 8
 209              		.cfi_offset 7, -8
 210              		.cfi_offset 14, -4
 211 0002 84B0     		sub	sp, sp, #16
 212              		.cfi_def_cfa_offset 24
 213 0004 00AF     		add	r7, sp, #0
 214              		.cfi_def_cfa_register 7
 215 0006 F860     		str	r0, [r7, #12]
 216 0008 0B46     		mov	r3, r1
 217 000a 7A60     		str	r2, [r7, #4]
 218 000c FB72     		strb	r3, [r7, #11]
 145:..\..\..\lvgl\version_6.1.2\lvgl\src\lv_objx\../lv_objx/lv_cont.h ****     (void)type; /*Unused*/
 146:..\..\..\lvgl\version_6.1.2\lvgl\src\lv_objx\../lv_objx/lv_cont.h ****     lv_obj_set_style(cont, style);
 219              		.loc 3 146 0
 220 000e 7968     		ldr	r1, [r7, #4]
 221 0010 F868     		ldr	r0, [r7, #12]
 222 0012 FFF7FEFF 		bl	lv_obj_set_style
 147:..\..\..\lvgl\version_6.1.2\lvgl\src\lv_objx\../lv_objx/lv_cont.h **** }
 223              		.loc 3 147 0
 224 0016 00BF     		nop
 225 0018 1037     		adds	r7, r7, #16
 226              		.cfi_def_cfa_offset 8
 227 001a BD46     		mov	sp, r7
 228              		.cfi_def_cfa_register 13
 229              		@ sp needed
 230 001c 80BD     		pop	{r7, pc}
 231              		.cfi_endproc
 232              	.LFE33:
 233              		.size	lv_cont_set_style, .-lv_cont_set_style
 234 001e 00BF     		.bss
 235              		.align	2
 236              	ancestor_signal:
 237 0000 00000000 		.space	4
 238              		.align	2
 239              	page_signal:
 240 0004 00000000 		.space	4
 241              		.align	2
 242              	page_scrl_signal:
 243 0008 00000000 		.space	4
 244              		.section	.rodata
 245              		.align	2
 246              	.LC0:
 247 0000 00       		.ascii	"\000"
 248              		.data
 249              		.align	2
 250              		.type	tab_def, %object
 251              		.size	tab_def, 4
 252              	tab_def:
 253 0000 00000000 		.word	.LC0
 254              		.section	.text.lv_tabview_create,"ax",%progbits
ARM GAS  C:\Users\tmj32\AppData\Local\Temp\cc94ZBZn.s 			page 12


 255              		.align	2
 256              		.global	lv_tabview_create
 257              		.thumb
 258              		.thumb_func
 259              		.type	lv_tabview_create, %function
 260              	lv_tabview_create:
 261              	.LFB68:
 262              		.file 4 "..\\..\\..\\lvgl\\version_6.1.2\\lvgl\\src\\lv_objx\\lv_tabview.c"
   1:..\..\..\lvgl\version_6.1.2\lvgl\src\lv_objx/lv_tabview.c **** /**
   2:..\..\..\lvgl\version_6.1.2\lvgl\src\lv_objx/lv_tabview.c ****  * @file lv_tab.c
   3:..\..\..\lvgl\version_6.1.2\lvgl\src\lv_objx/lv_tabview.c ****  *
   4:..\..\..\lvgl\version_6.1.2\lvgl\src\lv_objx/lv_tabview.c ****  */
   5:..\..\..\lvgl\version_6.1.2\lvgl\src\lv_objx/lv_tabview.c **** 
   6:..\..\..\lvgl\version_6.1.2\lvgl\src\lv_objx/lv_tabview.c **** /*********************
   7:..\..\..\lvgl\version_6.1.2\lvgl\src\lv_objx/lv_tabview.c ****  *      INCLUDES
   8:..\..\..\lvgl\version_6.1.2\lvgl\src\lv_objx/lv_tabview.c ****  *********************/
   9:..\..\..\lvgl\version_6.1.2\lvgl\src\lv_objx/lv_tabview.c **** #include "lv_tabview.h"
  10:..\..\..\lvgl\version_6.1.2\lvgl\src\lv_objx/lv_tabview.c **** #if LV_USE_TABVIEW != 0
  11:..\..\..\lvgl\version_6.1.2\lvgl\src\lv_objx/lv_tabview.c **** 
  12:..\..\..\lvgl\version_6.1.2\lvgl\src\lv_objx/lv_tabview.c **** #include "lv_btnm.h"
  13:..\..\..\lvgl\version_6.1.2\lvgl\src\lv_objx/lv_tabview.c **** #include "../lv_core/lv_debug.h"
  14:..\..\..\lvgl\version_6.1.2\lvgl\src\lv_objx/lv_tabview.c **** #include "../lv_themes/lv_theme.h"
  15:..\..\..\lvgl\version_6.1.2\lvgl\src\lv_objx/lv_tabview.c **** #include "../lv_misc/lv_anim.h"
  16:..\..\..\lvgl\version_6.1.2\lvgl\src\lv_objx/lv_tabview.c **** #include "../lv_core/lv_disp.h"
  17:..\..\..\lvgl\version_6.1.2\lvgl\src\lv_objx/lv_tabview.c **** 
  18:..\..\..\lvgl\version_6.1.2\lvgl\src\lv_objx/lv_tabview.c **** /*********************
  19:..\..\..\lvgl\version_6.1.2\lvgl\src\lv_objx/lv_tabview.c ****  *      DEFINES
  20:..\..\..\lvgl\version_6.1.2\lvgl\src\lv_objx/lv_tabview.c ****  *********************/
  21:..\..\..\lvgl\version_6.1.2\lvgl\src\lv_objx/lv_tabview.c **** #define LV_OBJX_NAME "lv_tabview"
  22:..\..\..\lvgl\version_6.1.2\lvgl\src\lv_objx/lv_tabview.c **** 
  23:..\..\..\lvgl\version_6.1.2\lvgl\src\lv_objx/lv_tabview.c **** #if LV_USE_ANIMATION
  24:..\..\..\lvgl\version_6.1.2\lvgl\src\lv_objx/lv_tabview.c **** #ifndef LV_TABVIEW_DEF_ANIM_TIME
  25:..\..\..\lvgl\version_6.1.2\lvgl\src\lv_objx/lv_tabview.c **** #define LV_TABVIEW_DEF_ANIM_TIME 300 /*Animation time of focusing to the a list element [ms] (0: no
  26:..\..\..\lvgl\version_6.1.2\lvgl\src\lv_objx/lv_tabview.c **** #endif
  27:..\..\..\lvgl\version_6.1.2\lvgl\src\lv_objx/lv_tabview.c **** #else
  28:..\..\..\lvgl\version_6.1.2\lvgl\src\lv_objx/lv_tabview.c **** #undef LV_TABVIEW_DEF_ANIM_TIME
  29:..\..\..\lvgl\version_6.1.2\lvgl\src\lv_objx/lv_tabview.c **** #define LV_TABVIEW_DEF_ANIM_TIME 0 /*No animations*/
  30:..\..\..\lvgl\version_6.1.2\lvgl\src\lv_objx/lv_tabview.c **** #endif
  31:..\..\..\lvgl\version_6.1.2\lvgl\src\lv_objx/lv_tabview.c **** 
  32:..\..\..\lvgl\version_6.1.2\lvgl\src\lv_objx/lv_tabview.c **** /**********************
  33:..\..\..\lvgl\version_6.1.2\lvgl\src\lv_objx/lv_tabview.c ****  *      TYPEDEFS
  34:..\..\..\lvgl\version_6.1.2\lvgl\src\lv_objx/lv_tabview.c ****  **********************/
  35:..\..\..\lvgl\version_6.1.2\lvgl\src\lv_objx/lv_tabview.c **** 
  36:..\..\..\lvgl\version_6.1.2\lvgl\src\lv_objx/lv_tabview.c **** /**********************
  37:..\..\..\lvgl\version_6.1.2\lvgl\src\lv_objx/lv_tabview.c ****  *  STATIC PROTOTYPES
  38:..\..\..\lvgl\version_6.1.2\lvgl\src\lv_objx/lv_tabview.c ****  **********************/
  39:..\..\..\lvgl\version_6.1.2\lvgl\src\lv_objx/lv_tabview.c **** static lv_res_t lv_tabview_signal(lv_obj_t * tabview, lv_signal_t sign, void * param);
  40:..\..\..\lvgl\version_6.1.2\lvgl\src\lv_objx/lv_tabview.c **** static lv_res_t tabpage_signal(lv_obj_t * tab_page, lv_signal_t sign, void * param);
  41:..\..\..\lvgl\version_6.1.2\lvgl\src\lv_objx/lv_tabview.c **** static lv_res_t tabpage_scrl_signal(lv_obj_t * tab_scrl, lv_signal_t sign, void * param);
  42:..\..\..\lvgl\version_6.1.2\lvgl\src\lv_objx/lv_tabview.c **** 
  43:..\..\..\lvgl\version_6.1.2\lvgl\src\lv_objx/lv_tabview.c **** static void tabpage_pressed_handler(lv_obj_t * tabview, lv_obj_t * tabpage);
  44:..\..\..\lvgl\version_6.1.2\lvgl\src\lv_objx/lv_tabview.c **** static void tabpage_pressing_handler(lv_obj_t * tabview, lv_obj_t * tabpage);
  45:..\..\..\lvgl\version_6.1.2\lvgl\src\lv_objx/lv_tabview.c **** static void tabpage_press_lost_handler(lv_obj_t * tabview, lv_obj_t * tabpage);
  46:..\..\..\lvgl\version_6.1.2\lvgl\src\lv_objx/lv_tabview.c **** static void tab_btnm_event_cb(lv_obj_t * tab_btnm, lv_event_t event);
  47:..\..\..\lvgl\version_6.1.2\lvgl\src\lv_objx/lv_tabview.c **** static void tabview_realign(lv_obj_t * tabview);
  48:..\..\..\lvgl\version_6.1.2\lvgl\src\lv_objx/lv_tabview.c **** 
  49:..\..\..\lvgl\version_6.1.2\lvgl\src\lv_objx/lv_tabview.c **** /**********************
ARM GAS  C:\Users\tmj32\AppData\Local\Temp\cc94ZBZn.s 			page 13


  50:..\..\..\lvgl\version_6.1.2\lvgl\src\lv_objx/lv_tabview.c ****  *  STATIC VARIABLES
  51:..\..\..\lvgl\version_6.1.2\lvgl\src\lv_objx/lv_tabview.c ****  **********************/
  52:..\..\..\lvgl\version_6.1.2\lvgl\src\lv_objx/lv_tabview.c **** static lv_signal_cb_t ancestor_signal;
  53:..\..\..\lvgl\version_6.1.2\lvgl\src\lv_objx/lv_tabview.c **** static lv_signal_cb_t page_signal;
  54:..\..\..\lvgl\version_6.1.2\lvgl\src\lv_objx/lv_tabview.c **** static lv_signal_cb_t page_scrl_signal;
  55:..\..\..\lvgl\version_6.1.2\lvgl\src\lv_objx/lv_tabview.c **** static const char * tab_def[] = {""};
  56:..\..\..\lvgl\version_6.1.2\lvgl\src\lv_objx/lv_tabview.c **** 
  57:..\..\..\lvgl\version_6.1.2\lvgl\src\lv_objx/lv_tabview.c **** /**********************
  58:..\..\..\lvgl\version_6.1.2\lvgl\src\lv_objx/lv_tabview.c ****  *      MACROS
  59:..\..\..\lvgl\version_6.1.2\lvgl\src\lv_objx/lv_tabview.c ****  **********************/
  60:..\..\..\lvgl\version_6.1.2\lvgl\src\lv_objx/lv_tabview.c **** 
  61:..\..\..\lvgl\version_6.1.2\lvgl\src\lv_objx/lv_tabview.c **** /**********************
  62:..\..\..\lvgl\version_6.1.2\lvgl\src\lv_objx/lv_tabview.c ****  *   GLOBAL FUNCTIONS
  63:..\..\..\lvgl\version_6.1.2\lvgl\src\lv_objx/lv_tabview.c ****  **********************/
  64:..\..\..\lvgl\version_6.1.2\lvgl\src\lv_objx/lv_tabview.c **** 
  65:..\..\..\lvgl\version_6.1.2\lvgl\src\lv_objx/lv_tabview.c **** /**
  66:..\..\..\lvgl\version_6.1.2\lvgl\src\lv_objx/lv_tabview.c ****  * Create a Tab view object
  67:..\..\..\lvgl\version_6.1.2\lvgl\src\lv_objx/lv_tabview.c ****  * @param par pointer to an object, it will be the parent of the new tab
  68:..\..\..\lvgl\version_6.1.2\lvgl\src\lv_objx/lv_tabview.c ****  * @param copy pointer to a tab object, if not NULL then the new object will be copied from it
  69:..\..\..\lvgl\version_6.1.2\lvgl\src\lv_objx/lv_tabview.c ****  * @return pointer to the created tab
  70:..\..\..\lvgl\version_6.1.2\lvgl\src\lv_objx/lv_tabview.c ****  */
  71:..\..\..\lvgl\version_6.1.2\lvgl\src\lv_objx/lv_tabview.c **** lv_obj_t * lv_tabview_create(lv_obj_t * par, const lv_obj_t * copy)
  72:..\..\..\lvgl\version_6.1.2\lvgl\src\lv_objx/lv_tabview.c **** {
 263              		.loc 4 72 0
 264              		.cfi_startproc
 265              		@ args = 0, pretend = 0, frame = 40
 266              		@ frame_needed = 1, uses_anonymous_args = 0
 267 0000 B0B5     		push	{r4, r5, r7, lr}
 268              		.cfi_def_cfa_offset 16
 269              		.cfi_offset 4, -16
 270              		.cfi_offset 5, -12
 271              		.cfi_offset 7, -8
 272              		.cfi_offset 14, -4
 273 0002 8CB0     		sub	sp, sp, #48
 274              		.cfi_def_cfa_offset 64
 275 0004 02AF     		add	r7, sp, #8
 276              		.cfi_def_cfa 7, 56
 277 0006 7860     		str	r0, [r7, #4]
 278 0008 3960     		str	r1, [r7]
  73:..\..\..\lvgl\version_6.1.2\lvgl\src\lv_objx/lv_tabview.c ****     LV_LOG_TRACE("tab view create started");
  74:..\..\..\lvgl\version_6.1.2\lvgl\src\lv_objx/lv_tabview.c **** 
  75:..\..\..\lvgl\version_6.1.2\lvgl\src\lv_objx/lv_tabview.c ****     /*Create the ancestor of tab*/
  76:..\..\..\lvgl\version_6.1.2\lvgl\src\lv_objx/lv_tabview.c ****     lv_obj_t * new_tabview = lv_obj_create(par, copy);
 279              		.loc 4 76 0
 280 000a 3968     		ldr	r1, [r7]
 281 000c 7868     		ldr	r0, [r7, #4]
 282 000e FFF7FEFF 		bl	lv_obj_create
 283 0012 F861     		str	r0, [r7, #28]
  77:..\..\..\lvgl\version_6.1.2\lvgl\src\lv_objx/lv_tabview.c ****     LV_ASSERT_MEM(new_tabview);
  78:..\..\..\lvgl\version_6.1.2\lvgl\src\lv_objx/lv_tabview.c ****     if(new_tabview == NULL) return NULL;
 284              		.loc 4 78 0
 285 0014 FB69     		ldr	r3, [r7, #28]
 286 0016 002B     		cmp	r3, #0
 287 0018 01D1     		bne	.L10
 288              		.loc 4 78 0 is_stmt 0 discriminator 1
 289 001a 0023     		movs	r3, #0
 290 001c DFE1     		b	.L11
ARM GAS  C:\Users\tmj32\AppData\Local\Temp\cc94ZBZn.s 			page 14


 291              	.L10:
  79:..\..\..\lvgl\version_6.1.2\lvgl\src\lv_objx/lv_tabview.c ****     if(ancestor_signal == NULL) ancestor_signal = lv_obj_get_signal_cb(new_tabview);
 292              		.loc 4 79 0 is_stmt 1
 293 001e A64B     		ldr	r3, .L24
 294 0020 1B68     		ldr	r3, [r3]
 295 0022 002B     		cmp	r3, #0
 296 0024 05D1     		bne	.L12
 297              		.loc 4 79 0 is_stmt 0 discriminator 1
 298 0026 F869     		ldr	r0, [r7, #28]
 299 0028 FFF7FEFF 		bl	lv_obj_get_signal_cb
 300 002c 0246     		mov	r2, r0
 301 002e A24B     		ldr	r3, .L24
 302 0030 1A60     		str	r2, [r3]
 303              	.L12:
  80:..\..\..\lvgl\version_6.1.2\lvgl\src\lv_objx/lv_tabview.c **** 
  81:..\..\..\lvgl\version_6.1.2\lvgl\src\lv_objx/lv_tabview.c ****     /*Allocate the tab type specific extended data*/
  82:..\..\..\lvgl\version_6.1.2\lvgl\src\lv_objx/lv_tabview.c ****     lv_tabview_ext_t * ext = lv_obj_allocate_ext_attr(new_tabview, sizeof(lv_tabview_ext_t));
 304              		.loc 4 82 0 is_stmt 1
 305 0032 1C21     		movs	r1, #28
 306 0034 F869     		ldr	r0, [r7, #28]
 307 0036 FFF7FEFF 		bl	lv_obj_allocate_ext_attr
 308 003a B861     		str	r0, [r7, #24]
  83:..\..\..\lvgl\version_6.1.2\lvgl\src\lv_objx/lv_tabview.c ****     LV_ASSERT_MEM(ext);
  84:..\..\..\lvgl\version_6.1.2\lvgl\src\lv_objx/lv_tabview.c ****     if(ext == NULL) return NULL;
 309              		.loc 4 84 0
 310 003c BB69     		ldr	r3, [r7, #24]
 311 003e 002B     		cmp	r3, #0
 312 0040 01D1     		bne	.L13
 313              		.loc 4 84 0 is_stmt 0 discriminator 1
 314 0042 0023     		movs	r3, #0
 315 0044 CBE1     		b	.L11
 316              	.L13:
  85:..\..\..\lvgl\version_6.1.2\lvgl\src\lv_objx/lv_tabview.c **** 
  86:..\..\..\lvgl\version_6.1.2\lvgl\src\lv_objx/lv_tabview.c ****     /*Initialize the allocated 'ext' */
  87:..\..\..\lvgl\version_6.1.2\lvgl\src\lv_objx/lv_tabview.c ****     ext->drag_hor     = 0;
 317              		.loc 4 87 0 is_stmt 1
 318 0046 BA69     		ldr	r2, [r7, #24]
 319 0048 937E     		ldrb	r3, [r2, #26]
 320 004a 6FF38203 		bfc	r3, #2, #1
 321 004e 9376     		strb	r3, [r2, #26]
  88:..\..\..\lvgl\version_6.1.2\lvgl\src\lv_objx/lv_tabview.c ****     ext->draging      = 0;
 322              		.loc 4 88 0
 323 0050 BA69     		ldr	r2, [r7, #24]
 324 0052 937E     		ldrb	r3, [r2, #26]
 325 0054 6FF34103 		bfc	r3, #1, #1
 326 0058 9376     		strb	r3, [r2, #26]
  89:..\..\..\lvgl\version_6.1.2\lvgl\src\lv_objx/lv_tabview.c ****     ext->scroll_ver   = 0;
 327              		.loc 4 89 0
 328 005a BA69     		ldr	r2, [r7, #24]
 329 005c 937E     		ldrb	r3, [r2, #26]
 330 005e 6FF3C303 		bfc	r3, #3, #1
 331 0062 9376     		strb	r3, [r2, #26]
  90:..\..\..\lvgl\version_6.1.2\lvgl\src\lv_objx/lv_tabview.c ****     ext->slide_enable = 1;
 332              		.loc 4 90 0
 333 0064 BA69     		ldr	r2, [r7, #24]
 334 0066 937E     		ldrb	r3, [r2, #26]
 335 0068 43F00103 		orr	r3, r3, #1
ARM GAS  C:\Users\tmj32\AppData\Local\Temp\cc94ZBZn.s 			page 15


 336 006c 9376     		strb	r3, [r2, #26]
  91:..\..\..\lvgl\version_6.1.2\lvgl\src\lv_objx/lv_tabview.c ****     ext->tab_cur      = 0;
 337              		.loc 4 91 0
 338 006e BB69     		ldr	r3, [r7, #24]
 339 0070 0022     		movs	r2, #0
 340 0072 9A82     		strh	r2, [r3, #20]	@ movhi
  92:..\..\..\lvgl\version_6.1.2\lvgl\src\lv_objx/lv_tabview.c ****     ext->point_last.x = 0;
 341              		.loc 4 92 0
 342 0074 BB69     		ldr	r3, [r7, #24]
 343 0076 0022     		movs	r2, #0
 344 0078 1A82     		strh	r2, [r3, #16]	@ movhi
  93:..\..\..\lvgl\version_6.1.2\lvgl\src\lv_objx/lv_tabview.c ****     ext->point_last.y = 0;
 345              		.loc 4 93 0
 346 007a BB69     		ldr	r3, [r7, #24]
 347 007c 0022     		movs	r2, #0
 348 007e 5A82     		strh	r2, [r3, #18]	@ movhi
  94:..\..\..\lvgl\version_6.1.2\lvgl\src\lv_objx/lv_tabview.c ****     ext->content      = NULL;
 349              		.loc 4 94 0
 350 0080 BB69     		ldr	r3, [r7, #24]
 351 0082 0022     		movs	r2, #0
 352 0084 9A60     		str	r2, [r3, #8]
  95:..\..\..\lvgl\version_6.1.2\lvgl\src\lv_objx/lv_tabview.c ****     ext->indic        = NULL;
 353              		.loc 4 95 0
 354 0086 BB69     		ldr	r3, [r7, #24]
 355 0088 0022     		movs	r2, #0
 356 008a 5A60     		str	r2, [r3, #4]
  96:..\..\..\lvgl\version_6.1.2\lvgl\src\lv_objx/lv_tabview.c ****     ext->btns         = NULL;
 357              		.loc 4 96 0
 358 008c BB69     		ldr	r3, [r7, #24]
 359 008e 0022     		movs	r2, #0
 360 0090 1A60     		str	r2, [r3]
  97:..\..\..\lvgl\version_6.1.2\lvgl\src\lv_objx/lv_tabview.c ****     ext->btns_pos     = LV_TABVIEW_BTNS_POS_TOP;
 361              		.loc 4 97 0
 362 0092 BA69     		ldr	r2, [r7, #24]
 363 0094 937E     		ldrb	r3, [r2, #26]
 364 0096 6FF34613 		bfc	r3, #5, #2
 365 009a 9376     		strb	r3, [r2, #26]
  98:..\..\..\lvgl\version_6.1.2\lvgl\src\lv_objx/lv_tabview.c **** #if LV_USE_ANIMATION
  99:..\..\..\lvgl\version_6.1.2\lvgl\src\lv_objx/lv_tabview.c ****     ext->anim_time = LV_TABVIEW_DEF_ANIM_TIME;
 366              		.loc 4 99 0
 367 009c BB69     		ldr	r3, [r7, #24]
 368 009e 4FF49672 		mov	r2, #300
 369 00a2 1A83     		strh	r2, [r3, #24]	@ movhi
 100:..\..\..\lvgl\version_6.1.2\lvgl\src\lv_objx/lv_tabview.c **** #endif
 101:..\..\..\lvgl\version_6.1.2\lvgl\src\lv_objx/lv_tabview.c ****     ext->btns_hide = 0;
 370              		.loc 4 101 0
 371 00a4 BA69     		ldr	r2, [r7, #24]
 372 00a6 937E     		ldrb	r3, [r2, #26]
 373 00a8 6FF30413 		bfc	r3, #4, #1
 374 00ac 9376     		strb	r3, [r2, #26]
 102:..\..\..\lvgl\version_6.1.2\lvgl\src\lv_objx/lv_tabview.c **** 
 103:..\..\..\lvgl\version_6.1.2\lvgl\src\lv_objx/lv_tabview.c ****     /*The signal and design functions are not copied so set them here*/
 104:..\..\..\lvgl\version_6.1.2\lvgl\src\lv_objx/lv_tabview.c ****     lv_obj_set_signal_cb(new_tabview, lv_tabview_signal);
 375              		.loc 4 104 0
 376 00ae 8349     		ldr	r1, .L24+4
 377 00b0 F869     		ldr	r0, [r7, #28]
 378 00b2 FFF7FEFF 		bl	lv_obj_set_signal_cb
ARM GAS  C:\Users\tmj32\AppData\Local\Temp\cc94ZBZn.s 			page 16


 105:..\..\..\lvgl\version_6.1.2\lvgl\src\lv_objx/lv_tabview.c **** 
 106:..\..\..\lvgl\version_6.1.2\lvgl\src\lv_objx/lv_tabview.c ****     /*Init the new tab tab*/
 107:..\..\..\lvgl\version_6.1.2\lvgl\src\lv_objx/lv_tabview.c ****     if(copy == NULL) {
 379              		.loc 4 107 0
 380 00b6 3B68     		ldr	r3, [r7]
 381 00b8 002B     		cmp	r3, #0
 382 00ba 40F00F81 		bne	.L14
 383              	.LBB2:
 108:..\..\..\lvgl\version_6.1.2\lvgl\src\lv_objx/lv_tabview.c ****         ext->tab_name_ptr = lv_mem_alloc(sizeof(char *));
 384              		.loc 4 108 0
 385 00be 0420     		movs	r0, #4
 386 00c0 FFF7FEFF 		bl	lv_mem_alloc
 387 00c4 0246     		mov	r2, r0
 388 00c6 BB69     		ldr	r3, [r7, #24]
 389 00c8 DA60     		str	r2, [r3, #12]
 109:..\..\..\lvgl\version_6.1.2\lvgl\src\lv_objx/lv_tabview.c ****         LV_ASSERT_MEM(ext->tab_name_ptr);
 110:..\..\..\lvgl\version_6.1.2\lvgl\src\lv_objx/lv_tabview.c ****         if(ext->tab_name_ptr == NULL) return NULL;
 390              		.loc 4 110 0
 391 00ca BB69     		ldr	r3, [r7, #24]
 392 00cc DB68     		ldr	r3, [r3, #12]
 393 00ce 002B     		cmp	r3, #0
 394 00d0 01D1     		bne	.L15
 395              		.loc 4 110 0 is_stmt 0 discriminator 1
 396 00d2 0023     		movs	r3, #0
 397 00d4 83E1     		b	.L11
 398              	.L15:
 111:..\..\..\lvgl\version_6.1.2\lvgl\src\lv_objx/lv_tabview.c ****         ext->tab_name_ptr[0] = "";
 399              		.loc 4 111 0 is_stmt 1
 400 00d6 BB69     		ldr	r3, [r7, #24]
 401 00d8 DB68     		ldr	r3, [r3, #12]
 402 00da 794A     		ldr	r2, .L24+8
 403 00dc 1A60     		str	r2, [r3]
 112:..\..\..\lvgl\version_6.1.2\lvgl\src\lv_objx/lv_tabview.c ****         ext->tab_cnt         = 0;
 404              		.loc 4 112 0
 405 00de BB69     		ldr	r3, [r7, #24]
 406 00e0 0022     		movs	r2, #0
 407 00e2 DA82     		strh	r2, [r3, #22]	@ movhi
 113:..\..\..\lvgl\version_6.1.2\lvgl\src\lv_objx/lv_tabview.c **** 
 114:..\..\..\lvgl\version_6.1.2\lvgl\src\lv_objx/lv_tabview.c ****         /* Set a size which fits into the parent.
 115:..\..\..\lvgl\version_6.1.2\lvgl\src\lv_objx/lv_tabview.c ****          * Don't use `par` directly because if the tabview is created on a page it is moved to the
 116:..\..\..\lvgl\version_6.1.2\lvgl\src\lv_objx/lv_tabview.c ****          * scrollable so the parent has changed */
 117:..\..\..\lvgl\version_6.1.2\lvgl\src\lv_objx/lv_tabview.c ****         lv_coord_t w;
 118:..\..\..\lvgl\version_6.1.2\lvgl\src\lv_objx/lv_tabview.c ****         lv_coord_t h;
 119:..\..\..\lvgl\version_6.1.2\lvgl\src\lv_objx/lv_tabview.c ****         if(par) {
 408              		.loc 4 119 0
 409 00e4 7B68     		ldr	r3, [r7, #4]
 410 00e6 002B     		cmp	r3, #0
 411 00e8 12D0     		beq	.L16
 120:..\..\..\lvgl\version_6.1.2\lvgl\src\lv_objx/lv_tabview.c ****             w = lv_obj_get_width_fit(lv_obj_get_parent(new_tabview));
 412              		.loc 4 120 0
 413 00ea F869     		ldr	r0, [r7, #28]
 414 00ec FFF7FEFF 		bl	lv_obj_get_parent
 415 00f0 0346     		mov	r3, r0
 416 00f2 1846     		mov	r0, r3
 417 00f4 FFF7FEFF 		bl	lv_obj_get_width_fit
 418 00f8 0346     		mov	r3, r0
 419 00fa FB84     		strh	r3, [r7, #38]	@ movhi
ARM GAS  C:\Users\tmj32\AppData\Local\Temp\cc94ZBZn.s 			page 17


 121:..\..\..\lvgl\version_6.1.2\lvgl\src\lv_objx/lv_tabview.c ****             h = lv_obj_get_height_fit(lv_obj_get_parent(new_tabview));
 420              		.loc 4 121 0
 421 00fc F869     		ldr	r0, [r7, #28]
 422 00fe FFF7FEFF 		bl	lv_obj_get_parent
 423 0102 0346     		mov	r3, r0
 424 0104 1846     		mov	r0, r3
 425 0106 FFF7FEFF 		bl	lv_obj_get_height_fit
 426 010a 0346     		mov	r3, r0
 427 010c BB84     		strh	r3, [r7, #36]	@ movhi
 428 010e 09E0     		b	.L17
 429              	.L16:
 122:..\..\..\lvgl\version_6.1.2\lvgl\src\lv_objx/lv_tabview.c ****         } else {
 123:..\..\..\lvgl\version_6.1.2\lvgl\src\lv_objx/lv_tabview.c ****             w = lv_disp_get_hor_res(NULL);
 430              		.loc 4 123 0
 431 0110 0020     		movs	r0, #0
 432 0112 FFF7FEFF 		bl	lv_disp_get_hor_res
 433 0116 0346     		mov	r3, r0
 434 0118 FB84     		strh	r3, [r7, #38]	@ movhi
 124:..\..\..\lvgl\version_6.1.2\lvgl\src\lv_objx/lv_tabview.c ****             h = lv_disp_get_ver_res(NULL);
 435              		.loc 4 124 0
 436 011a 0020     		movs	r0, #0
 437 011c FFF7FEFF 		bl	lv_disp_get_ver_res
 438 0120 0346     		mov	r3, r0
 439 0122 BB84     		strh	r3, [r7, #36]	@ movhi
 440              	.L17:
 125:..\..\..\lvgl\version_6.1.2\lvgl\src\lv_objx/lv_tabview.c ****         }
 126:..\..\..\lvgl\version_6.1.2\lvgl\src\lv_objx/lv_tabview.c **** 
 127:..\..\..\lvgl\version_6.1.2\lvgl\src\lv_objx/lv_tabview.c ****         lv_obj_set_size(new_tabview, w, h);
 441              		.loc 4 127 0
 442 0124 B7F92420 		ldrsh	r2, [r7, #36]
 443 0128 B7F92630 		ldrsh	r3, [r7, #38]
 444 012c 1946     		mov	r1, r3
 445 012e F869     		ldr	r0, [r7, #28]
 446 0130 FFF7FEFF 		bl	lv_obj_set_size
 128:..\..\..\lvgl\version_6.1.2\lvgl\src\lv_objx/lv_tabview.c **** 
 129:..\..\..\lvgl\version_6.1.2\lvgl\src\lv_objx/lv_tabview.c ****         ext->content = lv_cont_create(new_tabview, NULL);
 447              		.loc 4 129 0
 448 0134 0021     		movs	r1, #0
 449 0136 F869     		ldr	r0, [r7, #28]
 450 0138 FFF7FEFF 		bl	lv_cont_create
 451 013c 0246     		mov	r2, r0
 452 013e BB69     		ldr	r3, [r7, #24]
 453 0140 9A60     		str	r2, [r3, #8]
 130:..\..\..\lvgl\version_6.1.2\lvgl\src\lv_objx/lv_tabview.c ****         ext->btns    = lv_btnm_create(new_tabview, NULL);
 454              		.loc 4 130 0
 455 0142 0021     		movs	r1, #0
 456 0144 F869     		ldr	r0, [r7, #28]
 457 0146 FFF7FEFF 		bl	lv_btnm_create
 458 014a 0246     		mov	r2, r0
 459 014c BB69     		ldr	r3, [r7, #24]
 460 014e 1A60     		str	r2, [r3]
 131:..\..\..\lvgl\version_6.1.2\lvgl\src\lv_objx/lv_tabview.c ****         ext->indic   = lv_obj_create(ext->btns, NULL);
 461              		.loc 4 131 0
 462 0150 BB69     		ldr	r3, [r7, #24]
 463 0152 1B68     		ldr	r3, [r3]
 464 0154 0021     		movs	r1, #0
 465 0156 1846     		mov	r0, r3
ARM GAS  C:\Users\tmj32\AppData\Local\Temp\cc94ZBZn.s 			page 18


 466 0158 FFF7FEFF 		bl	lv_obj_create
 467 015c 0246     		mov	r2, r0
 468 015e BB69     		ldr	r3, [r7, #24]
 469 0160 5A60     		str	r2, [r3, #4]
 132:..\..\..\lvgl\version_6.1.2\lvgl\src\lv_objx/lv_tabview.c **** 
 133:..\..\..\lvgl\version_6.1.2\lvgl\src\lv_objx/lv_tabview.c ****         lv_obj_set_height(ext->btns, 3 * LV_DPI / 4);
 470              		.loc 4 133 0
 471 0162 BB69     		ldr	r3, [r7, #24]
 472 0164 1B68     		ldr	r3, [r3]
 473 0166 7021     		movs	r1, #112
 474 0168 1846     		mov	r0, r3
 475 016a FFF7FEFF 		bl	lv_obj_set_height
 134:..\..\..\lvgl\version_6.1.2\lvgl\src\lv_objx/lv_tabview.c ****         lv_btnm_set_map(ext->btns, tab_def);
 476              		.loc 4 134 0
 477 016e BB69     		ldr	r3, [r7, #24]
 478 0170 1B68     		ldr	r3, [r3]
 479 0172 5449     		ldr	r1, .L24+12
 480 0174 1846     		mov	r0, r3
 481 0176 FFF7FEFF 		bl	lv_btnm_set_map
 135:..\..\..\lvgl\version_6.1.2\lvgl\src\lv_objx/lv_tabview.c ****         lv_obj_set_event_cb(ext->btns, tab_btnm_event_cb);
 482              		.loc 4 135 0
 483 017a BB69     		ldr	r3, [r7, #24]
 484 017c 1B68     		ldr	r3, [r3]
 485 017e 5249     		ldr	r1, .L24+16
 486 0180 1846     		mov	r0, r3
 487 0182 FFF7FEFF 		bl	lv_obj_set_event_cb
 136:..\..\..\lvgl\version_6.1.2\lvgl\src\lv_objx/lv_tabview.c **** 
 137:..\..\..\lvgl\version_6.1.2\lvgl\src\lv_objx/lv_tabview.c ****         lv_obj_set_width(ext->indic, LV_DPI);
 488              		.loc 4 137 0
 489 0186 BB69     		ldr	r3, [r7, #24]
 490 0188 5B68     		ldr	r3, [r3, #4]
 491 018a 9621     		movs	r1, #150
 492 018c 1846     		mov	r0, r3
 493 018e FFF7FEFF 		bl	lv_obj_set_width
 138:..\..\..\lvgl\version_6.1.2\lvgl\src\lv_objx/lv_tabview.c ****         lv_obj_align(ext->indic, ext->btns, LV_ALIGN_IN_BOTTOM_LEFT, 0, 0);
 494              		.loc 4 138 0
 495 0192 BB69     		ldr	r3, [r7, #24]
 496 0194 5868     		ldr	r0, [r3, #4]
 497 0196 BB69     		ldr	r3, [r7, #24]
 498 0198 1968     		ldr	r1, [r3]
 499 019a 0023     		movs	r3, #0
 500 019c 0093     		str	r3, [sp]
 501 019e 0023     		movs	r3, #0
 502 01a0 0422     		movs	r2, #4
 503 01a2 FFF7FEFF 		bl	lv_obj_align
 139:..\..\..\lvgl\version_6.1.2\lvgl\src\lv_objx/lv_tabview.c ****         lv_obj_set_click(ext->indic, false);
 504              		.loc 4 139 0
 505 01a6 BB69     		ldr	r3, [r7, #24]
 506 01a8 5B68     		ldr	r3, [r3, #4]
 507 01aa 0021     		movs	r1, #0
 508 01ac 1846     		mov	r0, r3
 509 01ae FFF7FEFF 		bl	lv_obj_set_click
 140:..\..\..\lvgl\version_6.1.2\lvgl\src\lv_objx/lv_tabview.c **** 
 141:..\..\..\lvgl\version_6.1.2\lvgl\src\lv_objx/lv_tabview.c ****         lv_cont_set_fit2(ext->content, LV_FIT_TIGHT, LV_FIT_NONE);
 510              		.loc 4 141 0
 511 01b2 BB69     		ldr	r3, [r7, #24]
 512 01b4 9B68     		ldr	r3, [r3, #8]
ARM GAS  C:\Users\tmj32\AppData\Local\Temp\cc94ZBZn.s 			page 19


 513 01b6 0022     		movs	r2, #0
 514 01b8 0121     		movs	r1, #1
 515 01ba 1846     		mov	r0, r3
 516 01bc FFF7FEFF 		bl	lv_cont_set_fit2
 142:..\..\..\lvgl\version_6.1.2\lvgl\src\lv_objx/lv_tabview.c ****         lv_cont_set_layout(ext->content, LV_LAYOUT_ROW_T);
 517              		.loc 4 142 0
 518 01c0 BB69     		ldr	r3, [r7, #24]
 519 01c2 9B68     		ldr	r3, [r3, #8]
 520 01c4 0521     		movs	r1, #5
 521 01c6 1846     		mov	r0, r3
 522 01c8 FFF7FEFF 		bl	lv_cont_set_layout
 143:..\..\..\lvgl\version_6.1.2\lvgl\src\lv_objx/lv_tabview.c ****         lv_cont_set_style(ext->content, LV_CONT_STYLE_MAIN, &lv_style_transp_tight);
 523              		.loc 4 143 0
 524 01cc BB69     		ldr	r3, [r7, #24]
 525 01ce 9B68     		ldr	r3, [r3, #8]
 526 01d0 3E4A     		ldr	r2, .L24+20
 527 01d2 0021     		movs	r1, #0
 528 01d4 1846     		mov	r0, r3
 529 01d6 FFF7FEFF 		bl	lv_cont_set_style
 144:..\..\..\lvgl\version_6.1.2\lvgl\src\lv_objx/lv_tabview.c ****         lv_obj_set_height(ext->content, lv_obj_get_height(new_tabview) - lv_obj_get_height(ext->btn
 530              		.loc 4 144 0
 531 01da BB69     		ldr	r3, [r7, #24]
 532 01dc 9D68     		ldr	r5, [r3, #8]
 533 01de F869     		ldr	r0, [r7, #28]
 534 01e0 FFF7FEFF 		bl	lv_obj_get_height
 535 01e4 0346     		mov	r3, r0
 536 01e6 9CB2     		uxth	r4, r3
 537 01e8 BB69     		ldr	r3, [r7, #24]
 538 01ea 1B68     		ldr	r3, [r3]
 539 01ec 1846     		mov	r0, r3
 540 01ee FFF7FEFF 		bl	lv_obj_get_height
 541 01f2 0346     		mov	r3, r0
 542 01f4 9BB2     		uxth	r3, r3
 543 01f6 E31A     		subs	r3, r4, r3
 544 01f8 9BB2     		uxth	r3, r3
 545 01fa 1BB2     		sxth	r3, r3
 546 01fc 1946     		mov	r1, r3
 547 01fe 2846     		mov	r0, r5
 548 0200 FFF7FEFF 		bl	lv_obj_set_height
 145:..\..\..\lvgl\version_6.1.2\lvgl\src\lv_objx/lv_tabview.c ****         lv_obj_align(ext->content, ext->btns, LV_ALIGN_OUT_BOTTOM_LEFT, 0, 0);
 549              		.loc 4 145 0
 550 0204 BB69     		ldr	r3, [r7, #24]
 551 0206 9868     		ldr	r0, [r3, #8]
 552 0208 BB69     		ldr	r3, [r7, #24]
 553 020a 1968     		ldr	r1, [r3]
 554 020c 0023     		movs	r3, #0
 555 020e 0093     		str	r3, [sp]
 556 0210 0023     		movs	r3, #0
 557 0212 0C22     		movs	r2, #12
 558 0214 FFF7FEFF 		bl	lv_obj_align
 146:..\..\..\lvgl\version_6.1.2\lvgl\src\lv_objx/lv_tabview.c **** 
 147:..\..\..\lvgl\version_6.1.2\lvgl\src\lv_objx/lv_tabview.c ****         /*Set the default styles*/
 148:..\..\..\lvgl\version_6.1.2\lvgl\src\lv_objx/lv_tabview.c ****         lv_theme_t * th = lv_theme_get_current();
 559              		.loc 4 148 0
 560 0218 FFF7FEFF 		bl	lv_theme_get_current
 561 021c 7861     		str	r0, [r7, #20]
 149:..\..\..\lvgl\version_6.1.2\lvgl\src\lv_objx/lv_tabview.c ****         if(th) {
ARM GAS  C:\Users\tmj32\AppData\Local\Temp\cc94ZBZn.s 			page 20


 562              		.loc 4 149 0
 563 021e 7B69     		ldr	r3, [r7, #20]
 564 0220 002B     		cmp	r3, #0
 565 0222 38D0     		beq	.L18
 150:..\..\..\lvgl\version_6.1.2\lvgl\src\lv_objx/lv_tabview.c ****             lv_tabview_set_style(new_tabview, LV_TABVIEW_STYLE_BG, th->style.tabview.bg);
 566              		.loc 4 150 0
 567 0224 7B69     		ldr	r3, [r7, #20]
 568 0226 D3F86031 		ldr	r3, [r3, #352]
 569 022a 1A46     		mov	r2, r3
 570 022c 0021     		movs	r1, #0
 571 022e F869     		ldr	r0, [r7, #28]
 572 0230 FFF7FEFF 		bl	lv_tabview_set_style
 151:..\..\..\lvgl\version_6.1.2\lvgl\src\lv_objx/lv_tabview.c ****             lv_tabview_set_style(new_tabview, LV_TABVIEW_STYLE_INDIC, th->style.tabview.indic);
 573              		.loc 4 151 0
 574 0234 7B69     		ldr	r3, [r7, #20]
 575 0236 D3F86431 		ldr	r3, [r3, #356]
 576 023a 1A46     		mov	r2, r3
 577 023c 0121     		movs	r1, #1
 578 023e F869     		ldr	r0, [r7, #28]
 579 0240 FFF7FEFF 		bl	lv_tabview_set_style
 152:..\..\..\lvgl\version_6.1.2\lvgl\src\lv_objx/lv_tabview.c ****             lv_tabview_set_style(new_tabview, LV_TABVIEW_STYLE_BTN_BG, th->style.tabview.btn.bg);
 580              		.loc 4 152 0
 581 0244 7B69     		ldr	r3, [r7, #20]
 582 0246 D3F86831 		ldr	r3, [r3, #360]
 583 024a 1A46     		mov	r2, r3
 584 024c 0221     		movs	r1, #2
 585 024e F869     		ldr	r0, [r7, #28]
 586 0250 FFF7FEFF 		bl	lv_tabview_set_style
 153:..\..\..\lvgl\version_6.1.2\lvgl\src\lv_objx/lv_tabview.c ****             lv_tabview_set_style(new_tabview, LV_TABVIEW_STYLE_BTN_REL, th->style.tabview.btn.rel);
 587              		.loc 4 153 0
 588 0254 7B69     		ldr	r3, [r7, #20]
 589 0256 D3F86C31 		ldr	r3, [r3, #364]
 590 025a 1A46     		mov	r2, r3
 591 025c 0321     		movs	r1, #3
 592 025e F869     		ldr	r0, [r7, #28]
 593 0260 FFF7FEFF 		bl	lv_tabview_set_style
 154:..\..\..\lvgl\version_6.1.2\lvgl\src\lv_objx/lv_tabview.c ****             lv_tabview_set_style(new_tabview, LV_TABVIEW_STYLE_BTN_PR, th->style.tabview.btn.pr);
 594              		.loc 4 154 0
 595 0264 7B69     		ldr	r3, [r7, #20]
 596 0266 D3F87031 		ldr	r3, [r3, #368]
 597 026a 1A46     		mov	r2, r3
 598 026c 0421     		movs	r1, #4
 599 026e F869     		ldr	r0, [r7, #28]
 600 0270 FFF7FEFF 		bl	lv_tabview_set_style
 155:..\..\..\lvgl\version_6.1.2\lvgl\src\lv_objx/lv_tabview.c ****             lv_tabview_set_style(new_tabview, LV_TABVIEW_STYLE_BTN_TGL_REL, th->style.tabview.btn.t
 601              		.loc 4 155 0
 602 0274 7B69     		ldr	r3, [r7, #20]
 603 0276 D3F87431 		ldr	r3, [r3, #372]
 604 027a 1A46     		mov	r2, r3
 605 027c 0521     		movs	r1, #5
 606 027e F869     		ldr	r0, [r7, #28]
 607 0280 FFF7FEFF 		bl	lv_tabview_set_style
 156:..\..\..\lvgl\version_6.1.2\lvgl\src\lv_objx/lv_tabview.c ****             lv_tabview_set_style(new_tabview, LV_TABVIEW_STYLE_BTN_TGL_PR, th->style.tabview.btn.tg
 608              		.loc 4 156 0
 609 0284 7B69     		ldr	r3, [r7, #20]
 610 0286 D3F87831 		ldr	r3, [r3, #376]
 611 028a 1A46     		mov	r2, r3
ARM GAS  C:\Users\tmj32\AppData\Local\Temp\cc94ZBZn.s 			page 21


 612 028c 0621     		movs	r1, #6
 613 028e F869     		ldr	r0, [r7, #28]
 614 0290 FFF7FEFF 		bl	lv_tabview_set_style
 615 0294 A2E0     		b	.L20
 616              	.L18:
 157:..\..\..\lvgl\version_6.1.2\lvgl\src\lv_objx/lv_tabview.c ****         } else {
 158:..\..\..\lvgl\version_6.1.2\lvgl\src\lv_objx/lv_tabview.c ****             lv_tabview_set_style(new_tabview, LV_TABVIEW_STYLE_BG, &lv_style_plain);
 617              		.loc 4 158 0
 618 0296 0E4A     		ldr	r2, .L24+24
 619 0298 0021     		movs	r1, #0
 620 029a F869     		ldr	r0, [r7, #28]
 621 029c FFF7FEFF 		bl	lv_tabview_set_style
 159:..\..\..\lvgl\version_6.1.2\lvgl\src\lv_objx/lv_tabview.c ****             lv_tabview_set_style(new_tabview, LV_TABVIEW_STYLE_BTN_BG, &lv_style_pretty);//transp);
 622              		.loc 4 159 0
 623 02a0 0C4A     		ldr	r2, .L24+28
 624 02a2 0221     		movs	r1, #2
 625 02a4 F869     		ldr	r0, [r7, #28]
 626 02a6 FFF7FEFF 		bl	lv_tabview_set_style
 160:..\..\..\lvgl\version_6.1.2\lvgl\src\lv_objx/lv_tabview.c ****             lv_tabview_set_style(new_tabview, LV_TABVIEW_STYLE_INDIC, &lv_style_plain_color);
 627              		.loc 4 160 0
 628 02aa 0B4A     		ldr	r2, .L24+32
 629 02ac 0121     		movs	r1, #1
 630 02ae F869     		ldr	r0, [r7, #28]
 631 02b0 FFF7FEFF 		bl	lv_tabview_set_style
 632 02b4 92E0     		b	.L20
 633              	.L25:
 634 02b6 00BF     		.align	2
 635              	.L24:
 636 02b8 00000000 		.word	ancestor_signal
 637 02bc 00000000 		.word	lv_tabview_signal
 638 02c0 00000000 		.word	.LC0
 639 02c4 00000000 		.word	tab_def
 640 02c8 00000000 		.word	tab_btnm_event_cb
 641 02cc 00000000 		.word	lv_style_transp_tight
 642 02d0 00000000 		.word	lv_style_plain
 643 02d4 00000000 		.word	lv_style_pretty
 644 02d8 00000000 		.word	lv_style_plain_color
 645              	.L14:
 646              	.LBE2:
 647              	.LBB3:
 161:..\..\..\lvgl\version_6.1.2\lvgl\src\lv_objx/lv_tabview.c ****         }
 162:..\..\..\lvgl\version_6.1.2\lvgl\src\lv_objx/lv_tabview.c ****     }
 163:..\..\..\lvgl\version_6.1.2\lvgl\src\lv_objx/lv_tabview.c ****     /*Copy an existing tab view*/
 164:..\..\..\lvgl\version_6.1.2\lvgl\src\lv_objx/lv_tabview.c ****     else {
 165:..\..\..\lvgl\version_6.1.2\lvgl\src\lv_objx/lv_tabview.c ****         lv_tabview_ext_t * copy_ext = lv_obj_get_ext_attr(copy);
 648              		.loc 4 165 0
 649 02dc 3868     		ldr	r0, [r7]
 650 02de FFF7FEFF 		bl	lv_obj_get_ext_attr
 651 02e2 3861     		str	r0, [r7, #16]
 166:..\..\..\lvgl\version_6.1.2\lvgl\src\lv_objx/lv_tabview.c ****         ext->point_last.x           = 0;
 652              		.loc 4 166 0
 653 02e4 BB69     		ldr	r3, [r7, #24]
 654 02e6 0022     		movs	r2, #0
 655 02e8 1A82     		strh	r2, [r3, #16]	@ movhi
 167:..\..\..\lvgl\version_6.1.2\lvgl\src\lv_objx/lv_tabview.c ****         ext->point_last.y           = 0;
 656              		.loc 4 167 0
 657 02ea BB69     		ldr	r3, [r7, #24]
ARM GAS  C:\Users\tmj32\AppData\Local\Temp\cc94ZBZn.s 			page 22


 658 02ec 0022     		movs	r2, #0
 659 02ee 5A82     		strh	r2, [r3, #18]	@ movhi
 168:..\..\..\lvgl\version_6.1.2\lvgl\src\lv_objx/lv_tabview.c ****         ext->btns                   = lv_btnm_create(new_tabview, copy_ext->btns);
 660              		.loc 4 168 0
 661 02f0 3B69     		ldr	r3, [r7, #16]
 662 02f2 1B68     		ldr	r3, [r3]
 663 02f4 1946     		mov	r1, r3
 664 02f6 F869     		ldr	r0, [r7, #28]
 665 02f8 FFF7FEFF 		bl	lv_btnm_create
 666 02fc 0246     		mov	r2, r0
 667 02fe BB69     		ldr	r3, [r7, #24]
 668 0300 1A60     		str	r2, [r3]
 169:..\..\..\lvgl\version_6.1.2\lvgl\src\lv_objx/lv_tabview.c ****         ext->indic                  = lv_obj_create(ext->btns, copy_ext->indic);
 669              		.loc 4 169 0
 670 0302 BB69     		ldr	r3, [r7, #24]
 671 0304 1A68     		ldr	r2, [r3]
 672 0306 3B69     		ldr	r3, [r7, #16]
 673 0308 5B68     		ldr	r3, [r3, #4]
 674 030a 1946     		mov	r1, r3
 675 030c 1046     		mov	r0, r2
 676 030e FFF7FEFF 		bl	lv_obj_create
 677 0312 0246     		mov	r2, r0
 678 0314 BB69     		ldr	r3, [r7, #24]
 679 0316 5A60     		str	r2, [r3, #4]
 170:..\..\..\lvgl\version_6.1.2\lvgl\src\lv_objx/lv_tabview.c ****         ext->content                = lv_cont_create(new_tabview, copy_ext->content);
 680              		.loc 4 170 0
 681 0318 3B69     		ldr	r3, [r7, #16]
 682 031a 9B68     		ldr	r3, [r3, #8]
 683 031c 1946     		mov	r1, r3
 684 031e F869     		ldr	r0, [r7, #28]
 685 0320 FFF7FEFF 		bl	lv_cont_create
 686 0324 0246     		mov	r2, r0
 687 0326 BB69     		ldr	r3, [r7, #24]
 688 0328 9A60     		str	r2, [r3, #8]
 171:..\..\..\lvgl\version_6.1.2\lvgl\src\lv_objx/lv_tabview.c **** #if LV_USE_ANIMATION
 172:..\..\..\lvgl\version_6.1.2\lvgl\src\lv_objx/lv_tabview.c ****         ext->anim_time = copy_ext->anim_time;
 689              		.loc 4 172 0
 690 032a 3B69     		ldr	r3, [r7, #16]
 691 032c 1A8B     		ldrh	r2, [r3, #24]
 692 032e BB69     		ldr	r3, [r7, #24]
 693 0330 1A83     		strh	r2, [r3, #24]	@ movhi
 173:..\..\..\lvgl\version_6.1.2\lvgl\src\lv_objx/lv_tabview.c **** #endif
 174:..\..\..\lvgl\version_6.1.2\lvgl\src\lv_objx/lv_tabview.c **** 
 175:..\..\..\lvgl\version_6.1.2\lvgl\src\lv_objx/lv_tabview.c ****         ext->tab_name_ptr = lv_mem_alloc(sizeof(char *));
 694              		.loc 4 175 0
 695 0332 0420     		movs	r0, #4
 696 0334 FFF7FEFF 		bl	lv_mem_alloc
 697 0338 0246     		mov	r2, r0
 698 033a BB69     		ldr	r3, [r7, #24]
 699 033c DA60     		str	r2, [r3, #12]
 176:..\..\..\lvgl\version_6.1.2\lvgl\src\lv_objx/lv_tabview.c ****         LV_ASSERT_MEM(ext->tab_name_ptr);
 177:..\..\..\lvgl\version_6.1.2\lvgl\src\lv_objx/lv_tabview.c ****         if(ext->tab_name_ptr == NULL) return NULL;
 700              		.loc 4 177 0
 701 033e BB69     		ldr	r3, [r7, #24]
 702 0340 DB68     		ldr	r3, [r3, #12]
 703 0342 002B     		cmp	r3, #0
 704 0344 01D1     		bne	.L21
ARM GAS  C:\Users\tmj32\AppData\Local\Temp\cc94ZBZn.s 			page 23


 705              		.loc 4 177 0 is_stmt 0 discriminator 1
 706 0346 0023     		movs	r3, #0
 707 0348 49E0     		b	.L11
 708              	.L21:
 178:..\..\..\lvgl\version_6.1.2\lvgl\src\lv_objx/lv_tabview.c ****         ext->tab_name_ptr[0] = "";
 709              		.loc 4 178 0 is_stmt 1
 710 034a BB69     		ldr	r3, [r7, #24]
 711 034c DB68     		ldr	r3, [r3, #12]
 712 034e 264A     		ldr	r2, .L26
 713 0350 1A60     		str	r2, [r3]
 179:..\..\..\lvgl\version_6.1.2\lvgl\src\lv_objx/lv_tabview.c ****         lv_btnm_set_map(ext->btns, ext->tab_name_ptr);
 714              		.loc 4 179 0
 715 0352 BB69     		ldr	r3, [r7, #24]
 716 0354 1A68     		ldr	r2, [r3]
 717 0356 BB69     		ldr	r3, [r7, #24]
 718 0358 DB68     		ldr	r3, [r3, #12]
 719 035a 1946     		mov	r1, r3
 720 035c 1046     		mov	r0, r2
 721 035e FFF7FEFF 		bl	lv_btnm_set_map
 180:..\..\..\lvgl\version_6.1.2\lvgl\src\lv_objx/lv_tabview.c **** 
 181:..\..\..\lvgl\version_6.1.2\lvgl\src\lv_objx/lv_tabview.c ****         uint16_t i;
 182:..\..\..\lvgl\version_6.1.2\lvgl\src\lv_objx/lv_tabview.c ****         lv_obj_t * new_tab;
 183:..\..\..\lvgl\version_6.1.2\lvgl\src\lv_objx/lv_tabview.c ****         lv_obj_t * copy_tab;
 184:..\..\..\lvgl\version_6.1.2\lvgl\src\lv_objx/lv_tabview.c ****         for(i = 0; i < copy_ext->tab_cnt; i++) {
 722              		.loc 4 184 0
 723 0362 0023     		movs	r3, #0
 724 0364 7B84     		strh	r3, [r7, #34]	@ movhi
 725 0366 31E0     		b	.L22
 726              	.L23:
 185:..\..\..\lvgl\version_6.1.2\lvgl\src\lv_objx/lv_tabview.c ****             new_tab  = lv_tabview_add_tab(new_tabview, copy_ext->tab_name_ptr[i]);
 727              		.loc 4 185 0 discriminator 3
 728 0368 3B69     		ldr	r3, [r7, #16]
 729 036a DA68     		ldr	r2, [r3, #12]
 730 036c 7B8C     		ldrh	r3, [r7, #34]
 731 036e 9B00     		lsls	r3, r3, #2
 732 0370 1344     		add	r3, r3, r2
 733 0372 1B68     		ldr	r3, [r3]
 734 0374 1946     		mov	r1, r3
 735 0376 F869     		ldr	r0, [r7, #28]
 736 0378 FFF7FEFF 		bl	lv_tabview_add_tab
 737 037c F860     		str	r0, [r7, #12]
 186:..\..\..\lvgl\version_6.1.2\lvgl\src\lv_objx/lv_tabview.c ****             copy_tab = lv_tabview_get_tab(copy, i);
 738              		.loc 4 186 0 discriminator 3
 739 037e 7B8C     		ldrh	r3, [r7, #34]
 740 0380 1946     		mov	r1, r3
 741 0382 3868     		ldr	r0, [r7]
 742 0384 FFF7FEFF 		bl	lv_tabview_get_tab
 743 0388 B860     		str	r0, [r7, #8]
 187:..\..\..\lvgl\version_6.1.2\lvgl\src\lv_objx/lv_tabview.c ****             lv_page_set_style(new_tab, LV_PAGE_STYLE_BG, lv_page_get_style(copy_tab, LV_PAGE_STYLE_
 744              		.loc 4 187 0 discriminator 3
 745 038a 0021     		movs	r1, #0
 746 038c B868     		ldr	r0, [r7, #8]
 747 038e FFF7FEFF 		bl	lv_page_get_style
 748 0392 0346     		mov	r3, r0
 749 0394 1A46     		mov	r2, r3
 750 0396 0021     		movs	r1, #0
 751 0398 F868     		ldr	r0, [r7, #12]
ARM GAS  C:\Users\tmj32\AppData\Local\Temp\cc94ZBZn.s 			page 24


 752 039a FFF7FEFF 		bl	lv_page_set_style
 188:..\..\..\lvgl\version_6.1.2\lvgl\src\lv_objx/lv_tabview.c ****             lv_page_set_style(new_tab, LV_PAGE_STYLE_SCRL, lv_page_get_style(copy_tab, LV_PAGE_STYL
 753              		.loc 4 188 0 discriminator 3
 754 039e 0121     		movs	r1, #1
 755 03a0 B868     		ldr	r0, [r7, #8]
 756 03a2 FFF7FEFF 		bl	lv_page_get_style
 757 03a6 0346     		mov	r3, r0
 758 03a8 1A46     		mov	r2, r3
 759 03aa 0121     		movs	r1, #1
 760 03ac F868     		ldr	r0, [r7, #12]
 761 03ae FFF7FEFF 		bl	lv_page_set_style
 189:..\..\..\lvgl\version_6.1.2\lvgl\src\lv_objx/lv_tabview.c ****             lv_page_set_style(new_tab, LV_PAGE_STYLE_SB, lv_page_get_style(copy_tab, LV_PAGE_STYLE_
 762              		.loc 4 189 0 discriminator 3
 763 03b2 0221     		movs	r1, #2
 764 03b4 B868     		ldr	r0, [r7, #8]
 765 03b6 FFF7FEFF 		bl	lv_page_get_style
 766 03ba 0346     		mov	r3, r0
 767 03bc 1A46     		mov	r2, r3
 768 03be 0221     		movs	r1, #2
 769 03c0 F868     		ldr	r0, [r7, #12]
 770 03c2 FFF7FEFF 		bl	lv_page_set_style
 184:..\..\..\lvgl\version_6.1.2\lvgl\src\lv_objx/lv_tabview.c ****             new_tab  = lv_tabview_add_tab(new_tabview, copy_ext->tab_name_ptr[i]);
 771              		.loc 4 184 0 discriminator 3
 772 03c6 7B8C     		ldrh	r3, [r7, #34]
 773 03c8 0133     		adds	r3, r3, #1
 774 03ca 7B84     		strh	r3, [r7, #34]	@ movhi
 775              	.L22:
 184:..\..\..\lvgl\version_6.1.2\lvgl\src\lv_objx/lv_tabview.c ****             new_tab  = lv_tabview_add_tab(new_tabview, copy_ext->tab_name_ptr[i]);
 776              		.loc 4 184 0 is_stmt 0 discriminator 1
 777 03cc 3B69     		ldr	r3, [r7, #16]
 778 03ce DB8A     		ldrh	r3, [r3, #22]
 779 03d0 7A8C     		ldrh	r2, [r7, #34]
 780 03d2 9A42     		cmp	r2, r3
 781 03d4 C8D3     		bcc	.L23
 190:..\..\..\lvgl\version_6.1.2\lvgl\src\lv_objx/lv_tabview.c ****         }
 191:..\..\..\lvgl\version_6.1.2\lvgl\src\lv_objx/lv_tabview.c **** 
 192:..\..\..\lvgl\version_6.1.2\lvgl\src\lv_objx/lv_tabview.c ****         /*Refresh the style with new signal function*/
 193:..\..\..\lvgl\version_6.1.2\lvgl\src\lv_objx/lv_tabview.c ****         lv_obj_refresh_style(new_tabview);
 782              		.loc 4 193 0 is_stmt 1
 783 03d6 F869     		ldr	r0, [r7, #28]
 784 03d8 FFF7FEFF 		bl	lv_obj_refresh_style
 785              	.L20:
 786              	.LBE3:
 194:..\..\..\lvgl\version_6.1.2\lvgl\src\lv_objx/lv_tabview.c ****     }
 195:..\..\..\lvgl\version_6.1.2\lvgl\src\lv_objx/lv_tabview.c **** 
 196:..\..\..\lvgl\version_6.1.2\lvgl\src\lv_objx/lv_tabview.c ****     LV_LOG_INFO("tab view created");
 197:..\..\..\lvgl\version_6.1.2\lvgl\src\lv_objx/lv_tabview.c **** 
 198:..\..\..\lvgl\version_6.1.2\lvgl\src\lv_objx/lv_tabview.c ****     return new_tabview;
 787              		.loc 4 198 0
 788 03dc FB69     		ldr	r3, [r7, #28]
 789              	.L11:
 199:..\..\..\lvgl\version_6.1.2\lvgl\src\lv_objx/lv_tabview.c **** }
 790              		.loc 4 199 0
 791 03de 1846     		mov	r0, r3
 792 03e0 2837     		adds	r7, r7, #40
 793              		.cfi_def_cfa_offset 16
 794 03e2 BD46     		mov	sp, r7
ARM GAS  C:\Users\tmj32\AppData\Local\Temp\cc94ZBZn.s 			page 25


 795              		.cfi_def_cfa_register 13
 796              		@ sp needed
 797 03e4 B0BD     		pop	{r4, r5, r7, pc}
 798              	.L27:
 799 03e6 00BF     		.align	2
 800              	.L26:
 801 03e8 00000000 		.word	.LC0
 802              		.cfi_endproc
 803              	.LFE68:
 804              		.size	lv_tabview_create, .-lv_tabview_create
 805              		.section	.text.lv_tabview_clean,"ax",%progbits
 806              		.align	2
 807              		.global	lv_tabview_clean
 808              		.thumb
 809              		.thumb_func
 810              		.type	lv_tabview_clean, %function
 811              	lv_tabview_clean:
 812              	.LFB69:
 200:..\..\..\lvgl\version_6.1.2\lvgl\src\lv_objx/lv_tabview.c **** 
 201:..\..\..\lvgl\version_6.1.2\lvgl\src\lv_objx/lv_tabview.c **** /**
 202:..\..\..\lvgl\version_6.1.2\lvgl\src\lv_objx/lv_tabview.c ****  * Delete all children of the scrl object, without deleting scrl child.
 203:..\..\..\lvgl\version_6.1.2\lvgl\src\lv_objx/lv_tabview.c ****  * @param tabview pointer to an object
 204:..\..\..\lvgl\version_6.1.2\lvgl\src\lv_objx/lv_tabview.c ****  */
 205:..\..\..\lvgl\version_6.1.2\lvgl\src\lv_objx/lv_tabview.c **** void lv_tabview_clean(lv_obj_t * tabview)
 206:..\..\..\lvgl\version_6.1.2\lvgl\src\lv_objx/lv_tabview.c **** {
 813              		.loc 4 206 0
 814              		.cfi_startproc
 815              		@ args = 0, pretend = 0, frame = 16
 816              		@ frame_needed = 1, uses_anonymous_args = 0
 817 0000 80B5     		push	{r7, lr}
 818              		.cfi_def_cfa_offset 8
 819              		.cfi_offset 7, -8
 820              		.cfi_offset 14, -4
 821 0002 84B0     		sub	sp, sp, #16
 822              		.cfi_def_cfa_offset 24
 823 0004 00AF     		add	r7, sp, #0
 824              		.cfi_def_cfa_register 7
 825 0006 7860     		str	r0, [r7, #4]
 207:..\..\..\lvgl\version_6.1.2\lvgl\src\lv_objx/lv_tabview.c ****     LV_ASSERT_OBJ(tabview, LV_OBJX_NAME);
 208:..\..\..\lvgl\version_6.1.2\lvgl\src\lv_objx/lv_tabview.c **** 
 209:..\..\..\lvgl\version_6.1.2\lvgl\src\lv_objx/lv_tabview.c ****     lv_obj_t * scrl = lv_page_get_scrl(tabview);
 826              		.loc 4 209 0
 827 0008 7868     		ldr	r0, [r7, #4]
 828 000a FFF7FEFF 		bl	lv_page_get_scrl
 829 000e F860     		str	r0, [r7, #12]
 210:..\..\..\lvgl\version_6.1.2\lvgl\src\lv_objx/lv_tabview.c ****     lv_obj_clean(scrl);
 830              		.loc 4 210 0
 831 0010 F868     		ldr	r0, [r7, #12]
 832 0012 FFF7FEFF 		bl	lv_obj_clean
 211:..\..\..\lvgl\version_6.1.2\lvgl\src\lv_objx/lv_tabview.c **** }
 833              		.loc 4 211 0
 834 0016 00BF     		nop
 835 0018 1037     		adds	r7, r7, #16
 836              		.cfi_def_cfa_offset 8
 837 001a BD46     		mov	sp, r7
 838              		.cfi_def_cfa_register 13
 839              		@ sp needed
ARM GAS  C:\Users\tmj32\AppData\Local\Temp\cc94ZBZn.s 			page 26


 840 001c 80BD     		pop	{r7, pc}
 841              		.cfi_endproc
 842              	.LFE69:
 843              		.size	lv_tabview_clean, .-lv_tabview_clean
 844 001e 00BF     		.section	.rodata
 845 0001 000000   		.align	2
 846              	.LC1:
 847 0004 0A00     		.ascii	"\012\000"
 848              		.section	.text.lv_tabview_add_tab,"ax",%progbits
 849              		.align	2
 850              		.global	lv_tabview_add_tab
 851              		.thumb
 852              		.thumb_func
 853              		.type	lv_tabview_add_tab, %function
 854              	lv_tabview_add_tab:
 855              	.LFB70:
 212:..\..\..\lvgl\version_6.1.2\lvgl\src\lv_objx/lv_tabview.c **** 
 213:..\..\..\lvgl\version_6.1.2\lvgl\src\lv_objx/lv_tabview.c **** /*======================
 214:..\..\..\lvgl\version_6.1.2\lvgl\src\lv_objx/lv_tabview.c ****  * Add/remove functions
 215:..\..\..\lvgl\version_6.1.2\lvgl\src\lv_objx/lv_tabview.c ****  *=====================*/
 216:..\..\..\lvgl\version_6.1.2\lvgl\src\lv_objx/lv_tabview.c **** 
 217:..\..\..\lvgl\version_6.1.2\lvgl\src\lv_objx/lv_tabview.c **** /**
 218:..\..\..\lvgl\version_6.1.2\lvgl\src\lv_objx/lv_tabview.c ****  * Add a new tab with the given name
 219:..\..\..\lvgl\version_6.1.2\lvgl\src\lv_objx/lv_tabview.c ****  * @param tabview pointer to Tab view object where to ass the new tab
 220:..\..\..\lvgl\version_6.1.2\lvgl\src\lv_objx/lv_tabview.c ****  * @param name the text on the tab button
 221:..\..\..\lvgl\version_6.1.2\lvgl\src\lv_objx/lv_tabview.c ****  * @return pointer to the created page object (lv_page). You can create your content here
 222:..\..\..\lvgl\version_6.1.2\lvgl\src\lv_objx/lv_tabview.c ****  */
 223:..\..\..\lvgl\version_6.1.2\lvgl\src\lv_objx/lv_tabview.c **** lv_obj_t * lv_tabview_add_tab(lv_obj_t * tabview, const char * name)
 224:..\..\..\lvgl\version_6.1.2\lvgl\src\lv_objx/lv_tabview.c **** {
 856              		.loc 4 224 0
 857              		.cfi_startproc
 858              		@ args = 0, pretend = 0, frame = 40
 859              		@ frame_needed = 1, uses_anonymous_args = 0
 860 0000 90B5     		push	{r4, r7, lr}
 861              		.cfi_def_cfa_offset 12
 862              		.cfi_offset 4, -12
 863              		.cfi_offset 7, -8
 864              		.cfi_offset 14, -4
 865 0002 8BB0     		sub	sp, sp, #44
 866              		.cfi_def_cfa_offset 56
 867 0004 00AF     		add	r7, sp, #0
 868              		.cfi_def_cfa_register 7
 869 0006 7860     		str	r0, [r7, #4]
 870 0008 3960     		str	r1, [r7]
 225:..\..\..\lvgl\version_6.1.2\lvgl\src\lv_objx/lv_tabview.c ****     LV_ASSERT_OBJ(tabview, LV_OBJX_NAME);
 226:..\..\..\lvgl\version_6.1.2\lvgl\src\lv_objx/lv_tabview.c ****     LV_ASSERT_STR(name);
 227:..\..\..\lvgl\version_6.1.2\lvgl\src\lv_objx/lv_tabview.c **** 
 228:..\..\..\lvgl\version_6.1.2\lvgl\src\lv_objx/lv_tabview.c ****     lv_tabview_ext_t * ext = lv_obj_get_ext_attr(tabview);
 871              		.loc 4 228 0
 872 000a 7868     		ldr	r0, [r7, #4]
 873 000c FFF7FEFF 		bl	lv_obj_get_ext_attr
 874 0010 7862     		str	r0, [r7, #36]
 229:..\..\..\lvgl\version_6.1.2\lvgl\src\lv_objx/lv_tabview.c **** 
 230:..\..\..\lvgl\version_6.1.2\lvgl\src\lv_objx/lv_tabview.c ****     /*Create the container page*/
 231:..\..\..\lvgl\version_6.1.2\lvgl\src\lv_objx/lv_tabview.c ****     lv_obj_t * h = lv_page_create(ext->content, NULL);
 875              		.loc 4 231 0
 876 0012 7B6A     		ldr	r3, [r7, #36]
ARM GAS  C:\Users\tmj32\AppData\Local\Temp\cc94ZBZn.s 			page 27


 877 0014 9B68     		ldr	r3, [r3, #8]
 878 0016 0021     		movs	r1, #0
 879 0018 1846     		mov	r0, r3
 880 001a FFF7FEFF 		bl	lv_page_create
 881 001e 3862     		str	r0, [r7, #32]
 232:..\..\..\lvgl\version_6.1.2\lvgl\src\lv_objx/lv_tabview.c ****     lv_obj_set_size(h, lv_obj_get_width(tabview), lv_obj_get_height(ext->content));
 882              		.loc 4 232 0
 883 0020 7868     		ldr	r0, [r7, #4]
 884 0022 FFF7FEFF 		bl	lv_obj_get_width
 885 0026 0346     		mov	r3, r0
 886 0028 1C46     		mov	r4, r3
 887 002a 7B6A     		ldr	r3, [r7, #36]
 888 002c 9B68     		ldr	r3, [r3, #8]
 889 002e 1846     		mov	r0, r3
 890 0030 FFF7FEFF 		bl	lv_obj_get_height
 891 0034 0346     		mov	r3, r0
 892 0036 1A46     		mov	r2, r3
 893 0038 2146     		mov	r1, r4
 894 003a 386A     		ldr	r0, [r7, #32]
 895 003c FFF7FEFF 		bl	lv_obj_set_size
 233:..\..\..\lvgl\version_6.1.2\lvgl\src\lv_objx/lv_tabview.c ****     lv_page_set_sb_mode(h, LV_SB_MODE_AUTO);
 896              		.loc 4 233 0
 897 0040 0321     		movs	r1, #3
 898 0042 386A     		ldr	r0, [r7, #32]
 899 0044 FFF7FEFF 		bl	lv_page_set_sb_mode
 234:..\..\..\lvgl\version_6.1.2\lvgl\src\lv_objx/lv_tabview.c ****     lv_page_set_style(h, LV_PAGE_STYLE_BG, &lv_style_transp_tight);
 900              		.loc 4 234 0
 901 0048 8C4A     		ldr	r2, .L51
 902 004a 0021     		movs	r1, #0
 903 004c 386A     		ldr	r0, [r7, #32]
 904 004e FFF7FEFF 		bl	lv_page_set_style
 235:..\..\..\lvgl\version_6.1.2\lvgl\src\lv_objx/lv_tabview.c ****     lv_page_set_style(h, LV_PAGE_STYLE_SCRL, &lv_style_transp);//plain_color);
 905              		.loc 4 235 0
 906 0052 8B4A     		ldr	r2, .L51+4
 907 0054 0121     		movs	r1, #1
 908 0056 386A     		ldr	r0, [r7, #32]
 909 0058 FFF7FEFF 		bl	lv_page_set_style
 236:..\..\..\lvgl\version_6.1.2\lvgl\src\lv_objx/lv_tabview.c **** 
 237:..\..\..\lvgl\version_6.1.2\lvgl\src\lv_objx/lv_tabview.c ****     if(page_signal == NULL) page_signal = lv_obj_get_signal_cb(h);
 910              		.loc 4 237 0
 911 005c 894B     		ldr	r3, .L51+8
 912 005e 1B68     		ldr	r3, [r3]
 913 0060 002B     		cmp	r3, #0
 914 0062 05D1     		bne	.L30
 915              		.loc 4 237 0 is_stmt 0 discriminator 1
 916 0064 386A     		ldr	r0, [r7, #32]
 917 0066 FFF7FEFF 		bl	lv_obj_get_signal_cb
 918 006a 0246     		mov	r2, r0
 919 006c 854B     		ldr	r3, .L51+8
 920 006e 1A60     		str	r2, [r3]
 921              	.L30:
 238:..\..\..\lvgl\version_6.1.2\lvgl\src\lv_objx/lv_tabview.c ****     if(page_scrl_signal == NULL) page_scrl_signal = lv_obj_get_signal_cb(lv_page_get_scrl(h));
 922              		.loc 4 238 0 is_stmt 1
 923 0070 854B     		ldr	r3, .L51+12
 924 0072 1B68     		ldr	r3, [r3]
 925 0074 002B     		cmp	r3, #0
 926 0076 09D1     		bne	.L31
ARM GAS  C:\Users\tmj32\AppData\Local\Temp\cc94ZBZn.s 			page 28


 927              		.loc 4 238 0 is_stmt 0 discriminator 1
 928 0078 386A     		ldr	r0, [r7, #32]
 929 007a FFF7FEFF 		bl	lv_page_get_scrl
 930 007e 0346     		mov	r3, r0
 931 0080 1846     		mov	r0, r3
 932 0082 FFF7FEFF 		bl	lv_obj_get_signal_cb
 933 0086 0246     		mov	r2, r0
 934 0088 7F4B     		ldr	r3, .L51+12
 935 008a 1A60     		str	r2, [r3]
 936              	.L31:
 239:..\..\..\lvgl\version_6.1.2\lvgl\src\lv_objx/lv_tabview.c ****     lv_obj_set_signal_cb(h, tabpage_signal);
 937              		.loc 4 239 0 is_stmt 1
 938 008c 7F49     		ldr	r1, .L51+16
 939 008e 386A     		ldr	r0, [r7, #32]
 940 0090 FFF7FEFF 		bl	lv_obj_set_signal_cb
 240:..\..\..\lvgl\version_6.1.2\lvgl\src\lv_objx/lv_tabview.c ****     lv_obj_set_signal_cb(lv_page_get_scrl(h), tabpage_scrl_signal);
 941              		.loc 4 240 0
 942 0094 386A     		ldr	r0, [r7, #32]
 943 0096 FFF7FEFF 		bl	lv_page_get_scrl
 944 009a 0346     		mov	r3, r0
 945 009c 7C49     		ldr	r1, .L51+20
 946 009e 1846     		mov	r0, r3
 947 00a0 FFF7FEFF 		bl	lv_obj_set_signal_cb
 241:..\..\..\lvgl\version_6.1.2\lvgl\src\lv_objx/lv_tabview.c **** 
 242:..\..\..\lvgl\version_6.1.2\lvgl\src\lv_objx/lv_tabview.c ****     /*Extend the button matrix map with the new name*/
 243:..\..\..\lvgl\version_6.1.2\lvgl\src\lv_objx/lv_tabview.c ****     char * name_dm;
 244:..\..\..\lvgl\version_6.1.2\lvgl\src\lv_objx/lv_tabview.c ****     name_dm = lv_mem_alloc(strlen(name) + 1); /*+1 for the the closing '\0' */
 948              		.loc 4 244 0
 949 00a4 3868     		ldr	r0, [r7]
 950 00a6 FFF7FEFF 		bl	strlen
 951 00aa 0346     		mov	r3, r0
 952 00ac 0133     		adds	r3, r3, #1
 953 00ae 1846     		mov	r0, r3
 954 00b0 FFF7FEFF 		bl	lv_mem_alloc
 955 00b4 F861     		str	r0, [r7, #28]
 245:..\..\..\lvgl\version_6.1.2\lvgl\src\lv_objx/lv_tabview.c ****     LV_ASSERT_MEM(name_dm);
 246:..\..\..\lvgl\version_6.1.2\lvgl\src\lv_objx/lv_tabview.c ****     if(name_dm == NULL) return NULL;
 956              		.loc 4 246 0
 957 00b6 FB69     		ldr	r3, [r7, #28]
 958 00b8 002B     		cmp	r3, #0
 959 00ba 01D1     		bne	.L32
 960              		.loc 4 246 0 is_stmt 0 discriminator 1
 961 00bc 0023     		movs	r3, #0
 962 00be 53E1     		b	.L33
 963              	.L32:
 247:..\..\..\lvgl\version_6.1.2\lvgl\src\lv_objx/lv_tabview.c ****     strcpy(name_dm, name);
 964              		.loc 4 247 0 is_stmt 1
 965 00c0 3968     		ldr	r1, [r7]
 966 00c2 F869     		ldr	r0, [r7, #28]
 967 00c4 FFF7FEFF 		bl	strcpy
 248:..\..\..\lvgl\version_6.1.2\lvgl\src\lv_objx/lv_tabview.c **** 
 249:..\..\..\lvgl\version_6.1.2\lvgl\src\lv_objx/lv_tabview.c ****     ext->tab_cnt++;
 968              		.loc 4 249 0
 969 00c8 7B6A     		ldr	r3, [r7, #36]
 970 00ca DB8A     		ldrh	r3, [r3, #22]
 971 00cc 0133     		adds	r3, r3, #1
 972 00ce 9AB2     		uxth	r2, r3
ARM GAS  C:\Users\tmj32\AppData\Local\Temp\cc94ZBZn.s 			page 29


 973 00d0 7B6A     		ldr	r3, [r7, #36]
 974 00d2 DA82     		strh	r2, [r3, #22]	@ movhi
 250:..\..\..\lvgl\version_6.1.2\lvgl\src\lv_objx/lv_tabview.c **** 
 251:..\..\..\lvgl\version_6.1.2\lvgl\src\lv_objx/lv_tabview.c ****     switch(ext->btns_pos) {
 975              		.loc 4 251 0
 976 00d4 7B6A     		ldr	r3, [r7, #36]
 977 00d6 9B7E     		ldrb	r3, [r3, #26]
 978 00d8 C3F34113 		ubfx	r3, r3, #5, #2
 979 00dc DBB2     		uxtb	r3, r3
 980 00de 023B     		subs	r3, r3, #2
 981 00e0 012B     		cmp	r3, #1
 982 00e2 0DD9     		bls	.L47
 252:..\..\..\lvgl\version_6.1.2\lvgl\src\lv_objx/lv_tabview.c ****         case LV_TABVIEW_BTNS_POS_TOP:
 253:..\..\..\lvgl\version_6.1.2\lvgl\src\lv_objx/lv_tabview.c ****         case LV_TABVIEW_BTNS_POS_BOTTOM:
 254:..\..\..\lvgl\version_6.1.2\lvgl\src\lv_objx/lv_tabview.c ****             ext->tab_name_ptr = lv_mem_realloc((void*)ext->tab_name_ptr, sizeof(char *) * (ext->tab
 983              		.loc 4 254 0
 984 00e4 7B6A     		ldr	r3, [r7, #36]
 985 00e6 DA68     		ldr	r2, [r3, #12]
 986 00e8 7B6A     		ldr	r3, [r7, #36]
 987 00ea DB8A     		ldrh	r3, [r3, #22]
 988 00ec 0133     		adds	r3, r3, #1
 989 00ee 9B00     		lsls	r3, r3, #2
 990 00f0 1946     		mov	r1, r3
 991 00f2 1046     		mov	r0, r2
 992 00f4 FFF7FEFF 		bl	lv_mem_realloc
 993 00f8 0246     		mov	r2, r0
 994 00fa 7B6A     		ldr	r3, [r7, #36]
 995 00fc DA60     		str	r2, [r3, #12]
 255:..\..\..\lvgl\version_6.1.2\lvgl\src\lv_objx/lv_tabview.c ****             break;
 996              		.loc 4 255 0
 997 00fe 0CE0     		b	.L36
 998              	.L47:
 256:..\..\..\lvgl\version_6.1.2\lvgl\src\lv_objx/lv_tabview.c ****         case LV_TABVIEW_BTNS_POS_LEFT:
 257:..\..\..\lvgl\version_6.1.2\lvgl\src\lv_objx/lv_tabview.c ****         case LV_TABVIEW_BTNS_POS_RIGHT:
 258:..\..\..\lvgl\version_6.1.2\lvgl\src\lv_objx/lv_tabview.c ****             ext->tab_name_ptr = lv_mem_realloc((void*)ext->tab_name_ptr, sizeof(char *) * (ext->tab
 999              		.loc 4 258 0
 1000 0100 7B6A     		ldr	r3, [r7, #36]
 1001 0102 DA68     		ldr	r2, [r3, #12]
 1002 0104 7B6A     		ldr	r3, [r7, #36]
 1003 0106 DB8A     		ldrh	r3, [r3, #22]
 1004 0108 DB00     		lsls	r3, r3, #3
 1005 010a 1946     		mov	r1, r3
 1006 010c 1046     		mov	r0, r2
 1007 010e FFF7FEFF 		bl	lv_mem_realloc
 1008 0112 0246     		mov	r2, r0
 1009 0114 7B6A     		ldr	r3, [r7, #36]
 1010 0116 DA60     		str	r2, [r3, #12]
 259:..\..\..\lvgl\version_6.1.2\lvgl\src\lv_objx/lv_tabview.c ****             break;
 1011              		.loc 4 259 0
 1012 0118 00BF     		nop
 1013              	.L36:
 260:..\..\..\lvgl\version_6.1.2\lvgl\src\lv_objx/lv_tabview.c ****     }
 261:..\..\..\lvgl\version_6.1.2\lvgl\src\lv_objx/lv_tabview.c **** 
 262:..\..\..\lvgl\version_6.1.2\lvgl\src\lv_objx/lv_tabview.c ****     LV_ASSERT_MEM(ext->tab_name_ptr);
 263:..\..\..\lvgl\version_6.1.2\lvgl\src\lv_objx/lv_tabview.c ****     if(ext->tab_name_ptr == NULL) return NULL;
 1014              		.loc 4 263 0
 1015 011a 7B6A     		ldr	r3, [r7, #36]
ARM GAS  C:\Users\tmj32\AppData\Local\Temp\cc94ZBZn.s 			page 30


 1016 011c DB68     		ldr	r3, [r3, #12]
 1017 011e 002B     		cmp	r3, #0
 1018 0120 01D1     		bne	.L37
 1019              		.loc 4 263 0 is_stmt 0 discriminator 1
 1020 0122 0023     		movs	r3, #0
 1021 0124 20E1     		b	.L33
 1022              	.L37:
 264:..\..\..\lvgl\version_6.1.2\lvgl\src\lv_objx/lv_tabview.c **** 
 265:..\..\..\lvgl\version_6.1.2\lvgl\src\lv_objx/lv_tabview.c ****     /* FIXME: It is not possible yet to switch tab button position from/to top/bottom from/to left/
 266:..\..\..\lvgl\version_6.1.2\lvgl\src\lv_objx/lv_tabview.c ****      * Method: clean extra \n when switch from LV_TABVIEW_BTNS_POS_LEFT or LV_TABVIEW_BTNS_POS_RIGH
 267:..\..\..\lvgl\version_6.1.2\lvgl\src\lv_objx/lv_tabview.c ****      * to LV_TABVIEW_BTNS_POS_TOP or LV_TABVIEW_BTNS_POS_BOTTOM.
 268:..\..\..\lvgl\version_6.1.2\lvgl\src\lv_objx/lv_tabview.c ****      */
 269:..\..\..\lvgl\version_6.1.2\lvgl\src\lv_objx/lv_tabview.c ****     switch(ext->btns_pos) {
 1023              		.loc 4 269 0 is_stmt 1
 1024 0126 7B6A     		ldr	r3, [r7, #36]
 1025 0128 9B7E     		ldrb	r3, [r3, #26]
 1026 012a C3F34113 		ubfx	r3, r3, #5, #2
 1027 012e DBB2     		uxtb	r3, r3
 1028 0130 023B     		subs	r3, r3, #2
 1029 0132 012B     		cmp	r3, #1
 1030 0134 13D9     		bls	.L48
 270:..\..\..\lvgl\version_6.1.2\lvgl\src\lv_objx/lv_tabview.c ****         case LV_TABVIEW_BTNS_POS_TOP:
 271:..\..\..\lvgl\version_6.1.2\lvgl\src\lv_objx/lv_tabview.c ****         case LV_TABVIEW_BTNS_POS_BOTTOM:
 272:..\..\..\lvgl\version_6.1.2\lvgl\src\lv_objx/lv_tabview.c ****             ext->tab_name_ptr[ext->tab_cnt - 1] = name_dm;
 1031              		.loc 4 272 0
 1032 0136 7B6A     		ldr	r3, [r7, #36]
 1033 0138 DA68     		ldr	r2, [r3, #12]
 1034 013a 7B6A     		ldr	r3, [r7, #36]
 1035 013c DB8A     		ldrh	r3, [r3, #22]
 1036 013e 03F18043 		add	r3, r3, #1073741824
 1037 0142 013B     		subs	r3, r3, #1
 1038 0144 9B00     		lsls	r3, r3, #2
 1039 0146 1344     		add	r3, r3, r2
 1040 0148 FA69     		ldr	r2, [r7, #28]
 1041 014a 1A60     		str	r2, [r3]
 273:..\..\..\lvgl\version_6.1.2\lvgl\src\lv_objx/lv_tabview.c ****             ext->tab_name_ptr[ext->tab_cnt]     = "";
 1042              		.loc 4 273 0
 1043 014c 7B6A     		ldr	r3, [r7, #36]
 1044 014e DA68     		ldr	r2, [r3, #12]
 1045 0150 7B6A     		ldr	r3, [r7, #36]
 1046 0152 DB8A     		ldrh	r3, [r3, #22]
 1047 0154 9B00     		lsls	r3, r3, #2
 1048 0156 1344     		add	r3, r3, r2
 1049 0158 4E4A     		ldr	r2, .L51+24
 1050 015a 1A60     		str	r2, [r3]
 274:..\..\..\lvgl\version_6.1.2\lvgl\src\lv_objx/lv_tabview.c ****             break;
 1051              		.loc 4 274 0
 1052 015c 29E0     		b	.L40
 1053              	.L48:
 275:..\..\..\lvgl\version_6.1.2\lvgl\src\lv_objx/lv_tabview.c ****         case LV_TABVIEW_BTNS_POS_LEFT:
 276:..\..\..\lvgl\version_6.1.2\lvgl\src\lv_objx/lv_tabview.c ****         case LV_TABVIEW_BTNS_POS_RIGHT:
 277:..\..\..\lvgl\version_6.1.2\lvgl\src\lv_objx/lv_tabview.c ****             if(ext->tab_cnt == 1) {
 1054              		.loc 4 277 0
 1055 015e 7B6A     		ldr	r3, [r7, #36]
 1056 0160 DB8A     		ldrh	r3, [r3, #22]
 1057 0162 012B     		cmp	r3, #1
 1058 0164 09D1     		bne	.L41
ARM GAS  C:\Users\tmj32\AppData\Local\Temp\cc94ZBZn.s 			page 31


 278:..\..\..\lvgl\version_6.1.2\lvgl\src\lv_objx/lv_tabview.c ****                 ext->tab_name_ptr[0] = name_dm;
 1059              		.loc 4 278 0
 1060 0166 7B6A     		ldr	r3, [r7, #36]
 1061 0168 DB68     		ldr	r3, [r3, #12]
 1062 016a FA69     		ldr	r2, [r7, #28]
 1063 016c 1A60     		str	r2, [r3]
 279:..\..\..\lvgl\version_6.1.2\lvgl\src\lv_objx/lv_tabview.c ****                 ext->tab_name_ptr[1] = "";
 1064              		.loc 4 279 0
 1065 016e 7B6A     		ldr	r3, [r7, #36]
 1066 0170 DB68     		ldr	r3, [r3, #12]
 1067 0172 0433     		adds	r3, r3, #4
 1068 0174 474A     		ldr	r2, .L51+24
 1069 0176 1A60     		str	r2, [r3]
 280:..\..\..\lvgl\version_6.1.2\lvgl\src\lv_objx/lv_tabview.c ****             } else {
 281:..\..\..\lvgl\version_6.1.2\lvgl\src\lv_objx/lv_tabview.c ****                 ext->tab_name_ptr[ext->tab_cnt * 2 - 3] = "\n";
 282:..\..\..\lvgl\version_6.1.2\lvgl\src\lv_objx/lv_tabview.c ****                 ext->tab_name_ptr[ext->tab_cnt * 2 - 2] = name_dm;
 283:..\..\..\lvgl\version_6.1.2\lvgl\src\lv_objx/lv_tabview.c ****                 ext->tab_name_ptr[ext->tab_cnt * 2 - 1] = "";
 284:..\..\..\lvgl\version_6.1.2\lvgl\src\lv_objx/lv_tabview.c ****             }
 285:..\..\..\lvgl\version_6.1.2\lvgl\src\lv_objx/lv_tabview.c ****             break;
 1070              		.loc 4 285 0
 1071 0178 1AE0     		b	.L50
 1072              	.L41:
 281:..\..\..\lvgl\version_6.1.2\lvgl\src\lv_objx/lv_tabview.c ****                 ext->tab_name_ptr[ext->tab_cnt * 2 - 2] = name_dm;
 1073              		.loc 4 281 0
 1074 017a 7B6A     		ldr	r3, [r7, #36]
 1075 017c DA68     		ldr	r2, [r3, #12]
 1076 017e 7B6A     		ldr	r3, [r7, #36]
 1077 0180 DB8A     		ldrh	r3, [r3, #22]
 1078 0182 DB00     		lsls	r3, r3, #3
 1079 0184 0C3B     		subs	r3, r3, #12
 1080 0186 1344     		add	r3, r3, r2
 1081 0188 434A     		ldr	r2, .L51+28
 1082 018a 1A60     		str	r2, [r3]
 282:..\..\..\lvgl\version_6.1.2\lvgl\src\lv_objx/lv_tabview.c ****                 ext->tab_name_ptr[ext->tab_cnt * 2 - 1] = "";
 1083              		.loc 4 282 0
 1084 018c 7B6A     		ldr	r3, [r7, #36]
 1085 018e DA68     		ldr	r2, [r3, #12]
 1086 0190 7B6A     		ldr	r3, [r7, #36]
 1087 0192 DB8A     		ldrh	r3, [r3, #22]
 1088 0194 DB00     		lsls	r3, r3, #3
 1089 0196 083B     		subs	r3, r3, #8
 1090 0198 1344     		add	r3, r3, r2
 1091 019a FA69     		ldr	r2, [r7, #28]
 1092 019c 1A60     		str	r2, [r3]
 283:..\..\..\lvgl\version_6.1.2\lvgl\src\lv_objx/lv_tabview.c ****             }
 1093              		.loc 4 283 0
 1094 019e 7B6A     		ldr	r3, [r7, #36]
 1095 01a0 DA68     		ldr	r2, [r3, #12]
 1096 01a2 7B6A     		ldr	r3, [r7, #36]
 1097 01a4 DB8A     		ldrh	r3, [r3, #22]
 1098 01a6 DB00     		lsls	r3, r3, #3
 1099 01a8 043B     		subs	r3, r3, #4
 1100 01aa 1344     		add	r3, r3, r2
 1101 01ac 394A     		ldr	r2, .L51+24
 1102 01ae 1A60     		str	r2, [r3]
 1103              	.L50:
 1104              		.loc 4 285 0
ARM GAS  C:\Users\tmj32\AppData\Local\Temp\cc94ZBZn.s 			page 32


 1105 01b0 00BF     		nop
 1106              	.L40:
 286:..\..\..\lvgl\version_6.1.2\lvgl\src\lv_objx/lv_tabview.c ****     }
 287:..\..\..\lvgl\version_6.1.2\lvgl\src\lv_objx/lv_tabview.c **** 
 288:..\..\..\lvgl\version_6.1.2\lvgl\src\lv_objx/lv_tabview.c ****     /* The button matrix's map still points to the old `tab_name_ptr` which might be freed by
 289:..\..\..\lvgl\version_6.1.2\lvgl\src\lv_objx/lv_tabview.c ****      * `lv_mem_realloc`. So make its current map invalid*/
 290:..\..\..\lvgl\version_6.1.2\lvgl\src\lv_objx/lv_tabview.c ****     lv_btnm_ext_t * btnm_ext = lv_obj_get_ext_attr(ext->btns);
 1107              		.loc 4 290 0
 1108 01b2 7B6A     		ldr	r3, [r7, #36]
 1109 01b4 1B68     		ldr	r3, [r3]
 1110 01b6 1846     		mov	r0, r3
 1111 01b8 FFF7FEFF 		bl	lv_obj_get_ext_attr
 1112 01bc B861     		str	r0, [r7, #24]
 291:..\..\..\lvgl\version_6.1.2\lvgl\src\lv_objx/lv_tabview.c ****     btnm_ext->map_p          = NULL;
 1113              		.loc 4 291 0
 1114 01be BB69     		ldr	r3, [r7, #24]
 1115 01c0 0022     		movs	r2, #0
 1116 01c2 1A60     		str	r2, [r3]
 292:..\..\..\lvgl\version_6.1.2\lvgl\src\lv_objx/lv_tabview.c **** 
 293:..\..\..\lvgl\version_6.1.2\lvgl\src\lv_objx/lv_tabview.c ****     lv_btnm_set_map(ext->btns, ext->tab_name_ptr);
 1117              		.loc 4 293 0
 1118 01c4 7B6A     		ldr	r3, [r7, #36]
 1119 01c6 1A68     		ldr	r2, [r3]
 1120 01c8 7B6A     		ldr	r3, [r7, #36]
 1121 01ca DB68     		ldr	r3, [r3, #12]
 1122 01cc 1946     		mov	r1, r3
 1123 01ce 1046     		mov	r0, r2
 1124 01d0 FFF7FEFF 		bl	lv_btnm_set_map
 294:..\..\..\lvgl\version_6.1.2\lvgl\src\lv_objx/lv_tabview.c ****     lv_btnm_set_btn_ctrl(ext->btns, ext->tab_cur, LV_BTNM_CTRL_NO_REPEAT);
 1125              		.loc 4 294 0
 1126 01d4 7B6A     		ldr	r3, [r7, #36]
 1127 01d6 1868     		ldr	r0, [r3]
 1128 01d8 7B6A     		ldr	r3, [r7, #36]
 1129 01da 9B8A     		ldrh	r3, [r3, #20]
 1130 01dc 1022     		movs	r2, #16
 1131 01de 1946     		mov	r1, r3
 1132 01e0 FFF7FEFF 		bl	lv_btnm_set_btn_ctrl
 295:..\..\..\lvgl\version_6.1.2\lvgl\src\lv_objx/lv_tabview.c **** 
 296:..\..\..\lvgl\version_6.1.2\lvgl\src\lv_objx/lv_tabview.c ****     /*Modify the indicator size*/
 297:..\..\..\lvgl\version_6.1.2\lvgl\src\lv_objx/lv_tabview.c ****     const lv_style_t * style_tabs = lv_obj_get_style(ext->btns);
 1133              		.loc 4 297 0
 1134 01e4 7B6A     		ldr	r3, [r7, #36]
 1135 01e6 1B68     		ldr	r3, [r3]
 1136 01e8 1846     		mov	r0, r3
 1137 01ea FFF7FEFF 		bl	lv_obj_get_style
 1138 01ee 7861     		str	r0, [r7, #20]
 298:..\..\..\lvgl\version_6.1.2\lvgl\src\lv_objx/lv_tabview.c ****     lv_coord_t indic_size;
 299:..\..\..\lvgl\version_6.1.2\lvgl\src\lv_objx/lv_tabview.c ****     lv_coord_t max_h, btn_h, act_y;
 300:..\..\..\lvgl\version_6.1.2\lvgl\src\lv_objx/lv_tabview.c **** 
 301:..\..\..\lvgl\version_6.1.2\lvgl\src\lv_objx/lv_tabview.c ****     switch(ext->btns_pos) {
 1139              		.loc 4 301 0
 1140 01f0 7B6A     		ldr	r3, [r7, #36]
 1141 01f2 9B7E     		ldrb	r3, [r3, #26]
 1142 01f4 C3F34113 		ubfx	r3, r3, #5, #2
 1143 01f8 DBB2     		uxtb	r3, r3
 1144 01fa 023B     		subs	r3, r3, #2
 1145 01fc 012B     		cmp	r3, #1
ARM GAS  C:\Users\tmj32\AppData\Local\Temp\cc94ZBZn.s 			page 33


 1146 01fe 4DD9     		bls	.L49
 302:..\..\..\lvgl\version_6.1.2\lvgl\src\lv_objx/lv_tabview.c ****         case LV_TABVIEW_BTNS_POS_TOP:
 303:..\..\..\lvgl\version_6.1.2\lvgl\src\lv_objx/lv_tabview.c ****         case LV_TABVIEW_BTNS_POS_BOTTOM:
 304:..\..\..\lvgl\version_6.1.2\lvgl\src\lv_objx/lv_tabview.c ****             indic_size = (lv_obj_get_width(tabview) - style_tabs->body.padding.inner * (ext->tab_cn
 1147              		.loc 4 304 0
 1148 0200 7868     		ldr	r0, [r7, #4]
 1149 0202 FFF7FEFF 		bl	lv_obj_get_width
 1150 0206 0346     		mov	r3, r0
 1151 0208 1A46     		mov	r2, r3
 1152 020a 7B69     		ldr	r3, [r7, #20]
 1153 020c B3F92830 		ldrsh	r3, [r3, #40]
 1154 0210 1946     		mov	r1, r3
 1155 0212 7B6A     		ldr	r3, [r7, #36]
 1156 0214 DB8A     		ldrh	r3, [r3, #22]
 1157 0216 013B     		subs	r3, r3, #1
 1158 0218 03FB01F3 		mul	r3, r3, r1
 1159 021c D31A     		subs	r3, r2, r3
 305:..\..\..\lvgl\version_6.1.2\lvgl\src\lv_objx/lv_tabview.c ****                           style_tabs->body.padding.left - style_tabs->body.padding.right) /
 1160              		.loc 4 305 0
 1161 021e 7A69     		ldr	r2, [r7, #20]
 1162 0220 B2F92420 		ldrsh	r2, [r2, #36]
 304:..\..\..\lvgl\version_6.1.2\lvgl\src\lv_objx/lv_tabview.c ****                           style_tabs->body.padding.left - style_tabs->body.padding.right) /
 1163              		.loc 4 304 0
 1164 0224 9B1A     		subs	r3, r3, r2
 1165              		.loc 4 305 0
 1166 0226 7A69     		ldr	r2, [r7, #20]
 1167 0228 B2F92620 		ldrsh	r2, [r2, #38]
 1168 022c 9B1A     		subs	r3, r3, r2
 306:..\..\..\lvgl\version_6.1.2\lvgl\src\lv_objx/lv_tabview.c ****                          ext->tab_cnt;
 1169              		.loc 4 306 0
 1170 022e 7A6A     		ldr	r2, [r7, #36]
 1171 0230 D28A     		ldrh	r2, [r2, #22]
 305:..\..\..\lvgl\version_6.1.2\lvgl\src\lv_objx/lv_tabview.c ****                           style_tabs->body.padding.left - style_tabs->body.padding.right) /
 1172              		.loc 4 305 0
 1173 0232 93FBF2F3 		sdiv	r3, r3, r2
 304:..\..\..\lvgl\version_6.1.2\lvgl\src\lv_objx/lv_tabview.c ****                           style_tabs->body.padding.left - style_tabs->body.padding.right) /
 1174              		.loc 4 304 0
 1175 0236 7B82     		strh	r3, [r7, #18]	@ movhi
 307:..\..\..\lvgl\version_6.1.2\lvgl\src\lv_objx/lv_tabview.c ****             lv_obj_set_width(ext->indic, indic_size);
 1176              		.loc 4 307 0
 1177 0238 7B6A     		ldr	r3, [r7, #36]
 1178 023a 5B68     		ldr	r3, [r3, #4]
 1179 023c B7F91220 		ldrsh	r2, [r7, #18]
 1180 0240 1146     		mov	r1, r2
 1181 0242 1846     		mov	r0, r3
 1182 0244 FFF7FEFF 		bl	lv_obj_set_width
 308:..\..\..\lvgl\version_6.1.2\lvgl\src\lv_objx/lv_tabview.c ****             lv_obj_set_x(ext->indic, indic_size * ext->tab_cur + style_tabs->body.padding.inner * e
 1183              		.loc 4 308 0
 1184 0248 7B6A     		ldr	r3, [r7, #36]
 1185 024a 5868     		ldr	r0, [r3, #4]
 1186 024c B7F91230 		ldrsh	r3, [r7, #18]
 1187 0250 7A69     		ldr	r2, [r7, #20]
 1188 0252 B2F92820 		ldrsh	r2, [r2, #40]
 1189 0256 1344     		add	r3, r3, r2
 1190 0258 9AB2     		uxth	r2, r3
 1191 025a 7B6A     		ldr	r3, [r7, #36]
 1192 025c 9B8A     		ldrh	r3, [r3, #20]
ARM GAS  C:\Users\tmj32\AppData\Local\Temp\cc94ZBZn.s 			page 34


 1193 025e 12FB03F3 		smulbb	r3, r2, r3
 1194 0262 9AB2     		uxth	r2, r3
 309:..\..\..\lvgl\version_6.1.2\lvgl\src\lv_objx/lv_tabview.c ****                                          style_tabs->body.padding.left);
 1195              		.loc 4 309 0
 1196 0264 7B69     		ldr	r3, [r7, #20]
 1197 0266 B3F92430 		ldrsh	r3, [r3, #36]
 308:..\..\..\lvgl\version_6.1.2\lvgl\src\lv_objx/lv_tabview.c ****             lv_obj_set_x(ext->indic, indic_size * ext->tab_cur + style_tabs->body.padding.inner * e
 1198              		.loc 4 308 0
 1199 026a 9BB2     		uxth	r3, r3
 1200 026c 1344     		add	r3, r3, r2
 1201 026e 9BB2     		uxth	r3, r3
 1202 0270 1BB2     		sxth	r3, r3
 1203 0272 1946     		mov	r1, r3
 1204 0274 FFF7FEFF 		bl	lv_obj_set_x
 310:..\..\..\lvgl\version_6.1.2\lvgl\src\lv_objx/lv_tabview.c ****             break;
 1205              		.loc 4 310 0
 1206 0278 64E0     		b	.L45
 1207              	.L52:
 1208 027a 00BF     		.align	2
 1209              	.L51:
 1210 027c 00000000 		.word	lv_style_transp_tight
 1211 0280 00000000 		.word	lv_style_transp
 1212 0284 04000000 		.word	page_signal
 1213 0288 08000000 		.word	page_scrl_signal
 1214 028c 00000000 		.word	tabpage_signal
 1215 0290 00000000 		.word	tabpage_scrl_signal
 1216 0294 00000000 		.word	.LC0
 1217 0298 04000000 		.word	.LC1
 1218              	.L49:
 311:..\..\..\lvgl\version_6.1.2\lvgl\src\lv_objx/lv_tabview.c ****         case LV_TABVIEW_BTNS_POS_LEFT:
 312:..\..\..\lvgl\version_6.1.2\lvgl\src\lv_objx/lv_tabview.c ****         case LV_TABVIEW_BTNS_POS_RIGHT:
 313:..\..\..\lvgl\version_6.1.2\lvgl\src\lv_objx/lv_tabview.c ****             max_h = lv_obj_get_height(ext->btns) - style_tabs->body.padding.top - style_tabs->body.
 1219              		.loc 4 313 0
 1220 029c 7B6A     		ldr	r3, [r7, #36]
 1221 029e 1B68     		ldr	r3, [r3]
 1222 02a0 1846     		mov	r0, r3
 1223 02a2 FFF7FEFF 		bl	lv_obj_get_height
 1224 02a6 0346     		mov	r3, r0
 1225 02a8 9AB2     		uxth	r2, r3
 1226 02aa 7B69     		ldr	r3, [r7, #20]
 1227 02ac B3F92030 		ldrsh	r3, [r3, #32]
 1228 02b0 9BB2     		uxth	r3, r3
 1229 02b2 D31A     		subs	r3, r2, r3
 1230 02b4 9AB2     		uxth	r2, r3
 1231 02b6 7B69     		ldr	r3, [r7, #20]
 1232 02b8 B3F92230 		ldrsh	r3, [r3, #34]
 1233 02bc 9BB2     		uxth	r3, r3
 1234 02be D31A     		subs	r3, r2, r3
 1235 02c0 9BB2     		uxth	r3, r3
 1236 02c2 3B82     		strh	r3, [r7, #16]	@ movhi
 314:..\..\..\lvgl\version_6.1.2\lvgl\src\lv_objx/lv_tabview.c ****             btn_h = max_h - ((ext->tab_cnt - 1) * style_tabs->body.padding.inner);
 1237              		.loc 4 314 0
 1238 02c4 3A8A     		ldrh	r2, [r7, #16]
 1239 02c6 7B6A     		ldr	r3, [r7, #36]
 1240 02c8 DB8A     		ldrh	r3, [r3, #22]
 1241 02ca 013B     		subs	r3, r3, #1
 1242 02cc 99B2     		uxth	r1, r3
ARM GAS  C:\Users\tmj32\AppData\Local\Temp\cc94ZBZn.s 			page 35


 1243 02ce 7B69     		ldr	r3, [r7, #20]
 1244 02d0 B3F92830 		ldrsh	r3, [r3, #40]
 1245 02d4 9BB2     		uxth	r3, r3
 1246 02d6 11FB03F3 		smulbb	r3, r1, r3
 1247 02da 9BB2     		uxth	r3, r3
 1248 02dc D31A     		subs	r3, r2, r3
 1249 02de 9BB2     		uxth	r3, r3
 1250 02e0 FB81     		strh	r3, [r7, #14]	@ movhi
 315:..\..\..\lvgl\version_6.1.2\lvgl\src\lv_objx/lv_tabview.c ****             btn_h = btn_h / ext->tab_cnt;
 1251              		.loc 4 315 0
 1252 02e2 B7F90E30 		ldrsh	r3, [r7, #14]
 1253 02e6 7A6A     		ldr	r2, [r7, #36]
 1254 02e8 D28A     		ldrh	r2, [r2, #22]
 1255 02ea 93FBF2F3 		sdiv	r3, r3, r2
 1256 02ee FB81     		strh	r3, [r7, #14]	@ movhi
 316:..\..\..\lvgl\version_6.1.2\lvgl\src\lv_objx/lv_tabview.c ****             btn_h--; /*-1 because e.g. height = 100 means 101 pixels (0..100)*/
 1257              		.loc 4 316 0
 1258 02f0 B7F90E30 		ldrsh	r3, [r7, #14]
 1259 02f4 9BB2     		uxth	r3, r3
 1260 02f6 013B     		subs	r3, r3, #1
 1261 02f8 9BB2     		uxth	r3, r3
 1262 02fa FB81     		strh	r3, [r7, #14]	@ movhi
 317:..\..\..\lvgl\version_6.1.2\lvgl\src\lv_objx/lv_tabview.c ****             act_y = style_tabs->body.padding.top + ext->tab_cur * (btn_h + style_tabs->body.padding
 1263              		.loc 4 317 0
 1264 02fc 7B69     		ldr	r3, [r7, #20]
 1265 02fe B3F92030 		ldrsh	r3, [r3, #32]
 1266 0302 9AB2     		uxth	r2, r3
 1267 0304 7B6A     		ldr	r3, [r7, #36]
 1268 0306 998A     		ldrh	r1, [r3, #20]
 1269 0308 B7F90E30 		ldrsh	r3, [r7, #14]
 1270 030c 7869     		ldr	r0, [r7, #20]
 1271 030e B0F92800 		ldrsh	r0, [r0, #40]
 1272 0312 0344     		add	r3, r3, r0
 1273 0314 9BB2     		uxth	r3, r3
 1274 0316 11FB03F3 		smulbb	r3, r1, r3
 1275 031a 9BB2     		uxth	r3, r3
 1276 031c 1344     		add	r3, r3, r2
 1277 031e 9BB2     		uxth	r3, r3
 1278 0320 BB81     		strh	r3, [r7, #12]	@ movhi
 318:..\..\..\lvgl\version_6.1.2\lvgl\src\lv_objx/lv_tabview.c **** 
 319:..\..\..\lvgl\version_6.1.2\lvgl\src\lv_objx/lv_tabview.c ****             lv_obj_set_height(ext->indic, btn_h);
 1279              		.loc 4 319 0
 1280 0322 7B6A     		ldr	r3, [r7, #36]
 1281 0324 5B68     		ldr	r3, [r3, #4]
 1282 0326 B7F90E20 		ldrsh	r2, [r7, #14]
 1283 032a 1146     		mov	r1, r2
 1284 032c 1846     		mov	r0, r3
 1285 032e FFF7FEFF 		bl	lv_obj_set_height
 320:..\..\..\lvgl\version_6.1.2\lvgl\src\lv_objx/lv_tabview.c ****             lv_obj_set_y(ext->indic, act_y);
 1286              		.loc 4 320 0
 1287 0332 7B6A     		ldr	r3, [r7, #36]
 1288 0334 5B68     		ldr	r3, [r3, #4]
 1289 0336 B7F90C20 		ldrsh	r2, [r7, #12]
 1290 033a 1146     		mov	r1, r2
 1291 033c 1846     		mov	r0, r3
 1292 033e FFF7FEFF 		bl	lv_obj_set_y
 321:..\..\..\lvgl\version_6.1.2\lvgl\src\lv_objx/lv_tabview.c ****             break;
ARM GAS  C:\Users\tmj32\AppData\Local\Temp\cc94ZBZn.s 			page 36


 1293              		.loc 4 321 0
 1294 0342 00BF     		nop
 1295              	.L45:
 322:..\..\..\lvgl\version_6.1.2\lvgl\src\lv_objx/lv_tabview.c ****     }
 323:..\..\..\lvgl\version_6.1.2\lvgl\src\lv_objx/lv_tabview.c **** 
 324:..\..\..\lvgl\version_6.1.2\lvgl\src\lv_objx/lv_tabview.c ****     /*Set the first btn as active*/
 325:..\..\..\lvgl\version_6.1.2\lvgl\src\lv_objx/lv_tabview.c ****     if(ext->tab_cnt == 1) {
 1296              		.loc 4 325 0
 1297 0344 7B6A     		ldr	r3, [r7, #36]
 1298 0346 DB8A     		ldrh	r3, [r3, #22]
 1299 0348 012B     		cmp	r3, #1
 1300 034a 02D1     		bne	.L46
 326:..\..\..\lvgl\version_6.1.2\lvgl\src\lv_objx/lv_tabview.c ****         ext->tab_cur = 0;
 1301              		.loc 4 326 0
 1302 034c 7B6A     		ldr	r3, [r7, #36]
 1303 034e 0022     		movs	r2, #0
 1304 0350 9A82     		strh	r2, [r3, #20]	@ movhi
 1305              	.L46:
 327:..\..\..\lvgl\version_6.1.2\lvgl\src\lv_objx/lv_tabview.c ****     }
 328:..\..\..\lvgl\version_6.1.2\lvgl\src\lv_objx/lv_tabview.c **** 
 329:..\..\..\lvgl\version_6.1.2\lvgl\src\lv_objx/lv_tabview.c ****     tabview_realign(tabview); /*Set the size of the pages, tab buttons and indicator*/
 1306              		.loc 4 329 0
 1307 0352 7868     		ldr	r0, [r7, #4]
 1308 0354 FFF7FEFF 		bl	tabview_realign
 330:..\..\..\lvgl\version_6.1.2\lvgl\src\lv_objx/lv_tabview.c **** 
 331:..\..\..\lvgl\version_6.1.2\lvgl\src\lv_objx/lv_tabview.c ****     lv_tabview_set_tab_act(tabview, ext->tab_cur, false);
 1309              		.loc 4 331 0
 1310 0358 7B6A     		ldr	r3, [r7, #36]
 1311 035a 9B8A     		ldrh	r3, [r3, #20]
 1312 035c 0022     		movs	r2, #0
 1313 035e 1946     		mov	r1, r3
 1314 0360 7868     		ldr	r0, [r7, #4]
 1315 0362 FFF7FEFF 		bl	lv_tabview_set_tab_act
 332:..\..\..\lvgl\version_6.1.2\lvgl\src\lv_objx/lv_tabview.c **** 
 333:..\..\..\lvgl\version_6.1.2\lvgl\src\lv_objx/lv_tabview.c ****     return h;
 1316              		.loc 4 333 0
 1317 0366 3B6A     		ldr	r3, [r7, #32]
 1318              	.L33:
 334:..\..\..\lvgl\version_6.1.2\lvgl\src\lv_objx/lv_tabview.c **** }
 1319              		.loc 4 334 0
 1320 0368 1846     		mov	r0, r3
 1321 036a 2C37     		adds	r7, r7, #44
 1322              		.cfi_def_cfa_offset 12
 1323 036c BD46     		mov	sp, r7
 1324              		.cfi_def_cfa_register 13
 1325              		@ sp needed
 1326 036e 90BD     		pop	{r4, r7, pc}
 1327              		.cfi_endproc
 1328              	.LFE70:
 1329              		.size	lv_tabview_add_tab, .-lv_tabview_add_tab
 1330              		.section	.text.lv_tabview_set_tab_act,"ax",%progbits
 1331              		.align	2
 1332              		.global	lv_tabview_set_tab_act
 1333              		.thumb
 1334              		.thumb_func
 1335              		.type	lv_tabview_set_tab_act, %function
 1336              	lv_tabview_set_tab_act:
ARM GAS  C:\Users\tmj32\AppData\Local\Temp\cc94ZBZn.s 			page 37


 1337              	.LFB71:
 335:..\..\..\lvgl\version_6.1.2\lvgl\src\lv_objx/lv_tabview.c **** 
 336:..\..\..\lvgl\version_6.1.2\lvgl\src\lv_objx/lv_tabview.c **** /*=====================
 337:..\..\..\lvgl\version_6.1.2\lvgl\src\lv_objx/lv_tabview.c ****  * Setter functions
 338:..\..\..\lvgl\version_6.1.2\lvgl\src\lv_objx/lv_tabview.c ****  *====================*/
 339:..\..\..\lvgl\version_6.1.2\lvgl\src\lv_objx/lv_tabview.c **** 
 340:..\..\..\lvgl\version_6.1.2\lvgl\src\lv_objx/lv_tabview.c **** /**
 341:..\..\..\lvgl\version_6.1.2\lvgl\src\lv_objx/lv_tabview.c ****  * Set a new tab
 342:..\..\..\lvgl\version_6.1.2\lvgl\src\lv_objx/lv_tabview.c ****  * @param tabview pointer to Tab view object
 343:..\..\..\lvgl\version_6.1.2\lvgl\src\lv_objx/lv_tabview.c ****  * @param id index of a tab to load
 344:..\..\..\lvgl\version_6.1.2\lvgl\src\lv_objx/lv_tabview.c ****  * @param anim LV_ANIM_ON: set the value with an animation; LV_ANIM_OFF: change the value immediate
 345:..\..\..\lvgl\version_6.1.2\lvgl\src\lv_objx/lv_tabview.c ****  */
 346:..\..\..\lvgl\version_6.1.2\lvgl\src\lv_objx/lv_tabview.c **** void lv_tabview_set_tab_act(lv_obj_t * tabview, uint16_t id, lv_anim_enable_t anim)
 347:..\..\..\lvgl\version_6.1.2\lvgl\src\lv_objx/lv_tabview.c **** {
 1338              		.loc 4 347 0
 1339              		.cfi_startproc
 1340              		@ args = 0, pretend = 0, frame = 72
 1341              		@ frame_needed = 1, uses_anonymous_args = 0
 1342 0000 B0B5     		push	{r4, r5, r7, lr}
 1343              		.cfi_def_cfa_offset 16
 1344              		.cfi_offset 4, -16
 1345              		.cfi_offset 5, -12
 1346              		.cfi_offset 7, -8
 1347              		.cfi_offset 14, -4
 1348 0002 92B0     		sub	sp, sp, #72
 1349              		.cfi_def_cfa_offset 88
 1350 0004 00AF     		add	r7, sp, #0
 1351              		.cfi_def_cfa_register 7
 1352 0006 7860     		str	r0, [r7, #4]
 1353 0008 0B46     		mov	r3, r1
 1354 000a 7B80     		strh	r3, [r7, #2]	@ movhi
 1355 000c 1346     		mov	r3, r2
 1356 000e 7B70     		strb	r3, [r7, #1]
 348:..\..\..\lvgl\version_6.1.2\lvgl\src\lv_objx/lv_tabview.c ****     LV_ASSERT_OBJ(tabview, LV_OBJX_NAME);
 349:..\..\..\lvgl\version_6.1.2\lvgl\src\lv_objx/lv_tabview.c **** 
 350:..\..\..\lvgl\version_6.1.2\lvgl\src\lv_objx/lv_tabview.c **** #if LV_USE_ANIMATION == 0
 351:..\..\..\lvgl\version_6.1.2\lvgl\src\lv_objx/lv_tabview.c ****     anim = LV_ANIM_OFF;
 352:..\..\..\lvgl\version_6.1.2\lvgl\src\lv_objx/lv_tabview.c **** #endif
 353:..\..\..\lvgl\version_6.1.2\lvgl\src\lv_objx/lv_tabview.c ****     lv_tabview_ext_t * ext = lv_obj_get_ext_attr(tabview);
 1357              		.loc 4 353 0
 1358 0010 7868     		ldr	r0, [r7, #4]
 1359 0012 FFF7FEFF 		bl	lv_obj_get_ext_attr
 1360 0016 3864     		str	r0, [r7, #64]
 354:..\..\..\lvgl\version_6.1.2\lvgl\src\lv_objx/lv_tabview.c **** 
 355:..\..\..\lvgl\version_6.1.2\lvgl\src\lv_objx/lv_tabview.c ****     const lv_style_t * style = lv_obj_get_style(ext->content);
 1361              		.loc 4 355 0
 1362 0018 3B6C     		ldr	r3, [r7, #64]
 1363 001a 9B68     		ldr	r3, [r3, #8]
 1364 001c 1846     		mov	r0, r3
 1365 001e FFF7FEFF 		bl	lv_obj_get_style
 1366 0022 F863     		str	r0, [r7, #60]
 356:..\..\..\lvgl\version_6.1.2\lvgl\src\lv_objx/lv_tabview.c **** 
 357:..\..\..\lvgl\version_6.1.2\lvgl\src\lv_objx/lv_tabview.c ****     if(id >= ext->tab_cnt) id = ext->tab_cnt - 1;
 1367              		.loc 4 357 0
 1368 0024 3B6C     		ldr	r3, [r7, #64]
 1369 0026 DB8A     		ldrh	r3, [r3, #22]
 1370 0028 7A88     		ldrh	r2, [r7, #2]
ARM GAS  C:\Users\tmj32\AppData\Local\Temp\cc94ZBZn.s 			page 38


 1371 002a 9A42     		cmp	r2, r3
 1372 002c 03D3     		bcc	.L54
 1373              		.loc 4 357 0 is_stmt 0 discriminator 1
 1374 002e 3B6C     		ldr	r3, [r7, #64]
 1375 0030 DB8A     		ldrh	r3, [r3, #22]
 1376 0032 013B     		subs	r3, r3, #1
 1377 0034 7B80     		strh	r3, [r7, #2]	@ movhi
 1378              	.L54:
 358:..\..\..\lvgl\version_6.1.2\lvgl\src\lv_objx/lv_tabview.c **** 
 359:..\..\..\lvgl\version_6.1.2\lvgl\src\lv_objx/lv_tabview.c ****     lv_btnm_clear_btn_ctrl(ext->btns, ext->tab_cur, LV_BTNM_CTRL_TGL_STATE);
 1379              		.loc 4 359 0 is_stmt 1
 1380 0036 3B6C     		ldr	r3, [r7, #64]
 1381 0038 1868     		ldr	r0, [r3]
 1382 003a 3B6C     		ldr	r3, [r7, #64]
 1383 003c 9B8A     		ldrh	r3, [r3, #20]
 1384 003e 8022     		movs	r2, #128
 1385 0040 1946     		mov	r1, r3
 1386 0042 FFF7FEFF 		bl	lv_btnm_clear_btn_ctrl
 360:..\..\..\lvgl\version_6.1.2\lvgl\src\lv_objx/lv_tabview.c **** 
 361:..\..\..\lvgl\version_6.1.2\lvgl\src\lv_objx/lv_tabview.c ****     ext->tab_cur = id;
 1387              		.loc 4 361 0
 1388 0046 3B6C     		ldr	r3, [r7, #64]
 1389 0048 7A88     		ldrh	r2, [r7, #2]	@ movhi
 1390 004a 9A82     		strh	r2, [r3, #20]	@ movhi
 362:..\..\..\lvgl\version_6.1.2\lvgl\src\lv_objx/lv_tabview.c **** 
 363:..\..\..\lvgl\version_6.1.2\lvgl\src\lv_objx/lv_tabview.c ****     if(lv_obj_get_base_dir(tabview) == LV_BIDI_DIR_RTL) {
 1391              		.loc 4 363 0
 1392 004c 7868     		ldr	r0, [r7, #4]
 1393 004e FFF7FEFF 		bl	lv_obj_get_base_dir
 1394 0052 0346     		mov	r3, r0
 1395 0054 012B     		cmp	r3, #1
 1396 0056 06D1     		bne	.L55
 364:..\..\..\lvgl\version_6.1.2\lvgl\src\lv_objx/lv_tabview.c ****         id = (ext->tab_cnt - (id + 1));
 1397              		.loc 4 364 0
 1398 0058 3B6C     		ldr	r3, [r7, #64]
 1399 005a DA8A     		ldrh	r2, [r3, #22]
 1400 005c 7B88     		ldrh	r3, [r7, #2]	@ movhi
 1401 005e D31A     		subs	r3, r2, r3
 1402 0060 9BB2     		uxth	r3, r3
 1403 0062 013B     		subs	r3, r3, #1
 1404 0064 7B80     		strh	r3, [r7, #2]	@ movhi
 1405              	.L55:
 365:..\..\..\lvgl\version_6.1.2\lvgl\src\lv_objx/lv_tabview.c ****     }
 366:..\..\..\lvgl\version_6.1.2\lvgl\src\lv_objx/lv_tabview.c **** 
 367:..\..\..\lvgl\version_6.1.2\lvgl\src\lv_objx/lv_tabview.c ****     lv_coord_t cont_x;
 368:..\..\..\lvgl\version_6.1.2\lvgl\src\lv_objx/lv_tabview.c **** 
 369:..\..\..\lvgl\version_6.1.2\lvgl\src\lv_objx/lv_tabview.c ****     switch(ext->btns_pos) {
 1406              		.loc 4 369 0
 1407 0066 3B6C     		ldr	r3, [r7, #64]
 1408 0068 9B7E     		ldrb	r3, [r3, #26]
 1409 006a C3F34113 		ubfx	r3, r3, #5, #2
 1410 006e DBB2     		uxtb	r3, r3
 1411 0070 022B     		cmp	r3, #2
 1412 0072 1AD0     		beq	.L57
 1413 0074 032B     		cmp	r3, #3
 1414 0076 3FD0     		beq	.L58
 370:..\..\..\lvgl\version_6.1.2\lvgl\src\lv_objx/lv_tabview.c ****         case LV_TABVIEW_BTNS_POS_TOP:
ARM GAS  C:\Users\tmj32\AppData\Local\Temp\cc94ZBZn.s 			page 39


 371:..\..\..\lvgl\version_6.1.2\lvgl\src\lv_objx/lv_tabview.c ****         case LV_TABVIEW_BTNS_POS_BOTTOM:
 372:..\..\..\lvgl\version_6.1.2\lvgl\src\lv_objx/lv_tabview.c ****             cont_x = -(lv_obj_get_width(tabview) * id + style->body.padding.inner * id + style->bod
 1415              		.loc 4 372 0
 1416 0078 7868     		ldr	r0, [r7, #4]
 1417 007a FFF7FEFF 		bl	lv_obj_get_width
 1418 007e 0346     		mov	r3, r0
 1419 0080 1A46     		mov	r2, r3
 1420 0082 FB6B     		ldr	r3, [r7, #60]
 1421 0084 B3F92830 		ldrsh	r3, [r3, #40]
 1422 0088 1344     		add	r3, r3, r2
 1423 008a 9BB2     		uxth	r3, r3
 1424 008c 7A88     		ldrh	r2, [r7, #2]	@ movhi
 1425 008e 12FB03F3 		smulbb	r3, r2, r3
 1426 0092 9AB2     		uxth	r2, r3
 1427 0094 FB6B     		ldr	r3, [r7, #60]
 1428 0096 B3F92430 		ldrsh	r3, [r3, #36]
 1429 009a 9BB2     		uxth	r3, r3
 1430 009c 1344     		add	r3, r3, r2
 1431 009e 9BB2     		uxth	r3, r3
 1432 00a0 5B42     		negs	r3, r3
 1433 00a2 9BB2     		uxth	r3, r3
 1434 00a4 A7F84630 		strh	r3, [r7, #70]	@ movhi
 373:..\..\..\lvgl\version_6.1.2\lvgl\src\lv_objx/lv_tabview.c ****             break;
 1435              		.loc 4 373 0
 1436 00a8 46E0     		b	.L59
 1437              	.L57:
 374:..\..\..\lvgl\version_6.1.2\lvgl\src\lv_objx/lv_tabview.c ****         case LV_TABVIEW_BTNS_POS_LEFT:
 375:..\..\..\lvgl\version_6.1.2\lvgl\src\lv_objx/lv_tabview.c ****             cont_x = -((lv_obj_get_width(tabview) - lv_obj_get_width(ext->btns)) * id + style->body
 376:..\..\..\lvgl\version_6.1.2\lvgl\src\lv_objx/lv_tabview.c ****                        style->body.padding.left) +
 377:..\..\..\lvgl\version_6.1.2\lvgl\src\lv_objx/lv_tabview.c ****                      lv_obj_get_width(ext->btns);
 1438              		.loc 4 377 0
 1439 00aa 3B6C     		ldr	r3, [r7, #64]
 1440 00ac 1B68     		ldr	r3, [r3]
 1441 00ae 1846     		mov	r0, r3
 1442 00b0 FFF7FEFF 		bl	lv_obj_get_width
 1443 00b4 0346     		mov	r3, r0
 375:..\..\..\lvgl\version_6.1.2\lvgl\src\lv_objx/lv_tabview.c ****                        style->body.padding.left) +
 1444              		.loc 4 375 0
 1445 00b6 9CB2     		uxth	r4, r3
 1446 00b8 7868     		ldr	r0, [r7, #4]
 1447 00ba FFF7FEFF 		bl	lv_obj_get_width
 1448 00be 0346     		mov	r3, r0
 1449 00c0 1D46     		mov	r5, r3
 1450 00c2 3B6C     		ldr	r3, [r7, #64]
 1451 00c4 1B68     		ldr	r3, [r3]
 1452 00c6 1846     		mov	r0, r3
 1453 00c8 FFF7FEFF 		bl	lv_obj_get_width
 1454 00cc 0346     		mov	r3, r0
 1455 00ce EB1A     		subs	r3, r5, r3
 1456 00d0 FA6B     		ldr	r2, [r7, #60]
 1457 00d2 B2F92820 		ldrsh	r2, [r2, #40]
 1458 00d6 1344     		add	r3, r3, r2
 1459 00d8 9BB2     		uxth	r3, r3
 1460 00da 7A88     		ldrh	r2, [r7, #2]	@ movhi
 1461 00dc 12FB03F3 		smulbb	r3, r2, r3
 1462 00e0 9AB2     		uxth	r2, r3
 376:..\..\..\lvgl\version_6.1.2\lvgl\src\lv_objx/lv_tabview.c ****                      lv_obj_get_width(ext->btns);
ARM GAS  C:\Users\tmj32\AppData\Local\Temp\cc94ZBZn.s 			page 40


 1463              		.loc 4 376 0
 1464 00e2 FB6B     		ldr	r3, [r7, #60]
 1465 00e4 B3F92430 		ldrsh	r3, [r3, #36]
 375:..\..\..\lvgl\version_6.1.2\lvgl\src\lv_objx/lv_tabview.c ****                        style->body.padding.left) +
 1466              		.loc 4 375 0
 1467 00e8 9BB2     		uxth	r3, r3
 1468 00ea 1344     		add	r3, r3, r2
 1469 00ec 9BB2     		uxth	r3, r3
 1470 00ee E31A     		subs	r3, r4, r3
 1471 00f0 9BB2     		uxth	r3, r3
 1472 00f2 A7F84630 		strh	r3, [r7, #70]	@ movhi
 378:..\..\..\lvgl\version_6.1.2\lvgl\src\lv_objx/lv_tabview.c ****             break;
 1473              		.loc 4 378 0
 1474 00f6 1FE0     		b	.L59
 1475              	.L58:
 379:..\..\..\lvgl\version_6.1.2\lvgl\src\lv_objx/lv_tabview.c ****         case LV_TABVIEW_BTNS_POS_RIGHT:
 380:..\..\..\lvgl\version_6.1.2\lvgl\src\lv_objx/lv_tabview.c ****             cont_x = -((lv_obj_get_width(tabview) - lv_obj_get_width(ext->btns)) * id + style->body
 1476              		.loc 4 380 0
 1477 00f8 7868     		ldr	r0, [r7, #4]
 1478 00fa FFF7FEFF 		bl	lv_obj_get_width
 1479 00fe 0346     		mov	r3, r0
 1480 0100 1C46     		mov	r4, r3
 1481 0102 3B6C     		ldr	r3, [r7, #64]
 1482 0104 1B68     		ldr	r3, [r3]
 1483 0106 1846     		mov	r0, r3
 1484 0108 FFF7FEFF 		bl	lv_obj_get_width
 1485 010c 0346     		mov	r3, r0
 1486 010e E31A     		subs	r3, r4, r3
 1487 0110 FA6B     		ldr	r2, [r7, #60]
 1488 0112 B2F92820 		ldrsh	r2, [r2, #40]
 1489 0116 1344     		add	r3, r3, r2
 1490 0118 9BB2     		uxth	r3, r3
 1491 011a 7A88     		ldrh	r2, [r7, #2]	@ movhi
 1492 011c 12FB03F3 		smulbb	r3, r2, r3
 1493 0120 9AB2     		uxth	r2, r3
 381:..\..\..\lvgl\version_6.1.2\lvgl\src\lv_objx/lv_tabview.c ****                        style->body.padding.left);
 1494              		.loc 4 381 0
 1495 0122 FB6B     		ldr	r3, [r7, #60]
 1496 0124 B3F92430 		ldrsh	r3, [r3, #36]
 380:..\..\..\lvgl\version_6.1.2\lvgl\src\lv_objx/lv_tabview.c ****                        style->body.padding.left);
 1497              		.loc 4 380 0
 1498 0128 9BB2     		uxth	r3, r3
 1499 012a 1344     		add	r3, r3, r2
 1500 012c 9BB2     		uxth	r3, r3
 1501 012e 5B42     		negs	r3, r3
 1502 0130 9BB2     		uxth	r3, r3
 1503 0132 A7F84630 		strh	r3, [r7, #70]	@ movhi
 382:..\..\..\lvgl\version_6.1.2\lvgl\src\lv_objx/lv_tabview.c ****             break;
 1504              		.loc 4 382 0
 1505 0136 00BF     		nop
 1506              	.L59:
 383:..\..\..\lvgl\version_6.1.2\lvgl\src\lv_objx/lv_tabview.c ****     }
 384:..\..\..\lvgl\version_6.1.2\lvgl\src\lv_objx/lv_tabview.c **** 
 385:..\..\..\lvgl\version_6.1.2\lvgl\src\lv_objx/lv_tabview.c ****     if(anim == LV_ANIM_OFF || lv_tabview_get_anim_time(tabview) == 0) {
 1507              		.loc 4 385 0
 1508 0138 7B78     		ldrb	r3, [r7, #1]	@ zero_extendqisi2
 1509 013a 002B     		cmp	r3, #0
ARM GAS  C:\Users\tmj32\AppData\Local\Temp\cc94ZBZn.s 			page 41


 1510 013c 05D0     		beq	.L60
 1511              		.loc 4 385 0 is_stmt 0 discriminator 1
 1512 013e 7868     		ldr	r0, [r7, #4]
 1513 0140 FFF7FEFF 		bl	lv_tabview_get_anim_time
 1514 0144 0346     		mov	r3, r0
 1515 0146 002B     		cmp	r3, #0
 1516 0148 08D1     		bne	.L61
 1517              	.L60:
 386:..\..\..\lvgl\version_6.1.2\lvgl\src\lv_objx/lv_tabview.c ****         lv_obj_set_x(ext->content, cont_x);
 1518              		.loc 4 386 0 is_stmt 1
 1519 014a 3B6C     		ldr	r3, [r7, #64]
 1520 014c 9B68     		ldr	r3, [r3, #8]
 1521 014e B7F94620 		ldrsh	r2, [r7, #70]
 1522 0152 1146     		mov	r1, r2
 1523 0154 1846     		mov	r0, r3
 1524 0156 FFF7FEFF 		bl	lv_obj_set_x
 1525 015a 2CE0     		b	.L62
 1526              	.L61:
 1527              	.LBB4:
 387:..\..\..\lvgl\version_6.1.2\lvgl\src\lv_objx/lv_tabview.c ****     }
 388:..\..\..\lvgl\version_6.1.2\lvgl\src\lv_objx/lv_tabview.c **** #if LV_USE_ANIMATION
 389:..\..\..\lvgl\version_6.1.2\lvgl\src\lv_objx/lv_tabview.c ****     else {
 390:..\..\..\lvgl\version_6.1.2\lvgl\src\lv_objx/lv_tabview.c ****         lv_anim_t a;
 391:..\..\..\lvgl\version_6.1.2\lvgl\src\lv_objx/lv_tabview.c ****         a.var            = ext->content;
 1528              		.loc 4 391 0
 1529 015c 3B6C     		ldr	r3, [r7, #64]
 1530 015e 9B68     		ldr	r3, [r3, #8]
 1531 0160 BB60     		str	r3, [r7, #8]
 392:..\..\..\lvgl\version_6.1.2\lvgl\src\lv_objx/lv_tabview.c ****         a.start          = lv_obj_get_x(ext->content);
 1532              		.loc 4 392 0
 1533 0162 3B6C     		ldr	r3, [r7, #64]
 1534 0164 9B68     		ldr	r3, [r3, #8]
 1535 0166 1846     		mov	r0, r3
 1536 0168 FFF7FEFF 		bl	lv_obj_get_x
 1537 016c 0346     		mov	r3, r0
 1538 016e BB61     		str	r3, [r7, #24]
 393:..\..\..\lvgl\version_6.1.2\lvgl\src\lv_objx/lv_tabview.c ****         a.end            = cont_x;
 1539              		.loc 4 393 0
 1540 0170 B7F94630 		ldrsh	r3, [r7, #70]
 1541 0174 FB61     		str	r3, [r7, #28]
 394:..\..\..\lvgl\version_6.1.2\lvgl\src\lv_objx/lv_tabview.c ****         a.exec_cb        = (lv_anim_exec_xcb_t)lv_obj_set_x;
 1542              		.loc 4 394 0
 1543 0176 774B     		ldr	r3, .L81
 1544 0178 FB60     		str	r3, [r7, #12]
 395:..\..\..\lvgl\version_6.1.2\lvgl\src\lv_objx/lv_tabview.c ****         a.path_cb        = lv_anim_path_linear;
 1545              		.loc 4 395 0
 1546 017a 774B     		ldr	r3, .L81+4
 1547 017c 3B61     		str	r3, [r7, #16]
 396:..\..\..\lvgl\version_6.1.2\lvgl\src\lv_objx/lv_tabview.c ****         a.ready_cb       = NULL;
 1548              		.loc 4 396 0
 1549 017e 0023     		movs	r3, #0
 1550 0180 7B61     		str	r3, [r7, #20]
 397:..\..\..\lvgl\version_6.1.2\lvgl\src\lv_objx/lv_tabview.c ****         a.act_time       = 0;
 1551              		.loc 4 397 0
 1552 0182 0023     		movs	r3, #0
 1553 0184 7B84     		strh	r3, [r7, #34]	@ movhi
 398:..\..\..\lvgl\version_6.1.2\lvgl\src\lv_objx/lv_tabview.c ****         a.time           = ext->anim_time;
ARM GAS  C:\Users\tmj32\AppData\Local\Temp\cc94ZBZn.s 			page 42


 1554              		.loc 4 398 0
 1555 0186 3B6C     		ldr	r3, [r7, #64]
 1556 0188 1B8B     		ldrh	r3, [r3, #24]
 1557 018a 3B84     		strh	r3, [r7, #32]	@ movhi
 399:..\..\..\lvgl\version_6.1.2\lvgl\src\lv_objx/lv_tabview.c ****         a.playback       = 0;
 1558              		.loc 4 399 0
 1559 018c 97F82830 		ldrb	r3, [r7, #40]
 1560 0190 6FF30003 		bfc	r3, #0, #1
 1561 0194 87F82830 		strb	r3, [r7, #40]
 400:..\..\..\lvgl\version_6.1.2\lvgl\src\lv_objx/lv_tabview.c ****         a.playback_pause = 0;
 1562              		.loc 4 400 0
 1563 0198 0023     		movs	r3, #0
 1564 019a BB84     		strh	r3, [r7, #36]	@ movhi
 401:..\..\..\lvgl\version_6.1.2\lvgl\src\lv_objx/lv_tabview.c ****         a.repeat         = 0;
 1565              		.loc 4 401 0
 1566 019c 97F82830 		ldrb	r3, [r7, #40]
 1567 01a0 6FF34103 		bfc	r3, #1, #1
 1568 01a4 87F82830 		strb	r3, [r7, #40]
 402:..\..\..\lvgl\version_6.1.2\lvgl\src\lv_objx/lv_tabview.c ****         a.repeat_pause   = 0;
 1569              		.loc 4 402 0
 1570 01a8 0023     		movs	r3, #0
 1571 01aa FB84     		strh	r3, [r7, #38]	@ movhi
 403:..\..\..\lvgl\version_6.1.2\lvgl\src\lv_objx/lv_tabview.c ****         lv_anim_create(&a);
 1572              		.loc 4 403 0
 1573 01ac 07F10803 		add	r3, r7, #8
 1574 01b0 1846     		mov	r0, r3
 1575 01b2 FFF7FEFF 		bl	lv_anim_create
 1576              	.L62:
 1577              	.LBE4:
 404:..\..\..\lvgl\version_6.1.2\lvgl\src\lv_objx/lv_tabview.c ****     }
 405:..\..\..\lvgl\version_6.1.2\lvgl\src\lv_objx/lv_tabview.c **** #endif
 406:..\..\..\lvgl\version_6.1.2\lvgl\src\lv_objx/lv_tabview.c **** 
 407:..\..\..\lvgl\version_6.1.2\lvgl\src\lv_objx/lv_tabview.c ****     /*Move the indicator*/
 408:..\..\..\lvgl\version_6.1.2\lvgl\src\lv_objx/lv_tabview.c ****     const lv_style_t * tabs_style = lv_obj_get_style(ext->btns);
 1578              		.loc 4 408 0
 1579 01b6 3B6C     		ldr	r3, [r7, #64]
 1580 01b8 1B68     		ldr	r3, [r3]
 1581 01ba 1846     		mov	r0, r3
 1582 01bc FFF7FEFF 		bl	lv_obj_get_style
 1583 01c0 B863     		str	r0, [r7, #56]
 409:..\..\..\lvgl\version_6.1.2\lvgl\src\lv_objx/lv_tabview.c ****     lv_coord_t indic_size;
 410:..\..\..\lvgl\version_6.1.2\lvgl\src\lv_objx/lv_tabview.c ****     lv_coord_t indic_pos;
 411:..\..\..\lvgl\version_6.1.2\lvgl\src\lv_objx/lv_tabview.c **** 
 412:..\..\..\lvgl\version_6.1.2\lvgl\src\lv_objx/lv_tabview.c ****     switch(ext->btns_pos) {
 1584              		.loc 4 412 0
 1585 01c2 3B6C     		ldr	r3, [r7, #64]
 1586 01c4 9B7E     		ldrb	r3, [r3, #26]
 1587 01c6 C3F34113 		ubfx	r3, r3, #5, #2
 1588 01ca DBB2     		uxtb	r3, r3
 1589 01cc 023B     		subs	r3, r3, #2
 1590 01ce 012B     		cmp	r3, #1
 1591 01d0 1AD9     		bls	.L77
 1592              	.LBB5:
 413:..\..\..\lvgl\version_6.1.2\lvgl\src\lv_objx/lv_tabview.c ****         case LV_TABVIEW_BTNS_POS_TOP:
 414:..\..\..\lvgl\version_6.1.2\lvgl\src\lv_objx/lv_tabview.c ****         case LV_TABVIEW_BTNS_POS_BOTTOM:
 415:..\..\..\lvgl\version_6.1.2\lvgl\src\lv_objx/lv_tabview.c ****             indic_size = lv_obj_get_width(ext->indic);
 1593              		.loc 4 415 0
ARM GAS  C:\Users\tmj32\AppData\Local\Temp\cc94ZBZn.s 			page 43


 1594 01d2 3B6C     		ldr	r3, [r7, #64]
 1595 01d4 5B68     		ldr	r3, [r3, #4]
 1596 01d6 1846     		mov	r0, r3
 1597 01d8 FFF7FEFF 		bl	lv_obj_get_width
 1598 01dc 0346     		mov	r3, r0
 1599 01de FB86     		strh	r3, [r7, #54]	@ movhi
 416:..\..\..\lvgl\version_6.1.2\lvgl\src\lv_objx/lv_tabview.c ****             indic_pos  = indic_size * id + tabs_style->body.padding.inner * id + tabs_style->body.p
 1600              		.loc 4 416 0
 1601 01e0 B7F93630 		ldrsh	r3, [r7, #54]
 1602 01e4 BA6B     		ldr	r2, [r7, #56]
 1603 01e6 B2F92820 		ldrsh	r2, [r2, #40]
 1604 01ea 1344     		add	r3, r3, r2
 1605 01ec 9BB2     		uxth	r3, r3
 1606 01ee 7A88     		ldrh	r2, [r7, #2]	@ movhi
 1607 01f0 12FB03F3 		smulbb	r3, r2, r3
 1608 01f4 9AB2     		uxth	r2, r3
 1609 01f6 BB6B     		ldr	r3, [r7, #56]
 1610 01f8 B3F92430 		ldrsh	r3, [r3, #36]
 1611 01fc 9BB2     		uxth	r3, r3
 1612 01fe 1344     		add	r3, r3, r2
 1613 0200 9BB2     		uxth	r3, r3
 1614 0202 A7F84430 		strh	r3, [r7, #68]	@ movhi
 417:..\..\..\lvgl\version_6.1.2\lvgl\src\lv_objx/lv_tabview.c ****             break;
 1615              		.loc 4 417 0
 1616 0206 34E0     		b	.L65
 1617              	.L77:
 418:..\..\..\lvgl\version_6.1.2\lvgl\src\lv_objx/lv_tabview.c ****         case LV_TABVIEW_BTNS_POS_LEFT:
 419:..\..\..\lvgl\version_6.1.2\lvgl\src\lv_objx/lv_tabview.c ****         case LV_TABVIEW_BTNS_POS_RIGHT:
 420:..\..\..\lvgl\version_6.1.2\lvgl\src\lv_objx/lv_tabview.c ****             indic_size = lv_obj_get_height(ext->indic);
 1618              		.loc 4 420 0
 1619 0208 3B6C     		ldr	r3, [r7, #64]
 1620 020a 5B68     		ldr	r3, [r3, #4]
 1621 020c 1846     		mov	r0, r3
 1622 020e FFF7FEFF 		bl	lv_obj_get_height
 1623 0212 0346     		mov	r3, r0
 1624 0214 FB86     		strh	r3, [r7, #54]	@ movhi
 421:..\..\..\lvgl\version_6.1.2\lvgl\src\lv_objx/lv_tabview.c ****             const lv_style_t * style_tabs = lv_tabview_get_style(tabview, LV_TABVIEW_STYLE_BTN_BG);
 1625              		.loc 4 421 0
 1626 0216 0221     		movs	r1, #2
 1627 0218 7868     		ldr	r0, [r7, #4]
 1628 021a FFF7FEFF 		bl	lv_tabview_get_style
 1629 021e 3863     		str	r0, [r7, #48]
 422:..\..\..\lvgl\version_6.1.2\lvgl\src\lv_objx/lv_tabview.c ****             lv_coord_t max_h = lv_obj_get_height(ext->btns) - style_tabs->body.padding.top - style_
 1630              		.loc 4 422 0
 1631 0220 3B6C     		ldr	r3, [r7, #64]
 1632 0222 1B68     		ldr	r3, [r3]
 1633 0224 1846     		mov	r0, r3
 1634 0226 FFF7FEFF 		bl	lv_obj_get_height
 1635 022a 0346     		mov	r3, r0
 1636 022c 9AB2     		uxth	r2, r3
 1637 022e 3B6B     		ldr	r3, [r7, #48]
 1638 0230 B3F92030 		ldrsh	r3, [r3, #32]
 1639 0234 9BB2     		uxth	r3, r3
 1640 0236 D31A     		subs	r3, r2, r3
 1641 0238 9AB2     		uxth	r2, r3
 1642 023a 3B6B     		ldr	r3, [r7, #48]
 1643 023c B3F92230 		ldrsh	r3, [r3, #34]
ARM GAS  C:\Users\tmj32\AppData\Local\Temp\cc94ZBZn.s 			page 44


 1644 0240 9BB2     		uxth	r3, r3
 1645 0242 D31A     		subs	r3, r2, r3
 1646 0244 9BB2     		uxth	r3, r3
 1647 0246 FB85     		strh	r3, [r7, #46]	@ movhi
 423:..\..\..\lvgl\version_6.1.2\lvgl\src\lv_objx/lv_tabview.c **** 
 424:..\..\..\lvgl\version_6.1.2\lvgl\src\lv_objx/lv_tabview.c ****             if(ext->tab_cnt) indic_pos = (max_h * ext->tab_cur) / ext->tab_cnt;
 1648              		.loc 4 424 0
 1649 0248 3B6C     		ldr	r3, [r7, #64]
 1650 024a DB8A     		ldrh	r3, [r3, #22]
 1651 024c 002B     		cmp	r3, #0
 1652 024e 0CD0     		beq	.L66
 1653              		.loc 4 424 0 is_stmt 0 discriminator 1
 1654 0250 B7F92E30 		ldrsh	r3, [r7, #46]
 1655 0254 3A6C     		ldr	r2, [r7, #64]
 1656 0256 928A     		ldrh	r2, [r2, #20]
 1657 0258 02FB03F3 		mul	r3, r2, r3
 1658 025c 3A6C     		ldr	r2, [r7, #64]
 1659 025e D28A     		ldrh	r2, [r2, #22]
 1660 0260 93FBF2F3 		sdiv	r3, r3, r2
 1661 0264 A7F84430 		strh	r3, [r7, #68]	@ movhi
 425:..\..\..\lvgl\version_6.1.2\lvgl\src\lv_objx/lv_tabview.c ****             else  indic_pos = 0;
 426:..\..\..\lvgl\version_6.1.2\lvgl\src\lv_objx/lv_tabview.c ****             break;
 1662              		.loc 4 426 0 is_stmt 1 discriminator 1
 1663 0268 02E0     		b	.L80
 1664              	.L66:
 425:..\..\..\lvgl\version_6.1.2\lvgl\src\lv_objx/lv_tabview.c ****             else  indic_pos = 0;
 1665              		.loc 4 425 0
 1666 026a 0023     		movs	r3, #0
 1667 026c A7F84430 		strh	r3, [r7, #68]	@ movhi
 1668              	.L80:
 1669              		.loc 4 426 0
 1670 0270 00BF     		nop
 1671              	.L65:
 1672              	.LBE5:
 427:..\..\..\lvgl\version_6.1.2\lvgl\src\lv_objx/lv_tabview.c ****     }
 428:..\..\..\lvgl\version_6.1.2\lvgl\src\lv_objx/lv_tabview.c **** 
 429:..\..\..\lvgl\version_6.1.2\lvgl\src\lv_objx/lv_tabview.c **** #if LV_USE_ANIMATION
 430:..\..\..\lvgl\version_6.1.2\lvgl\src\lv_objx/lv_tabview.c ****     if(anim == LV_ANIM_OFF || ext->anim_time == 0)
 1673              		.loc 4 430 0
 1674 0272 7B78     		ldrb	r3, [r7, #1]	@ zero_extendqisi2
 1675 0274 002B     		cmp	r3, #0
 1676 0276 03D0     		beq	.L68
 1677              		.loc 4 430 0 is_stmt 0 discriminator 1
 1678 0278 3B6C     		ldr	r3, [r7, #64]
 1679 027a 1B8B     		ldrh	r3, [r3, #24]
 1680 027c 002B     		cmp	r3, #0
 1681 027e 1AD1     		bne	.L69
 1682              	.L68:
 431:..\..\..\lvgl\version_6.1.2\lvgl\src\lv_objx/lv_tabview.c **** #endif
 432:..\..\..\lvgl\version_6.1.2\lvgl\src\lv_objx/lv_tabview.c ****     {
 433:..\..\..\lvgl\version_6.1.2\lvgl\src\lv_objx/lv_tabview.c ****         switch(ext->btns_pos) {
 1683              		.loc 4 433 0 is_stmt 1
 1684 0280 3B6C     		ldr	r3, [r7, #64]
 1685 0282 9B7E     		ldrb	r3, [r3, #26]
 1686 0284 C3F34113 		ubfx	r3, r3, #5, #2
 1687 0288 DBB2     		uxtb	r3, r3
 1688 028a 023B     		subs	r3, r3, #2
ARM GAS  C:\Users\tmj32\AppData\Local\Temp\cc94ZBZn.s 			page 45


 1689 028c 012B     		cmp	r3, #1
 1690 028e 08D9     		bls	.L78
 434:..\..\..\lvgl\version_6.1.2\lvgl\src\lv_objx/lv_tabview.c ****             case LV_TABVIEW_BTNS_POS_TOP:
 435:..\..\..\lvgl\version_6.1.2\lvgl\src\lv_objx/lv_tabview.c ****             case LV_TABVIEW_BTNS_POS_BOTTOM: lv_obj_set_x(ext->indic, indic_pos); break;
 1691              		.loc 4 435 0
 1692 0290 3B6C     		ldr	r3, [r7, #64]
 1693 0292 5B68     		ldr	r3, [r3, #4]
 1694 0294 B7F94420 		ldrsh	r2, [r7, #68]
 1695 0298 1146     		mov	r1, r2
 1696 029a 1846     		mov	r0, r3
 1697 029c FFF7FEFF 		bl	lv_obj_set_x
 1698 02a0 08E0     		b	.L72
 1699              	.L78:
 436:..\..\..\lvgl\version_6.1.2\lvgl\src\lv_objx/lv_tabview.c ****             case LV_TABVIEW_BTNS_POS_LEFT:
 437:..\..\..\lvgl\version_6.1.2\lvgl\src\lv_objx/lv_tabview.c ****             case LV_TABVIEW_BTNS_POS_RIGHT: lv_obj_set_y(ext->indic, indic_pos); break;
 1700              		.loc 4 437 0
 1701 02a2 3B6C     		ldr	r3, [r7, #64]
 1702 02a4 5B68     		ldr	r3, [r3, #4]
 1703 02a6 B7F94420 		ldrsh	r2, [r7, #68]
 1704 02aa 1146     		mov	r1, r2
 1705 02ac 1846     		mov	r0, r3
 1706 02ae FFF7FEFF 		bl	lv_obj_set_y
 1707 02b2 00BF     		nop
 1708              	.L72:
 438:..\..\..\lvgl\version_6.1.2\lvgl\src\lv_objx/lv_tabview.c ****         }
 439:..\..\..\lvgl\version_6.1.2\lvgl\src\lv_objx/lv_tabview.c ****     }
 1709              		.loc 4 439 0
 1710 02b4 42E0     		b	.L73
 1711              	.L69:
 1712              	.LBB6:
 440:..\..\..\lvgl\version_6.1.2\lvgl\src\lv_objx/lv_tabview.c **** #if LV_USE_ANIMATION
 441:..\..\..\lvgl\version_6.1.2\lvgl\src\lv_objx/lv_tabview.c ****     else {
 442:..\..\..\lvgl\version_6.1.2\lvgl\src\lv_objx/lv_tabview.c ****         lv_anim_t a;
 443:..\..\..\lvgl\version_6.1.2\lvgl\src\lv_objx/lv_tabview.c ****         a.var = ext->indic;
 1713              		.loc 4 443 0
 1714 02b6 3B6C     		ldr	r3, [r7, #64]
 1715 02b8 5B68     		ldr	r3, [r3, #4]
 1716 02ba BB60     		str	r3, [r7, #8]
 444:..\..\..\lvgl\version_6.1.2\lvgl\src\lv_objx/lv_tabview.c **** 
 445:..\..\..\lvgl\version_6.1.2\lvgl\src\lv_objx/lv_tabview.c ****         switch(ext->btns_pos) {
 1717              		.loc 4 445 0
 1718 02bc 3B6C     		ldr	r3, [r7, #64]
 1719 02be 9B7E     		ldrb	r3, [r3, #26]
 1720 02c0 C3F34113 		ubfx	r3, r3, #5, #2
 1721 02c4 DBB2     		uxtb	r3, r3
 1722 02c6 023B     		subs	r3, r3, #2
 1723 02c8 012B     		cmp	r3, #1
 1724 02ca 0CD9     		bls	.L79
 446:..\..\..\lvgl\version_6.1.2\lvgl\src\lv_objx/lv_tabview.c ****             case LV_TABVIEW_BTNS_POS_TOP:
 447:..\..\..\lvgl\version_6.1.2\lvgl\src\lv_objx/lv_tabview.c ****             case LV_TABVIEW_BTNS_POS_BOTTOM:
 448:..\..\..\lvgl\version_6.1.2\lvgl\src\lv_objx/lv_tabview.c ****                 a.start   = lv_obj_get_x(ext->indic);
 1725              		.loc 4 448 0
 1726 02cc 3B6C     		ldr	r3, [r7, #64]
 1727 02ce 5B68     		ldr	r3, [r3, #4]
 1728 02d0 1846     		mov	r0, r3
 1729 02d2 FFF7FEFF 		bl	lv_obj_get_x
 1730 02d6 0346     		mov	r3, r0
ARM GAS  C:\Users\tmj32\AppData\Local\Temp\cc94ZBZn.s 			page 46


 1731 02d8 BB61     		str	r3, [r7, #24]
 449:..\..\..\lvgl\version_6.1.2\lvgl\src\lv_objx/lv_tabview.c ****                 a.end     = indic_pos;
 1732              		.loc 4 449 0
 1733 02da B7F94430 		ldrsh	r3, [r7, #68]
 1734 02de FB61     		str	r3, [r7, #28]
 450:..\..\..\lvgl\version_6.1.2\lvgl\src\lv_objx/lv_tabview.c ****                 a.exec_cb = (lv_anim_exec_xcb_t)lv_obj_set_x;
 1735              		.loc 4 450 0
 1736 02e0 1C4B     		ldr	r3, .L81
 1737 02e2 FB60     		str	r3, [r7, #12]
 451:..\..\..\lvgl\version_6.1.2\lvgl\src\lv_objx/lv_tabview.c ****                 break;
 1738              		.loc 4 451 0
 1739 02e4 0CE0     		b	.L76
 1740              	.L79:
 452:..\..\..\lvgl\version_6.1.2\lvgl\src\lv_objx/lv_tabview.c ****             case LV_TABVIEW_BTNS_POS_LEFT:
 453:..\..\..\lvgl\version_6.1.2\lvgl\src\lv_objx/lv_tabview.c ****             case LV_TABVIEW_BTNS_POS_RIGHT:
 454:..\..\..\lvgl\version_6.1.2\lvgl\src\lv_objx/lv_tabview.c ****                 a.start   = lv_obj_get_y(ext->indic);
 1741              		.loc 4 454 0
 1742 02e6 3B6C     		ldr	r3, [r7, #64]
 1743 02e8 5B68     		ldr	r3, [r3, #4]
 1744 02ea 1846     		mov	r0, r3
 1745 02ec FFF7FEFF 		bl	lv_obj_get_y
 1746 02f0 0346     		mov	r3, r0
 1747 02f2 BB61     		str	r3, [r7, #24]
 455:..\..\..\lvgl\version_6.1.2\lvgl\src\lv_objx/lv_tabview.c ****                 a.end     = indic_pos;
 1748              		.loc 4 455 0
 1749 02f4 B7F94430 		ldrsh	r3, [r7, #68]
 1750 02f8 FB61     		str	r3, [r7, #28]
 456:..\..\..\lvgl\version_6.1.2\lvgl\src\lv_objx/lv_tabview.c ****                 a.exec_cb = (lv_anim_exec_xcb_t)lv_obj_set_y;
 1751              		.loc 4 456 0
 1752 02fa 184B     		ldr	r3, .L81+8
 1753 02fc FB60     		str	r3, [r7, #12]
 457:..\..\..\lvgl\version_6.1.2\lvgl\src\lv_objx/lv_tabview.c ****                 break;
 1754              		.loc 4 457 0
 1755 02fe 00BF     		nop
 1756              	.L76:
 458:..\..\..\lvgl\version_6.1.2\lvgl\src\lv_objx/lv_tabview.c ****         }
 459:..\..\..\lvgl\version_6.1.2\lvgl\src\lv_objx/lv_tabview.c **** 
 460:..\..\..\lvgl\version_6.1.2\lvgl\src\lv_objx/lv_tabview.c ****         a.path_cb        = lv_anim_path_linear;
 1757              		.loc 4 460 0
 1758 0300 154B     		ldr	r3, .L81+4
 1759 0302 3B61     		str	r3, [r7, #16]
 461:..\..\..\lvgl\version_6.1.2\lvgl\src\lv_objx/lv_tabview.c ****         a.ready_cb       = NULL;
 1760              		.loc 4 461 0
 1761 0304 0023     		movs	r3, #0
 1762 0306 7B61     		str	r3, [r7, #20]
 462:..\..\..\lvgl\version_6.1.2\lvgl\src\lv_objx/lv_tabview.c ****         a.act_time       = 0;
 1763              		.loc 4 462 0
 1764 0308 0023     		movs	r3, #0
 1765 030a 7B84     		strh	r3, [r7, #34]	@ movhi
 463:..\..\..\lvgl\version_6.1.2\lvgl\src\lv_objx/lv_tabview.c ****         a.time           = ext->anim_time;
 1766              		.loc 4 463 0
 1767 030c 3B6C     		ldr	r3, [r7, #64]
 1768 030e 1B8B     		ldrh	r3, [r3, #24]
 1769 0310 3B84     		strh	r3, [r7, #32]	@ movhi
 464:..\..\..\lvgl\version_6.1.2\lvgl\src\lv_objx/lv_tabview.c ****         a.playback       = 0;
 1770              		.loc 4 464 0
 1771 0312 97F82830 		ldrb	r3, [r7, #40]
ARM GAS  C:\Users\tmj32\AppData\Local\Temp\cc94ZBZn.s 			page 47


 1772 0316 6FF30003 		bfc	r3, #0, #1
 1773 031a 87F82830 		strb	r3, [r7, #40]
 465:..\..\..\lvgl\version_6.1.2\lvgl\src\lv_objx/lv_tabview.c ****         a.playback_pause = 0;
 1774              		.loc 4 465 0
 1775 031e 0023     		movs	r3, #0
 1776 0320 BB84     		strh	r3, [r7, #36]	@ movhi
 466:..\..\..\lvgl\version_6.1.2\lvgl\src\lv_objx/lv_tabview.c ****         a.repeat         = 0;
 1777              		.loc 4 466 0
 1778 0322 97F82830 		ldrb	r3, [r7, #40]
 1779 0326 6FF34103 		bfc	r3, #1, #1
 1780 032a 87F82830 		strb	r3, [r7, #40]
 467:..\..\..\lvgl\version_6.1.2\lvgl\src\lv_objx/lv_tabview.c ****         a.repeat_pause   = 0;
 1781              		.loc 4 467 0
 1782 032e 0023     		movs	r3, #0
 1783 0330 FB84     		strh	r3, [r7, #38]	@ movhi
 468:..\..\..\lvgl\version_6.1.2\lvgl\src\lv_objx/lv_tabview.c ****         lv_anim_create(&a);
 1784              		.loc 4 468 0
 1785 0332 07F10803 		add	r3, r7, #8
 1786 0336 1846     		mov	r0, r3
 1787 0338 FFF7FEFF 		bl	lv_anim_create
 1788              	.L73:
 1789              	.LBE6:
 469:..\..\..\lvgl\version_6.1.2\lvgl\src\lv_objx/lv_tabview.c ****     }
 470:..\..\..\lvgl\version_6.1.2\lvgl\src\lv_objx/lv_tabview.c **** #endif
 471:..\..\..\lvgl\version_6.1.2\lvgl\src\lv_objx/lv_tabview.c **** 
 472:..\..\..\lvgl\version_6.1.2\lvgl\src\lv_objx/lv_tabview.c ****     lv_btnm_set_btn_ctrl(ext->btns, ext->tab_cur, LV_BTNM_CTRL_TGL_STATE);
 1790              		.loc 4 472 0
 1791 033c 3B6C     		ldr	r3, [r7, #64]
 1792 033e 1868     		ldr	r0, [r3]
 1793 0340 3B6C     		ldr	r3, [r7, #64]
 1794 0342 9B8A     		ldrh	r3, [r3, #20]
 1795 0344 8022     		movs	r2, #128
 1796 0346 1946     		mov	r1, r3
 1797 0348 FFF7FEFF 		bl	lv_btnm_set_btn_ctrl
 473:..\..\..\lvgl\version_6.1.2\lvgl\src\lv_objx/lv_tabview.c **** }
 1798              		.loc 4 473 0
 1799 034c 00BF     		nop
 1800 034e 4837     		adds	r7, r7, #72
 1801              		.cfi_def_cfa_offset 16
 1802 0350 BD46     		mov	sp, r7
 1803              		.cfi_def_cfa_register 13
 1804              		@ sp needed
 1805 0352 B0BD     		pop	{r4, r5, r7, pc}
 1806              	.L82:
 1807              		.align	2
 1808              	.L81:
 1809 0354 00000000 		.word	lv_obj_set_x
 1810 0358 00000000 		.word	lv_anim_path_linear
 1811 035c 00000000 		.word	lv_obj_set_y
 1812              		.cfi_endproc
 1813              	.LFE71:
 1814              		.size	lv_tabview_set_tab_act, .-lv_tabview_set_tab_act
 1815              		.section	.text.lv_tabview_set_sliding,"ax",%progbits
 1816              		.align	2
 1817              		.global	lv_tabview_set_sliding
 1818              		.thumb
 1819              		.thumb_func
ARM GAS  C:\Users\tmj32\AppData\Local\Temp\cc94ZBZn.s 			page 48


 1820              		.type	lv_tabview_set_sliding, %function
 1821              	lv_tabview_set_sliding:
 1822              	.LFB72:
 474:..\..\..\lvgl\version_6.1.2\lvgl\src\lv_objx/lv_tabview.c **** 
 475:..\..\..\lvgl\version_6.1.2\lvgl\src\lv_objx/lv_tabview.c **** /**
 476:..\..\..\lvgl\version_6.1.2\lvgl\src\lv_objx/lv_tabview.c ****  * Enable horizontal sliding with touch pad
 477:..\..\..\lvgl\version_6.1.2\lvgl\src\lv_objx/lv_tabview.c ****  * @param tabview pointer to Tab view object
 478:..\..\..\lvgl\version_6.1.2\lvgl\src\lv_objx/lv_tabview.c ****  * @param en true: enable sliding; false: disable sliding
 479:..\..\..\lvgl\version_6.1.2\lvgl\src\lv_objx/lv_tabview.c ****  */
 480:..\..\..\lvgl\version_6.1.2\lvgl\src\lv_objx/lv_tabview.c **** void lv_tabview_set_sliding(lv_obj_t * tabview, bool en)
 481:..\..\..\lvgl\version_6.1.2\lvgl\src\lv_objx/lv_tabview.c **** {
 1823              		.loc 4 481 0
 1824              		.cfi_startproc
 1825              		@ args = 0, pretend = 0, frame = 16
 1826              		@ frame_needed = 1, uses_anonymous_args = 0
 1827 0000 80B5     		push	{r7, lr}
 1828              		.cfi_def_cfa_offset 8
 1829              		.cfi_offset 7, -8
 1830              		.cfi_offset 14, -4
 1831 0002 84B0     		sub	sp, sp, #16
 1832              		.cfi_def_cfa_offset 24
 1833 0004 00AF     		add	r7, sp, #0
 1834              		.cfi_def_cfa_register 7
 1835 0006 7860     		str	r0, [r7, #4]
 1836 0008 0B46     		mov	r3, r1
 1837 000a FB70     		strb	r3, [r7, #3]
 482:..\..\..\lvgl\version_6.1.2\lvgl\src\lv_objx/lv_tabview.c ****     LV_ASSERT_OBJ(tabview, LV_OBJX_NAME);
 483:..\..\..\lvgl\version_6.1.2\lvgl\src\lv_objx/lv_tabview.c **** 
 484:..\..\..\lvgl\version_6.1.2\lvgl\src\lv_objx/lv_tabview.c ****     lv_tabview_ext_t * ext = lv_obj_get_ext_attr(tabview);
 1838              		.loc 4 484 0
 1839 000c 7868     		ldr	r0, [r7, #4]
 1840 000e FFF7FEFF 		bl	lv_obj_get_ext_attr
 1841 0012 F860     		str	r0, [r7, #12]
 485:..\..\..\lvgl\version_6.1.2\lvgl\src\lv_objx/lv_tabview.c ****     ext->slide_enable      = en == false ? 0 : 1;
 1842              		.loc 4 485 0
 1843 0014 FB78     		ldrb	r3, [r7, #3]
 1844 0016 83F00103 		eor	r3, r3, #1
 1845 001a DBB2     		uxtb	r3, r3
 1846 001c 002B     		cmp	r3, #0
 1847 001e 01D0     		beq	.L84
 1848              		.loc 4 485 0 is_stmt 0 discriminator 1
 1849 0020 0021     		movs	r1, #0
 1850 0022 00E0     		b	.L85
 1851              	.L84:
 1852              		.loc 4 485 0 discriminator 2
 1853 0024 0121     		movs	r1, #1
 1854              	.L85:
 1855              		.loc 4 485 0 discriminator 4
 1856 0026 FA68     		ldr	r2, [r7, #12]
 1857 0028 937E     		ldrb	r3, [r2, #26]
 1858 002a 61F30003 		bfi	r3, r1, #0, #1
 1859 002e 9376     		strb	r3, [r2, #26]
 486:..\..\..\lvgl\version_6.1.2\lvgl\src\lv_objx/lv_tabview.c **** }
 1860              		.loc 4 486 0 is_stmt 1 discriminator 4
 1861 0030 00BF     		nop
 1862 0032 1037     		adds	r7, r7, #16
 1863              		.cfi_def_cfa_offset 8
ARM GAS  C:\Users\tmj32\AppData\Local\Temp\cc94ZBZn.s 			page 49


 1864 0034 BD46     		mov	sp, r7
 1865              		.cfi_def_cfa_register 13
 1866              		@ sp needed
 1867 0036 80BD     		pop	{r7, pc}
 1868              		.cfi_endproc
 1869              	.LFE72:
 1870              		.size	lv_tabview_set_sliding, .-lv_tabview_set_sliding
 1871              		.section	.text.lv_tabview_set_anim_time,"ax",%progbits
 1872              		.align	2
 1873              		.global	lv_tabview_set_anim_time
 1874              		.thumb
 1875              		.thumb_func
 1876              		.type	lv_tabview_set_anim_time, %function
 1877              	lv_tabview_set_anim_time:
 1878              	.LFB73:
 487:..\..\..\lvgl\version_6.1.2\lvgl\src\lv_objx/lv_tabview.c **** 
 488:..\..\..\lvgl\version_6.1.2\lvgl\src\lv_objx/lv_tabview.c **** /**
 489:..\..\..\lvgl\version_6.1.2\lvgl\src\lv_objx/lv_tabview.c ****  * Set the animation time of tab view when a new tab is loaded
 490:..\..\..\lvgl\version_6.1.2\lvgl\src\lv_objx/lv_tabview.c ****  * @param tabview pointer to Tab view object
 491:..\..\..\lvgl\version_6.1.2\lvgl\src\lv_objx/lv_tabview.c ****  * @param anim_time_ms time of animation in milliseconds
 492:..\..\..\lvgl\version_6.1.2\lvgl\src\lv_objx/lv_tabview.c ****  */
 493:..\..\..\lvgl\version_6.1.2\lvgl\src\lv_objx/lv_tabview.c **** void lv_tabview_set_anim_time(lv_obj_t * tabview, uint16_t anim_time)
 494:..\..\..\lvgl\version_6.1.2\lvgl\src\lv_objx/lv_tabview.c **** {
 1879              		.loc 4 494 0
 1880              		.cfi_startproc
 1881              		@ args = 0, pretend = 0, frame = 16
 1882              		@ frame_needed = 1, uses_anonymous_args = 0
 1883 0000 80B5     		push	{r7, lr}
 1884              		.cfi_def_cfa_offset 8
 1885              		.cfi_offset 7, -8
 1886              		.cfi_offset 14, -4
 1887 0002 84B0     		sub	sp, sp, #16
 1888              		.cfi_def_cfa_offset 24
 1889 0004 00AF     		add	r7, sp, #0
 1890              		.cfi_def_cfa_register 7
 1891 0006 7860     		str	r0, [r7, #4]
 1892 0008 0B46     		mov	r3, r1
 1893 000a 7B80     		strh	r3, [r7, #2]	@ movhi
 495:..\..\..\lvgl\version_6.1.2\lvgl\src\lv_objx/lv_tabview.c ****     LV_ASSERT_OBJ(tabview, LV_OBJX_NAME);
 496:..\..\..\lvgl\version_6.1.2\lvgl\src\lv_objx/lv_tabview.c **** 
 497:..\..\..\lvgl\version_6.1.2\lvgl\src\lv_objx/lv_tabview.c **** #if LV_USE_ANIMATION
 498:..\..\..\lvgl\version_6.1.2\lvgl\src\lv_objx/lv_tabview.c ****     lv_tabview_ext_t * ext = lv_obj_get_ext_attr(tabview);
 1894              		.loc 4 498 0
 1895 000c 7868     		ldr	r0, [r7, #4]
 1896 000e FFF7FEFF 		bl	lv_obj_get_ext_attr
 1897 0012 F860     		str	r0, [r7, #12]
 499:..\..\..\lvgl\version_6.1.2\lvgl\src\lv_objx/lv_tabview.c ****     ext->anim_time         = anim_time;
 1898              		.loc 4 499 0
 1899 0014 FB68     		ldr	r3, [r7, #12]
 1900 0016 7A88     		ldrh	r2, [r7, #2]	@ movhi
 1901 0018 1A83     		strh	r2, [r3, #24]	@ movhi
 500:..\..\..\lvgl\version_6.1.2\lvgl\src\lv_objx/lv_tabview.c **** #else
 501:..\..\..\lvgl\version_6.1.2\lvgl\src\lv_objx/lv_tabview.c ****     (void)tabview;
 502:..\..\..\lvgl\version_6.1.2\lvgl\src\lv_objx/lv_tabview.c ****     (void)anim_time;
 503:..\..\..\lvgl\version_6.1.2\lvgl\src\lv_objx/lv_tabview.c **** #endif
 504:..\..\..\lvgl\version_6.1.2\lvgl\src\lv_objx/lv_tabview.c **** }
 1902              		.loc 4 504 0
ARM GAS  C:\Users\tmj32\AppData\Local\Temp\cc94ZBZn.s 			page 50


 1903 001a 00BF     		nop
 1904 001c 1037     		adds	r7, r7, #16
 1905              		.cfi_def_cfa_offset 8
 1906 001e BD46     		mov	sp, r7
 1907              		.cfi_def_cfa_register 13
 1908              		@ sp needed
 1909 0020 80BD     		pop	{r7, pc}
 1910              		.cfi_endproc
 1911              	.LFE73:
 1912              		.size	lv_tabview_set_anim_time, .-lv_tabview_set_anim_time
 1913 0022 00BF     		.section	.text.lv_tabview_set_style,"ax",%progbits
 1914              		.align	2
 1915              		.global	lv_tabview_set_style
 1916              		.thumb
 1917              		.thumb_func
 1918              		.type	lv_tabview_set_style, %function
 1919              	lv_tabview_set_style:
 1920              	.LFB74:
 505:..\..\..\lvgl\version_6.1.2\lvgl\src\lv_objx/lv_tabview.c **** 
 506:..\..\..\lvgl\version_6.1.2\lvgl\src\lv_objx/lv_tabview.c **** /**
 507:..\..\..\lvgl\version_6.1.2\lvgl\src\lv_objx/lv_tabview.c ****  * Set the style of a tab view
 508:..\..\..\lvgl\version_6.1.2\lvgl\src\lv_objx/lv_tabview.c ****  * @param tabview pointer to a tan view object
 509:..\..\..\lvgl\version_6.1.2\lvgl\src\lv_objx/lv_tabview.c ****  * @param type which style should be set
 510:..\..\..\lvgl\version_6.1.2\lvgl\src\lv_objx/lv_tabview.c ****  * @param style pointer to the new style
 511:..\..\..\lvgl\version_6.1.2\lvgl\src\lv_objx/lv_tabview.c ****  */
 512:..\..\..\lvgl\version_6.1.2\lvgl\src\lv_objx/lv_tabview.c **** void lv_tabview_set_style(lv_obj_t * tabview, lv_tabview_style_t type, const lv_style_t * style)
 513:..\..\..\lvgl\version_6.1.2\lvgl\src\lv_objx/lv_tabview.c **** {
 1921              		.loc 4 513 0
 1922              		.cfi_startproc
 1923              		@ args = 0, pretend = 0, frame = 24
 1924              		@ frame_needed = 1, uses_anonymous_args = 0
 1925 0000 80B5     		push	{r7, lr}
 1926              		.cfi_def_cfa_offset 8
 1927              		.cfi_offset 7, -8
 1928              		.cfi_offset 14, -4
 1929 0002 86B0     		sub	sp, sp, #24
 1930              		.cfi_def_cfa_offset 32
 1931 0004 00AF     		add	r7, sp, #0
 1932              		.cfi_def_cfa_register 7
 1933 0006 F860     		str	r0, [r7, #12]
 1934 0008 0B46     		mov	r3, r1
 1935 000a 7A60     		str	r2, [r7, #4]
 1936 000c FB72     		strb	r3, [r7, #11]
 514:..\..\..\lvgl\version_6.1.2\lvgl\src\lv_objx/lv_tabview.c ****     LV_ASSERT_OBJ(tabview, LV_OBJX_NAME);
 515:..\..\..\lvgl\version_6.1.2\lvgl\src\lv_objx/lv_tabview.c **** 
 516:..\..\..\lvgl\version_6.1.2\lvgl\src\lv_objx/lv_tabview.c ****     lv_tabview_ext_t * ext = lv_obj_get_ext_attr(tabview);
 1937              		.loc 4 516 0
 1938 000e F868     		ldr	r0, [r7, #12]
 1939 0010 FFF7FEFF 		bl	lv_obj_get_ext_attr
 1940 0014 7861     		str	r0, [r7, #20]
 517:..\..\..\lvgl\version_6.1.2\lvgl\src\lv_objx/lv_tabview.c **** 
 518:..\..\..\lvgl\version_6.1.2\lvgl\src\lv_objx/lv_tabview.c ****     switch(type) {
 1941              		.loc 4 518 0
 1942 0016 FB7A     		ldrb	r3, [r7, #11]	@ zero_extendqisi2
 1943 0018 062B     		cmp	r3, #6
 1944 001a 6AD8     		bhi	.L101
 1945 001c 01A2     		adr	r2, .L90
ARM GAS  C:\Users\tmj32\AppData\Local\Temp\cc94ZBZn.s 			page 51


 1946 001e 52F823F0 		ldr	pc, [r2, r3, lsl #2]
 1947 0022 00BF     		.p2align 2
 1948              	.L90:
 1949 0024 41000000 		.word	.L89+1
 1950 0028 A7000000 		.word	.L91+1
 1951 002c 4B000000 		.word	.L92+1
 1952 0030 61000000 		.word	.L93+1
 1953 0034 77000000 		.word	.L94+1
 1954 0038 87000000 		.word	.L95+1
 1955 003c 97000000 		.word	.L96+1
 1956              		.p2align 1
 1957              	.L89:
 519:..\..\..\lvgl\version_6.1.2\lvgl\src\lv_objx/lv_tabview.c ****         case LV_TABVIEW_STYLE_BG: lv_obj_set_style(tabview, style); break;
 1958              		.loc 4 519 0
 1959 0040 7968     		ldr	r1, [r7, #4]
 1960 0042 F868     		ldr	r0, [r7, #12]
 1961 0044 FFF7FEFF 		bl	lv_obj_set_style
 1962 0048 53E0     		b	.L88
 1963              	.L92:
 520:..\..\..\lvgl\version_6.1.2\lvgl\src\lv_objx/lv_tabview.c ****         case LV_TABVIEW_STYLE_BTN_BG:
 521:..\..\..\lvgl\version_6.1.2\lvgl\src\lv_objx/lv_tabview.c ****             lv_btnm_set_style(ext->btns, LV_BTNM_STYLE_BG, style);
 1964              		.loc 4 521 0
 1965 004a 7B69     		ldr	r3, [r7, #20]
 1966 004c 1B68     		ldr	r3, [r3]
 1967 004e 7A68     		ldr	r2, [r7, #4]
 1968 0050 0021     		movs	r1, #0
 1969 0052 1846     		mov	r0, r3
 1970 0054 FFF7FEFF 		bl	lv_btnm_set_style
 522:..\..\..\lvgl\version_6.1.2\lvgl\src\lv_objx/lv_tabview.c ****             tabview_realign(tabview);
 1971              		.loc 4 522 0
 1972 0058 F868     		ldr	r0, [r7, #12]
 1973 005a FFF7FEFF 		bl	tabview_realign
 523:..\..\..\lvgl\version_6.1.2\lvgl\src\lv_objx/lv_tabview.c ****             break;
 1974              		.loc 4 523 0
 1975 005e 48E0     		b	.L88
 1976              	.L93:
 524:..\..\..\lvgl\version_6.1.2\lvgl\src\lv_objx/lv_tabview.c ****         case LV_TABVIEW_STYLE_BTN_REL:
 525:..\..\..\lvgl\version_6.1.2\lvgl\src\lv_objx/lv_tabview.c ****             lv_btnm_set_style(ext->btns, LV_BTNM_STYLE_BTN_REL, style);
 1977              		.loc 4 525 0
 1978 0060 7B69     		ldr	r3, [r7, #20]
 1979 0062 1B68     		ldr	r3, [r3]
 1980 0064 7A68     		ldr	r2, [r7, #4]
 1981 0066 0121     		movs	r1, #1
 1982 0068 1846     		mov	r0, r3
 1983 006a FFF7FEFF 		bl	lv_btnm_set_style
 526:..\..\..\lvgl\version_6.1.2\lvgl\src\lv_objx/lv_tabview.c ****             tabview_realign(tabview);
 1984              		.loc 4 526 0
 1985 006e F868     		ldr	r0, [r7, #12]
 1986 0070 FFF7FEFF 		bl	tabview_realign
 527:..\..\..\lvgl\version_6.1.2\lvgl\src\lv_objx/lv_tabview.c ****             break;
 1987              		.loc 4 527 0
 1988 0074 3DE0     		b	.L88
 1989              	.L94:
 528:..\..\..\lvgl\version_6.1.2\lvgl\src\lv_objx/lv_tabview.c ****         case LV_TABVIEW_STYLE_BTN_PR: lv_btnm_set_style(ext->btns, LV_BTNM_STYLE_BTN_PR, style); br
 1990              		.loc 4 528 0
 1991 0076 7B69     		ldr	r3, [r7, #20]
 1992 0078 1B68     		ldr	r3, [r3]
ARM GAS  C:\Users\tmj32\AppData\Local\Temp\cc94ZBZn.s 			page 52


 1993 007a 7A68     		ldr	r2, [r7, #4]
 1994 007c 0221     		movs	r1, #2
 1995 007e 1846     		mov	r0, r3
 1996 0080 FFF7FEFF 		bl	lv_btnm_set_style
 1997 0084 35E0     		b	.L88
 1998              	.L95:
 529:..\..\..\lvgl\version_6.1.2\lvgl\src\lv_objx/lv_tabview.c ****         case LV_TABVIEW_STYLE_BTN_TGL_REL: lv_btnm_set_style(ext->btns, LV_BTNM_STYLE_BTN_TGL_REL, 
 1999              		.loc 4 529 0
 2000 0086 7B69     		ldr	r3, [r7, #20]
 2001 0088 1B68     		ldr	r3, [r3]
 2002 008a 7A68     		ldr	r2, [r7, #4]
 2003 008c 0321     		movs	r1, #3
 2004 008e 1846     		mov	r0, r3
 2005 0090 FFF7FEFF 		bl	lv_btnm_set_style
 2006 0094 2DE0     		b	.L88
 2007              	.L96:
 530:..\..\..\lvgl\version_6.1.2\lvgl\src\lv_objx/lv_tabview.c ****         case LV_TABVIEW_STYLE_BTN_TGL_PR: lv_btnm_set_style(ext->btns, LV_BTNM_STYLE_BTN_TGL_PR, st
 2008              		.loc 4 530 0
 2009 0096 7B69     		ldr	r3, [r7, #20]
 2010 0098 1B68     		ldr	r3, [r3]
 2011 009a 7A68     		ldr	r2, [r7, #4]
 2012 009c 0421     		movs	r1, #4
 2013 009e 1846     		mov	r0, r3
 2014 00a0 FFF7FEFF 		bl	lv_btnm_set_style
 2015 00a4 25E0     		b	.L88
 2016              	.L91:
 531:..\..\..\lvgl\version_6.1.2\lvgl\src\lv_objx/lv_tabview.c ****         case LV_TABVIEW_STYLE_INDIC:
 532:..\..\..\lvgl\version_6.1.2\lvgl\src\lv_objx/lv_tabview.c ****             lv_obj_set_style(ext->indic, style);
 2017              		.loc 4 532 0
 2018 00a6 7B69     		ldr	r3, [r7, #20]
 2019 00a8 5B68     		ldr	r3, [r3, #4]
 2020 00aa 7968     		ldr	r1, [r7, #4]
 2021 00ac 1846     		mov	r0, r3
 2022 00ae FFF7FEFF 		bl	lv_obj_set_style
 533:..\..\..\lvgl\version_6.1.2\lvgl\src\lv_objx/lv_tabview.c **** 
 534:..\..\..\lvgl\version_6.1.2\lvgl\src\lv_objx/lv_tabview.c ****             switch(ext->btns_pos) {
 2023              		.loc 4 534 0
 2024 00b2 7B69     		ldr	r3, [r7, #20]
 2025 00b4 9B7E     		ldrb	r3, [r3, #26]
 2026 00b6 C3F34113 		ubfx	r3, r3, #5, #2
 2027 00ba DBB2     		uxtb	r3, r3
 2028 00bc 023B     		subs	r3, r3, #2
 2029 00be 012B     		cmp	r3, #1
 2030 00c0 09D9     		bls	.L100
 535:..\..\..\lvgl\version_6.1.2\lvgl\src\lv_objx/lv_tabview.c ****                 case LV_TABVIEW_BTNS_POS_TOP:
 536:..\..\..\lvgl\version_6.1.2\lvgl\src\lv_objx/lv_tabview.c ****                 case LV_TABVIEW_BTNS_POS_BOTTOM: lv_obj_set_height(ext->indic, style->body.padding.
 2031              		.loc 4 536 0
 2032 00c2 7B69     		ldr	r3, [r7, #20]
 2033 00c4 5A68     		ldr	r2, [r3, #4]
 2034 00c6 7B68     		ldr	r3, [r7, #4]
 2035 00c8 B3F92830 		ldrsh	r3, [r3, #40]
 2036 00cc 1946     		mov	r1, r3
 2037 00ce 1046     		mov	r0, r2
 2038 00d0 FFF7FEFF 		bl	lv_obj_set_height
 2039 00d4 09E0     		b	.L99
 2040              	.L100:
 537:..\..\..\lvgl\version_6.1.2\lvgl\src\lv_objx/lv_tabview.c ****                 case LV_TABVIEW_BTNS_POS_LEFT:
ARM GAS  C:\Users\tmj32\AppData\Local\Temp\cc94ZBZn.s 			page 53


 538:..\..\..\lvgl\version_6.1.2\lvgl\src\lv_objx/lv_tabview.c ****                 case LV_TABVIEW_BTNS_POS_RIGHT: lv_obj_set_width(ext->indic, style->body.padding.in
 2041              		.loc 4 538 0
 2042 00d6 7B69     		ldr	r3, [r7, #20]
 2043 00d8 5A68     		ldr	r2, [r3, #4]
 2044 00da 7B68     		ldr	r3, [r7, #4]
 2045 00dc B3F92830 		ldrsh	r3, [r3, #40]
 2046 00e0 1946     		mov	r1, r3
 2047 00e2 1046     		mov	r0, r2
 2048 00e4 FFF7FEFF 		bl	lv_obj_set_width
 2049 00e8 00BF     		nop
 2050              	.L99:
 539:..\..\..\lvgl\version_6.1.2\lvgl\src\lv_objx/lv_tabview.c ****             }
 540:..\..\..\lvgl\version_6.1.2\lvgl\src\lv_objx/lv_tabview.c **** 
 541:..\..\..\lvgl\version_6.1.2\lvgl\src\lv_objx/lv_tabview.c ****             tabview_realign(tabview);
 2051              		.loc 4 541 0
 2052 00ea F868     		ldr	r0, [r7, #12]
 2053 00ec FFF7FEFF 		bl	tabview_realign
 542:..\..\..\lvgl\version_6.1.2\lvgl\src\lv_objx/lv_tabview.c ****             break;
 2054              		.loc 4 542 0
 2055 00f0 00BF     		nop
 2056              	.L88:
 2057              	.L101:
 543:..\..\..\lvgl\version_6.1.2\lvgl\src\lv_objx/lv_tabview.c ****     }
 544:..\..\..\lvgl\version_6.1.2\lvgl\src\lv_objx/lv_tabview.c **** }
 2058              		.loc 4 544 0
 2059 00f2 00BF     		nop
 2060 00f4 1837     		adds	r7, r7, #24
 2061              		.cfi_def_cfa_offset 8
 2062 00f6 BD46     		mov	sp, r7
 2063              		.cfi_def_cfa_register 13
 2064              		@ sp needed
 2065 00f8 80BD     		pop	{r7, pc}
 2066              		.cfi_endproc
 2067              	.LFE74:
 2068              		.size	lv_tabview_set_style, .-lv_tabview_set_style
 2069 00fa 00BF     		.section	.text.lv_tabview_set_btns_pos,"ax",%progbits
 2070              		.align	2
 2071              		.global	lv_tabview_set_btns_pos
 2072              		.thumb
 2073              		.thumb_func
 2074              		.type	lv_tabview_set_btns_pos, %function
 2075              	lv_tabview_set_btns_pos:
 2076              	.LFB75:
 545:..\..\..\lvgl\version_6.1.2\lvgl\src\lv_objx/lv_tabview.c **** 
 546:..\..\..\lvgl\version_6.1.2\lvgl\src\lv_objx/lv_tabview.c **** /**
 547:..\..\..\lvgl\version_6.1.2\lvgl\src\lv_objx/lv_tabview.c ****  * Set the position of tab select buttons
 548:..\..\..\lvgl\version_6.1.2\lvgl\src\lv_objx/lv_tabview.c ****  * @param tabview pointer to a tan view object
 549:..\..\..\lvgl\version_6.1.2\lvgl\src\lv_objx/lv_tabview.c ****  * @param btns_pos which button position
 550:..\..\..\lvgl\version_6.1.2\lvgl\src\lv_objx/lv_tabview.c ****  */
 551:..\..\..\lvgl\version_6.1.2\lvgl\src\lv_objx/lv_tabview.c **** void lv_tabview_set_btns_pos(lv_obj_t * tabview, lv_tabview_btns_pos_t btns_pos)
 552:..\..\..\lvgl\version_6.1.2\lvgl\src\lv_objx/lv_tabview.c **** {
 2077              		.loc 4 552 0
 2078              		.cfi_startproc
 2079              		@ args = 0, pretend = 0, frame = 16
 2080              		@ frame_needed = 1, uses_anonymous_args = 0
 2081 0000 80B5     		push	{r7, lr}
 2082              		.cfi_def_cfa_offset 8
ARM GAS  C:\Users\tmj32\AppData\Local\Temp\cc94ZBZn.s 			page 54


 2083              		.cfi_offset 7, -8
 2084              		.cfi_offset 14, -4
 2085 0002 84B0     		sub	sp, sp, #16
 2086              		.cfi_def_cfa_offset 24
 2087 0004 00AF     		add	r7, sp, #0
 2088              		.cfi_def_cfa_register 7
 2089 0006 7860     		str	r0, [r7, #4]
 2090 0008 0B46     		mov	r3, r1
 2091 000a FB70     		strb	r3, [r7, #3]
 553:..\..\..\lvgl\version_6.1.2\lvgl\src\lv_objx/lv_tabview.c ****     LV_ASSERT_OBJ(tabview, LV_OBJX_NAME);
 554:..\..\..\lvgl\version_6.1.2\lvgl\src\lv_objx/lv_tabview.c **** 
 555:..\..\..\lvgl\version_6.1.2\lvgl\src\lv_objx/lv_tabview.c ****     lv_tabview_ext_t * ext = lv_obj_get_ext_attr(tabview);
 2092              		.loc 4 555 0
 2093 000c 7868     		ldr	r0, [r7, #4]
 2094 000e FFF7FEFF 		bl	lv_obj_get_ext_attr
 2095 0012 F860     		str	r0, [r7, #12]
 556:..\..\..\lvgl\version_6.1.2\lvgl\src\lv_objx/lv_tabview.c **** 
 557:..\..\..\lvgl\version_6.1.2\lvgl\src\lv_objx/lv_tabview.c ****     ext->btns_pos = btns_pos;
 2096              		.loc 4 557 0
 2097 0014 FB78     		ldrb	r3, [r7, #3]
 2098 0016 03F00303 		and	r3, r3, #3
 2099 001a D9B2     		uxtb	r1, r3
 2100 001c FA68     		ldr	r2, [r7, #12]
 2101 001e 937E     		ldrb	r3, [r2, #26]
 2102 0020 61F34613 		bfi	r3, r1, #5, #2
 2103 0024 9376     		strb	r3, [r2, #26]
 558:..\..\..\lvgl\version_6.1.2\lvgl\src\lv_objx/lv_tabview.c ****     tabview_realign(tabview);
 2104              		.loc 4 558 0
 2105 0026 7868     		ldr	r0, [r7, #4]
 2106 0028 FFF7FEFF 		bl	tabview_realign
 559:..\..\..\lvgl\version_6.1.2\lvgl\src\lv_objx/lv_tabview.c **** }
 2107              		.loc 4 559 0
 2108 002c 00BF     		nop
 2109 002e 1037     		adds	r7, r7, #16
 2110              		.cfi_def_cfa_offset 8
 2111 0030 BD46     		mov	sp, r7
 2112              		.cfi_def_cfa_register 13
 2113              		@ sp needed
 2114 0032 80BD     		pop	{r7, pc}
 2115              		.cfi_endproc
 2116              	.LFE75:
 2117              		.size	lv_tabview_set_btns_pos, .-lv_tabview_set_btns_pos
 2118              		.section	.text.lv_tabview_set_btns_hidden,"ax",%progbits
 2119              		.align	2
 2120              		.global	lv_tabview_set_btns_hidden
 2121              		.thumb
 2122              		.thumb_func
 2123              		.type	lv_tabview_set_btns_hidden, %function
 2124              	lv_tabview_set_btns_hidden:
 2125              	.LFB76:
 560:..\..\..\lvgl\version_6.1.2\lvgl\src\lv_objx/lv_tabview.c **** 
 561:..\..\..\lvgl\version_6.1.2\lvgl\src\lv_objx/lv_tabview.c **** /**
 562:..\..\..\lvgl\version_6.1.2\lvgl\src\lv_objx/lv_tabview.c ****  * Set whether tab buttons are hidden
 563:..\..\..\lvgl\version_6.1.2\lvgl\src\lv_objx/lv_tabview.c ****  * @param tabview pointer to a tab view object
 564:..\..\..\lvgl\version_6.1.2\lvgl\src\lv_objx/lv_tabview.c ****  * @param en whether tab buttons are hidden
 565:..\..\..\lvgl\version_6.1.2\lvgl\src\lv_objx/lv_tabview.c ****  */
 566:..\..\..\lvgl\version_6.1.2\lvgl\src\lv_objx/lv_tabview.c **** void lv_tabview_set_btns_hidden(lv_obj_t * tabview, bool en)
ARM GAS  C:\Users\tmj32\AppData\Local\Temp\cc94ZBZn.s 			page 55


 567:..\..\..\lvgl\version_6.1.2\lvgl\src\lv_objx/lv_tabview.c **** {
 2126              		.loc 4 567 0
 2127              		.cfi_startproc
 2128              		@ args = 0, pretend = 0, frame = 16
 2129              		@ frame_needed = 1, uses_anonymous_args = 0
 2130 0000 80B5     		push	{r7, lr}
 2131              		.cfi_def_cfa_offset 8
 2132              		.cfi_offset 7, -8
 2133              		.cfi_offset 14, -4
 2134 0002 84B0     		sub	sp, sp, #16
 2135              		.cfi_def_cfa_offset 24
 2136 0004 00AF     		add	r7, sp, #0
 2137              		.cfi_def_cfa_register 7
 2138 0006 7860     		str	r0, [r7, #4]
 2139 0008 0B46     		mov	r3, r1
 2140 000a FB70     		strb	r3, [r7, #3]
 568:..\..\..\lvgl\version_6.1.2\lvgl\src\lv_objx/lv_tabview.c ****     LV_ASSERT_OBJ(tabview, LV_OBJX_NAME);
 569:..\..\..\lvgl\version_6.1.2\lvgl\src\lv_objx/lv_tabview.c **** 
 570:..\..\..\lvgl\version_6.1.2\lvgl\src\lv_objx/lv_tabview.c ****     lv_tabview_ext_t * ext = lv_obj_get_ext_attr(tabview);
 2141              		.loc 4 570 0
 2142 000c 7868     		ldr	r0, [r7, #4]
 2143 000e FFF7FEFF 		bl	lv_obj_get_ext_attr
 2144 0012 F860     		str	r0, [r7, #12]
 571:..\..\..\lvgl\version_6.1.2\lvgl\src\lv_objx/lv_tabview.c **** 
 572:..\..\..\lvgl\version_6.1.2\lvgl\src\lv_objx/lv_tabview.c ****     ext->btns_hide = en;
 2145              		.loc 4 572 0
 2146 0014 FA68     		ldr	r2, [r7, #12]
 2147 0016 937E     		ldrb	r3, [r2, #26]
 2148 0018 F978     		ldrb	r1, [r7, #3]
 2149 001a 61F30413 		bfi	r3, r1, #4, #1
 2150 001e 9376     		strb	r3, [r2, #26]
 573:..\..\..\lvgl\version_6.1.2\lvgl\src\lv_objx/lv_tabview.c ****     tabview_realign(tabview);
 2151              		.loc 4 573 0
 2152 0020 7868     		ldr	r0, [r7, #4]
 2153 0022 FFF7FEFF 		bl	tabview_realign
 574:..\..\..\lvgl\version_6.1.2\lvgl\src\lv_objx/lv_tabview.c **** }
 2154              		.loc 4 574 0
 2155 0026 00BF     		nop
 2156 0028 1037     		adds	r7, r7, #16
 2157              		.cfi_def_cfa_offset 8
 2158 002a BD46     		mov	sp, r7
 2159              		.cfi_def_cfa_register 13
 2160              		@ sp needed
 2161 002c 80BD     		pop	{r7, pc}
 2162              		.cfi_endproc
 2163              	.LFE76:
 2164              		.size	lv_tabview_set_btns_hidden, .-lv_tabview_set_btns_hidden
 2165 002e 00BF     		.section	.text.lv_tabview_get_tab_act,"ax",%progbits
 2166              		.align	2
 2167              		.global	lv_tabview_get_tab_act
 2168              		.thumb
 2169              		.thumb_func
 2170              		.type	lv_tabview_get_tab_act, %function
 2171              	lv_tabview_get_tab_act:
 2172              	.LFB77:
 575:..\..\..\lvgl\version_6.1.2\lvgl\src\lv_objx/lv_tabview.c **** 
 576:..\..\..\lvgl\version_6.1.2\lvgl\src\lv_objx/lv_tabview.c **** /*=====================
ARM GAS  C:\Users\tmj32\AppData\Local\Temp\cc94ZBZn.s 			page 56


 577:..\..\..\lvgl\version_6.1.2\lvgl\src\lv_objx/lv_tabview.c ****  * Getter functions
 578:..\..\..\lvgl\version_6.1.2\lvgl\src\lv_objx/lv_tabview.c ****  *====================*/
 579:..\..\..\lvgl\version_6.1.2\lvgl\src\lv_objx/lv_tabview.c **** 
 580:..\..\..\lvgl\version_6.1.2\lvgl\src\lv_objx/lv_tabview.c **** /**
 581:..\..\..\lvgl\version_6.1.2\lvgl\src\lv_objx/lv_tabview.c ****  * Get the index of the currently active tab
 582:..\..\..\lvgl\version_6.1.2\lvgl\src\lv_objx/lv_tabview.c ****  * @param tabview pointer to Tab view object
 583:..\..\..\lvgl\version_6.1.2\lvgl\src\lv_objx/lv_tabview.c ****  * @return the active btn index
 584:..\..\..\lvgl\version_6.1.2\lvgl\src\lv_objx/lv_tabview.c ****  */
 585:..\..\..\lvgl\version_6.1.2\lvgl\src\lv_objx/lv_tabview.c **** uint16_t lv_tabview_get_tab_act(const lv_obj_t * tabview)
 586:..\..\..\lvgl\version_6.1.2\lvgl\src\lv_objx/lv_tabview.c **** {
 2173              		.loc 4 586 0
 2174              		.cfi_startproc
 2175              		@ args = 0, pretend = 0, frame = 16
 2176              		@ frame_needed = 1, uses_anonymous_args = 0
 2177 0000 80B5     		push	{r7, lr}
 2178              		.cfi_def_cfa_offset 8
 2179              		.cfi_offset 7, -8
 2180              		.cfi_offset 14, -4
 2181 0002 84B0     		sub	sp, sp, #16
 2182              		.cfi_def_cfa_offset 24
 2183 0004 00AF     		add	r7, sp, #0
 2184              		.cfi_def_cfa_register 7
 2185 0006 7860     		str	r0, [r7, #4]
 587:..\..\..\lvgl\version_6.1.2\lvgl\src\lv_objx/lv_tabview.c ****     LV_ASSERT_OBJ(tabview, LV_OBJX_NAME);
 588:..\..\..\lvgl\version_6.1.2\lvgl\src\lv_objx/lv_tabview.c **** 
 589:..\..\..\lvgl\version_6.1.2\lvgl\src\lv_objx/lv_tabview.c ****     lv_tabview_ext_t * ext = lv_obj_get_ext_attr(tabview);
 2186              		.loc 4 589 0
 2187 0008 7868     		ldr	r0, [r7, #4]
 2188 000a FFF7FEFF 		bl	lv_obj_get_ext_attr
 2189 000e F860     		str	r0, [r7, #12]
 590:..\..\..\lvgl\version_6.1.2\lvgl\src\lv_objx/lv_tabview.c ****     return ext->tab_cur;
 2190              		.loc 4 590 0
 2191 0010 FB68     		ldr	r3, [r7, #12]
 2192 0012 9B8A     		ldrh	r3, [r3, #20]
 591:..\..\..\lvgl\version_6.1.2\lvgl\src\lv_objx/lv_tabview.c **** }
 2193              		.loc 4 591 0
 2194 0014 1846     		mov	r0, r3
 2195 0016 1037     		adds	r7, r7, #16
 2196              		.cfi_def_cfa_offset 8
 2197 0018 BD46     		mov	sp, r7
 2198              		.cfi_def_cfa_register 13
 2199              		@ sp needed
 2200 001a 80BD     		pop	{r7, pc}
 2201              		.cfi_endproc
 2202              	.LFE77:
 2203              		.size	lv_tabview_get_tab_act, .-lv_tabview_get_tab_act
 2204              		.section	.text.lv_tabview_get_tab_count,"ax",%progbits
 2205              		.align	2
 2206              		.global	lv_tabview_get_tab_count
 2207              		.thumb
 2208              		.thumb_func
 2209              		.type	lv_tabview_get_tab_count, %function
 2210              	lv_tabview_get_tab_count:
 2211              	.LFB78:
 592:..\..\..\lvgl\version_6.1.2\lvgl\src\lv_objx/lv_tabview.c **** 
 593:..\..\..\lvgl\version_6.1.2\lvgl\src\lv_objx/lv_tabview.c **** /**
 594:..\..\..\lvgl\version_6.1.2\lvgl\src\lv_objx/lv_tabview.c ****  * Get the number of tabs
ARM GAS  C:\Users\tmj32\AppData\Local\Temp\cc94ZBZn.s 			page 57


 595:..\..\..\lvgl\version_6.1.2\lvgl\src\lv_objx/lv_tabview.c ****  * @param tabview pointer to Tab view object
 596:..\..\..\lvgl\version_6.1.2\lvgl\src\lv_objx/lv_tabview.c ****  * @return btn count
 597:..\..\..\lvgl\version_6.1.2\lvgl\src\lv_objx/lv_tabview.c ****  */
 598:..\..\..\lvgl\version_6.1.2\lvgl\src\lv_objx/lv_tabview.c **** uint16_t lv_tabview_get_tab_count(const lv_obj_t * tabview)
 599:..\..\..\lvgl\version_6.1.2\lvgl\src\lv_objx/lv_tabview.c **** {
 2212              		.loc 4 599 0
 2213              		.cfi_startproc
 2214              		@ args = 0, pretend = 0, frame = 16
 2215              		@ frame_needed = 1, uses_anonymous_args = 0
 2216 0000 80B5     		push	{r7, lr}
 2217              		.cfi_def_cfa_offset 8
 2218              		.cfi_offset 7, -8
 2219              		.cfi_offset 14, -4
 2220 0002 84B0     		sub	sp, sp, #16
 2221              		.cfi_def_cfa_offset 24
 2222 0004 00AF     		add	r7, sp, #0
 2223              		.cfi_def_cfa_register 7
 2224 0006 7860     		str	r0, [r7, #4]
 600:..\..\..\lvgl\version_6.1.2\lvgl\src\lv_objx/lv_tabview.c ****     LV_ASSERT_OBJ(tabview, LV_OBJX_NAME);
 601:..\..\..\lvgl\version_6.1.2\lvgl\src\lv_objx/lv_tabview.c **** 
 602:..\..\..\lvgl\version_6.1.2\lvgl\src\lv_objx/lv_tabview.c ****     lv_tabview_ext_t * ext = lv_obj_get_ext_attr(tabview);
 2225              		.loc 4 602 0
 2226 0008 7868     		ldr	r0, [r7, #4]
 2227 000a FFF7FEFF 		bl	lv_obj_get_ext_attr
 2228 000e F860     		str	r0, [r7, #12]
 603:..\..\..\lvgl\version_6.1.2\lvgl\src\lv_objx/lv_tabview.c ****     return ext->tab_cnt;
 2229              		.loc 4 603 0
 2230 0010 FB68     		ldr	r3, [r7, #12]
 2231 0012 DB8A     		ldrh	r3, [r3, #22]
 604:..\..\..\lvgl\version_6.1.2\lvgl\src\lv_objx/lv_tabview.c **** }
 2232              		.loc 4 604 0
 2233 0014 1846     		mov	r0, r3
 2234 0016 1037     		adds	r7, r7, #16
 2235              		.cfi_def_cfa_offset 8
 2236 0018 BD46     		mov	sp, r7
 2237              		.cfi_def_cfa_register 13
 2238              		@ sp needed
 2239 001a 80BD     		pop	{r7, pc}
 2240              		.cfi_endproc
 2241              	.LFE78:
 2242              		.size	lv_tabview_get_tab_count, .-lv_tabview_get_tab_count
 2243              		.section	.text.lv_tabview_get_tab,"ax",%progbits
 2244              		.align	2
 2245              		.global	lv_tabview_get_tab
 2246              		.thumb
 2247              		.thumb_func
 2248              		.type	lv_tabview_get_tab, %function
 2249              	lv_tabview_get_tab:
 2250              	.LFB79:
 605:..\..\..\lvgl\version_6.1.2\lvgl\src\lv_objx/lv_tabview.c **** 
 606:..\..\..\lvgl\version_6.1.2\lvgl\src\lv_objx/lv_tabview.c **** /**
 607:..\..\..\lvgl\version_6.1.2\lvgl\src\lv_objx/lv_tabview.c ****  * Get the page (content area) of a tab
 608:..\..\..\lvgl\version_6.1.2\lvgl\src\lv_objx/lv_tabview.c ****  * @param tabview pointer to Tab view object
 609:..\..\..\lvgl\version_6.1.2\lvgl\src\lv_objx/lv_tabview.c ****  * @param id index of the btn (>= 0)
 610:..\..\..\lvgl\version_6.1.2\lvgl\src\lv_objx/lv_tabview.c ****  * @return pointer to page (lv_page) object
 611:..\..\..\lvgl\version_6.1.2\lvgl\src\lv_objx/lv_tabview.c ****  */
 612:..\..\..\lvgl\version_6.1.2\lvgl\src\lv_objx/lv_tabview.c **** lv_obj_t * lv_tabview_get_tab(const lv_obj_t * tabview, uint16_t id)
ARM GAS  C:\Users\tmj32\AppData\Local\Temp\cc94ZBZn.s 			page 58


 613:..\..\..\lvgl\version_6.1.2\lvgl\src\lv_objx/lv_tabview.c **** {
 2251              		.loc 4 613 0
 2252              		.cfi_startproc
 2253              		@ args = 0, pretend = 0, frame = 24
 2254              		@ frame_needed = 1, uses_anonymous_args = 0
 2255 0000 80B5     		push	{r7, lr}
 2256              		.cfi_def_cfa_offset 8
 2257              		.cfi_offset 7, -8
 2258              		.cfi_offset 14, -4
 2259 0002 86B0     		sub	sp, sp, #24
 2260              		.cfi_def_cfa_offset 32
 2261 0004 00AF     		add	r7, sp, #0
 2262              		.cfi_def_cfa_register 7
 2263 0006 7860     		str	r0, [r7, #4]
 2264 0008 0B46     		mov	r3, r1
 2265 000a 7B80     		strh	r3, [r7, #2]	@ movhi
 614:..\..\..\lvgl\version_6.1.2\lvgl\src\lv_objx/lv_tabview.c ****     LV_ASSERT_OBJ(tabview, LV_OBJX_NAME);
 615:..\..\..\lvgl\version_6.1.2\lvgl\src\lv_objx/lv_tabview.c **** 
 616:..\..\..\lvgl\version_6.1.2\lvgl\src\lv_objx/lv_tabview.c ****     lv_tabview_ext_t * ext = lv_obj_get_ext_attr(tabview);
 2266              		.loc 4 616 0
 2267 000c 7868     		ldr	r0, [r7, #4]
 2268 000e FFF7FEFF 		bl	lv_obj_get_ext_attr
 2269 0012 F860     		str	r0, [r7, #12]
 617:..\..\..\lvgl\version_6.1.2\lvgl\src\lv_objx/lv_tabview.c ****     uint16_t i             = 0;
 2270              		.loc 4 617 0
 2271 0014 0023     		movs	r3, #0
 2272 0016 FB82     		strh	r3, [r7, #22]	@ movhi
 618:..\..\..\lvgl\version_6.1.2\lvgl\src\lv_objx/lv_tabview.c ****     lv_obj_t * page        = lv_obj_get_child_back(ext->content, NULL);
 2273              		.loc 4 618 0
 2274 0018 FB68     		ldr	r3, [r7, #12]
 2275 001a 9B68     		ldr	r3, [r3, #8]
 2276 001c 0021     		movs	r1, #0
 2277 001e 1846     		mov	r0, r3
 2278 0020 FFF7FEFF 		bl	lv_obj_get_child_back
 2279 0024 3861     		str	r0, [r7, #16]
 619:..\..\..\lvgl\version_6.1.2\lvgl\src\lv_objx/lv_tabview.c **** 
 620:..\..\..\lvgl\version_6.1.2\lvgl\src\lv_objx/lv_tabview.c ****     while(page != NULL && i != id) {
 2280              		.loc 4 620 0
 2281 0026 09E0     		b	.L109
 2282              	.L111:
 621:..\..\..\lvgl\version_6.1.2\lvgl\src\lv_objx/lv_tabview.c ****         i++;
 2283              		.loc 4 621 0
 2284 0028 FB8A     		ldrh	r3, [r7, #22]
 2285 002a 0133     		adds	r3, r3, #1
 2286 002c FB82     		strh	r3, [r7, #22]	@ movhi
 622:..\..\..\lvgl\version_6.1.2\lvgl\src\lv_objx/lv_tabview.c ****         page = lv_obj_get_child_back(ext->content, page);
 2287              		.loc 4 622 0
 2288 002e FB68     		ldr	r3, [r7, #12]
 2289 0030 9B68     		ldr	r3, [r3, #8]
 2290 0032 3969     		ldr	r1, [r7, #16]
 2291 0034 1846     		mov	r0, r3
 2292 0036 FFF7FEFF 		bl	lv_obj_get_child_back
 2293 003a 3861     		str	r0, [r7, #16]
 2294              	.L109:
 620:..\..\..\lvgl\version_6.1.2\lvgl\src\lv_objx/lv_tabview.c ****         i++;
 2295              		.loc 4 620 0
 2296 003c 3B69     		ldr	r3, [r7, #16]
ARM GAS  C:\Users\tmj32\AppData\Local\Temp\cc94ZBZn.s 			page 59


 2297 003e 002B     		cmp	r3, #0
 2298 0040 03D0     		beq	.L110
 620:..\..\..\lvgl\version_6.1.2\lvgl\src\lv_objx/lv_tabview.c ****         i++;
 2299              		.loc 4 620 0 is_stmt 0 discriminator 1
 2300 0042 FA8A     		ldrh	r2, [r7, #22]
 2301 0044 7B88     		ldrh	r3, [r7, #2]
 2302 0046 9A42     		cmp	r2, r3
 2303 0048 EED1     		bne	.L111
 2304              	.L110:
 623:..\..\..\lvgl\version_6.1.2\lvgl\src\lv_objx/lv_tabview.c ****     }
 624:..\..\..\lvgl\version_6.1.2\lvgl\src\lv_objx/lv_tabview.c **** 
 625:..\..\..\lvgl\version_6.1.2\lvgl\src\lv_objx/lv_tabview.c ****     if(i == id) return page;
 2305              		.loc 4 625 0 is_stmt 1
 2306 004a FA8A     		ldrh	r2, [r7, #22]
 2307 004c 7B88     		ldrh	r3, [r7, #2]
 2308 004e 9A42     		cmp	r2, r3
 2309 0050 01D1     		bne	.L112
 2310              		.loc 4 625 0 is_stmt 0 discriminator 1
 2311 0052 3B69     		ldr	r3, [r7, #16]
 2312 0054 00E0     		b	.L113
 2313              	.L112:
 626:..\..\..\lvgl\version_6.1.2\lvgl\src\lv_objx/lv_tabview.c **** 
 627:..\..\..\lvgl\version_6.1.2\lvgl\src\lv_objx/lv_tabview.c ****     return NULL;
 2314              		.loc 4 627 0 is_stmt 1
 2315 0056 0023     		movs	r3, #0
 2316              	.L113:
 628:..\..\..\lvgl\version_6.1.2\lvgl\src\lv_objx/lv_tabview.c **** }
 2317              		.loc 4 628 0
 2318 0058 1846     		mov	r0, r3
 2319 005a 1837     		adds	r7, r7, #24
 2320              		.cfi_def_cfa_offset 8
 2321 005c BD46     		mov	sp, r7
 2322              		.cfi_def_cfa_register 13
 2323              		@ sp needed
 2324 005e 80BD     		pop	{r7, pc}
 2325              		.cfi_endproc
 2326              	.LFE79:
 2327              		.size	lv_tabview_get_tab, .-lv_tabview_get_tab
 2328              		.section	.text.lv_tabview_get_sliding,"ax",%progbits
 2329              		.align	2
 2330              		.global	lv_tabview_get_sliding
 2331              		.thumb
 2332              		.thumb_func
 2333              		.type	lv_tabview_get_sliding, %function
 2334              	lv_tabview_get_sliding:
 2335              	.LFB80:
 629:..\..\..\lvgl\version_6.1.2\lvgl\src\lv_objx/lv_tabview.c **** 
 630:..\..\..\lvgl\version_6.1.2\lvgl\src\lv_objx/lv_tabview.c **** /**
 631:..\..\..\lvgl\version_6.1.2\lvgl\src\lv_objx/lv_tabview.c ****  * Get horizontal sliding is enabled or not
 632:..\..\..\lvgl\version_6.1.2\lvgl\src\lv_objx/lv_tabview.c ****  * @param tabview pointer to Tab view object
 633:..\..\..\lvgl\version_6.1.2\lvgl\src\lv_objx/lv_tabview.c ****  * @return true: enable sliding; false: disable sliding
 634:..\..\..\lvgl\version_6.1.2\lvgl\src\lv_objx/lv_tabview.c ****  */
 635:..\..\..\lvgl\version_6.1.2\lvgl\src\lv_objx/lv_tabview.c **** bool lv_tabview_get_sliding(const lv_obj_t * tabview)
 636:..\..\..\lvgl\version_6.1.2\lvgl\src\lv_objx/lv_tabview.c **** {
 2336              		.loc 4 636 0
 2337              		.cfi_startproc
 2338              		@ args = 0, pretend = 0, frame = 16
ARM GAS  C:\Users\tmj32\AppData\Local\Temp\cc94ZBZn.s 			page 60


 2339              		@ frame_needed = 1, uses_anonymous_args = 0
 2340 0000 80B5     		push	{r7, lr}
 2341              		.cfi_def_cfa_offset 8
 2342              		.cfi_offset 7, -8
 2343              		.cfi_offset 14, -4
 2344 0002 84B0     		sub	sp, sp, #16
 2345              		.cfi_def_cfa_offset 24
 2346 0004 00AF     		add	r7, sp, #0
 2347              		.cfi_def_cfa_register 7
 2348 0006 7860     		str	r0, [r7, #4]
 637:..\..\..\lvgl\version_6.1.2\lvgl\src\lv_objx/lv_tabview.c ****     LV_ASSERT_OBJ(tabview, LV_OBJX_NAME);
 638:..\..\..\lvgl\version_6.1.2\lvgl\src\lv_objx/lv_tabview.c **** 
 639:..\..\..\lvgl\version_6.1.2\lvgl\src\lv_objx/lv_tabview.c ****     lv_tabview_ext_t * ext = lv_obj_get_ext_attr(tabview);
 2349              		.loc 4 639 0
 2350 0008 7868     		ldr	r0, [r7, #4]
 2351 000a FFF7FEFF 		bl	lv_obj_get_ext_attr
 2352 000e F860     		str	r0, [r7, #12]
 640:..\..\..\lvgl\version_6.1.2\lvgl\src\lv_objx/lv_tabview.c ****     return ext->slide_enable ? true : false;
 2353              		.loc 4 640 0
 2354 0010 FB68     		ldr	r3, [r7, #12]
 2355 0012 9B7E     		ldrb	r3, [r3, #26]	@ zero_extendqisi2
 2356 0014 03F00103 		and	r3, r3, #1
 2357 0018 DBB2     		uxtb	r3, r3
 2358 001a 002B     		cmp	r3, #0
 2359 001c 14BF     		ite	ne
 2360 001e 0123     		movne	r3, #1
 2361 0020 0023     		moveq	r3, #0
 2362 0022 DBB2     		uxtb	r3, r3
 641:..\..\..\lvgl\version_6.1.2\lvgl\src\lv_objx/lv_tabview.c **** }
 2363              		.loc 4 641 0
 2364 0024 1846     		mov	r0, r3
 2365 0026 1037     		adds	r7, r7, #16
 2366              		.cfi_def_cfa_offset 8
 2367 0028 BD46     		mov	sp, r7
 2368              		.cfi_def_cfa_register 13
 2369              		@ sp needed
 2370 002a 80BD     		pop	{r7, pc}
 2371              		.cfi_endproc
 2372              	.LFE80:
 2373              		.size	lv_tabview_get_sliding, .-lv_tabview_get_sliding
 2374              		.section	.text.lv_tabview_get_anim_time,"ax",%progbits
 2375              		.align	2
 2376              		.global	lv_tabview_get_anim_time
 2377              		.thumb
 2378              		.thumb_func
 2379              		.type	lv_tabview_get_anim_time, %function
 2380              	lv_tabview_get_anim_time:
 2381              	.LFB81:
 642:..\..\..\lvgl\version_6.1.2\lvgl\src\lv_objx/lv_tabview.c **** 
 643:..\..\..\lvgl\version_6.1.2\lvgl\src\lv_objx/lv_tabview.c **** /**
 644:..\..\..\lvgl\version_6.1.2\lvgl\src\lv_objx/lv_tabview.c ****  * Get the animation time of tab view when a new tab is loaded
 645:..\..\..\lvgl\version_6.1.2\lvgl\src\lv_objx/lv_tabview.c ****  * @param tabview pointer to Tab view object
 646:..\..\..\lvgl\version_6.1.2\lvgl\src\lv_objx/lv_tabview.c ****  * @return time of animation in milliseconds
 647:..\..\..\lvgl\version_6.1.2\lvgl\src\lv_objx/lv_tabview.c ****  */
 648:..\..\..\lvgl\version_6.1.2\lvgl\src\lv_objx/lv_tabview.c **** uint16_t lv_tabview_get_anim_time(const lv_obj_t * tabview)
 649:..\..\..\lvgl\version_6.1.2\lvgl\src\lv_objx/lv_tabview.c **** {
 2382              		.loc 4 649 0
ARM GAS  C:\Users\tmj32\AppData\Local\Temp\cc94ZBZn.s 			page 61


 2383              		.cfi_startproc
 2384              		@ args = 0, pretend = 0, frame = 16
 2385              		@ frame_needed = 1, uses_anonymous_args = 0
 2386 0000 80B5     		push	{r7, lr}
 2387              		.cfi_def_cfa_offset 8
 2388              		.cfi_offset 7, -8
 2389              		.cfi_offset 14, -4
 2390 0002 84B0     		sub	sp, sp, #16
 2391              		.cfi_def_cfa_offset 24
 2392 0004 00AF     		add	r7, sp, #0
 2393              		.cfi_def_cfa_register 7
 2394 0006 7860     		str	r0, [r7, #4]
 650:..\..\..\lvgl\version_6.1.2\lvgl\src\lv_objx/lv_tabview.c ****     LV_ASSERT_OBJ(tabview, LV_OBJX_NAME);
 651:..\..\..\lvgl\version_6.1.2\lvgl\src\lv_objx/lv_tabview.c **** 
 652:..\..\..\lvgl\version_6.1.2\lvgl\src\lv_objx/lv_tabview.c **** #if LV_USE_ANIMATION
 653:..\..\..\lvgl\version_6.1.2\lvgl\src\lv_objx/lv_tabview.c ****     lv_tabview_ext_t * ext = lv_obj_get_ext_attr(tabview);
 2395              		.loc 4 653 0
 2396 0008 7868     		ldr	r0, [r7, #4]
 2397 000a FFF7FEFF 		bl	lv_obj_get_ext_attr
 2398 000e F860     		str	r0, [r7, #12]
 654:..\..\..\lvgl\version_6.1.2\lvgl\src\lv_objx/lv_tabview.c ****     return ext->anim_time;
 2399              		.loc 4 654 0
 2400 0010 FB68     		ldr	r3, [r7, #12]
 2401 0012 1B8B     		ldrh	r3, [r3, #24]
 655:..\..\..\lvgl\version_6.1.2\lvgl\src\lv_objx/lv_tabview.c **** #else
 656:..\..\..\lvgl\version_6.1.2\lvgl\src\lv_objx/lv_tabview.c ****     (void)tabview;
 657:..\..\..\lvgl\version_6.1.2\lvgl\src\lv_objx/lv_tabview.c ****     return 0;
 658:..\..\..\lvgl\version_6.1.2\lvgl\src\lv_objx/lv_tabview.c **** #endif
 659:..\..\..\lvgl\version_6.1.2\lvgl\src\lv_objx/lv_tabview.c **** }
 2402              		.loc 4 659 0
 2403 0014 1846     		mov	r0, r3
 2404 0016 1037     		adds	r7, r7, #16
 2405              		.cfi_def_cfa_offset 8
 2406 0018 BD46     		mov	sp, r7
 2407              		.cfi_def_cfa_register 13
 2408              		@ sp needed
 2409 001a 80BD     		pop	{r7, pc}
 2410              		.cfi_endproc
 2411              	.LFE81:
 2412              		.size	lv_tabview_get_anim_time, .-lv_tabview_get_anim_time
 2413              		.section	.text.lv_tabview_get_style,"ax",%progbits
 2414              		.align	2
 2415              		.global	lv_tabview_get_style
 2416              		.thumb
 2417              		.thumb_func
 2418              		.type	lv_tabview_get_style, %function
 2419              	lv_tabview_get_style:
 2420              	.LFB82:
 660:..\..\..\lvgl\version_6.1.2\lvgl\src\lv_objx/lv_tabview.c **** 
 661:..\..\..\lvgl\version_6.1.2\lvgl\src\lv_objx/lv_tabview.c **** /**
 662:..\..\..\lvgl\version_6.1.2\lvgl\src\lv_objx/lv_tabview.c ****  * Get a style of a tab view
 663:..\..\..\lvgl\version_6.1.2\lvgl\src\lv_objx/lv_tabview.c ****  * @param tabview pointer to a ab view object
 664:..\..\..\lvgl\version_6.1.2\lvgl\src\lv_objx/lv_tabview.c ****  * @param type which style should be get
 665:..\..\..\lvgl\version_6.1.2\lvgl\src\lv_objx/lv_tabview.c ****  * @return style pointer to a style
 666:..\..\..\lvgl\version_6.1.2\lvgl\src\lv_objx/lv_tabview.c ****  */
 667:..\..\..\lvgl\version_6.1.2\lvgl\src\lv_objx/lv_tabview.c **** const lv_style_t * lv_tabview_get_style(const lv_obj_t * tabview, lv_tabview_style_t type)
 668:..\..\..\lvgl\version_6.1.2\lvgl\src\lv_objx/lv_tabview.c **** {
ARM GAS  C:\Users\tmj32\AppData\Local\Temp\cc94ZBZn.s 			page 62


 2421              		.loc 4 668 0
 2422              		.cfi_startproc
 2423              		@ args = 0, pretend = 0, frame = 16
 2424              		@ frame_needed = 1, uses_anonymous_args = 0
 2425 0000 80B5     		push	{r7, lr}
 2426              		.cfi_def_cfa_offset 8
 2427              		.cfi_offset 7, -8
 2428              		.cfi_offset 14, -4
 2429 0002 84B0     		sub	sp, sp, #16
 2430              		.cfi_def_cfa_offset 24
 2431 0004 00AF     		add	r7, sp, #0
 2432              		.cfi_def_cfa_register 7
 2433 0006 7860     		str	r0, [r7, #4]
 2434 0008 0B46     		mov	r3, r1
 2435 000a FB70     		strb	r3, [r7, #3]
 669:..\..\..\lvgl\version_6.1.2\lvgl\src\lv_objx/lv_tabview.c ****     LV_ASSERT_OBJ(tabview, LV_OBJX_NAME);
 670:..\..\..\lvgl\version_6.1.2\lvgl\src\lv_objx/lv_tabview.c **** 
 671:..\..\..\lvgl\version_6.1.2\lvgl\src\lv_objx/lv_tabview.c ****     const lv_style_t * style = NULL;
 2436              		.loc 4 671 0
 2437 000c 0023     		movs	r3, #0
 2438 000e FB60     		str	r3, [r7, #12]
 672:..\..\..\lvgl\version_6.1.2\lvgl\src\lv_objx/lv_tabview.c ****     lv_tabview_ext_t * ext   = lv_obj_get_ext_attr(tabview);
 2439              		.loc 4 672 0
 2440 0010 7868     		ldr	r0, [r7, #4]
 2441 0012 FFF7FEFF 		bl	lv_obj_get_ext_attr
 2442 0016 B860     		str	r0, [r7, #8]
 673:..\..\..\lvgl\version_6.1.2\lvgl\src\lv_objx/lv_tabview.c **** 
 674:..\..\..\lvgl\version_6.1.2\lvgl\src\lv_objx/lv_tabview.c ****     switch(type) {
 2443              		.loc 4 674 0
 2444 0018 FB78     		ldrb	r3, [r7, #3]	@ zero_extendqisi2
 2445 001a 062B     		cmp	r3, #6
 2446 001c 3DD8     		bhi	.L119
 2447 001e 01A2     		adr	r2, .L121
 2448 0020 52F823F0 		ldr	pc, [r2, r3, lsl #2]
 2449              		.p2align 2
 2450              	.L121:
 2451 0024 41000000 		.word	.L120+1
 2452 0028 9B000000 		.word	.L119+1
 2453 002c 4B000000 		.word	.L122+1
 2454 0030 5B000000 		.word	.L123+1
 2455 0034 6B000000 		.word	.L124+1
 2456 0038 7B000000 		.word	.L125+1
 2457 003c 8B000000 		.word	.L126+1
 2458              		.p2align 1
 2459              	.L120:
 675:..\..\..\lvgl\version_6.1.2\lvgl\src\lv_objx/lv_tabview.c ****         case LV_TABVIEW_STYLE_BG: style = lv_obj_get_style(tabview); break;
 2460              		.loc 4 675 0
 2461 0040 7868     		ldr	r0, [r7, #4]
 2462 0042 FFF7FEFF 		bl	lv_obj_get_style
 2463 0046 F860     		str	r0, [r7, #12]
 2464 0048 2AE0     		b	.L127
 2465              	.L122:
 676:..\..\..\lvgl\version_6.1.2\lvgl\src\lv_objx/lv_tabview.c ****         case LV_TABVIEW_STYLE_BTN_BG: style = lv_btnm_get_style(ext->btns, LV_BTNM_STYLE_BG); break
 2466              		.loc 4 676 0
 2467 004a BB68     		ldr	r3, [r7, #8]
 2468 004c 1B68     		ldr	r3, [r3]
 2469 004e 0021     		movs	r1, #0
ARM GAS  C:\Users\tmj32\AppData\Local\Temp\cc94ZBZn.s 			page 63


 2470 0050 1846     		mov	r0, r3
 2471 0052 FFF7FEFF 		bl	lv_btnm_get_style
 2472 0056 F860     		str	r0, [r7, #12]
 2473 0058 22E0     		b	.L127
 2474              	.L123:
 677:..\..\..\lvgl\version_6.1.2\lvgl\src\lv_objx/lv_tabview.c ****         case LV_TABVIEW_STYLE_BTN_REL: style = lv_btnm_get_style(ext->btns, LV_BTNM_STYLE_BTN_REL);
 2475              		.loc 4 677 0
 2476 005a BB68     		ldr	r3, [r7, #8]
 2477 005c 1B68     		ldr	r3, [r3]
 2478 005e 0121     		movs	r1, #1
 2479 0060 1846     		mov	r0, r3
 2480 0062 FFF7FEFF 		bl	lv_btnm_get_style
 2481 0066 F860     		str	r0, [r7, #12]
 2482 0068 1AE0     		b	.L127
 2483              	.L124:
 678:..\..\..\lvgl\version_6.1.2\lvgl\src\lv_objx/lv_tabview.c ****         case LV_TABVIEW_STYLE_BTN_PR: style = lv_btnm_get_style(ext->btns, LV_BTNM_STYLE_BTN_PR); b
 2484              		.loc 4 678 0
 2485 006a BB68     		ldr	r3, [r7, #8]
 2486 006c 1B68     		ldr	r3, [r3]
 2487 006e 0221     		movs	r1, #2
 2488 0070 1846     		mov	r0, r3
 2489 0072 FFF7FEFF 		bl	lv_btnm_get_style
 2490 0076 F860     		str	r0, [r7, #12]
 2491 0078 12E0     		b	.L127
 2492              	.L125:
 679:..\..\..\lvgl\version_6.1.2\lvgl\src\lv_objx/lv_tabview.c ****         case LV_TABVIEW_STYLE_BTN_TGL_REL: style = lv_btnm_get_style(ext->btns, LV_BTNM_STYLE_BTN_T
 2493              		.loc 4 679 0
 2494 007a BB68     		ldr	r3, [r7, #8]
 2495 007c 1B68     		ldr	r3, [r3]
 2496 007e 0321     		movs	r1, #3
 2497 0080 1846     		mov	r0, r3
 2498 0082 FFF7FEFF 		bl	lv_btnm_get_style
 2499 0086 F860     		str	r0, [r7, #12]
 2500 0088 0AE0     		b	.L127
 2501              	.L126:
 680:..\..\..\lvgl\version_6.1.2\lvgl\src\lv_objx/lv_tabview.c ****         case LV_TABVIEW_STYLE_BTN_TGL_PR: style = lv_btnm_get_style(ext->btns, LV_BTNM_STYLE_BTN_TG
 2502              		.loc 4 680 0
 2503 008a BB68     		ldr	r3, [r7, #8]
 2504 008c 1B68     		ldr	r3, [r3]
 2505 008e 0421     		movs	r1, #4
 2506 0090 1846     		mov	r0, r3
 2507 0092 FFF7FEFF 		bl	lv_btnm_get_style
 2508 0096 F860     		str	r0, [r7, #12]
 2509 0098 02E0     		b	.L127
 2510              	.L119:
 681:..\..\..\lvgl\version_6.1.2\lvgl\src\lv_objx/lv_tabview.c ****         default: style = NULL; break;
 2511              		.loc 4 681 0
 2512 009a 0023     		movs	r3, #0
 2513 009c FB60     		str	r3, [r7, #12]
 2514 009e 00BF     		nop
 2515              	.L127:
 682:..\..\..\lvgl\version_6.1.2\lvgl\src\lv_objx/lv_tabview.c ****     }
 683:..\..\..\lvgl\version_6.1.2\lvgl\src\lv_objx/lv_tabview.c **** 
 684:..\..\..\lvgl\version_6.1.2\lvgl\src\lv_objx/lv_tabview.c ****     return style;
 2516              		.loc 4 684 0
 2517 00a0 FB68     		ldr	r3, [r7, #12]
 685:..\..\..\lvgl\version_6.1.2\lvgl\src\lv_objx/lv_tabview.c **** }
ARM GAS  C:\Users\tmj32\AppData\Local\Temp\cc94ZBZn.s 			page 64


 2518              		.loc 4 685 0
 2519 00a2 1846     		mov	r0, r3
 2520 00a4 1037     		adds	r7, r7, #16
 2521              		.cfi_def_cfa_offset 8
 2522 00a6 BD46     		mov	sp, r7
 2523              		.cfi_def_cfa_register 13
 2524              		@ sp needed
 2525 00a8 80BD     		pop	{r7, pc}
 2526              		.cfi_endproc
 2527              	.LFE82:
 2528              		.size	lv_tabview_get_style, .-lv_tabview_get_style
 2529 00aa 00BF     		.section	.text.lv_tabview_get_btns_pos,"ax",%progbits
 2530              		.align	2
 2531              		.global	lv_tabview_get_btns_pos
 2532              		.thumb
 2533              		.thumb_func
 2534              		.type	lv_tabview_get_btns_pos, %function
 2535              	lv_tabview_get_btns_pos:
 2536              	.LFB83:
 686:..\..\..\lvgl\version_6.1.2\lvgl\src\lv_objx/lv_tabview.c **** 
 687:..\..\..\lvgl\version_6.1.2\lvgl\src\lv_objx/lv_tabview.c **** /**
 688:..\..\..\lvgl\version_6.1.2\lvgl\src\lv_objx/lv_tabview.c ****  * Get position of tab select buttons
 689:..\..\..\lvgl\version_6.1.2\lvgl\src\lv_objx/lv_tabview.c ****  * @param tabview pointer to a ab view object
 690:..\..\..\lvgl\version_6.1.2\lvgl\src\lv_objx/lv_tabview.c ****  */
 691:..\..\..\lvgl\version_6.1.2\lvgl\src\lv_objx/lv_tabview.c **** lv_tabview_btns_pos_t lv_tabview_get_btns_pos(const lv_obj_t * tabview)
 692:..\..\..\lvgl\version_6.1.2\lvgl\src\lv_objx/lv_tabview.c **** {
 2537              		.loc 4 692 0
 2538              		.cfi_startproc
 2539              		@ args = 0, pretend = 0, frame = 16
 2540              		@ frame_needed = 1, uses_anonymous_args = 0
 2541 0000 80B5     		push	{r7, lr}
 2542              		.cfi_def_cfa_offset 8
 2543              		.cfi_offset 7, -8
 2544              		.cfi_offset 14, -4
 2545 0002 84B0     		sub	sp, sp, #16
 2546              		.cfi_def_cfa_offset 24
 2547 0004 00AF     		add	r7, sp, #0
 2548              		.cfi_def_cfa_register 7
 2549 0006 7860     		str	r0, [r7, #4]
 693:..\..\..\lvgl\version_6.1.2\lvgl\src\lv_objx/lv_tabview.c ****     LV_ASSERT_OBJ(tabview, LV_OBJX_NAME);
 694:..\..\..\lvgl\version_6.1.2\lvgl\src\lv_objx/lv_tabview.c **** 
 695:..\..\..\lvgl\version_6.1.2\lvgl\src\lv_objx/lv_tabview.c ****     lv_tabview_ext_t * ext = lv_obj_get_ext_attr(tabview);
 2550              		.loc 4 695 0
 2551 0008 7868     		ldr	r0, [r7, #4]
 2552 000a FFF7FEFF 		bl	lv_obj_get_ext_attr
 2553 000e F860     		str	r0, [r7, #12]
 696:..\..\..\lvgl\version_6.1.2\lvgl\src\lv_objx/lv_tabview.c ****     return ext->btns_pos;
 2554              		.loc 4 696 0
 2555 0010 FB68     		ldr	r3, [r7, #12]
 2556 0012 9B7E     		ldrb	r3, [r3, #26]
 2557 0014 C3F34113 		ubfx	r3, r3, #5, #2
 2558 0018 DBB2     		uxtb	r3, r3
 697:..\..\..\lvgl\version_6.1.2\lvgl\src\lv_objx/lv_tabview.c **** }
 2559              		.loc 4 697 0
 2560 001a 1846     		mov	r0, r3
 2561 001c 1037     		adds	r7, r7, #16
 2562              		.cfi_def_cfa_offset 8
ARM GAS  C:\Users\tmj32\AppData\Local\Temp\cc94ZBZn.s 			page 65


 2563 001e BD46     		mov	sp, r7
 2564              		.cfi_def_cfa_register 13
 2565              		@ sp needed
 2566 0020 80BD     		pop	{r7, pc}
 2567              		.cfi_endproc
 2568              	.LFE83:
 2569              		.size	lv_tabview_get_btns_pos, .-lv_tabview_get_btns_pos
 2570 0022 00BF     		.section	.text.lv_tabview_get_btns_hidden,"ax",%progbits
 2571              		.align	2
 2572              		.global	lv_tabview_get_btns_hidden
 2573              		.thumb
 2574              		.thumb_func
 2575              		.type	lv_tabview_get_btns_hidden, %function
 2576              	lv_tabview_get_btns_hidden:
 2577              	.LFB84:
 698:..\..\..\lvgl\version_6.1.2\lvgl\src\lv_objx/lv_tabview.c **** 
 699:..\..\..\lvgl\version_6.1.2\lvgl\src\lv_objx/lv_tabview.c **** /**
 700:..\..\..\lvgl\version_6.1.2\lvgl\src\lv_objx/lv_tabview.c ****  * Get whether tab buttons are hidden
 701:..\..\..\lvgl\version_6.1.2\lvgl\src\lv_objx/lv_tabview.c ****  * @param tabview pointer to a tab view object
 702:..\..\..\lvgl\version_6.1.2\lvgl\src\lv_objx/lv_tabview.c ****  * @return whether tab buttons are hidden
 703:..\..\..\lvgl\version_6.1.2\lvgl\src\lv_objx/lv_tabview.c ****  */
 704:..\..\..\lvgl\version_6.1.2\lvgl\src\lv_objx/lv_tabview.c **** bool lv_tabview_get_btns_hidden(const lv_obj_t * tabview)
 705:..\..\..\lvgl\version_6.1.2\lvgl\src\lv_objx/lv_tabview.c **** {
 2578              		.loc 4 705 0
 2579              		.cfi_startproc
 2580              		@ args = 0, pretend = 0, frame = 16
 2581              		@ frame_needed = 1, uses_anonymous_args = 0
 2582 0000 80B5     		push	{r7, lr}
 2583              		.cfi_def_cfa_offset 8
 2584              		.cfi_offset 7, -8
 2585              		.cfi_offset 14, -4
 2586 0002 84B0     		sub	sp, sp, #16
 2587              		.cfi_def_cfa_offset 24
 2588 0004 00AF     		add	r7, sp, #0
 2589              		.cfi_def_cfa_register 7
 2590 0006 7860     		str	r0, [r7, #4]
 706:..\..\..\lvgl\version_6.1.2\lvgl\src\lv_objx/lv_tabview.c ****     LV_ASSERT_OBJ(tabview, LV_OBJX_NAME);
 707:..\..\..\lvgl\version_6.1.2\lvgl\src\lv_objx/lv_tabview.c **** 
 708:..\..\..\lvgl\version_6.1.2\lvgl\src\lv_objx/lv_tabview.c ****     lv_tabview_ext_t * ext = lv_obj_get_ext_attr(tabview);
 2591              		.loc 4 708 0
 2592 0008 7868     		ldr	r0, [r7, #4]
 2593 000a FFF7FEFF 		bl	lv_obj_get_ext_attr
 2594 000e F860     		str	r0, [r7, #12]
 709:..\..\..\lvgl\version_6.1.2\lvgl\src\lv_objx/lv_tabview.c **** 
 710:..\..\..\lvgl\version_6.1.2\lvgl\src\lv_objx/lv_tabview.c ****     return ext->btns_hide;
 2595              		.loc 4 710 0
 2596 0010 FB68     		ldr	r3, [r7, #12]
 2597 0012 9B7E     		ldrb	r3, [r3, #26]
 2598 0014 C3F30013 		ubfx	r3, r3, #4, #1
 2599 0018 DBB2     		uxtb	r3, r3
 2600 001a 002B     		cmp	r3, #0
 2601 001c 14BF     		ite	ne
 2602 001e 0123     		movne	r3, #1
 2603 0020 0023     		moveq	r3, #0
 2604 0022 DBB2     		uxtb	r3, r3
 711:..\..\..\lvgl\version_6.1.2\lvgl\src\lv_objx/lv_tabview.c **** }
 2605              		.loc 4 711 0
ARM GAS  C:\Users\tmj32\AppData\Local\Temp\cc94ZBZn.s 			page 66


 2606 0024 1846     		mov	r0, r3
 2607 0026 1037     		adds	r7, r7, #16
 2608              		.cfi_def_cfa_offset 8
 2609 0028 BD46     		mov	sp, r7
 2610              		.cfi_def_cfa_register 13
 2611              		@ sp needed
 2612 002a 80BD     		pop	{r7, pc}
 2613              		.cfi_endproc
 2614              	.LFE84:
 2615              		.size	lv_tabview_get_btns_hidden, .-lv_tabview_get_btns_hidden
 2616              		.section	.rodata
 2617 0006 0000     		.align	2
 2618              	.LC2:
 2619 0008 6C765F74 		.ascii	"lv_tabview\000"
 2619      61627669 
 2619      657700
 2620              		.section	.text.lv_tabview_signal,"ax",%progbits
 2621              		.align	2
 2622              		.thumb
 2623              		.thumb_func
 2624              		.type	lv_tabview_signal, %function
 2625              	lv_tabview_signal:
 2626              	.LFB85:
 712:..\..\..\lvgl\version_6.1.2\lvgl\src\lv_objx/lv_tabview.c **** 
 713:..\..\..\lvgl\version_6.1.2\lvgl\src\lv_objx/lv_tabview.c **** /**********************
 714:..\..\..\lvgl\version_6.1.2\lvgl\src\lv_objx/lv_tabview.c ****  *   STATIC FUNCTIONS
 715:..\..\..\lvgl\version_6.1.2\lvgl\src\lv_objx/lv_tabview.c ****  **********************/
 716:..\..\..\lvgl\version_6.1.2\lvgl\src\lv_objx/lv_tabview.c **** 
 717:..\..\..\lvgl\version_6.1.2\lvgl\src\lv_objx/lv_tabview.c **** /**
 718:..\..\..\lvgl\version_6.1.2\lvgl\src\lv_objx/lv_tabview.c ****  * Signal function of the Tab view
 719:..\..\..\lvgl\version_6.1.2\lvgl\src\lv_objx/lv_tabview.c ****  * @param tabview pointer to a Tab view object
 720:..\..\..\lvgl\version_6.1.2\lvgl\src\lv_objx/lv_tabview.c ****  * @param sign a signal type from lv_signal_t enum
 721:..\..\..\lvgl\version_6.1.2\lvgl\src\lv_objx/lv_tabview.c ****  * @param param pointer to a signal specific variable
 722:..\..\..\lvgl\version_6.1.2\lvgl\src\lv_objx/lv_tabview.c ****  * @return LV_RES_OK: the object is not deleted in the function; LV_RES_INV: the object is deleted
 723:..\..\..\lvgl\version_6.1.2\lvgl\src\lv_objx/lv_tabview.c ****  */
 724:..\..\..\lvgl\version_6.1.2\lvgl\src\lv_objx/lv_tabview.c **** static lv_res_t lv_tabview_signal(lv_obj_t * tabview, lv_signal_t sign, void * param)
 725:..\..\..\lvgl\version_6.1.2\lvgl\src\lv_objx/lv_tabview.c **** {
 2627              		.loc 4 725 0
 2628              		.cfi_startproc
 2629              		@ args = 0, pretend = 0, frame = 32
 2630              		@ frame_needed = 1, uses_anonymous_args = 0
 2631 0000 90B5     		push	{r4, r7, lr}
 2632              		.cfi_def_cfa_offset 12
 2633              		.cfi_offset 4, -12
 2634              		.cfi_offset 7, -8
 2635              		.cfi_offset 14, -4
 2636 0002 89B0     		sub	sp, sp, #36
 2637              		.cfi_def_cfa_offset 48
 2638 0004 00AF     		add	r7, sp, #0
 2639              		.cfi_def_cfa_register 7
 2640 0006 F860     		str	r0, [r7, #12]
 2641 0008 0B46     		mov	r3, r1
 2642 000a 7A60     		str	r2, [r7, #4]
 2643 000c FB72     		strb	r3, [r7, #11]
 726:..\..\..\lvgl\version_6.1.2\lvgl\src\lv_objx/lv_tabview.c ****     lv_res_t res;
 727:..\..\..\lvgl\version_6.1.2\lvgl\src\lv_objx/lv_tabview.c **** 
 728:..\..\..\lvgl\version_6.1.2\lvgl\src\lv_objx/lv_tabview.c ****     /* Include the ancient signal function */
ARM GAS  C:\Users\tmj32\AppData\Local\Temp\cc94ZBZn.s 			page 67


 729:..\..\..\lvgl\version_6.1.2\lvgl\src\lv_objx/lv_tabview.c ****     res = ancestor_signal(tabview, sign, param);
 2644              		.loc 4 729 0
 2645 000e 574B     		ldr	r3, .L150
 2646 0010 1B68     		ldr	r3, [r3]
 2647 0012 F97A     		ldrb	r1, [r7, #11]	@ zero_extendqisi2
 2648 0014 7A68     		ldr	r2, [r7, #4]
 2649 0016 F868     		ldr	r0, [r7, #12]
 2650 0018 9847     		blx	r3
 2651 001a 0346     		mov	r3, r0
 2652 001c 7B77     		strb	r3, [r7, #29]
 730:..\..\..\lvgl\version_6.1.2\lvgl\src\lv_objx/lv_tabview.c ****     if(res != LV_RES_OK) return res;
 2653              		.loc 4 730 0
 2654 001e 7B7F     		ldrb	r3, [r7, #29]	@ zero_extendqisi2
 2655 0020 012B     		cmp	r3, #1
 2656 0022 01D0     		beq	.L134
 2657              		.loc 4 730 0 is_stmt 0 discriminator 1
 2658 0024 7B7F     		ldrb	r3, [r7, #29]	@ zero_extendqisi2
 2659 0026 9DE0     		b	.L135
 2660              	.L134:
 731:..\..\..\lvgl\version_6.1.2\lvgl\src\lv_objx/lv_tabview.c ****     if(sign == LV_SIGNAL_GET_TYPE) return lv_obj_handle_get_type_signal(param, LV_OBJX_NAME);
 2661              		.loc 4 731 0 is_stmt 1
 2662 0028 FB7A     		ldrb	r3, [r7, #11]	@ zero_extendqisi2
 2663 002a 072B     		cmp	r3, #7
 2664 002c 05D1     		bne	.L136
 2665              		.loc 4 731 0 is_stmt 0 discriminator 1
 2666 002e 5049     		ldr	r1, .L150+4
 2667 0030 7868     		ldr	r0, [r7, #4]
 2668 0032 FFF7FEFF 		bl	lv_obj_handle_get_type_signal
 2669 0036 0346     		mov	r3, r0
 2670 0038 94E0     		b	.L135
 2671              	.L136:
 732:..\..\..\lvgl\version_6.1.2\lvgl\src\lv_objx/lv_tabview.c **** 
 733:..\..\..\lvgl\version_6.1.2\lvgl\src\lv_objx/lv_tabview.c ****     lv_tabview_ext_t * ext = lv_obj_get_ext_attr(tabview);
 2672              		.loc 4 733 0 is_stmt 1
 2673 003a F868     		ldr	r0, [r7, #12]
 2674 003c FFF7FEFF 		bl	lv_obj_get_ext_attr
 2675 0040 B861     		str	r0, [r7, #24]
 734:..\..\..\lvgl\version_6.1.2\lvgl\src\lv_objx/lv_tabview.c ****     if(sign == LV_SIGNAL_CLEANUP) {
 2676              		.loc 4 734 0
 2677 0042 FB7A     		ldrb	r3, [r7, #11]	@ zero_extendqisi2
 2678 0044 002B     		cmp	r3, #0
 2679 0046 26D1     		bne	.L137
 2680              	.LBB7:
 735:..\..\..\lvgl\version_6.1.2\lvgl\src\lv_objx/lv_tabview.c ****         uint8_t i;
 736:..\..\..\lvgl\version_6.1.2\lvgl\src\lv_objx/lv_tabview.c ****         for(i = 0; ext->tab_name_ptr[i][0] != '\0'; i++) lv_mem_free(ext->tab_name_ptr[i]);
 2681              		.loc 4 736 0
 2682 0048 0023     		movs	r3, #0
 2683 004a FB77     		strb	r3, [r7, #31]
 2684 004c 0BE0     		b	.L138
 2685              	.L139:
 2686              		.loc 4 736 0 is_stmt 0 discriminator 3
 2687 004e BB69     		ldr	r3, [r7, #24]
 2688 0050 DA68     		ldr	r2, [r3, #12]
 2689 0052 FB7F     		ldrb	r3, [r7, #31]	@ zero_extendqisi2
 2690 0054 9B00     		lsls	r3, r3, #2
 2691 0056 1344     		add	r3, r3, r2
 2692 0058 1B68     		ldr	r3, [r3]
ARM GAS  C:\Users\tmj32\AppData\Local\Temp\cc94ZBZn.s 			page 68


 2693 005a 1846     		mov	r0, r3
 2694 005c FFF7FEFF 		bl	lv_mem_free
 2695 0060 FB7F     		ldrb	r3, [r7, #31]	@ zero_extendqisi2
 2696 0062 0133     		adds	r3, r3, #1
 2697 0064 FB77     		strb	r3, [r7, #31]
 2698              	.L138:
 2699              		.loc 4 736 0 discriminator 1
 2700 0066 BB69     		ldr	r3, [r7, #24]
 2701 0068 DA68     		ldr	r2, [r3, #12]
 2702 006a FB7F     		ldrb	r3, [r7, #31]	@ zero_extendqisi2
 2703 006c 9B00     		lsls	r3, r3, #2
 2704 006e 1344     		add	r3, r3, r2
 2705 0070 1B68     		ldr	r3, [r3]
 2706 0072 1B78     		ldrb	r3, [r3]	@ zero_extendqisi2
 2707 0074 002B     		cmp	r3, #0
 2708 0076 EAD1     		bne	.L139
 737:..\..\..\lvgl\version_6.1.2\lvgl\src\lv_objx/lv_tabview.c **** 
 738:..\..\..\lvgl\version_6.1.2\lvgl\src\lv_objx/lv_tabview.c ****         lv_mem_free(ext->tab_name_ptr);
 2709              		.loc 4 738 0 is_stmt 1
 2710 0078 BB69     		ldr	r3, [r7, #24]
 2711 007a DB68     		ldr	r3, [r3, #12]
 2712 007c 1846     		mov	r0, r3
 2713 007e FFF7FEFF 		bl	lv_mem_free
 739:..\..\..\lvgl\version_6.1.2\lvgl\src\lv_objx/lv_tabview.c ****         ext->tab_name_ptr = NULL;
 2714              		.loc 4 739 0
 2715 0082 BB69     		ldr	r3, [r7, #24]
 2716 0084 0022     		movs	r2, #0
 2717 0086 DA60     		str	r2, [r3, #12]
 740:..\..\..\lvgl\version_6.1.2\lvgl\src\lv_objx/lv_tabview.c ****         ext->btns         = NULL; /*These objects were children so they are already invalid*/
 2718              		.loc 4 740 0
 2719 0088 BB69     		ldr	r3, [r7, #24]
 2720 008a 0022     		movs	r2, #0
 2721 008c 1A60     		str	r2, [r3]
 741:..\..\..\lvgl\version_6.1.2\lvgl\src\lv_objx/lv_tabview.c ****         ext->content      = NULL;
 2722              		.loc 4 741 0
 2723 008e BB69     		ldr	r3, [r7, #24]
 2724 0090 0022     		movs	r2, #0
 2725 0092 9A60     		str	r2, [r3, #8]
 2726              	.LBE7:
 2727 0094 65E0     		b	.L140
 2728              	.L137:
 742:..\..\..\lvgl\version_6.1.2\lvgl\src\lv_objx/lv_tabview.c ****     } else if(sign == LV_SIGNAL_CORD_CHG) {
 2729              		.loc 4 742 0
 2730 0096 FB7A     		ldrb	r3, [r7, #11]	@ zero_extendqisi2
 2731 0098 022B     		cmp	r3, #2
 2732 009a 1DD1     		bne	.L141
 743:..\..\..\lvgl\version_6.1.2\lvgl\src\lv_objx/lv_tabview.c ****         if(ext->content != NULL && (lv_obj_get_width(tabview) != lv_area_get_width(param) ||
 2733              		.loc 4 743 0
 2734 009c BB69     		ldr	r3, [r7, #24]
 2735 009e 9B68     		ldr	r3, [r3, #8]
 2736 00a0 002B     		cmp	r3, #0
 2737 00a2 5ED0     		beq	.L140
 2738              		.loc 4 743 0 is_stmt 0 discriminator 1
 2739 00a4 F868     		ldr	r0, [r7, #12]
 2740 00a6 FFF7FEFF 		bl	lv_obj_get_width
 2741 00aa 0346     		mov	r3, r0
 2742 00ac 1C46     		mov	r4, r3
ARM GAS  C:\Users\tmj32\AppData\Local\Temp\cc94ZBZn.s 			page 69


 2743 00ae 7868     		ldr	r0, [r7, #4]
 2744 00b0 FFF7FEFF 		bl	lv_area_get_width
 2745 00b4 0346     		mov	r3, r0
 2746 00b6 9C42     		cmp	r4, r3
 2747 00b8 0AD1     		bne	.L143
 744:..\..\..\lvgl\version_6.1.2\lvgl\src\lv_objx/lv_tabview.c ****                                     lv_obj_get_height(tabview) != lv_area_get_height(param))) {
 2748              		.loc 4 744 0 is_stmt 1 discriminator 2
 2749 00ba F868     		ldr	r0, [r7, #12]
 2750 00bc FFF7FEFF 		bl	lv_obj_get_height
 2751 00c0 0346     		mov	r3, r0
 2752 00c2 1C46     		mov	r4, r3
 2753 00c4 7868     		ldr	r0, [r7, #4]
 2754 00c6 FFF7FEFF 		bl	lv_area_get_height
 2755 00ca 0346     		mov	r3, r0
 743:..\..\..\lvgl\version_6.1.2\lvgl\src\lv_objx/lv_tabview.c ****         if(ext->content != NULL && (lv_obj_get_width(tabview) != lv_area_get_width(param) ||
 2756              		.loc 4 743 0 discriminator 2
 2757 00cc 9C42     		cmp	r4, r3
 2758 00ce 48D0     		beq	.L140
 2759              	.L143:
 745:..\..\..\lvgl\version_6.1.2\lvgl\src\lv_objx/lv_tabview.c ****             tabview_realign(tabview);
 2760              		.loc 4 745 0
 2761 00d0 F868     		ldr	r0, [r7, #12]
 2762 00d2 FFF7FEFF 		bl	tabview_realign
 2763 00d6 44E0     		b	.L140
 2764              	.L141:
 746:..\..\..\lvgl\version_6.1.2\lvgl\src\lv_objx/lv_tabview.c ****         }
 747:..\..\..\lvgl\version_6.1.2\lvgl\src\lv_objx/lv_tabview.c ****     } else if(sign == LV_SIGNAL_RELEASED) {
 2765              		.loc 4 747 0
 2766 00d8 FB7A     		ldrb	r3, [r7, #11]	@ zero_extendqisi2
 2767 00da 0B2B     		cmp	r3, #11
 2768 00dc 41D0     		beq	.L140
 748:..\..\..\lvgl\version_6.1.2\lvgl\src\lv_objx/lv_tabview.c **** #if LV_USE_GROUP
 749:..\..\..\lvgl\version_6.1.2\lvgl\src\lv_objx/lv_tabview.c ****         /*If released by a KEYPAD or ENCODER then really the tab buttons should be released.
 750:..\..\..\lvgl\version_6.1.2\lvgl\src\lv_objx/lv_tabview.c ****          * So simulate a CLICK on the tab buttons*/
 751:..\..\..\lvgl\version_6.1.2\lvgl\src\lv_objx/lv_tabview.c ****         lv_indev_t * indev         = lv_indev_get_act();
 752:..\..\..\lvgl\version_6.1.2\lvgl\src\lv_objx/lv_tabview.c ****         lv_indev_type_t indev_type = lv_indev_get_type(indev);
 753:..\..\..\lvgl\version_6.1.2\lvgl\src\lv_objx/lv_tabview.c ****         if(indev_type == LV_INDEV_TYPE_KEYPAD ||
 754:..\..\..\lvgl\version_6.1.2\lvgl\src\lv_objx/lv_tabview.c ****            (indev_type == LV_INDEV_TYPE_ENCODER && lv_group_get_editing(lv_obj_get_group(tabview)))
 755:..\..\..\lvgl\version_6.1.2\lvgl\src\lv_objx/lv_tabview.c ****             lv_event_send(ext->btns, LV_EVENT_CLICKED, lv_event_get_data());
 756:..\..\..\lvgl\version_6.1.2\lvgl\src\lv_objx/lv_tabview.c ****         }
 757:..\..\..\lvgl\version_6.1.2\lvgl\src\lv_objx/lv_tabview.c **** #endif
 758:..\..\..\lvgl\version_6.1.2\lvgl\src\lv_objx/lv_tabview.c ****     } else if(sign == LV_SIGNAL_FOCUS || sign == LV_SIGNAL_DEFOCUS || sign == LV_SIGNAL_CONTROL) {
 2769              		.loc 4 758 0
 2770 00de FB7A     		ldrb	r3, [r7, #11]	@ zero_extendqisi2
 2771 00e0 102B     		cmp	r3, #16
 2772 00e2 05D0     		beq	.L144
 2773              		.loc 4 758 0 is_stmt 0 discriminator 1
 2774 00e4 FB7A     		ldrb	r3, [r7, #11]	@ zero_extendqisi2
 2775 00e6 112B     		cmp	r3, #17
 2776 00e8 02D0     		beq	.L144
 2777              		.loc 4 758 0 discriminator 2
 2778 00ea FB7A     		ldrb	r3, [r7, #11]	@ zero_extendqisi2
 2779 00ec 122B     		cmp	r3, #18
 2780 00ee 2ED1     		bne	.L145
 2781              	.L144:
 759:..\..\..\lvgl\version_6.1.2\lvgl\src\lv_objx/lv_tabview.c ****         /* The button matrix is not in a group (the tab view is in it) but it should handle the
 760:..\..\..\lvgl\version_6.1.2\lvgl\src\lv_objx/lv_tabview.c ****          * group signals. So propagate the related signals to the button matrix manually*/
ARM GAS  C:\Users\tmj32\AppData\Local\Temp\cc94ZBZn.s 			page 70


 761:..\..\..\lvgl\version_6.1.2\lvgl\src\lv_objx/lv_tabview.c ****         if(ext->btns) {
 2782              		.loc 4 761 0 is_stmt 1
 2783 00f0 BB69     		ldr	r3, [r7, #24]
 2784 00f2 1B68     		ldr	r3, [r3]
 2785 00f4 002B     		cmp	r3, #0
 2786 00f6 07D0     		beq	.L146
 762:..\..\..\lvgl\version_6.1.2\lvgl\src\lv_objx/lv_tabview.c ****             ext->btns->signal_cb(ext->btns, sign, param);
 2787              		.loc 4 762 0
 2788 00f8 BB69     		ldr	r3, [r7, #24]
 2789 00fa 1B68     		ldr	r3, [r3]
 2790 00fc DB69     		ldr	r3, [r3, #28]
 2791 00fe BA69     		ldr	r2, [r7, #24]
 2792 0100 1068     		ldr	r0, [r2]
 2793 0102 F97A     		ldrb	r1, [r7, #11]	@ zero_extendqisi2
 2794 0104 7A68     		ldr	r2, [r7, #4]
 2795 0106 9847     		blx	r3
 2796              	.L146:
 763:..\..\..\lvgl\version_6.1.2\lvgl\src\lv_objx/lv_tabview.c ****         }
 764:..\..\..\lvgl\version_6.1.2\lvgl\src\lv_objx/lv_tabview.c **** 
 765:..\..\..\lvgl\version_6.1.2\lvgl\src\lv_objx/lv_tabview.c ****         if(sign == LV_SIGNAL_FOCUS) {
 2797              		.loc 4 765 0
 2798 0108 FB7A     		ldrb	r3, [r7, #11]	@ zero_extendqisi2
 2799 010a 102B     		cmp	r3, #16
 2800 010c 28D1     		bne	.L149
 2801              	.LBB8:
 766:..\..\..\lvgl\version_6.1.2\lvgl\src\lv_objx/lv_tabview.c ****             lv_indev_type_t indev_type = lv_indev_get_type(lv_indev_get_act());
 2802              		.loc 4 766 0
 2803 010e FFF7FEFF 		bl	lv_indev_get_act
 2804 0112 0346     		mov	r3, r0
 2805 0114 1846     		mov	r0, r3
 2806 0116 FFF7FEFF 		bl	lv_indev_get_type
 2807 011a 0346     		mov	r3, r0
 2808 011c BB77     		strb	r3, [r7, #30]
 767:..\..\..\lvgl\version_6.1.2\lvgl\src\lv_objx/lv_tabview.c ****             /*If not focused by an input device assume the last input device*/
 768:..\..\..\lvgl\version_6.1.2\lvgl\src\lv_objx/lv_tabview.c ****             if(indev_type == LV_INDEV_TYPE_NONE) {
 2809              		.loc 4 768 0
 2810 011e BB7F     		ldrb	r3, [r7, #30]	@ zero_extendqisi2
 2811 0120 002B     		cmp	r3, #0
 2812 0122 08D1     		bne	.L148
 769:..\..\..\lvgl\version_6.1.2\lvgl\src\lv_objx/lv_tabview.c ****                 indev_type = lv_indev_get_type(lv_indev_get_next(NULL));
 2813              		.loc 4 769 0
 2814 0124 0020     		movs	r0, #0
 2815 0126 FFF7FEFF 		bl	lv_indev_get_next
 2816 012a 0346     		mov	r3, r0
 2817 012c 1846     		mov	r0, r3
 2818 012e FFF7FEFF 		bl	lv_indev_get_type
 2819 0132 0346     		mov	r3, r0
 2820 0134 BB77     		strb	r3, [r7, #30]
 2821              	.L148:
 770:..\..\..\lvgl\version_6.1.2\lvgl\src\lv_objx/lv_tabview.c ****             }
 771:..\..\..\lvgl\version_6.1.2\lvgl\src\lv_objx/lv_tabview.c **** 
 772:..\..\..\lvgl\version_6.1.2\lvgl\src\lv_objx/lv_tabview.c ****             /*With ENCODER select the first button only in edit mode*/
 773:..\..\..\lvgl\version_6.1.2\lvgl\src\lv_objx/lv_tabview.c ****             if(indev_type == LV_INDEV_TYPE_ENCODER) {
 2822              		.loc 4 773 0
 2823 0136 BB7F     		ldrb	r3, [r7, #30]	@ zero_extendqisi2
 2824 0138 042B     		cmp	r3, #4
 2825 013a 11D0     		beq	.L149
ARM GAS  C:\Users\tmj32\AppData\Local\Temp\cc94ZBZn.s 			page 71


 774:..\..\..\lvgl\version_6.1.2\lvgl\src\lv_objx/lv_tabview.c **** #if LV_USE_GROUP
 775:..\..\..\lvgl\version_6.1.2\lvgl\src\lv_objx/lv_tabview.c ****                 lv_group_t * g = lv_obj_get_group(tabview);
 776:..\..\..\lvgl\version_6.1.2\lvgl\src\lv_objx/lv_tabview.c ****                 if(lv_group_get_editing(g)) {
 777:..\..\..\lvgl\version_6.1.2\lvgl\src\lv_objx/lv_tabview.c ****                     lv_btnm_set_pressed(ext->btns, ext->tab_cur);
 778:..\..\..\lvgl\version_6.1.2\lvgl\src\lv_objx/lv_tabview.c ****                 }
 779:..\..\..\lvgl\version_6.1.2\lvgl\src\lv_objx/lv_tabview.c **** #endif
 780:..\..\..\lvgl\version_6.1.2\lvgl\src\lv_objx/lv_tabview.c ****             } else {
 781:..\..\..\lvgl\version_6.1.2\lvgl\src\lv_objx/lv_tabview.c ****                 lv_btnm_set_pressed(ext->btns, ext->tab_cur);
 2826              		.loc 4 781 0
 2827 013c BB69     		ldr	r3, [r7, #24]
 2828 013e 1A68     		ldr	r2, [r3]
 2829 0140 BB69     		ldr	r3, [r7, #24]
 2830 0142 9B8A     		ldrh	r3, [r3, #20]
 2831 0144 1946     		mov	r1, r3
 2832 0146 1046     		mov	r0, r2
 2833 0148 FFF7FEFF 		bl	lv_btnm_set_pressed
 2834              	.LBE8:
 765:..\..\..\lvgl\version_6.1.2\lvgl\src\lv_objx/lv_tabview.c ****             lv_indev_type_t indev_type = lv_indev_get_type(lv_indev_get_act());
 2835              		.loc 4 765 0
 2836 014c 08E0     		b	.L149
 2837              	.L145:
 782:..\..\..\lvgl\version_6.1.2\lvgl\src\lv_objx/lv_tabview.c ****             }
 783:..\..\..\lvgl\version_6.1.2\lvgl\src\lv_objx/lv_tabview.c ****         }
 784:..\..\..\lvgl\version_6.1.2\lvgl\src\lv_objx/lv_tabview.c ****     } else if(sign == LV_SIGNAL_GET_EDITABLE) {
 2838              		.loc 4 784 0
 2839 014e FB7A     		ldrb	r3, [r7, #11]	@ zero_extendqisi2
 2840 0150 132B     		cmp	r3, #19
 2841 0152 06D1     		bne	.L140
 2842              	.LBB9:
 785:..\..\..\lvgl\version_6.1.2\lvgl\src\lv_objx/lv_tabview.c ****         bool * editable = (bool *)param;
 2843              		.loc 4 785 0
 2844 0154 7B68     		ldr	r3, [r7, #4]
 2845 0156 7B61     		str	r3, [r7, #20]
 786:..\..\..\lvgl\version_6.1.2\lvgl\src\lv_objx/lv_tabview.c ****         *editable       = true;
 2846              		.loc 4 786 0
 2847 0158 7B69     		ldr	r3, [r7, #20]
 2848 015a 0122     		movs	r2, #1
 2849 015c 1A70     		strb	r2, [r3]
 2850 015e 00E0     		b	.L140
 2851              	.L149:
 2852              	.LBE9:
 765:..\..\..\lvgl\version_6.1.2\lvgl\src\lv_objx/lv_tabview.c ****             lv_indev_type_t indev_type = lv_indev_get_type(lv_indev_get_act());
 2853              		.loc 4 765 0
 2854 0160 00BF     		nop
 2855              	.L140:
 787:..\..\..\lvgl\version_6.1.2\lvgl\src\lv_objx/lv_tabview.c ****     }
 788:..\..\..\lvgl\version_6.1.2\lvgl\src\lv_objx/lv_tabview.c **** 
 789:..\..\..\lvgl\version_6.1.2\lvgl\src\lv_objx/lv_tabview.c ****     return res;
 2856              		.loc 4 789 0
 2857 0162 7B7F     		ldrb	r3, [r7, #29]	@ zero_extendqisi2
 2858              	.L135:
 790:..\..\..\lvgl\version_6.1.2\lvgl\src\lv_objx/lv_tabview.c **** }
 2859              		.loc 4 790 0
 2860 0164 1846     		mov	r0, r3
 2861 0166 2437     		adds	r7, r7, #36
 2862              		.cfi_def_cfa_offset 12
 2863 0168 BD46     		mov	sp, r7
ARM GAS  C:\Users\tmj32\AppData\Local\Temp\cc94ZBZn.s 			page 72


 2864              		.cfi_def_cfa_register 13
 2865              		@ sp needed
 2866 016a 90BD     		pop	{r4, r7, pc}
 2867              	.L151:
 2868              		.align	2
 2869              	.L150:
 2870 016c 00000000 		.word	ancestor_signal
 2871 0170 08000000 		.word	.LC2
 2872              		.cfi_endproc
 2873              	.LFE85:
 2874              		.size	lv_tabview_signal, .-lv_tabview_signal
 2875              		.section	.text.tabpage_signal,"ax",%progbits
 2876              		.align	2
 2877              		.thumb
 2878              		.thumb_func
 2879              		.type	tabpage_signal, %function
 2880              	tabpage_signal:
 2881              	.LFB86:
 791:..\..\..\lvgl\version_6.1.2\lvgl\src\lv_objx/lv_tabview.c **** 
 792:..\..\..\lvgl\version_6.1.2\lvgl\src\lv_objx/lv_tabview.c **** /**
 793:..\..\..\lvgl\version_6.1.2\lvgl\src\lv_objx/lv_tabview.c ****  * Signal function of a tab's page
 794:..\..\..\lvgl\version_6.1.2\lvgl\src\lv_objx/lv_tabview.c ****  * @param tab pointer to a tab page object
 795:..\..\..\lvgl\version_6.1.2\lvgl\src\lv_objx/lv_tabview.c ****  * @param sign a signal type from lv_signal_t enum
 796:..\..\..\lvgl\version_6.1.2\lvgl\src\lv_objx/lv_tabview.c ****  * @param param pointer to a signal specific variable
 797:..\..\..\lvgl\version_6.1.2\lvgl\src\lv_objx/lv_tabview.c ****  * @return LV_RES_OK: the object is not deleted in the function; LV_RES_INV: the object is deleted
 798:..\..\..\lvgl\version_6.1.2\lvgl\src\lv_objx/lv_tabview.c ****  */
 799:..\..\..\lvgl\version_6.1.2\lvgl\src\lv_objx/lv_tabview.c **** static lv_res_t tabpage_signal(lv_obj_t * tab_page, lv_signal_t sign, void * param)
 800:..\..\..\lvgl\version_6.1.2\lvgl\src\lv_objx/lv_tabview.c **** {
 2882              		.loc 4 800 0
 2883              		.cfi_startproc
 2884              		@ args = 0, pretend = 0, frame = 32
 2885              		@ frame_needed = 1, uses_anonymous_args = 0
 2886 0000 80B5     		push	{r7, lr}
 2887              		.cfi_def_cfa_offset 8
 2888              		.cfi_offset 7, -8
 2889              		.cfi_offset 14, -4
 2890 0002 88B0     		sub	sp, sp, #32
 2891              		.cfi_def_cfa_offset 40
 2892 0004 00AF     		add	r7, sp, #0
 2893              		.cfi_def_cfa_register 7
 2894 0006 F860     		str	r0, [r7, #12]
 2895 0008 0B46     		mov	r3, r1
 2896 000a 7A60     		str	r2, [r7, #4]
 2897 000c FB72     		strb	r3, [r7, #11]
 801:..\..\..\lvgl\version_6.1.2\lvgl\src\lv_objx/lv_tabview.c ****     lv_res_t res;
 802:..\..\..\lvgl\version_6.1.2\lvgl\src\lv_objx/lv_tabview.c **** 
 803:..\..\..\lvgl\version_6.1.2\lvgl\src\lv_objx/lv_tabview.c ****     /* Include the ancient signal function */
 804:..\..\..\lvgl\version_6.1.2\lvgl\src\lv_objx/lv_tabview.c ****     res = page_signal(tab_page, sign, param);
 2898              		.loc 4 804 0
 2899 000e 244B     		ldr	r3, .L161
 2900 0010 1B68     		ldr	r3, [r3]
 2901 0012 F97A     		ldrb	r1, [r7, #11]	@ zero_extendqisi2
 2902 0014 7A68     		ldr	r2, [r7, #4]
 2903 0016 F868     		ldr	r0, [r7, #12]
 2904 0018 9847     		blx	r3
 2905 001a 0346     		mov	r3, r0
 2906 001c FB77     		strb	r3, [r7, #31]
ARM GAS  C:\Users\tmj32\AppData\Local\Temp\cc94ZBZn.s 			page 73


 805:..\..\..\lvgl\version_6.1.2\lvgl\src\lv_objx/lv_tabview.c ****     if(res != LV_RES_OK) return res;
 2907              		.loc 4 805 0
 2908 001e FB7F     		ldrb	r3, [r7, #31]	@ zero_extendqisi2
 2909 0020 012B     		cmp	r3, #1
 2910 0022 01D0     		beq	.L153
 2911              		.loc 4 805 0 is_stmt 0 discriminator 1
 2912 0024 FB7F     		ldrb	r3, [r7, #31]	@ zero_extendqisi2
 2913 0026 36E0     		b	.L154
 2914              	.L153:
 806:..\..\..\lvgl\version_6.1.2\lvgl\src\lv_objx/lv_tabview.c ****     if(sign == LV_SIGNAL_GET_TYPE) return lv_obj_handle_get_type_signal(param, "");
 2915              		.loc 4 806 0 is_stmt 1
 2916 0028 FB7A     		ldrb	r3, [r7, #11]	@ zero_extendqisi2
 2917 002a 072B     		cmp	r3, #7
 2918 002c 05D1     		bne	.L155
 2919              		.loc 4 806 0 is_stmt 0 discriminator 1
 2920 002e 1D49     		ldr	r1, .L161+4
 2921 0030 7868     		ldr	r0, [r7, #4]
 2922 0032 FFF7FEFF 		bl	lv_obj_handle_get_type_signal
 2923 0036 0346     		mov	r3, r0
 2924 0038 2DE0     		b	.L154
 2925              	.L155:
 807:..\..\..\lvgl\version_6.1.2\lvgl\src\lv_objx/lv_tabview.c **** 
 808:..\..\..\lvgl\version_6.1.2\lvgl\src\lv_objx/lv_tabview.c ****     lv_obj_t * cont    = lv_obj_get_parent(tab_page);
 2926              		.loc 4 808 0 is_stmt 1
 2927 003a F868     		ldr	r0, [r7, #12]
 2928 003c FFF7FEFF 		bl	lv_obj_get_parent
 2929 0040 B861     		str	r0, [r7, #24]
 809:..\..\..\lvgl\version_6.1.2\lvgl\src\lv_objx/lv_tabview.c ****     lv_obj_t * tabview = lv_obj_get_parent(cont);
 2930              		.loc 4 809 0
 2931 0042 B869     		ldr	r0, [r7, #24]
 2932 0044 FFF7FEFF 		bl	lv_obj_get_parent
 2933 0048 7861     		str	r0, [r7, #20]
 810:..\..\..\lvgl\version_6.1.2\lvgl\src\lv_objx/lv_tabview.c **** 
 811:..\..\..\lvgl\version_6.1.2\lvgl\src\lv_objx/lv_tabview.c ****     if(lv_tabview_get_sliding(tabview) == false) return res;
 2934              		.loc 4 811 0
 2935 004a 7869     		ldr	r0, [r7, #20]
 2936 004c FFF7FEFF 		bl	lv_tabview_get_sliding
 2937 0050 0346     		mov	r3, r0
 2938 0052 83F00103 		eor	r3, r3, #1
 2939 0056 DBB2     		uxtb	r3, r3
 2940 0058 002B     		cmp	r3, #0
 2941 005a 01D0     		beq	.L156
 2942              		.loc 4 811 0 is_stmt 0 discriminator 1
 2943 005c FB7F     		ldrb	r3, [r7, #31]	@ zero_extendqisi2
 2944 005e 1AE0     		b	.L154
 2945              	.L156:
 812:..\..\..\lvgl\version_6.1.2\lvgl\src\lv_objx/lv_tabview.c **** 
 813:..\..\..\lvgl\version_6.1.2\lvgl\src\lv_objx/lv_tabview.c ****     if(sign == LV_SIGNAL_PRESSED) {
 2946              		.loc 4 813 0 is_stmt 1
 2947 0060 FB7A     		ldrb	r3, [r7, #11]	@ zero_extendqisi2
 2948 0062 082B     		cmp	r3, #8
 2949 0064 04D1     		bne	.L157
 814:..\..\..\lvgl\version_6.1.2\lvgl\src\lv_objx/lv_tabview.c ****         tabpage_pressed_handler(tabview, tab_page);
 2950              		.loc 4 814 0
 2951 0066 F968     		ldr	r1, [r7, #12]
 2952 0068 7869     		ldr	r0, [r7, #20]
 2953 006a FFF7FEFF 		bl	tabpage_pressed_handler
ARM GAS  C:\Users\tmj32\AppData\Local\Temp\cc94ZBZn.s 			page 74


 2954 006e 11E0     		b	.L158
 2955              	.L157:
 815:..\..\..\lvgl\version_6.1.2\lvgl\src\lv_objx/lv_tabview.c ****     } else if(sign == LV_SIGNAL_PRESSING) {
 2956              		.loc 4 815 0
 2957 0070 FB7A     		ldrb	r3, [r7, #11]	@ zero_extendqisi2
 2958 0072 092B     		cmp	r3, #9
 2959 0074 04D1     		bne	.L159
 816:..\..\..\lvgl\version_6.1.2\lvgl\src\lv_objx/lv_tabview.c ****         tabpage_pressing_handler(tabview, tab_page);
 2960              		.loc 4 816 0
 2961 0076 F968     		ldr	r1, [r7, #12]
 2962 0078 7869     		ldr	r0, [r7, #20]
 2963 007a FFF7FEFF 		bl	tabpage_pressing_handler
 2964 007e 09E0     		b	.L158
 2965              	.L159:
 817:..\..\..\lvgl\version_6.1.2\lvgl\src\lv_objx/lv_tabview.c ****     } else if(sign == LV_SIGNAL_RELEASED || sign == LV_SIGNAL_PRESS_LOST) {
 2966              		.loc 4 817 0
 2967 0080 FB7A     		ldrb	r3, [r7, #11]	@ zero_extendqisi2
 2968 0082 0B2B     		cmp	r3, #11
 2969 0084 02D0     		beq	.L160
 2970              		.loc 4 817 0 is_stmt 0 discriminator 1
 2971 0086 FB7A     		ldrb	r3, [r7, #11]	@ zero_extendqisi2
 2972 0088 0A2B     		cmp	r3, #10
 2973 008a 03D1     		bne	.L158
 2974              	.L160:
 818:..\..\..\lvgl\version_6.1.2\lvgl\src\lv_objx/lv_tabview.c ****         tabpage_press_lost_handler(tabview, tab_page);
 2975              		.loc 4 818 0 is_stmt 1
 2976 008c F968     		ldr	r1, [r7, #12]
 2977 008e 7869     		ldr	r0, [r7, #20]
 2978 0090 FFF7FEFF 		bl	tabpage_press_lost_handler
 2979              	.L158:
 819:..\..\..\lvgl\version_6.1.2\lvgl\src\lv_objx/lv_tabview.c ****     }
 820:..\..\..\lvgl\version_6.1.2\lvgl\src\lv_objx/lv_tabview.c **** 
 821:..\..\..\lvgl\version_6.1.2\lvgl\src\lv_objx/lv_tabview.c ****     return res;
 2980              		.loc 4 821 0
 2981 0094 FB7F     		ldrb	r3, [r7, #31]	@ zero_extendqisi2
 2982              	.L154:
 822:..\..\..\lvgl\version_6.1.2\lvgl\src\lv_objx/lv_tabview.c **** }
 2983              		.loc 4 822 0
 2984 0096 1846     		mov	r0, r3
 2985 0098 2037     		adds	r7, r7, #32
 2986              		.cfi_def_cfa_offset 8
 2987 009a BD46     		mov	sp, r7
 2988              		.cfi_def_cfa_register 13
 2989              		@ sp needed
 2990 009c 80BD     		pop	{r7, pc}
 2991              	.L162:
 2992 009e 00BF     		.align	2
 2993              	.L161:
 2994 00a0 04000000 		.word	page_signal
 2995 00a4 00000000 		.word	.LC0
 2996              		.cfi_endproc
 2997              	.LFE86:
 2998              		.size	tabpage_signal, .-tabpage_signal
 2999              		.section	.text.tabpage_scrl_signal,"ax",%progbits
 3000              		.align	2
 3001              		.thumb
 3002              		.thumb_func
ARM GAS  C:\Users\tmj32\AppData\Local\Temp\cc94ZBZn.s 			page 75


 3003              		.type	tabpage_scrl_signal, %function
 3004              	tabpage_scrl_signal:
 3005              	.LFB87:
 823:..\..\..\lvgl\version_6.1.2\lvgl\src\lv_objx/lv_tabview.c **** /**
 824:..\..\..\lvgl\version_6.1.2\lvgl\src\lv_objx/lv_tabview.c ****  * Signal function of the tab page's scrollable object
 825:..\..\..\lvgl\version_6.1.2\lvgl\src\lv_objx/lv_tabview.c ****  * @param tab_scrl pointer to a tab page's scrollable object
 826:..\..\..\lvgl\version_6.1.2\lvgl\src\lv_objx/lv_tabview.c ****  * @param sign a signal type from lv_signal_t enum
 827:..\..\..\lvgl\version_6.1.2\lvgl\src\lv_objx/lv_tabview.c ****  * @param param pointer to a signal specific variable
 828:..\..\..\lvgl\version_6.1.2\lvgl\src\lv_objx/lv_tabview.c ****  * @return LV_RES_OK: the object is not deleted in the function; LV_RES_INV: the object is deleted
 829:..\..\..\lvgl\version_6.1.2\lvgl\src\lv_objx/lv_tabview.c ****  */
 830:..\..\..\lvgl\version_6.1.2\lvgl\src\lv_objx/lv_tabview.c **** static lv_res_t tabpage_scrl_signal(lv_obj_t * tab_scrl, lv_signal_t sign, void * param)
 831:..\..\..\lvgl\version_6.1.2\lvgl\src\lv_objx/lv_tabview.c **** {
 3006              		.loc 4 831 0
 3007              		.cfi_startproc
 3008              		@ args = 0, pretend = 0, frame = 32
 3009              		@ frame_needed = 1, uses_anonymous_args = 0
 3010 0000 80B5     		push	{r7, lr}
 3011              		.cfi_def_cfa_offset 8
 3012              		.cfi_offset 7, -8
 3013              		.cfi_offset 14, -4
 3014 0002 88B0     		sub	sp, sp, #32
 3015              		.cfi_def_cfa_offset 40
 3016 0004 00AF     		add	r7, sp, #0
 3017              		.cfi_def_cfa_register 7
 3018 0006 F860     		str	r0, [r7, #12]
 3019 0008 0B46     		mov	r3, r1
 3020 000a 7A60     		str	r2, [r7, #4]
 3021 000c FB72     		strb	r3, [r7, #11]
 832:..\..\..\lvgl\version_6.1.2\lvgl\src\lv_objx/lv_tabview.c ****     lv_res_t res;
 833:..\..\..\lvgl\version_6.1.2\lvgl\src\lv_objx/lv_tabview.c **** 
 834:..\..\..\lvgl\version_6.1.2\lvgl\src\lv_objx/lv_tabview.c ****     /* Include the ancient signal function */
 835:..\..\..\lvgl\version_6.1.2\lvgl\src\lv_objx/lv_tabview.c ****     res = page_scrl_signal(tab_scrl, sign, param);
 3022              		.loc 4 835 0
 3023 000e 264B     		ldr	r3, .L172
 3024 0010 1B68     		ldr	r3, [r3]
