ARM GAS  C:\Users\tmj32\AppData\Local\Temp\ccPoPccU.s 			page 1


   1              		.syntax unified
   2              		.cpu cortex-m4
   3              		.eabi_attribute 27, 1
   4              		.fpu fpv4-sp-d16
   5              		.eabi_attribute 20, 1
   6              		.eabi_attribute 21, 1
   7              		.eabi_attribute 23, 3
   8              		.eabi_attribute 24, 1
   9              		.eabi_attribute 25, 1
  10              		.eabi_attribute 26, 1
  11              		.eabi_attribute 30, 6
  12              		.eabi_attribute 34, 1
  13              		.eabi_attribute 18, 4
  14              		.thumb
  15              		.syntax unified
  16              		.file	"lv_txt.c"
  17              		.text
  18              	.Ltext0:
  19              		.cfi_sections	.debug_frame
  20              		.section	.text.lv_font_get_line_height,"ax",%progbits
  21              		.align	2
  22              		.thumb
  23              		.thumb_func
  24              		.type	lv_font_get_line_height, %function
  25              	lv_font_get_line_height:
  26              	.LFB3:
  27              		.file 1 "..\\..\\..\\lvgl\\version_6.1.2\\lvgl\\src\\lv_misc\\../lv_font/lv_font.h"
   1:..\..\..\lvgl\version_6.1.2\lvgl\src\lv_misc\../lv_font/lv_font.h **** /**
   2:..\..\..\lvgl\version_6.1.2\lvgl\src\lv_misc\../lv_font/lv_font.h ****  * @file lv_font.h
   3:..\..\..\lvgl\version_6.1.2\lvgl\src\lv_misc\../lv_font/lv_font.h ****  *
   4:..\..\..\lvgl\version_6.1.2\lvgl\src\lv_misc\../lv_font/lv_font.h ****  */
   5:..\..\..\lvgl\version_6.1.2\lvgl\src\lv_misc\../lv_font/lv_font.h **** 
   6:..\..\..\lvgl\version_6.1.2\lvgl\src\lv_misc\../lv_font/lv_font.h **** #ifndef LV_FONT_H
   7:..\..\..\lvgl\version_6.1.2\lvgl\src\lv_misc\../lv_font/lv_font.h **** #define LV_FONT_H
   8:..\..\..\lvgl\version_6.1.2\lvgl\src\lv_misc\../lv_font/lv_font.h **** 
   9:..\..\..\lvgl\version_6.1.2\lvgl\src\lv_misc\../lv_font/lv_font.h **** #ifdef __cplusplus
  10:..\..\..\lvgl\version_6.1.2\lvgl\src\lv_misc\../lv_font/lv_font.h **** extern "C" {
  11:..\..\..\lvgl\version_6.1.2\lvgl\src\lv_misc\../lv_font/lv_font.h **** #endif
  12:..\..\..\lvgl\version_6.1.2\lvgl\src\lv_misc\../lv_font/lv_font.h **** 
  13:..\..\..\lvgl\version_6.1.2\lvgl\src\lv_misc\../lv_font/lv_font.h **** /*********************
  14:..\..\..\lvgl\version_6.1.2\lvgl\src\lv_misc\../lv_font/lv_font.h ****  *      INCLUDES
  15:..\..\..\lvgl\version_6.1.2\lvgl\src\lv_misc\../lv_font/lv_font.h ****  *********************/
  16:..\..\..\lvgl\version_6.1.2\lvgl\src\lv_misc\../lv_font/lv_font.h **** #ifdef LV_CONF_INCLUDE_SIMPLE
  17:..\..\..\lvgl\version_6.1.2\lvgl\src\lv_misc\../lv_font/lv_font.h **** #include "lv_conf.h"
  18:..\..\..\lvgl\version_6.1.2\lvgl\src\lv_misc\../lv_font/lv_font.h **** #else
  19:..\..\..\lvgl\version_6.1.2\lvgl\src\lv_misc\../lv_font/lv_font.h **** #include "../../../lv_conf.h"
  20:..\..\..\lvgl\version_6.1.2\lvgl\src\lv_misc\../lv_font/lv_font.h **** #endif
  21:..\..\..\lvgl\version_6.1.2\lvgl\src\lv_misc\../lv_font/lv_font.h **** 
  22:..\..\..\lvgl\version_6.1.2\lvgl\src\lv_misc\../lv_font/lv_font.h **** #include <stdint.h>
  23:..\..\..\lvgl\version_6.1.2\lvgl\src\lv_misc\../lv_font/lv_font.h **** #include <stddef.h>
  24:..\..\..\lvgl\version_6.1.2\lvgl\src\lv_misc\../lv_font/lv_font.h **** #include <stdbool.h>
  25:..\..\..\lvgl\version_6.1.2\lvgl\src\lv_misc\../lv_font/lv_font.h **** 
  26:..\..\..\lvgl\version_6.1.2\lvgl\src\lv_misc\../lv_font/lv_font.h **** #include "lv_symbol_def.h"
  27:..\..\..\lvgl\version_6.1.2\lvgl\src\lv_misc\../lv_font/lv_font.h **** 
  28:..\..\..\lvgl\version_6.1.2\lvgl\src\lv_misc\../lv_font/lv_font.h **** /*********************
  29:..\..\..\lvgl\version_6.1.2\lvgl\src\lv_misc\../lv_font/lv_font.h ****  *      DEFINES
  30:..\..\..\lvgl\version_6.1.2\lvgl\src\lv_misc\../lv_font/lv_font.h ****  *********************/
ARM GAS  C:\Users\tmj32\AppData\Local\Temp\ccPoPccU.s 			page 2


  31:..\..\..\lvgl\version_6.1.2\lvgl\src\lv_misc\../lv_font/lv_font.h **** /*Number of fractional digits in the advanced width (`adv_w`) field of `lv_font_glyph_dsc_t`*/
  32:..\..\..\lvgl\version_6.1.2\lvgl\src\lv_misc\../lv_font/lv_font.h **** #define LV_FONT_WIDTH_FRACT_DIGIT       4
  33:..\..\..\lvgl\version_6.1.2\lvgl\src\lv_misc\../lv_font/lv_font.h **** 
  34:..\..\..\lvgl\version_6.1.2\lvgl\src\lv_misc\../lv_font/lv_font.h **** #define LV_FONT_KERN_POSITIVE        0
  35:..\..\..\lvgl\version_6.1.2\lvgl\src\lv_misc\../lv_font/lv_font.h **** #define LV_FONT_KERN_NEGATIVE        1
  36:..\..\..\lvgl\version_6.1.2\lvgl\src\lv_misc\../lv_font/lv_font.h **** 
  37:..\..\..\lvgl\version_6.1.2\lvgl\src\lv_misc\../lv_font/lv_font.h **** /**********************
  38:..\..\..\lvgl\version_6.1.2\lvgl\src\lv_misc\../lv_font/lv_font.h ****  *      TYPEDEFS
  39:..\..\..\lvgl\version_6.1.2\lvgl\src\lv_misc\../lv_font/lv_font.h ****  **********************/
  40:..\..\..\lvgl\version_6.1.2\lvgl\src\lv_misc\../lv_font/lv_font.h **** 
  41:..\..\..\lvgl\version_6.1.2\lvgl\src\lv_misc\../lv_font/lv_font.h **** /*------------------
  42:..\..\..\lvgl\version_6.1.2\lvgl\src\lv_misc\../lv_font/lv_font.h ****  * General types
  43:..\..\..\lvgl\version_6.1.2\lvgl\src\lv_misc\../lv_font/lv_font.h ****  *-----------------*/
  44:..\..\..\lvgl\version_6.1.2\lvgl\src\lv_misc\../lv_font/lv_font.h **** 
  45:..\..\..\lvgl\version_6.1.2\lvgl\src\lv_misc\../lv_font/lv_font.h **** /** Describes the properties of a glyph. */
  46:..\..\..\lvgl\version_6.1.2\lvgl\src\lv_misc\../lv_font/lv_font.h **** typedef struct
  47:..\..\..\lvgl\version_6.1.2\lvgl\src\lv_misc\../lv_font/lv_font.h **** {
  48:..\..\..\lvgl\version_6.1.2\lvgl\src\lv_misc\../lv_font/lv_font.h ****     uint16_t adv_w; /**< The glyph needs this space. Draw the next glyph after this width. 8 bit in
  49:..\..\..\lvgl\version_6.1.2\lvgl\src\lv_misc\../lv_font/lv_font.h ****     uint8_t box_w;  /**< Width of the glyph's bounding box*/
  50:..\..\..\lvgl\version_6.1.2\lvgl\src\lv_misc\../lv_font/lv_font.h ****     uint8_t box_h;  /**< Height of the glyph's bounding box*/
  51:..\..\..\lvgl\version_6.1.2\lvgl\src\lv_misc\../lv_font/lv_font.h ****     int8_t ofs_x;   /**< x offset of the bounding box*/
  52:..\..\..\lvgl\version_6.1.2\lvgl\src\lv_misc\../lv_font/lv_font.h ****     int8_t ofs_y;  /**< y offset of the bounding box*/
  53:..\..\..\lvgl\version_6.1.2\lvgl\src\lv_misc\../lv_font/lv_font.h ****     uint8_t bpp;   /**< Bit-per-pixel: 1, 2, 4, 8*/
  54:..\..\..\lvgl\version_6.1.2\lvgl\src\lv_misc\../lv_font/lv_font.h **** }lv_font_glyph_dsc_t;
  55:..\..\..\lvgl\version_6.1.2\lvgl\src\lv_misc\../lv_font/lv_font.h **** 
  56:..\..\..\lvgl\version_6.1.2\lvgl\src\lv_misc\../lv_font/lv_font.h **** 
  57:..\..\..\lvgl\version_6.1.2\lvgl\src\lv_misc\../lv_font/lv_font.h **** /** The bitmaps might be upscaled by 3 to achieve subpixel rendering. */
  58:..\..\..\lvgl\version_6.1.2\lvgl\src\lv_misc\../lv_font/lv_font.h **** enum {
  59:..\..\..\lvgl\version_6.1.2\lvgl\src\lv_misc\../lv_font/lv_font.h ****     LV_FONT_SUBPX_NONE,
  60:..\..\..\lvgl\version_6.1.2\lvgl\src\lv_misc\../lv_font/lv_font.h ****     LV_FONT_SUBPX_HOR,
  61:..\..\..\lvgl\version_6.1.2\lvgl\src\lv_misc\../lv_font/lv_font.h ****     LV_FONT_SUBPX_VER,
  62:..\..\..\lvgl\version_6.1.2\lvgl\src\lv_misc\../lv_font/lv_font.h ****     LV_FONT_SUBPX_BOTH,
  63:..\..\..\lvgl\version_6.1.2\lvgl\src\lv_misc\../lv_font/lv_font.h **** };
  64:..\..\..\lvgl\version_6.1.2\lvgl\src\lv_misc\../lv_font/lv_font.h **** 
  65:..\..\..\lvgl\version_6.1.2\lvgl\src\lv_misc\../lv_font/lv_font.h **** typedef uint8_t lv_font_subpx_t;
  66:..\..\..\lvgl\version_6.1.2\lvgl\src\lv_misc\../lv_font/lv_font.h **** 
  67:..\..\..\lvgl\version_6.1.2\lvgl\src\lv_misc\../lv_font/lv_font.h **** /** Describe the properties of a font*/
  68:..\..\..\lvgl\version_6.1.2\lvgl\src\lv_misc\../lv_font/lv_font.h **** typedef struct _lv_font_struct
  69:..\..\..\lvgl\version_6.1.2\lvgl\src\lv_misc\../lv_font/lv_font.h **** {
  70:..\..\..\lvgl\version_6.1.2\lvgl\src\lv_misc\../lv_font/lv_font.h ****     /** Get a glyph's  descriptor from a font*/
  71:..\..\..\lvgl\version_6.1.2\lvgl\src\lv_misc\../lv_font/lv_font.h ****     bool (*get_glyph_dsc)(const struct _lv_font_struct *, lv_font_glyph_dsc_t *, uint32_t letter, u
  72:..\..\..\lvgl\version_6.1.2\lvgl\src\lv_misc\../lv_font/lv_font.h **** 
  73:..\..\..\lvgl\version_6.1.2\lvgl\src\lv_misc\../lv_font/lv_font.h ****     /** Get a glyph's bitmap from a font*/
  74:..\..\..\lvgl\version_6.1.2\lvgl\src\lv_misc\../lv_font/lv_font.h ****     const uint8_t * (*get_glyph_bitmap)(const struct _lv_font_struct *, uint32_t);
  75:..\..\..\lvgl\version_6.1.2\lvgl\src\lv_misc\../lv_font/lv_font.h **** 
  76:..\..\..\lvgl\version_6.1.2\lvgl\src\lv_misc\../lv_font/lv_font.h ****     /*Pointer to the font in a font pack (must have the same line height)*/
  77:..\..\..\lvgl\version_6.1.2\lvgl\src\lv_misc\../lv_font/lv_font.h ****     uint8_t line_height;      /**< The real line height where any text fits*/
  78:..\..\..\lvgl\version_6.1.2\lvgl\src\lv_misc\../lv_font/lv_font.h ****     int8_t base_line;        /**< Base line measured from the top of the line_height*/
  79:..\..\..\lvgl\version_6.1.2\lvgl\src\lv_misc\../lv_font/lv_font.h ****     uint8_t subpx  :2;        /**< An element of `lv_font_subpx_t`*/
  80:..\..\..\lvgl\version_6.1.2\lvgl\src\lv_misc\../lv_font/lv_font.h ****     void * dsc;               /**< Store implementation specific or run_time data or caching here*/
  81:..\..\..\lvgl\version_6.1.2\lvgl\src\lv_misc\../lv_font/lv_font.h **** #if LV_USE_USER_DATA
  82:..\..\..\lvgl\version_6.1.2\lvgl\src\lv_misc\../lv_font/lv_font.h ****     lv_font_user_data_t user_data; /**< Custom user data for font. */
  83:..\..\..\lvgl\version_6.1.2\lvgl\src\lv_misc\../lv_font/lv_font.h **** #endif
  84:..\..\..\lvgl\version_6.1.2\lvgl\src\lv_misc\../lv_font/lv_font.h **** 
  85:..\..\..\lvgl\version_6.1.2\lvgl\src\lv_misc\../lv_font/lv_font.h **** 
  86:..\..\..\lvgl\version_6.1.2\lvgl\src\lv_misc\../lv_font/lv_font.h **** } lv_font_t;
  87:..\..\..\lvgl\version_6.1.2\lvgl\src\lv_misc\../lv_font/lv_font.h **** 
ARM GAS  C:\Users\tmj32\AppData\Local\Temp\ccPoPccU.s 			page 3


  88:..\..\..\lvgl\version_6.1.2\lvgl\src\lv_misc\../lv_font/lv_font.h **** /**********************
  89:..\..\..\lvgl\version_6.1.2\lvgl\src\lv_misc\../lv_font/lv_font.h ****  * GLOBAL PROTOTYPES
  90:..\..\..\lvgl\version_6.1.2\lvgl\src\lv_misc\../lv_font/lv_font.h ****  **********************/
  91:..\..\..\lvgl\version_6.1.2\lvgl\src\lv_misc\../lv_font/lv_font.h **** 
  92:..\..\..\lvgl\version_6.1.2\lvgl\src\lv_misc\../lv_font/lv_font.h **** /**
  93:..\..\..\lvgl\version_6.1.2\lvgl\src\lv_misc\../lv_font/lv_font.h ****  * Return with the bitmap of a font.
  94:..\..\..\lvgl\version_6.1.2\lvgl\src\lv_misc\../lv_font/lv_font.h ****  * @param font_p pointer to a font
  95:..\..\..\lvgl\version_6.1.2\lvgl\src\lv_misc\../lv_font/lv_font.h ****  * @param letter an UNICODE character code
  96:..\..\..\lvgl\version_6.1.2\lvgl\src\lv_misc\../lv_font/lv_font.h ****  * @return  pointer to the bitmap of the letter
  97:..\..\..\lvgl\version_6.1.2\lvgl\src\lv_misc\../lv_font/lv_font.h ****  */
  98:..\..\..\lvgl\version_6.1.2\lvgl\src\lv_misc\../lv_font/lv_font.h **** const uint8_t * lv_font_get_glyph_bitmap(const lv_font_t * font_p, uint32_t letter);
  99:..\..\..\lvgl\version_6.1.2\lvgl\src\lv_misc\../lv_font/lv_font.h **** 
 100:..\..\..\lvgl\version_6.1.2\lvgl\src\lv_misc\../lv_font/lv_font.h **** /**
 101:..\..\..\lvgl\version_6.1.2\lvgl\src\lv_misc\../lv_font/lv_font.h ****  * Get the descriptor of a glyph
 102:..\..\..\lvgl\version_6.1.2\lvgl\src\lv_misc\../lv_font/lv_font.h ****  * @param font_p pointer to font
 103:..\..\..\lvgl\version_6.1.2\lvgl\src\lv_misc\../lv_font/lv_font.h ****  * @param dsc_out store the result descriptor here
 104:..\..\..\lvgl\version_6.1.2\lvgl\src\lv_misc\../lv_font/lv_font.h ****  * @param letter an UNICODE letter code
 105:..\..\..\lvgl\version_6.1.2\lvgl\src\lv_misc\../lv_font/lv_font.h ****  * @return true: descriptor is successfully loaded into `dsc_out`.
 106:..\..\..\lvgl\version_6.1.2\lvgl\src\lv_misc\../lv_font/lv_font.h ****  *         false: the letter was not found, no data is loaded to `dsc_out`
 107:..\..\..\lvgl\version_6.1.2\lvgl\src\lv_misc\../lv_font/lv_font.h ****  */
 108:..\..\..\lvgl\version_6.1.2\lvgl\src\lv_misc\../lv_font/lv_font.h **** bool lv_font_get_glyph_dsc(const lv_font_t * font_p, lv_font_glyph_dsc_t * dsc_out, uint32_t letter
 109:..\..\..\lvgl\version_6.1.2\lvgl\src\lv_misc\../lv_font/lv_font.h **** 
 110:..\..\..\lvgl\version_6.1.2\lvgl\src\lv_misc\../lv_font/lv_font.h **** /**
 111:..\..\..\lvgl\version_6.1.2\lvgl\src\lv_misc\../lv_font/lv_font.h ****  * Get the width of a glyph with kerning
 112:..\..\..\lvgl\version_6.1.2\lvgl\src\lv_misc\../lv_font/lv_font.h ****  * @param font pointer to a font
 113:..\..\..\lvgl\version_6.1.2\lvgl\src\lv_misc\../lv_font/lv_font.h ****  * @param letter an UNICODE letter
 114:..\..\..\lvgl\version_6.1.2\lvgl\src\lv_misc\../lv_font/lv_font.h ****  * @param letter_next the next letter after `letter`. Used for kerning
 115:..\..\..\lvgl\version_6.1.2\lvgl\src\lv_misc\../lv_font/lv_font.h ****  * @return the width of the glyph
 116:..\..\..\lvgl\version_6.1.2\lvgl\src\lv_misc\../lv_font/lv_font.h ****  */
 117:..\..\..\lvgl\version_6.1.2\lvgl\src\lv_misc\../lv_font/lv_font.h **** uint16_t lv_font_get_glyph_width(const lv_font_t * font, uint32_t letter, uint32_t letter_next);
 118:..\..\..\lvgl\version_6.1.2\lvgl\src\lv_misc\../lv_font/lv_font.h **** 
 119:..\..\..\lvgl\version_6.1.2\lvgl\src\lv_misc\../lv_font/lv_font.h **** /**
 120:..\..\..\lvgl\version_6.1.2\lvgl\src\lv_misc\../lv_font/lv_font.h ****  * Get the line height of a font. All characters fit into this height
 121:..\..\..\lvgl\version_6.1.2\lvgl\src\lv_misc\../lv_font/lv_font.h ****  * @param font_p pointer to a font
 122:..\..\..\lvgl\version_6.1.2\lvgl\src\lv_misc\../lv_font/lv_font.h ****  * @return the height of a font
 123:..\..\..\lvgl\version_6.1.2\lvgl\src\lv_misc\../lv_font/lv_font.h ****  */
 124:..\..\..\lvgl\version_6.1.2\lvgl\src\lv_misc\../lv_font/lv_font.h **** static inline uint8_t lv_font_get_line_height(const lv_font_t * font_p)
 125:..\..\..\lvgl\version_6.1.2\lvgl\src\lv_misc\../lv_font/lv_font.h **** {
  28              		.loc 1 125 0
  29              		.cfi_startproc
  30              		@ args = 0, pretend = 0, frame = 8
  31              		@ frame_needed = 1, uses_anonymous_args = 0
  32              		@ link register save eliminated.
  33 0000 80B4     		push	{r7}
  34              		.cfi_def_cfa_offset 4
  35              		.cfi_offset 7, -4
  36 0002 83B0     		sub	sp, sp, #12
  37              		.cfi_def_cfa_offset 16
  38 0004 00AF     		add	r7, sp, #0
  39              		.cfi_def_cfa_register 7
  40 0006 7860     		str	r0, [r7, #4]
 126:..\..\..\lvgl\version_6.1.2\lvgl\src\lv_misc\../lv_font/lv_font.h ****     return font_p->line_height;
  41              		.loc 1 126 0
  42 0008 7B68     		ldr	r3, [r7, #4]
  43 000a 1B7A     		ldrb	r3, [r3, #8]	@ zero_extendqisi2
 127:..\..\..\lvgl\version_6.1.2\lvgl\src\lv_misc\../lv_font/lv_font.h **** }
  44              		.loc 1 127 0
ARM GAS  C:\Users\tmj32\AppData\Local\Temp\ccPoPccU.s 			page 4


  45 000c 1846     		mov	r0, r3
  46 000e 0C37     		adds	r7, r7, #12
  47              		.cfi_def_cfa_offset 4
  48 0010 BD46     		mov	sp, r7
  49              		.cfi_def_cfa_register 13
  50              		@ sp needed
  51 0012 5DF8047B 		ldr	r7, [sp], #4
  52              		.cfi_restore 7
  53              		.cfi_def_cfa_offset 0
  54 0016 7047     		bx	lr
  55              		.cfi_endproc
  56              	.LFE3:
  57              		.size	lv_font_get_line_height, .-lv_font_get_line_height
  58              		.global	lv_txt_encoded_size
  59              		.data
  60              		.align	2
  61              		.type	lv_txt_encoded_size, %object
  62              		.size	lv_txt_encoded_size, 4
  63              	lv_txt_encoded_size:
  64 0000 00000000 		.word	lv_txt_iso8859_1_size
  65              		.global	lv_txt_unicode_to_encoded
  66              		.align	2
  67              		.type	lv_txt_unicode_to_encoded, %object
  68              		.size	lv_txt_unicode_to_encoded, 4
  69              	lv_txt_unicode_to_encoded:
  70 0004 00000000 		.word	lv_txt_unicode_to_iso8859_1
  71              		.global	lv_txt_encoded_conv_wc
  72              		.align	2
  73              		.type	lv_txt_encoded_conv_wc, %object
  74              		.size	lv_txt_encoded_conv_wc, 4
  75              	lv_txt_encoded_conv_wc:
  76 0008 00000000 		.word	lv_txt_iso8859_1_conv_wc
  77              		.global	lv_txt_encoded_next
  78              		.align	2
  79              		.type	lv_txt_encoded_next, %object
  80              		.size	lv_txt_encoded_next, 4
  81              	lv_txt_encoded_next:
  82 000c 00000000 		.word	lv_txt_iso8859_1_next
  83              		.global	lv_txt_encoded_prev
  84              		.align	2
  85              		.type	lv_txt_encoded_prev, %object
  86              		.size	lv_txt_encoded_prev, 4
  87              	lv_txt_encoded_prev:
  88 0010 00000000 		.word	lv_txt_iso8859_1_prev
  89              		.global	lv_txt_encoded_get_byte_id
  90              		.align	2
  91              		.type	lv_txt_encoded_get_byte_id, %object
  92              		.size	lv_txt_encoded_get_byte_id, 4
  93              	lv_txt_encoded_get_byte_id:
  94 0014 00000000 		.word	lv_txt_iso8859_1_get_byte_id
  95              		.global	lv_txt_encoded_get_char_id
  96              		.align	2
  97              		.type	lv_txt_encoded_get_char_id, %object
  98              		.size	lv_txt_encoded_get_char_id, 4
  99              	lv_txt_encoded_get_char_id:
 100 0018 00000000 		.word	lv_txt_iso8859_1_get_char_id
 101              		.global	lv_txt_get_encoded_length
ARM GAS  C:\Users\tmj32\AppData\Local\Temp\ccPoPccU.s 			page 5


 102              		.align	2
 103              		.type	lv_txt_get_encoded_length, %object
 104              		.size	lv_txt_get_encoded_length, 4
 105              	lv_txt_get_encoded_length:
 106 001c 00000000 		.word	lv_txt_iso8859_1_get_length
 107              		.section	.text.lv_txt_get_size,"ax",%progbits
 108              		.align	2
 109              		.global	lv_txt_get_size
 110              		.thumb
 111              		.thumb_func
 112              		.type	lv_txt_get_size, %function
 113              	lv_txt_get_size:
 114              	.LFB4:
 115              		.file 2 "..\\..\\..\\lvgl\\version_6.1.2\\lvgl\\src\\lv_misc\\lv_txt.c"
   1:..\..\..\lvgl\version_6.1.2\lvgl\src\lv_misc/lv_txt.c **** /**
   2:..\..\..\lvgl\version_6.1.2\lvgl\src\lv_misc/lv_txt.c ****  * @file lv_text.c
   3:..\..\..\lvgl\version_6.1.2\lvgl\src\lv_misc/lv_txt.c ****  *
   4:..\..\..\lvgl\version_6.1.2\lvgl\src\lv_misc/lv_txt.c ****  */
   5:..\..\..\lvgl\version_6.1.2\lvgl\src\lv_misc/lv_txt.c **** 
   6:..\..\..\lvgl\version_6.1.2\lvgl\src\lv_misc/lv_txt.c **** /*********************
   7:..\..\..\lvgl\version_6.1.2\lvgl\src\lv_misc/lv_txt.c ****  *      INCLUDES
   8:..\..\..\lvgl\version_6.1.2\lvgl\src\lv_misc/lv_txt.c ****  *********************/
   9:..\..\..\lvgl\version_6.1.2\lvgl\src\lv_misc/lv_txt.c **** #include "lv_txt.h"
  10:..\..\..\lvgl\version_6.1.2\lvgl\src\lv_misc/lv_txt.c **** #include "lv_math.h"
  11:..\..\..\lvgl\version_6.1.2\lvgl\src\lv_misc/lv_txt.c **** #include "lv_log.h"
  12:..\..\..\lvgl\version_6.1.2\lvgl\src\lv_misc/lv_txt.c **** 
  13:..\..\..\lvgl\version_6.1.2\lvgl\src\lv_misc/lv_txt.c **** /*********************
  14:..\..\..\lvgl\version_6.1.2\lvgl\src\lv_misc/lv_txt.c ****  *      DEFINES
  15:..\..\..\lvgl\version_6.1.2\lvgl\src\lv_misc/lv_txt.c ****  *********************/
  16:..\..\..\lvgl\version_6.1.2\lvgl\src\lv_misc/lv_txt.c **** #define NO_BREAK_FOUND UINT32_MAX
  17:..\..\..\lvgl\version_6.1.2\lvgl\src\lv_misc/lv_txt.c **** 
  18:..\..\..\lvgl\version_6.1.2\lvgl\src\lv_misc/lv_txt.c **** /**********************
  19:..\..\..\lvgl\version_6.1.2\lvgl\src\lv_misc/lv_txt.c ****  *      TYPEDEFS
  20:..\..\..\lvgl\version_6.1.2\lvgl\src\lv_misc/lv_txt.c ****  **********************/
  21:..\..\..\lvgl\version_6.1.2\lvgl\src\lv_misc/lv_txt.c **** 
  22:..\..\..\lvgl\version_6.1.2\lvgl\src\lv_misc/lv_txt.c **** /**********************
  23:..\..\..\lvgl\version_6.1.2\lvgl\src\lv_misc/lv_txt.c ****  *  STATIC PROTOTYPES
  24:..\..\..\lvgl\version_6.1.2\lvgl\src\lv_misc/lv_txt.c ****  **********************/
  25:..\..\..\lvgl\version_6.1.2\lvgl\src\lv_misc/lv_txt.c **** static inline bool is_break_char(uint32_t letter);
  26:..\..\..\lvgl\version_6.1.2\lvgl\src\lv_misc/lv_txt.c **** 
  27:..\..\..\lvgl\version_6.1.2\lvgl\src\lv_misc/lv_txt.c **** #if LV_TXT_ENC == LV_TXT_ENC_UTF8
  28:..\..\..\lvgl\version_6.1.2\lvgl\src\lv_misc/lv_txt.c **** static uint8_t lv_txt_utf8_size(const char * str);
  29:..\..\..\lvgl\version_6.1.2\lvgl\src\lv_misc/lv_txt.c **** static uint32_t lv_txt_unicode_to_utf8(uint32_t letter_uni);
  30:..\..\..\lvgl\version_6.1.2\lvgl\src\lv_misc/lv_txt.c **** static uint32_t lv_txt_utf8_conv_wc(uint32_t c);
  31:..\..\..\lvgl\version_6.1.2\lvgl\src\lv_misc/lv_txt.c **** static uint32_t lv_txt_utf8_next(const char * txt, uint32_t * i);
  32:..\..\..\lvgl\version_6.1.2\lvgl\src\lv_misc/lv_txt.c **** static uint32_t lv_txt_utf8_prev(const char * txt, uint32_t * i_start);
  33:..\..\..\lvgl\version_6.1.2\lvgl\src\lv_misc/lv_txt.c **** static uint32_t lv_txt_utf8_get_byte_id(const char * txt, uint32_t utf8_id);
  34:..\..\..\lvgl\version_6.1.2\lvgl\src\lv_misc/lv_txt.c **** static uint32_t lv_txt_utf8_get_char_id(const char * txt, uint32_t byte_id);
  35:..\..\..\lvgl\version_6.1.2\lvgl\src\lv_misc/lv_txt.c **** static uint32_t lv_txt_utf8_get_length(const char * txt);
  36:..\..\..\lvgl\version_6.1.2\lvgl\src\lv_misc/lv_txt.c **** #elif LV_TXT_ENC == LV_TXT_ENC_ASCII
  37:..\..\..\lvgl\version_6.1.2\lvgl\src\lv_misc/lv_txt.c **** static uint8_t lv_txt_iso8859_1_size(const char * str);
  38:..\..\..\lvgl\version_6.1.2\lvgl\src\lv_misc/lv_txt.c **** static uint32_t lv_txt_unicode_to_iso8859_1(uint32_t letter_uni);
  39:..\..\..\lvgl\version_6.1.2\lvgl\src\lv_misc/lv_txt.c **** static uint32_t lv_txt_iso8859_1_conv_wc(uint32_t c);
  40:..\..\..\lvgl\version_6.1.2\lvgl\src\lv_misc/lv_txt.c **** static uint32_t lv_txt_iso8859_1_next(const char * txt, uint32_t * i);
  41:..\..\..\lvgl\version_6.1.2\lvgl\src\lv_misc/lv_txt.c **** static uint32_t lv_txt_iso8859_1_prev(const char * txt, uint32_t * i_start);
  42:..\..\..\lvgl\version_6.1.2\lvgl\src\lv_misc/lv_txt.c **** static uint32_t lv_txt_iso8859_1_get_byte_id(const char * txt, uint32_t utf8_id);
  43:..\..\..\lvgl\version_6.1.2\lvgl\src\lv_misc/lv_txt.c **** static uint32_t lv_txt_iso8859_1_get_char_id(const char * txt, uint32_t byte_id);
ARM GAS  C:\Users\tmj32\AppData\Local\Temp\ccPoPccU.s 			page 6


  44:..\..\..\lvgl\version_6.1.2\lvgl\src\lv_misc/lv_txt.c **** static uint32_t lv_txt_iso8859_1_get_length(const char * txt);
  45:..\..\..\lvgl\version_6.1.2\lvgl\src\lv_misc/lv_txt.c **** #endif
  46:..\..\..\lvgl\version_6.1.2\lvgl\src\lv_misc/lv_txt.c **** /**********************
  47:..\..\..\lvgl\version_6.1.2\lvgl\src\lv_misc/lv_txt.c ****  *  STATIC VARIABLES
  48:..\..\..\lvgl\version_6.1.2\lvgl\src\lv_misc/lv_txt.c ****  **********************/
  49:..\..\..\lvgl\version_6.1.2\lvgl\src\lv_misc/lv_txt.c **** 
  50:..\..\..\lvgl\version_6.1.2\lvgl\src\lv_misc/lv_txt.c **** /**********************
  51:..\..\..\lvgl\version_6.1.2\lvgl\src\lv_misc/lv_txt.c ****  *  GLOBAL VARIABLES
  52:..\..\..\lvgl\version_6.1.2\lvgl\src\lv_misc/lv_txt.c ****  **********************/
  53:..\..\..\lvgl\version_6.1.2\lvgl\src\lv_misc/lv_txt.c **** #if LV_TXT_ENC == LV_TXT_ENC_UTF8
  54:..\..\..\lvgl\version_6.1.2\lvgl\src\lv_misc/lv_txt.c **** uint8_t (*lv_txt_encoded_size)(const char *)                   = lv_txt_utf8_size;
  55:..\..\..\lvgl\version_6.1.2\lvgl\src\lv_misc/lv_txt.c **** uint32_t (*lv_txt_unicode_to_encoded)(uint32_t)                = lv_txt_unicode_to_utf8;
  56:..\..\..\lvgl\version_6.1.2\lvgl\src\lv_misc/lv_txt.c **** uint32_t (*lv_txt_encoded_conv_wc)(uint32_t)                   = lv_txt_utf8_conv_wc;
  57:..\..\..\lvgl\version_6.1.2\lvgl\src\lv_misc/lv_txt.c **** uint32_t (*lv_txt_encoded_next)(const char *, uint32_t *)      = lv_txt_utf8_next;
  58:..\..\..\lvgl\version_6.1.2\lvgl\src\lv_misc/lv_txt.c **** uint32_t (*lv_txt_encoded_prev)(const char *, uint32_t *)      = lv_txt_utf8_prev;
  59:..\..\..\lvgl\version_6.1.2\lvgl\src\lv_misc/lv_txt.c **** uint32_t (*lv_txt_encoded_get_byte_id)(const char *, uint32_t) = lv_txt_utf8_get_byte_id;
  60:..\..\..\lvgl\version_6.1.2\lvgl\src\lv_misc/lv_txt.c **** uint32_t (*lv_txt_encoded_get_char_id)(const char *, uint32_t) = lv_txt_utf8_get_char_id;
  61:..\..\..\lvgl\version_6.1.2\lvgl\src\lv_misc/lv_txt.c **** uint32_t (*lv_txt_get_encoded_length)(const char *)            = lv_txt_utf8_get_length;
  62:..\..\..\lvgl\version_6.1.2\lvgl\src\lv_misc/lv_txt.c **** #elif LV_TXT_ENC == LV_TXT_ENC_ASCII
  63:..\..\..\lvgl\version_6.1.2\lvgl\src\lv_misc/lv_txt.c **** uint8_t (*lv_txt_encoded_size)(const char *)                   = lv_txt_iso8859_1_size;
  64:..\..\..\lvgl\version_6.1.2\lvgl\src\lv_misc/lv_txt.c **** uint32_t (*lv_txt_unicode_to_encoded)(uint32_t)                = lv_txt_unicode_to_iso8859_1;
  65:..\..\..\lvgl\version_6.1.2\lvgl\src\lv_misc/lv_txt.c **** uint32_t (*lv_txt_encoded_conv_wc)(uint32_t)                   = lv_txt_iso8859_1_conv_wc;
  66:..\..\..\lvgl\version_6.1.2\lvgl\src\lv_misc/lv_txt.c **** uint32_t (*lv_txt_encoded_next)(const char *, uint32_t *)      = lv_txt_iso8859_1_next;
  67:..\..\..\lvgl\version_6.1.2\lvgl\src\lv_misc/lv_txt.c **** uint32_t (*lv_txt_encoded_prev)(const char *, uint32_t *)      = lv_txt_iso8859_1_prev;
  68:..\..\..\lvgl\version_6.1.2\lvgl\src\lv_misc/lv_txt.c **** uint32_t (*lv_txt_encoded_get_byte_id)(const char *, uint32_t) = lv_txt_iso8859_1_get_byte_id;
  69:..\..\..\lvgl\version_6.1.2\lvgl\src\lv_misc/lv_txt.c **** uint32_t (*lv_txt_encoded_get_char_id)(const char *, uint32_t)     = lv_txt_iso8859_1_get_char_id;
  70:..\..\..\lvgl\version_6.1.2\lvgl\src\lv_misc/lv_txt.c **** uint32_t (*lv_txt_get_encoded_length)(const char *)            = lv_txt_iso8859_1_get_length;
  71:..\..\..\lvgl\version_6.1.2\lvgl\src\lv_misc/lv_txt.c **** 
  72:..\..\..\lvgl\version_6.1.2\lvgl\src\lv_misc/lv_txt.c **** #endif
  73:..\..\..\lvgl\version_6.1.2\lvgl\src\lv_misc/lv_txt.c **** 
  74:..\..\..\lvgl\version_6.1.2\lvgl\src\lv_misc/lv_txt.c **** /**********************
  75:..\..\..\lvgl\version_6.1.2\lvgl\src\lv_misc/lv_txt.c ****  *      MACROS
  76:..\..\..\lvgl\version_6.1.2\lvgl\src\lv_misc/lv_txt.c ****  **********************/
  77:..\..\..\lvgl\version_6.1.2\lvgl\src\lv_misc/lv_txt.c **** 
  78:..\..\..\lvgl\version_6.1.2\lvgl\src\lv_misc/lv_txt.c **** /**********************
  79:..\..\..\lvgl\version_6.1.2\lvgl\src\lv_misc/lv_txt.c ****  *   GLOBAL FUNCTIONS
  80:..\..\..\lvgl\version_6.1.2\lvgl\src\lv_misc/lv_txt.c ****  **********************/
  81:..\..\..\lvgl\version_6.1.2\lvgl\src\lv_misc/lv_txt.c **** 
  82:..\..\..\lvgl\version_6.1.2\lvgl\src\lv_misc/lv_txt.c **** /**
  83:..\..\..\lvgl\version_6.1.2\lvgl\src\lv_misc/lv_txt.c ****  * Get size of a text
  84:..\..\..\lvgl\version_6.1.2\lvgl\src\lv_misc/lv_txt.c ****  * @param size_res pointer to a 'point_t' variable to store the result
  85:..\..\..\lvgl\version_6.1.2\lvgl\src\lv_misc/lv_txt.c ****  * @param text pointer to a text
  86:..\..\..\lvgl\version_6.1.2\lvgl\src\lv_misc/lv_txt.c ****  * @param font pinter to font of the text
  87:..\..\..\lvgl\version_6.1.2\lvgl\src\lv_misc/lv_txt.c ****  * @param letter_space letter space of the text
  88:..\..\..\lvgl\version_6.1.2\lvgl\src\lv_misc/lv_txt.c ****  * @param txt.line_space line space of the text
  89:..\..\..\lvgl\version_6.1.2\lvgl\src\lv_misc/lv_txt.c ****  * @param flags settings for the text from 'txt_flag_t' enum
  90:..\..\..\lvgl\version_6.1.2\lvgl\src\lv_misc/lv_txt.c ****  * @param max_width max with of the text (break the lines to fit this size) Set CORD_MAX to avoid
  91:..\..\..\lvgl\version_6.1.2\lvgl\src\lv_misc/lv_txt.c ****  * line breaks
  92:..\..\..\lvgl\version_6.1.2\lvgl\src\lv_misc/lv_txt.c ****  */
  93:..\..\..\lvgl\version_6.1.2\lvgl\src\lv_misc/lv_txt.c **** void lv_txt_get_size(lv_point_t * size_res, const char * text, const lv_font_t * font, lv_coord_t l
  94:..\..\..\lvgl\version_6.1.2\lvgl\src\lv_misc/lv_txt.c ****                      lv_coord_t line_space, lv_coord_t max_width, lv_txt_flag_t flag)
  95:..\..\..\lvgl\version_6.1.2\lvgl\src\lv_misc/lv_txt.c **** {
 116              		.loc 2 95 0
 117              		.cfi_startproc
 118              		@ args = 12, pretend = 0, frame = 32
 119              		@ frame_needed = 1, uses_anonymous_args = 0
 120 0000 80B5     		push	{r7, lr}
ARM GAS  C:\Users\tmj32\AppData\Local\Temp\ccPoPccU.s 			page 7


 121              		.cfi_def_cfa_offset 8
 122              		.cfi_offset 7, -8
 123              		.cfi_offset 14, -4
 124 0002 8AB0     		sub	sp, sp, #40
 125              		.cfi_def_cfa_offset 48
 126 0004 02AF     		add	r7, sp, #8
 127              		.cfi_def_cfa 7, 40
 128 0006 F860     		str	r0, [r7, #12]
 129 0008 B960     		str	r1, [r7, #8]
 130 000a 7A60     		str	r2, [r7, #4]
 131 000c 7B80     		strh	r3, [r7, #2]	@ movhi
  96:..\..\..\lvgl\version_6.1.2\lvgl\src\lv_misc/lv_txt.c ****     size_res->x = 0;
 132              		.loc 2 96 0
 133 000e FB68     		ldr	r3, [r7, #12]
 134 0010 0022     		movs	r2, #0
 135 0012 1A80     		strh	r2, [r3]	@ movhi
  97:..\..\..\lvgl\version_6.1.2\lvgl\src\lv_misc/lv_txt.c ****     size_res->y = 0;
 136              		.loc 2 97 0
 137 0014 FB68     		ldr	r3, [r7, #12]
 138 0016 0022     		movs	r2, #0
 139 0018 5A80     		strh	r2, [r3, #2]	@ movhi
  98:..\..\..\lvgl\version_6.1.2\lvgl\src\lv_misc/lv_txt.c **** 
  99:..\..\..\lvgl\version_6.1.2\lvgl\src\lv_misc/lv_txt.c ****     if(text == NULL) return;
 140              		.loc 2 99 0
 141 001a BB68     		ldr	r3, [r7, #8]
 142 001c 002B     		cmp	r3, #0
 143 001e 00F0A680 		beq	.L14
 100:..\..\..\lvgl\version_6.1.2\lvgl\src\lv_misc/lv_txt.c ****     if(font == NULL) return;
 144              		.loc 2 100 0
 145 0022 7B68     		ldr	r3, [r7, #4]
 146 0024 002B     		cmp	r3, #0
 147 0026 00F0A480 		beq	.L15
 101:..\..\..\lvgl\version_6.1.2\lvgl\src\lv_misc/lv_txt.c **** 
 102:..\..\..\lvgl\version_6.1.2\lvgl\src\lv_misc/lv_txt.c ****     if(flag & LV_TXT_FLAG_EXPAND) max_width = LV_COORD_MAX;
 148              		.loc 2 102 0
 149 002a 97F83030 		ldrb	r3, [r7, #48]	@ zero_extendqisi2
 150 002e 03F00203 		and	r3, r3, #2
 151 0032 002B     		cmp	r3, #0
 152 0034 02D0     		beq	.L7
 153              		.loc 2 102 0 is_stmt 0 discriminator 1
 154 0036 47F61843 		movw	r3, #31768
 155 003a BB85     		strh	r3, [r7, #44]	@ movhi
 156              	.L7:
 103:..\..\..\lvgl\version_6.1.2\lvgl\src\lv_misc/lv_txt.c **** 
 104:..\..\..\lvgl\version_6.1.2\lvgl\src\lv_misc/lv_txt.c ****     uint32_t line_start     = 0;
 157              		.loc 2 104 0 is_stmt 1
 158 003c 0023     		movs	r3, #0
 159 003e FB61     		str	r3, [r7, #28]
 105:..\..\..\lvgl\version_6.1.2\lvgl\src\lv_misc/lv_txt.c ****     uint32_t new_line_start = 0;
 160              		.loc 2 105 0
 161 0040 0023     		movs	r3, #0
 162 0042 BB61     		str	r3, [r7, #24]
 106:..\..\..\lvgl\version_6.1.2\lvgl\src\lv_misc/lv_txt.c ****     lv_coord_t act_line_length;
 107:..\..\..\lvgl\version_6.1.2\lvgl\src\lv_misc/lv_txt.c ****     uint8_t letter_height = lv_font_get_line_height(font);
 163              		.loc 2 107 0
 164 0044 7868     		ldr	r0, [r7, #4]
 165 0046 FFF7FEFF 		bl	lv_font_get_line_height
ARM GAS  C:\Users\tmj32\AppData\Local\Temp\ccPoPccU.s 			page 8


 166 004a 0346     		mov	r3, r0
 167 004c FB75     		strb	r3, [r7, #23]
 108:..\..\..\lvgl\version_6.1.2\lvgl\src\lv_misc/lv_txt.c **** 
 109:..\..\..\lvgl\version_6.1.2\lvgl\src\lv_misc/lv_txt.c ****     /*Calc. the height and longest line*/
 110:..\..\..\lvgl\version_6.1.2\lvgl\src\lv_misc/lv_txt.c ****     while(text[line_start] != '\0') {
 168              		.loc 2 110 0
 169 004e 54E0     		b	.L8
 170              	.L10:
 111:..\..\..\lvgl\version_6.1.2\lvgl\src\lv_misc/lv_txt.c ****         new_line_start += lv_txt_get_next_line(&text[line_start], font, letter_space, max_width, fl
 171              		.loc 2 111 0
 172 0050 BA68     		ldr	r2, [r7, #8]
 173 0052 FB69     		ldr	r3, [r7, #28]
 174 0054 D018     		adds	r0, r2, r3
 175 0056 B7F92C10 		ldrsh	r1, [r7, #44]
 176 005a B7F90220 		ldrsh	r2, [r7, #2]
 177 005e 97F83030 		ldrb	r3, [r7, #48]	@ zero_extendqisi2
 178 0062 0093     		str	r3, [sp]
 179 0064 0B46     		mov	r3, r1
 180 0066 7968     		ldr	r1, [r7, #4]
 181 0068 FFF7FEFF 		bl	lv_txt_get_next_line
 182 006c 0346     		mov	r3, r0
 183 006e 1A46     		mov	r2, r3
 184 0070 BB69     		ldr	r3, [r7, #24]
 185 0072 1344     		add	r3, r3, r2
 186 0074 BB61     		str	r3, [r7, #24]
 112:..\..\..\lvgl\version_6.1.2\lvgl\src\lv_misc/lv_txt.c **** 
 113:..\..\..\lvgl\version_6.1.2\lvgl\src\lv_misc/lv_txt.c ****         if ((unsigned long)size_res->y + (unsigned long)letter_height + (unsigned long)line_space >
 187              		.loc 2 113 0
 188 0076 FB68     		ldr	r3, [r7, #12]
 189 0078 B3F90230 		ldrsh	r3, [r3, #2]
 190 007c 1A46     		mov	r2, r3
 191 007e FB7D     		ldrb	r3, [r7, #23]	@ zero_extendqisi2
 192 0080 1A44     		add	r2, r2, r3
 193 0082 B7F92830 		ldrsh	r3, [r7, #40]
 194 0086 1344     		add	r3, r3, r2
 195 0088 B3F5004F 		cmp	r3, #32768
 196 008c 73D2     		bcs	.L16
 114:..\..\..\lvgl\version_6.1.2\lvgl\src\lv_misc/lv_txt.c ****             LV_LOG_WARN("lv_txt_get_size: integer overflow while calculating text height");
 115:..\..\..\lvgl\version_6.1.2\lvgl\src\lv_misc/lv_txt.c ****             return;
 116:..\..\..\lvgl\version_6.1.2\lvgl\src\lv_misc/lv_txt.c ****         } else {
 117:..\..\..\lvgl\version_6.1.2\lvgl\src\lv_misc/lv_txt.c ****             size_res->y += letter_height;
 197              		.loc 2 117 0
 198 008e FB68     		ldr	r3, [r7, #12]
 199 0090 B3F90230 		ldrsh	r3, [r3, #2]
 200 0094 9AB2     		uxth	r2, r3
 201 0096 FB7D     		ldrb	r3, [r7, #23]	@ zero_extendqisi2
 202 0098 9BB2     		uxth	r3, r3
 203 009a 1344     		add	r3, r3, r2
 204 009c 9BB2     		uxth	r3, r3
 205 009e 1AB2     		sxth	r2, r3
 206 00a0 FB68     		ldr	r3, [r7, #12]
 207 00a2 5A80     		strh	r2, [r3, #2]	@ movhi
 118:..\..\..\lvgl\version_6.1.2\lvgl\src\lv_misc/lv_txt.c ****             size_res->y += line_space;
 208              		.loc 2 118 0
 209 00a4 FB68     		ldr	r3, [r7, #12]
 210 00a6 B3F90230 		ldrsh	r3, [r3, #2]
 211 00aa 9AB2     		uxth	r2, r3
ARM GAS  C:\Users\tmj32\AppData\Local\Temp\ccPoPccU.s 			page 9


 212 00ac 3B8D     		ldrh	r3, [r7, #40]
 213 00ae 1344     		add	r3, r3, r2
 214 00b0 9BB2     		uxth	r3, r3
 215 00b2 1AB2     		sxth	r2, r3
 216 00b4 FB68     		ldr	r3, [r7, #12]
 217 00b6 5A80     		strh	r2, [r3, #2]	@ movhi
 119:..\..\..\lvgl\version_6.1.2\lvgl\src\lv_misc/lv_txt.c ****         }
 120:..\..\..\lvgl\version_6.1.2\lvgl\src\lv_misc/lv_txt.c **** 
 121:..\..\..\lvgl\version_6.1.2\lvgl\src\lv_misc/lv_txt.c ****         /*Calculate the the longest line*/
 122:..\..\..\lvgl\version_6.1.2\lvgl\src\lv_misc/lv_txt.c ****         act_line_length = lv_txt_get_width(&text[line_start], new_line_start - line_start, font, le
 218              		.loc 2 122 0
 219 00b8 BA68     		ldr	r2, [r7, #8]
 220 00ba FB69     		ldr	r3, [r7, #28]
 221 00bc D018     		adds	r0, r2, r3
 222 00be BB69     		ldr	r3, [r7, #24]
 223 00c0 9AB2     		uxth	r2, r3
 224 00c2 FB69     		ldr	r3, [r7, #28]
 225 00c4 9BB2     		uxth	r3, r3
 226 00c6 D31A     		subs	r3, r2, r3
 227 00c8 99B2     		uxth	r1, r3
 228 00ca B7F90220 		ldrsh	r2, [r7, #2]
 229 00ce 97F83030 		ldrb	r3, [r7, #48]	@ zero_extendqisi2
 230 00d2 0093     		str	r3, [sp]
 231 00d4 1346     		mov	r3, r2
 232 00d6 7A68     		ldr	r2, [r7, #4]
 233 00d8 FFF7FEFF 		bl	lv_txt_get_width
 234 00dc 0346     		mov	r3, r0
 235 00de BB82     		strh	r3, [r7, #20]	@ movhi
 123:..\..\..\lvgl\version_6.1.2\lvgl\src\lv_misc/lv_txt.c **** 
 124:..\..\..\lvgl\version_6.1.2\lvgl\src\lv_misc/lv_txt.c ****         size_res->x = LV_MATH_MAX(act_line_length, size_res->x);
 236              		.loc 2 124 0
 237 00e0 FB68     		ldr	r3, [r7, #12]
 238 00e2 B3F90020 		ldrsh	r2, [r3]
 239 00e6 B7F91430 		ldrsh	r3, [r7, #20]
 240 00ea 9342     		cmp	r3, r2
 241 00ec B8BF     		it	lt
 242 00ee 1346     		movlt	r3, r2
 243 00f0 1AB2     		sxth	r2, r3
 244 00f2 FB68     		ldr	r3, [r7, #12]
 245 00f4 1A80     		strh	r2, [r3]	@ movhi
 125:..\..\..\lvgl\version_6.1.2\lvgl\src\lv_misc/lv_txt.c ****         line_start  = new_line_start;
 246              		.loc 2 125 0
 247 00f6 BB69     		ldr	r3, [r7, #24]
 248 00f8 FB61     		str	r3, [r7, #28]
 249              	.L8:
 110:..\..\..\lvgl\version_6.1.2\lvgl\src\lv_misc/lv_txt.c ****         new_line_start += lv_txt_get_next_line(&text[line_start], font, letter_space, max_width, fl
 250              		.loc 2 110 0
 251 00fa BA68     		ldr	r2, [r7, #8]
 252 00fc FB69     		ldr	r3, [r7, #28]
 253 00fe 1344     		add	r3, r3, r2
 254 0100 1B78     		ldrb	r3, [r3]	@ zero_extendqisi2
 255 0102 002B     		cmp	r3, #0
 256 0104 A4D1     		bne	.L10
 126:..\..\..\lvgl\version_6.1.2\lvgl\src\lv_misc/lv_txt.c ****     }
 127:..\..\..\lvgl\version_6.1.2\lvgl\src\lv_misc/lv_txt.c **** 
 128:..\..\..\lvgl\version_6.1.2\lvgl\src\lv_misc/lv_txt.c ****     /*Make the text one line taller if the last character is '\n' or '\r'*/
 129:..\..\..\lvgl\version_6.1.2\lvgl\src\lv_misc/lv_txt.c ****     if((line_start != 0) && (text[line_start - 1] == '\n' || text[line_start - 1] == '\r')) {
ARM GAS  C:\Users\tmj32\AppData\Local\Temp\ccPoPccU.s 			page 10


 257              		.loc 2 129 0
 258 0106 FB69     		ldr	r3, [r7, #28]
 259 0108 002B     		cmp	r3, #0
 260 010a 1BD0     		beq	.L11
 261              		.loc 2 129 0 is_stmt 0 discriminator 1
 262 010c FB69     		ldr	r3, [r7, #28]
 263 010e 013B     		subs	r3, r3, #1
 264 0110 BA68     		ldr	r2, [r7, #8]
 265 0112 1344     		add	r3, r3, r2
 266 0114 1B78     		ldrb	r3, [r3]	@ zero_extendqisi2
 267 0116 0A2B     		cmp	r3, #10
 268 0118 06D0     		beq	.L12
 269              		.loc 2 129 0 discriminator 2
 270 011a FB69     		ldr	r3, [r7, #28]
 271 011c 013B     		subs	r3, r3, #1
 272 011e BA68     		ldr	r2, [r7, #8]
 273 0120 1344     		add	r3, r3, r2
 274 0122 1B78     		ldrb	r3, [r3]	@ zero_extendqisi2
 275 0124 0D2B     		cmp	r3, #13
 276 0126 0DD1     		bne	.L11
 277              	.L12:
 130:..\..\..\lvgl\version_6.1.2\lvgl\src\lv_misc/lv_txt.c ****         size_res->y += letter_height + line_space;
 278              		.loc 2 130 0 is_stmt 1
 279 0128 FB68     		ldr	r3, [r7, #12]
 280 012a B3F90230 		ldrsh	r3, [r3, #2]
 281 012e 9AB2     		uxth	r2, r3
 282 0130 FB7D     		ldrb	r3, [r7, #23]	@ zero_extendqisi2
 283 0132 99B2     		uxth	r1, r3
 284 0134 3B8D     		ldrh	r3, [r7, #40]
 285 0136 0B44     		add	r3, r3, r1
 286 0138 9BB2     		uxth	r3, r3
 287 013a 1344     		add	r3, r3, r2
 288 013c 9BB2     		uxth	r3, r3
 289 013e 1AB2     		sxth	r2, r3
 290 0140 FB68     		ldr	r3, [r7, #12]
 291 0142 5A80     		strh	r2, [r3, #2]	@ movhi
 292              	.L11:
 131:..\..\..\lvgl\version_6.1.2\lvgl\src\lv_misc/lv_txt.c ****     }
 132:..\..\..\lvgl\version_6.1.2\lvgl\src\lv_misc/lv_txt.c **** 
 133:..\..\..\lvgl\version_6.1.2\lvgl\src\lv_misc/lv_txt.c ****     /*Correction with the last line space or set the height manually if the text is empty*/
 134:..\..\..\lvgl\version_6.1.2\lvgl\src\lv_misc/lv_txt.c ****     if(size_res->y == 0)
 293              		.loc 2 134 0
 294 0144 FB68     		ldr	r3, [r7, #12]
 295 0146 B3F90230 		ldrsh	r3, [r3, #2]
 296 014a 002B     		cmp	r3, #0
 297 014c 04D1     		bne	.L13
 135:..\..\..\lvgl\version_6.1.2\lvgl\src\lv_misc/lv_txt.c ****         size_res->y = letter_height;
 298              		.loc 2 135 0
 299 014e FB7D     		ldrb	r3, [r7, #23]	@ zero_extendqisi2
 300 0150 1AB2     		sxth	r2, r3
 301 0152 FB68     		ldr	r3, [r7, #12]
 302 0154 5A80     		strh	r2, [r3, #2]	@ movhi
 303 0156 0FE0     		b	.L3
 304              	.L13:
 136:..\..\..\lvgl\version_6.1.2\lvgl\src\lv_misc/lv_txt.c ****     else
 137:..\..\..\lvgl\version_6.1.2\lvgl\src\lv_misc/lv_txt.c ****         size_res->y -= line_space;
 305              		.loc 2 137 0
ARM GAS  C:\Users\tmj32\AppData\Local\Temp\ccPoPccU.s 			page 11


 306 0158 FB68     		ldr	r3, [r7, #12]
 307 015a B3F90230 		ldrsh	r3, [r3, #2]
 308 015e 9AB2     		uxth	r2, r3
 309 0160 3B8D     		ldrh	r3, [r7, #40]
 310 0162 D31A     		subs	r3, r2, r3
 311 0164 9BB2     		uxth	r3, r3
 312 0166 1AB2     		sxth	r2, r3
 313 0168 FB68     		ldr	r3, [r7, #12]
 314 016a 5A80     		strh	r2, [r3, #2]	@ movhi
 315 016c 04E0     		b	.L3
 316              	.L14:
  99:..\..\..\lvgl\version_6.1.2\lvgl\src\lv_misc/lv_txt.c ****     if(font == NULL) return;
 317              		.loc 2 99 0
 318 016e 00BF     		nop
 319 0170 02E0     		b	.L3
 320              	.L15:
 100:..\..\..\lvgl\version_6.1.2\lvgl\src\lv_misc/lv_txt.c **** 
 321              		.loc 2 100 0
 322 0172 00BF     		nop
 323 0174 00E0     		b	.L3
 324              	.L16:
 115:..\..\..\lvgl\version_6.1.2\lvgl\src\lv_misc/lv_txt.c ****         } else {
 325              		.loc 2 115 0
 326 0176 00BF     		nop
 327              	.L3:
 138:..\..\..\lvgl\version_6.1.2\lvgl\src\lv_misc/lv_txt.c **** }
 328              		.loc 2 138 0
 329 0178 2037     		adds	r7, r7, #32
 330              		.cfi_def_cfa_offset 8
 331 017a BD46     		mov	sp, r7
 332              		.cfi_def_cfa_register 13
 333              		@ sp needed
 334 017c 80BD     		pop	{r7, pc}
 335              		.cfi_endproc
 336              	.LFE4:
 337              		.size	lv_txt_get_size, .-lv_txt_get_size
 338 017e 00BF     		.section	.text.lv_txt_get_next_word,"ax",%progbits
 339              		.align	2
 340              		.thumb
 341              		.thumb_func
 342              		.type	lv_txt_get_next_word, %function
 343              	lv_txt_get_next_word:
 344              	.LFB5:
 139:..\..\..\lvgl\version_6.1.2\lvgl\src\lv_misc/lv_txt.c **** 
 140:..\..\..\lvgl\version_6.1.2\lvgl\src\lv_misc/lv_txt.c **** /**
 141:..\..\..\lvgl\version_6.1.2\lvgl\src\lv_misc/lv_txt.c ****  * Get the next word of text. A word is delimited by break characters.
 142:..\..\..\lvgl\version_6.1.2\lvgl\src\lv_misc/lv_txt.c ****  *
 143:..\..\..\lvgl\version_6.1.2\lvgl\src\lv_misc/lv_txt.c ****  * If the word cannot fit in the max_width space, obey LV_TXT_LINE_BREAK_LONG_* rules.
 144:..\..\..\lvgl\version_6.1.2\lvgl\src\lv_misc/lv_txt.c ****  *
 145:..\..\..\lvgl\version_6.1.2\lvgl\src\lv_misc/lv_txt.c ****  * If the next word cannot fit anything, return 0.
 146:..\..\..\lvgl\version_6.1.2\lvgl\src\lv_misc/lv_txt.c ****  *
 147:..\..\..\lvgl\version_6.1.2\lvgl\src\lv_misc/lv_txt.c ****  * If the first character is a break character, returns the next index.
 148:..\..\..\lvgl\version_6.1.2\lvgl\src\lv_misc/lv_txt.c ****  *
 149:..\..\..\lvgl\version_6.1.2\lvgl\src\lv_misc/lv_txt.c ****  * Example calls from lv_txt_get_next_line() assuming sufficent max_width and
 150:..\..\..\lvgl\version_6.1.2\lvgl\src\lv_misc/lv_txt.c ****  * txt = "Test text\n"
 151:..\..\..\lvgl\version_6.1.2\lvgl\src\lv_misc/lv_txt.c ****  *        0123456789
 152:..\..\..\lvgl\version_6.1.2\lvgl\src\lv_misc/lv_txt.c ****  *
ARM GAS  C:\Users\tmj32\AppData\Local\Temp\ccPoPccU.s 			page 12


 153:..\..\..\lvgl\version_6.1.2\lvgl\src\lv_misc/lv_txt.c ****  * Calls would be as follows:
 154:..\..\..\lvgl\version_6.1.2\lvgl\src\lv_misc/lv_txt.c ****  *     1. Return i=4, pointing at breakchar ' ', for the string "Test"
 155:..\..\..\lvgl\version_6.1.2\lvgl\src\lv_misc/lv_txt.c ****  *     2. Return i=5, since i=4 was a breakchar.
 156:..\..\..\lvgl\version_6.1.2\lvgl\src\lv_misc/lv_txt.c ****  *     3. Return i=9, pointing at breakchar '\n'
 157:..\..\..\lvgl\version_6.1.2\lvgl\src\lv_misc/lv_txt.c ****  *     4. Parenting lv_txt_get_next_line() would detect subsequent '\0'
 158:..\..\..\lvgl\version_6.1.2\lvgl\src\lv_misc/lv_txt.c ****  *
 159:..\..\..\lvgl\version_6.1.2\lvgl\src\lv_misc/lv_txt.c ****  * TODO: Returned word_w_ptr may overestimate the returned word's width when 
 160:..\..\..\lvgl\version_6.1.2\lvgl\src\lv_misc/lv_txt.c ****  * max_width is reached. In current usage, this has no impact.
 161:..\..\..\lvgl\version_6.1.2\lvgl\src\lv_misc/lv_txt.c ****  *
 162:..\..\..\lvgl\version_6.1.2\lvgl\src\lv_misc/lv_txt.c ****  * @param txt a '\0' terminated string
 163:..\..\..\lvgl\version_6.1.2\lvgl\src\lv_misc/lv_txt.c ****  * @param font pointer to a font
 164:..\..\..\lvgl\version_6.1.2\lvgl\src\lv_misc/lv_txt.c ****  * @param letter_space letter space
 165:..\..\..\lvgl\version_6.1.2\lvgl\src\lv_misc/lv_txt.c ****  * @param max_width max with of the text (break the lines to fit this size) Set CORD_MAX to avoid l
 166:..\..\..\lvgl\version_6.1.2\lvgl\src\lv_misc/lv_txt.c ****  * @param flags settings for the text from 'txt_flag_type' enum
 167:..\..\..\lvgl\version_6.1.2\lvgl\src\lv_misc/lv_txt.c ****  * @param[out] word_w_ptr width (in pixels) of the parsed word. May be NULL.
 168:..\..\..\lvgl\version_6.1.2\lvgl\src\lv_misc/lv_txt.c ****  * @param force Force return the fraction of the word that can fit in the provided space.
 169:..\..\..\lvgl\version_6.1.2\lvgl\src\lv_misc/lv_txt.c ****  * @return the index of the first char of the next word (in byte index not letter index. With UTF-8
 170:..\..\..\lvgl\version_6.1.2\lvgl\src\lv_misc/lv_txt.c ****  */
 171:..\..\..\lvgl\version_6.1.2\lvgl\src\lv_misc/lv_txt.c **** static uint16_t lv_txt_get_next_word(const char * txt, const lv_font_t * font,
 172:..\..\..\lvgl\version_6.1.2\lvgl\src\lv_misc/lv_txt.c ****                               lv_coord_t letter_space, lv_coord_t max_width,
 173:..\..\..\lvgl\version_6.1.2\lvgl\src\lv_misc/lv_txt.c ****                               lv_txt_flag_t flag, uint32_t *word_w_ptr, lv_txt_cmd_state_t * cmd_st
 174:..\..\..\lvgl\version_6.1.2\lvgl\src\lv_misc/lv_txt.c **** {
 345              		.loc 2 174 0
 346              		.cfi_startproc
 347              		@ args = 16, pretend = 0, frame = 64
 348              		@ frame_needed = 1, uses_anonymous_args = 0
 349 0000 80B5     		push	{r7, lr}
 350              		.cfi_def_cfa_offset 8
 351              		.cfi_offset 7, -8
 352              		.cfi_offset 14, -4
 353 0002 90B0     		sub	sp, sp, #64
 354              		.cfi_def_cfa_offset 72
 355 0004 00AF     		add	r7, sp, #0
 356              		.cfi_def_cfa_register 7
 357 0006 F860     		str	r0, [r7, #12]
 358 0008 B960     		str	r1, [r7, #8]
 359 000a 1146     		mov	r1, r2
 360 000c 1A46     		mov	r2, r3
 361 000e 0B46     		mov	r3, r1	@ movhi
 362 0010 FB80     		strh	r3, [r7, #6]	@ movhi
 363 0012 1346     		mov	r3, r2	@ movhi
 364 0014 BB80     		strh	r3, [r7, #4]	@ movhi
 175:..\..\..\lvgl\version_6.1.2\lvgl\src\lv_misc/lv_txt.c ****     if(txt == NULL || txt[0] == '\0') return 0;
 365              		.loc 2 175 0
 366 0016 FB68     		ldr	r3, [r7, #12]
 367 0018 002B     		cmp	r3, #0
 368 001a 03D0     		beq	.L18
 369              		.loc 2 175 0 is_stmt 0 discriminator 2
 370 001c FB68     		ldr	r3, [r7, #12]
 371 001e 1B78     		ldrb	r3, [r3]	@ zero_extendqisi2
 372 0020 002B     		cmp	r3, #0
 373 0022 01D1     		bne	.L19
 374              	.L18:
 375              		.loc 2 175 0 discriminator 3
 376 0024 0023     		movs	r3, #0
 377 0026 F3E0     		b	.L44
 378              	.L19:
ARM GAS  C:\Users\tmj32\AppData\Local\Temp\ccPoPccU.s 			page 13


 176:..\..\..\lvgl\version_6.1.2\lvgl\src\lv_misc/lv_txt.c ****     if(font == NULL) return 0;
 379              		.loc 2 176 0 is_stmt 1
 380 0028 BB68     		ldr	r3, [r7, #8]
 381 002a 002B     		cmp	r3, #0
 382 002c 01D1     		bne	.L21
 383              		.loc 2 176 0 is_stmt 0 discriminator 1
 384 002e 0023     		movs	r3, #0
 385 0030 EEE0     		b	.L44
 386              	.L21:
 177:..\..\..\lvgl\version_6.1.2\lvgl\src\lv_misc/lv_txt.c **** 
 178:..\..\..\lvgl\version_6.1.2\lvgl\src\lv_misc/lv_txt.c ****     if(flag & LV_TXT_FLAG_EXPAND) max_width = LV_COORD_MAX;
 387              		.loc 2 178 0 is_stmt 1
 388 0032 97F84830 		ldrb	r3, [r7, #72]	@ zero_extendqisi2
 389 0036 03F00203 		and	r3, r3, #2
 390 003a 002B     		cmp	r3, #0
 391 003c 02D0     		beq	.L22
 392              		.loc 2 178 0 is_stmt 0 discriminator 1
 393 003e 47F61843 		movw	r3, #31768
 394 0042 BB80     		strh	r3, [r7, #4]	@ movhi
 395              	.L22:
 179:..\..\..\lvgl\version_6.1.2\lvgl\src\lv_misc/lv_txt.c **** 
 180:..\..\..\lvgl\version_6.1.2\lvgl\src\lv_misc/lv_txt.c ****     uint32_t i = 0, i_next = 0, i_next_next = 0;  /* Iterating index into txt */
 396              		.loc 2 180 0 is_stmt 1
 397 0044 0023     		movs	r3, #0
 398 0046 FB61     		str	r3, [r7, #28]
 399 0048 0023     		movs	r3, #0
 400 004a BB61     		str	r3, [r7, #24]
 401 004c 0023     		movs	r3, #0
 402 004e 7B61     		str	r3, [r7, #20]
 181:..\..\..\lvgl\version_6.1.2\lvgl\src\lv_misc/lv_txt.c ****     uint32_t letter = 0;      /* Letter at i */
 403              		.loc 2 181 0
 404 0050 0023     		movs	r3, #0
 405 0052 FB63     		str	r3, [r7, #60]
 182:..\..\..\lvgl\version_6.1.2\lvgl\src\lv_misc/lv_txt.c ****     uint32_t letter_next = 0; /* Letter at i_next */
 406              		.loc 2 182 0
 407 0054 0023     		movs	r3, #0
 408 0056 BB63     		str	r3, [r7, #56]
 183:..\..\..\lvgl\version_6.1.2\lvgl\src\lv_misc/lv_txt.c ****     lv_coord_t letter_w;
 184:..\..\..\lvgl\version_6.1.2\lvgl\src\lv_misc/lv_txt.c ****     lv_coord_t cur_w = 0;  /* Pixel Width of transversed string */
 409              		.loc 2 184 0
 410 0058 0023     		movs	r3, #0
 411 005a FB86     		strh	r3, [r7, #54]	@ movhi
 185:..\..\..\lvgl\version_6.1.2\lvgl\src\lv_misc/lv_txt.c ****     uint32_t word_len = 0;   /* Number of characters in the transversed word */
 412              		.loc 2 185 0
 413 005c 0023     		movs	r3, #0
 414 005e 3B63     		str	r3, [r7, #48]
 186:..\..\..\lvgl\version_6.1.2\lvgl\src\lv_misc/lv_txt.c ****     uint32_t break_index = NO_BREAK_FOUND; /* only used for "long" words */
 415              		.loc 2 186 0
 416 0060 4FF0FF33 		mov	r3, #-1
 417 0064 FB62     		str	r3, [r7, #44]
 187:..\..\..\lvgl\version_6.1.2\lvgl\src\lv_misc/lv_txt.c ****     uint32_t break_letter_count = 0; /* Number of characters up to the long word break point */
 418              		.loc 2 187 0
 419 0066 0023     		movs	r3, #0
 420 0068 BB62     		str	r3, [r7, #40]
 188:..\..\..\lvgl\version_6.1.2\lvgl\src\lv_misc/lv_txt.c **** 
 189:..\..\..\lvgl\version_6.1.2\lvgl\src\lv_misc/lv_txt.c ****     letter = lv_txt_encoded_next(txt, &i_next);
 421              		.loc 2 189 0
ARM GAS  C:\Users\tmj32\AppData\Local\Temp\ccPoPccU.s 			page 14


 422 006a 6B4B     		ldr	r3, .L45
 423 006c 1B68     		ldr	r3, [r3]
 424 006e 07F11802 		add	r2, r7, #24
 425 0072 1146     		mov	r1, r2
 426 0074 F868     		ldr	r0, [r7, #12]
 427 0076 9847     		blx	r3
 428 0078 F863     		str	r0, [r7, #60]
 190:..\..\..\lvgl\version_6.1.2\lvgl\src\lv_misc/lv_txt.c ****     i_next_next = i_next;
 429              		.loc 2 190 0
 430 007a BB69     		ldr	r3, [r7, #24]
 431 007c 7B61     		str	r3, [r7, #20]
 191:..\..\..\lvgl\version_6.1.2\lvgl\src\lv_misc/lv_txt.c **** 
 192:..\..\..\lvgl\version_6.1.2\lvgl\src\lv_misc/lv_txt.c ****     /* Obtain the full word, regardless if it fits or not in max_width */
 193:..\..\..\lvgl\version_6.1.2\lvgl\src\lv_misc/lv_txt.c ****     while(txt[i] != '\0') {
 432              		.loc 2 193 0
 433 007e 74E0     		b	.L23
 434              	.L32:
 194:..\..\..\lvgl\version_6.1.2\lvgl\src\lv_misc/lv_txt.c ****         letter_next = lv_txt_encoded_next(txt, &i_next_next);
 435              		.loc 2 194 0
 436 0080 654B     		ldr	r3, .L45
 437 0082 1B68     		ldr	r3, [r3]
 438 0084 07F11402 		add	r2, r7, #20
 439 0088 1146     		mov	r1, r2
 440 008a F868     		ldr	r0, [r7, #12]
 441 008c 9847     		blx	r3
 442 008e B863     		str	r0, [r7, #56]
 195:..\..\..\lvgl\version_6.1.2\lvgl\src\lv_misc/lv_txt.c ****         word_len++;
 443              		.loc 2 195 0
 444 0090 3B6B     		ldr	r3, [r7, #48]
 445 0092 0133     		adds	r3, r3, #1
 446 0094 3B63     		str	r3, [r7, #48]
 196:..\..\..\lvgl\version_6.1.2\lvgl\src\lv_misc/lv_txt.c **** 
 197:..\..\..\lvgl\version_6.1.2\lvgl\src\lv_misc/lv_txt.c ****         /*Handle the recolor command*/
 198:..\..\..\lvgl\version_6.1.2\lvgl\src\lv_misc/lv_txt.c ****         if((flag & LV_TXT_FLAG_RECOLOR) != 0) {
 447              		.loc 2 198 0
 448 0096 97F84830 		ldrb	r3, [r7, #72]	@ zero_extendqisi2
 449 009a 03F00103 		and	r3, r3, #1
 450 009e 002B     		cmp	r3, #0
 451 00a0 0DD0     		beq	.L24
 199:..\..\..\lvgl\version_6.1.2\lvgl\src\lv_misc/lv_txt.c ****             if(lv_txt_is_cmd(cmd_state, letter) != false) {
 452              		.loc 2 199 0
 453 00a2 F96B     		ldr	r1, [r7, #60]
 454 00a4 386D     		ldr	r0, [r7, #80]
 455 00a6 FFF7FEFF 		bl	lv_txt_is_cmd
 456 00aa 0346     		mov	r3, r0
 457 00ac 002B     		cmp	r3, #0
 458 00ae 06D0     		beq	.L24
 200:..\..\..\lvgl\version_6.1.2\lvgl\src\lv_misc/lv_txt.c ****                 i = i_next;
 459              		.loc 2 200 0
 460 00b0 BB69     		ldr	r3, [r7, #24]
 461 00b2 FB61     		str	r3, [r7, #28]
 201:..\..\..\lvgl\version_6.1.2\lvgl\src\lv_misc/lv_txt.c ****                 i_next = i_next_next;
 462              		.loc 2 201 0
 463 00b4 7B69     		ldr	r3, [r7, #20]
 464 00b6 BB61     		str	r3, [r7, #24]
 202:..\..\..\lvgl\version_6.1.2\lvgl\src\lv_misc/lv_txt.c ****                 letter = letter_next;
 465              		.loc 2 202 0
ARM GAS  C:\Users\tmj32\AppData\Local\Temp\ccPoPccU.s 			page 15


 466 00b8 BB6B     		ldr	r3, [r7, #56]
 467 00ba FB63     		str	r3, [r7, #60]
 203:..\..\..\lvgl\version_6.1.2\lvgl\src\lv_misc/lv_txt.c ****                 continue;   /*Skip the letter is it is part of a command*/
 468              		.loc 2 203 0
 469 00bc 55E0     		b	.L23
 470              	.L24:
 204:..\..\..\lvgl\version_6.1.2\lvgl\src\lv_misc/lv_txt.c ****             }
 205:..\..\..\lvgl\version_6.1.2\lvgl\src\lv_misc/lv_txt.c ****         }
 206:..\..\..\lvgl\version_6.1.2\lvgl\src\lv_misc/lv_txt.c **** 
 207:..\..\..\lvgl\version_6.1.2\lvgl\src\lv_misc/lv_txt.c ****         letter_w = lv_font_get_glyph_width(font, letter, letter_next);
 471              		.loc 2 207 0
 472 00be BA6B     		ldr	r2, [r7, #56]
 473 00c0 F96B     		ldr	r1, [r7, #60]
 474 00c2 B868     		ldr	r0, [r7, #8]
 475 00c4 FFF7FEFF 		bl	lv_font_get_glyph_width
 476 00c8 0346     		mov	r3, r0
 477 00ca 7B84     		strh	r3, [r7, #34]	@ movhi
 208:..\..\..\lvgl\version_6.1.2\lvgl\src\lv_misc/lv_txt.c ****         cur_w += letter_w;
 478              		.loc 2 208 0
 479 00cc FA8E     		ldrh	r2, [r7, #54]
 480 00ce 7B8C     		ldrh	r3, [r7, #34]
 481 00d0 1344     		add	r3, r3, r2
 482 00d2 9BB2     		uxth	r3, r3
 483 00d4 FB86     		strh	r3, [r7, #54]	@ movhi
 209:..\..\..\lvgl\version_6.1.2\lvgl\src\lv_misc/lv_txt.c **** 
 210:..\..\..\lvgl\version_6.1.2\lvgl\src\lv_misc/lv_txt.c ****         if(letter_w > 0) {
 484              		.loc 2 210 0
 485 00d6 B7F92230 		ldrsh	r3, [r7, #34]
 486 00da 002B     		cmp	r3, #0
 487 00dc 04DD     		ble	.L25
 211:..\..\..\lvgl\version_6.1.2\lvgl\src\lv_misc/lv_txt.c ****             cur_w += letter_space;
 488              		.loc 2 211 0
 489 00de FA8E     		ldrh	r2, [r7, #54]
 490 00e0 FB88     		ldrh	r3, [r7, #6]
 491 00e2 1344     		add	r3, r3, r2
 492 00e4 9BB2     		uxth	r3, r3
 493 00e6 FB86     		strh	r3, [r7, #54]	@ movhi
 494              	.L25:
 212:..\..\..\lvgl\version_6.1.2\lvgl\src\lv_misc/lv_txt.c ****         }
 213:..\..\..\lvgl\version_6.1.2\lvgl\src\lv_misc/lv_txt.c **** 
 214:..\..\..\lvgl\version_6.1.2\lvgl\src\lv_misc/lv_txt.c ****         /* Test if this character fits within max_width */
 215:..\..\..\lvgl\version_6.1.2\lvgl\src\lv_misc/lv_txt.c ****         if(break_index == NO_BREAK_FOUND && (cur_w - letter_space) > max_width) {
 495              		.loc 2 215 0
 496 00e8 FB6A     		ldr	r3, [r7, #44]
 497 00ea B3F1FF3F 		cmp	r3, #-1
 498 00ee 0DD1     		bne	.L26
 499              		.loc 2 215 0 is_stmt 0 discriminator 1
 500 00f0 B7F93620 		ldrsh	r2, [r7, #54]
 501 00f4 B7F90630 		ldrsh	r3, [r7, #6]
 502 00f8 D21A     		subs	r2, r2, r3
 503 00fa B7F90430 		ldrsh	r3, [r7, #4]
 504 00fe 9A42     		cmp	r2, r3
 505 0100 04DD     		ble	.L26
 216:..\..\..\lvgl\version_6.1.2\lvgl\src\lv_misc/lv_txt.c ****             break_index = i; 
 506              		.loc 2 216 0 is_stmt 1
 507 0102 FB69     		ldr	r3, [r7, #28]
 508 0104 FB62     		str	r3, [r7, #44]
ARM GAS  C:\Users\tmj32\AppData\Local\Temp\ccPoPccU.s 			page 16


 217:..\..\..\lvgl\version_6.1.2\lvgl\src\lv_misc/lv_txt.c ****             break_letter_count = word_len - 1;
 509              		.loc 2 217 0
 510 0106 3B6B     		ldr	r3, [r7, #48]
 511 0108 013B     		subs	r3, r3, #1
 512 010a BB62     		str	r3, [r7, #40]
 513              	.L26:
 218:..\..\..\lvgl\version_6.1.2\lvgl\src\lv_misc/lv_txt.c ****             /* break_index is now pointing at the character that doesn't fit */
 219:..\..\..\lvgl\version_6.1.2\lvgl\src\lv_misc/lv_txt.c ****         }
 220:..\..\..\lvgl\version_6.1.2\lvgl\src\lv_misc/lv_txt.c **** 
 221:..\..\..\lvgl\version_6.1.2\lvgl\src\lv_misc/lv_txt.c ****         /*Check for new line chars and breakchars*/
 222:..\..\..\lvgl\version_6.1.2\lvgl\src\lv_misc/lv_txt.c ****         if(letter == '\n' || letter == '\r' || is_break_char(letter)) {
 514              		.loc 2 222 0
 515 010c FB6B     		ldr	r3, [r7, #60]
 516 010e 0A2B     		cmp	r3, #10
 517 0110 08D0     		beq	.L27
 518              		.loc 2 222 0 is_stmt 0 discriminator 1
 519 0112 FB6B     		ldr	r3, [r7, #60]
 520 0114 0D2B     		cmp	r3, #13
 521 0116 05D0     		beq	.L27
 522              		.loc 2 222 0 discriminator 2
 523 0118 F86B     		ldr	r0, [r7, #60]
 524 011a FFF7FEFF 		bl	is_break_char
 525 011e 0346     		mov	r3, r0
 526 0120 002B     		cmp	r3, #0
 527 0122 11D0     		beq	.L28
 528              	.L27:
 223:..\..\..\lvgl\version_6.1.2\lvgl\src\lv_misc/lv_txt.c ****             /* Update the output width on the first character if it fits.
 224:..\..\..\lvgl\version_6.1.2\lvgl\src\lv_misc/lv_txt.c ****              * Must do this here incase first letter is a break character. */
 225:..\..\..\lvgl\version_6.1.2\lvgl\src\lv_misc/lv_txt.c ****             if(i == 0 && break_index == NO_BREAK_FOUND && word_w_ptr != NULL) *word_w_ptr = cur_w;
 529              		.loc 2 225 0 is_stmt 1
 530 0124 FB69     		ldr	r3, [r7, #28]
 531 0126 002B     		cmp	r3, #0
 532 0128 0AD1     		bne	.L29
 533              		.loc 2 225 0 is_stmt 0 discriminator 1
 534 012a FB6A     		ldr	r3, [r7, #44]
 535 012c B3F1FF3F 		cmp	r3, #-1
 536 0130 06D1     		bne	.L29
 537              		.loc 2 225 0 discriminator 2
 538 0132 FB6C     		ldr	r3, [r7, #76]
 539 0134 002B     		cmp	r3, #0
 540 0136 03D0     		beq	.L29
 541              		.loc 2 225 0 discriminator 3
 542 0138 B7F93620 		ldrsh	r2, [r7, #54]
 543 013c FB6C     		ldr	r3, [r7, #76]
 544 013e 1A60     		str	r2, [r3]
 545              	.L29:
 226:..\..\..\lvgl\version_6.1.2\lvgl\src\lv_misc/lv_txt.c ****             word_len--;
 546              		.loc 2 226 0 is_stmt 1
 547 0140 3B6B     		ldr	r3, [r7, #48]
 548 0142 013B     		subs	r3, r3, #1
 549 0144 3B63     		str	r3, [r7, #48]
 227:..\..\..\lvgl\version_6.1.2\lvgl\src\lv_misc/lv_txt.c ****             break;
 550              		.loc 2 227 0
 551 0146 16E0     		b	.L30
 552              	.L28:
 228:..\..\..\lvgl\version_6.1.2\lvgl\src\lv_misc/lv_txt.c ****         }
 229:..\..\..\lvgl\version_6.1.2\lvgl\src\lv_misc/lv_txt.c **** 
ARM GAS  C:\Users\tmj32\AppData\Local\Temp\ccPoPccU.s 			page 17


 230:..\..\..\lvgl\version_6.1.2\lvgl\src\lv_misc/lv_txt.c ****         /* Update the output width */
 231:..\..\..\lvgl\version_6.1.2\lvgl\src\lv_misc/lv_txt.c ****         if( word_w_ptr != NULL && break_index == NO_BREAK_FOUND ) *word_w_ptr = cur_w;
 553              		.loc 2 231 0
 554 0148 FB6C     		ldr	r3, [r7, #76]
 555 014a 002B     		cmp	r3, #0
 556 014c 07D0     		beq	.L31
 557              		.loc 2 231 0 is_stmt 0 discriminator 1
 558 014e FB6A     		ldr	r3, [r7, #44]
 559 0150 B3F1FF3F 		cmp	r3, #-1
 560 0154 03D1     		bne	.L31
 561              		.loc 2 231 0 discriminator 2
 562 0156 B7F93620 		ldrsh	r2, [r7, #54]
 563 015a FB6C     		ldr	r3, [r7, #76]
 564 015c 1A60     		str	r2, [r3]
 565              	.L31:
 232:..\..\..\lvgl\version_6.1.2\lvgl\src\lv_misc/lv_txt.c **** 
 233:..\..\..\lvgl\version_6.1.2\lvgl\src\lv_misc/lv_txt.c **** 
 234:..\..\..\lvgl\version_6.1.2\lvgl\src\lv_misc/lv_txt.c ****         i = i_next;
 566              		.loc 2 234 0 is_stmt 1
 567 015e BB69     		ldr	r3, [r7, #24]
 568 0160 FB61     		str	r3, [r7, #28]
 235:..\..\..\lvgl\version_6.1.2\lvgl\src\lv_misc/lv_txt.c ****         i_next = i_next_next;
 569              		.loc 2 235 0
 570 0162 7B69     		ldr	r3, [r7, #20]
 571 0164 BB61     		str	r3, [r7, #24]
 236:..\..\..\lvgl\version_6.1.2\lvgl\src\lv_misc/lv_txt.c ****         letter = letter_next;
 572              		.loc 2 236 0
 573 0166 BB6B     		ldr	r3, [r7, #56]
 574 0168 FB63     		str	r3, [r7, #60]
 575              	.L23:
 193:..\..\..\lvgl\version_6.1.2\lvgl\src\lv_misc/lv_txt.c ****         letter_next = lv_txt_encoded_next(txt, &i_next_next);
 576              		.loc 2 193 0
 577 016a FB69     		ldr	r3, [r7, #28]
 578 016c FA68     		ldr	r2, [r7, #12]
 579 016e 1344     		add	r3, r3, r2
 580 0170 1B78     		ldrb	r3, [r3]	@ zero_extendqisi2
 581 0172 002B     		cmp	r3, #0
 582 0174 84D1     		bne	.L32
 583              	.L30:
 237:..\..\..\lvgl\version_6.1.2\lvgl\src\lv_misc/lv_txt.c ****     }
 238:..\..\..\lvgl\version_6.1.2\lvgl\src\lv_misc/lv_txt.c **** 
 239:..\..\..\lvgl\version_6.1.2\lvgl\src\lv_misc/lv_txt.c ****     /* Entire Word fits in the provided space */
 240:..\..\..\lvgl\version_6.1.2\lvgl\src\lv_misc/lv_txt.c ****     if( break_index == NO_BREAK_FOUND ) {
 584              		.loc 2 240 0
 585 0176 FB6A     		ldr	r3, [r7, #44]
 586 0178 B3F1FF3F 		cmp	r3, #-1
 587 017c 0DD1     		bne	.L33
 241:..\..\..\lvgl\version_6.1.2\lvgl\src\lv_misc/lv_txt.c ****         if( word_len == 0 || (letter == '\r' && letter_next == '\n') ) i = i_next;
 588              		.loc 2 241 0
 589 017e 3B6B     		ldr	r3, [r7, #48]
 590 0180 002B     		cmp	r3, #0
 591 0182 05D0     		beq	.L34
 592              		.loc 2 241 0 is_stmt 0 discriminator 2
 593 0184 FB6B     		ldr	r3, [r7, #60]
 594 0186 0D2B     		cmp	r3, #13
 595 0188 04D1     		bne	.L35
 596              		.loc 2 241 0 discriminator 3
ARM GAS  C:\Users\tmj32\AppData\Local\Temp\ccPoPccU.s 			page 18


 597 018a BB6B     		ldr	r3, [r7, #56]
 598 018c 0A2B     		cmp	r3, #10
 599 018e 01D1     		bne	.L35
 600              	.L34:
 601              		.loc 2 241 0 discriminator 4
 602 0190 BB69     		ldr	r3, [r7, #24]
 603 0192 FB61     		str	r3, [r7, #28]
 604              	.L35:
 242:..\..\..\lvgl\version_6.1.2\lvgl\src\lv_misc/lv_txt.c ****         return i;
 605              		.loc 2 242 0 is_stmt 1
 606 0194 FB69     		ldr	r3, [r7, #28]
 607 0196 9BB2     		uxth	r3, r3
 608 0198 3AE0     		b	.L44
 609              	.L33:
 243:..\..\..\lvgl\version_6.1.2\lvgl\src\lv_misc/lv_txt.c ****     }
 244:..\..\..\lvgl\version_6.1.2\lvgl\src\lv_misc/lv_txt.c **** 
 245:..\..\..\lvgl\version_6.1.2\lvgl\src\lv_misc/lv_txt.c **** #if LV_TXT_LINE_BREAK_LONG_LEN > 0
 246:..\..\..\lvgl\version_6.1.2\lvgl\src\lv_misc/lv_txt.c ****     /* Word doesn't fit in provided space, but isn't "long" */
 247:..\..\..\lvgl\version_6.1.2\lvgl\src\lv_misc/lv_txt.c ****     if(word_len < LV_TXT_LINE_BREAK_LONG_LEN) {
 610              		.loc 2 247 0
 611 019a 3B6B     		ldr	r3, [r7, #48]
 612 019c 0B2B     		cmp	r3, #11
 613 019e 0ED8     		bhi	.L36
 248:..\..\..\lvgl\version_6.1.2\lvgl\src\lv_misc/lv_txt.c ****         if( force ) return break_index;
 614              		.loc 2 248 0
 615 01a0 97F85430 		ldrb	r3, [r7, #84]	@ zero_extendqisi2
 616 01a4 002B     		cmp	r3, #0
 617 01a6 02D0     		beq	.L37
 618              		.loc 2 248 0 is_stmt 0 discriminator 1
 619 01a8 FB6A     		ldr	r3, [r7, #44]
 620 01aa 9BB2     		uxth	r3, r3
 621 01ac 30E0     		b	.L44
 622              	.L37:
 249:..\..\..\lvgl\version_6.1.2\lvgl\src\lv_misc/lv_txt.c ****         if(word_w_ptr != NULL) *word_w_ptr = 0; /* Return no word */
 623              		.loc 2 249 0 is_stmt 1
 624 01ae FB6C     		ldr	r3, [r7, #76]
 625 01b0 002B     		cmp	r3, #0
 626 01b2 02D0     		beq	.L38
 627              		.loc 2 249 0 is_stmt 0 discriminator 1
 628 01b4 FB6C     		ldr	r3, [r7, #76]
 629 01b6 0022     		movs	r2, #0
 630 01b8 1A60     		str	r2, [r3]
 631              	.L38:
 250:..\..\..\lvgl\version_6.1.2\lvgl\src\lv_misc/lv_txt.c ****         return 0;
 632              		.loc 2 250 0 is_stmt 1
 633 01ba 0023     		movs	r3, #0
 634 01bc 28E0     		b	.L44
 635              	.L36:
 251:..\..\..\lvgl\version_6.1.2\lvgl\src\lv_misc/lv_txt.c ****     }
 252:..\..\..\lvgl\version_6.1.2\lvgl\src\lv_misc/lv_txt.c **** 
 253:..\..\..\lvgl\version_6.1.2\lvgl\src\lv_misc/lv_txt.c ****     /* Word is "long," but insufficient amounts can fit in provided space */
 254:..\..\..\lvgl\version_6.1.2\lvgl\src\lv_misc/lv_txt.c ****     if(break_letter_count < LV_TXT_LINE_BREAK_LONG_PRE_MIN_LEN) {
 636              		.loc 2 254 0
 637 01be BB6A     		ldr	r3, [r7, #40]
 638 01c0 022B     		cmp	r3, #2
 639 01c2 0ED8     		bhi	.L39
 255:..\..\..\lvgl\version_6.1.2\lvgl\src\lv_misc/lv_txt.c ****         if( force ) return break_index;
ARM GAS  C:\Users\tmj32\AppData\Local\Temp\ccPoPccU.s 			page 19


 640              		.loc 2 255 0
 641 01c4 97F85430 		ldrb	r3, [r7, #84]	@ zero_extendqisi2
 642 01c8 002B     		cmp	r3, #0
 643 01ca 02D0     		beq	.L40
 644              		.loc 2 255 0 is_stmt 0 discriminator 1
 645 01cc FB6A     		ldr	r3, [r7, #44]
 646 01ce 9BB2     		uxth	r3, r3
 647 01d0 1EE0     		b	.L44
 648              	.L40:
 256:..\..\..\lvgl\version_6.1.2\lvgl\src\lv_misc/lv_txt.c ****         if(word_w_ptr != NULL) *word_w_ptr = 0;
 649              		.loc 2 256 0 is_stmt 1
 650 01d2 FB6C     		ldr	r3, [r7, #76]
 651 01d4 002B     		cmp	r3, #0
 652 01d6 02D0     		beq	.L41
 653              		.loc 2 256 0 is_stmt 0 discriminator 1
 654 01d8 FB6C     		ldr	r3, [r7, #76]
 655 01da 0022     		movs	r2, #0
 656 01dc 1A60     		str	r2, [r3]
 657              	.L41:
 257:..\..\..\lvgl\version_6.1.2\lvgl\src\lv_misc/lv_txt.c ****         return 0;
 658              		.loc 2 257 0 is_stmt 1
 659 01de 0023     		movs	r3, #0
 660 01e0 16E0     		b	.L44
 661              	.L39:
 662              	.LBB2:
 258:..\..\..\lvgl\version_6.1.2\lvgl\src\lv_misc/lv_txt.c ****     }
 259:..\..\..\lvgl\version_6.1.2\lvgl\src\lv_misc/lv_txt.c **** 
 260:..\..\..\lvgl\version_6.1.2\lvgl\src\lv_misc/lv_txt.c ****     /* Word is a "long", but letters may need to be better distributed */
 261:..\..\..\lvgl\version_6.1.2\lvgl\src\lv_misc/lv_txt.c ****     {
 262:..\..\..\lvgl\version_6.1.2\lvgl\src\lv_misc/lv_txt.c ****         i = break_index;
 663              		.loc 2 262 0
 664 01e2 FB6A     		ldr	r3, [r7, #44]
 665 01e4 FB61     		str	r3, [r7, #28]
 263:..\..\..\lvgl\version_6.1.2\lvgl\src\lv_misc/lv_txt.c ****         int32_t n_move = LV_TXT_LINE_BREAK_LONG_POST_MIN_LEN - (word_len - break_letter_count);
 666              		.loc 2 263 0
 667 01e6 BA6A     		ldr	r2, [r7, #40]
 668 01e8 3B6B     		ldr	r3, [r7, #48]
 669 01ea D31A     		subs	r3, r2, r3
 670 01ec 0333     		adds	r3, r3, #3
 671 01ee 7B62     		str	r3, [r7, #36]
 264:..\..\..\lvgl\version_6.1.2\lvgl\src\lv_misc/lv_txt.c ****         /* Move pointer "i" backwards */
 265:..\..\..\lvgl\version_6.1.2\lvgl\src\lv_misc/lv_txt.c ****         for(;n_move>0; n_move--){
 672              		.loc 2 265 0
 673 01f0 09E0     		b	.L42
 674              	.L43:
 266:..\..\..\lvgl\version_6.1.2\lvgl\src\lv_misc/lv_txt.c ****             lv_txt_encoded_prev(txt, &i);
 675              		.loc 2 266 0 discriminator 2
 676 01f2 0A4B     		ldr	r3, .L45+4
 677 01f4 1B68     		ldr	r3, [r3]
 678 01f6 07F11C02 		add	r2, r7, #28
 679 01fa 1146     		mov	r1, r2
 680 01fc F868     		ldr	r0, [r7, #12]
 681 01fe 9847     		blx	r3
 265:..\..\..\lvgl\version_6.1.2\lvgl\src\lv_misc/lv_txt.c ****             lv_txt_encoded_prev(txt, &i);
 682              		.loc 2 265 0 discriminator 2
 683 0200 7B6A     		ldr	r3, [r7, #36]
 684 0202 013B     		subs	r3, r3, #1
ARM GAS  C:\Users\tmj32\AppData\Local\Temp\ccPoPccU.s 			page 20


 685 0204 7B62     		str	r3, [r7, #36]
 686              	.L42:
 265:..\..\..\lvgl\version_6.1.2\lvgl\src\lv_misc/lv_txt.c ****             lv_txt_encoded_prev(txt, &i);
 687              		.loc 2 265 0 is_stmt 0 discriminator 1
 688 0206 7B6A     		ldr	r3, [r7, #36]
 689 0208 002B     		cmp	r3, #0
 690 020a F2DC     		bgt	.L43
 691              	.LBE2:
 267:..\..\..\lvgl\version_6.1.2\lvgl\src\lv_misc/lv_txt.c ****             // TODO: it would be appropriate to update the returned word width here
 268:..\..\..\lvgl\version_6.1.2\lvgl\src\lv_misc/lv_txt.c ****             // However, in current usage, this doesn't impact anything.
 269:..\..\..\lvgl\version_6.1.2\lvgl\src\lv_misc/lv_txt.c ****         }
 270:..\..\..\lvgl\version_6.1.2\lvgl\src\lv_misc/lv_txt.c ****     }
 271:..\..\..\lvgl\version_6.1.2\lvgl\src\lv_misc/lv_txt.c ****     return i;
 692              		.loc 2 271 0 is_stmt 1
 693 020c FB69     		ldr	r3, [r7, #28]
 694 020e 9BB2     		uxth	r3, r3
 695              	.L44:
 272:..\..\..\lvgl\version_6.1.2\lvgl\src\lv_misc/lv_txt.c **** #else
 273:..\..\..\lvgl\version_6.1.2\lvgl\src\lv_misc/lv_txt.c ****     if( force ) return break_index;
 274:..\..\..\lvgl\version_6.1.2\lvgl\src\lv_misc/lv_txt.c ****     if(word_w_ptr != NULL) *word_w_ptr = 0; /* Return no word */
 275:..\..\..\lvgl\version_6.1.2\lvgl\src\lv_misc/lv_txt.c ****     (void) break_letter_count;
 276:..\..\..\lvgl\version_6.1.2\lvgl\src\lv_misc/lv_txt.c ****     return 0;
 277:..\..\..\lvgl\version_6.1.2\lvgl\src\lv_misc/lv_txt.c **** #endif
 278:..\..\..\lvgl\version_6.1.2\lvgl\src\lv_misc/lv_txt.c **** }
 696              		.loc 2 278 0 discriminator 1
 697 0210 1846     		mov	r0, r3
 698 0212 4037     		adds	r7, r7, #64
 699              		.cfi_def_cfa_offset 8
 700 0214 BD46     		mov	sp, r7
 701              		.cfi_def_cfa_register 13
 702              		@ sp needed
 703 0216 80BD     		pop	{r7, pc}
 704              	.L46:
 705              		.align	2
 706              	.L45:
 707 0218 00000000 		.word	lv_txt_encoded_next
 708 021c 00000000 		.word	lv_txt_encoded_prev
 709              		.cfi_endproc
 710              	.LFE5:
 711              		.size	lv_txt_get_next_word, .-lv_txt_get_next_word
 712              		.section	.text.lv_txt_get_next_line,"ax",%progbits
 713              		.align	2
 714              		.global	lv_txt_get_next_line
 715              		.thumb
 716              		.thumb_func
 717              		.type	lv_txt_get_next_line, %function
 718              	lv_txt_get_next_line:
 719              	.LFB6:
 279:..\..\..\lvgl\version_6.1.2\lvgl\src\lv_misc/lv_txt.c **** 
 280:..\..\..\lvgl\version_6.1.2\lvgl\src\lv_misc/lv_txt.c **** /**
 281:..\..\..\lvgl\version_6.1.2\lvgl\src\lv_misc/lv_txt.c ****  * Get the next line of text. Check line length and break chars too.
 282:..\..\..\lvgl\version_6.1.2\lvgl\src\lv_misc/lv_txt.c ****  *
 283:..\..\..\lvgl\version_6.1.2\lvgl\src\lv_misc/lv_txt.c ****  * A line of txt includes the \n character.
 284:..\..\..\lvgl\version_6.1.2\lvgl\src\lv_misc/lv_txt.c ****  *
 285:..\..\..\lvgl\version_6.1.2\lvgl\src\lv_misc/lv_txt.c ****  * @param txt a '\0' terminated string
 286:..\..\..\lvgl\version_6.1.2\lvgl\src\lv_misc/lv_txt.c ****  * @param font pointer to a font
 287:..\..\..\lvgl\version_6.1.2\lvgl\src\lv_misc/lv_txt.c ****  * @param letter_space letter space
ARM GAS  C:\Users\tmj32\AppData\Local\Temp\ccPoPccU.s 			page 21


 288:..\..\..\lvgl\version_6.1.2\lvgl\src\lv_misc/lv_txt.c ****  * @param max_width max with of the text (break the lines to fit this size) Set CORD_MAX to avoid l
 289:..\..\..\lvgl\version_6.1.2\lvgl\src\lv_misc/lv_txt.c ****  * @param flags settings for the text from 'txt_flag_type' enum
 290:..\..\..\lvgl\version_6.1.2\lvgl\src\lv_misc/lv_txt.c ****  * @return the index of the first char of the new line (in byte index not letter index. With UTF-8 
 291:..\..\..\lvgl\version_6.1.2\lvgl\src\lv_misc/lv_txt.c ****  */
 292:..\..\..\lvgl\version_6.1.2\lvgl\src\lv_misc/lv_txt.c **** uint16_t lv_txt_get_next_line(const char * txt, const lv_font_t * font,
 293:..\..\..\lvgl\version_6.1.2\lvgl\src\lv_misc/lv_txt.c ****                               lv_coord_t letter_space, lv_coord_t max_width, lv_txt_flag_t flag)
 294:..\..\..\lvgl\version_6.1.2\lvgl\src\lv_misc/lv_txt.c **** {
 720              		.loc 2 294 0
 721              		.cfi_startproc
 722              		@ args = 4, pretend = 0, frame = 32
 723              		@ frame_needed = 1, uses_anonymous_args = 0
 724 0000 80B5     		push	{r7, lr}
 725              		.cfi_def_cfa_offset 8
 726              		.cfi_offset 7, -8
 727              		.cfi_offset 14, -4
 728 0002 8CB0     		sub	sp, sp, #48
 729              		.cfi_def_cfa_offset 56
 730 0004 04AF     		add	r7, sp, #16
 731              		.cfi_def_cfa 7, 40
 732 0006 F860     		str	r0, [r7, #12]
 733 0008 B960     		str	r1, [r7, #8]
 734 000a 1146     		mov	r1, r2
 735 000c 1A46     		mov	r2, r3
 736 000e 0B46     		mov	r3, r1	@ movhi
 737 0010 FB80     		strh	r3, [r7, #6]	@ movhi
 738 0012 1346     		mov	r3, r2	@ movhi
 739 0014 BB80     		strh	r3, [r7, #4]	@ movhi
 295:..\..\..\lvgl\version_6.1.2\lvgl\src\lv_misc/lv_txt.c ****     if(txt == NULL) return 0;
 740              		.loc 2 295 0
 741 0016 FB68     		ldr	r3, [r7, #12]
 742 0018 002B     		cmp	r3, #0
 743 001a 01D1     		bne	.L48
 744              		.loc 2 295 0 is_stmt 0 discriminator 1
 745 001c 0023     		movs	r3, #0
 746 001e 7AE0     		b	.L61
 747              	.L48:
 296:..\..\..\lvgl\version_6.1.2\lvgl\src\lv_misc/lv_txt.c ****     if(font == NULL) return 0;
 748              		.loc 2 296 0 is_stmt 1
 749 0020 BB68     		ldr	r3, [r7, #8]
 750 0022 002B     		cmp	r3, #0
 751 0024 01D1     		bne	.L50
 752              		.loc 2 296 0 is_stmt 0 discriminator 1
 753 0026 0023     		movs	r3, #0
 754 0028 75E0     		b	.L61
 755              	.L50:
 297:..\..\..\lvgl\version_6.1.2\lvgl\src\lv_misc/lv_txt.c **** 
 298:..\..\..\lvgl\version_6.1.2\lvgl\src\lv_misc/lv_txt.c ****     if(flag & LV_TXT_FLAG_EXPAND) max_width = LV_COORD_MAX;
 756              		.loc 2 298 0 is_stmt 1
 757 002a 97F82830 		ldrb	r3, [r7, #40]	@ zero_extendqisi2
 758 002e 03F00203 		and	r3, r3, #2
 759 0032 002B     		cmp	r3, #0
 760 0034 02D0     		beq	.L51
 761              		.loc 2 298 0 is_stmt 0 discriminator 1
 762 0036 47F61843 		movw	r3, #31768
 763 003a BB80     		strh	r3, [r7, #4]	@ movhi
 764              	.L51:
 299:..\..\..\lvgl\version_6.1.2\lvgl\src\lv_misc/lv_txt.c ****     lv_txt_cmd_state_t cmd_state = LV_TXT_CMD_STATE_WAIT;
ARM GAS  C:\Users\tmj32\AppData\Local\Temp\ccPoPccU.s 			page 22


 765              		.loc 2 299 0 is_stmt 1
 766 003c 0023     		movs	r3, #0
 767 003e FB76     		strb	r3, [r7, #27]
 300:..\..\..\lvgl\version_6.1.2\lvgl\src\lv_misc/lv_txt.c ****     uint32_t i = 0;                                        /* Iterating index into txt */
 768              		.loc 2 300 0
 769 0040 0023     		movs	r3, #0
 770 0042 7B61     		str	r3, [r7, #20]
 301:..\..\..\lvgl\version_6.1.2\lvgl\src\lv_misc/lv_txt.c **** 
 302:..\..\..\lvgl\version_6.1.2\lvgl\src\lv_misc/lv_txt.c ****     while(txt[i] != '\0' && max_width > 0) {
 771              		.loc 2 302 0
 772 0044 4FE0     		b	.L52
 773              	.L59:
 774              	.LBB3:
 303:..\..\..\lvgl\version_6.1.2\lvgl\src\lv_misc/lv_txt.c ****         uint32_t word_w = 0;
 775              		.loc 2 303 0
 776 0046 0023     		movs	r3, #0
 777 0048 3B61     		str	r3, [r7, #16]
 304:..\..\..\lvgl\version_6.1.2\lvgl\src\lv_misc/lv_txt.c ****         uint32_t advance = lv_txt_get_next_word(&txt[i], font, letter_space, max_width, flag, &word
 778              		.loc 2 304 0
 779 004a 7B69     		ldr	r3, [r7, #20]
 780 004c FA68     		ldr	r2, [r7, #12]
 781 004e D018     		adds	r0, r2, r3
 782 0050 7B69     		ldr	r3, [r7, #20]
 783 0052 002B     		cmp	r3, #0
 784 0054 0CBF     		ite	eq
 785 0056 0123     		moveq	r3, #1
 786 0058 0023     		movne	r3, #0
 787 005a DBB2     		uxtb	r3, r3
 788 005c B7F90410 		ldrsh	r1, [r7, #4]
 789 0060 B7F90620 		ldrsh	r2, [r7, #6]
 790 0064 0393     		str	r3, [sp, #12]
 791 0066 07F11B03 		add	r3, r7, #27
 792 006a 0293     		str	r3, [sp, #8]
 793 006c 07F11003 		add	r3, r7, #16
 794 0070 0193     		str	r3, [sp, #4]
 795 0072 97F82830 		ldrb	r3, [r7, #40]	@ zero_extendqisi2
 796 0076 0093     		str	r3, [sp]
 797 0078 0B46     		mov	r3, r1
 798 007a B968     		ldr	r1, [r7, #8]
 799 007c FFF7FEFF 		bl	lv_txt_get_next_word
 800 0080 0346     		mov	r3, r0
 801 0082 FB61     		str	r3, [r7, #28]
 305:..\..\..\lvgl\version_6.1.2\lvgl\src\lv_misc/lv_txt.c ****         max_width -= word_w;
 802              		.loc 2 305 0
 803 0084 BA88     		ldrh	r2, [r7, #4]
 804 0086 3B69     		ldr	r3, [r7, #16]
 805 0088 9BB2     		uxth	r3, r3
 806 008a D31A     		subs	r3, r2, r3
 807 008c 9BB2     		uxth	r3, r3
 808 008e BB80     		strh	r3, [r7, #4]	@ movhi
 306:..\..\..\lvgl\version_6.1.2\lvgl\src\lv_misc/lv_txt.c **** 
 307:..\..\..\lvgl\version_6.1.2\lvgl\src\lv_misc/lv_txt.c ****         if( advance == 0 ){
 809              		.loc 2 307 0
 810 0090 FB69     		ldr	r3, [r7, #28]
 811 0092 002B     		cmp	r3, #0
 812 0094 0AD1     		bne	.L53
 308:..\..\..\lvgl\version_6.1.2\lvgl\src\lv_misc/lv_txt.c ****             if(i == 0) lv_txt_encoded_next(txt, &i); // prevent inf loops
ARM GAS  C:\Users\tmj32\AppData\Local\Temp\ccPoPccU.s 			page 23


 813              		.loc 2 308 0
 814 0096 7B69     		ldr	r3, [r7, #20]
 815 0098 002B     		cmp	r3, #0
 816 009a 2FD1     		bne	.L62
 817              		.loc 2 308 0 is_stmt 0 discriminator 1
 818 009c 204B     		ldr	r3, .L63
 819 009e 1B68     		ldr	r3, [r3]
 820 00a0 07F11402 		add	r2, r7, #20
 821 00a4 1146     		mov	r1, r2
 822 00a6 F868     		ldr	r0, [r7, #12]
 823 00a8 9847     		blx	r3
 309:..\..\..\lvgl\version_6.1.2\lvgl\src\lv_misc/lv_txt.c ****             break;
 824              		.loc 2 309 0 is_stmt 1 discriminator 1
 825 00aa 27E0     		b	.L62
 826              	.L53:
 310:..\..\..\lvgl\version_6.1.2\lvgl\src\lv_misc/lv_txt.c ****         }
 311:..\..\..\lvgl\version_6.1.2\lvgl\src\lv_misc/lv_txt.c **** 
 312:..\..\..\lvgl\version_6.1.2\lvgl\src\lv_misc/lv_txt.c ****         i += advance;
 827              		.loc 2 312 0
 828 00ac 7A69     		ldr	r2, [r7, #20]
 829 00ae FB69     		ldr	r3, [r7, #28]
 830 00b0 1344     		add	r3, r3, r2
 831 00b2 7B61     		str	r3, [r7, #20]
 313:..\..\..\lvgl\version_6.1.2\lvgl\src\lv_misc/lv_txt.c **** 
 314:..\..\..\lvgl\version_6.1.2\lvgl\src\lv_misc/lv_txt.c ****         if(txt[0] == '\n' || txt[0] == '\r') break;
 832              		.loc 2 314 0
 833 00b4 FB68     		ldr	r3, [r7, #12]
 834 00b6 1B78     		ldrb	r3, [r3]	@ zero_extendqisi2
 835 00b8 0A2B     		cmp	r3, #10
 836 00ba 1FD0     		beq	.L62
 837              		.loc 2 314 0 is_stmt 0 discriminator 1
 838 00bc FB68     		ldr	r3, [r7, #12]
 839 00be 1B78     		ldrb	r3, [r3]	@ zero_extendqisi2
 840 00c0 0D2B     		cmp	r3, #13
 841 00c2 1BD0     		beq	.L62
 315:..\..\..\lvgl\version_6.1.2\lvgl\src\lv_misc/lv_txt.c **** 
 316:..\..\..\lvgl\version_6.1.2\lvgl\src\lv_misc/lv_txt.c ****         if(txt[i] == '\n' || txt[i] == '\r'){
 842              		.loc 2 316 0 is_stmt 1
 843 00c4 7B69     		ldr	r3, [r7, #20]
 844 00c6 FA68     		ldr	r2, [r7, #12]
 845 00c8 1344     		add	r3, r3, r2
 846 00ca 1B78     		ldrb	r3, [r3]	@ zero_extendqisi2
 847 00cc 0A2B     		cmp	r3, #10
 848 00ce 05D0     		beq	.L56
 849              		.loc 2 316 0 is_stmt 0 discriminator 1
 850 00d0 7B69     		ldr	r3, [r7, #20]
 851 00d2 FA68     		ldr	r2, [r7, #12]
 852 00d4 1344     		add	r3, r3, r2
 853 00d6 1B78     		ldrb	r3, [r3]	@ zero_extendqisi2
 854 00d8 0D2B     		cmp	r3, #13
 855 00da 04D1     		bne	.L52
 856              	.L56:
 317:..\..\..\lvgl\version_6.1.2\lvgl\src\lv_misc/lv_txt.c ****             i++;  /* Include the following newline in the current line */
 857              		.loc 2 317 0 is_stmt 1
 858 00dc 7B69     		ldr	r3, [r7, #20]
 859 00de 0133     		adds	r3, r3, #1
 860 00e0 7B61     		str	r3, [r7, #20]
ARM GAS  C:\Users\tmj32\AppData\Local\Temp\ccPoPccU.s 			page 24


 318:..\..\..\lvgl\version_6.1.2\lvgl\src\lv_misc/lv_txt.c ****             break;
 861              		.loc 2 318 0
 862 00e2 00BF     		nop
 863 00e4 0BE0     		b	.L58
 864              	.L52:
 865              	.LBE3:
 302:..\..\..\lvgl\version_6.1.2\lvgl\src\lv_misc/lv_txt.c ****         uint32_t word_w = 0;
 866              		.loc 2 302 0
 867 00e6 7B69     		ldr	r3, [r7, #20]
 868 00e8 FA68     		ldr	r2, [r7, #12]
 869 00ea 1344     		add	r3, r3, r2
 870 00ec 1B78     		ldrb	r3, [r3]	@ zero_extendqisi2
 871 00ee 002B     		cmp	r3, #0
 872 00f0 05D0     		beq	.L58
 302:..\..\..\lvgl\version_6.1.2\lvgl\src\lv_misc/lv_txt.c ****         uint32_t word_w = 0;
 873              		.loc 2 302 0 is_stmt 0 discriminator 1
 874 00f2 B7F90430 		ldrsh	r3, [r7, #4]
 875 00f6 002B     		cmp	r3, #0
 876 00f8 A5DC     		bgt	.L59
 877 00fa 00E0     		b	.L58
 878              	.L62:
 879              	.LBB4:
 309:..\..\..\lvgl\version_6.1.2\lvgl\src\lv_misc/lv_txt.c ****         }
 880              		.loc 2 309 0 is_stmt 1
 881 00fc 00BF     		nop
 882              	.L58:
 883              	.LBE4:
 319:..\..\..\lvgl\version_6.1.2\lvgl\src\lv_misc/lv_txt.c ****         }
 320:..\..\..\lvgl\version_6.1.2\lvgl\src\lv_misc/lv_txt.c **** 
 321:..\..\..\lvgl\version_6.1.2\lvgl\src\lv_misc/lv_txt.c ****     }
 322:..\..\..\lvgl\version_6.1.2\lvgl\src\lv_misc/lv_txt.c **** 
 323:..\..\..\lvgl\version_6.1.2\lvgl\src\lv_misc/lv_txt.c ****     /* Always step at least one to avoid infinite loops */
 324:..\..\..\lvgl\version_6.1.2\lvgl\src\lv_misc/lv_txt.c ****     if(i == 0) {
 884              		.loc 2 324 0
 885 00fe 7B69     		ldr	r3, [r7, #20]
 886 0100 002B     		cmp	r3, #0
 887 0102 06D1     		bne	.L60
 325:..\..\..\lvgl\version_6.1.2\lvgl\src\lv_misc/lv_txt.c ****         lv_txt_encoded_next(txt, &i);
 888              		.loc 2 325 0
 889 0104 064B     		ldr	r3, .L63
 890 0106 1B68     		ldr	r3, [r3]
 891 0108 07F11402 		add	r2, r7, #20
 892 010c 1146     		mov	r1, r2
 893 010e F868     		ldr	r0, [r7, #12]
 894 0110 9847     		blx	r3
 895              	.L60:
 326:..\..\..\lvgl\version_6.1.2\lvgl\src\lv_misc/lv_txt.c ****     }
 327:..\..\..\lvgl\version_6.1.2\lvgl\src\lv_misc/lv_txt.c **** 
 328:..\..\..\lvgl\version_6.1.2\lvgl\src\lv_misc/lv_txt.c ****     return i;
 896              		.loc 2 328 0
 897 0112 7B69     		ldr	r3, [r7, #20]
 898 0114 9BB2     		uxth	r3, r3
 899              	.L61:
 329:..\..\..\lvgl\version_6.1.2\lvgl\src\lv_misc/lv_txt.c **** }
 900              		.loc 2 329 0 discriminator 1
 901 0116 1846     		mov	r0, r3
 902 0118 2037     		adds	r7, r7, #32
ARM GAS  C:\Users\tmj32\AppData\Local\Temp\ccPoPccU.s 			page 25


 903              		.cfi_def_cfa_offset 8
 904 011a BD46     		mov	sp, r7
 905              		.cfi_def_cfa_register 13
 906              		@ sp needed
 907 011c 80BD     		pop	{r7, pc}
 908              	.L64:
 909 011e 00BF     		.align	2
 910              	.L63:
 911 0120 00000000 		.word	lv_txt_encoded_next
 912              		.cfi_endproc
 913              	.LFE6:
 914              		.size	lv_txt_get_next_line, .-lv_txt_get_next_line
 915              		.section	.text.lv_txt_get_width,"ax",%progbits
 916              		.align	2
 917              		.global	lv_txt_get_width
 918              		.thumb
 919              		.thumb_func
 920              		.type	lv_txt_get_width, %function
 921              	lv_txt_get_width:
 922              	.LFB7:
 330:..\..\..\lvgl\version_6.1.2\lvgl\src\lv_misc/lv_txt.c **** 
 331:..\..\..\lvgl\version_6.1.2\lvgl\src\lv_misc/lv_txt.c **** /**
 332:..\..\..\lvgl\version_6.1.2\lvgl\src\lv_misc/lv_txt.c ****  * Give the length of a text with a given font
 333:..\..\..\lvgl\version_6.1.2\lvgl\src\lv_misc/lv_txt.c ****  * @param txt a '\0' terminate string
 334:..\..\..\lvgl\version_6.1.2\lvgl\src\lv_misc/lv_txt.c ****  * @param length length of 'txt' in byte count and not characters ( is 1 character but 2 bytes in
 335:..\..\..\lvgl\version_6.1.2\lvgl\src\lv_misc/lv_txt.c ****  * UTF-8)
 336:..\..\..\lvgl\version_6.1.2\lvgl\src\lv_misc/lv_txt.c ****  * @param font pointer to a font
 337:..\..\..\lvgl\version_6.1.2\lvgl\src\lv_misc/lv_txt.c ****  * @param letter_space letter space
 338:..\..\..\lvgl\version_6.1.2\lvgl\src\lv_misc/lv_txt.c ****  * @param flags settings for the text from 'txt_flag_t' enum
 339:..\..\..\lvgl\version_6.1.2\lvgl\src\lv_misc/lv_txt.c ****  * @return length of a char_num long text
 340:..\..\..\lvgl\version_6.1.2\lvgl\src\lv_misc/lv_txt.c ****  */
 341:..\..\..\lvgl\version_6.1.2\lvgl\src\lv_misc/lv_txt.c **** lv_coord_t lv_txt_get_width(const char * txt, uint16_t length, const lv_font_t * font, lv_coord_t l
 342:..\..\..\lvgl\version_6.1.2\lvgl\src\lv_misc/lv_txt.c ****                             lv_txt_flag_t flag)
 343:..\..\..\lvgl\version_6.1.2\lvgl\src\lv_misc/lv_txt.c **** {
 923              		.loc 2 343 0
 924              		.cfi_startproc
 925              		@ args = 4, pretend = 0, frame = 40
 926              		@ frame_needed = 1, uses_anonymous_args = 0
 927 0000 80B5     		push	{r7, lr}
 928              		.cfi_def_cfa_offset 8
 929              		.cfi_offset 7, -8
 930              		.cfi_offset 14, -4
 931 0002 8AB0     		sub	sp, sp, #40
 932              		.cfi_def_cfa_offset 48
 933 0004 00AF     		add	r7, sp, #0
 934              		.cfi_def_cfa_register 7
 935 0006 F860     		str	r0, [r7, #12]
 936 0008 7A60     		str	r2, [r7, #4]
 937 000a 1A46     		mov	r2, r3
 938 000c 0B46     		mov	r3, r1	@ movhi
 939 000e 7B81     		strh	r3, [r7, #10]	@ movhi
 940 0010 1346     		mov	r3, r2	@ movhi
 941 0012 3B81     		strh	r3, [r7, #8]	@ movhi
 344:..\..\..\lvgl\version_6.1.2\lvgl\src\lv_misc/lv_txt.c ****     if(txt == NULL) return 0;
 942              		.loc 2 344 0
 943 0014 FB68     		ldr	r3, [r7, #12]
 944 0016 002B     		cmp	r3, #0
ARM GAS  C:\Users\tmj32\AppData\Local\Temp\ccPoPccU.s 			page 26


 945 0018 01D1     		bne	.L66
 946              		.loc 2 344 0 is_stmt 0 discriminator 1
 947 001a 0023     		movs	r3, #0
 948 001c 53E0     		b	.L73
 949              	.L66:
 345:..\..\..\lvgl\version_6.1.2\lvgl\src\lv_misc/lv_txt.c ****     if(font == NULL) return 0;
 950              		.loc 2 345 0 is_stmt 1
 951 001e 7B68     		ldr	r3, [r7, #4]
 952 0020 002B     		cmp	r3, #0
 953 0022 01D1     		bne	.L68
 954              		.loc 2 345 0 is_stmt 0 discriminator 1
 955 0024 0023     		movs	r3, #0
 956 0026 4EE0     		b	.L73
 957              	.L68:
 346:..\..\..\lvgl\version_6.1.2\lvgl\src\lv_misc/lv_txt.c **** 
 347:..\..\..\lvgl\version_6.1.2\lvgl\src\lv_misc/lv_txt.c ****     uint32_t i                   = 0;
 958              		.loc 2 347 0 is_stmt 1
 959 0028 0023     		movs	r3, #0
 960 002a 7B61     		str	r3, [r7, #20]
 348:..\..\..\lvgl\version_6.1.2\lvgl\src\lv_misc/lv_txt.c ****     lv_coord_t width             = 0;
 961              		.loc 2 348 0
 962 002c 0023     		movs	r3, #0
 963 002e FB84     		strh	r3, [r7, #38]	@ movhi
 349:..\..\..\lvgl\version_6.1.2\lvgl\src\lv_misc/lv_txt.c ****     lv_txt_cmd_state_t cmd_state = LV_TXT_CMD_STATE_WAIT;
 964              		.loc 2 349 0
 965 0030 0023     		movs	r3, #0
 966 0032 FB74     		strb	r3, [r7, #19]
 350:..\..\..\lvgl\version_6.1.2\lvgl\src\lv_misc/lv_txt.c ****     uint32_t letter;
 351:..\..\..\lvgl\version_6.1.2\lvgl\src\lv_misc/lv_txt.c ****     uint32_t letter_next;
 352:..\..\..\lvgl\version_6.1.2\lvgl\src\lv_misc/lv_txt.c **** 
 353:..\..\..\lvgl\version_6.1.2\lvgl\src\lv_misc/lv_txt.c ****     if(length != 0) {
 967              		.loc 2 353 0
 968 0034 7B89     		ldrh	r3, [r7, #10]
 969 0036 002B     		cmp	r3, #0
 970 0038 43D0     		beq	.L69
 354:..\..\..\lvgl\version_6.1.2\lvgl\src\lv_misc/lv_txt.c ****         while(i < length) {
 971              		.loc 2 354 0
 972 003a 35E0     		b	.L70
 973              	.L72:
 974              	.LBB5:
 355:..\..\..\lvgl\version_6.1.2\lvgl\src\lv_misc/lv_txt.c ****             letter      = lv_txt_encoded_next(txt, &i);
 975              		.loc 2 355 0
 976 003c 244B     		ldr	r3, .L74
 977 003e 1B68     		ldr	r3, [r3]
 978 0040 07F11402 		add	r2, r7, #20
 979 0044 1146     		mov	r1, r2
 980 0046 F868     		ldr	r0, [r7, #12]
 981 0048 9847     		blx	r3
 982 004a 3862     		str	r0, [r7, #32]
 356:..\..\..\lvgl\version_6.1.2\lvgl\src\lv_misc/lv_txt.c ****             letter_next = lv_txt_encoded_next(&txt[i], NULL);
 983              		.loc 2 356 0
 984 004c 204B     		ldr	r3, .L74
 985 004e 1B68     		ldr	r3, [r3]
 986 0050 7A69     		ldr	r2, [r7, #20]
 987 0052 F968     		ldr	r1, [r7, #12]
 988 0054 0A44     		add	r2, r2, r1
 989 0056 0021     		movs	r1, #0
ARM GAS  C:\Users\tmj32\AppData\Local\Temp\ccPoPccU.s 			page 27


 990 0058 1046     		mov	r0, r2
 991 005a 9847     		blx	r3
 992 005c F861     		str	r0, [r7, #28]
 357:..\..\..\lvgl\version_6.1.2\lvgl\src\lv_misc/lv_txt.c ****             if((flag & LV_TXT_FLAG_RECOLOR) != 0) {
 993              		.loc 2 357 0
 994 005e 97F83030 		ldrb	r3, [r7, #48]	@ zero_extendqisi2
 995 0062 03F00103 		and	r3, r3, #1
 996 0066 002B     		cmp	r3, #0
 997 0068 09D0     		beq	.L71
 358:..\..\..\lvgl\version_6.1.2\lvgl\src\lv_misc/lv_txt.c ****                 if(lv_txt_is_cmd(&cmd_state, letter) != false) {
 998              		.loc 2 358 0
 999 006a 07F11303 		add	r3, r7, #19
 1000 006e 396A     		ldr	r1, [r7, #32]
 1001 0070 1846     		mov	r0, r3
 1002 0072 FFF7FEFF 		bl	lv_txt_is_cmd
 1003 0076 0346     		mov	r3, r0
 1004 0078 002B     		cmp	r3, #0
 1005 007a 00D0     		beq	.L71
 359:..\..\..\lvgl\version_6.1.2\lvgl\src\lv_misc/lv_txt.c ****                     continue;
 1006              		.loc 2 359 0
 1007 007c 14E0     		b	.L70
 1008              	.L71:
 360:..\..\..\lvgl\version_6.1.2\lvgl\src\lv_misc/lv_txt.c ****                 }
 361:..\..\..\lvgl\version_6.1.2\lvgl\src\lv_misc/lv_txt.c ****             }
 362:..\..\..\lvgl\version_6.1.2\lvgl\src\lv_misc/lv_txt.c **** 
 363:..\..\..\lvgl\version_6.1.2\lvgl\src\lv_misc/lv_txt.c ****             lv_coord_t char_width = lv_font_get_glyph_width(font, letter, letter_next);
 1009              		.loc 2 363 0
 1010 007e FA69     		ldr	r2, [r7, #28]
 1011 0080 396A     		ldr	r1, [r7, #32]
 1012 0082 7868     		ldr	r0, [r7, #4]
 1013 0084 FFF7FEFF 		bl	lv_font_get_glyph_width
 1014 0088 0346     		mov	r3, r0
 1015 008a 7B83     		strh	r3, [r7, #26]	@ movhi
 364:..\..\..\lvgl\version_6.1.2\lvgl\src\lv_misc/lv_txt.c ****             if(char_width > 0) {
 1016              		.loc 2 364 0
 1017 008c B7F91A30 		ldrsh	r3, [r7, #26]
 1018 0090 002B     		cmp	r3, #0
 1019 0092 09DD     		ble	.L70
 365:..\..\..\lvgl\version_6.1.2\lvgl\src\lv_misc/lv_txt.c ****                 width += char_width;
 1020              		.loc 2 365 0
 1021 0094 FA8C     		ldrh	r2, [r7, #38]
 1022 0096 7B8B     		ldrh	r3, [r7, #26]
 1023 0098 1344     		add	r3, r3, r2
 1024 009a 9BB2     		uxth	r3, r3
 1025 009c FB84     		strh	r3, [r7, #38]	@ movhi
 366:..\..\..\lvgl\version_6.1.2\lvgl\src\lv_misc/lv_txt.c ****                 width += letter_space;
 1026              		.loc 2 366 0
 1027 009e FA8C     		ldrh	r2, [r7, #38]
 1028 00a0 3B89     		ldrh	r3, [r7, #8]
 1029 00a2 1344     		add	r3, r3, r2
 1030 00a4 9BB2     		uxth	r3, r3
 1031 00a6 FB84     		strh	r3, [r7, #38]	@ movhi
 1032              	.L70:
 1033              	.LBE5:
 354:..\..\..\lvgl\version_6.1.2\lvgl\src\lv_misc/lv_txt.c ****             letter      = lv_txt_encoded_next(txt, &i);
 1034              		.loc 2 354 0
 1035 00a8 7A89     		ldrh	r2, [r7, #10]
ARM GAS  C:\Users\tmj32\AppData\Local\Temp\ccPoPccU.s 			page 28


 1036 00aa 7B69     		ldr	r3, [r7, #20]
 1037 00ac 9A42     		cmp	r2, r3
 1038 00ae C5D8     		bhi	.L72
 367:..\..\..\lvgl\version_6.1.2\lvgl\src\lv_misc/lv_txt.c ****             }
 368:..\..\..\lvgl\version_6.1.2\lvgl\src\lv_misc/lv_txt.c ****         }
 369:..\..\..\lvgl\version_6.1.2\lvgl\src\lv_misc/lv_txt.c **** 
 370:..\..\..\lvgl\version_6.1.2\lvgl\src\lv_misc/lv_txt.c ****         if(width > 0) {
 1039              		.loc 2 370 0
 1040 00b0 B7F92630 		ldrsh	r3, [r7, #38]
 1041 00b4 002B     		cmp	r3, #0
 1042 00b6 04DD     		ble	.L69
 371:..\..\..\lvgl\version_6.1.2\lvgl\src\lv_misc/lv_txt.c ****             width -= letter_space; /*Trim the last letter space. Important if the text is center
 1043              		.loc 2 371 0
 1044 00b8 FA8C     		ldrh	r2, [r7, #38]
 1045 00ba 3B89     		ldrh	r3, [r7, #8]
 1046 00bc D31A     		subs	r3, r2, r3
 1047 00be 9BB2     		uxth	r3, r3
 1048 00c0 FB84     		strh	r3, [r7, #38]	@ movhi
 1049              	.L69:
 372:..\..\..\lvgl\version_6.1.2\lvgl\src\lv_misc/lv_txt.c ****                                       aligned */
 373:..\..\..\lvgl\version_6.1.2\lvgl\src\lv_misc/lv_txt.c ****         }
 374:..\..\..\lvgl\version_6.1.2\lvgl\src\lv_misc/lv_txt.c ****     }
 375:..\..\..\lvgl\version_6.1.2\lvgl\src\lv_misc/lv_txt.c **** 
 376:..\..\..\lvgl\version_6.1.2\lvgl\src\lv_misc/lv_txt.c ****     return width;
 1050              		.loc 2 376 0
 1051 00c2 B7F92630 		ldrsh	r3, [r7, #38]
 1052              	.L73:
 377:..\..\..\lvgl\version_6.1.2\lvgl\src\lv_misc/lv_txt.c **** }
 1053              		.loc 2 377 0 discriminator 1
 1054 00c6 1846     		mov	r0, r3
 1055 00c8 2837     		adds	r7, r7, #40
 1056              		.cfi_def_cfa_offset 8
 1057 00ca BD46     		mov	sp, r7
 1058              		.cfi_def_cfa_register 13
 1059              		@ sp needed
 1060 00cc 80BD     		pop	{r7, pc}
 1061              	.L75:
 1062 00ce 00BF     		.align	2
 1063              	.L74:
 1064 00d0 00000000 		.word	lv_txt_encoded_next
 1065              		.cfi_endproc
 1066              	.LFE7:
 1067              		.size	lv_txt_get_width, .-lv_txt_get_width
 1068              		.section	.text.lv_txt_is_cmd,"ax",%progbits
 1069              		.align	2
 1070              		.global	lv_txt_is_cmd
 1071              		.thumb
 1072              		.thumb_func
 1073              		.type	lv_txt_is_cmd, %function
 1074              	lv_txt_is_cmd:
 1075              	.LFB8:
 378:..\..\..\lvgl\version_6.1.2\lvgl\src\lv_misc/lv_txt.c **** 
 379:..\..\..\lvgl\version_6.1.2\lvgl\src\lv_misc/lv_txt.c **** /**
 380:..\..\..\lvgl\version_6.1.2\lvgl\src\lv_misc/lv_txt.c ****  * Check next character in a string and decide if the character is part of the command or not
 381:..\..\..\lvgl\version_6.1.2\lvgl\src\lv_misc/lv_txt.c ****  * @param state pointer to a txt_cmd_state_t variable which stores the current state of command
 382:..\..\..\lvgl\version_6.1.2\lvgl\src\lv_misc/lv_txt.c ****  * processing (Initied. to TXT_CMD_STATE_WAIT )
 383:..\..\..\lvgl\version_6.1.2\lvgl\src\lv_misc/lv_txt.c ****  * @param c the current character
ARM GAS  C:\Users\tmj32\AppData\Local\Temp\ccPoPccU.s 			page 29


 384:..\..\..\lvgl\version_6.1.2\lvgl\src\lv_misc/lv_txt.c ****  * @return true: the character is part of a command and should not be written,
 385:..\..\..\lvgl\version_6.1.2\lvgl\src\lv_misc/lv_txt.c ****  *         false: the character should be written
 386:..\..\..\lvgl\version_6.1.2\lvgl\src\lv_misc/lv_txt.c ****  */
 387:..\..\..\lvgl\version_6.1.2\lvgl\src\lv_misc/lv_txt.c **** bool lv_txt_is_cmd(lv_txt_cmd_state_t * state, uint32_t c)
 388:..\..\..\lvgl\version_6.1.2\lvgl\src\lv_misc/lv_txt.c **** {
 1076              		.loc 2 388 0
 1077              		.cfi_startproc
 1078              		@ args = 0, pretend = 0, frame = 16
 1079              		@ frame_needed = 1, uses_anonymous_args = 0
 1080              		@ link register save eliminated.
 1081 0000 80B4     		push	{r7}
 1082              		.cfi_def_cfa_offset 4
 1083              		.cfi_offset 7, -4
 1084 0002 85B0     		sub	sp, sp, #20
 1085              		.cfi_def_cfa_offset 24
 1086 0004 00AF     		add	r7, sp, #0
 1087              		.cfi_def_cfa_register 7
 1088 0006 7860     		str	r0, [r7, #4]
 1089 0008 3960     		str	r1, [r7]
 389:..\..\..\lvgl\version_6.1.2\lvgl\src\lv_misc/lv_txt.c ****     bool ret = false;
 1090              		.loc 2 389 0
 1091 000a 0023     		movs	r3, #0
 1092 000c FB73     		strb	r3, [r7, #15]
 390:..\..\..\lvgl\version_6.1.2\lvgl\src\lv_misc/lv_txt.c **** 
 391:..\..\..\lvgl\version_6.1.2\lvgl\src\lv_misc/lv_txt.c ****     if(c == (uint32_t)LV_TXT_COLOR_CMD[0]) {
 1093              		.loc 2 391 0
 1094 000e 2323     		movs	r3, #35
 1095 0010 1A46     		mov	r2, r3
 1096 0012 3B68     		ldr	r3, [r7]
 1097 0014 9A42     		cmp	r2, r3
 1098 0016 1AD1     		bne	.L77
 392:..\..\..\lvgl\version_6.1.2\lvgl\src\lv_misc/lv_txt.c ****         if(*state == LV_TXT_CMD_STATE_WAIT) { /*Start char*/
 1099              		.loc 2 392 0
 1100 0018 7B68     		ldr	r3, [r7, #4]
 1101 001a 1B78     		ldrb	r3, [r3]	@ zero_extendqisi2
 1102 001c 002B     		cmp	r3, #0
 1103 001e 05D1     		bne	.L78
 393:..\..\..\lvgl\version_6.1.2\lvgl\src\lv_misc/lv_txt.c ****             *state = LV_TXT_CMD_STATE_PAR;
 1104              		.loc 2 393 0
 1105 0020 7B68     		ldr	r3, [r7, #4]
 1106 0022 0122     		movs	r2, #1
 1107 0024 1A70     		strb	r2, [r3]
 394:..\..\..\lvgl\version_6.1.2\lvgl\src\lv_misc/lv_txt.c ****             ret    = true;
 1108              		.loc 2 394 0
 1109 0026 0123     		movs	r3, #1
 1110 0028 FB73     		strb	r3, [r7, #15]
 1111 002a 10E0     		b	.L77
 1112              	.L78:
 395:..\..\..\lvgl\version_6.1.2\lvgl\src\lv_misc/lv_txt.c ****         }
 396:..\..\..\lvgl\version_6.1.2\lvgl\src\lv_misc/lv_txt.c ****         /*Other start char in parameter is escaped cmd. char */
 397:..\..\..\lvgl\version_6.1.2\lvgl\src\lv_misc/lv_txt.c ****         else if(*state == LV_TXT_CMD_STATE_PAR) {
 1113              		.loc 2 397 0
 1114 002c 7B68     		ldr	r3, [r7, #4]
 1115 002e 1B78     		ldrb	r3, [r3]	@ zero_extendqisi2
 1116 0030 012B     		cmp	r3, #1
 1117 0032 03D1     		bne	.L79
 398:..\..\..\lvgl\version_6.1.2\lvgl\src\lv_misc/lv_txt.c ****             *state = LV_TXT_CMD_STATE_WAIT;
ARM GAS  C:\Users\tmj32\AppData\Local\Temp\ccPoPccU.s 			page 30


 1118              		.loc 2 398 0
 1119 0034 7B68     		ldr	r3, [r7, #4]
 1120 0036 0022     		movs	r2, #0
 1121 0038 1A70     		strb	r2, [r3]
 1122 003a 08E0     		b	.L77
 1123              	.L79:
 399:..\..\..\lvgl\version_6.1.2\lvgl\src\lv_misc/lv_txt.c ****         }
 400:..\..\..\lvgl\version_6.1.2\lvgl\src\lv_misc/lv_txt.c ****         /*Command end */
 401:..\..\..\lvgl\version_6.1.2\lvgl\src\lv_misc/lv_txt.c ****         else if(*state == LV_TXT_CMD_STATE_IN) {
 1124              		.loc 2 401 0
 1125 003c 7B68     		ldr	r3, [r7, #4]
 1126 003e 1B78     		ldrb	r3, [r3]	@ zero_extendqisi2
 1127 0040 022B     		cmp	r3, #2
 1128 0042 04D1     		bne	.L77
 402:..\..\..\lvgl\version_6.1.2\lvgl\src\lv_misc/lv_txt.c ****             *state = LV_TXT_CMD_STATE_WAIT;
 1129              		.loc 2 402 0
 1130 0044 7B68     		ldr	r3, [r7, #4]
 1131 0046 0022     		movs	r2, #0
 1132 0048 1A70     		strb	r2, [r3]
 403:..\..\..\lvgl\version_6.1.2\lvgl\src\lv_misc/lv_txt.c ****             ret    = true;
 1133              		.loc 2 403 0
 1134 004a 0123     		movs	r3, #1
 1135 004c FB73     		strb	r3, [r7, #15]
 1136              	.L77:
 404:..\..\..\lvgl\version_6.1.2\lvgl\src\lv_misc/lv_txt.c ****         }
 405:..\..\..\lvgl\version_6.1.2\lvgl\src\lv_misc/lv_txt.c ****     }
 406:..\..\..\lvgl\version_6.1.2\lvgl\src\lv_misc/lv_txt.c **** 
 407:..\..\..\lvgl\version_6.1.2\lvgl\src\lv_misc/lv_txt.c ****     /*Skip the color parameter and wait the space after it*/
 408:..\..\..\lvgl\version_6.1.2\lvgl\src\lv_misc/lv_txt.c ****     if(*state == LV_TXT_CMD_STATE_PAR) {
 1137              		.loc 2 408 0
 1138 004e 7B68     		ldr	r3, [r7, #4]
 1139 0050 1B78     		ldrb	r3, [r3]	@ zero_extendqisi2
 1140 0052 012B     		cmp	r3, #1
 1141 0054 07D1     		bne	.L80
 409:..\..\..\lvgl\version_6.1.2\lvgl\src\lv_misc/lv_txt.c ****         if(c == ' ') {
 1142              		.loc 2 409 0
 1143 0056 3B68     		ldr	r3, [r7]
 1144 0058 202B     		cmp	r3, #32
 1145 005a 02D1     		bne	.L81
 410:..\..\..\lvgl\version_6.1.2\lvgl\src\lv_misc/lv_txt.c ****             *state = LV_TXT_CMD_STATE_IN; /*After the parameter the text is in the command*/
 1146              		.loc 2 410 0
 1147 005c 7B68     		ldr	r3, [r7, #4]
 1148 005e 0222     		movs	r2, #2
 1149 0060 1A70     		strb	r2, [r3]
 1150              	.L81:
 411:..\..\..\lvgl\version_6.1.2\lvgl\src\lv_misc/lv_txt.c ****         }
 412:..\..\..\lvgl\version_6.1.2\lvgl\src\lv_misc/lv_txt.c ****         ret = true;
 1151              		.loc 2 412 0
 1152 0062 0123     		movs	r3, #1
 1153 0064 FB73     		strb	r3, [r7, #15]
 1154              	.L80:
 413:..\..\..\lvgl\version_6.1.2\lvgl\src\lv_misc/lv_txt.c ****     }
 414:..\..\..\lvgl\version_6.1.2\lvgl\src\lv_misc/lv_txt.c **** 
 415:..\..\..\lvgl\version_6.1.2\lvgl\src\lv_misc/lv_txt.c ****     return ret;
 1155              		.loc 2 415 0
 1156 0066 FB7B     		ldrb	r3, [r7, #15]	@ zero_extendqisi2
 416:..\..\..\lvgl\version_6.1.2\lvgl\src\lv_misc/lv_txt.c **** }
ARM GAS  C:\Users\tmj32\AppData\Local\Temp\ccPoPccU.s 			page 31


 1157              		.loc 2 416 0
 1158 0068 1846     		mov	r0, r3
 1159 006a 1437     		adds	r7, r7, #20
 1160              		.cfi_def_cfa_offset 4
 1161 006c BD46     		mov	sp, r7
 1162              		.cfi_def_cfa_register 13
 1163              		@ sp needed
 1164 006e 5DF8047B 		ldr	r7, [sp], #4
 1165              		.cfi_restore 7
 1166              		.cfi_def_cfa_offset 0
 1167 0072 7047     		bx	lr
 1168              		.cfi_endproc
 1169              	.LFE8:
 1170              		.size	lv_txt_is_cmd, .-lv_txt_is_cmd
 1171              		.section	.text.lv_txt_ins,"ax",%progbits
 1172              		.align	2
 1173              		.global	lv_txt_ins
 1174              		.thumb
 1175              		.thumb_func
 1176              		.type	lv_txt_ins, %function
 1177              	lv_txt_ins:
 1178              	.LFB9:
 417:..\..\..\lvgl\version_6.1.2\lvgl\src\lv_misc/lv_txt.c **** 
 418:..\..\..\lvgl\version_6.1.2\lvgl\src\lv_misc/lv_txt.c **** /**
 419:..\..\..\lvgl\version_6.1.2\lvgl\src\lv_misc/lv_txt.c ****  * Insert a string into an other
 420:..\..\..\lvgl\version_6.1.2\lvgl\src\lv_misc/lv_txt.c ****  * @param txt_buf the original text (must be big enough for the result text)
 421:..\..\..\lvgl\version_6.1.2\lvgl\src\lv_misc/lv_txt.c ****  * @param pos position to insert. Expressed in character index and not byte index (Different in
 422:..\..\..\lvgl\version_6.1.2\lvgl\src\lv_misc/lv_txt.c ****  * UTF-8) 0: before the original text, 1: after the first char etc.
 423:..\..\..\lvgl\version_6.1.2\lvgl\src\lv_misc/lv_txt.c ****  * @param ins_txt text to insert
 424:..\..\..\lvgl\version_6.1.2\lvgl\src\lv_misc/lv_txt.c ****  */
 425:..\..\..\lvgl\version_6.1.2\lvgl\src\lv_misc/lv_txt.c **** void lv_txt_ins(char * txt_buf, uint32_t pos, const char * ins_txt)
 426:..\..\..\lvgl\version_6.1.2\lvgl\src\lv_misc/lv_txt.c **** {
 1179              		.loc 2 426 0
 1180              		.cfi_startproc
 1181              		@ args = 0, pretend = 0, frame = 32
 1182              		@ frame_needed = 1, uses_anonymous_args = 0
 1183 0000 80B5     		push	{r7, lr}
 1184              		.cfi_def_cfa_offset 8
 1185              		.cfi_offset 7, -8
 1186              		.cfi_offset 14, -4
 1187 0002 88B0     		sub	sp, sp, #32
 1188              		.cfi_def_cfa_offset 40
 1189 0004 00AF     		add	r7, sp, #0
 1190              		.cfi_def_cfa_register 7
 1191 0006 F860     		str	r0, [r7, #12]
 1192 0008 B960     		str	r1, [r7, #8]
 1193 000a 7A60     		str	r2, [r7, #4]
 427:..\..\..\lvgl\version_6.1.2\lvgl\src\lv_misc/lv_txt.c ****     size_t old_len = strlen(txt_buf);
 1194              		.loc 2 427 0
 1195 000c F868     		ldr	r0, [r7, #12]
 1196 000e FFF7FEFF 		bl	strlen
 1197 0012 B861     		str	r0, [r7, #24]
 428:..\..\..\lvgl\version_6.1.2\lvgl\src\lv_misc/lv_txt.c ****     size_t ins_len = strlen(ins_txt);
 1198              		.loc 2 428 0
 1199 0014 7868     		ldr	r0, [r7, #4]
 1200 0016 FFF7FEFF 		bl	strlen
 1201 001a 7861     		str	r0, [r7, #20]
ARM GAS  C:\Users\tmj32\AppData\Local\Temp\ccPoPccU.s 			page 32


 429:..\..\..\lvgl\version_6.1.2\lvgl\src\lv_misc/lv_txt.c ****     size_t new_len = ins_len + old_len;
 1202              		.loc 2 429 0
 1203 001c 7A69     		ldr	r2, [r7, #20]
 1204 001e BB69     		ldr	r3, [r7, #24]
 1205 0020 1344     		add	r3, r3, r2
 1206 0022 3B61     		str	r3, [r7, #16]
 430:..\..\..\lvgl\version_6.1.2\lvgl\src\lv_misc/lv_txt.c ****     pos              = lv_txt_encoded_get_byte_id(txt_buf, pos); /*Convert to byte index instead of
 1207              		.loc 2 430 0
 1208 0024 134B     		ldr	r3, .L86
 1209 0026 1B68     		ldr	r3, [r3]
 1210 0028 B968     		ldr	r1, [r7, #8]
 1211 002a F868     		ldr	r0, [r7, #12]
 1212 002c 9847     		blx	r3
 1213 002e B860     		str	r0, [r7, #8]
 431:..\..\..\lvgl\version_6.1.2\lvgl\src\lv_misc/lv_txt.c **** 
 432:..\..\..\lvgl\version_6.1.2\lvgl\src\lv_misc/lv_txt.c ****     /*Copy the second part into the end to make place to text to insert*/
 433:..\..\..\lvgl\version_6.1.2\lvgl\src\lv_misc/lv_txt.c ****     size_t i;
 434:..\..\..\lvgl\version_6.1.2\lvgl\src\lv_misc/lv_txt.c ****     for(i = new_len; i >= pos + ins_len; i--) {
 1214              		.loc 2 434 0
 1215 0030 3B69     		ldr	r3, [r7, #16]
 1216 0032 FB61     		str	r3, [r7, #28]
 1217 0034 0CE0     		b	.L84
 1218              	.L85:
 435:..\..\..\lvgl\version_6.1.2\lvgl\src\lv_misc/lv_txt.c ****         txt_buf[i] = txt_buf[i - ins_len];
 1219              		.loc 2 435 0 discriminator 3
 1220 0036 FA68     		ldr	r2, [r7, #12]
 1221 0038 FB69     		ldr	r3, [r7, #28]
 1222 003a 1344     		add	r3, r3, r2
 1223 003c F969     		ldr	r1, [r7, #28]
 1224 003e 7A69     		ldr	r2, [r7, #20]
 1225 0040 8A1A     		subs	r2, r1, r2
 1226 0042 F968     		ldr	r1, [r7, #12]
 1227 0044 0A44     		add	r2, r2, r1
 1228 0046 1278     		ldrb	r2, [r2]	@ zero_extendqisi2
 1229 0048 1A70     		strb	r2, [r3]
 434:..\..\..\lvgl\version_6.1.2\lvgl\src\lv_misc/lv_txt.c ****         txt_buf[i] = txt_buf[i - ins_len];
 1230              		.loc 2 434 0 discriminator 3
 1231 004a FB69     		ldr	r3, [r7, #28]
 1232 004c 013B     		subs	r3, r3, #1
 1233 004e FB61     		str	r3, [r7, #28]
 1234              	.L84:
 434:..\..\..\lvgl\version_6.1.2\lvgl\src\lv_misc/lv_txt.c ****         txt_buf[i] = txt_buf[i - ins_len];
 1235              		.loc 2 434 0 is_stmt 0 discriminator 1
 1236 0050 BA68     		ldr	r2, [r7, #8]
 1237 0052 7B69     		ldr	r3, [r7, #20]
 1238 0054 1A44     		add	r2, r2, r3
 1239 0056 FB69     		ldr	r3, [r7, #28]
 1240 0058 9A42     		cmp	r2, r3
 1241 005a ECD9     		bls	.L85
 436:..\..\..\lvgl\version_6.1.2\lvgl\src\lv_misc/lv_txt.c ****     }
 437:..\..\..\lvgl\version_6.1.2\lvgl\src\lv_misc/lv_txt.c **** 
 438:..\..\..\lvgl\version_6.1.2\lvgl\src\lv_misc/lv_txt.c ****     /* Copy the text into the new space*/
 439:..\..\..\lvgl\version_6.1.2\lvgl\src\lv_misc/lv_txt.c ****     memcpy(txt_buf + pos, ins_txt, ins_len);
 1242              		.loc 2 439 0 is_stmt 1
 1243 005c FA68     		ldr	r2, [r7, #12]
 1244 005e BB68     		ldr	r3, [r7, #8]
 1245 0060 1344     		add	r3, r3, r2
ARM GAS  C:\Users\tmj32\AppData\Local\Temp\ccPoPccU.s 			page 33


 1246 0062 7A69     		ldr	r2, [r7, #20]
 1247 0064 7968     		ldr	r1, [r7, #4]
 1248 0066 1846     		mov	r0, r3
 1249 0068 FFF7FEFF 		bl	memcpy
 440:..\..\..\lvgl\version_6.1.2\lvgl\src\lv_misc/lv_txt.c **** }
 1250              		.loc 2 440 0
 1251 006c 00BF     		nop
 1252 006e 2037     		adds	r7, r7, #32
 1253              		.cfi_def_cfa_offset 8
 1254 0070 BD46     		mov	sp, r7
 1255              		.cfi_def_cfa_register 13
 1256              		@ sp needed
 1257 0072 80BD     		pop	{r7, pc}
 1258              	.L87:
 1259              		.align	2
 1260              	.L86:
 1261 0074 00000000 		.word	lv_txt_encoded_get_byte_id
 1262              		.cfi_endproc
 1263              	.LFE9:
 1264              		.size	lv_txt_ins, .-lv_txt_ins
 1265              		.section	.text.lv_txt_cut,"ax",%progbits
 1266              		.align	2
 1267              		.global	lv_txt_cut
 1268              		.thumb
 1269              		.thumb_func
 1270              		.type	lv_txt_cut, %function
 1271              	lv_txt_cut:
 1272              	.LFB10:
 441:..\..\..\lvgl\version_6.1.2\lvgl\src\lv_misc/lv_txt.c **** 
 442:..\..\..\lvgl\version_6.1.2\lvgl\src\lv_misc/lv_txt.c **** /**
 443:..\..\..\lvgl\version_6.1.2\lvgl\src\lv_misc/lv_txt.c ****  * Delete a part of a string
 444:..\..\..\lvgl\version_6.1.2\lvgl\src\lv_misc/lv_txt.c ****  * @param txt string to modify
 445:..\..\..\lvgl\version_6.1.2\lvgl\src\lv_misc/lv_txt.c ****  * @param pos position where to start the deleting (0: before the first char, 1: after the first
 446:..\..\..\lvgl\version_6.1.2\lvgl\src\lv_misc/lv_txt.c ****  * char etc.)
 447:..\..\..\lvgl\version_6.1.2\lvgl\src\lv_misc/lv_txt.c ****  * @param len number of characters to delete
 448:..\..\..\lvgl\version_6.1.2\lvgl\src\lv_misc/lv_txt.c ****  */
 449:..\..\..\lvgl\version_6.1.2\lvgl\src\lv_misc/lv_txt.c **** void lv_txt_cut(char * txt, uint32_t pos, uint32_t len)
 450:..\..\..\lvgl\version_6.1.2\lvgl\src\lv_misc/lv_txt.c **** {
 1273              		.loc 2 450 0
 1274              		.cfi_startproc
 1275              		@ args = 0, pretend = 0, frame = 24
 1276              		@ frame_needed = 1, uses_anonymous_args = 0
 1277 0000 80B5     		push	{r7, lr}
 1278              		.cfi_def_cfa_offset 8
 1279              		.cfi_offset 7, -8
 1280              		.cfi_offset 14, -4
 1281 0002 86B0     		sub	sp, sp, #24
 1282              		.cfi_def_cfa_offset 32
 1283 0004 00AF     		add	r7, sp, #0
 1284              		.cfi_def_cfa_register 7
 1285 0006 F860     		str	r0, [r7, #12]
 1286 0008 B960     		str	r1, [r7, #8]
 1287 000a 7A60     		str	r2, [r7, #4]
 451:..\..\..\lvgl\version_6.1.2\lvgl\src\lv_misc/lv_txt.c **** 
 452:..\..\..\lvgl\version_6.1.2\lvgl\src\lv_misc/lv_txt.c ****     size_t old_len = strlen(txt);
 1288              		.loc 2 452 0
 1289 000c F868     		ldr	r0, [r7, #12]
ARM GAS  C:\Users\tmj32\AppData\Local\Temp\ccPoPccU.s 			page 34


 1290 000e FFF7FEFF 		bl	strlen
 1291 0012 3861     		str	r0, [r7, #16]
 453:..\..\..\lvgl\version_6.1.2\lvgl\src\lv_misc/lv_txt.c **** 
 454:..\..\..\lvgl\version_6.1.2\lvgl\src\lv_misc/lv_txt.c ****     pos = lv_txt_encoded_get_byte_id(txt, pos); /*Convert to byte index instead of letter index*/
 1292              		.loc 2 454 0
 1293 0014 144B     		ldr	r3, .L91
 1294 0016 1B68     		ldr	r3, [r3]
 1295 0018 B968     		ldr	r1, [r7, #8]
 1296 001a F868     		ldr	r0, [r7, #12]
 1297 001c 9847     		blx	r3
 1298 001e B860     		str	r0, [r7, #8]
 455:..\..\..\lvgl\version_6.1.2\lvgl\src\lv_misc/lv_txt.c ****     len = lv_txt_encoded_get_byte_id(&txt[pos], len);
 1299              		.loc 2 455 0
 1300 0020 114B     		ldr	r3, .L91
 1301 0022 1B68     		ldr	r3, [r3]
 1302 0024 F968     		ldr	r1, [r7, #12]
 1303 0026 BA68     		ldr	r2, [r7, #8]
 1304 0028 0A44     		add	r2, r2, r1
 1305 002a 7968     		ldr	r1, [r7, #4]
 1306 002c 1046     		mov	r0, r2
 1307 002e 9847     		blx	r3
 1308 0030 7860     		str	r0, [r7, #4]
 456:..\..\..\lvgl\version_6.1.2\lvgl\src\lv_misc/lv_txt.c **** 
 457:..\..\..\lvgl\version_6.1.2\lvgl\src\lv_misc/lv_txt.c ****     /*Copy the second part into the end to make place to text to insert*/
 458:..\..\..\lvgl\version_6.1.2\lvgl\src\lv_misc/lv_txt.c ****     uint32_t i;
 459:..\..\..\lvgl\version_6.1.2\lvgl\src\lv_misc/lv_txt.c ****     for(i = pos; i <= old_len - len; i++) {
 1309              		.loc 2 459 0
 1310 0032 BB68     		ldr	r3, [r7, #8]
 1311 0034 7B61     		str	r3, [r7, #20]
 1312 0036 0CE0     		b	.L89
 1313              	.L90:
 460:..\..\..\lvgl\version_6.1.2\lvgl\src\lv_misc/lv_txt.c ****         txt[i] = txt[i + len];
 1314              		.loc 2 460 0 discriminator 3
 1315 0038 FA68     		ldr	r2, [r7, #12]
 1316 003a 7B69     		ldr	r3, [r7, #20]
 1317 003c 1344     		add	r3, r3, r2
 1318 003e 7969     		ldr	r1, [r7, #20]
 1319 0040 7A68     		ldr	r2, [r7, #4]
 1320 0042 0A44     		add	r2, r2, r1
 1321 0044 F968     		ldr	r1, [r7, #12]
 1322 0046 0A44     		add	r2, r2, r1
 1323 0048 1278     		ldrb	r2, [r2]	@ zero_extendqisi2
 1324 004a 1A70     		strb	r2, [r3]
 459:..\..\..\lvgl\version_6.1.2\lvgl\src\lv_misc/lv_txt.c ****         txt[i] = txt[i + len];
 1325              		.loc 2 459 0 discriminator 3
 1326 004c 7B69     		ldr	r3, [r7, #20]
 1327 004e 0133     		adds	r3, r3, #1
 1328 0050 7B61     		str	r3, [r7, #20]
 1329              	.L89:
 459:..\..\..\lvgl\version_6.1.2\lvgl\src\lv_misc/lv_txt.c ****         txt[i] = txt[i + len];
 1330              		.loc 2 459 0 is_stmt 0 discriminator 1
 1331 0052 3A69     		ldr	r2, [r7, #16]
 1332 0054 7B68     		ldr	r3, [r7, #4]
 1333 0056 D21A     		subs	r2, r2, r3
 1334 0058 7B69     		ldr	r3, [r7, #20]
 1335 005a 9A42     		cmp	r2, r3
 1336 005c ECD2     		bcs	.L90
ARM GAS  C:\Users\tmj32\AppData\Local\Temp\ccPoPccU.s 			page 35


 461:..\..\..\lvgl\version_6.1.2\lvgl\src\lv_misc/lv_txt.c ****     }
 462:..\..\..\lvgl\version_6.1.2\lvgl\src\lv_misc/lv_txt.c **** }
 1337              		.loc 2 462 0 is_stmt 1
 1338 005e 00BF     		nop
 1339 0060 1837     		adds	r7, r7, #24
 1340              		.cfi_def_cfa_offset 8
 1341 0062 BD46     		mov	sp, r7
 1342              		.cfi_def_cfa_register 13
 1343              		@ sp needed
 1344 0064 80BD     		pop	{r7, pc}
 1345              	.L92:
 1346 0066 00BF     		.align	2
 1347              	.L91:
 1348 0068 00000000 		.word	lv_txt_encoded_get_byte_id
 1349              		.cfi_endproc
 1350              	.LFE10:
 1351              		.size	lv_txt_cut, .-lv_txt_cut
 1352              		.section	.text.lv_txt_iso8859_1_size,"ax",%progbits
 1353              		.align	2
 1354              		.thumb
 1355              		.thumb_func
 1356              		.type	lv_txt_iso8859_1_size, %function
 1357              	lv_txt_iso8859_1_size:
 1358              	.LFB11:
 463:..\..\..\lvgl\version_6.1.2\lvgl\src\lv_misc/lv_txt.c **** 
 464:..\..\..\lvgl\version_6.1.2\lvgl\src\lv_misc/lv_txt.c **** #if LV_TXT_ENC == LV_TXT_ENC_UTF8
 465:..\..\..\lvgl\version_6.1.2\lvgl\src\lv_misc/lv_txt.c **** /*******************************
 466:..\..\..\lvgl\version_6.1.2\lvgl\src\lv_misc/lv_txt.c ****  *   UTF-8 ENCODER/DECOER
 467:..\..\..\lvgl\version_6.1.2\lvgl\src\lv_misc/lv_txt.c ****  ******************************/
 468:..\..\..\lvgl\version_6.1.2\lvgl\src\lv_misc/lv_txt.c **** 
 469:..\..\..\lvgl\version_6.1.2\lvgl\src\lv_misc/lv_txt.c **** /**
 470:..\..\..\lvgl\version_6.1.2\lvgl\src\lv_misc/lv_txt.c ****  * Give the size of an UTF-8 coded character
 471:..\..\..\lvgl\version_6.1.2\lvgl\src\lv_misc/lv_txt.c ****  * @param str pointer to a character in a string
 472:..\..\..\lvgl\version_6.1.2\lvgl\src\lv_misc/lv_txt.c ****  * @return length of the UTF-8 character (1,2,3 or 4). O on invalid code
 473:..\..\..\lvgl\version_6.1.2\lvgl\src\lv_misc/lv_txt.c ****  */
 474:..\..\..\lvgl\version_6.1.2\lvgl\src\lv_misc/lv_txt.c **** static uint8_t lv_txt_utf8_size(const char * str)
 475:..\..\..\lvgl\version_6.1.2\lvgl\src\lv_misc/lv_txt.c **** {
 476:..\..\..\lvgl\version_6.1.2\lvgl\src\lv_misc/lv_txt.c ****     if((str[0] & 0x80) == 0)
 477:..\..\..\lvgl\version_6.1.2\lvgl\src\lv_misc/lv_txt.c ****         return 1;
 478:..\..\..\lvgl\version_6.1.2\lvgl\src\lv_misc/lv_txt.c ****     else if((str[0] & 0xE0) == 0xC0)
 479:..\..\..\lvgl\version_6.1.2\lvgl\src\lv_misc/lv_txt.c ****         return 2;
 480:..\..\..\lvgl\version_6.1.2\lvgl\src\lv_misc/lv_txt.c ****     else if((str[0] & 0xF0) == 0xE0)
 481:..\..\..\lvgl\version_6.1.2\lvgl\src\lv_misc/lv_txt.c ****         return 3;
 482:..\..\..\lvgl\version_6.1.2\lvgl\src\lv_misc/lv_txt.c ****     else if((str[0] & 0xF8) == 0xF0)
 483:..\..\..\lvgl\version_6.1.2\lvgl\src\lv_misc/lv_txt.c ****         return 4;
 484:..\..\..\lvgl\version_6.1.2\lvgl\src\lv_misc/lv_txt.c ****     return 0; /*If the char was invalid tell it's 1 byte long*/
 485:..\..\..\lvgl\version_6.1.2\lvgl\src\lv_misc/lv_txt.c **** }
 486:..\..\..\lvgl\version_6.1.2\lvgl\src\lv_misc/lv_txt.c **** 
 487:..\..\..\lvgl\version_6.1.2\lvgl\src\lv_misc/lv_txt.c **** /**
 488:..\..\..\lvgl\version_6.1.2\lvgl\src\lv_misc/lv_txt.c ****  * Convert an Unicode letter to UTF-8.
 489:..\..\..\lvgl\version_6.1.2\lvgl\src\lv_misc/lv_txt.c ****  * @param letter_uni an Unicode letter
 490:..\..\..\lvgl\version_6.1.2\lvgl\src\lv_misc/lv_txt.c ****  * @return UTF-8 coded character in Little Endian to be compatible with C chars (e.g. '', '')
 491:..\..\..\lvgl\version_6.1.2\lvgl\src\lv_misc/lv_txt.c ****  */
 492:..\..\..\lvgl\version_6.1.2\lvgl\src\lv_misc/lv_txt.c **** static uint32_t lv_txt_unicode_to_utf8(uint32_t letter_uni)
 493:..\..\..\lvgl\version_6.1.2\lvgl\src\lv_misc/lv_txt.c **** {
 494:..\..\..\lvgl\version_6.1.2\lvgl\src\lv_misc/lv_txt.c ****     if(letter_uni < 128) return letter_uni;
 495:..\..\..\lvgl\version_6.1.2\lvgl\src\lv_misc/lv_txt.c ****     uint8_t bytes[4];
ARM GAS  C:\Users\tmj32\AppData\Local\Temp\ccPoPccU.s 			page 36


 496:..\..\..\lvgl\version_6.1.2\lvgl\src\lv_misc/lv_txt.c **** 
 497:..\..\..\lvgl\version_6.1.2\lvgl\src\lv_misc/lv_txt.c ****     if(letter_uni < 0x0800) {
 498:..\..\..\lvgl\version_6.1.2\lvgl\src\lv_misc/lv_txt.c ****         bytes[0] = ((letter_uni >> 6) & 0x1F) | 0xC0;
 499:..\..\..\lvgl\version_6.1.2\lvgl\src\lv_misc/lv_txt.c ****         bytes[1] = ((letter_uni >> 0) & 0x3F) | 0x80;
 500:..\..\..\lvgl\version_6.1.2\lvgl\src\lv_misc/lv_txt.c ****         bytes[2] = 0;
 501:..\..\..\lvgl\version_6.1.2\lvgl\src\lv_misc/lv_txt.c ****         bytes[3] = 0;
 502:..\..\..\lvgl\version_6.1.2\lvgl\src\lv_misc/lv_txt.c ****     } else if(letter_uni < 0x010000) {
 503:..\..\..\lvgl\version_6.1.2\lvgl\src\lv_misc/lv_txt.c ****         bytes[0] = ((letter_uni >> 12) & 0x0F) | 0xE0;
 504:..\..\..\lvgl\version_6.1.2\lvgl\src\lv_misc/lv_txt.c ****         bytes[1] = ((letter_uni >> 6) & 0x3F) | 0x80;
 505:..\..\..\lvgl\version_6.1.2\lvgl\src\lv_misc/lv_txt.c ****         bytes[2] = ((letter_uni >> 0) & 0x3F) | 0x80;
 506:..\..\..\lvgl\version_6.1.2\lvgl\src\lv_misc/lv_txt.c ****         bytes[3] = 0;
 507:..\..\..\lvgl\version_6.1.2\lvgl\src\lv_misc/lv_txt.c ****     } else if(letter_uni < 0x110000) {
 508:..\..\..\lvgl\version_6.1.2\lvgl\src\lv_misc/lv_txt.c ****         bytes[0] = ((letter_uni >> 18) & 0x07) | 0xF0;
 509:..\..\..\lvgl\version_6.1.2\lvgl\src\lv_misc/lv_txt.c ****         bytes[1] = ((letter_uni >> 12) & 0x3F) | 0x80;
 510:..\..\..\lvgl\version_6.1.2\lvgl\src\lv_misc/lv_txt.c ****         bytes[2] = ((letter_uni >> 6) & 0x3F) | 0x80;
 511:..\..\..\lvgl\version_6.1.2\lvgl\src\lv_misc/lv_txt.c ****         bytes[3] = ((letter_uni >> 0) & 0x3F) | 0x80;
 512:..\..\..\lvgl\version_6.1.2\lvgl\src\lv_misc/lv_txt.c ****     }
 513:..\..\..\lvgl\version_6.1.2\lvgl\src\lv_misc/lv_txt.c **** 
 514:..\..\..\lvgl\version_6.1.2\lvgl\src\lv_misc/lv_txt.c ****     uint32_t * res_p = (uint32_t *)bytes;
 515:..\..\..\lvgl\version_6.1.2\lvgl\src\lv_misc/lv_txt.c ****     return *res_p;
 516:..\..\..\lvgl\version_6.1.2\lvgl\src\lv_misc/lv_txt.c **** }
 517:..\..\..\lvgl\version_6.1.2\lvgl\src\lv_misc/lv_txt.c **** 
 518:..\..\..\lvgl\version_6.1.2\lvgl\src\lv_misc/lv_txt.c **** /**
 519:..\..\..\lvgl\version_6.1.2\lvgl\src\lv_misc/lv_txt.c ****  * Convert a wide character, e.g. '' little endian to be UTF-8 compatible
 520:..\..\..\lvgl\version_6.1.2\lvgl\src\lv_misc/lv_txt.c ****  * @param c a wide character or a  Little endian number
 521:..\..\..\lvgl\version_6.1.2\lvgl\src\lv_misc/lv_txt.c ****  * @return `c` in big endian
 522:..\..\..\lvgl\version_6.1.2\lvgl\src\lv_misc/lv_txt.c ****  */
 523:..\..\..\lvgl\version_6.1.2\lvgl\src\lv_misc/lv_txt.c **** static uint32_t lv_txt_utf8_conv_wc(uint32_t c)
 524:..\..\..\lvgl\version_6.1.2\lvgl\src\lv_misc/lv_txt.c **** {
 525:..\..\..\lvgl\version_6.1.2\lvgl\src\lv_misc/lv_txt.c ****     /*Swap the bytes (UTF-8 is big endian, but the MCUs are little endian)*/
 526:..\..\..\lvgl\version_6.1.2\lvgl\src\lv_misc/lv_txt.c ****     if((c & 0x80) != 0) {
 527:..\..\..\lvgl\version_6.1.2\lvgl\src\lv_misc/lv_txt.c ****         uint32_t swapped;
 528:..\..\..\lvgl\version_6.1.2\lvgl\src\lv_misc/lv_txt.c ****         uint8_t c8[4];
 529:..\..\..\lvgl\version_6.1.2\lvgl\src\lv_misc/lv_txt.c ****         memcpy(c8, &c, 4);
 530:..\..\..\lvgl\version_6.1.2\lvgl\src\lv_misc/lv_txt.c ****         swapped = (c8[0] << 24) + (c8[1] << 16) + (c8[2] << 8) + (c8[3]);
 531:..\..\..\lvgl\version_6.1.2\lvgl\src\lv_misc/lv_txt.c ****         uint8_t i;
 532:..\..\..\lvgl\version_6.1.2\lvgl\src\lv_misc/lv_txt.c ****         for(i = 0; i < 4; i++) {
 533:..\..\..\lvgl\version_6.1.2\lvgl\src\lv_misc/lv_txt.c ****             if((swapped & 0xFF) == 0)
 534:..\..\..\lvgl\version_6.1.2\lvgl\src\lv_misc/lv_txt.c ****                 swapped = (swapped >> 8); /*Ignore leading zeros (they were in the end originally)*
 535:..\..\..\lvgl\version_6.1.2\lvgl\src\lv_misc/lv_txt.c ****         }
 536:..\..\..\lvgl\version_6.1.2\lvgl\src\lv_misc/lv_txt.c ****         c = swapped;
 537:..\..\..\lvgl\version_6.1.2\lvgl\src\lv_misc/lv_txt.c ****     }
 538:..\..\..\lvgl\version_6.1.2\lvgl\src\lv_misc/lv_txt.c **** 
 539:..\..\..\lvgl\version_6.1.2\lvgl\src\lv_misc/lv_txt.c ****     return c;
 540:..\..\..\lvgl\version_6.1.2\lvgl\src\lv_misc/lv_txt.c **** }
 541:..\..\..\lvgl\version_6.1.2\lvgl\src\lv_misc/lv_txt.c **** 
 542:..\..\..\lvgl\version_6.1.2\lvgl\src\lv_misc/lv_txt.c **** /**
 543:..\..\..\lvgl\version_6.1.2\lvgl\src\lv_misc/lv_txt.c ****  * Decode an UTF-8 character from a string.
 544:..\..\..\lvgl\version_6.1.2\lvgl\src\lv_misc/lv_txt.c ****  * @param txt pointer to '\0' terminated string
 545:..\..\..\lvgl\version_6.1.2\lvgl\src\lv_misc/lv_txt.c ****  * @param i start byte index in 'txt' where to start.
 546:..\..\..\lvgl\version_6.1.2\lvgl\src\lv_misc/lv_txt.c ****  *          After call it will point to the next UTF-8 char in 'txt'.
 547:..\..\..\lvgl\version_6.1.2\lvgl\src\lv_misc/lv_txt.c ****  *          NULL to use txt[0] as index
 548:..\..\..\lvgl\version_6.1.2\lvgl\src\lv_misc/lv_txt.c ****  * @return the decoded Unicode character or 0 on invalid UTF-8 code
 549:..\..\..\lvgl\version_6.1.2\lvgl\src\lv_misc/lv_txt.c ****  */
 550:..\..\..\lvgl\version_6.1.2\lvgl\src\lv_misc/lv_txt.c **** static uint32_t lv_txt_utf8_next(const char * txt, uint32_t * i)
 551:..\..\..\lvgl\version_6.1.2\lvgl\src\lv_misc/lv_txt.c **** {
 552:..\..\..\lvgl\version_6.1.2\lvgl\src\lv_misc/lv_txt.c ****     /* Unicode to UTF-8
ARM GAS  C:\Users\tmj32\AppData\Local\Temp\ccPoPccU.s 			page 37


 553:..\..\..\lvgl\version_6.1.2\lvgl\src\lv_misc/lv_txt.c ****      * 00000000 00000000 00000000 0xxxxxxx -> 0xxxxxxx
 554:..\..\..\lvgl\version_6.1.2\lvgl\src\lv_misc/lv_txt.c ****      * 00000000 00000000 00000yyy yyxxxxxx -> 110yyyyy 10xxxxxx
 555:..\..\..\lvgl\version_6.1.2\lvgl\src\lv_misc/lv_txt.c ****      * 00000000 00000000 zzzzyyyy yyxxxxxx -> 1110zzzz 10yyyyyy 10xxxxxx
 556:..\..\..\lvgl\version_6.1.2\lvgl\src\lv_misc/lv_txt.c ****      * 00000000 000wwwzz zzzzyyyy yyxxxxxx -> 11110www 10zzzzzz 10yyyyyy 10xxxxxx
 557:..\..\..\lvgl\version_6.1.2\lvgl\src\lv_misc/lv_txt.c ****      * */
 558:..\..\..\lvgl\version_6.1.2\lvgl\src\lv_misc/lv_txt.c **** 
 559:..\..\..\lvgl\version_6.1.2\lvgl\src\lv_misc/lv_txt.c ****     uint32_t result = 0;
 560:..\..\..\lvgl\version_6.1.2\lvgl\src\lv_misc/lv_txt.c **** 
 561:..\..\..\lvgl\version_6.1.2\lvgl\src\lv_misc/lv_txt.c ****     /*Dummy 'i' pointer is required*/
 562:..\..\..\lvgl\version_6.1.2\lvgl\src\lv_misc/lv_txt.c ****     uint32_t i_tmp = 0;
 563:..\..\..\lvgl\version_6.1.2\lvgl\src\lv_misc/lv_txt.c ****     if(i == NULL) i = &i_tmp;
 564:..\..\..\lvgl\version_6.1.2\lvgl\src\lv_misc/lv_txt.c **** 
 565:..\..\..\lvgl\version_6.1.2\lvgl\src\lv_misc/lv_txt.c ****     /*Normal ASCII*/
 566:..\..\..\lvgl\version_6.1.2\lvgl\src\lv_misc/lv_txt.c ****     if((txt[*i] & 0x80) == 0) {
 567:..\..\..\lvgl\version_6.1.2\lvgl\src\lv_misc/lv_txt.c ****         result = txt[*i];
 568:..\..\..\lvgl\version_6.1.2\lvgl\src\lv_misc/lv_txt.c ****         (*i)++;
 569:..\..\..\lvgl\version_6.1.2\lvgl\src\lv_misc/lv_txt.c ****     }
 570:..\..\..\lvgl\version_6.1.2\lvgl\src\lv_misc/lv_txt.c ****     /*Real UTF-8 decode*/
 571:..\..\..\lvgl\version_6.1.2\lvgl\src\lv_misc/lv_txt.c ****     else {
 572:..\..\..\lvgl\version_6.1.2\lvgl\src\lv_misc/lv_txt.c ****         /*2 bytes UTF-8 code*/
 573:..\..\..\lvgl\version_6.1.2\lvgl\src\lv_misc/lv_txt.c ****         if((txt[*i] & 0xE0) == 0xC0) {
 574:..\..\..\lvgl\version_6.1.2\lvgl\src\lv_misc/lv_txt.c ****             result = (uint32_t)(txt[*i] & 0x1F) << 6;
 575:..\..\..\lvgl\version_6.1.2\lvgl\src\lv_misc/lv_txt.c ****             (*i)++;
 576:..\..\..\lvgl\version_6.1.2\lvgl\src\lv_misc/lv_txt.c ****             if((txt[*i] & 0xC0) != 0x80) return 0; /*Invalid UTF-8 code*/
 577:..\..\..\lvgl\version_6.1.2\lvgl\src\lv_misc/lv_txt.c ****             result += (txt[*i] & 0x3F);
 578:..\..\..\lvgl\version_6.1.2\lvgl\src\lv_misc/lv_txt.c ****             (*i)++;
 579:..\..\..\lvgl\version_6.1.2\lvgl\src\lv_misc/lv_txt.c ****         }
 580:..\..\..\lvgl\version_6.1.2\lvgl\src\lv_misc/lv_txt.c ****         /*3 bytes UTF-8 code*/
 581:..\..\..\lvgl\version_6.1.2\lvgl\src\lv_misc/lv_txt.c ****         else if((txt[*i] & 0xF0) == 0xE0) {
 582:..\..\..\lvgl\version_6.1.2\lvgl\src\lv_misc/lv_txt.c ****             result = (uint32_t)(txt[*i] & 0x0F) << 12;
 583:..\..\..\lvgl\version_6.1.2\lvgl\src\lv_misc/lv_txt.c ****             (*i)++;
 584:..\..\..\lvgl\version_6.1.2\lvgl\src\lv_misc/lv_txt.c **** 
 585:..\..\..\lvgl\version_6.1.2\lvgl\src\lv_misc/lv_txt.c ****             if((txt[*i] & 0xC0) != 0x80) return 0; /*Invalid UTF-8 code*/
 586:..\..\..\lvgl\version_6.1.2\lvgl\src\lv_misc/lv_txt.c ****             result += (uint32_t)(txt[*i] & 0x3F) << 6;
 587:..\..\..\lvgl\version_6.1.2\lvgl\src\lv_misc/lv_txt.c ****             (*i)++;
 588:..\..\..\lvgl\version_6.1.2\lvgl\src\lv_misc/lv_txt.c **** 
 589:..\..\..\lvgl\version_6.1.2\lvgl\src\lv_misc/lv_txt.c ****             if((txt[*i] & 0xC0) != 0x80) return 0; /*Invalid UTF-8 code*/
 590:..\..\..\lvgl\version_6.1.2\lvgl\src\lv_misc/lv_txt.c ****             result += (txt[*i] & 0x3F);
 591:..\..\..\lvgl\version_6.1.2\lvgl\src\lv_misc/lv_txt.c ****             (*i)++;
 592:..\..\..\lvgl\version_6.1.2\lvgl\src\lv_misc/lv_txt.c ****         }
 593:..\..\..\lvgl\version_6.1.2\lvgl\src\lv_misc/lv_txt.c ****         /*4 bytes UTF-8 code*/
 594:..\..\..\lvgl\version_6.1.2\lvgl\src\lv_misc/lv_txt.c ****         else if((txt[*i] & 0xF8) == 0xF0) {
 595:..\..\..\lvgl\version_6.1.2\lvgl\src\lv_misc/lv_txt.c ****             result = (uint32_t)(txt[*i] & 0x07) << 18;
 596:..\..\..\lvgl\version_6.1.2\lvgl\src\lv_misc/lv_txt.c ****             (*i)++;
 597:..\..\..\lvgl\version_6.1.2\lvgl\src\lv_misc/lv_txt.c **** 
 598:..\..\..\lvgl\version_6.1.2\lvgl\src\lv_misc/lv_txt.c ****             if((txt[*i] & 0xC0) != 0x80) return 0; /*Invalid UTF-8 code*/
 599:..\..\..\lvgl\version_6.1.2\lvgl\src\lv_misc/lv_txt.c ****             result += (uint32_t)(txt[*i] & 0x3F) << 12;
 600:..\..\..\lvgl\version_6.1.2\lvgl\src\lv_misc/lv_txt.c ****             (*i)++;
 601:..\..\..\lvgl\version_6.1.2\lvgl\src\lv_misc/lv_txt.c **** 
 602:..\..\..\lvgl\version_6.1.2\lvgl\src\lv_misc/lv_txt.c ****             if((txt[*i] & 0xC0) != 0x80) return 0; /*Invalid UTF-8 code*/
 603:..\..\..\lvgl\version_6.1.2\lvgl\src\lv_misc/lv_txt.c ****             result += (uint32_t)(txt[*i] & 0x3F) << 6;
 604:..\..\..\lvgl\version_6.1.2\lvgl\src\lv_misc/lv_txt.c ****             (*i)++;
 605:..\..\..\lvgl\version_6.1.2\lvgl\src\lv_misc/lv_txt.c **** 
 606:..\..\..\lvgl\version_6.1.2\lvgl\src\lv_misc/lv_txt.c ****             if((txt[*i] & 0xC0) != 0x80) return 0; /*Invalid UTF-8 code*/
 607:..\..\..\lvgl\version_6.1.2\lvgl\src\lv_misc/lv_txt.c ****             result += txt[*i] & 0x3F;
 608:..\..\..\lvgl\version_6.1.2\lvgl\src\lv_misc/lv_txt.c ****             (*i)++;
 609:..\..\..\lvgl\version_6.1.2\lvgl\src\lv_misc/lv_txt.c ****         } else {
ARM GAS  C:\Users\tmj32\AppData\Local\Temp\ccPoPccU.s 			page 38


 610:..\..\..\lvgl\version_6.1.2\lvgl\src\lv_misc/lv_txt.c ****             (*i)++; /*Not UTF-8 char. Go the next.*/
 611:..\..\..\lvgl\version_6.1.2\lvgl\src\lv_misc/lv_txt.c ****         }
 612:..\..\..\lvgl\version_6.1.2\lvgl\src\lv_misc/lv_txt.c ****     }
 613:..\..\..\lvgl\version_6.1.2\lvgl\src\lv_misc/lv_txt.c ****     return result;
 614:..\..\..\lvgl\version_6.1.2\lvgl\src\lv_misc/lv_txt.c **** }
 615:..\..\..\lvgl\version_6.1.2\lvgl\src\lv_misc/lv_txt.c **** 
 616:..\..\..\lvgl\version_6.1.2\lvgl\src\lv_misc/lv_txt.c **** /**
 617:..\..\..\lvgl\version_6.1.2\lvgl\src\lv_misc/lv_txt.c ****  * Get previous UTF-8 character form a string.
 618:..\..\..\lvgl\version_6.1.2\lvgl\src\lv_misc/lv_txt.c ****  * @param txt pointer to '\0' terminated string
 619:..\..\..\lvgl\version_6.1.2\lvgl\src\lv_misc/lv_txt.c ****  * @param i start byte index in 'txt' where to start. After the call it will point to the previous
 620:..\..\..\lvgl\version_6.1.2\lvgl\src\lv_misc/lv_txt.c ****  * UTF-8 char in 'txt'.
 621:..\..\..\lvgl\version_6.1.2\lvgl\src\lv_misc/lv_txt.c ****  * @return the decoded Unicode character or 0 on invalid UTF-8 code
 622:..\..\..\lvgl\version_6.1.2\lvgl\src\lv_misc/lv_txt.c ****  */
 623:..\..\..\lvgl\version_6.1.2\lvgl\src\lv_misc/lv_txt.c **** static uint32_t lv_txt_utf8_prev(const char * txt, uint32_t * i)
 624:..\..\..\lvgl\version_6.1.2\lvgl\src\lv_misc/lv_txt.c **** {
 625:..\..\..\lvgl\version_6.1.2\lvgl\src\lv_misc/lv_txt.c ****     uint8_t c_size;
 626:..\..\..\lvgl\version_6.1.2\lvgl\src\lv_misc/lv_txt.c ****     uint8_t cnt = 0;
 627:..\..\..\lvgl\version_6.1.2\lvgl\src\lv_misc/lv_txt.c **** 
 628:..\..\..\lvgl\version_6.1.2\lvgl\src\lv_misc/lv_txt.c ****     /*Try to find a !0 long UTF-8 char by stepping one character back*/
 629:..\..\..\lvgl\version_6.1.2\lvgl\src\lv_misc/lv_txt.c ****     (*i)--;
 630:..\..\..\lvgl\version_6.1.2\lvgl\src\lv_misc/lv_txt.c ****     do {
 631:..\..\..\lvgl\version_6.1.2\lvgl\src\lv_misc/lv_txt.c ****         if(cnt >= 4) return 0; /*No UTF-8 char found before the initial*/
 632:..\..\..\lvgl\version_6.1.2\lvgl\src\lv_misc/lv_txt.c **** 
 633:..\..\..\lvgl\version_6.1.2\lvgl\src\lv_misc/lv_txt.c ****         c_size = lv_txt_encoded_size(&txt[*i]);
 634:..\..\..\lvgl\version_6.1.2\lvgl\src\lv_misc/lv_txt.c ****         if(c_size == 0) {
 635:..\..\..\lvgl\version_6.1.2\lvgl\src\lv_misc/lv_txt.c ****             if(*i != 0)
 636:..\..\..\lvgl\version_6.1.2\lvgl\src\lv_misc/lv_txt.c ****                 (*i)--;
 637:..\..\..\lvgl\version_6.1.2\lvgl\src\lv_misc/lv_txt.c ****             else
 638:..\..\..\lvgl\version_6.1.2\lvgl\src\lv_misc/lv_txt.c ****                 return 0;
 639:..\..\..\lvgl\version_6.1.2\lvgl\src\lv_misc/lv_txt.c ****         }
 640:..\..\..\lvgl\version_6.1.2\lvgl\src\lv_misc/lv_txt.c ****         cnt++;
 641:..\..\..\lvgl\version_6.1.2\lvgl\src\lv_misc/lv_txt.c ****     } while(c_size == 0);
 642:..\..\..\lvgl\version_6.1.2\lvgl\src\lv_misc/lv_txt.c **** 
 643:..\..\..\lvgl\version_6.1.2\lvgl\src\lv_misc/lv_txt.c ****     uint32_t i_tmp  = *i;
 644:..\..\..\lvgl\version_6.1.2\lvgl\src\lv_misc/lv_txt.c ****     uint32_t letter = lv_txt_encoded_next(txt, &i_tmp); /*Character found, get it*/
 645:..\..\..\lvgl\version_6.1.2\lvgl\src\lv_misc/lv_txt.c **** 
 646:..\..\..\lvgl\version_6.1.2\lvgl\src\lv_misc/lv_txt.c ****     return letter;
 647:..\..\..\lvgl\version_6.1.2\lvgl\src\lv_misc/lv_txt.c **** }
 648:..\..\..\lvgl\version_6.1.2\lvgl\src\lv_misc/lv_txt.c **** 
 649:..\..\..\lvgl\version_6.1.2\lvgl\src\lv_misc/lv_txt.c **** /**
 650:..\..\..\lvgl\version_6.1.2\lvgl\src\lv_misc/lv_txt.c ****  * Convert a character index (in an UTF-8 text) to byte index.
 651:..\..\..\lvgl\version_6.1.2\lvgl\src\lv_misc/lv_txt.c ****  * E.g. in "ART" index of 'R' is 2th char but start at byte 3 because '' is 2 bytes long
 652:..\..\..\lvgl\version_6.1.2\lvgl\src\lv_misc/lv_txt.c ****  * @param txt a '\0' terminated UTF-8 string
 653:..\..\..\lvgl\version_6.1.2\lvgl\src\lv_misc/lv_txt.c ****  * @param utf8_id character index
 654:..\..\..\lvgl\version_6.1.2\lvgl\src\lv_misc/lv_txt.c ****  * @return byte index of the 'utf8_id'th letter
 655:..\..\..\lvgl\version_6.1.2\lvgl\src\lv_misc/lv_txt.c ****  */
 656:..\..\..\lvgl\version_6.1.2\lvgl\src\lv_misc/lv_txt.c **** static uint32_t lv_txt_utf8_get_byte_id(const char * txt, uint32_t utf8_id)
 657:..\..\..\lvgl\version_6.1.2\lvgl\src\lv_misc/lv_txt.c **** {
 658:..\..\..\lvgl\version_6.1.2\lvgl\src\lv_misc/lv_txt.c ****     uint32_t i;
 659:..\..\..\lvgl\version_6.1.2\lvgl\src\lv_misc/lv_txt.c ****     uint32_t byte_cnt = 0;
 660:..\..\..\lvgl\version_6.1.2\lvgl\src\lv_misc/lv_txt.c ****     for(i = 0; i < utf8_id; i++) {
 661:..\..\..\lvgl\version_6.1.2\lvgl\src\lv_misc/lv_txt.c ****         uint8_t c_size = lv_txt_encoded_size(&txt[byte_cnt]);
 662:..\..\..\lvgl\version_6.1.2\lvgl\src\lv_misc/lv_txt.c ****         byte_cnt += c_size > 0 ? c_size : 1;
 663:..\..\..\lvgl\version_6.1.2\lvgl\src\lv_misc/lv_txt.c ****     }
 664:..\..\..\lvgl\version_6.1.2\lvgl\src\lv_misc/lv_txt.c **** 
 665:..\..\..\lvgl\version_6.1.2\lvgl\src\lv_misc/lv_txt.c ****     return byte_cnt;
 666:..\..\..\lvgl\version_6.1.2\lvgl\src\lv_misc/lv_txt.c **** }
ARM GAS  C:\Users\tmj32\AppData\Local\Temp\ccPoPccU.s 			page 39


 667:..\..\..\lvgl\version_6.1.2\lvgl\src\lv_misc/lv_txt.c **** 
 668:..\..\..\lvgl\version_6.1.2\lvgl\src\lv_misc/lv_txt.c **** /**
 669:..\..\..\lvgl\version_6.1.2\lvgl\src\lv_misc/lv_txt.c ****  * Convert a byte index (in an UTF-8 text) to character index.
 670:..\..\..\lvgl\version_6.1.2\lvgl\src\lv_misc/lv_txt.c ****  * E.g. in "ART" index of 'R' is 2th char but start at byte 3 because '' is 2 bytes long
 671:..\..\..\lvgl\version_6.1.2\lvgl\src\lv_misc/lv_txt.c ****  * @param txt a '\0' terminated UTF-8 string
 672:..\..\..\lvgl\version_6.1.2\lvgl\src\lv_misc/lv_txt.c ****  * @param byte_id byte index
 673:..\..\..\lvgl\version_6.1.2\lvgl\src\lv_misc/lv_txt.c ****  * @return character index of the letter at 'byte_id'th position
 674:..\..\..\lvgl\version_6.1.2\lvgl\src\lv_misc/lv_txt.c ****  */
 675:..\..\..\lvgl\version_6.1.2\lvgl\src\lv_misc/lv_txt.c **** static uint32_t lv_txt_utf8_get_char_id(const char * txt, uint32_t byte_id)
 676:..\..\..\lvgl\version_6.1.2\lvgl\src\lv_misc/lv_txt.c **** {
 677:..\..\..\lvgl\version_6.1.2\lvgl\src\lv_misc/lv_txt.c ****     uint32_t i        = 0;
 678:..\..\..\lvgl\version_6.1.2\lvgl\src\lv_misc/lv_txt.c ****     uint32_t char_cnt = 0;
 679:..\..\..\lvgl\version_6.1.2\lvgl\src\lv_misc/lv_txt.c **** 
 680:..\..\..\lvgl\version_6.1.2\lvgl\src\lv_misc/lv_txt.c ****     while(i < byte_id) {
 681:..\..\..\lvgl\version_6.1.2\lvgl\src\lv_misc/lv_txt.c ****         lv_txt_encoded_next(txt, &i); /*'i' points to the next letter so use the prev. value*/
 682:..\..\..\lvgl\version_6.1.2\lvgl\src\lv_misc/lv_txt.c ****         char_cnt++;
 683:..\..\..\lvgl\version_6.1.2\lvgl\src\lv_misc/lv_txt.c ****     }
 684:..\..\..\lvgl\version_6.1.2\lvgl\src\lv_misc/lv_txt.c **** 
 685:..\..\..\lvgl\version_6.1.2\lvgl\src\lv_misc/lv_txt.c ****     return char_cnt;
 686:..\..\..\lvgl\version_6.1.2\lvgl\src\lv_misc/lv_txt.c **** }
 687:..\..\..\lvgl\version_6.1.2\lvgl\src\lv_misc/lv_txt.c **** 
 688:..\..\..\lvgl\version_6.1.2\lvgl\src\lv_misc/lv_txt.c **** /**
 689:..\..\..\lvgl\version_6.1.2\lvgl\src\lv_misc/lv_txt.c ****  * Get the number of characters (and NOT bytes) in a string. Decode it with UTF-8 if enabled.
 690:..\..\..\lvgl\version_6.1.2\lvgl\src\lv_misc/lv_txt.c ****  * E.g.: "BC" is 3 characters (but 4 bytes)
 691:..\..\..\lvgl\version_6.1.2\lvgl\src\lv_misc/lv_txt.c ****  * @param txt a '\0' terminated char string
 692:..\..\..\lvgl\version_6.1.2\lvgl\src\lv_misc/lv_txt.c ****  * @return number of characters
 693:..\..\..\lvgl\version_6.1.2\lvgl\src\lv_misc/lv_txt.c ****  */
 694:..\..\..\lvgl\version_6.1.2\lvgl\src\lv_misc/lv_txt.c **** static uint32_t lv_txt_utf8_get_length(const char * txt)
 695:..\..\..\lvgl\version_6.1.2\lvgl\src\lv_misc/lv_txt.c **** {
 696:..\..\..\lvgl\version_6.1.2\lvgl\src\lv_misc/lv_txt.c ****     uint32_t len = 0;
 697:..\..\..\lvgl\version_6.1.2\lvgl\src\lv_misc/lv_txt.c ****     uint32_t i   = 0;
 698:..\..\..\lvgl\version_6.1.2\lvgl\src\lv_misc/lv_txt.c **** 
 699:..\..\..\lvgl\version_6.1.2\lvgl\src\lv_misc/lv_txt.c ****     while(txt[i] != '\0') {
 700:..\..\..\lvgl\version_6.1.2\lvgl\src\lv_misc/lv_txt.c ****         lv_txt_encoded_next(txt, &i);
 701:..\..\..\lvgl\version_6.1.2\lvgl\src\lv_misc/lv_txt.c ****         len++;
 702:..\..\..\lvgl\version_6.1.2\lvgl\src\lv_misc/lv_txt.c ****     }
 703:..\..\..\lvgl\version_6.1.2\lvgl\src\lv_misc/lv_txt.c **** 
 704:..\..\..\lvgl\version_6.1.2\lvgl\src\lv_misc/lv_txt.c ****     return len;
 705:..\..\..\lvgl\version_6.1.2\lvgl\src\lv_misc/lv_txt.c **** }
 706:..\..\..\lvgl\version_6.1.2\lvgl\src\lv_misc/lv_txt.c **** 
 707:..\..\..\lvgl\version_6.1.2\lvgl\src\lv_misc/lv_txt.c **** #elif LV_TXT_ENC == LV_TXT_ENC_ASCII
 708:..\..\..\lvgl\version_6.1.2\lvgl\src\lv_misc/lv_txt.c **** /*******************************
 709:..\..\..\lvgl\version_6.1.2\lvgl\src\lv_misc/lv_txt.c ****  *  ASCII ENCODER/DECOER
 710:..\..\..\lvgl\version_6.1.2\lvgl\src\lv_misc/lv_txt.c ****  ******************************/
 711:..\..\..\lvgl\version_6.1.2\lvgl\src\lv_misc/lv_txt.c **** 
 712:..\..\..\lvgl\version_6.1.2\lvgl\src\lv_misc/lv_txt.c **** /**
 713:..\..\..\lvgl\version_6.1.2\lvgl\src\lv_misc/lv_txt.c ****  * Give the size of an ISO8859-1 coded character
 714:..\..\..\lvgl\version_6.1.2\lvgl\src\lv_misc/lv_txt.c ****  * @param str pointer to a character in a string
 715:..\..\..\lvgl\version_6.1.2\lvgl\src\lv_misc/lv_txt.c ****  * @return length of the UTF-8 character (1,2,3 or 4). O on invalid code
 716:..\..\..\lvgl\version_6.1.2\lvgl\src\lv_misc/lv_txt.c ****  */
 717:..\..\..\lvgl\version_6.1.2\lvgl\src\lv_misc/lv_txt.c **** static uint8_t lv_txt_iso8859_1_size(const char * str)
 718:..\..\..\lvgl\version_6.1.2\lvgl\src\lv_misc/lv_txt.c **** {
 1359              		.loc 2 718 0
 1360              		.cfi_startproc
 1361              		@ args = 0, pretend = 0, frame = 8
 1362              		@ frame_needed = 1, uses_anonymous_args = 0
 1363              		@ link register save eliminated.
ARM GAS  C:\Users\tmj32\AppData\Local\Temp\ccPoPccU.s 			page 40


 1364 0000 80B4     		push	{r7}
 1365              		.cfi_def_cfa_offset 4
 1366              		.cfi_offset 7, -4
 1367 0002 83B0     		sub	sp, sp, #12
 1368              		.cfi_def_cfa_offset 16
 1369 0004 00AF     		add	r7, sp, #0
 1370              		.cfi_def_cfa_register 7
 1371 0006 7860     		str	r0, [r7, #4]
 719:..\..\..\lvgl\version_6.1.2\lvgl\src\lv_misc/lv_txt.c ****     (void)str; /*Unused*/
 720:..\..\..\lvgl\version_6.1.2\lvgl\src\lv_misc/lv_txt.c ****     return 1;
 1372              		.loc 2 720 0
 1373 0008 0123     		movs	r3, #1
 721:..\..\..\lvgl\version_6.1.2\lvgl\src\lv_misc/lv_txt.c **** }
 1374              		.loc 2 721 0
 1375 000a 1846     		mov	r0, r3
 1376 000c 0C37     		adds	r7, r7, #12
 1377              		.cfi_def_cfa_offset 4
 1378 000e BD46     		mov	sp, r7
 1379              		.cfi_def_cfa_register 13
 1380              		@ sp needed
 1381 0010 5DF8047B 		ldr	r7, [sp], #4
 1382              		.cfi_restore 7
 1383              		.cfi_def_cfa_offset 0
 1384 0014 7047     		bx	lr
 1385              		.cfi_endproc
 1386              	.LFE11:
 1387              		.size	lv_txt_iso8859_1_size, .-lv_txt_iso8859_1_size
 1388 0016 00BF     		.section	.text.lv_txt_unicode_to_iso8859_1,"ax",%progbits
 1389              		.align	2
 1390              		.thumb
 1391              		.thumb_func
 1392              		.type	lv_txt_unicode_to_iso8859_1, %function
 1393              	lv_txt_unicode_to_iso8859_1:
 1394              	.LFB12:
 722:..\..\..\lvgl\version_6.1.2\lvgl\src\lv_misc/lv_txt.c **** 
 723:..\..\..\lvgl\version_6.1.2\lvgl\src\lv_misc/lv_txt.c **** /**
 724:..\..\..\lvgl\version_6.1.2\lvgl\src\lv_misc/lv_txt.c ****  * Convert an Unicode letter to ISO8859-1.
 725:..\..\..\lvgl\version_6.1.2\lvgl\src\lv_misc/lv_txt.c ****  * @param letter_uni an Unicode letter
 726:..\..\..\lvgl\version_6.1.2\lvgl\src\lv_misc/lv_txt.c ****  * @return ISO8859-1 coded character in Little Endian to be compatible with C chars (e.g. '', '
 727:..\..\..\lvgl\version_6.1.2\lvgl\src\lv_misc/lv_txt.c ****  */
 728:..\..\..\lvgl\version_6.1.2\lvgl\src\lv_misc/lv_txt.c **** static uint32_t lv_txt_unicode_to_iso8859_1(uint32_t letter_uni)
 729:..\..\..\lvgl\version_6.1.2\lvgl\src\lv_misc/lv_txt.c **** {
 1395              		.loc 2 729 0
 1396              		.cfi_startproc
 1397              		@ args = 0, pretend = 0, frame = 8
 1398              		@ frame_needed = 1, uses_anonymous_args = 0
 1399              		@ link register save eliminated.
 1400 0000 80B4     		push	{r7}
 1401              		.cfi_def_cfa_offset 4
 1402              		.cfi_offset 7, -4
 1403 0002 83B0     		sub	sp, sp, #12
 1404              		.cfi_def_cfa_offset 16
 1405 0004 00AF     		add	r7, sp, #0
 1406              		.cfi_def_cfa_register 7
 1407 0006 7860     		str	r0, [r7, #4]
 730:..\..\..\lvgl\version_6.1.2\lvgl\src\lv_misc/lv_txt.c ****     if(letter_uni < 128)
 1408              		.loc 2 730 0
ARM GAS  C:\Users\tmj32\AppData\Local\Temp\ccPoPccU.s 			page 41


 1409 0008 7B68     		ldr	r3, [r7, #4]
 1410 000a 7F2B     		cmp	r3, #127
 1411 000c 01D8     		bhi	.L96
 731:..\..\..\lvgl\version_6.1.2\lvgl\src\lv_misc/lv_txt.c ****         return letter_uni;
 1412              		.loc 2 731 0
 1413 000e 7B68     		ldr	r3, [r7, #4]
 1414 0010 00E0     		b	.L97
 1415              	.L96:
 732:..\..\..\lvgl\version_6.1.2\lvgl\src\lv_misc/lv_txt.c ****     else
 733:..\..\..\lvgl\version_6.1.2\lvgl\src\lv_misc/lv_txt.c ****         return ' ';
 1416              		.loc 2 733 0
 1417 0012 2023     		movs	r3, #32
 1418              	.L97:
 734:..\..\..\lvgl\version_6.1.2\lvgl\src\lv_misc/lv_txt.c **** }
 1419              		.loc 2 734 0
 1420 0014 1846     		mov	r0, r3
 1421 0016 0C37     		adds	r7, r7, #12
 1422              		.cfi_def_cfa_offset 4
 1423 0018 BD46     		mov	sp, r7
 1424              		.cfi_def_cfa_register 13
 1425              		@ sp needed
 1426 001a 5DF8047B 		ldr	r7, [sp], #4
 1427              		.cfi_restore 7
 1428              		.cfi_def_cfa_offset 0
 1429 001e 7047     		bx	lr
 1430              		.cfi_endproc
 1431              	.LFE12:
 1432              		.size	lv_txt_unicode_to_iso8859_1, .-lv_txt_unicode_to_iso8859_1
 1433              		.section	.text.lv_txt_iso8859_1_conv_wc,"ax",%progbits
 1434              		.align	2
 1435              		.thumb
 1436              		.thumb_func
 1437              		.type	lv_txt_iso8859_1_conv_wc, %function
 1438              	lv_txt_iso8859_1_conv_wc:
 1439              	.LFB13:
 735:..\..\..\lvgl\version_6.1.2\lvgl\src\lv_misc/lv_txt.c **** 
 736:..\..\..\lvgl\version_6.1.2\lvgl\src\lv_misc/lv_txt.c **** /**
 737:..\..\..\lvgl\version_6.1.2\lvgl\src\lv_misc/lv_txt.c ****  * Convert wide characters to ASCII, however wide characters in ASCII range (e.g. 'A') are ASCII co
 738:..\..\..\lvgl\version_6.1.2\lvgl\src\lv_misc/lv_txt.c ****  * So this function does nothing just returns with `c`.
 739:..\..\..\lvgl\version_6.1.2\lvgl\src\lv_misc/lv_txt.c ****  * @param c a character, e.g. 'A'
 740:..\..\..\lvgl\version_6.1.2\lvgl\src\lv_misc/lv_txt.c ****  * @return same as `c`
 741:..\..\..\lvgl\version_6.1.2\lvgl\src\lv_misc/lv_txt.c ****  */
 742:..\..\..\lvgl\version_6.1.2\lvgl\src\lv_misc/lv_txt.c **** static uint32_t lv_txt_iso8859_1_conv_wc(uint32_t c)
 743:..\..\..\lvgl\version_6.1.2\lvgl\src\lv_misc/lv_txt.c **** {
 1440              		.loc 2 743 0
 1441              		.cfi_startproc
 1442              		@ args = 0, pretend = 0, frame = 8
 1443              		@ frame_needed = 1, uses_anonymous_args = 0
 1444              		@ link register save eliminated.
 1445 0000 80B4     		push	{r7}
 1446              		.cfi_def_cfa_offset 4
 1447              		.cfi_offset 7, -4
 1448 0002 83B0     		sub	sp, sp, #12
 1449              		.cfi_def_cfa_offset 16
 1450 0004 00AF     		add	r7, sp, #0
 1451              		.cfi_def_cfa_register 7
 1452 0006 7860     		str	r0, [r7, #4]
ARM GAS  C:\Users\tmj32\AppData\Local\Temp\ccPoPccU.s 			page 42


 744:..\..\..\lvgl\version_6.1.2\lvgl\src\lv_misc/lv_txt.c ****     return c;
 1453              		.loc 2 744 0
 1454 0008 7B68     		ldr	r3, [r7, #4]
 745:..\..\..\lvgl\version_6.1.2\lvgl\src\lv_misc/lv_txt.c **** }
 1455              		.loc 2 745 0
 1456 000a 1846     		mov	r0, r3
 1457 000c 0C37     		adds	r7, r7, #12
 1458              		.cfi_def_cfa_offset 4
 1459 000e BD46     		mov	sp, r7
 1460              		.cfi_def_cfa_register 13
 1461              		@ sp needed
 1462 0010 5DF8047B 		ldr	r7, [sp], #4
 1463              		.cfi_restore 7
 1464              		.cfi_def_cfa_offset 0
 1465 0014 7047     		bx	lr
 1466              		.cfi_endproc
 1467              	.LFE13:
 1468              		.size	lv_txt_iso8859_1_conv_wc, .-lv_txt_iso8859_1_conv_wc
 1469 0016 00BF     		.section	.text.lv_txt_iso8859_1_next,"ax",%progbits
 1470              		.align	2
 1471              		.thumb
 1472              		.thumb_func
 1473              		.type	lv_txt_iso8859_1_next, %function
 1474              	lv_txt_iso8859_1_next:
 1475              	.LFB14:
 746:..\..\..\lvgl\version_6.1.2\lvgl\src\lv_misc/lv_txt.c **** 
 747:..\..\..\lvgl\version_6.1.2\lvgl\src\lv_misc/lv_txt.c **** /**
 748:..\..\..\lvgl\version_6.1.2\lvgl\src\lv_misc/lv_txt.c ****  * Decode an ISO8859-1 character from a string.
 749:..\..\..\lvgl\version_6.1.2\lvgl\src\lv_misc/lv_txt.c ****  * @param txt pointer to '\0' terminated string
 750:..\..\..\lvgl\version_6.1.2\lvgl\src\lv_misc/lv_txt.c ****  * @param i start byte index in 'txt' where to start.
 751:..\..\..\lvgl\version_6.1.2\lvgl\src\lv_misc/lv_txt.c ****  *          After call it will point to the next UTF-8 char in 'txt'.
 752:..\..\..\lvgl\version_6.1.2\lvgl\src\lv_misc/lv_txt.c ****  *          NULL to use txt[0] as index
 753:..\..\..\lvgl\version_6.1.2\lvgl\src\lv_misc/lv_txt.c ****  * @return the decoded Unicode character or 0 on invalid UTF-8 code
 754:..\..\..\lvgl\version_6.1.2\lvgl\src\lv_misc/lv_txt.c ****  */
 755:..\..\..\lvgl\version_6.1.2\lvgl\src\lv_misc/lv_txt.c **** static uint32_t lv_txt_iso8859_1_next(const char * txt, uint32_t * i)
 756:..\..\..\lvgl\version_6.1.2\lvgl\src\lv_misc/lv_txt.c **** {
 1476              		.loc 2 756 0
 1477              		.cfi_startproc
 1478              		@ args = 0, pretend = 0, frame = 16
 1479              		@ frame_needed = 1, uses_anonymous_args = 0
 1480              		@ link register save eliminated.
 1481 0000 80B4     		push	{r7}
 1482              		.cfi_def_cfa_offset 4
 1483              		.cfi_offset 7, -4
 1484 0002 85B0     		sub	sp, sp, #20
 1485              		.cfi_def_cfa_offset 24
 1486 0004 00AF     		add	r7, sp, #0
 1487              		.cfi_def_cfa_register 7
 1488 0006 7860     		str	r0, [r7, #4]
 1489 0008 3960     		str	r1, [r7]
 757:..\..\..\lvgl\version_6.1.2\lvgl\src\lv_misc/lv_txt.c ****     if(i == NULL) return txt[1]; /*Get the next char */
 1490              		.loc 2 757 0
 1491 000a 3B68     		ldr	r3, [r7]
 1492 000c 002B     		cmp	r3, #0
 1493 000e 03D1     		bne	.L101
 1494              		.loc 2 757 0 is_stmt 0 discriminator 1
 1495 0010 7B68     		ldr	r3, [r7, #4]
ARM GAS  C:\Users\tmj32\AppData\Local\Temp\ccPoPccU.s 			page 43


 1496 0012 0133     		adds	r3, r3, #1
 1497 0014 1B78     		ldrb	r3, [r3]	@ zero_extendqisi2
 1498 0016 0BE0     		b	.L102
 1499              	.L101:
 758:..\..\..\lvgl\version_6.1.2\lvgl\src\lv_misc/lv_txt.c **** 
 759:..\..\..\lvgl\version_6.1.2\lvgl\src\lv_misc/lv_txt.c ****     uint8_t letter = txt[*i];
 1500              		.loc 2 759 0 is_stmt 1
 1501 0018 3B68     		ldr	r3, [r7]
 1502 001a 1B68     		ldr	r3, [r3]
 1503 001c 7A68     		ldr	r2, [r7, #4]
 1504 001e 1344     		add	r3, r3, r2
 1505 0020 1B78     		ldrb	r3, [r3]
 1506 0022 FB73     		strb	r3, [r7, #15]
 760:..\..\..\lvgl\version_6.1.2\lvgl\src\lv_misc/lv_txt.c ****     (*i)++;
 1507              		.loc 2 760 0
 1508 0024 3B68     		ldr	r3, [r7]
 1509 0026 1B68     		ldr	r3, [r3]
 1510 0028 5A1C     		adds	r2, r3, #1
 1511 002a 3B68     		ldr	r3, [r7]
 1512 002c 1A60     		str	r2, [r3]
 761:..\..\..\lvgl\version_6.1.2\lvgl\src\lv_misc/lv_txt.c ****     return letter;
 1513              		.loc 2 761 0
 1514 002e FB7B     		ldrb	r3, [r7, #15]	@ zero_extendqisi2
 1515              	.L102:
 762:..\..\..\lvgl\version_6.1.2\lvgl\src\lv_misc/lv_txt.c **** }
 1516              		.loc 2 762 0
 1517 0030 1846     		mov	r0, r3
 1518 0032 1437     		adds	r7, r7, #20
 1519              		.cfi_def_cfa_offset 4
 1520 0034 BD46     		mov	sp, r7
 1521              		.cfi_def_cfa_register 13
 1522              		@ sp needed
 1523 0036 5DF8047B 		ldr	r7, [sp], #4
 1524              		.cfi_restore 7
 1525              		.cfi_def_cfa_offset 0
 1526 003a 7047     		bx	lr
 1527              		.cfi_endproc
 1528              	.LFE14:
 1529              		.size	lv_txt_iso8859_1_next, .-lv_txt_iso8859_1_next
 1530              		.section	.text.lv_txt_iso8859_1_prev,"ax",%progbits
 1531              		.align	2
 1532              		.thumb
 1533              		.thumb_func
 1534              		.type	lv_txt_iso8859_1_prev, %function
 1535              	lv_txt_iso8859_1_prev:
 1536              	.LFB15:
 763:..\..\..\lvgl\version_6.1.2\lvgl\src\lv_misc/lv_txt.c **** 
 764:..\..\..\lvgl\version_6.1.2\lvgl\src\lv_misc/lv_txt.c **** /**
 765:..\..\..\lvgl\version_6.1.2\lvgl\src\lv_misc/lv_txt.c ****  * Get previous ISO8859-1 character form a string.
 766:..\..\..\lvgl\version_6.1.2\lvgl\src\lv_misc/lv_txt.c ****  * @param txt pointer to '\0' terminated string
 767:..\..\..\lvgl\version_6.1.2\lvgl\src\lv_misc/lv_txt.c ****  * @param i start byte index in 'txt' where to start. After the call it will point to the previous 
 768:..\..\..\lvgl\version_6.1.2\lvgl\src\lv_misc/lv_txt.c ****  * @return the decoded Unicode character or 0 on invalid UTF-8 code
 769:..\..\..\lvgl\version_6.1.2\lvgl\src\lv_misc/lv_txt.c ****  */
 770:..\..\..\lvgl\version_6.1.2\lvgl\src\lv_misc/lv_txt.c **** static uint32_t lv_txt_iso8859_1_prev(const char * txt, uint32_t * i)
 771:..\..\..\lvgl\version_6.1.2\lvgl\src\lv_misc/lv_txt.c **** {
 1537              		.loc 2 771 0
 1538              		.cfi_startproc
ARM GAS  C:\Users\tmj32\AppData\Local\Temp\ccPoPccU.s 			page 44


 1539              		@ args = 0, pretend = 0, frame = 16
 1540              		@ frame_needed = 1, uses_anonymous_args = 0
 1541              		@ link register save eliminated.
 1542 0000 80B4     		push	{r7}
 1543              		.cfi_def_cfa_offset 4
 1544              		.cfi_offset 7, -4
 1545 0002 85B0     		sub	sp, sp, #20
 1546              		.cfi_def_cfa_offset 24
 1547 0004 00AF     		add	r7, sp, #0
 1548              		.cfi_def_cfa_register 7
 1549 0006 7860     		str	r0, [r7, #4]
 1550 0008 3960     		str	r1, [r7]
 772:..\..\..\lvgl\version_6.1.2\lvgl\src\lv_misc/lv_txt.c ****     if(i == NULL) return *(txt - 1); /*Get the prev. char */
 1551              		.loc 2 772 0
 1552 000a 3B68     		ldr	r3, [r7]
 1553 000c 002B     		cmp	r3, #0
 1554 000e 03D1     		bne	.L104
 1555              		.loc 2 772 0 is_stmt 0 discriminator 1
 1556 0010 7B68     		ldr	r3, [r7, #4]
 1557 0012 013B     		subs	r3, r3, #1
 1558 0014 1B78     		ldrb	r3, [r3]	@ zero_extendqisi2
 1559 0016 0BE0     		b	.L105
 1560              	.L104:
 773:..\..\..\lvgl\version_6.1.2\lvgl\src\lv_misc/lv_txt.c **** 
 774:..\..\..\lvgl\version_6.1.2\lvgl\src\lv_misc/lv_txt.c ****     (*i)--;
 1561              		.loc 2 774 0 is_stmt 1
 1562 0018 3B68     		ldr	r3, [r7]
 1563 001a 1B68     		ldr	r3, [r3]
 1564 001c 5A1E     		subs	r2, r3, #1
 1565 001e 3B68     		ldr	r3, [r7]
 1566 0020 1A60     		str	r2, [r3]
 775:..\..\..\lvgl\version_6.1.2\lvgl\src\lv_misc/lv_txt.c ****     uint8_t letter = txt[*i];
 1567              		.loc 2 775 0
 1568 0022 3B68     		ldr	r3, [r7]
 1569 0024 1B68     		ldr	r3, [r3]
 1570 0026 7A68     		ldr	r2, [r7, #4]
 1571 0028 1344     		add	r3, r3, r2
 1572 002a 1B78     		ldrb	r3, [r3]
 1573 002c FB73     		strb	r3, [r7, #15]
 776:..\..\..\lvgl\version_6.1.2\lvgl\src\lv_misc/lv_txt.c **** 
 777:..\..\..\lvgl\version_6.1.2\lvgl\src\lv_misc/lv_txt.c ****     return letter;
 1574              		.loc 2 777 0
 1575 002e FB7B     		ldrb	r3, [r7, #15]	@ zero_extendqisi2
 1576              	.L105:
 778:..\..\..\lvgl\version_6.1.2\lvgl\src\lv_misc/lv_txt.c **** }
 1577              		.loc 2 778 0
 1578 0030 1846     		mov	r0, r3
 1579 0032 1437     		adds	r7, r7, #20
 1580              		.cfi_def_cfa_offset 4
 1581 0034 BD46     		mov	sp, r7
 1582              		.cfi_def_cfa_register 13
 1583              		@ sp needed
 1584 0036 5DF8047B 		ldr	r7, [sp], #4
 1585              		.cfi_restore 7
 1586              		.cfi_def_cfa_offset 0
 1587 003a 7047     		bx	lr
 1588              		.cfi_endproc
ARM GAS  C:\Users\tmj32\AppData\Local\Temp\ccPoPccU.s 			page 45


 1589              	.LFE15:
 1590              		.size	lv_txt_iso8859_1_prev, .-lv_txt_iso8859_1_prev
 1591              		.section	.text.lv_txt_iso8859_1_get_byte_id,"ax",%progbits
 1592              		.align	2
 1593              		.thumb
 1594              		.thumb_func
 1595              		.type	lv_txt_iso8859_1_get_byte_id, %function
 1596              	lv_txt_iso8859_1_get_byte_id:
 1597              	.LFB16:
 779:..\..\..\lvgl\version_6.1.2\lvgl\src\lv_misc/lv_txt.c **** 
 780:..\..\..\lvgl\version_6.1.2\lvgl\src\lv_misc/lv_txt.c **** /**
 781:..\..\..\lvgl\version_6.1.2\lvgl\src\lv_misc/lv_txt.c ****  * Convert a character index (in an ISO8859-1 text) to byte index.
 782:..\..\..\lvgl\version_6.1.2\lvgl\src\lv_misc/lv_txt.c ****  * E.g. in "ART" index of 'R' is 2th char but start at byte 3 because '' is 2 bytes long
 783:..\..\..\lvgl\version_6.1.2\lvgl\src\lv_misc/lv_txt.c ****  * @param txt a '\0' terminated UTF-8 string
 784:..\..\..\lvgl\version_6.1.2\lvgl\src\lv_misc/lv_txt.c ****  * @param utf8_id character index
 785:..\..\..\lvgl\version_6.1.2\lvgl\src\lv_misc/lv_txt.c ****  * @return byte index of the 'utf8_id'th letter
 786:..\..\..\lvgl\version_6.1.2\lvgl\src\lv_misc/lv_txt.c ****  */
 787:..\..\..\lvgl\version_6.1.2\lvgl\src\lv_misc/lv_txt.c **** static uint32_t lv_txt_iso8859_1_get_byte_id(const char * txt, uint32_t utf8_id)
 788:..\..\..\lvgl\version_6.1.2\lvgl\src\lv_misc/lv_txt.c **** {
 1598              		.loc 2 788 0
 1599              		.cfi_startproc
 1600              		@ args = 0, pretend = 0, frame = 8
 1601              		@ frame_needed = 1, uses_anonymous_args = 0
 1602              		@ link register save eliminated.
 1603 0000 80B4     		push	{r7}
 1604              		.cfi_def_cfa_offset 4
 1605              		.cfi_offset 7, -4
 1606 0002 83B0     		sub	sp, sp, #12
 1607              		.cfi_def_cfa_offset 16
 1608 0004 00AF     		add	r7, sp, #0
 1609              		.cfi_def_cfa_register 7
 1610 0006 7860     		str	r0, [r7, #4]
 1611 0008 3960     		str	r1, [r7]
 789:..\..\..\lvgl\version_6.1.2\lvgl\src\lv_misc/lv_txt.c ****     (void)txt;      /*Unused*/
 790:..\..\..\lvgl\version_6.1.2\lvgl\src\lv_misc/lv_txt.c ****     return utf8_id; /*In Non encoded no difference*/
 1612              		.loc 2 790 0
 1613 000a 3B68     		ldr	r3, [r7]
 791:..\..\..\lvgl\version_6.1.2\lvgl\src\lv_misc/lv_txt.c **** }
 1614              		.loc 2 791 0
 1615 000c 1846     		mov	r0, r3
 1616 000e 0C37     		adds	r7, r7, #12
 1617              		.cfi_def_cfa_offset 4
 1618 0010 BD46     		mov	sp, r7
 1619              		.cfi_def_cfa_register 13
 1620              		@ sp needed
 1621 0012 5DF8047B 		ldr	r7, [sp], #4
 1622              		.cfi_restore 7
 1623              		.cfi_def_cfa_offset 0
 1624 0016 7047     		bx	lr
 1625              		.cfi_endproc
 1626              	.LFE16:
 1627              		.size	lv_txt_iso8859_1_get_byte_id, .-lv_txt_iso8859_1_get_byte_id
 1628              		.section	.text.lv_txt_iso8859_1_get_char_id,"ax",%progbits
 1629              		.align	2
 1630              		.thumb
 1631              		.thumb_func
 1632              		.type	lv_txt_iso8859_1_get_char_id, %function
ARM GAS  C:\Users\tmj32\AppData\Local\Temp\ccPoPccU.s 			page 46


 1633              	lv_txt_iso8859_1_get_char_id:
 1634              	.LFB17:
 792:..\..\..\lvgl\version_6.1.2\lvgl\src\lv_misc/lv_txt.c **** 
 793:..\..\..\lvgl\version_6.1.2\lvgl\src\lv_misc/lv_txt.c **** /**
 794:..\..\..\lvgl\version_6.1.2\lvgl\src\lv_misc/lv_txt.c ****  * Convert a byte index (in an ISO8859-1 text) to character index.
 795:..\..\..\lvgl\version_6.1.2\lvgl\src\lv_misc/lv_txt.c ****  * E.g. in "ART" index of 'R' is 2th char but start at byte 3 because '' is 2 bytes long
 796:..\..\..\lvgl\version_6.1.2\lvgl\src\lv_misc/lv_txt.c ****  * @param txt a '\0' terminated UTF-8 string
 797:..\..\..\lvgl\version_6.1.2\lvgl\src\lv_misc/lv_txt.c ****  * @param byte_id byte index
 798:..\..\..\lvgl\version_6.1.2\lvgl\src\lv_misc/lv_txt.c ****  * @return character index of the letter at 'byte_id'th position
 799:..\..\..\lvgl\version_6.1.2\lvgl\src\lv_misc/lv_txt.c ****  */
 800:..\..\..\lvgl\version_6.1.2\lvgl\src\lv_misc/lv_txt.c **** static uint32_t lv_txt_iso8859_1_get_char_id(const char * txt, uint32_t byte_id)
 801:..\..\..\lvgl\version_6.1.2\lvgl\src\lv_misc/lv_txt.c **** {
 1635              		.loc 2 801 0
 1636              		.cfi_startproc
 1637              		@ args = 0, pretend = 0, frame = 8
 1638              		@ frame_needed = 1, uses_anonymous_args = 0
 1639              		@ link register save eliminated.
 1640 0000 80B4     		push	{r7}
 1641              		.cfi_def_cfa_offset 4
 1642              		.cfi_offset 7, -4
 1643 0002 83B0     		sub	sp, sp, #12
 1644              		.cfi_def_cfa_offset 16
 1645 0004 00AF     		add	r7, sp, #0
 1646              		.cfi_def_cfa_register 7
 1647 0006 7860     		str	r0, [r7, #4]
 1648 0008 3960     		str	r1, [r7]
 802:..\..\..\lvgl\version_6.1.2\lvgl\src\lv_misc/lv_txt.c ****     (void)txt;      /*Unused*/
 803:..\..\..\lvgl\version_6.1.2\lvgl\src\lv_misc/lv_txt.c ****     return byte_id; /*In Non encoded no difference*/
 1649              		.loc 2 803 0
 1650 000a 3B68     		ldr	r3, [r7]
 804:..\..\..\lvgl\version_6.1.2\lvgl\src\lv_misc/lv_txt.c **** }
 1651              		.loc 2 804 0
 1652 000c 1846     		mov	r0, r3
 1653 000e 0C37     		adds	r7, r7, #12
 1654              		.cfi_def_cfa_offset 4
 1655 0010 BD46     		mov	sp, r7
 1656              		.cfi_def_cfa_register 13
 1657              		@ sp needed
 1658 0012 5DF8047B 		ldr	r7, [sp], #4
 1659              		.cfi_restore 7
 1660              		.cfi_def_cfa_offset 0
 1661 0016 7047     		bx	lr
 1662              		.cfi_endproc
 1663              	.LFE17:
 1664              		.size	lv_txt_iso8859_1_get_char_id, .-lv_txt_iso8859_1_get_char_id
 1665              		.section	.text.lv_txt_iso8859_1_get_length,"ax",%progbits
 1666              		.align	2
 1667              		.thumb
 1668              		.thumb_func
 1669              		.type	lv_txt_iso8859_1_get_length, %function
 1670              	lv_txt_iso8859_1_get_length:
 1671              	.LFB18:
 805:..\..\..\lvgl\version_6.1.2\lvgl\src\lv_misc/lv_txt.c **** 
 806:..\..\..\lvgl\version_6.1.2\lvgl\src\lv_misc/lv_txt.c **** /**
 807:..\..\..\lvgl\version_6.1.2\lvgl\src\lv_misc/lv_txt.c ****  * Get the number of characters (and NOT bytes) in a string. Decode it with UTF-8 if enabled.
 808:..\..\..\lvgl\version_6.1.2\lvgl\src\lv_misc/lv_txt.c ****  * E.g.: "BC" is 3 characters (but 4 bytes)
 809:..\..\..\lvgl\version_6.1.2\lvgl\src\lv_misc/lv_txt.c ****  * @param txt a '\0' terminated char string
ARM GAS  C:\Users\tmj32\AppData\Local\Temp\ccPoPccU.s 			page 47


 810:..\..\..\lvgl\version_6.1.2\lvgl\src\lv_misc/lv_txt.c ****  * @return number of characters
 811:..\..\..\lvgl\version_6.1.2\lvgl\src\lv_misc/lv_txt.c ****  */
 812:..\..\..\lvgl\version_6.1.2\lvgl\src\lv_misc/lv_txt.c **** static uint32_t lv_txt_iso8859_1_get_length(const char * txt)
 813:..\..\..\lvgl\version_6.1.2\lvgl\src\lv_misc/lv_txt.c **** {
 1672              		.loc 2 813 0
 1673              		.cfi_startproc
 1674              		@ args = 0, pretend = 0, frame = 8
 1675              		@ frame_needed = 1, uses_anonymous_args = 0
 1676 0000 80B5     		push	{r7, lr}
 1677              		.cfi_def_cfa_offset 8
 1678              		.cfi_offset 7, -8
 1679              		.cfi_offset 14, -4
 1680 0002 82B0     		sub	sp, sp, #8
 1681              		.cfi_def_cfa_offset 16
 1682 0004 00AF     		add	r7, sp, #0
 1683              		.cfi_def_cfa_register 7
 1684 0006 7860     		str	r0, [r7, #4]
 814:..\..\..\lvgl\version_6.1.2\lvgl\src\lv_misc/lv_txt.c ****     return strlen(txt);
 1685              		.loc 2 814 0
 1686 0008 7868     		ldr	r0, [r7, #4]
 1687 000a FFF7FEFF 		bl	strlen
 1688 000e 0346     		mov	r3, r0
 815:..\..\..\lvgl\version_6.1.2\lvgl\src\lv_misc/lv_txt.c **** }
 1689              		.loc 2 815 0
 1690 0010 1846     		mov	r0, r3
 1691 0012 0837     		adds	r7, r7, #8
 1692              		.cfi_def_cfa_offset 8
 1693 0014 BD46     		mov	sp, r7
 1694              		.cfi_def_cfa_register 13
 1695              		@ sp needed
 1696 0016 80BD     		pop	{r7, pc}
 1697              		.cfi_endproc
 1698              	.LFE18:
 1699              		.size	lv_txt_iso8859_1_get_length, .-lv_txt_iso8859_1_get_length
 1700              		.section	.rodata
 1701              		.align	2
 1702              	.LC0:
 1703 0000 202C2E3B 		.ascii	" ,.;:-_\000"
 1703      3A2D5F00 
 1704              		.section	.text.is_break_char,"ax",%progbits
 1705              		.align	2
 1706              		.thumb
 1707              		.thumb_func
 1708              		.type	is_break_char, %function
 1709              	is_break_char:
 1710              	.LFB19:
 816:..\..\..\lvgl\version_6.1.2\lvgl\src\lv_misc/lv_txt.c **** #else
 817:..\..\..\lvgl\version_6.1.2\lvgl\src\lv_misc/lv_txt.c **** 
 818:..\..\..\lvgl\version_6.1.2\lvgl\src\lv_misc/lv_txt.c **** #error "Invalid character encoding. See `LV_TXT_ENC` in `lv_conf.h`"
 819:..\..\..\lvgl\version_6.1.2\lvgl\src\lv_misc/lv_txt.c **** 
 820:..\..\..\lvgl\version_6.1.2\lvgl\src\lv_misc/lv_txt.c **** #endif
 821:..\..\..\lvgl\version_6.1.2\lvgl\src\lv_misc/lv_txt.c **** 
 822:..\..\..\lvgl\version_6.1.2\lvgl\src\lv_misc/lv_txt.c **** /**********************
 823:..\..\..\lvgl\version_6.1.2\lvgl\src\lv_misc/lv_txt.c ****  *   STATIC FUNCTIONS
 824:..\..\..\lvgl\version_6.1.2\lvgl\src\lv_misc/lv_txt.c ****  **********************/
 825:..\..\..\lvgl\version_6.1.2\lvgl\src\lv_misc/lv_txt.c **** 
 826:..\..\..\lvgl\version_6.1.2\lvgl\src\lv_misc/lv_txt.c **** /**
ARM GAS  C:\Users\tmj32\AppData\Local\Temp\ccPoPccU.s 			page 48


 827:..\..\..\lvgl\version_6.1.2\lvgl\src\lv_misc/lv_txt.c ****  * Test if char is break char or not (a text can broken here or not)
 828:..\..\..\lvgl\version_6.1.2\lvgl\src\lv_misc/lv_txt.c ****  * @param letter a letter
 829:..\..\..\lvgl\version_6.1.2\lvgl\src\lv_misc/lv_txt.c ****  * @return false: 'letter' is not break char
 830:..\..\..\lvgl\version_6.1.2\lvgl\src\lv_misc/lv_txt.c ****  */
 831:..\..\..\lvgl\version_6.1.2\lvgl\src\lv_misc/lv_txt.c **** static inline bool is_break_char(uint32_t letter)
 832:..\..\..\lvgl\version_6.1.2\lvgl\src\lv_misc/lv_txt.c **** {
 1711              		.loc 2 832 0
 1712              		.cfi_startproc
 1713              		@ args = 0, pretend = 0, frame = 16
 1714              		@ frame_needed = 1, uses_anonymous_args = 0
 1715              		@ link register save eliminated.
 1716 0000 80B4     		push	{r7}
 1717              		.cfi_def_cfa_offset 4
 1718              		.cfi_offset 7, -4
 1719 0002 85B0     		sub	sp, sp, #20
 1720              		.cfi_def_cfa_offset 24
 1721 0004 00AF     		add	r7, sp, #0
 1722              		.cfi_def_cfa_register 7
 1723 0006 7860     		str	r0, [r7, #4]
 833:..\..\..\lvgl\version_6.1.2\lvgl\src\lv_misc/lv_txt.c ****     uint8_t i;
 834:..\..\..\lvgl\version_6.1.2\lvgl\src\lv_misc/lv_txt.c ****     bool ret = false;
 1724              		.loc 2 834 0
 1725 0008 0023     		movs	r3, #0
 1726 000a BB73     		strb	r3, [r7, #14]
 835:..\..\..\lvgl\version_6.1.2\lvgl\src\lv_misc/lv_txt.c **** 
 836:..\..\..\lvgl\version_6.1.2\lvgl\src\lv_misc/lv_txt.c ****     /*Compare the letter to TXT_BREAK_CHARS*/
 837:..\..\..\lvgl\version_6.1.2\lvgl\src\lv_misc/lv_txt.c ****     for(i = 0; LV_TXT_BREAK_CHARS[i] != '\0'; i++) {
 1727              		.loc 2 837 0
 1728 000c 0023     		movs	r3, #0
 1729 000e FB73     		strb	r3, [r7, #15]
 1730 0010 0CE0     		b	.L113
 1731              	.L116:
 838:..\..\..\lvgl\version_6.1.2\lvgl\src\lv_misc/lv_txt.c ****         if(letter == (uint32_t)LV_TXT_BREAK_CHARS[i]) {
 1732              		.loc 2 838 0
 1733 0012 FB7B     		ldrb	r3, [r7, #15]	@ zero_extendqisi2
 1734 0014 0B4A     		ldr	r2, .L118
 1735 0016 D35C     		ldrb	r3, [r2, r3]	@ zero_extendqisi2
 1736 0018 1A46     		mov	r2, r3
 1737 001a 7B68     		ldr	r3, [r7, #4]
 1738 001c 9A42     		cmp	r2, r3
 1739 001e 02D1     		bne	.L114
 839:..\..\..\lvgl\version_6.1.2\lvgl\src\lv_misc/lv_txt.c ****             ret = true; /*If match then it is break char*/
 1740              		.loc 2 839 0
 1741 0020 0123     		movs	r3, #1
 1742 0022 BB73     		strb	r3, [r7, #14]
 840:..\..\..\lvgl\version_6.1.2\lvgl\src\lv_misc/lv_txt.c ****             break;
 1743              		.loc 2 840 0
 1744 0024 07E0     		b	.L115
 1745              	.L114:
 837:..\..\..\lvgl\version_6.1.2\lvgl\src\lv_misc/lv_txt.c ****         if(letter == (uint32_t)LV_TXT_BREAK_CHARS[i]) {
 1746              		.loc 2 837 0 discriminator 2
 1747 0026 FB7B     		ldrb	r3, [r7, #15]	@ zero_extendqisi2
 1748 0028 0133     		adds	r3, r3, #1
 1749 002a FB73     		strb	r3, [r7, #15]
 1750              	.L113:
 837:..\..\..\lvgl\version_6.1.2\lvgl\src\lv_misc/lv_txt.c ****         if(letter == (uint32_t)LV_TXT_BREAK_CHARS[i]) {
 1751              		.loc 2 837 0 is_stmt 0 discriminator 1
ARM GAS  C:\Users\tmj32\AppData\Local\Temp\ccPoPccU.s 			page 49


 1752 002c FB7B     		ldrb	r3, [r7, #15]	@ zero_extendqisi2
 1753 002e 054A     		ldr	r2, .L118
 1754 0030 D35C     		ldrb	r3, [r2, r3]	@ zero_extendqisi2
 1755 0032 002B     		cmp	r3, #0
 1756 0034 EDD1     		bne	.L116
 1757              	.L115:
 841:..\..\..\lvgl\version_6.1.2\lvgl\src\lv_misc/lv_txt.c ****         }
 842:..\..\..\lvgl\version_6.1.2\lvgl\src\lv_misc/lv_txt.c ****     }
 843:..\..\..\lvgl\version_6.1.2\lvgl\src\lv_misc/lv_txt.c **** 
 844:..\..\..\lvgl\version_6.1.2\lvgl\src\lv_misc/lv_txt.c ****     return ret;
 1758              		.loc 2 844 0 is_stmt 1
 1759 0036 BB7B     		ldrb	r3, [r7, #14]	@ zero_extendqisi2
 845:..\..\..\lvgl\version_6.1.2\lvgl\src\lv_misc/lv_txt.c **** }
 1760              		.loc 2 845 0
 1761 0038 1846     		mov	r0, r3
 1762 003a 1437     		adds	r7, r7, #20
 1763              		.cfi_def_cfa_offset 4
 1764 003c BD46     		mov	sp, r7
 1765              		.cfi_def_cfa_register 13
 1766              		@ sp needed
 1767 003e 5DF8047B 		ldr	r7, [sp], #4
 1768              		.cfi_restore 7
 1769              		.cfi_def_cfa_offset 0
 1770 0042 7047     		bx	lr
 1771              	.L119:
 1772              		.align	2
 1773              	.L118:
 1774 0044 00000000 		.word	.LC0
 1775              		.cfi_endproc
 1776              	.LFE19:
 1777              		.size	is_break_char, .-is_break_char
 1778              		.text
 1779              	.Letext0:
 1780              		.file 3 "c:\\program files (x86)\\cypress\\psoc creator\\4.3\\psoc creator\\import\\gnu\\arm\\5.4.
 1781              		.file 4 "c:\\program files (x86)\\cypress\\psoc creator\\4.3\\psoc creator\\import\\gnu\\arm\\5.4.
 1782              		.file 5 "..\\..\\..\\lvgl\\version_6.1.2\\lvgl\\src\\lv_misc\\../../../lv_conf.h"
 1783              		.file 6 "c:\\program files (x86)\\cypress\\psoc creator\\4.3\\psoc creator\\import\\gnu\\arm\\5.4.
 1784              		.file 7 "..\\..\\..\\lvgl\\version_6.1.2\\lvgl\\src\\lv_misc\\lv_area.h"
 1785              		.file 8 "..\\..\\..\\lvgl\\version_6.1.2\\lvgl\\src\\lv_misc\\lv_txt.h"