ARM GAS  C:\Users\tmj32\AppData\Local\Temp\cctNeIsL.s 			page 1


   1              		.syntax unified
   2              		.cpu cortex-m4
   3              		.eabi_attribute 27, 1
   4              		.fpu fpv4-sp-d16
   5              		.eabi_attribute 20, 1
   6              		.eabi_attribute 21, 1
   7              		.eabi_attribute 23, 3
   8              		.eabi_attribute 24, 1
   9              		.eabi_attribute 25, 1
  10              		.eabi_attribute 26, 1
  11              		.eabi_attribute 30, 6
  12              		.eabi_attribute 34, 1
  13              		.eabi_attribute 18, 4
  14              		.thumb
  15              		.syntax unified
  16              		.file	"lv_tileview.c"
  17              		.text
  18              	.Ltext0:
  19              		.cfi_sections	.debug_frame
  20              		.section	.text.lv_cont_set_fit,"ax",%progbits
  21              		.align	2
  22              		.thumb
  23              		.thumb_func
  24              		.type	lv_cont_set_fit, %function
  25              	lv_cont_set_fit:
  26              	.LFB32:
  27              		.file 1 "..\\..\\..\\lvgl\\version_6.1.2\\lvgl\\src\\lv_objx\\../lv_objx/lv_cont.h"
   1:..\..\..\lvgl\version_6.1.2\lvgl\src\lv_objx\../lv_objx/lv_cont.h **** /**
   2:..\..\..\lvgl\version_6.1.2\lvgl\src\lv_objx\../lv_objx/lv_cont.h ****  * @file lv_cont.h
   3:..\..\..\lvgl\version_6.1.2\lvgl\src\lv_objx\../lv_objx/lv_cont.h ****  *
   4:..\..\..\lvgl\version_6.1.2\lvgl\src\lv_objx\../lv_objx/lv_cont.h ****  */
   5:..\..\..\lvgl\version_6.1.2\lvgl\src\lv_objx\../lv_objx/lv_cont.h **** 
   6:..\..\..\lvgl\version_6.1.2\lvgl\src\lv_objx\../lv_objx/lv_cont.h **** #ifndef LV_CONT_H
   7:..\..\..\lvgl\version_6.1.2\lvgl\src\lv_objx\../lv_objx/lv_cont.h **** #define LV_CONT_H
   8:..\..\..\lvgl\version_6.1.2\lvgl\src\lv_objx\../lv_objx/lv_cont.h **** 
   9:..\..\..\lvgl\version_6.1.2\lvgl\src\lv_objx\../lv_objx/lv_cont.h **** #ifdef __cplusplus
  10:..\..\..\lvgl\version_6.1.2\lvgl\src\lv_objx\../lv_objx/lv_cont.h **** extern "C" {
  11:..\..\..\lvgl\version_6.1.2\lvgl\src\lv_objx\../lv_objx/lv_cont.h **** #endif
  12:..\..\..\lvgl\version_6.1.2\lvgl\src\lv_objx\../lv_objx/lv_cont.h **** 
  13:..\..\..\lvgl\version_6.1.2\lvgl\src\lv_objx\../lv_objx/lv_cont.h **** /*********************
  14:..\..\..\lvgl\version_6.1.2\lvgl\src\lv_objx\../lv_objx/lv_cont.h ****  *      INCLUDES
  15:..\..\..\lvgl\version_6.1.2\lvgl\src\lv_objx\../lv_objx/lv_cont.h ****  *********************/
  16:..\..\..\lvgl\version_6.1.2\lvgl\src\lv_objx\../lv_objx/lv_cont.h **** #ifdef LV_CONF_INCLUDE_SIMPLE
  17:..\..\..\lvgl\version_6.1.2\lvgl\src\lv_objx\../lv_objx/lv_cont.h **** #include "lv_conf.h"
  18:..\..\..\lvgl\version_6.1.2\lvgl\src\lv_objx\../lv_objx/lv_cont.h **** #else
  19:..\..\..\lvgl\version_6.1.2\lvgl\src\lv_objx\../lv_objx/lv_cont.h **** #include "../../../lv_conf.h"
  20:..\..\..\lvgl\version_6.1.2\lvgl\src\lv_objx\../lv_objx/lv_cont.h **** #endif
  21:..\..\..\lvgl\version_6.1.2\lvgl\src\lv_objx\../lv_objx/lv_cont.h **** 
  22:..\..\..\lvgl\version_6.1.2\lvgl\src\lv_objx\../lv_objx/lv_cont.h **** #if LV_USE_CONT != 0
  23:..\..\..\lvgl\version_6.1.2\lvgl\src\lv_objx\../lv_objx/lv_cont.h **** 
  24:..\..\..\lvgl\version_6.1.2\lvgl\src\lv_objx\../lv_objx/lv_cont.h **** #include "../lv_core/lv_obj.h"
  25:..\..\..\lvgl\version_6.1.2\lvgl\src\lv_objx\../lv_objx/lv_cont.h **** 
  26:..\..\..\lvgl\version_6.1.2\lvgl\src\lv_objx\../lv_objx/lv_cont.h **** /*********************
  27:..\..\..\lvgl\version_6.1.2\lvgl\src\lv_objx\../lv_objx/lv_cont.h ****  *      DEFINES
  28:..\..\..\lvgl\version_6.1.2\lvgl\src\lv_objx\../lv_objx/lv_cont.h ****  *********************/
  29:..\..\..\lvgl\version_6.1.2\lvgl\src\lv_objx\../lv_objx/lv_cont.h **** 
  30:..\..\..\lvgl\version_6.1.2\lvgl\src\lv_objx\../lv_objx/lv_cont.h **** /**********************
ARM GAS  C:\Users\tmj32\AppData\Local\Temp\cctNeIsL.s 			page 2


  31:..\..\..\lvgl\version_6.1.2\lvgl\src\lv_objx\../lv_objx/lv_cont.h ****  *      TYPEDEFS
  32:..\..\..\lvgl\version_6.1.2\lvgl\src\lv_objx\../lv_objx/lv_cont.h ****  **********************/
  33:..\..\..\lvgl\version_6.1.2\lvgl\src\lv_objx\../lv_objx/lv_cont.h **** 
  34:..\..\..\lvgl\version_6.1.2\lvgl\src\lv_objx\../lv_objx/lv_cont.h **** /** Container layout options*/
  35:..\..\..\lvgl\version_6.1.2\lvgl\src\lv_objx\../lv_objx/lv_cont.h **** enum {
  36:..\..\..\lvgl\version_6.1.2\lvgl\src\lv_objx\../lv_objx/lv_cont.h ****     LV_LAYOUT_OFF = 0, /**< No layout */
  37:..\..\..\lvgl\version_6.1.2\lvgl\src\lv_objx\../lv_objx/lv_cont.h ****     LV_LAYOUT_CENTER, /**< Center objects */
  38:..\..\..\lvgl\version_6.1.2\lvgl\src\lv_objx\../lv_objx/lv_cont.h ****     LV_LAYOUT_COL_L,  /**< Column left align*/
  39:..\..\..\lvgl\version_6.1.2\lvgl\src\lv_objx\../lv_objx/lv_cont.h ****     LV_LAYOUT_COL_M,  /**< Column middle align*/
  40:..\..\..\lvgl\version_6.1.2\lvgl\src\lv_objx\../lv_objx/lv_cont.h ****     LV_LAYOUT_COL_R,  /**< Column right align*/
  41:..\..\..\lvgl\version_6.1.2\lvgl\src\lv_objx\../lv_objx/lv_cont.h ****     LV_LAYOUT_ROW_T,  /**< Row top align*/
  42:..\..\..\lvgl\version_6.1.2\lvgl\src\lv_objx\../lv_objx/lv_cont.h ****     LV_LAYOUT_ROW_M,  /**< Row middle align*/
  43:..\..\..\lvgl\version_6.1.2\lvgl\src\lv_objx\../lv_objx/lv_cont.h ****     LV_LAYOUT_ROW_B,  /**< Row bottom align*/
  44:..\..\..\lvgl\version_6.1.2\lvgl\src\lv_objx\../lv_objx/lv_cont.h ****     LV_LAYOUT_PRETTY, /**< Put as many object as possible in row and begin a new row*/
  45:..\..\..\lvgl\version_6.1.2\lvgl\src\lv_objx\../lv_objx/lv_cont.h ****     LV_LAYOUT_GRID,   /**< Align same-sized object into a grid*/
  46:..\..\..\lvgl\version_6.1.2\lvgl\src\lv_objx\../lv_objx/lv_cont.h ****     _LV_LAYOUT_NUM
  47:..\..\..\lvgl\version_6.1.2\lvgl\src\lv_objx\../lv_objx/lv_cont.h **** };
  48:..\..\..\lvgl\version_6.1.2\lvgl\src\lv_objx\../lv_objx/lv_cont.h **** typedef uint8_t lv_layout_t;
  49:..\..\..\lvgl\version_6.1.2\lvgl\src\lv_objx\../lv_objx/lv_cont.h **** 
  50:..\..\..\lvgl\version_6.1.2\lvgl\src\lv_objx\../lv_objx/lv_cont.h **** /**
  51:..\..\..\lvgl\version_6.1.2\lvgl\src\lv_objx\../lv_objx/lv_cont.h ****  * How to resize the container around the children.
  52:..\..\..\lvgl\version_6.1.2\lvgl\src\lv_objx\../lv_objx/lv_cont.h ****  */
  53:..\..\..\lvgl\version_6.1.2\lvgl\src\lv_objx\../lv_objx/lv_cont.h **** enum {
  54:..\..\..\lvgl\version_6.1.2\lvgl\src\lv_objx\../lv_objx/lv_cont.h ****     LV_FIT_NONE,  /**< Do not change the size automatically*/
  55:..\..\..\lvgl\version_6.1.2\lvgl\src\lv_objx\../lv_objx/lv_cont.h ****     LV_FIT_TIGHT, /**< Shrink wrap around the children */
  56:..\..\..\lvgl\version_6.1.2\lvgl\src\lv_objx\../lv_objx/lv_cont.h ****     LV_FIT_FLOOD, /**< Align the size to the parent's edge*/
  57:..\..\..\lvgl\version_6.1.2\lvgl\src\lv_objx\../lv_objx/lv_cont.h ****     LV_FIT_FILL,  /**< Align the size to the parent's edge first but if there is an object out of i
  58:..\..\..\lvgl\version_6.1.2\lvgl\src\lv_objx\../lv_objx/lv_cont.h ****                      then get larger */
  59:..\..\..\lvgl\version_6.1.2\lvgl\src\lv_objx\../lv_objx/lv_cont.h ****     _LV_FIT_NUM
  60:..\..\..\lvgl\version_6.1.2\lvgl\src\lv_objx\../lv_objx/lv_cont.h **** };
  61:..\..\..\lvgl\version_6.1.2\lvgl\src\lv_objx\../lv_objx/lv_cont.h **** typedef uint8_t lv_fit_t;
  62:..\..\..\lvgl\version_6.1.2\lvgl\src\lv_objx\../lv_objx/lv_cont.h **** 
  63:..\..\..\lvgl\version_6.1.2\lvgl\src\lv_objx\../lv_objx/lv_cont.h **** typedef struct
  64:..\..\..\lvgl\version_6.1.2\lvgl\src\lv_objx\../lv_objx/lv_cont.h **** {
  65:..\..\..\lvgl\version_6.1.2\lvgl\src\lv_objx\../lv_objx/lv_cont.h ****     /*Inherited from 'base_obj' so no inherited ext. */ /*Ext. of ancestor*/
  66:..\..\..\lvgl\version_6.1.2\lvgl\src\lv_objx\../lv_objx/lv_cont.h ****     /*New data for this type */
  67:..\..\..\lvgl\version_6.1.2\lvgl\src\lv_objx\../lv_objx/lv_cont.h ****     uint8_t layout : 4;     /*A layout from 'lv_layout_t' enum*/
  68:..\..\..\lvgl\version_6.1.2\lvgl\src\lv_objx\../lv_objx/lv_cont.h ****     uint8_t fit_left : 2;   /*A fit type from `lv_fit_t` enum */
  69:..\..\..\lvgl\version_6.1.2\lvgl\src\lv_objx\../lv_objx/lv_cont.h ****     uint8_t fit_right : 2;  /*A fit type from `lv_fit_t` enum */
  70:..\..\..\lvgl\version_6.1.2\lvgl\src\lv_objx\../lv_objx/lv_cont.h ****     uint8_t fit_top : 2;    /*A fit type from `lv_fit_t` enum */
  71:..\..\..\lvgl\version_6.1.2\lvgl\src\lv_objx\../lv_objx/lv_cont.h ****     uint8_t fit_bottom : 2; /*A fit type from `lv_fit_t` enum */
  72:..\..\..\lvgl\version_6.1.2\lvgl\src\lv_objx\../lv_objx/lv_cont.h **** } lv_cont_ext_t;
  73:..\..\..\lvgl\version_6.1.2\lvgl\src\lv_objx\../lv_objx/lv_cont.h **** 
  74:..\..\..\lvgl\version_6.1.2\lvgl\src\lv_objx\../lv_objx/lv_cont.h **** /*Styles*/
  75:..\..\..\lvgl\version_6.1.2\lvgl\src\lv_objx\../lv_objx/lv_cont.h **** enum {
  76:..\..\..\lvgl\version_6.1.2\lvgl\src\lv_objx\../lv_objx/lv_cont.h ****     LV_CONT_STYLE_MAIN,
  77:..\..\..\lvgl\version_6.1.2\lvgl\src\lv_objx\../lv_objx/lv_cont.h **** };
  78:..\..\..\lvgl\version_6.1.2\lvgl\src\lv_objx\../lv_objx/lv_cont.h **** typedef uint8_t lv_cont_style_t;
  79:..\..\..\lvgl\version_6.1.2\lvgl\src\lv_objx\../lv_objx/lv_cont.h **** 
  80:..\..\..\lvgl\version_6.1.2\lvgl\src\lv_objx\../lv_objx/lv_cont.h **** /**********************
  81:..\..\..\lvgl\version_6.1.2\lvgl\src\lv_objx\../lv_objx/lv_cont.h ****  * GLOBAL PROTOTYPES
  82:..\..\..\lvgl\version_6.1.2\lvgl\src\lv_objx\../lv_objx/lv_cont.h ****  **********************/
  83:..\..\..\lvgl\version_6.1.2\lvgl\src\lv_objx\../lv_objx/lv_cont.h **** 
  84:..\..\..\lvgl\version_6.1.2\lvgl\src\lv_objx\../lv_objx/lv_cont.h **** /**
  85:..\..\..\lvgl\version_6.1.2\lvgl\src\lv_objx\../lv_objx/lv_cont.h ****  * Create a container objects
  86:..\..\..\lvgl\version_6.1.2\lvgl\src\lv_objx\../lv_objx/lv_cont.h ****  * @param par pointer to an object, it will be the parent of the new container
  87:..\..\..\lvgl\version_6.1.2\lvgl\src\lv_objx\../lv_objx/lv_cont.h ****  * @param copy pointer to a container object, if not NULL then the new object will be copied from i
ARM GAS  C:\Users\tmj32\AppData\Local\Temp\cctNeIsL.s 			page 3


  88:..\..\..\lvgl\version_6.1.2\lvgl\src\lv_objx\../lv_objx/lv_cont.h ****  * @return pointer to the created container
  89:..\..\..\lvgl\version_6.1.2\lvgl\src\lv_objx\../lv_objx/lv_cont.h ****  */
  90:..\..\..\lvgl\version_6.1.2\lvgl\src\lv_objx\../lv_objx/lv_cont.h **** lv_obj_t * lv_cont_create(lv_obj_t * par, const lv_obj_t * copy);
  91:..\..\..\lvgl\version_6.1.2\lvgl\src\lv_objx\../lv_objx/lv_cont.h **** 
  92:..\..\..\lvgl\version_6.1.2\lvgl\src\lv_objx\../lv_objx/lv_cont.h **** /*=====================
  93:..\..\..\lvgl\version_6.1.2\lvgl\src\lv_objx\../lv_objx/lv_cont.h ****  * Setter functions
  94:..\..\..\lvgl\version_6.1.2\lvgl\src\lv_objx\../lv_objx/lv_cont.h ****  *====================*/
  95:..\..\..\lvgl\version_6.1.2\lvgl\src\lv_objx\../lv_objx/lv_cont.h **** 
  96:..\..\..\lvgl\version_6.1.2\lvgl\src\lv_objx\../lv_objx/lv_cont.h **** /**
  97:..\..\..\lvgl\version_6.1.2\lvgl\src\lv_objx\../lv_objx/lv_cont.h ****  * Set a layout on a container
  98:..\..\..\lvgl\version_6.1.2\lvgl\src\lv_objx\../lv_objx/lv_cont.h ****  * @param cont pointer to a container object
  99:..\..\..\lvgl\version_6.1.2\lvgl\src\lv_objx\../lv_objx/lv_cont.h ****  * @param layout a layout from 'lv_cont_layout_t'
 100:..\..\..\lvgl\version_6.1.2\lvgl\src\lv_objx\../lv_objx/lv_cont.h ****  */
 101:..\..\..\lvgl\version_6.1.2\lvgl\src\lv_objx\../lv_objx/lv_cont.h **** void lv_cont_set_layout(lv_obj_t * cont, lv_layout_t layout);
 102:..\..\..\lvgl\version_6.1.2\lvgl\src\lv_objx\../lv_objx/lv_cont.h **** 
 103:..\..\..\lvgl\version_6.1.2\lvgl\src\lv_objx\../lv_objx/lv_cont.h **** /**
 104:..\..\..\lvgl\version_6.1.2\lvgl\src\lv_objx\../lv_objx/lv_cont.h ****  * Set the fit policy in all 4 directions separately.
 105:..\..\..\lvgl\version_6.1.2\lvgl\src\lv_objx\../lv_objx/lv_cont.h ****  * It tell how to change the container's size automatically.
 106:..\..\..\lvgl\version_6.1.2\lvgl\src\lv_objx\../lv_objx/lv_cont.h ****  * @param cont pointer to a container object
 107:..\..\..\lvgl\version_6.1.2\lvgl\src\lv_objx\../lv_objx/lv_cont.h ****  * @param left left fit policy from `lv_fit_t`
 108:..\..\..\lvgl\version_6.1.2\lvgl\src\lv_objx\../lv_objx/lv_cont.h ****  * @param right right fit policy from `lv_fit_t`
 109:..\..\..\lvgl\version_6.1.2\lvgl\src\lv_objx\../lv_objx/lv_cont.h ****  * @param top top fit policy from `lv_fit_t`
 110:..\..\..\lvgl\version_6.1.2\lvgl\src\lv_objx\../lv_objx/lv_cont.h ****  * @param bottom bottom fit policy from `lv_fit_t`
 111:..\..\..\lvgl\version_6.1.2\lvgl\src\lv_objx\../lv_objx/lv_cont.h ****  */
 112:..\..\..\lvgl\version_6.1.2\lvgl\src\lv_objx\../lv_objx/lv_cont.h **** void lv_cont_set_fit4(lv_obj_t * cont, lv_fit_t left, lv_fit_t right, lv_fit_t top, lv_fit_t bottom
 113:..\..\..\lvgl\version_6.1.2\lvgl\src\lv_objx\../lv_objx/lv_cont.h **** 
 114:..\..\..\lvgl\version_6.1.2\lvgl\src\lv_objx\../lv_objx/lv_cont.h **** /**
 115:..\..\..\lvgl\version_6.1.2\lvgl\src\lv_objx\../lv_objx/lv_cont.h ****  * Set the fit policy horizontally and vertically separately.
 116:..\..\..\lvgl\version_6.1.2\lvgl\src\lv_objx\../lv_objx/lv_cont.h ****  * It tells how to change the container's size automatically.
 117:..\..\..\lvgl\version_6.1.2\lvgl\src\lv_objx\../lv_objx/lv_cont.h ****  * @param cont pointer to a container object
 118:..\..\..\lvgl\version_6.1.2\lvgl\src\lv_objx\../lv_objx/lv_cont.h ****  * @param hor horizontal fit policy from `lv_fit_t`
 119:..\..\..\lvgl\version_6.1.2\lvgl\src\lv_objx\../lv_objx/lv_cont.h ****  * @param ver vertical fit policy from `lv_fit_t`
 120:..\..\..\lvgl\version_6.1.2\lvgl\src\lv_objx\../lv_objx/lv_cont.h ****  */
 121:..\..\..\lvgl\version_6.1.2\lvgl\src\lv_objx\../lv_objx/lv_cont.h **** static inline void lv_cont_set_fit2(lv_obj_t * cont, lv_fit_t hor, lv_fit_t ver)
 122:..\..\..\lvgl\version_6.1.2\lvgl\src\lv_objx\../lv_objx/lv_cont.h **** {
 123:..\..\..\lvgl\version_6.1.2\lvgl\src\lv_objx\../lv_objx/lv_cont.h ****     lv_cont_set_fit4(cont, hor, hor, ver, ver);
 124:..\..\..\lvgl\version_6.1.2\lvgl\src\lv_objx\../lv_objx/lv_cont.h **** }
 125:..\..\..\lvgl\version_6.1.2\lvgl\src\lv_objx\../lv_objx/lv_cont.h **** 
 126:..\..\..\lvgl\version_6.1.2\lvgl\src\lv_objx\../lv_objx/lv_cont.h **** /**
 127:..\..\..\lvgl\version_6.1.2\lvgl\src\lv_objx\../lv_objx/lv_cont.h ****  * Set the fit policy in all 4 direction at once.
 128:..\..\..\lvgl\version_6.1.2\lvgl\src\lv_objx\../lv_objx/lv_cont.h ****  * It tells how to change the container's size automatically.
 129:..\..\..\lvgl\version_6.1.2\lvgl\src\lv_objx\../lv_objx/lv_cont.h ****  * @param cont pointer to a container object
 130:..\..\..\lvgl\version_6.1.2\lvgl\src\lv_objx\../lv_objx/lv_cont.h ****  * @param fit fit policy from `lv_fit_t`
 131:..\..\..\lvgl\version_6.1.2\lvgl\src\lv_objx\../lv_objx/lv_cont.h ****  */
 132:..\..\..\lvgl\version_6.1.2\lvgl\src\lv_objx\../lv_objx/lv_cont.h **** static inline void lv_cont_set_fit(lv_obj_t * cont, lv_fit_t fit)
 133:..\..\..\lvgl\version_6.1.2\lvgl\src\lv_objx\../lv_objx/lv_cont.h **** {
  28              		.loc 1 133 0
  29              		.cfi_startproc
  30              		@ args = 0, pretend = 0, frame = 8
  31              		@ frame_needed = 1, uses_anonymous_args = 0
  32 0000 80B5     		push	{r7, lr}
  33              		.cfi_def_cfa_offset 8
  34              		.cfi_offset 7, -8
  35              		.cfi_offset 14, -4
  36 0002 84B0     		sub	sp, sp, #16
  37              		.cfi_def_cfa_offset 24
  38 0004 02AF     		add	r7, sp, #8
ARM GAS  C:\Users\tmj32\AppData\Local\Temp\cctNeIsL.s 			page 4


  39              		.cfi_def_cfa 7, 16
  40 0006 7860     		str	r0, [r7, #4]
  41 0008 0B46     		mov	r3, r1
  42 000a FB70     		strb	r3, [r7, #3]
 134:..\..\..\lvgl\version_6.1.2\lvgl\src\lv_objx\../lv_objx/lv_cont.h ****     lv_cont_set_fit4(cont, fit, fit, fit, fit);
  43              		.loc 1 134 0
  44 000c F878     		ldrb	r0, [r7, #3]	@ zero_extendqisi2
  45 000e FA78     		ldrb	r2, [r7, #3]	@ zero_extendqisi2
  46 0010 F978     		ldrb	r1, [r7, #3]	@ zero_extendqisi2
  47 0012 FB78     		ldrb	r3, [r7, #3]	@ zero_extendqisi2
  48 0014 0093     		str	r3, [sp]
  49 0016 0346     		mov	r3, r0
  50 0018 7868     		ldr	r0, [r7, #4]
  51 001a FFF7FEFF 		bl	lv_cont_set_fit4
 135:..\..\..\lvgl\version_6.1.2\lvgl\src\lv_objx\../lv_objx/lv_cont.h **** }
  52              		.loc 1 135 0
  53 001e 00BF     		nop
  54 0020 0837     		adds	r7, r7, #8
  55              		.cfi_def_cfa_offset 8
  56 0022 BD46     		mov	sp, r7
  57              		.cfi_def_cfa_register 13
  58              		@ sp needed
  59 0024 80BD     		pop	{r7, pc}
  60              		.cfi_endproc
  61              	.LFE32:
  62              		.size	lv_cont_set_fit, .-lv_cont_set_fit
  63 0026 00BF     		.section	.text.lv_page_set_scrl_fit,"ax",%progbits
  64              		.align	2
  65              		.thumb
  66              		.thumb_func
  67              		.type	lv_page_set_scrl_fit, %function
  68              	lv_page_set_scrl_fit:
  69              	.LFB37:
  70              		.file 2 "..\\..\\..\\lvgl\\version_6.1.2\\lvgl\\src\\lv_objx\\../lv_objx/lv_page.h"
   1:..\..\..\lvgl\version_6.1.2\lvgl\src\lv_objx\../lv_objx/lv_page.h **** /**
   2:..\..\..\lvgl\version_6.1.2\lvgl\src\lv_objx\../lv_objx/lv_page.h ****  * @file lv_page.h
   3:..\..\..\lvgl\version_6.1.2\lvgl\src\lv_objx\../lv_objx/lv_page.h ****  *
   4:..\..\..\lvgl\version_6.1.2\lvgl\src\lv_objx\../lv_objx/lv_page.h ****  */
   5:..\..\..\lvgl\version_6.1.2\lvgl\src\lv_objx\../lv_objx/lv_page.h **** 
   6:..\..\..\lvgl\version_6.1.2\lvgl\src\lv_objx\../lv_objx/lv_page.h **** #ifndef LV_PAGE_H
   7:..\..\..\lvgl\version_6.1.2\lvgl\src\lv_objx\../lv_objx/lv_page.h **** #define LV_PAGE_H
   8:..\..\..\lvgl\version_6.1.2\lvgl\src\lv_objx\../lv_objx/lv_page.h **** 
   9:..\..\..\lvgl\version_6.1.2\lvgl\src\lv_objx\../lv_objx/lv_page.h **** #ifdef __cplusplus
  10:..\..\..\lvgl\version_6.1.2\lvgl\src\lv_objx\../lv_objx/lv_page.h **** extern "C" {
  11:..\..\..\lvgl\version_6.1.2\lvgl\src\lv_objx\../lv_objx/lv_page.h **** #endif
  12:..\..\..\lvgl\version_6.1.2\lvgl\src\lv_objx\../lv_objx/lv_page.h **** 
  13:..\..\..\lvgl\version_6.1.2\lvgl\src\lv_objx\../lv_objx/lv_page.h **** /*********************
  14:..\..\..\lvgl\version_6.1.2\lvgl\src\lv_objx\../lv_objx/lv_page.h ****  *      INCLUDES
  15:..\..\..\lvgl\version_6.1.2\lvgl\src\lv_objx\../lv_objx/lv_page.h ****  *********************/
  16:..\..\..\lvgl\version_6.1.2\lvgl\src\lv_objx\../lv_objx/lv_page.h **** #ifdef LV_CONF_INCLUDE_SIMPLE
  17:..\..\..\lvgl\version_6.1.2\lvgl\src\lv_objx\../lv_objx/lv_page.h **** #include "lv_conf.h"
  18:..\..\..\lvgl\version_6.1.2\lvgl\src\lv_objx\../lv_objx/lv_page.h **** #else
  19:..\..\..\lvgl\version_6.1.2\lvgl\src\lv_objx\../lv_objx/lv_page.h **** #include "../../../lv_conf.h"
  20:..\..\..\lvgl\version_6.1.2\lvgl\src\lv_objx\../lv_objx/lv_page.h **** #endif
  21:..\..\..\lvgl\version_6.1.2\lvgl\src\lv_objx\../lv_objx/lv_page.h **** 
  22:..\..\..\lvgl\version_6.1.2\lvgl\src\lv_objx\../lv_objx/lv_page.h **** #if LV_USE_PAGE != 0
  23:..\..\..\lvgl\version_6.1.2\lvgl\src\lv_objx\../lv_objx/lv_page.h **** 
ARM GAS  C:\Users\tmj32\AppData\Local\Temp\cctNeIsL.s 			page 5


  24:..\..\..\lvgl\version_6.1.2\lvgl\src\lv_objx\../lv_objx/lv_page.h **** /*Testing of dependencies*/
  25:..\..\..\lvgl\version_6.1.2\lvgl\src\lv_objx\../lv_objx/lv_page.h **** #if LV_USE_CONT == 0
  26:..\..\..\lvgl\version_6.1.2\lvgl\src\lv_objx\../lv_objx/lv_page.h **** #error "lv_page: lv_cont is required. Enable it in lv_conf.h (LV_USE_CONT  1) "
  27:..\..\..\lvgl\version_6.1.2\lvgl\src\lv_objx\../lv_objx/lv_page.h **** #endif
  28:..\..\..\lvgl\version_6.1.2\lvgl\src\lv_objx\../lv_objx/lv_page.h **** 
  29:..\..\..\lvgl\version_6.1.2\lvgl\src\lv_objx\../lv_objx/lv_page.h **** #include "lv_cont.h"
  30:..\..\..\lvgl\version_6.1.2\lvgl\src\lv_objx\../lv_objx/lv_page.h **** #include "../lv_core/lv_indev.h"
  31:..\..\..\lvgl\version_6.1.2\lvgl\src\lv_objx\../lv_objx/lv_page.h **** #include "../lv_misc/lv_anim.h"
  32:..\..\..\lvgl\version_6.1.2\lvgl\src\lv_objx\../lv_objx/lv_page.h **** 
  33:..\..\..\lvgl\version_6.1.2\lvgl\src\lv_objx\../lv_objx/lv_page.h **** /*********************
  34:..\..\..\lvgl\version_6.1.2\lvgl\src\lv_objx\../lv_objx/lv_page.h ****  *      DEFINES
  35:..\..\..\lvgl\version_6.1.2\lvgl\src\lv_objx\../lv_objx/lv_page.h ****  *********************/
  36:..\..\..\lvgl\version_6.1.2\lvgl\src\lv_objx\../lv_objx/lv_page.h **** 
  37:..\..\..\lvgl\version_6.1.2\lvgl\src\lv_objx\../lv_objx/lv_page.h **** /**********************
  38:..\..\..\lvgl\version_6.1.2\lvgl\src\lv_objx\../lv_objx/lv_page.h ****  *      TYPEDEFS
  39:..\..\..\lvgl\version_6.1.2\lvgl\src\lv_objx\../lv_objx/lv_page.h ****  **********************/
  40:..\..\..\lvgl\version_6.1.2\lvgl\src\lv_objx\../lv_objx/lv_page.h **** 
  41:..\..\..\lvgl\version_6.1.2\lvgl\src\lv_objx\../lv_objx/lv_page.h **** /** Scrollbar modes: shows when should the scrollbars be visible*/
  42:..\..\..\lvgl\version_6.1.2\lvgl\src\lv_objx\../lv_objx/lv_page.h **** enum {
  43:..\..\..\lvgl\version_6.1.2\lvgl\src\lv_objx\../lv_objx/lv_page.h ****     LV_SB_MODE_OFF    = 0x0, /**< Never show scrollbars*/
  44:..\..\..\lvgl\version_6.1.2\lvgl\src\lv_objx\../lv_objx/lv_page.h ****     LV_SB_MODE_ON     = 0x1, /**< Always show scrollbars*/
  45:..\..\..\lvgl\version_6.1.2\lvgl\src\lv_objx\../lv_objx/lv_page.h ****     LV_SB_MODE_DRAG   = 0x2, /**< Show scrollbars when page is being dragged*/
  46:..\..\..\lvgl\version_6.1.2\lvgl\src\lv_objx\../lv_objx/lv_page.h ****     LV_SB_MODE_AUTO   = 0x3, /**< Show scrollbars when the scrollable container is large enough to 
  47:..\..\..\lvgl\version_6.1.2\lvgl\src\lv_objx\../lv_objx/lv_page.h ****     LV_SB_MODE_HIDE   = 0x4, /**< Hide the scroll bar temporally*/
  48:..\..\..\lvgl\version_6.1.2\lvgl\src\lv_objx\../lv_objx/lv_page.h ****     LV_SB_MODE_UNHIDE = 0x5, /**< Unhide the previously hidden scrollbar. Recover it's type too*/
  49:..\..\..\lvgl\version_6.1.2\lvgl\src\lv_objx\../lv_objx/lv_page.h **** };
  50:..\..\..\lvgl\version_6.1.2\lvgl\src\lv_objx\../lv_objx/lv_page.h **** typedef uint8_t lv_sb_mode_t;
  51:..\..\..\lvgl\version_6.1.2\lvgl\src\lv_objx\../lv_objx/lv_page.h **** 
  52:..\..\..\lvgl\version_6.1.2\lvgl\src\lv_objx\../lv_objx/lv_page.h **** /** Edges: describes the four edges of the page*/
  53:..\..\..\lvgl\version_6.1.2\lvgl\src\lv_objx\../lv_objx/lv_page.h **** enum { LV_PAGE_EDGE_LEFT = 0x1, LV_PAGE_EDGE_TOP = 0x2, LV_PAGE_EDGE_RIGHT = 0x4, LV_PAGE_EDGE_BOTT
  54:..\..\..\lvgl\version_6.1.2\lvgl\src\lv_objx\../lv_objx/lv_page.h **** typedef uint8_t lv_page_edge_t;
  55:..\..\..\lvgl\version_6.1.2\lvgl\src\lv_objx\../lv_objx/lv_page.h **** 
  56:..\..\..\lvgl\version_6.1.2\lvgl\src\lv_objx\../lv_objx/lv_page.h **** /*Data of page*/
  57:..\..\..\lvgl\version_6.1.2\lvgl\src\lv_objx\../lv_objx/lv_page.h **** typedef struct
  58:..\..\..\lvgl\version_6.1.2\lvgl\src\lv_objx\../lv_objx/lv_page.h **** {
  59:..\..\..\lvgl\version_6.1.2\lvgl\src\lv_objx\../lv_objx/lv_page.h ****     lv_cont_ext_t bg; /*Ext. of ancestor*/
  60:..\..\..\lvgl\version_6.1.2\lvgl\src\lv_objx\../lv_objx/lv_page.h ****     /*New data for this type */
  61:..\..\..\lvgl\version_6.1.2\lvgl\src\lv_objx\../lv_objx/lv_page.h ****     lv_obj_t * scrl; /*The scrollable object on the background*/
  62:..\..\..\lvgl\version_6.1.2\lvgl\src\lv_objx\../lv_objx/lv_page.h ****     struct
  63:..\..\..\lvgl\version_6.1.2\lvgl\src\lv_objx\../lv_objx/lv_page.h ****     {
  64:..\..\..\lvgl\version_6.1.2\lvgl\src\lv_objx\../lv_objx/lv_page.h ****         const lv_style_t * style; /*Style of scrollbars*/
  65:..\..\..\lvgl\version_6.1.2\lvgl\src\lv_objx\../lv_objx/lv_page.h ****         lv_area_t hor_area;       /*Horizontal scrollbar area relative to the page. (Handled by the
  66:..\..\..\lvgl\version_6.1.2\lvgl\src\lv_objx\../lv_objx/lv_page.h ****         lv_area_t ver_area;       /*Vertical scrollbar area relative to the page (Handled by the li
  67:..\..\..\lvgl\version_6.1.2\lvgl\src\lv_objx\../lv_objx/lv_page.h ****         uint8_t hor_draw : 1;     /*1: horizontal scrollbar is visible now (Handled by the library)
  68:..\..\..\lvgl\version_6.1.2\lvgl\src\lv_objx\../lv_objx/lv_page.h ****         uint8_t ver_draw : 1;     /*1: vertical scrollbar is visible now (Handled by the library)*/
  69:..\..\..\lvgl\version_6.1.2\lvgl\src\lv_objx\../lv_objx/lv_page.h ****         lv_sb_mode_t mode : 3;    /*Scrollbar visibility from 'lv_page_sb_mode_t'*/
  70:..\..\..\lvgl\version_6.1.2\lvgl\src\lv_objx\../lv_objx/lv_page.h ****     } sb;
  71:..\..\..\lvgl\version_6.1.2\lvgl\src\lv_objx\../lv_objx/lv_page.h **** #if LV_USE_ANIMATION
  72:..\..\..\lvgl\version_6.1.2\lvgl\src\lv_objx\../lv_objx/lv_page.h ****     struct
  73:..\..\..\lvgl\version_6.1.2\lvgl\src\lv_objx\../lv_objx/lv_page.h ****     {
  74:..\..\..\lvgl\version_6.1.2\lvgl\src\lv_objx\../lv_objx/lv_page.h ****         lv_anim_value_t state;    /*Store the current size of the edge flash effect*/
  75:..\..\..\lvgl\version_6.1.2\lvgl\src\lv_objx\../lv_objx/lv_page.h ****         const lv_style_t * style; /*Style of edge flash effect (usually homogeneous circle)*/
  76:..\..\..\lvgl\version_6.1.2\lvgl\src\lv_objx\../lv_objx/lv_page.h ****         uint8_t enabled : 1;      /*1: Show a flash animation on the edge*/
  77:..\..\..\lvgl\version_6.1.2\lvgl\src\lv_objx\../lv_objx/lv_page.h ****         uint8_t top_ip : 1;       /*Used internally to show that top most position is reached (flas
  78:..\..\..\lvgl\version_6.1.2\lvgl\src\lv_objx\../lv_objx/lv_page.h ****                                      Progress)*/
  79:..\..\..\lvgl\version_6.1.2\lvgl\src\lv_objx\../lv_objx/lv_page.h ****         uint8_t bottom_ip : 1;    /*Used internally to show that bottom most position is reached (f
  80:..\..\..\lvgl\version_6.1.2\lvgl\src\lv_objx\../lv_objx/lv_page.h ****                                      is In Progress)*/
ARM GAS  C:\Users\tmj32\AppData\Local\Temp\cctNeIsL.s 			page 6


  81:..\..\..\lvgl\version_6.1.2\lvgl\src\lv_objx\../lv_objx/lv_page.h ****         uint8_t right_ip : 1;     /*Used internally to show that right most position is reached (fl
  82:..\..\..\lvgl\version_6.1.2\lvgl\src\lv_objx\../lv_objx/lv_page.h ****                                      is In Progress)*/
  83:..\..\..\lvgl\version_6.1.2\lvgl\src\lv_objx\../lv_objx/lv_page.h ****         uint8_t left_ip : 1;      /*Used internally to show that left most position is reached (fla
  84:..\..\..\lvgl\version_6.1.2\lvgl\src\lv_objx\../lv_objx/lv_page.h ****                                      In Progress)*/
  85:..\..\..\lvgl\version_6.1.2\lvgl\src\lv_objx\../lv_objx/lv_page.h ****     } edge_flash;
  86:..\..\..\lvgl\version_6.1.2\lvgl\src\lv_objx\../lv_objx/lv_page.h **** 
  87:..\..\..\lvgl\version_6.1.2\lvgl\src\lv_objx\../lv_objx/lv_page.h ****     uint16_t anim_time; /*Scroll animation time*/
  88:..\..\..\lvgl\version_6.1.2\lvgl\src\lv_objx\../lv_objx/lv_page.h **** #endif
  89:..\..\..\lvgl\version_6.1.2\lvgl\src\lv_objx\../lv_objx/lv_page.h **** 
  90:..\..\..\lvgl\version_6.1.2\lvgl\src\lv_objx\../lv_objx/lv_page.h ****     uint8_t scroll_prop : 1;    /*1: Propagate the scrolling the the parent if the edge is reached*
  91:..\..\..\lvgl\version_6.1.2\lvgl\src\lv_objx\../lv_objx/lv_page.h ****     uint8_t scroll_prop_ip : 1; /*1: Scroll propagation is in progress (used by the library)*/
  92:..\..\..\lvgl\version_6.1.2\lvgl\src\lv_objx\../lv_objx/lv_page.h **** } lv_page_ext_t;
  93:..\..\..\lvgl\version_6.1.2\lvgl\src\lv_objx\../lv_objx/lv_page.h **** 
  94:..\..\..\lvgl\version_6.1.2\lvgl\src\lv_objx\../lv_objx/lv_page.h **** enum {
  95:..\..\..\lvgl\version_6.1.2\lvgl\src\lv_objx\../lv_objx/lv_page.h ****     LV_PAGE_STYLE_BG,
  96:..\..\..\lvgl\version_6.1.2\lvgl\src\lv_objx\../lv_objx/lv_page.h ****     LV_PAGE_STYLE_SCRL,
  97:..\..\..\lvgl\version_6.1.2\lvgl\src\lv_objx\../lv_objx/lv_page.h ****     LV_PAGE_STYLE_SB,
  98:..\..\..\lvgl\version_6.1.2\lvgl\src\lv_objx\../lv_objx/lv_page.h ****     LV_PAGE_STYLE_EDGE_FLASH,
  99:..\..\..\lvgl\version_6.1.2\lvgl\src\lv_objx\../lv_objx/lv_page.h **** };
 100:..\..\..\lvgl\version_6.1.2\lvgl\src\lv_objx\../lv_objx/lv_page.h **** typedef uint8_t lv_page_style_t;
 101:..\..\..\lvgl\version_6.1.2\lvgl\src\lv_objx\../lv_objx/lv_page.h **** 
 102:..\..\..\lvgl\version_6.1.2\lvgl\src\lv_objx\../lv_objx/lv_page.h **** /**********************
 103:..\..\..\lvgl\version_6.1.2\lvgl\src\lv_objx\../lv_objx/lv_page.h ****  * GLOBAL PROTOTYPES
 104:..\..\..\lvgl\version_6.1.2\lvgl\src\lv_objx\../lv_objx/lv_page.h ****  **********************/
 105:..\..\..\lvgl\version_6.1.2\lvgl\src\lv_objx\../lv_objx/lv_page.h **** 
 106:..\..\..\lvgl\version_6.1.2\lvgl\src\lv_objx\../lv_objx/lv_page.h **** /**
 107:..\..\..\lvgl\version_6.1.2\lvgl\src\lv_objx\../lv_objx/lv_page.h ****  * Create a page objects
 108:..\..\..\lvgl\version_6.1.2\lvgl\src\lv_objx\../lv_objx/lv_page.h ****  * @param par pointer to an object, it will be the parent of the new page
 109:..\..\..\lvgl\version_6.1.2\lvgl\src\lv_objx\../lv_objx/lv_page.h ****  * @param copy pointer to a page object, if not NULL then the new object will be copied from it
 110:..\..\..\lvgl\version_6.1.2\lvgl\src\lv_objx\../lv_objx/lv_page.h ****  * @return pointer to the created page
 111:..\..\..\lvgl\version_6.1.2\lvgl\src\lv_objx\../lv_objx/lv_page.h ****  */
 112:..\..\..\lvgl\version_6.1.2\lvgl\src\lv_objx\../lv_objx/lv_page.h **** lv_obj_t * lv_page_create(lv_obj_t * par, const lv_obj_t * copy);
 113:..\..\..\lvgl\version_6.1.2\lvgl\src\lv_objx\../lv_objx/lv_page.h **** 
 114:..\..\..\lvgl\version_6.1.2\lvgl\src\lv_objx\../lv_objx/lv_page.h **** /**
 115:..\..\..\lvgl\version_6.1.2\lvgl\src\lv_objx\../lv_objx/lv_page.h ****  * Delete all children of the scrl object, without deleting scrl child.
 116:..\..\..\lvgl\version_6.1.2\lvgl\src\lv_objx\../lv_objx/lv_page.h ****  * @param page pointer to an object
 117:..\..\..\lvgl\version_6.1.2\lvgl\src\lv_objx\../lv_objx/lv_page.h ****  */
 118:..\..\..\lvgl\version_6.1.2\lvgl\src\lv_objx\../lv_objx/lv_page.h **** void lv_page_clean(lv_obj_t * page);
 119:..\..\..\lvgl\version_6.1.2\lvgl\src\lv_objx\../lv_objx/lv_page.h **** 
 120:..\..\..\lvgl\version_6.1.2\lvgl\src\lv_objx\../lv_objx/lv_page.h **** /**
 121:..\..\..\lvgl\version_6.1.2\lvgl\src\lv_objx\../lv_objx/lv_page.h ****  * Get the scrollable object of a page
 122:..\..\..\lvgl\version_6.1.2\lvgl\src\lv_objx\../lv_objx/lv_page.h ****  * @param page pointer to a page object
 123:..\..\..\lvgl\version_6.1.2\lvgl\src\lv_objx\../lv_objx/lv_page.h ****  * @return pointer to a container which is the scrollable part of the page
 124:..\..\..\lvgl\version_6.1.2\lvgl\src\lv_objx\../lv_objx/lv_page.h ****  */
 125:..\..\..\lvgl\version_6.1.2\lvgl\src\lv_objx\../lv_objx/lv_page.h **** lv_obj_t * lv_page_get_scrl(const lv_obj_t * page);
 126:..\..\..\lvgl\version_6.1.2\lvgl\src\lv_objx\../lv_objx/lv_page.h **** 
 127:..\..\..\lvgl\version_6.1.2\lvgl\src\lv_objx\../lv_objx/lv_page.h **** /**
 128:..\..\..\lvgl\version_6.1.2\lvgl\src\lv_objx\../lv_objx/lv_page.h ****  * Get the animation time
 129:..\..\..\lvgl\version_6.1.2\lvgl\src\lv_objx\../lv_objx/lv_page.h ****  * @param page pointer to a page object
 130:..\..\..\lvgl\version_6.1.2\lvgl\src\lv_objx\../lv_objx/lv_page.h ****  * @return the animation time in milliseconds
 131:..\..\..\lvgl\version_6.1.2\lvgl\src\lv_objx\../lv_objx/lv_page.h ****  */
 132:..\..\..\lvgl\version_6.1.2\lvgl\src\lv_objx\../lv_objx/lv_page.h **** uint16_t lv_page_get_anim_time(const lv_obj_t * page);
 133:..\..\..\lvgl\version_6.1.2\lvgl\src\lv_objx\../lv_objx/lv_page.h **** 
 134:..\..\..\lvgl\version_6.1.2\lvgl\src\lv_objx\../lv_objx/lv_page.h **** /*=====================
 135:..\..\..\lvgl\version_6.1.2\lvgl\src\lv_objx\../lv_objx/lv_page.h ****  * Setter functions
 136:..\..\..\lvgl\version_6.1.2\lvgl\src\lv_objx\../lv_objx/lv_page.h ****  *====================*/
 137:..\..\..\lvgl\version_6.1.2\lvgl\src\lv_objx\../lv_objx/lv_page.h **** 
ARM GAS  C:\Users\tmj32\AppData\Local\Temp\cctNeIsL.s 			page 7


 138:..\..\..\lvgl\version_6.1.2\lvgl\src\lv_objx\../lv_objx/lv_page.h **** /**
 139:..\..\..\lvgl\version_6.1.2\lvgl\src\lv_objx\../lv_objx/lv_page.h ****  * Set the scroll bar mode on a page
 140:..\..\..\lvgl\version_6.1.2\lvgl\src\lv_objx\../lv_objx/lv_page.h ****  * @param page pointer to a page object
 141:..\..\..\lvgl\version_6.1.2\lvgl\src\lv_objx\../lv_objx/lv_page.h ****  * @param sb_mode the new mode from 'lv_page_sb.mode_t' enum
 142:..\..\..\lvgl\version_6.1.2\lvgl\src\lv_objx\../lv_objx/lv_page.h ****  */
 143:..\..\..\lvgl\version_6.1.2\lvgl\src\lv_objx\../lv_objx/lv_page.h **** void lv_page_set_sb_mode(lv_obj_t * page, lv_sb_mode_t sb_mode);
 144:..\..\..\lvgl\version_6.1.2\lvgl\src\lv_objx\../lv_objx/lv_page.h **** 
 145:..\..\..\lvgl\version_6.1.2\lvgl\src\lv_objx\../lv_objx/lv_page.h **** /**
 146:..\..\..\lvgl\version_6.1.2\lvgl\src\lv_objx\../lv_objx/lv_page.h ****  * Set the animation time for the page
 147:..\..\..\lvgl\version_6.1.2\lvgl\src\lv_objx\../lv_objx/lv_page.h ****  * @param page pointer to a page object
 148:..\..\..\lvgl\version_6.1.2\lvgl\src\lv_objx\../lv_objx/lv_page.h ****  * @param anim_time animation time in milliseconds
 149:..\..\..\lvgl\version_6.1.2\lvgl\src\lv_objx\../lv_objx/lv_page.h ****  */
 150:..\..\..\lvgl\version_6.1.2\lvgl\src\lv_objx\../lv_objx/lv_page.h **** void lv_page_set_anim_time(lv_obj_t * page, uint16_t anim_time);
 151:..\..\..\lvgl\version_6.1.2\lvgl\src\lv_objx\../lv_objx/lv_page.h **** 
 152:..\..\..\lvgl\version_6.1.2\lvgl\src\lv_objx\../lv_objx/lv_page.h **** /**
 153:..\..\..\lvgl\version_6.1.2\lvgl\src\lv_objx\../lv_objx/lv_page.h ****  * Enable the scroll propagation feature. If enabled then the page will move its parent if there is
 154:..\..\..\lvgl\version_6.1.2\lvgl\src\lv_objx\../lv_objx/lv_page.h ****  * no more space to scroll.
 155:..\..\..\lvgl\version_6.1.2\lvgl\src\lv_objx\../lv_objx/lv_page.h ****  * @param page pointer to a Page
 156:..\..\..\lvgl\version_6.1.2\lvgl\src\lv_objx\../lv_objx/lv_page.h ****  * @param en true or false to enable/disable scroll propagation
 157:..\..\..\lvgl\version_6.1.2\lvgl\src\lv_objx\../lv_objx/lv_page.h ****  */
 158:..\..\..\lvgl\version_6.1.2\lvgl\src\lv_objx\../lv_objx/lv_page.h **** void lv_page_set_scroll_propagation(lv_obj_t * page, bool en);
 159:..\..\..\lvgl\version_6.1.2\lvgl\src\lv_objx\../lv_objx/lv_page.h **** 
 160:..\..\..\lvgl\version_6.1.2\lvgl\src\lv_objx\../lv_objx/lv_page.h **** /**
 161:..\..\..\lvgl\version_6.1.2\lvgl\src\lv_objx\../lv_objx/lv_page.h ****  * Enable the edge flash effect. (Show an arc when the an edge is reached)
 162:..\..\..\lvgl\version_6.1.2\lvgl\src\lv_objx\../lv_objx/lv_page.h ****  * @param page pointer to a Page
 163:..\..\..\lvgl\version_6.1.2\lvgl\src\lv_objx\../lv_objx/lv_page.h ****  * @param en true or false to enable/disable end flash
 164:..\..\..\lvgl\version_6.1.2\lvgl\src\lv_objx\../lv_objx/lv_page.h ****  */
 165:..\..\..\lvgl\version_6.1.2\lvgl\src\lv_objx\../lv_objx/lv_page.h **** void lv_page_set_edge_flash(lv_obj_t * page, bool en);
 166:..\..\..\lvgl\version_6.1.2\lvgl\src\lv_objx\../lv_objx/lv_page.h **** 
 167:..\..\..\lvgl\version_6.1.2\lvgl\src\lv_objx\../lv_objx/lv_page.h **** /**
 168:..\..\..\lvgl\version_6.1.2\lvgl\src\lv_objx\../lv_objx/lv_page.h ****  * Set the fit policy in all 4 directions separately.
 169:..\..\..\lvgl\version_6.1.2\lvgl\src\lv_objx\../lv_objx/lv_page.h ****  * It tell how to change the page size automatically.
 170:..\..\..\lvgl\version_6.1.2\lvgl\src\lv_objx\../lv_objx/lv_page.h ****  * @param page pointer to a page object
 171:..\..\..\lvgl\version_6.1.2\lvgl\src\lv_objx\../lv_objx/lv_page.h ****  * @param left left fit policy from `lv_fit_t`
 172:..\..\..\lvgl\version_6.1.2\lvgl\src\lv_objx\../lv_objx/lv_page.h ****  * @param right right fit policy from `lv_fit_t`
 173:..\..\..\lvgl\version_6.1.2\lvgl\src\lv_objx\../lv_objx/lv_page.h ****  * @param top bottom fit policy from `lv_fit_t`
 174:..\..\..\lvgl\version_6.1.2\lvgl\src\lv_objx\../lv_objx/lv_page.h ****  * @param bottom bottom fit policy from `lv_fit_t`
 175:..\..\..\lvgl\version_6.1.2\lvgl\src\lv_objx\../lv_objx/lv_page.h ****  */
 176:..\..\..\lvgl\version_6.1.2\lvgl\src\lv_objx\../lv_objx/lv_page.h **** static inline void lv_page_set_scrl_fit4(lv_obj_t * page, lv_fit_t left, lv_fit_t right, lv_fit_t t
 177:..\..\..\lvgl\version_6.1.2\lvgl\src\lv_objx\../lv_objx/lv_page.h **** {
 178:..\..\..\lvgl\version_6.1.2\lvgl\src\lv_objx\../lv_objx/lv_page.h ****     lv_cont_set_fit4(lv_page_get_scrl(page), left, right, top, bottom);
 179:..\..\..\lvgl\version_6.1.2\lvgl\src\lv_objx\../lv_objx/lv_page.h **** }
 180:..\..\..\lvgl\version_6.1.2\lvgl\src\lv_objx\../lv_objx/lv_page.h **** 
 181:..\..\..\lvgl\version_6.1.2\lvgl\src\lv_objx\../lv_objx/lv_page.h **** /**
 182:..\..\..\lvgl\version_6.1.2\lvgl\src\lv_objx\../lv_objx/lv_page.h ****  * Set the fit policy horizontally and vertically separately.
 183:..\..\..\lvgl\version_6.1.2\lvgl\src\lv_objx\../lv_objx/lv_page.h ****  * It tell how to change the page size automatically.
 184:..\..\..\lvgl\version_6.1.2\lvgl\src\lv_objx\../lv_objx/lv_page.h ****  * @param page pointer to a page object
 185:..\..\..\lvgl\version_6.1.2\lvgl\src\lv_objx\../lv_objx/lv_page.h ****  * @param hot horizontal fit policy from `lv_fit_t`
 186:..\..\..\lvgl\version_6.1.2\lvgl\src\lv_objx\../lv_objx/lv_page.h ****  * @param ver vertical fit policy from `lv_fit_t`
 187:..\..\..\lvgl\version_6.1.2\lvgl\src\lv_objx\../lv_objx/lv_page.h ****  */
 188:..\..\..\lvgl\version_6.1.2\lvgl\src\lv_objx\../lv_objx/lv_page.h **** static inline void lv_page_set_scrl_fit2(lv_obj_t * page, lv_fit_t hor, lv_fit_t ver)
 189:..\..\..\lvgl\version_6.1.2\lvgl\src\lv_objx\../lv_objx/lv_page.h **** {
 190:..\..\..\lvgl\version_6.1.2\lvgl\src\lv_objx\../lv_objx/lv_page.h ****     lv_cont_set_fit2(lv_page_get_scrl(page), hor, ver);
 191:..\..\..\lvgl\version_6.1.2\lvgl\src\lv_objx\../lv_objx/lv_page.h **** }
 192:..\..\..\lvgl\version_6.1.2\lvgl\src\lv_objx\../lv_objx/lv_page.h **** 
 193:..\..\..\lvgl\version_6.1.2\lvgl\src\lv_objx\../lv_objx/lv_page.h **** /**
 194:..\..\..\lvgl\version_6.1.2\lvgl\src\lv_objx\../lv_objx/lv_page.h ****  * Set the fit policyin all 4 direction at once.
ARM GAS  C:\Users\tmj32\AppData\Local\Temp\cctNeIsL.s 			page 8


 195:..\..\..\lvgl\version_6.1.2\lvgl\src\lv_objx\../lv_objx/lv_page.h ****  * It tell how to change the page size automatically.
 196:..\..\..\lvgl\version_6.1.2\lvgl\src\lv_objx\../lv_objx/lv_page.h ****  * @param page pointer to a button object
 197:..\..\..\lvgl\version_6.1.2\lvgl\src\lv_objx\../lv_objx/lv_page.h ****  * @param fit fit policy from `lv_fit_t`
 198:..\..\..\lvgl\version_6.1.2\lvgl\src\lv_objx\../lv_objx/lv_page.h ****  */
 199:..\..\..\lvgl\version_6.1.2\lvgl\src\lv_objx\../lv_objx/lv_page.h **** static inline void lv_page_set_scrl_fit(lv_obj_t * page, lv_fit_t fit)
 200:..\..\..\lvgl\version_6.1.2\lvgl\src\lv_objx\../lv_objx/lv_page.h **** {
  71              		.loc 2 200 0
  72              		.cfi_startproc
  73              		@ args = 0, pretend = 0, frame = 8
  74              		@ frame_needed = 1, uses_anonymous_args = 0
  75 0000 80B5     		push	{r7, lr}
  76              		.cfi_def_cfa_offset 8
  77              		.cfi_offset 7, -8
  78              		.cfi_offset 14, -4
  79 0002 82B0     		sub	sp, sp, #8
  80              		.cfi_def_cfa_offset 16
  81 0004 00AF     		add	r7, sp, #0
  82              		.cfi_def_cfa_register 7
  83 0006 7860     		str	r0, [r7, #4]
  84 0008 0B46     		mov	r3, r1
  85 000a FB70     		strb	r3, [r7, #3]
 201:..\..\..\lvgl\version_6.1.2\lvgl\src\lv_objx\../lv_objx/lv_page.h ****     lv_cont_set_fit(lv_page_get_scrl(page), fit);
  86              		.loc 2 201 0
  87 000c 7868     		ldr	r0, [r7, #4]
  88 000e FFF7FEFF 		bl	lv_page_get_scrl
  89 0012 0246     		mov	r2, r0
  90 0014 FB78     		ldrb	r3, [r7, #3]	@ zero_extendqisi2
  91 0016 1946     		mov	r1, r3
  92 0018 1046     		mov	r0, r2
  93 001a FFF7FEFF 		bl	lv_cont_set_fit
 202:..\..\..\lvgl\version_6.1.2\lvgl\src\lv_objx\../lv_objx/lv_page.h **** }
  94              		.loc 2 202 0
  95 001e 00BF     		nop
  96 0020 0837     		adds	r7, r7, #8
  97              		.cfi_def_cfa_offset 8
  98 0022 BD46     		mov	sp, r7
  99              		.cfi_def_cfa_register 13
 100              		@ sp needed
 101 0024 80BD     		pop	{r7, pc}
 102              		.cfi_endproc
 103              	.LFE37:
 104              		.size	lv_page_set_scrl_fit, .-lv_page_set_scrl_fit
 105 0026 00BF     		.bss
 106              		.align	2
 107              	ancestor_signal:
 108 0000 00000000 		.space	4
 109              		.align	2
 110              	ancestor_scrl_signal:
 111 0004 00000000 		.space	4
 112              		.align	2
 113              	ancestor_design:
 114 0008 00000000 		.space	4
 115              		.section	.text.lv_tileview_create,"ax",%progbits
 116              		.align	2
 117              		.global	lv_tileview_create
 118              		.thumb
 119              		.thumb_func
ARM GAS  C:\Users\tmj32\AppData\Local\Temp\cctNeIsL.s 			page 9


 120              		.type	lv_tileview_create, %function
 121              	lv_tileview_create:
 122              	.LFB52:
 123              		.file 3 "..\\..\\..\\lvgl\\version_6.1.2\\lvgl\\src\\lv_objx\\lv_tileview.c"
   1:..\..\..\lvgl\version_6.1.2\lvgl\src\lv_objx/lv_tileview.c **** /**
   2:..\..\..\lvgl\version_6.1.2\lvgl\src\lv_objx/lv_tileview.c ****  * @file lv_tileview.c
   3:..\..\..\lvgl\version_6.1.2\lvgl\src\lv_objx/lv_tileview.c ****  *
   4:..\..\..\lvgl\version_6.1.2\lvgl\src\lv_objx/lv_tileview.c ****  */
   5:..\..\..\lvgl\version_6.1.2\lvgl\src\lv_objx/lv_tileview.c **** 
   6:..\..\..\lvgl\version_6.1.2\lvgl\src\lv_objx/lv_tileview.c **** /*********************
   7:..\..\..\lvgl\version_6.1.2\lvgl\src\lv_objx/lv_tileview.c ****  *      INCLUDES
   8:..\..\..\lvgl\version_6.1.2\lvgl\src\lv_objx/lv_tileview.c ****  *********************/
   9:..\..\..\lvgl\version_6.1.2\lvgl\src\lv_objx/lv_tileview.c **** #include "lv_tileview.h"
  10:..\..\..\lvgl\version_6.1.2\lvgl\src\lv_objx/lv_tileview.c **** #if LV_USE_TILEVIEW != 0
  11:..\..\..\lvgl\version_6.1.2\lvgl\src\lv_objx/lv_tileview.c **** 
  12:..\..\..\lvgl\version_6.1.2\lvgl\src\lv_objx/lv_tileview.c **** #include <stdbool.h>
  13:..\..\..\lvgl\version_6.1.2\lvgl\src\lv_objx/lv_tileview.c **** #include "lv_cont.h"
  14:..\..\..\lvgl\version_6.1.2\lvgl\src\lv_objx/lv_tileview.c **** #include "../lv_core/lv_debug.h"
  15:..\..\..\lvgl\version_6.1.2\lvgl\src\lv_objx/lv_tileview.c **** #include "../lv_themes/lv_theme.h"
  16:..\..\..\lvgl\version_6.1.2\lvgl\src\lv_objx/lv_tileview.c **** 
  17:..\..\..\lvgl\version_6.1.2\lvgl\src\lv_objx/lv_tileview.c **** /*********************
  18:..\..\..\lvgl\version_6.1.2\lvgl\src\lv_objx/lv_tileview.c ****  *      DEFINES
  19:..\..\..\lvgl\version_6.1.2\lvgl\src\lv_objx/lv_tileview.c ****  *********************/
  20:..\..\..\lvgl\version_6.1.2\lvgl\src\lv_objx/lv_tileview.c **** #define LV_OBJX_NAME "lv_tileview"
  21:..\..\..\lvgl\version_6.1.2\lvgl\src\lv_objx/lv_tileview.c **** 
  22:..\..\..\lvgl\version_6.1.2\lvgl\src\lv_objx/lv_tileview.c **** #if LV_USE_ANIMATION
  23:..\..\..\lvgl\version_6.1.2\lvgl\src\lv_objx/lv_tileview.c **** #ifndef LV_TILEVIEW_DEF_ANIM_TIME
  24:..\..\..\lvgl\version_6.1.2\lvgl\src\lv_objx/lv_tileview.c **** #define LV_TILEVIEW_DEF_ANIM_TIME 300 /*Animation time loading a tile [ms] (0: no animation)  */
  25:..\..\..\lvgl\version_6.1.2\lvgl\src\lv_objx/lv_tileview.c **** #endif
  26:..\..\..\lvgl\version_6.1.2\lvgl\src\lv_objx/lv_tileview.c **** #else
  27:..\..\..\lvgl\version_6.1.2\lvgl\src\lv_objx/lv_tileview.c **** #undef LV_TILEVIEW_DEF_ANIM_TIME
  28:..\..\..\lvgl\version_6.1.2\lvgl\src\lv_objx/lv_tileview.c **** #define LV_TILEVIEW_DEF_ANIM_TIME 0 /*No animations*/
  29:..\..\..\lvgl\version_6.1.2\lvgl\src\lv_objx/lv_tileview.c **** #endif
  30:..\..\..\lvgl\version_6.1.2\lvgl\src\lv_objx/lv_tileview.c **** 
  31:..\..\..\lvgl\version_6.1.2\lvgl\src\lv_objx/lv_tileview.c **** /**********************
  32:..\..\..\lvgl\version_6.1.2\lvgl\src\lv_objx/lv_tileview.c ****  *      TYPEDEFS
  33:..\..\..\lvgl\version_6.1.2\lvgl\src\lv_objx/lv_tileview.c ****  **********************/
  34:..\..\..\lvgl\version_6.1.2\lvgl\src\lv_objx/lv_tileview.c **** 
  35:..\..\..\lvgl\version_6.1.2\lvgl\src\lv_objx/lv_tileview.c **** /**********************
  36:..\..\..\lvgl\version_6.1.2\lvgl\src\lv_objx/lv_tileview.c ****  *  STATIC PROTOTYPES
  37:..\..\..\lvgl\version_6.1.2\lvgl\src\lv_objx/lv_tileview.c ****  **********************/
  38:..\..\..\lvgl\version_6.1.2\lvgl\src\lv_objx/lv_tileview.c **** static lv_res_t lv_tileview_signal(lv_obj_t * tileview, lv_signal_t sign, void * param);
  39:..\..\..\lvgl\version_6.1.2\lvgl\src\lv_objx/lv_tileview.c **** static lv_res_t lv_tileview_scrl_signal(lv_obj_t * scrl, lv_signal_t sign, void * param);
  40:..\..\..\lvgl\version_6.1.2\lvgl\src\lv_objx/lv_tileview.c **** static void tileview_scrl_event_cb(lv_obj_t * scrl, lv_event_t event);
  41:..\..\..\lvgl\version_6.1.2\lvgl\src\lv_objx/lv_tileview.c **** static void drag_end_handler(lv_obj_t * tileview);
  42:..\..\..\lvgl\version_6.1.2\lvgl\src\lv_objx/lv_tileview.c **** static bool set_valid_drag_dirs(lv_obj_t * tileview);
  43:..\..\..\lvgl\version_6.1.2\lvgl\src\lv_objx/lv_tileview.c **** 
  44:..\..\..\lvgl\version_6.1.2\lvgl\src\lv_objx/lv_tileview.c **** /**********************
  45:..\..\..\lvgl\version_6.1.2\lvgl\src\lv_objx/lv_tileview.c ****  *  STATIC VARIABLES
  46:..\..\..\lvgl\version_6.1.2\lvgl\src\lv_objx/lv_tileview.c ****  **********************/
  47:..\..\..\lvgl\version_6.1.2\lvgl\src\lv_objx/lv_tileview.c **** static lv_signal_cb_t ancestor_signal;
  48:..\..\..\lvgl\version_6.1.2\lvgl\src\lv_objx/lv_tileview.c **** static lv_signal_cb_t ancestor_scrl_signal;
  49:..\..\..\lvgl\version_6.1.2\lvgl\src\lv_objx/lv_tileview.c **** static lv_design_cb_t ancestor_design;
  50:..\..\..\lvgl\version_6.1.2\lvgl\src\lv_objx/lv_tileview.c **** 
  51:..\..\..\lvgl\version_6.1.2\lvgl\src\lv_objx/lv_tileview.c **** /**********************
  52:..\..\..\lvgl\version_6.1.2\lvgl\src\lv_objx/lv_tileview.c ****  *      MACROS
  53:..\..\..\lvgl\version_6.1.2\lvgl\src\lv_objx/lv_tileview.c ****  **********************/
ARM GAS  C:\Users\tmj32\AppData\Local\Temp\cctNeIsL.s 			page 10


  54:..\..\..\lvgl\version_6.1.2\lvgl\src\lv_objx/lv_tileview.c **** 
  55:..\..\..\lvgl\version_6.1.2\lvgl\src\lv_objx/lv_tileview.c **** /**********************
  56:..\..\..\lvgl\version_6.1.2\lvgl\src\lv_objx/lv_tileview.c ****  *   GLOBAL FUNCTIONS
  57:..\..\..\lvgl\version_6.1.2\lvgl\src\lv_objx/lv_tileview.c ****  **********************/
  58:..\..\..\lvgl\version_6.1.2\lvgl\src\lv_objx/lv_tileview.c **** 
  59:..\..\..\lvgl\version_6.1.2\lvgl\src\lv_objx/lv_tileview.c **** /**
  60:..\..\..\lvgl\version_6.1.2\lvgl\src\lv_objx/lv_tileview.c ****  * Create a tileview object
  61:..\..\..\lvgl\version_6.1.2\lvgl\src\lv_objx/lv_tileview.c ****  * @param par pointer to an object, it will be the parent of the new tileview
  62:..\..\..\lvgl\version_6.1.2\lvgl\src\lv_objx/lv_tileview.c ****  * @param copy pointer to a tileview object, if not NULL then the new object will be copied from it
  63:..\..\..\lvgl\version_6.1.2\lvgl\src\lv_objx/lv_tileview.c ****  * @return pointer to the created tileview
  64:..\..\..\lvgl\version_6.1.2\lvgl\src\lv_objx/lv_tileview.c ****  */
  65:..\..\..\lvgl\version_6.1.2\lvgl\src\lv_objx/lv_tileview.c **** lv_obj_t * lv_tileview_create(lv_obj_t * par, const lv_obj_t * copy)
  66:..\..\..\lvgl\version_6.1.2\lvgl\src\lv_objx/lv_tileview.c **** {
 124              		.loc 3 66 0
 125              		.cfi_startproc
 126              		@ args = 0, pretend = 0, frame = 32
 127              		@ frame_needed = 1, uses_anonymous_args = 0
 128 0000 80B5     		push	{r7, lr}
 129              		.cfi_def_cfa_offset 8
 130              		.cfi_offset 7, -8
 131              		.cfi_offset 14, -4
 132 0002 88B0     		sub	sp, sp, #32
 133              		.cfi_def_cfa_offset 40
 134 0004 00AF     		add	r7, sp, #0
 135              		.cfi_def_cfa_register 7
 136 0006 7860     		str	r0, [r7, #4]
 137 0008 3960     		str	r1, [r7]
  67:..\..\..\lvgl\version_6.1.2\lvgl\src\lv_objx/lv_tileview.c ****     LV_LOG_TRACE("tileview create started");
  68:..\..\..\lvgl\version_6.1.2\lvgl\src\lv_objx/lv_tileview.c **** 
  69:..\..\..\lvgl\version_6.1.2\lvgl\src\lv_objx/lv_tileview.c ****     /*Create the ancestor of tileview*/
  70:..\..\..\lvgl\version_6.1.2\lvgl\src\lv_objx/lv_tileview.c ****     lv_obj_t * new_tileview = lv_page_create(par, copy);
 138              		.loc 3 70 0
 139 000a 3968     		ldr	r1, [r7]
 140 000c 7868     		ldr	r0, [r7, #4]
 141 000e FFF7FEFF 		bl	lv_page_create
 142 0012 B861     		str	r0, [r7, #24]
  71:..\..\..\lvgl\version_6.1.2\lvgl\src\lv_objx/lv_tileview.c ****     LV_ASSERT_MEM(new_tileview);
  72:..\..\..\lvgl\version_6.1.2\lvgl\src\lv_objx/lv_tileview.c ****     if(new_tileview == NULL) return NULL;
 143              		.loc 3 72 0
 144 0014 BB69     		ldr	r3, [r7, #24]
 145 0016 002B     		cmp	r3, #0
 146 0018 01D1     		bne	.L4
 147              		.loc 3 72 0 is_stmt 0 discriminator 1
 148 001a 0023     		movs	r3, #0
 149 001c CCE0     		b	.L5
 150              	.L4:
  73:..\..\..\lvgl\version_6.1.2\lvgl\src\lv_objx/lv_tileview.c **** 
  74:..\..\..\lvgl\version_6.1.2\lvgl\src\lv_objx/lv_tileview.c ****     /*Allocate the tileview type specific extended data*/
  75:..\..\..\lvgl\version_6.1.2\lvgl\src\lv_objx/lv_tileview.c ****     lv_tileview_ext_t * ext = lv_obj_allocate_ext_attr(new_tileview, sizeof(lv_tileview_ext_t));
 151              		.loc 3 75 0 is_stmt 1
 152 001e 4021     		movs	r1, #64
 153 0020 B869     		ldr	r0, [r7, #24]
 154 0022 FFF7FEFF 		bl	lv_obj_allocate_ext_attr
 155 0026 7861     		str	r0, [r7, #20]
  76:..\..\..\lvgl\version_6.1.2\lvgl\src\lv_objx/lv_tileview.c ****     LV_ASSERT_MEM(ext);
  77:..\..\..\lvgl\version_6.1.2\lvgl\src\lv_objx/lv_tileview.c ****     if(ext == NULL) return NULL;
 156              		.loc 3 77 0
ARM GAS  C:\Users\tmj32\AppData\Local\Temp\cctNeIsL.s 			page 11


 157 0028 7B69     		ldr	r3, [r7, #20]
 158 002a 002B     		cmp	r3, #0
 159 002c 01D1     		bne	.L6
 160              		.loc 3 77 0 is_stmt 0 discriminator 1
 161 002e 0023     		movs	r3, #0
 162 0030 C2E0     		b	.L5
 163              	.L6:
  78:..\..\..\lvgl\version_6.1.2\lvgl\src\lv_objx/lv_tileview.c ****     if(ancestor_signal == NULL) ancestor_signal = lv_obj_get_signal_cb(new_tileview);
 164              		.loc 3 78 0 is_stmt 1
 165 0032 634B     		ldr	r3, .L16
 166 0034 1B68     		ldr	r3, [r3]
 167 0036 002B     		cmp	r3, #0
 168 0038 05D1     		bne	.L7
 169              		.loc 3 78 0 is_stmt 0 discriminator 1
 170 003a B869     		ldr	r0, [r7, #24]
 171 003c FFF7FEFF 		bl	lv_obj_get_signal_cb
 172 0040 0246     		mov	r2, r0
 173 0042 5F4B     		ldr	r3, .L16
 174 0044 1A60     		str	r2, [r3]
 175              	.L7:
  79:..\..\..\lvgl\version_6.1.2\lvgl\src\lv_objx/lv_tileview.c ****     if(ancestor_scrl_signal == NULL) ancestor_scrl_signal = lv_obj_get_signal_cb(lv_page_get_scrl(n
 176              		.loc 3 79 0 is_stmt 1
 177 0046 5F4B     		ldr	r3, .L16+4
 178 0048 1B68     		ldr	r3, [r3]
 179 004a 002B     		cmp	r3, #0
 180 004c 09D1     		bne	.L8
 181              		.loc 3 79 0 is_stmt 0 discriminator 1
 182 004e B869     		ldr	r0, [r7, #24]
 183 0050 FFF7FEFF 		bl	lv_page_get_scrl
 184 0054 0346     		mov	r3, r0
 185 0056 1846     		mov	r0, r3
 186 0058 FFF7FEFF 		bl	lv_obj_get_signal_cb
 187 005c 0246     		mov	r2, r0
 188 005e 594B     		ldr	r3, .L16+4
 189 0060 1A60     		str	r2, [r3]
 190              	.L8:
  80:..\..\..\lvgl\version_6.1.2\lvgl\src\lv_objx/lv_tileview.c ****     if(ancestor_design == NULL) ancestor_design = lv_obj_get_design_cb(new_tileview);
 191              		.loc 3 80 0 is_stmt 1
 192 0062 594B     		ldr	r3, .L16+8
 193 0064 1B68     		ldr	r3, [r3]
 194 0066 002B     		cmp	r3, #0
 195 0068 05D1     		bne	.L9
 196              		.loc 3 80 0 is_stmt 0 discriminator 1
 197 006a B869     		ldr	r0, [r7, #24]
 198 006c FFF7FEFF 		bl	lv_obj_get_design_cb
 199 0070 0246     		mov	r2, r0
 200 0072 554B     		ldr	r3, .L16+8
 201 0074 1A60     		str	r2, [r3]
 202              	.L9:
  81:..\..\..\lvgl\version_6.1.2\lvgl\src\lv_objx/lv_tileview.c **** 
  82:..\..\..\lvgl\version_6.1.2\lvgl\src\lv_objx/lv_tileview.c ****         /*Initialize the allocated 'ext' */
  83:..\..\..\lvgl\version_6.1.2\lvgl\src\lv_objx/lv_tileview.c **** #if LV_USE_ANIMATION
  84:..\..\..\lvgl\version_6.1.2\lvgl\src\lv_objx/lv_tileview.c ****     ext->anim_time = LV_TILEVIEW_DEF_ANIM_TIME;
 203              		.loc 3 84 0 is_stmt 1
 204 0076 7B69     		ldr	r3, [r7, #20]
 205 0078 4FF49672 		mov	r2, #300
 206 007c DA86     		strh	r2, [r3, #54]	@ movhi
ARM GAS  C:\Users\tmj32\AppData\Local\Temp\cctNeIsL.s 			page 12


  85:..\..\..\lvgl\version_6.1.2\lvgl\src\lv_objx/lv_tileview.c **** #endif
  86:..\..\..\lvgl\version_6.1.2\lvgl\src\lv_objx/lv_tileview.c ****     ext->act_id.x      = 0;
 207              		.loc 3 86 0
 208 007e 7B69     		ldr	r3, [r7, #20]
 209 0080 0022     		movs	r2, #0
 210 0082 1A87     		strh	r2, [r3, #56]	@ movhi
  87:..\..\..\lvgl\version_6.1.2\lvgl\src\lv_objx/lv_tileview.c ****     ext->act_id.y      = 0;
 211              		.loc 3 87 0
 212 0084 7B69     		ldr	r3, [r7, #20]
 213 0086 0022     		movs	r2, #0
 214 0088 5A87     		strh	r2, [r3, #58]	@ movhi
  88:..\..\..\lvgl\version_6.1.2\lvgl\src\lv_objx/lv_tileview.c ****     ext->valid_pos     = NULL;
 215              		.loc 3 88 0
 216 008a 7B69     		ldr	r3, [r7, #20]
 217 008c 0022     		movs	r2, #0
 218 008e 1A63     		str	r2, [r3, #48]
  89:..\..\..\lvgl\version_6.1.2\lvgl\src\lv_objx/lv_tileview.c ****     ext->valid_pos_cnt = 0;
 219              		.loc 3 89 0
 220 0090 7B69     		ldr	r3, [r7, #20]
 221 0092 0022     		movs	r2, #0
 222 0094 9A86     		strh	r2, [r3, #52]	@ movhi
  90:..\..\..\lvgl\version_6.1.2\lvgl\src\lv_objx/lv_tileview.c **** 
  91:..\..\..\lvgl\version_6.1.2\lvgl\src\lv_objx/lv_tileview.c ****     /*The signal and design functions are not copied so set them here*/
  92:..\..\..\lvgl\version_6.1.2\lvgl\src\lv_objx/lv_tileview.c ****     lv_obj_set_signal_cb(new_tileview, lv_tileview_signal);
 223              		.loc 3 92 0
 224 0096 4D49     		ldr	r1, .L16+12
 225 0098 B869     		ldr	r0, [r7, #24]
 226 009a FFF7FEFF 		bl	lv_obj_set_signal_cb
  93:..\..\..\lvgl\version_6.1.2\lvgl\src\lv_objx/lv_tileview.c ****     lv_obj_set_signal_cb(lv_page_get_scrl(new_tileview), lv_tileview_scrl_signal);
 227              		.loc 3 93 0
 228 009e B869     		ldr	r0, [r7, #24]
 229 00a0 FFF7FEFF 		bl	lv_page_get_scrl
 230 00a4 0346     		mov	r3, r0
 231 00a6 4A49     		ldr	r1, .L16+16
 232 00a8 1846     		mov	r0, r3
 233 00aa FFF7FEFF 		bl	lv_obj_set_signal_cb
  94:..\..\..\lvgl\version_6.1.2\lvgl\src\lv_objx/lv_tileview.c **** 
  95:..\..\..\lvgl\version_6.1.2\lvgl\src\lv_objx/lv_tileview.c ****     /*Init the new tileview*/
  96:..\..\..\lvgl\version_6.1.2\lvgl\src\lv_objx/lv_tileview.c ****     if(copy == NULL) {
 234              		.loc 3 96 0
 235 00ae 3B68     		ldr	r3, [r7]
 236 00b0 002B     		cmp	r3, #0
 237 00b2 63D1     		bne	.L10
 238              	.LBB2:
  97:..\..\..\lvgl\version_6.1.2\lvgl\src\lv_objx/lv_tileview.c ****         /* Set a size which fits into the parent.
  98:..\..\..\lvgl\version_6.1.2\lvgl\src\lv_objx/lv_tileview.c ****          * Don't use `par` directly because if the tileview is created on a page it is moved to the
  99:..\..\..\lvgl\version_6.1.2\lvgl\src\lv_objx/lv_tileview.c ****          * scrollable so the parent has changed */
 100:..\..\..\lvgl\version_6.1.2\lvgl\src\lv_objx/lv_tileview.c ****         lv_coord_t w;
 101:..\..\..\lvgl\version_6.1.2\lvgl\src\lv_objx/lv_tileview.c ****         lv_coord_t h;
 102:..\..\..\lvgl\version_6.1.2\lvgl\src\lv_objx/lv_tileview.c ****         if(par) {
 239              		.loc 3 102 0
 240 00b4 7B68     		ldr	r3, [r7, #4]
 241 00b6 002B     		cmp	r3, #0
 242 00b8 12D0     		beq	.L11
 103:..\..\..\lvgl\version_6.1.2\lvgl\src\lv_objx/lv_tileview.c ****             w = lv_obj_get_width_fit(lv_obj_get_parent(new_tileview));
 243              		.loc 3 103 0
 244 00ba B869     		ldr	r0, [r7, #24]
ARM GAS  C:\Users\tmj32\AppData\Local\Temp\cctNeIsL.s 			page 13


 245 00bc FFF7FEFF 		bl	lv_obj_get_parent
 246 00c0 0346     		mov	r3, r0
 247 00c2 1846     		mov	r0, r3
 248 00c4 FFF7FEFF 		bl	lv_obj_get_width_fit
 249 00c8 0346     		mov	r3, r0
 250 00ca FB83     		strh	r3, [r7, #30]	@ movhi
 104:..\..\..\lvgl\version_6.1.2\lvgl\src\lv_objx/lv_tileview.c ****             h = lv_obj_get_height_fit(lv_obj_get_parent(new_tileview));
 251              		.loc 3 104 0
 252 00cc B869     		ldr	r0, [r7, #24]
 253 00ce FFF7FEFF 		bl	lv_obj_get_parent
 254 00d2 0346     		mov	r3, r0
 255 00d4 1846     		mov	r0, r3
 256 00d6 FFF7FEFF 		bl	lv_obj_get_height_fit
 257 00da 0346     		mov	r3, r0
 258 00dc BB83     		strh	r3, [r7, #28]	@ movhi
 259 00de 09E0     		b	.L12
 260              	.L11:
 105:..\..\..\lvgl\version_6.1.2\lvgl\src\lv_objx/lv_tileview.c ****         } else {
 106:..\..\..\lvgl\version_6.1.2\lvgl\src\lv_objx/lv_tileview.c ****             w = lv_disp_get_hor_res(NULL);
 261              		.loc 3 106 0
 262 00e0 0020     		movs	r0, #0
 263 00e2 FFF7FEFF 		bl	lv_disp_get_hor_res
 264 00e6 0346     		mov	r3, r0
 265 00e8 FB83     		strh	r3, [r7, #30]	@ movhi
 107:..\..\..\lvgl\version_6.1.2\lvgl\src\lv_objx/lv_tileview.c ****             h = lv_disp_get_ver_res(NULL);
 266              		.loc 3 107 0
 267 00ea 0020     		movs	r0, #0
 268 00ec FFF7FEFF 		bl	lv_disp_get_ver_res
 269 00f0 0346     		mov	r3, r0
 270 00f2 BB83     		strh	r3, [r7, #28]	@ movhi
 271              	.L12:
 108:..\..\..\lvgl\version_6.1.2\lvgl\src\lv_objx/lv_tileview.c ****         }
 109:..\..\..\lvgl\version_6.1.2\lvgl\src\lv_objx/lv_tileview.c **** 
 110:..\..\..\lvgl\version_6.1.2\lvgl\src\lv_objx/lv_tileview.c ****         lv_obj_set_size(new_tileview, w, h);
 272              		.loc 3 110 0
 273 00f4 B7F91C20 		ldrsh	r2, [r7, #28]
 274 00f8 B7F91E30 		ldrsh	r3, [r7, #30]
 275 00fc 1946     		mov	r1, r3
 276 00fe B869     		ldr	r0, [r7, #24]
 277 0100 FFF7FEFF 		bl	lv_obj_set_size
 111:..\..\..\lvgl\version_6.1.2\lvgl\src\lv_objx/lv_tileview.c **** 
 112:..\..\..\lvgl\version_6.1.2\lvgl\src\lv_objx/lv_tileview.c ****         lv_obj_set_drag_throw(lv_page_get_scrl(new_tileview), false);
 278              		.loc 3 112 0
 279 0104 B869     		ldr	r0, [r7, #24]
 280 0106 FFF7FEFF 		bl	lv_page_get_scrl
 281 010a 0346     		mov	r3, r0
 282 010c 0021     		movs	r1, #0
 283 010e 1846     		mov	r0, r3
 284 0110 FFF7FEFF 		bl	lv_obj_set_drag_throw
 113:..\..\..\lvgl\version_6.1.2\lvgl\src\lv_objx/lv_tileview.c ****         lv_page_set_scrl_fit(new_tileview, LV_FIT_TIGHT);
 285              		.loc 3 113 0
 286 0114 0121     		movs	r1, #1
 287 0116 B869     		ldr	r0, [r7, #24]
 288 0118 FFF7FEFF 		bl	lv_page_set_scrl_fit
 114:..\..\..\lvgl\version_6.1.2\lvgl\src\lv_objx/lv_tileview.c ****         lv_obj_set_event_cb(ext->page.scrl, tileview_scrl_event_cb);
 289              		.loc 3 114 0
 290 011c 7B69     		ldr	r3, [r7, #20]
ARM GAS  C:\Users\tmj32\AppData\Local\Temp\cctNeIsL.s 			page 14


 291 011e 5B68     		ldr	r3, [r3, #4]
 292 0120 2C49     		ldr	r1, .L16+20
 293 0122 1846     		mov	r0, r3
 294 0124 FFF7FEFF 		bl	lv_obj_set_event_cb
 115:..\..\..\lvgl\version_6.1.2\lvgl\src\lv_objx/lv_tileview.c ****         /*Set the default styles*/
 116:..\..\..\lvgl\version_6.1.2\lvgl\src\lv_objx/lv_tileview.c ****         lv_theme_t * th = lv_theme_get_current();
 295              		.loc 3 116 0
 296 0128 FFF7FEFF 		bl	lv_theme_get_current
 297 012c 3861     		str	r0, [r7, #16]
 117:..\..\..\lvgl\version_6.1.2\lvgl\src\lv_objx/lv_tileview.c ****         if(th) {
 298              		.loc 3 117 0
 299 012e 3B69     		ldr	r3, [r7, #16]
 300 0130 002B     		cmp	r3, #0
 301 0132 18D0     		beq	.L13
 118:..\..\..\lvgl\version_6.1.2\lvgl\src\lv_objx/lv_tileview.c ****             lv_page_set_style(new_tileview, LV_PAGE_STYLE_BG, th->style.tileview.bg);
 302              		.loc 3 118 0
 303 0134 3B69     		ldr	r3, [r7, #16]
 304 0136 D3F87C31 		ldr	r3, [r3, #380]
 305 013a 1A46     		mov	r2, r3
 306 013c 0021     		movs	r1, #0
 307 013e B869     		ldr	r0, [r7, #24]
 308 0140 FFF7FEFF 		bl	lv_page_set_style
 119:..\..\..\lvgl\version_6.1.2\lvgl\src\lv_objx/lv_tileview.c ****             lv_page_set_style(new_tileview, LV_PAGE_STYLE_SCRL, th->style.tileview.scrl);
 309              		.loc 3 119 0
 310 0144 3B69     		ldr	r3, [r7, #16]
 311 0146 D3F88031 		ldr	r3, [r3, #384]
 312 014a 1A46     		mov	r2, r3
 313 014c 0121     		movs	r1, #1
 314 014e B869     		ldr	r0, [r7, #24]
 315 0150 FFF7FEFF 		bl	lv_page_set_style
 120:..\..\..\lvgl\version_6.1.2\lvgl\src\lv_objx/lv_tileview.c ****             lv_page_set_style(new_tileview, LV_PAGE_STYLE_SB, th->style.tileview.sb);
 316              		.loc 3 120 0
 317 0154 3B69     		ldr	r3, [r7, #16]
 318 0156 D3F88431 		ldr	r3, [r3, #388]
 319 015a 1A46     		mov	r2, r3
 320 015c 0221     		movs	r1, #2
 321 015e B869     		ldr	r0, [r7, #24]
 322 0160 FFF7FEFF 		bl	lv_page_set_style
 323 0164 27E0     		b	.L15
 324              	.L13:
 121:..\..\..\lvgl\version_6.1.2\lvgl\src\lv_objx/lv_tileview.c ****         } else {
 122:..\..\..\lvgl\version_6.1.2\lvgl\src\lv_objx/lv_tileview.c ****             lv_page_set_style(new_tileview, LV_PAGE_STYLE_BG, &lv_style_transp_tight);
 325              		.loc 3 122 0
 326 0166 1C4A     		ldr	r2, .L16+24
 327 0168 0021     		movs	r1, #0
 328 016a B869     		ldr	r0, [r7, #24]
 329 016c FFF7FEFF 		bl	lv_page_set_style
 123:..\..\..\lvgl\version_6.1.2\lvgl\src\lv_objx/lv_tileview.c ****             lv_page_set_style(new_tileview, LV_PAGE_STYLE_SCRL, &lv_style_transp_tight);
 330              		.loc 3 123 0
 331 0170 194A     		ldr	r2, .L16+24
 332 0172 0121     		movs	r1, #1
 333 0174 B869     		ldr	r0, [r7, #24]
 334 0176 FFF7FEFF 		bl	lv_page_set_style
 335 017a 1CE0     		b	.L15
 336              	.L10:
 337              	.LBE2:
 338              	.LBB3:
ARM GAS  C:\Users\tmj32\AppData\Local\Temp\cctNeIsL.s 			page 15


 124:..\..\..\lvgl\version_6.1.2\lvgl\src\lv_objx/lv_tileview.c ****         }
 125:..\..\..\lvgl\version_6.1.2\lvgl\src\lv_objx/lv_tileview.c ****     }
 126:..\..\..\lvgl\version_6.1.2\lvgl\src\lv_objx/lv_tileview.c ****     /*Copy an existing tileview*/
 127:..\..\..\lvgl\version_6.1.2\lvgl\src\lv_objx/lv_tileview.c ****     else {
 128:..\..\..\lvgl\version_6.1.2\lvgl\src\lv_objx/lv_tileview.c ****         lv_tileview_ext_t * copy_ext = lv_obj_get_ext_attr(copy);
 339              		.loc 3 128 0
 340 017c 3868     		ldr	r0, [r7]
 341 017e FFF7FEFF 		bl	lv_obj_get_ext_attr
 342 0182 F860     		str	r0, [r7, #12]
 129:..\..\..\lvgl\version_6.1.2\lvgl\src\lv_objx/lv_tileview.c ****         ext->act_id.x                = copy_ext->act_id.x;
 343              		.loc 3 129 0
 344 0184 FB68     		ldr	r3, [r7, #12]
 345 0186 B3F93820 		ldrsh	r2, [r3, #56]
 346 018a 7B69     		ldr	r3, [r7, #20]
 347 018c 1A87     		strh	r2, [r3, #56]	@ movhi
 130:..\..\..\lvgl\version_6.1.2\lvgl\src\lv_objx/lv_tileview.c ****         ext->act_id.y                = copy_ext->act_id.y;
 348              		.loc 3 130 0
 349 018e FB68     		ldr	r3, [r7, #12]
 350 0190 B3F93A20 		ldrsh	r2, [r3, #58]
 351 0194 7B69     		ldr	r3, [r7, #20]
 352 0196 5A87     		strh	r2, [r3, #58]	@ movhi
 131:..\..\..\lvgl\version_6.1.2\lvgl\src\lv_objx/lv_tileview.c ****         ext->valid_pos               = copy_ext->valid_pos;
 353              		.loc 3 131 0
 354 0198 FB68     		ldr	r3, [r7, #12]
 355 019a 1A6B     		ldr	r2, [r3, #48]
 356 019c 7B69     		ldr	r3, [r7, #20]
 357 019e 1A63     		str	r2, [r3, #48]
 132:..\..\..\lvgl\version_6.1.2\lvgl\src\lv_objx/lv_tileview.c ****         ext->valid_pos_cnt           = copy_ext->valid_pos_cnt;
 358              		.loc 3 132 0
 359 01a0 FB68     		ldr	r3, [r7, #12]
 360 01a2 9A8E     		ldrh	r2, [r3, #52]
 361 01a4 7B69     		ldr	r3, [r7, #20]
 362 01a6 9A86     		strh	r2, [r3, #52]	@ movhi
 133:..\..\..\lvgl\version_6.1.2\lvgl\src\lv_objx/lv_tileview.c **** #if LV_USE_ANIMATION
 134:..\..\..\lvgl\version_6.1.2\lvgl\src\lv_objx/lv_tileview.c ****         ext->anim_time = copy_ext->anim_time;
 363              		.loc 3 134 0
 364 01a8 FB68     		ldr	r3, [r7, #12]
 365 01aa DA8E     		ldrh	r2, [r3, #54]
 366 01ac 7B69     		ldr	r3, [r7, #20]
 367 01ae DA86     		strh	r2, [r3, #54]	@ movhi
 135:..\..\..\lvgl\version_6.1.2\lvgl\src\lv_objx/lv_tileview.c **** #endif
 136:..\..\..\lvgl\version_6.1.2\lvgl\src\lv_objx/lv_tileview.c **** 
 137:..\..\..\lvgl\version_6.1.2\lvgl\src\lv_objx/lv_tileview.c ****         /*Refresh the style with new signal function*/
 138:..\..\..\lvgl\version_6.1.2\lvgl\src\lv_objx/lv_tileview.c ****         lv_obj_refresh_style(new_tileview);
 368              		.loc 3 138 0
 369 01b0 B869     		ldr	r0, [r7, #24]
 370 01b2 FFF7FEFF 		bl	lv_obj_refresh_style
 371              	.L15:
 372              	.LBE3:
 139:..\..\..\lvgl\version_6.1.2\lvgl\src\lv_objx/lv_tileview.c ****     }
 140:..\..\..\lvgl\version_6.1.2\lvgl\src\lv_objx/lv_tileview.c **** 
 141:..\..\..\lvgl\version_6.1.2\lvgl\src\lv_objx/lv_tileview.c ****     LV_LOG_INFO("tileview created");
 142:..\..\..\lvgl\version_6.1.2\lvgl\src\lv_objx/lv_tileview.c **** 
 143:..\..\..\lvgl\version_6.1.2\lvgl\src\lv_objx/lv_tileview.c ****     return new_tileview;
 373              		.loc 3 143 0
 374 01b6 BB69     		ldr	r3, [r7, #24]
 375              	.L5:
ARM GAS  C:\Users\tmj32\AppData\Local\Temp\cctNeIsL.s 			page 16


 144:..\..\..\lvgl\version_6.1.2\lvgl\src\lv_objx/lv_tileview.c **** }
 376              		.loc 3 144 0
 377 01b8 1846     		mov	r0, r3
 378 01ba 2037     		adds	r7, r7, #32
 379              		.cfi_def_cfa_offset 8
 380 01bc BD46     		mov	sp, r7
 381              		.cfi_def_cfa_register 13
 382              		@ sp needed
 383 01be 80BD     		pop	{r7, pc}
 384              	.L17:
 385              		.align	2
 386              	.L16:
 387 01c0 00000000 		.word	ancestor_signal
 388 01c4 04000000 		.word	ancestor_scrl_signal
 389 01c8 08000000 		.word	ancestor_design
 390 01cc 00000000 		.word	lv_tileview_signal
 391 01d0 00000000 		.word	lv_tileview_scrl_signal
 392 01d4 00000000 		.word	tileview_scrl_event_cb
 393 01d8 00000000 		.word	lv_style_transp_tight
 394              		.cfi_endproc
 395              	.LFE52:
 396              		.size	lv_tileview_create, .-lv_tileview_create
 397              		.section	.text.lv_tileview_add_element,"ax",%progbits
 398              		.align	2
 399              		.global	lv_tileview_add_element
 400              		.thumb
 401              		.thumb_func
 402              		.type	lv_tileview_add_element, %function
 403              	lv_tileview_add_element:
 404              	.LFB53:
 145:..\..\..\lvgl\version_6.1.2\lvgl\src\lv_objx/lv_tileview.c **** 
 146:..\..\..\lvgl\version_6.1.2\lvgl\src\lv_objx/lv_tileview.c **** /*======================
 147:..\..\..\lvgl\version_6.1.2\lvgl\src\lv_objx/lv_tileview.c ****  * Add/remove functions
 148:..\..\..\lvgl\version_6.1.2\lvgl\src\lv_objx/lv_tileview.c ****  *=====================*/
 149:..\..\..\lvgl\version_6.1.2\lvgl\src\lv_objx/lv_tileview.c **** 
 150:..\..\..\lvgl\version_6.1.2\lvgl\src\lv_objx/lv_tileview.c **** /**
 151:..\..\..\lvgl\version_6.1.2\lvgl\src\lv_objx/lv_tileview.c ****  * Register an object on the tileview. The register object will able to slide the tileview
 152:..\..\..\lvgl\version_6.1.2\lvgl\src\lv_objx/lv_tileview.c ****  * @param tileview pointer to a Tileview object
 153:..\..\..\lvgl\version_6.1.2\lvgl\src\lv_objx/lv_tileview.c ****  * @param element pointer to an object
 154:..\..\..\lvgl\version_6.1.2\lvgl\src\lv_objx/lv_tileview.c ****  */
 155:..\..\..\lvgl\version_6.1.2\lvgl\src\lv_objx/lv_tileview.c **** void lv_tileview_add_element(lv_obj_t * tileview, lv_obj_t * element)
 156:..\..\..\lvgl\version_6.1.2\lvgl\src\lv_objx/lv_tileview.c **** {
 405              		.loc 3 156 0
 406              		.cfi_startproc
 407              		@ args = 0, pretend = 0, frame = 16
 408              		@ frame_needed = 1, uses_anonymous_args = 0
 409 0000 80B5     		push	{r7, lr}
 410              		.cfi_def_cfa_offset 8
 411              		.cfi_offset 7, -8
 412              		.cfi_offset 14, -4
 413 0002 84B0     		sub	sp, sp, #16
 414              		.cfi_def_cfa_offset 24
 415 0004 00AF     		add	r7, sp, #0
 416              		.cfi_def_cfa_register 7
 417 0006 7860     		str	r0, [r7, #4]
 418 0008 3960     		str	r1, [r7]
 157:..\..\..\lvgl\version_6.1.2\lvgl\src\lv_objx/lv_tileview.c ****     LV_ASSERT_OBJ(tileview, LV_OBJX_NAME);
ARM GAS  C:\Users\tmj32\AppData\Local\Temp\cctNeIsL.s 			page 17


 158:..\..\..\lvgl\version_6.1.2\lvgl\src\lv_objx/lv_tileview.c ****     LV_ASSERT_NULL(tileview);
 159:..\..\..\lvgl\version_6.1.2\lvgl\src\lv_objx/lv_tileview.c **** 
 160:..\..\..\lvgl\version_6.1.2\lvgl\src\lv_objx/lv_tileview.c ****     /* Let the objects event to propagate to the scrollable part of the tileview.
 161:..\..\..\lvgl\version_6.1.2\lvgl\src\lv_objx/lv_tileview.c ****      * It is required the handle dargging of the tileview with the element.*/
 162:..\..\..\lvgl\version_6.1.2\lvgl\src\lv_objx/lv_tileview.c ****     element->parent_event = 1;
 419              		.loc 3 162 0
 420 000a 3A68     		ldr	r2, [r7]
 421 000c 92F82C30 		ldrb	r3, [r2, #44]
 422 0010 43F08003 		orr	r3, r3, #128
 423 0014 82F82C30 		strb	r3, [r2, #44]
 163:..\..\..\lvgl\version_6.1.2\lvgl\src\lv_objx/lv_tileview.c ****     lv_obj_set_drag_parent(element, true);
 424              		.loc 3 163 0
 425 0018 0121     		movs	r1, #1
 426 001a 3868     		ldr	r0, [r7]
 427 001c FFF7FEFF 		bl	lv_obj_set_drag_parent
 164:..\..\..\lvgl\version_6.1.2\lvgl\src\lv_objx/lv_tileview.c **** 
 165:..\..\..\lvgl\version_6.1.2\lvgl\src\lv_objx/lv_tileview.c ****     /* When adding a new element the coordinates may shift.
 166:..\..\..\lvgl\version_6.1.2\lvgl\src\lv_objx/lv_tileview.c ****      * For example y=1 can become y=1 if an element is added to the top.
 167:..\..\..\lvgl\version_6.1.2\lvgl\src\lv_objx/lv_tileview.c ****      * So be sure the current tile is correctly shown*/
 168:..\..\..\lvgl\version_6.1.2\lvgl\src\lv_objx/lv_tileview.c ****     lv_tileview_ext_t * ext = lv_obj_get_ext_attr(tileview);
 428              		.loc 3 168 0
 429 0020 7868     		ldr	r0, [r7, #4]
 430 0022 FFF7FEFF 		bl	lv_obj_get_ext_attr
 431 0026 F860     		str	r0, [r7, #12]
 169:..\..\..\lvgl\version_6.1.2\lvgl\src\lv_objx/lv_tileview.c ****     lv_tileview_set_tile_act(tileview, ext->act_id.x, ext->act_id.y, false);
 432              		.loc 3 169 0
 433 0028 FB68     		ldr	r3, [r7, #12]
 434 002a B3F93810 		ldrsh	r1, [r3, #56]
 435 002e FB68     		ldr	r3, [r7, #12]
 436 0030 B3F93A20 		ldrsh	r2, [r3, #58]
 437 0034 0023     		movs	r3, #0
 438 0036 7868     		ldr	r0, [r7, #4]
 439 0038 FFF7FEFF 		bl	lv_tileview_set_tile_act
 170:..\..\..\lvgl\version_6.1.2\lvgl\src\lv_objx/lv_tileview.c **** }
 440              		.loc 3 170 0
 441 003c 00BF     		nop
 442 003e 1037     		adds	r7, r7, #16
 443              		.cfi_def_cfa_offset 8
 444 0040 BD46     		mov	sp, r7
 445              		.cfi_def_cfa_register 13
 446              		@ sp needed
 447 0042 80BD     		pop	{r7, pc}
 448              		.cfi_endproc
 449              	.LFE53:
 450              		.size	lv_tileview_add_element, .-lv_tileview_add_element
 451              		.section	.text.lv_tileview_set_valid_positions,"ax",%progbits
 452              		.align	2
 453              		.global	lv_tileview_set_valid_positions
 454              		.thumb
 455              		.thumb_func
 456              		.type	lv_tileview_set_valid_positions, %function
 457              	lv_tileview_set_valid_positions:
 458              	.LFB54:
 171:..\..\..\lvgl\version_6.1.2\lvgl\src\lv_objx/lv_tileview.c **** 
 172:..\..\..\lvgl\version_6.1.2\lvgl\src\lv_objx/lv_tileview.c **** /*=====================
 173:..\..\..\lvgl\version_6.1.2\lvgl\src\lv_objx/lv_tileview.c ****  * Setter functions
 174:..\..\..\lvgl\version_6.1.2\lvgl\src\lv_objx/lv_tileview.c ****  *====================*/
ARM GAS  C:\Users\tmj32\AppData\Local\Temp\cctNeIsL.s 			page 18


 175:..\..\..\lvgl\version_6.1.2\lvgl\src\lv_objx/lv_tileview.c **** 
 176:..\..\..\lvgl\version_6.1.2\lvgl\src\lv_objx/lv_tileview.c **** /**
 177:..\..\..\lvgl\version_6.1.2\lvgl\src\lv_objx/lv_tileview.c ****  * Set the valid position's indices. The scrolling will be possible only to these positions.
 178:..\..\..\lvgl\version_6.1.2\lvgl\src\lv_objx/lv_tileview.c ****  * @param tileview pointer to a Tileview object
 179:..\..\..\lvgl\version_6.1.2\lvgl\src\lv_objx/lv_tileview.c ****  * @param valid_pos array width the indices. E.g. `lv_point_t p[] = {{0,0}, {1,0}, {1,1}`.
 180:..\..\..\lvgl\version_6.1.2\lvgl\src\lv_objx/lv_tileview.c ****  * Only the pointer is saved so can't be a local variable.
 181:..\..\..\lvgl\version_6.1.2\lvgl\src\lv_objx/lv_tileview.c ****  * @param valid_pos_cnt numner of elements in `valid_pos` array
 182:..\..\..\lvgl\version_6.1.2\lvgl\src\lv_objx/lv_tileview.c ****  */
 183:..\..\..\lvgl\version_6.1.2\lvgl\src\lv_objx/lv_tileview.c **** void lv_tileview_set_valid_positions(lv_obj_t * tileview, const lv_point_t valid_pos[], uint16_t va
 184:..\..\..\lvgl\version_6.1.2\lvgl\src\lv_objx/lv_tileview.c **** {
 459              		.loc 3 184 0
 460              		.cfi_startproc
 461              		@ args = 0, pretend = 0, frame = 24
 462              		@ frame_needed = 1, uses_anonymous_args = 0
 463 0000 80B5     		push	{r7, lr}
 464              		.cfi_def_cfa_offset 8
 465              		.cfi_offset 7, -8
 466              		.cfi_offset 14, -4
 467 0002 86B0     		sub	sp, sp, #24
 468              		.cfi_def_cfa_offset 32
 469 0004 00AF     		add	r7, sp, #0
 470              		.cfi_def_cfa_register 7
 471 0006 F860     		str	r0, [r7, #12]
 472 0008 B960     		str	r1, [r7, #8]
 473 000a 1346     		mov	r3, r2
 474 000c FB80     		strh	r3, [r7, #6]	@ movhi
 185:..\..\..\lvgl\version_6.1.2\lvgl\src\lv_objx/lv_tileview.c ****     LV_ASSERT_OBJ(tileview, LV_OBJX_NAME);
 186:..\..\..\lvgl\version_6.1.2\lvgl\src\lv_objx/lv_tileview.c ****     LV_ASSERT_NULL(valid_pos);
 187:..\..\..\lvgl\version_6.1.2\lvgl\src\lv_objx/lv_tileview.c **** 
 188:..\..\..\lvgl\version_6.1.2\lvgl\src\lv_objx/lv_tileview.c ****     lv_tileview_ext_t * ext = lv_obj_get_ext_attr(tileview);
 475              		.loc 3 188 0
 476 000e F868     		ldr	r0, [r7, #12]
 477 0010 FFF7FEFF 		bl	lv_obj_get_ext_attr
 478 0014 3861     		str	r0, [r7, #16]
 189:..\..\..\lvgl\version_6.1.2\lvgl\src\lv_objx/lv_tileview.c ****     ext->valid_pos          = valid_pos;
 479              		.loc 3 189 0
 480 0016 3B69     		ldr	r3, [r7, #16]
 481 0018 BA68     		ldr	r2, [r7, #8]
 482 001a 1A63     		str	r2, [r3, #48]
 190:..\..\..\lvgl\version_6.1.2\lvgl\src\lv_objx/lv_tileview.c ****     ext->valid_pos_cnt      = valid_pos_cnt;
 483              		.loc 3 190 0
 484 001c 3B69     		ldr	r3, [r7, #16]
 485 001e FA88     		ldrh	r2, [r7, #6]	@ movhi
 486 0020 9A86     		strh	r2, [r3, #52]	@ movhi
 191:..\..\..\lvgl\version_6.1.2\lvgl\src\lv_objx/lv_tileview.c **** 
 192:..\..\..\lvgl\version_6.1.2\lvgl\src\lv_objx/lv_tileview.c ****     /*If valid pos. is selected do nothing*/
 193:..\..\..\lvgl\version_6.1.2\lvgl\src\lv_objx/lv_tileview.c ****     uint16_t i;
 194:..\..\..\lvgl\version_6.1.2\lvgl\src\lv_objx/lv_tileview.c ****     for(i = 0; i < valid_pos_cnt; i++) {
 487              		.loc 3 194 0
 488 0022 0023     		movs	r3, #0
 489 0024 FB82     		strh	r3, [r7, #22]	@ movhi
 490 0026 18E0     		b	.L20
 491              	.L23:
 195:..\..\..\lvgl\version_6.1.2\lvgl\src\lv_objx/lv_tileview.c ****         if(valid_pos[i].x == ext->act_id.x && valid_pos[i].y == ext->act_id.y) {
 492              		.loc 3 195 0
 493 0028 FB8A     		ldrh	r3, [r7, #22]
 494 002a 9B00     		lsls	r3, r3, #2
ARM GAS  C:\Users\tmj32\AppData\Local\Temp\cctNeIsL.s 			page 19


 495 002c BA68     		ldr	r2, [r7, #8]
 496 002e 1344     		add	r3, r3, r2
 497 0030 B3F90020 		ldrsh	r2, [r3]
 498 0034 3B69     		ldr	r3, [r7, #16]
 499 0036 B3F93830 		ldrsh	r3, [r3, #56]
 500 003a 9A42     		cmp	r2, r3
 501 003c 0AD1     		bne	.L21
 502              		.loc 3 195 0 is_stmt 0 discriminator 1
 503 003e FB8A     		ldrh	r3, [r7, #22]
 504 0040 9B00     		lsls	r3, r3, #2
 505 0042 BA68     		ldr	r2, [r7, #8]
 506 0044 1344     		add	r3, r3, r2
 507 0046 B3F90220 		ldrsh	r2, [r3, #2]
 508 004a 3B69     		ldr	r3, [r7, #16]
 509 004c B3F93A30 		ldrsh	r3, [r3, #58]
 510 0050 9A42     		cmp	r2, r3
 511 0052 14D0     		beq	.L24
 512              	.L21:
 194:..\..\..\lvgl\version_6.1.2\lvgl\src\lv_objx/lv_tileview.c ****         if(valid_pos[i].x == ext->act_id.x && valid_pos[i].y == ext->act_id.y) {
 513              		.loc 3 194 0 is_stmt 1 discriminator 2
 514 0054 FB8A     		ldrh	r3, [r7, #22]
 515 0056 0133     		adds	r3, r3, #1
 516 0058 FB82     		strh	r3, [r7, #22]	@ movhi
 517              	.L20:
 194:..\..\..\lvgl\version_6.1.2\lvgl\src\lv_objx/lv_tileview.c ****         if(valid_pos[i].x == ext->act_id.x && valid_pos[i].y == ext->act_id.y) {
 518              		.loc 3 194 0 is_stmt 0 discriminator 1
 519 005a FA8A     		ldrh	r2, [r7, #22]
 520 005c FB88     		ldrh	r3, [r7, #6]
 521 005e 9A42     		cmp	r2, r3
 522 0060 E2D3     		bcc	.L23
 196:..\..\..\lvgl\version_6.1.2\lvgl\src\lv_objx/lv_tileview.c ****             return;
 197:..\..\..\lvgl\version_6.1.2\lvgl\src\lv_objx/lv_tileview.c ****         }
 198:..\..\..\lvgl\version_6.1.2\lvgl\src\lv_objx/lv_tileview.c ****     }
 199:..\..\..\lvgl\version_6.1.2\lvgl\src\lv_objx/lv_tileview.c **** 
 200:..\..\..\lvgl\version_6.1.2\lvgl\src\lv_objx/lv_tileview.c ****     /*Set a valid position if now an invalid is selected*/
 201:..\..\..\lvgl\version_6.1.2\lvgl\src\lv_objx/lv_tileview.c ****     if(valid_pos_cnt > 0) {
 523              		.loc 3 201 0 is_stmt 1
 524 0062 FB88     		ldrh	r3, [r7, #6]
 525 0064 002B     		cmp	r3, #0
 526 0066 0BD0     		beq	.L19
 202:..\..\..\lvgl\version_6.1.2\lvgl\src\lv_objx/lv_tileview.c ****         lv_tileview_set_tile_act(tileview, valid_pos[0].x, valid_pos[0].y, LV_ANIM_OFF);
 527              		.loc 3 202 0
 528 0068 BB68     		ldr	r3, [r7, #8]
 529 006a B3F90010 		ldrsh	r1, [r3]
 530 006e BB68     		ldr	r3, [r7, #8]
 531 0070 B3F90220 		ldrsh	r2, [r3, #2]
 532 0074 0023     		movs	r3, #0
 533 0076 F868     		ldr	r0, [r7, #12]
 534 0078 FFF7FEFF 		bl	lv_tileview_set_tile_act
 535 007c 00E0     		b	.L19
 536              	.L24:
 196:..\..\..\lvgl\version_6.1.2\lvgl\src\lv_objx/lv_tileview.c ****             return;
 537              		.loc 3 196 0
 538 007e 00BF     		nop
 539              	.L19:
 203:..\..\..\lvgl\version_6.1.2\lvgl\src\lv_objx/lv_tileview.c ****     }
 204:..\..\..\lvgl\version_6.1.2\lvgl\src\lv_objx/lv_tileview.c **** }
ARM GAS  C:\Users\tmj32\AppData\Local\Temp\cctNeIsL.s 			page 20


 540              		.loc 3 204 0
 541 0080 1837     		adds	r7, r7, #24
 542              		.cfi_def_cfa_offset 8
 543 0082 BD46     		mov	sp, r7
 544              		.cfi_def_cfa_register 13
 545              		@ sp needed
 546 0084 80BD     		pop	{r7, pc}
 547              		.cfi_endproc
 548              	.LFE54:
 549              		.size	lv_tileview_set_valid_positions, .-lv_tileview_set_valid_positions
 550 0086 00BF     		.section	.text.lv_tileview_set_tile_act,"ax",%progbits
 551              		.align	2
 552              		.global	lv_tileview_set_tile_act
 553              		.thumb
 554              		.thumb_func
 555              		.type	lv_tileview_set_tile_act, %function
 556              	lv_tileview_set_tile_act:
 557              	.LFB55:
 205:..\..\..\lvgl\version_6.1.2\lvgl\src\lv_objx/lv_tileview.c **** 
 206:..\..\..\lvgl\version_6.1.2\lvgl\src\lv_objx/lv_tileview.c **** /**
 207:..\..\..\lvgl\version_6.1.2\lvgl\src\lv_objx/lv_tileview.c ****  * Set the tile to be shown
 208:..\..\..\lvgl\version_6.1.2\lvgl\src\lv_objx/lv_tileview.c ****  * @param tileview pointer to a tileview object
 209:..\..\..\lvgl\version_6.1.2\lvgl\src\lv_objx/lv_tileview.c ****  * @param x column id (0, 1, 2...)
 210:..\..\..\lvgl\version_6.1.2\lvgl\src\lv_objx/lv_tileview.c ****  * @param y line id (0, 1, 2...)
 211:..\..\..\lvgl\version_6.1.2\lvgl\src\lv_objx/lv_tileview.c ****  * @param anim LV_ANIM_ON: set the value with an animation; LV_ANIM_OFF: change the value immediate
 212:..\..\..\lvgl\version_6.1.2\lvgl\src\lv_objx/lv_tileview.c ****  */
 213:..\..\..\lvgl\version_6.1.2\lvgl\src\lv_objx/lv_tileview.c **** void lv_tileview_set_tile_act(lv_obj_t * tileview, lv_coord_t x, lv_coord_t y, lv_anim_enable_t ani
 214:..\..\..\lvgl\version_6.1.2\lvgl\src\lv_objx/lv_tileview.c **** {
 558              		.loc 3 214 0
 559              		.cfi_startproc
 560              		@ args = 0, pretend = 0, frame = 80
 561              		@ frame_needed = 1, uses_anonymous_args = 0
 562 0000 90B5     		push	{r4, r7, lr}
 563              		.cfi_def_cfa_offset 12
 564              		.cfi_offset 4, -12
 565              		.cfi_offset 7, -8
 566              		.cfi_offset 14, -4
 567 0002 95B0     		sub	sp, sp, #84
 568              		.cfi_def_cfa_offset 96
 569 0004 00AF     		add	r7, sp, #0
 570              		.cfi_def_cfa_register 7
 571 0006 F860     		str	r0, [r7, #12]
 572 0008 0846     		mov	r0, r1
 573 000a 1146     		mov	r1, r2
 574 000c 1A46     		mov	r2, r3
 575 000e 0346     		mov	r3, r0	@ movhi
 576 0010 7B81     		strh	r3, [r7, #10]	@ movhi
 577 0012 0B46     		mov	r3, r1	@ movhi
 578 0014 3B81     		strh	r3, [r7, #8]	@ movhi
 579 0016 1346     		mov	r3, r2
 580 0018 FB71     		strb	r3, [r7, #7]
 215:..\..\..\lvgl\version_6.1.2\lvgl\src\lv_objx/lv_tileview.c ****     LV_ASSERT_OBJ(tileview, LV_OBJX_NAME);
 216:..\..\..\lvgl\version_6.1.2\lvgl\src\lv_objx/lv_tileview.c **** 
 217:..\..\..\lvgl\version_6.1.2\lvgl\src\lv_objx/lv_tileview.c **** #if LV_USE_ANIMATION == 0
 218:..\..\..\lvgl\version_6.1.2\lvgl\src\lv_objx/lv_tileview.c ****     anim = LV_ANIM_OFF;
 219:..\..\..\lvgl\version_6.1.2\lvgl\src\lv_objx/lv_tileview.c **** #endif
 220:..\..\..\lvgl\version_6.1.2\lvgl\src\lv_objx/lv_tileview.c **** 
ARM GAS  C:\Users\tmj32\AppData\Local\Temp\cctNeIsL.s 			page 21


 221:..\..\..\lvgl\version_6.1.2\lvgl\src\lv_objx/lv_tileview.c ****     lv_tileview_ext_t * ext = lv_obj_get_ext_attr(tileview);
 581              		.loc 3 221 0
 582 001a F868     		ldr	r0, [r7, #12]
 583 001c FFF7FEFF 		bl	lv_obj_get_ext_attr
 584 0020 B864     		str	r0, [r7, #72]
 222:..\..\..\lvgl\version_6.1.2\lvgl\src\lv_objx/lv_tileview.c **** 
 223:..\..\..\lvgl\version_6.1.2\lvgl\src\lv_objx/lv_tileview.c ****     uint32_t tile_id;
 224:..\..\..\lvgl\version_6.1.2\lvgl\src\lv_objx/lv_tileview.c ****     bool valid = false;
 585              		.loc 3 224 0
 586 0022 0023     		movs	r3, #0
 587 0024 87F84F30 		strb	r3, [r7, #79]
 225:..\..\..\lvgl\version_6.1.2\lvgl\src\lv_objx/lv_tileview.c ****     for(tile_id = 0; tile_id < ext->valid_pos_cnt; tile_id++) {
 588              		.loc 3 225 0
 589 0028 0023     		movs	r3, #0
 590 002a 7B63     		str	r3, [r7, #52]
 591 002c 1CE0     		b	.L26
 592              	.L29:
 226:..\..\..\lvgl\version_6.1.2\lvgl\src\lv_objx/lv_tileview.c ****         if(ext->valid_pos[tile_id].x == x && ext->valid_pos[tile_id].y == y) {
 593              		.loc 3 226 0
 594 002e BB6C     		ldr	r3, [r7, #72]
 595 0030 1A6B     		ldr	r2, [r3, #48]
 596 0032 7B6B     		ldr	r3, [r7, #52]
 597 0034 9B00     		lsls	r3, r3, #2
 598 0036 1344     		add	r3, r3, r2
 599 0038 B3F90030 		ldrsh	r3, [r3]
 600 003c B7F90A20 		ldrsh	r2, [r7, #10]
 601 0040 9A42     		cmp	r2, r3
 602 0042 0ED1     		bne	.L27
 603              		.loc 3 226 0 is_stmt 0 discriminator 1
 604 0044 BB6C     		ldr	r3, [r7, #72]
 605 0046 1A6B     		ldr	r2, [r3, #48]
 606 0048 7B6B     		ldr	r3, [r7, #52]
 607 004a 9B00     		lsls	r3, r3, #2
 608 004c 1344     		add	r3, r3, r2
 609 004e B3F90230 		ldrsh	r3, [r3, #2]
 610 0052 B7F90820 		ldrsh	r2, [r7, #8]
 611 0056 9A42     		cmp	r2, r3
 612 0058 03D1     		bne	.L27
 227:..\..\..\lvgl\version_6.1.2\lvgl\src\lv_objx/lv_tileview.c ****             valid = true;
 613              		.loc 3 227 0 is_stmt 1
 614 005a 0123     		movs	r3, #1
 615 005c 87F84F30 		strb	r3, [r7, #79]
 228:..\..\..\lvgl\version_6.1.2\lvgl\src\lv_objx/lv_tileview.c ****             break;
 616              		.loc 3 228 0
 617 0060 08E0     		b	.L28
 618              	.L27:
 225:..\..\..\lvgl\version_6.1.2\lvgl\src\lv_objx/lv_tileview.c ****         if(ext->valid_pos[tile_id].x == x && ext->valid_pos[tile_id].y == y) {
 619              		.loc 3 225 0 discriminator 2
 620 0062 7B6B     		ldr	r3, [r7, #52]
 621 0064 0133     		adds	r3, r3, #1
 622 0066 7B63     		str	r3, [r7, #52]
 623              	.L26:
 225:..\..\..\lvgl\version_6.1.2\lvgl\src\lv_objx/lv_tileview.c ****         if(ext->valid_pos[tile_id].x == x && ext->valid_pos[tile_id].y == y) {
 624              		.loc 3 225 0 is_stmt 0 discriminator 1
 625 0068 BB6C     		ldr	r3, [r7, #72]
 626 006a 9B8E     		ldrh	r3, [r3, #52]
 627 006c 1A46     		mov	r2, r3
ARM GAS  C:\Users\tmj32\AppData\Local\Temp\cctNeIsL.s 			page 22


 628 006e 7B6B     		ldr	r3, [r7, #52]
 629 0070 9A42     		cmp	r2, r3
 630 0072 DCD8     		bhi	.L29
 631              	.L28:
 229:..\..\..\lvgl\version_6.1.2\lvgl\src\lv_objx/lv_tileview.c ****         }
 230:..\..\..\lvgl\version_6.1.2\lvgl\src\lv_objx/lv_tileview.c ****     }
 231:..\..\..\lvgl\version_6.1.2\lvgl\src\lv_objx/lv_tileview.c **** 
 232:..\..\..\lvgl\version_6.1.2\lvgl\src\lv_objx/lv_tileview.c ****     if(valid == false) return; /*Don't load not valid tiles*/
 632              		.loc 3 232 0 is_stmt 1
 633 0074 97F84F30 		ldrb	r3, [r7, #79]
 634 0078 83F00103 		eor	r3, r3, #1
 635 007c DBB2     		uxtb	r3, r3
 636 007e 002B     		cmp	r3, #0
 637 0080 40F08E80 		bne	.L38
 233:..\..\..\lvgl\version_6.1.2\lvgl\src\lv_objx/lv_tileview.c **** 
 234:..\..\..\lvgl\version_6.1.2\lvgl\src\lv_objx/lv_tileview.c ****     ext->act_id.x = x;
 638              		.loc 3 234 0
 639 0084 BB6C     		ldr	r3, [r7, #72]
 640 0086 7A89     		ldrh	r2, [r7, #10]	@ movhi
 641 0088 1A87     		strh	r2, [r3, #56]	@ movhi
 235:..\..\..\lvgl\version_6.1.2\lvgl\src\lv_objx/lv_tileview.c ****     ext->act_id.y = y;
 642              		.loc 3 235 0
 643 008a BB6C     		ldr	r3, [r7, #72]
 644 008c 3A89     		ldrh	r2, [r7, #8]	@ movhi
 645 008e 5A87     		strh	r2, [r3, #58]	@ movhi
 236:..\..\..\lvgl\version_6.1.2\lvgl\src\lv_objx/lv_tileview.c **** 
 237:..\..\..\lvgl\version_6.1.2\lvgl\src\lv_objx/lv_tileview.c ****     lv_coord_t x_coord = -x * lv_obj_get_width(tileview);
 646              		.loc 3 237 0
 647 0090 B7F90A30 		ldrsh	r3, [r7, #10]
 648 0094 5B42     		negs	r3, r3
 649 0096 9CB2     		uxth	r4, r3
 650 0098 F868     		ldr	r0, [r7, #12]
 651 009a FFF7FEFF 		bl	lv_obj_get_width
 652 009e 0346     		mov	r3, r0
 653 00a0 9BB2     		uxth	r3, r3
 654 00a2 14FB03F3 		smulbb	r3, r4, r3
 655 00a6 9BB2     		uxth	r3, r3
 656 00a8 A7F84630 		strh	r3, [r7, #70]	@ movhi
 238:..\..\..\lvgl\version_6.1.2\lvgl\src\lv_objx/lv_tileview.c ****     lv_coord_t y_coord = -y * lv_obj_get_height(tileview);
 657              		.loc 3 238 0
 658 00ac B7F90830 		ldrsh	r3, [r7, #8]
 659 00b0 5B42     		negs	r3, r3
 660 00b2 9CB2     		uxth	r4, r3
 661 00b4 F868     		ldr	r0, [r7, #12]
 662 00b6 FFF7FEFF 		bl	lv_obj_get_height
 663 00ba 0346     		mov	r3, r0
 664 00bc 9BB2     		uxth	r3, r3
 665 00be 14FB03F3 		smulbb	r3, r4, r3
 666 00c2 9BB2     		uxth	r3, r3
 667 00c4 A7F84430 		strh	r3, [r7, #68]	@ movhi
 239:..\..\..\lvgl\version_6.1.2\lvgl\src\lv_objx/lv_tileview.c ****     lv_obj_t * scrl    = lv_page_get_scrl(tileview);
 668              		.loc 3 239 0
 669 00c8 F868     		ldr	r0, [r7, #12]
 670 00ca FFF7FEFF 		bl	lv_page_get_scrl
 671 00ce 3864     		str	r0, [r7, #64]
 240:..\..\..\lvgl\version_6.1.2\lvgl\src\lv_objx/lv_tileview.c ****     if(anim) {
 672              		.loc 3 240 0
ARM GAS  C:\Users\tmj32\AppData\Local\Temp\cctNeIsL.s 			page 23


 673 00d0 FB79     		ldrb	r3, [r7, #7]	@ zero_extendqisi2
 674 00d2 002B     		cmp	r3, #0
 675 00d4 4BD0     		beq	.L32
 676              	.LBB4:
 241:..\..\..\lvgl\version_6.1.2\lvgl\src\lv_objx/lv_tileview.c **** #if LV_USE_ANIMATION
 242:..\..\..\lvgl\version_6.1.2\lvgl\src\lv_objx/lv_tileview.c ****         lv_coord_t x_act = lv_obj_get_x(scrl);
 677              		.loc 3 242 0
 678 00d6 386C     		ldr	r0, [r7, #64]
 679 00d8 FFF7FEFF 		bl	lv_obj_get_x
 680 00dc 0346     		mov	r3, r0
 681 00de FB87     		strh	r3, [r7, #62]	@ movhi
 243:..\..\..\lvgl\version_6.1.2\lvgl\src\lv_objx/lv_tileview.c ****         lv_coord_t y_act = lv_obj_get_y(scrl);
 682              		.loc 3 243 0
 683 00e0 386C     		ldr	r0, [r7, #64]
 684 00e2 FFF7FEFF 		bl	lv_obj_get_y
 685 00e6 0346     		mov	r3, r0
 686 00e8 BB87     		strh	r3, [r7, #60]	@ movhi
 244:..\..\..\lvgl\version_6.1.2\lvgl\src\lv_objx/lv_tileview.c **** 
 245:..\..\..\lvgl\version_6.1.2\lvgl\src\lv_objx/lv_tileview.c ****         lv_anim_t a;
 246:..\..\..\lvgl\version_6.1.2\lvgl\src\lv_objx/lv_tileview.c ****         a.var            = scrl;
 687              		.loc 3 246 0
 688 00ea 3B6C     		ldr	r3, [r7, #64]
 689 00ec 3B61     		str	r3, [r7, #16]
 247:..\..\..\lvgl\version_6.1.2\lvgl\src\lv_objx/lv_tileview.c ****         a.exec_cb        = (lv_anim_exec_xcb_t)lv_obj_set_x;
 690              		.loc 3 247 0
 691 00ee 2E4B     		ldr	r3, .L39
 692 00f0 7B61     		str	r3, [r7, #20]
 248:..\..\..\lvgl\version_6.1.2\lvgl\src\lv_objx/lv_tileview.c ****         a.path_cb        = lv_anim_path_linear;
 693              		.loc 3 248 0
 694 00f2 2E4B     		ldr	r3, .L39+4
 695 00f4 BB61     		str	r3, [r7, #24]
 249:..\..\..\lvgl\version_6.1.2\lvgl\src\lv_objx/lv_tileview.c ****         a.ready_cb       = NULL;
 696              		.loc 3 249 0
 697 00f6 0023     		movs	r3, #0
 698 00f8 FB61     		str	r3, [r7, #28]
 250:..\..\..\lvgl\version_6.1.2\lvgl\src\lv_objx/lv_tileview.c ****         a.act_time       = 0;
 699              		.loc 3 250 0
 700 00fa 0023     		movs	r3, #0
 701 00fc 7B85     		strh	r3, [r7, #42]	@ movhi
 251:..\..\..\lvgl\version_6.1.2\lvgl\src\lv_objx/lv_tileview.c ****         a.time           = ext->anim_time;
 702              		.loc 3 251 0
 703 00fe BB6C     		ldr	r3, [r7, #72]
 704 0100 DB8E     		ldrh	r3, [r3, #54]
 705 0102 3B85     		strh	r3, [r7, #40]	@ movhi
 252:..\..\..\lvgl\version_6.1.2\lvgl\src\lv_objx/lv_tileview.c ****         a.playback       = 0;
 706              		.loc 3 252 0
 707 0104 97F83030 		ldrb	r3, [r7, #48]
 708 0108 6FF30003 		bfc	r3, #0, #1
 709 010c 87F83030 		strb	r3, [r7, #48]
 253:..\..\..\lvgl\version_6.1.2\lvgl\src\lv_objx/lv_tileview.c ****         a.playback_pause = 0;
 710              		.loc 3 253 0
 711 0110 0023     		movs	r3, #0
 712 0112 BB85     		strh	r3, [r7, #44]	@ movhi
 254:..\..\..\lvgl\version_6.1.2\lvgl\src\lv_objx/lv_tileview.c ****         a.repeat         = 0;
 713              		.loc 3 254 0
 714 0114 97F83030 		ldrb	r3, [r7, #48]
 715 0118 6FF34103 		bfc	r3, #1, #1
ARM GAS  C:\Users\tmj32\AppData\Local\Temp\cctNeIsL.s 			page 24


 716 011c 87F83030 		strb	r3, [r7, #48]
 255:..\..\..\lvgl\version_6.1.2\lvgl\src\lv_objx/lv_tileview.c ****         a.repeat_pause   = 0;
 717              		.loc 3 255 0
 718 0120 0023     		movs	r3, #0
 719 0122 FB85     		strh	r3, [r7, #46]	@ movhi
 256:..\..\..\lvgl\version_6.1.2\lvgl\src\lv_objx/lv_tileview.c **** 
 257:..\..\..\lvgl\version_6.1.2\lvgl\src\lv_objx/lv_tileview.c ****         if(x_coord != x_act) {
 720              		.loc 3 257 0
 721 0124 B7F94620 		ldrsh	r2, [r7, #70]
 722 0128 B7F93E30 		ldrsh	r3, [r7, #62]
 723 012c 9A42     		cmp	r2, r3
 724 012e 0AD0     		beq	.L33
 258:..\..\..\lvgl\version_6.1.2\lvgl\src\lv_objx/lv_tileview.c ****             a.start = x_act;
 725              		.loc 3 258 0
 726 0130 B7F93E30 		ldrsh	r3, [r7, #62]
 727 0134 3B62     		str	r3, [r7, #32]
 259:..\..\..\lvgl\version_6.1.2\lvgl\src\lv_objx/lv_tileview.c ****             a.end   = x_coord;
 728              		.loc 3 259 0
 729 0136 B7F94630 		ldrsh	r3, [r7, #70]
 730 013a 7B62     		str	r3, [r7, #36]
 260:..\..\..\lvgl\version_6.1.2\lvgl\src\lv_objx/lv_tileview.c ****             lv_anim_create(&a);
 731              		.loc 3 260 0
 732 013c 07F11003 		add	r3, r7, #16
 733 0140 1846     		mov	r0, r3
 734 0142 FFF7FEFF 		bl	lv_anim_create
 735              	.L33:
 261:..\..\..\lvgl\version_6.1.2\lvgl\src\lv_objx/lv_tileview.c ****         }
 262:..\..\..\lvgl\version_6.1.2\lvgl\src\lv_objx/lv_tileview.c **** 
 263:..\..\..\lvgl\version_6.1.2\lvgl\src\lv_objx/lv_tileview.c ****         if(y_coord != y_act) {
 736              		.loc 3 263 0
 737 0146 B7F94420 		ldrsh	r2, [r7, #68]
 738 014a B7F93C30 		ldrsh	r3, [r7, #60]
 739 014e 9A42     		cmp	r2, r3
 740 0150 15D0     		beq	.L35
 264:..\..\..\lvgl\version_6.1.2\lvgl\src\lv_objx/lv_tileview.c ****             a.start   = y_act;
 741              		.loc 3 264 0
 742 0152 B7F93C30 		ldrsh	r3, [r7, #60]
 743 0156 3B62     		str	r3, [r7, #32]
 265:..\..\..\lvgl\version_6.1.2\lvgl\src\lv_objx/lv_tileview.c ****             a.end     = y_coord;
 744              		.loc 3 265 0
 745 0158 B7F94430 		ldrsh	r3, [r7, #68]
 746 015c 7B62     		str	r3, [r7, #36]
 266:..\..\..\lvgl\version_6.1.2\lvgl\src\lv_objx/lv_tileview.c ****             a.exec_cb = (lv_anim_exec_xcb_t)lv_obj_set_y;
 747              		.loc 3 266 0
 748 015e 144B     		ldr	r3, .L39+8
 749 0160 7B61     		str	r3, [r7, #20]
 267:..\..\..\lvgl\version_6.1.2\lvgl\src\lv_objx/lv_tileview.c ****             lv_anim_create(&a);
 750              		.loc 3 267 0
 751 0162 07F11003 		add	r3, r7, #16
 752 0166 1846     		mov	r0, r3
 753 0168 FFF7FEFF 		bl	lv_anim_create
 754 016c 07E0     		b	.L35
 755              	.L32:
 756              	.LBE4:
 268:..\..\..\lvgl\version_6.1.2\lvgl\src\lv_objx/lv_tileview.c ****         }
 269:..\..\..\lvgl\version_6.1.2\lvgl\src\lv_objx/lv_tileview.c **** #endif
 270:..\..\..\lvgl\version_6.1.2\lvgl\src\lv_objx/lv_tileview.c ****     } else {
ARM GAS  C:\Users\tmj32\AppData\Local\Temp\cctNeIsL.s 			page 25


 271:..\..\..\lvgl\version_6.1.2\lvgl\src\lv_objx/lv_tileview.c ****         lv_obj_set_pos(scrl, x_coord, y_coord);
 757              		.loc 3 271 0
 758 016e B7F94420 		ldrsh	r2, [r7, #68]
 759 0172 B7F94630 		ldrsh	r3, [r7, #70]
 760 0176 1946     		mov	r1, r3
 761 0178 386C     		ldr	r0, [r7, #64]
 762 017a FFF7FEFF 		bl	lv_obj_set_pos
 763              	.L35:
 272:..\..\..\lvgl\version_6.1.2\lvgl\src\lv_objx/lv_tileview.c ****     }
 273:..\..\..\lvgl\version_6.1.2\lvgl\src\lv_objx/lv_tileview.c **** 
 274:..\..\..\lvgl\version_6.1.2\lvgl\src\lv_objx/lv_tileview.c ****     lv_res_t res = LV_RES_OK;
 764              		.loc 3 274 0
 765 017e 0123     		movs	r3, #1
 766 0180 87F83B30 		strb	r3, [r7, #59]
 275:..\..\..\lvgl\version_6.1.2\lvgl\src\lv_objx/lv_tileview.c ****     res          = lv_event_send(tileview, LV_EVENT_VALUE_CHANGED, &tile_id);
 767              		.loc 3 275 0
 768 0184 07F13403 		add	r3, r7, #52
 769 0188 1A46     		mov	r2, r3
 770 018a 0E21     		movs	r1, #14
 771 018c F868     		ldr	r0, [r7, #12]
 772 018e FFF7FEFF 		bl	lv_event_send
 773 0192 0346     		mov	r3, r0
 774 0194 87F83B30 		strb	r3, [r7, #59]
 276:..\..\..\lvgl\version_6.1.2\lvgl\src\lv_objx/lv_tileview.c ****     if(res != LV_RES_OK) return; /*Prevent the tile loading*/
 775              		.loc 3 276 0
 776 0198 97F83B30 		ldrb	r3, [r7, #59]	@ zero_extendqisi2
 777 019c 012B     		cmp	r3, #1
 778 019e 00E0     		b	.L25
 779              	.L38:
 232:..\..\..\lvgl\version_6.1.2\lvgl\src\lv_objx/lv_tileview.c **** 
 780              		.loc 3 232 0
 781 01a0 00BF     		nop
 782              	.L25:
 277:..\..\..\lvgl\version_6.1.2\lvgl\src\lv_objx/lv_tileview.c **** }
 783              		.loc 3 277 0
 784 01a2 5437     		adds	r7, r7, #84
 785              		.cfi_def_cfa_offset 12
 786 01a4 BD46     		mov	sp, r7
 787              		.cfi_def_cfa_register 13
 788              		@ sp needed
 789 01a6 90BD     		pop	{r4, r7, pc}
 790              	.L40:
 791              		.align	2
 792              	.L39:
 793 01a8 00000000 		.word	lv_obj_set_x
 794 01ac 00000000 		.word	lv_anim_path_linear
 795 01b0 00000000 		.word	lv_obj_set_y
 796              		.cfi_endproc
 797              	.LFE55:
 798              		.size	lv_tileview_set_tile_act, .-lv_tileview_set_tile_act
 799              		.section	.text.lv_tileview_set_style,"ax",%progbits
 800              		.align	2
 801              		.global	lv_tileview_set_style
 802              		.thumb
 803              		.thumb_func
 804              		.type	lv_tileview_set_style, %function
 805              	lv_tileview_set_style:
ARM GAS  C:\Users\tmj32\AppData\Local\Temp\cctNeIsL.s 			page 26


 806              	.LFB56:
 278:..\..\..\lvgl\version_6.1.2\lvgl\src\lv_objx/lv_tileview.c **** 
 279:..\..\..\lvgl\version_6.1.2\lvgl\src\lv_objx/lv_tileview.c **** /**
 280:..\..\..\lvgl\version_6.1.2\lvgl\src\lv_objx/lv_tileview.c ****  * Set a style of a tileview.
 281:..\..\..\lvgl\version_6.1.2\lvgl\src\lv_objx/lv_tileview.c ****  * @param tileview pointer to tileview object
 282:..\..\..\lvgl\version_6.1.2\lvgl\src\lv_objx/lv_tileview.c ****  * @param type which style should be set
 283:..\..\..\lvgl\version_6.1.2\lvgl\src\lv_objx/lv_tileview.c ****  * @param style pointer to a style
 284:..\..\..\lvgl\version_6.1.2\lvgl\src\lv_objx/lv_tileview.c ****  */
 285:..\..\..\lvgl\version_6.1.2\lvgl\src\lv_objx/lv_tileview.c **** void lv_tileview_set_style(lv_obj_t * tileview, lv_tileview_style_t type, const lv_style_t * style)
 286:..\..\..\lvgl\version_6.1.2\lvgl\src\lv_objx/lv_tileview.c **** {
 807              		.loc 3 286 0
 808              		.cfi_startproc
 809              		@ args = 0, pretend = 0, frame = 16
 810              		@ frame_needed = 1, uses_anonymous_args = 0
 811 0000 80B5     		push	{r7, lr}
 812              		.cfi_def_cfa_offset 8
 813              		.cfi_offset 7, -8
 814              		.cfi_offset 14, -4
 815 0002 84B0     		sub	sp, sp, #16
 816              		.cfi_def_cfa_offset 24
 817 0004 00AF     		add	r7, sp, #0
 818              		.cfi_def_cfa_register 7
 819 0006 F860     		str	r0, [r7, #12]
 820 0008 0B46     		mov	r3, r1
 821 000a 7A60     		str	r2, [r7, #4]
 822 000c FB72     		strb	r3, [r7, #11]
 287:..\..\..\lvgl\version_6.1.2\lvgl\src\lv_objx/lv_tileview.c ****     LV_ASSERT_OBJ(tileview, LV_OBJX_NAME);
 288:..\..\..\lvgl\version_6.1.2\lvgl\src\lv_objx/lv_tileview.c **** 
 289:..\..\..\lvgl\version_6.1.2\lvgl\src\lv_objx/lv_tileview.c ****     switch(type) {
 823              		.loc 3 289 0
 824 000e FB7A     		ldrb	r3, [r7, #11]	@ zero_extendqisi2
 825 0010 002B     		cmp	r3, #0
 826 0012 00D0     		beq	.L43
 290:..\..\..\lvgl\version_6.1.2\lvgl\src\lv_objx/lv_tileview.c ****         case LV_TILEVIEW_STYLE_MAIN: lv_obj_set_style(tileview, style); break;
 291:..\..\..\lvgl\version_6.1.2\lvgl\src\lv_objx/lv_tileview.c ****     }
 292:..\..\..\lvgl\version_6.1.2\lvgl\src\lv_objx/lv_tileview.c **** }
 827              		.loc 3 292 0
 828 0014 04E0     		b	.L44
 829              	.L43:
 290:..\..\..\lvgl\version_6.1.2\lvgl\src\lv_objx/lv_tileview.c ****         case LV_TILEVIEW_STYLE_MAIN: lv_obj_set_style(tileview, style); break;
 830              		.loc 3 290 0
 831 0016 7968     		ldr	r1, [r7, #4]
 832 0018 F868     		ldr	r0, [r7, #12]
 833 001a FFF7FEFF 		bl	lv_obj_set_style
 834 001e 00BF     		nop
 835              	.L44:
 836              		.loc 3 292 0
 837 0020 00BF     		nop
 838 0022 1037     		adds	r7, r7, #16
 839              		.cfi_def_cfa_offset 8
 840 0024 BD46     		mov	sp, r7
 841              		.cfi_def_cfa_register 13
 842              		@ sp needed
 843 0026 80BD     		pop	{r7, pc}
 844              		.cfi_endproc
 845              	.LFE56:
 846              		.size	lv_tileview_set_style, .-lv_tileview_set_style
ARM GAS  C:\Users\tmj32\AppData\Local\Temp\cctNeIsL.s 			page 27


 847              		.section	.text.lv_tileview_get_style,"ax",%progbits
 848              		.align	2
 849              		.global	lv_tileview_get_style
 850              		.thumb
 851              		.thumb_func
 852              		.type	lv_tileview_get_style, %function
 853              	lv_tileview_get_style:
 854              	.LFB57:
 293:..\..\..\lvgl\version_6.1.2\lvgl\src\lv_objx/lv_tileview.c **** 
 294:..\..\..\lvgl\version_6.1.2\lvgl\src\lv_objx/lv_tileview.c **** /*=====================
 295:..\..\..\lvgl\version_6.1.2\lvgl\src\lv_objx/lv_tileview.c ****  * Getter functions
 296:..\..\..\lvgl\version_6.1.2\lvgl\src\lv_objx/lv_tileview.c ****  *====================*/
 297:..\..\..\lvgl\version_6.1.2\lvgl\src\lv_objx/lv_tileview.c **** 
 298:..\..\..\lvgl\version_6.1.2\lvgl\src\lv_objx/lv_tileview.c **** /*
 299:..\..\..\lvgl\version_6.1.2\lvgl\src\lv_objx/lv_tileview.c ****  * New object specific "get" functions come here
 300:..\..\..\lvgl\version_6.1.2\lvgl\src\lv_objx/lv_tileview.c ****  */
 301:..\..\..\lvgl\version_6.1.2\lvgl\src\lv_objx/lv_tileview.c **** 
 302:..\..\..\lvgl\version_6.1.2\lvgl\src\lv_objx/lv_tileview.c **** /**
 303:..\..\..\lvgl\version_6.1.2\lvgl\src\lv_objx/lv_tileview.c ****  * Get style of a tileview.
 304:..\..\..\lvgl\version_6.1.2\lvgl\src\lv_objx/lv_tileview.c ****  * @param tileview pointer to tileview object
 305:..\..\..\lvgl\version_6.1.2\lvgl\src\lv_objx/lv_tileview.c ****  * @param type which style should be get
 306:..\..\..\lvgl\version_6.1.2\lvgl\src\lv_objx/lv_tileview.c ****  * @return style pointer to the style
 307:..\..\..\lvgl\version_6.1.2\lvgl\src\lv_objx/lv_tileview.c ****  */
 308:..\..\..\lvgl\version_6.1.2\lvgl\src\lv_objx/lv_tileview.c **** const lv_style_t * lv_tileview_get_style(const lv_obj_t * tileview, lv_tileview_style_t type)
 309:..\..\..\lvgl\version_6.1.2\lvgl\src\lv_objx/lv_tileview.c **** {
 855              		.loc 3 309 0
 856              		.cfi_startproc
 857              		@ args = 0, pretend = 0, frame = 16
 858              		@ frame_needed = 1, uses_anonymous_args = 0
 859 0000 80B5     		push	{r7, lr}
 860              		.cfi_def_cfa_offset 8
 861              		.cfi_offset 7, -8
 862              		.cfi_offset 14, -4
 863 0002 84B0     		sub	sp, sp, #16
 864              		.cfi_def_cfa_offset 24
 865 0004 00AF     		add	r7, sp, #0
 866              		.cfi_def_cfa_register 7
 867 0006 7860     		str	r0, [r7, #4]
 868 0008 0B46     		mov	r3, r1
 869 000a FB70     		strb	r3, [r7, #3]
 310:..\..\..\lvgl\version_6.1.2\lvgl\src\lv_objx/lv_tileview.c ****     LV_ASSERT_OBJ(tileview, LV_OBJX_NAME);
 311:..\..\..\lvgl\version_6.1.2\lvgl\src\lv_objx/lv_tileview.c **** 
 312:..\..\..\lvgl\version_6.1.2\lvgl\src\lv_objx/lv_tileview.c ****     const lv_style_t * style = NULL;
 870              		.loc 3 312 0
 871 000c 0023     		movs	r3, #0
 872 000e FB60     		str	r3, [r7, #12]
 313:..\..\..\lvgl\version_6.1.2\lvgl\src\lv_objx/lv_tileview.c ****     switch(type) {
 873              		.loc 3 313 0
 874 0010 FB78     		ldrb	r3, [r7, #3]	@ zero_extendqisi2
 875 0012 002B     		cmp	r3, #0
 876 0014 04D1     		bne	.L50
 314:..\..\..\lvgl\version_6.1.2\lvgl\src\lv_objx/lv_tileview.c ****         case LV_TILEVIEW_STYLE_MAIN: style = lv_obj_get_style(tileview); break;
 877              		.loc 3 314 0
 878 0016 7868     		ldr	r0, [r7, #4]
 879 0018 FFF7FEFF 		bl	lv_obj_get_style
 880 001c F860     		str	r0, [r7, #12]
 881 001e 01E0     		b	.L48
ARM GAS  C:\Users\tmj32\AppData\Local\Temp\cctNeIsL.s 			page 28


 882              	.L50:
 315:..\..\..\lvgl\version_6.1.2\lvgl\src\lv_objx/lv_tileview.c ****         default: style = NULL;
 883              		.loc 3 315 0
 884 0020 0023     		movs	r3, #0
 885 0022 FB60     		str	r3, [r7, #12]
 886              	.L48:
 316:..\..\..\lvgl\version_6.1.2\lvgl\src\lv_objx/lv_tileview.c ****     }
 317:..\..\..\lvgl\version_6.1.2\lvgl\src\lv_objx/lv_tileview.c **** 
 318:..\..\..\lvgl\version_6.1.2\lvgl\src\lv_objx/lv_tileview.c ****     return style;
 887              		.loc 3 318 0
 888 0024 FB68     		ldr	r3, [r7, #12]
 319:..\..\..\lvgl\version_6.1.2\lvgl\src\lv_objx/lv_tileview.c **** }
 889              		.loc 3 319 0
 890 0026 1846     		mov	r0, r3
 891 0028 1037     		adds	r7, r7, #16
 892              		.cfi_def_cfa_offset 8
 893 002a BD46     		mov	sp, r7
 894              		.cfi_def_cfa_register 13
 895              		@ sp needed
 896 002c 80BD     		pop	{r7, pc}
 897              		.cfi_endproc
 898              	.LFE57:
 899              		.size	lv_tileview_get_style, .-lv_tileview_get_style
 900 002e 00BF     		.section	.rodata
 901              		.align	2
 902              	.LC0:
 903 0000 6C765F74 		.ascii	"lv_tileview\000"
 903      696C6576 
 903      69657700 
 904              		.section	.text.lv_tileview_signal,"ax",%progbits
 905              		.align	2
 906              		.thumb
 907              		.thumb_func
 908              		.type	lv_tileview_signal, %function
 909              	lv_tileview_signal:
 910              	.LFB58:
 320:..\..\..\lvgl\version_6.1.2\lvgl\src\lv_objx/lv_tileview.c **** 
 321:..\..\..\lvgl\version_6.1.2\lvgl\src\lv_objx/lv_tileview.c **** /*=====================
 322:..\..\..\lvgl\version_6.1.2\lvgl\src\lv_objx/lv_tileview.c ****  * Other functions
 323:..\..\..\lvgl\version_6.1.2\lvgl\src\lv_objx/lv_tileview.c ****  *====================*/
 324:..\..\..\lvgl\version_6.1.2\lvgl\src\lv_objx/lv_tileview.c **** 
 325:..\..\..\lvgl\version_6.1.2\lvgl\src\lv_objx/lv_tileview.c **** /*
 326:..\..\..\lvgl\version_6.1.2\lvgl\src\lv_objx/lv_tileview.c ****  * New object specific "other" functions come here
 327:..\..\..\lvgl\version_6.1.2\lvgl\src\lv_objx/lv_tileview.c ****  */
 328:..\..\..\lvgl\version_6.1.2\lvgl\src\lv_objx/lv_tileview.c **** 
 329:..\..\..\lvgl\version_6.1.2\lvgl\src\lv_objx/lv_tileview.c **** /**********************
 330:..\..\..\lvgl\version_6.1.2\lvgl\src\lv_objx/lv_tileview.c ****  *   STATIC FUNCTIONS
 331:..\..\..\lvgl\version_6.1.2\lvgl\src\lv_objx/lv_tileview.c ****  **********************/
 332:..\..\..\lvgl\version_6.1.2\lvgl\src\lv_objx/lv_tileview.c **** 
 333:..\..\..\lvgl\version_6.1.2\lvgl\src\lv_objx/lv_tileview.c **** /**
 334:..\..\..\lvgl\version_6.1.2\lvgl\src\lv_objx/lv_tileview.c ****  * Signal function of the tileview
 335:..\..\..\lvgl\version_6.1.2\lvgl\src\lv_objx/lv_tileview.c ****  * @param tileview pointer to a tileview object
 336:..\..\..\lvgl\version_6.1.2\lvgl\src\lv_objx/lv_tileview.c ****  * @param sign a signal type from lv_signal_t enum
 337:..\..\..\lvgl\version_6.1.2\lvgl\src\lv_objx/lv_tileview.c ****  * @param param pointer to a signal specific variable
 338:..\..\..\lvgl\version_6.1.2\lvgl\src\lv_objx/lv_tileview.c ****  * @return LV_RES_OK: the object is not deleted in the function; LV_RES_INV: the object is deleted
 339:..\..\..\lvgl\version_6.1.2\lvgl\src\lv_objx/lv_tileview.c ****  */
 340:..\..\..\lvgl\version_6.1.2\lvgl\src\lv_objx/lv_tileview.c **** static lv_res_t lv_tileview_signal(lv_obj_t * tileview, lv_signal_t sign, void * param)
ARM GAS  C:\Users\tmj32\AppData\Local\Temp\cctNeIsL.s 			page 29


 341:..\..\..\lvgl\version_6.1.2\lvgl\src\lv_objx/lv_tileview.c **** {
 911              		.loc 3 341 0
 912              		.cfi_startproc
 913              		@ args = 0, pretend = 0, frame = 24
 914              		@ frame_needed = 1, uses_anonymous_args = 0
 915 0000 80B5     		push	{r7, lr}
 916              		.cfi_def_cfa_offset 8
 917              		.cfi_offset 7, -8
 918              		.cfi_offset 14, -4
 919 0002 86B0     		sub	sp, sp, #24
 920              		.cfi_def_cfa_offset 32
 921 0004 00AF     		add	r7, sp, #0
 922              		.cfi_def_cfa_register 7
 923 0006 F860     		str	r0, [r7, #12]
 924 0008 0B46     		mov	r3, r1
 925 000a 7A60     		str	r2, [r7, #4]
 926 000c FB72     		strb	r3, [r7, #11]
 342:..\..\..\lvgl\version_6.1.2\lvgl\src\lv_objx/lv_tileview.c ****     lv_res_t res;
 343:..\..\..\lvgl\version_6.1.2\lvgl\src\lv_objx/lv_tileview.c **** 
 344:..\..\..\lvgl\version_6.1.2\lvgl\src\lv_objx/lv_tileview.c ****     /* Include the ancient signal function */
 345:..\..\..\lvgl\version_6.1.2\lvgl\src\lv_objx/lv_tileview.c ****     res = ancestor_signal(tileview, sign, param);
 927              		.loc 3 345 0
 928 000e 0D4B     		ldr	r3, .L55
 929 0010 1B68     		ldr	r3, [r3]
 930 0012 F97A     		ldrb	r1, [r7, #11]	@ zero_extendqisi2
 931 0014 7A68     		ldr	r2, [r7, #4]
 932 0016 F868     		ldr	r0, [r7, #12]
 933 0018 9847     		blx	r3
 934 001a 0346     		mov	r3, r0
 935 001c FB75     		strb	r3, [r7, #23]
 346:..\..\..\lvgl\version_6.1.2\lvgl\src\lv_objx/lv_tileview.c ****     if(res != LV_RES_OK) return res;
 936              		.loc 3 346 0
 937 001e FB7D     		ldrb	r3, [r7, #23]	@ zero_extendqisi2
 938 0020 012B     		cmp	r3, #1
 939 0022 01D0     		beq	.L52
 940              		.loc 3 346 0 is_stmt 0 discriminator 1
 941 0024 FB7D     		ldrb	r3, [r7, #23]	@ zero_extendqisi2
 942 0026 09E0     		b	.L53
 943              	.L52:
 347:..\..\..\lvgl\version_6.1.2\lvgl\src\lv_objx/lv_tileview.c ****     if(sign == LV_SIGNAL_GET_TYPE) return lv_obj_handle_get_type_signal(param, LV_OBJX_NAME);
 944              		.loc 3 347 0 is_stmt 1
 945 0028 FB7A     		ldrb	r3, [r7, #11]	@ zero_extendqisi2
 946 002a 072B     		cmp	r3, #7
 947 002c 05D1     		bne	.L54
 948              		.loc 3 347 0 is_stmt 0 discriminator 1
 949 002e 0649     		ldr	r1, .L55+4
 950 0030 7868     		ldr	r0, [r7, #4]
 951 0032 FFF7FEFF 		bl	lv_obj_handle_get_type_signal
 952 0036 0346     		mov	r3, r0
 953 0038 00E0     		b	.L53
 954              	.L54:
 348:..\..\..\lvgl\version_6.1.2\lvgl\src\lv_objx/lv_tileview.c **** 
 349:..\..\..\lvgl\version_6.1.2\lvgl\src\lv_objx/lv_tileview.c ****     if(sign == LV_SIGNAL_CLEANUP) {
 350:..\..\..\lvgl\version_6.1.2\lvgl\src\lv_objx/lv_tileview.c ****         /*Nothing to cleanup. (No dynamically allocated memory in 'ext')*/
 351:..\..\..\lvgl\version_6.1.2\lvgl\src\lv_objx/lv_tileview.c ****     }
 352:..\..\..\lvgl\version_6.1.2\lvgl\src\lv_objx/lv_tileview.c **** 
 353:..\..\..\lvgl\version_6.1.2\lvgl\src\lv_objx/lv_tileview.c ****     return res;
ARM GAS  C:\Users\tmj32\AppData\Local\Temp\cctNeIsL.s 			page 30


 955              		.loc 3 353 0 is_stmt 1
 956 003a FB7D     		ldrb	r3, [r7, #23]	@ zero_extendqisi2
 957              	.L53:
 354:..\..\..\lvgl\version_6.1.2\lvgl\src\lv_objx/lv_tileview.c **** }
 958              		.loc 3 354 0
 959 003c 1846     		mov	r0, r3
 960 003e 1837     		adds	r7, r7, #24
 961              		.cfi_def_cfa_offset 8
 962 0040 BD46     		mov	sp, r7
 963              		.cfi_def_cfa_register 13
 964              		@ sp needed
 965 0042 80BD     		pop	{r7, pc}
 966              	.L56:
 967              		.align	2
 968              	.L55:
 969 0044 00000000 		.word	ancestor_signal
 970 0048 00000000 		.word	.LC0
 971              		.cfi_endproc
 972              	.LFE58:
 973              		.size	lv_tileview_signal, .-lv_tileview_signal
 974              		.section	.rodata
 975              		.align	2
 976              	.LC1:
 977 000c 00       		.ascii	"\000"
 978              		.section	.text.lv_tileview_scrl_signal,"ax",%progbits
 979              		.align	2
 980              		.thumb
 981              		.thumb_func
 982              		.type	lv_tileview_scrl_signal, %function
 983              	lv_tileview_scrl_signal:
 984              	.LFB59:
 355:..\..\..\lvgl\version_6.1.2\lvgl\src\lv_objx/lv_tileview.c **** 
 356:..\..\..\lvgl\version_6.1.2\lvgl\src\lv_objx/lv_tileview.c **** /**
 357:..\..\..\lvgl\version_6.1.2\lvgl\src\lv_objx/lv_tileview.c ****  * Signal function of the tileview scrollable
 358:..\..\..\lvgl\version_6.1.2\lvgl\src\lv_objx/lv_tileview.c ****  * @param tileview pointer to the scrollable part of the tileview object
 359:..\..\..\lvgl\version_6.1.2\lvgl\src\lv_objx/lv_tileview.c ****  * @param sign a signal type from lv_signal_t enum
 360:..\..\..\lvgl\version_6.1.2\lvgl\src\lv_objx/lv_tileview.c ****  * @param param pointer to a signal specific variable
 361:..\..\..\lvgl\version_6.1.2\lvgl\src\lv_objx/lv_tileview.c ****  * @return LV_RES_OK: the object is not deleted in the function; LV_RES_INV: the object is deleted
 362:..\..\..\lvgl\version_6.1.2\lvgl\src\lv_objx/lv_tileview.c ****  */
 363:..\..\..\lvgl\version_6.1.2\lvgl\src\lv_objx/lv_tileview.c **** static lv_res_t lv_tileview_scrl_signal(lv_obj_t * scrl, lv_signal_t sign, void * param)
 364:..\..\..\lvgl\version_6.1.2\lvgl\src\lv_objx/lv_tileview.c **** {
 985              		.loc 3 364 0
 986              		.cfi_startproc
 987              		@ args = 0, pretend = 0, frame = 48
 988              		@ frame_needed = 1, uses_anonymous_args = 0
 989 0000 90B5     		push	{r4, r7, lr}
 990              		.cfi_def_cfa_offset 12
 991              		.cfi_offset 4, -12
 992              		.cfi_offset 7, -8
 993              		.cfi_offset 14, -4
 994 0002 8DB0     		sub	sp, sp, #52
 995              		.cfi_def_cfa_offset 64
 996 0004 00AF     		add	r7, sp, #0
 997              		.cfi_def_cfa_register 7
 998 0006 F860     		str	r0, [r7, #12]
 999 0008 0B46     		mov	r3, r1
 1000 000a 7A60     		str	r2, [r7, #4]
ARM GAS  C:\Users\tmj32\AppData\Local\Temp\cctNeIsL.s 			page 31


 1001 000c FB72     		strb	r3, [r7, #11]
 365:..\..\..\lvgl\version_6.1.2\lvgl\src\lv_objx/lv_tileview.c **** 
 366:..\..\..\lvgl\version_6.1.2\lvgl\src\lv_objx/lv_tileview.c ****     lv_res_t res;
 367:..\..\..\lvgl\version_6.1.2\lvgl\src\lv_objx/lv_tileview.c **** 
 368:..\..\..\lvgl\version_6.1.2\lvgl\src\lv_objx/lv_tileview.c ****     /* Include the ancient signal function */
 369:..\..\..\lvgl\version_6.1.2\lvgl\src\lv_objx/lv_tileview.c ****     res = ancestor_scrl_signal(scrl, sign, param);
 1002              		.loc 3 369 0
 1003 000e 0C4B     		ldr	r3, .L79
 1004 0010 1B68     		ldr	r3, [r3]
 1005 0012 F97A     		ldrb	r1, [r7, #11]	@ zero_extendqisi2
 1006 0014 7A68     		ldr	r2, [r7, #4]
 1007 0016 F868     		ldr	r0, [r7, #12]
 1008 0018 9847     		blx	r3
 1009 001a 0346     		mov	r3, r0
 1010 001c 87F82F30 		strb	r3, [r7, #47]
 370:..\..\..\lvgl\version_6.1.2\lvgl\src\lv_objx/lv_tileview.c ****     if(res != LV_RES_OK) return res;
 1011              		.loc 3 370 0
 1012 0020 97F82F30 		ldrb	r3, [r7, #47]	@ zero_extendqisi2
 1013 0024 012B     		cmp	r3, #1
 1014 0026 02D0     		beq	.L58
 1015              		.loc 3 370 0 is_stmt 0 discriminator 1
 1016 0028 97F82F30 		ldrb	r3, [r7, #47]	@ zero_extendqisi2
 1017 002c 9AE2     		b	.L59
 1018              	.L58:
 371:..\..\..\lvgl\version_6.1.2\lvgl\src\lv_objx/lv_tileview.c ****     if(sign == LV_SIGNAL_GET_TYPE) return lv_obj_handle_get_type_signal(param, "");
 1019              		.loc 3 371 0 is_stmt 1
 1020 002e FB7A     		ldrb	r3, [r7, #11]	@ zero_extendqisi2
 1021 0030 072B     		cmp	r3, #7
 1022 0032 09D1     		bne	.L60
 1023              		.loc 3 371 0 is_stmt 0 discriminator 1
 1024 0034 0349     		ldr	r1, .L79+4
 1025 0036 7868     		ldr	r0, [r7, #4]
 1026 0038 FFF7FEFF 		bl	lv_obj_handle_get_type_signal
 1027 003c 0346     		mov	r3, r0
 1028 003e 91E2     		b	.L59
 1029              	.L80:
 1030              		.align	2
 1031              	.L79:
 1032 0040 04000000 		.word	ancestor_scrl_signal
 1033 0044 0C000000 		.word	.LC1
 1034              	.L60:
 372:..\..\..\lvgl\version_6.1.2\lvgl\src\lv_objx/lv_tileview.c **** 
 373:..\..\..\lvgl\version_6.1.2\lvgl\src\lv_objx/lv_tileview.c ****     lv_obj_t * tileview         = lv_obj_get_parent(scrl);
 1035              		.loc 3 373 0 is_stmt 1
 1036 0048 F868     		ldr	r0, [r7, #12]
 1037 004a FFF7FEFF 		bl	lv_obj_get_parent
 1038 004e B862     		str	r0, [r7, #40]
 374:..\..\..\lvgl\version_6.1.2\lvgl\src\lv_objx/lv_tileview.c ****     const lv_style_t * style_bg = lv_tileview_get_style(tileview, LV_TILEVIEW_STYLE_MAIN);
 1039              		.loc 3 374 0
 1040 0050 0021     		movs	r1, #0
 1041 0052 B86A     		ldr	r0, [r7, #40]
 1042 0054 FFF7FEFF 		bl	lv_tileview_get_style
 1043 0058 7862     		str	r0, [r7, #36]
 375:..\..\..\lvgl\version_6.1.2\lvgl\src\lv_objx/lv_tileview.c **** 
 376:..\..\..\lvgl\version_6.1.2\lvgl\src\lv_objx/lv_tileview.c ****     /*Apply constraint on moving of the tileview*/
 377:..\..\..\lvgl\version_6.1.2\lvgl\src\lv_objx/lv_tileview.c ****     if(sign == LV_SIGNAL_CORD_CHG) {
 1044              		.loc 3 377 0
ARM GAS  C:\Users\tmj32\AppData\Local\Temp\cctNeIsL.s 			page 32


 1045 005a FB7A     		ldrb	r3, [r7, #11]	@ zero_extendqisi2
 1046 005c 022B     		cmp	r3, #2
 1047 005e 40F07F82 		bne	.L61
 1048              	.LBB5:
 378:..\..\..\lvgl\version_6.1.2\lvgl\src\lv_objx/lv_tileview.c ****         lv_indev_t * indev = lv_indev_get_act();
 1049              		.loc 3 378 0
 1050 0062 FFF7FEFF 		bl	lv_indev_get_act
 1051 0066 3862     		str	r0, [r7, #32]
 379:..\..\..\lvgl\version_6.1.2\lvgl\src\lv_objx/lv_tileview.c ****         if(indev) {
 1052              		.loc 3 379 0
 1053 0068 3B6A     		ldr	r3, [r7, #32]
 1054 006a 002B     		cmp	r3, #0
 1055 006c 00F07882 		beq	.L61
 1056              	.LBB6:
 380:..\..\..\lvgl\version_6.1.2\lvgl\src\lv_objx/lv_tileview.c ****             lv_tileview_ext_t * ext = lv_obj_get_ext_attr(tileview);
 1057              		.loc 3 380 0
 1058 0070 B86A     		ldr	r0, [r7, #40]
 1059 0072 FFF7FEFF 		bl	lv_obj_get_ext_attr
 1060 0076 F861     		str	r0, [r7, #28]
 381:..\..\..\lvgl\version_6.1.2\lvgl\src\lv_objx/lv_tileview.c **** 
 382:..\..\..\lvgl\version_6.1.2\lvgl\src\lv_objx/lv_tileview.c ****             /*Set horizontal drag constraint if no vertical constraint an dragged to valid x
 383:..\..\..\lvgl\version_6.1.2\lvgl\src\lv_objx/lv_tileview.c ****              * direction */
 384:..\..\..\lvgl\version_6.1.2\lvgl\src\lv_objx/lv_tileview.c ****             if(ext->drag_ver == 0 &&
 1061              		.loc 3 384 0
 1062 0078 FB69     		ldr	r3, [r7, #28]
 1063 007a 93F83C30 		ldrb	r3, [r3, #60]	@ zero_extendqisi2
 1064 007e 03F02003 		and	r3, r3, #32
 1065 0082 DBB2     		uxtb	r3, r3
 1066 0084 002B     		cmp	r3, #0
 1067 0086 21D1     		bne	.L62
 385:..\..\..\lvgl\version_6.1.2\lvgl\src\lv_objx/lv_tileview.c ****                ((ext->drag_right_en && indev->proc.types.pointer.drag_sum.x <= -LV_INDEV_DEF_DRAG_L
 1068              		.loc 3 385 0 discriminator 1
 1069 0088 FB69     		ldr	r3, [r7, #28]
 1070 008a 93F83C30 		ldrb	r3, [r3, #60]	@ zero_extendqisi2
 1071 008e 03F00803 		and	r3, r3, #8
 1072 0092 DBB2     		uxtb	r3, r3
 384:..\..\..\lvgl\version_6.1.2\lvgl\src\lv_objx/lv_tileview.c ****                ((ext->drag_right_en && indev->proc.types.pointer.drag_sum.x <= -LV_INDEV_DEF_DRAG_L
 1073              		.loc 3 384 0 discriminator 1
 1074 0094 002B     		cmp	r3, #0
 1075 0096 05D0     		beq	.L63
 1076              		.loc 3 385 0
 1077 0098 3B6A     		ldr	r3, [r7, #32]
 1078 009a B3F92C30 		ldrsh	r3, [r3, #44]
 1079 009e 13F1090F 		cmn	r3, #9
 1080 00a2 0CDB     		blt	.L64
 1081              	.L63:
 386:..\..\..\lvgl\version_6.1.2\lvgl\src\lv_objx/lv_tileview.c ****                 (ext->drag_left_en && indev->proc.types.pointer.drag_sum.x >= LV_INDEV_DEF_DRAG_LIM
 1082              		.loc 3 386 0 discriminator 1
 1083 00a4 FB69     		ldr	r3, [r7, #28]
 1084 00a6 93F83C30 		ldrb	r3, [r3, #60]	@ zero_extendqisi2
 1085 00aa 03F00403 		and	r3, r3, #4
 1086 00ae DBB2     		uxtb	r3, r3
 385:..\..\..\lvgl\version_6.1.2\lvgl\src\lv_objx/lv_tileview.c ****                ((ext->drag_right_en && indev->proc.types.pointer.drag_sum.x <= -LV_INDEV_DEF_DRAG_L
 1087              		.loc 3 385 0 discriminator 1
 1088 00b0 002B     		cmp	r3, #0
 1089 00b2 0BD0     		beq	.L62
 1090              		.loc 3 386 0
ARM GAS  C:\Users\tmj32\AppData\Local\Temp\cctNeIsL.s 			page 33


 1091 00b4 3B6A     		ldr	r3, [r7, #32]
 1092 00b6 B3F92C30 		ldrsh	r3, [r3, #44]
 1093 00ba 092B     		cmp	r3, #9
 1094 00bc 06DD     		ble	.L62
 1095              	.L64:
 387:..\..\..\lvgl\version_6.1.2\lvgl\src\lv_objx/lv_tileview.c ****                 ext->drag_hor = 1;
 1096              		.loc 3 387 0
 1097 00be FA69     		ldr	r2, [r7, #28]
 1098 00c0 92F83C30 		ldrb	r3, [r2, #60]
 1099 00c4 43F01003 		orr	r3, r3, #16
 1100 00c8 82F83C30 		strb	r3, [r2, #60]
 1101              	.L62:
 388:..\..\..\lvgl\version_6.1.2\lvgl\src\lv_objx/lv_tileview.c ****             }
 389:..\..\..\lvgl\version_6.1.2\lvgl\src\lv_objx/lv_tileview.c ****             /*Set vertical drag constraint if no horizontal constraint an dragged to valid y
 390:..\..\..\lvgl\version_6.1.2\lvgl\src\lv_objx/lv_tileview.c ****              * direction */
 391:..\..\..\lvgl\version_6.1.2\lvgl\src\lv_objx/lv_tileview.c ****             if(ext->drag_hor == 0 &&
 1102              		.loc 3 391 0
 1103 00cc FB69     		ldr	r3, [r7, #28]
 1104 00ce 93F83C30 		ldrb	r3, [r3, #60]	@ zero_extendqisi2
 1105 00d2 03F01003 		and	r3, r3, #16
 1106 00d6 DBB2     		uxtb	r3, r3
 1107 00d8 002B     		cmp	r3, #0
 1108 00da 21D1     		bne	.L65
 392:..\..\..\lvgl\version_6.1.2\lvgl\src\lv_objx/lv_tileview.c ****                ((ext->drag_bottom_en && indev->proc.types.pointer.drag_sum.y <= -LV_INDEV_DEF_DRAG_
 1109              		.loc 3 392 0 discriminator 1
 1110 00dc FB69     		ldr	r3, [r7, #28]
 1111 00de 93F83C30 		ldrb	r3, [r3, #60]	@ zero_extendqisi2
 1112 00e2 03F00203 		and	r3, r3, #2
 1113 00e6 DBB2     		uxtb	r3, r3
 391:..\..\..\lvgl\version_6.1.2\lvgl\src\lv_objx/lv_tileview.c ****                ((ext->drag_bottom_en && indev->proc.types.pointer.drag_sum.y <= -LV_INDEV_DEF_DRAG_
 1114              		.loc 3 391 0 discriminator 1
 1115 00e8 002B     		cmp	r3, #0
 1116 00ea 05D0     		beq	.L66
 1117              		.loc 3 392 0
 1118 00ec 3B6A     		ldr	r3, [r7, #32]
 1119 00ee B3F92E30 		ldrsh	r3, [r3, #46]
 1120 00f2 13F1090F 		cmn	r3, #9
 1121 00f6 0CDB     		blt	.L67
 1122              	.L66:
 393:..\..\..\lvgl\version_6.1.2\lvgl\src\lv_objx/lv_tileview.c ****                 (ext->drag_top_en && indev->proc.types.pointer.drag_sum.y >= LV_INDEV_DEF_DRAG_LIMI
 1123              		.loc 3 393 0 discriminator 1
 1124 00f8 FB69     		ldr	r3, [r7, #28]
 1125 00fa 93F83C30 		ldrb	r3, [r3, #60]	@ zero_extendqisi2
 1126 00fe 03F00103 		and	r3, r3, #1
 1127 0102 DBB2     		uxtb	r3, r3
 392:..\..\..\lvgl\version_6.1.2\lvgl\src\lv_objx/lv_tileview.c ****                ((ext->drag_bottom_en && indev->proc.types.pointer.drag_sum.y <= -LV_INDEV_DEF_DRAG_
 1128              		.loc 3 392 0 discriminator 1
 1129 0104 002B     		cmp	r3, #0
 1130 0106 0BD0     		beq	.L65
 1131              		.loc 3 393 0
 1132 0108 3B6A     		ldr	r3, [r7, #32]
 1133 010a B3F92E30 		ldrsh	r3, [r3, #46]
 1134 010e 092B     		cmp	r3, #9
 1135 0110 06DD     		ble	.L65
 1136              	.L67:
 394:..\..\..\lvgl\version_6.1.2\lvgl\src\lv_objx/lv_tileview.c ****                 ext->drag_ver = 1;
 1137              		.loc 3 394 0
ARM GAS  C:\Users\tmj32\AppData\Local\Temp\cctNeIsL.s 			page 34


 1138 0112 FA69     		ldr	r2, [r7, #28]
 1139 0114 92F83C30 		ldrb	r3, [r2, #60]
 1140 0118 43F02003 		orr	r3, r3, #32
 1141 011c 82F83C30 		strb	r3, [r2, #60]
 1142              	.L65:
 395:..\..\..\lvgl\version_6.1.2\lvgl\src\lv_objx/lv_tileview.c ****             }
 396:..\..\..\lvgl\version_6.1.2\lvgl\src\lv_objx/lv_tileview.c **** 
 397:..\..\..\lvgl\version_6.1.2\lvgl\src\lv_objx/lv_tileview.c **** #if LV_USE_ANIMATION
 398:..\..\..\lvgl\version_6.1.2\lvgl\src\lv_objx/lv_tileview.c ****             if(ext->drag_hor) {
 1143              		.loc 3 398 0
 1144 0120 FB69     		ldr	r3, [r7, #28]
 1145 0122 93F83C30 		ldrb	r3, [r3, #60]	@ zero_extendqisi2
 1146 0126 03F01003 		and	r3, r3, #16
 1147 012a DBB2     		uxtb	r3, r3
 1148 012c 002B     		cmp	r3, #0
 1149 012e 0DD0     		beq	.L68
 399:..\..\..\lvgl\version_6.1.2\lvgl\src\lv_objx/lv_tileview.c ****                 ext->page.edge_flash.top_ip    = 0;
 1150              		.loc 3 399 0
 1151 0130 FA69     		ldr	r2, [r7, #28]
 1152 0132 92F82830 		ldrb	r3, [r2, #40]
 1153 0136 6FF34103 		bfc	r3, #1, #1
 1154 013a 82F82830 		strb	r3, [r2, #40]
 400:..\..\..\lvgl\version_6.1.2\lvgl\src\lv_objx/lv_tileview.c ****                 ext->page.edge_flash.bottom_ip = 0;
 1155              		.loc 3 400 0
 1156 013e FA69     		ldr	r2, [r7, #28]
 1157 0140 92F82830 		ldrb	r3, [r2, #40]
 1158 0144 6FF38203 		bfc	r3, #2, #1
 1159 0148 82F82830 		strb	r3, [r2, #40]
 1160              	.L68:
 401:..\..\..\lvgl\version_6.1.2\lvgl\src\lv_objx/lv_tileview.c ****             }
 402:..\..\..\lvgl\version_6.1.2\lvgl\src\lv_objx/lv_tileview.c **** 
 403:..\..\..\lvgl\version_6.1.2\lvgl\src\lv_objx/lv_tileview.c ****             if(ext->drag_ver) {
 1161              		.loc 3 403 0
 1162 014c FB69     		ldr	r3, [r7, #28]
 1163 014e 93F83C30 		ldrb	r3, [r3, #60]	@ zero_extendqisi2
 1164 0152 03F02003 		and	r3, r3, #32
 1165 0156 DBB2     		uxtb	r3, r3
 1166 0158 002B     		cmp	r3, #0
 1167 015a 0DD0     		beq	.L69
 404:..\..\..\lvgl\version_6.1.2\lvgl\src\lv_objx/lv_tileview.c ****                 ext->page.edge_flash.right_ip = 0;
 1168              		.loc 3 404 0
 1169 015c FA69     		ldr	r2, [r7, #28]
 1170 015e 92F82830 		ldrb	r3, [r2, #40]
 1171 0162 6FF3C303 		bfc	r3, #3, #1
 1172 0166 82F82830 		strb	r3, [r2, #40]
 405:..\..\..\lvgl\version_6.1.2\lvgl\src\lv_objx/lv_tileview.c ****                 ext->page.edge_flash.left_ip  = 0;
 1173              		.loc 3 405 0
 1174 016a FA69     		ldr	r2, [r7, #28]
 1175 016c 92F82830 		ldrb	r3, [r2, #40]
 1176 0170 6FF30413 		bfc	r3, #4, #1
 1177 0174 82F82830 		strb	r3, [r2, #40]
 1178              	.L69:
 406:..\..\..\lvgl\version_6.1.2\lvgl\src\lv_objx/lv_tileview.c ****             }
 407:..\..\..\lvgl\version_6.1.2\lvgl\src\lv_objx/lv_tileview.c **** #endif
 408:..\..\..\lvgl\version_6.1.2\lvgl\src\lv_objx/lv_tileview.c **** 
 409:..\..\..\lvgl\version_6.1.2\lvgl\src\lv_objx/lv_tileview.c ****             lv_coord_t x = lv_obj_get_x(scrl);
 1179              		.loc 3 409 0
ARM GAS  C:\Users\tmj32\AppData\Local\Temp\cctNeIsL.s 			page 35


 1180 0178 F868     		ldr	r0, [r7, #12]
 1181 017a FFF7FEFF 		bl	lv_obj_get_x
 1182 017e 0346     		mov	r3, r0
 1183 0180 7B83     		strh	r3, [r7, #26]	@ movhi
 410:..\..\..\lvgl\version_6.1.2\lvgl\src\lv_objx/lv_tileview.c ****             lv_coord_t y = lv_obj_get_y(scrl);
 1184              		.loc 3 410 0
 1185 0182 F868     		ldr	r0, [r7, #12]
 1186 0184 FFF7FEFF 		bl	lv_obj_get_y
 1187 0188 0346     		mov	r3, r0
 1188 018a 3B83     		strh	r3, [r7, #24]	@ movhi
 411:..\..\..\lvgl\version_6.1.2\lvgl\src\lv_objx/lv_tileview.c ****             lv_coord_t h = lv_obj_get_height(tileview);
 1189              		.loc 3 411 0
 1190 018c B86A     		ldr	r0, [r7, #40]
 1191 018e FFF7FEFF 		bl	lv_obj_get_height
 1192 0192 0346     		mov	r3, r0
 1193 0194 FB82     		strh	r3, [r7, #22]	@ movhi
 412:..\..\..\lvgl\version_6.1.2\lvgl\src\lv_objx/lv_tileview.c ****             lv_coord_t w = lv_obj_get_width(tileview);
 1194              		.loc 3 412 0
 1195 0196 B86A     		ldr	r0, [r7, #40]
 1196 0198 FFF7FEFF 		bl	lv_obj_get_width
 1197 019c 0346     		mov	r3, r0
 1198 019e BB82     		strh	r3, [r7, #20]	@ movhi
 413:..\..\..\lvgl\version_6.1.2\lvgl\src\lv_objx/lv_tileview.c ****             if(ext->drag_top_en == 0) {
 1199              		.loc 3 413 0
 1200 01a0 FB69     		ldr	r3, [r7, #28]
 1201 01a2 93F83C30 		ldrb	r3, [r3, #60]	@ zero_extendqisi2
 1202 01a6 03F00103 		and	r3, r3, #1
 1203 01aa DBB2     		uxtb	r3, r3
 1204 01ac 002B     		cmp	r3, #0
 1205 01ae 5FD1     		bne	.L70
 414:..\..\..\lvgl\version_6.1.2\lvgl\src\lv_objx/lv_tileview.c ****                 if(y > -(ext->act_id.y * h) && indev->proc.types.pointer.vect.y > 0 && ext->drag_ho
 1206              		.loc 3 414 0
 1207 01b0 B7F91820 		ldrsh	r2, [r7, #24]
 1208 01b4 FB69     		ldr	r3, [r7, #28]
 1209 01b6 B3F93A30 		ldrsh	r3, [r3, #58]
 1210 01ba 1946     		mov	r1, r3
 1211 01bc B7F91630 		ldrsh	r3, [r7, #22]
 1212 01c0 03FB01F3 		mul	r3, r3, r1
 1213 01c4 5B42     		negs	r3, r3
 1214 01c6 9A42     		cmp	r2, r3
 1215 01c8 52DD     		ble	.L70
 1216              		.loc 3 414 0 is_stmt 0 discriminator 1
 1217 01ca 3B6A     		ldr	r3, [r7, #32]
 1218 01cc B3F92A30 		ldrsh	r3, [r3, #42]
 1219 01d0 002B     		cmp	r3, #0
 1220 01d2 4DDD     		ble	.L70
 1221              		.loc 3 414 0 discriminator 2
 1222 01d4 FB69     		ldr	r3, [r7, #28]
 1223 01d6 93F83C30 		ldrb	r3, [r3, #60]	@ zero_extendqisi2
 1224 01da 03F01003 		and	r3, r3, #16
 1225 01de DBB2     		uxtb	r3, r3
 1226 01e0 002B     		cmp	r3, #0
 1227 01e2 45D1     		bne	.L70
 415:..\..\..\lvgl\version_6.1.2\lvgl\src\lv_objx/lv_tileview.c **** #if LV_USE_ANIMATION
 416:..\..\..\lvgl\version_6.1.2\lvgl\src\lv_objx/lv_tileview.c ****                     if(ext->page.edge_flash.enabled && ext->page.edge_flash.left_ip == 0 &&
 1228              		.loc 3 416 0 is_stmt 1
 1229 01e4 FB69     		ldr	r3, [r7, #28]
ARM GAS  C:\Users\tmj32\AppData\Local\Temp\cctNeIsL.s 			page 36


 1230 01e6 93F82830 		ldrb	r3, [r3, #40]	@ zero_extendqisi2
 1231 01ea 03F00103 		and	r3, r3, #1
 1232 01ee DBB2     		uxtb	r3, r3
 1233 01f0 002B     		cmp	r3, #0
 1234 01f2 29D0     		beq	.L71
 1235              		.loc 3 416 0 is_stmt 0 discriminator 1
 1236 01f4 FB69     		ldr	r3, [r7, #28]
 1237 01f6 93F82830 		ldrb	r3, [r3, #40]	@ zero_extendqisi2
 1238 01fa 03F01003 		and	r3, r3, #16
 1239 01fe DBB2     		uxtb	r3, r3
 1240 0200 002B     		cmp	r3, #0
 1241 0202 21D1     		bne	.L71
 417:..\..\..\lvgl\version_6.1.2\lvgl\src\lv_objx/lv_tileview.c ****                        ext->page.edge_flash.right_ip == 0 && ext->page.edge_flash.top_ip == 0 &&
 1242              		.loc 3 417 0 is_stmt 1 discriminator 2
 1243 0204 FB69     		ldr	r3, [r7, #28]
 1244 0206 93F82830 		ldrb	r3, [r3, #40]	@ zero_extendqisi2
 1245 020a 03F00803 		and	r3, r3, #8
 1246 020e DBB2     		uxtb	r3, r3
 416:..\..\..\lvgl\version_6.1.2\lvgl\src\lv_objx/lv_tileview.c ****                        ext->page.edge_flash.right_ip == 0 && ext->page.edge_flash.top_ip == 0 &&
 1247              		.loc 3 416 0 discriminator 2
 1248 0210 002B     		cmp	r3, #0
 1249 0212 19D1     		bne	.L71
 1250              		.loc 3 417 0
 1251 0214 FB69     		ldr	r3, [r7, #28]
 1252 0216 93F82830 		ldrb	r3, [r3, #40]	@ zero_extendqisi2
 1253 021a 03F00203 		and	r3, r3, #2
 1254 021e DBB2     		uxtb	r3, r3
 1255 0220 002B     		cmp	r3, #0
 1256 0222 11D1     		bne	.L71
 418:..\..\..\lvgl\version_6.1.2\lvgl\src\lv_objx/lv_tileview.c ****                        ext->page.edge_flash.bottom_ip == 0) {
 1257              		.loc 3 418 0 discriminator 1
 1258 0224 FB69     		ldr	r3, [r7, #28]
 1259 0226 93F82830 		ldrb	r3, [r3, #40]	@ zero_extendqisi2
 1260 022a 03F00403 		and	r3, r3, #4
 1261 022e DBB2     		uxtb	r3, r3
 417:..\..\..\lvgl\version_6.1.2\lvgl\src\lv_objx/lv_tileview.c ****                        ext->page.edge_flash.right_ip == 0 && ext->page.edge_flash.top_ip == 0 &&
 1262              		.loc 3 417 0 discriminator 1
 1263 0230 002B     		cmp	r3, #0
 1264 0232 09D1     		bne	.L71
 419:..\..\..\lvgl\version_6.1.2\lvgl\src\lv_objx/lv_tileview.c ****                         ext->page.edge_flash.top_ip = 1;
 1265              		.loc 3 419 0
 1266 0234 FA69     		ldr	r2, [r7, #28]
 1267 0236 92F82830 		ldrb	r3, [r2, #40]
 1268 023a 43F00203 		orr	r3, r3, #2
 1269 023e 82F82830 		strb	r3, [r2, #40]
 420:..\..\..\lvgl\version_6.1.2\lvgl\src\lv_objx/lv_tileview.c ****                         lv_page_start_edge_flash(tileview);
 1270              		.loc 3 420 0
 1271 0242 B86A     		ldr	r0, [r7, #40]
 1272 0244 FFF7FEFF 		bl	lv_page_start_edge_flash
 1273              	.L71:
 421:..\..\..\lvgl\version_6.1.2\lvgl\src\lv_objx/lv_tileview.c ****                     }
 422:..\..\..\lvgl\version_6.1.2\lvgl\src\lv_objx/lv_tileview.c **** #endif
 423:..\..\..\lvgl\version_6.1.2\lvgl\src\lv_objx/lv_tileview.c **** 
 424:..\..\..\lvgl\version_6.1.2\lvgl\src\lv_objx/lv_tileview.c ****                     lv_obj_set_y(scrl, -ext->act_id.y * h + style_bg->body.padding.top);
 1274              		.loc 3 424 0
 1275 0248 FB69     		ldr	r3, [r7, #28]
 1276 024a B3F93A30 		ldrsh	r3, [r3, #58]
ARM GAS  C:\Users\tmj32\AppData\Local\Temp\cctNeIsL.s 			page 37


 1277 024e 5B42     		negs	r3, r3
 1278 0250 9AB2     		uxth	r2, r3
 1279 0252 FB8A     		ldrh	r3, [r7, #22]
 1280 0254 12FB03F3 		smulbb	r3, r2, r3
 1281 0258 9AB2     		uxth	r2, r3
 1282 025a 7B6A     		ldr	r3, [r7, #36]
 1283 025c B3F92030 		ldrsh	r3, [r3, #32]
 1284 0260 9BB2     		uxth	r3, r3
 1285 0262 1344     		add	r3, r3, r2
 1286 0264 9BB2     		uxth	r3, r3
 1287 0266 1BB2     		sxth	r3, r3
 1288 0268 1946     		mov	r1, r3
 1289 026a F868     		ldr	r0, [r7, #12]
 1290 026c FFF7FEFF 		bl	lv_obj_set_y
 1291              	.L70:
 425:..\..\..\lvgl\version_6.1.2\lvgl\src\lv_objx/lv_tileview.c ****                 }
 426:..\..\..\lvgl\version_6.1.2\lvgl\src\lv_objx/lv_tileview.c ****             }
 427:..\..\..\lvgl\version_6.1.2\lvgl\src\lv_objx/lv_tileview.c ****             if(ext->drag_bottom_en == 0 && indev->proc.types.pointer.vect.y < 0 && ext->drag_hor ==
 1292              		.loc 3 427 0
 1293 0270 FB69     		ldr	r3, [r7, #28]
 1294 0272 93F83C30 		ldrb	r3, [r3, #60]	@ zero_extendqisi2
 1295 0276 03F00203 		and	r3, r3, #2
 1296 027a DBB2     		uxtb	r3, r3
 1297 027c 002B     		cmp	r3, #0
 1298 027e 5FD1     		bne	.L72
 1299              		.loc 3 427 0 is_stmt 0 discriminator 1
 1300 0280 3B6A     		ldr	r3, [r7, #32]
 1301 0282 B3F92A30 		ldrsh	r3, [r3, #42]
 1302 0286 002B     		cmp	r3, #0
 1303 0288 5ADA     		bge	.L72
 1304              		.loc 3 427 0 discriminator 2
 1305 028a FB69     		ldr	r3, [r7, #28]
 1306 028c 93F83C30 		ldrb	r3, [r3, #60]	@ zero_extendqisi2
 1307 0290 03F01003 		and	r3, r3, #16
 1308 0294 DBB2     		uxtb	r3, r3
 1309 0296 002B     		cmp	r3, #0
 1310 0298 52D1     		bne	.L72
 428:..\..\..\lvgl\version_6.1.2\lvgl\src\lv_objx/lv_tileview.c ****                 if(y < -(ext->act_id.y * h)) {
 1311              		.loc 3 428 0 is_stmt 1
 1312 029a B7F91820 		ldrsh	r2, [r7, #24]
 1313 029e FB69     		ldr	r3, [r7, #28]
 1314 02a0 B3F93A30 		ldrsh	r3, [r3, #58]
 1315 02a4 1946     		mov	r1, r3
 1316 02a6 B7F91630 		ldrsh	r3, [r7, #22]
 1317 02aa 03FB01F3 		mul	r3, r3, r1
 1318 02ae 5B42     		negs	r3, r3
 1319 02b0 9A42     		cmp	r2, r3
 1320 02b2 31DA     		bge	.L73
 429:..\..\..\lvgl\version_6.1.2\lvgl\src\lv_objx/lv_tileview.c **** #if LV_USE_ANIMATION
 430:..\..\..\lvgl\version_6.1.2\lvgl\src\lv_objx/lv_tileview.c ****                     if(ext->page.edge_flash.enabled && ext->page.edge_flash.left_ip == 0 &&
 1321              		.loc 3 430 0
 1322 02b4 FB69     		ldr	r3, [r7, #28]
 1323 02b6 93F82830 		ldrb	r3, [r3, #40]	@ zero_extendqisi2
 1324 02ba 03F00103 		and	r3, r3, #1
 1325 02be DBB2     		uxtb	r3, r3
 1326 02c0 002B     		cmp	r3, #0
 1327 02c2 29D0     		beq	.L73
ARM GAS  C:\Users\tmj32\AppData\Local\Temp\cctNeIsL.s 			page 38


 1328              		.loc 3 430 0 is_stmt 0 discriminator 1
 1329 02c4 FB69     		ldr	r3, [r7, #28]
 1330 02c6 93F82830 		ldrb	r3, [r3, #40]	@ zero_extendqisi2
 1331 02ca 03F01003 		and	r3, r3, #16
 1332 02ce DBB2     		uxtb	r3, r3
 1333 02d0 002B     		cmp	r3, #0
 1334 02d2 21D1     		bne	.L73
 431:..\..\..\lvgl\version_6.1.2\lvgl\src\lv_objx/lv_tileview.c ****                        ext->page.edge_flash.right_ip == 0 && ext->page.edge_flash.top_ip == 0 &&
 1335              		.loc 3 431 0 is_stmt 1 discriminator 2
 1336 02d4 FB69     		ldr	r3, [r7, #28]
 1337 02d6 93F82830 		ldrb	r3, [r3, #40]	@ zero_extendqisi2
 1338 02da 03F00803 		and	r3, r3, #8
 1339 02de DBB2     		uxtb	r3, r3
 430:..\..\..\lvgl\version_6.1.2\lvgl\src\lv_objx/lv_tileview.c ****                        ext->page.edge_flash.right_ip == 0 && ext->page.edge_flash.top_ip == 0 &&
 1340              		.loc 3 430 0 discriminator 2
 1341 02e0 002B     		cmp	r3, #0
 1342 02e2 19D1     		bne	.L73
 1343              		.loc 3 431 0
 1344 02e4 FB69     		ldr	r3, [r7, #28]
 1345 02e6 93F82830 		ldrb	r3, [r3, #40]	@ zero_extendqisi2
 1346 02ea 03F00203 		and	r3, r3, #2
 1347 02ee DBB2     		uxtb	r3, r3
 1348 02f0 002B     		cmp	r3, #0
 1349 02f2 11D1     		bne	.L73
 432:..\..\..\lvgl\version_6.1.2\lvgl\src\lv_objx/lv_tileview.c ****                        ext->page.edge_flash.bottom_ip == 0) {
 1350              		.loc 3 432 0 discriminator 1
 1351 02f4 FB69     		ldr	r3, [r7, #28]
 1352 02f6 93F82830 		ldrb	r3, [r3, #40]	@ zero_extendqisi2
 1353 02fa 03F00403 		and	r3, r3, #4
 1354 02fe DBB2     		uxtb	r3, r3
 431:..\..\..\lvgl\version_6.1.2\lvgl\src\lv_objx/lv_tileview.c ****                        ext->page.edge_flash.right_ip == 0 && ext->page.edge_flash.top_ip == 0 &&
 1355              		.loc 3 431 0 discriminator 1
 1356 0300 002B     		cmp	r3, #0
 1357 0302 09D1     		bne	.L73
 433:..\..\..\lvgl\version_6.1.2\lvgl\src\lv_objx/lv_tileview.c ****                         ext->page.edge_flash.bottom_ip = 1;
 1358              		.loc 3 433 0
 1359 0304 FA69     		ldr	r2, [r7, #28]
 1360 0306 92F82830 		ldrb	r3, [r2, #40]
 1361 030a 43F00403 		orr	r3, r3, #4
 1362 030e 82F82830 		strb	r3, [r2, #40]
 434:..\..\..\lvgl\version_6.1.2\lvgl\src\lv_objx/lv_tileview.c ****                         lv_page_start_edge_flash(tileview);
 1363              		.loc 3 434 0
 1364 0312 B86A     		ldr	r0, [r7, #40]
 1365 0314 FFF7FEFF 		bl	lv_page_start_edge_flash
 1366              	.L73:
 435:..\..\..\lvgl\version_6.1.2\lvgl\src\lv_objx/lv_tileview.c ****                     }
 436:..\..\..\lvgl\version_6.1.2\lvgl\src\lv_objx/lv_tileview.c **** #endif
 437:..\..\..\lvgl\version_6.1.2\lvgl\src\lv_objx/lv_tileview.c ****                 }
 438:..\..\..\lvgl\version_6.1.2\lvgl\src\lv_objx/lv_tileview.c **** 
 439:..\..\..\lvgl\version_6.1.2\lvgl\src\lv_objx/lv_tileview.c ****                 lv_obj_set_y(scrl, -ext->act_id.y * h + style_bg->body.padding.top);
 1367              		.loc 3 439 0
 1368 0318 FB69     		ldr	r3, [r7, #28]
 1369 031a B3F93A30 		ldrsh	r3, [r3, #58]
 1370 031e 5B42     		negs	r3, r3
 1371 0320 9AB2     		uxth	r2, r3
 1372 0322 FB8A     		ldrh	r3, [r7, #22]
 1373 0324 12FB03F3 		smulbb	r3, r2, r3
ARM GAS  C:\Users\tmj32\AppData\Local\Temp\cctNeIsL.s 			page 39


 1374 0328 9AB2     		uxth	r2, r3
 1375 032a 7B6A     		ldr	r3, [r7, #36]
 1376 032c B3F92030 		ldrsh	r3, [r3, #32]
 1377 0330 9BB2     		uxth	r3, r3
 1378 0332 1344     		add	r3, r3, r2
 1379 0334 9BB2     		uxth	r3, r3
 1380 0336 1BB2     		sxth	r3, r3
 1381 0338 1946     		mov	r1, r3
 1382 033a F868     		ldr	r0, [r7, #12]
 1383 033c FFF7FEFF 		bl	lv_obj_set_y
 1384              	.L72:
 440:..\..\..\lvgl\version_6.1.2\lvgl\src\lv_objx/lv_tileview.c ****             }
 441:..\..\..\lvgl\version_6.1.2\lvgl\src\lv_objx/lv_tileview.c ****             if(ext->drag_left_en == 0) {
 1385              		.loc 3 441 0
 1386 0340 FB69     		ldr	r3, [r7, #28]
 1387 0342 93F83C30 		ldrb	r3, [r3, #60]	@ zero_extendqisi2
 1388 0346 03F00403 		and	r3, r3, #4
 1389 034a DBB2     		uxtb	r3, r3
 1390 034c 002B     		cmp	r3, #0
 1391 034e 5FD1     		bne	.L74
 442:..\..\..\lvgl\version_6.1.2\lvgl\src\lv_objx/lv_tileview.c ****                 if(x > -(ext->act_id.x * w) && indev->proc.types.pointer.vect.x > 0 && ext->drag_ve
 1392              		.loc 3 442 0
 1393 0350 B7F91A20 		ldrsh	r2, [r7, #26]
 1394 0354 FB69     		ldr	r3, [r7, #28]
 1395 0356 B3F93830 		ldrsh	r3, [r3, #56]
 1396 035a 1946     		mov	r1, r3
 1397 035c B7F91430 		ldrsh	r3, [r7, #20]
 1398 0360 03FB01F3 		mul	r3, r3, r1
 1399 0364 5B42     		negs	r3, r3
 1400 0366 9A42     		cmp	r2, r3
 1401 0368 52DD     		ble	.L74
 1402              		.loc 3 442 0 is_stmt 0 discriminator 1
 1403 036a 3B6A     		ldr	r3, [r7, #32]
 1404 036c B3F92830 		ldrsh	r3, [r3, #40]
 1405 0370 002B     		cmp	r3, #0
 1406 0372 4DDD     		ble	.L74
 1407              		.loc 3 442 0 discriminator 2
 1408 0374 FB69     		ldr	r3, [r7, #28]
 1409 0376 93F83C30 		ldrb	r3, [r3, #60]	@ zero_extendqisi2
 1410 037a 03F02003 		and	r3, r3, #32
 1411 037e DBB2     		uxtb	r3, r3
 1412 0380 002B     		cmp	r3, #0
 1413 0382 45D1     		bne	.L74
 443:..\..\..\lvgl\version_6.1.2\lvgl\src\lv_objx/lv_tileview.c **** #if LV_USE_ANIMATION
 444:..\..\..\lvgl\version_6.1.2\lvgl\src\lv_objx/lv_tileview.c ****                     if(ext->page.edge_flash.enabled && ext->page.edge_flash.left_ip == 0 &&
 1414              		.loc 3 444 0 is_stmt 1
 1415 0384 FB69     		ldr	r3, [r7, #28]
 1416 0386 93F82830 		ldrb	r3, [r3, #40]	@ zero_extendqisi2
 1417 038a 03F00103 		and	r3, r3, #1
 1418 038e DBB2     		uxtb	r3, r3
 1419 0390 002B     		cmp	r3, #0
 1420 0392 29D0     		beq	.L75
 1421              		.loc 3 444 0 is_stmt 0 discriminator 1
 1422 0394 FB69     		ldr	r3, [r7, #28]
 1423 0396 93F82830 		ldrb	r3, [r3, #40]	@ zero_extendqisi2
 1424 039a 03F01003 		and	r3, r3, #16
 1425 039e DBB2     		uxtb	r3, r3
ARM GAS  C:\Users\tmj32\AppData\Local\Temp\cctNeIsL.s 			page 40


 1426 03a0 002B     		cmp	r3, #0
 1427 03a2 21D1     		bne	.L75
 445:..\..\..\lvgl\version_6.1.2\lvgl\src\lv_objx/lv_tileview.c ****                        ext->page.edge_flash.right_ip == 0 && ext->page.edge_flash.top_ip == 0 &&
 1428              		.loc 3 445 0 is_stmt 1 discriminator 2
 1429 03a4 FB69     		ldr	r3, [r7, #28]
 1430 03a6 93F82830 		ldrb	r3, [r3, #40]	@ zero_extendqisi2
 1431 03aa 03F00803 		and	r3, r3, #8
 1432 03ae DBB2     		uxtb	r3, r3
 444:..\..\..\lvgl\version_6.1.2\lvgl\src\lv_objx/lv_tileview.c ****                        ext->page.edge_flash.right_ip == 0 && ext->page.edge_flash.top_ip == 0 &&
 1433              		.loc 3 444 0 discriminator 2
 1434 03b0 002B     		cmp	r3, #0
 1435 03b2 19D1     		bne	.L75
 1436              		.loc 3 445 0
 1437 03b4 FB69     		ldr	r3, [r7, #28]
 1438 03b6 93F82830 		ldrb	r3, [r3, #40]	@ zero_extendqisi2
 1439 03ba 03F00203 		and	r3, r3, #2
 1440 03be DBB2     		uxtb	r3, r3
 1441 03c0 002B     		cmp	r3, #0
 1442 03c2 11D1     		bne	.L75
 446:..\..\..\lvgl\version_6.1.2\lvgl\src\lv_objx/lv_tileview.c ****                        ext->page.edge_flash.bottom_ip == 0) {
 1443              		.loc 3 446 0 discriminator 1
 1444 03c4 FB69     		ldr	r3, [r7, #28]
 1445 03c6 93F82830 		ldrb	r3, [r3, #40]	@ zero_extendqisi2
 1446 03ca 03F00403 		and	r3, r3, #4
 1447 03ce DBB2     		uxtb	r3, r3
 445:..\..\..\lvgl\version_6.1.2\lvgl\src\lv_objx/lv_tileview.c ****                        ext->page.edge_flash.right_ip == 0 && ext->page.edge_flash.top_ip == 0 &&
 1448              		.loc 3 445 0 discriminator 1
 1449 03d0 002B     		cmp	r3, #0
 1450 03d2 09D1     		bne	.L75
 447:..\..\..\lvgl\version_6.1.2\lvgl\src\lv_objx/lv_tileview.c ****                         ext->page.edge_flash.left_ip = 1;
 1451              		.loc 3 447 0
 1452 03d4 FA69     		ldr	r2, [r7, #28]
 1453 03d6 92F82830 		ldrb	r3, [r2, #40]
 1454 03da 43F01003 		orr	r3, r3, #16
 1455 03de 82F82830 		strb	r3, [r2, #40]
 448:..\..\..\lvgl\version_6.1.2\lvgl\src\lv_objx/lv_tileview.c ****                         lv_page_start_edge_flash(tileview);
 1456              		.loc 3 448 0
 1457 03e2 B86A     		ldr	r0, [r7, #40]
 1458 03e4 FFF7FEFF 		bl	lv_page_start_edge_flash
 1459              	.L75:
 449:..\..\..\lvgl\version_6.1.2\lvgl\src\lv_objx/lv_tileview.c ****                     }
 450:..\..\..\lvgl\version_6.1.2\lvgl\src\lv_objx/lv_tileview.c **** #endif
 451:..\..\..\lvgl\version_6.1.2\lvgl\src\lv_objx/lv_tileview.c **** 
 452:..\..\..\lvgl\version_6.1.2\lvgl\src\lv_objx/lv_tileview.c ****                     lv_obj_set_x(scrl, -ext->act_id.x * w + style_bg->body.padding.left);
 1460              		.loc 3 452 0
 1461 03e8 FB69     		ldr	r3, [r7, #28]
 1462 03ea B3F93830 		ldrsh	r3, [r3, #56]
 1463 03ee 5B42     		negs	r3, r3
 1464 03f0 9AB2     		uxth	r2, r3
 1465 03f2 BB8A     		ldrh	r3, [r7, #20]
 1466 03f4 12FB03F3 		smulbb	r3, r2, r3
 1467 03f8 9AB2     		uxth	r2, r3
 1468 03fa 7B6A     		ldr	r3, [r7, #36]
 1469 03fc B3F92430 		ldrsh	r3, [r3, #36]
 1470 0400 9BB2     		uxth	r3, r3
 1471 0402 1344     		add	r3, r3, r2
 1472 0404 9BB2     		uxth	r3, r3
ARM GAS  C:\Users\tmj32\AppData\Local\Temp\cctNeIsL.s 			page 41


 1473 0406 1BB2     		sxth	r3, r3
 1474 0408 1946     		mov	r1, r3
 1475 040a F868     		ldr	r0, [r7, #12]
 1476 040c FFF7FEFF 		bl	lv_obj_set_x
 1477              	.L74:
 453:..\..\..\lvgl\version_6.1.2\lvgl\src\lv_objx/lv_tileview.c ****                 }
 454:..\..\..\lvgl\version_6.1.2\lvgl\src\lv_objx/lv_tileview.c ****             }
 455:..\..\..\lvgl\version_6.1.2\lvgl\src\lv_objx/lv_tileview.c ****             if(ext->drag_right_en == 0 && indev->proc.types.pointer.vect.x < 0 && ext->drag_ver == 
 1478              		.loc 3 455 0
 1479 0410 FB69     		ldr	r3, [r7, #28]
 1480 0412 93F83C30 		ldrb	r3, [r3, #60]	@ zero_extendqisi2
 1481 0416 03F00803 		and	r3, r3, #8
 1482 041a DBB2     		uxtb	r3, r3
 1483 041c 002B     		cmp	r3, #0
 1484 041e 5FD1     		bne	.L76
 1485              		.loc 3 455 0 is_stmt 0 discriminator 1
 1486 0420 3B6A     		ldr	r3, [r7, #32]
 1487 0422 B3F92830 		ldrsh	r3, [r3, #40]
 1488 0426 002B     		cmp	r3, #0
 1489 0428 5ADA     		bge	.L76
 1490              		.loc 3 455 0 discriminator 2
 1491 042a FB69     		ldr	r3, [r7, #28]
 1492 042c 93F83C30 		ldrb	r3, [r3, #60]	@ zero_extendqisi2
 1493 0430 03F02003 		and	r3, r3, #32
 1494 0434 DBB2     		uxtb	r3, r3
 1495 0436 002B     		cmp	r3, #0
 1496 0438 52D1     		bne	.L76
 456:..\..\..\lvgl\version_6.1.2\lvgl\src\lv_objx/lv_tileview.c ****                 if(x < -(ext->act_id.x * w)) {
 1497              		.loc 3 456 0 is_stmt 1
 1498 043a B7F91A20 		ldrsh	r2, [r7, #26]
 1499 043e FB69     		ldr	r3, [r7, #28]
 1500 0440 B3F93830 		ldrsh	r3, [r3, #56]
 1501 0444 1946     		mov	r1, r3
 1502 0446 B7F91430 		ldrsh	r3, [r7, #20]
 1503 044a 03FB01F3 		mul	r3, r3, r1
 1504 044e 5B42     		negs	r3, r3
 1505 0450 9A42     		cmp	r2, r3
 1506 0452 31DA     		bge	.L77
 457:..\..\..\lvgl\version_6.1.2\lvgl\src\lv_objx/lv_tileview.c **** #if LV_USE_ANIMATION
 458:..\..\..\lvgl\version_6.1.2\lvgl\src\lv_objx/lv_tileview.c ****                     if(ext->page.edge_flash.enabled && ext->page.edge_flash.left_ip == 0 &&
 1507              		.loc 3 458 0
 1508 0454 FB69     		ldr	r3, [r7, #28]
 1509 0456 93F82830 		ldrb	r3, [r3, #40]	@ zero_extendqisi2
 1510 045a 03F00103 		and	r3, r3, #1
 1511 045e DBB2     		uxtb	r3, r3
 1512 0460 002B     		cmp	r3, #0
 1513 0462 29D0     		beq	.L77
 1514              		.loc 3 458 0 is_stmt 0 discriminator 1
 1515 0464 FB69     		ldr	r3, [r7, #28]
 1516 0466 93F82830 		ldrb	r3, [r3, #40]	@ zero_extendqisi2
 1517 046a 03F01003 		and	r3, r3, #16
 1518 046e DBB2     		uxtb	r3, r3
 1519 0470 002B     		cmp	r3, #0
 1520 0472 21D1     		bne	.L77
 459:..\..\..\lvgl\version_6.1.2\lvgl\src\lv_objx/lv_tileview.c ****                        ext->page.edge_flash.right_ip == 0 && ext->page.edge_flash.top_ip == 0 &&
 1521              		.loc 3 459 0 is_stmt 1 discriminator 2
 1522 0474 FB69     		ldr	r3, [r7, #28]
ARM GAS  C:\Users\tmj32\AppData\Local\Temp\cctNeIsL.s 			page 42


 1523 0476 93F82830 		ldrb	r3, [r3, #40]	@ zero_extendqisi2
 1524 047a 03F00803 		and	r3, r3, #8
 1525 047e DBB2     		uxtb	r3, r3
 458:..\..\..\lvgl\version_6.1.2\lvgl\src\lv_objx/lv_tileview.c ****                        ext->page.edge_flash.right_ip == 0 && ext->page.edge_flash.top_ip == 0 &&
 1526              		.loc 3 458 0 discriminator 2
 1527 0480 002B     		cmp	r3, #0
 1528 0482 19D1     		bne	.L77
 1529              		.loc 3 459 0
 1530 0484 FB69     		ldr	r3, [r7, #28]
 1531 0486 93F82830 		ldrb	r3, [r3, #40]	@ zero_extendqisi2
 1532 048a 03F00203 		and	r3, r3, #2
 1533 048e DBB2     		uxtb	r3, r3
 1534 0490 002B     		cmp	r3, #0
 1535 0492 11D1     		bne	.L77
 460:..\..\..\lvgl\version_6.1.2\lvgl\src\lv_objx/lv_tileview.c ****                        ext->page.edge_flash.bottom_ip == 0) {
 1536              		.loc 3 460 0 discriminator 1
 1537 0494 FB69     		ldr	r3, [r7, #28]
 1538 0496 93F82830 		ldrb	r3, [r3, #40]	@ zero_extendqisi2
 1539 049a 03F00403 		and	r3, r3, #4
 1540 049e DBB2     		uxtb	r3, r3
 459:..\..\..\lvgl\version_6.1.2\lvgl\src\lv_objx/lv_tileview.c ****                        ext->page.edge_flash.right_ip == 0 && ext->page.edge_flash.top_ip == 0 &&
 1541              		.loc 3 459 0 discriminator 1
 1542 04a0 002B     		cmp	r3, #0
 1543 04a2 09D1     		bne	.L77
 461:..\..\..\lvgl\version_6.1.2\lvgl\src\lv_objx/lv_tileview.c ****                         ext->page.edge_flash.right_ip = 1;
 1544              		.loc 3 461 0
 1545 04a4 FA69     		ldr	r2, [r7, #28]
 1546 04a6 92F82830 		ldrb	r3, [r2, #40]
 1547 04aa 43F00803 		orr	r3, r3, #8
 1548 04ae 82F82830 		strb	r3, [r2, #40]
 462:..\..\..\lvgl\version_6.1.2\lvgl\src\lv_objx/lv_tileview.c ****                         lv_page_start_edge_flash(tileview);
 1549              		.loc 3 462 0
 1550 04b2 B86A     		ldr	r0, [r7, #40]
 1551 04b4 FFF7FEFF 		bl	lv_page_start_edge_flash
 1552              	.L77:
 463:..\..\..\lvgl\version_6.1.2\lvgl\src\lv_objx/lv_tileview.c ****                     }
 464:..\..\..\lvgl\version_6.1.2\lvgl\src\lv_objx/lv_tileview.c **** #endif
 465:..\..\..\lvgl\version_6.1.2\lvgl\src\lv_objx/lv_tileview.c ****                 }
 466:..\..\..\lvgl\version_6.1.2\lvgl\src\lv_objx/lv_tileview.c **** 
 467:..\..\..\lvgl\version_6.1.2\lvgl\src\lv_objx/lv_tileview.c ****                 lv_obj_set_x(scrl, -ext->act_id.x * w + style_bg->body.padding.top);
 1553              		.loc 3 467 0
 1554 04b8 FB69     		ldr	r3, [r7, #28]
 1555 04ba B3F93830 		ldrsh	r3, [r3, #56]
 1556 04be 5B42     		negs	r3, r3
 1557 04c0 9AB2     		uxth	r2, r3
 1558 04c2 BB8A     		ldrh	r3, [r7, #20]
 1559 04c4 12FB03F3 		smulbb	r3, r2, r3
 1560 04c8 9AB2     		uxth	r2, r3
 1561 04ca 7B6A     		ldr	r3, [r7, #36]
 1562 04cc B3F92030 		ldrsh	r3, [r3, #32]
 1563 04d0 9BB2     		uxth	r3, r3
 1564 04d2 1344     		add	r3, r3, r2
 1565 04d4 9BB2     		uxth	r3, r3
 1566 04d6 1BB2     		sxth	r3, r3
 1567 04d8 1946     		mov	r1, r3
 1568 04da F868     		ldr	r0, [r7, #12]
 1569 04dc FFF7FEFF 		bl	lv_obj_set_x
ARM GAS  C:\Users\tmj32\AppData\Local\Temp\cctNeIsL.s 			page 43


 1570              	.L76:
 468:..\..\..\lvgl\version_6.1.2\lvgl\src\lv_objx/lv_tileview.c ****             }
 469:..\..\..\lvgl\version_6.1.2\lvgl\src\lv_objx/lv_tileview.c **** 
 470:..\..\..\lvgl\version_6.1.2\lvgl\src\lv_objx/lv_tileview.c ****             /*Apply the drag constraints*/
 471:..\..\..\lvgl\version_6.1.2\lvgl\src\lv_objx/lv_tileview.c ****             if(ext->drag_ver == 0)
 1571              		.loc 3 471 0
 1572 04e0 FB69     		ldr	r3, [r7, #28]
 1573 04e2 93F83C30 		ldrb	r3, [r3, #60]	@ zero_extendqisi2
 1574 04e6 03F02003 		and	r3, r3, #32
 1575 04ea DBB2     		uxtb	r3, r3
 1576 04ec 002B     		cmp	r3, #0
 1577 04ee 17D1     		bne	.L78
 472:..\..\..\lvgl\version_6.1.2\lvgl\src\lv_objx/lv_tileview.c ****                 lv_obj_set_y(scrl, -ext->act_id.y * lv_obj_get_height(tileview) + style_bg->body.pa
 1578              		.loc 3 472 0
 1579 04f0 FB69     		ldr	r3, [r7, #28]
 1580 04f2 B3F93A30 		ldrsh	r3, [r3, #58]
 1581 04f6 5B42     		negs	r3, r3
 1582 04f8 9CB2     		uxth	r4, r3
 1583 04fa B86A     		ldr	r0, [r7, #40]
 1584 04fc FFF7FEFF 		bl	lv_obj_get_height
 1585 0500 0346     		mov	r3, r0
 1586 0502 9BB2     		uxth	r3, r3
 1587 0504 14FB03F3 		smulbb	r3, r4, r3
 1588 0508 9AB2     		uxth	r2, r3
 1589 050a 7B6A     		ldr	r3, [r7, #36]
 1590 050c B3F92030 		ldrsh	r3, [r3, #32]
 1591 0510 9BB2     		uxth	r3, r3
 1592 0512 1344     		add	r3, r3, r2
 1593 0514 9BB2     		uxth	r3, r3
 1594 0516 1BB2     		sxth	r3, r3
 1595 0518 1946     		mov	r1, r3
 1596 051a F868     		ldr	r0, [r7, #12]
 1597 051c FFF7FEFF 		bl	lv_obj_set_y
 1598              	.L78:
 473:..\..\..\lvgl\version_6.1.2\lvgl\src\lv_objx/lv_tileview.c ****             if(ext->drag_hor == 0)
 1599              		.loc 3 473 0
 1600 0520 FB69     		ldr	r3, [r7, #28]
 1601 0522 93F83C30 		ldrb	r3, [r3, #60]	@ zero_extendqisi2
 1602 0526 03F01003 		and	r3, r3, #16
 1603 052a DBB2     		uxtb	r3, r3
 1604 052c 002B     		cmp	r3, #0
 1605 052e 17D1     		bne	.L61
 474:..\..\..\lvgl\version_6.1.2\lvgl\src\lv_objx/lv_tileview.c ****                 lv_obj_set_x(scrl, -ext->act_id.x * lv_obj_get_width(tileview) + style_bg->body.pad
 1606              		.loc 3 474 0
 1607 0530 FB69     		ldr	r3, [r7, #28]
 1608 0532 B3F93830 		ldrsh	r3, [r3, #56]
 1609 0536 5B42     		negs	r3, r3
 1610 0538 9CB2     		uxth	r4, r3
 1611 053a B86A     		ldr	r0, [r7, #40]
 1612 053c FFF7FEFF 		bl	lv_obj_get_width
 1613 0540 0346     		mov	r3, r0
 1614 0542 9BB2     		uxth	r3, r3
 1615 0544 14FB03F3 		smulbb	r3, r4, r3
 1616 0548 9AB2     		uxth	r2, r3
 1617 054a 7B6A     		ldr	r3, [r7, #36]
 1618 054c B3F92430 		ldrsh	r3, [r3, #36]
 1619 0550 9BB2     		uxth	r3, r3
ARM GAS  C:\Users\tmj32\AppData\Local\Temp\cctNeIsL.s 			page 44


 1620 0552 1344     		add	r3, r3, r2
 1621 0554 9BB2     		uxth	r3, r3
 1622 0556 1BB2     		sxth	r3, r3
 1623 0558 1946     		mov	r1, r3
 1624 055a F868     		ldr	r0, [r7, #12]
 1625 055c FFF7FEFF 		bl	lv_obj_set_x
 1626              	.L61:
 1627              	.LBE6:
 1628              	.LBE5:
 475:..\..\..\lvgl\version_6.1.2\lvgl\src\lv_objx/lv_tileview.c ****         }
 476:..\..\..\lvgl\version_6.1.2\lvgl\src\lv_objx/lv_tileview.c ****     }
 477:..\..\..\lvgl\version_6.1.2\lvgl\src\lv_objx/lv_tileview.c ****     return res;
 1629              		.loc 3 477 0
 1630 0560 97F82F30 		ldrb	r3, [r7, #47]	@ zero_extendqisi2
 1631              	.L59:
 478:..\..\..\lvgl\version_6.1.2\lvgl\src\lv_objx/lv_tileview.c **** }
 1632              		.loc 3 478 0
 1633 0564 1846     		mov	r0, r3
 1634 0566 3437     		adds	r7, r7, #52
 1635              		.cfi_def_cfa_offset 12
 1636 0568 BD46     		mov	sp, r7
 1637              		.cfi_def_cfa_register 13
 1638              		@ sp needed
 1639 056a 90BD     		pop	{r4, r7, pc}
 1640              		.cfi_endproc
 1641              	.LFE59:
 1642              		.size	lv_tileview_scrl_signal, .-lv_tileview_scrl_signal
 1643              		.section	.text.tileview_scrl_event_cb,"ax",%progbits
 1644              		.align	2
 1645              		.thumb
 1646              		.thumb_func
 1647              		.type	tileview_scrl_event_cb, %function
 1648              	tileview_scrl_event_cb:
 1649              	.LFB60:
 479:..\..\..\lvgl\version_6.1.2\lvgl\src\lv_objx/lv_tileview.c **** 
 480:..\..\..\lvgl\version_6.1.2\lvgl\src\lv_objx/lv_tileview.c **** static void tileview_scrl_event_cb(lv_obj_t * scrl, lv_event_t event)
 481:..\..\..\lvgl\version_6.1.2\lvgl\src\lv_objx/lv_tileview.c **** {
 1650              		.loc 3 481 0
 1651              		.cfi_startproc
 1652              		@ args = 0, pretend = 0, frame = 24
 1653              		@ frame_needed = 1, uses_anonymous_args = 0
 1654 0000 80B5     		push	{r7, lr}
 1655              		.cfi_def_cfa_offset 8
 1656              		.cfi_offset 7, -8
 1657              		.cfi_offset 14, -4
 1658 0002 86B0     		sub	sp, sp, #24
 1659              		.cfi_def_cfa_offset 32
 1660 0004 00AF     		add	r7, sp, #0
 1661              		.cfi_def_cfa_register 7
 1662 0006 7860     		str	r0, [r7, #4]
 1663 0008 0B46     		mov	r3, r1
 1664 000a FB70     		strb	r3, [r7, #3]
 482:..\..\..\lvgl\version_6.1.2\lvgl\src\lv_objx/lv_tileview.c ****     lv_obj_t * tileview = lv_obj_get_parent(scrl);
 1665              		.loc 3 482 0
 1666 000c 7868     		ldr	r0, [r7, #4]
 1667 000e FFF7FEFF 		bl	lv_obj_get_parent
 1668 0012 7861     		str	r0, [r7, #20]
ARM GAS  C:\Users\tmj32\AppData\Local\Temp\cctNeIsL.s 			page 45


 483:..\..\..\lvgl\version_6.1.2\lvgl\src\lv_objx/lv_tileview.c **** 
 484:..\..\..\lvgl\version_6.1.2\lvgl\src\lv_objx/lv_tileview.c ****     /*Initialize some variables on PRESS*/
 485:..\..\..\lvgl\version_6.1.2\lvgl\src\lv_objx/lv_tileview.c ****     if(event == LV_EVENT_PRESSED) {
 1669              		.loc 3 485 0
 1670 0014 FB78     		ldrb	r3, [r7, #3]	@ zero_extendqisi2
 1671 0016 002B     		cmp	r3, #0
 1672 0018 15D1     		bne	.L82
 1673              	.LBB7:
 486:..\..\..\lvgl\version_6.1.2\lvgl\src\lv_objx/lv_tileview.c ****         lv_tileview_ext_t * ext = lv_obj_get_ext_attr(tileview);
 1674              		.loc 3 486 0
 1675 001a 7869     		ldr	r0, [r7, #20]
 1676 001c FFF7FEFF 		bl	lv_obj_get_ext_attr
 1677 0020 3861     		str	r0, [r7, #16]
 487:..\..\..\lvgl\version_6.1.2\lvgl\src\lv_objx/lv_tileview.c ****         ext->drag_hor           = 0;
 1678              		.loc 3 487 0
 1679 0022 3A69     		ldr	r2, [r7, #16]
 1680 0024 92F83C30 		ldrb	r3, [r2, #60]
 1681 0028 6FF30413 		bfc	r3, #4, #1
 1682 002c 82F83C30 		strb	r3, [r2, #60]
 488:..\..\..\lvgl\version_6.1.2\lvgl\src\lv_objx/lv_tileview.c ****         ext->drag_ver           = 0;
 1683              		.loc 3 488 0
 1684 0030 3A69     		ldr	r2, [r7, #16]
 1685 0032 92F83C30 		ldrb	r3, [r2, #60]
 1686 0036 6FF34513 		bfc	r3, #5, #1
 1687 003a 82F83C30 		strb	r3, [r2, #60]
 489:..\..\..\lvgl\version_6.1.2\lvgl\src\lv_objx/lv_tileview.c ****         set_valid_drag_dirs(tileview);
 1688              		.loc 3 489 0
 1689 003e 7869     		ldr	r0, [r7, #20]
 1690 0040 FFF7FEFF 		bl	set_valid_drag_dirs
 1691              	.LBE7:
 490:..\..\..\lvgl\version_6.1.2\lvgl\src\lv_objx/lv_tileview.c ****     }
 491:..\..\..\lvgl\version_6.1.2\lvgl\src\lv_objx/lv_tileview.c ****     /*Animate the tabview to the correct location on RELEASE*/
 492:..\..\..\lvgl\version_6.1.2\lvgl\src\lv_objx/lv_tileview.c ****     else if(event == LV_EVENT_PRESS_LOST || event == LV_EVENT_RELEASED) {
 493:..\..\..\lvgl\version_6.1.2\lvgl\src\lv_objx/lv_tileview.c ****         /* If the element was dragged and it moved the tileview finish the drag manually to
 494:..\..\..\lvgl\version_6.1.2\lvgl\src\lv_objx/lv_tileview.c ****          * let the tileview to finish the move.*/
 495:..\..\..\lvgl\version_6.1.2\lvgl\src\lv_objx/lv_tileview.c ****         lv_indev_t * indev      = lv_indev_get_act();
 496:..\..\..\lvgl\version_6.1.2\lvgl\src\lv_objx/lv_tileview.c ****         lv_tileview_ext_t * ext = lv_obj_get_ext_attr(tileview);
 497:..\..\..\lvgl\version_6.1.2\lvgl\src\lv_objx/lv_tileview.c ****         if(lv_indev_is_dragging(indev) && (ext->drag_hor || ext->drag_ver)) {
 498:..\..\..\lvgl\version_6.1.2\lvgl\src\lv_objx/lv_tileview.c ****             indev->proc.types.pointer.drag_in_prog = 0;
 499:..\..\..\lvgl\version_6.1.2\lvgl\src\lv_objx/lv_tileview.c ****             drag_end_handler(tileview);
 500:..\..\..\lvgl\version_6.1.2\lvgl\src\lv_objx/lv_tileview.c ****         }
 501:..\..\..\lvgl\version_6.1.2\lvgl\src\lv_objx/lv_tileview.c **** 
 502:..\..\..\lvgl\version_6.1.2\lvgl\src\lv_objx/lv_tileview.c ****     }
 503:..\..\..\lvgl\version_6.1.2\lvgl\src\lv_objx/lv_tileview.c **** }
 1692              		.loc 3 503 0
 1693 0044 2CE0     		b	.L86
 1694              	.L82:
 492:..\..\..\lvgl\version_6.1.2\lvgl\src\lv_objx/lv_tileview.c ****         /* If the element was dragged and it moved the tileview finish the drag manually to
 1695              		.loc 3 492 0
 1696 0046 FB78     		ldrb	r3, [r7, #3]	@ zero_extendqisi2
 1697 0048 022B     		cmp	r3, #2
 1698 004a 02D0     		beq	.L84
 492:..\..\..\lvgl\version_6.1.2\lvgl\src\lv_objx/lv_tileview.c ****         /* If the element was dragged and it moved the tileview finish the drag manually to
 1699              		.loc 3 492 0 is_stmt 0 discriminator 1
 1700 004c FB78     		ldrb	r3, [r7, #3]	@ zero_extendqisi2
 1701 004e 072B     		cmp	r3, #7
 1702 0050 26D1     		bne	.L86
ARM GAS  C:\Users\tmj32\AppData\Local\Temp\cctNeIsL.s 			page 46


 1703              	.L84:
 1704              	.LBB8:
 495:..\..\..\lvgl\version_6.1.2\lvgl\src\lv_objx/lv_tileview.c ****         lv_tileview_ext_t * ext = lv_obj_get_ext_attr(tileview);
 1705              		.loc 3 495 0 is_stmt 1
 1706 0052 FFF7FEFF 		bl	lv_indev_get_act
 1707 0056 F860     		str	r0, [r7, #12]
 496:..\..\..\lvgl\version_6.1.2\lvgl\src\lv_objx/lv_tileview.c ****         if(lv_indev_is_dragging(indev) && (ext->drag_hor || ext->drag_ver)) {
 1708              		.loc 3 496 0
 1709 0058 7869     		ldr	r0, [r7, #20]
 1710 005a FFF7FEFF 		bl	lv_obj_get_ext_attr
 1711 005e B860     		str	r0, [r7, #8]
 497:..\..\..\lvgl\version_6.1.2\lvgl\src\lv_objx/lv_tileview.c ****             indev->proc.types.pointer.drag_in_prog = 0;
 1712              		.loc 3 497 0
 1713 0060 F868     		ldr	r0, [r7, #12]
 1714 0062 FFF7FEFF 		bl	lv_indev_is_dragging
 1715 0066 0346     		mov	r3, r0
 1716 0068 002B     		cmp	r3, #0
 1717 006a 19D0     		beq	.L86
 497:..\..\..\lvgl\version_6.1.2\lvgl\src\lv_objx/lv_tileview.c ****             indev->proc.types.pointer.drag_in_prog = 0;
 1718              		.loc 3 497 0 is_stmt 0 discriminator 1
 1719 006c BB68     		ldr	r3, [r7, #8]
 1720 006e 93F83C30 		ldrb	r3, [r3, #60]	@ zero_extendqisi2
 1721 0072 03F01003 		and	r3, r3, #16
 1722 0076 DBB2     		uxtb	r3, r3
 1723 0078 002B     		cmp	r3, #0
 1724 007a 07D1     		bne	.L85
 497:..\..\..\lvgl\version_6.1.2\lvgl\src\lv_objx/lv_tileview.c ****             indev->proc.types.pointer.drag_in_prog = 0;
 1725              		.loc 3 497 0 discriminator 2
 1726 007c BB68     		ldr	r3, [r7, #8]
 1727 007e 93F83C30 		ldrb	r3, [r3, #60]	@ zero_extendqisi2
 1728 0082 03F02003 		and	r3, r3, #32
 1729 0086 DBB2     		uxtb	r3, r3
 1730 0088 002B     		cmp	r3, #0
 1731 008a 09D0     		beq	.L86
 1732              	.L85:
 498:..\..\..\lvgl\version_6.1.2\lvgl\src\lv_objx/lv_tileview.c ****             drag_end_handler(tileview);
 1733              		.loc 3 498 0 is_stmt 1
 1734 008c FA68     		ldr	r2, [r7, #12]
 1735 008e 92F84030 		ldrb	r3, [r2, #64]
 1736 0092 6FF34103 		bfc	r3, #1, #1
 1737 0096 82F84030 		strb	r3, [r2, #64]
 499:..\..\..\lvgl\version_6.1.2\lvgl\src\lv_objx/lv_tileview.c ****         }
 1738              		.loc 3 499 0
 1739 009a 7869     		ldr	r0, [r7, #20]
 1740 009c FFF7FEFF 		bl	drag_end_handler
 1741              	.L86:
 1742              	.LBE8:
 1743              		.loc 3 503 0
 1744 00a0 00BF     		nop
 1745 00a2 1837     		adds	r7, r7, #24
 1746              		.cfi_def_cfa_offset 8
 1747 00a4 BD46     		mov	sp, r7
 1748              		.cfi_def_cfa_register 13
 1749              		@ sp needed
 1750 00a6 80BD     		pop	{r7, pc}
 1751              		.cfi_endproc
 1752              	.LFE60:
ARM GAS  C:\Users\tmj32\AppData\Local\Temp\cctNeIsL.s 			page 47


 1753              		.size	tileview_scrl_event_cb, .-tileview_scrl_event_cb
 1754              		.section	.text.drag_end_handler,"ax",%progbits
 1755              		.align	2
 1756              		.thumb
 1757              		.thumb_func
 1758              		.type	drag_end_handler, %function
 1759              	drag_end_handler:
 1760              	.LFB61:
 504:..\..\..\lvgl\version_6.1.2\lvgl\src\lv_objx/lv_tileview.c **** 
 505:..\..\..\lvgl\version_6.1.2\lvgl\src\lv_objx/lv_tileview.c **** /**
 506:..\..\..\lvgl\version_6.1.2\lvgl\src\lv_objx/lv_tileview.c ****  * Called when the user releases an element of the tileview after dragging it.
 507:..\..\..\lvgl\version_6.1.2\lvgl\src\lv_objx/lv_tileview.c ****  * @param tileview pointer to a tileview object
 508:..\..\..\lvgl\version_6.1.2\lvgl\src\lv_objx/lv_tileview.c ****  */
 509:..\..\..\lvgl\version_6.1.2\lvgl\src\lv_objx/lv_tileview.c **** static void drag_end_handler(lv_obj_t * tileview)
 510:..\..\..\lvgl\version_6.1.2\lvgl\src\lv_objx/lv_tileview.c **** {
 1761              		.loc 3 510 0
 1762              		.cfi_startproc
 1763              		@ args = 0, pretend = 0, frame = 48
 1764              		@ frame_needed = 1, uses_anonymous_args = 0
 1765 0000 90B5     		push	{r4, r7, lr}
 1766              		.cfi_def_cfa_offset 12
 1767              		.cfi_offset 4, -12
 1768              		.cfi_offset 7, -8
 1769              		.cfi_offset 14, -4
 1770 0002 8DB0     		sub	sp, sp, #52
 1771              		.cfi_def_cfa_offset 64
 1772 0004 00AF     		add	r7, sp, #0
 1773              		.cfi_def_cfa_register 7
 1774 0006 7860     		str	r0, [r7, #4]
 511:..\..\..\lvgl\version_6.1.2\lvgl\src\lv_objx/lv_tileview.c ****     lv_tileview_ext_t * ext = lv_obj_get_ext_attr(tileview);
 1775              		.loc 3 511 0
 1776 0008 7868     		ldr	r0, [r7, #4]
 1777 000a FFF7FEFF 		bl	lv_obj_get_ext_attr
 1778 000e 7862     		str	r0, [r7, #36]
 512:..\..\..\lvgl\version_6.1.2\lvgl\src\lv_objx/lv_tileview.c ****     lv_indev_t * indev      = lv_indev_get_act();
 1779              		.loc 3 512 0
 1780 0010 FFF7FEFF 		bl	lv_indev_get_act
 1781 0014 3862     		str	r0, [r7, #32]
 513:..\..\..\lvgl\version_6.1.2\lvgl\src\lv_objx/lv_tileview.c ****     lv_point_t point_act;
 514:..\..\..\lvgl\version_6.1.2\lvgl\src\lv_objx/lv_tileview.c ****     lv_indev_get_point(indev, &point_act);
 1782              		.loc 3 514 0
 1783 0016 07F11803 		add	r3, r7, #24
 1784 001a 1946     		mov	r1, r3
 1785 001c 386A     		ldr	r0, [r7, #32]
 1786 001e FFF7FEFF 		bl	lv_indev_get_point
 515:..\..\..\lvgl\version_6.1.2\lvgl\src\lv_objx/lv_tileview.c ****     lv_obj_t * scrl = lv_page_get_scrl(tileview);
 1787              		.loc 3 515 0
 1788 0022 7868     		ldr	r0, [r7, #4]
 1789 0024 FFF7FEFF 		bl	lv_page_get_scrl
 1790 0028 F861     		str	r0, [r7, #28]
 516:..\..\..\lvgl\version_6.1.2\lvgl\src\lv_objx/lv_tileview.c ****     lv_point_t p;
 517:..\..\..\lvgl\version_6.1.2\lvgl\src\lv_objx/lv_tileview.c **** 
 518:..\..\..\lvgl\version_6.1.2\lvgl\src\lv_objx/lv_tileview.c ****     p.x = -(scrl->coords.x1 - lv_obj_get_width(tileview) / 2);
 1791              		.loc 3 518 0
 1792 002a 7868     		ldr	r0, [r7, #4]
 1793 002c FFF7FEFF 		bl	lv_obj_get_width
 1794 0030 0346     		mov	r3, r0
ARM GAS  C:\Users\tmj32\AppData\Local\Temp\cctNeIsL.s 			page 48


 1795 0032 DA0F     		lsrs	r2, r3, #31
 1796 0034 1344     		add	r3, r3, r2
 1797 0036 5B10     		asrs	r3, r3, #1
 1798 0038 1BB2     		sxth	r3, r3
 1799 003a 9AB2     		uxth	r2, r3
 1800 003c FB69     		ldr	r3, [r7, #28]
 1801 003e B3F91030 		ldrsh	r3, [r3, #16]
 1802 0042 9BB2     		uxth	r3, r3
 1803 0044 D31A     		subs	r3, r2, r3
 1804 0046 9BB2     		uxth	r3, r3
 1805 0048 1BB2     		sxth	r3, r3
 1806 004a BB82     		strh	r3, [r7, #20]	@ movhi
 519:..\..\..\lvgl\version_6.1.2\lvgl\src\lv_objx/lv_tileview.c ****     p.y = -(scrl->coords.y1 - lv_obj_get_height(tileview) / 2);
 1807              		.loc 3 519 0
 1808 004c 7868     		ldr	r0, [r7, #4]
 1809 004e FFF7FEFF 		bl	lv_obj_get_height
 1810 0052 0346     		mov	r3, r0
 1811 0054 DA0F     		lsrs	r2, r3, #31
 1812 0056 1344     		add	r3, r3, r2
 1813 0058 5B10     		asrs	r3, r3, #1
 1814 005a 1BB2     		sxth	r3, r3
 1815 005c 9AB2     		uxth	r2, r3
 1816 005e FB69     		ldr	r3, [r7, #28]
 1817 0060 B3F91230 		ldrsh	r3, [r3, #18]
 1818 0064 9BB2     		uxth	r3, r3
 1819 0066 D31A     		subs	r3, r2, r3
 1820 0068 9BB2     		uxth	r3, r3
 1821 006a 1BB2     		sxth	r3, r3
 1822 006c FB82     		strh	r3, [r7, #22]	@ movhi
 520:..\..\..\lvgl\version_6.1.2\lvgl\src\lv_objx/lv_tileview.c **** 
 521:..\..\..\lvgl\version_6.1.2\lvgl\src\lv_objx/lv_tileview.c ****     /*From the drag vector (drag throw) predict the end position*/
 522:..\..\..\lvgl\version_6.1.2\lvgl\src\lv_objx/lv_tileview.c ****     if(ext->drag_hor) {
 1823              		.loc 3 522 0
 1824 006e 7B6A     		ldr	r3, [r7, #36]
 1825 0070 93F83C30 		ldrb	r3, [r3, #60]	@ zero_extendqisi2
 1826 0074 03F01003 		and	r3, r3, #16
 1827 0078 DBB2     		uxtb	r3, r3
 1828 007a 002B     		cmp	r3, #0
 1829 007c 2BD0     		beq	.L88
 1830              	.LBB9:
 523:..\..\..\lvgl\version_6.1.2\lvgl\src\lv_objx/lv_tileview.c ****         lv_point_t vect;
 524:..\..\..\lvgl\version_6.1.2\lvgl\src\lv_objx/lv_tileview.c ****         lv_indev_get_vect(indev, &vect);
 1831              		.loc 3 524 0
 1832 007e 07F11003 		add	r3, r7, #16
 1833 0082 1946     		mov	r1, r3
 1834 0084 386A     		ldr	r0, [r7, #32]
 1835 0086 FFF7FEFF 		bl	lv_indev_get_vect
 525:..\..\..\lvgl\version_6.1.2\lvgl\src\lv_objx/lv_tileview.c ****         lv_coord_t predict = 0;
 1836              		.loc 3 525 0
 1837 008a 0023     		movs	r3, #0
 1838 008c FB85     		strh	r3, [r7, #46]	@ movhi
 526:..\..\..\lvgl\version_6.1.2\lvgl\src\lv_objx/lv_tileview.c **** 
 527:..\..\..\lvgl\version_6.1.2\lvgl\src\lv_objx/lv_tileview.c ****         while(vect.x != 0) {
 1839              		.loc 3 527 0
 1840 008e 15E0     		b	.L89
 1841              	.L90:
 528:..\..\..\lvgl\version_6.1.2\lvgl\src\lv_objx/lv_tileview.c ****             predict += vect.x;
ARM GAS  C:\Users\tmj32\AppData\Local\Temp\cctNeIsL.s 			page 49


 1842              		.loc 3 528 0
 1843 0090 B7F91030 		ldrsh	r3, [r7, #16]
 1844 0094 9AB2     		uxth	r2, r3
 1845 0096 FB8D     		ldrh	r3, [r7, #46]
 1846 0098 1344     		add	r3, r3, r2
 1847 009a 9BB2     		uxth	r3, r3
 1848 009c FB85     		strh	r3, [r7, #46]	@ movhi
 529:..\..\..\lvgl\version_6.1.2\lvgl\src\lv_objx/lv_tileview.c ****             vect.x = vect.x * (100 - LV_INDEV_DEF_DRAG_THROW) / 100;
 1849              		.loc 3 529 0
 1850 009e B7F91030 		ldrsh	r3, [r7, #16]
 1851 00a2 1A46     		mov	r2, r3
 1852 00a4 1346     		mov	r3, r2
 1853 00a6 9B00     		lsls	r3, r3, #2
 1854 00a8 1344     		add	r3, r3, r2
 1855 00aa 1B01     		lsls	r3, r3, #4
 1856 00ac 524A     		ldr	r2, .L98
 1857 00ae 82FB0312 		smull	r1, r2, r2, r3
 1858 00b2 5211     		asrs	r2, r2, #5
 1859 00b4 DB17     		asrs	r3, r3, #31
 1860 00b6 D31A     		subs	r3, r2, r3
 1861 00b8 1BB2     		sxth	r3, r3
 1862 00ba 3B82     		strh	r3, [r7, #16]	@ movhi
 1863              	.L89:
 527:..\..\..\lvgl\version_6.1.2\lvgl\src\lv_objx/lv_tileview.c ****             predict += vect.x;
 1864              		.loc 3 527 0
 1865 00bc B7F91030 		ldrsh	r3, [r7, #16]
 1866 00c0 002B     		cmp	r3, #0
 1867 00c2 E5D1     		bne	.L90
 530:..\..\..\lvgl\version_6.1.2\lvgl\src\lv_objx/lv_tileview.c ****         }
 531:..\..\..\lvgl\version_6.1.2\lvgl\src\lv_objx/lv_tileview.c **** 
 532:..\..\..\lvgl\version_6.1.2\lvgl\src\lv_objx/lv_tileview.c ****         p.x -= predict;
 1868              		.loc 3 532 0
 1869 00c4 B7F91430 		ldrsh	r3, [r7, #20]
 1870 00c8 9AB2     		uxth	r2, r3
 1871 00ca FB8D     		ldrh	r3, [r7, #46]
 1872 00cc D31A     		subs	r3, r2, r3
 1873 00ce 9BB2     		uxth	r3, r3
 1874 00d0 1BB2     		sxth	r3, r3
 1875 00d2 BB82     		strh	r3, [r7, #20]	@ movhi
 1876              	.LBE9:
 1877 00d4 32E0     		b	.L91
 1878              	.L88:
 533:..\..\..\lvgl\version_6.1.2\lvgl\src\lv_objx/lv_tileview.c ****     } else if(ext->drag_ver) {
 1879              		.loc 3 533 0
 1880 00d6 7B6A     		ldr	r3, [r7, #36]
 1881 00d8 93F83C30 		ldrb	r3, [r3, #60]	@ zero_extendqisi2
 1882 00dc 03F02003 		and	r3, r3, #32
 1883 00e0 DBB2     		uxtb	r3, r3
 1884 00e2 002B     		cmp	r3, #0
 1885 00e4 2AD0     		beq	.L91
 1886              	.LBB10:
 534:..\..\..\lvgl\version_6.1.2\lvgl\src\lv_objx/lv_tileview.c ****         lv_point_t vect;
 535:..\..\..\lvgl\version_6.1.2\lvgl\src\lv_objx/lv_tileview.c ****         lv_indev_get_vect(indev, &vect);
 1887              		.loc 3 535 0
 1888 00e6 07F10C03 		add	r3, r7, #12
 1889 00ea 1946     		mov	r1, r3
 1890 00ec 386A     		ldr	r0, [r7, #32]
ARM GAS  C:\Users\tmj32\AppData\Local\Temp\cctNeIsL.s 			page 50


 1891 00ee FFF7FEFF 		bl	lv_indev_get_vect
 536:..\..\..\lvgl\version_6.1.2\lvgl\src\lv_objx/lv_tileview.c ****         lv_coord_t predict = 0;
 1892              		.loc 3 536 0
 1893 00f2 0023     		movs	r3, #0
 1894 00f4 BB85     		strh	r3, [r7, #44]	@ movhi
 537:..\..\..\lvgl\version_6.1.2\lvgl\src\lv_objx/lv_tileview.c **** 
 538:..\..\..\lvgl\version_6.1.2\lvgl\src\lv_objx/lv_tileview.c ****         while(vect.y != 0) {
 1895              		.loc 3 538 0
 1896 00f6 15E0     		b	.L92
 1897              	.L93:
 539:..\..\..\lvgl\version_6.1.2\lvgl\src\lv_objx/lv_tileview.c ****             predict += vect.y;
 1898              		.loc 3 539 0
 1899 00f8 B7F90E30 		ldrsh	r3, [r7, #14]
 1900 00fc 9AB2     		uxth	r2, r3
 1901 00fe BB8D     		ldrh	r3, [r7, #44]
 1902 0100 1344     		add	r3, r3, r2
 1903 0102 9BB2     		uxth	r3, r3
 1904 0104 BB85     		strh	r3, [r7, #44]	@ movhi
 540:..\..\..\lvgl\version_6.1.2\lvgl\src\lv_objx/lv_tileview.c ****             vect.y = vect.y * (100 - LV_INDEV_DEF_DRAG_THROW) / 100;
 1905              		.loc 3 540 0
 1906 0106 B7F90E30 		ldrsh	r3, [r7, #14]
 1907 010a 1A46     		mov	r2, r3
 1908 010c 1346     		mov	r3, r2
 1909 010e 9B00     		lsls	r3, r3, #2
 1910 0110 1344     		add	r3, r3, r2
 1911 0112 1B01     		lsls	r3, r3, #4
 1912 0114 384A     		ldr	r2, .L98
 1913 0116 82FB0312 		smull	r1, r2, r2, r3
 1914 011a 5211     		asrs	r2, r2, #5
 1915 011c DB17     		asrs	r3, r3, #31
 1916 011e D31A     		subs	r3, r2, r3
 1917 0120 1BB2     		sxth	r3, r3
 1918 0122 FB81     		strh	r3, [r7, #14]	@ movhi
 1919              	.L92:
 538:..\..\..\lvgl\version_6.1.2\lvgl\src\lv_objx/lv_tileview.c ****             predict += vect.y;
 1920              		.loc 3 538 0
 1921 0124 B7F90E30 		ldrsh	r3, [r7, #14]
 1922 0128 002B     		cmp	r3, #0
 1923 012a E5D1     		bne	.L93
 541:..\..\..\lvgl\version_6.1.2\lvgl\src\lv_objx/lv_tileview.c ****         }
 542:..\..\..\lvgl\version_6.1.2\lvgl\src\lv_objx/lv_tileview.c **** 
 543:..\..\..\lvgl\version_6.1.2\lvgl\src\lv_objx/lv_tileview.c ****         p.y -= predict;
 1924              		.loc 3 543 0
 1925 012c B7F91630 		ldrsh	r3, [r7, #22]
 1926 0130 9AB2     		uxth	r2, r3
 1927 0132 BB8D     		ldrh	r3, [r7, #44]
 1928 0134 D31A     		subs	r3, r2, r3
 1929 0136 9BB2     		uxth	r3, r3
 1930 0138 1BB2     		sxth	r3, r3
 1931 013a FB82     		strh	r3, [r7, #22]	@ movhi
 1932              	.L91:
 1933              	.LBE10:
 544:..\..\..\lvgl\version_6.1.2\lvgl\src\lv_objx/lv_tileview.c ****     }
 545:..\..\..\lvgl\version_6.1.2\lvgl\src\lv_objx/lv_tileview.c **** 
 546:..\..\..\lvgl\version_6.1.2\lvgl\src\lv_objx/lv_tileview.c ****     /*Get the index of the tile*/
 547:..\..\..\lvgl\version_6.1.2\lvgl\src\lv_objx/lv_tileview.c ****     p.x = p.x / lv_obj_get_width(tileview);
 1934              		.loc 3 547 0
ARM GAS  C:\Users\tmj32\AppData\Local\Temp\cctNeIsL.s 			page 51


 1935 013c B7F91430 		ldrsh	r3, [r7, #20]
 1936 0140 1C46     		mov	r4, r3
 1937 0142 7868     		ldr	r0, [r7, #4]
 1938 0144 FFF7FEFF 		bl	lv_obj_get_width
 1939 0148 0346     		mov	r3, r0
 1940 014a 94FBF3F3 		sdiv	r3, r4, r3
 1941 014e 1BB2     		sxth	r3, r3
 1942 0150 BB82     		strh	r3, [r7, #20]	@ movhi
 548:..\..\..\lvgl\version_6.1.2\lvgl\src\lv_objx/lv_tileview.c ****     p.y = p.y / lv_obj_get_height(tileview);
 1943              		.loc 3 548 0
 1944 0152 B7F91630 		ldrsh	r3, [r7, #22]
 1945 0156 1C46     		mov	r4, r3
 1946 0158 7868     		ldr	r0, [r7, #4]
 1947 015a FFF7FEFF 		bl	lv_obj_get_height
 1948 015e 0346     		mov	r3, r0
 1949 0160 94FBF3F3 		sdiv	r3, r4, r3
 1950 0164 1BB2     		sxth	r3, r3
 1951 0166 FB82     		strh	r3, [r7, #22]	@ movhi
 549:..\..\..\lvgl\version_6.1.2\lvgl\src\lv_objx/lv_tileview.c **** 
 550:..\..\..\lvgl\version_6.1.2\lvgl\src\lv_objx/lv_tileview.c ****     /*Max +- move*/
 551:..\..\..\lvgl\version_6.1.2\lvgl\src\lv_objx/lv_tileview.c ****     lv_coord_t x_move = p.x - ext->act_id.x;
 1952              		.loc 3 551 0
 1953 0168 B7F91430 		ldrsh	r3, [r7, #20]
 1954 016c 9AB2     		uxth	r2, r3
 1955 016e 7B6A     		ldr	r3, [r7, #36]
 1956 0170 B3F93830 		ldrsh	r3, [r3, #56]
 1957 0174 9BB2     		uxth	r3, r3
 1958 0176 D31A     		subs	r3, r2, r3
 1959 0178 9BB2     		uxth	r3, r3
 1960 017a 7B85     		strh	r3, [r7, #42]	@ movhi
 552:..\..\..\lvgl\version_6.1.2\lvgl\src\lv_objx/lv_tileview.c ****     lv_coord_t y_move = p.y - ext->act_id.y;
 1961              		.loc 3 552 0
 1962 017c B7F91630 		ldrsh	r3, [r7, #22]
 1963 0180 9AB2     		uxth	r2, r3
 1964 0182 7B6A     		ldr	r3, [r7, #36]
 1965 0184 B3F93A30 		ldrsh	r3, [r3, #58]
 1966 0188 9BB2     		uxth	r3, r3
 1967 018a D31A     		subs	r3, r2, r3
 1968 018c 9BB2     		uxth	r3, r3
 1969 018e 3B85     		strh	r3, [r7, #40]	@ movhi
 553:..\..\..\lvgl\version_6.1.2\lvgl\src\lv_objx/lv_tileview.c ****     if(x_move < -1) x_move = -1;
 1970              		.loc 3 553 0
 1971 0190 B7F92A30 		ldrsh	r3, [r7, #42]
 1972 0194 B3F1FF3F 		cmp	r3, #-1
 1973 0198 02DA     		bge	.L94
 1974              		.loc 3 553 0 is_stmt 0 discriminator 1
 1975 019a 4FF6FF73 		movw	r3, #65535
 1976 019e 7B85     		strh	r3, [r7, #42]	@ movhi
 1977              	.L94:
 554:..\..\..\lvgl\version_6.1.2\lvgl\src\lv_objx/lv_tileview.c ****     if(x_move > 1) x_move = 1;
 1978              		.loc 3 554 0 is_stmt 1
 1979 01a0 B7F92A30 		ldrsh	r3, [r7, #42]
 1980 01a4 012B     		cmp	r3, #1
 1981 01a6 01DD     		ble	.L95
 1982              		.loc 3 554 0 is_stmt 0 discriminator 1
 1983 01a8 0123     		movs	r3, #1
 1984 01aa 7B85     		strh	r3, [r7, #42]	@ movhi
ARM GAS  C:\Users\tmj32\AppData\Local\Temp\cctNeIsL.s 			page 52


 1985              	.L95:
 555:..\..\..\lvgl\version_6.1.2\lvgl\src\lv_objx/lv_tileview.c ****     if(y_move < -1) y_move = -1;
 1986              		.loc 3 555 0 is_stmt 1
 1987 01ac B7F92830 		ldrsh	r3, [r7, #40]
 1988 01b0 B3F1FF3F 		cmp	r3, #-1
 1989 01b4 02DA     		bge	.L96
 1990              		.loc 3 555 0 is_stmt 0 discriminator 1
 1991 01b6 4FF6FF73 		movw	r3, #65535
 1992 01ba 3B85     		strh	r3, [r7, #40]	@ movhi
 1993              	.L96:
 556:..\..\..\lvgl\version_6.1.2\lvgl\src\lv_objx/lv_tileview.c ****     if(y_move > 1) y_move = 1;
 1994              		.loc 3 556 0 is_stmt 1
 1995 01bc B7F92830 		ldrsh	r3, [r7, #40]
 1996 01c0 012B     		cmp	r3, #1
 1997 01c2 01DD     		ble	.L97
 1998              		.loc 3 556 0 is_stmt 0 discriminator 1
 1999 01c4 0123     		movs	r3, #1
 2000 01c6 3B85     		strh	r3, [r7, #40]	@ movhi
 2001              	.L97:
 557:..\..\..\lvgl\version_6.1.2\lvgl\src\lv_objx/lv_tileview.c **** 
 558:..\..\..\lvgl\version_6.1.2\lvgl\src\lv_objx/lv_tileview.c ****     /*Set the new tile*/
 559:..\..\..\lvgl\version_6.1.2\lvgl\src\lv_objx/lv_tileview.c ****     lv_tileview_set_tile_act(tileview, ext->act_id.x + x_move, ext->act_id.y + y_move, true);
 2002              		.loc 3 559 0 is_stmt 1
 2003 01c8 7B6A     		ldr	r3, [r7, #36]
 2004 01ca B3F93830 		ldrsh	r3, [r3, #56]
 2005 01ce 9AB2     		uxth	r2, r3
 2006 01d0 7B8D     		ldrh	r3, [r7, #42]
 2007 01d2 1344     		add	r3, r3, r2
 2008 01d4 9BB2     		uxth	r3, r3
 2009 01d6 19B2     		sxth	r1, r3
 2010 01d8 7B6A     		ldr	r3, [r7, #36]
 2011 01da B3F93A30 		ldrsh	r3, [r3, #58]
 2012 01de 9AB2     		uxth	r2, r3
 2013 01e0 3B8D     		ldrh	r3, [r7, #40]
 2014 01e2 1344     		add	r3, r3, r2
 2015 01e4 9BB2     		uxth	r3, r3
 2016 01e6 1AB2     		sxth	r2, r3
 2017 01e8 0123     		movs	r3, #1
 2018 01ea 7868     		ldr	r0, [r7, #4]
 2019 01ec FFF7FEFF 		bl	lv_tileview_set_tile_act
 560:..\..\..\lvgl\version_6.1.2\lvgl\src\lv_objx/lv_tileview.c **** }
 2020              		.loc 3 560 0
 2021 01f0 00BF     		nop
 2022 01f2 3437     		adds	r7, r7, #52
 2023              		.cfi_def_cfa_offset 12
 2024 01f4 BD46     		mov	sp, r7
 2025              		.cfi_def_cfa_register 13
 2026              		@ sp needed
 2027 01f6 90BD     		pop	{r4, r7, pc}
 2028              	.L99:
 2029              		.align	2
 2030              	.L98:
 2031 01f8 1F85EB51 		.word	1374389535
 2032              		.cfi_endproc
 2033              	.LFE61:
 2034              		.size	drag_end_handler, .-drag_end_handler
 2035              		.section	.text.set_valid_drag_dirs,"ax",%progbits
ARM GAS  C:\Users\tmj32\AppData\Local\Temp\cctNeIsL.s 			page 53


 2036              		.align	2
 2037              		.thumb
 2038              		.thumb_func
 2039              		.type	set_valid_drag_dirs, %function
 2040              	set_valid_drag_dirs:
 2041              	.LFB62:
 561:..\..\..\lvgl\version_6.1.2\lvgl\src\lv_objx/lv_tileview.c **** 
 562:..\..\..\lvgl\version_6.1.2\lvgl\src\lv_objx/lv_tileview.c **** static bool set_valid_drag_dirs(lv_obj_t * tileview)
 563:..\..\..\lvgl\version_6.1.2\lvgl\src\lv_objx/lv_tileview.c **** {
 2042              		.loc 3 563 0
 2043              		.cfi_startproc
 2044              		@ args = 0, pretend = 0, frame = 16
 2045              		@ frame_needed = 1, uses_anonymous_args = 0
 2046 0000 80B5     		push	{r7, lr}
 2047              		.cfi_def_cfa_offset 8
 2048              		.cfi_offset 7, -8
 2049              		.cfi_offset 14, -4
 2050 0002 84B0     		sub	sp, sp, #16
 2051              		.cfi_def_cfa_offset 24
 2052 0004 00AF     		add	r7, sp, #0
 2053              		.cfi_def_cfa_register 7
 2054 0006 7860     		str	r0, [r7, #4]
 564:..\..\..\lvgl\version_6.1.2\lvgl\src\lv_objx/lv_tileview.c **** 
 565:..\..\..\lvgl\version_6.1.2\lvgl\src\lv_objx/lv_tileview.c ****     lv_tileview_ext_t * ext = lv_obj_get_ext_attr(tileview);
 2055              		.loc 3 565 0
 2056 0008 7868     		ldr	r0, [r7, #4]
 2057 000a FFF7FEFF 		bl	lv_obj_get_ext_attr
 2058 000e B860     		str	r0, [r7, #8]
 566:..\..\..\lvgl\version_6.1.2\lvgl\src\lv_objx/lv_tileview.c ****     if(ext->valid_pos == NULL) return false;
 2059              		.loc 3 566 0
 2060 0010 BB68     		ldr	r3, [r7, #8]
 2061 0012 1B6B     		ldr	r3, [r3, #48]
 2062 0014 002B     		cmp	r3, #0
 2063 0016 01D1     		bne	.L101
 2064              		.loc 3 566 0 is_stmt 0 discriminator 1
 2065 0018 0023     		movs	r3, #0
 2066 001a ACE0     		b	.L102
 2067              	.L101:
 567:..\..\..\lvgl\version_6.1.2\lvgl\src\lv_objx/lv_tileview.c **** 
 568:..\..\..\lvgl\version_6.1.2\lvgl\src\lv_objx/lv_tileview.c ****     ext->drag_bottom_en = 0;
 2068              		.loc 3 568 0 is_stmt 1
 2069 001c BA68     		ldr	r2, [r7, #8]
 2070 001e 92F83C30 		ldrb	r3, [r2, #60]
 2071 0022 6FF34103 		bfc	r3, #1, #1
 2072 0026 82F83C30 		strb	r3, [r2, #60]
 569:..\..\..\lvgl\version_6.1.2\lvgl\src\lv_objx/lv_tileview.c ****     ext->drag_top_en    = 0;
 2073              		.loc 3 569 0
 2074 002a BA68     		ldr	r2, [r7, #8]
 2075 002c 92F83C30 		ldrb	r3, [r2, #60]
 2076 0030 6FF30003 		bfc	r3, #0, #1
 2077 0034 82F83C30 		strb	r3, [r2, #60]
 570:..\..\..\lvgl\version_6.1.2\lvgl\src\lv_objx/lv_tileview.c ****     ext->drag_left_en   = 0;
 2078              		.loc 3 570 0
 2079 0038 BA68     		ldr	r2, [r7, #8]
 2080 003a 92F83C30 		ldrb	r3, [r2, #60]
 2081 003e 6FF38203 		bfc	r3, #2, #1
 2082 0042 82F83C30 		strb	r3, [r2, #60]
ARM GAS  C:\Users\tmj32\AppData\Local\Temp\cctNeIsL.s 			page 54


 571:..\..\..\lvgl\version_6.1.2\lvgl\src\lv_objx/lv_tileview.c ****     ext->drag_right_en  = 0;
 2083              		.loc 3 571 0
 2084 0046 BA68     		ldr	r2, [r7, #8]
 2085 0048 92F83C30 		ldrb	r3, [r2, #60]
 2086 004c 6FF3C303 		bfc	r3, #3, #1
 2087 0050 82F83C30 		strb	r3, [r2, #60]
 572:..\..\..\lvgl\version_6.1.2\lvgl\src\lv_objx/lv_tileview.c **** 
 573:..\..\..\lvgl\version_6.1.2\lvgl\src\lv_objx/lv_tileview.c ****     uint16_t i;
 574:..\..\..\lvgl\version_6.1.2\lvgl\src\lv_objx/lv_tileview.c ****     for(i = 0; i < ext->valid_pos_cnt; i++) {
 2088              		.loc 3 574 0
 2089 0054 0023     		movs	r3, #0
 2090 0056 FB81     		strh	r3, [r7, #14]	@ movhi
 2091 0058 86E0     		b	.L103
 2092              	.L108:
 575:..\..\..\lvgl\version_6.1.2\lvgl\src\lv_objx/lv_tileview.c ****         if(ext->valid_pos[i].x == ext->act_id.x && ext->valid_pos[i].y == ext->act_id.y - 1) ext->d
 2093              		.loc 3 575 0
 2094 005a BB68     		ldr	r3, [r7, #8]
 2095 005c 1A6B     		ldr	r2, [r3, #48]
 2096 005e FB89     		ldrh	r3, [r7, #14]
 2097 0060 9B00     		lsls	r3, r3, #2
 2098 0062 1344     		add	r3, r3, r2
 2099 0064 B3F90020 		ldrsh	r2, [r3]
 2100 0068 BB68     		ldr	r3, [r7, #8]
 2101 006a B3F93830 		ldrsh	r3, [r3, #56]
 2102 006e 9A42     		cmp	r2, r3
 2103 0070 14D1     		bne	.L104
 2104              		.loc 3 575 0 is_stmt 0 discriminator 1
 2105 0072 BB68     		ldr	r3, [r7, #8]
 2106 0074 1A6B     		ldr	r2, [r3, #48]
 2107 0076 FB89     		ldrh	r3, [r7, #14]
 2108 0078 9B00     		lsls	r3, r3, #2
 2109 007a 1344     		add	r3, r3, r2
 2110 007c B3F90230 		ldrsh	r3, [r3, #2]
 2111 0080 1A46     		mov	r2, r3
 2112 0082 BB68     		ldr	r3, [r7, #8]
 2113 0084 B3F93A30 		ldrsh	r3, [r3, #58]
 2114 0088 013B     		subs	r3, r3, #1
 2115 008a 9A42     		cmp	r2, r3
 2116 008c 06D1     		bne	.L104
 2117              		.loc 3 575 0 discriminator 2
 2118 008e BA68     		ldr	r2, [r7, #8]
 2119 0090 92F83C30 		ldrb	r3, [r2, #60]
 2120 0094 43F00103 		orr	r3, r3, #1
 2121 0098 82F83C30 		strb	r3, [r2, #60]
 2122              	.L104:
 576:..\..\..\lvgl\version_6.1.2\lvgl\src\lv_objx/lv_tileview.c ****         if(ext->valid_pos[i].x == ext->act_id.x && ext->valid_pos[i].y == ext->act_id.y + 1) ext->d
 2123              		.loc 3 576 0 is_stmt 1
 2124 009c BB68     		ldr	r3, [r7, #8]
 2125 009e 1A6B     		ldr	r2, [r3, #48]
 2126 00a0 FB89     		ldrh	r3, [r7, #14]
 2127 00a2 9B00     		lsls	r3, r3, #2
 2128 00a4 1344     		add	r3, r3, r2
 2129 00a6 B3F90020 		ldrsh	r2, [r3]
 2130 00aa BB68     		ldr	r3, [r7, #8]
 2131 00ac B3F93830 		ldrsh	r3, [r3, #56]
 2132 00b0 9A42     		cmp	r2, r3
 2133 00b2 14D1     		bne	.L105
ARM GAS  C:\Users\tmj32\AppData\Local\Temp\cctNeIsL.s 			page 55


 2134              		.loc 3 576 0 is_stmt 0 discriminator 1
 2135 00b4 BB68     		ldr	r3, [r7, #8]
 2136 00b6 1A6B     		ldr	r2, [r3, #48]
 2137 00b8 FB89     		ldrh	r3, [r7, #14]
 2138 00ba 9B00     		lsls	r3, r3, #2
 2139 00bc 1344     		add	r3, r3, r2
 2140 00be B3F90230 		ldrsh	r3, [r3, #2]
 2141 00c2 1A46     		mov	r2, r3
 2142 00c4 BB68     		ldr	r3, [r7, #8]
 2143 00c6 B3F93A30 		ldrsh	r3, [r3, #58]
 2144 00ca 0133     		adds	r3, r3, #1
 2145 00cc 9A42     		cmp	r2, r3
 2146 00ce 06D1     		bne	.L105
 2147              		.loc 3 576 0 discriminator 2
 2148 00d0 BA68     		ldr	r2, [r7, #8]
 2149 00d2 92F83C30 		ldrb	r3, [r2, #60]
 2150 00d6 43F00203 		orr	r3, r3, #2
 2151 00da 82F83C30 		strb	r3, [r2, #60]
 2152              	.L105:
 577:..\..\..\lvgl\version_6.1.2\lvgl\src\lv_objx/lv_tileview.c ****         if(ext->valid_pos[i].x == ext->act_id.x - 1 && ext->valid_pos[i].y == ext->act_id.y) ext->d
 2153              		.loc 3 577 0 is_stmt 1
 2154 00de BB68     		ldr	r3, [r7, #8]
 2155 00e0 1A6B     		ldr	r2, [r3, #48]
 2156 00e2 FB89     		ldrh	r3, [r7, #14]
 2157 00e4 9B00     		lsls	r3, r3, #2
 2158 00e6 1344     		add	r3, r3, r2
 2159 00e8 B3F90030 		ldrsh	r3, [r3]
 2160 00ec 1A46     		mov	r2, r3
 2161 00ee BB68     		ldr	r3, [r7, #8]
 2162 00f0 B3F93830 		ldrsh	r3, [r3, #56]
 2163 00f4 013B     		subs	r3, r3, #1
 2164 00f6 9A42     		cmp	r2, r3
 2165 00f8 12D1     		bne	.L106
 2166              		.loc 3 577 0 is_stmt 0 discriminator 1
 2167 00fa BB68     		ldr	r3, [r7, #8]
 2168 00fc 1A6B     		ldr	r2, [r3, #48]
 2169 00fe FB89     		ldrh	r3, [r7, #14]
 2170 0100 9B00     		lsls	r3, r3, #2
 2171 0102 1344     		add	r3, r3, r2
 2172 0104 B3F90220 		ldrsh	r2, [r3, #2]
 2173 0108 BB68     		ldr	r3, [r7, #8]
 2174 010a B3F93A30 		ldrsh	r3, [r3, #58]
 2175 010e 9A42     		cmp	r2, r3
 2176 0110 06D1     		bne	.L106
 2177              		.loc 3 577 0 discriminator 2
 2178 0112 BA68     		ldr	r2, [r7, #8]
 2179 0114 92F83C30 		ldrb	r3, [r2, #60]
 2180 0118 43F00403 		orr	r3, r3, #4
 2181 011c 82F83C30 		strb	r3, [r2, #60]
 2182              	.L106:
 578:..\..\..\lvgl\version_6.1.2\lvgl\src\lv_objx/lv_tileview.c ****         if(ext->valid_pos[i].x == ext->act_id.x + 1 && ext->valid_pos[i].y == ext->act_id.y) ext->d
 2183              		.loc 3 578 0 is_stmt 1
 2184 0120 BB68     		ldr	r3, [r7, #8]
 2185 0122 1A6B     		ldr	r2, [r3, #48]
 2186 0124 FB89     		ldrh	r3, [r7, #14]
 2187 0126 9B00     		lsls	r3, r3, #2
 2188 0128 1344     		add	r3, r3, r2
ARM GAS  C:\Users\tmj32\AppData\Local\Temp\cctNeIsL.s 			page 56


 2189 012a B3F90030 		ldrsh	r3, [r3]
 2190 012e 1A46     		mov	r2, r3
 2191 0130 BB68     		ldr	r3, [r7, #8]
 2192 0132 B3F93830 		ldrsh	r3, [r3, #56]
 2193 0136 0133     		adds	r3, r3, #1
 2194 0138 9A42     		cmp	r2, r3
 2195 013a 12D1     		bne	.L107
 2196              		.loc 3 578 0 is_stmt 0 discriminator 1
 2197 013c BB68     		ldr	r3, [r7, #8]
 2198 013e 1A6B     		ldr	r2, [r3, #48]
 2199 0140 FB89     		ldrh	r3, [r7, #14]
 2200 0142 9B00     		lsls	r3, r3, #2
 2201 0144 1344     		add	r3, r3, r2
 2202 0146 B3F90220 		ldrsh	r2, [r3, #2]
 2203 014a BB68     		ldr	r3, [r7, #8]
 2204 014c B3F93A30 		ldrsh	r3, [r3, #58]
 2205 0150 9A42     		cmp	r2, r3
 2206 0152 06D1     		bne	.L107
 2207              		.loc 3 578 0 discriminator 2
 2208 0154 BA68     		ldr	r2, [r7, #8]
 2209 0156 92F83C30 		ldrb	r3, [r2, #60]
 2210 015a 43F00803 		orr	r3, r3, #8
 2211 015e 82F83C30 		strb	r3, [r2, #60]
 2212              	.L107:
 574:..\..\..\lvgl\version_6.1.2\lvgl\src\lv_objx/lv_tileview.c ****         if(ext->valid_pos[i].x == ext->act_id.x && ext->valid_pos[i].y == ext->act_id.y - 1) ext->d
 2213              		.loc 3 574 0 is_stmt 1 discriminator 2
 2214 0162 FB89     		ldrh	r3, [r7, #14]
 2215 0164 0133     		adds	r3, r3, #1
 2216 0166 FB81     		strh	r3, [r7, #14]	@ movhi
 2217              	.L103:
 574:..\..\..\lvgl\version_6.1.2\lvgl\src\lv_objx/lv_tileview.c ****         if(ext->valid_pos[i].x == ext->act_id.x && ext->valid_pos[i].y == ext->act_id.y - 1) ext->d
 2218              		.loc 3 574 0 is_stmt 0 discriminator 1
 2219 0168 BB68     		ldr	r3, [r7, #8]
 2220 016a 9B8E     		ldrh	r3, [r3, #52]
 2221 016c FA89     		ldrh	r2, [r7, #14]
 2222 016e 9A42     		cmp	r2, r3
 2223 0170 FFF473AF 		bcc	.L108
 579:..\..\..\lvgl\version_6.1.2\lvgl\src\lv_objx/lv_tileview.c ****     }
 580:..\..\..\lvgl\version_6.1.2\lvgl\src\lv_objx/lv_tileview.c **** 
 581:..\..\..\lvgl\version_6.1.2\lvgl\src\lv_objx/lv_tileview.c ****     return true;
 2224              		.loc 3 581 0 is_stmt 1
 2225 0174 0123     		movs	r3, #1
 2226              	.L102:
 582:..\..\..\lvgl\version_6.1.2\lvgl\src\lv_objx/lv_tileview.c **** }
 2227              		.loc 3 582 0
 2228 0176 1846     		mov	r0, r3
 2229 0178 1037     		adds	r7, r7, #16
 2230              		.cfi_def_cfa_offset 8
 2231 017a BD46     		mov	sp, r7
 2232              		.cfi_def_cfa_register 13
 2233              		@ sp needed
 2234 017c 80BD     		pop	{r7, pc}
 2235              		.cfi_endproc
 2236              	.LFE62:
 2237              		.size	set_valid_drag_dirs, .-set_valid_drag_dirs
 2238 017e 00BF     		.text
 2239              	.Letext0:
ARM GAS  C:\Users\tmj32\AppData\Local\Temp\cctNeIsL.s 			page 57


 2240              		.file 4 "c:\\program files (x86)\\cypress\\psoc creator\\4.3\\psoc creator\\import\\gnu\\arm\\5.4.
 2241              		.file 5 "c:\\program files (x86)\\cypress\\psoc creator\\4.3\\psoc creator\\import\\gnu\\arm\\5.4.
 2242              		.file 6 "..\\..\\..\\lvgl\\version_6.1.2\\lvgl\\src\\lv_objx\\../../../lv_conf.h"
 2243              		.file 7 "..\\..\\..\\lvgl\\version_6.1.2\\lvgl\\src\\lv_objx\\../lv_objx/../lv_core/../lv_font/lv_
 2244              		.file 8 "..\\..\\..\\lvgl\\version_6.1.2\\lvgl\\src\\lv_objx\\../lv_objx/../lv_core/../lv_misc/lv_
 2245              		.file 9 "..\\..\\..\\lvgl\\version_6.1.2\\lvgl\\src\\lv_objx\\../lv_objx/../lv_core/../lv_misc/lv_
 2246              		.file 10 "..\\..\\..\\lvgl\\version_6.1.2\\lvgl\\src\\lv_objx\\../lv_objx/../lv_core/../lv_misc/lv
 2247              		.file 11 "..\\..\\..\\lvgl\\version_6.1.2\\lvgl\\src\\lv_objx\\../lv_objx/../lv_core/lv_style.h"
 2248              		.file 12 "..\\..\\..\\lvgl\\version_6.1.2\\lvgl\\src\\lv_objx\\../lv_objx/../lv_core/../lv_misc/lv
 2249              		.file 13 "..\\..\\..\\lvgl\\version_6.1.2\\lvgl\\src\\lv_objx\\../lv_objx/../lv_core/../lv_misc/lv
 2250              		.file 14 "..\\..\\..\\lvgl\\version_6.1.2\\lvgl\\src\\lv_objx\\../lv_objx/../lv_core/../lv_misc/lv
 2251              		.file 15 "..\\..\\..\\lvgl\\version_6.1.2\\lvgl\\src\\lv_objx\\../lv_objx/../lv_core/../lv_hal/../
 2252              		.file 16 "..\\..\\..\\lvgl\\version_6.1.2\\lvgl\\src\\lv_objx\\../lv_objx/../lv_core/../lv_hal/lv_
 2253              		.file 17 "..\\..\\..\\lvgl\\version_6.1.2\\lvgl\\src\\lv_objx\\../lv_objx/../lv_core/lv_obj.h"
 2254              		.file 18 "..\\..\\..\\lvgl\\version_6.1.2\\lvgl\\src\\lv_objx\\../lv_objx/../lv_core/../lv_hal/lv_
 2255              		.file 19 "..\\..\\..\\lvgl\\version_6.1.2\\lvgl\\src\\lv_objx\\lv_tileview.h"
 2256              		.file 20 "..\\..\\..\\lvgl\\version_6.1.2\\lvgl\\src\\lv_objx\\../lv_themes/lv_theme.h"
 2257              		.section	.debug_info,"",%progbits
 2258              	.Ldebug_info0:
 2259 0000 11210000 		.4byte	0x2111
 2260 0004 0400     		.2byte	0x4
 2261 0006 00000000 		.4byte	.Ldebug_abbrev0
 2262 000a 04       		.byte	0x4
 2263 000b 01       		.uleb128 0x1
 2264 000c 210D0000 		.4byte	.LASF391
 2265 0010 0C       		.byte	0xc
 2266 0011 95100000 		.4byte	.LASF392
 2267 0015 38080000 		.4byte	.LASF393
 2268 0019 00000000 		.4byte	.Ldebug_ranges0+0
 2269 001d 00000000 		.4byte	0
 2270 0021 00000000 		.4byte	.Ldebug_line0
 2271 0025 02       		.uleb128 0x2
 2272 0026 160C0000 		.4byte	.LASF0
 2273 002a 04       		.byte	0x4
 2274 002b 1B       		.byte	0x1b
 2275 002c 30000000 		.4byte	0x30
 2276 0030 03       		.uleb128 0x3
 2277 0031 01       		.byte	0x1
 2278 0032 06       		.byte	0x6
 2279 0033 3B030000 		.4byte	.LASF2
 2280 0037 02       		.uleb128 0x2
 2281 0038 55020000 		.4byte	.LASF1
 2282 003c 04       		.byte	0x4
 2283 003d 1D       		.byte	0x1d
 2284 003e 42000000 		.4byte	0x42
 2285 0042 03       		.uleb128 0x3
 2286 0043 01       		.byte	0x1
 2287 0044 08       		.byte	0x8
 2288 0045 C7030000 		.4byte	.LASF3
 2289 0049 02       		.uleb128 0x2
 2290 004a F30D0000 		.4byte	.LASF4
 2291 004e 04       		.byte	0x4
 2292 004f 29       		.byte	0x29
 2293 0050 54000000 		.4byte	0x54
 2294 0054 03       		.uleb128 0x3
 2295 0055 02       		.byte	0x2
 2296 0056 05       		.byte	0x5
ARM GAS  C:\Users\tmj32\AppData\Local\Temp\cctNeIsL.s 			page 58


 2297 0057 1E0F0000 		.4byte	.LASF5
 2298 005b 02       		.uleb128 0x2
 2299 005c C7040000 		.4byte	.LASF6
 2300 0060 04       		.byte	0x4
 2301 0061 2B       		.byte	0x2b
 2302 0062 66000000 		.4byte	0x66
 2303 0066 03       		.uleb128 0x3
 2304 0067 02       		.byte	0x2
 2305 0068 07       		.byte	0x7
 2306 0069 16110000 		.4byte	.LASF7
 2307 006d 02       		.uleb128 0x2
 2308 006e E3110000 		.4byte	.LASF8
 2309 0072 04       		.byte	0x4
 2310 0073 3F       		.byte	0x3f
 2311 0074 78000000 		.4byte	0x78
 2312 0078 03       		.uleb128 0x3
 2313 0079 04       		.byte	0x4
 2314 007a 05       		.byte	0x5
 2315 007b BC020000 		.4byte	.LASF9
 2316 007f 02       		.uleb128 0x2
 2317 0080 FB070000 		.4byte	.LASF10
 2318 0084 04       		.byte	0x4
 2319 0085 41       		.byte	0x41
 2320 0086 8A000000 		.4byte	0x8a
 2321 008a 03       		.uleb128 0x3
 2322 008b 04       		.byte	0x4
 2323 008c 07       		.byte	0x7
 2324 008d F1060000 		.4byte	.LASF11
 2325 0091 03       		.uleb128 0x3
 2326 0092 08       		.byte	0x8
 2327 0093 05       		.byte	0x5
 2328 0094 2A080000 		.4byte	.LASF12
 2329 0098 03       		.uleb128 0x3
 2330 0099 08       		.byte	0x8
 2331 009a 07       		.byte	0x7
 2332 009b 540C0000 		.4byte	.LASF13
 2333 009f 04       		.uleb128 0x4
 2334 00a0 04       		.byte	0x4
 2335 00a1 05       		.byte	0x5
 2336 00a2 696E7400 		.ascii	"int\000"
 2337 00a6 03       		.uleb128 0x3
 2338 00a7 04       		.byte	0x4
 2339 00a8 07       		.byte	0x7
 2340 00a9 AA090000 		.4byte	.LASF14
 2341 00ad 02       		.uleb128 0x2
 2342 00ae 00000000 		.4byte	.LASF15
 2343 00b2 05       		.byte	0x5
 2344 00b3 14       		.byte	0x14
 2345 00b4 25000000 		.4byte	0x25
 2346 00b8 02       		.uleb128 0x2
 2347 00b9 47030000 		.4byte	.LASF16
 2348 00bd 05       		.byte	0x5
 2349 00be 18       		.byte	0x18
 2350 00bf 37000000 		.4byte	0x37
 2351 00c3 02       		.uleb128 0x2
 2352 00c4 550F0000 		.4byte	.LASF17
 2353 00c8 05       		.byte	0x5
ARM GAS  C:\Users\tmj32\AppData\Local\Temp\cctNeIsL.s 			page 59


 2354 00c9 20       		.byte	0x20
 2355 00ca 49000000 		.4byte	0x49
 2356 00ce 02       		.uleb128 0x2
 2357 00cf 6B0C0000 		.4byte	.LASF18
 2358 00d3 05       		.byte	0x5
 2359 00d4 24       		.byte	0x24
 2360 00d5 5B000000 		.4byte	0x5b
 2361 00d9 02       		.uleb128 0x2
 2362 00da A9000000 		.4byte	.LASF19
 2363 00de 05       		.byte	0x5
 2364 00df 2C       		.byte	0x2c
 2365 00e0 6D000000 		.4byte	0x6d
 2366 00e4 02       		.uleb128 0x2
 2367 00e5 8C100000 		.4byte	.LASF20
 2368 00e9 05       		.byte	0x5
 2369 00ea 30       		.byte	0x30
 2370 00eb 7F000000 		.4byte	0x7f
 2371 00ef 02       		.uleb128 0x2
 2372 00f0 61110000 		.4byte	.LASF21
 2373 00f4 06       		.byte	0x6
 2374 00f5 3C       		.byte	0x3c
 2375 00f6 C3000000 		.4byte	0xc3
 2376 00fa 05       		.uleb128 0x5
 2377 00fb 04       		.byte	0x4
 2378 00fc 03       		.uleb128 0x3
 2379 00fd 08       		.byte	0x8
 2380 00fe 04       		.byte	0x4
 2381 00ff F70A0000 		.4byte	.LASF22
 2382 0103 06       		.uleb128 0x6
 2383 0104 08       		.byte	0x8
 2384 0105 07       		.byte	0x7
 2385 0106 2E       		.byte	0x2e
 2386 0107 54010000 		.4byte	0x154
 2387 010b 07       		.uleb128 0x7
 2388 010c 25000000 		.4byte	.LASF23
 2389 0110 07       		.byte	0x7
 2390 0111 30       		.byte	0x30
 2391 0112 CE000000 		.4byte	0xce
 2392 0116 00       		.byte	0
 2393 0117 07       		.uleb128 0x7
 2394 0118 180F0000 		.4byte	.LASF24
 2395 011c 07       		.byte	0x7
 2396 011d 31       		.byte	0x31
 2397 011e B8000000 		.4byte	0xb8
 2398 0122 02       		.byte	0x2
 2399 0123 07       		.uleb128 0x7
 2400 0124 FC0E0000 		.4byte	.LASF25
 2401 0128 07       		.byte	0x7
 2402 0129 32       		.byte	0x32
 2403 012a B8000000 		.4byte	0xb8
 2404 012e 03       		.byte	0x3
 2405 012f 07       		.uleb128 0x7
 2406 0130 32040000 		.4byte	.LASF26
 2407 0134 07       		.byte	0x7
 2408 0135 33       		.byte	0x33
 2409 0136 AD000000 		.4byte	0xad
 2410 013a 04       		.byte	0x4
ARM GAS  C:\Users\tmj32\AppData\Local\Temp\cctNeIsL.s 			page 60


 2411 013b 07       		.uleb128 0x7
 2412 013c 38040000 		.4byte	.LASF27
 2413 0140 07       		.byte	0x7
 2414 0141 34       		.byte	0x34
 2415 0142 AD000000 		.4byte	0xad
 2416 0146 05       		.byte	0x5
 2417 0147 08       		.uleb128 0x8
 2418 0148 62707000 		.ascii	"bpp\000"
 2419 014c 07       		.byte	0x7
 2420 014d 35       		.byte	0x35
 2421 014e B8000000 		.4byte	0xb8
 2422 0152 06       		.byte	0x6
 2423 0153 00       		.byte	0
 2424 0154 02       		.uleb128 0x2
 2425 0155 440A0000 		.4byte	.LASF28
 2426 0159 07       		.byte	0x7
 2427 015a 36       		.byte	0x36
 2428 015b 03010000 		.4byte	0x103
 2429 015f 09       		.uleb128 0x9
 2430 0160 6C120000 		.4byte	.LASF51
 2431 0164 10       		.byte	0x10
 2432 0165 07       		.byte	0x7
 2433 0166 44       		.byte	0x44
 2434 0167 B7010000 		.4byte	0x1b7
 2435 016b 07       		.uleb128 0x7
 2436 016c D5110000 		.4byte	.LASF29
 2437 0170 07       		.byte	0x7
 2438 0171 47       		.byte	0x47
 2439 0172 ED010000 		.4byte	0x1ed
 2440 0176 00       		.byte	0
 2441 0177 07       		.uleb128 0x7
 2442 0178 81030000 		.4byte	.LASF30
 2443 017c 07       		.byte	0x7
 2444 017d 4A       		.byte	0x4a
 2445 017e 12020000 		.4byte	0x212
 2446 0182 04       		.byte	0x4
 2447 0183 07       		.uleb128 0x7
 2448 0184 1D010000 		.4byte	.LASF31
 2449 0188 07       		.byte	0x7
 2450 0189 4D       		.byte	0x4d
 2451 018a B8000000 		.4byte	0xb8
 2452 018e 08       		.byte	0x8
 2453 018f 07       		.uleb128 0x7
 2454 0190 310F0000 		.4byte	.LASF32
 2455 0194 07       		.byte	0x7
 2456 0195 4E       		.byte	0x4e
 2457 0196 AD000000 		.4byte	0xad
 2458 019a 09       		.byte	0x9
 2459 019b 0A       		.uleb128 0xa
 2460 019c 4C0B0000 		.4byte	.LASF61
 2461 01a0 07       		.byte	0x7
 2462 01a1 4F       		.byte	0x4f
 2463 01a2 B8000000 		.4byte	0xb8
 2464 01a6 01       		.byte	0x1
 2465 01a7 02       		.byte	0x2
 2466 01a8 06       		.byte	0x6
 2467 01a9 0A       		.byte	0xa
ARM GAS  C:\Users\tmj32\AppData\Local\Temp\cctNeIsL.s 			page 61


 2468 01aa 08       		.uleb128 0x8
 2469 01ab 64736300 		.ascii	"dsc\000"
 2470 01af 07       		.byte	0x7
 2471 01b0 50       		.byte	0x50
 2472 01b1 FA000000 		.4byte	0xfa
 2473 01b5 0C       		.byte	0xc
 2474 01b6 00       		.byte	0
 2475 01b7 0B       		.uleb128 0xb
 2476 01b8 D5010000 		.4byte	0x1d5
 2477 01bc D5010000 		.4byte	0x1d5
 2478 01c0 0C       		.uleb128 0xc
 2479 01c1 DC010000 		.4byte	0x1dc
 2480 01c5 0C       		.uleb128 0xc
 2481 01c6 E7010000 		.4byte	0x1e7
 2482 01ca 0C       		.uleb128 0xc
 2483 01cb E4000000 		.4byte	0xe4
 2484 01cf 0C       		.uleb128 0xc
 2485 01d0 E4000000 		.4byte	0xe4
 2486 01d4 00       		.byte	0
 2487 01d5 03       		.uleb128 0x3
 2488 01d6 01       		.byte	0x1
 2489 01d7 02       		.byte	0x2
 2490 01d8 45040000 		.4byte	.LASF33
 2491 01dc 0D       		.uleb128 0xd
 2492 01dd 04       		.byte	0x4
 2493 01de E2010000 		.4byte	0x1e2
 2494 01e2 0E       		.uleb128 0xe
 2495 01e3 5F010000 		.4byte	0x15f
 2496 01e7 0D       		.uleb128 0xd
 2497 01e8 04       		.byte	0x4
 2498 01e9 54010000 		.4byte	0x154
 2499 01ed 0D       		.uleb128 0xd
 2500 01ee 04       		.byte	0x4
 2501 01ef B7010000 		.4byte	0x1b7
 2502 01f3 0B       		.uleb128 0xb
 2503 01f4 07020000 		.4byte	0x207
 2504 01f8 07020000 		.4byte	0x207
 2505 01fc 0C       		.uleb128 0xc
 2506 01fd DC010000 		.4byte	0x1dc
 2507 0201 0C       		.uleb128 0xc
 2508 0202 E4000000 		.4byte	0xe4
 2509 0206 00       		.byte	0
 2510 0207 0D       		.uleb128 0xd
 2511 0208 04       		.byte	0x4
 2512 0209 0D020000 		.4byte	0x20d
 2513 020d 0E       		.uleb128 0xe
 2514 020e B8000000 		.4byte	0xb8
 2515 0212 0D       		.uleb128 0xd
 2516 0213 04       		.byte	0x4
 2517 0214 F3010000 		.4byte	0x1f3
 2518 0218 02       		.uleb128 0x2
 2519 0219 F8100000 		.4byte	.LASF34
 2520 021d 07       		.byte	0x7
 2521 021e 56       		.byte	0x56
 2522 021f 5F010000 		.4byte	0x15f
 2523 0223 06       		.uleb128 0x6
 2524 0224 04       		.byte	0x4
ARM GAS  C:\Users\tmj32\AppData\Local\Temp\cctNeIsL.s 			page 62


 2525 0225 08       		.byte	0x8
 2526 0226 F3       		.byte	0xf3
 2527 0227 5C020000 		.4byte	0x25c
 2528 022b 07       		.uleb128 0x7
 2529 022c 97030000 		.4byte	.LASF35
 2530 0230 08       		.byte	0x8
 2531 0231 F5       		.byte	0xf5
 2532 0232 B8000000 		.4byte	0xb8
 2533 0236 00       		.byte	0
 2534 0237 07       		.uleb128 0x7
 2535 0238 F2100000 		.4byte	.LASF36
 2536 023c 08       		.byte	0x8
 2537 023d F6       		.byte	0xf6
 2538 023e B8000000 		.4byte	0xb8
 2539 0242 01       		.byte	0x1
 2540 0243 08       		.uleb128 0x8
 2541 0244 72656400 		.ascii	"red\000"
 2542 0248 08       		.byte	0x8
 2543 0249 F7       		.byte	0xf7
 2544 024a B8000000 		.4byte	0xb8
 2545 024e 02       		.byte	0x2
 2546 024f 07       		.uleb128 0x7
 2547 0250 5F020000 		.4byte	.LASF37
 2548 0254 08       		.byte	0x8
 2549 0255 F8       		.byte	0xf8
 2550 0256 B8000000 		.4byte	0xb8
 2551 025a 03       		.byte	0x3
 2552 025b 00       		.byte	0
 2553 025c 0F       		.uleb128 0xf
 2554 025d 04       		.byte	0x4
 2555 025e 08       		.byte	0x8
 2556 025f F1       		.byte	0xf1
 2557 0260 7A020000 		.4byte	0x27a
 2558 0264 10       		.uleb128 0x10
 2559 0265 636800   		.ascii	"ch\000"
 2560 0268 08       		.byte	0x8
 2561 0269 F9       		.byte	0xf9
 2562 026a 23020000 		.4byte	0x223
 2563 026e 11       		.uleb128 0x11
 2564 026f 3C0E0000 		.4byte	.LASF38
 2565 0273 08       		.byte	0x8
 2566 0274 FA       		.byte	0xfa
 2567 0275 E4000000 		.4byte	0xe4
 2568 0279 00       		.byte	0
 2569 027a 02       		.uleb128 0x2
 2570 027b 44000000 		.4byte	.LASF39
 2571 027f 08       		.byte	0x8
 2572 0280 FB       		.byte	0xfb
 2573 0281 5C020000 		.4byte	0x25c
 2574 0285 12       		.uleb128 0x12
 2575 0286 9E0C0000 		.4byte	.LASF40
 2576 028a 08       		.byte	0x8
 2577 028b 0801     		.2byte	0x108
 2578 028d 7A020000 		.4byte	0x27a
 2579 0291 12       		.uleb128 0x12
 2580 0292 A0000000 		.4byte	.LASF41
 2581 0296 08       		.byte	0x8
ARM GAS  C:\Users\tmj32\AppData\Local\Temp\cctNeIsL.s 			page 63


 2582 0297 0D01     		.2byte	0x10d
 2583 0299 B8000000 		.4byte	0xb8
 2584 029d 03       		.uleb128 0x3
 2585 029e 04       		.byte	0x4
 2586 029f 07       		.byte	0x7
 2587 02a0 35000000 		.4byte	.LASF42
 2588 02a4 03       		.uleb128 0x3
 2589 02a5 01       		.byte	0x1
 2590 02a6 08       		.byte	0x8
 2591 02a7 7E040000 		.4byte	.LASF43
 2592 02ab 06       		.uleb128 0x6
 2593 02ac 04       		.byte	0x4
 2594 02ad 09       		.byte	0x9
 2595 02ae 2A       		.byte	0x2a
 2596 02af C8020000 		.4byte	0x2c8
 2597 02b3 08       		.uleb128 0x8
 2598 02b4 7800     		.ascii	"x\000"
 2599 02b6 09       		.byte	0x9
 2600 02b7 2C       		.byte	0x2c
 2601 02b8 EF000000 		.4byte	0xef
 2602 02bc 00       		.byte	0
 2603 02bd 08       		.uleb128 0x8
 2604 02be 7900     		.ascii	"y\000"
 2605 02c0 09       		.byte	0x9
 2606 02c1 2D       		.byte	0x2d
 2607 02c2 EF000000 		.4byte	0xef
 2608 02c6 02       		.byte	0x2
 2609 02c7 00       		.byte	0
 2610 02c8 02       		.uleb128 0x2
 2611 02c9 E2000000 		.4byte	.LASF44
 2612 02cd 09       		.byte	0x9
 2613 02ce 2E       		.byte	0x2e
 2614 02cf AB020000 		.4byte	0x2ab
 2615 02d3 06       		.uleb128 0x6
 2616 02d4 08       		.byte	0x8
 2617 02d5 09       		.byte	0x9
 2618 02d6 31       		.byte	0x31
 2619 02d7 08030000 		.4byte	0x308
 2620 02db 08       		.uleb128 0x8
 2621 02dc 783100   		.ascii	"x1\000"
 2622 02df 09       		.byte	0x9
 2623 02e0 33       		.byte	0x33
 2624 02e1 EF000000 		.4byte	0xef
 2625 02e5 00       		.byte	0
 2626 02e6 08       		.uleb128 0x8
 2627 02e7 793100   		.ascii	"y1\000"
 2628 02ea 09       		.byte	0x9
 2629 02eb 34       		.byte	0x34
 2630 02ec EF000000 		.4byte	0xef
 2631 02f0 02       		.byte	0x2
 2632 02f1 08       		.uleb128 0x8
 2633 02f2 783200   		.ascii	"x2\000"
 2634 02f5 09       		.byte	0x9
 2635 02f6 35       		.byte	0x35
 2636 02f7 EF000000 		.4byte	0xef
 2637 02fb 04       		.byte	0x4
 2638 02fc 08       		.uleb128 0x8
ARM GAS  C:\Users\tmj32\AppData\Local\Temp\cctNeIsL.s 			page 64


 2639 02fd 793200   		.ascii	"y2\000"
 2640 0300 09       		.byte	0x9
 2641 0301 36       		.byte	0x36
 2642 0302 EF000000 		.4byte	0xef
 2643 0306 06       		.byte	0x6
 2644 0307 00       		.byte	0
 2645 0308 02       		.uleb128 0x2
 2646 0309 C5050000 		.4byte	.LASF45
 2647 030d 09       		.byte	0x9
 2648 030e 37       		.byte	0x37
 2649 030f D3020000 		.4byte	0x2d3
 2650 0313 13       		.uleb128 0x13
 2651 0314 01       		.byte	0x1
 2652 0315 42000000 		.4byte	0x42
 2653 0319 0A       		.byte	0xa
 2654 031a 23       		.byte	0x23
 2655 031b 2C030000 		.4byte	0x32c
 2656 031f 14       		.uleb128 0x14
 2657 0320 6D030000 		.4byte	.LASF46
 2658 0324 00       		.byte	0
 2659 0325 14       		.uleb128 0x14
 2660 0326 56000000 		.4byte	.LASF47
 2661 032a 01       		.byte	0x1
 2662 032b 00       		.byte	0
 2663 032c 02       		.uleb128 0x2
 2664 032d 52070000 		.4byte	.LASF48
 2665 0331 0A       		.byte	0xa
 2666 0332 28       		.byte	0x28
 2667 0333 B8000000 		.4byte	0xb8
 2668 0337 02       		.uleb128 0x2
 2669 0338 DB040000 		.4byte	.LASF49
 2670 033c 0A       		.byte	0xa
 2671 033d 2B       		.byte	0x2b
 2672 033e EF000000 		.4byte	0xef
 2673 0342 02       		.uleb128 0x2
 2674 0343 8A040000 		.4byte	.LASF50
 2675 0347 0A       		.byte	0xa
 2676 0348 37       		.byte	0x37
 2677 0349 4D030000 		.4byte	0x34d
 2678 034d 0D       		.uleb128 0xd
 2679 034e 04       		.byte	0x4
 2680 034f 53030000 		.4byte	0x353
 2681 0353 15       		.uleb128 0x15
 2682 0354 63030000 		.4byte	0x363
 2683 0358 0C       		.uleb128 0xc
 2684 0359 FA000000 		.4byte	0xfa
 2685 035d 0C       		.uleb128 0xc
 2686 035e 37030000 		.4byte	0x337
 2687 0362 00       		.byte	0
 2688 0363 0D       		.uleb128 0xd
 2689 0364 04       		.byte	0x4
 2690 0365 69030000 		.4byte	0x369
 2691 0369 09       		.uleb128 0x9
 2692 036a 82120000 		.4byte	.LASF52
 2693 036e 24       		.byte	0x24
 2694 036f 0A       		.byte	0xa
 2695 0370 44       		.byte	0x44
ARM GAS  C:\Users\tmj32\AppData\Local\Temp\cctNeIsL.s 			page 65


 2696 0371 2A040000 		.4byte	0x42a
 2697 0375 08       		.uleb128 0x8
 2698 0376 76617200 		.ascii	"var\000"
 2699 037a 0A       		.byte	0xa
 2700 037b 46       		.byte	0x46
 2701 037c FA000000 		.4byte	0xfa
 2702 0380 00       		.byte	0
 2703 0381 07       		.uleb128 0x7
 2704 0382 F20C0000 		.4byte	.LASF53
 2705 0386 0A       		.byte	0xa
 2706 0387 47       		.byte	0x47
 2707 0388 42030000 		.4byte	0x342
 2708 038c 04       		.byte	0x4
 2709 038d 07       		.uleb128 0x7
 2710 038e 29010000 		.4byte	.LASF54
 2711 0392 0A       		.byte	0xa
 2712 0393 48       		.byte	0x48
 2713 0394 2A040000 		.4byte	0x42a
 2714 0398 08       		.byte	0x8
 2715 0399 07       		.uleb128 0x7
 2716 039a 42050000 		.4byte	.LASF55
 2717 039e 0A       		.byte	0xa
 2718 039f 49       		.byte	0x49
 2719 03a0 55040000 		.4byte	0x455
 2720 03a4 0C       		.byte	0xc
 2721 03a5 07       		.uleb128 0x7
 2722 03a6 3E000000 		.4byte	.LASF56
 2723 03aa 0A       		.byte	0xa
 2724 03ab 4A       		.byte	0x4a
 2725 03ac D9000000 		.4byte	0xd9
 2726 03b0 10       		.byte	0x10
 2727 03b1 08       		.uleb128 0x8
 2728 03b2 656E6400 		.ascii	"end\000"
 2729 03b6 0A       		.byte	0xa
 2730 03b7 4B       		.byte	0x4b
 2731 03b8 D9000000 		.4byte	0xd9
 2732 03bc 14       		.byte	0x14
 2733 03bd 07       		.uleb128 0x7
 2734 03be 4E0E0000 		.4byte	.LASF57
 2735 03c2 0A       		.byte	0xa
 2736 03c3 4C       		.byte	0x4c
 2737 03c4 CE000000 		.4byte	0xce
 2738 03c8 18       		.byte	0x18
 2739 03c9 07       		.uleb128 0x7
 2740 03ca 3A100000 		.4byte	.LASF58
 2741 03ce 0A       		.byte	0xa
 2742 03cf 4D       		.byte	0x4d
 2743 03d0 C3000000 		.4byte	0xc3
 2744 03d4 1A       		.byte	0x1a
 2745 03d5 07       		.uleb128 0x7
 2746 03d6 DE100000 		.4byte	.LASF59
 2747 03da 0A       		.byte	0xa
 2748 03db 4E       		.byte	0x4e
 2749 03dc CE000000 		.4byte	0xce
 2750 03e0 1C       		.byte	0x1c
 2751 03e1 07       		.uleb128 0x7
 2752 03e2 9C020000 		.4byte	.LASF60
ARM GAS  C:\Users\tmj32\AppData\Local\Temp\cctNeIsL.s 			page 66


 2753 03e6 0A       		.byte	0xa
 2754 03e7 4F       		.byte	0x4f
 2755 03e8 CE000000 		.4byte	0xce
 2756 03ec 1E       		.byte	0x1e
 2757 03ed 0A       		.uleb128 0xa
 2758 03ee 280F0000 		.4byte	.LASF62
 2759 03f2 0A       		.byte	0xa
 2760 03f3 54       		.byte	0x54
 2761 03f4 B8000000 		.4byte	0xb8
 2762 03f8 01       		.byte	0x1
 2763 03f9 01       		.byte	0x1
 2764 03fa 07       		.byte	0x7
 2765 03fb 20       		.byte	0x20
 2766 03fc 0A       		.uleb128 0xa
 2767 03fd 99000000 		.4byte	.LASF63
 2768 0401 0A       		.byte	0xa
 2769 0402 55       		.byte	0x55
 2770 0403 B8000000 		.4byte	0xb8
 2771 0407 01       		.byte	0x1
 2772 0408 01       		.byte	0x1
 2773 0409 06       		.byte	0x6
 2774 040a 20       		.byte	0x20
 2775 040b 0A       		.uleb128 0xa
 2776 040c A3110000 		.4byte	.LASF64
 2777 0410 0A       		.byte	0xa
 2778 0411 57       		.byte	0x57
 2779 0412 B8000000 		.4byte	0xb8
 2780 0416 01       		.byte	0x1
 2781 0417 01       		.byte	0x1
 2782 0418 05       		.byte	0x5
 2783 0419 20       		.byte	0x20
 2784 041a 0A       		.uleb128 0xa
 2785 041b 3C0C0000 		.4byte	.LASF65
 2786 041f 0A       		.byte	0xa
 2787 0420 58       		.byte	0x58
 2788 0421 E4000000 		.4byte	0xe4
 2789 0425 04       		.byte	0x4
 2790 0426 01       		.byte	0x1
 2791 0427 1C       		.byte	0x1c
 2792 0428 20       		.byte	0x20
 2793 0429 00       		.byte	0
 2794 042a 02       		.uleb128 0x2
 2795 042b CB090000 		.4byte	.LASF66
 2796 042f 0A       		.byte	0xa
 2797 0430 3E       		.byte	0x3e
 2798 0431 35040000 		.4byte	0x435
 2799 0435 0D       		.uleb128 0xd
 2800 0436 04       		.byte	0x4
 2801 0437 3B040000 		.4byte	0x43b
 2802 043b 0B       		.uleb128 0xb
 2803 043c 37030000 		.4byte	0x337
 2804 0440 4A040000 		.4byte	0x44a
 2805 0444 0C       		.uleb128 0xc
 2806 0445 4A040000 		.4byte	0x44a
 2807 0449 00       		.byte	0
 2808 044a 0D       		.uleb128 0xd
 2809 044b 04       		.byte	0x4
ARM GAS  C:\Users\tmj32\AppData\Local\Temp\cctNeIsL.s 			page 67


 2810 044c 50040000 		.4byte	0x450
 2811 0450 0E       		.uleb128 0xe
 2812 0451 69030000 		.4byte	0x369
 2813 0455 02       		.uleb128 0x2
 2814 0456 1B060000 		.4byte	.LASF67
 2815 045a 0A       		.byte	0xa
 2816 045b 41       		.byte	0x41
 2817 045c 60040000 		.4byte	0x460
 2818 0460 0D       		.uleb128 0xd
 2819 0461 04       		.byte	0x4
 2820 0462 66040000 		.4byte	0x466
 2821 0466 15       		.uleb128 0x15
 2822 0467 71040000 		.4byte	0x471
 2823 046b 0C       		.uleb128 0xc
 2824 046c 63030000 		.4byte	0x363
 2825 0470 00       		.byte	0
 2826 0471 02       		.uleb128 0x2
 2827 0472 DA060000 		.4byte	.LASF68
 2828 0476 0A       		.byte	0xa
 2829 0477 59       		.byte	0x59
 2830 0478 69030000 		.4byte	0x369
 2831 047c 02       		.uleb128 0x2
 2832 047d FB110000 		.4byte	.LASF69
 2833 0481 0B       		.byte	0xb
 2834 0482 2C       		.byte	0x2c
 2835 0483 B8000000 		.4byte	0xb8
 2836 0487 02       		.uleb128 0x2
 2837 0488 910E0000 		.4byte	.LASF70
 2838 048c 0B       		.byte	0xb
 2839 048d 33       		.byte	0x33
 2840 048e B8000000 		.4byte	0xb8
 2841 0492 06       		.uleb128 0x6
 2842 0493 08       		.byte	0x8
 2843 0494 0B       		.byte	0xb
 2844 0495 48       		.byte	0x48
 2845 0496 CB040000 		.4byte	0x4cb
 2846 049a 07       		.uleb128 0x7
 2847 049b 480E0000 		.4byte	.LASF71
 2848 049f 0B       		.byte	0xb
 2849 04a0 4A       		.byte	0x4a
 2850 04a1 85020000 		.4byte	0x285
 2851 04a5 00       		.byte	0
 2852 04a6 07       		.uleb128 0x7
 2853 04a7 D5080000 		.4byte	.LASF72
 2854 04ab 0B       		.byte	0xb
 2855 04ac 4B       		.byte	0x4b
 2856 04ad EF000000 		.4byte	0xef
 2857 04b1 04       		.byte	0x4
 2858 04b2 07       		.uleb128 0x7
 2859 04b3 4F110000 		.4byte	.LASF73
 2860 04b7 0B       		.byte	0xb
 2861 04b8 4C       		.byte	0x4c
 2862 04b9 7C040000 		.4byte	0x47c
 2863 04bd 06       		.byte	0x6
 2864 04be 08       		.uleb128 0x8
 2865 04bf 6F706100 		.ascii	"opa\000"
 2866 04c3 0B       		.byte	0xb
ARM GAS  C:\Users\tmj32\AppData\Local\Temp\cctNeIsL.s 			page 68


 2867 04c4 4D       		.byte	0x4d
 2868 04c5 91020000 		.4byte	0x291
 2869 04c9 07       		.byte	0x7
 2870 04ca 00       		.byte	0
 2871 04cb 06       		.uleb128 0x6
 2872 04cc 08       		.byte	0x8
 2873 04cd 0B       		.byte	0xb
 2874 04ce 51       		.byte	0x51
 2875 04cf F8040000 		.4byte	0x4f8
 2876 04d3 07       		.uleb128 0x7
 2877 04d4 480E0000 		.4byte	.LASF71
 2878 04d8 0B       		.byte	0xb
 2879 04d9 53       		.byte	0x53
 2880 04da 85020000 		.4byte	0x285
 2881 04de 00       		.byte	0
 2882 04df 07       		.uleb128 0x7
 2883 04e0 D5080000 		.4byte	.LASF72
 2884 04e4 0B       		.byte	0xb
 2885 04e5 54       		.byte	0x54
 2886 04e6 EF000000 		.4byte	0xef
 2887 04ea 04       		.byte	0x4
 2888 04eb 07       		.uleb128 0x7
 2889 04ec BF010000 		.4byte	.LASF74
 2890 04f0 0B       		.byte	0xb
 2891 04f1 55       		.byte	0x55
 2892 04f2 87040000 		.4byte	0x487
 2893 04f6 06       		.byte	0x6
 2894 04f7 00       		.byte	0
 2895 04f8 06       		.uleb128 0x6
 2896 04f9 0A       		.byte	0xa
 2897 04fa 0B       		.byte	0xb
 2898 04fb 58       		.byte	0x58
 2899 04fc 3D050000 		.4byte	0x53d
 2900 0500 08       		.uleb128 0x8
 2901 0501 746F7000 		.ascii	"top\000"
 2902 0505 0B       		.byte	0xb
 2903 0506 5A       		.byte	0x5a
 2904 0507 EF000000 		.4byte	0xef
 2905 050b 00       		.byte	0
 2906 050c 07       		.uleb128 0x7
 2907 050d ED080000 		.4byte	.LASF75
 2908 0511 0B       		.byte	0xb
 2909 0512 5B       		.byte	0x5b
 2910 0513 EF000000 		.4byte	0xef
 2911 0517 02       		.byte	0x2
 2912 0518 07       		.uleb128 0x7
 2913 0519 0B060000 		.4byte	.LASF76
 2914 051d 0B       		.byte	0xb
 2915 051e 5C       		.byte	0x5c
 2916 051f EF000000 		.4byte	0xef
 2917 0523 04       		.byte	0x4
 2918 0524 07       		.uleb128 0x7
 2919 0525 1C080000 		.4byte	.LASF77
 2920 0529 0B       		.byte	0xb
 2921 052a 5D       		.byte	0x5d
 2922 052b EF000000 		.4byte	0xef
 2923 052f 06       		.byte	0x6
ARM GAS  C:\Users\tmj32\AppData\Local\Temp\cctNeIsL.s 			page 69


 2924 0530 07       		.uleb128 0x7
 2925 0531 CB060000 		.4byte	.LASF78
 2926 0535 0B       		.byte	0xb
 2927 0536 5E       		.byte	0x5e
 2928 0537 EF000000 		.4byte	0xef
 2929 053b 08       		.byte	0x8
 2930 053c 00       		.byte	0
 2931 053d 06       		.uleb128 0x6
 2932 053e 28       		.byte	0x28
 2933 053f 0B       		.byte	0xb
 2934 0540 41       		.byte	0x41
 2935 0541 9A050000 		.4byte	0x59a
 2936 0545 07       		.uleb128 0x7
 2937 0546 0B0C0000 		.4byte	.LASF79
 2938 054a 0B       		.byte	0xb
 2939 054b 43       		.byte	0x43
 2940 054c 85020000 		.4byte	0x285
 2941 0550 00       		.byte	0
 2942 0551 07       		.uleb128 0x7
 2943 0552 5D0A0000 		.4byte	.LASF80
 2944 0556 0B       		.byte	0xb
 2945 0557 44       		.byte	0x44
 2946 0558 85020000 		.4byte	0x285
 2947 055c 04       		.byte	0x4
 2948 055d 07       		.uleb128 0x7
 2949 055e 09010000 		.4byte	.LASF81
 2950 0562 0B       		.byte	0xb
 2951 0563 45       		.byte	0x45
 2952 0564 EF000000 		.4byte	0xef
 2953 0568 08       		.byte	0x8
 2954 0569 08       		.uleb128 0x8
 2955 056a 6F706100 		.ascii	"opa\000"
 2956 056e 0B       		.byte	0xb
 2957 056f 46       		.byte	0x46
 2958 0570 91020000 		.4byte	0x291
 2959 0574 0A       		.byte	0xa
 2960 0575 07       		.uleb128 0x7
 2961 0576 C8110000 		.4byte	.LASF82
 2962 057a 0B       		.byte	0xb
 2963 057b 4E       		.byte	0x4e
 2964 057c 92040000 		.4byte	0x492
 2965 0580 0C       		.byte	0xc
 2966 0581 07       		.uleb128 0x7
 2967 0582 C40F0000 		.4byte	.LASF83
 2968 0586 0B       		.byte	0xb
 2969 0587 56       		.byte	0x56
 2970 0588 CB040000 		.4byte	0x4cb
 2971 058c 14       		.byte	0x14
 2972 058d 07       		.uleb128 0x7
 2973 058e 6D100000 		.4byte	.LASF84
 2974 0592 0B       		.byte	0xb
 2975 0593 5F       		.byte	0x5f
 2976 0594 F8040000 		.4byte	0x4f8
 2977 0598 1C       		.byte	0x1c
 2978 0599 00       		.byte	0
 2979 059a 06       		.uleb128 0x6
 2980 059b 14       		.byte	0x14
ARM GAS  C:\Users\tmj32\AppData\Local\Temp\cctNeIsL.s 			page 70


 2981 059c 0B       		.byte	0xb
 2982 059d 63       		.byte	0x63
 2983 059e EB050000 		.4byte	0x5eb
 2984 05a2 07       		.uleb128 0x7
 2985 05a3 480E0000 		.4byte	.LASF71
 2986 05a7 0B       		.byte	0xb
 2987 05a8 65       		.byte	0x65
 2988 05a9 85020000 		.4byte	0x285
 2989 05ad 00       		.byte	0
 2990 05ae 07       		.uleb128 0x7
 2991 05af 55120000 		.4byte	.LASF85
 2992 05b3 0B       		.byte	0xb
 2993 05b4 66       		.byte	0x66
 2994 05b5 85020000 		.4byte	0x285
 2995 05b9 04       		.byte	0x4
 2996 05ba 07       		.uleb128 0x7
 2997 05bb C70E0000 		.4byte	.LASF86
 2998 05bf 0B       		.byte	0xb
 2999 05c0 67       		.byte	0x67
 3000 05c1 EB050000 		.4byte	0x5eb
 3001 05c5 08       		.byte	0x8
 3002 05c6 07       		.uleb128 0x7
 3003 05c7 CC0E0000 		.4byte	.LASF87
 3004 05cb 0B       		.byte	0xb
 3005 05cc 68       		.byte	0x68
 3006 05cd EF000000 		.4byte	0xef
 3007 05d1 0C       		.byte	0xc
 3008 05d2 07       		.uleb128 0x7
 3009 05d3 620E0000 		.4byte	.LASF88
 3010 05d7 0B       		.byte	0xb
 3011 05d8 69       		.byte	0x69
 3012 05d9 EF000000 		.4byte	0xef
 3013 05dd 0E       		.byte	0xe
 3014 05de 08       		.uleb128 0x8
 3015 05df 6F706100 		.ascii	"opa\000"
 3016 05e3 0B       		.byte	0xb
 3017 05e4 6A       		.byte	0x6a
 3018 05e5 91020000 		.4byte	0x291
 3019 05e9 10       		.byte	0x10
 3020 05ea 00       		.byte	0
 3021 05eb 0D       		.uleb128 0xd
 3022 05ec 04       		.byte	0x4
 3023 05ed F1050000 		.4byte	0x5f1
 3024 05f1 0E       		.uleb128 0xe
 3025 05f2 18020000 		.4byte	0x218
 3026 05f6 06       		.uleb128 0x6
 3027 05f7 08       		.byte	0x8
 3028 05f8 0B       		.byte	0xb
 3029 05f9 6E       		.byte	0x6e
 3030 05fa 23060000 		.4byte	0x623
 3031 05fe 07       		.uleb128 0x7
 3032 05ff 480E0000 		.4byte	.LASF71
 3033 0603 0B       		.byte	0xb
 3034 0604 70       		.byte	0x70
 3035 0605 85020000 		.4byte	0x285
 3036 0609 00       		.byte	0
 3037 060a 07       		.uleb128 0x7
ARM GAS  C:\Users\tmj32\AppData\Local\Temp\cctNeIsL.s 			page 71


 3038 060b B1000000 		.4byte	.LASF89
 3039 060f 0B       		.byte	0xb
 3040 0610 71       		.byte	0x71
 3041 0611 91020000 		.4byte	0x291
 3042 0615 04       		.byte	0x4
 3043 0616 08       		.uleb128 0x8
 3044 0617 6F706100 		.ascii	"opa\000"
 3045 061b 0B       		.byte	0xb
 3046 061c 72       		.byte	0x72
 3047 061d 91020000 		.4byte	0x291
 3048 0621 05       		.byte	0x5
 3049 0622 00       		.byte	0
 3050 0623 06       		.uleb128 0x6
 3051 0624 08       		.byte	0x8
 3052 0625 0B       		.byte	0xb
 3053 0626 76       		.byte	0x76
 3054 0627 5F060000 		.4byte	0x65f
 3055 062b 07       		.uleb128 0x7
 3056 062c 480E0000 		.4byte	.LASF71
 3057 0630 0B       		.byte	0xb
 3058 0631 78       		.byte	0x78
 3059 0632 85020000 		.4byte	0x285
 3060 0636 00       		.byte	0
 3061 0637 07       		.uleb128 0x7
 3062 0638 D5080000 		.4byte	.LASF72
 3063 063c 0B       		.byte	0xb
 3064 063d 79       		.byte	0x79
 3065 063e EF000000 		.4byte	0xef
 3066 0642 04       		.byte	0x4
 3067 0643 08       		.uleb128 0x8
 3068 0644 6F706100 		.ascii	"opa\000"
 3069 0648 0B       		.byte	0xb
 3070 0649 7A       		.byte	0x7a
 3071 064a 91020000 		.4byte	0x291
 3072 064e 06       		.byte	0x6
 3073 064f 0A       		.uleb128 0xa
 3074 0650 72050000 		.4byte	.LASF90
 3075 0654 0B       		.byte	0xb
 3076 0655 7B       		.byte	0x7b
 3077 0656 B8000000 		.4byte	0xb8
 3078 065a 01       		.byte	0x1
 3079 065b 01       		.byte	0x1
 3080 065c 07       		.byte	0x7
 3081 065d 07       		.byte	0x7
 3082 065e 00       		.byte	0
 3083 065f 06       		.uleb128 0x6
 3084 0660 50       		.byte	0x50
 3085 0661 0B       		.byte	0xb
 3086 0662 3C       		.byte	0x3c
 3087 0663 A7060000 		.4byte	0x6a7
 3088 0667 0A       		.uleb128 0xa
 3089 0668 80090000 		.4byte	.LASF91
 3090 066c 0B       		.byte	0xb
 3091 066d 3E       		.byte	0x3e
 3092 066e B8000000 		.4byte	0xb8
 3093 0672 01       		.byte	0x1
 3094 0673 01       		.byte	0x1
ARM GAS  C:\Users\tmj32\AppData\Local\Temp\cctNeIsL.s 			page 72


 3095 0674 07       		.byte	0x7
 3096 0675 00       		.byte	0
 3097 0676 07       		.uleb128 0x7
 3098 0677 9D040000 		.4byte	.LASF92
 3099 067b 0B       		.byte	0xb
 3100 067c 60       		.byte	0x60
 3101 067d 3D050000 		.4byte	0x53d
 3102 0681 04       		.byte	0x4
 3103 0682 07       		.uleb128 0x7
 3104 0683 4B050000 		.4byte	.LASF93
 3105 0687 0B       		.byte	0xb
 3106 0688 6B       		.byte	0x6b
 3107 0689 9A050000 		.4byte	0x59a
 3108 068d 2C       		.byte	0x2c
 3109 068e 07       		.uleb128 0x7
 3110 068f 6C050000 		.4byte	.LASF94
 3111 0693 0B       		.byte	0xb
 3112 0694 73       		.byte	0x73
 3113 0695 F6050000 		.4byte	0x5f6
 3114 0699 40       		.byte	0x40
 3115 069a 07       		.uleb128 0x7
 3116 069b 25070000 		.4byte	.LASF95
 3117 069f 0B       		.byte	0xb
 3118 06a0 7C       		.byte	0x7c
 3119 06a1 23060000 		.4byte	0x623
 3120 06a5 48       		.byte	0x48
 3121 06a6 00       		.byte	0
 3122 06a7 02       		.uleb128 0x2
 3123 06a8 C0060000 		.4byte	.LASF96
 3124 06ac 0B       		.byte	0xb
 3125 06ad 84       		.byte	0x84
 3126 06ae 5F060000 		.4byte	0x65f
 3127 06b2 0D       		.uleb128 0xd
 3128 06b3 04       		.byte	0x4
 3129 06b4 A7060000 		.4byte	0x6a7
 3130 06b8 13       		.uleb128 0x13
 3131 06b9 01       		.byte	0x1
 3132 06ba 42000000 		.4byte	0x42
 3133 06be 0C       		.byte	0xc
 3134 06bf 27       		.byte	0x27
 3135 06c0 D1060000 		.4byte	0x6d1
 3136 06c4 14       		.uleb128 0x14
 3137 06c5 A2010000 		.4byte	.LASF97
 3138 06c9 00       		.byte	0
 3139 06ca 14       		.uleb128 0x14
 3140 06cb 740C0000 		.4byte	.LASF98
 3141 06cf 01       		.byte	0x1
 3142 06d0 00       		.byte	0
 3143 06d1 02       		.uleb128 0x2
 3144 06d2 E60A0000 		.4byte	.LASF99
 3145 06d6 0C       		.byte	0xc
 3146 06d7 2C       		.byte	0x2c
 3147 06d8 B8000000 		.4byte	0xb8
 3148 06dc 02       		.uleb128 0x2
 3149 06dd 18000000 		.4byte	.LASF100
 3150 06e1 0D       		.byte	0xd
 3151 06e2 1E       		.byte	0x1e
ARM GAS  C:\Users\tmj32\AppData\Local\Temp\cctNeIsL.s 			page 73


 3152 06e3 B8000000 		.4byte	0xb8
 3153 06e7 06       		.uleb128 0x6
 3154 06e8 0C       		.byte	0xc
 3155 06e9 0D       		.byte	0xd
 3156 06ea 21       		.byte	0x21
 3157 06eb 14070000 		.4byte	0x714
 3158 06ef 07       		.uleb128 0x7
 3159 06f0 93120000 		.4byte	.LASF101
 3160 06f4 0D       		.byte	0xd
 3161 06f5 23       		.byte	0x23
 3162 06f6 E4000000 		.4byte	0xe4
 3163 06fa 00       		.byte	0
 3164 06fb 07       		.uleb128 0x7
 3165 06fc F8020000 		.4byte	.LASF102
 3166 0700 0D       		.byte	0xd
 3167 0701 24       		.byte	0x24
 3168 0702 14070000 		.4byte	0x714
 3169 0706 04       		.byte	0x4
 3170 0707 07       		.uleb128 0x7
 3171 0708 78000000 		.4byte	.LASF103
 3172 070c 0D       		.byte	0xd
 3173 070d 25       		.byte	0x25
 3174 070e 14070000 		.4byte	0x714
 3175 0712 08       		.byte	0x8
 3176 0713 00       		.byte	0
 3177 0714 0D       		.uleb128 0xd
 3178 0715 04       		.byte	0x4
 3179 0716 DC060000 		.4byte	0x6dc
 3180 071a 02       		.uleb128 0x2
 3181 071b 410F0000 		.4byte	.LASF104
 3182 071f 0D       		.byte	0xd
 3183 0720 26       		.byte	0x26
 3184 0721 E7060000 		.4byte	0x6e7
 3185 0725 02       		.uleb128 0x2
 3186 0726 96050000 		.4byte	.LASF105
 3187 072a 0E       		.byte	0xe
 3188 072b 30       		.byte	0x30
 3189 072c B8000000 		.4byte	0xb8
 3190 0730 02       		.uleb128 0x2
 3191 0731 5F120000 		.4byte	.LASF106
 3192 0735 0F       		.byte	0xf
 3193 0736 2B       		.byte	0x2b
 3194 0737 3B070000 		.4byte	0x73b
 3195 073b 0D       		.uleb128 0xd
 3196 073c 04       		.byte	0x4
 3197 073d 41070000 		.4byte	0x741
 3198 0741 15       		.uleb128 0x15
 3199 0742 4C070000 		.4byte	0x74c
 3200 0746 0C       		.uleb128 0xc
 3201 0747 4C070000 		.4byte	0x74c
 3202 074b 00       		.byte	0
 3203 074c 0D       		.uleb128 0xd
 3204 074d 04       		.byte	0x4
 3205 074e 52070000 		.4byte	0x752
 3206 0752 09       		.uleb128 0x9
 3207 0753 BC040000 		.4byte	.LASF107
 3208 0757 14       		.byte	0x14
ARM GAS  C:\Users\tmj32\AppData\Local\Temp\cctNeIsL.s 			page 74


 3209 0758 0F       		.byte	0xf
 3210 0759 3E       		.byte	0x3e
 3211 075a AD070000 		.4byte	0x7ad
 3212 075e 07       		.uleb128 0x7
 3213 075f D40D0000 		.4byte	.LASF108
 3214 0763 0F       		.byte	0xf
 3215 0764 40       		.byte	0x40
 3216 0765 E4000000 		.4byte	0xe4
 3217 0769 00       		.byte	0
 3218 076a 07       		.uleb128 0x7
 3219 076b 7E0C0000 		.4byte	.LASF109
 3220 076f 0F       		.byte	0xf
 3221 0770 41       		.byte	0x41
 3222 0771 E4000000 		.4byte	0xe4
 3223 0775 04       		.byte	0x4
 3224 0776 07       		.uleb128 0x7
 3225 0777 0D040000 		.4byte	.LASF110
 3226 077b 0F       		.byte	0xf
 3227 077c 42       		.byte	0x42
 3228 077d 30070000 		.4byte	0x730
 3229 0781 08       		.byte	0x8
 3230 0782 07       		.uleb128 0x7
 3231 0783 85110000 		.4byte	.LASF111
 3232 0787 0F       		.byte	0xf
 3233 0788 44       		.byte	0x44
 3234 0789 FA000000 		.4byte	0xfa
 3235 078d 0C       		.byte	0xc
 3236 078e 0A       		.uleb128 0xa
 3237 078f 35020000 		.4byte	.LASF112
 3238 0793 0F       		.byte	0xf
 3239 0794 46       		.byte	0x46
 3240 0795 B8000000 		.4byte	0xb8
 3241 0799 01       		.byte	0x1
 3242 079a 03       		.byte	0x3
 3243 079b 05       		.byte	0x5
 3244 079c 10       		.byte	0x10
 3245 079d 0A       		.uleb128 0xa
 3246 079e 2F0A0000 		.4byte	.LASF113
 3247 07a2 0F       		.byte	0xf
 3248 07a3 47       		.byte	0x47
 3249 07a4 B8000000 		.4byte	0xb8
 3250 07a8 01       		.byte	0x1
 3251 07a9 01       		.byte	0x1
 3252 07aa 04       		.byte	0x4
 3253 07ab 10       		.byte	0x10
 3254 07ac 00       		.byte	0
 3255 07ad 02       		.uleb128 0x2
 3256 07ae CA0C0000 		.4byte	.LASF114
 3257 07b2 0F       		.byte	0xf
 3258 07b3 48       		.byte	0x48
 3259 07b4 52070000 		.4byte	0x752
 3260 07b8 06       		.uleb128 0x6
 3261 07b9 1C       		.byte	0x1c
 3262 07ba 10       		.byte	0x10
 3263 07bb 2F       		.byte	0x2f
 3264 07bc 0C080000 		.4byte	0x80c
 3265 07c0 07       		.uleb128 0x7
ARM GAS  C:\Users\tmj32\AppData\Local\Temp\cctNeIsL.s 			page 75


 3266 07c1 0B090000 		.4byte	.LASF115
 3267 07c5 10       		.byte	0x10
 3268 07c6 31       		.byte	0x31
 3269 07c7 FA000000 		.4byte	0xfa
 3270 07cb 00       		.byte	0
 3271 07cc 07       		.uleb128 0x7
 3272 07cd 10090000 		.4byte	.LASF116
 3273 07d1 10       		.byte	0x10
 3274 07d2 32       		.byte	0x32
 3275 07d3 FA000000 		.4byte	0xfa
 3276 07d7 04       		.byte	0x4
 3277 07d8 07       		.uleb128 0x7
 3278 07d9 EF0A0000 		.4byte	.LASF117
 3279 07dd 10       		.byte	0x10
 3280 07de 35       		.byte	0x35
 3281 07df FA000000 		.4byte	0xfa
 3282 07e3 08       		.byte	0x8
 3283 07e4 07       		.uleb128 0x7
 3284 07e5 030B0000 		.4byte	.LASF118
 3285 07e9 10       		.byte	0x10
 3286 07ea 36       		.byte	0x36
 3287 07eb E4000000 		.4byte	0xe4
 3288 07ef 0C       		.byte	0xc
 3289 07f0 07       		.uleb128 0x7
 3290 07f1 9B060000 		.4byte	.LASF119
 3291 07f5 10       		.byte	0x10
 3292 07f6 37       		.byte	0x37
 3293 07f7 08030000 		.4byte	0x308
 3294 07fb 10       		.byte	0x10
 3295 07fc 0A       		.uleb128 0xa
 3296 07fd FA040000 		.4byte	.LASF120
 3297 0801 10       		.byte	0x10
 3298 0802 38       		.byte	0x38
 3299 0803 0C080000 		.4byte	0x80c
 3300 0807 04       		.byte	0x4
 3301 0808 01       		.byte	0x1
 3302 0809 1F       		.byte	0x1f
 3303 080a 18       		.byte	0x18
 3304 080b 00       		.byte	0
 3305 080c 16       		.uleb128 0x16
 3306 080d E4000000 		.4byte	0xe4
 3307 0811 02       		.uleb128 0x2
 3308 0812 CD070000 		.4byte	.LASF121
 3309 0816 10       		.byte	0x10
 3310 0817 39       		.byte	0x39
 3311 0818 B8070000 		.4byte	0x7b8
 3312 081c 09       		.uleb128 0x9
 3313 081d 63070000 		.4byte	.LASF122
 3314 0821 20       		.byte	0x20
 3315 0822 10       		.byte	0x10
 3316 0823 3E       		.byte	0x3e
 3317 0824 98080000 		.4byte	0x898
 3318 0828 07       		.uleb128 0x7
 3319 0829 4F030000 		.4byte	.LASF123
 3320 082d 10       		.byte	0x10
 3321 082e 41       		.byte	0x41
 3322 082f EF000000 		.4byte	0xef
ARM GAS  C:\Users\tmj32\AppData\Local\Temp\cctNeIsL.s 			page 76


 3323 0833 00       		.byte	0
 3324 0834 07       		.uleb128 0x7
 3325 0835 65020000 		.4byte	.LASF124
 3326 0839 10       		.byte	0x10
 3327 083a 42       		.byte	0x42
 3328 083b EF000000 		.4byte	0xef
 3329 083f 02       		.byte	0x2
 3330 0840 07       		.uleb128 0x7
 3331 0841 CF050000 		.4byte	.LASF125
 3332 0845 10       		.byte	0x10
 3333 0846 46       		.byte	0x46
 3334 0847 98080000 		.4byte	0x898
 3335 084b 04       		.byte	0x4
 3336 084c 0A       		.uleb128 0xa
 3337 084d CF020000 		.4byte	.LASF126
 3338 0851 10       		.byte	0x10
 3339 0852 4B       		.byte	0x4b
 3340 0853 E4000000 		.4byte	0xe4
 3341 0857 04       		.byte	0x4
 3342 0858 01       		.byte	0x1
 3343 0859 1F       		.byte	0x1f
 3344 085a 08       		.byte	0x8
 3345 085b 07       		.uleb128 0x7
 3346 085c 7C110000 		.4byte	.LASF127
 3347 0860 10       		.byte	0x10
 3348 0861 55       		.byte	0x55
 3349 0862 CA080000 		.4byte	0x8ca
 3350 0866 0C       		.byte	0xc
 3351 0867 07       		.uleb128 0x7
 3352 0868 DB0D0000 		.4byte	.LASF128
 3353 086c 10       		.byte	0x10
 3354 086d 59       		.byte	0x59
 3355 086e E6080000 		.4byte	0x8e6
 3356 0872 10       		.byte	0x10
 3357 0873 07       		.uleb128 0x7
 3358 0874 31030000 		.4byte	.LASF129
 3359 0878 10       		.byte	0x10
 3360 0879 5E       		.byte	0x5e
 3361 087a 1B090000 		.4byte	0x91b
 3362 087e 14       		.byte	0x14
 3363 087f 07       		.uleb128 0x7
 3364 0880 0B110000 		.4byte	.LASF130
 3365 0884 10       		.byte	0x10
 3366 0885 63       		.byte	0x63
 3367 0886 36090000 		.4byte	0x936
 3368 088a 18       		.byte	0x18
 3369 088b 07       		.uleb128 0x7
 3370 088c 07000000 		.4byte	.LASF131
 3371 0890 10       		.byte	0x10
 3372 0891 71       		.byte	0x71
 3373 0892 85020000 		.4byte	0x285
 3374 0896 1C       		.byte	0x1c
 3375 0897 00       		.byte	0
 3376 0898 0D       		.uleb128 0xd
 3377 0899 04       		.byte	0x4
 3378 089a 11080000 		.4byte	0x811
 3379 089e 15       		.uleb128 0x15
ARM GAS  C:\Users\tmj32\AppData\Local\Temp\cctNeIsL.s 			page 77


 3380 089f B3080000 		.4byte	0x8b3
 3381 08a3 0C       		.uleb128 0xc
 3382 08a4 B3080000 		.4byte	0x8b3
 3383 08a8 0C       		.uleb128 0xc
 3384 08a9 B9080000 		.4byte	0x8b9
 3385 08ad 0C       		.uleb128 0xc
 3386 08ae C4080000 		.4byte	0x8c4
 3387 08b2 00       		.byte	0
 3388 08b3 0D       		.uleb128 0xd
 3389 08b4 04       		.byte	0x4
 3390 08b5 1C080000 		.4byte	0x81c
 3391 08b9 0D       		.uleb128 0xd
 3392 08ba 04       		.byte	0x4
 3393 08bb BF080000 		.4byte	0x8bf
 3394 08bf 0E       		.uleb128 0xe
 3395 08c0 08030000 		.4byte	0x308
 3396 08c4 0D       		.uleb128 0xd
 3397 08c5 04       		.byte	0x4
 3398 08c6 85020000 		.4byte	0x285
 3399 08ca 0D       		.uleb128 0xd
 3400 08cb 04       		.byte	0x4
 3401 08cc 9E080000 		.4byte	0x89e
 3402 08d0 15       		.uleb128 0x15
 3403 08d1 E0080000 		.4byte	0x8e0
 3404 08d5 0C       		.uleb128 0xc
 3405 08d6 B3080000 		.4byte	0x8b3
 3406 08da 0C       		.uleb128 0xc
 3407 08db E0080000 		.4byte	0x8e0
 3408 08df 00       		.byte	0
 3409 08e0 0D       		.uleb128 0xd
 3410 08e1 04       		.byte	0x4
 3411 08e2 08030000 		.4byte	0x308
 3412 08e6 0D       		.uleb128 0xd
 3413 08e7 04       		.byte	0x4
 3414 08e8 D0080000 		.4byte	0x8d0
 3415 08ec 15       		.uleb128 0x15
 3416 08ed 15090000 		.4byte	0x915
 3417 08f1 0C       		.uleb128 0xc
 3418 08f2 B3080000 		.4byte	0x8b3
 3419 08f6 0C       		.uleb128 0xc
 3420 08f7 15090000 		.4byte	0x915
 3421 08fb 0C       		.uleb128 0xc
 3422 08fc EF000000 		.4byte	0xef
 3423 0900 0C       		.uleb128 0xc
 3424 0901 EF000000 		.4byte	0xef
 3425 0905 0C       		.uleb128 0xc
 3426 0906 EF000000 		.4byte	0xef
 3427 090a 0C       		.uleb128 0xc
 3428 090b 85020000 		.4byte	0x285
 3429 090f 0C       		.uleb128 0xc
 3430 0910 91020000 		.4byte	0x291
 3431 0914 00       		.byte	0
 3432 0915 0D       		.uleb128 0xd
 3433 0916 04       		.byte	0x4
 3434 0917 B8000000 		.4byte	0xb8
 3435 091b 0D       		.uleb128 0xd
 3436 091c 04       		.byte	0x4
ARM GAS  C:\Users\tmj32\AppData\Local\Temp\cctNeIsL.s 			page 78


 3437 091d EC080000 		.4byte	0x8ec
 3438 0921 15       		.uleb128 0x15
 3439 0922 36090000 		.4byte	0x936
 3440 0926 0C       		.uleb128 0xc
 3441 0927 B3080000 		.4byte	0x8b3
 3442 092b 0C       		.uleb128 0xc
 3443 092c E4000000 		.4byte	0xe4
 3444 0930 0C       		.uleb128 0xc
 3445 0931 E4000000 		.4byte	0xe4
 3446 0935 00       		.byte	0
 3447 0936 0D       		.uleb128 0xd
 3448 0937 04       		.byte	0x4
 3449 0938 21090000 		.4byte	0x921
 3450 093c 02       		.uleb128 0x2
 3451 093d 4E100000 		.4byte	.LASF132
 3452 0941 10       		.byte	0x10
 3453 0942 77       		.byte	0x77
 3454 0943 1C080000 		.4byte	0x81c
 3455 0947 17       		.uleb128 0x17
 3456 0948 880A0000 		.4byte	.LASF133
 3457 094c 6401     		.2byte	0x164
 3458 094e 10       		.byte	0x10
 3459 094f 7F       		.byte	0x7f
 3460 0950 D3090000 		.4byte	0x9d3
 3461 0954 07       		.uleb128 0x7
 3462 0955 D90E0000 		.4byte	.LASF134
 3463 0959 10       		.byte	0x10
 3464 095a 82       		.byte	0x82
 3465 095b 3C090000 		.4byte	0x93c
 3466 095f 00       		.byte	0
 3467 0960 07       		.uleb128 0x7
 3468 0961 C5020000 		.4byte	.LASF135
 3469 0965 10       		.byte	0x10
 3470 0966 85       		.byte	0x85
 3471 0967 D3090000 		.4byte	0x9d3
 3472 096b 20       		.byte	0x20
 3473 096c 07       		.uleb128 0x7
 3474 096d 3A020000 		.4byte	.LASF136
 3475 0971 10       		.byte	0x10
 3476 0972 88       		.byte	0x88
 3477 0973 1A070000 		.4byte	0x71a
 3478 0977 24       		.byte	0x24
 3479 0978 07       		.uleb128 0x7
 3480 0979 91000000 		.4byte	.LASF137
 3481 097d 10       		.byte	0x10
 3482 097e 89       		.byte	0x89
 3483 097f 1B0B0000 		.4byte	0xb1b
 3484 0983 30       		.byte	0x30
 3485 0984 07       		.uleb128 0x7
 3486 0985 D5030000 		.4byte	.LASF138
 3487 0989 10       		.byte	0x10
 3488 098a 8A       		.byte	0x8a
 3489 098b 1B0B0000 		.4byte	0xb1b
 3490 098f 34       		.byte	0x34
 3491 0990 07       		.uleb128 0x7
 3492 0991 9B0F0000 		.4byte	.LASF139
 3493 0995 10       		.byte	0x10
ARM GAS  C:\Users\tmj32\AppData\Local\Temp\cctNeIsL.s 			page 79


 3494 0996 8B       		.byte	0x8b
 3495 0997 1B0B0000 		.4byte	0xb1b
 3496 099b 38       		.byte	0x38
 3497 099c 07       		.uleb128 0x7
 3498 099d 180A0000 		.4byte	.LASF140
 3499 09a1 10       		.byte	0x10
 3500 09a2 8E       		.byte	0x8e
 3501 09a3 210B0000 		.4byte	0xb21
 3502 09a7 3C       		.byte	0x3c
 3503 09a8 18       		.uleb128 0x18
 3504 09a9 60040000 		.4byte	.LASF141
 3505 09ad 10       		.byte	0x10
 3506 09ae 8F       		.byte	0x8f
 3507 09af 310B0000 		.4byte	0xb31
 3508 09b3 3C01     		.2byte	0x13c
 3509 09b5 19       		.uleb128 0x19
 3510 09b6 3B0F0000 		.4byte	.LASF142
 3511 09ba 10       		.byte	0x10
 3512 09bb 90       		.byte	0x90
 3513 09bc E4000000 		.4byte	0xe4
 3514 09c0 04       		.byte	0x4
 3515 09c1 0A       		.byte	0xa
 3516 09c2 16       		.byte	0x16
 3517 09c3 5C01     		.2byte	0x15c
 3518 09c5 18       		.uleb128 0x18
 3519 09c6 A9020000 		.4byte	.LASF143
 3520 09ca 10       		.byte	0x10
 3521 09cb 93       		.byte	0x93
 3522 09cc E4000000 		.4byte	0xe4
 3523 09d0 6001     		.2byte	0x160
 3524 09d2 00       		.byte	0
 3525 09d3 0D       		.uleb128 0xd
 3526 09d4 04       		.byte	0x4
 3527 09d5 AD070000 		.4byte	0x7ad
 3528 09d9 09       		.uleb128 0x9
 3529 09da BD0E0000 		.4byte	.LASF144
 3530 09de 40       		.byte	0x40
 3531 09df 11       		.byte	0x11
 3532 09e0 BB       		.byte	0xbb
 3533 09e1 1B0B0000 		.4byte	0xb1b
 3534 09e5 08       		.uleb128 0x8
 3535 09e6 70617200 		.ascii	"par\000"
 3536 09ea 11       		.byte	0x11
 3537 09eb BD       		.byte	0xbd
 3538 09ec 1B0B0000 		.4byte	0xb1b
 3539 09f0 00       		.byte	0
 3540 09f1 07       		.uleb128 0x7
 3541 09f2 F4080000 		.4byte	.LASF145
 3542 09f6 11       		.byte	0x11
 3543 09f7 BE       		.byte	0xbe
 3544 09f8 1A070000 		.4byte	0x71a
 3545 09fc 04       		.byte	0x4
 3546 09fd 07       		.uleb128 0x7
 3547 09fe 860F0000 		.4byte	.LASF146
 3548 0a02 11       		.byte	0x11
 3549 0a03 C0       		.byte	0xc0
 3550 0a04 08030000 		.4byte	0x308
ARM GAS  C:\Users\tmj32\AppData\Local\Temp\cctNeIsL.s 			page 80


 3551 0a08 10       		.byte	0x10
 3552 0a09 07       		.uleb128 0x7
 3553 0a0a 06080000 		.4byte	.LASF147
 3554 0a0e 11       		.byte	0x11
 3555 0a0f C2       		.byte	0xc2
 3556 0a10 E70E0000 		.4byte	0xee7
 3557 0a14 18       		.byte	0x18
 3558 0a15 07       		.uleb128 0x7
 3559 0a16 82100000 		.4byte	.LASF148
 3560 0a1a 11       		.byte	0x11
 3561 0a1b C3       		.byte	0xc3
 3562 0a1c 980F0000 		.4byte	0xf98
 3563 0a20 1C       		.byte	0x1c
 3564 0a21 07       		.uleb128 0x7
 3565 0a22 F0040000 		.4byte	.LASF149
 3566 0a26 11       		.byte	0x11
 3567 0a27 C4       		.byte	0xc4
 3568 0a28 2D0E0000 		.4byte	0xe2d
 3569 0a2c 20       		.byte	0x20
 3570 0a2d 07       		.uleb128 0x7
 3571 0a2e 130B0000 		.4byte	.LASF150
 3572 0a32 11       		.byte	0x11
 3573 0a33 C6       		.byte	0xc6
 3574 0a34 FA000000 		.4byte	0xfa
 3575 0a38 24       		.byte	0x24
 3576 0a39 07       		.uleb128 0x7
 3577 0a3a 22080000 		.4byte	.LASF151
 3578 0a3e 11       		.byte	0x11
 3579 0a3f C7       		.byte	0xc7
 3580 0a40 45100000 		.4byte	0x1045
 3581 0a44 28       		.byte	0x28
 3582 0a45 0A       		.uleb128 0xa
 3583 0a46 31010000 		.4byte	.LASF152
 3584 0a4a 11       		.byte	0x11
 3585 0a4b D7       		.byte	0xd7
 3586 0a4c B8000000 		.4byte	0xb8
 3587 0a50 01       		.byte	0x1
 3588 0a51 01       		.byte	0x1
 3589 0a52 07       		.byte	0x7
 3590 0a53 2C       		.byte	0x2c
 3591 0a54 0A       		.uleb128 0xa
 3592 0a55 A20E0000 		.4byte	.LASF153
 3593 0a59 11       		.byte	0x11
 3594 0a5a D8       		.byte	0xd8
 3595 0a5b B8000000 		.4byte	0xb8
 3596 0a5f 01       		.byte	0x1
 3597 0a60 01       		.byte	0x1
 3598 0a61 06       		.byte	0x6
 3599 0a62 2C       		.byte	0x2c
 3600 0a63 0A       		.uleb128 0xa
 3601 0a64 7A050000 		.4byte	.LASF154
 3602 0a68 11       		.byte	0x11
 3603 0a69 D9       		.byte	0xd9
 3604 0a6a B8000000 		.4byte	0xb8
 3605 0a6e 01       		.byte	0x1
 3606 0a6f 01       		.byte	0x1
 3607 0a70 05       		.byte	0x5
ARM GAS  C:\Users\tmj32\AppData\Local\Temp\cctNeIsL.s 			page 81


 3608 0a71 2C       		.byte	0x2c
 3609 0a72 0A       		.uleb128 0xa
 3610 0a73 F40F0000 		.4byte	.LASF155
 3611 0a77 11       		.byte	0x11
 3612 0a78 DA       		.byte	0xda
 3613 0a79 B8000000 		.4byte	0xb8
 3614 0a7d 01       		.byte	0x1
 3615 0a7e 01       		.byte	0x1
 3616 0a7f 04       		.byte	0x4
 3617 0a80 2C       		.byte	0x2c
 3618 0a81 0A       		.uleb128 0xa
 3619 0a82 95020000 		.4byte	.LASF156
 3620 0a86 11       		.byte	0x11
 3621 0a87 DB       		.byte	0xdb
 3622 0a88 B8000000 		.4byte	0xb8
 3623 0a8c 01       		.byte	0x1
 3624 0a8d 01       		.byte	0x1
 3625 0a8e 03       		.byte	0x3
 3626 0a8f 2C       		.byte	0x2c
 3627 0a90 1A       		.uleb128 0x1a
 3628 0a91 746F7000 		.ascii	"top\000"
 3629 0a95 11       		.byte	0x11
 3630 0a96 DC       		.byte	0xdc
 3631 0a97 B8000000 		.4byte	0xb8
 3632 0a9b 01       		.byte	0x1
 3633 0a9c 01       		.byte	0x1
 3634 0a9d 02       		.byte	0x2
 3635 0a9e 2C       		.byte	0x2c
 3636 0a9f 0A       		.uleb128 0xa
 3637 0aa0 AD0F0000 		.4byte	.LASF157
 3638 0aa4 11       		.byte	0x11
 3639 0aa5 DD       		.byte	0xdd
 3640 0aa6 B8000000 		.4byte	0xb8
 3641 0aaa 01       		.byte	0x1
 3642 0aab 01       		.byte	0x1
 3643 0aac 01       		.byte	0x1
 3644 0aad 2C       		.byte	0x2c
 3645 0aae 0A       		.uleb128 0xa
 3646 0aaf 48090000 		.4byte	.LASF158
 3647 0ab3 11       		.byte	0x11
 3648 0ab4 DE       		.byte	0xde
 3649 0ab5 B8000000 		.4byte	0xb8
 3650 0ab9 01       		.byte	0x1
 3651 0aba 01       		.byte	0x1
 3652 0abb 00       		.byte	0
 3653 0abc 2C       		.byte	0x2c
 3654 0abd 0A       		.uleb128 0xa
 3655 0abe FB030000 		.4byte	.LASF159
 3656 0ac2 11       		.byte	0x11
 3657 0ac3 DF       		.byte	0xdf
 3658 0ac4 3A100000 		.4byte	0x103a
 3659 0ac8 01       		.byte	0x1
 3660 0ac9 02       		.byte	0x2
 3661 0aca 06       		.byte	0x6
 3662 0acb 2D       		.byte	0x2d
 3663 0acc 0A       		.uleb128 0xa
 3664 0acd E00E0000 		.4byte	.LASF160
ARM GAS  C:\Users\tmj32\AppData\Local\Temp\cctNeIsL.s 			page 82


 3665 0ad1 11       		.byte	0x11
 3666 0ad2 E0       		.byte	0xe0
 3667 0ad3 25070000 		.4byte	0x725
 3668 0ad7 01       		.byte	0x1
 3669 0ad8 02       		.byte	0x2
 3670 0ad9 04       		.byte	0x4
 3671 0ada 2D       		.byte	0x2d
 3672 0adb 0A       		.uleb128 0xa
 3673 0adc 02110000 		.4byte	.LASF161
 3674 0ae0 11       		.byte	0x11
 3675 0ae1 E1       		.byte	0xe1
 3676 0ae2 B8000000 		.4byte	0xb8
 3677 0ae6 01       		.byte	0x1
 3678 0ae7 03       		.byte	0x3
 3679 0ae8 01       		.byte	0x1
 3680 0ae9 2D       		.byte	0x2d
 3681 0aea 07       		.uleb128 0x7
 3682 0aeb 03090000 		.4byte	.LASF162
 3683 0aef 11       		.byte	0x11
 3684 0af0 E2       		.byte	0xe2
 3685 0af1 B8000000 		.4byte	0xb8
 3686 0af5 2E       		.byte	0x2e
 3687 0af6 07       		.uleb128 0x7
 3688 0af7 E0120000 		.4byte	.LASF163
 3689 0afb 11       		.byte	0x11
 3690 0afc E4       		.byte	0xe4
 3691 0afd 91020000 		.4byte	0x291
 3692 0b01 2F       		.byte	0x2f
 3693 0b02 07       		.uleb128 0x7
 3694 0b03 A4050000 		.4byte	.LASF164
 3695 0b07 11       		.byte	0x11
 3696 0b08 E6       		.byte	0xe6
 3697 0b09 EF000000 		.4byte	0xef
 3698 0b0d 30       		.byte	0x30
 3699 0b0e 07       		.uleb128 0x7
 3700 0b0f 3D060000 		.4byte	.LASF165
 3701 0b13 11       		.byte	0x11
 3702 0b14 E9       		.byte	0xe9
 3703 0b15 2F100000 		.4byte	0x102f
 3704 0b19 34       		.byte	0x34
 3705 0b1a 00       		.byte	0
 3706 0b1b 0D       		.uleb128 0xd
 3707 0b1c 04       		.byte	0x4
 3708 0b1d D9090000 		.4byte	0x9d9
 3709 0b21 1B       		.uleb128 0x1b
 3710 0b22 08030000 		.4byte	0x308
 3711 0b26 310B0000 		.4byte	0xb31
 3712 0b2a 1C       		.uleb128 0x1c
 3713 0b2b 9D020000 		.4byte	0x29d
 3714 0b2f 1F       		.byte	0x1f
 3715 0b30 00       		.byte	0
 3716 0b31 1B       		.uleb128 0x1b
 3717 0b32 B8000000 		.4byte	0xb8
 3718 0b36 410B0000 		.4byte	0xb41
 3719 0b3a 1C       		.uleb128 0x1c
 3720 0b3b 9D020000 		.4byte	0x29d
 3721 0b3f 1F       		.byte	0x1f
ARM GAS  C:\Users\tmj32\AppData\Local\Temp\cctNeIsL.s 			page 83


 3722 0b40 00       		.byte	0
 3723 0b41 02       		.uleb128 0x2
 3724 0b42 88070000 		.4byte	.LASF166
 3725 0b46 12       		.byte	0x12
 3726 0b47 33       		.byte	0x33
 3727 0b48 B8000000 		.4byte	0xb8
 3728 0b4c 02       		.uleb128 0x2
 3729 0b4d 85050000 		.4byte	.LASF167
 3730 0b51 12       		.byte	0x12
 3731 0b52 37       		.byte	0x37
 3732 0b53 B8000000 		.4byte	0xb8
 3733 0b57 06       		.uleb128 0x6
 3734 0b58 10       		.byte	0x10
 3735 0b59 12       		.byte	0x12
 3736 0b5a 3A       		.byte	0x3a
 3737 0b5b 9C0B0000 		.4byte	0xb9c
 3738 0b5f 07       		.uleb128 0x7
 3739 0b60 4F020000 		.4byte	.LASF168
 3740 0b64 12       		.byte	0x12
 3741 0b65 3C       		.byte	0x3c
 3742 0b66 C8020000 		.4byte	0x2c8
 3743 0b6a 00       		.byte	0
 3744 0b6b 08       		.uleb128 0x8
 3745 0b6c 6B657900 		.ascii	"key\000"
 3746 0b70 12       		.byte	0x12
 3747 0b71 3D       		.byte	0x3d
 3748 0b72 E4000000 		.4byte	0xe4
 3749 0b76 04       		.byte	0x4
 3750 0b77 07       		.uleb128 0x7
 3751 0b78 83040000 		.4byte	.LASF169
 3752 0b7c 12       		.byte	0x12
 3753 0b7d 3E       		.byte	0x3e
 3754 0b7e E4000000 		.4byte	0xe4
 3755 0b82 08       		.byte	0x8
 3756 0b83 07       		.uleb128 0x7
 3757 0b84 E7090000 		.4byte	.LASF170
 3758 0b88 12       		.byte	0x12
 3759 0b89 3F       		.byte	0x3f
 3760 0b8a C3000000 		.4byte	0xc3
 3761 0b8e 0C       		.byte	0xc
 3762 0b8f 07       		.uleb128 0x7
 3763 0b90 80010000 		.4byte	.LASF171
 3764 0b94 12       		.byte	0x12
 3765 0b95 41       		.byte	0x41
 3766 0b96 4C0B0000 		.4byte	0xb4c
 3767 0b9a 0E       		.byte	0xe
 3768 0b9b 00       		.byte	0
 3769 0b9c 02       		.uleb128 0x2
 3770 0b9d 6C110000 		.4byte	.LASF172
 3771 0ba1 12       		.byte	0x12
 3772 0ba2 42       		.byte	0x42
 3773 0ba3 570B0000 		.4byte	0xb57
 3774 0ba7 09       		.uleb128 0x9
 3775 0ba8 03020000 		.4byte	.LASF173
 3776 0bac 1C       		.byte	0x1c
 3777 0bad 12       		.byte	0x12
 3778 0bae 45       		.byte	0x45
ARM GAS  C:\Users\tmj32\AppData\Local\Temp\cctNeIsL.s 			page 84


 3779 0baf 200C0000 		.4byte	0xc20
 3780 0bb3 07       		.uleb128 0x7
 3781 0bb4 BF010000 		.4byte	.LASF74
 3782 0bb8 12       		.byte	0x12
 3783 0bb9 49       		.byte	0x49
 3784 0bba 410B0000 		.4byte	0xb41
 3785 0bbe 00       		.byte	0
 3786 0bbf 07       		.uleb128 0x7
 3787 0bc0 FD020000 		.4byte	.LASF174
 3788 0bc4 12       		.byte	0x12
 3789 0bc5 4E       		.byte	0x4e
 3790 0bc6 400C0000 		.4byte	0xc40
 3791 0bca 04       		.byte	0x4
 3792 0bcb 07       		.uleb128 0x7
 3793 0bcc 830B0000 		.4byte	.LASF175
 3794 0bd0 12       		.byte	0x12
 3795 0bd1 52       		.byte	0x52
 3796 0bd2 560C0000 		.4byte	0xc56
 3797 0bd6 08       		.byte	0x8
 3798 0bd7 07       		.uleb128 0x7
 3799 0bd8 DD090000 		.4byte	.LASF176
 3800 0bdc 12       		.byte	0x12
 3801 0bdd 59       		.byte	0x59
 3802 0bde 5C0C0000 		.4byte	0xc5c
 3803 0be2 0C       		.byte	0xc
 3804 0be3 07       		.uleb128 0x7
 3805 0be4 640B0000 		.4byte	.LASF177
 3806 0be8 12       		.byte	0x12
 3807 0be9 5C       		.byte	0x5c
 3808 0bea D3090000 		.4byte	0x9d3
 3809 0bee 10       		.byte	0x10
 3810 0bef 07       		.uleb128 0x7
 3811 0bf0 43100000 		.4byte	.LASF178
 3812 0bf4 12       		.byte	0x12
 3813 0bf5 5F       		.byte	0x5f
 3814 0bf6 B8000000 		.4byte	0xb8
 3815 0bfa 14       		.byte	0x14
 3816 0bfb 07       		.uleb128 0x7
 3817 0bfc 7A050000 		.4byte	.LASF154
 3818 0c00 12       		.byte	0x12
 3819 0c01 62       		.byte	0x62
 3820 0c02 B8000000 		.4byte	0xb8
 3821 0c06 15       		.byte	0x15
 3822 0c07 07       		.uleb128 0x7
 3823 0c08 440C0000 		.4byte	.LASF179
 3824 0c0c 12       		.byte	0x12
 3825 0c0d 65       		.byte	0x65
 3826 0c0e CE000000 		.4byte	0xce
 3827 0c12 16       		.byte	0x16
 3828 0c13 07       		.uleb128 0x7
 3829 0c14 B1050000 		.4byte	.LASF180
 3830 0c18 12       		.byte	0x12
 3831 0c19 68       		.byte	0x68
 3832 0c1a CE000000 		.4byte	0xce
 3833 0c1e 18       		.byte	0x18
 3834 0c1f 00       		.byte	0
 3835 0c20 0B       		.uleb128 0xb
ARM GAS  C:\Users\tmj32\AppData\Local\Temp\cctNeIsL.s 			page 85


 3836 0c21 D5010000 		.4byte	0x1d5
 3837 0c25 340C0000 		.4byte	0xc34
 3838 0c29 0C       		.uleb128 0xc
 3839 0c2a 340C0000 		.4byte	0xc34
 3840 0c2e 0C       		.uleb128 0xc
 3841 0c2f 3A0C0000 		.4byte	0xc3a
 3842 0c33 00       		.byte	0
 3843 0c34 0D       		.uleb128 0xd
 3844 0c35 04       		.byte	0x4
 3845 0c36 A70B0000 		.4byte	0xba7
 3846 0c3a 0D       		.uleb128 0xd
 3847 0c3b 04       		.byte	0x4
 3848 0c3c 9C0B0000 		.4byte	0xb9c
 3849 0c40 0D       		.uleb128 0xd
 3850 0c41 04       		.byte	0x4
 3851 0c42 200C0000 		.4byte	0xc20
 3852 0c46 15       		.uleb128 0x15
 3853 0c47 560C0000 		.4byte	0xc56
 3854 0c4b 0C       		.uleb128 0xc
 3855 0c4c 340C0000 		.4byte	0xc34
 3856 0c50 0C       		.uleb128 0xc
 3857 0c51 B8000000 		.4byte	0xb8
 3858 0c55 00       		.byte	0
 3859 0c56 0D       		.uleb128 0xd
 3860 0c57 04       		.byte	0x4
 3861 0c58 460C0000 		.4byte	0xc46
 3862 0c5c 0D       		.uleb128 0xd
 3863 0c5d 04       		.byte	0x4
 3864 0c5e 47090000 		.4byte	0x947
 3865 0c62 02       		.uleb128 0x2
 3866 0c63 14100000 		.4byte	.LASF181
 3867 0c67 12       		.byte	0x12
 3868 0c68 69       		.byte	0x69
 3869 0c69 A70B0000 		.4byte	0xba7
 3870 0c6d 06       		.uleb128 0x6
 3871 0c6e 24       		.byte	0x24
 3872 0c6f 12       		.byte	0x12
 3873 0c70 73       		.byte	0x73
 3874 0c71 F40C0000 		.4byte	0xcf4
 3875 0c75 07       		.uleb128 0x7
 3876 0c76 75070000 		.4byte	.LASF182
 3877 0c7a 12       		.byte	0x12
 3878 0c7b 75       		.byte	0x75
 3879 0c7c C8020000 		.4byte	0x2c8
 3880 0c80 00       		.byte	0
 3881 0c81 07       		.uleb128 0x7
 3882 0c82 15090000 		.4byte	.LASF183
 3883 0c86 12       		.byte	0x12
 3884 0c87 76       		.byte	0x76
 3885 0c88 C8020000 		.4byte	0x2c8
 3886 0c8c 04       		.byte	0x4
 3887 0c8d 07       		.uleb128 0x7
 3888 0c8e 0E0B0000 		.4byte	.LASF184
 3889 0c92 12       		.byte	0x12
 3890 0c93 77       		.byte	0x77
 3891 0c94 C8020000 		.4byte	0x2c8
 3892 0c98 08       		.byte	0x8
ARM GAS  C:\Users\tmj32\AppData\Local\Temp\cctNeIsL.s 			page 86


 3893 0c99 07       		.uleb128 0x7
 3894 0c9a 1C0B0000 		.4byte	.LASF185
 3895 0c9e 12       		.byte	0x12
 3896 0c9f 78       		.byte	0x78
 3897 0ca0 C8020000 		.4byte	0x2c8
 3898 0ca4 0C       		.byte	0xc
 3899 0ca5 07       		.uleb128 0x7
 3900 0ca6 AC040000 		.4byte	.LASF186
 3901 0caa 12       		.byte	0x12
 3902 0cab 79       		.byte	0x79
 3903 0cac C8020000 		.4byte	0x2c8
 3904 0cb0 10       		.byte	0x10
 3905 0cb1 07       		.uleb128 0x7
 3906 0cb2 20090000 		.4byte	.LASF187
 3907 0cb6 12       		.byte	0x12
 3908 0cb7 7A       		.byte	0x7a
 3909 0cb8 1B0B0000 		.4byte	0xb1b
 3910 0cbc 14       		.byte	0x14
 3911 0cbd 07       		.uleb128 0x7
 3912 0cbe 7F070000 		.4byte	.LASF188
 3913 0cc2 12       		.byte	0x12
 3914 0cc3 7B       		.byte	0x7b
 3915 0cc4 1B0B0000 		.4byte	0xb1b
 3916 0cc8 18       		.byte	0x18
 3917 0cc9 07       		.uleb128 0x7
 3918 0cca 0B030000 		.4byte	.LASF189
 3919 0cce 12       		.byte	0x12
 3920 0ccf 7D       		.byte	0x7d
 3921 0cd0 1B0B0000 		.4byte	0xb1b
 3922 0cd4 1C       		.byte	0x1c
 3923 0cd5 0A       		.uleb128 0xa
 3924 0cd6 530E0000 		.4byte	.LASF190
 3925 0cda 12       		.byte	0x12
 3926 0cdb 80       		.byte	0x80
 3927 0cdc B8000000 		.4byte	0xb8
 3928 0ce0 01       		.byte	0x1
 3929 0ce1 01       		.byte	0x1
 3930 0ce2 07       		.byte	0x7
 3931 0ce3 20       		.byte	0x20
 3932 0ce4 0A       		.uleb128 0xa
 3933 0ce5 180E0000 		.4byte	.LASF191
 3934 0ce9 12       		.byte	0x12
 3935 0cea 81       		.byte	0x81
 3936 0ceb B8000000 		.4byte	0xb8
 3937 0cef 01       		.byte	0x1
 3938 0cf0 01       		.byte	0x1
 3939 0cf1 06       		.byte	0x6
 3940 0cf2 20       		.byte	0x20
 3941 0cf3 00       		.byte	0
 3942 0cf4 06       		.uleb128 0x6
 3943 0cf5 08       		.byte	0x8
 3944 0cf6 12       		.byte	0x12
 3945 0cf7 83       		.byte	0x83
 3946 0cf8 150D0000 		.4byte	0xd15
 3947 0cfc 07       		.uleb128 0x7
 3948 0cfd D7020000 		.4byte	.LASF192
 3949 0d01 12       		.byte	0x12
ARM GAS  C:\Users\tmj32\AppData\Local\Temp\cctNeIsL.s 			page 87


 3950 0d02 85       		.byte	0x85
 3951 0d03 4C0B0000 		.4byte	0xb4c
 3952 0d07 00       		.byte	0
 3953 0d08 07       		.uleb128 0x7
 3954 0d09 AF060000 		.4byte	.LASF193
 3955 0d0d 12       		.byte	0x12
 3956 0d0e 86       		.byte	0x86
 3957 0d0f E4000000 		.4byte	0xe4
 3958 0d13 04       		.byte	0x4
 3959 0d14 00       		.byte	0
 3960 0d15 0F       		.uleb128 0xf
 3961 0d16 24       		.byte	0x24
 3962 0d17 12       		.byte	0x12
 3963 0d18 71       		.byte	0x71
 3964 0d19 340D0000 		.4byte	0xd34
 3965 0d1d 11       		.uleb128 0x11
 3966 0d1e 50050000 		.4byte	.LASF194
 3967 0d22 12       		.byte	0x12
 3968 0d23 82       		.byte	0x82
 3969 0d24 6D0C0000 		.4byte	0xc6d
 3970 0d28 11       		.uleb128 0x11
 3971 0d29 4E0F0000 		.4byte	.LASF195
 3972 0d2d 12       		.byte	0x12
 3973 0d2e 87       		.byte	0x87
 3974 0d2f F40C0000 		.4byte	0xcf4
 3975 0d33 00       		.byte	0
 3976 0d34 09       		.uleb128 0x9
 3977 0d35 1F0C0000 		.4byte	.LASF196
 3978 0d39 34       		.byte	0x34
 3979 0d3a 12       		.byte	0x12
 3980 0d3b 6E       		.byte	0x6e
 3981 0d3c AD0D0000 		.4byte	0xdad
 3982 0d40 07       		.uleb128 0x7
 3983 0d41 80010000 		.4byte	.LASF171
 3984 0d45 12       		.byte	0x12
 3985 0d46 70       		.byte	0x70
 3986 0d47 4C0B0000 		.4byte	0xb4c
 3987 0d4b 00       		.byte	0
 3988 0d4c 07       		.uleb128 0x7
 3989 0d4d 7C120000 		.4byte	.LASF197
 3990 0d51 12       		.byte	0x12
 3991 0d52 88       		.byte	0x88
 3992 0d53 150D0000 		.4byte	0xd15
 3993 0d57 04       		.byte	0x4
 3994 0d58 07       		.uleb128 0x7
 3995 0d59 2E0B0000 		.4byte	.LASF198
 3996 0d5d 12       		.byte	0x12
 3997 0d5e 8A       		.byte	0x8a
 3998 0d5f E4000000 		.4byte	0xe4
 3999 0d63 28       		.byte	0x28
 4000 0d64 07       		.uleb128 0x7
 4001 0d65 FD0D0000 		.4byte	.LASF199
 4002 0d69 12       		.byte	0x12
 4003 0d6a 8B       		.byte	0x8b
 4004 0d6b E4000000 		.4byte	0xe4
 4005 0d6f 2C       		.byte	0x2c
 4006 0d70 0A       		.uleb128 0xa
ARM GAS  C:\Users\tmj32\AppData\Local\Temp\cctNeIsL.s 			page 88


 4007 0d71 0C120000 		.4byte	.LASF200
 4008 0d75 12       		.byte	0x12
 4009 0d76 8E       		.byte	0x8e
 4010 0d77 B8000000 		.4byte	0xb8
 4011 0d7b 01       		.byte	0x1
 4012 0d7c 01       		.byte	0x1
 4013 0d7d 07       		.byte	0x7
 4014 0d7e 30       		.byte	0x30
 4015 0d7f 0A       		.uleb128 0xa
 4016 0d80 BE0C0000 		.4byte	.LASF201
 4017 0d84 12       		.byte	0x12
 4018 0d85 8F       		.byte	0x8f
 4019 0d86 B8000000 		.4byte	0xb8
 4020 0d8a 01       		.byte	0x1
 4021 0d8b 01       		.byte	0x1
 4022 0d8c 06       		.byte	0x6
 4023 0d8d 30       		.byte	0x30
 4024 0d8e 0A       		.uleb128 0xa
 4025 0d8f D1060000 		.4byte	.LASF202
 4026 0d93 12       		.byte	0x12
 4027 0d94 90       		.byte	0x90
 4028 0d95 B8000000 		.4byte	0xb8
 4029 0d99 01       		.byte	0x1
 4030 0d9a 01       		.byte	0x1
 4031 0d9b 05       		.byte	0x5
 4032 0d9c 30       		.byte	0x30
 4033 0d9d 0A       		.uleb128 0xa
 4034 0d9e 88060000 		.4byte	.LASF203
 4035 0da2 12       		.byte	0x12
 4036 0da3 91       		.byte	0x91
 4037 0da4 B8000000 		.4byte	0xb8
 4038 0da8 01       		.byte	0x1
 4039 0da9 01       		.byte	0x1
 4040 0daa 04       		.byte	0x4
 4041 0dab 30       		.byte	0x30
 4042 0dac 00       		.byte	0
 4043 0dad 02       		.uleb128 0x2
 4044 0dae CB0F0000 		.4byte	.LASF204
 4045 0db2 12       		.byte	0x12
 4046 0db3 92       		.byte	0x92
 4047 0db4 340D0000 		.4byte	0xd34
 4048 0db8 09       		.uleb128 0x9
 4049 0db9 83020000 		.4byte	.LASF205
 4050 0dbd 5C       		.byte	0x5c
 4051 0dbe 12       		.byte	0x12
 4052 0dbf 99       		.byte	0x99
 4053 0dc0 010E0000 		.4byte	0xe01
 4054 0dc4 07       		.uleb128 0x7
 4055 0dc5 D90E0000 		.4byte	.LASF134
 4056 0dc9 12       		.byte	0x12
 4057 0dca 9B       		.byte	0x9b
 4058 0dcb 620C0000 		.4byte	0xc62
 4059 0dcf 00       		.byte	0
 4060 0dd0 07       		.uleb128 0x7
 4061 0dd1 EB040000 		.4byte	.LASF206
 4062 0dd5 12       		.byte	0x12
 4063 0dd6 9C       		.byte	0x9c
ARM GAS  C:\Users\tmj32\AppData\Local\Temp\cctNeIsL.s 			page 89


 4064 0dd7 AD0D0000 		.4byte	0xdad
 4065 0ddb 1C       		.byte	0x1c
 4066 0ddc 07       		.uleb128 0x7
 4067 0ddd 9A120000 		.4byte	.LASF207
 4068 0de1 12       		.byte	0x12
 4069 0de2 9D       		.byte	0x9d
 4070 0de3 1B0B0000 		.4byte	0xb1b
 4071 0de7 50       		.byte	0x50
 4072 0de8 07       		.uleb128 0x7
 4073 0de9 6F070000 		.4byte	.LASF208
 4074 0ded 12       		.byte	0x12
 4075 0dee 9E       		.byte	0x9e
 4076 0def 060E0000 		.4byte	0xe06
 4077 0df3 54       		.byte	0x54
 4078 0df4 07       		.uleb128 0x7
 4079 0df5 6A060000 		.4byte	.LASF209
 4080 0df9 12       		.byte	0x12
 4081 0dfa 9F       		.byte	0x9f
 4082 0dfb 0C0E0000 		.4byte	0xe0c
 4083 0dff 58       		.byte	0x58
 4084 0e00 00       		.byte	0
 4085 0e01 1D       		.uleb128 0x1d
 4086 0e02 A1120000 		.4byte	.LASF394
 4087 0e06 0D       		.uleb128 0xd
 4088 0e07 04       		.byte	0x4
 4089 0e08 010E0000 		.4byte	0xe01
 4090 0e0c 0D       		.uleb128 0xd
 4091 0e0d 04       		.byte	0x4
 4092 0e0e 120E0000 		.4byte	0xe12
 4093 0e12 0E       		.uleb128 0xe
 4094 0e13 C8020000 		.4byte	0x2c8
 4095 0e17 02       		.uleb128 0x2
 4096 0e18 5F060000 		.4byte	.LASF210
 4097 0e1c 12       		.byte	0x12
 4098 0e1d A1       		.byte	0xa1
 4099 0e1e B80D0000 		.4byte	0xdb8
 4100 0e22 02       		.uleb128 0x2
 4101 0e23 3B0B0000 		.4byte	.LASF211
 4102 0e27 11       		.byte	0x11
 4103 0e28 42       		.byte	0x42
 4104 0e29 B8000000 		.4byte	0xb8
 4105 0e2d 02       		.uleb128 0x2
 4106 0e2e BF120000 		.4byte	.LASF212
 4107 0e32 11       		.byte	0x11
 4108 0e33 48       		.byte	0x48
 4109 0e34 380E0000 		.4byte	0xe38
 4110 0e38 0D       		.uleb128 0xd
 4111 0e39 04       		.byte	0x4
 4112 0e3a 3E0E0000 		.4byte	0xe3e
 4113 0e3e 0B       		.uleb128 0xb
 4114 0e3f D5010000 		.4byte	0x1d5
 4115 0e43 570E0000 		.4byte	0xe57
 4116 0e47 0C       		.uleb128 0xc
 4117 0e48 1B0B0000 		.4byte	0xb1b
 4118 0e4c 0C       		.uleb128 0xc
 4119 0e4d B9080000 		.4byte	0x8b9
 4120 0e51 0C       		.uleb128 0xc
ARM GAS  C:\Users\tmj32\AppData\Local\Temp\cctNeIsL.s 			page 90


 4121 0e52 220E0000 		.4byte	0xe22
 4122 0e56 00       		.byte	0
 4123 0e57 13       		.uleb128 0x13
 4124 0e58 01       		.byte	0x1
 4125 0e59 42000000 		.4byte	0x42
 4126 0e5d 11       		.byte	0x11
 4127 0e5e 4A       		.byte	0x4a
 4128 0e5f DC0E0000 		.4byte	0xedc
 4129 0e63 14       		.uleb128 0x14
 4130 0e64 B50B0000 		.4byte	.LASF213
 4131 0e68 00       		.byte	0
 4132 0e69 14       		.uleb128 0x14
 4133 0e6a 710A0000 		.4byte	.LASF214
 4134 0e6e 01       		.byte	0x1
 4135 0e6f 14       		.uleb128 0x14
 4136 0e70 8F110000 		.4byte	.LASF215
 4137 0e74 02       		.byte	0x2
 4138 0e75 14       		.uleb128 0x14
 4139 0e76 B20A0000 		.4byte	.LASF216
 4140 0e7a 03       		.byte	0x3
 4141 0e7b 14       		.uleb128 0x14
 4142 0e7c C4010000 		.4byte	.LASF217
 4143 0e80 04       		.byte	0x4
 4144 0e81 14       		.uleb128 0x14
 4145 0e82 C90A0000 		.4byte	.LASF218
 4146 0e86 05       		.byte	0x5
 4147 0e87 14       		.uleb128 0x14
 4148 0e88 E7050000 		.4byte	.LASF219
 4149 0e8c 06       		.byte	0x6
 4150 0e8d 14       		.uleb128 0x14
 4151 0e8e AD120000 		.4byte	.LASF220
 4152 0e92 07       		.byte	0x7
 4153 0e93 14       		.uleb128 0x14
 4154 0e94 58050000 		.4byte	.LASF221
 4155 0e98 08       		.byte	0x8
 4156 0e99 14       		.uleb128 0x14
 4157 0e9a 520B0000 		.4byte	.LASF222
 4158 0e9e 09       		.byte	0x9
 4159 0e9f 14       		.uleb128 0x14
 4160 0ea0 45060000 		.4byte	.LASF223
 4161 0ea4 0A       		.byte	0xa
 4162 0ea5 14       		.uleb128 0x14
 4163 0ea6 54110000 		.4byte	.LASF224
 4164 0eaa 0B       		.byte	0xb
 4165 0eab 14       		.uleb128 0x14
 4166 0eac 2A050000 		.4byte	.LASF225
 4167 0eb0 0C       		.byte	0xc
 4168 0eb1 14       		.uleb128 0x14
 4169 0eb2 DB0F0000 		.4byte	.LASF226
 4170 0eb6 0D       		.byte	0xd
 4171 0eb7 14       		.uleb128 0x14
 4172 0eb8 010A0000 		.4byte	.LASF227
 4173 0ebc 0E       		.byte	0xe
 4174 0ebd 14       		.uleb128 0x14
 4175 0ebe D2000000 		.4byte	.LASF228
 4176 0ec2 0F       		.byte	0xf
 4177 0ec3 14       		.uleb128 0x14
ARM GAS  C:\Users\tmj32\AppData\Local\Temp\cctNeIsL.s 			page 91


 4178 0ec4 41070000 		.4byte	.LASF229
 4179 0ec8 10       		.byte	0x10
 4180 0ec9 14       		.uleb128 0x14
 4181 0eca 2E060000 		.4byte	.LASF230
 4182 0ece 11       		.byte	0x11
 4183 0ecf 14       		.uleb128 0x14
 4184 0ed0 E00B0000 		.4byte	.LASF231
 4185 0ed4 12       		.byte	0x12
 4186 0ed5 14       		.uleb128 0x14
 4187 0ed6 8C090000 		.4byte	.LASF232
 4188 0eda 13       		.byte	0x13
 4189 0edb 00       		.byte	0
 4190 0edc 02       		.uleb128 0x2
 4191 0edd 6D010000 		.4byte	.LASF233
 4192 0ee1 11       		.byte	0x11
 4193 0ee2 61       		.byte	0x61
 4194 0ee3 B8000000 		.4byte	0xb8
 4195 0ee7 02       		.uleb128 0x2
 4196 0ee8 19120000 		.4byte	.LASF234
 4197 0eec 11       		.byte	0x11
 4198 0eed 68       		.byte	0x68
 4199 0eee F20E0000 		.4byte	0xef2
 4200 0ef2 0D       		.uleb128 0xd
 4201 0ef3 04       		.byte	0x4
 4202 0ef4 F80E0000 		.4byte	0xef8
 4203 0ef8 15       		.uleb128 0x15
 4204 0ef9 080F0000 		.4byte	0xf08
 4205 0efd 0C       		.uleb128 0xc
 4206 0efe 1B0B0000 		.4byte	0xb1b
 4207 0f02 0C       		.uleb128 0xc
 4208 0f03 DC0E0000 		.4byte	0xedc
 4209 0f07 00       		.byte	0
 4210 0f08 13       		.uleb128 0x13
 4211 0f09 01       		.byte	0x1
 4212 0f0a 42000000 		.4byte	0x42
 4213 0f0e 11       		.byte	0x11
 4214 0f0f 6D       		.byte	0x6d
 4215 0f10 8D0F0000 		.4byte	0xf8d
 4216 0f14 14       		.uleb128 0x14
 4217 0f15 55090000 		.4byte	.LASF235
 4218 0f19 00       		.byte	0
 4219 0f1a 14       		.uleb128 0x14
 4220 0f1b B7090000 		.4byte	.LASF236
 4221 0f1f 01       		.byte	0x1
 4222 0f20 14       		.uleb128 0x14
 4223 0f21 5D0F0000 		.4byte	.LASF237
 4224 0f25 02       		.byte	0x2
 4225 0f26 14       		.uleb128 0x14
 4226 0f27 C60B0000 		.4byte	.LASF238
 4227 0f2b 03       		.byte	0x3
 4228 0f2c 14       		.uleb128 0x14
 4229 0f2d 7D000000 		.4byte	.LASF239
 4230 0f31 04       		.byte	0x4
 4231 0f32 14       		.uleb128 0x14
 4232 0f33 23100000 		.4byte	.LASF240
 4233 0f37 05       		.byte	0x5
 4234 0f38 14       		.uleb128 0x14
ARM GAS  C:\Users\tmj32\AppData\Local\Temp\cctNeIsL.s 			page 92


 4235 0f39 DF030000 		.4byte	.LASF241
 4236 0f3d 06       		.byte	0x6
 4237 0f3e 14       		.uleb128 0x14
 4238 0f3f 75060000 		.4byte	.LASF242
 4239 0f43 07       		.byte	0x7
 4240 0f44 14       		.uleb128 0x14
 4241 0f45 AD010000 		.4byte	.LASF243
 4242 0f49 08       		.byte	0x8
 4243 0f4a 14       		.uleb128 0x14
 4244 0f4b 9F0A0000 		.4byte	.LASF244
 4245 0f4f 09       		.byte	0x9
 4246 0f50 14       		.uleb128 0x14
 4247 0f51 6E0B0000 		.4byte	.LASF245
 4248 0f55 0A       		.byte	0xa
 4249 0f56 14       		.uleb128 0x14
 4250 0f57 F80B0000 		.4byte	.LASF246
 4251 0f5b 0B       		.byte	0xb
 4252 0f5c 14       		.uleb128 0x14
 4253 0f5d F4000000 		.4byte	.LASF247
 4254 0f61 0C       		.byte	0xc
 4255 0f62 14       		.uleb128 0x14
 4256 0f63 9C030000 		.4byte	.LASF248
 4257 0f67 0D       		.byte	0xd
 4258 0f68 14       		.uleb128 0x14
 4259 0f69 42010000 		.4byte	.LASF249
 4260 0f6d 0E       		.byte	0xe
 4261 0f6e 14       		.uleb128 0x14
 4262 0f6f A20B0000 		.4byte	.LASF250
 4263 0f73 0F       		.byte	0xf
 4264 0f74 14       		.uleb128 0x14
 4265 0f75 2A070000 		.4byte	.LASF251
 4266 0f79 10       		.byte	0x10
 4267 0f7a 14       		.uleb128 0x14
 4268 0f7b 18050000 		.4byte	.LASF252
 4269 0f7f 11       		.byte	0x11
 4270 0f80 14       		.uleb128 0x14
 4271 0f81 DB080000 		.4byte	.LASF253
 4272 0f85 12       		.byte	0x12
 4273 0f86 14       		.uleb128 0x14
 4274 0f87 98070000 		.4byte	.LASF254
 4275 0f8b 13       		.byte	0x13
 4276 0f8c 00       		.byte	0
 4277 0f8d 02       		.uleb128 0x2
 4278 0f8e 300C0000 		.4byte	.LASF255
 4279 0f92 11       		.byte	0x11
 4280 0f93 88       		.byte	0x88
 4281 0f94 B8000000 		.4byte	0xb8
 4282 0f98 02       		.uleb128 0x2
 4283 0f99 4B040000 		.4byte	.LASF256
 4284 0f9d 11       		.byte	0x11
 4285 0f9e 8A       		.byte	0x8a
 4286 0f9f A30F0000 		.4byte	0xfa3
 4287 0fa3 0D       		.uleb128 0xd
 4288 0fa4 04       		.byte	0x4
 4289 0fa5 A90F0000 		.4byte	0xfa9
 4290 0fa9 0B       		.uleb128 0xb
 4291 0faa D1060000 		.4byte	0x6d1
ARM GAS  C:\Users\tmj32\AppData\Local\Temp\cctNeIsL.s 			page 93


 4292 0fae C20F0000 		.4byte	0xfc2
 4293 0fb2 0C       		.uleb128 0xc
 4294 0fb3 1B0B0000 		.4byte	0xb1b
 4295 0fb7 0C       		.uleb128 0xc
 4296 0fb8 8D0F0000 		.4byte	0xf8d
 4297 0fbc 0C       		.uleb128 0xc
 4298 0fbd FA000000 		.4byte	0xfa
 4299 0fc1 00       		.byte	0
 4300 0fc2 02       		.uleb128 0x2
 4301 0fc3 37010000 		.4byte	.LASF257
 4302 0fc7 11       		.byte	0x11
 4303 0fc8 A4       		.byte	0xa4
 4304 0fc9 B8000000 		.4byte	0xb8
 4305 0fcd 06       		.uleb128 0x6
 4306 0fce 0C       		.byte	0xc
 4307 0fcf 11       		.byte	0x11
 4308 0fd0 A7       		.byte	0xa7
 4309 0fd1 24100000 		.4byte	0x1024
 4310 0fd5 07       		.uleb128 0x7
 4311 0fd6 130F0000 		.4byte	.LASF258
 4312 0fda 11       		.byte	0x11
 4313 0fdb A9       		.byte	0xa9
 4314 0fdc 24100000 		.4byte	0x1024
 4315 0fe0 00       		.byte	0
 4316 0fe1 07       		.uleb128 0x7
 4317 0fe2 6D0E0000 		.4byte	.LASF259
 4318 0fe6 11       		.byte	0x11
 4319 0fe7 AA       		.byte	0xaa
 4320 0fe8 EF000000 		.4byte	0xef
 4321 0fec 04       		.byte	0x4
 4322 0fed 07       		.uleb128 0x7
 4323 0fee B90C0000 		.4byte	.LASF260
 4324 0ff2 11       		.byte	0x11
 4325 0ff3 AB       		.byte	0xab
 4326 0ff4 EF000000 		.4byte	0xef
 4327 0ff8 06       		.byte	0x6
 4328 0ff9 07       		.uleb128 0x7
 4329 0ffa 67090000 		.4byte	.LASF261
 4330 0ffe 11       		.byte	0x11
 4331 0fff AC       		.byte	0xac
 4332 1000 C20F0000 		.4byte	0xfc2
 4333 1004 08       		.byte	0x8
 4334 1005 0A       		.uleb128 0xa
 4335 1006 220A0000 		.4byte	.LASF262
 4336 100a 11       		.byte	0x11
 4337 100b AD       		.byte	0xad
 4338 100c B8000000 		.4byte	0xb8
 4339 1010 01       		.byte	0x1
 4340 1011 01       		.byte	0x1
 4341 1012 07       		.byte	0x7
 4342 1013 09       		.byte	0x9
 4343 1014 0A       		.uleb128 0xa
 4344 1015 2F120000 		.4byte	.LASF263
 4345 1019 11       		.byte	0x11
 4346 101a AE       		.byte	0xae
 4347 101b B8000000 		.4byte	0xb8
 4348 101f 01       		.byte	0x1
ARM GAS  C:\Users\tmj32\AppData\Local\Temp\cctNeIsL.s 			page 94


 4349 1020 01       		.byte	0x1
 4350 1021 06       		.byte	0x6
 4351 1022 09       		.byte	0x9
 4352 1023 00       		.byte	0
 4353 1024 0D       		.uleb128 0xd
 4354 1025 04       		.byte	0x4
 4355 1026 2A100000 		.4byte	0x102a
 4356 102a 0E       		.uleb128 0xe
 4357 102b D9090000 		.4byte	0x9d9
 4358 102f 02       		.uleb128 0x2
 4359 1030 10010000 		.4byte	.LASF264
 4360 1034 11       		.byte	0x11
 4361 1035 B0       		.byte	0xb0
 4362 1036 CD0F0000 		.4byte	0xfcd
 4363 103a 02       		.uleb128 0x2
 4364 103b ED110000 		.4byte	.LASF265
 4365 103f 11       		.byte	0x11
 4366 1040 B9       		.byte	0xb9
 4367 1041 B8000000 		.4byte	0xb8
 4368 1045 0D       		.uleb128 0xd
 4369 1046 04       		.byte	0x4
 4370 1047 4B100000 		.4byte	0x104b
 4371 104b 0E       		.uleb128 0xe
 4372 104c A7060000 		.4byte	0x6a7
 4373 1050 02       		.uleb128 0x2
 4374 1051 880E0000 		.4byte	.LASF266
 4375 1055 11       		.byte	0x11
 4376 1056 F0       		.byte	0xf0
 4377 1057 D9090000 		.4byte	0x9d9
 4378 105b 13       		.uleb128 0x13
 4379 105c 01       		.byte	0x1
 4380 105d 42000000 		.4byte	0x42
 4381 1061 01       		.byte	0x1
 4382 1062 35       		.byte	0x35
 4383 1063 86100000 		.4byte	0x1086
 4384 1067 14       		.uleb128 0x14
 4385 1068 E1010000 		.4byte	.LASF267
 4386 106c 00       		.byte	0
 4387 106d 14       		.uleb128 0x14
 4388 106e 75100000 		.4byte	.LASF268
 4389 1072 01       		.byte	0x1
 4390 1073 14       		.uleb128 0x14
 4391 1074 E4060000 		.4byte	.LASF269
 4392 1078 02       		.byte	0x2
 4393 1079 14       		.uleb128 0x14
 4394 107a A70E0000 		.4byte	.LASF270
 4395 107e 03       		.byte	0x3
 4396 107f 14       		.uleb128 0x14
 4397 1080 7C0E0000 		.4byte	.LASF271
 4398 1084 04       		.byte	0x4
 4399 1085 00       		.byte	0
 4400 1086 02       		.uleb128 0x2
 4401 1087 D40C0000 		.4byte	.LASF272
 4402 108b 01       		.byte	0x1
 4403 108c 3D       		.byte	0x3d
 4404 108d B8000000 		.4byte	0xb8
 4405 1091 06       		.uleb128 0x6
ARM GAS  C:\Users\tmj32\AppData\Local\Temp\cctNeIsL.s 			page 95


 4406 1092 02       		.byte	0x2
 4407 1093 01       		.byte	0x1
 4408 1094 3F       		.byte	0x3f
 4409 1095 E5100000 		.4byte	0x10e5
 4410 1099 0A       		.uleb128 0xa
 4411 109a 39090000 		.4byte	.LASF273
 4412 109e 01       		.byte	0x1
 4413 109f 43       		.byte	0x43
 4414 10a0 B8000000 		.4byte	0xb8
 4415 10a4 01       		.byte	0x1
 4416 10a5 04       		.byte	0x4
 4417 10a6 04       		.byte	0x4
 4418 10a7 00       		.byte	0
 4419 10a8 0A       		.uleb128 0xa
 4420 10a9 680A0000 		.4byte	.LASF274
 4421 10ad 01       		.byte	0x1
 4422 10ae 44       		.byte	0x44
 4423 10af B8000000 		.4byte	0xb8
 4424 10b3 01       		.byte	0x1
 4425 10b4 02       		.byte	0x2
 4426 10b5 02       		.byte	0x2
 4427 10b6 00       		.byte	0
 4428 10b7 0A       		.uleb128 0xa
 4429 10b8 720E0000 		.4byte	.LASF275
 4430 10bc 01       		.byte	0x1
 4431 10bd 45       		.byte	0x45
 4432 10be B8000000 		.4byte	0xb8
 4433 10c2 01       		.byte	0x1
 4434 10c3 02       		.byte	0x2
 4435 10c4 00       		.byte	0
 4436 10c5 00       		.byte	0
 4437 10c6 0A       		.uleb128 0xa
 4438 10c7 79030000 		.4byte	.LASF276
 4439 10cb 01       		.byte	0x1
 4440 10cc 46       		.byte	0x46
 4441 10cd B8000000 		.4byte	0xb8
 4442 10d1 01       		.byte	0x1
 4443 10d2 02       		.byte	0x2
 4444 10d3 06       		.byte	0x6
 4445 10d4 01       		.byte	0x1
 4446 10d5 0A       		.uleb128 0xa
 4447 10d6 030D0000 		.4byte	.LASF277
 4448 10da 01       		.byte	0x1
 4449 10db 47       		.byte	0x47
 4450 10dc B8000000 		.4byte	0xb8
 4451 10e0 01       		.byte	0x1
 4452 10e1 02       		.byte	0x2
 4453 10e2 04       		.byte	0x4
 4454 10e3 01       		.byte	0x1
 4455 10e4 00       		.byte	0
 4456 10e5 02       		.uleb128 0x2
 4457 10e6 9C090000 		.4byte	.LASF278
 4458 10ea 01       		.byte	0x1
 4459 10eb 48       		.byte	0x48
 4460 10ec 91100000 		.4byte	0x1091
 4461 10f0 02       		.uleb128 0x2
 4462 10f1 42110000 		.4byte	.LASF279
ARM GAS  C:\Users\tmj32\AppData\Local\Temp\cctNeIsL.s 			page 96


 4463 10f5 02       		.byte	0x2
 4464 10f6 32       		.byte	0x32
 4465 10f7 B8000000 		.4byte	0xb8
 4466 10fb 06       		.uleb128 0x6
 4467 10fc 18       		.byte	0x18
 4468 10fd 02       		.byte	0x2
 4469 10fe 3E       		.byte	0x3e
 4470 10ff 55110000 		.4byte	0x1155
 4471 1103 07       		.uleb128 0x7
 4472 1104 080B0000 		.4byte	.LASF280
 4473 1108 02       		.byte	0x2
 4474 1109 40       		.byte	0x40
 4475 110a 45100000 		.4byte	0x1045
 4476 110e 00       		.byte	0
 4477 110f 07       		.uleb128 0x7
 4478 1110 4C120000 		.4byte	.LASF281
 4479 1114 02       		.byte	0x2
 4480 1115 41       		.byte	0x41
 4481 1116 08030000 		.4byte	0x308
 4482 111a 04       		.byte	0x4
 4483 111b 07       		.uleb128 0x7
 4484 111c 870C0000 		.4byte	.LASF282
 4485 1120 02       		.byte	0x2
 4486 1121 42       		.byte	0x42
 4487 1122 08030000 		.4byte	0x308
 4488 1126 0C       		.byte	0xc
 4489 1127 0A       		.uleb128 0xa
 4490 1128 F8050000 		.4byte	.LASF283
 4491 112c 02       		.byte	0x2
 4492 112d 43       		.byte	0x43
 4493 112e B8000000 		.4byte	0xb8
 4494 1132 01       		.byte	0x1
 4495 1133 01       		.byte	0x1
 4496 1134 07       		.byte	0x7
 4497 1135 14       		.byte	0x14
 4498 1136 0A       		.uleb128 0xa
 4499 1137 F4010000 		.4byte	.LASF284
 4500 113b 02       		.byte	0x2
 4501 113c 44       		.byte	0x44
 4502 113d B8000000 		.4byte	0xb8
 4503 1141 01       		.byte	0x1
 4504 1142 01       		.byte	0x1
 4505 1143 06       		.byte	0x6
 4506 1144 14       		.byte	0x14
 4507 1145 0A       		.uleb128 0xa
 4508 1146 490F0000 		.4byte	.LASF285
 4509 114a 02       		.byte	0x2
 4510 114b 45       		.byte	0x45
 4511 114c F0100000 		.4byte	0x10f0
 4512 1150 01       		.byte	0x1
 4513 1151 03       		.byte	0x3
 4514 1152 03       		.byte	0x3
 4515 1153 14       		.byte	0x14
 4516 1154 00       		.byte	0
 4517 1155 06       		.uleb128 0x6
 4518 1156 0C       		.byte	0xc
 4519 1157 02       		.byte	0x2
ARM GAS  C:\Users\tmj32\AppData\Local\Temp\cctNeIsL.s 			page 97


 4520 1158 48       		.byte	0x48
 4521 1159 C1110000 		.4byte	0x11c1
 4522 115d 07       		.uleb128 0x7
 4523 115e 80010000 		.4byte	.LASF171
 4524 1162 02       		.byte	0x2
 4525 1163 4A       		.byte	0x4a
 4526 1164 37030000 		.4byte	0x337
 4527 1168 00       		.byte	0
 4528 1169 07       		.uleb128 0x7
 4529 116a 080B0000 		.4byte	.LASF280
 4530 116e 02       		.byte	0x2
 4531 116f 4B       		.byte	0x4b
 4532 1170 45100000 		.4byte	0x1045
 4533 1174 04       		.byte	0x4
 4534 1175 0A       		.uleb128 0xa
 4535 1176 B8060000 		.4byte	.LASF286
 4536 117a 02       		.byte	0x2
 4537 117b 4C       		.byte	0x4c
 4538 117c B8000000 		.4byte	0xb8
 4539 1180 01       		.byte	0x1
 4540 1181 01       		.byte	0x1
 4541 1182 07       		.byte	0x7
 4542 1183 08       		.byte	0x8
 4543 1184 0A       		.uleb128 0xa
 4544 1185 410E0000 		.4byte	.LASF287
 4545 1189 02       		.byte	0x2
 4546 118a 4D       		.byte	0x4d
 4547 118b B8000000 		.4byte	0xb8
 4548 118f 01       		.byte	0x1
 4549 1190 01       		.byte	0x1
 4550 1191 06       		.byte	0x6
 4551 1192 08       		.byte	0x8
 4552 1193 0A       		.uleb128 0xa
 4553 1194 F20E0000 		.4byte	.LASF288
 4554 1198 02       		.byte	0x2
 4555 1199 4F       		.byte	0x4f
 4556 119a B8000000 		.4byte	0xb8
 4557 119e 01       		.byte	0x1
 4558 119f 01       		.byte	0x1
 4559 11a0 05       		.byte	0x5
 4560 11a1 08       		.byte	0x8
 4561 11a2 0A       		.uleb128 0xa
 4562 11a3 E90E0000 		.4byte	.LASF289
 4563 11a7 02       		.byte	0x2
 4564 11a8 51       		.byte	0x51
 4565 11a9 B8000000 		.4byte	0xb8
 4566 11ad 01       		.byte	0x1
 4567 11ae 01       		.byte	0x1
 4568 11af 04       		.byte	0x4
 4569 11b0 08       		.byte	0x8
 4570 11b1 0A       		.uleb128 0xa
 4571 11b2 86010000 		.4byte	.LASF290
 4572 11b6 02       		.byte	0x2
 4573 11b7 53       		.byte	0x53
 4574 11b8 B8000000 		.4byte	0xb8
 4575 11bc 01       		.byte	0x1
 4576 11bd 01       		.byte	0x1
ARM GAS  C:\Users\tmj32\AppData\Local\Temp\cctNeIsL.s 			page 98


 4577 11be 03       		.byte	0x3
 4578 11bf 08       		.byte	0x8
 4579 11c0 00       		.byte	0
 4580 11c1 06       		.uleb128 0x6
 4581 11c2 30       		.byte	0x30
 4582 11c3 02       		.byte	0x2
 4583 11c4 39       		.byte	0x39
 4584 11c5 22120000 		.4byte	0x1222
 4585 11c9 08       		.uleb128 0x8
 4586 11ca 626700   		.ascii	"bg\000"
 4587 11cd 02       		.byte	0x2
 4588 11ce 3B       		.byte	0x3b
 4589 11cf E5100000 		.4byte	0x10e5
 4590 11d3 00       		.byte	0
 4591 11d4 07       		.uleb128 0x7
 4592 11d5 92030000 		.4byte	.LASF291
 4593 11d9 02       		.byte	0x2
 4594 11da 3D       		.byte	0x3d
 4595 11db 22120000 		.4byte	0x1222
 4596 11df 04       		.byte	0x4
 4597 11e0 08       		.uleb128 0x8
 4598 11e1 736200   		.ascii	"sb\000"
 4599 11e4 02       		.byte	0x2
 4600 11e5 46       		.byte	0x46
 4601 11e6 FB100000 		.4byte	0x10fb
 4602 11ea 08       		.byte	0x8
 4603 11eb 07       		.uleb128 0x7
 4604 11ec CE120000 		.4byte	.LASF292
 4605 11f0 02       		.byte	0x2
 4606 11f1 55       		.byte	0x55
 4607 11f2 55110000 		.4byte	0x1155
 4608 11f6 20       		.byte	0x20
 4609 11f7 07       		.uleb128 0x7
 4610 11f8 A2040000 		.4byte	.LASF293
 4611 11fc 02       		.byte	0x2
 4612 11fd 57       		.byte	0x57
 4613 11fe CE000000 		.4byte	0xce
 4614 1202 2C       		.byte	0x2c
 4615 1203 0A       		.uleb128 0xa
 4616 1204 1D030000 		.4byte	.LASF294
 4617 1208 02       		.byte	0x2
 4618 1209 5A       		.byte	0x5a
 4619 120a B8000000 		.4byte	0xb8
 4620 120e 01       		.byte	0x1
 4621 120f 01       		.byte	0x1
 4622 1210 07       		.byte	0x7
 4623 1211 2E       		.byte	0x2e
 4624 1212 0A       		.uleb128 0xa
 4625 1213 A0060000 		.4byte	.LASF295
 4626 1217 02       		.byte	0x2
 4627 1218 5B       		.byte	0x5b
 4628 1219 B8000000 		.4byte	0xb8
 4629 121d 01       		.byte	0x1
 4630 121e 01       		.byte	0x1
 4631 121f 06       		.byte	0x6
 4632 1220 2E       		.byte	0x2e
 4633 1221 00       		.byte	0
ARM GAS  C:\Users\tmj32\AppData\Local\Temp\cctNeIsL.s 			page 99


 4634 1222 0D       		.uleb128 0xd
 4635 1223 04       		.byte	0x4
 4636 1224 50100000 		.4byte	0x1050
 4637 1228 02       		.uleb128 0x2
 4638 1229 70040000 		.4byte	.LASF296
 4639 122d 02       		.byte	0x2
 4640 122e 5C       		.byte	0x5c
 4641 122f C1110000 		.4byte	0x11c1
 4642 1233 13       		.uleb128 0x13
 4643 1234 01       		.byte	0x1
 4644 1235 42000000 		.4byte	0x42
 4645 1239 02       		.byte	0x2
 4646 123a 5E       		.byte	0x5e
 4647 123b 58120000 		.4byte	0x1258
 4648 123f 14       		.uleb128 0x14
 4649 1240 020F0000 		.4byte	.LASF297
 4650 1244 00       		.byte	0
 4651 1245 14       		.uleb128 0x14
 4652 1246 0E0D0000 		.4byte	.LASF298
 4653 124a 01       		.byte	0x1
 4654 124b 14       		.uleb128 0x14
 4655 124c D6050000 		.4byte	.LASF299
 4656 1250 02       		.byte	0x2
 4657 1251 14       		.uleb128 0x14
 4658 1252 B9000000 		.4byte	.LASF300
 4659 1256 03       		.byte	0x3
 4660 1257 00       		.byte	0
 4661 1258 06       		.uleb128 0x6
 4662 1259 40       		.byte	0x40
 4663 125a 13       		.byte	0x13
 4664 125b 23       		.byte	0x23
 4665 125c F7120000 		.4byte	0x12f7
 4666 1260 07       		.uleb128 0x7
 4667 1261 830A0000 		.4byte	.LASF301
 4668 1265 13       		.byte	0x13
 4669 1266 25       		.byte	0x25
 4670 1267 28120000 		.4byte	0x1228
 4671 126b 00       		.byte	0
 4672 126c 07       		.uleb128 0x7
 4673 126d B30E0000 		.4byte	.LASF302
 4674 1271 13       		.byte	0x13
 4675 1272 27       		.byte	0x27
 4676 1273 0C0E0000 		.4byte	0xe0c
 4677 1277 30       		.byte	0x30
 4678 1278 07       		.uleb128 0x7
 4679 1279 41020000 		.4byte	.LASF303
 4680 127d 13       		.byte	0x13
 4681 127e 28       		.byte	0x28
 4682 127f CE000000 		.4byte	0xce
 4683 1283 34       		.byte	0x34
 4684 1284 07       		.uleb128 0x7
 4685 1285 A2040000 		.4byte	.LASF293
 4686 1289 13       		.byte	0x13
 4687 128a 2A       		.byte	0x2a
 4688 128b CE000000 		.4byte	0xce
 4689 128f 36       		.byte	0x36
 4690 1290 07       		.uleb128 0x7
ARM GAS  C:\Users\tmj32\AppData\Local\Temp\cctNeIsL.s 			page 100


 4691 1291 D9120000 		.4byte	.LASF304
 4692 1295 13       		.byte	0x13
 4693 1296 2C       		.byte	0x2c
 4694 1297 C8020000 		.4byte	0x2c8
 4695 129b 38       		.byte	0x38
 4696 129c 0A       		.uleb128 0xa
 4697 129d 40120000 		.4byte	.LASF305
 4698 12a1 13       		.byte	0x13
 4699 12a2 2D       		.byte	0x2d
 4700 12a3 B8000000 		.4byte	0xb8
 4701 12a7 01       		.byte	0x1
 4702 12a8 01       		.byte	0x1
 4703 12a9 07       		.byte	0x7
 4704 12aa 3C       		.byte	0x3c
 4705 12ab 0A       		.uleb128 0xa
 4706 12ac 57030000 		.4byte	.LASF306
 4707 12b0 13       		.byte	0x13
 4708 12b1 2E       		.byte	0x2e
 4709 12b2 B8000000 		.4byte	0xb8
 4710 12b6 01       		.byte	0x1
 4711 12b7 01       		.byte	0x1
 4712 12b8 06       		.byte	0x6
 4713 12b9 3C       		.byte	0x3c
 4714 12ba 0A       		.uleb128 0xa
 4715 12bb 0F080000 		.4byte	.LASF307
 4716 12bf 13       		.byte	0x13
 4717 12c0 2F       		.byte	0x2f
 4718 12c1 B8000000 		.4byte	0xb8
 4719 12c5 01       		.byte	0x1
 4720 12c6 01       		.byte	0x1
 4721 12c7 05       		.byte	0x5
 4722 12c8 3C       		.byte	0x3c
 4723 12c9 0A       		.uleb128 0xa
 4724 12ca D0100000 		.4byte	.LASF308
 4725 12ce 13       		.byte	0x13
 4726 12cf 30       		.byte	0x30
 4727 12d0 B8000000 		.4byte	0xb8
 4728 12d4 01       		.byte	0x1
 4729 12d5 01       		.byte	0x1
 4730 12d6 04       		.byte	0x4
 4731 12d7 3C       		.byte	0x3c
 4732 12d8 0A       		.uleb128 0xa
 4733 12d9 04040000 		.4byte	.LASF309
 4734 12dd 13       		.byte	0x13
 4735 12de 31       		.byte	0x31
 4736 12df B8000000 		.4byte	0xb8
 4737 12e3 01       		.byte	0x1
 4738 12e4 01       		.byte	0x1
 4739 12e5 03       		.byte	0x3
 4740 12e6 3C       		.byte	0x3c
 4741 12e7 0A       		.uleb128 0xa
 4742 12e8 FA0C0000 		.4byte	.LASF310
 4743 12ec 13       		.byte	0x13
 4744 12ed 32       		.byte	0x32
 4745 12ee B8000000 		.4byte	0xb8
 4746 12f2 01       		.byte	0x1
 4747 12f3 01       		.byte	0x1
ARM GAS  C:\Users\tmj32\AppData\Local\Temp\cctNeIsL.s 			page 101


 4748 12f4 02       		.byte	0x2
 4749 12f5 3C       		.byte	0x3c
 4750 12f6 00       		.byte	0
 4751 12f7 02       		.uleb128 0x2
 4752 12f8 B5030000 		.4byte	.LASF311
 4753 12fc 13       		.byte	0x13
 4754 12fd 33       		.byte	0x33
 4755 12fe 58120000 		.4byte	0x1258
 4756 1302 13       		.uleb128 0x13
 4757 1303 01       		.byte	0x1
 4758 1304 42000000 		.4byte	0x42
 4759 1308 13       		.byte	0x13
 4760 1309 36       		.byte	0x36
 4761 130a 15130000 		.4byte	0x1315
 4762 130e 14       		.uleb128 0x14
 4763 130f 61000000 		.4byte	.LASF312
 4764 1313 00       		.byte	0
 4765 1314 00       		.byte	0
 4766 1315 02       		.uleb128 0x2
 4767 1316 00100000 		.4byte	.LASF313
 4768 131a 13       		.byte	0x13
 4769 131b 39       		.byte	0x39
 4770 131c B8000000 		.4byte	0xb8
 4771 1320 06       		.uleb128 0x6
 4772 1321 14       		.byte	0x14
 4773 1322 14       		.byte	0x14
 4774 1323 34       		.byte	0x34
 4775 1324 64130000 		.4byte	0x1364
 4776 1328 08       		.uleb128 0x8
 4777 1329 72656C00 		.ascii	"rel\000"
 4778 132d 14       		.byte	0x14
 4779 132e 36       		.byte	0x36
 4780 132f B2060000 		.4byte	0x6b2
 4781 1333 00       		.byte	0
 4782 1334 08       		.uleb128 0x8
 4783 1335 707200   		.ascii	"pr\000"
 4784 1338 14       		.byte	0x14
 4785 1339 37       		.byte	0x37
 4786 133a B2060000 		.4byte	0x6b2
 4787 133e 04       		.byte	0x4
 4788 133f 07       		.uleb128 0x7
 4789 1340 F0090000 		.4byte	.LASF314
 4790 1344 14       		.byte	0x14
 4791 1345 38       		.byte	0x38
 4792 1346 B2060000 		.4byte	0x6b2
 4793 134a 08       		.byte	0x8
 4794 134b 07       		.uleb128 0x7
 4795 134c 66030000 		.4byte	.LASF315
 4796 1350 14       		.byte	0x14
 4797 1351 39       		.byte	0x39
 4798 1352 B2060000 		.4byte	0x6b2
 4799 1356 0C       		.byte	0xc
 4800 1357 08       		.uleb128 0x8
 4801 1358 696E6100 		.ascii	"ina\000"
 4802 135c 14       		.byte	0x14
 4803 135d 3A       		.byte	0x3a
 4804 135e B2060000 		.4byte	0x6b2
ARM GAS  C:\Users\tmj32\AppData\Local\Temp\cctNeIsL.s 			page 102


 4805 1362 10       		.byte	0x10
 4806 1363 00       		.byte	0
 4807 1364 06       		.uleb128 0x6
 4808 1365 14       		.byte	0x14
 4809 1366 14       		.byte	0x14
 4810 1367 3F       		.byte	0x3f
 4811 1368 A8130000 		.4byte	0x13a8
 4812 136c 08       		.uleb128 0x8
 4813 136d 72656C00 		.ascii	"rel\000"
 4814 1371 14       		.byte	0x14
 4815 1372 41       		.byte	0x41
 4816 1373 B2060000 		.4byte	0x6b2
 4817 1377 00       		.byte	0
 4818 1378 08       		.uleb128 0x8
 4819 1379 707200   		.ascii	"pr\000"
 4820 137c 14       		.byte	0x14
 4821 137d 42       		.byte	0x42
 4822 137e B2060000 		.4byte	0x6b2
 4823 1382 04       		.byte	0x4
 4824 1383 07       		.uleb128 0x7
 4825 1384 F0090000 		.4byte	.LASF314
 4826 1388 14       		.byte	0x14
 4827 1389 43       		.byte	0x43
 4828 138a B2060000 		.4byte	0x6b2
 4829 138e 08       		.byte	0x8
 4830 138f 07       		.uleb128 0x7
 4831 1390 66030000 		.4byte	.LASF315
 4832 1394 14       		.byte	0x14
 4833 1395 44       		.byte	0x44
 4834 1396 B2060000 		.4byte	0x6b2
 4835 139a 0C       		.byte	0xc
 4836 139b 08       		.uleb128 0x8
 4837 139c 696E6100 		.ascii	"ina\000"
 4838 13a0 14       		.byte	0x14
 4839 13a1 45       		.byte	0x45
 4840 13a2 B2060000 		.4byte	0x6b2
 4841 13a6 10       		.byte	0x10
 4842 13a7 00       		.byte	0
 4843 13a8 06       		.uleb128 0x6
 4844 13a9 0C       		.byte	0xc
 4845 13aa 14       		.byte	0x14
 4846 13ab 4A       		.byte	0x4a
 4847 13ac D5130000 		.4byte	0x13d5
 4848 13b0 07       		.uleb128 0x7
 4849 13b1 30020000 		.4byte	.LASF316
 4850 13b5 14       		.byte	0x14
 4851 13b6 4C       		.byte	0x4c
 4852 13b7 B2060000 		.4byte	0x6b2
 4853 13bb 00       		.byte	0
 4854 13bc 08       		.uleb128 0x8
 4855 13bd 73656300 		.ascii	"sec\000"
 4856 13c1 14       		.byte	0x14
 4857 13c2 4D       		.byte	0x4d
 4858 13c3 B2060000 		.4byte	0x6b2
 4859 13c7 04       		.byte	0x4
 4860 13c8 07       		.uleb128 0x7
 4861 13c9 03070000 		.4byte	.LASF317
ARM GAS  C:\Users\tmj32\AppData\Local\Temp\cctNeIsL.s 			page 103


 4862 13cd 14       		.byte	0x14
 4863 13ce 4E       		.byte	0x4e
 4864 13cf B2060000 		.4byte	0x6b2
 4865 13d3 08       		.byte	0x8
 4866 13d4 00       		.byte	0
 4867 13d5 06       		.uleb128 0x6
 4868 13d6 08       		.byte	0x8
 4869 13d7 14       		.byte	0x14
 4870 13d8 53       		.byte	0x53
 4871 13d9 F6130000 		.4byte	0x13f6
 4872 13dd 07       		.uleb128 0x7
 4873 13de FD010000 		.4byte	.LASF318
 4874 13e2 14       		.byte	0x14
 4875 13e3 55       		.byte	0x55
 4876 13e4 B2060000 		.4byte	0x6b2
 4877 13e8 00       		.byte	0
 4878 13e9 07       		.uleb128 0x7
 4879 13ea ED100000 		.4byte	.LASF319
 4880 13ee 14       		.byte	0x14
 4881 13ef 56       		.byte	0x56
 4882 13f0 B2060000 		.4byte	0x6b2
 4883 13f4 04       		.byte	0x4
 4884 13f5 00       		.byte	0
 4885 13f6 06       		.uleb128 0x6
 4886 13f7 04       		.byte	0x4
 4887 13f8 14       		.byte	0x14
 4888 13f9 5B       		.byte	0x5b
 4889 13fa 0B140000 		.4byte	0x140b
 4890 13fe 07       		.uleb128 0x7
 4891 13ff E60D0000 		.4byte	.LASF320
 4892 1403 14       		.byte	0x14
 4893 1404 5D       		.byte	0x5d
 4894 1405 B2060000 		.4byte	0x6b2
 4895 1409 00       		.byte	0
 4896 140a 00       		.byte	0
 4897 140b 06       		.uleb128 0x6
 4898 140c 08       		.byte	0x8
 4899 140d 14       		.byte	0x14
 4900 140e 66       		.byte	0x66
 4901 140f 2B140000 		.4byte	0x142b
 4902 1413 08       		.uleb128 0x8
 4903 1414 626700   		.ascii	"bg\000"
 4904 1417 14       		.byte	0x14
 4905 1418 68       		.byte	0x68
 4906 1419 B2060000 		.4byte	0x6b2
 4907 141d 00       		.byte	0
 4908 141e 07       		.uleb128 0x7
 4909 141f FD080000 		.4byte	.LASF321
 4910 1423 14       		.byte	0x14
 4911 1424 69       		.byte	0x69
 4912 1425 B2060000 		.4byte	0x6b2
 4913 1429 04       		.byte	0x4
 4914 142a 00       		.byte	0
 4915 142b 06       		.uleb128 0x6
 4916 142c 0C       		.byte	0xc
 4917 142d 14       		.byte	0x14
 4918 142e 6E       		.byte	0x6e
ARM GAS  C:\Users\tmj32\AppData\Local\Temp\cctNeIsL.s 			page 104


 4919 142f 57140000 		.4byte	0x1457
 4920 1433 08       		.uleb128 0x8
 4921 1434 626700   		.ascii	"bg\000"
 4922 1437 14       		.byte	0x14
 4923 1438 70       		.byte	0x70
 4924 1439 B2060000 		.4byte	0x6b2
 4925 143d 00       		.byte	0
 4926 143e 07       		.uleb128 0x7
 4927 143f FD080000 		.4byte	.LASF321
 4928 1443 14       		.byte	0x14
 4929 1444 71       		.byte	0x71
 4930 1445 B2060000 		.4byte	0x6b2
 4931 1449 04       		.byte	0x4
 4932 144a 07       		.uleb128 0x7
 4933 144b 3B120000 		.4byte	.LASF322
 4934 144f 14       		.byte	0x14
 4935 1450 72       		.byte	0x72
 4936 1451 B2060000 		.4byte	0x6b2
 4937 1455 08       		.byte	0x8
 4938 1456 00       		.byte	0
 4939 1457 06       		.uleb128 0x6
 4940 1458 10       		.byte	0x10
 4941 1459 14       		.byte	0x14
 4942 145a 87       		.byte	0x87
 4943 145b 8F140000 		.4byte	0x148f
 4944 145f 08       		.uleb128 0x8
 4945 1460 626700   		.ascii	"bg\000"
 4946 1463 14       		.byte	0x14
 4947 1464 89       		.byte	0x89
 4948 1465 B2060000 		.4byte	0x6b2
 4949 1469 00       		.byte	0
 4950 146a 07       		.uleb128 0x7
 4951 146b FD080000 		.4byte	.LASF321
 4952 146f 14       		.byte	0x14
 4953 1470 8A       		.byte	0x8a
 4954 1471 B2060000 		.4byte	0x6b2
 4955 1475 04       		.byte	0x4
 4956 1476 07       		.uleb128 0x7
 4957 1477 900A0000 		.4byte	.LASF323
 4958 147b 14       		.byte	0x14
 4959 147c 8B       		.byte	0x8b
 4960 147d B2060000 		.4byte	0x6b2
 4961 1481 08       		.byte	0x8
 4962 1482 07       		.uleb128 0x7
 4963 1483 2A040000 		.4byte	.LASF324
 4964 1487 14       		.byte	0x14
 4965 1488 8C       		.byte	0x8c
 4966 1489 B2060000 		.4byte	0x6b2
 4967 148d 0C       		.byte	0xc
 4968 148e 00       		.byte	0
 4969 148f 06       		.uleb128 0x6
 4970 1490 20       		.byte	0x20
 4971 1491 14       		.byte	0x14
 4972 1492 95       		.byte	0x95
 4973 1493 F7140000 		.4byte	0x14f7
 4974 1497 08       		.uleb128 0x8
 4975 1498 626700   		.ascii	"bg\000"
ARM GAS  C:\Users\tmj32\AppData\Local\Temp\cctNeIsL.s 			page 105


 4976 149b 14       		.byte	0x14
 4977 149c 97       		.byte	0x97
 4978 149d B2060000 		.4byte	0x6b2
 4979 14a1 00       		.byte	0
 4980 14a2 07       		.uleb128 0x7
 4981 14a3 3E040000 		.4byte	.LASF325
 4982 14a7 14       		.byte	0x14
 4983 14a8 98       		.byte	0x98
 4984 14a9 B2060000 		.4byte	0x6b2
 4985 14ad 04       		.byte	0x4
 4986 14ae 07       		.uleb128 0x7
 4987 14af 2B000000 		.4byte	.LASF326
 4988 14b3 14       		.byte	0x14
 4989 14b4 99       		.byte	0x99
 4990 14b5 B2060000 		.4byte	0x6b2
 4991 14b9 08       		.byte	0x8
 4992 14ba 07       		.uleb128 0x7
 4993 14bb BA0F0000 		.4byte	.LASF327
 4994 14bf 14       		.byte	0x14
 4995 14c0 9A       		.byte	0x9a
 4996 14c1 B2060000 		.4byte	0x6b2
 4997 14c5 0C       		.byte	0xc
 4998 14c6 07       		.uleb128 0x7
 4999 14c7 57010000 		.4byte	.LASF328
 5000 14cb 14       		.byte	0x14
 5001 14cc 9B       		.byte	0x9b
 5002 14cd B2060000 		.4byte	0x6b2
 5003 14d1 10       		.byte	0x10
 5004 14d2 07       		.uleb128 0x7
 5005 14d3 900C0000 		.4byte	.LASF329
 5006 14d7 14       		.byte	0x14
 5007 14d8 9C       		.byte	0x9c
 5008 14d9 B2060000 		.4byte	0x6b2
 5009 14dd 14       		.byte	0x14
 5010 14de 07       		.uleb128 0x7
 5011 14df D2040000 		.4byte	.LASF330
 5012 14e3 14       		.byte	0x14
 5013 14e4 9D       		.byte	0x9d
 5014 14e5 B2060000 		.4byte	0x6b2
 5015 14e9 18       		.byte	0x18
 5016 14ea 07       		.uleb128 0x7
 5017 14eb 320E0000 		.4byte	.LASF331
 5018 14ef 14       		.byte	0x14
 5019 14f0 9E       		.byte	0x9e
 5020 14f1 B2060000 		.4byte	0x6b2
 5021 14f5 1C       		.byte	0x1c
 5022 14f6 00       		.byte	0
 5023 14f7 06       		.uleb128 0x6
 5024 14f8 14       		.byte	0x14
 5025 14f9 14       		.byte	0x14
 5026 14fa A6       		.byte	0xa6
 5027 14fb 3B150000 		.4byte	0x153b
 5028 14ff 08       		.uleb128 0x8
 5029 1500 72656C00 		.ascii	"rel\000"
 5030 1504 14       		.byte	0x14
 5031 1505 A8       		.byte	0xa8
 5032 1506 B2060000 		.4byte	0x6b2
ARM GAS  C:\Users\tmj32\AppData\Local\Temp\cctNeIsL.s 			page 106


 5033 150a 00       		.byte	0
 5034 150b 08       		.uleb128 0x8
 5035 150c 707200   		.ascii	"pr\000"
 5036 150f 14       		.byte	0x14
 5037 1510 A9       		.byte	0xa9
 5038 1511 B2060000 		.4byte	0x6b2
 5039 1515 04       		.byte	0x4
 5040 1516 07       		.uleb128 0x7
 5041 1517 F0090000 		.4byte	.LASF314
 5042 151b 14       		.byte	0x14
 5043 151c AA       		.byte	0xaa
 5044 151d B2060000 		.4byte	0x6b2
 5045 1521 08       		.byte	0x8
 5046 1522 07       		.uleb128 0x7
 5047 1523 66030000 		.4byte	.LASF315
 5048 1527 14       		.byte	0x14
 5049 1528 AB       		.byte	0xab
 5050 1529 B2060000 		.4byte	0x6b2
 5051 152d 0C       		.byte	0xc
 5052 152e 08       		.uleb128 0x8
 5053 152f 696E6100 		.ascii	"ina\000"
 5054 1533 14       		.byte	0x14
 5055 1534 AC       		.byte	0xac
 5056 1535 B2060000 		.4byte	0x6b2
 5057 1539 10       		.byte	0x10
 5058 153a 00       		.byte	0
 5059 153b 06       		.uleb128 0x6
 5060 153c 18       		.byte	0x18
 5061 153d 14       		.byte	0x14
 5062 153e A3       		.byte	0xa3
 5063 153f 5B150000 		.4byte	0x155b
 5064 1543 08       		.uleb128 0x8
 5065 1544 626700   		.ascii	"bg\000"
 5066 1547 14       		.byte	0x14
 5067 1548 A5       		.byte	0xa5
 5068 1549 B2060000 		.4byte	0x6b2
 5069 154d 00       		.byte	0
 5070 154e 08       		.uleb128 0x8
 5071 154f 626F7800 		.ascii	"box\000"
 5072 1553 14       		.byte	0x14
 5073 1554 AD       		.byte	0xad
 5074 1555 F7140000 		.4byte	0x14f7
 5075 1559 04       		.byte	0x4
 5076 155a 00       		.byte	0
 5077 155b 06       		.uleb128 0x6
 5078 155c 14       		.byte	0x14
 5079 155d 14       		.byte	0x14
 5080 155e B5       		.byte	0xb5
 5081 155f 9F150000 		.4byte	0x159f
 5082 1563 08       		.uleb128 0x8
 5083 1564 72656C00 		.ascii	"rel\000"
 5084 1568 14       		.byte	0x14
 5085 1569 B7       		.byte	0xb7
 5086 156a B2060000 		.4byte	0x6b2
 5087 156e 00       		.byte	0
 5088 156f 08       		.uleb128 0x8
 5089 1570 707200   		.ascii	"pr\000"
ARM GAS  C:\Users\tmj32\AppData\Local\Temp\cctNeIsL.s 			page 107


 5090 1573 14       		.byte	0x14
 5091 1574 B8       		.byte	0xb8
 5092 1575 B2060000 		.4byte	0x6b2
 5093 1579 04       		.byte	0x4
 5094 157a 07       		.uleb128 0x7
 5095 157b F0090000 		.4byte	.LASF314
 5096 157f 14       		.byte	0x14
 5097 1580 B9       		.byte	0xb9
 5098 1581 B2060000 		.4byte	0x6b2
 5099 1585 08       		.byte	0x8
 5100 1586 07       		.uleb128 0x7
 5101 1587 66030000 		.4byte	.LASF315
 5102 158b 14       		.byte	0x14
 5103 158c BA       		.byte	0xba
 5104 158d B2060000 		.4byte	0x6b2
 5105 1591 0C       		.byte	0xc
 5106 1592 08       		.uleb128 0x8
 5107 1593 696E6100 		.ascii	"ina\000"
 5108 1597 14       		.byte	0x14
 5109 1598 BB       		.byte	0xbb
 5110 1599 B2060000 		.4byte	0x6b2
 5111 159d 10       		.byte	0x10
 5112 159e 00       		.byte	0
 5113 159f 06       		.uleb128 0x6
 5114 15a0 18       		.byte	0x18
 5115 15a1 14       		.byte	0x14
 5116 15a2 B2       		.byte	0xb2
 5117 15a3 BF150000 		.4byte	0x15bf
 5118 15a7 08       		.uleb128 0x8
 5119 15a8 626700   		.ascii	"bg\000"
 5120 15ab 14       		.byte	0x14
 5121 15ac B4       		.byte	0xb4
 5122 15ad B2060000 		.4byte	0x6b2
 5123 15b1 00       		.byte	0
 5124 15b2 08       		.uleb128 0x8
 5125 15b3 62746E00 		.ascii	"btn\000"
 5126 15b7 14       		.byte	0x14
 5127 15b8 BC       		.byte	0xbc
 5128 15b9 5B150000 		.4byte	0x155b
 5129 15bd 04       		.byte	0x4
 5130 15be 00       		.byte	0
 5131 15bf 06       		.uleb128 0x6
 5132 15c0 14       		.byte	0x14
 5133 15c1 14       		.byte	0x14
 5134 15c2 C4       		.byte	0xc4
 5135 15c3 03160000 		.4byte	0x1603
 5136 15c7 08       		.uleb128 0x8
 5137 15c8 72656C00 		.ascii	"rel\000"
 5138 15cc 14       		.byte	0x14
 5139 15cd C6       		.byte	0xc6
 5140 15ce B2060000 		.4byte	0x6b2
 5141 15d2 00       		.byte	0
 5142 15d3 08       		.uleb128 0x8
 5143 15d4 707200   		.ascii	"pr\000"
 5144 15d7 14       		.byte	0x14
 5145 15d8 C7       		.byte	0xc7
 5146 15d9 B2060000 		.4byte	0x6b2
ARM GAS  C:\Users\tmj32\AppData\Local\Temp\cctNeIsL.s 			page 108


 5147 15dd 04       		.byte	0x4
 5148 15de 07       		.uleb128 0x7
 5149 15df F0090000 		.4byte	.LASF314
 5150 15e3 14       		.byte	0x14
 5151 15e4 C8       		.byte	0xc8
 5152 15e5 B2060000 		.4byte	0x6b2
 5153 15e9 08       		.byte	0x8
 5154 15ea 07       		.uleb128 0x7
 5155 15eb 66030000 		.4byte	.LASF315
 5156 15ef 14       		.byte	0x14
 5157 15f0 C9       		.byte	0xc9
 5158 15f1 B2060000 		.4byte	0x6b2
 5159 15f5 0C       		.byte	0xc
 5160 15f6 08       		.uleb128 0x8
 5161 15f7 696E6100 		.ascii	"ina\000"
 5162 15fb 14       		.byte	0x14
 5163 15fc CA       		.byte	0xca
 5164 15fd B2060000 		.4byte	0x6b2
 5165 1601 10       		.byte	0x10
 5166 1602 00       		.byte	0
 5167 1603 06       		.uleb128 0x6
 5168 1604 18       		.byte	0x18
 5169 1605 14       		.byte	0x14
 5170 1606 C1       		.byte	0xc1
 5171 1607 23160000 		.4byte	0x1623
 5172 160b 08       		.uleb128 0x8
 5173 160c 626700   		.ascii	"bg\000"
 5174 160f 14       		.byte	0x14
 5175 1610 C3       		.byte	0xc3
 5176 1611 B2060000 		.4byte	0x6b2
 5177 1615 00       		.byte	0
 5178 1616 08       		.uleb128 0x8
 5179 1617 62746E00 		.ascii	"btn\000"
 5180 161b 14       		.byte	0x14
 5181 161c CB       		.byte	0xcb
 5182 161d BF150000 		.4byte	0x15bf
 5183 1621 04       		.byte	0x4
 5184 1622 00       		.byte	0
 5185 1623 06       		.uleb128 0x6
 5186 1624 0C       		.byte	0xc
 5187 1625 14       		.byte	0x14
 5188 1626 D3       		.byte	0xd3
 5189 1627 4E160000 		.4byte	0x164e
 5190 162b 08       		.uleb128 0x8
 5191 162c 626700   		.ascii	"bg\000"
 5192 162f 14       		.byte	0x14
 5193 1630 D5       		.byte	0xd5
 5194 1631 B2060000 		.4byte	0x6b2
 5195 1635 00       		.byte	0
 5196 1636 08       		.uleb128 0x8
 5197 1637 72656C00 		.ascii	"rel\000"
 5198 163b 14       		.byte	0x14
 5199 163c D6       		.byte	0xd6
 5200 163d B2060000 		.4byte	0x6b2
 5201 1641 04       		.byte	0x4
 5202 1642 08       		.uleb128 0x8
 5203 1643 707200   		.ascii	"pr\000"
ARM GAS  C:\Users\tmj32\AppData\Local\Temp\cctNeIsL.s 			page 109


 5204 1646 14       		.byte	0x14
 5205 1647 D7       		.byte	0xd7
 5206 1648 B2060000 		.4byte	0x6b2
 5207 164c 08       		.byte	0x8
 5208 164d 00       		.byte	0
 5209 164e 06       		.uleb128 0x6
 5210 164f 10       		.byte	0x10
 5211 1650 14       		.byte	0x14
 5212 1651 D0       		.byte	0xd0
 5213 1652 6E160000 		.4byte	0x166e
 5214 1656 08       		.uleb128 0x8
 5215 1657 626700   		.ascii	"bg\000"
 5216 165a 14       		.byte	0x14
 5217 165b D2       		.byte	0xd2
 5218 165c B2060000 		.4byte	0x6b2
 5219 1660 00       		.byte	0
 5220 1661 08       		.uleb128 0x8
 5221 1662 62746E00 		.ascii	"btn\000"
 5222 1666 14       		.byte	0x14
 5223 1667 D8       		.byte	0xd8
 5224 1668 23160000 		.4byte	0x1623
 5225 166c 04       		.byte	0x4
 5226 166d 00       		.byte	0
 5227 166e 06       		.uleb128 0x6
 5228 166f 0C       		.byte	0xc
 5229 1670 14       		.byte	0x14
 5230 1671 DD       		.byte	0xdd
 5231 1672 99160000 		.4byte	0x1699
 5232 1676 08       		.uleb128 0x8
 5233 1677 626700   		.ascii	"bg\000"
 5234 167a 14       		.byte	0x14
 5235 167b DF       		.byte	0xdf
 5236 167c B2060000 		.4byte	0x6b2
 5237 1680 00       		.byte	0
 5238 1681 07       		.uleb128 0x7
 5239 1682 92030000 		.4byte	.LASF291
 5240 1686 14       		.byte	0x14
 5241 1687 E0       		.byte	0xe0
 5242 1688 B2060000 		.4byte	0x6b2
 5243 168c 04       		.byte	0x4
 5244 168d 08       		.uleb128 0x8
 5245 168e 736200   		.ascii	"sb\000"
 5246 1691 14       		.byte	0x14
 5247 1692 E1       		.byte	0xe1
 5248 1693 B2060000 		.4byte	0x6b2
 5249 1697 08       		.byte	0x8
 5250 1698 00       		.byte	0
 5251 1699 06       		.uleb128 0x6
 5252 169a 10       		.byte	0x10
 5253 169b 14       		.byte	0x14
 5254 169c E6       		.byte	0xe6
 5255 169d D1160000 		.4byte	0x16d1
 5256 16a1 07       		.uleb128 0x7
 5257 16a2 9B060000 		.4byte	.LASF119
 5258 16a6 14       		.byte	0x14
 5259 16a7 E8       		.byte	0xe8
 5260 16a8 B2060000 		.4byte	0x6b2
ARM GAS  C:\Users\tmj32\AppData\Local\Temp\cctNeIsL.s 			page 110


 5261 16ac 00       		.byte	0
 5262 16ad 07       		.uleb128 0x7
 5263 16ae C5070000 		.4byte	.LASF332
 5264 16b2 14       		.byte	0x14
 5265 16b3 E9       		.byte	0xe9
 5266 16b4 B2060000 		.4byte	0x6b2
 5267 16b8 04       		.byte	0x4
 5268 16b9 07       		.uleb128 0x7
 5269 16ba 9A120000 		.4byte	.LASF207
 5270 16be 14       		.byte	0x14
 5271 16bf EA       		.byte	0xea
 5272 16c0 B2060000 		.4byte	0x6b2
 5273 16c4 08       		.byte	0x8
 5274 16c5 08       		.uleb128 0x8
 5275 16c6 736200   		.ascii	"sb\000"
 5276 16c9 14       		.byte	0x14
 5277 16ca EB       		.byte	0xeb
 5278 16cb B2060000 		.4byte	0x6b2
 5279 16cf 0C       		.byte	0xc
 5280 16d0 00       		.byte	0
 5281 16d1 06       		.uleb128 0x6
 5282 16d2 0C       		.byte	0xc
 5283 16d3 14       		.byte	0x14
 5284 16d4 F0       		.byte	0xf0
 5285 16d5 FC160000 		.4byte	0x16fc
 5286 16d9 08       		.uleb128 0x8
 5287 16da 626700   		.ascii	"bg\000"
 5288 16dd 14       		.byte	0x14
 5289 16de F2       		.byte	0xf2
 5290 16df B2060000 		.4byte	0x6b2
 5291 16e3 00       		.byte	0
 5292 16e4 07       		.uleb128 0x7
 5293 16e5 9A120000 		.4byte	.LASF207
 5294 16e9 14       		.byte	0x14
 5295 16ea F3       		.byte	0xf3
 5296 16eb B2060000 		.4byte	0x6b2
 5297 16ef 04       		.byte	0x4
 5298 16f0 08       		.uleb128 0x8
 5299 16f1 736200   		.ascii	"sb\000"
 5300 16f4 14       		.byte	0x14
 5301 16f5 F4       		.byte	0xf4
 5302 16f6 B2060000 		.4byte	0x6b2
 5303 16fa 08       		.byte	0x8
 5304 16fb 00       		.byte	0
 5305 16fc 06       		.uleb128 0x6
 5306 16fd 14       		.byte	0x14
 5307 16fe 14       		.byte	0x14
 5308 16ff FE       		.byte	0xfe
 5309 1700 45170000 		.4byte	0x1745
 5310 1704 1E       		.uleb128 0x1e
 5311 1705 72656C00 		.ascii	"rel\000"
 5312 1709 14       		.byte	0x14
 5313 170a 0001     		.2byte	0x100
 5314 170c B2060000 		.4byte	0x6b2
 5315 1710 00       		.byte	0
 5316 1711 1E       		.uleb128 0x1e
 5317 1712 707200   		.ascii	"pr\000"
ARM GAS  C:\Users\tmj32\AppData\Local\Temp\cctNeIsL.s 			page 111


 5318 1715 14       		.byte	0x14
 5319 1716 0101     		.2byte	0x101
 5320 1718 B2060000 		.4byte	0x6b2
 5321 171c 04       		.byte	0x4
 5322 171d 1F       		.uleb128 0x1f
 5323 171e F0090000 		.4byte	.LASF314
 5324 1722 14       		.byte	0x14
 5325 1723 0201     		.2byte	0x102
 5326 1725 B2060000 		.4byte	0x6b2
 5327 1729 08       		.byte	0x8
 5328 172a 1F       		.uleb128 0x1f
 5329 172b 66030000 		.4byte	.LASF315
 5330 172f 14       		.byte	0x14
 5331 1730 0301     		.2byte	0x103
 5332 1732 B2060000 		.4byte	0x6b2
 5333 1736 0C       		.byte	0xc
 5334 1737 1E       		.uleb128 0x1e
 5335 1738 696E6100 		.ascii	"ina\000"
 5336 173c 14       		.byte	0x14
 5337 173d 0401     		.2byte	0x104
 5338 173f B2060000 		.4byte	0x6b2
 5339 1743 10       		.byte	0x10
 5340 1744 00       		.byte	0
 5341 1745 06       		.uleb128 0x6
 5342 1746 20       		.byte	0x20
 5343 1747 14       		.byte	0x14
 5344 1748 F9       		.byte	0xf9
 5345 1749 7D170000 		.4byte	0x177d
 5346 174d 08       		.uleb128 0x8
 5347 174e 626700   		.ascii	"bg\000"
 5348 1751 14       		.byte	0x14
 5349 1752 FB       		.byte	0xfb
 5350 1753 B2060000 		.4byte	0x6b2
 5351 1757 00       		.byte	0
 5352 1758 07       		.uleb128 0x7
 5353 1759 92030000 		.4byte	.LASF291
 5354 175d 14       		.byte	0x14
 5355 175e FC       		.byte	0xfc
 5356 175f B2060000 		.4byte	0x6b2
 5357 1763 04       		.byte	0x4
 5358 1764 08       		.uleb128 0x8
 5359 1765 736200   		.ascii	"sb\000"
 5360 1768 14       		.byte	0x14
 5361 1769 FD       		.byte	0xfd
 5362 176a B2060000 		.4byte	0x6b2
 5363 176e 08       		.byte	0x8
 5364 176f 1E       		.uleb128 0x1e
 5365 1770 62746E00 		.ascii	"btn\000"
 5366 1774 14       		.byte	0x14
 5367 1775 0501     		.2byte	0x105
 5368 1777 FC160000 		.4byte	0x16fc
 5369 177b 0C       		.byte	0xc
 5370 177c 00       		.byte	0
 5371 177d 20       		.uleb128 0x20
 5372 177e 0C       		.byte	0xc
 5373 177f 14       		.byte	0x14
 5374 1780 0A01     		.2byte	0x10a
ARM GAS  C:\Users\tmj32\AppData\Local\Temp\cctNeIsL.s 			page 112


 5375 1782 AC170000 		.4byte	0x17ac
 5376 1786 1E       		.uleb128 0x1e
 5377 1787 626700   		.ascii	"bg\000"
 5378 178a 14       		.byte	0x14
 5379 178b 0C01     		.2byte	0x10c
 5380 178d B2060000 		.4byte	0x6b2
 5381 1791 00       		.byte	0
 5382 1792 1E       		.uleb128 0x1e
 5383 1793 73656C00 		.ascii	"sel\000"
 5384 1797 14       		.byte	0x14
 5385 1798 0D01     		.2byte	0x10d
 5386 179a B2060000 		.4byte	0x6b2
 5387 179e 04       		.byte	0x4
 5388 179f 1E       		.uleb128 0x1e
 5389 17a0 736200   		.ascii	"sb\000"
 5390 17a3 14       		.byte	0x14
 5391 17a4 0E01     		.2byte	0x10e
 5392 17a6 B2060000 		.4byte	0x6b2
 5393 17aa 08       		.byte	0x8
 5394 17ab 00       		.byte	0
 5395 17ac 20       		.uleb128 0x20
 5396 17ad 08       		.byte	0x8
 5397 17ae 14       		.byte	0x14
 5398 17af 1301     		.2byte	0x113
 5399 17b1 CF170000 		.4byte	0x17cf
 5400 17b5 1E       		.uleb128 0x1e
 5401 17b6 626700   		.ascii	"bg\000"
 5402 17b9 14       		.byte	0x14
 5403 17ba 1501     		.2byte	0x115
 5404 17bc B2060000 		.4byte	0x6b2
 5405 17c0 00       		.byte	0
 5406 17c1 1E       		.uleb128 0x1e
 5407 17c2 73656C00 		.ascii	"sel\000"
 5408 17c6 14       		.byte	0x14
 5409 17c7 1601     		.2byte	0x116
 5410 17c9 B2060000 		.4byte	0x6b2
 5411 17cd 04       		.byte	0x4
 5412 17ce 00       		.byte	0
 5413 17cf 20       		.uleb128 0x20
 5414 17d0 14       		.byte	0x14
 5415 17d1 14       		.byte	0x14
 5416 17d2 1F01     		.2byte	0x11f
 5417 17d4 18180000 		.4byte	0x1818
 5418 17d8 1E       		.uleb128 0x1e
 5419 17d9 626700   		.ascii	"bg\000"
 5420 17dc 14       		.byte	0x14
 5421 17dd 2101     		.2byte	0x121
 5422 17df B2060000 		.4byte	0x6b2
 5423 17e3 00       		.byte	0
 5424 17e4 1E       		.uleb128 0x1e
 5425 17e5 72656C00 		.ascii	"rel\000"
 5426 17e9 14       		.byte	0x14
 5427 17ea 2201     		.2byte	0x122
 5428 17ec B2060000 		.4byte	0x6b2
 5429 17f0 04       		.byte	0x4
 5430 17f1 1E       		.uleb128 0x1e
 5431 17f2 707200   		.ascii	"pr\000"
ARM GAS  C:\Users\tmj32\AppData\Local\Temp\cctNeIsL.s 			page 113


 5432 17f5 14       		.byte	0x14
 5433 17f6 2301     		.2byte	0x123
 5434 17f8 B2060000 		.4byte	0x6b2
 5435 17fc 08       		.byte	0x8
 5436 17fd 1F       		.uleb128 0x1f
 5437 17fe F0090000 		.4byte	.LASF314
 5438 1802 14       		.byte	0x14
 5439 1803 2401     		.2byte	0x124
 5440 1805 B2060000 		.4byte	0x6b2
 5441 1809 0C       		.byte	0xc
 5442 180a 1F       		.uleb128 0x1f
 5443 180b 66030000 		.4byte	.LASF315
 5444 180f 14       		.byte	0x14
 5445 1810 2501     		.2byte	0x125
 5446 1812 B2060000 		.4byte	0x6b2
 5447 1816 10       		.byte	0x10
 5448 1817 00       		.byte	0
 5449 1818 20       		.uleb128 0x20
 5450 1819 1C       		.byte	0x1c
 5451 181a 14       		.byte	0x14
 5452 181b 1B01     		.2byte	0x11b
 5453 181d 48180000 		.4byte	0x1848
 5454 1821 1E       		.uleb128 0x1e
 5455 1822 626700   		.ascii	"bg\000"
 5456 1825 14       		.byte	0x14
 5457 1826 1D01     		.2byte	0x11d
 5458 1828 B2060000 		.4byte	0x6b2
 5459 182c 00       		.byte	0
 5460 182d 1F       		.uleb128 0x1f
 5461 182e FD080000 		.4byte	.LASF321
 5462 1832 14       		.byte	0x14
 5463 1833 1E01     		.2byte	0x11e
 5464 1835 B2060000 		.4byte	0x6b2
 5465 1839 04       		.byte	0x4
 5466 183a 1E       		.uleb128 0x1e
 5467 183b 62746E00 		.ascii	"btn\000"
 5468 183f 14       		.byte	0x14
 5469 1840 2601     		.2byte	0x126
 5470 1842 CF170000 		.4byte	0x17cf
 5471 1846 08       		.byte	0x8
 5472 1847 00       		.byte	0
 5473 1848 20       		.uleb128 0x20
 5474 1849 0C       		.byte	0xc
 5475 184a 14       		.byte	0x14
 5476 184b 2B01     		.2byte	0x12b
 5477 184d 77180000 		.4byte	0x1877
 5478 1851 1E       		.uleb128 0x1e
 5479 1852 626700   		.ascii	"bg\000"
 5480 1855 14       		.byte	0x14
 5481 1856 2D01     		.2byte	0x12d
 5482 1858 B2060000 		.4byte	0x6b2
 5483 185c 00       		.byte	0
 5484 185d 1F       		.uleb128 0x1f
 5485 185e 92030000 		.4byte	.LASF291
 5486 1862 14       		.byte	0x14
 5487 1863 2E01     		.2byte	0x12e
 5488 1865 B2060000 		.4byte	0x6b2
ARM GAS  C:\Users\tmj32\AppData\Local\Temp\cctNeIsL.s 			page 114


 5489 1869 04       		.byte	0x4
 5490 186a 1E       		.uleb128 0x1e
 5491 186b 736200   		.ascii	"sb\000"
 5492 186e 14       		.byte	0x14
 5493 186f 2F01     		.2byte	0x12f
 5494 1871 B2060000 		.4byte	0x6b2
 5495 1875 08       		.byte	0x8
 5496 1876 00       		.byte	0
 5497 1877 20       		.uleb128 0x20
 5498 1878 08       		.byte	0x8
 5499 1879 14       		.byte	0x14
 5500 187a 3401     		.2byte	0x134
 5501 187c 9A180000 		.4byte	0x189a
 5502 1880 1E       		.uleb128 0x1e
 5503 1881 626700   		.ascii	"bg\000"
 5504 1884 14       		.byte	0x14
 5505 1885 3601     		.2byte	0x136
 5506 1887 B2060000 		.4byte	0x6b2
 5507 188b 00       		.byte	0
 5508 188c 1F       		.uleb128 0x1f
 5509 188d 51000000 		.4byte	.LASF333
 5510 1891 14       		.byte	0x14
 5511 1892 3701     		.2byte	0x137
 5512 1894 B2060000 		.4byte	0x6b2
 5513 1898 04       		.byte	0x4
 5514 1899 00       		.byte	0
 5515 189a 20       		.uleb128 0x20
 5516 189b 08       		.byte	0x8
 5517 189c 14       		.byte	0x14
 5518 189d 4201     		.2byte	0x142
 5519 189f BD180000 		.4byte	0x18bd
 5520 18a3 1E       		.uleb128 0x1e
 5521 18a4 72656C00 		.ascii	"rel\000"
 5522 18a8 14       		.byte	0x14
 5523 18a9 4401     		.2byte	0x144
 5524 18ab B2060000 		.4byte	0x6b2
 5525 18af 00       		.byte	0
 5526 18b0 1E       		.uleb128 0x1e
 5527 18b1 707200   		.ascii	"pr\000"
 5528 18b4 14       		.byte	0x14
 5529 18b5 4501     		.2byte	0x145
 5530 18b7 B2060000 		.4byte	0x6b2
 5531 18bb 04       		.byte	0x4
 5532 18bc 00       		.byte	0
 5533 18bd 20       		.uleb128 0x20
 5534 18be 18       		.byte	0x18
 5535 18bf 14       		.byte	0x14
 5536 18c0 3C01     		.2byte	0x13c
 5537 18c2 06190000 		.4byte	0x1906
 5538 18c6 1E       		.uleb128 0x1e
 5539 18c7 626700   		.ascii	"bg\000"
 5540 18ca 14       		.byte	0x14
 5541 18cb 3E01     		.2byte	0x13e
 5542 18cd B2060000 		.4byte	0x6b2
 5543 18d1 00       		.byte	0
 5544 18d2 1E       		.uleb128 0x1e
 5545 18d3 736200   		.ascii	"sb\000"
ARM GAS  C:\Users\tmj32\AppData\Local\Temp\cctNeIsL.s 			page 115


 5546 18d6 14       		.byte	0x14
 5547 18d7 3F01     		.2byte	0x13f
 5548 18d9 B2060000 		.4byte	0x6b2
 5549 18dd 04       		.byte	0x4
 5550 18de 1F       		.uleb128 0x1f
 5551 18df 3E040000 		.4byte	.LASF325
 5552 18e3 14       		.byte	0x14
 5553 18e4 4001     		.2byte	0x140
 5554 18e6 B2060000 		.4byte	0x6b2
 5555 18ea 08       		.byte	0x8
 5556 18eb 1F       		.uleb128 0x1f
 5557 18ec 65100000 		.4byte	.LASF334
 5558 18f0 14       		.byte	0x14
 5559 18f1 4101     		.2byte	0x141
 5560 18f3 B2060000 		.4byte	0x6b2
 5561 18f7 0C       		.byte	0xc
 5562 18f8 1E       		.uleb128 0x1e
 5563 18f9 62746E00 		.ascii	"btn\000"
 5564 18fd 14       		.byte	0x14
 5565 18fe 4601     		.2byte	0x146
 5566 1900 9A180000 		.4byte	0x189a
 5567 1904 10       		.byte	0x10
 5568 1905 00       		.byte	0
 5569 1906 21       		.uleb128 0x21
 5570 1907 A801     		.2byte	0x1a8
 5571 1909 14       		.byte	0x14
 5572 190a 29       		.byte	0x29
 5573 190b A81A0000 		.4byte	0x1aa8
 5574 190f 08       		.uleb128 0x8
 5575 1910 73637200 		.ascii	"scr\000"
 5576 1914 14       		.byte	0x14
 5577 1915 2B       		.byte	0x2b
 5578 1916 B2060000 		.4byte	0x6b2
 5579 191a 00       		.byte	0
 5580 191b 08       		.uleb128 0x8
 5581 191c 626700   		.ascii	"bg\000"
 5582 191f 14       		.byte	0x14
 5583 1920 2C       		.byte	0x2c
 5584 1921 B2060000 		.4byte	0x6b2
 5585 1925 04       		.byte	0x4
 5586 1926 07       		.uleb128 0x7
 5587 1927 120E0000 		.4byte	.LASF335
 5588 192b 14       		.byte	0x14
 5589 192c 2D       		.byte	0x2d
 5590 192d B2060000 		.4byte	0x6b2
 5591 1931 08       		.byte	0x8
 5592 1932 07       		.uleb128 0x7
 5593 1933 13020000 		.4byte	.LASF336
 5594 1937 14       		.byte	0x14
 5595 1938 30       		.byte	0x30
 5596 1939 B2060000 		.4byte	0x6b2
 5597 193d 0C       		.byte	0xc
 5598 193e 08       		.uleb128 0x8
 5599 193f 62746E00 		.ascii	"btn\000"
 5600 1943 14       		.byte	0x14
 5601 1944 3B       		.byte	0x3b
 5602 1945 20130000 		.4byte	0x1320
ARM GAS  C:\Users\tmj32\AppData\Local\Temp\cctNeIsL.s 			page 116


 5603 1949 10       		.byte	0x10
 5604 194a 07       		.uleb128 0x7
 5605 194b EC0D0000 		.4byte	.LASF337
 5606 194f 14       		.byte	0x14
 5607 1950 46       		.byte	0x46
 5608 1951 64130000 		.4byte	0x1364
 5609 1955 24       		.byte	0x24
 5610 1956 07       		.uleb128 0x7
 5611 1957 CF110000 		.4byte	.LASF338
 5612 195b 14       		.byte	0x14
 5613 195c 4F       		.byte	0x4f
 5614 195d A8130000 		.4byte	0x13a8
 5615 1961 38       		.byte	0x38
 5616 1962 08       		.uleb128 0x8
 5617 1963 696D6700 		.ascii	"img\000"
 5618 1967 14       		.byte	0x14
 5619 1968 57       		.byte	0x57
 5620 1969 D5130000 		.4byte	0x13d5
 5621 196d 44       		.byte	0x44
 5622 196e 07       		.uleb128 0x7
 5623 196f 25070000 		.4byte	.LASF95
 5624 1973 14       		.byte	0x14
 5625 1974 5E       		.byte	0x5e
 5626 1975 F6130000 		.4byte	0x13f6
 5627 1979 4C       		.byte	0x4c
 5628 197a 08       		.uleb128 0x8
 5629 197b 6C656400 		.ascii	"led\000"
 5630 197f 14       		.byte	0x14
 5631 1980 62       		.byte	0x62
 5632 1981 B2060000 		.4byte	0x6b2
 5633 1985 50       		.byte	0x50
 5634 1986 08       		.uleb128 0x8
 5635 1987 62617200 		.ascii	"bar\000"
 5636 198b 14       		.byte	0x14
 5637 198c 6A       		.byte	0x6a
 5638 198d 0B140000 		.4byte	0x140b
 5639 1991 54       		.byte	0x54
 5640 1992 07       		.uleb128 0x7
 5641 1993 3A070000 		.4byte	.LASF339
 5642 1997 14       		.byte	0x14
 5643 1998 73       		.byte	0x73
 5644 1999 2B140000 		.4byte	0x142b
 5645 199d 5C       		.byte	0x5c
 5646 199e 07       		.uleb128 0x7
 5647 199f ED000000 		.4byte	.LASF340
 5648 19a3 14       		.byte	0x14
 5649 19a4 77       		.byte	0x77
 5650 19a5 B2060000 		.4byte	0x6b2
 5651 19a9 68       		.byte	0x68
 5652 19aa 07       		.uleb128 0x7
 5653 19ab 990A0000 		.4byte	.LASF341
 5654 19af 14       		.byte	0x14
 5655 19b0 7B       		.byte	0x7b
 5656 19b1 B2060000 		.4byte	0x6b2
 5657 19b5 6C       		.byte	0x6c
 5658 19b6 08       		.uleb128 0x8
 5659 19b7 61726300 		.ascii	"arc\000"
ARM GAS  C:\Users\tmj32\AppData\Local\Temp\cctNeIsL.s 			page 117


 5660 19bb 14       		.byte	0x14
 5661 19bc 7F       		.byte	0x7f
 5662 19bd B2060000 		.4byte	0x6b2
 5663 19c1 70       		.byte	0x70
 5664 19c2 07       		.uleb128 0x7
 5665 19c3 27120000 		.4byte	.LASF342
 5666 19c7 14       		.byte	0x14
 5667 19c8 83       		.byte	0x83
 5668 19c9 B2060000 		.4byte	0x6b2
 5669 19cd 74       		.byte	0x74
 5670 19ce 08       		.uleb128 0x8
 5671 19cf 737700   		.ascii	"sw\000"
 5672 19d2 14       		.byte	0x14
 5673 19d3 8D       		.byte	0x8d
 5674 19d4 57140000 		.4byte	0x1457
 5675 19d8 78       		.byte	0x78
 5676 19d9 07       		.uleb128 0x7
 5677 19da 05030000 		.4byte	.LASF343
 5678 19de 14       		.byte	0x14
 5679 19df 91       		.byte	0x91
 5680 19e0 B2060000 		.4byte	0x6b2
 5681 19e4 88       		.byte	0x88
 5682 19e5 07       		.uleb128 0x7
 5683 19e6 250B0000 		.4byte	.LASF344
 5684 19ea 14       		.byte	0x14
 5685 19eb 9F       		.byte	0x9f
 5686 19ec 8F140000 		.4byte	0x148f
 5687 19f0 8C       		.byte	0x8c
 5688 19f1 08       		.uleb128 0x8
 5689 19f2 636200   		.ascii	"cb\000"
 5690 19f5 14       		.byte	0x14
 5691 19f6 AE       		.byte	0xae
 5692 19f7 3B150000 		.4byte	0x153b
 5693 19fb AC       		.byte	0xac
 5694 19fc 07       		.uleb128 0x7
 5695 19fd 18030000 		.4byte	.LASF345
 5696 1a01 14       		.byte	0x14
 5697 1a02 BD       		.byte	0xbd
 5698 1a03 9F150000 		.4byte	0x159f
 5699 1a07 C4       		.byte	0xc4
 5700 1a08 08       		.uleb128 0x8
 5701 1a09 6B6200   		.ascii	"kb\000"
 5702 1a0c 14       		.byte	0x14
 5703 1a0d CC       		.byte	0xcc
 5704 1a0e 03160000 		.4byte	0x1603
 5705 1a12 DC       		.byte	0xdc
 5706 1a13 07       		.uleb128 0x7
 5707 1a14 E2090000 		.4byte	.LASF346
 5708 1a18 14       		.byte	0x14
 5709 1a19 D9       		.byte	0xd9
 5710 1a1a 4E160000 		.4byte	0x164e
 5711 1a1e F4       		.byte	0xf4
 5712 1a1f 18       		.uleb128 0x18
 5713 1a20 830A0000 		.4byte	.LASF301
 5714 1a24 14       		.byte	0x14
 5715 1a25 E2       		.byte	0xe2
 5716 1a26 6E160000 		.4byte	0x166e
ARM GAS  C:\Users\tmj32\AppData\Local\Temp\cctNeIsL.s 			page 118


 5717 1a2a 0401     		.2byte	0x104
 5718 1a2c 22       		.uleb128 0x22
 5719 1a2d 746100   		.ascii	"ta\000"
 5720 1a30 14       		.byte	0x14
 5721 1a31 EC       		.byte	0xec
 5722 1a32 99160000 		.4byte	0x1699
 5723 1a36 1001     		.2byte	0x110
 5724 1a38 18       		.uleb128 0x18
 5725 1a39 A50F0000 		.4byte	.LASF347
 5726 1a3d 14       		.byte	0x14
 5727 1a3e F5       		.byte	0xf5
 5728 1a3f D1160000 		.4byte	0x16d1
 5729 1a43 2001     		.2byte	0x120
 5730 1a45 23       		.uleb128 0x23
 5731 1a46 580A0000 		.4byte	.LASF348
 5732 1a4a 14       		.byte	0x14
 5733 1a4b 0601     		.2byte	0x106
 5734 1a4d 45170000 		.4byte	0x1745
 5735 1a51 2C01     		.2byte	0x12c
 5736 1a53 23       		.uleb128 0x23
 5737 1a54 3B050000 		.4byte	.LASF349
 5738 1a58 14       		.byte	0x14
 5739 1a59 0F01     		.2byte	0x10f
 5740 1a5b 7D170000 		.4byte	0x177d
 5741 1a5f 4C01     		.2byte	0x14c
 5742 1a61 23       		.uleb128 0x23
 5743 1a62 EA120000 		.4byte	.LASF350
 5744 1a66 14       		.byte	0x14
 5745 1a67 1701     		.2byte	0x117
 5746 1a69 AC170000 		.4byte	0x17ac
 5747 1a6d 5801     		.2byte	0x158
 5748 1a6f 23       		.uleb128 0x23
 5749 1a70 40090000 		.4byte	.LASF351
 5750 1a74 14       		.byte	0x14
 5751 1a75 2701     		.2byte	0x127
 5752 1a77 18180000 		.4byte	0x1818
 5753 1a7b 6001     		.2byte	0x160
 5754 1a7d 23       		.uleb128 0x23
 5755 1a7e EA020000 		.4byte	.LASF352
 5756 1a82 14       		.byte	0x14
 5757 1a83 3001     		.2byte	0x130
 5758 1a85 48180000 		.4byte	0x1848
 5759 1a89 7C01     		.2byte	0x17c
 5760 1a8b 23       		.uleb128 0x23
 5761 1a8c 5A040000 		.4byte	.LASF353
 5762 1a90 14       		.byte	0x14
 5763 1a91 3801     		.2byte	0x138
 5764 1a93 77180000 		.4byte	0x1877
 5765 1a97 8801     		.2byte	0x188
 5766 1a99 24       		.uleb128 0x24
 5767 1a9a 77696E00 		.ascii	"win\000"
 5768 1a9e 14       		.byte	0x14
 5769 1a9f 4701     		.2byte	0x147
 5770 1aa1 BD180000 		.4byte	0x18bd
 5771 1aa5 9001     		.2byte	0x190
 5772 1aa7 00       		.byte	0
 5773 1aa8 21       		.uleb128 0x21
ARM GAS  C:\Users\tmj32\AppData\Local\Temp\cctNeIsL.s 			page 119


 5774 1aa9 A801     		.2byte	0x1a8
 5775 1aab 14       		.byte	0x14
 5776 1aac 27       		.byte	0x27
 5777 1aad BF1A0000 		.4byte	0x1abf
 5778 1ab1 1F       		.uleb128 0x1f
 5779 1ab2 080B0000 		.4byte	.LASF280
 5780 1ab6 14       		.byte	0x14
 5781 1ab7 4901     		.2byte	0x149
 5782 1ab9 06190000 		.4byte	0x1906
 5783 1abd 00       		.byte	0
 5784 1abe 00       		.byte	0
 5785 1abf 12       		.uleb128 0x12
 5786 1ac0 10060000 		.4byte	.LASF354
 5787 1ac4 14       		.byte	0x14
 5788 1ac5 5401     		.2byte	0x154
 5789 1ac7 A81A0000 		.4byte	0x1aa8
 5790 1acb 25       		.uleb128 0x25
 5791 1acc 340A0000 		.4byte	.LASF355
 5792 1ad0 01       		.byte	0x1
 5793 1ad1 84       		.byte	0x84
 5794 1ad2 00000000 		.4byte	.LFB32
 5795 1ad6 26000000 		.4byte	.LFE32-.LFB32
 5796 1ada 01       		.uleb128 0x1
 5797 1adb 9C       		.byte	0x9c
 5798 1adc FD1A0000 		.4byte	0x1afd
 5799 1ae0 26       		.uleb128 0x26
 5800 1ae1 13020000 		.4byte	.LASF336
 5801 1ae5 01       		.byte	0x1
 5802 1ae6 84       		.byte	0x84
 5803 1ae7 22120000 		.4byte	0x1222
 5804 1aeb 02       		.uleb128 0x2
 5805 1aec 91       		.byte	0x91
 5806 1aed 74       		.sleb128 -12
 5807 1aee 27       		.uleb128 0x27
 5808 1aef 66697400 		.ascii	"fit\000"
 5809 1af3 01       		.byte	0x1
 5810 1af4 84       		.byte	0x84
 5811 1af5 86100000 		.4byte	0x1086
 5812 1af9 02       		.uleb128 0x2
 5813 1afa 91       		.byte	0x91
 5814 1afb 73       		.sleb128 -13
 5815 1afc 00       		.byte	0
 5816 1afd 25       		.uleb128 0x25
 5817 1afe 15040000 		.4byte	.LASF356
 5818 1b02 02       		.byte	0x2
 5819 1b03 C7       		.byte	0xc7
 5820 1b04 00000000 		.4byte	.LFB37
 5821 1b08 26000000 		.4byte	.LFE37-.LFB37
 5822 1b0c 01       		.uleb128 0x1
 5823 1b0d 9C       		.byte	0x9c
 5824 1b0e 2F1B0000 		.4byte	0x1b2f
 5825 1b12 26       		.uleb128 0x26
 5826 1b13 830A0000 		.4byte	.LASF301
 5827 1b17 02       		.byte	0x2
 5828 1b18 C7       		.byte	0xc7
 5829 1b19 22120000 		.4byte	0x1222
 5830 1b1d 02       		.uleb128 0x2
ARM GAS  C:\Users\tmj32\AppData\Local\Temp\cctNeIsL.s 			page 120


 5831 1b1e 91       		.byte	0x91
 5832 1b1f 74       		.sleb128 -12
 5833 1b20 27       		.uleb128 0x27
 5834 1b21 66697400 		.ascii	"fit\000"
 5835 1b25 02       		.byte	0x2
 5836 1b26 C7       		.byte	0xc7
 5837 1b27 86100000 		.4byte	0x1086
 5838 1b2b 02       		.uleb128 0x2
 5839 1b2c 91       		.byte	0x91
 5840 1b2d 73       		.sleb128 -13
 5841 1b2e 00       		.byte	0
 5842 1b2f 28       		.uleb128 0x28
 5843 1b30 8F0B0000 		.4byte	.LASF372
 5844 1b34 03       		.byte	0x3
 5845 1b35 41       		.byte	0x41
 5846 1b36 22120000 		.4byte	0x1222
 5847 1b3a 00000000 		.4byte	.LFB52
 5848 1b3e DC010000 		.4byte	.LFE52-.LFB52
 5849 1b42 01       		.uleb128 0x1
 5850 1b43 9C       		.byte	0x9c
 5851 1b44 CC1B0000 		.4byte	0x1bcc
 5852 1b48 27       		.uleb128 0x27
 5853 1b49 70617200 		.ascii	"par\000"
 5854 1b4d 03       		.byte	0x3
 5855 1b4e 41       		.byte	0x41
 5856 1b4f 22120000 		.4byte	0x1222
 5857 1b53 02       		.uleb128 0x2
 5858 1b54 91       		.byte	0x91
 5859 1b55 5C       		.sleb128 -36
 5860 1b56 26       		.uleb128 0x26
 5861 1b57 F3020000 		.4byte	.LASF357
 5862 1b5b 03       		.byte	0x3
 5863 1b5c 41       		.byte	0x41
 5864 1b5d CC1B0000 		.4byte	0x1bcc
 5865 1b61 02       		.uleb128 0x2
 5866 1b62 91       		.byte	0x91
 5867 1b63 58       		.sleb128 -40
 5868 1b64 29       		.uleb128 0x29
 5869 1b65 250E0000 		.4byte	.LASF358
 5870 1b69 03       		.byte	0x3
 5871 1b6a 46       		.byte	0x46
 5872 1b6b 22120000 		.4byte	0x1222
 5873 1b6f 02       		.uleb128 0x2
 5874 1b70 91       		.byte	0x91
 5875 1b71 70       		.sleb128 -16
 5876 1b72 2A       		.uleb128 0x2a
 5877 1b73 65787400 		.ascii	"ext\000"
 5878 1b77 03       		.byte	0x3
 5879 1b78 4B       		.byte	0x4b
 5880 1b79 D71B0000 		.4byte	0x1bd7
 5881 1b7d 02       		.uleb128 0x2
 5882 1b7e 91       		.byte	0x91
 5883 1b7f 6C       		.sleb128 -20
 5884 1b80 2B       		.uleb128 0x2b
 5885 1b81 B4000000 		.4byte	.LBB2
 5886 1b85 C8000000 		.4byte	.LBE2-.LBB2
 5887 1b89 B31B0000 		.4byte	0x1bb3
ARM GAS  C:\Users\tmj32\AppData\Local\Temp\cctNeIsL.s 			page 121


 5888 1b8d 2A       		.uleb128 0x2a
 5889 1b8e 7700     		.ascii	"w\000"
 5890 1b90 03       		.byte	0x3
 5891 1b91 64       		.byte	0x64
 5892 1b92 EF000000 		.4byte	0xef
 5893 1b96 02       		.uleb128 0x2
 5894 1b97 91       		.byte	0x91
 5895 1b98 76       		.sleb128 -10
 5896 1b99 2A       		.uleb128 0x2a
 5897 1b9a 6800     		.ascii	"h\000"
 5898 1b9c 03       		.byte	0x3
 5899 1b9d 65       		.byte	0x65
 5900 1b9e EF000000 		.4byte	0xef
 5901 1ba2 02       		.uleb128 0x2
 5902 1ba3 91       		.byte	0x91
 5903 1ba4 74       		.sleb128 -12
 5904 1ba5 2A       		.uleb128 0x2a
 5905 1ba6 746800   		.ascii	"th\000"
 5906 1ba9 03       		.byte	0x3
 5907 1baa 74       		.byte	0x74
 5908 1bab DD1B0000 		.4byte	0x1bdd
 5909 1baf 02       		.uleb128 0x2
 5910 1bb0 91       		.byte	0x91
 5911 1bb1 68       		.sleb128 -24
 5912 1bb2 00       		.byte	0
 5913 1bb3 2C       		.uleb128 0x2c
 5914 1bb4 7C010000 		.4byte	.LBB3
 5915 1bb8 3A000000 		.4byte	.LBE3-.LBB3
 5916 1bbc 29       		.uleb128 0x29
 5917 1bbd 5C100000 		.4byte	.LASF359
 5918 1bc1 03       		.byte	0x3
 5919 1bc2 80       		.byte	0x80
 5920 1bc3 D71B0000 		.4byte	0x1bd7
 5921 1bc7 02       		.uleb128 0x2
 5922 1bc8 91       		.byte	0x91
 5923 1bc9 64       		.sleb128 -28
 5924 1bca 00       		.byte	0
 5925 1bcb 00       		.byte	0
 5926 1bcc 0D       		.uleb128 0xd
 5927 1bcd 04       		.byte	0x4
 5928 1bce D21B0000 		.4byte	0x1bd2
 5929 1bd2 0E       		.uleb128 0xe
 5930 1bd3 50100000 		.4byte	0x1050
 5931 1bd7 0D       		.uleb128 0xd
 5932 1bd8 04       		.byte	0x4
 5933 1bd9 F7120000 		.4byte	0x12f7
 5934 1bdd 0D       		.uleb128 0xd
 5935 1bde 04       		.byte	0x4
 5936 1bdf BF1A0000 		.4byte	0x1abf
 5937 1be3 2D       		.uleb128 0x2d
 5938 1be4 18020000 		.4byte	.LASF361
 5939 1be8 03       		.byte	0x3
 5940 1be9 9B       		.byte	0x9b
 5941 1bea 00000000 		.4byte	.LFB53
 5942 1bee 44000000 		.4byte	.LFE53-.LFB53
 5943 1bf2 01       		.uleb128 0x1
 5944 1bf3 9C       		.byte	0x9c
ARM GAS  C:\Users\tmj32\AppData\Local\Temp\cctNeIsL.s 			page 122


 5945 1bf4 231C0000 		.4byte	0x1c23
 5946 1bf8 26       		.uleb128 0x26
 5947 1bf9 EA020000 		.4byte	.LASF352
 5948 1bfd 03       		.byte	0x3
 5949 1bfe 9B       		.byte	0x9b
 5950 1bff 22120000 		.4byte	0x1222
 5951 1c03 02       		.uleb128 0x2
 5952 1c04 91       		.byte	0x91
 5953 1c05 6C       		.sleb128 -20
 5954 1c06 26       		.uleb128 0x26
 5955 1c07 F00B0000 		.4byte	.LASF360
 5956 1c0b 03       		.byte	0x3
 5957 1c0c 9B       		.byte	0x9b
 5958 1c0d 22120000 		.4byte	0x1222
 5959 1c11 02       		.uleb128 0x2
 5960 1c12 91       		.byte	0x91
 5961 1c13 68       		.sleb128 -24
 5962 1c14 2A       		.uleb128 0x2a
 5963 1c15 65787400 		.ascii	"ext\000"
 5964 1c19 03       		.byte	0x3
 5965 1c1a A8       		.byte	0xa8
 5966 1c1b D71B0000 		.4byte	0x1bd7
 5967 1c1f 02       		.uleb128 0x2
 5968 1c20 91       		.byte	0x91
 5969 1c21 74       		.sleb128 -12
 5970 1c22 00       		.byte	0
 5971 1c23 2D       		.uleb128 0x2d
 5972 1c24 DB070000 		.4byte	.LASF362
 5973 1c28 03       		.byte	0x3
 5974 1c29 B7       		.byte	0xb7
 5975 1c2a 00000000 		.4byte	.LFB54
 5976 1c2e 86000000 		.4byte	.LFE54-.LFB54
 5977 1c32 01       		.uleb128 0x1
 5978 1c33 9C       		.byte	0x9c
 5979 1c34 7D1C0000 		.4byte	0x1c7d
 5980 1c38 26       		.uleb128 0x26
 5981 1c39 EA020000 		.4byte	.LASF352
 5982 1c3d 03       		.byte	0x3
 5983 1c3e B7       		.byte	0xb7
 5984 1c3f 22120000 		.4byte	0x1222
 5985 1c43 02       		.uleb128 0x2
 5986 1c44 91       		.byte	0x91
 5987 1c45 6C       		.sleb128 -20
 5988 1c46 26       		.uleb128 0x26
 5989 1c47 B30E0000 		.4byte	.LASF302
 5990 1c4b 03       		.byte	0x3
 5991 1c4c B7       		.byte	0xb7
 5992 1c4d 0C0E0000 		.4byte	0xe0c
 5993 1c51 02       		.uleb128 0x2
 5994 1c52 91       		.byte	0x91
 5995 1c53 68       		.sleb128 -24
 5996 1c54 26       		.uleb128 0x26
 5997 1c55 41020000 		.4byte	.LASF303
 5998 1c59 03       		.byte	0x3
 5999 1c5a B7       		.byte	0xb7
 6000 1c5b CE000000 		.4byte	0xce
 6001 1c5f 02       		.uleb128 0x2
ARM GAS  C:\Users\tmj32\AppData\Local\Temp\cctNeIsL.s 			page 123


 6002 1c60 91       		.byte	0x91
 6003 1c61 66       		.sleb128 -26
 6004 1c62 2A       		.uleb128 0x2a
 6005 1c63 65787400 		.ascii	"ext\000"
 6006 1c67 03       		.byte	0x3
 6007 1c68 BC       		.byte	0xbc
 6008 1c69 D71B0000 		.4byte	0x1bd7
 6009 1c6d 02       		.uleb128 0x2
 6010 1c6e 91       		.byte	0x91
 6011 1c6f 70       		.sleb128 -16
 6012 1c70 2A       		.uleb128 0x2a
 6013 1c71 6900     		.ascii	"i\000"
 6014 1c73 03       		.byte	0x3
 6015 1c74 C1       		.byte	0xc1
 6016 1c75 CE000000 		.4byte	0xce
 6017 1c79 02       		.uleb128 0x2
 6018 1c7a 91       		.byte	0x91
 6019 1c7b 76       		.sleb128 -10
 6020 1c7c 00       		.byte	0
 6021 1c7d 2D       		.uleb128 0x2d
 6022 1c7e 29110000 		.4byte	.LASF363
 6023 1c82 03       		.byte	0x3
 6024 1c83 D5       		.byte	0xd5
 6025 1c84 00000000 		.4byte	.LFB55
 6026 1c88 B4010000 		.4byte	.LFE55-.LFB55
 6027 1c8c 01       		.uleb128 0x1
 6028 1c8d 9C       		.byte	0x9c
 6029 1c8e 611D0000 		.4byte	0x1d61
 6030 1c92 26       		.uleb128 0x26
 6031 1c93 EA020000 		.4byte	.LASF352
 6032 1c97 03       		.byte	0x3
 6033 1c98 D5       		.byte	0xd5
 6034 1c99 22120000 		.4byte	0x1222
 6035 1c9d 03       		.uleb128 0x3
 6036 1c9e 91       		.byte	0x91
 6037 1c9f AC7F     		.sleb128 -84
 6038 1ca1 27       		.uleb128 0x27
 6039 1ca2 7800     		.ascii	"x\000"
 6040 1ca4 03       		.byte	0x3
 6041 1ca5 D5       		.byte	0xd5
 6042 1ca6 EF000000 		.4byte	0xef
 6043 1caa 03       		.uleb128 0x3
 6044 1cab 91       		.byte	0x91
 6045 1cac AA7F     		.sleb128 -86
 6046 1cae 27       		.uleb128 0x27
 6047 1caf 7900     		.ascii	"y\000"
 6048 1cb1 03       		.byte	0x3
 6049 1cb2 D5       		.byte	0xd5
 6050 1cb3 EF000000 		.4byte	0xef
 6051 1cb7 03       		.uleb128 0x3
 6052 1cb8 91       		.byte	0x91
 6053 1cb9 A87F     		.sleb128 -88
 6054 1cbb 26       		.uleb128 0x26
 6055 1cbc DD0C0000 		.4byte	.LASF364
 6056 1cc0 03       		.byte	0x3
 6057 1cc1 D5       		.byte	0xd5
 6058 1cc2 2C030000 		.4byte	0x32c
ARM GAS  C:\Users\tmj32\AppData\Local\Temp\cctNeIsL.s 			page 124


 6059 1cc6 03       		.uleb128 0x3
 6060 1cc7 91       		.byte	0x91
 6061 1cc8 A77F     		.sleb128 -89
 6062 1cca 2A       		.uleb128 0x2a
 6063 1ccb 65787400 		.ascii	"ext\000"
 6064 1ccf 03       		.byte	0x3
 6065 1cd0 DD       		.byte	0xdd
 6066 1cd1 D71B0000 		.4byte	0x1bd7
 6067 1cd5 02       		.uleb128 0x2
 6068 1cd6 91       		.byte	0x91
 6069 1cd7 68       		.sleb128 -24
 6070 1cd8 29       		.uleb128 0x29
 6071 1cd9 78010000 		.4byte	.LASF365
 6072 1cdd 03       		.byte	0x3
 6073 1cde DF       		.byte	0xdf
 6074 1cdf E4000000 		.4byte	0xe4
 6075 1ce3 02       		.uleb128 0x2
 6076 1ce4 91       		.byte	0x91
 6077 1ce5 54       		.sleb128 -44
 6078 1ce6 29       		.uleb128 0x29
 6079 1ce7 EE0F0000 		.4byte	.LASF366
 6080 1ceb 03       		.byte	0x3
 6081 1cec E0       		.byte	0xe0
 6082 1ced D5010000 		.4byte	0x1d5
 6083 1cf1 02       		.uleb128 0x2
 6084 1cf2 91       		.byte	0x91
 6085 1cf3 6F       		.sleb128 -17
 6086 1cf4 29       		.uleb128 0x29
 6087 1cf5 930F0000 		.4byte	.LASF367
 6088 1cf9 03       		.byte	0x3
 6089 1cfa ED       		.byte	0xed
 6090 1cfb EF000000 		.4byte	0xef
 6091 1cff 02       		.uleb128 0x2
 6092 1d00 91       		.byte	0x91
 6093 1d01 66       		.sleb128 -26
 6094 1d02 29       		.uleb128 0x29
 6095 1d03 E2020000 		.4byte	.LASF368
 6096 1d07 03       		.byte	0x3
 6097 1d08 EE       		.byte	0xee
 6098 1d09 EF000000 		.4byte	0xef
 6099 1d0d 02       		.uleb128 0x2
 6100 1d0e 91       		.byte	0x91
 6101 1d0f 64       		.sleb128 -28
 6102 1d10 29       		.uleb128 0x29
 6103 1d11 92030000 		.4byte	.LASF291
 6104 1d15 03       		.byte	0x3
 6105 1d16 EF       		.byte	0xef
 6106 1d17 22120000 		.4byte	0x1222
 6107 1d1b 02       		.uleb128 0x2
 6108 1d1c 91       		.byte	0x91
 6109 1d1d 60       		.sleb128 -32
 6110 1d1e 2E       		.uleb128 0x2e
 6111 1d1f 72657300 		.ascii	"res\000"
 6112 1d23 03       		.byte	0x3
 6113 1d24 1201     		.2byte	0x112
 6114 1d26 D1060000 		.4byte	0x6d1
 6115 1d2a 02       		.uleb128 0x2
ARM GAS  C:\Users\tmj32\AppData\Local\Temp\cctNeIsL.s 			page 125


 6116 1d2b 91       		.byte	0x91
 6117 1d2c 5B       		.sleb128 -37
 6118 1d2d 2C       		.uleb128 0x2c
 6119 1d2e D6000000 		.4byte	.LBB4
 6120 1d32 98000000 		.4byte	.LBE4-.LBB4
 6121 1d36 29       		.uleb128 0x29
 6122 1d37 8F020000 		.4byte	.LASF369
 6123 1d3b 03       		.byte	0x3
 6124 1d3c F2       		.byte	0xf2
 6125 1d3d EF000000 		.4byte	0xef
 6126 1d41 02       		.uleb128 0x2
 6127 1d42 91       		.byte	0x91
 6128 1d43 5E       		.sleb128 -34
 6129 1d44 29       		.uleb128 0x29
 6130 1d45 8D120000 		.4byte	.LASF370
 6131 1d49 03       		.byte	0x3
 6132 1d4a F3       		.byte	0xf3
 6133 1d4b EF000000 		.4byte	0xef
 6134 1d4f 02       		.uleb128 0x2
 6135 1d50 91       		.byte	0x91
 6136 1d51 5C       		.sleb128 -36
 6137 1d52 2A       		.uleb128 0x2a
 6138 1d53 6100     		.ascii	"a\000"
 6139 1d55 03       		.byte	0x3
 6140 1d56 F5       		.byte	0xf5
 6141 1d57 71040000 		.4byte	0x471
 6142 1d5b 03       		.uleb128 0x3
 6143 1d5c 91       		.byte	0x91
 6144 1d5d B07F     		.sleb128 -80
 6145 1d5f 00       		.byte	0
 6146 1d60 00       		.byte	0
 6147 1d61 2F       		.uleb128 0x2f
 6148 1d62 6D020000 		.4byte	.LASF371
 6149 1d66 03       		.byte	0x3
 6150 1d67 1D01     		.2byte	0x11d
 6151 1d69 00000000 		.4byte	.LFB56
 6152 1d6d 28000000 		.4byte	.LFE56-.LFB56
 6153 1d71 01       		.uleb128 0x1
 6154 1d72 9C       		.byte	0x9c
 6155 1d73 A51D0000 		.4byte	0x1da5
 6156 1d77 30       		.uleb128 0x30
 6157 1d78 EA020000 		.4byte	.LASF352
 6158 1d7c 03       		.byte	0x3
 6159 1d7d 1D01     		.2byte	0x11d
 6160 1d7f 22120000 		.4byte	0x1222
 6161 1d83 02       		.uleb128 0x2
 6162 1d84 91       		.byte	0x91
 6163 1d85 74       		.sleb128 -12
 6164 1d86 30       		.uleb128 0x30
 6165 1d87 BF010000 		.4byte	.LASF74
 6166 1d8b 03       		.byte	0x3
 6167 1d8c 1D01     		.2byte	0x11d
 6168 1d8e 15130000 		.4byte	0x1315
 6169 1d92 02       		.uleb128 0x2
 6170 1d93 91       		.byte	0x91
 6171 1d94 73       		.sleb128 -13
 6172 1d95 30       		.uleb128 0x30
ARM GAS  C:\Users\tmj32\AppData\Local\Temp\cctNeIsL.s 			page 126


 6173 1d96 080B0000 		.4byte	.LASF280
 6174 1d9a 03       		.byte	0x3
 6175 1d9b 1D01     		.2byte	0x11d
 6176 1d9d 45100000 		.4byte	0x1045
 6177 1da1 02       		.uleb128 0x2
 6178 1da2 91       		.byte	0x91
 6179 1da3 6C       		.sleb128 -20
 6180 1da4 00       		.byte	0
 6181 1da5 31       		.uleb128 0x31
 6182 1da6 AF070000 		.4byte	.LASF373
 6183 1daa 03       		.byte	0x3
 6184 1dab 3401     		.2byte	0x134
 6185 1dad 45100000 		.4byte	0x1045
 6186 1db1 00000000 		.4byte	.LFB57
 6187 1db5 2E000000 		.4byte	.LFE57-.LFB57
 6188 1db9 01       		.uleb128 0x1
 6189 1dba 9C       		.byte	0x9c
 6190 1dbb ED1D0000 		.4byte	0x1ded
 6191 1dbf 30       		.uleb128 0x30
 6192 1dc0 EA020000 		.4byte	.LASF352
 6193 1dc4 03       		.byte	0x3
 6194 1dc5 3401     		.2byte	0x134
 6195 1dc7 CC1B0000 		.4byte	0x1bcc
 6196 1dcb 02       		.uleb128 0x2
 6197 1dcc 91       		.byte	0x91
 6198 1dcd 6C       		.sleb128 -20
 6199 1dce 30       		.uleb128 0x30
 6200 1dcf BF010000 		.4byte	.LASF74
 6201 1dd3 03       		.byte	0x3
 6202 1dd4 3401     		.2byte	0x134
 6203 1dd6 15130000 		.4byte	0x1315
 6204 1dda 02       		.uleb128 0x2
 6205 1ddb 91       		.byte	0x91
 6206 1ddc 6B       		.sleb128 -21
 6207 1ddd 32       		.uleb128 0x32
 6208 1dde 080B0000 		.4byte	.LASF280
 6209 1de2 03       		.byte	0x3
 6210 1de3 3801     		.2byte	0x138
 6211 1de5 45100000 		.4byte	0x1045
 6212 1de9 02       		.uleb128 0x2
 6213 1dea 91       		.byte	0x91
 6214 1deb 74       		.sleb128 -12
 6215 1dec 00       		.byte	0
 6216 1ded 33       		.uleb128 0x33
 6217 1dee 6D090000 		.4byte	.LASF376
 6218 1df2 03       		.byte	0x3
 6219 1df3 5401     		.2byte	0x154
 6220 1df5 D1060000 		.4byte	0x6d1
 6221 1df9 00000000 		.4byte	.LFB58
 6222 1dfd 4C000000 		.4byte	.LFE58-.LFB58
 6223 1e01 01       		.uleb128 0x1
 6224 1e02 9C       		.byte	0x9c
 6225 1e03 441E0000 		.4byte	0x1e44
 6226 1e07 30       		.uleb128 0x30
 6227 1e08 EA020000 		.4byte	.LASF352
 6228 1e0c 03       		.byte	0x3
 6229 1e0d 5401     		.2byte	0x154
ARM GAS  C:\Users\tmj32\AppData\Local\Temp\cctNeIsL.s 			page 127


 6230 1e0f 22120000 		.4byte	0x1222
 6231 1e13 02       		.uleb128 0x2
 6232 1e14 91       		.byte	0x91
 6233 1e15 6C       		.sleb128 -20
 6234 1e16 30       		.uleb128 0x30
 6235 1e17 68010000 		.4byte	.LASF374
 6236 1e1b 03       		.byte	0x3
 6237 1e1c 5401     		.2byte	0x154
 6238 1e1e 8D0F0000 		.4byte	0xf8d
 6239 1e22 02       		.uleb128 0x2
 6240 1e23 91       		.byte	0x91
 6241 1e24 6B       		.sleb128 -21
 6242 1e25 30       		.uleb128 0x30
 6243 1e26 08070000 		.4byte	.LASF375
 6244 1e2a 03       		.byte	0x3
 6245 1e2b 5401     		.2byte	0x154
 6246 1e2d FA000000 		.4byte	0xfa
 6247 1e31 02       		.uleb128 0x2
 6248 1e32 91       		.byte	0x91
 6249 1e33 64       		.sleb128 -28
 6250 1e34 2E       		.uleb128 0x2e
 6251 1e35 72657300 		.ascii	"res\000"
 6252 1e39 03       		.byte	0x3
 6253 1e3a 5601     		.2byte	0x156
 6254 1e3c D1060000 		.4byte	0x6d1
 6255 1e40 02       		.uleb128 0x2
 6256 1e41 91       		.byte	0x91
 6257 1e42 77       		.sleb128 -9
 6258 1e43 00       		.byte	0
 6259 1e44 33       		.uleb128 0x33
 6260 1e45 B0110000 		.4byte	.LASF377
 6261 1e49 03       		.byte	0x3
 6262 1e4a 6B01     		.2byte	0x16b
 6263 1e4c D1060000 		.4byte	0x6d1
 6264 1e50 00000000 		.4byte	.LFB59
 6265 1e54 6C050000 		.4byte	.LFE59-.LFB59
 6266 1e58 01       		.uleb128 0x1
 6267 1e59 9C       		.byte	0x9c
 6268 1e5a 1F1F0000 		.4byte	0x1f1f
 6269 1e5e 30       		.uleb128 0x30
 6270 1e5f 92030000 		.4byte	.LASF291
 6271 1e63 03       		.byte	0x3
 6272 1e64 6B01     		.2byte	0x16b
 6273 1e66 22120000 		.4byte	0x1222
 6274 1e6a 02       		.uleb128 0x2
 6275 1e6b 91       		.byte	0x91
 6276 1e6c 4C       		.sleb128 -52
 6277 1e6d 30       		.uleb128 0x30
 6278 1e6e 68010000 		.4byte	.LASF374
 6279 1e72 03       		.byte	0x3
 6280 1e73 6B01     		.2byte	0x16b
 6281 1e75 8D0F0000 		.4byte	0xf8d
 6282 1e79 02       		.uleb128 0x2
 6283 1e7a 91       		.byte	0x91
 6284 1e7b 4B       		.sleb128 -53
 6285 1e7c 30       		.uleb128 0x30
 6286 1e7d 08070000 		.4byte	.LASF375
ARM GAS  C:\Users\tmj32\AppData\Local\Temp\cctNeIsL.s 			page 128


 6287 1e81 03       		.byte	0x3
 6288 1e82 6B01     		.2byte	0x16b
 6289 1e84 FA000000 		.4byte	0xfa
 6290 1e88 02       		.uleb128 0x2
 6291 1e89 91       		.byte	0x91
 6292 1e8a 44       		.sleb128 -60
 6293 1e8b 2E       		.uleb128 0x2e
 6294 1e8c 72657300 		.ascii	"res\000"
 6295 1e90 03       		.byte	0x3
 6296 1e91 6E01     		.2byte	0x16e
 6297 1e93 D1060000 		.4byte	0x6d1
 6298 1e97 02       		.uleb128 0x2
 6299 1e98 91       		.byte	0x91
 6300 1e99 6F       		.sleb128 -17
 6301 1e9a 32       		.uleb128 0x32
 6302 1e9b EA020000 		.4byte	.LASF352
 6303 1e9f 03       		.byte	0x3
 6304 1ea0 7501     		.2byte	0x175
 6305 1ea2 22120000 		.4byte	0x1222
 6306 1ea6 02       		.uleb128 0x2
 6307 1ea7 91       		.byte	0x91
 6308 1ea8 68       		.sleb128 -24
 6309 1ea9 32       		.uleb128 0x32
 6310 1eaa F8090000 		.4byte	.LASF378
 6311 1eae 03       		.byte	0x3
 6312 1eaf 7601     		.2byte	0x176
 6313 1eb1 45100000 		.4byte	0x1045
 6314 1eb5 02       		.uleb128 0x2
 6315 1eb6 91       		.byte	0x91
 6316 1eb7 64       		.sleb128 -28
 6317 1eb8 2C       		.uleb128 0x2c
 6318 1eb9 62000000 		.4byte	.LBB5
 6319 1ebd FE040000 		.4byte	.LBE5-.LBB5
 6320 1ec1 32       		.uleb128 0x32
 6321 1ec2 8D0F0000 		.4byte	.LASF379
 6322 1ec6 03       		.byte	0x3
 6323 1ec7 7A01     		.2byte	0x17a
 6324 1ec9 1F1F0000 		.4byte	0x1f1f
 6325 1ecd 02       		.uleb128 0x2
 6326 1ece 91       		.byte	0x91
 6327 1ecf 60       		.sleb128 -32
 6328 1ed0 2C       		.uleb128 0x2c
 6329 1ed1 70000000 		.4byte	.LBB6
 6330 1ed5 F0040000 		.4byte	.LBE6-.LBB6
 6331 1ed9 2E       		.uleb128 0x2e
 6332 1eda 65787400 		.ascii	"ext\000"
 6333 1ede 03       		.byte	0x3
 6334 1edf 7C01     		.2byte	0x17c
 6335 1ee1 D71B0000 		.4byte	0x1bd7
 6336 1ee5 02       		.uleb128 0x2
 6337 1ee6 91       		.byte	0x91
 6338 1ee7 5C       		.sleb128 -36
 6339 1ee8 2E       		.uleb128 0x2e
 6340 1ee9 7800     		.ascii	"x\000"
 6341 1eeb 03       		.byte	0x3
 6342 1eec 9901     		.2byte	0x199
 6343 1eee EF000000 		.4byte	0xef
ARM GAS  C:\Users\tmj32\AppData\Local\Temp\cctNeIsL.s 			page 129


 6344 1ef2 02       		.uleb128 0x2
 6345 1ef3 91       		.byte	0x91
 6346 1ef4 5A       		.sleb128 -38
 6347 1ef5 2E       		.uleb128 0x2e
 6348 1ef6 7900     		.ascii	"y\000"
 6349 1ef8 03       		.byte	0x3
 6350 1ef9 9A01     		.2byte	0x19a
 6351 1efb EF000000 		.4byte	0xef
 6352 1eff 02       		.uleb128 0x2
 6353 1f00 91       		.byte	0x91
 6354 1f01 58       		.sleb128 -40
 6355 1f02 2E       		.uleb128 0x2e
 6356 1f03 6800     		.ascii	"h\000"
 6357 1f05 03       		.byte	0x3
 6358 1f06 9B01     		.2byte	0x19b
 6359 1f08 EF000000 		.4byte	0xef
 6360 1f0c 02       		.uleb128 0x2
 6361 1f0d 91       		.byte	0x91
 6362 1f0e 56       		.sleb128 -42
 6363 1f0f 2E       		.uleb128 0x2e
 6364 1f10 7700     		.ascii	"w\000"
 6365 1f12 03       		.byte	0x3
 6366 1f13 9C01     		.2byte	0x19c
 6367 1f15 EF000000 		.4byte	0xef
 6368 1f19 02       		.uleb128 0x2
 6369 1f1a 91       		.byte	0x91
 6370 1f1b 54       		.sleb128 -44
 6371 1f1c 00       		.byte	0
 6372 1f1d 00       		.byte	0
 6373 1f1e 00       		.byte	0
 6374 1f1f 0D       		.uleb128 0xd
 6375 1f20 04       		.byte	0x4
 6376 1f21 170E0000 		.4byte	0xe17
 6377 1f25 34       		.uleb128 0x34
 6378 1f26 0E070000 		.4byte	.LASF380
 6379 1f2a 03       		.byte	0x3
 6380 1f2b E001     		.2byte	0x1e0
 6381 1f2d 00000000 		.4byte	.LFB60
 6382 1f31 A8000000 		.4byte	.LFE60-.LFB60
 6383 1f35 01       		.uleb128 0x1
 6384 1f36 9C       		.byte	0x9c
 6385 1f37 AE1F0000 		.4byte	0x1fae
 6386 1f3b 30       		.uleb128 0x30
 6387 1f3c 92030000 		.4byte	.LASF291
 6388 1f40 03       		.byte	0x3
 6389 1f41 E001     		.2byte	0x1e0
 6390 1f43 22120000 		.4byte	0x1222
 6391 1f47 02       		.uleb128 0x2
 6392 1f48 91       		.byte	0x91
 6393 1f49 64       		.sleb128 -28
 6394 1f4a 30       		.uleb128 0x30
 6395 1f4b 86090000 		.4byte	.LASF381
 6396 1f4f 03       		.byte	0x3
 6397 1f50 E001     		.2byte	0x1e0
 6398 1f52 DC0E0000 		.4byte	0xedc
 6399 1f56 02       		.uleb128 0x2
 6400 1f57 91       		.byte	0x91
ARM GAS  C:\Users\tmj32\AppData\Local\Temp\cctNeIsL.s 			page 130


 6401 1f58 63       		.sleb128 -29
 6402 1f59 32       		.uleb128 0x32
 6403 1f5a EA020000 		.4byte	.LASF352
 6404 1f5e 03       		.byte	0x3
 6405 1f5f E201     		.2byte	0x1e2
 6406 1f61 22120000 		.4byte	0x1222
 6407 1f65 02       		.uleb128 0x2
 6408 1f66 91       		.byte	0x91
 6409 1f67 74       		.sleb128 -12
 6410 1f68 2B       		.uleb128 0x2b
 6411 1f69 1A000000 		.4byte	.LBB7
 6412 1f6d 2A000000 		.4byte	.LBE7-.LBB7
 6413 1f71 851F0000 		.4byte	0x1f85
 6414 1f75 2E       		.uleb128 0x2e
 6415 1f76 65787400 		.ascii	"ext\000"
 6416 1f7a 03       		.byte	0x3
 6417 1f7b E601     		.2byte	0x1e6
 6418 1f7d D71B0000 		.4byte	0x1bd7
 6419 1f81 02       		.uleb128 0x2
 6420 1f82 91       		.byte	0x91
 6421 1f83 70       		.sleb128 -16
 6422 1f84 00       		.byte	0
 6423 1f85 2C       		.uleb128 0x2c
 6424 1f86 52000000 		.4byte	.LBB8
 6425 1f8a 4E000000 		.4byte	.LBE8-.LBB8
 6426 1f8e 32       		.uleb128 0x32
 6427 1f8f 8D0F0000 		.4byte	.LASF379
 6428 1f93 03       		.byte	0x3
 6429 1f94 EF01     		.2byte	0x1ef
 6430 1f96 1F1F0000 		.4byte	0x1f1f
 6431 1f9a 02       		.uleb128 0x2
 6432 1f9b 91       		.byte	0x91
 6433 1f9c 6C       		.sleb128 -20
 6434 1f9d 2E       		.uleb128 0x2e
 6435 1f9e 65787400 		.ascii	"ext\000"
 6436 1fa2 03       		.byte	0x3
 6437 1fa3 F001     		.2byte	0x1f0
 6438 1fa5 D71B0000 		.4byte	0x1bd7
 6439 1fa9 02       		.uleb128 0x2
 6440 1faa 91       		.byte	0x91
 6441 1fab 68       		.sleb128 -24
 6442 1fac 00       		.byte	0
 6443 1fad 00       		.byte	0
 6444 1fae 34       		.uleb128 0x34
 6445 1faf 28090000 		.4byte	.LASF382
 6446 1fb3 03       		.byte	0x3
 6447 1fb4 FD01     		.2byte	0x1fd
 6448 1fb6 00000000 		.4byte	.LFB61
 6449 1fba FC010000 		.4byte	.LFE61-.LFB61
 6450 1fbe 01       		.uleb128 0x1
 6451 1fbf 9C       		.byte	0x9c
 6452 1fc0 8F200000 		.4byte	0x208f
 6453 1fc4 30       		.uleb128 0x30
 6454 1fc5 EA020000 		.4byte	.LASF352
 6455 1fc9 03       		.byte	0x3
 6456 1fca FD01     		.2byte	0x1fd
 6457 1fcc 22120000 		.4byte	0x1222
ARM GAS  C:\Users\tmj32\AppData\Local\Temp\cctNeIsL.s 			page 131


 6458 1fd0 02       		.uleb128 0x2
 6459 1fd1 91       		.byte	0x91
 6460 1fd2 44       		.sleb128 -60
 6461 1fd3 2E       		.uleb128 0x2e
 6462 1fd4 65787400 		.ascii	"ext\000"
 6463 1fd8 03       		.byte	0x3
 6464 1fd9 FF01     		.2byte	0x1ff
 6465 1fdb D71B0000 		.4byte	0x1bd7
 6466 1fdf 02       		.uleb128 0x2
 6467 1fe0 91       		.byte	0x91
 6468 1fe1 64       		.sleb128 -28
 6469 1fe2 32       		.uleb128 0x32
 6470 1fe3 8D0F0000 		.4byte	.LASF379
 6471 1fe7 03       		.byte	0x3
 6472 1fe8 0002     		.2byte	0x200
 6473 1fea 1F1F0000 		.4byte	0x1f1f
 6474 1fee 02       		.uleb128 0x2
 6475 1fef 91       		.byte	0x91
 6476 1ff0 60       		.sleb128 -32
 6477 1ff1 32       		.uleb128 0x32
 6478 1ff2 01060000 		.4byte	.LASF383
 6479 1ff6 03       		.byte	0x3
 6480 1ff7 0102     		.2byte	0x201
 6481 1ff9 C8020000 		.4byte	0x2c8
 6482 1ffd 02       		.uleb128 0x2
 6483 1ffe 91       		.byte	0x91
 6484 1fff 58       		.sleb128 -40
 6485 2000 32       		.uleb128 0x32
 6486 2001 92030000 		.4byte	.LASF291
 6487 2005 03       		.byte	0x3
 6488 2006 0302     		.2byte	0x203
 6489 2008 22120000 		.4byte	0x1222
 6490 200c 02       		.uleb128 0x2
 6491 200d 91       		.byte	0x91
 6492 200e 5C       		.sleb128 -36
 6493 200f 2E       		.uleb128 0x2e
 6494 2010 7000     		.ascii	"p\000"
 6495 2012 03       		.byte	0x3
 6496 2013 0402     		.2byte	0x204
 6497 2015 C8020000 		.4byte	0x2c8
 6498 2019 02       		.uleb128 0x2
 6499 201a 91       		.byte	0x91
 6500 201b 54       		.sleb128 -44
 6501 201c 32       		.uleb128 0x32
 6502 201d DA010000 		.4byte	.LASF384
 6503 2021 03       		.byte	0x3
 6504 2022 2702     		.2byte	0x227
 6505 2024 EF000000 		.4byte	0xef
 6506 2028 02       		.uleb128 0x2
 6507 2029 91       		.byte	0x91
 6508 202a 6A       		.sleb128 -22
 6509 202b 32       		.uleb128 0x32
 6510 202c ED010000 		.4byte	.LASF385
 6511 2030 03       		.byte	0x3
 6512 2031 2802     		.2byte	0x228
 6513 2033 EF000000 		.4byte	0xef
 6514 2037 02       		.uleb128 0x2
ARM GAS  C:\Users\tmj32\AppData\Local\Temp\cctNeIsL.s 			page 132


 6515 2038 91       		.byte	0x91
 6516 2039 68       		.sleb128 -24
 6517 203a 2B       		.uleb128 0x2b
 6518 203b 7E000000 		.4byte	.LBB9
 6519 203f 56000000 		.4byte	.LBE9-.LBB9
 6520 2043 66200000 		.4byte	0x2066
 6521 2047 32       		.uleb128 0x32
 6522 2048 0E0B0000 		.4byte	.LASF184
 6523 204c 03       		.byte	0x3
 6524 204d 0B02     		.2byte	0x20b
 6525 204f C8020000 		.4byte	0x2c8
 6526 2053 02       		.uleb128 0x2
 6527 2054 91       		.byte	0x91
 6528 2055 50       		.sleb128 -48
 6529 2056 32       		.uleb128 0x32
 6530 2057 29030000 		.4byte	.LASF386
 6531 205b 03       		.byte	0x3
 6532 205c 0D02     		.2byte	0x20d
 6533 205e EF000000 		.4byte	0xef
 6534 2062 02       		.uleb128 0x2
 6535 2063 91       		.byte	0x91
 6536 2064 6E       		.sleb128 -18
 6537 2065 00       		.byte	0
 6538 2066 2C       		.uleb128 0x2c
 6539 2067 E6000000 		.4byte	.LBB10
 6540 206b 56000000 		.4byte	.LBE10-.LBB10
 6541 206f 32       		.uleb128 0x32
 6542 2070 0E0B0000 		.4byte	.LASF184
 6543 2074 03       		.byte	0x3
 6544 2075 1602     		.2byte	0x216
 6545 2077 C8020000 		.4byte	0x2c8
 6546 207b 02       		.uleb128 0x2
 6547 207c 91       		.byte	0x91
 6548 207d 4C       		.sleb128 -52
 6549 207e 32       		.uleb128 0x32
 6550 207f 29030000 		.4byte	.LASF386
 6551 2083 03       		.byte	0x3
 6552 2084 1802     		.2byte	0x218
 6553 2086 EF000000 		.4byte	0xef
 6554 208a 02       		.uleb128 0x2
 6555 208b 91       		.byte	0x91
 6556 208c 6C       		.sleb128 -20
 6557 208d 00       		.byte	0
 6558 208e 00       		.byte	0
 6559 208f 33       		.uleb128 0x33
 6560 2090 8E010000 		.4byte	.LASF387
 6561 2094 03       		.byte	0x3
 6562 2095 3202     		.2byte	0x232
 6563 2097 D5010000 		.4byte	0x1d5
 6564 209b 00000000 		.4byte	.LFB62
 6565 209f 7E010000 		.4byte	.LFE62-.LFB62
 6566 20a3 01       		.uleb128 0x1
 6567 20a4 9C       		.byte	0x9c
 6568 20a5 D5200000 		.4byte	0x20d5
 6569 20a9 30       		.uleb128 0x30
 6570 20aa EA020000 		.4byte	.LASF352
 6571 20ae 03       		.byte	0x3
ARM GAS  C:\Users\tmj32\AppData\Local\Temp\cctNeIsL.s 			page 133


 6572 20af 3202     		.2byte	0x232
 6573 20b1 22120000 		.4byte	0x1222
 6574 20b5 02       		.uleb128 0x2
 6575 20b6 91       		.byte	0x91
 6576 20b7 6C       		.sleb128 -20
 6577 20b8 2E       		.uleb128 0x2e
 6578 20b9 65787400 		.ascii	"ext\000"
 6579 20bd 03       		.byte	0x3
 6580 20be 3502     		.2byte	0x235
 6581 20c0 D71B0000 		.4byte	0x1bd7
 6582 20c4 02       		.uleb128 0x2
 6583 20c5 91       		.byte	0x91
 6584 20c6 70       		.sleb128 -16
 6585 20c7 2E       		.uleb128 0x2e
 6586 20c8 6900     		.ascii	"i\000"
 6587 20ca 03       		.byte	0x3
 6588 20cb 3D02     		.2byte	0x23d
 6589 20cd CE000000 		.4byte	0xce
 6590 20d1 02       		.uleb128 0x2
 6591 20d2 91       		.byte	0x91
 6592 20d3 76       		.sleb128 -10
 6593 20d4 00       		.byte	0
 6594 20d5 29       		.uleb128 0x29
 6595 20d6 A90C0000 		.4byte	.LASF388
 6596 20da 03       		.byte	0x3
 6597 20db 2F       		.byte	0x2f
 6598 20dc 980F0000 		.4byte	0xf98
 6599 20e0 05       		.uleb128 0x5
 6600 20e1 03       		.byte	0x3
 6601 20e2 00000000 		.4byte	ancestor_signal
 6602 20e6 29       		.uleb128 0x29
 6603 20e7 03050000 		.4byte	.LASF389
 6604 20eb 03       		.byte	0x3
 6605 20ec 30       		.byte	0x30
 6606 20ed 980F0000 		.4byte	0xf98
 6607 20f1 05       		.uleb128 0x5
 6608 20f2 03       		.byte	0x3
 6609 20f3 04000000 		.4byte	ancestor_scrl_signal
 6610 20f7 29       		.uleb128 0x29
 6611 20f8 E20C0000 		.4byte	.LASF390
 6612 20fc 03       		.byte	0x3
 6613 20fd 31       		.byte	0x31
 6614 20fe 2D0E0000 		.4byte	0xe2d
 6615 2102 05       		.uleb128 0x5
 6616 2103 03       		.byte	0x3
 6617 2104 08000000 		.4byte	ancestor_design
 6618 2108 35       		.uleb128 0x35
 6619 2109 700F0000 		.4byte	.LASF395
 6620 210d 0B       		.byte	0xb
 6621 210e 0E01     		.2byte	0x10e
 6622 2110 A7060000 		.4byte	0x6a7
 6623 2114 00       		.byte	0
 6624              		.section	.debug_abbrev,"",%progbits
 6625              	.Ldebug_abbrev0:
 6626 0000 01       		.uleb128 0x1
 6627 0001 11       		.uleb128 0x11
 6628 0002 01       		.byte	0x1
ARM GAS  C:\Users\tmj32\AppData\Local\Temp\cctNeIsL.s 			page 134


 6629 0003 25       		.uleb128 0x25
 6630 0004 0E       		.uleb128 0xe
 6631 0005 13       		.uleb128 0x13
 6632 0006 0B       		.uleb128 0xb
 6633 0007 03       		.uleb128 0x3
 6634 0008 0E       		.uleb128 0xe
 6635 0009 1B       		.uleb128 0x1b
 6636 000a 0E       		.uleb128 0xe
 6637 000b 55       		.uleb128 0x55
 6638 000c 17       		.uleb128 0x17
 6639 000d 11       		.uleb128 0x11
 6640 000e 01       		.uleb128 0x1
 6641 000f 10       		.uleb128 0x10
 6642 0010 17       		.uleb128 0x17
 6643 0011 00       		.byte	0
 6644 0012 00       		.byte	0
 6645 0013 02       		.uleb128 0x2
 6646 0014 16       		.uleb128 0x16
 6647 0015 00       		.byte	0
 6648 0016 03       		.uleb128 0x3
 6649 0017 0E       		.uleb128 0xe
 6650 0018 3A       		.uleb128 0x3a
 6651 0019 0B       		.uleb128 0xb
 6652 001a 3B       		.uleb128 0x3b
 6653 001b 0B       		.uleb128 0xb
 6654 001c 49       		.uleb128 0x49
 6655 001d 13       		.uleb128 0x13
 6656 001e 00       		.byte	0
 6657 001f 00       		.byte	0
 6658 0020 03       		.uleb128 0x3
 6659 0021 24       		.uleb128 0x24
 6660 0022 00       		.byte	0
 6661 0023 0B       		.uleb128 0xb
 6662 0024 0B       		.uleb128 0xb
 6663 0025 3E       		.uleb128 0x3e
 6664 0026 0B       		.uleb128 0xb
 6665 0027 03       		.uleb128 0x3
 6666 0028 0E       		.uleb128 0xe
 6667 0029 00       		.byte	0
 6668 002a 00       		.byte	0
 6669 002b 04       		.uleb128 0x4
 6670 002c 24       		.uleb128 0x24
 6671 002d 00       		.byte	0
 6672 002e 0B       		.uleb128 0xb
 6673 002f 0B       		.uleb128 0xb
 6674 0030 3E       		.uleb128 0x3e
 6675 0031 0B       		.uleb128 0xb
 6676 0032 03       		.uleb128 0x3
 6677 0033 08       		.uleb128 0x8
 6678 0034 00       		.byte	0
 6679 0035 00       		.byte	0
 6680 0036 05       		.uleb128 0x5
 6681 0037 0F       		.uleb128 0xf
 6682 0038 00       		.byte	0
 6683 0039 0B       		.uleb128 0xb
 6684 003a 0B       		.uleb128 0xb
 6685 003b 00       		.byte	0
ARM GAS  C:\Users\tmj32\AppData\Local\Temp\cctNeIsL.s 			page 135


 6686 003c 00       		.byte	0
 6687 003d 06       		.uleb128 0x6
 6688 003e 13       		.uleb128 0x13
 6689 003f 01       		.byte	0x1
 6690 0040 0B       		.uleb128 0xb
 6691 0041 0B       		.uleb128 0xb
 6692 0042 3A       		.uleb128 0x3a
 6693 0043 0B       		.uleb128 0xb
 6694 0044 3B       		.uleb128 0x3b
 6695 0045 0B       		.uleb128 0xb
 6696 0046 01       		.uleb128 0x1
 6697 0047 13       		.uleb128 0x13
 6698 0048 00       		.byte	0
 6699 0049 00       		.byte	0
 6700 004a 07       		.uleb128 0x7
 6701 004b 0D       		.uleb128 0xd
 6702 004c 00       		.byte	0
 6703 004d 03       		.uleb128 0x3
 6704 004e 0E       		.uleb128 0xe
 6705 004f 3A       		.uleb128 0x3a
 6706 0050 0B       		.uleb128 0xb
 6707 0051 3B       		.uleb128 0x3b
 6708 0052 0B       		.uleb128 0xb
 6709 0053 49       		.uleb128 0x49
 6710 0054 13       		.uleb128 0x13
 6711 0055 38       		.uleb128 0x38
 6712 0056 0B       		.uleb128 0xb
 6713 0057 00       		.byte	0
 6714 0058 00       		.byte	0
 6715 0059 08       		.uleb128 0x8
 6716 005a 0D       		.uleb128 0xd
 6717 005b 00       		.byte	0
 6718 005c 03       		.uleb128 0x3
 6719 005d 08       		.uleb128 0x8
 6720 005e 3A       		.uleb128 0x3a
 6721 005f 0B       		.uleb128 0xb
 6722 0060 3B       		.uleb128 0x3b
 6723 0061 0B       		.uleb128 0xb
 6724 0062 49       		.uleb128 0x49
 6725 0063 13       		.uleb128 0x13
 6726 0064 38       		.uleb128 0x38
 6727 0065 0B       		.uleb128 0xb
 6728 0066 00       		.byte	0
 6729 0067 00       		.byte	0
 6730 0068 09       		.uleb128 0x9
 6731 0069 13       		.uleb128 0x13
 6732 006a 01       		.byte	0x1
 6733 006b 03       		.uleb128 0x3
 6734 006c 0E       		.uleb128 0xe
 6735 006d 0B       		.uleb128 0xb
 6736 006e 0B       		.uleb128 0xb
 6737 006f 3A       		.uleb128 0x3a
 6738 0070 0B       		.uleb128 0xb
 6739 0071 3B       		.uleb128 0x3b
 6740 0072 0B       		.uleb128 0xb
 6741 0073 01       		.uleb128 0x1
 6742 0074 13       		.uleb128 0x13
ARM GAS  C:\Users\tmj32\AppData\Local\Temp\cctNeIsL.s 			page 136


 6743 0075 00       		.byte	0
 6744 0076 00       		.byte	0
 6745 0077 0A       		.uleb128 0xa
 6746 0078 0D       		.uleb128 0xd
 6747 0079 00       		.byte	0
 6748 007a 03       		.uleb128 0x3
 6749 007b 0E       		.uleb128 0xe
 6750 007c 3A       		.uleb128 0x3a
 6751 007d 0B       		.uleb128 0xb
 6752 007e 3B       		.uleb128 0x3b
 6753 007f 0B       		.uleb128 0xb
 6754 0080 49       		.uleb128 0x49
 6755 0081 13       		.uleb128 0x13
 6756 0082 0B       		.uleb128 0xb
 6757 0083 0B       		.uleb128 0xb
 6758 0084 0D       		.uleb128 0xd
 6759 0085 0B       		.uleb128 0xb
 6760 0086 0C       		.uleb128 0xc
 6761 0087 0B       		.uleb128 0xb
 6762 0088 38       		.uleb128 0x38
 6763 0089 0B       		.uleb128 0xb
 6764 008a 00       		.byte	0
 6765 008b 00       		.byte	0
 6766 008c 0B       		.uleb128 0xb
 6767 008d 15       		.uleb128 0x15
 6768 008e 01       		.byte	0x1
 6769 008f 27       		.uleb128 0x27
 6770 0090 19       		.uleb128 0x19
 6771 0091 49       		.uleb128 0x49
 6772 0092 13       		.uleb128 0x13
 6773 0093 01       		.uleb128 0x1
 6774 0094 13       		.uleb128 0x13
 6775 0095 00       		.byte	0
 6776 0096 00       		.byte	0
 6777 0097 0C       		.uleb128 0xc
 6778 0098 05       		.uleb128 0x5
 6779 0099 00       		.byte	0
 6780 009a 49       		.uleb128 0x49
 6781 009b 13       		.uleb128 0x13
 6782 009c 00       		.byte	0
 6783 009d 00       		.byte	0
 6784 009e 0D       		.uleb128 0xd
 6785 009f 0F       		.uleb128 0xf
 6786 00a0 00       		.byte	0
 6787 00a1 0B       		.uleb128 0xb
 6788 00a2 0B       		.uleb128 0xb
 6789 00a3 49       		.uleb128 0x49
 6790 00a4 13       		.uleb128 0x13
 6791 00a5 00       		.byte	0
 6792 00a6 00       		.byte	0
 6793 00a7 0E       		.uleb128 0xe
 6794 00a8 26       		.uleb128 0x26
 6795 00a9 00       		.byte	0
 6796 00aa 49       		.uleb128 0x49
 6797 00ab 13       		.uleb128 0x13
 6798 00ac 00       		.byte	0
 6799 00ad 00       		.byte	0
ARM GAS  C:\Users\tmj32\AppData\Local\Temp\cctNeIsL.s 			page 137


 6800 00ae 0F       		.uleb128 0xf
 6801 00af 17       		.uleb128 0x17
 6802 00b0 01       		.byte	0x1
 6803 00b1 0B       		.uleb128 0xb
 6804 00b2 0B       		.uleb128 0xb
 6805 00b3 3A       		.uleb128 0x3a
 6806 00b4 0B       		.uleb128 0xb
 6807 00b5 3B       		.uleb128 0x3b
 6808 00b6 0B       		.uleb128 0xb
 6809 00b7 01       		.uleb128 0x1
 6810 00b8 13       		.uleb128 0x13
 6811 00b9 00       		.byte	0
 6812 00ba 00       		.byte	0
 6813 00bb 10       		.uleb128 0x10
 6814 00bc 0D       		.uleb128 0xd
 6815 00bd 00       		.byte	0
 6816 00be 03       		.uleb128 0x3
 6817 00bf 08       		.uleb128 0x8
 6818 00c0 3A       		.uleb128 0x3a
 6819 00c1 0B       		.uleb128 0xb
 6820 00c2 3B       		.uleb128 0x3b
 6821 00c3 0B       		.uleb128 0xb
 6822 00c4 49       		.uleb128 0x49
 6823 00c5 13       		.uleb128 0x13
 6824 00c6 00       		.byte	0
 6825 00c7 00       		.byte	0
 6826 00c8 11       		.uleb128 0x11
 6827 00c9 0D       		.uleb128 0xd
 6828 00ca 00       		.byte	0
 6829 00cb 03       		.uleb128 0x3
 6830 00cc 0E       		.uleb128 0xe
 6831 00cd 3A       		.uleb128 0x3a
 6832 00ce 0B       		.uleb128 0xb
 6833 00cf 3B       		.uleb128 0x3b
 6834 00d0 0B       		.uleb128 0xb
 6835 00d1 49       		.uleb128 0x49
 6836 00d2 13       		.uleb128 0x13
 6837 00d3 00       		.byte	0
 6838 00d4 00       		.byte	0
 6839 00d5 12       		.uleb128 0x12
 6840 00d6 16       		.uleb128 0x16
 6841 00d7 00       		.byte	0
 6842 00d8 03       		.uleb128 0x3
 6843 00d9 0E       		.uleb128 0xe
 6844 00da 3A       		.uleb128 0x3a
 6845 00db 0B       		.uleb128 0xb
 6846 00dc 3B       		.uleb128 0x3b
 6847 00dd 05       		.uleb128 0x5
 6848 00de 49       		.uleb128 0x49
 6849 00df 13       		.uleb128 0x13
 6850 00e0 00       		.byte	0
 6851 00e1 00       		.byte	0
 6852 00e2 13       		.uleb128 0x13
 6853 00e3 04       		.uleb128 0x4
 6854 00e4 01       		.byte	0x1
 6855 00e5 0B       		.uleb128 0xb
 6856 00e6 0B       		.uleb128 0xb
ARM GAS  C:\Users\tmj32\AppData\Local\Temp\cctNeIsL.s 			page 138


 6857 00e7 49       		.uleb128 0x49
 6858 00e8 13       		.uleb128 0x13
 6859 00e9 3A       		.uleb128 0x3a
 6860 00ea 0B       		.uleb128 0xb
 6861 00eb 3B       		.uleb128 0x3b
 6862 00ec 0B       		.uleb128 0xb
 6863 00ed 01       		.uleb128 0x1
 6864 00ee 13       		.uleb128 0x13
 6865 00ef 00       		.byte	0
 6866 00f0 00       		.byte	0
 6867 00f1 14       		.uleb128 0x14
 6868 00f2 28       		.uleb128 0x28
 6869 00f3 00       		.byte	0
 6870 00f4 03       		.uleb128 0x3
 6871 00f5 0E       		.uleb128 0xe
 6872 00f6 1C       		.uleb128 0x1c
 6873 00f7 0B       		.uleb128 0xb
 6874 00f8 00       		.byte	0
 6875 00f9 00       		.byte	0
 6876 00fa 15       		.uleb128 0x15
 6877 00fb 15       		.uleb128 0x15
 6878 00fc 01       		.byte	0x1
 6879 00fd 27       		.uleb128 0x27
 6880 00fe 19       		.uleb128 0x19
 6881 00ff 01       		.uleb128 0x1
 6882 0100 13       		.uleb128 0x13
 6883 0101 00       		.byte	0
 6884 0102 00       		.byte	0
 6885 0103 16       		.uleb128 0x16
 6886 0104 35       		.uleb128 0x35
 6887 0105 00       		.byte	0
 6888 0106 49       		.uleb128 0x49
 6889 0107 13       		.uleb128 0x13
 6890 0108 00       		.byte	0
 6891 0109 00       		.byte	0
 6892 010a 17       		.uleb128 0x17
 6893 010b 13       		.uleb128 0x13
 6894 010c 01       		.byte	0x1
 6895 010d 03       		.uleb128 0x3
 6896 010e 0E       		.uleb128 0xe
 6897 010f 0B       		.uleb128 0xb
 6898 0110 05       		.uleb128 0x5
 6899 0111 3A       		.uleb128 0x3a
 6900 0112 0B       		.uleb128 0xb
 6901 0113 3B       		.uleb128 0x3b
 6902 0114 0B       		.uleb128 0xb
 6903 0115 01       		.uleb128 0x1
 6904 0116 13       		.uleb128 0x13
 6905 0117 00       		.byte	0
 6906 0118 00       		.byte	0
 6907 0119 18       		.uleb128 0x18
 6908 011a 0D       		.uleb128 0xd
 6909 011b 00       		.byte	0
 6910 011c 03       		.uleb128 0x3
 6911 011d 0E       		.uleb128 0xe
 6912 011e 3A       		.uleb128 0x3a
 6913 011f 0B       		.uleb128 0xb
ARM GAS  C:\Users\tmj32\AppData\Local\Temp\cctNeIsL.s 			page 139


 6914 0120 3B       		.uleb128 0x3b
 6915 0121 0B       		.uleb128 0xb
 6916 0122 49       		.uleb128 0x49
 6917 0123 13       		.uleb128 0x13
 6918 0124 38       		.uleb128 0x38
 6919 0125 05       		.uleb128 0x5
 6920 0126 00       		.byte	0
 6921 0127 00       		.byte	0
 6922 0128 19       		.uleb128 0x19
 6923 0129 0D       		.uleb128 0xd
 6924 012a 00       		.byte	0
 6925 012b 03       		.uleb128 0x3
 6926 012c 0E       		.uleb128 0xe
 6927 012d 3A       		.uleb128 0x3a
 6928 012e 0B       		.uleb128 0xb
 6929 012f 3B       		.uleb128 0x3b
 6930 0130 0B       		.uleb128 0xb
 6931 0131 49       		.uleb128 0x49
 6932 0132 13       		.uleb128 0x13
 6933 0133 0B       		.uleb128 0xb
 6934 0134 0B       		.uleb128 0xb
 6935 0135 0D       		.uleb128 0xd
 6936 0136 0B       		.uleb128 0xb
 6937 0137 0C       		.uleb128 0xc
 6938 0138 0B       		.uleb128 0xb
 6939 0139 38       		.uleb128 0x38
 6940 013a 05       		.uleb128 0x5
 6941 013b 00       		.byte	0
 6942 013c 00       		.byte	0
 6943 013d 1A       		.uleb128 0x1a
 6944 013e 0D       		.uleb128 0xd
 6945 013f 00       		.byte	0
 6946 0140 03       		.uleb128 0x3
 6947 0141 08       		.uleb128 0x8
 6948 0142 3A       		.uleb128 0x3a
 6949 0143 0B       		.uleb128 0xb
 6950 0144 3B       		.uleb128 0x3b
 6951 0145 0B       		.uleb128 0xb
 6952 0146 49       		.uleb128 0x49
 6953 0147 13       		.uleb128 0x13
 6954 0148 0B       		.uleb128 0xb
 6955 0149 0B       		.uleb128 0xb
 6956 014a 0D       		.uleb128 0xd
 6957 014b 0B       		.uleb128 0xb
 6958 014c 0C       		.uleb128 0xc
 6959 014d 0B       		.uleb128 0xb
 6960 014e 38       		.uleb128 0x38
 6961 014f 0B       		.uleb128 0xb
 6962 0150 00       		.byte	0
 6963 0151 00       		.byte	0
 6964 0152 1B       		.uleb128 0x1b
 6965 0153 01       		.uleb128 0x1
 6966 0154 01       		.byte	0x1
 6967 0155 49       		.uleb128 0x49
 6968 0156 13       		.uleb128 0x13
 6969 0157 01       		.uleb128 0x1
 6970 0158 13       		.uleb128 0x13
ARM GAS  C:\Users\tmj32\AppData\Local\Temp\cctNeIsL.s 			page 140


 6971 0159 00       		.byte	0
 6972 015a 00       		.byte	0
 6973 015b 1C       		.uleb128 0x1c
 6974 015c 21       		.uleb128 0x21
 6975 015d 00       		.byte	0
 6976 015e 49       		.uleb128 0x49
 6977 015f 13       		.uleb128 0x13
 6978 0160 2F       		.uleb128 0x2f
 6979 0161 0B       		.uleb128 0xb
 6980 0162 00       		.byte	0
 6981 0163 00       		.byte	0
 6982 0164 1D       		.uleb128 0x1d
 6983 0165 13       		.uleb128 0x13
 6984 0166 00       		.byte	0
 6985 0167 03       		.uleb128 0x3
 6986 0168 0E       		.uleb128 0xe
 6987 0169 3C       		.uleb128 0x3c
 6988 016a 19       		.uleb128 0x19
 6989 016b 00       		.byte	0
 6990 016c 00       		.byte	0
 6991 016d 1E       		.uleb128 0x1e
 6992 016e 0D       		.uleb128 0xd
 6993 016f 00       		.byte	0
 6994 0170 03       		.uleb128 0x3
 6995 0171 08       		.uleb128 0x8
 6996 0172 3A       		.uleb128 0x3a
 6997 0173 0B       		.uleb128 0xb
 6998 0174 3B       		.uleb128 0x3b
 6999 0175 05       		.uleb128 0x5
 7000 0176 49       		.uleb128 0x49
 7001 0177 13       		.uleb128 0x13
 7002 0178 38       		.uleb128 0x38
 7003 0179 0B       		.uleb128 0xb
 7004 017a 00       		.byte	0
 7005 017b 00       		.byte	0
 7006 017c 1F       		.uleb128 0x1f
 7007 017d 0D       		.uleb128 0xd
 7008 017e 00       		.byte	0
 7009 017f 03       		.uleb128 0x3
 7010 0180 0E       		.uleb128 0xe
 7011 0181 3A       		.uleb128 0x3a
 7012 0182 0B       		.uleb128 0xb
 7013 0183 3B       		.uleb128 0x3b
 7014 0184 05       		.uleb128 0x5
 7015 0185 49       		.uleb128 0x49
 7016 0186 13       		.uleb128 0x13
 7017 0187 38       		.uleb128 0x38
 7018 0188 0B       		.uleb128 0xb
 7019 0189 00       		.byte	0
 7020 018a 00       		.byte	0
 7021 018b 20       		.uleb128 0x20
 7022 018c 13       		.uleb128 0x13
 7023 018d 01       		.byte	0x1
 7024 018e 0B       		.uleb128 0xb
 7025 018f 0B       		.uleb128 0xb
 7026 0190 3A       		.uleb128 0x3a
 7027 0191 0B       		.uleb128 0xb
ARM GAS  C:\Users\tmj32\AppData\Local\Temp\cctNeIsL.s 			page 141


 7028 0192 3B       		.uleb128 0x3b
 7029 0193 05       		.uleb128 0x5
 7030 0194 01       		.uleb128 0x1
 7031 0195 13       		.uleb128 0x13
 7032 0196 00       		.byte	0
 7033 0197 00       		.byte	0
 7034 0198 21       		.uleb128 0x21
 7035 0199 13       		.uleb128 0x13
 7036 019a 01       		.byte	0x1
 7037 019b 0B       		.uleb128 0xb
 7038 019c 05       		.uleb128 0x5
 7039 019d 3A       		.uleb128 0x3a
 7040 019e 0B       		.uleb128 0xb
 7041 019f 3B       		.uleb128 0x3b
 7042 01a0 0B       		.uleb128 0xb
 7043 01a1 01       		.uleb128 0x1
 7044 01a2 13       		.uleb128 0x13
 7045 01a3 00       		.byte	0
 7046 01a4 00       		.byte	0
 7047 01a5 22       		.uleb128 0x22
 7048 01a6 0D       		.uleb128 0xd
 7049 01a7 00       		.byte	0
 7050 01a8 03       		.uleb128 0x3
 7051 01a9 08       		.uleb128 0x8
 7052 01aa 3A       		.uleb128 0x3a
 7053 01ab 0B       		.uleb128 0xb
 7054 01ac 3B       		.uleb128 0x3b
 7055 01ad 0B       		.uleb128 0xb
 7056 01ae 49       		.uleb128 0x49
 7057 01af 13       		.uleb128 0x13
 7058 01b0 38       		.uleb128 0x38
 7059 01b1 05       		.uleb128 0x5
 7060 01b2 00       		.byte	0
 7061 01b3 00       		.byte	0
 7062 01b4 23       		.uleb128 0x23
 7063 01b5 0D       		.uleb128 0xd
 7064 01b6 00       		.byte	0
 7065 01b7 03       		.uleb128 0x3
 7066 01b8 0E       		.uleb128 0xe
 7067 01b9 3A       		.uleb128 0x3a
 7068 01ba 0B       		.uleb128 0xb
 7069 01bb 3B       		.uleb128 0x3b
 7070 01bc 05       		.uleb128 0x5
 7071 01bd 49       		.uleb128 0x49
 7072 01be 13       		.uleb128 0x13
 7073 01bf 38       		.uleb128 0x38
 7074 01c0 05       		.uleb128 0x5
 7075 01c1 00       		.byte	0
 7076 01c2 00       		.byte	0
 7077 01c3 24       		.uleb128 0x24
 7078 01c4 0D       		.uleb128 0xd
 7079 01c5 00       		.byte	0
 7080 01c6 03       		.uleb128 0x3
 7081 01c7 08       		.uleb128 0x8
 7082 01c8 3A       		.uleb128 0x3a
 7083 01c9 0B       		.uleb128 0xb
 7084 01ca 3B       		.uleb128 0x3b
ARM GAS  C:\Users\tmj32\AppData\Local\Temp\cctNeIsL.s 			page 142


 7085 01cb 05       		.uleb128 0x5
 7086 01cc 49       		.uleb128 0x49
 7087 01cd 13       		.uleb128 0x13
 7088 01ce 38       		.uleb128 0x38
 7089 01cf 05       		.uleb128 0x5
 7090 01d0 00       		.byte	0
 7091 01d1 00       		.byte	0
 7092 01d2 25       		.uleb128 0x25
 7093 01d3 2E       		.uleb128 0x2e
 7094 01d4 01       		.byte	0x1
 7095 01d5 03       		.uleb128 0x3
 7096 01d6 0E       		.uleb128 0xe
 7097 01d7 3A       		.uleb128 0x3a
 7098 01d8 0B       		.uleb128 0xb
 7099 01d9 3B       		.uleb128 0x3b
 7100 01da 0B       		.uleb128 0xb
 7101 01db 27       		.uleb128 0x27
 7102 01dc 19       		.uleb128 0x19
 7103 01dd 11       		.uleb128 0x11
 7104 01de 01       		.uleb128 0x1
 7105 01df 12       		.uleb128 0x12
 7106 01e0 06       		.uleb128 0x6
 7107 01e1 40       		.uleb128 0x40
 7108 01e2 18       		.uleb128 0x18
 7109 01e3 9642     		.uleb128 0x2116
 7110 01e5 19       		.uleb128 0x19
 7111 01e6 01       		.uleb128 0x1
 7112 01e7 13       		.uleb128 0x13
 7113 01e8 00       		.byte	0
 7114 01e9 00       		.byte	0
 7115 01ea 26       		.uleb128 0x26
 7116 01eb 05       		.uleb128 0x5
 7117 01ec 00       		.byte	0
 7118 01ed 03       		.uleb128 0x3
 7119 01ee 0E       		.uleb128 0xe
 7120 01ef 3A       		.uleb128 0x3a
 7121 01f0 0B       		.uleb128 0xb
 7122 01f1 3B       		.uleb128 0x3b
 7123 01f2 0B       		.uleb128 0xb
 7124 01f3 49       		.uleb128 0x49
 7125 01f4 13       		.uleb128 0x13
 7126 01f5 02       		.uleb128 0x2
 7127 01f6 18       		.uleb128 0x18
 7128 01f7 00       		.byte	0
 7129 01f8 00       		.byte	0
 7130 01f9 27       		.uleb128 0x27
 7131 01fa 05       		.uleb128 0x5
 7132 01fb 00       		.byte	0
 7133 01fc 03       		.uleb128 0x3
 7134 01fd 08       		.uleb128 0x8
 7135 01fe 3A       		.uleb128 0x3a
 7136 01ff 0B       		.uleb128 0xb
 7137 0200 3B       		.uleb128 0x3b
 7138 0201 0B       		.uleb128 0xb
 7139 0202 49       		.uleb128 0x49
 7140 0203 13       		.uleb128 0x13
 7141 0204 02       		.uleb128 0x2
ARM GAS  C:\Users\tmj32\AppData\Local\Temp\cctNeIsL.s 			page 143


 7142 0205 18       		.uleb128 0x18
 7143 0206 00       		.byte	0
 7144 0207 00       		.byte	0
 7145 0208 28       		.uleb128 0x28
 7146 0209 2E       		.uleb128 0x2e
 7147 020a 01       		.byte	0x1
 7148 020b 3F       		.uleb128 0x3f
 7149 020c 19       		.uleb128 0x19
 7150 020d 03       		.uleb128 0x3
 7151 020e 0E       		.uleb128 0xe
 7152 020f 3A       		.uleb128 0x3a
 7153 0210 0B       		.uleb128 0xb
 7154 0211 3B       		.uleb128 0x3b
 7155 0212 0B       		.uleb128 0xb
 7156 0213 27       		.uleb128 0x27
 7157 0214 19       		.uleb128 0x19
 7158 0215 49       		.uleb128 0x49
 7159 0216 13       		.uleb128 0x13
 7160 0217 11       		.uleb128 0x11
 7161 0218 01       		.uleb128 0x1
 7162 0219 12       		.uleb128 0x12
 7163 021a 06       		.uleb128 0x6
 7164 021b 40       		.uleb128 0x40
 7165 021c 18       		.uleb128 0x18
 7166 021d 9642     		.uleb128 0x2116
 7167 021f 19       		.uleb128 0x19
 7168 0220 01       		.uleb128 0x1
 7169 0221 13       		.uleb128 0x13
 7170 0222 00       		.byte	0
 7171 0223 00       		.byte	0
 7172 0224 29       		.uleb128 0x29
 7173 0225 34       		.uleb128 0x34
 7174 0226 00       		.byte	0
 7175 0227 03       		.uleb128 0x3
 7176 0228 0E       		.uleb128 0xe
 7177 0229 3A       		.uleb128 0x3a
 7178 022a 0B       		.uleb128 0xb
 7179 022b 3B       		.uleb128 0x3b
 7180 022c 0B       		.uleb128 0xb
 7181 022d 49       		.uleb128 0x49
 7182 022e 13       		.uleb128 0x13
 7183 022f 02       		.uleb128 0x2
 7184 0230 18       		.uleb128 0x18
 7185 0231 00       		.byte	0
 7186 0232 00       		.byte	0
 7187 0233 2A       		.uleb128 0x2a
 7188 0234 34       		.uleb128 0x34
 7189 0235 00       		.byte	0
 7190 0236 03       		.uleb128 0x3
 7191 0237 08       		.uleb128 0x8
 7192 0238 3A       		.uleb128 0x3a
 7193 0239 0B       		.uleb128 0xb
 7194 023a 3B       		.uleb128 0x3b
 7195 023b 0B       		.uleb128 0xb
 7196 023c 49       		.uleb128 0x49
 7197 023d 13       		.uleb128 0x13
 7198 023e 02       		.uleb128 0x2
ARM GAS  C:\Users\tmj32\AppData\Local\Temp\cctNeIsL.s 			page 144


 7199 023f 18       		.uleb128 0x18
 7200 0240 00       		.byte	0
 7201 0241 00       		.byte	0
 7202 0242 2B       		.uleb128 0x2b
 7203 0243 0B       		.uleb128 0xb
 7204 0244 01       		.byte	0x1
 7205 0245 11       		.uleb128 0x11
 7206 0246 01       		.uleb128 0x1
 7207 0247 12       		.uleb128 0x12
 7208 0248 06       		.uleb128 0x6
 7209 0249 01       		.uleb128 0x1
 7210 024a 13       		.uleb128 0x13
 7211 024b 00       		.byte	0
 7212 024c 00       		.byte	0
 7213 024d 2C       		.uleb128 0x2c
 7214 024e 0B       		.uleb128 0xb
 7215 024f 01       		.byte	0x1
 7216 0250 11       		.uleb128 0x11
 7217 0251 01       		.uleb128 0x1
 7218 0252 12       		.uleb128 0x12
 7219 0253 06       		.uleb128 0x6
 7220 0254 00       		.byte	0
 7221 0255 00       		.byte	0
 7222 0256 2D       		.uleb128 0x2d
 7223 0257 2E       		.uleb128 0x2e
 7224 0258 01       		.byte	0x1
 7225 0259 3F       		.uleb128 0x3f
 7226 025a 19       		.uleb128 0x19
 7227 025b 03       		.uleb128 0x3
 7228 025c 0E       		.uleb128 0xe
 7229 025d 3A       		.uleb128 0x3a
 7230 025e 0B       		.uleb128 0xb
 7231 025f 3B       		.uleb128 0x3b
 7232 0260 0B       		.uleb128 0xb
 7233 0261 27       		.uleb128 0x27
 7234 0262 19       		.uleb128 0x19
 7235 0263 11       		.uleb128 0x11
 7236 0264 01       		.uleb128 0x1
 7237 0265 12       		.uleb128 0x12
 7238 0266 06       		.uleb128 0x6
 7239 0267 40       		.uleb128 0x40
 7240 0268 18       		.uleb128 0x18
 7241 0269 9642     		.uleb128 0x2116
 7242 026b 19       		.uleb128 0x19
 7243 026c 01       		.uleb128 0x1
 7244 026d 13       		.uleb128 0x13
 7245 026e 00       		.byte	0
 7246 026f 00       		.byte	0
 7247 0270 2E       		.uleb128 0x2e
 7248 0271 34       		.uleb128 0x34
 7249 0272 00       		.byte	0
 7250 0273 03       		.uleb128 0x3
 7251 0274 08       		.uleb128 0x8
 7252 0275 3A       		.uleb128 0x3a
 7253 0276 0B       		.uleb128 0xb
 7254 0277 3B       		.uleb128 0x3b
 7255 0278 05       		.uleb128 0x5
ARM GAS  C:\Users\tmj32\AppData\Local\Temp\cctNeIsL.s 			page 145


 7256 0279 49       		.uleb128 0x49
 7257 027a 13       		.uleb128 0x13
 7258 027b 02       		.uleb128 0x2
 7259 027c 18       		.uleb128 0x18
 7260 027d 00       		.byte	0
 7261 027e 00       		.byte	0
 7262 027f 2F       		.uleb128 0x2f
 7263 0280 2E       		.uleb128 0x2e
 7264 0281 01       		.byte	0x1
 7265 0282 3F       		.uleb128 0x3f
 7266 0283 19       		.uleb128 0x19
 7267 0284 03       		.uleb128 0x3
 7268 0285 0E       		.uleb128 0xe
 7269 0286 3A       		.uleb128 0x3a
 7270 0287 0B       		.uleb128 0xb
 7271 0288 3B       		.uleb128 0x3b
 7272 0289 05       		.uleb128 0x5
 7273 028a 27       		.uleb128 0x27
 7274 028b 19       		.uleb128 0x19
 7275 028c 11       		.uleb128 0x11
 7276 028d 01       		.uleb128 0x1
 7277 028e 12       		.uleb128 0x12
 7278 028f 06       		.uleb128 0x6
 7279 0290 40       		.uleb128 0x40
 7280 0291 18       		.uleb128 0x18
 7281 0292 9642     		.uleb128 0x2116
 7282 0294 19       		.uleb128 0x19
 7283 0295 01       		.uleb128 0x1
 7284 0296 13       		.uleb128 0x13
 7285 0297 00       		.byte	0
 7286 0298 00       		.byte	0
 7287 0299 30       		.uleb128 0x30
 7288 029a 05       		.uleb128 0x5
 7289 029b 00       		.byte	0
 7290 029c 03       		.uleb128 0x3
 7291 029d 0E       		.uleb128 0xe
 7292 029e 3A       		.uleb128 0x3a
 7293 029f 0B       		.uleb128 0xb
 7294 02a0 3B       		.uleb128 0x3b
 7295 02a1 05       		.uleb128 0x5
 7296 02a2 49       		.uleb128 0x49
 7297 02a3 13       		.uleb128 0x13
 7298 02a4 02       		.uleb128 0x2
 7299 02a5 18       		.uleb128 0x18
 7300 02a6 00       		.byte	0
 7301 02a7 00       		.byte	0
 7302 02a8 31       		.uleb128 0x31
 7303 02a9 2E       		.uleb128 0x2e
 7304 02aa 01       		.byte	0x1
 7305 02ab 3F       		.uleb128 0x3f
 7306 02ac 19       		.uleb128 0x19
 7307 02ad 03       		.uleb128 0x3
 7308 02ae 0E       		.uleb128 0xe
 7309 02af 3A       		.uleb128 0x3a
 7310 02b0 0B       		.uleb128 0xb
 7311 02b1 3B       		.uleb128 0x3b
 7312 02b2 05       		.uleb128 0x5
ARM GAS  C:\Users\tmj32\AppData\Local\Temp\cctNeIsL.s 			page 146


 7313 02b3 27       		.uleb128 0x27
 7314 02b4 19       		.uleb128 0x19
 7315 02b5 49       		.uleb128 0x49
 7316 02b6 13       		.uleb128 0x13
 7317 02b7 11       		.uleb128 0x11
 7318 02b8 01       		.uleb128 0x1
 7319 02b9 12       		.uleb128 0x12
 7320 02ba 06       		.uleb128 0x6
 7321 02bb 40       		.uleb128 0x40
 7322 02bc 18       		.uleb128 0x18
 7323 02bd 9642     		.uleb128 0x2116
 7324 02bf 19       		.uleb128 0x19
 7325 02c0 01       		.uleb128 0x1
 7326 02c1 13       		.uleb128 0x13
 7327 02c2 00       		.byte	0
 7328 02c3 00       		.byte	0
 7329 02c4 32       		.uleb128 0x32
 7330 02c5 34       		.uleb128 0x34
 7331 02c6 00       		.byte	0
 7332 02c7 03       		.uleb128 0x3
 7333 02c8 0E       		.uleb128 0xe
 7334 02c9 3A       		.uleb128 0x3a
 7335 02ca 0B       		.uleb128 0xb
 7336 02cb 3B       		.uleb128 0x3b
 7337 02cc 05       		.uleb128 0x5
 7338 02cd 49       		.uleb128 0x49
 7339 02ce 13       		.uleb128 0x13
 7340 02cf 02       		.uleb128 0x2
 7341 02d0 18       		.uleb128 0x18
 7342 02d1 00       		.byte	0
 7343 02d2 00       		.byte	0
 7344 02d3 33       		.uleb128 0x33
 7345 02d4 2E       		.uleb128 0x2e
 7346 02d5 01       		.byte	0x1
 7347 02d6 03       		.uleb128 0x3
 7348 02d7 0E       		.uleb128 0xe
 7349 02d8 3A       		.uleb128 0x3a
 7350 02d9 0B       		.uleb128 0xb
 7351 02da 3B       		.uleb128 0x3b
 7352 02db 05       		.uleb128 0x5
 7353 02dc 27       		.uleb128 0x27
 7354 02dd 19       		.uleb128 0x19
 7355 02de 49       		.uleb128 0x49
 7356 02df 13       		.uleb128 0x13
 7357 02e0 11       		.uleb128 0x11
 7358 02e1 01       		.uleb128 0x1
 7359 02e2 12       		.uleb128 0x12
 7360 02e3 06       		.uleb128 0x6
 7361 02e4 40       		.uleb128 0x40
 7362 02e5 18       		.uleb128 0x18
 7363 02e6 9642     		.uleb128 0x2116
 7364 02e8 19       		.uleb128 0x19
 7365 02e9 01       		.uleb128 0x1
 7366 02ea 13       		.uleb128 0x13
 7367 02eb 00       		.byte	0
 7368 02ec 00       		.byte	0
 7369 02ed 34       		.uleb128 0x34
ARM GAS  C:\Users\tmj32\AppData\Local\Temp\cctNeIsL.s 			page 147


 7370 02ee 2E       		.uleb128 0x2e
 7371 02ef 01       		.byte	0x1
 7372 02f0 03       		.uleb128 0x3
 7373 02f1 0E       		.uleb128 0xe
 7374 02f2 3A       		.uleb128 0x3a
 7375 02f3 0B       		.uleb128 0xb
 7376 02f4 3B       		.uleb128 0x3b
 7377 02f5 05       		.uleb128 0x5
 7378 02f6 27       		.uleb128 0x27
 7379 02f7 19       		.uleb128 0x19
 7380 02f8 11       		.uleb128 0x11
 7381 02f9 01       		.uleb128 0x1
 7382 02fa 12       		.uleb128 0x12
 7383 02fb 06       		.uleb128 0x6
 7384 02fc 40       		.uleb128 0x40
 7385 02fd 18       		.uleb128 0x18
 7386 02fe 9642     		.uleb128 0x2116
 7387 0300 19       		.uleb128 0x19
 7388 0301 01       		.uleb128 0x1
 7389 0302 13       		.uleb128 0x13
 7390 0303 00       		.byte	0
 7391 0304 00       		.byte	0
 7392 0305 35       		.uleb128 0x35
 7393 0306 34       		.uleb128 0x34
 7394 0307 00       		.byte	0
 7395 0308 03       		.uleb128 0x3
 7396 0309 0E       		.uleb128 0xe
 7397 030a 3A       		.uleb128 0x3a
 7398 030b 0B       		.uleb128 0xb
 7399 030c 3B       		.uleb128 0x3b
 7400 030d 05       		.uleb128 0x5
 7401 030e 49       		.uleb128 0x49
 7402 030f 13       		.uleb128 0x13
 7403 0310 3F       		.uleb128 0x3f
 7404 0311 19       		.uleb128 0x19
 7405 0312 3C       		.uleb128 0x3c
 7406 0313 19       		.uleb128 0x19
 7407 0314 00       		.byte	0
 7408 0315 00       		.byte	0
 7409 0316 00       		.byte	0
 7410              		.section	.debug_aranges,"",%progbits
 7411 0000 7C000000 		.4byte	0x7c
 7412 0004 0200     		.2byte	0x2
 7413 0006 00000000 		.4byte	.Ldebug_info0
 7414 000a 04       		.byte	0x4
 7415 000b 00       		.byte	0
 7416 000c 0000     		.2byte	0
 7417 000e 0000     		.2byte	0
 7418 0010 00000000 		.4byte	.LFB32
 7419 0014 26000000 		.4byte	.LFE32-.LFB32
 7420 0018 00000000 		.4byte	.LFB37
 7421 001c 26000000 		.4byte	.LFE37-.LFB37
 7422 0020 00000000 		.4byte	.LFB52
 7423 0024 DC010000 		.4byte	.LFE52-.LFB52
 7424 0028 00000000 		.4byte	.LFB53
 7425 002c 44000000 		.4byte	.LFE53-.LFB53
 7426 0030 00000000 		.4byte	.LFB54
ARM GAS  C:\Users\tmj32\AppData\Local\Temp\cctNeIsL.s 			page 148


 7427 0034 86000000 		.4byte	.LFE54-.LFB54
 7428 0038 00000000 		.4byte	.LFB55
 7429 003c B4010000 		.4byte	.LFE55-.LFB55
 7430 0040 00000000 		.4byte	.LFB56
 7431 0044 28000000 		.4byte	.LFE56-.LFB56
 7432 0048 00000000 		.4byte	.LFB57
 7433 004c 2E000000 		.4byte	.LFE57-.LFB57
 7434 0050 00000000 		.4byte	.LFB58
 7435 0054 4C000000 		.4byte	.LFE58-.LFB58
 7436 0058 00000000 		.4byte	.LFB59
 7437 005c 6C050000 		.4byte	.LFE59-.LFB59
 7438 0060 00000000 		.4byte	.LFB60
 7439 0064 A8000000 		.4byte	.LFE60-.LFB60
 7440 0068 00000000 		.4byte	.LFB61
 7441 006c FC010000 		.4byte	.LFE61-.LFB61
 7442 0070 00000000 		.4byte	.LFB62
 7443 0074 7E010000 		.4byte	.LFE62-.LFB62
 7444 0078 00000000 		.4byte	0
 7445 007c 00000000 		.4byte	0
 7446              		.section	.debug_ranges,"",%progbits
 7447              	.Ldebug_ranges0:
 7448 0000 00000000 		.4byte	.LFB32
 7449 0004 26000000 		.4byte	.LFE32
 7450 0008 00000000 		.4byte	.LFB37
 7451 000c 26000000 		.4byte	.LFE37
 7452 0010 00000000 		.4byte	.LFB52
 7453 0014 DC010000 		.4byte	.LFE52
 7454 0018 00000000 		.4byte	.LFB53
 7455 001c 44000000 		.4byte	.LFE53
 7456 0020 00000000 		.4byte	.LFB54
 7457 0024 86000000 		.4byte	.LFE54
 7458 0028 00000000 		.4byte	.LFB55
 7459 002c B4010000 		.4byte	.LFE55
 7460 0030 00000000 		.4byte	.LFB56
 7461 0034 28000000 		.4byte	.LFE56
 7462 0038 00000000 		.4byte	.LFB57
 7463 003c 2E000000 		.4byte	.LFE57
 7464 0040 00000000 		.4byte	.LFB58
 7465 0044 4C000000 		.4byte	.LFE58
 7466 0048 00000000 		.4byte	.LFB59
 7467 004c 6C050000 		.4byte	.LFE59
 7468 0050 00000000 		.4byte	.LFB60
 7469 0054 A8000000 		.4byte	.LFE60
 7470 0058 00000000 		.4byte	.LFB61
 7471 005c FC010000 		.4byte	.LFE61
 7472 0060 00000000 		.4byte	.LFB62
 7473 0064 7E010000 		.4byte	.LFE62
 7474 0068 00000000 		.4byte	0
 7475 006c 00000000 		.4byte	0
 7476              		.section	.debug_line,"",%progbits
 7477              	.Ldebug_line0:
 7478 0000 EA070000 		.section	.debug_str,"MS",%progbits,1
 7478      02006504 
 7478      00000201 
 7478      FB0E0D00 
 7478      01010101 
 7479              	.LASF15:
ARM GAS  C:\Users\tmj32\AppData\Local\Temp\cctNeIsL.s 			page 149


 7480 0000 696E7438 		.ascii	"int8_t\000"
 7480      5F7400
 7481              	.LASF131:
 7482 0007 636F6C6F 		.ascii	"color_chroma_key\000"
 7482      725F6368 
 7482      726F6D61 
 7482      5F6B6579 
 7482      00
 7483              	.LASF100:
 7484 0018 6C765F6C 		.ascii	"lv_ll_node_t\000"
 7484      6C5F6E6F 
 7484      64655F74 
 7484      00
 7485              	.LASF23:
 7486 0025 6164765F 		.ascii	"adv_w\000"
 7486      7700
 7487              	.LASF326:
 7488 002b 68656164 		.ascii	"header_pr\000"
 7488      65725F70 
 7488      7200
 7489              	.LASF42:
 7490 0035 73697A65 		.ascii	"sizetype\000"
 7490      74797065 
 7490      00
 7491              	.LASF56:
 7492 003e 73746172 		.ascii	"start\000"
 7492      7400
 7493              	.LASF39:
 7494 0044 6C765F63 		.ascii	"lv_color32_t\000"
 7494      6F6C6F72 
 7494      33325F74 
 7494      00
 7495              	.LASF333:
 7496 0051 63656C6C 		.ascii	"cell\000"
 7496      00
 7497              	.LASF47:
 7498 0056 4C565F41 		.ascii	"LV_ANIM_ON\000"
 7498      4E494D5F 
 7498      4F4E00
 7499              	.LASF312:
 7500 0061 4C565F54 		.ascii	"LV_TILEVIEW_STYLE_MAIN\000"
 7500      494C4556 
 7500      4945575F 
 7500      5354594C 
 7500      455F4D41 
 7501              	.LASF103:
 7502 0078 7461696C 		.ascii	"tail\000"
 7502      00
 7503              	.LASF239:
 7504 007d 4C565F53 		.ascii	"LV_SIGNAL_STYLE_CHG\000"
 7504      49474E41 
 7504      4C5F5354 
 7504      594C455F 
 7504      43484700 
 7505              	.LASF137:
 7506 0091 6163745F 		.ascii	"act_scr\000"
 7506      73637200 
ARM GAS  C:\Users\tmj32\AppData\Local\Temp\cctNeIsL.s 			page 150


 7507              	.LASF63:
 7508 0099 72657065 		.ascii	"repeat\000"
 7508      617400
 7509              	.LASF41:
 7510 00a0 6C765F6F 		.ascii	"lv_opa_t\000"
 7510      70615F74 
 7510      00
 7511              	.LASF19:
 7512 00a9 696E7433 		.ascii	"int32_t\000"
 7512      325F7400 
 7513              	.LASF89:
 7514 00b1 696E7465 		.ascii	"intense\000"
 7514      6E736500 
 7515              	.LASF300:
 7516 00b9 4C565F50 		.ascii	"LV_PAGE_STYLE_EDGE_FLASH\000"
 7516      4147455F 
 7516      5354594C 
 7516      455F4544 
 7516      47455F46 
 7517              	.LASF228:
 7518 00d2 4C565F45 		.ascii	"LV_EVENT_INSERT\000"
 7518      56454E54 
 7518      5F494E53 
 7518      45525400 
 7519              	.LASF44:
 7520 00e2 6C765F70 		.ascii	"lv_point_t\000"
 7520      6F696E74 
 7520      5F7400
 7521              	.LASF340:
 7522 00ed 6C6D6574 		.ascii	"lmeter\000"
 7522      657200
 7523              	.LASF247:
 7524 00f4 4C565F53 		.ascii	"LV_SIGNAL_LONG_PRESS\000"
 7524      49474E41 
 7524      4C5F4C4F 
 7524      4E475F50 
 7524      52455353 
 7525              	.LASF81:
 7526 0109 72616469 		.ascii	"radius\000"
 7526      757300
 7527              	.LASF264:
 7528 0110 6C765F72 		.ascii	"lv_reailgn_t\000"
 7528      6561696C 
 7528      676E5F74 
 7528      00
 7529              	.LASF31:
 7530 011d 6C696E65 		.ascii	"line_height\000"
 7530      5F686569 
 7530      67687400 
 7531              	.LASF54:
 7532 0129 70617468 		.ascii	"path_cb\000"
 7532      5F636200 
 7533              	.LASF152:
 7534 0131 636C6963 		.ascii	"click\000"
 7534      6B00
 7535              	.LASF257:
 7536 0137 6C765F61 		.ascii	"lv_align_t\000"
ARM GAS  C:\Users\tmj32\AppData\Local\Temp\cctNeIsL.s 			page 151


 7536      6C69676E 
 7536      5F7400
 7537              	.LASF249:
 7538 0142 4C565F53 		.ascii	"LV_SIGNAL_DRAG_BEGIN\000"
 7538      49474E41 
 7538      4C5F4452 
 7538      41475F42 
 7538      4547494E 
 7539              	.LASF328:
 7540 0157 68696768 		.ascii	"highlighted_days\000"
 7540      6C696768 
 7540      7465645F 
 7540      64617973 
 7540      00
 7541              	.LASF374:
 7542 0168 7369676E 		.ascii	"sign\000"
 7542      00
 7543              	.LASF233:
 7544 016d 6C765F65 		.ascii	"lv_event_t\000"
 7544      76656E74 
 7544      5F7400
 7545              	.LASF365:
 7546 0178 74696C65 		.ascii	"tile_id\000"
 7546      5F696400 
 7547              	.LASF171:
 7548 0180 73746174 		.ascii	"state\000"
 7548      6500
 7549              	.LASF290:
 7550 0186 6C656674 		.ascii	"left_ip\000"
 7550      5F697000 
 7551              	.LASF387:
 7552 018e 7365745F 		.ascii	"set_valid_drag_dirs\000"
 7552      76616C69 
 7552      645F6472 
 7552      61675F64 
 7552      69727300 
 7553              	.LASF97:
 7554 01a2 4C565F52 		.ascii	"LV_RES_INV\000"
 7554      45535F49 
 7554      4E5600
 7555              	.LASF243:
 7556 01ad 4C565F53 		.ascii	"LV_SIGNAL_PRESSED\000"
 7556      49474E41 
 7556      4C5F5052 
 7556      45535345 
 7556      4400
 7557              	.LASF74:
 7558 01bf 74797065 		.ascii	"type\000"
 7558      00
 7559              	.LASF217:
 7560 01c4 4C565F45 		.ascii	"LV_EVENT_LONG_PRESSED\000"
 7560      56454E54 
 7560      5F4C4F4E 
 7560      475F5052 
 7560      45535345 
 7561              	.LASF384:
 7562 01da 785F6D6F 		.ascii	"x_move\000"
ARM GAS  C:\Users\tmj32\AppData\Local\Temp\cctNeIsL.s 			page 152


 7562      766500
 7563              	.LASF267:
 7564 01e1 4C565F46 		.ascii	"LV_FIT_NONE\000"
 7564      49545F4E 
 7564      4F4E4500 
 7565              	.LASF385:
 7566 01ed 795F6D6F 		.ascii	"y_move\000"
 7566      766500
 7567              	.LASF284:
 7568 01f4 7665725F 		.ascii	"ver_draw\000"
 7568      64726177 
 7568      00
 7569              	.LASF318:
 7570 01fd 6C696768 		.ascii	"light\000"
 7570      7400
 7571              	.LASF173:
 7572 0203 5F6C765F 		.ascii	"_lv_indev_drv_t\000"
 7572      696E6465 
 7572      765F6472 
 7572      765F7400 
 7573              	.LASF336:
 7574 0213 636F6E74 		.ascii	"cont\000"
 7574      00
 7575              	.LASF361:
 7576 0218 6C765F74 		.ascii	"lv_tileview_add_element\000"
 7576      696C6576 
 7576      6965775F 
 7576      6164645F 
 7576      656C656D 
 7577              	.LASF316:
 7578 0230 7072696D 		.ascii	"prim\000"
 7578      00
 7579              	.LASF112:
 7580 0235 7072696F 		.ascii	"prio\000"
 7580      00
 7581              	.LASF136:
 7582 023a 7363725F 		.ascii	"scr_ll\000"
 7582      6C6C00
 7583              	.LASF303:
 7584 0241 76616C69 		.ascii	"valid_pos_cnt\000"
 7584      645F706F 
 7584      735F636E 
 7584      7400
 7585              	.LASF168:
 7586 024f 706F696E 		.ascii	"point\000"
 7586      7400
 7587              	.LASF1:
 7588 0255 5F5F7569 		.ascii	"__uint8_t\000"
 7588      6E74385F 
 7588      7400
 7589              	.LASF37:
 7590 025f 616C7068 		.ascii	"alpha\000"
 7590      6100
 7591              	.LASF124:
 7592 0265 7665725F 		.ascii	"ver_res\000"
 7592      72657300 
 7593              	.LASF371:
ARM GAS  C:\Users\tmj32\AppData\Local\Temp\cctNeIsL.s 			page 153


 7594 026d 6C765F74 		.ascii	"lv_tileview_set_style\000"
 7594      696C6576 
 7594      6965775F 
 7594      7365745F 
 7594      7374796C 
 7595              	.LASF205:
 7596 0283 5F6C765F 		.ascii	"_lv_indev_t\000"
 7596      696E6465 
 7596      765F7400 
 7597              	.LASF369:
 7598 028f 785F6163 		.ascii	"x_act\000"
 7598      7400
 7599              	.LASF156:
 7600 0295 68696464 		.ascii	"hidden\000"
 7600      656E00
 7601              	.LASF60:
 7602 029c 72657065 		.ascii	"repeat_pause\000"
 7602      61745F70 
 7602      61757365 
 7602      00
 7603              	.LASF143:
 7604 02a9 6C617374 		.ascii	"last_activity_time\000"
 7604      5F616374 
 7604      69766974 
 7604      795F7469 
 7604      6D6500
 7605              	.LASF9:
 7606 02bc 6C6F6E67 		.ascii	"long int\000"
 7606      20696E74 
 7606      00
 7607              	.LASF135:
 7608 02c5 72656672 		.ascii	"refr_task\000"
 7608      5F746173 
 7608      6B00
 7609              	.LASF126:
 7610 02cf 726F7461 		.ascii	"rotated\000"
 7610      74656400 
 7611              	.LASF192:
 7612 02d7 6C617374 		.ascii	"last_state\000"
 7612      5F737461 
 7612      746500
 7613              	.LASF368:
 7614 02e2 795F636F 		.ascii	"y_coord\000"
 7614      6F726400 
 7615              	.LASF352:
 7616 02ea 74696C65 		.ascii	"tileview\000"
 7616      76696577 
 7616      00
 7617              	.LASF357:
 7618 02f3 636F7079 		.ascii	"copy\000"
 7618      00
 7619              	.LASF102:
 7620 02f8 68656164 		.ascii	"head\000"
 7620      00
 7621              	.LASF174:
 7622 02fd 72656164 		.ascii	"read_cb\000"
 7622      5F636200 
ARM GAS  C:\Users\tmj32\AppData\Local\Temp\cctNeIsL.s 			page 154


 7623              	.LASF343:
 7624 0305 63686172 		.ascii	"chart\000"
 7624      7400
 7625              	.LASF189:
 7626 030b 6C617374 		.ascii	"last_pressed\000"
 7626      5F707265 
 7626      73736564 
 7626      00
 7627              	.LASF345:
 7628 0318 62746E6D 		.ascii	"btnm\000"
 7628      00
 7629              	.LASF294:
 7630 031d 7363726F 		.ascii	"scroll_prop\000"
 7630      6C6C5F70 
 7630      726F7000 
 7631              	.LASF386:
 7632 0329 70726564 		.ascii	"predict\000"
 7632      69637400 
 7633              	.LASF129:
 7634 0331 7365745F 		.ascii	"set_px_cb\000"
 7634      70785F63 
 7634      6200
 7635              	.LASF2:
 7636 033b 7369676E 		.ascii	"signed char\000"
 7636      65642063 
 7636      68617200 
 7637              	.LASF16:
 7638 0347 75696E74 		.ascii	"uint8_t\000"
 7638      385F7400 
 7639              	.LASF123:
 7640 034f 686F725F 		.ascii	"hor_res\000"
 7640      72657300 
 7641              	.LASF306:
 7642 0357 64726167 		.ascii	"drag_bottom_en\000"
 7642      5F626F74 
 7642      746F6D5F 
 7642      656E00
 7643              	.LASF315:
 7644 0366 74676C5F 		.ascii	"tgl_pr\000"
 7644      707200
 7645              	.LASF46:
 7646 036d 4C565F41 		.ascii	"LV_ANIM_OFF\000"
 7646      4E494D5F 
 7646      4F464600 
 7647              	.LASF276:
 7648 0379 6669745F 		.ascii	"fit_top\000"
 7648      746F7000 
 7649              	.LASF30:
 7650 0381 6765745F 		.ascii	"get_glyph_bitmap\000"
 7650      676C7970 
 7650      685F6269 
 7650      746D6170 
 7650      00
 7651              	.LASF291:
 7652 0392 7363726C 		.ascii	"scrl\000"
 7652      00
 7653              	.LASF35:
ARM GAS  C:\Users\tmj32\AppData\Local\Temp\cctNeIsL.s 			page 155


 7654 0397 626C7565 		.ascii	"blue\000"
 7654      00
 7655              	.LASF248:
 7656 039c 4C565F53 		.ascii	"LV_SIGNAL_LONG_PRESS_REP\000"
 7656      49474E41 
 7656      4C5F4C4F 
 7656      4E475F50 
 7656      52455353 
 7657              	.LASF311:
 7658 03b5 6C765F74 		.ascii	"lv_tileview_ext_t\000"
 7658      696C6576 
 7658      6965775F 
 7658      6578745F 
 7658      7400
 7659              	.LASF3:
 7660 03c7 756E7369 		.ascii	"unsigned char\000"
 7660      676E6564 
 7660      20636861 
 7660      7200
 7661              	.LASF138:
 7662 03d5 746F705F 		.ascii	"top_layer\000"
 7662      6C617965 
 7662      7200
 7663              	.LASF241:
 7664 03df 4C565F53 		.ascii	"LV_SIGNAL_REFR_EXT_DRAW_PAD\000"
 7664      49474E41 
 7664      4C5F5245 
 7664      46525F45 
 7664      58545F44 
 7665              	.LASF159:
 7666 03fb 64726167 		.ascii	"drag_dir\000"
 7666      5F646972 
 7666      00
 7667              	.LASF309:
 7668 0404 64726167 		.ascii	"drag_hor\000"
 7668      5F686F72 
 7668      00
 7669              	.LASF110:
 7670 040d 7461736B 		.ascii	"task_cb\000"
 7670      5F636200 
 7671              	.LASF356:
 7672 0415 6C765F70 		.ascii	"lv_page_set_scrl_fit\000"
 7672      6167655F 
 7672      7365745F 
 7672      7363726C 
 7672      5F666974 
 7673              	.LASF324:
 7674 042a 6B6E6F62 		.ascii	"knob_on\000"
 7674      5F6F6E00 
 7675              	.LASF26:
 7676 0432 6F66735F 		.ascii	"ofs_x\000"
 7676      7800
 7677              	.LASF27:
 7678 0438 6F66735F 		.ascii	"ofs_y\000"
 7678      7900
 7679              	.LASF325:
 7680 043e 68656164 		.ascii	"header\000"
ARM GAS  C:\Users\tmj32\AppData\Local\Temp\cctNeIsL.s 			page 156


 7680      657200
 7681              	.LASF33:
 7682 0445 5F426F6F 		.ascii	"_Bool\000"
 7682      6C00
 7683              	.LASF256:
 7684 044b 6C765F73 		.ascii	"lv_signal_cb_t\000"
 7684      69676E61 
 7684      6C5F6362 
 7684      5F7400
 7685              	.LASF353:
 7686 045a 7461626C 		.ascii	"table\000"
 7686      6500
 7687              	.LASF141:
 7688 0460 696E765F 		.ascii	"inv_area_joined\000"
 7688      61726561 
 7688      5F6A6F69 
 7688      6E656400 
 7689              	.LASF296:
 7690 0470 6C765F70 		.ascii	"lv_page_ext_t\000"
 7690      6167655F 
 7690      6578745F 
 7690      7400
 7691              	.LASF43:
 7692 047e 63686172 		.ascii	"char\000"
 7692      00
 7693              	.LASF169:
 7694 0483 62746E5F 		.ascii	"btn_id\000"
 7694      696400
 7695              	.LASF50:
 7696 048a 6C765F61 		.ascii	"lv_anim_exec_xcb_t\000"
 7696      6E696D5F 
 7696      65786563 
 7696      5F786362 
 7696      5F7400
 7697              	.LASF92:
 7698 049d 626F6479 		.ascii	"body\000"
 7698      00
 7699              	.LASF293:
 7700 04a2 616E696D 		.ascii	"anim_time\000"
 7700      5F74696D 
 7700      6500
 7701              	.LASF186:
 7702 04ac 64726167 		.ascii	"drag_throw_vect\000"
 7702      5F746872 
 7702      6F775F76 
 7702      65637400 
 7703              	.LASF107:
 7704 04bc 5F6C765F 		.ascii	"_lv_task_t\000"
 7704      7461736B 
 7704      5F7400
 7705              	.LASF6:
 7706 04c7 5F5F7569 		.ascii	"__uint16_t\000"
 7706      6E743136 
 7706      5F7400
 7707              	.LASF330:
 7708 04d2 7765656B 		.ascii	"week_box\000"
 7708      5F626F78 
ARM GAS  C:\Users\tmj32\AppData\Local\Temp\cctNeIsL.s 			page 157


 7708      00
 7709              	.LASF49:
 7710 04db 6C765F61 		.ascii	"lv_anim_value_t\000"
 7710      6E696D5F 
 7710      76616C75 
 7710      655F7400 
 7711              	.LASF206:
 7712 04eb 70726F63 		.ascii	"proc\000"
 7712      00
 7713              	.LASF149:
 7714 04f0 64657369 		.ascii	"design_cb\000"
 7714      676E5F63 
 7714      6200
 7715              	.LASF120:
 7716 04fa 666C7573 		.ascii	"flushing\000"
 7716      68696E67 
 7716      00
 7717              	.LASF389:
 7718 0503 616E6365 		.ascii	"ancestor_scrl_signal\000"
 7718      73746F72 
 7718      5F736372 
 7718      6C5F7369 
 7718      676E616C 
 7719              	.LASF252:
 7720 0518 4C565F53 		.ascii	"LV_SIGNAL_DEFOCUS\000"
 7720      49474E41 
 7720      4C5F4445 
 7720      464F4355 
 7720      5300
 7721              	.LASF225:
 7722 052a 4C565F45 		.ascii	"LV_EVENT_FOCUSED\000"
 7722      56454E54 
 7722      5F464F43 
 7722      55534544 
 7722      00
 7723              	.LASF349:
 7724 053b 64646C69 		.ascii	"ddlist\000"
 7724      737400
 7725              	.LASF55:
 7726 0542 72656164 		.ascii	"ready_cb\000"
 7726      795F6362 
 7726      00
 7727              	.LASF93:
 7728 054b 74657874 		.ascii	"text\000"
 7728      00
 7729              	.LASF194:
 7730 0550 706F696E 		.ascii	"pointer\000"
 7730      74657200 
 7731              	.LASF221:
 7732 0558 4C565F45 		.ascii	"LV_EVENT_DRAG_BEGIN\000"
 7732      56454E54 
 7732      5F445241 
 7732      475F4245 
 7732      47494E00 
 7733              	.LASF94:
 7734 056c 696D6167 		.ascii	"image\000"
 7734      6500
ARM GAS  C:\Users\tmj32\AppData\Local\Temp\cctNeIsL.s 			page 158


 7735              	.LASF90:
 7736 0572 726F756E 		.ascii	"rounded\000"
 7736      64656400 
 7737              	.LASF154:
 7738 057a 64726167 		.ascii	"drag_throw\000"
 7738      5F746872 
 7738      6F7700
 7739              	.LASF167:
 7740 0585 6C765F69 		.ascii	"lv_indev_state_t\000"
 7740      6E646576 
 7740      5F737461 
 7740      74655F74 
 7740      00
 7741              	.LASF105:
 7742 0596 6C765F62 		.ascii	"lv_bidi_dir_t\000"
 7742      6964695F 
 7742      6469725F 
 7742      7400
 7743              	.LASF164:
 7744 05a4 6578745F 		.ascii	"ext_draw_pad\000"
 7744      64726177 
 7744      5F706164 
 7744      00
 7745              	.LASF180:
 7746 05b1 6C6F6E67 		.ascii	"long_press_rep_time\000"
 7746      5F707265 
 7746      73735F72 
 7746      65705F74 
 7746      696D6500 
 7747              	.LASF45:
 7748 05c5 6C765F61 		.ascii	"lv_area_t\000"
 7748      7265615F 
 7748      7400
 7749              	.LASF125:
 7750 05cf 62756666 		.ascii	"buffer\000"
 7750      657200
 7751              	.LASF299:
 7752 05d6 4C565F50 		.ascii	"LV_PAGE_STYLE_SB\000"
 7752      4147455F 
 7752      5354594C 
 7752      455F5342 
 7752      00
 7753              	.LASF219:
 7754 05e7 4C565F45 		.ascii	"LV_EVENT_CLICKED\000"
 7754      56454E54 
 7754      5F434C49 
 7754      434B4544 
 7754      00
 7755              	.LASF283:
 7756 05f8 686F725F 		.ascii	"hor_draw\000"
 7756      64726177 
 7756      00
 7757              	.LASF383:
 7758 0601 706F696E 		.ascii	"point_act\000"
 7758      745F6163 
 7758      7400
 7759              	.LASF76:
ARM GAS  C:\Users\tmj32\AppData\Local\Temp\cctNeIsL.s 			page 159


 7760 060b 6C656674 		.ascii	"left\000"
 7760      00
 7761              	.LASF354:
 7762 0610 6C765F74 		.ascii	"lv_theme_t\000"
 7762      68656D65 
 7762      5F7400
 7763              	.LASF67:
 7764 061b 6C765F61 		.ascii	"lv_anim_ready_cb_t\000"
 7764      6E696D5F 
 7764      72656164 
 7764      795F6362 
 7764      5F7400
 7765              	.LASF230:
 7766 062e 4C565F45 		.ascii	"LV_EVENT_APPLY\000"
 7766      56454E54 
 7766      5F415050 
 7766      4C5900
 7767              	.LASF165:
 7768 063d 7265616C 		.ascii	"realign\000"
 7768      69676E00 
 7769              	.LASF223:
 7770 0645 4C565F45 		.ascii	"LV_EVENT_DRAG_THROW_BEGIN\000"
 7770      56454E54 
 7770      5F445241 
 7770      475F5448 
 7770      524F575F 
 7771              	.LASF210:
 7772 065f 6C765F69 		.ascii	"lv_indev_t\000"
 7772      6E646576 
 7772      5F7400
 7773              	.LASF209:
 7774 066a 62746E5F 		.ascii	"btn_points\000"
 7774      706F696E 
 7774      747300
 7775              	.LASF242:
 7776 0675 4C565F53 		.ascii	"LV_SIGNAL_GET_TYPE\000"
 7776      49474E41 
 7776      4C5F4745 
 7776      545F5459 
 7776      504500
 7777              	.LASF203:
 7778 0688 77616974 		.ascii	"wait_until_release\000"
 7778      5F756E74 
 7778      696C5F72 
 7778      656C6561 
 7778      736500
 7779              	.LASF119:
 7780 069b 61726561 		.ascii	"area\000"
 7780      00
 7781              	.LASF295:
 7782 06a0 7363726F 		.ascii	"scroll_prop_ip\000"
 7782      6C6C5F70 
 7782      726F705F 
 7782      697000
 7783              	.LASF193:
 7784 06af 6C617374 		.ascii	"last_key\000"
 7784      5F6B6579 
ARM GAS  C:\Users\tmj32\AppData\Local\Temp\cctNeIsL.s 			page 160


 7784      00
 7785              	.LASF286:
 7786 06b8 656E6162 		.ascii	"enabled\000"
 7786      6C656400 
 7787              	.LASF96:
 7788 06c0 6C765F73 		.ascii	"lv_style_t\000"
 7788      74796C65 
 7788      5F7400
 7789              	.LASF78:
 7790 06cb 696E6E65 		.ascii	"inner\000"
 7790      7200
 7791              	.LASF202:
 7792 06d1 64697361 		.ascii	"disabled\000"
 7792      626C6564 
 7792      00
 7793              	.LASF68:
 7794 06da 6C765F61 		.ascii	"lv_anim_t\000"
 7794      6E696D5F 
 7794      7400
 7795              	.LASF269:
 7796 06e4 4C565F46 		.ascii	"LV_FIT_FLOOD\000"
 7796      49545F46 
 7796      4C4F4F44 
 7796      00
 7797              	.LASF11:
 7798 06f1 6C6F6E67 		.ascii	"long unsigned int\000"
 7798      20756E73 
 7798      69676E65 
 7798      6420696E 
 7798      7400
 7799              	.LASF317:
 7800 0703 68696E74 		.ascii	"hint\000"
 7800      00
 7801              	.LASF375:
 7802 0708 70617261 		.ascii	"param\000"
 7802      6D00
 7803              	.LASF380:
 7804 070e 74696C65 		.ascii	"tileview_scrl_event_cb\000"
 7804      76696577 
 7804      5F736372 
 7804      6C5F6576 
 7804      656E745F 
 7805              	.LASF95:
 7806 0725 6C696E65 		.ascii	"line\000"
 7806      00
 7807              	.LASF251:
 7808 072a 4C565F53 		.ascii	"LV_SIGNAL_FOCUS\000"
 7808      49474E41 
 7808      4C5F464F 
 7808      43555300 
 7809              	.LASF339:
 7810 073a 736C6964 		.ascii	"slider\000"
 7810      657200
 7811              	.LASF229:
 7812 0741 4C565F45 		.ascii	"LV_EVENT_REFRESH\000"
 7812      56454E54 
 7812      5F524546 
ARM GAS  C:\Users\tmj32\AppData\Local\Temp\cctNeIsL.s 			page 161


 7812      52455348 
 7812      00
 7813              	.LASF48:
 7814 0752 6C765F61 		.ascii	"lv_anim_enable_t\000"
 7814      6E696D5F 
 7814      656E6162 
 7814      6C655F74 
 7814      00
 7815              	.LASF122:
 7816 0763 5F646973 		.ascii	"_disp_drv_t\000"
 7816      705F6472 
 7816      765F7400 
 7817              	.LASF208:
 7818 076f 67726F75 		.ascii	"group\000"
 7818      7000
 7819              	.LASF182:
 7820 0775 6163745F 		.ascii	"act_point\000"
 7820      706F696E 
 7820      7400
 7821              	.LASF188:
 7822 077f 6C617374 		.ascii	"last_obj\000"
 7822      5F6F626A 
 7822      00
 7823              	.LASF166:
 7824 0788 6C765F69 		.ascii	"lv_indev_type_t\000"
 7824      6E646576 
 7824      5F747970 
 7824      655F7400 
 7825              	.LASF254:
 7826 0798 4C565F53 		.ascii	"LV_SIGNAL_GET_EDITABLE\000"
 7826      49474E41 
 7826      4C5F4745 
 7826      545F4544 
 7826      49544142 
 7827              	.LASF373:
 7828 07af 6C765F74 		.ascii	"lv_tileview_get_style\000"
 7828      696C6576 
 7828      6965775F 
 7828      6765745F 
 7828      7374796C 
 7829              	.LASF332:
 7830 07c5 6F6E656C 		.ascii	"oneline\000"
 7830      696E6500 
 7831              	.LASF121:
 7832 07cd 6C765F64 		.ascii	"lv_disp_buf_t\000"
 7832      6973705F 
 7832      6275665F 
 7832      7400
 7833              	.LASF362:
 7834 07db 6C765F74 		.ascii	"lv_tileview_set_valid_positions\000"
 7834      696C6576 
 7834      6965775F 
 7834      7365745F 
 7834      76616C69 
 7835              	.LASF10:
 7836 07fb 5F5F7569 		.ascii	"__uint32_t\000"
 7836      6E743332 
ARM GAS  C:\Users\tmj32\AppData\Local\Temp\cctNeIsL.s 			page 162


 7836      5F7400
 7837              	.LASF147:
 7838 0806 6576656E 		.ascii	"event_cb\000"
 7838      745F6362 
 7838      00
 7839              	.LASF307:
 7840 080f 64726167 		.ascii	"drag_left_en\000"
 7840      5F6C6566 
 7840      745F656E 
 7840      00
 7841              	.LASF77:
 7842 081c 72696768 		.ascii	"right\000"
 7842      7400
 7843              	.LASF151:
 7844 0822 7374796C 		.ascii	"style_p\000"
 7844      655F7000 
 7845              	.LASF12:
 7846 082a 6C6F6E67 		.ascii	"long long int\000"
 7846      206C6F6E 
 7846      6720696E 
 7846      7400
 7847              	.LASF393:
 7848 0838 433A5C55 		.ascii	"C:\\Users\\tmj32\\Documents\\TCNJ\\Senior_Project\\"
 7848      73657273 
 7848      5C746D6A 
 7848      33325C44 
 7848      6F63756D 
 7849 0865 4F736369 		.ascii	"Oscilloscope_Senior_Project\\tcom_engineering\\embe"
 7849      6C6C6F73 
 7849      636F7065 
 7849      5F53656E 
 7849      696F725F 
 7850 0896 645F7377 		.ascii	"d_sw\\tcom_app\\tcom_app_psoc6_lvgl6\\tcom_displ_te"
 7850      5C74636F 
 7850      6D5F6170 
 7850      705C7463 
 7850      6F6D5F61 
 7851 08c6 73745F70 		.ascii	"st_psoc6.cydsn\000"
 7851      736F6336 
 7851      2E637964 
 7851      736E00
 7852              	.LASF72:
 7853 08d5 77696474 		.ascii	"width\000"
 7853      6800
 7854              	.LASF253:
 7855 08db 4C565F53 		.ascii	"LV_SIGNAL_CONTROL\000"
 7855      49474E41 
 7855      4C5F434F 
 7855      4E54524F 
 7855      4C00
 7856              	.LASF75:
 7857 08ed 626F7474 		.ascii	"bottom\000"
 7857      6F6D00
 7858              	.LASF145:
 7859 08f4 6368696C 		.ascii	"child_ll\000"
 7859      645F6C6C 
 7859      00
ARM GAS  C:\Users\tmj32\AppData\Local\Temp\cctNeIsL.s 			page 163


 7860              	.LASF321:
 7861 08fd 696E6469 		.ascii	"indic\000"
 7861      6300
 7862              	.LASF162:
 7863 0903 70726F74 		.ascii	"protect\000"
 7863      65637400 
 7864              	.LASF115:
 7865 090b 62756631 		.ascii	"buf1\000"
 7865      00
 7866              	.LASF116:
 7867 0910 62756632 		.ascii	"buf2\000"
 7867      00
 7868              	.LASF183:
 7869 0915 6C617374 		.ascii	"last_point\000"
 7869      5F706F69 
 7869      6E7400
 7870              	.LASF187:
 7871 0920 6163745F 		.ascii	"act_obj\000"
 7871      6F626A00 
 7872              	.LASF382:
 7873 0928 64726167 		.ascii	"drag_end_handler\000"
 7873      5F656E64 
 7873      5F68616E 
 7873      646C6572 
 7873      00
 7874              	.LASF273:
 7875 0939 6C61796F 		.ascii	"layout\000"
 7875      757400
 7876              	.LASF351:
 7877 0940 74616276 		.ascii	"tabview\000"
 7877      69657700 
 7878              	.LASF158:
 7879 0948 70617265 		.ascii	"parent_event\000"
 7879      6E745F65 
 7879      76656E74 
 7879      00
 7880              	.LASF235:
 7881 0955 4C565F53 		.ascii	"LV_SIGNAL_CLEANUP\000"
 7881      49474E41 
 7881      4C5F434C 
 7881      45414E55 
 7881      5000
 7882              	.LASF261:
 7883 0967 616C6967 		.ascii	"align\000"
 7883      6E00
 7884              	.LASF376:
 7885 096d 6C765F74 		.ascii	"lv_tileview_signal\000"
 7885      696C6576 
 7885      6965775F 
 7885      7369676E 
 7885      616C00
 7886              	.LASF91:
 7887 0980 676C6173 		.ascii	"glass\000"
 7887      7300
 7888              	.LASF381:
 7889 0986 6576656E 		.ascii	"event\000"
 7889      7400
ARM GAS  C:\Users\tmj32\AppData\Local\Temp\cctNeIsL.s 			page 164


 7890              	.LASF232:
 7891 098c 4C565F45 		.ascii	"LV_EVENT_DELETE\000"
 7891      56454E54 
 7891      5F44454C 
 7891      45544500 
 7892              	.LASF278:
 7893 099c 6C765F63 		.ascii	"lv_cont_ext_t\000"
 7893      6F6E745F 
 7893      6578745F 
 7893      7400
 7894              	.LASF14:
 7895 09aa 756E7369 		.ascii	"unsigned int\000"
 7895      676E6564 
 7895      20696E74 
 7895      00
 7896              	.LASF236:
 7897 09b7 4C565F53 		.ascii	"LV_SIGNAL_CHILD_CHG\000"
 7897      49474E41 
 7897      4C5F4348 
 7897      494C445F 
 7897      43484700 
 7898              	.LASF66:
 7899 09cb 6C765F61 		.ascii	"lv_anim_path_cb_t\000"
 7899      6E696D5F 
 7899      70617468 
 7899      5F63625F 
 7899      7400
 7900              	.LASF176:
 7901 09dd 64697370 		.ascii	"disp\000"
 7901      00
 7902              	.LASF346:
 7903 09e2 6D626F78 		.ascii	"mbox\000"
 7903      00
 7904              	.LASF170:
 7905 09e7 656E635F 		.ascii	"enc_diff\000"
 7905      64696666 
 7905      00
 7906              	.LASF314:
 7907 09f0 74676C5F 		.ascii	"tgl_rel\000"
 7907      72656C00 
 7908              	.LASF378:
 7909 09f8 7374796C 		.ascii	"style_bg\000"
 7909      655F6267 
 7909      00
 7910              	.LASF227:
 7911 0a01 4C565F45 		.ascii	"LV_EVENT_VALUE_CHANGED\000"
 7911      56454E54 
 7911      5F56414C 
 7911      55455F43 
 7911      48414E47 
 7912              	.LASF140:
 7913 0a18 696E765F 		.ascii	"inv_areas\000"
 7913      61726561 
 7913      7300
 7914              	.LASF262:
 7915 0a22 6175746F 		.ascii	"auto_realign\000"
 7915      5F726561 
ARM GAS  C:\Users\tmj32\AppData\Local\Temp\cctNeIsL.s 			page 165


 7915      6C69676E 
 7915      00
 7916              	.LASF113:
 7917 0a2f 6F6E6365 		.ascii	"once\000"
 7917      00
 7918              	.LASF355:
 7919 0a34 6C765F63 		.ascii	"lv_cont_set_fit\000"
 7919      6F6E745F 
 7919      7365745F 
 7919      66697400 
 7920              	.LASF28:
 7921 0a44 6C765F66 		.ascii	"lv_font_glyph_dsc_t\000"
 7921      6F6E745F 
 7921      676C7970 
 7921      685F6473 
 7921      635F7400 
 7922              	.LASF348:
 7923 0a58 6C697374 		.ascii	"list\000"
 7923      00
 7924              	.LASF80:
 7925 0a5d 67726164 		.ascii	"grad_color\000"
 7925      5F636F6C 
 7925      6F7200
 7926              	.LASF274:
 7927 0a68 6669745F 		.ascii	"fit_left\000"
 7927      6C656674 
 7927      00
 7928              	.LASF214:
 7929 0a71 4C565F45 		.ascii	"LV_EVENT_PRESSING\000"
 7929      56454E54 
 7929      5F505245 
 7929      5353494E 
 7929      4700
 7930              	.LASF301:
 7931 0a83 70616765 		.ascii	"page\000"
 7931      00
 7932              	.LASF133:
 7933 0a88 5F646973 		.ascii	"_disp_t\000"
 7933      705F7400 
 7934              	.LASF323:
 7935 0a90 6B6E6F62 		.ascii	"knob_off\000"
 7935      5F6F6666 
 7935      00
 7936              	.LASF341:
 7937 0a99 67617567 		.ascii	"gauge\000"
 7937      6500
 7938              	.LASF244:
 7939 0a9f 4C565F53 		.ascii	"LV_SIGNAL_PRESSING\000"
 7939      49474E41 
 7939      4C5F5052 
 7939      45535349 
 7939      4E4700
 7940              	.LASF216:
 7941 0ab2 4C565F45 		.ascii	"LV_EVENT_SHORT_CLICKED\000"
 7941      56454E54 
 7941      5F53484F 
 7941      52545F43 
ARM GAS  C:\Users\tmj32\AppData\Local\Temp\cctNeIsL.s 			page 166


 7941      4C49434B 
 7942              	.LASF218:
 7943 0ac9 4C565F45 		.ascii	"LV_EVENT_LONG_PRESSED_REPEAT\000"
 7943      56454E54 
 7943      5F4C4F4E 
 7943      475F5052 
 7943      45535345 
 7944              	.LASF99:
 7945 0ae6 6C765F72 		.ascii	"lv_res_t\000"
 7945      65735F74 
 7945      00
 7946              	.LASF117:
 7947 0aef 6275665F 		.ascii	"buf_act\000"
 7947      61637400 
 7948              	.LASF22:
 7949 0af7 6C6F6E67 		.ascii	"long double\000"
 7949      20646F75 
 7949      626C6500 
 7950              	.LASF118:
 7951 0b03 73697A65 		.ascii	"size\000"
 7951      00
 7952              	.LASF280:
 7953 0b08 7374796C 		.ascii	"style\000"
 7953      6500
 7954              	.LASF184:
 7955 0b0e 76656374 		.ascii	"vect\000"
 7955      00
 7956              	.LASF150:
 7957 0b13 6578745F 		.ascii	"ext_attr\000"
 7957      61747472 
 7957      00
 7958              	.LASF185:
 7959 0b1c 64726167 		.ascii	"drag_sum\000"
 7959      5F73756D 
 7959      00
 7960              	.LASF344:
 7961 0b25 63616C65 		.ascii	"calendar\000"
 7961      6E646172 
 7961      00
 7962              	.LASF198:
 7963 0b2e 70725F74 		.ascii	"pr_timestamp\000"
 7963      696D6573 
 7963      74616D70 
 7963      00
 7964              	.LASF211:
 7965 0b3b 6C765F64 		.ascii	"lv_design_mode_t\000"
 7965      65736967 
 7965      6E5F6D6F 
 7965      64655F74 
 7965      00
 7966              	.LASF61:
 7967 0b4c 73756270 		.ascii	"subpx\000"
 7967      7800
 7968              	.LASF222:
 7969 0b52 4C565F45 		.ascii	"LV_EVENT_DRAG_END\000"
 7969      56454E54 
 7969      5F445241 
ARM GAS  C:\Users\tmj32\AppData\Local\Temp\cctNeIsL.s 			page 167


 7969      475F454E 
 7969      4400
 7970              	.LASF177:
 7971 0b64 72656164 		.ascii	"read_task\000"
 7971      5F746173 
 7971      6B00
 7972              	.LASF245:
 7973 0b6e 4C565F53 		.ascii	"LV_SIGNAL_PRESS_LOST\000"
 7973      49474E41 
 7973      4C5F5052 
 7973      4553535F 
 7973      4C4F5354 
 7974              	.LASF175:
 7975 0b83 66656564 		.ascii	"feedback_cb\000"
 7975      6261636B 
 7975      5F636200 
 7976              	.LASF372:
 7977 0b8f 6C765F74 		.ascii	"lv_tileview_create\000"
 7977      696C6576 
 7977      6965775F 
 7977      63726561 
 7977      746500
 7978              	.LASF250:
 7979 0ba2 4C565F53 		.ascii	"LV_SIGNAL_DRAG_END\000"
 7979      49474E41 
 7979      4C5F4452 
 7979      41475F45 
 7979      4E4400
 7980              	.LASF213:
 7981 0bb5 4C565F45 		.ascii	"LV_EVENT_PRESSED\000"
 7981      56454E54 
 7981      5F505245 
 7981      53534544 
 7981      00
 7982              	.LASF238:
 7983 0bc6 4C565F53 		.ascii	"LV_SIGNAL_PARENT_SIZE_CHG\000"
 7983      49474E41 
 7983      4C5F5041 
 7983      52454E54 
 7983      5F53495A 
 7984              	.LASF231:
 7985 0be0 4C565F45 		.ascii	"LV_EVENT_CANCEL\000"
 7985      56454E54 
 7985      5F43414E 
 7985      43454C00 
 7986              	.LASF360:
 7987 0bf0 656C656D 		.ascii	"element\000"
 7987      656E7400 
 7988              	.LASF246:
 7989 0bf8 4C565F53 		.ascii	"LV_SIGNAL_RELEASED\000"
 7989      49474E41 
 7989      4C5F5245 
 7989      4C454153 
 7989      454400
 7990              	.LASF79:
 7991 0c0b 6D61696E 		.ascii	"main_color\000"
 7991      5F636F6C 
ARM GAS  C:\Users\tmj32\AppData\Local\Temp\cctNeIsL.s 			page 168


 7991      6F7200
 7992              	.LASF0:
 7993 0c16 5F5F696E 		.ascii	"__int8_t\000"
 7993      74385F74 
 7993      00
 7994              	.LASF196:
 7995 0c1f 5F6C765F 		.ascii	"_lv_indev_proc_t\000"
 7995      696E6465 
 7995      765F7072 
 7995      6F635F74 
 7995      00
 7996              	.LASF255:
 7997 0c30 6C765F73 		.ascii	"lv_signal_t\000"
 7997      69676E61 
 7997      6C5F7400 
 7998              	.LASF65:
 7999 0c3c 6861735F 		.ascii	"has_run\000"
 7999      72756E00 
 8000              	.LASF179:
 8001 0c44 6C6F6E67 		.ascii	"long_press_time\000"
 8001      5F707265 
 8001      73735F74 
 8001      696D6500 
 8002              	.LASF13:
 8003 0c54 6C6F6E67 		.ascii	"long long unsigned int\000"
 8003      206C6F6E 
 8003      6720756E 
 8003      7369676E 
 8003      65642069 
 8004              	.LASF18:
 8005 0c6b 75696E74 		.ascii	"uint16_t\000"
 8005      31365F74 
 8005      00
 8006              	.LASF98:
 8007 0c74 4C565F52 		.ascii	"LV_RES_OK\000"
 8007      45535F4F 
 8007      4B00
 8008              	.LASF109:
 8009 0c7e 6C617374 		.ascii	"last_run\000"
 8009      5F72756E 
 8009      00
 8010              	.LASF282:
 8011 0c87 7665725F 		.ascii	"ver_area\000"
 8011      61726561 
 8011      00
 8012              	.LASF329:
 8013 0c90 696E6163 		.ascii	"inactive_days\000"
 8013      74697665 
 8013      5F646179 
 8013      7300
 8014              	.LASF40:
 8015 0c9e 6C765F63 		.ascii	"lv_color_t\000"
 8015      6F6C6F72 
 8015      5F7400
 8016              	.LASF388:
 8017 0ca9 616E6365 		.ascii	"ancestor_signal\000"
 8017      73746F72 
ARM GAS  C:\Users\tmj32\AppData\Local\Temp\cctNeIsL.s 			page 169


 8017      5F736967 
 8017      6E616C00 
 8018              	.LASF260:
 8019 0cb9 796F6673 		.ascii	"yofs\000"
 8019      00
 8020              	.LASF201:
 8021 0cbe 72657365 		.ascii	"reset_query\000"
 8021      745F7175 
 8021      65727900 
 8022              	.LASF114:
 8023 0cca 6C765F74 		.ascii	"lv_task_t\000"
 8023      61736B5F 
 8023      7400
 8024              	.LASF272:
 8025 0cd4 6C765F66 		.ascii	"lv_fit_t\000"
 8025      69745F74 
 8025      00
 8026              	.LASF364:
 8027 0cdd 616E696D 		.ascii	"anim\000"
 8027      00
 8028              	.LASF390:
 8029 0ce2 616E6365 		.ascii	"ancestor_design\000"
 8029      73746F72 
 8029      5F646573 
 8029      69676E00 
 8030              	.LASF53:
 8031 0cf2 65786563 		.ascii	"exec_cb\000"
 8031      5F636200 
 8032              	.LASF310:
 8033 0cfa 64726167 		.ascii	"drag_ver\000"
 8033      5F766572 
 8033      00
 8034              	.LASF277:
 8035 0d03 6669745F 		.ascii	"fit_bottom\000"
 8035      626F7474 
 8035      6F6D00
 8036              	.LASF298:
 8037 0d0e 4C565F50 		.ascii	"LV_PAGE_STYLE_SCRL\000"
 8037      4147455F 
 8037      5354594C 
 8037      455F5343 
 8037      524C00
 8038              	.LASF391:
 8039 0d21 474E5520 		.ascii	"GNU C11 5.4.1 20160609 (release) [ARM/embedded-5-br"
 8039      43313120 
 8039      352E342E 
 8039      31203230 
 8039      31363036 
 8040 0d54 616E6368 		.ascii	"anch revision 237715] -mcpu=cortex-m4 -mfloat-abi=s"
 8040      20726576 
 8040      6973696F 
 8040      6E203233 
 8040      37373135 
 8041 0d87 6F667466 		.ascii	"oftfp -mfpu=fpv4-sp-d16 -mthumb -g -O0 -ffunction-s"
 8041      70202D6D 
 8041      6670753D 
 8041      66707634 
ARM GAS  C:\Users\tmj32\AppData\Local\Temp\cctNeIsL.s 			page 170


 8041      2D73702D 
 8042 0dba 65637469 		.ascii	"ections -ffat-lto-objects\000"
 8042      6F6E7320 
 8042      2D666661 
 8042      742D6C74 
 8042      6F2D6F62 
 8043              	.LASF108:
 8044 0dd4 70657269 		.ascii	"period\000"
 8044      6F6400
 8045              	.LASF128:
 8046 0ddb 726F756E 		.ascii	"rounder_cb\000"
 8046      6465725F 
 8046      636200
 8047              	.LASF320:
 8048 0de6 6465636F 		.ascii	"decor\000"
 8048      7200
 8049              	.LASF337:
 8050 0dec 696D6762 		.ascii	"imgbtn\000"
 8050      746E00
 8051              	.LASF4:
 8052 0df3 5F5F696E 		.ascii	"__int16_t\000"
 8052      7431365F 
 8052      7400
 8053              	.LASF199:
 8054 0dfd 6C6F6E67 		.ascii	"longpr_rep_timestamp\000"
 8054      70725F72 
 8054      65705F74 
 8054      696D6573 
 8054      74616D70 
 8055              	.LASF335:
 8056 0e12 70616E65 		.ascii	"panel\000"
 8056      6C00
 8057              	.LASF191:
 8058 0e18 64726167 		.ascii	"drag_in_prog\000"
 8058      5F696E5F 
 8058      70726F67 
 8058      00
 8059              	.LASF358:
 8060 0e25 6E65775F 		.ascii	"new_tileview\000"
 8060      74696C65 
 8060      76696577 
 8060      00
 8061              	.LASF331:
 8062 0e32 746F6461 		.ascii	"today_box\000"
 8062      795F626F 
 8062      7800
 8063              	.LASF38:
 8064 0e3c 66756C6C 		.ascii	"full\000"
 8064      00
 8065              	.LASF287:
 8066 0e41 746F705F 		.ascii	"top_ip\000"
 8066      697000
 8067              	.LASF71:
 8068 0e48 636F6C6F 		.ascii	"color\000"
 8068      7200
 8069              	.LASF57:
 8070 0e4e 74696D65 		.ascii	"time\000"
ARM GAS  C:\Users\tmj32\AppData\Local\Temp\cctNeIsL.s 			page 171


 8070      00
 8071              	.LASF190:
 8072 0e53 64726167 		.ascii	"drag_limit_out\000"
 8072      5F6C696D 
 8072      69745F6F 
 8072      757400
 8073              	.LASF88:
 8074 0e62 6C696E65 		.ascii	"line_space\000"
 8074      5F737061 
 8074      636500
 8075              	.LASF259:
 8076 0e6d 786F6673 		.ascii	"xofs\000"
 8076      00
 8077              	.LASF275:
 8078 0e72 6669745F 		.ascii	"fit_right\000"
 8078      72696768 
 8078      7400
 8079              	.LASF271:
 8080 0e7c 5F4C565F 		.ascii	"_LV_FIT_NUM\000"
 8080      4649545F 
 8080      4E554D00 
 8081              	.LASF266:
 8082 0e88 6C765F6F 		.ascii	"lv_obj_t\000"
 8082      626A5F74 
 8082      00
 8083              	.LASF70:
 8084 0e91 6C765F73 		.ascii	"lv_shadow_type_t\000"
 8084      6861646F 
 8084      775F7479 
 8084      70655F74 
 8084      00
 8085              	.LASF153:
 8086 0ea2 64726167 		.ascii	"drag\000"
 8086      00
 8087              	.LASF270:
 8088 0ea7 4C565F46 		.ascii	"LV_FIT_FILL\000"
 8088      49545F46 
 8088      494C4C00 
 8089              	.LASF302:
 8090 0eb3 76616C69 		.ascii	"valid_pos\000"
 8090      645F706F 
 8090      7300
 8091              	.LASF144:
 8092 0ebd 5F6C765F 		.ascii	"_lv_obj_t\000"
 8092      6F626A5F 
 8092      7400
 8093              	.LASF86:
 8094 0ec7 666F6E74 		.ascii	"font\000"
 8094      00
 8095              	.LASF87:
 8096 0ecc 6C657474 		.ascii	"letter_space\000"
 8096      65725F73 
 8096      70616365 
 8096      00
 8097              	.LASF134:
 8098 0ed9 64726976 		.ascii	"driver\000"
 8098      657200
ARM GAS  C:\Users\tmj32\AppData\Local\Temp\cctNeIsL.s 			page 172


 8099              	.LASF160:
 8100 0ee0 62617365 		.ascii	"base_dir\000"
 8100      5F646972 
 8100      00
 8101              	.LASF289:
 8102 0ee9 72696768 		.ascii	"right_ip\000"
 8102      745F6970 
 8102      00
 8103              	.LASF288:
 8104 0ef2 626F7474 		.ascii	"bottom_ip\000"
 8104      6F6D5F69 
 8104      7000
 8105              	.LASF25:
 8106 0efc 626F785F 		.ascii	"box_h\000"
 8106      6800
 8107              	.LASF297:
 8108 0f02 4C565F50 		.ascii	"LV_PAGE_STYLE_BG\000"
 8108      4147455F 
 8108      5354594C 
 8108      455F4247 
 8108      00
 8109              	.LASF258:
 8110 0f13 62617365 		.ascii	"base\000"
 8110      00
 8111              	.LASF24:
 8112 0f18 626F785F 		.ascii	"box_w\000"
 8112      7700
 8113              	.LASF5:
 8114 0f1e 73686F72 		.ascii	"short int\000"
 8114      7420696E 
 8114      7400
 8115              	.LASF62:
 8116 0f28 706C6179 		.ascii	"playback\000"
 8116      6261636B 
 8116      00
 8117              	.LASF32:
 8118 0f31 62617365 		.ascii	"base_line\000"
 8118      5F6C696E 
 8118      6500
 8119              	.LASF142:
 8120 0f3b 696E765F 		.ascii	"inv_p\000"
 8120      7000
 8121              	.LASF104:
 8122 0f41 6C765F6C 		.ascii	"lv_ll_t\000"
 8122      6C5F7400 
 8123              	.LASF285:
 8124 0f49 6D6F6465 		.ascii	"mode\000"
 8124      00
 8125              	.LASF195:
 8126 0f4e 6B657970 		.ascii	"keypad\000"
 8126      616400
 8127              	.LASF17:
 8128 0f55 696E7431 		.ascii	"int16_t\000"
 8128      365F7400 
 8129              	.LASF237:
 8130 0f5d 4C565F53 		.ascii	"LV_SIGNAL_CORD_CHG\000"
 8130      49474E41 
ARM GAS  C:\Users\tmj32\AppData\Local\Temp\cctNeIsL.s 			page 173


 8130      4C5F434F 
 8130      52445F43 
 8130      484700
 8131              	.LASF395:
 8132 0f70 6C765F73 		.ascii	"lv_style_transp_tight\000"
 8132      74796C65 
 8132      5F747261 
 8132      6E73705F 
 8132      74696768 
 8133              	.LASF146:
 8134 0f86 636F6F72 		.ascii	"coords\000"
 8134      647300
 8135              	.LASF379:
 8136 0f8d 696E6465 		.ascii	"indev\000"
 8136      7600
 8137              	.LASF367:
 8138 0f93 785F636F 		.ascii	"x_coord\000"
 8138      6F726400 
 8139              	.LASF139:
 8140 0f9b 7379735F 		.ascii	"sys_layer\000"
 8140      6C617965 
 8140      7200
 8141              	.LASF347:
 8142 0fa5 7370696E 		.ascii	"spinbox\000"
 8142      626F7800 
 8143              	.LASF157:
 8144 0fad 6F70615F 		.ascii	"opa_scale_en\000"
 8144      7363616C 
 8144      655F656E 
 8144      00
 8145              	.LASF327:
 8146 0fba 6461795F 		.ascii	"day_names\000"
 8146      6E616D65 
 8146      7300
 8147              	.LASF83:
 8148 0fc4 73686164 		.ascii	"shadow\000"
 8148      6F7700
 8149              	.LASF204:
 8150 0fcb 6C765F69 		.ascii	"lv_indev_proc_t\000"
 8150      6E646576 
 8150      5F70726F 
 8150      635F7400 
 8151              	.LASF226:
 8152 0fdb 4C565F45 		.ascii	"LV_EVENT_DEFOCUSED\000"
 8152      56454E54 
 8152      5F444546 
 8152      4F435553 
 8152      454400
 8153              	.LASF366:
 8154 0fee 76616C69 		.ascii	"valid\000"
 8154      6400
 8155              	.LASF155:
 8156 0ff4 64726167 		.ascii	"drag_parent\000"
 8156      5F706172 
 8156      656E7400 
 8157              	.LASF313:
 8158 1000 6C765F74 		.ascii	"lv_tileview_style_t\000"
ARM GAS  C:\Users\tmj32\AppData\Local\Temp\cctNeIsL.s 			page 174


 8158      696C6576 
 8158      6965775F 
 8158      7374796C 
 8158      655F7400 
 8159              	.LASF181:
 8160 1014 6C765F69 		.ascii	"lv_indev_drv_t\000"
 8160      6E646576 
 8160      5F647276 
 8160      5F7400
 8161              	.LASF240:
 8162 1023 4C565F53 		.ascii	"LV_SIGNAL_BASE_DIR_CHG\000"
 8162      49474E41 
 8162      4C5F4241 
 8162      53455F44 
 8162      49525F43 
 8163              	.LASF58:
 8164 103a 6163745F 		.ascii	"act_time\000"
 8164      74696D65 
 8164      00
 8165              	.LASF178:
 8166 1043 64726167 		.ascii	"drag_limit\000"
 8166      5F6C696D 
 8166      697400
 8167              	.LASF132:
 8168 104e 6C765F64 		.ascii	"lv_disp_drv_t\000"
 8168      6973705F 
 8168      6472765F 
 8168      7400
 8169              	.LASF359:
 8170 105c 636F7079 		.ascii	"copy_ext\000"
 8170      5F657874 
 8170      00
 8171              	.LASF334:
 8172 1065 636F6E74 		.ascii	"content\000"
 8172      656E7400 
 8173              	.LASF84:
 8174 106d 70616464 		.ascii	"padding\000"
 8174      696E6700 
 8175              	.LASF268:
 8176 1075 4C565F46 		.ascii	"LV_FIT_TIGHT\000"
 8176      49545F54 
 8176      49474854 
 8176      00
 8177              	.LASF148:
 8178 1082 7369676E 		.ascii	"signal_cb\000"
 8178      616C5F63 
 8178      6200
 8179              	.LASF20:
 8180 108c 75696E74 		.ascii	"uint32_t\000"
 8180      33325F74 
 8180      00
 8181              	.LASF392:
 8182 1095 2E2E5C2E 		.ascii	"..\\..\\..\\lvgl\\version_6.1.2\\lvgl\\src\\lv_objx"
 8182      2E5C2E2E 
 8182      5C6C7667 
 8182      6C5C7665 
 8182      7273696F 
ARM GAS  C:\Users\tmj32\AppData\Local\Temp\cctNeIsL.s 			page 175


 8183 10c1 5C6C765F 		.ascii	"\\lv_tileview.c\000"
 8183      74696C65 
 8183      76696577 
 8183      2E6300
 8184              	.LASF308:
 8185 10d0 64726167 		.ascii	"drag_right_en\000"
 8185      5F726967 
 8185      68745F65 
 8185      6E00
 8186              	.LASF59:
 8187 10de 706C6179 		.ascii	"playback_pause\000"
 8187      6261636B 
 8187      5F706175 
 8187      736500
 8188              	.LASF319:
 8189 10ed 6461726B 		.ascii	"dark\000"
 8189      00
 8190              	.LASF36:
 8191 10f2 67726565 		.ascii	"green\000"
 8191      6E00
 8192              	.LASF34:
 8193 10f8 6C765F66 		.ascii	"lv_font_t\000"
 8193      6F6E745F 
 8193      7400
 8194              	.LASF161:
 8195 1102 72657365 		.ascii	"reserved\000"
 8195      72766564 
 8195      00
 8196              	.LASF130:
 8197 110b 6D6F6E69 		.ascii	"monitor_cb\000"
 8197      746F725F 
 8197      636200
 8198              	.LASF7:
 8199 1116 73686F72 		.ascii	"short unsigned int\000"
 8199      7420756E 
 8199      7369676E 
 8199      65642069 
 8199      6E7400
 8200              	.LASF363:
 8201 1129 6C765F74 		.ascii	"lv_tileview_set_tile_act\000"
 8201      696C6576 
 8201      6965775F 
 8201      7365745F 
 8201      74696C65 
 8202              	.LASF279:
 8203 1142 6C765F73 		.ascii	"lv_sb_mode_t\000"
 8203      625F6D6F 
 8203      64655F74 
 8203      00
 8204              	.LASF73:
 8205 114f 70617274 		.ascii	"part\000"
 8205      00
 8206              	.LASF224:
 8207 1154 4C565F45 		.ascii	"LV_EVENT_KEY\000"
 8207      56454E54 
 8207      5F4B4559 
 8207      00
ARM GAS  C:\Users\tmj32\AppData\Local\Temp\cctNeIsL.s 			page 176


 8208              	.LASF21:
 8209 1161 6C765F63 		.ascii	"lv_coord_t\000"
 8209      6F6F7264 
 8209      5F7400
 8210              	.LASF172:
 8211 116c 6C765F69 		.ascii	"lv_indev_data_t\000"
 8211      6E646576 
 8211      5F646174 
 8211      615F7400 
 8212              	.LASF127:
 8213 117c 666C7573 		.ascii	"flush_cb\000"
 8213      685F6362 
 8213      00
 8214              	.LASF111:
 8215 1185 75736572 		.ascii	"user_data\000"
 8215      5F646174 
 8215      6100
 8216              	.LASF215:
 8217 118f 4C565F45 		.ascii	"LV_EVENT_PRESS_LOST\000"
 8217      56454E54 
 8217      5F505245 
 8217      53535F4C 
 8217      4F535400 
 8218              	.LASF64:
 8219 11a3 706C6179 		.ascii	"playback_now\000"
 8219      6261636B 
 8219      5F6E6F77 
 8219      00
 8220              	.LASF377:
 8221 11b0 6C765F74 		.ascii	"lv_tileview_scrl_signal\000"
 8221      696C6576 
 8221      6965775F 
 8221      7363726C 
 8221      5F736967 
 8222              	.LASF82:
 8223 11c8 626F7264 		.ascii	"border\000"
 8223      657200
 8224              	.LASF338:
 8225 11cf 6C616265 		.ascii	"label\000"
 8225      6C00
 8226              	.LASF29:
 8227 11d5 6765745F 		.ascii	"get_glyph_dsc\000"
 8227      676C7970 
 8227      685F6473 
 8227      6300
 8228              	.LASF8:
 8229 11e3 5F5F696E 		.ascii	"__int32_t\000"
 8229      7433325F 
 8229      7400
 8230              	.LASF265:
 8231 11ed 6C765F64 		.ascii	"lv_drag_dir_t\000"
 8231      7261675F 
 8231      6469725F 
 8231      7400
 8232              	.LASF69:
 8233 11fb 6C765F62 		.ascii	"lv_border_part_t\000"
 8233      6F726465 
ARM GAS  C:\Users\tmj32\AppData\Local\Temp\cctNeIsL.s 			page 177


 8233      725F7061 
 8233      72745F74 
 8233      00
 8234              	.LASF200:
 8235 120c 6C6F6E67 		.ascii	"long_pr_sent\000"
 8235      5F70725F 
 8235      73656E74 
 8235      00
 8236              	.LASF234:
 8237 1219 6C765F65 		.ascii	"lv_event_cb_t\000"
 8237      76656E74 
 8237      5F63625F 
 8237      7400
 8238              	.LASF342:
 8239 1227 7072656C 		.ascii	"preload\000"
 8239      6F616400 
 8240              	.LASF263:
 8241 122f 6F726967 		.ascii	"origo_align\000"
 8241      6F5F616C 
 8241      69676E00 
 8242              	.LASF322:
 8243 123b 6B6E6F62 		.ascii	"knob\000"
 8243      00
 8244              	.LASF305:
 8245 1240 64726167 		.ascii	"drag_top_en\000"
 8245      5F746F70 
 8245      5F656E00 
 8246              	.LASF281:
 8247 124c 686F725F 		.ascii	"hor_area\000"
 8247      61726561 
 8247      00
 8248              	.LASF85:
 8249 1255 73656C5F 		.ascii	"sel_color\000"
 8249      636F6C6F 
 8249      7200
 8250              	.LASF106:
 8251 125f 6C765F74 		.ascii	"lv_task_cb_t\000"
 8251      61736B5F 
 8251      63625F74 
 8251      00
 8252              	.LASF51:
 8253 126c 5F6C765F 		.ascii	"_lv_font_struct\000"
 8253      666F6E74 
 8253      5F737472 
 8253      75637400 
 8254              	.LASF197:
 8255 127c 74797065 		.ascii	"types\000"
 8255      7300
 8256              	.LASF52:
 8257 1282 5F6C765F 		.ascii	"_lv_anim_t\000"
 8257      616E696D 
 8257      5F7400
 8258              	.LASF370:
 8259 128d 795F6163 		.ascii	"y_act\000"
 8259      7400
 8260              	.LASF101:
 8261 1293 6E5F7369 		.ascii	"n_size\000"
ARM GAS  C:\Users\tmj32\AppData\Local\Temp\cctNeIsL.s 			page 178


 8261      7A6500
 8262              	.LASF207:
 8263 129a 63757273 		.ascii	"cursor\000"
 8263      6F7200
 8264              	.LASF394:
 8265 12a1 5F6C765F 		.ascii	"_lv_group_t\000"
 8265      67726F75 
 8265      705F7400 
 8266              	.LASF220:
 8267 12ad 4C565F45 		.ascii	"LV_EVENT_RELEASED\000"
 8267      56454E54 
 8267      5F52454C 
 8267      45415345 
 8267      4400
 8268              	.LASF212:
 8269 12bf 6C765F64 		.ascii	"lv_design_cb_t\000"
 8269      65736967 
 8269      6E5F6362 
 8269      5F7400
 8270              	.LASF292:
 8271 12ce 65646765 		.ascii	"edge_flash\000"
 8271      5F666C61 
 8271      736800
 8272              	.LASF304:
 8273 12d9 6163745F 		.ascii	"act_id\000"
 8273      696400
 8274              	.LASF163:
 8275 12e0 6F70615F 		.ascii	"opa_scale\000"
 8275      7363616C 
 8275      6500
 8276              	.LASF350:
 8277 12ea 726F6C6C 		.ascii	"roller\000"
 8277      657200
 8278              		.ident	"GCC: (GNU Tools for ARM Embedded Processors) 5.4.1 20160609 (release) [ARM/embedded-5-bran
