ARM GAS  C:\Users\tmj32\AppData\Local\Temp\ccI3WYuM.s 			page 1


   1              		.syntax unified
   2              		.cpu cortex-m4
   3              		.eabi_attribute 27, 1
   4              		.fpu fpv4-sp-d16
   5              		.eabi_attribute 20, 1
   6              		.eabi_attribute 21, 1
   7              		.eabi_attribute 23, 3
   8              		.eabi_attribute 24, 1
   9              		.eabi_attribute 25, 1
  10              		.eabi_attribute 26, 1
  11              		.eabi_attribute 30, 6
  12              		.eabi_attribute 34, 1
  13              		.eabi_attribute 18, 4
  14              		.thumb
  15              		.syntax unified
  16              		.file	"lv_ta.c"
  17              		.text
  18              	.Ltext0:
  19              		.cfi_sections	.debug_frame
  20              		.section	.text.lv_font_get_line_height,"ax",%progbits
  21              		.align	2
  22              		.thumb
  23              		.thumb_func
  24              		.type	lv_font_get_line_height, %function
  25              	lv_font_get_line_height:
  26              	.LFB0:
  27              		.file 1 "..\\..\\..\\lvgl\\version_6.1.2\\lvgl\\src\\lv_objx\\../lv_core/../lv_font/lv_font.h"
   1:..\..\..\lvgl\version_6.1.2\lvgl\src\lv_objx\../lv_core/../lv_font/lv_font.h **** /**
   2:..\..\..\lvgl\version_6.1.2\lvgl\src\lv_objx\../lv_core/../lv_font/lv_font.h ****  * @file lv_font.h
   3:..\..\..\lvgl\version_6.1.2\lvgl\src\lv_objx\../lv_core/../lv_font/lv_font.h ****  *
   4:..\..\..\lvgl\version_6.1.2\lvgl\src\lv_objx\../lv_core/../lv_font/lv_font.h ****  */
   5:..\..\..\lvgl\version_6.1.2\lvgl\src\lv_objx\../lv_core/../lv_font/lv_font.h **** 
   6:..\..\..\lvgl\version_6.1.2\lvgl\src\lv_objx\../lv_core/../lv_font/lv_font.h **** #ifndef LV_FONT_H
   7:..\..\..\lvgl\version_6.1.2\lvgl\src\lv_objx\../lv_core/../lv_font/lv_font.h **** #define LV_FONT_H
   8:..\..\..\lvgl\version_6.1.2\lvgl\src\lv_objx\../lv_core/../lv_font/lv_font.h **** 
   9:..\..\..\lvgl\version_6.1.2\lvgl\src\lv_objx\../lv_core/../lv_font/lv_font.h **** #ifdef __cplusplus
  10:..\..\..\lvgl\version_6.1.2\lvgl\src\lv_objx\../lv_core/../lv_font/lv_font.h **** extern "C" {
  11:..\..\..\lvgl\version_6.1.2\lvgl\src\lv_objx\../lv_core/../lv_font/lv_font.h **** #endif
  12:..\..\..\lvgl\version_6.1.2\lvgl\src\lv_objx\../lv_core/../lv_font/lv_font.h **** 
  13:..\..\..\lvgl\version_6.1.2\lvgl\src\lv_objx\../lv_core/../lv_font/lv_font.h **** /*********************
  14:..\..\..\lvgl\version_6.1.2\lvgl\src\lv_objx\../lv_core/../lv_font/lv_font.h ****  *      INCLUDES
  15:..\..\..\lvgl\version_6.1.2\lvgl\src\lv_objx\../lv_core/../lv_font/lv_font.h ****  *********************/
  16:..\..\..\lvgl\version_6.1.2\lvgl\src\lv_objx\../lv_core/../lv_font/lv_font.h **** #ifdef LV_CONF_INCLUDE_SIMPLE
  17:..\..\..\lvgl\version_6.1.2\lvgl\src\lv_objx\../lv_core/../lv_font/lv_font.h **** #include "lv_conf.h"
  18:..\..\..\lvgl\version_6.1.2\lvgl\src\lv_objx\../lv_core/../lv_font/lv_font.h **** #else
  19:..\..\..\lvgl\version_6.1.2\lvgl\src\lv_objx\../lv_core/../lv_font/lv_font.h **** #include "../../../lv_conf.h"
  20:..\..\..\lvgl\version_6.1.2\lvgl\src\lv_objx\../lv_core/../lv_font/lv_font.h **** #endif
  21:..\..\..\lvgl\version_6.1.2\lvgl\src\lv_objx\../lv_core/../lv_font/lv_font.h **** 
  22:..\..\..\lvgl\version_6.1.2\lvgl\src\lv_objx\../lv_core/../lv_font/lv_font.h **** #include <stdint.h>
  23:..\..\..\lvgl\version_6.1.2\lvgl\src\lv_objx\../lv_core/../lv_font/lv_font.h **** #include <stddef.h>
  24:..\..\..\lvgl\version_6.1.2\lvgl\src\lv_objx\../lv_core/../lv_font/lv_font.h **** #include <stdbool.h>
  25:..\..\..\lvgl\version_6.1.2\lvgl\src\lv_objx\../lv_core/../lv_font/lv_font.h **** 
  26:..\..\..\lvgl\version_6.1.2\lvgl\src\lv_objx\../lv_core/../lv_font/lv_font.h **** #include "lv_symbol_def.h"
  27:..\..\..\lvgl\version_6.1.2\lvgl\src\lv_objx\../lv_core/../lv_font/lv_font.h **** 
  28:..\..\..\lvgl\version_6.1.2\lvgl\src\lv_objx\../lv_core/../lv_font/lv_font.h **** /*********************
  29:..\..\..\lvgl\version_6.1.2\lvgl\src\lv_objx\../lv_core/../lv_font/lv_font.h ****  *      DEFINES
  30:..\..\..\lvgl\version_6.1.2\lvgl\src\lv_objx\../lv_core/../lv_font/lv_font.h ****  *********************/
ARM GAS  C:\Users\tmj32\AppData\Local\Temp\ccI3WYuM.s 			page 2


  31:..\..\..\lvgl\version_6.1.2\lvgl\src\lv_objx\../lv_core/../lv_font/lv_font.h **** /*Number of fractional digits in the advanced width (`adv_w`) field of `lv_font_glyph_dsc_t`*/
  32:..\..\..\lvgl\version_6.1.2\lvgl\src\lv_objx\../lv_core/../lv_font/lv_font.h **** #define LV_FONT_WIDTH_FRACT_DIGIT       4
  33:..\..\..\lvgl\version_6.1.2\lvgl\src\lv_objx\../lv_core/../lv_font/lv_font.h **** 
  34:..\..\..\lvgl\version_6.1.2\lvgl\src\lv_objx\../lv_core/../lv_font/lv_font.h **** #define LV_FONT_KERN_POSITIVE        0
  35:..\..\..\lvgl\version_6.1.2\lvgl\src\lv_objx\../lv_core/../lv_font/lv_font.h **** #define LV_FONT_KERN_NEGATIVE        1
  36:..\..\..\lvgl\version_6.1.2\lvgl\src\lv_objx\../lv_core/../lv_font/lv_font.h **** 
  37:..\..\..\lvgl\version_6.1.2\lvgl\src\lv_objx\../lv_core/../lv_font/lv_font.h **** /**********************
  38:..\..\..\lvgl\version_6.1.2\lvgl\src\lv_objx\../lv_core/../lv_font/lv_font.h ****  *      TYPEDEFS
  39:..\..\..\lvgl\version_6.1.2\lvgl\src\lv_objx\../lv_core/../lv_font/lv_font.h ****  **********************/
  40:..\..\..\lvgl\version_6.1.2\lvgl\src\lv_objx\../lv_core/../lv_font/lv_font.h **** 
  41:..\..\..\lvgl\version_6.1.2\lvgl\src\lv_objx\../lv_core/../lv_font/lv_font.h **** /*------------------
  42:..\..\..\lvgl\version_6.1.2\lvgl\src\lv_objx\../lv_core/../lv_font/lv_font.h ****  * General types
  43:..\..\..\lvgl\version_6.1.2\lvgl\src\lv_objx\../lv_core/../lv_font/lv_font.h ****  *-----------------*/
  44:..\..\..\lvgl\version_6.1.2\lvgl\src\lv_objx\../lv_core/../lv_font/lv_font.h **** 
  45:..\..\..\lvgl\version_6.1.2\lvgl\src\lv_objx\../lv_core/../lv_font/lv_font.h **** /** Describes the properties of a glyph. */
  46:..\..\..\lvgl\version_6.1.2\lvgl\src\lv_objx\../lv_core/../lv_font/lv_font.h **** typedef struct
  47:..\..\..\lvgl\version_6.1.2\lvgl\src\lv_objx\../lv_core/../lv_font/lv_font.h **** {
  48:..\..\..\lvgl\version_6.1.2\lvgl\src\lv_objx\../lv_core/../lv_font/lv_font.h ****     uint16_t adv_w; /**< The glyph needs this space. Draw the next glyph after this width. 8 bit in
  49:..\..\..\lvgl\version_6.1.2\lvgl\src\lv_objx\../lv_core/../lv_font/lv_font.h ****     uint8_t box_w;  /**< Width of the glyph's bounding box*/
  50:..\..\..\lvgl\version_6.1.2\lvgl\src\lv_objx\../lv_core/../lv_font/lv_font.h ****     uint8_t box_h;  /**< Height of the glyph's bounding box*/
  51:..\..\..\lvgl\version_6.1.2\lvgl\src\lv_objx\../lv_core/../lv_font/lv_font.h ****     int8_t ofs_x;   /**< x offset of the bounding box*/
  52:..\..\..\lvgl\version_6.1.2\lvgl\src\lv_objx\../lv_core/../lv_font/lv_font.h ****     int8_t ofs_y;  /**< y offset of the bounding box*/
  53:..\..\..\lvgl\version_6.1.2\lvgl\src\lv_objx\../lv_core/../lv_font/lv_font.h ****     uint8_t bpp;   /**< Bit-per-pixel: 1, 2, 4, 8*/
  54:..\..\..\lvgl\version_6.1.2\lvgl\src\lv_objx\../lv_core/../lv_font/lv_font.h **** }lv_font_glyph_dsc_t;
  55:..\..\..\lvgl\version_6.1.2\lvgl\src\lv_objx\../lv_core/../lv_font/lv_font.h **** 
  56:..\..\..\lvgl\version_6.1.2\lvgl\src\lv_objx\../lv_core/../lv_font/lv_font.h **** 
  57:..\..\..\lvgl\version_6.1.2\lvgl\src\lv_objx\../lv_core/../lv_font/lv_font.h **** /** The bitmaps might be upscaled by 3 to achieve subpixel rendering. */
  58:..\..\..\lvgl\version_6.1.2\lvgl\src\lv_objx\../lv_core/../lv_font/lv_font.h **** enum {
  59:..\..\..\lvgl\version_6.1.2\lvgl\src\lv_objx\../lv_core/../lv_font/lv_font.h ****     LV_FONT_SUBPX_NONE,
  60:..\..\..\lvgl\version_6.1.2\lvgl\src\lv_objx\../lv_core/../lv_font/lv_font.h ****     LV_FONT_SUBPX_HOR,
  61:..\..\..\lvgl\version_6.1.2\lvgl\src\lv_objx\../lv_core/../lv_font/lv_font.h ****     LV_FONT_SUBPX_VER,
  62:..\..\..\lvgl\version_6.1.2\lvgl\src\lv_objx\../lv_core/../lv_font/lv_font.h ****     LV_FONT_SUBPX_BOTH,
  63:..\..\..\lvgl\version_6.1.2\lvgl\src\lv_objx\../lv_core/../lv_font/lv_font.h **** };
  64:..\..\..\lvgl\version_6.1.2\lvgl\src\lv_objx\../lv_core/../lv_font/lv_font.h **** 
  65:..\..\..\lvgl\version_6.1.2\lvgl\src\lv_objx\../lv_core/../lv_font/lv_font.h **** typedef uint8_t lv_font_subpx_t;
  66:..\..\..\lvgl\version_6.1.2\lvgl\src\lv_objx\../lv_core/../lv_font/lv_font.h **** 
  67:..\..\..\lvgl\version_6.1.2\lvgl\src\lv_objx\../lv_core/../lv_font/lv_font.h **** /** Describe the properties of a font*/
  68:..\..\..\lvgl\version_6.1.2\lvgl\src\lv_objx\../lv_core/../lv_font/lv_font.h **** typedef struct _lv_font_struct
  69:..\..\..\lvgl\version_6.1.2\lvgl\src\lv_objx\../lv_core/../lv_font/lv_font.h **** {
  70:..\..\..\lvgl\version_6.1.2\lvgl\src\lv_objx\../lv_core/../lv_font/lv_font.h ****     /** Get a glyph's  descriptor from a font*/
  71:..\..\..\lvgl\version_6.1.2\lvgl\src\lv_objx\../lv_core/../lv_font/lv_font.h ****     bool (*get_glyph_dsc)(const struct _lv_font_struct *, lv_font_glyph_dsc_t *, uint32_t letter, u
  72:..\..\..\lvgl\version_6.1.2\lvgl\src\lv_objx\../lv_core/../lv_font/lv_font.h **** 
  73:..\..\..\lvgl\version_6.1.2\lvgl\src\lv_objx\../lv_core/../lv_font/lv_font.h ****     /** Get a glyph's bitmap from a font*/
  74:..\..\..\lvgl\version_6.1.2\lvgl\src\lv_objx\../lv_core/../lv_font/lv_font.h ****     const uint8_t * (*get_glyph_bitmap)(const struct _lv_font_struct *, uint32_t);
  75:..\..\..\lvgl\version_6.1.2\lvgl\src\lv_objx\../lv_core/../lv_font/lv_font.h **** 
  76:..\..\..\lvgl\version_6.1.2\lvgl\src\lv_objx\../lv_core/../lv_font/lv_font.h ****     /*Pointer to the font in a font pack (must have the same line height)*/
  77:..\..\..\lvgl\version_6.1.2\lvgl\src\lv_objx\../lv_core/../lv_font/lv_font.h ****     uint8_t line_height;      /**< The real line height where any text fits*/
  78:..\..\..\lvgl\version_6.1.2\lvgl\src\lv_objx\../lv_core/../lv_font/lv_font.h ****     int8_t base_line;        /**< Base line measured from the top of the line_height*/
  79:..\..\..\lvgl\version_6.1.2\lvgl\src\lv_objx\../lv_core/../lv_font/lv_font.h ****     uint8_t subpx  :2;        /**< An element of `lv_font_subpx_t`*/
  80:..\..\..\lvgl\version_6.1.2\lvgl\src\lv_objx\../lv_core/../lv_font/lv_font.h ****     void * dsc;               /**< Store implementation specific or run_time data or caching here*/
  81:..\..\..\lvgl\version_6.1.2\lvgl\src\lv_objx\../lv_core/../lv_font/lv_font.h **** #if LV_USE_USER_DATA
  82:..\..\..\lvgl\version_6.1.2\lvgl\src\lv_objx\../lv_core/../lv_font/lv_font.h ****     lv_font_user_data_t user_data; /**< Custom user data for font. */
  83:..\..\..\lvgl\version_6.1.2\lvgl\src\lv_objx\../lv_core/../lv_font/lv_font.h **** #endif
  84:..\..\..\lvgl\version_6.1.2\lvgl\src\lv_objx\../lv_core/../lv_font/lv_font.h **** 
  85:..\..\..\lvgl\version_6.1.2\lvgl\src\lv_objx\../lv_core/../lv_font/lv_font.h **** 
  86:..\..\..\lvgl\version_6.1.2\lvgl\src\lv_objx\../lv_core/../lv_font/lv_font.h **** } lv_font_t;
  87:..\..\..\lvgl\version_6.1.2\lvgl\src\lv_objx\../lv_core/../lv_font/lv_font.h **** 
ARM GAS  C:\Users\tmj32\AppData\Local\Temp\ccI3WYuM.s 			page 3


  88:..\..\..\lvgl\version_6.1.2\lvgl\src\lv_objx\../lv_core/../lv_font/lv_font.h **** /**********************
  89:..\..\..\lvgl\version_6.1.2\lvgl\src\lv_objx\../lv_core/../lv_font/lv_font.h ****  * GLOBAL PROTOTYPES
  90:..\..\..\lvgl\version_6.1.2\lvgl\src\lv_objx\../lv_core/../lv_font/lv_font.h ****  **********************/
  91:..\..\..\lvgl\version_6.1.2\lvgl\src\lv_objx\../lv_core/../lv_font/lv_font.h **** 
  92:..\..\..\lvgl\version_6.1.2\lvgl\src\lv_objx\../lv_core/../lv_font/lv_font.h **** /**
  93:..\..\..\lvgl\version_6.1.2\lvgl\src\lv_objx\../lv_core/../lv_font/lv_font.h ****  * Return with the bitmap of a font.
  94:..\..\..\lvgl\version_6.1.2\lvgl\src\lv_objx\../lv_core/../lv_font/lv_font.h ****  * @param font_p pointer to a font
  95:..\..\..\lvgl\version_6.1.2\lvgl\src\lv_objx\../lv_core/../lv_font/lv_font.h ****  * @param letter an UNICODE character code
  96:..\..\..\lvgl\version_6.1.2\lvgl\src\lv_objx\../lv_core/../lv_font/lv_font.h ****  * @return  pointer to the bitmap of the letter
  97:..\..\..\lvgl\version_6.1.2\lvgl\src\lv_objx\../lv_core/../lv_font/lv_font.h ****  */
  98:..\..\..\lvgl\version_6.1.2\lvgl\src\lv_objx\../lv_core/../lv_font/lv_font.h **** const uint8_t * lv_font_get_glyph_bitmap(const lv_font_t * font_p, uint32_t letter);
  99:..\..\..\lvgl\version_6.1.2\lvgl\src\lv_objx\../lv_core/../lv_font/lv_font.h **** 
 100:..\..\..\lvgl\version_6.1.2\lvgl\src\lv_objx\../lv_core/../lv_font/lv_font.h **** /**
 101:..\..\..\lvgl\version_6.1.2\lvgl\src\lv_objx\../lv_core/../lv_font/lv_font.h ****  * Get the descriptor of a glyph
 102:..\..\..\lvgl\version_6.1.2\lvgl\src\lv_objx\../lv_core/../lv_font/lv_font.h ****  * @param font_p pointer to font
 103:..\..\..\lvgl\version_6.1.2\lvgl\src\lv_objx\../lv_core/../lv_font/lv_font.h ****  * @param dsc_out store the result descriptor here
 104:..\..\..\lvgl\version_6.1.2\lvgl\src\lv_objx\../lv_core/../lv_font/lv_font.h ****  * @param letter an UNICODE letter code
 105:..\..\..\lvgl\version_6.1.2\lvgl\src\lv_objx\../lv_core/../lv_font/lv_font.h ****  * @return true: descriptor is successfully loaded into `dsc_out`.
 106:..\..\..\lvgl\version_6.1.2\lvgl\src\lv_objx\../lv_core/../lv_font/lv_font.h ****  *         false: the letter was not found, no data is loaded to `dsc_out`
 107:..\..\..\lvgl\version_6.1.2\lvgl\src\lv_objx\../lv_core/../lv_font/lv_font.h ****  */
 108:..\..\..\lvgl\version_6.1.2\lvgl\src\lv_objx\../lv_core/../lv_font/lv_font.h **** bool lv_font_get_glyph_dsc(const lv_font_t * font_p, lv_font_glyph_dsc_t * dsc_out, uint32_t letter
 109:..\..\..\lvgl\version_6.1.2\lvgl\src\lv_objx\../lv_core/../lv_font/lv_font.h **** 
 110:..\..\..\lvgl\version_6.1.2\lvgl\src\lv_objx\../lv_core/../lv_font/lv_font.h **** /**
 111:..\..\..\lvgl\version_6.1.2\lvgl\src\lv_objx\../lv_core/../lv_font/lv_font.h ****  * Get the width of a glyph with kerning
 112:..\..\..\lvgl\version_6.1.2\lvgl\src\lv_objx\../lv_core/../lv_font/lv_font.h ****  * @param font pointer to a font
 113:..\..\..\lvgl\version_6.1.2\lvgl\src\lv_objx\../lv_core/../lv_font/lv_font.h ****  * @param letter an UNICODE letter
 114:..\..\..\lvgl\version_6.1.2\lvgl\src\lv_objx\../lv_core/../lv_font/lv_font.h ****  * @param letter_next the next letter after `letter`. Used for kerning
 115:..\..\..\lvgl\version_6.1.2\lvgl\src\lv_objx\../lv_core/../lv_font/lv_font.h ****  * @return the width of the glyph
 116:..\..\..\lvgl\version_6.1.2\lvgl\src\lv_objx\../lv_core/../lv_font/lv_font.h ****  */
 117:..\..\..\lvgl\version_6.1.2\lvgl\src\lv_objx\../lv_core/../lv_font/lv_font.h **** uint16_t lv_font_get_glyph_width(const lv_font_t * font, uint32_t letter, uint32_t letter_next);
 118:..\..\..\lvgl\version_6.1.2\lvgl\src\lv_objx\../lv_core/../lv_font/lv_font.h **** 
 119:..\..\..\lvgl\version_6.1.2\lvgl\src\lv_objx\../lv_core/../lv_font/lv_font.h **** /**
 120:..\..\..\lvgl\version_6.1.2\lvgl\src\lv_objx\../lv_core/../lv_font/lv_font.h ****  * Get the line height of a font. All characters fit into this height
 121:..\..\..\lvgl\version_6.1.2\lvgl\src\lv_objx\../lv_core/../lv_font/lv_font.h ****  * @param font_p pointer to a font
 122:..\..\..\lvgl\version_6.1.2\lvgl\src\lv_objx\../lv_core/../lv_font/lv_font.h ****  * @return the height of a font
 123:..\..\..\lvgl\version_6.1.2\lvgl\src\lv_objx\../lv_core/../lv_font/lv_font.h ****  */
 124:..\..\..\lvgl\version_6.1.2\lvgl\src\lv_objx\../lv_core/../lv_font/lv_font.h **** static inline uint8_t lv_font_get_line_height(const lv_font_t * font_p)
 125:..\..\..\lvgl\version_6.1.2\lvgl\src\lv_objx\../lv_core/../lv_font/lv_font.h **** {
  28              		.loc 1 125 0
  29              		.cfi_startproc
  30              		@ args = 0, pretend = 0, frame = 8
  31              		@ frame_needed = 1, uses_anonymous_args = 0
  32              		@ link register save eliminated.
  33 0000 80B4     		push	{r7}
  34              		.cfi_def_cfa_offset 4
  35              		.cfi_offset 7, -4
  36 0002 83B0     		sub	sp, sp, #12
  37              		.cfi_def_cfa_offset 16
  38 0004 00AF     		add	r7, sp, #0
  39              		.cfi_def_cfa_register 7
  40 0006 7860     		str	r0, [r7, #4]
 126:..\..\..\lvgl\version_6.1.2\lvgl\src\lv_objx\../lv_core/../lv_font/lv_font.h ****     return font_p->line_height;
  41              		.loc 1 126 0
  42 0008 7B68     		ldr	r3, [r7, #4]
  43 000a 1B7A     		ldrb	r3, [r3, #8]	@ zero_extendqisi2
 127:..\..\..\lvgl\version_6.1.2\lvgl\src\lv_objx\../lv_core/../lv_font/lv_font.h **** }
  44              		.loc 1 127 0
ARM GAS  C:\Users\tmj32\AppData\Local\Temp\ccI3WYuM.s 			page 4


  45 000c 1846     		mov	r0, r3
  46 000e 0C37     		adds	r7, r7, #12
  47              		.cfi_def_cfa_offset 4
  48 0010 BD46     		mov	sp, r7
  49              		.cfi_def_cfa_register 13
  50              		@ sp needed
  51 0012 5DF8047B 		ldr	r7, [sp], #4
  52              		.cfi_restore 7
  53              		.cfi_def_cfa_offset 0
  54 0016 7047     		bx	lr
  55              		.cfi_endproc
  56              	.LFE0:
  57              		.size	lv_font_get_line_height, .-lv_font_get_line_height
  58              		.section	.text.lv_area_copy,"ax",%progbits
  59              		.align	2
  60              		.thumb
  61              		.thumb_func
  62              		.type	lv_area_copy, %function
  63              	lv_area_copy:
  64              	.LFB10:
  65              		.file 2 "..\\..\\..\\lvgl\\version_6.1.2\\lvgl\\src\\lv_objx\\../lv_core/../lv_misc/lv_area.h"
   1:..\..\..\lvgl\version_6.1.2\lvgl\src\lv_objx\../lv_core/../lv_misc/lv_area.h **** /**
   2:..\..\..\lvgl\version_6.1.2\lvgl\src\lv_objx\../lv_core/../lv_misc/lv_area.h ****  * @file lv_area.h
   3:..\..\..\lvgl\version_6.1.2\lvgl\src\lv_objx\../lv_core/../lv_misc/lv_area.h ****  *
   4:..\..\..\lvgl\version_6.1.2\lvgl\src\lv_objx\../lv_core/../lv_misc/lv_area.h ****  */
   5:..\..\..\lvgl\version_6.1.2\lvgl\src\lv_objx\../lv_core/../lv_misc/lv_area.h **** 
   6:..\..\..\lvgl\version_6.1.2\lvgl\src\lv_objx\../lv_core/../lv_misc/lv_area.h **** #ifndef LV_AREA_H
   7:..\..\..\lvgl\version_6.1.2\lvgl\src\lv_objx\../lv_core/../lv_misc/lv_area.h **** #define LV_AREA_H
   8:..\..\..\lvgl\version_6.1.2\lvgl\src\lv_objx\../lv_core/../lv_misc/lv_area.h **** 
   9:..\..\..\lvgl\version_6.1.2\lvgl\src\lv_objx\../lv_core/../lv_misc/lv_area.h **** #ifdef __cplusplus
  10:..\..\..\lvgl\version_6.1.2\lvgl\src\lv_objx\../lv_core/../lv_misc/lv_area.h **** extern "C" {
  11:..\..\..\lvgl\version_6.1.2\lvgl\src\lv_objx\../lv_core/../lv_misc/lv_area.h **** #endif
  12:..\..\..\lvgl\version_6.1.2\lvgl\src\lv_objx\../lv_core/../lv_misc/lv_area.h **** 
  13:..\..\..\lvgl\version_6.1.2\lvgl\src\lv_objx\../lv_core/../lv_misc/lv_area.h **** /*********************
  14:..\..\..\lvgl\version_6.1.2\lvgl\src\lv_objx\../lv_core/../lv_misc/lv_area.h ****  *      INCLUDES
  15:..\..\..\lvgl\version_6.1.2\lvgl\src\lv_objx\../lv_core/../lv_misc/lv_area.h ****  *********************/
  16:..\..\..\lvgl\version_6.1.2\lvgl\src\lv_objx\../lv_core/../lv_misc/lv_area.h **** #include <string.h>
  17:..\..\..\lvgl\version_6.1.2\lvgl\src\lv_objx\../lv_core/../lv_misc/lv_area.h **** #include <stdbool.h>
  18:..\..\..\lvgl\version_6.1.2\lvgl\src\lv_objx\../lv_core/../lv_misc/lv_area.h **** #include <stdint.h>
  19:..\..\..\lvgl\version_6.1.2\lvgl\src\lv_objx\../lv_core/../lv_misc/lv_area.h **** #ifdef LV_CONF_INCLUDE_SIMPLE
  20:..\..\..\lvgl\version_6.1.2\lvgl\src\lv_objx\../lv_core/../lv_misc/lv_area.h **** #include "lv_conf.h"
  21:..\..\..\lvgl\version_6.1.2\lvgl\src\lv_objx\../lv_core/../lv_misc/lv_area.h **** #else
  22:..\..\..\lvgl\version_6.1.2\lvgl\src\lv_objx\../lv_core/../lv_misc/lv_area.h **** #include "../../../lv_conf.h"
  23:..\..\..\lvgl\version_6.1.2\lvgl\src\lv_objx\../lv_core/../lv_misc/lv_area.h **** #endif
  24:..\..\..\lvgl\version_6.1.2\lvgl\src\lv_objx\../lv_core/../lv_misc/lv_area.h **** 
  25:..\..\..\lvgl\version_6.1.2\lvgl\src\lv_objx\../lv_core/../lv_misc/lv_area.h **** /*********************
  26:..\..\..\lvgl\version_6.1.2\lvgl\src\lv_objx\../lv_core/../lv_misc/lv_area.h ****  *      DEFINES
  27:..\..\..\lvgl\version_6.1.2\lvgl\src\lv_objx\../lv_core/../lv_misc/lv_area.h ****  *********************/
  28:..\..\..\lvgl\version_6.1.2\lvgl\src\lv_objx\../lv_core/../lv_misc/lv_area.h **** /*To avoid overflow don't let the max ranges (reduce with 1000) */
  29:..\..\..\lvgl\version_6.1.2\lvgl\src\lv_objx\../lv_core/../lv_misc/lv_area.h **** #define LV_COORD_MAX ((lv_coord_t)((uint32_t)((uint32_t)1 << (8 * sizeof(lv_coord_t) - 1)) - 1000))
  30:..\..\..\lvgl\version_6.1.2\lvgl\src\lv_objx\../lv_core/../lv_misc/lv_area.h **** #define LV_COORD_MIN (-LV_COORD_MAX)
  31:..\..\..\lvgl\version_6.1.2\lvgl\src\lv_objx\../lv_core/../lv_misc/lv_area.h **** 
  32:..\..\..\lvgl\version_6.1.2\lvgl\src\lv_objx\../lv_core/../lv_misc/lv_area.h **** LV_EXPORT_CONST_INT(LV_COORD_MAX);
  33:..\..\..\lvgl\version_6.1.2\lvgl\src\lv_objx\../lv_core/../lv_misc/lv_area.h **** LV_EXPORT_CONST_INT(LV_COORD_MIN);
  34:..\..\..\lvgl\version_6.1.2\lvgl\src\lv_objx\../lv_core/../lv_misc/lv_area.h **** 
  35:..\..\..\lvgl\version_6.1.2\lvgl\src\lv_objx\../lv_core/../lv_misc/lv_area.h **** /**********************
  36:..\..\..\lvgl\version_6.1.2\lvgl\src\lv_objx\../lv_core/../lv_misc/lv_area.h ****  *      TYPEDEFS
ARM GAS  C:\Users\tmj32\AppData\Local\Temp\ccI3WYuM.s 			page 5


  37:..\..\..\lvgl\version_6.1.2\lvgl\src\lv_objx\../lv_core/../lv_misc/lv_area.h ****  **********************/
  38:..\..\..\lvgl\version_6.1.2\lvgl\src\lv_objx\../lv_core/../lv_misc/lv_area.h **** 
  39:..\..\..\lvgl\version_6.1.2\lvgl\src\lv_objx\../lv_core/../lv_misc/lv_area.h **** /**
  40:..\..\..\lvgl\version_6.1.2\lvgl\src\lv_objx\../lv_core/../lv_misc/lv_area.h ****  * Represents a point on the screen.
  41:..\..\..\lvgl\version_6.1.2\lvgl\src\lv_objx\../lv_core/../lv_misc/lv_area.h ****  */
  42:..\..\..\lvgl\version_6.1.2\lvgl\src\lv_objx\../lv_core/../lv_misc/lv_area.h **** typedef struct
  43:..\..\..\lvgl\version_6.1.2\lvgl\src\lv_objx\../lv_core/../lv_misc/lv_area.h **** {
  44:..\..\..\lvgl\version_6.1.2\lvgl\src\lv_objx\../lv_core/../lv_misc/lv_area.h ****     lv_coord_t x;
  45:..\..\..\lvgl\version_6.1.2\lvgl\src\lv_objx\../lv_core/../lv_misc/lv_area.h ****     lv_coord_t y;
  46:..\..\..\lvgl\version_6.1.2\lvgl\src\lv_objx\../lv_core/../lv_misc/lv_area.h **** } lv_point_t;
  47:..\..\..\lvgl\version_6.1.2\lvgl\src\lv_objx\../lv_core/../lv_misc/lv_area.h **** 
  48:..\..\..\lvgl\version_6.1.2\lvgl\src\lv_objx\../lv_core/../lv_misc/lv_area.h **** /** Represents an area of the screen. */
  49:..\..\..\lvgl\version_6.1.2\lvgl\src\lv_objx\../lv_core/../lv_misc/lv_area.h **** typedef struct
  50:..\..\..\lvgl\version_6.1.2\lvgl\src\lv_objx\../lv_core/../lv_misc/lv_area.h **** {
  51:..\..\..\lvgl\version_6.1.2\lvgl\src\lv_objx\../lv_core/../lv_misc/lv_area.h ****     lv_coord_t x1;
  52:..\..\..\lvgl\version_6.1.2\lvgl\src\lv_objx\../lv_core/../lv_misc/lv_area.h ****     lv_coord_t y1;
  53:..\..\..\lvgl\version_6.1.2\lvgl\src\lv_objx\../lv_core/../lv_misc/lv_area.h ****     lv_coord_t x2;
  54:..\..\..\lvgl\version_6.1.2\lvgl\src\lv_objx\../lv_core/../lv_misc/lv_area.h ****     lv_coord_t y2;
  55:..\..\..\lvgl\version_6.1.2\lvgl\src\lv_objx\../lv_core/../lv_misc/lv_area.h **** } lv_area_t;
  56:..\..\..\lvgl\version_6.1.2\lvgl\src\lv_objx\../lv_core/../lv_misc/lv_area.h **** 
  57:..\..\..\lvgl\version_6.1.2\lvgl\src\lv_objx\../lv_core/../lv_misc/lv_area.h **** /**********************
  58:..\..\..\lvgl\version_6.1.2\lvgl\src\lv_objx\../lv_core/../lv_misc/lv_area.h ****  * GLOBAL PROTOTYPES
  59:..\..\..\lvgl\version_6.1.2\lvgl\src\lv_objx\../lv_core/../lv_misc/lv_area.h ****  **********************/
  60:..\..\..\lvgl\version_6.1.2\lvgl\src\lv_objx\../lv_core/../lv_misc/lv_area.h **** 
  61:..\..\..\lvgl\version_6.1.2\lvgl\src\lv_objx\../lv_core/../lv_misc/lv_area.h **** /**
  62:..\..\..\lvgl\version_6.1.2\lvgl\src\lv_objx\../lv_core/../lv_misc/lv_area.h ****  * Initialize an area
  63:..\..\..\lvgl\version_6.1.2\lvgl\src\lv_objx\../lv_core/../lv_misc/lv_area.h ****  * @param area_p pointer to an area
  64:..\..\..\lvgl\version_6.1.2\lvgl\src\lv_objx\../lv_core/../lv_misc/lv_area.h ****  * @param x1 left coordinate of the area
  65:..\..\..\lvgl\version_6.1.2\lvgl\src\lv_objx\../lv_core/../lv_misc/lv_area.h ****  * @param y1 top coordinate of the area
  66:..\..\..\lvgl\version_6.1.2\lvgl\src\lv_objx\../lv_core/../lv_misc/lv_area.h ****  * @param x2 right coordinate of the area
  67:..\..\..\lvgl\version_6.1.2\lvgl\src\lv_objx\../lv_core/../lv_misc/lv_area.h ****  * @param y2 bottom coordinate of the area
  68:..\..\..\lvgl\version_6.1.2\lvgl\src\lv_objx\../lv_core/../lv_misc/lv_area.h ****  */
  69:..\..\..\lvgl\version_6.1.2\lvgl\src\lv_objx\../lv_core/../lv_misc/lv_area.h **** void lv_area_set(lv_area_t * area_p, lv_coord_t x1, lv_coord_t y1, lv_coord_t x2, lv_coord_t y2);
  70:..\..\..\lvgl\version_6.1.2\lvgl\src\lv_objx\../lv_core/../lv_misc/lv_area.h **** 
  71:..\..\..\lvgl\version_6.1.2\lvgl\src\lv_objx\../lv_core/../lv_misc/lv_area.h **** /**
  72:..\..\..\lvgl\version_6.1.2\lvgl\src\lv_objx\../lv_core/../lv_misc/lv_area.h ****  * Copy an area
  73:..\..\..\lvgl\version_6.1.2\lvgl\src\lv_objx\../lv_core/../lv_misc/lv_area.h ****  * @param dest pointer to the destination area
  74:..\..\..\lvgl\version_6.1.2\lvgl\src\lv_objx\../lv_core/../lv_misc/lv_area.h ****  * @param src pointer to the source area
  75:..\..\..\lvgl\version_6.1.2\lvgl\src\lv_objx\../lv_core/../lv_misc/lv_area.h ****  */
  76:..\..\..\lvgl\version_6.1.2\lvgl\src\lv_objx\../lv_core/../lv_misc/lv_area.h **** inline static void lv_area_copy(lv_area_t * dest, const lv_area_t * src)
  77:..\..\..\lvgl\version_6.1.2\lvgl\src\lv_objx\../lv_core/../lv_misc/lv_area.h **** {
  66              		.loc 2 77 0
  67              		.cfi_startproc
  68              		@ args = 0, pretend = 0, frame = 8
  69              		@ frame_needed = 1, uses_anonymous_args = 0
  70 0000 80B5     		push	{r7, lr}
  71              		.cfi_def_cfa_offset 8
  72              		.cfi_offset 7, -8
  73              		.cfi_offset 14, -4
  74 0002 82B0     		sub	sp, sp, #8
  75              		.cfi_def_cfa_offset 16
  76 0004 00AF     		add	r7, sp, #0
  77              		.cfi_def_cfa_register 7
  78 0006 7860     		str	r0, [r7, #4]
  79 0008 3960     		str	r1, [r7]
  78:..\..\..\lvgl\version_6.1.2\lvgl\src\lv_objx\../lv_core/../lv_misc/lv_area.h ****     memcpy(dest, src, sizeof(lv_area_t));
  80              		.loc 2 78 0
ARM GAS  C:\Users\tmj32\AppData\Local\Temp\ccI3WYuM.s 			page 6


  81 000a 0822     		movs	r2, #8
  82 000c 3968     		ldr	r1, [r7]
  83 000e 7868     		ldr	r0, [r7, #4]
  84 0010 FFF7FEFF 		bl	memcpy
  79:..\..\..\lvgl\version_6.1.2\lvgl\src\lv_objx\../lv_core/../lv_misc/lv_area.h **** }
  85              		.loc 2 79 0
  86 0014 00BF     		nop
  87 0016 0837     		adds	r7, r7, #8
  88              		.cfi_def_cfa_offset 8
  89 0018 BD46     		mov	sp, r7
  90              		.cfi_def_cfa_register 13
  91              		@ sp needed
  92 001a 80BD     		pop	{r7, pc}
  93              		.cfi_endproc
  94              	.LFE10:
  95              		.size	lv_area_copy, .-lv_area_copy
  96              		.section	.text.lv_area_get_width,"ax",%progbits
  97              		.align	2
  98              		.thumb
  99              		.thumb_func
 100              		.type	lv_area_get_width, %function
 101              	lv_area_get_width:
 102              	.LFB11:
  80:..\..\..\lvgl\version_6.1.2\lvgl\src\lv_objx\../lv_core/../lv_misc/lv_area.h **** 
  81:..\..\..\lvgl\version_6.1.2\lvgl\src\lv_objx\../lv_core/../lv_misc/lv_area.h **** /**
  82:..\..\..\lvgl\version_6.1.2\lvgl\src\lv_objx\../lv_core/../lv_misc/lv_area.h ****  * Get the width of an area
  83:..\..\..\lvgl\version_6.1.2\lvgl\src\lv_objx\../lv_core/../lv_misc/lv_area.h ****  * @param area_p pointer to an area
  84:..\..\..\lvgl\version_6.1.2\lvgl\src\lv_objx\../lv_core/../lv_misc/lv_area.h ****  * @return the width of the area (if x1 == x2 -> width = 1)
  85:..\..\..\lvgl\version_6.1.2\lvgl\src\lv_objx\../lv_core/../lv_misc/lv_area.h ****  */
  86:..\..\..\lvgl\version_6.1.2\lvgl\src\lv_objx\../lv_core/../lv_misc/lv_area.h **** static inline lv_coord_t lv_area_get_width(const lv_area_t * area_p)
  87:..\..\..\lvgl\version_6.1.2\lvgl\src\lv_objx\../lv_core/../lv_misc/lv_area.h **** {
 103              		.loc 2 87 0
 104              		.cfi_startproc
 105              		@ args = 0, pretend = 0, frame = 8
 106              		@ frame_needed = 1, uses_anonymous_args = 0
 107              		@ link register save eliminated.
 108 0000 80B4     		push	{r7}
 109              		.cfi_def_cfa_offset 4
 110              		.cfi_offset 7, -4
 111 0002 83B0     		sub	sp, sp, #12
 112              		.cfi_def_cfa_offset 16
 113 0004 00AF     		add	r7, sp, #0
 114              		.cfi_def_cfa_register 7
 115 0006 7860     		str	r0, [r7, #4]
  88:..\..\..\lvgl\version_6.1.2\lvgl\src\lv_objx\../lv_core/../lv_misc/lv_area.h ****     return (lv_coord_t)(area_p->x2 - area_p->x1 + 1);
 116              		.loc 2 88 0
 117 0008 7B68     		ldr	r3, [r7, #4]
 118 000a B3F90430 		ldrsh	r3, [r3, #4]
 119 000e 9AB2     		uxth	r2, r3
 120 0010 7B68     		ldr	r3, [r7, #4]
 121 0012 B3F90030 		ldrsh	r3, [r3]
 122 0016 9BB2     		uxth	r3, r3
 123 0018 D31A     		subs	r3, r2, r3
 124 001a 9BB2     		uxth	r3, r3
 125 001c 0133     		adds	r3, r3, #1
 126 001e 9BB2     		uxth	r3, r3
 127 0020 1BB2     		sxth	r3, r3
ARM GAS  C:\Users\tmj32\AppData\Local\Temp\ccI3WYuM.s 			page 7


  89:..\..\..\lvgl\version_6.1.2\lvgl\src\lv_objx\../lv_core/../lv_misc/lv_area.h **** }
 128              		.loc 2 89 0
 129 0022 1846     		mov	r0, r3
 130 0024 0C37     		adds	r7, r7, #12
 131              		.cfi_def_cfa_offset 4
 132 0026 BD46     		mov	sp, r7
 133              		.cfi_def_cfa_register 13
 134              		@ sp needed
 135 0028 5DF8047B 		ldr	r7, [sp], #4
 136              		.cfi_restore 7
 137              		.cfi_def_cfa_offset 0
 138 002c 7047     		bx	lr
 139              		.cfi_endproc
 140              	.LFE11:
 141              		.size	lv_area_get_width, .-lv_area_get_width
 142 002e 00BF     		.section	.text.lv_area_get_height,"ax",%progbits
 143              		.align	2
 144              		.thumb
 145              		.thumb_func
 146              		.type	lv_area_get_height, %function
 147              	lv_area_get_height:
 148              	.LFB12:
  90:..\..\..\lvgl\version_6.1.2\lvgl\src\lv_objx\../lv_core/../lv_misc/lv_area.h **** 
  91:..\..\..\lvgl\version_6.1.2\lvgl\src\lv_objx\../lv_core/../lv_misc/lv_area.h **** /**
  92:..\..\..\lvgl\version_6.1.2\lvgl\src\lv_objx\../lv_core/../lv_misc/lv_area.h ****  * Get the height of an area
  93:..\..\..\lvgl\version_6.1.2\lvgl\src\lv_objx\../lv_core/../lv_misc/lv_area.h ****  * @param area_p pointer to an area
  94:..\..\..\lvgl\version_6.1.2\lvgl\src\lv_objx\../lv_core/../lv_misc/lv_area.h ****  * @return the height of the area (if y1 == y2 -> height = 1)
  95:..\..\..\lvgl\version_6.1.2\lvgl\src\lv_objx\../lv_core/../lv_misc/lv_area.h ****  */
  96:..\..\..\lvgl\version_6.1.2\lvgl\src\lv_objx\../lv_core/../lv_misc/lv_area.h **** static inline lv_coord_t lv_area_get_height(const lv_area_t * area_p)
  97:..\..\..\lvgl\version_6.1.2\lvgl\src\lv_objx\../lv_core/../lv_misc/lv_area.h **** {
 149              		.loc 2 97 0
 150              		.cfi_startproc
 151              		@ args = 0, pretend = 0, frame = 8
 152              		@ frame_needed = 1, uses_anonymous_args = 0
 153              		@ link register save eliminated.
 154 0000 80B4     		push	{r7}
 155              		.cfi_def_cfa_offset 4
 156              		.cfi_offset 7, -4
 157 0002 83B0     		sub	sp, sp, #12
 158              		.cfi_def_cfa_offset 16
 159 0004 00AF     		add	r7, sp, #0
 160              		.cfi_def_cfa_register 7
 161 0006 7860     		str	r0, [r7, #4]
  98:..\..\..\lvgl\version_6.1.2\lvgl\src\lv_objx\../lv_core/../lv_misc/lv_area.h ****     return (lv_coord_t)(area_p->y2 - area_p->y1 + 1);
 162              		.loc 2 98 0
 163 0008 7B68     		ldr	r3, [r7, #4]
 164 000a B3F90630 		ldrsh	r3, [r3, #6]
 165 000e 9AB2     		uxth	r2, r3
 166 0010 7B68     		ldr	r3, [r7, #4]
 167 0012 B3F90230 		ldrsh	r3, [r3, #2]
 168 0016 9BB2     		uxth	r3, r3
 169 0018 D31A     		subs	r3, r2, r3
 170 001a 9BB2     		uxth	r3, r3
 171 001c 0133     		adds	r3, r3, #1
 172 001e 9BB2     		uxth	r3, r3
 173 0020 1BB2     		sxth	r3, r3
  99:..\..\..\lvgl\version_6.1.2\lvgl\src\lv_objx\../lv_core/../lv_misc/lv_area.h **** }
ARM GAS  C:\Users\tmj32\AppData\Local\Temp\ccI3WYuM.s 			page 8


 174              		.loc 2 99 0
 175 0022 1846     		mov	r0, r3
 176 0024 0C37     		adds	r7, r7, #12
 177              		.cfi_def_cfa_offset 4
 178 0026 BD46     		mov	sp, r7
 179              		.cfi_def_cfa_register 13
 180              		@ sp needed
 181 0028 5DF8047B 		ldr	r7, [sp], #4
 182              		.cfi_restore 7
 183              		.cfi_def_cfa_offset 0
 184 002c 7047     		bx	lr
 185              		.cfi_endproc
 186              	.LFE12:
 187              		.size	lv_area_get_height, .-lv_area_get_height
 188 002e 00BF     		.section	.text.lv_cont_set_fit2,"ax",%progbits
 189              		.align	2
 190              		.thumb
 191              		.thumb_func
 192              		.type	lv_cont_set_fit2, %function
 193              	lv_cont_set_fit2:
 194              	.LFB31:
 195              		.file 3 "..\\..\\..\\lvgl\\version_6.1.2\\lvgl\\src\\lv_objx\\lv_cont.h"
   1:..\..\..\lvgl\version_6.1.2\lvgl\src\lv_objx/lv_cont.h **** /**
   2:..\..\..\lvgl\version_6.1.2\lvgl\src\lv_objx/lv_cont.h ****  * @file lv_cont.h
   3:..\..\..\lvgl\version_6.1.2\lvgl\src\lv_objx/lv_cont.h ****  *
   4:..\..\..\lvgl\version_6.1.2\lvgl\src\lv_objx/lv_cont.h ****  */
   5:..\..\..\lvgl\version_6.1.2\lvgl\src\lv_objx/lv_cont.h **** 
   6:..\..\..\lvgl\version_6.1.2\lvgl\src\lv_objx/lv_cont.h **** #ifndef LV_CONT_H
   7:..\..\..\lvgl\version_6.1.2\lvgl\src\lv_objx/lv_cont.h **** #define LV_CONT_H
   8:..\..\..\lvgl\version_6.1.2\lvgl\src\lv_objx/lv_cont.h **** 
   9:..\..\..\lvgl\version_6.1.2\lvgl\src\lv_objx/lv_cont.h **** #ifdef __cplusplus
  10:..\..\..\lvgl\version_6.1.2\lvgl\src\lv_objx/lv_cont.h **** extern "C" {
  11:..\..\..\lvgl\version_6.1.2\lvgl\src\lv_objx/lv_cont.h **** #endif
  12:..\..\..\lvgl\version_6.1.2\lvgl\src\lv_objx/lv_cont.h **** 
  13:..\..\..\lvgl\version_6.1.2\lvgl\src\lv_objx/lv_cont.h **** /*********************
  14:..\..\..\lvgl\version_6.1.2\lvgl\src\lv_objx/lv_cont.h ****  *      INCLUDES
  15:..\..\..\lvgl\version_6.1.2\lvgl\src\lv_objx/lv_cont.h ****  *********************/
  16:..\..\..\lvgl\version_6.1.2\lvgl\src\lv_objx/lv_cont.h **** #ifdef LV_CONF_INCLUDE_SIMPLE
  17:..\..\..\lvgl\version_6.1.2\lvgl\src\lv_objx/lv_cont.h **** #include "lv_conf.h"
  18:..\..\..\lvgl\version_6.1.2\lvgl\src\lv_objx/lv_cont.h **** #else
  19:..\..\..\lvgl\version_6.1.2\lvgl\src\lv_objx/lv_cont.h **** #include "../../../lv_conf.h"
  20:..\..\..\lvgl\version_6.1.2\lvgl\src\lv_objx/lv_cont.h **** #endif
  21:..\..\..\lvgl\version_6.1.2\lvgl\src\lv_objx/lv_cont.h **** 
  22:..\..\..\lvgl\version_6.1.2\lvgl\src\lv_objx/lv_cont.h **** #if LV_USE_CONT != 0
  23:..\..\..\lvgl\version_6.1.2\lvgl\src\lv_objx/lv_cont.h **** 
  24:..\..\..\lvgl\version_6.1.2\lvgl\src\lv_objx/lv_cont.h **** #include "../lv_core/lv_obj.h"
  25:..\..\..\lvgl\version_6.1.2\lvgl\src\lv_objx/lv_cont.h **** 
  26:..\..\..\lvgl\version_6.1.2\lvgl\src\lv_objx/lv_cont.h **** /*********************
  27:..\..\..\lvgl\version_6.1.2\lvgl\src\lv_objx/lv_cont.h ****  *      DEFINES
  28:..\..\..\lvgl\version_6.1.2\lvgl\src\lv_objx/lv_cont.h ****  *********************/
  29:..\..\..\lvgl\version_6.1.2\lvgl\src\lv_objx/lv_cont.h **** 
  30:..\..\..\lvgl\version_6.1.2\lvgl\src\lv_objx/lv_cont.h **** /**********************
  31:..\..\..\lvgl\version_6.1.2\lvgl\src\lv_objx/lv_cont.h ****  *      TYPEDEFS
  32:..\..\..\lvgl\version_6.1.2\lvgl\src\lv_objx/lv_cont.h ****  **********************/
  33:..\..\..\lvgl\version_6.1.2\lvgl\src\lv_objx/lv_cont.h **** 
  34:..\..\..\lvgl\version_6.1.2\lvgl\src\lv_objx/lv_cont.h **** /** Container layout options*/
  35:..\..\..\lvgl\version_6.1.2\lvgl\src\lv_objx/lv_cont.h **** enum {
ARM GAS  C:\Users\tmj32\AppData\Local\Temp\ccI3WYuM.s 			page 9


  36:..\..\..\lvgl\version_6.1.2\lvgl\src\lv_objx/lv_cont.h ****     LV_LAYOUT_OFF = 0, /**< No layout */
  37:..\..\..\lvgl\version_6.1.2\lvgl\src\lv_objx/lv_cont.h ****     LV_LAYOUT_CENTER, /**< Center objects */
  38:..\..\..\lvgl\version_6.1.2\lvgl\src\lv_objx/lv_cont.h ****     LV_LAYOUT_COL_L,  /**< Column left align*/
  39:..\..\..\lvgl\version_6.1.2\lvgl\src\lv_objx/lv_cont.h ****     LV_LAYOUT_COL_M,  /**< Column middle align*/
  40:..\..\..\lvgl\version_6.1.2\lvgl\src\lv_objx/lv_cont.h ****     LV_LAYOUT_COL_R,  /**< Column right align*/
  41:..\..\..\lvgl\version_6.1.2\lvgl\src\lv_objx/lv_cont.h ****     LV_LAYOUT_ROW_T,  /**< Row top align*/
  42:..\..\..\lvgl\version_6.1.2\lvgl\src\lv_objx/lv_cont.h ****     LV_LAYOUT_ROW_M,  /**< Row middle align*/
  43:..\..\..\lvgl\version_6.1.2\lvgl\src\lv_objx/lv_cont.h ****     LV_LAYOUT_ROW_B,  /**< Row bottom align*/
  44:..\..\..\lvgl\version_6.1.2\lvgl\src\lv_objx/lv_cont.h ****     LV_LAYOUT_PRETTY, /**< Put as many object as possible in row and begin a new row*/
  45:..\..\..\lvgl\version_6.1.2\lvgl\src\lv_objx/lv_cont.h ****     LV_LAYOUT_GRID,   /**< Align same-sized object into a grid*/
  46:..\..\..\lvgl\version_6.1.2\lvgl\src\lv_objx/lv_cont.h ****     _LV_LAYOUT_NUM
  47:..\..\..\lvgl\version_6.1.2\lvgl\src\lv_objx/lv_cont.h **** };
  48:..\..\..\lvgl\version_6.1.2\lvgl\src\lv_objx/lv_cont.h **** typedef uint8_t lv_layout_t;
  49:..\..\..\lvgl\version_6.1.2\lvgl\src\lv_objx/lv_cont.h **** 
  50:..\..\..\lvgl\version_6.1.2\lvgl\src\lv_objx/lv_cont.h **** /**
  51:..\..\..\lvgl\version_6.1.2\lvgl\src\lv_objx/lv_cont.h ****  * How to resize the container around the children.
  52:..\..\..\lvgl\version_6.1.2\lvgl\src\lv_objx/lv_cont.h ****  */
  53:..\..\..\lvgl\version_6.1.2\lvgl\src\lv_objx/lv_cont.h **** enum {
  54:..\..\..\lvgl\version_6.1.2\lvgl\src\lv_objx/lv_cont.h ****     LV_FIT_NONE,  /**< Do not change the size automatically*/
  55:..\..\..\lvgl\version_6.1.2\lvgl\src\lv_objx/lv_cont.h ****     LV_FIT_TIGHT, /**< Shrink wrap around the children */
  56:..\..\..\lvgl\version_6.1.2\lvgl\src\lv_objx/lv_cont.h ****     LV_FIT_FLOOD, /**< Align the size to the parent's edge*/
  57:..\..\..\lvgl\version_6.1.2\lvgl\src\lv_objx/lv_cont.h ****     LV_FIT_FILL,  /**< Align the size to the parent's edge first but if there is an object out of i
  58:..\..\..\lvgl\version_6.1.2\lvgl\src\lv_objx/lv_cont.h ****                      then get larger */
  59:..\..\..\lvgl\version_6.1.2\lvgl\src\lv_objx/lv_cont.h ****     _LV_FIT_NUM
  60:..\..\..\lvgl\version_6.1.2\lvgl\src\lv_objx/lv_cont.h **** };
  61:..\..\..\lvgl\version_6.1.2\lvgl\src\lv_objx/lv_cont.h **** typedef uint8_t lv_fit_t;
  62:..\..\..\lvgl\version_6.1.2\lvgl\src\lv_objx/lv_cont.h **** 
  63:..\..\..\lvgl\version_6.1.2\lvgl\src\lv_objx/lv_cont.h **** typedef struct
  64:..\..\..\lvgl\version_6.1.2\lvgl\src\lv_objx/lv_cont.h **** {
  65:..\..\..\lvgl\version_6.1.2\lvgl\src\lv_objx/lv_cont.h ****     /*Inherited from 'base_obj' so no inherited ext. */ /*Ext. of ancestor*/
  66:..\..\..\lvgl\version_6.1.2\lvgl\src\lv_objx/lv_cont.h ****     /*New data for this type */
  67:..\..\..\lvgl\version_6.1.2\lvgl\src\lv_objx/lv_cont.h ****     uint8_t layout : 4;     /*A layout from 'lv_layout_t' enum*/
  68:..\..\..\lvgl\version_6.1.2\lvgl\src\lv_objx/lv_cont.h ****     uint8_t fit_left : 2;   /*A fit type from `lv_fit_t` enum */
  69:..\..\..\lvgl\version_6.1.2\lvgl\src\lv_objx/lv_cont.h ****     uint8_t fit_right : 2;  /*A fit type from `lv_fit_t` enum */
  70:..\..\..\lvgl\version_6.1.2\lvgl\src\lv_objx/lv_cont.h ****     uint8_t fit_top : 2;    /*A fit type from `lv_fit_t` enum */
  71:..\..\..\lvgl\version_6.1.2\lvgl\src\lv_objx/lv_cont.h ****     uint8_t fit_bottom : 2; /*A fit type from `lv_fit_t` enum */
  72:..\..\..\lvgl\version_6.1.2\lvgl\src\lv_objx/lv_cont.h **** } lv_cont_ext_t;
  73:..\..\..\lvgl\version_6.1.2\lvgl\src\lv_objx/lv_cont.h **** 
  74:..\..\..\lvgl\version_6.1.2\lvgl\src\lv_objx/lv_cont.h **** /*Styles*/
  75:..\..\..\lvgl\version_6.1.2\lvgl\src\lv_objx/lv_cont.h **** enum {
  76:..\..\..\lvgl\version_6.1.2\lvgl\src\lv_objx/lv_cont.h ****     LV_CONT_STYLE_MAIN,
  77:..\..\..\lvgl\version_6.1.2\lvgl\src\lv_objx/lv_cont.h **** };
  78:..\..\..\lvgl\version_6.1.2\lvgl\src\lv_objx/lv_cont.h **** typedef uint8_t lv_cont_style_t;
  79:..\..\..\lvgl\version_6.1.2\lvgl\src\lv_objx/lv_cont.h **** 
  80:..\..\..\lvgl\version_6.1.2\lvgl\src\lv_objx/lv_cont.h **** /**********************
  81:..\..\..\lvgl\version_6.1.2\lvgl\src\lv_objx/lv_cont.h ****  * GLOBAL PROTOTYPES
  82:..\..\..\lvgl\version_6.1.2\lvgl\src\lv_objx/lv_cont.h ****  **********************/
  83:..\..\..\lvgl\version_6.1.2\lvgl\src\lv_objx/lv_cont.h **** 
  84:..\..\..\lvgl\version_6.1.2\lvgl\src\lv_objx/lv_cont.h **** /**
  85:..\..\..\lvgl\version_6.1.2\lvgl\src\lv_objx/lv_cont.h ****  * Create a container objects
  86:..\..\..\lvgl\version_6.1.2\lvgl\src\lv_objx/lv_cont.h ****  * @param par pointer to an object, it will be the parent of the new container
  87:..\..\..\lvgl\version_6.1.2\lvgl\src\lv_objx/lv_cont.h ****  * @param copy pointer to a container object, if not NULL then the new object will be copied from i
  88:..\..\..\lvgl\version_6.1.2\lvgl\src\lv_objx/lv_cont.h ****  * @return pointer to the created container
  89:..\..\..\lvgl\version_6.1.2\lvgl\src\lv_objx/lv_cont.h ****  */
  90:..\..\..\lvgl\version_6.1.2\lvgl\src\lv_objx/lv_cont.h **** lv_obj_t * lv_cont_create(lv_obj_t * par, const lv_obj_t * copy);
  91:..\..\..\lvgl\version_6.1.2\lvgl\src\lv_objx/lv_cont.h **** 
  92:..\..\..\lvgl\version_6.1.2\lvgl\src\lv_objx/lv_cont.h **** /*=====================
ARM GAS  C:\Users\tmj32\AppData\Local\Temp\ccI3WYuM.s 			page 10


  93:..\..\..\lvgl\version_6.1.2\lvgl\src\lv_objx/lv_cont.h ****  * Setter functions
  94:..\..\..\lvgl\version_6.1.2\lvgl\src\lv_objx/lv_cont.h ****  *====================*/
  95:..\..\..\lvgl\version_6.1.2\lvgl\src\lv_objx/lv_cont.h **** 
  96:..\..\..\lvgl\version_6.1.2\lvgl\src\lv_objx/lv_cont.h **** /**
  97:..\..\..\lvgl\version_6.1.2\lvgl\src\lv_objx/lv_cont.h ****  * Set a layout on a container
  98:..\..\..\lvgl\version_6.1.2\lvgl\src\lv_objx/lv_cont.h ****  * @param cont pointer to a container object
  99:..\..\..\lvgl\version_6.1.2\lvgl\src\lv_objx/lv_cont.h ****  * @param layout a layout from 'lv_cont_layout_t'
 100:..\..\..\lvgl\version_6.1.2\lvgl\src\lv_objx/lv_cont.h ****  */
 101:..\..\..\lvgl\version_6.1.2\lvgl\src\lv_objx/lv_cont.h **** void lv_cont_set_layout(lv_obj_t * cont, lv_layout_t layout);
 102:..\..\..\lvgl\version_6.1.2\lvgl\src\lv_objx/lv_cont.h **** 
 103:..\..\..\lvgl\version_6.1.2\lvgl\src\lv_objx/lv_cont.h **** /**
 104:..\..\..\lvgl\version_6.1.2\lvgl\src\lv_objx/lv_cont.h ****  * Set the fit policy in all 4 directions separately.
 105:..\..\..\lvgl\version_6.1.2\lvgl\src\lv_objx/lv_cont.h ****  * It tell how to change the container's size automatically.
 106:..\..\..\lvgl\version_6.1.2\lvgl\src\lv_objx/lv_cont.h ****  * @param cont pointer to a container object
 107:..\..\..\lvgl\version_6.1.2\lvgl\src\lv_objx/lv_cont.h ****  * @param left left fit policy from `lv_fit_t`
 108:..\..\..\lvgl\version_6.1.2\lvgl\src\lv_objx/lv_cont.h ****  * @param right right fit policy from `lv_fit_t`
 109:..\..\..\lvgl\version_6.1.2\lvgl\src\lv_objx/lv_cont.h ****  * @param top top fit policy from `lv_fit_t`
 110:..\..\..\lvgl\version_6.1.2\lvgl\src\lv_objx/lv_cont.h ****  * @param bottom bottom fit policy from `lv_fit_t`
 111:..\..\..\lvgl\version_6.1.2\lvgl\src\lv_objx/lv_cont.h ****  */
 112:..\..\..\lvgl\version_6.1.2\lvgl\src\lv_objx/lv_cont.h **** void lv_cont_set_fit4(lv_obj_t * cont, lv_fit_t left, lv_fit_t right, lv_fit_t top, lv_fit_t bottom
 113:..\..\..\lvgl\version_6.1.2\lvgl\src\lv_objx/lv_cont.h **** 
 114:..\..\..\lvgl\version_6.1.2\lvgl\src\lv_objx/lv_cont.h **** /**
 115:..\..\..\lvgl\version_6.1.2\lvgl\src\lv_objx/lv_cont.h ****  * Set the fit policy horizontally and vertically separately.
 116:..\..\..\lvgl\version_6.1.2\lvgl\src\lv_objx/lv_cont.h ****  * It tells how to change the container's size automatically.
 117:..\..\..\lvgl\version_6.1.2\lvgl\src\lv_objx/lv_cont.h ****  * @param cont pointer to a container object
 118:..\..\..\lvgl\version_6.1.2\lvgl\src\lv_objx/lv_cont.h ****  * @param hor horizontal fit policy from `lv_fit_t`
 119:..\..\..\lvgl\version_6.1.2\lvgl\src\lv_objx/lv_cont.h ****  * @param ver vertical fit policy from `lv_fit_t`
 120:..\..\..\lvgl\version_6.1.2\lvgl\src\lv_objx/lv_cont.h ****  */
 121:..\..\..\lvgl\version_6.1.2\lvgl\src\lv_objx/lv_cont.h **** static inline void lv_cont_set_fit2(lv_obj_t * cont, lv_fit_t hor, lv_fit_t ver)
 122:..\..\..\lvgl\version_6.1.2\lvgl\src\lv_objx/lv_cont.h **** {
 196              		.loc 3 122 0
 197              		.cfi_startproc
 198              		@ args = 0, pretend = 0, frame = 8
 199              		@ frame_needed = 1, uses_anonymous_args = 0
 200 0000 80B5     		push	{r7, lr}
 201              		.cfi_def_cfa_offset 8
 202              		.cfi_offset 7, -8
 203              		.cfi_offset 14, -4
 204 0002 84B0     		sub	sp, sp, #16
 205              		.cfi_def_cfa_offset 24
 206 0004 02AF     		add	r7, sp, #8
 207              		.cfi_def_cfa 7, 16
 208 0006 7860     		str	r0, [r7, #4]
 209 0008 0B46     		mov	r3, r1
 210 000a FB70     		strb	r3, [r7, #3]
 211 000c 1346     		mov	r3, r2
 212 000e BB70     		strb	r3, [r7, #2]
 123:..\..\..\lvgl\version_6.1.2\lvgl\src\lv_objx/lv_cont.h ****     lv_cont_set_fit4(cont, hor, hor, ver, ver);
 213              		.loc 3 123 0
 214 0010 B878     		ldrb	r0, [r7, #2]	@ zero_extendqisi2
 215 0012 FA78     		ldrb	r2, [r7, #3]	@ zero_extendqisi2
 216 0014 F978     		ldrb	r1, [r7, #3]	@ zero_extendqisi2
 217 0016 BB78     		ldrb	r3, [r7, #2]	@ zero_extendqisi2
 218 0018 0093     		str	r3, [sp]
 219 001a 0346     		mov	r3, r0
 220 001c 7868     		ldr	r0, [r7, #4]
 221 001e FFF7FEFF 		bl	lv_cont_set_fit4
ARM GAS  C:\Users\tmj32\AppData\Local\Temp\ccI3WYuM.s 			page 11


 124:..\..\..\lvgl\version_6.1.2\lvgl\src\lv_objx/lv_cont.h **** }
 222              		.loc 3 124 0
 223 0022 00BF     		nop
 224 0024 0837     		adds	r7, r7, #8
 225              		.cfi_def_cfa_offset 8
 226 0026 BD46     		mov	sp, r7
 227              		.cfi_def_cfa_register 13
 228              		@ sp needed
 229 0028 80BD     		pop	{r7, pc}
 230              		.cfi_endproc
 231              	.LFE31:
 232              		.size	lv_cont_set_fit2, .-lv_cont_set_fit2
 233 002a 00BF     		.section	.text.lv_page_set_scrl_fit2,"ax",%progbits
 234              		.align	2
 235              		.thumb
 236              		.thumb_func
 237              		.type	lv_page_set_scrl_fit2, %function
 238              	lv_page_set_scrl_fit2:
 239              	.LFB36:
 240              		.file 4 "..\\..\\..\\lvgl\\version_6.1.2\\lvgl\\src\\lv_objx\\lv_page.h"
   1:..\..\..\lvgl\version_6.1.2\lvgl\src\lv_objx/lv_page.h **** /**
   2:..\..\..\lvgl\version_6.1.2\lvgl\src\lv_objx/lv_page.h ****  * @file lv_page.h
   3:..\..\..\lvgl\version_6.1.2\lvgl\src\lv_objx/lv_page.h ****  *
   4:..\..\..\lvgl\version_6.1.2\lvgl\src\lv_objx/lv_page.h ****  */
   5:..\..\..\lvgl\version_6.1.2\lvgl\src\lv_objx/lv_page.h **** 
   6:..\..\..\lvgl\version_6.1.2\lvgl\src\lv_objx/lv_page.h **** #ifndef LV_PAGE_H
   7:..\..\..\lvgl\version_6.1.2\lvgl\src\lv_objx/lv_page.h **** #define LV_PAGE_H
   8:..\..\..\lvgl\version_6.1.2\lvgl\src\lv_objx/lv_page.h **** 
   9:..\..\..\lvgl\version_6.1.2\lvgl\src\lv_objx/lv_page.h **** #ifdef __cplusplus
  10:..\..\..\lvgl\version_6.1.2\lvgl\src\lv_objx/lv_page.h **** extern "C" {
  11:..\..\..\lvgl\version_6.1.2\lvgl\src\lv_objx/lv_page.h **** #endif
  12:..\..\..\lvgl\version_6.1.2\lvgl\src\lv_objx/lv_page.h **** 
  13:..\..\..\lvgl\version_6.1.2\lvgl\src\lv_objx/lv_page.h **** /*********************
  14:..\..\..\lvgl\version_6.1.2\lvgl\src\lv_objx/lv_page.h ****  *      INCLUDES
  15:..\..\..\lvgl\version_6.1.2\lvgl\src\lv_objx/lv_page.h ****  *********************/
  16:..\..\..\lvgl\version_6.1.2\lvgl\src\lv_objx/lv_page.h **** #ifdef LV_CONF_INCLUDE_SIMPLE
  17:..\..\..\lvgl\version_6.1.2\lvgl\src\lv_objx/lv_page.h **** #include "lv_conf.h"
  18:..\..\..\lvgl\version_6.1.2\lvgl\src\lv_objx/lv_page.h **** #else
  19:..\..\..\lvgl\version_6.1.2\lvgl\src\lv_objx/lv_page.h **** #include "../../../lv_conf.h"
  20:..\..\..\lvgl\version_6.1.2\lvgl\src\lv_objx/lv_page.h **** #endif
  21:..\..\..\lvgl\version_6.1.2\lvgl\src\lv_objx/lv_page.h **** 
  22:..\..\..\lvgl\version_6.1.2\lvgl\src\lv_objx/lv_page.h **** #if LV_USE_PAGE != 0
  23:..\..\..\lvgl\version_6.1.2\lvgl\src\lv_objx/lv_page.h **** 
  24:..\..\..\lvgl\version_6.1.2\lvgl\src\lv_objx/lv_page.h **** /*Testing of dependencies*/
  25:..\..\..\lvgl\version_6.1.2\lvgl\src\lv_objx/lv_page.h **** #if LV_USE_CONT == 0
  26:..\..\..\lvgl\version_6.1.2\lvgl\src\lv_objx/lv_page.h **** #error "lv_page: lv_cont is required. Enable it in lv_conf.h (LV_USE_CONT  1) "
  27:..\..\..\lvgl\version_6.1.2\lvgl\src\lv_objx/lv_page.h **** #endif
  28:..\..\..\lvgl\version_6.1.2\lvgl\src\lv_objx/lv_page.h **** 
  29:..\..\..\lvgl\version_6.1.2\lvgl\src\lv_objx/lv_page.h **** #include "lv_cont.h"
  30:..\..\..\lvgl\version_6.1.2\lvgl\src\lv_objx/lv_page.h **** #include "../lv_core/lv_indev.h"
  31:..\..\..\lvgl\version_6.1.2\lvgl\src\lv_objx/lv_page.h **** #include "../lv_misc/lv_anim.h"
  32:..\..\..\lvgl\version_6.1.2\lvgl\src\lv_objx/lv_page.h **** 
  33:..\..\..\lvgl\version_6.1.2\lvgl\src\lv_objx/lv_page.h **** /*********************
  34:..\..\..\lvgl\version_6.1.2\lvgl\src\lv_objx/lv_page.h ****  *      DEFINES
  35:..\..\..\lvgl\version_6.1.2\lvgl\src\lv_objx/lv_page.h ****  *********************/
  36:..\..\..\lvgl\version_6.1.2\lvgl\src\lv_objx/lv_page.h **** 
  37:..\..\..\lvgl\version_6.1.2\lvgl\src\lv_objx/lv_page.h **** /**********************
ARM GAS  C:\Users\tmj32\AppData\Local\Temp\ccI3WYuM.s 			page 12


  38:..\..\..\lvgl\version_6.1.2\lvgl\src\lv_objx/lv_page.h ****  *      TYPEDEFS
  39:..\..\..\lvgl\version_6.1.2\lvgl\src\lv_objx/lv_page.h ****  **********************/
  40:..\..\..\lvgl\version_6.1.2\lvgl\src\lv_objx/lv_page.h **** 
  41:..\..\..\lvgl\version_6.1.2\lvgl\src\lv_objx/lv_page.h **** /** Scrollbar modes: shows when should the scrollbars be visible*/
  42:..\..\..\lvgl\version_6.1.2\lvgl\src\lv_objx/lv_page.h **** enum {
  43:..\..\..\lvgl\version_6.1.2\lvgl\src\lv_objx/lv_page.h ****     LV_SB_MODE_OFF    = 0x0, /**< Never show scrollbars*/
  44:..\..\..\lvgl\version_6.1.2\lvgl\src\lv_objx/lv_page.h ****     LV_SB_MODE_ON     = 0x1, /**< Always show scrollbars*/
  45:..\..\..\lvgl\version_6.1.2\lvgl\src\lv_objx/lv_page.h ****     LV_SB_MODE_DRAG   = 0x2, /**< Show scrollbars when page is being dragged*/
  46:..\..\..\lvgl\version_6.1.2\lvgl\src\lv_objx/lv_page.h ****     LV_SB_MODE_AUTO   = 0x3, /**< Show scrollbars when the scrollable container is large enough to 
  47:..\..\..\lvgl\version_6.1.2\lvgl\src\lv_objx/lv_page.h ****     LV_SB_MODE_HIDE   = 0x4, /**< Hide the scroll bar temporally*/
  48:..\..\..\lvgl\version_6.1.2\lvgl\src\lv_objx/lv_page.h ****     LV_SB_MODE_UNHIDE = 0x5, /**< Unhide the previously hidden scrollbar. Recover it's type too*/
  49:..\..\..\lvgl\version_6.1.2\lvgl\src\lv_objx/lv_page.h **** };
  50:..\..\..\lvgl\version_6.1.2\lvgl\src\lv_objx/lv_page.h **** typedef uint8_t lv_sb_mode_t;
  51:..\..\..\lvgl\version_6.1.2\lvgl\src\lv_objx/lv_page.h **** 
  52:..\..\..\lvgl\version_6.1.2\lvgl\src\lv_objx/lv_page.h **** /** Edges: describes the four edges of the page*/
  53:..\..\..\lvgl\version_6.1.2\lvgl\src\lv_objx/lv_page.h **** enum { LV_PAGE_EDGE_LEFT = 0x1, LV_PAGE_EDGE_TOP = 0x2, LV_PAGE_EDGE_RIGHT = 0x4, LV_PAGE_EDGE_BOTT
  54:..\..\..\lvgl\version_6.1.2\lvgl\src\lv_objx/lv_page.h **** typedef uint8_t lv_page_edge_t;
  55:..\..\..\lvgl\version_6.1.2\lvgl\src\lv_objx/lv_page.h **** 
  56:..\..\..\lvgl\version_6.1.2\lvgl\src\lv_objx/lv_page.h **** /*Data of page*/
  57:..\..\..\lvgl\version_6.1.2\lvgl\src\lv_objx/lv_page.h **** typedef struct
  58:..\..\..\lvgl\version_6.1.2\lvgl\src\lv_objx/lv_page.h **** {
  59:..\..\..\lvgl\version_6.1.2\lvgl\src\lv_objx/lv_page.h ****     lv_cont_ext_t bg; /*Ext. of ancestor*/
  60:..\..\..\lvgl\version_6.1.2\lvgl\src\lv_objx/lv_page.h ****     /*New data for this type */
  61:..\..\..\lvgl\version_6.1.2\lvgl\src\lv_objx/lv_page.h ****     lv_obj_t * scrl; /*The scrollable object on the background*/
  62:..\..\..\lvgl\version_6.1.2\lvgl\src\lv_objx/lv_page.h ****     struct
  63:..\..\..\lvgl\version_6.1.2\lvgl\src\lv_objx/lv_page.h ****     {
  64:..\..\..\lvgl\version_6.1.2\lvgl\src\lv_objx/lv_page.h ****         const lv_style_t * style; /*Style of scrollbars*/
  65:..\..\..\lvgl\version_6.1.2\lvgl\src\lv_objx/lv_page.h ****         lv_area_t hor_area;       /*Horizontal scrollbar area relative to the page. (Handled by the
  66:..\..\..\lvgl\version_6.1.2\lvgl\src\lv_objx/lv_page.h ****         lv_area_t ver_area;       /*Vertical scrollbar area relative to the page (Handled by the li
  67:..\..\..\lvgl\version_6.1.2\lvgl\src\lv_objx/lv_page.h ****         uint8_t hor_draw : 1;     /*1: horizontal scrollbar is visible now (Handled by the library)
  68:..\..\..\lvgl\version_6.1.2\lvgl\src\lv_objx/lv_page.h ****         uint8_t ver_draw : 1;     /*1: vertical scrollbar is visible now (Handled by the library)*/
  69:..\..\..\lvgl\version_6.1.2\lvgl\src\lv_objx/lv_page.h ****         lv_sb_mode_t mode : 3;    /*Scrollbar visibility from 'lv_page_sb_mode_t'*/
  70:..\..\..\lvgl\version_6.1.2\lvgl\src\lv_objx/lv_page.h ****     } sb;
  71:..\..\..\lvgl\version_6.1.2\lvgl\src\lv_objx/lv_page.h **** #if LV_USE_ANIMATION
  72:..\..\..\lvgl\version_6.1.2\lvgl\src\lv_objx/lv_page.h ****     struct
  73:..\..\..\lvgl\version_6.1.2\lvgl\src\lv_objx/lv_page.h ****     {
  74:..\..\..\lvgl\version_6.1.2\lvgl\src\lv_objx/lv_page.h ****         lv_anim_value_t state;    /*Store the current size of the edge flash effect*/
  75:..\..\..\lvgl\version_6.1.2\lvgl\src\lv_objx/lv_page.h ****         const lv_style_t * style; /*Style of edge flash effect (usually homogeneous circle)*/
  76:..\..\..\lvgl\version_6.1.2\lvgl\src\lv_objx/lv_page.h ****         uint8_t enabled : 1;      /*1: Show a flash animation on the edge*/
  77:..\..\..\lvgl\version_6.1.2\lvgl\src\lv_objx/lv_page.h ****         uint8_t top_ip : 1;       /*Used internally to show that top most position is reached (flas
  78:..\..\..\lvgl\version_6.1.2\lvgl\src\lv_objx/lv_page.h ****                                      Progress)*/
  79:..\..\..\lvgl\version_6.1.2\lvgl\src\lv_objx/lv_page.h ****         uint8_t bottom_ip : 1;    /*Used internally to show that bottom most position is reached (f
  80:..\..\..\lvgl\version_6.1.2\lvgl\src\lv_objx/lv_page.h ****                                      is In Progress)*/
  81:..\..\..\lvgl\version_6.1.2\lvgl\src\lv_objx/lv_page.h ****         uint8_t right_ip : 1;     /*Used internally to show that right most position is reached (fl
  82:..\..\..\lvgl\version_6.1.2\lvgl\src\lv_objx/lv_page.h ****                                      is In Progress)*/
  83:..\..\..\lvgl\version_6.1.2\lvgl\src\lv_objx/lv_page.h ****         uint8_t left_ip : 1;      /*Used internally to show that left most position is reached (fla
  84:..\..\..\lvgl\version_6.1.2\lvgl\src\lv_objx/lv_page.h ****                                      In Progress)*/
  85:..\..\..\lvgl\version_6.1.2\lvgl\src\lv_objx/lv_page.h ****     } edge_flash;
  86:..\..\..\lvgl\version_6.1.2\lvgl\src\lv_objx/lv_page.h **** 
  87:..\..\..\lvgl\version_6.1.2\lvgl\src\lv_objx/lv_page.h ****     uint16_t anim_time; /*Scroll animation time*/
  88:..\..\..\lvgl\version_6.1.2\lvgl\src\lv_objx/lv_page.h **** #endif
  89:..\..\..\lvgl\version_6.1.2\lvgl\src\lv_objx/lv_page.h **** 
  90:..\..\..\lvgl\version_6.1.2\lvgl\src\lv_objx/lv_page.h ****     uint8_t scroll_prop : 1;    /*1: Propagate the scrolling the the parent if the edge is reached*
  91:..\..\..\lvgl\version_6.1.2\lvgl\src\lv_objx/lv_page.h ****     uint8_t scroll_prop_ip : 1; /*1: Scroll propagation is in progress (used by the library)*/
  92:..\..\..\lvgl\version_6.1.2\lvgl\src\lv_objx/lv_page.h **** } lv_page_ext_t;
  93:..\..\..\lvgl\version_6.1.2\lvgl\src\lv_objx/lv_page.h **** 
  94:..\..\..\lvgl\version_6.1.2\lvgl\src\lv_objx/lv_page.h **** enum {
ARM GAS  C:\Users\tmj32\AppData\Local\Temp\ccI3WYuM.s 			page 13


  95:..\..\..\lvgl\version_6.1.2\lvgl\src\lv_objx/lv_page.h ****     LV_PAGE_STYLE_BG,
  96:..\..\..\lvgl\version_6.1.2\lvgl\src\lv_objx/lv_page.h ****     LV_PAGE_STYLE_SCRL,
  97:..\..\..\lvgl\version_6.1.2\lvgl\src\lv_objx/lv_page.h ****     LV_PAGE_STYLE_SB,
  98:..\..\..\lvgl\version_6.1.2\lvgl\src\lv_objx/lv_page.h ****     LV_PAGE_STYLE_EDGE_FLASH,
  99:..\..\..\lvgl\version_6.1.2\lvgl\src\lv_objx/lv_page.h **** };
 100:..\..\..\lvgl\version_6.1.2\lvgl\src\lv_objx/lv_page.h **** typedef uint8_t lv_page_style_t;
 101:..\..\..\lvgl\version_6.1.2\lvgl\src\lv_objx/lv_page.h **** 
 102:..\..\..\lvgl\version_6.1.2\lvgl\src\lv_objx/lv_page.h **** /**********************
 103:..\..\..\lvgl\version_6.1.2\lvgl\src\lv_objx/lv_page.h ****  * GLOBAL PROTOTYPES
 104:..\..\..\lvgl\version_6.1.2\lvgl\src\lv_objx/lv_page.h ****  **********************/
 105:..\..\..\lvgl\version_6.1.2\lvgl\src\lv_objx/lv_page.h **** 
 106:..\..\..\lvgl\version_6.1.2\lvgl\src\lv_objx/lv_page.h **** /**
 107:..\..\..\lvgl\version_6.1.2\lvgl\src\lv_objx/lv_page.h ****  * Create a page objects
 108:..\..\..\lvgl\version_6.1.2\lvgl\src\lv_objx/lv_page.h ****  * @param par pointer to an object, it will be the parent of the new page
 109:..\..\..\lvgl\version_6.1.2\lvgl\src\lv_objx/lv_page.h ****  * @param copy pointer to a page object, if not NULL then the new object will be copied from it
 110:..\..\..\lvgl\version_6.1.2\lvgl\src\lv_objx/lv_page.h ****  * @return pointer to the created page
 111:..\..\..\lvgl\version_6.1.2\lvgl\src\lv_objx/lv_page.h ****  */
 112:..\..\..\lvgl\version_6.1.2\lvgl\src\lv_objx/lv_page.h **** lv_obj_t * lv_page_create(lv_obj_t * par, const lv_obj_t * copy);
 113:..\..\..\lvgl\version_6.1.2\lvgl\src\lv_objx/lv_page.h **** 
 114:..\..\..\lvgl\version_6.1.2\lvgl\src\lv_objx/lv_page.h **** /**
 115:..\..\..\lvgl\version_6.1.2\lvgl\src\lv_objx/lv_page.h ****  * Delete all children of the scrl object, without deleting scrl child.
 116:..\..\..\lvgl\version_6.1.2\lvgl\src\lv_objx/lv_page.h ****  * @param page pointer to an object
 117:..\..\..\lvgl\version_6.1.2\lvgl\src\lv_objx/lv_page.h ****  */
 118:..\..\..\lvgl\version_6.1.2\lvgl\src\lv_objx/lv_page.h **** void lv_page_clean(lv_obj_t * page);
 119:..\..\..\lvgl\version_6.1.2\lvgl\src\lv_objx/lv_page.h **** 
 120:..\..\..\lvgl\version_6.1.2\lvgl\src\lv_objx/lv_page.h **** /**
 121:..\..\..\lvgl\version_6.1.2\lvgl\src\lv_objx/lv_page.h ****  * Get the scrollable object of a page
 122:..\..\..\lvgl\version_6.1.2\lvgl\src\lv_objx/lv_page.h ****  * @param page pointer to a page object
 123:..\..\..\lvgl\version_6.1.2\lvgl\src\lv_objx/lv_page.h ****  * @return pointer to a container which is the scrollable part of the page
 124:..\..\..\lvgl\version_6.1.2\lvgl\src\lv_objx/lv_page.h ****  */
 125:..\..\..\lvgl\version_6.1.2\lvgl\src\lv_objx/lv_page.h **** lv_obj_t * lv_page_get_scrl(const lv_obj_t * page);
 126:..\..\..\lvgl\version_6.1.2\lvgl\src\lv_objx/lv_page.h **** 
 127:..\..\..\lvgl\version_6.1.2\lvgl\src\lv_objx/lv_page.h **** /**
 128:..\..\..\lvgl\version_6.1.2\lvgl\src\lv_objx/lv_page.h ****  * Get the animation time
 129:..\..\..\lvgl\version_6.1.2\lvgl\src\lv_objx/lv_page.h ****  * @param page pointer to a page object
 130:..\..\..\lvgl\version_6.1.2\lvgl\src\lv_objx/lv_page.h ****  * @return the animation time in milliseconds
 131:..\..\..\lvgl\version_6.1.2\lvgl\src\lv_objx/lv_page.h ****  */
 132:..\..\..\lvgl\version_6.1.2\lvgl\src\lv_objx/lv_page.h **** uint16_t lv_page_get_anim_time(const lv_obj_t * page);
 133:..\..\..\lvgl\version_6.1.2\lvgl\src\lv_objx/lv_page.h **** 
 134:..\..\..\lvgl\version_6.1.2\lvgl\src\lv_objx/lv_page.h **** /*=====================
 135:..\..\..\lvgl\version_6.1.2\lvgl\src\lv_objx/lv_page.h ****  * Setter functions
 136:..\..\..\lvgl\version_6.1.2\lvgl\src\lv_objx/lv_page.h ****  *====================*/
 137:..\..\..\lvgl\version_6.1.2\lvgl\src\lv_objx/lv_page.h **** 
 138:..\..\..\lvgl\version_6.1.2\lvgl\src\lv_objx/lv_page.h **** /**
 139:..\..\..\lvgl\version_6.1.2\lvgl\src\lv_objx/lv_page.h ****  * Set the scroll bar mode on a page
 140:..\..\..\lvgl\version_6.1.2\lvgl\src\lv_objx/lv_page.h ****  * @param page pointer to a page object
 141:..\..\..\lvgl\version_6.1.2\lvgl\src\lv_objx/lv_page.h ****  * @param sb_mode the new mode from 'lv_page_sb.mode_t' enum
 142:..\..\..\lvgl\version_6.1.2\lvgl\src\lv_objx/lv_page.h ****  */
 143:..\..\..\lvgl\version_6.1.2\lvgl\src\lv_objx/lv_page.h **** void lv_page_set_sb_mode(lv_obj_t * page, lv_sb_mode_t sb_mode);
 144:..\..\..\lvgl\version_6.1.2\lvgl\src\lv_objx/lv_page.h **** 
 145:..\..\..\lvgl\version_6.1.2\lvgl\src\lv_objx/lv_page.h **** /**
 146:..\..\..\lvgl\version_6.1.2\lvgl\src\lv_objx/lv_page.h ****  * Set the animation time for the page
 147:..\..\..\lvgl\version_6.1.2\lvgl\src\lv_objx/lv_page.h ****  * @param page pointer to a page object
 148:..\..\..\lvgl\version_6.1.2\lvgl\src\lv_objx/lv_page.h ****  * @param anim_time animation time in milliseconds
 149:..\..\..\lvgl\version_6.1.2\lvgl\src\lv_objx/lv_page.h ****  */
 150:..\..\..\lvgl\version_6.1.2\lvgl\src\lv_objx/lv_page.h **** void lv_page_set_anim_time(lv_obj_t * page, uint16_t anim_time);
 151:..\..\..\lvgl\version_6.1.2\lvgl\src\lv_objx/lv_page.h **** 
ARM GAS  C:\Users\tmj32\AppData\Local\Temp\ccI3WYuM.s 			page 14


 152:..\..\..\lvgl\version_6.1.2\lvgl\src\lv_objx/lv_page.h **** /**
 153:..\..\..\lvgl\version_6.1.2\lvgl\src\lv_objx/lv_page.h ****  * Enable the scroll propagation feature. If enabled then the page will move its parent if there is
 154:..\..\..\lvgl\version_6.1.2\lvgl\src\lv_objx/lv_page.h ****  * no more space to scroll.
 155:..\..\..\lvgl\version_6.1.2\lvgl\src\lv_objx/lv_page.h ****  * @param page pointer to a Page
 156:..\..\..\lvgl\version_6.1.2\lvgl\src\lv_objx/lv_page.h ****  * @param en true or false to enable/disable scroll propagation
 157:..\..\..\lvgl\version_6.1.2\lvgl\src\lv_objx/lv_page.h ****  */
 158:..\..\..\lvgl\version_6.1.2\lvgl\src\lv_objx/lv_page.h **** void lv_page_set_scroll_propagation(lv_obj_t * page, bool en);
 159:..\..\..\lvgl\version_6.1.2\lvgl\src\lv_objx/lv_page.h **** 
 160:..\..\..\lvgl\version_6.1.2\lvgl\src\lv_objx/lv_page.h **** /**
 161:..\..\..\lvgl\version_6.1.2\lvgl\src\lv_objx/lv_page.h ****  * Enable the edge flash effect. (Show an arc when the an edge is reached)
 162:..\..\..\lvgl\version_6.1.2\lvgl\src\lv_objx/lv_page.h ****  * @param page pointer to a Page
 163:..\..\..\lvgl\version_6.1.2\lvgl\src\lv_objx/lv_page.h ****  * @param en true or false to enable/disable end flash
 164:..\..\..\lvgl\version_6.1.2\lvgl\src\lv_objx/lv_page.h ****  */
 165:..\..\..\lvgl\version_6.1.2\lvgl\src\lv_objx/lv_page.h **** void lv_page_set_edge_flash(lv_obj_t * page, bool en);
 166:..\..\..\lvgl\version_6.1.2\lvgl\src\lv_objx/lv_page.h **** 
 167:..\..\..\lvgl\version_6.1.2\lvgl\src\lv_objx/lv_page.h **** /**
 168:..\..\..\lvgl\version_6.1.2\lvgl\src\lv_objx/lv_page.h ****  * Set the fit policy in all 4 directions separately.
 169:..\..\..\lvgl\version_6.1.2\lvgl\src\lv_objx/lv_page.h ****  * It tell how to change the page size automatically.
 170:..\..\..\lvgl\version_6.1.2\lvgl\src\lv_objx/lv_page.h ****  * @param page pointer to a page object
 171:..\..\..\lvgl\version_6.1.2\lvgl\src\lv_objx/lv_page.h ****  * @param left left fit policy from `lv_fit_t`
 172:..\..\..\lvgl\version_6.1.2\lvgl\src\lv_objx/lv_page.h ****  * @param right right fit policy from `lv_fit_t`
 173:..\..\..\lvgl\version_6.1.2\lvgl\src\lv_objx/lv_page.h ****  * @param top bottom fit policy from `lv_fit_t`
 174:..\..\..\lvgl\version_6.1.2\lvgl\src\lv_objx/lv_page.h ****  * @param bottom bottom fit policy from `lv_fit_t`
 175:..\..\..\lvgl\version_6.1.2\lvgl\src\lv_objx/lv_page.h ****  */
 176:..\..\..\lvgl\version_6.1.2\lvgl\src\lv_objx/lv_page.h **** static inline void lv_page_set_scrl_fit4(lv_obj_t * page, lv_fit_t left, lv_fit_t right, lv_fit_t t
 177:..\..\..\lvgl\version_6.1.2\lvgl\src\lv_objx/lv_page.h **** {
 178:..\..\..\lvgl\version_6.1.2\lvgl\src\lv_objx/lv_page.h ****     lv_cont_set_fit4(lv_page_get_scrl(page), left, right, top, bottom);
 179:..\..\..\lvgl\version_6.1.2\lvgl\src\lv_objx/lv_page.h **** }
 180:..\..\..\lvgl\version_6.1.2\lvgl\src\lv_objx/lv_page.h **** 
 181:..\..\..\lvgl\version_6.1.2\lvgl\src\lv_objx/lv_page.h **** /**
 182:..\..\..\lvgl\version_6.1.2\lvgl\src\lv_objx/lv_page.h ****  * Set the fit policy horizontally and vertically separately.
 183:..\..\..\lvgl\version_6.1.2\lvgl\src\lv_objx/lv_page.h ****  * It tell how to change the page size automatically.
 184:..\..\..\lvgl\version_6.1.2\lvgl\src\lv_objx/lv_page.h ****  * @param page pointer to a page object
 185:..\..\..\lvgl\version_6.1.2\lvgl\src\lv_objx/lv_page.h ****  * @param hot horizontal fit policy from `lv_fit_t`
 186:..\..\..\lvgl\version_6.1.2\lvgl\src\lv_objx/lv_page.h ****  * @param ver vertical fit policy from `lv_fit_t`
 187:..\..\..\lvgl\version_6.1.2\lvgl\src\lv_objx/lv_page.h ****  */
 188:..\..\..\lvgl\version_6.1.2\lvgl\src\lv_objx/lv_page.h **** static inline void lv_page_set_scrl_fit2(lv_obj_t * page, lv_fit_t hor, lv_fit_t ver)
 189:..\..\..\lvgl\version_6.1.2\lvgl\src\lv_objx/lv_page.h **** {
 241              		.loc 4 189 0
 242              		.cfi_startproc
 243              		@ args = 0, pretend = 0, frame = 8
 244              		@ frame_needed = 1, uses_anonymous_args = 0
 245 0000 80B5     		push	{r7, lr}
 246              		.cfi_def_cfa_offset 8
 247              		.cfi_offset 7, -8
 248              		.cfi_offset 14, -4
 249 0002 82B0     		sub	sp, sp, #8
 250              		.cfi_def_cfa_offset 16
 251 0004 00AF     		add	r7, sp, #0
 252              		.cfi_def_cfa_register 7
 253 0006 7860     		str	r0, [r7, #4]
 254 0008 0B46     		mov	r3, r1
 255 000a FB70     		strb	r3, [r7, #3]
 256 000c 1346     		mov	r3, r2
 257 000e BB70     		strb	r3, [r7, #2]
 190:..\..\..\lvgl\version_6.1.2\lvgl\src\lv_objx/lv_page.h ****     lv_cont_set_fit2(lv_page_get_scrl(page), hor, ver);
 258              		.loc 4 190 0
ARM GAS  C:\Users\tmj32\AppData\Local\Temp\ccI3WYuM.s 			page 15


 259 0010 7868     		ldr	r0, [r7, #4]
 260 0012 FFF7FEFF 		bl	lv_page_get_scrl
 261 0016 BA78     		ldrb	r2, [r7, #2]	@ zero_extendqisi2
 262 0018 FB78     		ldrb	r3, [r7, #3]	@ zero_extendqisi2
 263 001a 1946     		mov	r1, r3
 264 001c FFF7FEFF 		bl	lv_cont_set_fit2
 191:..\..\..\lvgl\version_6.1.2\lvgl\src\lv_objx/lv_page.h **** }
 265              		.loc 4 191 0
 266 0020 00BF     		nop
 267 0022 0837     		adds	r7, r7, #8
 268              		.cfi_def_cfa_offset 8
 269 0024 BD46     		mov	sp, r7
 270              		.cfi_def_cfa_register 13
 271              		@ sp needed
 272 0026 80BD     		pop	{r7, pc}
 273              		.cfi_endproc
 274              	.LFE36:
 275              		.size	lv_page_set_scrl_fit2, .-lv_page_set_scrl_fit2
 276              		.section	.text.lv_label_set_style,"ax",%progbits
 277              		.align	2
 278              		.thumb
 279              		.thumb_func
 280              		.type	lv_label_set_style, %function
 281              	lv_label_set_style:
 282              	.LFB48:
 283              		.file 5 "..\\..\\..\\lvgl\\version_6.1.2\\lvgl\\src\\lv_objx\\lv_label.h"
   1:..\..\..\lvgl\version_6.1.2\lvgl\src\lv_objx/lv_label.h **** /**
   2:..\..\..\lvgl\version_6.1.2\lvgl\src\lv_objx/lv_label.h ****  * @file lv_rect.h
   3:..\..\..\lvgl\version_6.1.2\lvgl\src\lv_objx/lv_label.h ****  *
   4:..\..\..\lvgl\version_6.1.2\lvgl\src\lv_objx/lv_label.h ****  */
   5:..\..\..\lvgl\version_6.1.2\lvgl\src\lv_objx/lv_label.h **** 
   6:..\..\..\lvgl\version_6.1.2\lvgl\src\lv_objx/lv_label.h **** #ifndef LV_LABEL_H
   7:..\..\..\lvgl\version_6.1.2\lvgl\src\lv_objx/lv_label.h **** #define LV_LABEL_H
   8:..\..\..\lvgl\version_6.1.2\lvgl\src\lv_objx/lv_label.h **** 
   9:..\..\..\lvgl\version_6.1.2\lvgl\src\lv_objx/lv_label.h **** #ifdef __cplusplus
  10:..\..\..\lvgl\version_6.1.2\lvgl\src\lv_objx/lv_label.h **** extern "C" {
  11:..\..\..\lvgl\version_6.1.2\lvgl\src\lv_objx/lv_label.h **** #endif
  12:..\..\..\lvgl\version_6.1.2\lvgl\src\lv_objx/lv_label.h **** 
  13:..\..\..\lvgl\version_6.1.2\lvgl\src\lv_objx/lv_label.h **** /*********************
  14:..\..\..\lvgl\version_6.1.2\lvgl\src\lv_objx/lv_label.h ****  *      INCLUDES
  15:..\..\..\lvgl\version_6.1.2\lvgl\src\lv_objx/lv_label.h ****  *********************/
  16:..\..\..\lvgl\version_6.1.2\lvgl\src\lv_objx/lv_label.h **** #ifdef LV_CONF_INCLUDE_SIMPLE
  17:..\..\..\lvgl\version_6.1.2\lvgl\src\lv_objx/lv_label.h **** #include "lv_conf.h"
  18:..\..\..\lvgl\version_6.1.2\lvgl\src\lv_objx/lv_label.h **** #else
  19:..\..\..\lvgl\version_6.1.2\lvgl\src\lv_objx/lv_label.h **** #include "../../../lv_conf.h"
  20:..\..\..\lvgl\version_6.1.2\lvgl\src\lv_objx/lv_label.h **** #endif
  21:..\..\..\lvgl\version_6.1.2\lvgl\src\lv_objx/lv_label.h **** 
  22:..\..\..\lvgl\version_6.1.2\lvgl\src\lv_objx/lv_label.h **** #if LV_USE_LABEL != 0
  23:..\..\..\lvgl\version_6.1.2\lvgl\src\lv_objx/lv_label.h **** 
  24:..\..\..\lvgl\version_6.1.2\lvgl\src\lv_objx/lv_label.h **** #include <stdarg.h>
  25:..\..\..\lvgl\version_6.1.2\lvgl\src\lv_objx/lv_label.h **** #include "../lv_core/lv_obj.h"
  26:..\..\..\lvgl\version_6.1.2\lvgl\src\lv_objx/lv_label.h **** #include "../lv_font/lv_font.h"
  27:..\..\..\lvgl\version_6.1.2\lvgl\src\lv_objx/lv_label.h **** #include "../lv_font/lv_symbol_def.h"
  28:..\..\..\lvgl\version_6.1.2\lvgl\src\lv_objx/lv_label.h **** #include "../lv_misc/lv_txt.h"
  29:..\..\..\lvgl\version_6.1.2\lvgl\src\lv_objx/lv_label.h **** #include "../lv_draw/lv_draw.h"
  30:..\..\..\lvgl\version_6.1.2\lvgl\src\lv_objx/lv_label.h **** 
  31:..\..\..\lvgl\version_6.1.2\lvgl\src\lv_objx/lv_label.h **** /*********************
ARM GAS  C:\Users\tmj32\AppData\Local\Temp\ccI3WYuM.s 			page 16


  32:..\..\..\lvgl\version_6.1.2\lvgl\src\lv_objx/lv_label.h ****  *      DEFINES
  33:..\..\..\lvgl\version_6.1.2\lvgl\src\lv_objx/lv_label.h ****  *********************/
  34:..\..\..\lvgl\version_6.1.2\lvgl\src\lv_objx/lv_label.h **** #define LV_LABEL_DOT_NUM 3
  35:..\..\..\lvgl\version_6.1.2\lvgl\src\lv_objx/lv_label.h **** #define LV_LABEL_POS_LAST 0xFFFF
  36:..\..\..\lvgl\version_6.1.2\lvgl\src\lv_objx/lv_label.h **** #define LV_LABEL_TEXT_SEL_OFF LV_DRAW_LABEL_NO_TXT_SEL
  37:..\..\..\lvgl\version_6.1.2\lvgl\src\lv_objx/lv_label.h **** 
  38:..\..\..\lvgl\version_6.1.2\lvgl\src\lv_objx/lv_label.h **** LV_EXPORT_CONST_INT(LV_LABEL_DOT_NUM);
  39:..\..\..\lvgl\version_6.1.2\lvgl\src\lv_objx/lv_label.h **** LV_EXPORT_CONST_INT(LV_LABEL_POS_LAST);
  40:..\..\..\lvgl\version_6.1.2\lvgl\src\lv_objx/lv_label.h **** LV_EXPORT_CONST_INT(LV_LABEL_TEXT_SEL_OFF);
  41:..\..\..\lvgl\version_6.1.2\lvgl\src\lv_objx/lv_label.h **** 
  42:..\..\..\lvgl\version_6.1.2\lvgl\src\lv_objx/lv_label.h **** /**********************
  43:..\..\..\lvgl\version_6.1.2\lvgl\src\lv_objx/lv_label.h ****  *      TYPEDEFS
  44:..\..\..\lvgl\version_6.1.2\lvgl\src\lv_objx/lv_label.h ****  **********************/
  45:..\..\..\lvgl\version_6.1.2\lvgl\src\lv_objx/lv_label.h **** 
  46:..\..\..\lvgl\version_6.1.2\lvgl\src\lv_objx/lv_label.h **** /** Long mode behaviors. Used in 'lv_label_ext_t' */
  47:..\..\..\lvgl\version_6.1.2\lvgl\src\lv_objx/lv_label.h **** enum {
  48:..\..\..\lvgl\version_6.1.2\lvgl\src\lv_objx/lv_label.h ****     LV_LABEL_LONG_EXPAND,    /**< Expand the object size to the text size*/
  49:..\..\..\lvgl\version_6.1.2\lvgl\src\lv_objx/lv_label.h ****     LV_LABEL_LONG_BREAK,     /**< Keep the object width, break the too long lines and expand the ob
  50:..\..\..\lvgl\version_6.1.2\lvgl\src\lv_objx/lv_label.h ****                                 height*/
  51:..\..\..\lvgl\version_6.1.2\lvgl\src\lv_objx/lv_label.h ****     LV_LABEL_LONG_DOT,       /**< Keep the size and write dots at the end if the text is too long*/
  52:..\..\..\lvgl\version_6.1.2\lvgl\src\lv_objx/lv_label.h ****     LV_LABEL_LONG_SROLL,      /**< Keep the size and roll the text back and forth*/
  53:..\..\..\lvgl\version_6.1.2\lvgl\src\lv_objx/lv_label.h ****     LV_LABEL_LONG_SROLL_CIRC, /**< Keep the size and roll the text circularly*/
  54:..\..\..\lvgl\version_6.1.2\lvgl\src\lv_objx/lv_label.h ****     LV_LABEL_LONG_CROP,      /**< Keep the size and crop the text out of it*/
  55:..\..\..\lvgl\version_6.1.2\lvgl\src\lv_objx/lv_label.h **** };
  56:..\..\..\lvgl\version_6.1.2\lvgl\src\lv_objx/lv_label.h **** typedef uint8_t lv_label_long_mode_t;
  57:..\..\..\lvgl\version_6.1.2\lvgl\src\lv_objx/lv_label.h **** 
  58:..\..\..\lvgl\version_6.1.2\lvgl\src\lv_objx/lv_label.h **** /** Label align policy*/
  59:..\..\..\lvgl\version_6.1.2\lvgl\src\lv_objx/lv_label.h **** enum {
  60:..\..\..\lvgl\version_6.1.2\lvgl\src\lv_objx/lv_label.h ****     LV_LABEL_ALIGN_LEFT, /**< Align text to left */
  61:..\..\..\lvgl\version_6.1.2\lvgl\src\lv_objx/lv_label.h ****     LV_LABEL_ALIGN_CENTER, /**< Align text to center */
  62:..\..\..\lvgl\version_6.1.2\lvgl\src\lv_objx/lv_label.h ****     LV_LABEL_ALIGN_RIGHT, /**< Align text to right */
  63:..\..\..\lvgl\version_6.1.2\lvgl\src\lv_objx/lv_label.h ****     LV_LABEL_ALIGN_AUTO, /**< Use LEFT or RIGHT depending on the direction of the text (LTR/RTL)*/
  64:..\..\..\lvgl\version_6.1.2\lvgl\src\lv_objx/lv_label.h **** };
  65:..\..\..\lvgl\version_6.1.2\lvgl\src\lv_objx/lv_label.h **** typedef uint8_t lv_label_align_t;
  66:..\..\..\lvgl\version_6.1.2\lvgl\src\lv_objx/lv_label.h **** 
  67:..\..\..\lvgl\version_6.1.2\lvgl\src\lv_objx/lv_label.h **** /** Data of label*/
  68:..\..\..\lvgl\version_6.1.2\lvgl\src\lv_objx/lv_label.h **** typedef struct
  69:..\..\..\lvgl\version_6.1.2\lvgl\src\lv_objx/lv_label.h **** {
  70:..\..\..\lvgl\version_6.1.2\lvgl\src\lv_objx/lv_label.h ****     /*Inherited from 'base_obj' so no inherited ext.*/ /*Ext. of ancestor*/
  71:..\..\..\lvgl\version_6.1.2\lvgl\src\lv_objx/lv_label.h ****     /*New data for this type */
  72:..\..\..\lvgl\version_6.1.2\lvgl\src\lv_objx/lv_label.h ****     char * text;        /*Text of the label*/
  73:..\..\..\lvgl\version_6.1.2\lvgl\src\lv_objx/lv_label.h **** 
  74:..\..\..\lvgl\version_6.1.2\lvgl\src\lv_objx/lv_label.h ****     union
  75:..\..\..\lvgl\version_6.1.2\lvgl\src\lv_objx/lv_label.h ****     {
  76:..\..\..\lvgl\version_6.1.2\lvgl\src\lv_objx/lv_label.h ****         char * tmp_ptr; /* Pointer to the allocated memory containing the character which are repla
  77:..\..\..\lvgl\version_6.1.2\lvgl\src\lv_objx/lv_label.h ****                            by the library)*/
  78:..\..\..\lvgl\version_6.1.2\lvgl\src\lv_objx/lv_label.h ****         char tmp[LV_LABEL_DOT_NUM + 1]; /* Directly store the characters if <=4 characters */
  79:..\..\..\lvgl\version_6.1.2\lvgl\src\lv_objx/lv_label.h ****     } dot;
  80:..\..\..\lvgl\version_6.1.2\lvgl\src\lv_objx/lv_label.h ****     uint16_t dot_end;  /*The text end position in dot mode (Handled by the library)*/
  81:..\..\..\lvgl\version_6.1.2\lvgl\src\lv_objx/lv_label.h ****     lv_point_t offset; /*Text draw position offset*/
  82:..\..\..\lvgl\version_6.1.2\lvgl\src\lv_objx/lv_label.h **** #if LV_LABEL_LONG_TXT_HINT
  83:..\..\..\lvgl\version_6.1.2\lvgl\src\lv_objx/lv_label.h ****     lv_draw_label_hint_t hint; /*Used to buffer info about large text*/
  84:..\..\..\lvgl\version_6.1.2\lvgl\src\lv_objx/lv_label.h **** #endif
  85:..\..\..\lvgl\version_6.1.2\lvgl\src\lv_objx/lv_label.h **** 
  86:..\..\..\lvgl\version_6.1.2\lvgl\src\lv_objx/lv_label.h **** #if LV_USE_ANIMATION
  87:..\..\..\lvgl\version_6.1.2\lvgl\src\lv_objx/lv_label.h ****     uint16_t anim_speed; /*Speed of scroll and roll animation in px/sec unit*/
  88:..\..\..\lvgl\version_6.1.2\lvgl\src\lv_objx/lv_label.h **** #endif
ARM GAS  C:\Users\tmj32\AppData\Local\Temp\ccI3WYuM.s 			page 17


  89:..\..\..\lvgl\version_6.1.2\lvgl\src\lv_objx/lv_label.h **** 
  90:..\..\..\lvgl\version_6.1.2\lvgl\src\lv_objx/lv_label.h **** #if LV_LABEL_TEXT_SEL
  91:..\..\..\lvgl\version_6.1.2\lvgl\src\lv_objx/lv_label.h ****     uint16_t txt_sel_start; /*Left-most selection character*/
  92:..\..\..\lvgl\version_6.1.2\lvgl\src\lv_objx/lv_label.h ****     uint16_t txt_sel_end;   /*Right-most selection character*/
  93:..\..\..\lvgl\version_6.1.2\lvgl\src\lv_objx/lv_label.h **** #endif
  94:..\..\..\lvgl\version_6.1.2\lvgl\src\lv_objx/lv_label.h **** 
  95:..\..\..\lvgl\version_6.1.2\lvgl\src\lv_objx/lv_label.h ****     lv_label_long_mode_t long_mode : 3; /*Determinate what to do with the long texts*/
  96:..\..\..\lvgl\version_6.1.2\lvgl\src\lv_objx/lv_label.h ****     uint8_t static_txt : 1;             /*Flag to indicate the text is static*/
  97:..\..\..\lvgl\version_6.1.2\lvgl\src\lv_objx/lv_label.h ****     uint8_t align : 2;                  /*Align type from 'lv_label_align_t'*/
  98:..\..\..\lvgl\version_6.1.2\lvgl\src\lv_objx/lv_label.h ****     uint8_t recolor : 1;                /*Enable in-line letter re-coloring*/
  99:..\..\..\lvgl\version_6.1.2\lvgl\src\lv_objx/lv_label.h ****     uint8_t expand : 1;                 /*Ignore real width (used by the library with LV_LABEL_LONG
 100:..\..\..\lvgl\version_6.1.2\lvgl\src\lv_objx/lv_label.h ****     uint8_t body_draw : 1;              /*Draw background body*/
 101:..\..\..\lvgl\version_6.1.2\lvgl\src\lv_objx/lv_label.h ****     uint8_t dot_tmp_alloc : 1; /*True if dot_tmp has been allocated. False if dot_tmp directly hold
 102:..\..\..\lvgl\version_6.1.2\lvgl\src\lv_objx/lv_label.h ****                                   characters */
 103:..\..\..\lvgl\version_6.1.2\lvgl\src\lv_objx/lv_label.h **** } lv_label_ext_t;
 104:..\..\..\lvgl\version_6.1.2\lvgl\src\lv_objx/lv_label.h **** 
 105:..\..\..\lvgl\version_6.1.2\lvgl\src\lv_objx/lv_label.h **** /** Label styles*/
 106:..\..\..\lvgl\version_6.1.2\lvgl\src\lv_objx/lv_label.h **** enum {
 107:..\..\..\lvgl\version_6.1.2\lvgl\src\lv_objx/lv_label.h ****     LV_LABEL_STYLE_MAIN,
 108:..\..\..\lvgl\version_6.1.2\lvgl\src\lv_objx/lv_label.h **** };
 109:..\..\..\lvgl\version_6.1.2\lvgl\src\lv_objx/lv_label.h **** typedef uint8_t lv_label_style_t;
 110:..\..\..\lvgl\version_6.1.2\lvgl\src\lv_objx/lv_label.h **** 
 111:..\..\..\lvgl\version_6.1.2\lvgl\src\lv_objx/lv_label.h **** /**********************
 112:..\..\..\lvgl\version_6.1.2\lvgl\src\lv_objx/lv_label.h ****  * GLOBAL PROTOTYPES
 113:..\..\..\lvgl\version_6.1.2\lvgl\src\lv_objx/lv_label.h ****  **********************/
 114:..\..\..\lvgl\version_6.1.2\lvgl\src\lv_objx/lv_label.h **** 
 115:..\..\..\lvgl\version_6.1.2\lvgl\src\lv_objx/lv_label.h **** /**
 116:..\..\..\lvgl\version_6.1.2\lvgl\src\lv_objx/lv_label.h ****  * Create a label objects
 117:..\..\..\lvgl\version_6.1.2\lvgl\src\lv_objx/lv_label.h ****  * @param par pointer to an object, it will be the parent of the new label
 118:..\..\..\lvgl\version_6.1.2\lvgl\src\lv_objx/lv_label.h ****  * @param copy pointer to a button object, if not NULL then the new object will be copied from it
 119:..\..\..\lvgl\version_6.1.2\lvgl\src\lv_objx/lv_label.h ****  * @return pointer to the created button
 120:..\..\..\lvgl\version_6.1.2\lvgl\src\lv_objx/lv_label.h ****  */
 121:..\..\..\lvgl\version_6.1.2\lvgl\src\lv_objx/lv_label.h **** lv_obj_t * lv_label_create(lv_obj_t * par, const lv_obj_t * copy);
 122:..\..\..\lvgl\version_6.1.2\lvgl\src\lv_objx/lv_label.h **** 
 123:..\..\..\lvgl\version_6.1.2\lvgl\src\lv_objx/lv_label.h **** /*=====================
 124:..\..\..\lvgl\version_6.1.2\lvgl\src\lv_objx/lv_label.h ****  * Setter functions
 125:..\..\..\lvgl\version_6.1.2\lvgl\src\lv_objx/lv_label.h ****  *====================*/
 126:..\..\..\lvgl\version_6.1.2\lvgl\src\lv_objx/lv_label.h **** 
 127:..\..\..\lvgl\version_6.1.2\lvgl\src\lv_objx/lv_label.h **** /**
 128:..\..\..\lvgl\version_6.1.2\lvgl\src\lv_objx/lv_label.h ****  * Set a new text for a label. Memory will be allocated to store the text by the label.
 129:..\..\..\lvgl\version_6.1.2\lvgl\src\lv_objx/lv_label.h ****  * @param label pointer to a label object
 130:..\..\..\lvgl\version_6.1.2\lvgl\src\lv_objx/lv_label.h ****  * @param text '\0' terminated character string. NULL to refresh with the current text.
 131:..\..\..\lvgl\version_6.1.2\lvgl\src\lv_objx/lv_label.h ****  */
 132:..\..\..\lvgl\version_6.1.2\lvgl\src\lv_objx/lv_label.h **** void lv_label_set_text(lv_obj_t * label, const char * text);
 133:..\..\..\lvgl\version_6.1.2\lvgl\src\lv_objx/lv_label.h **** 
 134:..\..\..\lvgl\version_6.1.2\lvgl\src\lv_objx/lv_label.h **** /**
 135:..\..\..\lvgl\version_6.1.2\lvgl\src\lv_objx/lv_label.h ****  * Set a new formatted text for a label. Memory will be allocated to store the text by the label.
 136:..\..\..\lvgl\version_6.1.2\lvgl\src\lv_objx/lv_label.h ****  * @param label pointer to a label object
 137:..\..\..\lvgl\version_6.1.2\lvgl\src\lv_objx/lv_label.h ****  * @param fmt `printf`-like format
 138:..\..\..\lvgl\version_6.1.2\lvgl\src\lv_objx/lv_label.h ****  */
 139:..\..\..\lvgl\version_6.1.2\lvgl\src\lv_objx/lv_label.h **** void lv_label_set_text_fmt(lv_obj_t * label, const char * fmt, ...);
 140:..\..\..\lvgl\version_6.1.2\lvgl\src\lv_objx/lv_label.h **** 
 141:..\..\..\lvgl\version_6.1.2\lvgl\src\lv_objx/lv_label.h **** /**
 142:..\..\..\lvgl\version_6.1.2\lvgl\src\lv_objx/lv_label.h ****  * Set a new text for a label from a character array. The array don't has to be '\0' terminated.
 143:..\..\..\lvgl\version_6.1.2\lvgl\src\lv_objx/lv_label.h ****  * Memory will be allocated to store the array by the label.
 144:..\..\..\lvgl\version_6.1.2\lvgl\src\lv_objx/lv_label.h ****  * @param label pointer to a label object
 145:..\..\..\lvgl\version_6.1.2\lvgl\src\lv_objx/lv_label.h ****  * @param array array of characters or NULL to refresh the label
ARM GAS  C:\Users\tmj32\AppData\Local\Temp\ccI3WYuM.s 			page 18


 146:..\..\..\lvgl\version_6.1.2\lvgl\src\lv_objx/lv_label.h ****  * @param size the size of 'array' in bytes
 147:..\..\..\lvgl\version_6.1.2\lvgl\src\lv_objx/lv_label.h ****  */
 148:..\..\..\lvgl\version_6.1.2\lvgl\src\lv_objx/lv_label.h **** void lv_label_set_array_text(lv_obj_t * label, const char * array, uint16_t size);
 149:..\..\..\lvgl\version_6.1.2\lvgl\src\lv_objx/lv_label.h **** 
 150:..\..\..\lvgl\version_6.1.2\lvgl\src\lv_objx/lv_label.h **** /**
 151:..\..\..\lvgl\version_6.1.2\lvgl\src\lv_objx/lv_label.h ****  * Set a static text. It will not be saved by the label so the 'text' variable
 152:..\..\..\lvgl\version_6.1.2\lvgl\src\lv_objx/lv_label.h ****  * has to be 'alive' while the label exist.
 153:..\..\..\lvgl\version_6.1.2\lvgl\src\lv_objx/lv_label.h ****  * @param label pointer to a label object
 154:..\..\..\lvgl\version_6.1.2\lvgl\src\lv_objx/lv_label.h ****  * @param text pointer to a text. NULL to refresh with the current text.
 155:..\..\..\lvgl\version_6.1.2\lvgl\src\lv_objx/lv_label.h ****  */
 156:..\..\..\lvgl\version_6.1.2\lvgl\src\lv_objx/lv_label.h **** void lv_label_set_static_text(lv_obj_t * label, const char * text);
 157:..\..\..\lvgl\version_6.1.2\lvgl\src\lv_objx/lv_label.h **** 
 158:..\..\..\lvgl\version_6.1.2\lvgl\src\lv_objx/lv_label.h **** /**
 159:..\..\..\lvgl\version_6.1.2\lvgl\src\lv_objx/lv_label.h ****  * Set the behavior of the label with longer text then the object size
 160:..\..\..\lvgl\version_6.1.2\lvgl\src\lv_objx/lv_label.h ****  * @param label pointer to a label object
 161:..\..\..\lvgl\version_6.1.2\lvgl\src\lv_objx/lv_label.h ****  * @param long_mode the new mode from 'lv_label_long_mode' enum.
 162:..\..\..\lvgl\version_6.1.2\lvgl\src\lv_objx/lv_label.h ****  *                  In LV_LONG_BREAK/LONG/ROLL the size of the label should be set AFTER this
 163:..\..\..\lvgl\version_6.1.2\lvgl\src\lv_objx/lv_label.h ****  * function
 164:..\..\..\lvgl\version_6.1.2\lvgl\src\lv_objx/lv_label.h ****  */
 165:..\..\..\lvgl\version_6.1.2\lvgl\src\lv_objx/lv_label.h **** void lv_label_set_long_mode(lv_obj_t * label, lv_label_long_mode_t long_mode);
 166:..\..\..\lvgl\version_6.1.2\lvgl\src\lv_objx/lv_label.h **** 
 167:..\..\..\lvgl\version_6.1.2\lvgl\src\lv_objx/lv_label.h **** /**
 168:..\..\..\lvgl\version_6.1.2\lvgl\src\lv_objx/lv_label.h ****  * Set the align of the label (left or center)
 169:..\..\..\lvgl\version_6.1.2\lvgl\src\lv_objx/lv_label.h ****  * @param label pointer to a label object
 170:..\..\..\lvgl\version_6.1.2\lvgl\src\lv_objx/lv_label.h ****  * @param align 'LV_LABEL_ALIGN_LEFT' or 'LV_LABEL_ALIGN_LEFT'
 171:..\..\..\lvgl\version_6.1.2\lvgl\src\lv_objx/lv_label.h ****  */
 172:..\..\..\lvgl\version_6.1.2\lvgl\src\lv_objx/lv_label.h **** void lv_label_set_align(lv_obj_t * label, lv_label_align_t align);
 173:..\..\..\lvgl\version_6.1.2\lvgl\src\lv_objx/lv_label.h **** 
 174:..\..\..\lvgl\version_6.1.2\lvgl\src\lv_objx/lv_label.h **** /**
 175:..\..\..\lvgl\version_6.1.2\lvgl\src\lv_objx/lv_label.h ****  * Enable the recoloring by in-line commands
 176:..\..\..\lvgl\version_6.1.2\lvgl\src\lv_objx/lv_label.h ****  * @param label pointer to a label object
 177:..\..\..\lvgl\version_6.1.2\lvgl\src\lv_objx/lv_label.h ****  * @param en true: enable recoloring, false: disable
 178:..\..\..\lvgl\version_6.1.2\lvgl\src\lv_objx/lv_label.h ****  */
 179:..\..\..\lvgl\version_6.1.2\lvgl\src\lv_objx/lv_label.h **** void lv_label_set_recolor(lv_obj_t * label, bool en);
 180:..\..\..\lvgl\version_6.1.2\lvgl\src\lv_objx/lv_label.h **** 
 181:..\..\..\lvgl\version_6.1.2\lvgl\src\lv_objx/lv_label.h **** /**
 182:..\..\..\lvgl\version_6.1.2\lvgl\src\lv_objx/lv_label.h ****  * Set the label to draw (or not draw) background specified in its style's body
 183:..\..\..\lvgl\version_6.1.2\lvgl\src\lv_objx/lv_label.h ****  * @param label pointer to a label object
 184:..\..\..\lvgl\version_6.1.2\lvgl\src\lv_objx/lv_label.h ****  * @param en true: draw body; false: don't draw body
 185:..\..\..\lvgl\version_6.1.2\lvgl\src\lv_objx/lv_label.h ****  */
 186:..\..\..\lvgl\version_6.1.2\lvgl\src\lv_objx/lv_label.h **** void lv_label_set_body_draw(lv_obj_t * label, bool en);
 187:..\..\..\lvgl\version_6.1.2\lvgl\src\lv_objx/lv_label.h **** 
 188:..\..\..\lvgl\version_6.1.2\lvgl\src\lv_objx/lv_label.h **** /**
 189:..\..\..\lvgl\version_6.1.2\lvgl\src\lv_objx/lv_label.h ****  * Set the label's animation speed in LV_LABEL_LONG_SROLL/SCROLL_CIRC modes
 190:..\..\..\lvgl\version_6.1.2\lvgl\src\lv_objx/lv_label.h ****  * @param label pointer to a label object
 191:..\..\..\lvgl\version_6.1.2\lvgl\src\lv_objx/lv_label.h ****  * @param anim_speed speed of animation in px/sec unit
 192:..\..\..\lvgl\version_6.1.2\lvgl\src\lv_objx/lv_label.h ****  */
 193:..\..\..\lvgl\version_6.1.2\lvgl\src\lv_objx/lv_label.h **** void lv_label_set_anim_speed(lv_obj_t * label, uint16_t anim_speed);
 194:..\..\..\lvgl\version_6.1.2\lvgl\src\lv_objx/lv_label.h **** 
 195:..\..\..\lvgl\version_6.1.2\lvgl\src\lv_objx/lv_label.h **** /**
 196:..\..\..\lvgl\version_6.1.2\lvgl\src\lv_objx/lv_label.h ****  * Set the style of an label
 197:..\..\..\lvgl\version_6.1.2\lvgl\src\lv_objx/lv_label.h ****  * @param label pointer to an label object
 198:..\..\..\lvgl\version_6.1.2\lvgl\src\lv_objx/lv_label.h ****  * @param type which style should be get (can be only `LV_LABEL_STYLE_MAIN`)
 199:..\..\..\lvgl\version_6.1.2\lvgl\src\lv_objx/lv_label.h ****  * @param style pointer to a style
 200:..\..\..\lvgl\version_6.1.2\lvgl\src\lv_objx/lv_label.h ****  */
 201:..\..\..\lvgl\version_6.1.2\lvgl\src\lv_objx/lv_label.h **** static inline void lv_label_set_style(lv_obj_t * label, lv_label_style_t type, const lv_style_t * s
 202:..\..\..\lvgl\version_6.1.2\lvgl\src\lv_objx/lv_label.h **** {
ARM GAS  C:\Users\tmj32\AppData\Local\Temp\ccI3WYuM.s 			page 19


 284              		.loc 5 202 0
 285              		.cfi_startproc
 286              		@ args = 0, pretend = 0, frame = 16
 287              		@ frame_needed = 1, uses_anonymous_args = 0
 288 0000 80B5     		push	{r7, lr}
 289              		.cfi_def_cfa_offset 8
 290              		.cfi_offset 7, -8
 291              		.cfi_offset 14, -4
 292 0002 84B0     		sub	sp, sp, #16
 293              		.cfi_def_cfa_offset 24
 294 0004 00AF     		add	r7, sp, #0
 295              		.cfi_def_cfa_register 7
 296 0006 F860     		str	r0, [r7, #12]
 297 0008 0B46     		mov	r3, r1
 298 000a 7A60     		str	r2, [r7, #4]
 299 000c FB72     		strb	r3, [r7, #11]
 203:..\..\..\lvgl\version_6.1.2\lvgl\src\lv_objx/lv_label.h ****     (void)type; /*Unused*/
 204:..\..\..\lvgl\version_6.1.2\lvgl\src\lv_objx/lv_label.h ****     lv_obj_set_style(label, style);
 300              		.loc 5 204 0
 301 000e 7968     		ldr	r1, [r7, #4]
 302 0010 F868     		ldr	r0, [r7, #12]
 303 0012 FFF7FEFF 		bl	lv_obj_set_style
 205:..\..\..\lvgl\version_6.1.2\lvgl\src\lv_objx/lv_label.h **** }
 304              		.loc 5 205 0
 305 0016 00BF     		nop
 306 0018 1037     		adds	r7, r7, #16
 307              		.cfi_def_cfa_offset 8
 308 001a BD46     		mov	sp, r7
 309              		.cfi_def_cfa_register 13
 310              		@ sp needed
 311 001c 80BD     		pop	{r7, pc}
 312              		.cfi_endproc
 313              	.LFE48:
 314              		.size	lv_label_set_style, .-lv_label_set_style
 315 001e 00BF     		.section	.text.lv_label_get_style,"ax",%progbits
 316              		.align	2
 317              		.thumb
 318              		.thumb_func
 319              		.type	lv_label_get_style, %function
 320              	lv_label_get_style:
 321              	.LFB49:
 206:..\..\..\lvgl\version_6.1.2\lvgl\src\lv_objx/lv_label.h **** 
 207:..\..\..\lvgl\version_6.1.2\lvgl\src\lv_objx/lv_label.h **** /**
 208:..\..\..\lvgl\version_6.1.2\lvgl\src\lv_objx/lv_label.h ****  * @brief Set the selection start index.
 209:..\..\..\lvgl\version_6.1.2\lvgl\src\lv_objx/lv_label.h ****  * @param label pointer to a label object.
 210:..\..\..\lvgl\version_6.1.2\lvgl\src\lv_objx/lv_label.h ****  * @param index index to set. `LV_LABEL_TXT_SEL_OFF` to select nothing.
 211:..\..\..\lvgl\version_6.1.2\lvgl\src\lv_objx/lv_label.h ****  */
 212:..\..\..\lvgl\version_6.1.2\lvgl\src\lv_objx/lv_label.h **** void lv_label_set_text_sel_start(lv_obj_t * label, uint16_t index);
 213:..\..\..\lvgl\version_6.1.2\lvgl\src\lv_objx/lv_label.h **** 
 214:..\..\..\lvgl\version_6.1.2\lvgl\src\lv_objx/lv_label.h **** /**
 215:..\..\..\lvgl\version_6.1.2\lvgl\src\lv_objx/lv_label.h ****  * @brief Set the selection end index.
 216:..\..\..\lvgl\version_6.1.2\lvgl\src\lv_objx/lv_label.h ****  * @param label pointer to a label object.
 217:..\..\..\lvgl\version_6.1.2\lvgl\src\lv_objx/lv_label.h ****  * @param index index to set. `LV_LABEL_TXT_SEL_OFF` to select nothing.
 218:..\..\..\lvgl\version_6.1.2\lvgl\src\lv_objx/lv_label.h ****  */
 219:..\..\..\lvgl\version_6.1.2\lvgl\src\lv_objx/lv_label.h **** void lv_label_set_text_sel_end(lv_obj_t * label, uint16_t index);
 220:..\..\..\lvgl\version_6.1.2\lvgl\src\lv_objx/lv_label.h **** 
 221:..\..\..\lvgl\version_6.1.2\lvgl\src\lv_objx/lv_label.h **** /*=====================
ARM GAS  C:\Users\tmj32\AppData\Local\Temp\ccI3WYuM.s 			page 20


 222:..\..\..\lvgl\version_6.1.2\lvgl\src\lv_objx/lv_label.h ****  * Getter functions
 223:..\..\..\lvgl\version_6.1.2\lvgl\src\lv_objx/lv_label.h ****  *====================*/
 224:..\..\..\lvgl\version_6.1.2\lvgl\src\lv_objx/lv_label.h **** 
 225:..\..\..\lvgl\version_6.1.2\lvgl\src\lv_objx/lv_label.h **** /**
 226:..\..\..\lvgl\version_6.1.2\lvgl\src\lv_objx/lv_label.h ****  * Get the text of a label
 227:..\..\..\lvgl\version_6.1.2\lvgl\src\lv_objx/lv_label.h ****  * @param label pointer to a label object
 228:..\..\..\lvgl\version_6.1.2\lvgl\src\lv_objx/lv_label.h ****  * @return the text of the label
 229:..\..\..\lvgl\version_6.1.2\lvgl\src\lv_objx/lv_label.h ****  */
 230:..\..\..\lvgl\version_6.1.2\lvgl\src\lv_objx/lv_label.h **** char * lv_label_get_text(const lv_obj_t * label);
 231:..\..\..\lvgl\version_6.1.2\lvgl\src\lv_objx/lv_label.h **** 
 232:..\..\..\lvgl\version_6.1.2\lvgl\src\lv_objx/lv_label.h **** /**
 233:..\..\..\lvgl\version_6.1.2\lvgl\src\lv_objx/lv_label.h ****  * Get the long mode of a label
 234:..\..\..\lvgl\version_6.1.2\lvgl\src\lv_objx/lv_label.h ****  * @param label pointer to a label object
 235:..\..\..\lvgl\version_6.1.2\lvgl\src\lv_objx/lv_label.h ****  * @return the long mode
 236:..\..\..\lvgl\version_6.1.2\lvgl\src\lv_objx/lv_label.h ****  */
 237:..\..\..\lvgl\version_6.1.2\lvgl\src\lv_objx/lv_label.h **** lv_label_long_mode_t lv_label_get_long_mode(const lv_obj_t * label);
 238:..\..\..\lvgl\version_6.1.2\lvgl\src\lv_objx/lv_label.h **** 
 239:..\..\..\lvgl\version_6.1.2\lvgl\src\lv_objx/lv_label.h **** /**
 240:..\..\..\lvgl\version_6.1.2\lvgl\src\lv_objx/lv_label.h ****  * Get the align attribute
 241:..\..\..\lvgl\version_6.1.2\lvgl\src\lv_objx/lv_label.h ****  * @param label pointer to a label object
 242:..\..\..\lvgl\version_6.1.2\lvgl\src\lv_objx/lv_label.h ****  * @return LV_LABEL_ALIGN_LEFT or LV_LABEL_ALIGN_CENTER
 243:..\..\..\lvgl\version_6.1.2\lvgl\src\lv_objx/lv_label.h ****  */
 244:..\..\..\lvgl\version_6.1.2\lvgl\src\lv_objx/lv_label.h **** lv_label_align_t lv_label_get_align(const lv_obj_t * label);
 245:..\..\..\lvgl\version_6.1.2\lvgl\src\lv_objx/lv_label.h **** 
 246:..\..\..\lvgl\version_6.1.2\lvgl\src\lv_objx/lv_label.h **** /**
 247:..\..\..\lvgl\version_6.1.2\lvgl\src\lv_objx/lv_label.h ****  * Get the recoloring attribute
 248:..\..\..\lvgl\version_6.1.2\lvgl\src\lv_objx/lv_label.h ****  * @param label pointer to a label object
 249:..\..\..\lvgl\version_6.1.2\lvgl\src\lv_objx/lv_label.h ****  * @return true: recoloring is enabled, false: disable
 250:..\..\..\lvgl\version_6.1.2\lvgl\src\lv_objx/lv_label.h ****  */
 251:..\..\..\lvgl\version_6.1.2\lvgl\src\lv_objx/lv_label.h **** bool lv_label_get_recolor(const lv_obj_t * label);
 252:..\..\..\lvgl\version_6.1.2\lvgl\src\lv_objx/lv_label.h **** 
 253:..\..\..\lvgl\version_6.1.2\lvgl\src\lv_objx/lv_label.h **** /**
 254:..\..\..\lvgl\version_6.1.2\lvgl\src\lv_objx/lv_label.h ****  * Get the body draw attribute
 255:..\..\..\lvgl\version_6.1.2\lvgl\src\lv_objx/lv_label.h ****  * @param label pointer to a label object
 256:..\..\..\lvgl\version_6.1.2\lvgl\src\lv_objx/lv_label.h ****  * @return true: draw body; false: don't draw body
 257:..\..\..\lvgl\version_6.1.2\lvgl\src\lv_objx/lv_label.h ****  */
 258:..\..\..\lvgl\version_6.1.2\lvgl\src\lv_objx/lv_label.h **** bool lv_label_get_body_draw(const lv_obj_t * label);
 259:..\..\..\lvgl\version_6.1.2\lvgl\src\lv_objx/lv_label.h **** 
 260:..\..\..\lvgl\version_6.1.2\lvgl\src\lv_objx/lv_label.h **** /**
 261:..\..\..\lvgl\version_6.1.2\lvgl\src\lv_objx/lv_label.h ****  * Get the label's animation speed in LV_LABEL_LONG_ROLL and SCROLL modes
 262:..\..\..\lvgl\version_6.1.2\lvgl\src\lv_objx/lv_label.h ****  * @param label pointer to a label object
 263:..\..\..\lvgl\version_6.1.2\lvgl\src\lv_objx/lv_label.h ****  * @return speed of animation in px/sec unit
 264:..\..\..\lvgl\version_6.1.2\lvgl\src\lv_objx/lv_label.h ****  */
 265:..\..\..\lvgl\version_6.1.2\lvgl\src\lv_objx/lv_label.h **** uint16_t lv_label_get_anim_speed(const lv_obj_t * label);
 266:..\..\..\lvgl\version_6.1.2\lvgl\src\lv_objx/lv_label.h **** 
 267:..\..\..\lvgl\version_6.1.2\lvgl\src\lv_objx/lv_label.h **** /**
 268:..\..\..\lvgl\version_6.1.2\lvgl\src\lv_objx/lv_label.h ****  * Get the relative x and y coordinates of a letter
 269:..\..\..\lvgl\version_6.1.2\lvgl\src\lv_objx/lv_label.h ****  * @param label pointer to a label object
 270:..\..\..\lvgl\version_6.1.2\lvgl\src\lv_objx/lv_label.h ****  * @param index index of the letter [0 ... text length]. Expressed in character index, not byte
 271:..\..\..\lvgl\version_6.1.2\lvgl\src\lv_objx/lv_label.h ****  * index (different in UTF-8)
 272:..\..\..\lvgl\version_6.1.2\lvgl\src\lv_objx/lv_label.h ****  * @param pos store the result here (E.g. index = 0 gives 0;0 coordinates)
 273:..\..\..\lvgl\version_6.1.2\lvgl\src\lv_objx/lv_label.h ****  */
 274:..\..\..\lvgl\version_6.1.2\lvgl\src\lv_objx/lv_label.h **** void lv_label_get_letter_pos(const lv_obj_t * label, uint16_t index, lv_point_t * pos);
 275:..\..\..\lvgl\version_6.1.2\lvgl\src\lv_objx/lv_label.h **** 
 276:..\..\..\lvgl\version_6.1.2\lvgl\src\lv_objx/lv_label.h **** /**
 277:..\..\..\lvgl\version_6.1.2\lvgl\src\lv_objx/lv_label.h ****  * Get the index of letter on a relative point of a label
 278:..\..\..\lvgl\version_6.1.2\lvgl\src\lv_objx/lv_label.h ****  * @param label pointer to label object
ARM GAS  C:\Users\tmj32\AppData\Local\Temp\ccI3WYuM.s 			page 21


 279:..\..\..\lvgl\version_6.1.2\lvgl\src\lv_objx/lv_label.h ****  * @param pos pointer to point with coordinates on a the label
 280:..\..\..\lvgl\version_6.1.2\lvgl\src\lv_objx/lv_label.h ****  * @return the index of the letter on the 'pos_p' point (E.g. on 0;0 is the 0. letter)
 281:..\..\..\lvgl\version_6.1.2\lvgl\src\lv_objx/lv_label.h ****  * Expressed in character index and not byte index (different in UTF-8)
 282:..\..\..\lvgl\version_6.1.2\lvgl\src\lv_objx/lv_label.h ****  */
 283:..\..\..\lvgl\version_6.1.2\lvgl\src\lv_objx/lv_label.h **** uint16_t lv_label_get_letter_on(const lv_obj_t * label, lv_point_t * pos);
 284:..\..\..\lvgl\version_6.1.2\lvgl\src\lv_objx/lv_label.h **** 
 285:..\..\..\lvgl\version_6.1.2\lvgl\src\lv_objx/lv_label.h **** /**
 286:..\..\..\lvgl\version_6.1.2\lvgl\src\lv_objx/lv_label.h ****  * Check if a character is drawn under a point.
 287:..\..\..\lvgl\version_6.1.2\lvgl\src\lv_objx/lv_label.h ****  * @param label Label object
 288:..\..\..\lvgl\version_6.1.2\lvgl\src\lv_objx/lv_label.h ****  * @param pos Point to check for characte under
 289:..\..\..\lvgl\version_6.1.2\lvgl\src\lv_objx/lv_label.h ****  * @return whether a character is drawn under the point
 290:..\..\..\lvgl\version_6.1.2\lvgl\src\lv_objx/lv_label.h ****  */
 291:..\..\..\lvgl\version_6.1.2\lvgl\src\lv_objx/lv_label.h **** bool lv_label_is_char_under_pos(const lv_obj_t * label, lv_point_t * pos);
 292:..\..\..\lvgl\version_6.1.2\lvgl\src\lv_objx/lv_label.h **** 
 293:..\..\..\lvgl\version_6.1.2\lvgl\src\lv_objx/lv_label.h **** /**
 294:..\..\..\lvgl\version_6.1.2\lvgl\src\lv_objx/lv_label.h ****  * Get the style of an label object
 295:..\..\..\lvgl\version_6.1.2\lvgl\src\lv_objx/lv_label.h ****  * @param label pointer to an label object
 296:..\..\..\lvgl\version_6.1.2\lvgl\src\lv_objx/lv_label.h ****  * @param type which style should be get (can be only `LV_LABEL_STYLE_MAIN`)
 297:..\..\..\lvgl\version_6.1.2\lvgl\src\lv_objx/lv_label.h ****  * @return pointer to the label's style
 298:..\..\..\lvgl\version_6.1.2\lvgl\src\lv_objx/lv_label.h ****  */
 299:..\..\..\lvgl\version_6.1.2\lvgl\src\lv_objx/lv_label.h **** static inline const lv_style_t * lv_label_get_style(const lv_obj_t * label, lv_label_style_t type)
 300:..\..\..\lvgl\version_6.1.2\lvgl\src\lv_objx/lv_label.h **** {
 322              		.loc 5 300 0
 323              		.cfi_startproc
 324              		@ args = 0, pretend = 0, frame = 8
 325              		@ frame_needed = 1, uses_anonymous_args = 0
 326 0000 80B5     		push	{r7, lr}
 327              		.cfi_def_cfa_offset 8
 328              		.cfi_offset 7, -8
 329              		.cfi_offset 14, -4
 330 0002 82B0     		sub	sp, sp, #8
 331              		.cfi_def_cfa_offset 16
 332 0004 00AF     		add	r7, sp, #0
 333              		.cfi_def_cfa_register 7
 334 0006 7860     		str	r0, [r7, #4]
 335 0008 0B46     		mov	r3, r1
 336 000a FB70     		strb	r3, [r7, #3]
 301:..\..\..\lvgl\version_6.1.2\lvgl\src\lv_objx/lv_label.h ****     (void)type; /*Unused*/
 302:..\..\..\lvgl\version_6.1.2\lvgl\src\lv_objx/lv_label.h ****     return lv_obj_get_style(label);
 337              		.loc 5 302 0
 338 000c 7868     		ldr	r0, [r7, #4]
 339 000e FFF7FEFF 		bl	lv_obj_get_style
 340 0012 0346     		mov	r3, r0
 303:..\..\..\lvgl\version_6.1.2\lvgl\src\lv_objx/lv_label.h **** }
 341              		.loc 5 303 0
 342 0014 1846     		mov	r0, r3
 343 0016 0837     		adds	r7, r7, #8
 344              		.cfi_def_cfa_offset 8
 345 0018 BD46     		mov	sp, r7
 346              		.cfi_def_cfa_register 13
 347              		@ sp needed
 348 001a 80BD     		pop	{r7, pc}
 349              		.cfi_endproc
 350              	.LFE49:
 351              		.size	lv_label_get_style, .-lv_label_get_style
 352              		.section	.text.lv_ta_set_sb_mode,"ax",%progbits
 353              		.align	2
ARM GAS  C:\Users\tmj32\AppData\Local\Temp\ccI3WYuM.s 			page 22


 354              		.thumb
 355              		.thumb_func
 356              		.type	lv_ta_set_sb_mode, %function
 357              	lv_ta_set_sb_mode:
 358              	.LFB50:
 359              		.file 6 "..\\..\\..\\lvgl\\version_6.1.2\\lvgl\\src\\lv_objx\\lv_ta.h"
   1:..\..\..\lvgl\version_6.1.2\lvgl\src\lv_objx/lv_ta.h **** /**
   2:..\..\..\lvgl\version_6.1.2\lvgl\src\lv_objx/lv_ta.h ****  * @file lv_ta.h
   3:..\..\..\lvgl\version_6.1.2\lvgl\src\lv_objx/lv_ta.h ****  *
   4:..\..\..\lvgl\version_6.1.2\lvgl\src\lv_objx/lv_ta.h ****  */
   5:..\..\..\lvgl\version_6.1.2\lvgl\src\lv_objx/lv_ta.h **** 
   6:..\..\..\lvgl\version_6.1.2\lvgl\src\lv_objx/lv_ta.h **** #ifndef LV_TA_H
   7:..\..\..\lvgl\version_6.1.2\lvgl\src\lv_objx/lv_ta.h **** #define LV_TA_H
   8:..\..\..\lvgl\version_6.1.2\lvgl\src\lv_objx/lv_ta.h **** 
   9:..\..\..\lvgl\version_6.1.2\lvgl\src\lv_objx/lv_ta.h **** #ifdef __cplusplus
  10:..\..\..\lvgl\version_6.1.2\lvgl\src\lv_objx/lv_ta.h **** extern "C" {
  11:..\..\..\lvgl\version_6.1.2\lvgl\src\lv_objx/lv_ta.h **** #endif
  12:..\..\..\lvgl\version_6.1.2\lvgl\src\lv_objx/lv_ta.h **** 
  13:..\..\..\lvgl\version_6.1.2\lvgl\src\lv_objx/lv_ta.h **** /*********************
  14:..\..\..\lvgl\version_6.1.2\lvgl\src\lv_objx/lv_ta.h ****  *      INCLUDES
  15:..\..\..\lvgl\version_6.1.2\lvgl\src\lv_objx/lv_ta.h ****  *********************/
  16:..\..\..\lvgl\version_6.1.2\lvgl\src\lv_objx/lv_ta.h **** #ifdef LV_CONF_INCLUDE_SIMPLE
  17:..\..\..\lvgl\version_6.1.2\lvgl\src\lv_objx/lv_ta.h **** #include "lv_conf.h"
  18:..\..\..\lvgl\version_6.1.2\lvgl\src\lv_objx/lv_ta.h **** #else
  19:..\..\..\lvgl\version_6.1.2\lvgl\src\lv_objx/lv_ta.h **** #include "../../../lv_conf.h"
  20:..\..\..\lvgl\version_6.1.2\lvgl\src\lv_objx/lv_ta.h **** #endif
  21:..\..\..\lvgl\version_6.1.2\lvgl\src\lv_objx/lv_ta.h **** 
  22:..\..\..\lvgl\version_6.1.2\lvgl\src\lv_objx/lv_ta.h **** #if LV_USE_TA != 0
  23:..\..\..\lvgl\version_6.1.2\lvgl\src\lv_objx/lv_ta.h **** 
  24:..\..\..\lvgl\version_6.1.2\lvgl\src\lv_objx/lv_ta.h **** /*Testing of dependencies*/
  25:..\..\..\lvgl\version_6.1.2\lvgl\src\lv_objx/lv_ta.h **** #if LV_USE_PAGE == 0
  26:..\..\..\lvgl\version_6.1.2\lvgl\src\lv_objx/lv_ta.h **** #error "lv_ta: lv_page is required. Enable it in lv_conf.h (LV_USE_PAGE  1) "
  27:..\..\..\lvgl\version_6.1.2\lvgl\src\lv_objx/lv_ta.h **** #endif
  28:..\..\..\lvgl\version_6.1.2\lvgl\src\lv_objx/lv_ta.h **** 
  29:..\..\..\lvgl\version_6.1.2\lvgl\src\lv_objx/lv_ta.h **** #if LV_USE_LABEL == 0
  30:..\..\..\lvgl\version_6.1.2\lvgl\src\lv_objx/lv_ta.h **** #error "lv_ta: lv_label is required. Enable it in lv_conf.h (LV_USE_LABEL  1) "
  31:..\..\..\lvgl\version_6.1.2\lvgl\src\lv_objx/lv_ta.h **** #endif
  32:..\..\..\lvgl\version_6.1.2\lvgl\src\lv_objx/lv_ta.h **** 
  33:..\..\..\lvgl\version_6.1.2\lvgl\src\lv_objx/lv_ta.h **** #include "../lv_core/lv_obj.h"
  34:..\..\..\lvgl\version_6.1.2\lvgl\src\lv_objx/lv_ta.h **** #include "lv_page.h"
  35:..\..\..\lvgl\version_6.1.2\lvgl\src\lv_objx/lv_ta.h **** #include "lv_label.h"
  36:..\..\..\lvgl\version_6.1.2\lvgl\src\lv_objx/lv_ta.h **** 
  37:..\..\..\lvgl\version_6.1.2\lvgl\src\lv_objx/lv_ta.h **** /*********************
  38:..\..\..\lvgl\version_6.1.2\lvgl\src\lv_objx/lv_ta.h ****  *      DEFINES
  39:..\..\..\lvgl\version_6.1.2\lvgl\src\lv_objx/lv_ta.h ****  *********************/
  40:..\..\..\lvgl\version_6.1.2\lvgl\src\lv_objx/lv_ta.h **** #define LV_TA_CURSOR_LAST (0x7FFF) /*Put the cursor after the last character*/
  41:..\..\..\lvgl\version_6.1.2\lvgl\src\lv_objx/lv_ta.h **** 
  42:..\..\..\lvgl\version_6.1.2\lvgl\src\lv_objx/lv_ta.h **** LV_EXPORT_CONST_INT(LV_TA_CURSOR_LAST);
  43:..\..\..\lvgl\version_6.1.2\lvgl\src\lv_objx/lv_ta.h **** 
  44:..\..\..\lvgl\version_6.1.2\lvgl\src\lv_objx/lv_ta.h **** /**********************
  45:..\..\..\lvgl\version_6.1.2\lvgl\src\lv_objx/lv_ta.h ****  *      TYPEDEFS
  46:..\..\..\lvgl\version_6.1.2\lvgl\src\lv_objx/lv_ta.h ****  **********************/
  47:..\..\..\lvgl\version_6.1.2\lvgl\src\lv_objx/lv_ta.h **** 
  48:..\..\..\lvgl\version_6.1.2\lvgl\src\lv_objx/lv_ta.h **** /** Style of text area's cursor. */
  49:..\..\..\lvgl\version_6.1.2\lvgl\src\lv_objx/lv_ta.h **** enum {
  50:..\..\..\lvgl\version_6.1.2\lvgl\src\lv_objx/lv_ta.h ****     LV_CURSOR_NONE, /**< No cursor */
  51:..\..\..\lvgl\version_6.1.2\lvgl\src\lv_objx/lv_ta.h ****     LV_CURSOR_LINE, /**< Vertical line */
ARM GAS  C:\Users\tmj32\AppData\Local\Temp\ccI3WYuM.s 			page 23


  52:..\..\..\lvgl\version_6.1.2\lvgl\src\lv_objx/lv_ta.h ****     LV_CURSOR_BLOCK, /**< Rectangle */
  53:..\..\..\lvgl\version_6.1.2\lvgl\src\lv_objx/lv_ta.h ****     LV_CURSOR_OUTLINE, /**< Outline around character */
  54:..\..\..\lvgl\version_6.1.2\lvgl\src\lv_objx/lv_ta.h ****     LV_CURSOR_UNDERLINE, /**< Horizontal line under character */
  55:..\..\..\lvgl\version_6.1.2\lvgl\src\lv_objx/lv_ta.h ****     LV_CURSOR_HIDDEN = 0x08, /**< This flag can be ORed to any of the other values to temporarily h
  56:..\..\..\lvgl\version_6.1.2\lvgl\src\lv_objx/lv_ta.h **** };
  57:..\..\..\lvgl\version_6.1.2\lvgl\src\lv_objx/lv_ta.h **** typedef uint8_t lv_cursor_type_t;
  58:..\..\..\lvgl\version_6.1.2\lvgl\src\lv_objx/lv_ta.h **** 
  59:..\..\..\lvgl\version_6.1.2\lvgl\src\lv_objx/lv_ta.h **** /*Data of text area*/
  60:..\..\..\lvgl\version_6.1.2\lvgl\src\lv_objx/lv_ta.h **** typedef struct
  61:..\..\..\lvgl\version_6.1.2\lvgl\src\lv_objx/lv_ta.h **** {
  62:..\..\..\lvgl\version_6.1.2\lvgl\src\lv_objx/lv_ta.h ****     lv_page_ext_t page; /*Ext. of ancestor*/
  63:..\..\..\lvgl\version_6.1.2\lvgl\src\lv_objx/lv_ta.h ****     /*New data for this type */
  64:..\..\..\lvgl\version_6.1.2\lvgl\src\lv_objx/lv_ta.h ****     lv_obj_t * label;            /*Label of the text area*/
  65:..\..\..\lvgl\version_6.1.2\lvgl\src\lv_objx/lv_ta.h ****     lv_obj_t * placeholder;      /*Place holder label. only visible if text is an empty string*/
  66:..\..\..\lvgl\version_6.1.2\lvgl\src\lv_objx/lv_ta.h ****     char * pwd_tmp;              /*Used to store the original text in password mode*/
  67:..\..\..\lvgl\version_6.1.2\lvgl\src\lv_objx/lv_ta.h ****     const char * accapted_chars; /*Only these characters will be accepted. NULL: accept all*/
  68:..\..\..\lvgl\version_6.1.2\lvgl\src\lv_objx/lv_ta.h ****     uint16_t max_length;         /*The max. number of characters. 0: no limit*/
  69:..\..\..\lvgl\version_6.1.2\lvgl\src\lv_objx/lv_ta.h ****     uint16_t pwd_show_time;      /*Time to show characters in password mode before change them to '
  70:..\..\..\lvgl\version_6.1.2\lvgl\src\lv_objx/lv_ta.h ****     struct
  71:..\..\..\lvgl\version_6.1.2\lvgl\src\lv_objx/lv_ta.h ****     {
  72:..\..\..\lvgl\version_6.1.2\lvgl\src\lv_objx/lv_ta.h ****         const lv_style_t * style;  /* Style of the cursor (NULL to use label's style)*/
  73:..\..\..\lvgl\version_6.1.2\lvgl\src\lv_objx/lv_ta.h ****         lv_coord_t valid_x;        /* Used when stepping up/down to a shorter line.
  74:..\..\..\lvgl\version_6.1.2\lvgl\src\lv_objx/lv_ta.h ****                                     * (Used by the library)*/
  75:..\..\..\lvgl\version_6.1.2\lvgl\src\lv_objx/lv_ta.h ****         uint16_t pos;              /* The current cursor position
  76:..\..\..\lvgl\version_6.1.2\lvgl\src\lv_objx/lv_ta.h ****                                     * (0: before 1st letter; 1: before 2nd letter ...)*/
  77:..\..\..\lvgl\version_6.1.2\lvgl\src\lv_objx/lv_ta.h ****         uint16_t blink_time;       /*Blink period*/
  78:..\..\..\lvgl\version_6.1.2\lvgl\src\lv_objx/lv_ta.h ****         lv_area_t area;            /* Cursor area relative to the Text Area*/
  79:..\..\..\lvgl\version_6.1.2\lvgl\src\lv_objx/lv_ta.h ****         uint16_t txt_byte_pos;     /* Byte index of the letter after (on) the cursor*/
  80:..\..\..\lvgl\version_6.1.2\lvgl\src\lv_objx/lv_ta.h ****         lv_cursor_type_t type : 4; /* Shape of the cursor*/
  81:..\..\..\lvgl\version_6.1.2\lvgl\src\lv_objx/lv_ta.h ****         uint8_t state : 1;         /*Cursor is visible now or not (Handled by the library)*/
  82:..\..\..\lvgl\version_6.1.2\lvgl\src\lv_objx/lv_ta.h ****         uint8_t click_pos : 1;     /*1: Enable positioning the cursor by clicking the text area*/
  83:..\..\..\lvgl\version_6.1.2\lvgl\src\lv_objx/lv_ta.h ****     } cursor;
  84:..\..\..\lvgl\version_6.1.2\lvgl\src\lv_objx/lv_ta.h **** #if LV_LABEL_TEXT_SEL
  85:..\..\..\lvgl\version_6.1.2\lvgl\src\lv_objx/lv_ta.h ****     lv_draw_label_txt_sel_t sel;  /*Temporary values for text selection*/
  86:..\..\..\lvgl\version_6.1.2\lvgl\src\lv_objx/lv_ta.h ****     uint8_t text_sel_in_prog : 1; /*User is in process of selecting */
  87:..\..\..\lvgl\version_6.1.2\lvgl\src\lv_objx/lv_ta.h ****     uint8_t text_sel_en : 1;      /*Text can be selected on this text area*/
  88:..\..\..\lvgl\version_6.1.2\lvgl\src\lv_objx/lv_ta.h **** #endif
  89:..\..\..\lvgl\version_6.1.2\lvgl\src\lv_objx/lv_ta.h ****     uint8_t pwd_mode : 1; /*Replace characters with '*' */
  90:..\..\..\lvgl\version_6.1.2\lvgl\src\lv_objx/lv_ta.h ****     uint8_t one_line : 1; /*One line mode (ignore line breaks)*/
  91:..\..\..\lvgl\version_6.1.2\lvgl\src\lv_objx/lv_ta.h **** } lv_ta_ext_t;
  92:..\..\..\lvgl\version_6.1.2\lvgl\src\lv_objx/lv_ta.h **** 
  93:..\..\..\lvgl\version_6.1.2\lvgl\src\lv_objx/lv_ta.h **** /** Possible text areas tyles. */
  94:..\..\..\lvgl\version_6.1.2\lvgl\src\lv_objx/lv_ta.h **** enum {
  95:..\..\..\lvgl\version_6.1.2\lvgl\src\lv_objx/lv_ta.h ****     LV_TA_STYLE_BG, /**< Text area background style */
  96:..\..\..\lvgl\version_6.1.2\lvgl\src\lv_objx/lv_ta.h ****     LV_TA_STYLE_SB, /**< Scrollbar style */
  97:..\..\..\lvgl\version_6.1.2\lvgl\src\lv_objx/lv_ta.h ****     LV_TA_STYLE_CURSOR, /**< Cursor style */
  98:..\..\..\lvgl\version_6.1.2\lvgl\src\lv_objx/lv_ta.h ****     LV_TA_STYLE_EDGE_FLASH, /**< Edge flash style */
  99:..\..\..\lvgl\version_6.1.2\lvgl\src\lv_objx/lv_ta.h ****     LV_TA_STYLE_PLACEHOLDER, /**< Placeholder style */
 100:..\..\..\lvgl\version_6.1.2\lvgl\src\lv_objx/lv_ta.h **** };
 101:..\..\..\lvgl\version_6.1.2\lvgl\src\lv_objx/lv_ta.h **** typedef uint8_t lv_ta_style_t;
 102:..\..\..\lvgl\version_6.1.2\lvgl\src\lv_objx/lv_ta.h **** 
 103:..\..\..\lvgl\version_6.1.2\lvgl\src\lv_objx/lv_ta.h **** /**********************
 104:..\..\..\lvgl\version_6.1.2\lvgl\src\lv_objx/lv_ta.h ****  * GLOBAL PROTOTYPES
 105:..\..\..\lvgl\version_6.1.2\lvgl\src\lv_objx/lv_ta.h ****  **********************/
 106:..\..\..\lvgl\version_6.1.2\lvgl\src\lv_objx/lv_ta.h **** 
 107:..\..\..\lvgl\version_6.1.2\lvgl\src\lv_objx/lv_ta.h **** /**
 108:..\..\..\lvgl\version_6.1.2\lvgl\src\lv_objx/lv_ta.h ****  * Create a text area objects
ARM GAS  C:\Users\tmj32\AppData\Local\Temp\ccI3WYuM.s 			page 24


 109:..\..\..\lvgl\version_6.1.2\lvgl\src\lv_objx/lv_ta.h ****  * @param par pointer to an object, it will be the parent of the new text area
 110:..\..\..\lvgl\version_6.1.2\lvgl\src\lv_objx/lv_ta.h ****  * @param copy pointer to a text area object, if not NULL then the new object will be copied from i
 111:..\..\..\lvgl\version_6.1.2\lvgl\src\lv_objx/lv_ta.h ****  * @return pointer to the created text area
 112:..\..\..\lvgl\version_6.1.2\lvgl\src\lv_objx/lv_ta.h ****  */
 113:..\..\..\lvgl\version_6.1.2\lvgl\src\lv_objx/lv_ta.h **** lv_obj_t * lv_ta_create(lv_obj_t * par, const lv_obj_t * copy);
 114:..\..\..\lvgl\version_6.1.2\lvgl\src\lv_objx/lv_ta.h **** 
 115:..\..\..\lvgl\version_6.1.2\lvgl\src\lv_objx/lv_ta.h **** /*======================
 116:..\..\..\lvgl\version_6.1.2\lvgl\src\lv_objx/lv_ta.h ****  * Add/remove functions
 117:..\..\..\lvgl\version_6.1.2\lvgl\src\lv_objx/lv_ta.h ****  *=====================*/
 118:..\..\..\lvgl\version_6.1.2\lvgl\src\lv_objx/lv_ta.h **** 
 119:..\..\..\lvgl\version_6.1.2\lvgl\src\lv_objx/lv_ta.h **** /**
 120:..\..\..\lvgl\version_6.1.2\lvgl\src\lv_objx/lv_ta.h ****  * Insert a character to the current cursor position.
 121:..\..\..\lvgl\version_6.1.2\lvgl\src\lv_objx/lv_ta.h ****  * To add a wide char, e.g. '' use `lv_txt_encoded_conv_wc('')`
 122:..\..\..\lvgl\version_6.1.2\lvgl\src\lv_objx/lv_ta.h ****  * @param ta pointer to a text area object
 123:..\..\..\lvgl\version_6.1.2\lvgl\src\lv_objx/lv_ta.h ****  * @param c a character (e.g. 'a')
 124:..\..\..\lvgl\version_6.1.2\lvgl\src\lv_objx/lv_ta.h ****  */
 125:..\..\..\lvgl\version_6.1.2\lvgl\src\lv_objx/lv_ta.h **** void lv_ta_add_char(lv_obj_t * ta, uint32_t c);
 126:..\..\..\lvgl\version_6.1.2\lvgl\src\lv_objx/lv_ta.h **** 
 127:..\..\..\lvgl\version_6.1.2\lvgl\src\lv_objx/lv_ta.h **** /**
 128:..\..\..\lvgl\version_6.1.2\lvgl\src\lv_objx/lv_ta.h ****  * Insert a text to the current cursor position
 129:..\..\..\lvgl\version_6.1.2\lvgl\src\lv_objx/lv_ta.h ****  * @param ta pointer to a text area object
 130:..\..\..\lvgl\version_6.1.2\lvgl\src\lv_objx/lv_ta.h ****  * @param txt a '\0' terminated string to insert
 131:..\..\..\lvgl\version_6.1.2\lvgl\src\lv_objx/lv_ta.h ****  */
 132:..\..\..\lvgl\version_6.1.2\lvgl\src\lv_objx/lv_ta.h **** void lv_ta_add_text(lv_obj_t * ta, const char * txt);
 133:..\..\..\lvgl\version_6.1.2\lvgl\src\lv_objx/lv_ta.h **** 
 134:..\..\..\lvgl\version_6.1.2\lvgl\src\lv_objx/lv_ta.h **** /**
 135:..\..\..\lvgl\version_6.1.2\lvgl\src\lv_objx/lv_ta.h ****  * Delete a the left character from the current cursor position
 136:..\..\..\lvgl\version_6.1.2\lvgl\src\lv_objx/lv_ta.h ****  * @param ta pointer to a text area object
 137:..\..\..\lvgl\version_6.1.2\lvgl\src\lv_objx/lv_ta.h ****  */
 138:..\..\..\lvgl\version_6.1.2\lvgl\src\lv_objx/lv_ta.h **** void lv_ta_del_char(lv_obj_t * ta);
 139:..\..\..\lvgl\version_6.1.2\lvgl\src\lv_objx/lv_ta.h **** 
 140:..\..\..\lvgl\version_6.1.2\lvgl\src\lv_objx/lv_ta.h **** /**
 141:..\..\..\lvgl\version_6.1.2\lvgl\src\lv_objx/lv_ta.h ****  * Delete the right character from the current cursor position
 142:..\..\..\lvgl\version_6.1.2\lvgl\src\lv_objx/lv_ta.h ****  * @param ta pointer to a text area object
 143:..\..\..\lvgl\version_6.1.2\lvgl\src\lv_objx/lv_ta.h ****  */
 144:..\..\..\lvgl\version_6.1.2\lvgl\src\lv_objx/lv_ta.h **** void lv_ta_del_char_forward(lv_obj_t * ta);
 145:..\..\..\lvgl\version_6.1.2\lvgl\src\lv_objx/lv_ta.h **** 
 146:..\..\..\lvgl\version_6.1.2\lvgl\src\lv_objx/lv_ta.h **** /*=====================
 147:..\..\..\lvgl\version_6.1.2\lvgl\src\lv_objx/lv_ta.h ****  * Setter functions
 148:..\..\..\lvgl\version_6.1.2\lvgl\src\lv_objx/lv_ta.h ****  *====================*/
 149:..\..\..\lvgl\version_6.1.2\lvgl\src\lv_objx/lv_ta.h **** 
 150:..\..\..\lvgl\version_6.1.2\lvgl\src\lv_objx/lv_ta.h **** /**
 151:..\..\..\lvgl\version_6.1.2\lvgl\src\lv_objx/lv_ta.h ****  * Set the text of a text area
 152:..\..\..\lvgl\version_6.1.2\lvgl\src\lv_objx/lv_ta.h ****  * @param ta pointer to a text area
 153:..\..\..\lvgl\version_6.1.2\lvgl\src\lv_objx/lv_ta.h ****  * @param txt pointer to the text
 154:..\..\..\lvgl\version_6.1.2\lvgl\src\lv_objx/lv_ta.h ****  */
 155:..\..\..\lvgl\version_6.1.2\lvgl\src\lv_objx/lv_ta.h **** void lv_ta_set_text(lv_obj_t * ta, const char * txt);
 156:..\..\..\lvgl\version_6.1.2\lvgl\src\lv_objx/lv_ta.h **** 
 157:..\..\..\lvgl\version_6.1.2\lvgl\src\lv_objx/lv_ta.h **** /**
 158:..\..\..\lvgl\version_6.1.2\lvgl\src\lv_objx/lv_ta.h ****  * Set the placeholder text of a text area
 159:..\..\..\lvgl\version_6.1.2\lvgl\src\lv_objx/lv_ta.h ****  * @param ta pointer to a text area
 160:..\..\..\lvgl\version_6.1.2\lvgl\src\lv_objx/lv_ta.h ****  * @param txt pointer to the text
 161:..\..\..\lvgl\version_6.1.2\lvgl\src\lv_objx/lv_ta.h ****  */
 162:..\..\..\lvgl\version_6.1.2\lvgl\src\lv_objx/lv_ta.h **** void lv_ta_set_placeholder_text(lv_obj_t * ta, const char * txt);
 163:..\..\..\lvgl\version_6.1.2\lvgl\src\lv_objx/lv_ta.h **** 
 164:..\..\..\lvgl\version_6.1.2\lvgl\src\lv_objx/lv_ta.h **** /**
 165:..\..\..\lvgl\version_6.1.2\lvgl\src\lv_objx/lv_ta.h ****  * Set the cursor position
ARM GAS  C:\Users\tmj32\AppData\Local\Temp\ccI3WYuM.s 			page 25


 166:..\..\..\lvgl\version_6.1.2\lvgl\src\lv_objx/lv_ta.h ****  * @param obj pointer to a text area object
 167:..\..\..\lvgl\version_6.1.2\lvgl\src\lv_objx/lv_ta.h ****  * @param pos the new cursor position in character index
 168:..\..\..\lvgl\version_6.1.2\lvgl\src\lv_objx/lv_ta.h ****  *             < 0 : index from the end of the text
 169:..\..\..\lvgl\version_6.1.2\lvgl\src\lv_objx/lv_ta.h ****  *             LV_TA_CURSOR_LAST: go after the last character
 170:..\..\..\lvgl\version_6.1.2\lvgl\src\lv_objx/lv_ta.h ****  */
 171:..\..\..\lvgl\version_6.1.2\lvgl\src\lv_objx/lv_ta.h **** void lv_ta_set_cursor_pos(lv_obj_t * ta, int16_t pos);
 172:..\..\..\lvgl\version_6.1.2\lvgl\src\lv_objx/lv_ta.h **** 
 173:..\..\..\lvgl\version_6.1.2\lvgl\src\lv_objx/lv_ta.h **** /**
 174:..\..\..\lvgl\version_6.1.2\lvgl\src\lv_objx/lv_ta.h ****  * Set the cursor type.
 175:..\..\..\lvgl\version_6.1.2\lvgl\src\lv_objx/lv_ta.h ****  * @param ta pointer to a text area object
 176:..\..\..\lvgl\version_6.1.2\lvgl\src\lv_objx/lv_ta.h ****  * @param cur_type: element of 'lv_cursor_type_t'
 177:..\..\..\lvgl\version_6.1.2\lvgl\src\lv_objx/lv_ta.h ****  */
 178:..\..\..\lvgl\version_6.1.2\lvgl\src\lv_objx/lv_ta.h **** void lv_ta_set_cursor_type(lv_obj_t * ta, lv_cursor_type_t cur_type);
 179:..\..\..\lvgl\version_6.1.2\lvgl\src\lv_objx/lv_ta.h **** 
 180:..\..\..\lvgl\version_6.1.2\lvgl\src\lv_objx/lv_ta.h **** /**
 181:..\..\..\lvgl\version_6.1.2\lvgl\src\lv_objx/lv_ta.h ****  * Enable/Disable the positioning of the the cursor by clicking the text on the text area.
 182:..\..\..\lvgl\version_6.1.2\lvgl\src\lv_objx/lv_ta.h ****  * @param ta pointer to a text area object
 183:..\..\..\lvgl\version_6.1.2\lvgl\src\lv_objx/lv_ta.h ****  * @param en true: enable click positions; false: disable
 184:..\..\..\lvgl\version_6.1.2\lvgl\src\lv_objx/lv_ta.h ****  */
 185:..\..\..\lvgl\version_6.1.2\lvgl\src\lv_objx/lv_ta.h **** void lv_ta_set_cursor_click_pos(lv_obj_t * ta, bool en);
 186:..\..\..\lvgl\version_6.1.2\lvgl\src\lv_objx/lv_ta.h **** 
 187:..\..\..\lvgl\version_6.1.2\lvgl\src\lv_objx/lv_ta.h **** /**
 188:..\..\..\lvgl\version_6.1.2\lvgl\src\lv_objx/lv_ta.h ****  * Enable/Disable password mode
 189:..\..\..\lvgl\version_6.1.2\lvgl\src\lv_objx/lv_ta.h ****  * @param ta pointer to a text area object
 190:..\..\..\lvgl\version_6.1.2\lvgl\src\lv_objx/lv_ta.h ****  * @param en true: enable, false: disable
 191:..\..\..\lvgl\version_6.1.2\lvgl\src\lv_objx/lv_ta.h ****  */
 192:..\..\..\lvgl\version_6.1.2\lvgl\src\lv_objx/lv_ta.h **** void lv_ta_set_pwd_mode(lv_obj_t * ta, bool en);
 193:..\..\..\lvgl\version_6.1.2\lvgl\src\lv_objx/lv_ta.h **** 
 194:..\..\..\lvgl\version_6.1.2\lvgl\src\lv_objx/lv_ta.h **** /**
 195:..\..\..\lvgl\version_6.1.2\lvgl\src\lv_objx/lv_ta.h ****  * Configure the text area to one line or back to normal
 196:..\..\..\lvgl\version_6.1.2\lvgl\src\lv_objx/lv_ta.h ****  * @param ta pointer to a Text area object
 197:..\..\..\lvgl\version_6.1.2\lvgl\src\lv_objx/lv_ta.h ****  * @param en true: one line, false: normal
 198:..\..\..\lvgl\version_6.1.2\lvgl\src\lv_objx/lv_ta.h ****  */
 199:..\..\..\lvgl\version_6.1.2\lvgl\src\lv_objx/lv_ta.h **** void lv_ta_set_one_line(lv_obj_t * ta, bool en);
 200:..\..\..\lvgl\version_6.1.2\lvgl\src\lv_objx/lv_ta.h **** 
 201:..\..\..\lvgl\version_6.1.2\lvgl\src\lv_objx/lv_ta.h **** /**
 202:..\..\..\lvgl\version_6.1.2\lvgl\src\lv_objx/lv_ta.h ****  * Set the alignment of the text area.
 203:..\..\..\lvgl\version_6.1.2\lvgl\src\lv_objx/lv_ta.h ****  * In one line mode the text can be scrolled only with `LV_LABEL_ALIGN_LEFT`.
 204:..\..\..\lvgl\version_6.1.2\lvgl\src\lv_objx/lv_ta.h ****  * This function should be called if the size of text area changes.
 205:..\..\..\lvgl\version_6.1.2\lvgl\src\lv_objx/lv_ta.h ****  * @param ta pointer to a text are object
 206:..\..\..\lvgl\version_6.1.2\lvgl\src\lv_objx/lv_ta.h ****  * @param align the desired alignment from `lv_label_align_t`. (LV_LABEL_ALIGN_LEFT/CENTER/RIGHT)
 207:..\..\..\lvgl\version_6.1.2\lvgl\src\lv_objx/lv_ta.h ****  */
 208:..\..\..\lvgl\version_6.1.2\lvgl\src\lv_objx/lv_ta.h **** void lv_ta_set_text_align(lv_obj_t * ta, lv_label_align_t align);
 209:..\..\..\lvgl\version_6.1.2\lvgl\src\lv_objx/lv_ta.h **** 
 210:..\..\..\lvgl\version_6.1.2\lvgl\src\lv_objx/lv_ta.h **** /**
 211:..\..\..\lvgl\version_6.1.2\lvgl\src\lv_objx/lv_ta.h ****  * Set a list of characters. Only these characters will be accepted by the text area
 212:..\..\..\lvgl\version_6.1.2\lvgl\src\lv_objx/lv_ta.h ****  * @param ta pointer to  Text Area
 213:..\..\..\lvgl\version_6.1.2\lvgl\src\lv_objx/lv_ta.h ****  * @param list list of characters. Only the pointer is saved. E.g. "+-.,0123456789"
 214:..\..\..\lvgl\version_6.1.2\lvgl\src\lv_objx/lv_ta.h ****  */
 215:..\..\..\lvgl\version_6.1.2\lvgl\src\lv_objx/lv_ta.h **** void lv_ta_set_accepted_chars(lv_obj_t * ta, const char * list);
 216:..\..\..\lvgl\version_6.1.2\lvgl\src\lv_objx/lv_ta.h **** 
 217:..\..\..\lvgl\version_6.1.2\lvgl\src\lv_objx/lv_ta.h **** /**
 218:..\..\..\lvgl\version_6.1.2\lvgl\src\lv_objx/lv_ta.h ****  * Set max length of a Text Area.
 219:..\..\..\lvgl\version_6.1.2\lvgl\src\lv_objx/lv_ta.h ****  * @param ta pointer to  Text Area
 220:..\..\..\lvgl\version_6.1.2\lvgl\src\lv_objx/lv_ta.h ****  * @param num the maximal number of characters can be added (`lv_ta_set_text` ignores it)
 221:..\..\..\lvgl\version_6.1.2\lvgl\src\lv_objx/lv_ta.h ****  */
 222:..\..\..\lvgl\version_6.1.2\lvgl\src\lv_objx/lv_ta.h **** void lv_ta_set_max_length(lv_obj_t * ta, uint16_t num);
ARM GAS  C:\Users\tmj32\AppData\Local\Temp\ccI3WYuM.s 			page 26


 223:..\..\..\lvgl\version_6.1.2\lvgl\src\lv_objx/lv_ta.h **** 
 224:..\..\..\lvgl\version_6.1.2\lvgl\src\lv_objx/lv_ta.h **** /**
 225:..\..\..\lvgl\version_6.1.2\lvgl\src\lv_objx/lv_ta.h ****  * In `LV_EVENT_INSERT` the text which planned to be inserted can be replaced by an other text.
 226:..\..\..\lvgl\version_6.1.2\lvgl\src\lv_objx/lv_ta.h ****  * It can be used to add automatic formatting to the text area.
 227:..\..\..\lvgl\version_6.1.2\lvgl\src\lv_objx/lv_ta.h ****  * @param ta pointer to a text area.
 228:..\..\..\lvgl\version_6.1.2\lvgl\src\lv_objx/lv_ta.h ****  * @param txt pointer to a new string to insert. If `""` no text will be added.
 229:..\..\..\lvgl\version_6.1.2\lvgl\src\lv_objx/lv_ta.h ****  *            The variable must be live after the `event_cb` exists. (Should be `global` or
 230:..\..\..\lvgl\version_6.1.2\lvgl\src\lv_objx/lv_ta.h ****  * `static`)
 231:..\..\..\lvgl\version_6.1.2\lvgl\src\lv_objx/lv_ta.h ****  */
 232:..\..\..\lvgl\version_6.1.2\lvgl\src\lv_objx/lv_ta.h **** void lv_ta_set_insert_replace(lv_obj_t * ta, const char * txt);
 233:..\..\..\lvgl\version_6.1.2\lvgl\src\lv_objx/lv_ta.h **** 
 234:..\..\..\lvgl\version_6.1.2\lvgl\src\lv_objx/lv_ta.h **** /**
 235:..\..\..\lvgl\version_6.1.2\lvgl\src\lv_objx/lv_ta.h ****  * Set the scroll bar mode of a text area
 236:..\..\..\lvgl\version_6.1.2\lvgl\src\lv_objx/lv_ta.h ****  * @param ta pointer to a text area object
 237:..\..\..\lvgl\version_6.1.2\lvgl\src\lv_objx/lv_ta.h ****  * @param sb_mode the new mode from 'lv_page_sb_mode_t' enum
 238:..\..\..\lvgl\version_6.1.2\lvgl\src\lv_objx/lv_ta.h ****  */
 239:..\..\..\lvgl\version_6.1.2\lvgl\src\lv_objx/lv_ta.h **** static inline void lv_ta_set_sb_mode(lv_obj_t * ta, lv_sb_mode_t mode)
 240:..\..\..\lvgl\version_6.1.2\lvgl\src\lv_objx/lv_ta.h **** {
 360              		.loc 6 240 0
 361              		.cfi_startproc
 362              		@ args = 0, pretend = 0, frame = 8
 363              		@ frame_needed = 1, uses_anonymous_args = 0
 364 0000 80B5     		push	{r7, lr}
 365              		.cfi_def_cfa_offset 8
 366              		.cfi_offset 7, -8
 367              		.cfi_offset 14, -4
 368 0002 82B0     		sub	sp, sp, #8
 369              		.cfi_def_cfa_offset 16
 370 0004 00AF     		add	r7, sp, #0
 371              		.cfi_def_cfa_register 7
 372 0006 7860     		str	r0, [r7, #4]
 373 0008 0B46     		mov	r3, r1
 374 000a FB70     		strb	r3, [r7, #3]
 241:..\..\..\lvgl\version_6.1.2\lvgl\src\lv_objx/lv_ta.h ****     lv_page_set_sb_mode(ta, mode);
 375              		.loc 6 241 0
 376 000c FB78     		ldrb	r3, [r7, #3]	@ zero_extendqisi2
 377 000e 1946     		mov	r1, r3
 378 0010 7868     		ldr	r0, [r7, #4]
 379 0012 FFF7FEFF 		bl	lv_page_set_sb_mode
 242:..\..\..\lvgl\version_6.1.2\lvgl\src\lv_objx/lv_ta.h **** }
 380              		.loc 6 242 0
 381 0016 00BF     		nop
 382 0018 0837     		adds	r7, r7, #8
 383              		.cfi_def_cfa_offset 8
 384 001a BD46     		mov	sp, r7
 385              		.cfi_def_cfa_register 13
 386              		@ sp needed
 387 001c 80BD     		pop	{r7, pc}
 388              		.cfi_endproc
 389              	.LFE50:
 390              		.size	lv_ta_set_sb_mode, .-lv_ta_set_sb_mode
 391 001e 00BF     		.section	.text.lv_ta_set_edge_flash,"ax",%progbits
 392              		.align	2
 393              		.thumb
 394              		.thumb_func
 395              		.type	lv_ta_set_edge_flash, %function
 396              	lv_ta_set_edge_flash:
ARM GAS  C:\Users\tmj32\AppData\Local\Temp\ccI3WYuM.s 			page 27


 397              	.LFB52:
 243:..\..\..\lvgl\version_6.1.2\lvgl\src\lv_objx/lv_ta.h **** 
 244:..\..\..\lvgl\version_6.1.2\lvgl\src\lv_objx/lv_ta.h **** /**
 245:..\..\..\lvgl\version_6.1.2\lvgl\src\lv_objx/lv_ta.h ****  * Enable the scroll propagation feature. If enabled then the Text area will move its parent if
 246:..\..\..\lvgl\version_6.1.2\lvgl\src\lv_objx/lv_ta.h ****  * there is no more space to scroll.
 247:..\..\..\lvgl\version_6.1.2\lvgl\src\lv_objx/lv_ta.h ****  * @param ta pointer to a Text area
 248:..\..\..\lvgl\version_6.1.2\lvgl\src\lv_objx/lv_ta.h ****  * @param en true or false to enable/disable scroll propagation
 249:..\..\..\lvgl\version_6.1.2\lvgl\src\lv_objx/lv_ta.h ****  */
 250:..\..\..\lvgl\version_6.1.2\lvgl\src\lv_objx/lv_ta.h **** static inline void lv_ta_set_scroll_propagation(lv_obj_t * ta, bool en)
 251:..\..\..\lvgl\version_6.1.2\lvgl\src\lv_objx/lv_ta.h **** {
 252:..\..\..\lvgl\version_6.1.2\lvgl\src\lv_objx/lv_ta.h ****     lv_page_set_scroll_propagation(ta, en);
 253:..\..\..\lvgl\version_6.1.2\lvgl\src\lv_objx/lv_ta.h **** }
 254:..\..\..\lvgl\version_6.1.2\lvgl\src\lv_objx/lv_ta.h **** 
 255:..\..\..\lvgl\version_6.1.2\lvgl\src\lv_objx/lv_ta.h **** /**
 256:..\..\..\lvgl\version_6.1.2\lvgl\src\lv_objx/lv_ta.h ****  * Enable the edge flash effect. (Show an arc when the an edge is reached)
 257:..\..\..\lvgl\version_6.1.2\lvgl\src\lv_objx/lv_ta.h ****  * @param page pointer to a Text Area
 258:..\..\..\lvgl\version_6.1.2\lvgl\src\lv_objx/lv_ta.h ****  * @param en true or false to enable/disable end flash
 259:..\..\..\lvgl\version_6.1.2\lvgl\src\lv_objx/lv_ta.h ****  */
 260:..\..\..\lvgl\version_6.1.2\lvgl\src\lv_objx/lv_ta.h **** static inline void lv_ta_set_edge_flash(lv_obj_t * ta, bool en)
 261:..\..\..\lvgl\version_6.1.2\lvgl\src\lv_objx/lv_ta.h **** {
 398              		.loc 6 261 0
 399              		.cfi_startproc
 400              		@ args = 0, pretend = 0, frame = 8
 401              		@ frame_needed = 1, uses_anonymous_args = 0
 402 0000 80B5     		push	{r7, lr}
 403              		.cfi_def_cfa_offset 8
 404              		.cfi_offset 7, -8
 405              		.cfi_offset 14, -4
 406 0002 82B0     		sub	sp, sp, #8
 407              		.cfi_def_cfa_offset 16
 408 0004 00AF     		add	r7, sp, #0
 409              		.cfi_def_cfa_register 7
 410 0006 7860     		str	r0, [r7, #4]
 411 0008 0B46     		mov	r3, r1
 412 000a FB70     		strb	r3, [r7, #3]
 262:..\..\..\lvgl\version_6.1.2\lvgl\src\lv_objx/lv_ta.h ****     lv_page_set_edge_flash(ta, en);
 413              		.loc 6 262 0
 414 000c FB78     		ldrb	r3, [r7, #3]	@ zero_extendqisi2
 415 000e 1946     		mov	r1, r3
 416 0010 7868     		ldr	r0, [r7, #4]
 417 0012 FFF7FEFF 		bl	lv_page_set_edge_flash
 263:..\..\..\lvgl\version_6.1.2\lvgl\src\lv_objx/lv_ta.h **** }
 418              		.loc 6 263 0
 419 0016 00BF     		nop
 420 0018 0837     		adds	r7, r7, #8
 421              		.cfi_def_cfa_offset 8
 422 001a BD46     		mov	sp, r7
 423              		.cfi_def_cfa_register 13
 424              		@ sp needed
 425 001c 80BD     		pop	{r7, pc}
 426              		.cfi_endproc
 427              	.LFE52:
 428              		.size	lv_ta_set_edge_flash, .-lv_ta_set_edge_flash
 429 001e 00BF     		.section	.text.lv_ta_get_edge_flash,"ax",%progbits
 430              		.align	2
 431              		.thumb
 432              		.thumb_func
ARM GAS  C:\Users\tmj32\AppData\Local\Temp\ccI3WYuM.s 			page 28


 433              		.type	lv_ta_get_edge_flash, %function
 434              	lv_ta_get_edge_flash:
 435              	.LFB55:
 264:..\..\..\lvgl\version_6.1.2\lvgl\src\lv_objx/lv_ta.h **** 
 265:..\..\..\lvgl\version_6.1.2\lvgl\src\lv_objx/lv_ta.h **** /**
 266:..\..\..\lvgl\version_6.1.2\lvgl\src\lv_objx/lv_ta.h ****  * Set a style of a text area
 267:..\..\..\lvgl\version_6.1.2\lvgl\src\lv_objx/lv_ta.h ****  * @param ta pointer to a text area object
 268:..\..\..\lvgl\version_6.1.2\lvgl\src\lv_objx/lv_ta.h ****  * @param type which style should be set
 269:..\..\..\lvgl\version_6.1.2\lvgl\src\lv_objx/lv_ta.h ****  * @param style pointer to a style
 270:..\..\..\lvgl\version_6.1.2\lvgl\src\lv_objx/lv_ta.h ****  */
 271:..\..\..\lvgl\version_6.1.2\lvgl\src\lv_objx/lv_ta.h **** void lv_ta_set_style(lv_obj_t * ta, lv_ta_style_t type, const lv_style_t * style);
 272:..\..\..\lvgl\version_6.1.2\lvgl\src\lv_objx/lv_ta.h **** 
 273:..\..\..\lvgl\version_6.1.2\lvgl\src\lv_objx/lv_ta.h **** /**
 274:..\..\..\lvgl\version_6.1.2\lvgl\src\lv_objx/lv_ta.h ****  * Enable/disable selection mode.
 275:..\..\..\lvgl\version_6.1.2\lvgl\src\lv_objx/lv_ta.h ****  * @param ta pointer to a text area object
 276:..\..\..\lvgl\version_6.1.2\lvgl\src\lv_objx/lv_ta.h ****  * @param en true or false to enable/disable selection mode
 277:..\..\..\lvgl\version_6.1.2\lvgl\src\lv_objx/lv_ta.h ****  */
 278:..\..\..\lvgl\version_6.1.2\lvgl\src\lv_objx/lv_ta.h **** void lv_ta_set_text_sel(lv_obj_t * ta, bool en);
 279:..\..\..\lvgl\version_6.1.2\lvgl\src\lv_objx/lv_ta.h **** 
 280:..\..\..\lvgl\version_6.1.2\lvgl\src\lv_objx/lv_ta.h **** /**
 281:..\..\..\lvgl\version_6.1.2\lvgl\src\lv_objx/lv_ta.h ****  * Set how long show the password before changing it to '*'
 282:..\..\..\lvgl\version_6.1.2\lvgl\src\lv_objx/lv_ta.h ****  * @param ta pointer to Text area
 283:..\..\..\lvgl\version_6.1.2\lvgl\src\lv_objx/lv_ta.h ****  * @param time show time in milliseconds. 0: hide immediately.
 284:..\..\..\lvgl\version_6.1.2\lvgl\src\lv_objx/lv_ta.h ****  */
 285:..\..\..\lvgl\version_6.1.2\lvgl\src\lv_objx/lv_ta.h **** void lv_ta_set_pwd_show_time(lv_obj_t * ta, uint16_t time);
 286:..\..\..\lvgl\version_6.1.2\lvgl\src\lv_objx/lv_ta.h **** 
 287:..\..\..\lvgl\version_6.1.2\lvgl\src\lv_objx/lv_ta.h **** /**
 288:..\..\..\lvgl\version_6.1.2\lvgl\src\lv_objx/lv_ta.h ****  * Set cursor blink animation time
 289:..\..\..\lvgl\version_6.1.2\lvgl\src\lv_objx/lv_ta.h ****  * @param ta pointer to Text area
 290:..\..\..\lvgl\version_6.1.2\lvgl\src\lv_objx/lv_ta.h ****  * @param time blink period. 0: disable blinking
 291:..\..\..\lvgl\version_6.1.2\lvgl\src\lv_objx/lv_ta.h ****  */
 292:..\..\..\lvgl\version_6.1.2\lvgl\src\lv_objx/lv_ta.h **** void lv_ta_set_cursor_blink_time(lv_obj_t * ta, uint16_t time);
 293:..\..\..\lvgl\version_6.1.2\lvgl\src\lv_objx/lv_ta.h **** 
 294:..\..\..\lvgl\version_6.1.2\lvgl\src\lv_objx/lv_ta.h **** /*=====================
 295:..\..\..\lvgl\version_6.1.2\lvgl\src\lv_objx/lv_ta.h ****  * Getter functions
 296:..\..\..\lvgl\version_6.1.2\lvgl\src\lv_objx/lv_ta.h ****  *====================*/
 297:..\..\..\lvgl\version_6.1.2\lvgl\src\lv_objx/lv_ta.h **** 
 298:..\..\..\lvgl\version_6.1.2\lvgl\src\lv_objx/lv_ta.h **** /**
 299:..\..\..\lvgl\version_6.1.2\lvgl\src\lv_objx/lv_ta.h ****  * Get the text of a text area. In password mode it gives the real text (not '*'s).
 300:..\..\..\lvgl\version_6.1.2\lvgl\src\lv_objx/lv_ta.h ****  * @param ta pointer to a text area object
 301:..\..\..\lvgl\version_6.1.2\lvgl\src\lv_objx/lv_ta.h ****  * @return pointer to the text
 302:..\..\..\lvgl\version_6.1.2\lvgl\src\lv_objx/lv_ta.h ****  */
 303:..\..\..\lvgl\version_6.1.2\lvgl\src\lv_objx/lv_ta.h **** const char * lv_ta_get_text(const lv_obj_t * ta);
 304:..\..\..\lvgl\version_6.1.2\lvgl\src\lv_objx/lv_ta.h **** 
 305:..\..\..\lvgl\version_6.1.2\lvgl\src\lv_objx/lv_ta.h **** /**
 306:..\..\..\lvgl\version_6.1.2\lvgl\src\lv_objx/lv_ta.h ****  * Get the placeholder text of a text area
 307:..\..\..\lvgl\version_6.1.2\lvgl\src\lv_objx/lv_ta.h ****  * @param ta pointer to a text area object
 308:..\..\..\lvgl\version_6.1.2\lvgl\src\lv_objx/lv_ta.h ****  * @return pointer to the text
 309:..\..\..\lvgl\version_6.1.2\lvgl\src\lv_objx/lv_ta.h ****  */
 310:..\..\..\lvgl\version_6.1.2\lvgl\src\lv_objx/lv_ta.h **** const char * lv_ta_get_placeholder_text(lv_obj_t * ta);
 311:..\..\..\lvgl\version_6.1.2\lvgl\src\lv_objx/lv_ta.h **** 
 312:..\..\..\lvgl\version_6.1.2\lvgl\src\lv_objx/lv_ta.h **** /**
 313:..\..\..\lvgl\version_6.1.2\lvgl\src\lv_objx/lv_ta.h ****  * Get the label of a text area
 314:..\..\..\lvgl\version_6.1.2\lvgl\src\lv_objx/lv_ta.h ****  * @param ta pointer to a text area object
 315:..\..\..\lvgl\version_6.1.2\lvgl\src\lv_objx/lv_ta.h ****  * @return pointer to the label object
 316:..\..\..\lvgl\version_6.1.2\lvgl\src\lv_objx/lv_ta.h ****  */
 317:..\..\..\lvgl\version_6.1.2\lvgl\src\lv_objx/lv_ta.h **** lv_obj_t * lv_ta_get_label(const lv_obj_t * ta);
ARM GAS  C:\Users\tmj32\AppData\Local\Temp\ccI3WYuM.s 			page 29


 318:..\..\..\lvgl\version_6.1.2\lvgl\src\lv_objx/lv_ta.h **** 
 319:..\..\..\lvgl\version_6.1.2\lvgl\src\lv_objx/lv_ta.h **** /**
 320:..\..\..\lvgl\version_6.1.2\lvgl\src\lv_objx/lv_ta.h ****  * Get the current cursor position in character index
 321:..\..\..\lvgl\version_6.1.2\lvgl\src\lv_objx/lv_ta.h ****  * @param ta pointer to a text area object
 322:..\..\..\lvgl\version_6.1.2\lvgl\src\lv_objx/lv_ta.h ****  * @return the cursor position
 323:..\..\..\lvgl\version_6.1.2\lvgl\src\lv_objx/lv_ta.h ****  */
 324:..\..\..\lvgl\version_6.1.2\lvgl\src\lv_objx/lv_ta.h **** uint16_t lv_ta_get_cursor_pos(const lv_obj_t * ta);
 325:..\..\..\lvgl\version_6.1.2\lvgl\src\lv_objx/lv_ta.h **** 
 326:..\..\..\lvgl\version_6.1.2\lvgl\src\lv_objx/lv_ta.h **** /**
 327:..\..\..\lvgl\version_6.1.2\lvgl\src\lv_objx/lv_ta.h ****  * Get the current cursor type.
 328:..\..\..\lvgl\version_6.1.2\lvgl\src\lv_objx/lv_ta.h ****  * @param ta pointer to a text area object
 329:..\..\..\lvgl\version_6.1.2\lvgl\src\lv_objx/lv_ta.h ****  * @return element of 'lv_cursor_type_t'
 330:..\..\..\lvgl\version_6.1.2\lvgl\src\lv_objx/lv_ta.h ****  */
 331:..\..\..\lvgl\version_6.1.2\lvgl\src\lv_objx/lv_ta.h **** lv_cursor_type_t lv_ta_get_cursor_type(const lv_obj_t * ta);
 332:..\..\..\lvgl\version_6.1.2\lvgl\src\lv_objx/lv_ta.h **** 
 333:..\..\..\lvgl\version_6.1.2\lvgl\src\lv_objx/lv_ta.h **** /**
 334:..\..\..\lvgl\version_6.1.2\lvgl\src\lv_objx/lv_ta.h ****  * Get whether the cursor click positioning is enabled or not.
 335:..\..\..\lvgl\version_6.1.2\lvgl\src\lv_objx/lv_ta.h ****  * @param ta pointer to a text area object
 336:..\..\..\lvgl\version_6.1.2\lvgl\src\lv_objx/lv_ta.h ****  * @return true: enable click positions; false: disable
 337:..\..\..\lvgl\version_6.1.2\lvgl\src\lv_objx/lv_ta.h ****  */
 338:..\..\..\lvgl\version_6.1.2\lvgl\src\lv_objx/lv_ta.h **** bool lv_ta_get_cursor_click_pos(lv_obj_t * ta);
 339:..\..\..\lvgl\version_6.1.2\lvgl\src\lv_objx/lv_ta.h **** 
 340:..\..\..\lvgl\version_6.1.2\lvgl\src\lv_objx/lv_ta.h **** /**
 341:..\..\..\lvgl\version_6.1.2\lvgl\src\lv_objx/lv_ta.h ****  * Get the password mode attribute
 342:..\..\..\lvgl\version_6.1.2\lvgl\src\lv_objx/lv_ta.h ****  * @param ta pointer to a text area object
 343:..\..\..\lvgl\version_6.1.2\lvgl\src\lv_objx/lv_ta.h ****  * @return true: password mode is enabled, false: disabled
 344:..\..\..\lvgl\version_6.1.2\lvgl\src\lv_objx/lv_ta.h ****  */
 345:..\..\..\lvgl\version_6.1.2\lvgl\src\lv_objx/lv_ta.h **** bool lv_ta_get_pwd_mode(const lv_obj_t * ta);
 346:..\..\..\lvgl\version_6.1.2\lvgl\src\lv_objx/lv_ta.h **** 
 347:..\..\..\lvgl\version_6.1.2\lvgl\src\lv_objx/lv_ta.h **** /**
 348:..\..\..\lvgl\version_6.1.2\lvgl\src\lv_objx/lv_ta.h ****  * Get the one line configuration attribute
 349:..\..\..\lvgl\version_6.1.2\lvgl\src\lv_objx/lv_ta.h ****  * @param ta pointer to a text area object
 350:..\..\..\lvgl\version_6.1.2\lvgl\src\lv_objx/lv_ta.h ****  * @return true: one line configuration is enabled, false: disabled
 351:..\..\..\lvgl\version_6.1.2\lvgl\src\lv_objx/lv_ta.h ****  */
 352:..\..\..\lvgl\version_6.1.2\lvgl\src\lv_objx/lv_ta.h **** bool lv_ta_get_one_line(const lv_obj_t * ta);
 353:..\..\..\lvgl\version_6.1.2\lvgl\src\lv_objx/lv_ta.h **** 
 354:..\..\..\lvgl\version_6.1.2\lvgl\src\lv_objx/lv_ta.h **** /**
 355:..\..\..\lvgl\version_6.1.2\lvgl\src\lv_objx/lv_ta.h ****  * Get a list of accepted characters.
 356:..\..\..\lvgl\version_6.1.2\lvgl\src\lv_objx/lv_ta.h ****  * @param ta pointer to  Text Area
 357:..\..\..\lvgl\version_6.1.2\lvgl\src\lv_objx/lv_ta.h ****  * @return list of accented characters.
 358:..\..\..\lvgl\version_6.1.2\lvgl\src\lv_objx/lv_ta.h ****  */
 359:..\..\..\lvgl\version_6.1.2\lvgl\src\lv_objx/lv_ta.h **** const char * lv_ta_get_accepted_chars(lv_obj_t * ta);
 360:..\..\..\lvgl\version_6.1.2\lvgl\src\lv_objx/lv_ta.h **** 
 361:..\..\..\lvgl\version_6.1.2\lvgl\src\lv_objx/lv_ta.h **** /**
 362:..\..\..\lvgl\version_6.1.2\lvgl\src\lv_objx/lv_ta.h ****  * Set max length of a Text Area.
 363:..\..\..\lvgl\version_6.1.2\lvgl\src\lv_objx/lv_ta.h ****  * @param ta pointer to  Text Area
 364:..\..\..\lvgl\version_6.1.2\lvgl\src\lv_objx/lv_ta.h ****  * @return the maximal number of characters to be add
 365:..\..\..\lvgl\version_6.1.2\lvgl\src\lv_objx/lv_ta.h ****  */
 366:..\..\..\lvgl\version_6.1.2\lvgl\src\lv_objx/lv_ta.h **** uint16_t lv_ta_get_max_length(lv_obj_t * ta);
 367:..\..\..\lvgl\version_6.1.2\lvgl\src\lv_objx/lv_ta.h **** 
 368:..\..\..\lvgl\version_6.1.2\lvgl\src\lv_objx/lv_ta.h **** /**
 369:..\..\..\lvgl\version_6.1.2\lvgl\src\lv_objx/lv_ta.h ****  * Get the scroll bar mode of a text area
 370:..\..\..\lvgl\version_6.1.2\lvgl\src\lv_objx/lv_ta.h ****  * @param ta pointer to a text area object
 371:..\..\..\lvgl\version_6.1.2\lvgl\src\lv_objx/lv_ta.h ****  * @return scrollbar mode from 'lv_page_sb_mode_t' enum
 372:..\..\..\lvgl\version_6.1.2\lvgl\src\lv_objx/lv_ta.h ****  */
 373:..\..\..\lvgl\version_6.1.2\lvgl\src\lv_objx/lv_ta.h **** static inline lv_sb_mode_t lv_ta_get_sb_mode(const lv_obj_t * ta)
 374:..\..\..\lvgl\version_6.1.2\lvgl\src\lv_objx/lv_ta.h **** {
ARM GAS  C:\Users\tmj32\AppData\Local\Temp\ccI3WYuM.s 			page 30


 375:..\..\..\lvgl\version_6.1.2\lvgl\src\lv_objx/lv_ta.h ****     return lv_page_get_sb_mode(ta);
 376:..\..\..\lvgl\version_6.1.2\lvgl\src\lv_objx/lv_ta.h **** }
 377:..\..\..\lvgl\version_6.1.2\lvgl\src\lv_objx/lv_ta.h **** 
 378:..\..\..\lvgl\version_6.1.2\lvgl\src\lv_objx/lv_ta.h **** /**
 379:..\..\..\lvgl\version_6.1.2\lvgl\src\lv_objx/lv_ta.h ****  * Get the scroll propagation property
 380:..\..\..\lvgl\version_6.1.2\lvgl\src\lv_objx/lv_ta.h ****  * @param ta pointer to a Text area
 381:..\..\..\lvgl\version_6.1.2\lvgl\src\lv_objx/lv_ta.h ****  * @return true or false
 382:..\..\..\lvgl\version_6.1.2\lvgl\src\lv_objx/lv_ta.h ****  */
 383:..\..\..\lvgl\version_6.1.2\lvgl\src\lv_objx/lv_ta.h **** static inline bool lv_ta_get_scroll_propagation(lv_obj_t * ta)
 384:..\..\..\lvgl\version_6.1.2\lvgl\src\lv_objx/lv_ta.h **** {
 385:..\..\..\lvgl\version_6.1.2\lvgl\src\lv_objx/lv_ta.h ****     return lv_page_get_scroll_propagation(ta);
 386:..\..\..\lvgl\version_6.1.2\lvgl\src\lv_objx/lv_ta.h **** }
 387:..\..\..\lvgl\version_6.1.2\lvgl\src\lv_objx/lv_ta.h **** 
 388:..\..\..\lvgl\version_6.1.2\lvgl\src\lv_objx/lv_ta.h **** /**
 389:..\..\..\lvgl\version_6.1.2\lvgl\src\lv_objx/lv_ta.h ****  * Get the scroll propagation property
 390:..\..\..\lvgl\version_6.1.2\lvgl\src\lv_objx/lv_ta.h ****  * @param ta pointer to a Text area
 391:..\..\..\lvgl\version_6.1.2\lvgl\src\lv_objx/lv_ta.h ****  * @return true or false
 392:..\..\..\lvgl\version_6.1.2\lvgl\src\lv_objx/lv_ta.h ****  */
 393:..\..\..\lvgl\version_6.1.2\lvgl\src\lv_objx/lv_ta.h **** static inline bool lv_ta_get_edge_flash(lv_obj_t * ta)
 394:..\..\..\lvgl\version_6.1.2\lvgl\src\lv_objx/lv_ta.h **** {
 436              		.loc 6 394 0
 437              		.cfi_startproc
 438              		@ args = 0, pretend = 0, frame = 8
 439              		@ frame_needed = 1, uses_anonymous_args = 0
 440 0000 80B5     		push	{r7, lr}
 441              		.cfi_def_cfa_offset 8
 442              		.cfi_offset 7, -8
 443              		.cfi_offset 14, -4
 444 0002 82B0     		sub	sp, sp, #8
 445              		.cfi_def_cfa_offset 16
 446 0004 00AF     		add	r7, sp, #0
 447              		.cfi_def_cfa_register 7
 448 0006 7860     		str	r0, [r7, #4]
 395:..\..\..\lvgl\version_6.1.2\lvgl\src\lv_objx/lv_ta.h ****     return lv_page_get_edge_flash(ta);
 449              		.loc 6 395 0
 450 0008 7868     		ldr	r0, [r7, #4]
 451 000a FFF7FEFF 		bl	lv_page_get_edge_flash
 452 000e 0346     		mov	r3, r0
 396:..\..\..\lvgl\version_6.1.2\lvgl\src\lv_objx/lv_ta.h **** }
 453              		.loc 6 396 0
 454 0010 1846     		mov	r0, r3
 455 0012 0837     		adds	r7, r7, #8
 456              		.cfi_def_cfa_offset 8
 457 0014 BD46     		mov	sp, r7
 458              		.cfi_def_cfa_register 13
 459              		@ sp needed
 460 0016 80BD     		pop	{r7, pc}
 461              		.cfi_endproc
 462              	.LFE55:
 463              		.size	lv_ta_get_edge_flash, .-lv_ta_get_edge_flash
 464              		.bss
 465              		.align	2
 466              	ancestor_design:
 467 0000 00000000 		.space	4
 468              		.align	2
 469              	scrl_design:
 470 0004 00000000 		.space	4
ARM GAS  C:\Users\tmj32\AppData\Local\Temp\ccI3WYuM.s 			page 31


 471              		.align	2
 472              	ancestor_signal:
 473 0008 00000000 		.space	4
 474              		.align	2
 475              	scrl_signal:
 476 000c 00000000 		.space	4
 477              		.align	2
 478              	ta_insert_replace:
 479 0010 00000000 		.space	4
 480              		.section	.rodata
 481              		.align	2
 482              	.LC0:
 483 0000 54657874 		.ascii	"Text area\000"
 483      20617265 
 483      6100
 484              		.section	.text.lv_ta_create,"ax",%progbits
 485              		.align	2
 486              		.global	lv_ta_create
 487              		.thumb
 488              		.thumb_func
 489              		.type	lv_ta_create, %function
 490              	lv_ta_create:
 491              	.LFB56:
 492              		.file 7 "..\\..\\..\\lvgl\\version_6.1.2\\lvgl\\src\\lv_objx\\lv_ta.c"
   1:..\..\..\lvgl\version_6.1.2\lvgl\src\lv_objx/lv_ta.c **** /**
   2:..\..\..\lvgl\version_6.1.2\lvgl\src\lv_objx/lv_ta.c ****  * @file lv_ta.c
   3:..\..\..\lvgl\version_6.1.2\lvgl\src\lv_objx/lv_ta.c ****  *
   4:..\..\..\lvgl\version_6.1.2\lvgl\src\lv_objx/lv_ta.c ****  */
   5:..\..\..\lvgl\version_6.1.2\lvgl\src\lv_objx/lv_ta.c **** 
   6:..\..\..\lvgl\version_6.1.2\lvgl\src\lv_objx/lv_ta.c **** /*********************
   7:..\..\..\lvgl\version_6.1.2\lvgl\src\lv_objx/lv_ta.c ****  *      INCLUDES
   8:..\..\..\lvgl\version_6.1.2\lvgl\src\lv_objx/lv_ta.c ****  *********************/
   9:..\..\..\lvgl\version_6.1.2\lvgl\src\lv_objx/lv_ta.c **** #include "lv_ta.h"
  10:..\..\..\lvgl\version_6.1.2\lvgl\src\lv_objx/lv_ta.c **** #if LV_USE_TA != 0
  11:..\..\..\lvgl\version_6.1.2\lvgl\src\lv_objx/lv_ta.c **** #include <string.h>
  12:..\..\..\lvgl\version_6.1.2\lvgl\src\lv_objx/lv_ta.c **** #include "../lv_core/lv_debug.h"
  13:..\..\..\lvgl\version_6.1.2\lvgl\src\lv_objx/lv_ta.c **** #include "../lv_core/lv_group.h"
  14:..\..\..\lvgl\version_6.1.2\lvgl\src\lv_objx/lv_ta.c **** #include "../lv_core/lv_refr.h"
  15:..\..\..\lvgl\version_6.1.2\lvgl\src\lv_objx/lv_ta.c **** #include "../lv_draw/lv_draw.h"
  16:..\..\..\lvgl\version_6.1.2\lvgl\src\lv_objx/lv_ta.c **** #include "../lv_themes/lv_theme.h"
  17:..\..\..\lvgl\version_6.1.2\lvgl\src\lv_objx/lv_ta.c **** #include "../lv_misc/lv_anim.h"
  18:..\..\..\lvgl\version_6.1.2\lvgl\src\lv_objx/lv_ta.c **** #include "../lv_misc/lv_txt.h"
  19:..\..\..\lvgl\version_6.1.2\lvgl\src\lv_objx/lv_ta.c **** #include "../lv_misc/lv_math.h"
  20:..\..\..\lvgl\version_6.1.2\lvgl\src\lv_objx/lv_ta.c **** 
  21:..\..\..\lvgl\version_6.1.2\lvgl\src\lv_objx/lv_ta.c **** /*********************
  22:..\..\..\lvgl\version_6.1.2\lvgl\src\lv_objx/lv_ta.c ****  *      DEFINES
  23:..\..\..\lvgl\version_6.1.2\lvgl\src\lv_objx/lv_ta.c ****  *********************/
  24:..\..\..\lvgl\version_6.1.2\lvgl\src\lv_objx/lv_ta.c **** #define LV_OBJX_NAME "lv_ta"
  25:..\..\..\lvgl\version_6.1.2\lvgl\src\lv_objx/lv_ta.c **** 
  26:..\..\..\lvgl\version_6.1.2\lvgl\src\lv_objx/lv_ta.c **** /*Test configuration*/
  27:..\..\..\lvgl\version_6.1.2\lvgl\src\lv_objx/lv_ta.c **** #ifndef LV_TA_DEF_CURSOR_BLINK_TIME
  28:..\..\..\lvgl\version_6.1.2\lvgl\src\lv_objx/lv_ta.c **** #define LV_TA_DEF_CURSOR_BLINK_TIME 400 /*ms*/
  29:..\..\..\lvgl\version_6.1.2\lvgl\src\lv_objx/lv_ta.c **** #endif
  30:..\..\..\lvgl\version_6.1.2\lvgl\src\lv_objx/lv_ta.c **** 
  31:..\..\..\lvgl\version_6.1.2\lvgl\src\lv_objx/lv_ta.c **** #ifndef LV_TA_DEF_PWD_SHOW_TIME
  32:..\..\..\lvgl\version_6.1.2\lvgl\src\lv_objx/lv_ta.c **** #define LV_TA_DEF_PWD_SHOW_TIME 1500 /*ms*/
  33:..\..\..\lvgl\version_6.1.2\lvgl\src\lv_objx/lv_ta.c **** #endif
ARM GAS  C:\Users\tmj32\AppData\Local\Temp\ccI3WYuM.s 			page 32


  34:..\..\..\lvgl\version_6.1.2\lvgl\src\lv_objx/lv_ta.c **** 
  35:..\..\..\lvgl\version_6.1.2\lvgl\src\lv_objx/lv_ta.c **** #define LV_TA_DEF_WIDTH (2 * LV_DPI)
  36:..\..\..\lvgl\version_6.1.2\lvgl\src\lv_objx/lv_ta.c **** #define LV_TA_DEF_HEIGHT (1 * LV_DPI)
  37:..\..\..\lvgl\version_6.1.2\lvgl\src\lv_objx/lv_ta.c **** 
  38:..\..\..\lvgl\version_6.1.2\lvgl\src\lv_objx/lv_ta.c **** /**********************
  39:..\..\..\lvgl\version_6.1.2\lvgl\src\lv_objx/lv_ta.c ****  *      TYPEDEFS
  40:..\..\..\lvgl\version_6.1.2\lvgl\src\lv_objx/lv_ta.c ****  **********************/
  41:..\..\..\lvgl\version_6.1.2\lvgl\src\lv_objx/lv_ta.c **** 
  42:..\..\..\lvgl\version_6.1.2\lvgl\src\lv_objx/lv_ta.c **** /**********************
  43:..\..\..\lvgl\version_6.1.2\lvgl\src\lv_objx/lv_ta.c ****  *  STATIC PROTOTYPES
  44:..\..\..\lvgl\version_6.1.2\lvgl\src\lv_objx/lv_ta.c ****  **********************/
  45:..\..\..\lvgl\version_6.1.2\lvgl\src\lv_objx/lv_ta.c **** static bool lv_ta_design(lv_obj_t * ta, const lv_area_t * mask, lv_design_mode_t mode);
  46:..\..\..\lvgl\version_6.1.2\lvgl\src\lv_objx/lv_ta.c **** static bool lv_ta_scrollable_design(lv_obj_t * scrl, const lv_area_t * mask, lv_design_mode_t mode)
  47:..\..\..\lvgl\version_6.1.2\lvgl\src\lv_objx/lv_ta.c **** static lv_res_t lv_ta_signal(lv_obj_t * ta, lv_signal_t sign, void * param);
  48:..\..\..\lvgl\version_6.1.2\lvgl\src\lv_objx/lv_ta.c **** static lv_res_t lv_ta_scrollable_signal(lv_obj_t * scrl, lv_signal_t sign, void * param);
  49:..\..\..\lvgl\version_6.1.2\lvgl\src\lv_objx/lv_ta.c **** #if LV_USE_ANIMATION
  50:..\..\..\lvgl\version_6.1.2\lvgl\src\lv_objx/lv_ta.c **** static void cursor_blink_anim(lv_obj_t * ta, lv_anim_value_t show);
  51:..\..\..\lvgl\version_6.1.2\lvgl\src\lv_objx/lv_ta.c **** static void pwd_char_hider_anim(lv_obj_t * ta, lv_anim_value_t x);
  52:..\..\..\lvgl\version_6.1.2\lvgl\src\lv_objx/lv_ta.c **** static void pwd_char_hider_anim_ready(lv_anim_t * a);
  53:..\..\..\lvgl\version_6.1.2\lvgl\src\lv_objx/lv_ta.c **** #endif
  54:..\..\..\lvgl\version_6.1.2\lvgl\src\lv_objx/lv_ta.c **** static void pwd_char_hider(lv_obj_t * ta);
  55:..\..\..\lvgl\version_6.1.2\lvgl\src\lv_objx/lv_ta.c **** static bool char_is_accepted(lv_obj_t * ta, uint32_t c);
  56:..\..\..\lvgl\version_6.1.2\lvgl\src\lv_objx/lv_ta.c **** static void get_cursor_style(lv_obj_t * ta, lv_style_t * style_res);
  57:..\..\..\lvgl\version_6.1.2\lvgl\src\lv_objx/lv_ta.c **** static void refr_cursor_area(lv_obj_t * ta);
  58:..\..\..\lvgl\version_6.1.2\lvgl\src\lv_objx/lv_ta.c **** static void placeholder_update(lv_obj_t * ta);
  59:..\..\..\lvgl\version_6.1.2\lvgl\src\lv_objx/lv_ta.c **** static void update_cursor_position_on_click(lv_obj_t * ta, lv_signal_t sign, lv_indev_t * click_sou
  60:..\..\..\lvgl\version_6.1.2\lvgl\src\lv_objx/lv_ta.c **** 
  61:..\..\..\lvgl\version_6.1.2\lvgl\src\lv_objx/lv_ta.c **** /**********************
  62:..\..\..\lvgl\version_6.1.2\lvgl\src\lv_objx/lv_ta.c ****  *  STATIC VARIABLES
  63:..\..\..\lvgl\version_6.1.2\lvgl\src\lv_objx/lv_ta.c ****  **********************/
  64:..\..\..\lvgl\version_6.1.2\lvgl\src\lv_objx/lv_ta.c **** static lv_design_cb_t ancestor_design;
  65:..\..\..\lvgl\version_6.1.2\lvgl\src\lv_objx/lv_ta.c **** static lv_design_cb_t scrl_design;
  66:..\..\..\lvgl\version_6.1.2\lvgl\src\lv_objx/lv_ta.c **** static lv_signal_cb_t ancestor_signal;
  67:..\..\..\lvgl\version_6.1.2\lvgl\src\lv_objx/lv_ta.c **** static lv_signal_cb_t scrl_signal;
  68:..\..\..\lvgl\version_6.1.2\lvgl\src\lv_objx/lv_ta.c **** static const char * ta_insert_replace;
  69:..\..\..\lvgl\version_6.1.2\lvgl\src\lv_objx/lv_ta.c **** 
  70:..\..\..\lvgl\version_6.1.2\lvgl\src\lv_objx/lv_ta.c **** /**********************
  71:..\..\..\lvgl\version_6.1.2\lvgl\src\lv_objx/lv_ta.c ****  *      MACROS
  72:..\..\..\lvgl\version_6.1.2\lvgl\src\lv_objx/lv_ta.c ****  **********************/
  73:..\..\..\lvgl\version_6.1.2\lvgl\src\lv_objx/lv_ta.c **** 
  74:..\..\..\lvgl\version_6.1.2\lvgl\src\lv_objx/lv_ta.c **** /**********************
  75:..\..\..\lvgl\version_6.1.2\lvgl\src\lv_objx/lv_ta.c ****  *   GLOBAL FUNCTIONS
  76:..\..\..\lvgl\version_6.1.2\lvgl\src\lv_objx/lv_ta.c ****  **********************/
  77:..\..\..\lvgl\version_6.1.2\lvgl\src\lv_objx/lv_ta.c **** 
  78:..\..\..\lvgl\version_6.1.2\lvgl\src\lv_objx/lv_ta.c **** /**
  79:..\..\..\lvgl\version_6.1.2\lvgl\src\lv_objx/lv_ta.c ****  * Create a text area objects
  80:..\..\..\lvgl\version_6.1.2\lvgl\src\lv_objx/lv_ta.c ****  * @param par pointer to an object, it will be the parent of the new text area
  81:..\..\..\lvgl\version_6.1.2\lvgl\src\lv_objx/lv_ta.c ****  * @param copy pointer to a text area object, if not NULL then the new object will be copied from i
  82:..\..\..\lvgl\version_6.1.2\lvgl\src\lv_objx/lv_ta.c ****  * @return pointer to the created text area
  83:..\..\..\lvgl\version_6.1.2\lvgl\src\lv_objx/lv_ta.c ****  */
  84:..\..\..\lvgl\version_6.1.2\lvgl\src\lv_objx/lv_ta.c **** lv_obj_t * lv_ta_create(lv_obj_t * par, const lv_obj_t * copy)
  85:..\..\..\lvgl\version_6.1.2\lvgl\src\lv_objx/lv_ta.c **** {
 493              		.loc 7 85 0
 494              		.cfi_startproc
 495              		@ args = 0, pretend = 0, frame = 64
 496              		@ frame_needed = 1, uses_anonymous_args = 0
 497 0000 80B5     		push	{r7, lr}
ARM GAS  C:\Users\tmj32\AppData\Local\Temp\ccI3WYuM.s 			page 33


 498              		.cfi_def_cfa_offset 8
 499              		.cfi_offset 7, -8
 500              		.cfi_offset 14, -4
 501 0002 90B0     		sub	sp, sp, #64
 502              		.cfi_def_cfa_offset 72
 503 0004 00AF     		add	r7, sp, #0
 504              		.cfi_def_cfa_register 7
 505 0006 7860     		str	r0, [r7, #4]
 506 0008 3960     		str	r1, [r7]
  86:..\..\..\lvgl\version_6.1.2\lvgl\src\lv_objx/lv_ta.c ****     LV_LOG_TRACE("text area create started");
  87:..\..\..\lvgl\version_6.1.2\lvgl\src\lv_objx/lv_ta.c **** 
  88:..\..\..\lvgl\version_6.1.2\lvgl\src\lv_objx/lv_ta.c ****     /*Create the ancestor object*/
  89:..\..\..\lvgl\version_6.1.2\lvgl\src\lv_objx/lv_ta.c ****     lv_obj_t * new_ta = lv_page_create(par, copy);
 507              		.loc 7 89 0
 508 000a 3968     		ldr	r1, [r7]
 509 000c 7868     		ldr	r0, [r7, #4]
 510 000e FFF7FEFF 		bl	lv_page_create
 511 0012 F863     		str	r0, [r7, #60]
  90:..\..\..\lvgl\version_6.1.2\lvgl\src\lv_objx/lv_ta.c ****     LV_ASSERT_MEM(new_ta);
  91:..\..\..\lvgl\version_6.1.2\lvgl\src\lv_objx/lv_ta.c ****     if(new_ta == NULL) return NULL;
 512              		.loc 7 91 0
 513 0014 FB6B     		ldr	r3, [r7, #60]
 514 0016 002B     		cmp	r3, #0
 515 0018 01D1     		bne	.L18
 516              		.loc 7 91 0 is_stmt 0 discriminator 1
 517 001a 0023     		movs	r3, #0
 518 001c C4E1     		b	.L19
 519              	.L18:
  92:..\..\..\lvgl\version_6.1.2\lvgl\src\lv_objx/lv_ta.c **** 
  93:..\..\..\lvgl\version_6.1.2\lvgl\src\lv_objx/lv_ta.c ****     if(ancestor_signal == NULL) ancestor_signal = lv_obj_get_signal_cb(new_ta);
 520              		.loc 7 93 0 is_stmt 1
 521 001e B04B     		ldr	r3, .L36
 522 0020 1B68     		ldr	r3, [r3]
 523 0022 002B     		cmp	r3, #0
 524 0024 05D1     		bne	.L20
 525              		.loc 7 93 0 is_stmt 0 discriminator 1
 526 0026 F86B     		ldr	r0, [r7, #60]
 527 0028 FFF7FEFF 		bl	lv_obj_get_signal_cb
 528 002c 0246     		mov	r2, r0
 529 002e AC4B     		ldr	r3, .L36
 530 0030 1A60     		str	r2, [r3]
 531              	.L20:
  94:..\..\..\lvgl\version_6.1.2\lvgl\src\lv_objx/lv_ta.c ****     if(ancestor_design == NULL) ancestor_design = lv_obj_get_design_cb(new_ta);
 532              		.loc 7 94 0 is_stmt 1
 533 0032 AC4B     		ldr	r3, .L36+4
 534 0034 1B68     		ldr	r3, [r3]
 535 0036 002B     		cmp	r3, #0
 536 0038 05D1     		bne	.L21
 537              		.loc 7 94 0 is_stmt 0 discriminator 1
 538 003a F86B     		ldr	r0, [r7, #60]
 539 003c FFF7FEFF 		bl	lv_obj_get_design_cb
 540 0040 0246     		mov	r2, r0
 541 0042 A84B     		ldr	r3, .L36+4
 542 0044 1A60     		str	r2, [r3]
 543              	.L21:
  95:..\..\..\lvgl\version_6.1.2\lvgl\src\lv_objx/lv_ta.c ****     if(scrl_signal == NULL) scrl_signal = lv_obj_get_signal_cb(lv_page_get_scrl(new_ta));
 544              		.loc 7 95 0 is_stmt 1
ARM GAS  C:\Users\tmj32\AppData\Local\Temp\ccI3WYuM.s 			page 34


 545 0046 A84B     		ldr	r3, .L36+8
 546 0048 1B68     		ldr	r3, [r3]
 547 004a 002B     		cmp	r3, #0
 548 004c 09D1     		bne	.L22
 549              		.loc 7 95 0 is_stmt 0 discriminator 1
 550 004e F86B     		ldr	r0, [r7, #60]
 551 0050 FFF7FEFF 		bl	lv_page_get_scrl
 552 0054 0346     		mov	r3, r0
 553 0056 1846     		mov	r0, r3
 554 0058 FFF7FEFF 		bl	lv_obj_get_signal_cb
 555 005c 0246     		mov	r2, r0
 556 005e A24B     		ldr	r3, .L36+8
 557 0060 1A60     		str	r2, [r3]
 558              	.L22:
  96:..\..\..\lvgl\version_6.1.2\lvgl\src\lv_objx/lv_ta.c ****     if(scrl_design == NULL) scrl_design = lv_obj_get_design_cb(lv_page_get_scrl(new_ta));
 559              		.loc 7 96 0 is_stmt 1
 560 0062 A24B     		ldr	r3, .L36+12
 561 0064 1B68     		ldr	r3, [r3]
 562 0066 002B     		cmp	r3, #0
 563 0068 09D1     		bne	.L23
 564              		.loc 7 96 0 is_stmt 0 discriminator 1
 565 006a F86B     		ldr	r0, [r7, #60]
 566 006c FFF7FEFF 		bl	lv_page_get_scrl
 567 0070 0346     		mov	r3, r0
 568 0072 1846     		mov	r0, r3
 569 0074 FFF7FEFF 		bl	lv_obj_get_design_cb
 570 0078 0246     		mov	r2, r0
 571 007a 9C4B     		ldr	r3, .L36+12
 572 007c 1A60     		str	r2, [r3]
 573              	.L23:
  97:..\..\..\lvgl\version_6.1.2\lvgl\src\lv_objx/lv_ta.c **** 
  98:..\..\..\lvgl\version_6.1.2\lvgl\src\lv_objx/lv_ta.c ****     /*Allocate the object type specific extended data*/
  99:..\..\..\lvgl\version_6.1.2\lvgl\src\lv_objx/lv_ta.c ****     lv_ta_ext_t * ext = lv_obj_allocate_ext_attr(new_ta, sizeof(lv_ta_ext_t));
 574              		.loc 7 99 0 is_stmt 1
 575 007e 6021     		movs	r1, #96
 576 0080 F86B     		ldr	r0, [r7, #60]
 577 0082 FFF7FEFF 		bl	lv_obj_allocate_ext_attr
 578 0086 B863     		str	r0, [r7, #56]
 100:..\..\..\lvgl\version_6.1.2\lvgl\src\lv_objx/lv_ta.c ****     LV_ASSERT_MEM(ext);
 101:..\..\..\lvgl\version_6.1.2\lvgl\src\lv_objx/lv_ta.c ****     if(ext == NULL) return NULL;
 579              		.loc 7 101 0
 580 0088 BB6B     		ldr	r3, [r7, #56]
 581 008a 002B     		cmp	r3, #0
 582 008c 01D1     		bne	.L24
 583              		.loc 7 101 0 is_stmt 0 discriminator 1
 584 008e 0023     		movs	r3, #0
 585 0090 8AE1     		b	.L19
 586              	.L24:
 102:..\..\..\lvgl\version_6.1.2\lvgl\src\lv_objx/lv_ta.c **** 
 103:..\..\..\lvgl\version_6.1.2\lvgl\src\lv_objx/lv_ta.c ****     ext->cursor.state      = 1;
 587              		.loc 7 103 0 is_stmt 1
 588 0092 BA6B     		ldr	r2, [r7, #56]
 589 0094 92F85830 		ldrb	r3, [r2, #88]
 590 0098 43F01003 		orr	r3, r3, #16
 591 009c 82F85830 		strb	r3, [r2, #88]
 104:..\..\..\lvgl\version_6.1.2\lvgl\src\lv_objx/lv_ta.c ****     ext->pwd_mode          = 0;
 592              		.loc 7 104 0
ARM GAS  C:\Users\tmj32\AppData\Local\Temp\ccI3WYuM.s 			page 35


 593 00a0 BA6B     		ldr	r2, [r7, #56]
 594 00a2 92F85C30 		ldrb	r3, [r2, #92]
 595 00a6 6FF30003 		bfc	r3, #0, #1
 596 00aa 82F85C30 		strb	r3, [r2, #92]
 105:..\..\..\lvgl\version_6.1.2\lvgl\src\lv_objx/lv_ta.c ****     ext->pwd_tmp           = NULL;
 597              		.loc 7 105 0
 598 00ae BB6B     		ldr	r3, [r7, #56]
 599 00b0 0022     		movs	r2, #0
 600 00b2 9A63     		str	r2, [r3, #56]
 106:..\..\..\lvgl\version_6.1.2\lvgl\src\lv_objx/lv_ta.c ****     ext->pwd_show_time     = LV_TA_DEF_PWD_SHOW_TIME;
 601              		.loc 7 106 0
 602 00b4 BB6B     		ldr	r3, [r7, #56]
 603 00b6 40F2DC52 		movw	r2, #1500
 604 00ba A3F84220 		strh	r2, [r3, #66]	@ movhi
 107:..\..\..\lvgl\version_6.1.2\lvgl\src\lv_objx/lv_ta.c ****     ext->accapted_chars    = NULL;
 605              		.loc 7 107 0
 606 00be BB6B     		ldr	r3, [r7, #56]
 607 00c0 0022     		movs	r2, #0
 608 00c2 DA63     		str	r2, [r3, #60]
 108:..\..\..\lvgl\version_6.1.2\lvgl\src\lv_objx/lv_ta.c ****     ext->max_length        = 0;
 609              		.loc 7 108 0
 610 00c4 BB6B     		ldr	r3, [r7, #56]
 611 00c6 0022     		movs	r2, #0
 612 00c8 A3F84020 		strh	r2, [r3, #64]	@ movhi
 109:..\..\..\lvgl\version_6.1.2\lvgl\src\lv_objx/lv_ta.c ****     ext->cursor.style      = NULL;
 613              		.loc 7 109 0
 614 00cc BB6B     		ldr	r3, [r7, #56]
 615 00ce 0022     		movs	r2, #0
 616 00d0 5A64     		str	r2, [r3, #68]
 110:..\..\..\lvgl\version_6.1.2\lvgl\src\lv_objx/lv_ta.c ****     ext->cursor.blink_time = LV_TA_DEF_CURSOR_BLINK_TIME;
 617              		.loc 7 110 0
 618 00d2 BB6B     		ldr	r3, [r7, #56]
 619 00d4 4FF4C872 		mov	r2, #400
 620 00d8 A3F84C20 		strh	r2, [r3, #76]	@ movhi
 111:..\..\..\lvgl\version_6.1.2\lvgl\src\lv_objx/lv_ta.c ****     ext->cursor.pos        = 0;
 621              		.loc 7 111 0
 622 00dc BB6B     		ldr	r3, [r7, #56]
 623 00de 0022     		movs	r2, #0
 624 00e0 A3F84A20 		strh	r2, [r3, #74]	@ movhi
 112:..\..\..\lvgl\version_6.1.2\lvgl\src\lv_objx/lv_ta.c ****     ext->cursor.click_pos  = 1;
 625              		.loc 7 112 0
 626 00e4 BA6B     		ldr	r2, [r7, #56]
 627 00e6 92F85830 		ldrb	r3, [r2, #88]
 628 00ea 43F02003 		orr	r3, r3, #32
 629 00ee 82F85830 		strb	r3, [r2, #88]
 113:..\..\..\lvgl\version_6.1.2\lvgl\src\lv_objx/lv_ta.c ****     ext->cursor.type       = LV_CURSOR_LINE;
 630              		.loc 7 113 0
 631 00f2 BA6B     		ldr	r2, [r7, #56]
 632 00f4 92F85830 		ldrb	r3, [r2, #88]
 633 00f8 0121     		movs	r1, #1
 634 00fa 61F30303 		bfi	r3, r1, #0, #4
 635 00fe 82F85830 		strb	r3, [r2, #88]
 114:..\..\..\lvgl\version_6.1.2\lvgl\src\lv_objx/lv_ta.c ****     ext->cursor.valid_x    = 0;
 636              		.loc 7 114 0
 637 0102 BB6B     		ldr	r3, [r7, #56]
 638 0104 0022     		movs	r2, #0
 639 0106 A3F84820 		strh	r2, [r3, #72]	@ movhi
ARM GAS  C:\Users\tmj32\AppData\Local\Temp\ccI3WYuM.s 			page 36


 115:..\..\..\lvgl\version_6.1.2\lvgl\src\lv_objx/lv_ta.c ****     ext->one_line          = 0;
 640              		.loc 7 115 0
 641 010a BA6B     		ldr	r2, [r7, #56]
 642 010c 92F85C30 		ldrb	r3, [r2, #92]
 643 0110 6FF34103 		bfc	r3, #1, #1
 644 0114 82F85C30 		strb	r3, [r2, #92]
 116:..\..\..\lvgl\version_6.1.2\lvgl\src\lv_objx/lv_ta.c **** #if LV_LABEL_TEXT_SEL
 117:..\..\..\lvgl\version_6.1.2\lvgl\src\lv_objx/lv_ta.c ****     ext->text_sel_en = 0;
 118:..\..\..\lvgl\version_6.1.2\lvgl\src\lv_objx/lv_ta.c **** #endif
 119:..\..\..\lvgl\version_6.1.2\lvgl\src\lv_objx/lv_ta.c ****     ext->label       = NULL;
 645              		.loc 7 119 0
 646 0118 BB6B     		ldr	r3, [r7, #56]
 647 011a 0022     		movs	r2, #0
 648 011c 1A63     		str	r2, [r3, #48]
 120:..\..\..\lvgl\version_6.1.2\lvgl\src\lv_objx/lv_ta.c ****     ext->placeholder = NULL;
 649              		.loc 7 120 0
 650 011e BB6B     		ldr	r3, [r7, #56]
 651 0120 0022     		movs	r2, #0
 652 0122 5A63     		str	r2, [r3, #52]
 121:..\..\..\lvgl\version_6.1.2\lvgl\src\lv_objx/lv_ta.c **** 
 122:..\..\..\lvgl\version_6.1.2\lvgl\src\lv_objx/lv_ta.c **** #if LV_USE_ANIMATION == 0
 123:..\..\..\lvgl\version_6.1.2\lvgl\src\lv_objx/lv_ta.c ****     ext->pwd_show_time     = 0;
 124:..\..\..\lvgl\version_6.1.2\lvgl\src\lv_objx/lv_ta.c ****     ext->cursor.blink_time = 0;
 125:..\..\..\lvgl\version_6.1.2\lvgl\src\lv_objx/lv_ta.c **** #endif
 126:..\..\..\lvgl\version_6.1.2\lvgl\src\lv_objx/lv_ta.c **** 
 127:..\..\..\lvgl\version_6.1.2\lvgl\src\lv_objx/lv_ta.c ****     lv_obj_set_signal_cb(new_ta, lv_ta_signal);
 653              		.loc 7 127 0
 654 0124 7249     		ldr	r1, .L36+16
 655 0126 F86B     		ldr	r0, [r7, #60]
 656 0128 FFF7FEFF 		bl	lv_obj_set_signal_cb
 128:..\..\..\lvgl\version_6.1.2\lvgl\src\lv_objx/lv_ta.c ****     lv_obj_set_signal_cb(lv_page_get_scrl(new_ta), lv_ta_scrollable_signal);
 657              		.loc 7 128 0
 658 012c F86B     		ldr	r0, [r7, #60]
 659 012e FFF7FEFF 		bl	lv_page_get_scrl
 660 0132 0346     		mov	r3, r0
 661 0134 6F49     		ldr	r1, .L36+20
 662 0136 1846     		mov	r0, r3
 663 0138 FFF7FEFF 		bl	lv_obj_set_signal_cb
 129:..\..\..\lvgl\version_6.1.2\lvgl\src\lv_objx/lv_ta.c ****     lv_obj_set_design_cb(new_ta, lv_ta_design);
 664              		.loc 7 129 0
 665 013c 6E49     		ldr	r1, .L36+24
 666 013e F86B     		ldr	r0, [r7, #60]
 667 0140 FFF7FEFF 		bl	lv_obj_set_design_cb
 130:..\..\..\lvgl\version_6.1.2\lvgl\src\lv_objx/lv_ta.c **** 
 131:..\..\..\lvgl\version_6.1.2\lvgl\src\lv_objx/lv_ta.c ****     /*Init the new text area object*/
 132:..\..\..\lvgl\version_6.1.2\lvgl\src\lv_objx/lv_ta.c ****     if(copy == NULL) {
 668              		.loc 7 132 0
 669 0144 3B68     		ldr	r3, [r7]
 670 0146 002B     		cmp	r3, #0
 671 0148 4FD1     		bne	.L25
 672              	.LBB2:
 133:..\..\..\lvgl\version_6.1.2\lvgl\src\lv_objx/lv_ta.c ****         lv_page_set_scrl_fit2(new_ta, LV_FIT_FLOOD, LV_FIT_TIGHT);
 673              		.loc 7 133 0
 674 014a 0122     		movs	r2, #1
 675 014c 0221     		movs	r1, #2
 676 014e F86B     		ldr	r0, [r7, #60]
 677 0150 FFF7FEFF 		bl	lv_page_set_scrl_fit2
ARM GAS  C:\Users\tmj32\AppData\Local\Temp\ccI3WYuM.s 			page 37


 134:..\..\..\lvgl\version_6.1.2\lvgl\src\lv_objx/lv_ta.c **** 
 135:..\..\..\lvgl\version_6.1.2\lvgl\src\lv_objx/lv_ta.c ****         ext->label = lv_label_create(new_ta, NULL);
 678              		.loc 7 135 0
 679 0154 0021     		movs	r1, #0
 680 0156 F86B     		ldr	r0, [r7, #60]
 681 0158 FFF7FEFF 		bl	lv_label_create
 682 015c 0246     		mov	r2, r0
 683 015e BB6B     		ldr	r3, [r7, #56]
 684 0160 1A63     		str	r2, [r3, #48]
 136:..\..\..\lvgl\version_6.1.2\lvgl\src\lv_objx/lv_ta.c **** 
 137:..\..\..\lvgl\version_6.1.2\lvgl\src\lv_objx/lv_ta.c ****         lv_obj_set_design_cb(ext->page.scrl, lv_ta_scrollable_design);
 685              		.loc 7 137 0
 686 0162 BB6B     		ldr	r3, [r7, #56]
 687 0164 5B68     		ldr	r3, [r3, #4]
 688 0166 6549     		ldr	r1, .L36+28
 689 0168 1846     		mov	r0, r3
 690 016a FFF7FEFF 		bl	lv_obj_set_design_cb
 138:..\..\..\lvgl\version_6.1.2\lvgl\src\lv_objx/lv_ta.c **** 
 139:..\..\..\lvgl\version_6.1.2\lvgl\src\lv_objx/lv_ta.c ****         lv_label_set_long_mode(ext->label, LV_LABEL_LONG_BREAK);
 691              		.loc 7 139 0
 692 016e BB6B     		ldr	r3, [r7, #56]
 693 0170 1B6B     		ldr	r3, [r3, #48]
 694 0172 0121     		movs	r1, #1
 695 0174 1846     		mov	r0, r3
 696 0176 FFF7FEFF 		bl	lv_label_set_long_mode
 140:..\..\..\lvgl\version_6.1.2\lvgl\src\lv_objx/lv_ta.c ****         lv_label_set_text(ext->label, "Text area");
 697              		.loc 7 140 0
 698 017a BB6B     		ldr	r3, [r7, #56]
 699 017c 1B6B     		ldr	r3, [r3, #48]
 700 017e 6049     		ldr	r1, .L36+32
 701 0180 1846     		mov	r0, r3
 702 0182 FFF7FEFF 		bl	lv_label_set_text
 141:..\..\..\lvgl\version_6.1.2\lvgl\src\lv_objx/lv_ta.c ****         lv_obj_set_click(ext->label, false);
 703              		.loc 7 141 0
 704 0186 BB6B     		ldr	r3, [r7, #56]
 705 0188 1B6B     		ldr	r3, [r3, #48]
 706 018a 0021     		movs	r1, #0
 707 018c 1846     		mov	r0, r3
 708 018e FFF7FEFF 		bl	lv_obj_set_click
 142:..\..\..\lvgl\version_6.1.2\lvgl\src\lv_objx/lv_ta.c ****         lv_obj_set_size(new_ta, LV_TA_DEF_WIDTH, LV_TA_DEF_HEIGHT);
 709              		.loc 7 142 0
 710 0192 9622     		movs	r2, #150
 711 0194 4FF49671 		mov	r1, #300
 712 0198 F86B     		ldr	r0, [r7, #60]
 713 019a FFF7FEFF 		bl	lv_obj_set_size
 143:..\..\..\lvgl\version_6.1.2\lvgl\src\lv_objx/lv_ta.c ****         lv_ta_set_sb_mode(new_ta, LV_SB_MODE_DRAG);
 714              		.loc 7 143 0
 715 019e 0221     		movs	r1, #2
 716 01a0 F86B     		ldr	r0, [r7, #60]
 717 01a2 FFF7FEFF 		bl	lv_ta_set_sb_mode
 144:..\..\..\lvgl\version_6.1.2\lvgl\src\lv_objx/lv_ta.c ****         lv_page_set_style(new_ta, LV_PAGE_STYLE_SCRL, &lv_style_transp_tight);
 718              		.loc 7 144 0
 719 01a6 574A     		ldr	r2, .L36+36
 720 01a8 0121     		movs	r1, #1
 721 01aa F86B     		ldr	r0, [r7, #60]
 722 01ac FFF7FEFF 		bl	lv_page_set_style
 145:..\..\..\lvgl\version_6.1.2\lvgl\src\lv_objx/lv_ta.c **** 
ARM GAS  C:\Users\tmj32\AppData\Local\Temp\ccI3WYuM.s 			page 38


 146:..\..\..\lvgl\version_6.1.2\lvgl\src\lv_objx/lv_ta.c ****         /*Set the default styles*/
 147:..\..\..\lvgl\version_6.1.2\lvgl\src\lv_objx/lv_ta.c ****         lv_theme_t * th = lv_theme_get_current();
 723              		.loc 7 147 0
 724 01b0 FFF7FEFF 		bl	lv_theme_get_current
 725 01b4 F862     		str	r0, [r7, #44]
 148:..\..\..\lvgl\version_6.1.2\lvgl\src\lv_objx/lv_ta.c ****         if(th) {
 726              		.loc 7 148 0
 727 01b6 FB6A     		ldr	r3, [r7, #44]
 728 01b8 002B     		cmp	r3, #0
 729 01ba 10D0     		beq	.L26
 149:..\..\..\lvgl\version_6.1.2\lvgl\src\lv_objx/lv_ta.c ****             lv_ta_set_style(new_ta, LV_TA_STYLE_BG, th->style.ta.area);
 730              		.loc 7 149 0
 731 01bc FB6A     		ldr	r3, [r7, #44]
 732 01be D3F81031 		ldr	r3, [r3, #272]
 733 01c2 1A46     		mov	r2, r3
 734 01c4 0021     		movs	r1, #0
 735 01c6 F86B     		ldr	r0, [r7, #60]
 736 01c8 FFF7FEFF 		bl	lv_ta_set_style
 150:..\..\..\lvgl\version_6.1.2\lvgl\src\lv_objx/lv_ta.c ****             lv_ta_set_style(new_ta, LV_TA_STYLE_SB, th->style.ta.sb);
 737              		.loc 7 150 0
 738 01cc FB6A     		ldr	r3, [r7, #44]
 739 01ce D3F81C31 		ldr	r3, [r3, #284]
 740 01d2 1A46     		mov	r2, r3
 741 01d4 0121     		movs	r1, #1
 742 01d6 F86B     		ldr	r0, [r7, #60]
 743 01d8 FFF7FEFF 		bl	lv_ta_set_style
 744 01dc B7E0     		b	.L28
 745              	.L26:
 151:..\..\..\lvgl\version_6.1.2\lvgl\src\lv_objx/lv_ta.c ****         } else {
 152:..\..\..\lvgl\version_6.1.2\lvgl\src\lv_objx/lv_ta.c ****             lv_ta_set_style(new_ta, LV_TA_STYLE_BG, &lv_style_pretty);
 746              		.loc 7 152 0
 747 01de 4A4A     		ldr	r2, .L36+40
 748 01e0 0021     		movs	r1, #0
 749 01e2 F86B     		ldr	r0, [r7, #60]
 750 01e4 FFF7FEFF 		bl	lv_ta_set_style
 751 01e8 B1E0     		b	.L28
 752              	.L25:
 753              	.LBE2:
 754              	.LBB3:
 153:..\..\..\lvgl\version_6.1.2\lvgl\src\lv_objx/lv_ta.c ****         }
 154:..\..\..\lvgl\version_6.1.2\lvgl\src\lv_objx/lv_ta.c ****     }
 155:..\..\..\lvgl\version_6.1.2\lvgl\src\lv_objx/lv_ta.c ****     /*Copy an existing object*/
 156:..\..\..\lvgl\version_6.1.2\lvgl\src\lv_objx/lv_ta.c ****     else {
 157:..\..\..\lvgl\version_6.1.2\lvgl\src\lv_objx/lv_ta.c ****         lv_obj_set_design_cb(ext->page.scrl, lv_ta_scrollable_design);
 755              		.loc 7 157 0
 756 01ea BB6B     		ldr	r3, [r7, #56]
 757 01ec 5B68     		ldr	r3, [r3, #4]
 758 01ee 4349     		ldr	r1, .L36+28
 759 01f0 1846     		mov	r0, r3
 760 01f2 FFF7FEFF 		bl	lv_obj_set_design_cb
 158:..\..\..\lvgl\version_6.1.2\lvgl\src\lv_objx/lv_ta.c ****         lv_ta_ext_t * copy_ext = lv_obj_get_ext_attr(copy);
 761              		.loc 7 158 0
 762 01f6 3868     		ldr	r0, [r7]
 763 01f8 FFF7FEFF 		bl	lv_obj_get_ext_attr
 764 01fc 7863     		str	r0, [r7, #52]
 159:..\..\..\lvgl\version_6.1.2\lvgl\src\lv_objx/lv_ta.c ****         ext->label             = lv_label_create(new_ta, copy_ext->label);
 765              		.loc 7 159 0
ARM GAS  C:\Users\tmj32\AppData\Local\Temp\ccI3WYuM.s 			page 39


 766 01fe 7B6B     		ldr	r3, [r7, #52]
 767 0200 1B6B     		ldr	r3, [r3, #48]
 768 0202 1946     		mov	r1, r3
 769 0204 F86B     		ldr	r0, [r7, #60]
 770 0206 FFF7FEFF 		bl	lv_label_create
 771 020a 0246     		mov	r2, r0
 772 020c BB6B     		ldr	r3, [r7, #56]
 773 020e 1A63     		str	r2, [r3, #48]
 160:..\..\..\lvgl\version_6.1.2\lvgl\src\lv_objx/lv_ta.c ****         ext->pwd_mode          = copy_ext->pwd_mode;
 774              		.loc 7 160 0
 775 0210 7B6B     		ldr	r3, [r7, #52]
 776 0212 93F85C30 		ldrb	r3, [r3, #92]
 777 0216 C3F30003 		ubfx	r3, r3, #0, #1
 778 021a D9B2     		uxtb	r1, r3
 779 021c BA6B     		ldr	r2, [r7, #56]
 780 021e 92F85C30 		ldrb	r3, [r2, #92]
 781 0222 61F30003 		bfi	r3, r1, #0, #1
 782 0226 82F85C30 		strb	r3, [r2, #92]
 161:..\..\..\lvgl\version_6.1.2\lvgl\src\lv_objx/lv_ta.c ****         ext->accapted_chars    = copy_ext->accapted_chars;
 783              		.loc 7 161 0
 784 022a 7B6B     		ldr	r3, [r7, #52]
 785 022c DA6B     		ldr	r2, [r3, #60]
 786 022e BB6B     		ldr	r3, [r7, #56]
 787 0230 DA63     		str	r2, [r3, #60]
 162:..\..\..\lvgl\version_6.1.2\lvgl\src\lv_objx/lv_ta.c ****         ext->max_length        = copy_ext->max_length;
 788              		.loc 7 162 0
 789 0232 7B6B     		ldr	r3, [r7, #52]
 790 0234 B3F84020 		ldrh	r2, [r3, #64]
 791 0238 BB6B     		ldr	r3, [r7, #56]
 792 023a A3F84020 		strh	r2, [r3, #64]	@ movhi
 163:..\..\..\lvgl\version_6.1.2\lvgl\src\lv_objx/lv_ta.c ****         ext->cursor.style      = copy_ext->cursor.style;
 793              		.loc 7 163 0
 794 023e 7B6B     		ldr	r3, [r7, #52]
 795 0240 5A6C     		ldr	r2, [r3, #68]
 796 0242 BB6B     		ldr	r3, [r7, #56]
 797 0244 5A64     		str	r2, [r3, #68]
 164:..\..\..\lvgl\version_6.1.2\lvgl\src\lv_objx/lv_ta.c ****         ext->cursor.pos        = copy_ext->cursor.pos;
 798              		.loc 7 164 0
 799 0246 7B6B     		ldr	r3, [r7, #52]
 800 0248 B3F84A20 		ldrh	r2, [r3, #74]
 801 024c BB6B     		ldr	r3, [r7, #56]
 802 024e A3F84A20 		strh	r2, [r3, #74]	@ movhi
 165:..\..\..\lvgl\version_6.1.2\lvgl\src\lv_objx/lv_ta.c ****         ext->cursor.valid_x    = copy_ext->cursor.valid_x;
 803              		.loc 7 165 0
 804 0252 7B6B     		ldr	r3, [r7, #52]
 805 0254 B3F94820 		ldrsh	r2, [r3, #72]
 806 0258 BB6B     		ldr	r3, [r7, #56]
 807 025a A3F84820 		strh	r2, [r3, #72]	@ movhi
 166:..\..\..\lvgl\version_6.1.2\lvgl\src\lv_objx/lv_ta.c ****         ext->cursor.type       = copy_ext->cursor.type;
 808              		.loc 7 166 0
 809 025e 7B6B     		ldr	r3, [r7, #52]
 810 0260 93F85830 		ldrb	r3, [r3, #88]
 811 0264 C3F30303 		ubfx	r3, r3, #0, #4
 812 0268 D9B2     		uxtb	r1, r3
 813 026a BA6B     		ldr	r2, [r7, #56]
 814 026c 92F85830 		ldrb	r3, [r2, #88]
 815 0270 61F30303 		bfi	r3, r1, #0, #4
ARM GAS  C:\Users\tmj32\AppData\Local\Temp\ccI3WYuM.s 			page 40


 816 0274 82F85830 		strb	r3, [r2, #88]
 167:..\..\..\lvgl\version_6.1.2\lvgl\src\lv_objx/lv_ta.c **** 
 168:..\..\..\lvgl\version_6.1.2\lvgl\src\lv_objx/lv_ta.c ****         if(ext->pwd_mode != 0) pwd_char_hider( new_ta);
 817              		.loc 7 168 0
 818 0278 BB6B     		ldr	r3, [r7, #56]
 819 027a 93F85C30 		ldrb	r3, [r3, #92]	@ zero_extendqisi2
 820 027e 03F00103 		and	r3, r3, #1
 821 0282 DBB2     		uxtb	r3, r3
 822 0284 002B     		cmp	r3, #0
 823 0286 02D0     		beq	.L29
 824              		.loc 7 168 0 is_stmt 0 discriminator 1
 825 0288 F86B     		ldr	r0, [r7, #60]
 826 028a FFF7FEFF 		bl	pwd_char_hider
 827              	.L29:
 169:..\..\..\lvgl\version_6.1.2\lvgl\src\lv_objx/lv_ta.c **** 
 170:..\..\..\lvgl\version_6.1.2\lvgl\src\lv_objx/lv_ta.c ****         if(copy_ext->placeholder != NULL)
 828              		.loc 7 170 0 is_stmt 1
 829 028e 7B6B     		ldr	r3, [r7, #52]
 830 0290 5B6B     		ldr	r3, [r3, #52]
 831 0292 002B     		cmp	r3, #0
 832 0294 09D0     		beq	.L30
 171:..\..\..\lvgl\version_6.1.2\lvgl\src\lv_objx/lv_ta.c ****             ext->placeholder = lv_label_create(new_ta, copy_ext->placeholder);
 833              		.loc 7 171 0
 834 0296 7B6B     		ldr	r3, [r7, #52]
 835 0298 5B6B     		ldr	r3, [r3, #52]
 836 029a 1946     		mov	r1, r3
 837 029c F86B     		ldr	r0, [r7, #60]
 838 029e FFF7FEFF 		bl	lv_label_create
 839 02a2 0246     		mov	r2, r0
 840 02a4 BB6B     		ldr	r3, [r7, #56]
 841 02a6 5A63     		str	r2, [r3, #52]
 842 02a8 02E0     		b	.L31
 843              	.L30:
 172:..\..\..\lvgl\version_6.1.2\lvgl\src\lv_objx/lv_ta.c ****         else
 173:..\..\..\lvgl\version_6.1.2\lvgl\src\lv_objx/lv_ta.c ****             ext->placeholder = NULL;
 844              		.loc 7 173 0
 845 02aa BB6B     		ldr	r3, [r7, #56]
 846 02ac 0022     		movs	r2, #0
 847 02ae 5A63     		str	r2, [r3, #52]
 848              	.L31:
 174:..\..\..\lvgl\version_6.1.2\lvgl\src\lv_objx/lv_ta.c **** 
 175:..\..\..\lvgl\version_6.1.2\lvgl\src\lv_objx/lv_ta.c ****         if(copy_ext->pwd_tmp) {
 849              		.loc 7 175 0
 850 02b0 7B6B     		ldr	r3, [r7, #52]
 851 02b2 9B6B     		ldr	r3, [r3, #56]
 852 02b4 002B     		cmp	r3, #0
 853 02b6 31D0     		beq	.L32
 854              	.LBB4:
 176:..\..\..\lvgl\version_6.1.2\lvgl\src\lv_objx/lv_ta.c ****             uint16_t len = lv_mem_get_size(copy_ext->pwd_tmp);
 855              		.loc 7 176 0
 856 02b8 7B6B     		ldr	r3, [r7, #52]
 857 02ba 9B6B     		ldr	r3, [r3, #56]
 858 02bc 1846     		mov	r0, r3
 859 02be FFF7FEFF 		bl	lv_mem_get_size
 860 02c2 0346     		mov	r3, r0
 861 02c4 7B86     		strh	r3, [r7, #50]	@ movhi
 177:..\..\..\lvgl\version_6.1.2\lvgl\src\lv_objx/lv_ta.c ****             ext->pwd_tmp = lv_mem_alloc(len);
ARM GAS  C:\Users\tmj32\AppData\Local\Temp\ccI3WYuM.s 			page 41


 862              		.loc 7 177 0
 863 02c6 7B8E     		ldrh	r3, [r7, #50]
 864 02c8 1846     		mov	r0, r3
 865 02ca FFF7FEFF 		bl	lv_mem_alloc
 866 02ce 0246     		mov	r2, r0
 867 02d0 BB6B     		ldr	r3, [r7, #56]
 868 02d2 9A63     		str	r2, [r3, #56]
 178:..\..\..\lvgl\version_6.1.2\lvgl\src\lv_objx/lv_ta.c ****             LV_ASSERT_MEM(ext->pwd_tmp);
 179:..\..\..\lvgl\version_6.1.2\lvgl\src\lv_objx/lv_ta.c ****             if(ext->pwd_tmp == NULL) return NULL;
 869              		.loc 7 179 0
 870 02d4 BB6B     		ldr	r3, [r7, #56]
 871 02d6 9B6B     		ldr	r3, [r3, #56]
 872 02d8 002B     		cmp	r3, #0
 873 02da 17D1     		bne	.L33
 874              		.loc 7 179 0 is_stmt 0 discriminator 1
 875 02dc 0023     		movs	r3, #0
 876 02de 63E0     		b	.L19
 877              	.L37:
 878              		.align	2
 879              	.L36:
 880 02e0 08000000 		.word	ancestor_signal
 881 02e4 00000000 		.word	ancestor_design
 882 02e8 0C000000 		.word	scrl_signal
 883 02ec 04000000 		.word	scrl_design
 884 02f0 00000000 		.word	lv_ta_signal
 885 02f4 00000000 		.word	lv_ta_scrollable_signal
 886 02f8 00000000 		.word	lv_ta_design
 887 02fc 00000000 		.word	lv_ta_scrollable_design
 888 0300 00000000 		.word	.LC0
 889 0304 00000000 		.word	lv_style_transp_tight
 890 0308 00000000 		.word	lv_style_pretty
 891              	.L33:
 180:..\..\..\lvgl\version_6.1.2\lvgl\src\lv_objx/lv_ta.c **** 
 181:..\..\..\lvgl\version_6.1.2\lvgl\src\lv_objx/lv_ta.c ****             memcpy(ext->pwd_tmp, copy_ext->pwd_tmp, len);
 892              		.loc 7 181 0 is_stmt 1
 893 030c BB6B     		ldr	r3, [r7, #56]
 894 030e 986B     		ldr	r0, [r3, #56]
 895 0310 7B6B     		ldr	r3, [r7, #52]
 896 0312 9B6B     		ldr	r3, [r3, #56]
 897 0314 7A8E     		ldrh	r2, [r7, #50]
 898 0316 1946     		mov	r1, r3
 899 0318 FFF7FEFF 		bl	memcpy
 900              	.L32:
 901              	.LBE4:
 182:..\..\..\lvgl\version_6.1.2\lvgl\src\lv_objx/lv_ta.c ****         }
 183:..\..\..\lvgl\version_6.1.2\lvgl\src\lv_objx/lv_ta.c **** 
 184:..\..\..\lvgl\version_6.1.2\lvgl\src\lv_objx/lv_ta.c ****         if(copy_ext->one_line) lv_ta_set_one_line(new_ta, true);
 902              		.loc 7 184 0
 903 031c 7B6B     		ldr	r3, [r7, #52]
 904 031e 93F85C30 		ldrb	r3, [r3, #92]	@ zero_extendqisi2
 905 0322 03F00203 		and	r3, r3, #2
 906 0326 DBB2     		uxtb	r3, r3
 907 0328 002B     		cmp	r3, #0
 908 032a 03D0     		beq	.L34
 909              		.loc 7 184 0 is_stmt 0 discriminator 1
 910 032c 0121     		movs	r1, #1
 911 032e F86B     		ldr	r0, [r7, #60]
ARM GAS  C:\Users\tmj32\AppData\Local\Temp\ccI3WYuM.s 			page 42


 912 0330 FFF7FEFF 		bl	lv_ta_set_one_line
 913              	.L34:
 185:..\..\..\lvgl\version_6.1.2\lvgl\src\lv_objx/lv_ta.c **** 
 186:..\..\..\lvgl\version_6.1.2\lvgl\src\lv_objx/lv_ta.c ****         lv_ta_set_style(new_ta, LV_TA_STYLE_CURSOR, lv_ta_get_style(copy, LV_TA_STYLE_CURSOR));
 914              		.loc 7 186 0 is_stmt 1
 915 0334 0221     		movs	r1, #2
 916 0336 3868     		ldr	r0, [r7]
 917 0338 FFF7FEFF 		bl	lv_ta_get_style
 918 033c 0346     		mov	r3, r0
 919 033e 1A46     		mov	r2, r3
 920 0340 0221     		movs	r1, #2
 921 0342 F86B     		ldr	r0, [r7, #60]
 922 0344 FFF7FEFF 		bl	lv_ta_set_style
 187:..\..\..\lvgl\version_6.1.2\lvgl\src\lv_objx/lv_ta.c **** 
 188:..\..\..\lvgl\version_6.1.2\lvgl\src\lv_objx/lv_ta.c ****         /*Refresh the style with new signal function*/
 189:..\..\..\lvgl\version_6.1.2\lvgl\src\lv_objx/lv_ta.c ****         lv_obj_refresh_style(new_ta);
 923              		.loc 7 189 0
 924 0348 F86B     		ldr	r0, [r7, #60]
 925 034a FFF7FEFF 		bl	lv_obj_refresh_style
 926              	.L28:
 927              	.LBE3:
 190:..\..\..\lvgl\version_6.1.2\lvgl\src\lv_objx/lv_ta.c ****     }
 191:..\..\..\lvgl\version_6.1.2\lvgl\src\lv_objx/lv_ta.c **** 
 192:..\..\..\lvgl\version_6.1.2\lvgl\src\lv_objx/lv_ta.c **** #if LV_USE_ANIMATION
 193:..\..\..\lvgl\version_6.1.2\lvgl\src\lv_objx/lv_ta.c ****     if(ext->cursor.blink_time) {
 928              		.loc 7 193 0
 929 034e BB6B     		ldr	r3, [r7, #56]
 930 0350 B3F84C30 		ldrh	r3, [r3, #76]
 931 0354 002B     		cmp	r3, #0
 932 0356 26D0     		beq	.L35
 933              	.LBB5:
 194:..\..\..\lvgl\version_6.1.2\lvgl\src\lv_objx/lv_ta.c ****         /*Create a cursor blinker animation*/
 195:..\..\..\lvgl\version_6.1.2\lvgl\src\lv_objx/lv_ta.c ****         lv_anim_t a;
 196:..\..\..\lvgl\version_6.1.2\lvgl\src\lv_objx/lv_ta.c ****         a.var            = new_ta;
 934              		.loc 7 196 0
 935 0358 FB6B     		ldr	r3, [r7, #60]
 936 035a BB60     		str	r3, [r7, #8]
 197:..\..\..\lvgl\version_6.1.2\lvgl\src\lv_objx/lv_ta.c ****         a.exec_cb        = (lv_anim_exec_xcb_t)cursor_blink_anim;
 937              		.loc 7 197 0
 938 035c 144B     		ldr	r3, .L38
 939 035e FB60     		str	r3, [r7, #12]
 198:..\..\..\lvgl\version_6.1.2\lvgl\src\lv_objx/lv_ta.c ****         a.time           = ext->cursor.blink_time;
 940              		.loc 7 198 0
 941 0360 BB6B     		ldr	r3, [r7, #56]
 942 0362 B3F84C30 		ldrh	r3, [r3, #76]
 943 0366 3B84     		strh	r3, [r7, #32]	@ movhi
 199:..\..\..\lvgl\version_6.1.2\lvgl\src\lv_objx/lv_ta.c ****         a.act_time       = 0;
 944              		.loc 7 199 0
 945 0368 0023     		movs	r3, #0
 946 036a 7B84     		strh	r3, [r7, #34]	@ movhi
 200:..\..\..\lvgl\version_6.1.2\lvgl\src\lv_objx/lv_ta.c ****         a.ready_cb       = NULL;
 947              		.loc 7 200 0
 948 036c 0023     		movs	r3, #0
 949 036e 7B61     		str	r3, [r7, #20]
 201:..\..\..\lvgl\version_6.1.2\lvgl\src\lv_objx/lv_ta.c ****         a.start          = 1;
 950              		.loc 7 201 0
 951 0370 0123     		movs	r3, #1
ARM GAS  C:\Users\tmj32\AppData\Local\Temp\ccI3WYuM.s 			page 43


 952 0372 BB61     		str	r3, [r7, #24]
 202:..\..\..\lvgl\version_6.1.2\lvgl\src\lv_objx/lv_ta.c ****         a.end            = 0;
 953              		.loc 7 202 0
 954 0374 0023     		movs	r3, #0
 955 0376 FB61     		str	r3, [r7, #28]
 203:..\..\..\lvgl\version_6.1.2\lvgl\src\lv_objx/lv_ta.c ****         a.repeat         = 1;
 956              		.loc 7 203 0
 957 0378 97F82830 		ldrb	r3, [r7, #40]
 958 037c 43F00203 		orr	r3, r3, #2
 959 0380 87F82830 		strb	r3, [r7, #40]
 204:..\..\..\lvgl\version_6.1.2\lvgl\src\lv_objx/lv_ta.c ****         a.repeat_pause   = 0;
 960              		.loc 7 204 0
 961 0384 0023     		movs	r3, #0
 962 0386 FB84     		strh	r3, [r7, #38]	@ movhi
 205:..\..\..\lvgl\version_6.1.2\lvgl\src\lv_objx/lv_ta.c ****         a.playback       = 1;
 963              		.loc 7 205 0
 964 0388 97F82830 		ldrb	r3, [r7, #40]
 965 038c 43F00103 		orr	r3, r3, #1
 966 0390 87F82830 		strb	r3, [r7, #40]
 206:..\..\..\lvgl\version_6.1.2\lvgl\src\lv_objx/lv_ta.c ****         a.playback_pause = 0;
 967              		.loc 7 206 0
 968 0394 0023     		movs	r3, #0
 969 0396 BB84     		strh	r3, [r7, #36]	@ movhi
 207:..\..\..\lvgl\version_6.1.2\lvgl\src\lv_objx/lv_ta.c ****         a.path_cb        = lv_anim_path_step;
 970              		.loc 7 207 0
 971 0398 064B     		ldr	r3, .L38+4
 972 039a 3B61     		str	r3, [r7, #16]
 208:..\..\..\lvgl\version_6.1.2\lvgl\src\lv_objx/lv_ta.c ****         lv_anim_create(&a);
 973              		.loc 7 208 0
 974 039c 07F10803 		add	r3, r7, #8
 975 03a0 1846     		mov	r0, r3
 976 03a2 FFF7FEFF 		bl	lv_anim_create
 977              	.L35:
 978              	.LBE5:
 209:..\..\..\lvgl\version_6.1.2\lvgl\src\lv_objx/lv_ta.c ****     }
 210:..\..\..\lvgl\version_6.1.2\lvgl\src\lv_objx/lv_ta.c **** #endif
 211:..\..\..\lvgl\version_6.1.2\lvgl\src\lv_objx/lv_ta.c **** 
 212:..\..\..\lvgl\version_6.1.2\lvgl\src\lv_objx/lv_ta.c ****     LV_LOG_INFO("text area created");
 213:..\..\..\lvgl\version_6.1.2\lvgl\src\lv_objx/lv_ta.c **** 
 214:..\..\..\lvgl\version_6.1.2\lvgl\src\lv_objx/lv_ta.c ****     return new_ta;
 979              		.loc 7 214 0
 980 03a6 FB6B     		ldr	r3, [r7, #60]
 981              	.L19:
 215:..\..\..\lvgl\version_6.1.2\lvgl\src\lv_objx/lv_ta.c **** }
 982              		.loc 7 215 0
 983 03a8 1846     		mov	r0, r3
 984 03aa 4037     		adds	r7, r7, #64
 985              		.cfi_def_cfa_offset 8
 986 03ac BD46     		mov	sp, r7
 987              		.cfi_def_cfa_register 13
 988              		@ sp needed
 989 03ae 80BD     		pop	{r7, pc}
 990              	.L39:
 991              		.align	2
 992              	.L38:
 993 03b0 00000000 		.word	cursor_blink_anim
 994 03b4 00000000 		.word	lv_anim_path_step
ARM GAS  C:\Users\tmj32\AppData\Local\Temp\ccI3WYuM.s 			page 44


 995              		.cfi_endproc
 996              	.LFE56:
 997              		.size	lv_ta_create, .-lv_ta_create
 998              		.section	.text.lv_ta_add_char,"ax",%progbits
 999              		.align	2
 1000              		.global	lv_ta_add_char
 1001              		.thumb
 1002              		.thumb_func
 1003              		.type	lv_ta_add_char, %function
 1004              	lv_ta_add_char:
 1005              	.LFB57:
 216:..\..\..\lvgl\version_6.1.2\lvgl\src\lv_objx/lv_ta.c **** 
 217:..\..\..\lvgl\version_6.1.2\lvgl\src\lv_objx/lv_ta.c **** /*======================
 218:..\..\..\lvgl\version_6.1.2\lvgl\src\lv_objx/lv_ta.c ****  * Add/remove functions
 219:..\..\..\lvgl\version_6.1.2\lvgl\src\lv_objx/lv_ta.c ****  *=====================*/
 220:..\..\..\lvgl\version_6.1.2\lvgl\src\lv_objx/lv_ta.c **** 
 221:..\..\..\lvgl\version_6.1.2\lvgl\src\lv_objx/lv_ta.c **** /**
 222:..\..\..\lvgl\version_6.1.2\lvgl\src\lv_objx/lv_ta.c ****  * Insert a character to the current cursor position.
 223:..\..\..\lvgl\version_6.1.2\lvgl\src\lv_objx/lv_ta.c ****  * To add a wide char, e.g. '' use `lv_txt_encoded_conv_wc('')`
 224:..\..\..\lvgl\version_6.1.2\lvgl\src\lv_objx/lv_ta.c ****  * @param ta pointer to a text area object
 225:..\..\..\lvgl\version_6.1.2\lvgl\src\lv_objx/lv_ta.c ****  * @param c a character (e.g. 'a')
 226:..\..\..\lvgl\version_6.1.2\lvgl\src\lv_objx/lv_ta.c ****  */
 227:..\..\..\lvgl\version_6.1.2\lvgl\src\lv_objx/lv_ta.c **** void lv_ta_add_char(lv_obj_t * ta, uint32_t c)
 228:..\..\..\lvgl\version_6.1.2\lvgl\src\lv_objx/lv_ta.c **** {
 1006              		.loc 7 228 0
 1007              		.cfi_startproc
 1008              		@ args = 0, pretend = 0, frame = 64
 1009              		@ frame_needed = 1, uses_anonymous_args = 0
 1010 0000 90B5     		push	{r4, r7, lr}
 1011              		.cfi_def_cfa_offset 12
 1012              		.cfi_offset 4, -12
 1013              		.cfi_offset 7, -8
 1014              		.cfi_offset 14, -4
 1015 0002 91B0     		sub	sp, sp, #68
 1016              		.cfi_def_cfa_offset 80
 1017 0004 00AF     		add	r7, sp, #0
 1018              		.cfi_def_cfa_register 7
 1019 0006 7860     		str	r0, [r7, #4]
 1020 0008 3960     		str	r1, [r7]
 229:..\..\..\lvgl\version_6.1.2\lvgl\src\lv_objx/lv_ta.c ****     LV_ASSERT_OBJ(ta, LV_OBJX_NAME);
 230:..\..\..\lvgl\version_6.1.2\lvgl\src\lv_objx/lv_ta.c **** 
 231:..\..\..\lvgl\version_6.1.2\lvgl\src\lv_objx/lv_ta.c ****     lv_ta_ext_t * ext = lv_obj_get_ext_attr(ta);
 1021              		.loc 7 231 0
 1022 000a 7868     		ldr	r0, [r7, #4]
 1023 000c FFF7FEFF 		bl	lv_obj_get_ext_attr
 1024 0010 F863     		str	r0, [r7, #60]
 232:..\..\..\lvgl\version_6.1.2\lvgl\src\lv_objx/lv_ta.c **** 
 233:..\..\..\lvgl\version_6.1.2\lvgl\src\lv_objx/lv_ta.c ****     uint32_t letter_buf[2];
 234:..\..\..\lvgl\version_6.1.2\lvgl\src\lv_objx/lv_ta.c ****     letter_buf[0] = c;
 1025              		.loc 7 234 0
 1026 0012 3B68     		ldr	r3, [r7]
 1027 0014 FB62     		str	r3, [r7, #44]
 235:..\..\..\lvgl\version_6.1.2\lvgl\src\lv_objx/lv_ta.c ****     letter_buf[1] = '\0';
 1028              		.loc 7 235 0
 1029 0016 0023     		movs	r3, #0
 1030 0018 3B63     		str	r3, [r7, #48]
 236:..\..\..\lvgl\version_6.1.2\lvgl\src\lv_objx/lv_ta.c **** 
ARM GAS  C:\Users\tmj32\AppData\Local\Temp\ccI3WYuM.s 			page 45


 237:..\..\..\lvgl\version_6.1.2\lvgl\src\lv_objx/lv_ta.c ****     ta_insert_replace = NULL;
 1031              		.loc 7 237 0
 1032 001a 6E4B     		ldr	r3, .L55
 1033 001c 0022     		movs	r2, #0
 1034 001e 1A60     		str	r2, [r3]
 238:..\..\..\lvgl\version_6.1.2\lvgl\src\lv_objx/lv_ta.c ****     lv_event_send(ta, LV_EVENT_INSERT, letter_buf);
 1035              		.loc 7 238 0
 1036 0020 07F12C03 		add	r3, r7, #44
 1037 0024 1A46     		mov	r2, r3
 1038 0026 0F21     		movs	r1, #15
 1039 0028 7868     		ldr	r0, [r7, #4]
 1040 002a FFF7FEFF 		bl	lv_event_send
 239:..\..\..\lvgl\version_6.1.2\lvgl\src\lv_objx/lv_ta.c ****     if(ta_insert_replace) {
 1041              		.loc 7 239 0
 1042 002e 694B     		ldr	r3, .L55
 1043 0030 1B68     		ldr	r3, [r3]
 1044 0032 002B     		cmp	r3, #0
 1045 0034 17D0     		beq	.L41
 240:..\..\..\lvgl\version_6.1.2\lvgl\src\lv_objx/lv_ta.c ****         if(ta_insert_replace[0] == '\0') return; /*Drop this text*/
 1046              		.loc 7 240 0
 1047 0036 674B     		ldr	r3, .L55
 1048 0038 1B68     		ldr	r3, [r3]
 1049 003a 1B78     		ldrb	r3, [r3]	@ zero_extendqisi2
 1050 003c 002B     		cmp	r3, #0
 1051 003e 00F0BF80 		beq	.L51
 241:..\..\..\lvgl\version_6.1.2\lvgl\src\lv_objx/lv_ta.c **** 
 242:..\..\..\lvgl\version_6.1.2\lvgl\src\lv_objx/lv_ta.c ****         /*Add the replaced text directly it's different from the original*/
 243:..\..\..\lvgl\version_6.1.2\lvgl\src\lv_objx/lv_ta.c ****         if(strcmp(ta_insert_replace, (char *)letter_buf)) {
 1052              		.loc 7 243 0
 1053 0042 644B     		ldr	r3, .L55
 1054 0044 1B68     		ldr	r3, [r3]
 1055 0046 07F12C02 		add	r2, r7, #44
 1056 004a 1146     		mov	r1, r2
 1057 004c 1846     		mov	r0, r3
 1058 004e FFF7FEFF 		bl	strcmp
 1059 0052 0346     		mov	r3, r0
 1060 0054 002B     		cmp	r3, #0
 1061 0056 06D0     		beq	.L41
 244:..\..\..\lvgl\version_6.1.2\lvgl\src\lv_objx/lv_ta.c ****             lv_ta_add_text(ta, ta_insert_replace);
 1062              		.loc 7 244 0
 1063 0058 5E4B     		ldr	r3, .L55
 1064 005a 1B68     		ldr	r3, [r3]
 1065 005c 1946     		mov	r1, r3
 1066 005e 7868     		ldr	r0, [r7, #4]
 1067 0060 FFF7FEFF 		bl	lv_ta_add_text
 245:..\..\..\lvgl\version_6.1.2\lvgl\src\lv_objx/lv_ta.c ****             return;
 1068              		.loc 7 245 0
 1069 0064 B3E0     		b	.L40
 1070              	.L41:
 246:..\..\..\lvgl\version_6.1.2\lvgl\src\lv_objx/lv_ta.c ****         }
 247:..\..\..\lvgl\version_6.1.2\lvgl\src\lv_objx/lv_ta.c ****     }
 248:..\..\..\lvgl\version_6.1.2\lvgl\src\lv_objx/lv_ta.c **** 
 249:..\..\..\lvgl\version_6.1.2\lvgl\src\lv_objx/lv_ta.c ****     if(ext->one_line && (c == '\n' || c == '\r')) {
 1071              		.loc 7 249 0
 1072 0066 FB6B     		ldr	r3, [r7, #60]
 1073 0068 93F85C30 		ldrb	r3, [r3, #92]	@ zero_extendqisi2
 1074 006c 03F00203 		and	r3, r3, #2
ARM GAS  C:\Users\tmj32\AppData\Local\Temp\ccI3WYuM.s 			page 46


 1075 0070 DBB2     		uxtb	r3, r3
 1076 0072 002B     		cmp	r3, #0
 1077 0074 07D0     		beq	.L44
 1078              		.loc 7 249 0 is_stmt 0 discriminator 1
 1079 0076 3B68     		ldr	r3, [r7]
 1080 0078 0A2B     		cmp	r3, #10
 1081 007a 00F0A380 		beq	.L52
 1082              		.loc 7 249 0 discriminator 2
 1083 007e 3B68     		ldr	r3, [r7]
 1084 0080 0D2B     		cmp	r3, #13
 1085 0082 00F09F80 		beq	.L52
 1086              	.L44:
 250:..\..\..\lvgl\version_6.1.2\lvgl\src\lv_objx/lv_ta.c ****         LV_LOG_INFO("Text area: line break ignored in one-line mode");
 251:..\..\..\lvgl\version_6.1.2\lvgl\src\lv_objx/lv_ta.c ****         return;
 252:..\..\..\lvgl\version_6.1.2\lvgl\src\lv_objx/lv_ta.c ****     }
 253:..\..\..\lvgl\version_6.1.2\lvgl\src\lv_objx/lv_ta.c **** 
 254:..\..\..\lvgl\version_6.1.2\lvgl\src\lv_objx/lv_ta.c ****     uint32_t c_uni = lv_txt_encoded_next((const char *)&c, NULL);
 1087              		.loc 7 254 0 is_stmt 1
 1088 0086 544B     		ldr	r3, .L55+4
 1089 0088 1B68     		ldr	r3, [r3]
 1090 008a 3A46     		mov	r2, r7
 1091 008c 0021     		movs	r1, #0
 1092 008e 1046     		mov	r0, r2
 1093 0090 9847     		blx	r3
 1094 0092 B863     		str	r0, [r7, #56]
 255:..\..\..\lvgl\version_6.1.2\lvgl\src\lv_objx/lv_ta.c **** 
 256:..\..\..\lvgl\version_6.1.2\lvgl\src\lv_objx/lv_ta.c ****     if(char_is_accepted(ta, c_uni) == false) {
 1095              		.loc 7 256 0
 1096 0094 B96B     		ldr	r1, [r7, #56]
 1097 0096 7868     		ldr	r0, [r7, #4]
 1098 0098 FFF7FEFF 		bl	char_is_accepted
 1099 009c 0346     		mov	r3, r0
 1100 009e 83F00103 		eor	r3, r3, #1
 1101 00a2 DBB2     		uxtb	r3, r3
 1102 00a4 002B     		cmp	r3, #0
 1103 00a6 40F08F80 		bne	.L53
 257:..\..\..\lvgl\version_6.1.2\lvgl\src\lv_objx/lv_ta.c ****         LV_LOG_INFO("Character is no accepted by the text area (too long text or not in the "
 258:..\..\..\lvgl\version_6.1.2\lvgl\src\lv_objx/lv_ta.c ****                     "accepted list)");
 259:..\..\..\lvgl\version_6.1.2\lvgl\src\lv_objx/lv_ta.c ****         return;
 260:..\..\..\lvgl\version_6.1.2\lvgl\src\lv_objx/lv_ta.c ****     }
 261:..\..\..\lvgl\version_6.1.2\lvgl\src\lv_objx/lv_ta.c **** 
 262:..\..\..\lvgl\version_6.1.2\lvgl\src\lv_objx/lv_ta.c ****     /*If a new line was added it shouldn't show edge flash effect*/
 263:..\..\..\lvgl\version_6.1.2\lvgl\src\lv_objx/lv_ta.c ****     bool edge_flash_en = lv_ta_get_edge_flash(ta);
 1104              		.loc 7 263 0
 1105 00aa 7868     		ldr	r0, [r7, #4]
 1106 00ac FFF7FEFF 		bl	lv_ta_get_edge_flash
 1107 00b0 0346     		mov	r3, r0
 1108 00b2 87F83730 		strb	r3, [r7, #55]
 264:..\..\..\lvgl\version_6.1.2\lvgl\src\lv_objx/lv_ta.c ****     lv_ta_set_edge_flash(ta, false);
 1109              		.loc 7 264 0
 1110 00b6 0021     		movs	r1, #0
 1111 00b8 7868     		ldr	r0, [r7, #4]
 1112 00ba FFF7FEFF 		bl	lv_ta_set_edge_flash
 265:..\..\..\lvgl\version_6.1.2\lvgl\src\lv_objx/lv_ta.c **** 
 266:..\..\..\lvgl\version_6.1.2\lvgl\src\lv_objx/lv_ta.c ****     if(ext->pwd_mode != 0) pwd_char_hider(ta); /*Make sure all the current text contains only '*'*/
 1113              		.loc 7 266 0
 1114 00be FB6B     		ldr	r3, [r7, #60]
ARM GAS  C:\Users\tmj32\AppData\Local\Temp\ccI3WYuM.s 			page 47


 1115 00c0 93F85C30 		ldrb	r3, [r3, #92]	@ zero_extendqisi2
 1116 00c4 03F00103 		and	r3, r3, #1
 1117 00c8 DBB2     		uxtb	r3, r3
 1118 00ca 002B     		cmp	r3, #0
 1119 00cc 02D0     		beq	.L47
 1120              		.loc 7 266 0 is_stmt 0 discriminator 1
 1121 00ce 7868     		ldr	r0, [r7, #4]
 1122 00d0 FFF7FEFF 		bl	pwd_char_hider
 1123              	.L47:
 267:..\..\..\lvgl\version_6.1.2\lvgl\src\lv_objx/lv_ta.c **** 
 268:..\..\..\lvgl\version_6.1.2\lvgl\src\lv_objx/lv_ta.c ****     lv_label_ins_text(ext->label, ext->cursor.pos, (const char *)letter_buf); /*Insert the characte
 1124              		.loc 7 268 0 is_stmt 1
 1125 00d4 FB6B     		ldr	r3, [r7, #60]
 1126 00d6 186B     		ldr	r0, [r3, #48]
 1127 00d8 FB6B     		ldr	r3, [r7, #60]
 1128 00da B3F84A30 		ldrh	r3, [r3, #74]
 1129 00de 1946     		mov	r1, r3
 1130 00e0 07F12C03 		add	r3, r7, #44
 1131 00e4 1A46     		mov	r2, r3
 1132 00e6 FFF7FEFF 		bl	lv_label_ins_text
 269:..\..\..\lvgl\version_6.1.2\lvgl\src\lv_objx/lv_ta.c ****     lv_ta_clear_selection(ta);                                                /*Clear selection*/
 1133              		.loc 7 269 0
 1134 00ea 7868     		ldr	r0, [r7, #4]
 1135 00ec FFF7FEFF 		bl	lv_ta_clear_selection
 270:..\..\..\lvgl\version_6.1.2\lvgl\src\lv_objx/lv_ta.c **** 
 271:..\..\..\lvgl\version_6.1.2\lvgl\src\lv_objx/lv_ta.c ****     if(ext->pwd_mode != 0) {
 1136              		.loc 7 271 0
 1137 00f0 FB6B     		ldr	r3, [r7, #60]
 1138 00f2 93F85C30 		ldrb	r3, [r3, #92]	@ zero_extendqisi2
 1139 00f6 03F00103 		and	r3, r3, #1
 1140 00fa DBB2     		uxtb	r3, r3
 1141 00fc 002B     		cmp	r3, #0
 1142 00fe 45D0     		beq	.L48
 1143              	.LBB6:
 272:..\..\..\lvgl\version_6.1.2\lvgl\src\lv_objx/lv_ta.c **** 
 273:..\..\..\lvgl\version_6.1.2\lvgl\src\lv_objx/lv_ta.c ****         ext->pwd_tmp = lv_mem_realloc(ext->pwd_tmp, strlen(ext->pwd_tmp) + 2); /*+2: the new char +
 1144              		.loc 7 273 0
 1145 0100 FB6B     		ldr	r3, [r7, #60]
 1146 0102 9C6B     		ldr	r4, [r3, #56]
 1147 0104 FB6B     		ldr	r3, [r7, #60]
 1148 0106 9B6B     		ldr	r3, [r3, #56]
 1149 0108 1846     		mov	r0, r3
 1150 010a FFF7FEFF 		bl	strlen
 1151 010e 0346     		mov	r3, r0
 1152 0110 0233     		adds	r3, r3, #2
 1153 0112 1946     		mov	r1, r3
 1154 0114 2046     		mov	r0, r4
 1155 0116 FFF7FEFF 		bl	lv_mem_realloc
 1156 011a 0246     		mov	r2, r0
 1157 011c FB6B     		ldr	r3, [r7, #60]
 1158 011e 9A63     		str	r2, [r3, #56]
 274:..\..\..\lvgl\version_6.1.2\lvgl\src\lv_objx/lv_ta.c ****         LV_ASSERT_MEM(ext->pwd_tmp);
 275:..\..\..\lvgl\version_6.1.2\lvgl\src\lv_objx/lv_ta.c ****         if(ext->pwd_tmp == NULL) return;
 1159              		.loc 7 275 0
 1160 0120 FB6B     		ldr	r3, [r7, #60]
 1161 0122 9B6B     		ldr	r3, [r3, #56]
 1162 0124 002B     		cmp	r3, #0
ARM GAS  C:\Users\tmj32\AppData\Local\Temp\ccI3WYuM.s 			page 48


 1163 0126 51D0     		beq	.L54
 276:..\..\..\lvgl\version_6.1.2\lvgl\src\lv_objx/lv_ta.c **** 
 277:..\..\..\lvgl\version_6.1.2\lvgl\src\lv_objx/lv_ta.c ****         lv_txt_ins(ext->pwd_tmp, ext->cursor.pos, (const char *)letter_buf);
 1164              		.loc 7 277 0
 1165 0128 FB6B     		ldr	r3, [r7, #60]
 1166 012a 986B     		ldr	r0, [r3, #56]
 1167 012c FB6B     		ldr	r3, [r7, #60]
 1168 012e B3F84A30 		ldrh	r3, [r3, #74]
 1169 0132 1946     		mov	r1, r3
 1170 0134 07F12C03 		add	r3, r7, #44
 1171 0138 1A46     		mov	r2, r3
 1172 013a FFF7FEFF 		bl	lv_txt_ins
 278:..\..\..\lvgl\version_6.1.2\lvgl\src\lv_objx/lv_ta.c **** 
 279:..\..\..\lvgl\version_6.1.2\lvgl\src\lv_objx/lv_ta.c **** #if LV_USE_ANIMATION
 280:..\..\..\lvgl\version_6.1.2\lvgl\src\lv_objx/lv_ta.c ****         /*Auto hide characters*/
 281:..\..\..\lvgl\version_6.1.2\lvgl\src\lv_objx/lv_ta.c ****         lv_anim_t a;
 282:..\..\..\lvgl\version_6.1.2\lvgl\src\lv_objx/lv_ta.c ****         a.var            = ta;
 1173              		.loc 7 282 0
 1174 013e 7B68     		ldr	r3, [r7, #4]
 1175 0140 BB60     		str	r3, [r7, #8]
 283:..\..\..\lvgl\version_6.1.2\lvgl\src\lv_objx/lv_ta.c ****         a.exec_cb        = (lv_anim_exec_xcb_t)pwd_char_hider_anim;
 1176              		.loc 7 283 0
 1177 0142 264B     		ldr	r3, .L55+8
 1178 0144 FB60     		str	r3, [r7, #12]
 284:..\..\..\lvgl\version_6.1.2\lvgl\src\lv_objx/lv_ta.c ****         a.time           = ext->pwd_show_time;
 1179              		.loc 7 284 0
 1180 0146 FB6B     		ldr	r3, [r7, #60]
 1181 0148 B3F84230 		ldrh	r3, [r3, #66]
 1182 014c 3B84     		strh	r3, [r7, #32]	@ movhi
 285:..\..\..\lvgl\version_6.1.2\lvgl\src\lv_objx/lv_ta.c ****         a.act_time       = 0;
 1183              		.loc 7 285 0
 1184 014e 0023     		movs	r3, #0
 1185 0150 7B84     		strh	r3, [r7, #34]	@ movhi
 286:..\..\..\lvgl\version_6.1.2\lvgl\src\lv_objx/lv_ta.c ****         a.ready_cb       = pwd_char_hider_anim_ready;
 1186              		.loc 7 286 0
 1187 0152 234B     		ldr	r3, .L55+12
 1188 0154 7B61     		str	r3, [r7, #20]
 287:..\..\..\lvgl\version_6.1.2\lvgl\src\lv_objx/lv_ta.c ****         a.start          = 0;
 1189              		.loc 7 287 0
 1190 0156 0023     		movs	r3, #0
 1191 0158 BB61     		str	r3, [r7, #24]
 288:..\..\..\lvgl\version_6.1.2\lvgl\src\lv_objx/lv_ta.c ****         a.end            = 1;
 1192              		.loc 7 288 0
 1193 015a 0123     		movs	r3, #1
 1194 015c FB61     		str	r3, [r7, #28]
 289:..\..\..\lvgl\version_6.1.2\lvgl\src\lv_objx/lv_ta.c ****         a.repeat         = 0;
 1195              		.loc 7 289 0
 1196 015e 97F82830 		ldrb	r3, [r7, #40]
 1197 0162 6FF34103 		bfc	r3, #1, #1
 1198 0166 87F82830 		strb	r3, [r7, #40]
 290:..\..\..\lvgl\version_6.1.2\lvgl\src\lv_objx/lv_ta.c ****         a.repeat_pause   = 0;
 1199              		.loc 7 290 0
 1200 016a 0023     		movs	r3, #0
 1201 016c FB84     		strh	r3, [r7, #38]	@ movhi
 291:..\..\..\lvgl\version_6.1.2\lvgl\src\lv_objx/lv_ta.c ****         a.playback       = 0;
 1202              		.loc 7 291 0
 1203 016e 97F82830 		ldrb	r3, [r7, #40]
ARM GAS  C:\Users\tmj32\AppData\Local\Temp\ccI3WYuM.s 			page 49


 1204 0172 6FF30003 		bfc	r3, #0, #1
 1205 0176 87F82830 		strb	r3, [r7, #40]
 292:..\..\..\lvgl\version_6.1.2\lvgl\src\lv_objx/lv_ta.c ****         a.playback_pause = 0;
 1206              		.loc 7 292 0
 1207 017a 0023     		movs	r3, #0
 1208 017c BB84     		strh	r3, [r7, #36]	@ movhi
 293:..\..\..\lvgl\version_6.1.2\lvgl\src\lv_objx/lv_ta.c ****         a.path_cb        = lv_anim_path_step;
 1209              		.loc 7 293 0
 1210 017e 194B     		ldr	r3, .L55+16
 1211 0180 3B61     		str	r3, [r7, #16]
 294:..\..\..\lvgl\version_6.1.2\lvgl\src\lv_objx/lv_ta.c ****         lv_anim_create(&a);
 1212              		.loc 7 294 0
 1213 0182 07F10803 		add	r3, r7, #8
 1214 0186 1846     		mov	r0, r3
 1215 0188 FFF7FEFF 		bl	lv_anim_create
 1216              	.L48:
 1217              	.LBE6:
 295:..\..\..\lvgl\version_6.1.2\lvgl\src\lv_objx/lv_ta.c **** 
 296:..\..\..\lvgl\version_6.1.2\lvgl\src\lv_objx/lv_ta.c **** #else
 297:..\..\..\lvgl\version_6.1.2\lvgl\src\lv_objx/lv_ta.c ****         pwd_char_hider(ta);
 298:..\..\..\lvgl\version_6.1.2\lvgl\src\lv_objx/lv_ta.c **** #endif
 299:..\..\..\lvgl\version_6.1.2\lvgl\src\lv_objx/lv_ta.c ****     }
 300:..\..\..\lvgl\version_6.1.2\lvgl\src\lv_objx/lv_ta.c **** 
 301:..\..\..\lvgl\version_6.1.2\lvgl\src\lv_objx/lv_ta.c ****     /*Move the cursor after the new character*/
 302:..\..\..\lvgl\version_6.1.2\lvgl\src\lv_objx/lv_ta.c ****     lv_ta_set_cursor_pos(ta, lv_ta_get_cursor_pos(ta) + 1);
 1218              		.loc 7 302 0 discriminator 1
 1219 018c 7868     		ldr	r0, [r7, #4]
 1220 018e FFF7FEFF 		bl	lv_ta_get_cursor_pos
 1221 0192 0346     		mov	r3, r0
 1222 0194 0133     		adds	r3, r3, #1
 1223 0196 9BB2     		uxth	r3, r3
 1224 0198 1BB2     		sxth	r3, r3
 1225 019a 1946     		mov	r1, r3
 1226 019c 7868     		ldr	r0, [r7, #4]
 1227 019e FFF7FEFF 		bl	lv_ta_set_cursor_pos
 303:..\..\..\lvgl\version_6.1.2\lvgl\src\lv_objx/lv_ta.c **** 
 304:..\..\..\lvgl\version_6.1.2\lvgl\src\lv_objx/lv_ta.c ****     /*Revert the original edge flash state*/
 305:..\..\..\lvgl\version_6.1.2\lvgl\src\lv_objx/lv_ta.c ****     lv_ta_set_edge_flash(ta, edge_flash_en);
 1228              		.loc 7 305 0 discriminator 1
 1229 01a2 97F83730 		ldrb	r3, [r7, #55]	@ zero_extendqisi2
 1230 01a6 1946     		mov	r1, r3
 1231 01a8 7868     		ldr	r0, [r7, #4]
 1232 01aa FFF7FEFF 		bl	lv_ta_set_edge_flash
 306:..\..\..\lvgl\version_6.1.2\lvgl\src\lv_objx/lv_ta.c **** 
 307:..\..\..\lvgl\version_6.1.2\lvgl\src\lv_objx/lv_ta.c ****     placeholder_update(ta);
 1233              		.loc 7 307 0 discriminator 1
 1234 01ae 7868     		ldr	r0, [r7, #4]
 1235 01b0 FFF7FEFF 		bl	placeholder_update
 308:..\..\..\lvgl\version_6.1.2\lvgl\src\lv_objx/lv_ta.c **** 
 309:..\..\..\lvgl\version_6.1.2\lvgl\src\lv_objx/lv_ta.c ****     lv_event_send(ta, LV_EVENT_VALUE_CHANGED, NULL);
 1236              		.loc 7 309 0 discriminator 1
 1237 01b4 0022     		movs	r2, #0
 1238 01b6 0E21     		movs	r1, #14
 1239 01b8 7868     		ldr	r0, [r7, #4]
 1240 01ba FFF7FEFF 		bl	lv_event_send
 1241 01be 06E0     		b	.L40
 1242              	.L51:
ARM GAS  C:\Users\tmj32\AppData\Local\Temp\ccI3WYuM.s 			page 50


 240:..\..\..\lvgl\version_6.1.2\lvgl\src\lv_objx/lv_ta.c **** 
 1243              		.loc 7 240 0
 1244 01c0 00BF     		nop
 1245 01c2 04E0     		b	.L40
 1246              	.L52:
 251:..\..\..\lvgl\version_6.1.2\lvgl\src\lv_objx/lv_ta.c ****     }
 1247              		.loc 7 251 0
 1248 01c4 00BF     		nop
 1249 01c6 02E0     		b	.L40
 1250              	.L53:
 259:..\..\..\lvgl\version_6.1.2\lvgl\src\lv_objx/lv_ta.c ****     }
 1251              		.loc 7 259 0
 1252 01c8 00BF     		nop
 1253 01ca 00E0     		b	.L40
 1254              	.L54:
 1255              	.LBB7:
 275:..\..\..\lvgl\version_6.1.2\lvgl\src\lv_objx/lv_ta.c **** 
 1256              		.loc 7 275 0
 1257 01cc 00BF     		nop
 1258              	.L40:
 1259              	.LBE7:
 310:..\..\..\lvgl\version_6.1.2\lvgl\src\lv_objx/lv_ta.c **** }
 1260              		.loc 7 310 0
 1261 01ce 4437     		adds	r7, r7, #68
 1262              		.cfi_def_cfa_offset 12
 1263 01d0 BD46     		mov	sp, r7
 1264              		.cfi_def_cfa_register 13
 1265              		@ sp needed
 1266 01d2 90BD     		pop	{r4, r7, pc}
 1267              	.L56:
 1268              		.align	2
 1269              	.L55:
 1270 01d4 10000000 		.word	ta_insert_replace
 1271 01d8 00000000 		.word	lv_txt_encoded_next
 1272 01dc 00000000 		.word	pwd_char_hider_anim
 1273 01e0 00000000 		.word	pwd_char_hider_anim_ready
 1274 01e4 00000000 		.word	lv_anim_path_step
 1275              		.cfi_endproc
 1276              	.LFE57:
 1277              		.size	lv_ta_add_char, .-lv_ta_add_char
 1278              		.section	.text.lv_ta_add_text,"ax",%progbits
 1279              		.align	2
 1280              		.global	lv_ta_add_text
 1281              		.thumb
 1282              		.thumb_func
 1283              		.type	lv_ta_add_text, %function
 1284              	lv_ta_add_text:
 1285              	.LFB58:
 311:..\..\..\lvgl\version_6.1.2\lvgl\src\lv_objx/lv_ta.c **** 
 312:..\..\..\lvgl\version_6.1.2\lvgl\src\lv_objx/lv_ta.c **** /**
 313:..\..\..\lvgl\version_6.1.2\lvgl\src\lv_objx/lv_ta.c ****  * Insert a text to the current cursor position
 314:..\..\..\lvgl\version_6.1.2\lvgl\src\lv_objx/lv_ta.c ****  * @param ta pointer to a text area object
 315:..\..\..\lvgl\version_6.1.2\lvgl\src\lv_objx/lv_ta.c ****  * @param txt a '\0' terminated string to insert
 316:..\..\..\lvgl\version_6.1.2\lvgl\src\lv_objx/lv_ta.c ****  */
 317:..\..\..\lvgl\version_6.1.2\lvgl\src\lv_objx/lv_ta.c **** void lv_ta_add_text(lv_obj_t * ta, const char * txt)
 318:..\..\..\lvgl\version_6.1.2\lvgl\src\lv_objx/lv_ta.c **** {
 1286              		.loc 7 318 0
ARM GAS  C:\Users\tmj32\AppData\Local\Temp\ccI3WYuM.s 			page 51


 1287              		.cfi_startproc
 1288              		@ args = 0, pretend = 0, frame = 64
 1289              		@ frame_needed = 1, uses_anonymous_args = 0
 1290 0000 B0B5     		push	{r4, r5, r7, lr}
 1291              		.cfi_def_cfa_offset 16
 1292              		.cfi_offset 4, -16
 1293              		.cfi_offset 5, -12
 1294              		.cfi_offset 7, -8
 1295              		.cfi_offset 14, -4
 1296 0002 90B0     		sub	sp, sp, #64
 1297              		.cfi_def_cfa_offset 80
 1298 0004 00AF     		add	r7, sp, #0
 1299              		.cfi_def_cfa_register 7
 1300 0006 7860     		str	r0, [r7, #4]
 1301 0008 3960     		str	r1, [r7]
 319:..\..\..\lvgl\version_6.1.2\lvgl\src\lv_objx/lv_ta.c ****     LV_ASSERT_OBJ(ta, LV_OBJX_NAME);
 320:..\..\..\lvgl\version_6.1.2\lvgl\src\lv_objx/lv_ta.c ****     LV_ASSERT_NULL(txt);
 321:..\..\..\lvgl\version_6.1.2\lvgl\src\lv_objx/lv_ta.c **** 
 322:..\..\..\lvgl\version_6.1.2\lvgl\src\lv_objx/lv_ta.c ****     lv_ta_ext_t * ext = lv_obj_get_ext_attr(ta);
 1302              		.loc 7 322 0
 1303 000a 7868     		ldr	r0, [r7, #4]
 1304 000c FFF7FEFF 		bl	lv_obj_get_ext_attr
 1305 0010 F863     		str	r0, [r7, #60]
 323:..\..\..\lvgl\version_6.1.2\lvgl\src\lv_objx/lv_ta.c **** 
 324:..\..\..\lvgl\version_6.1.2\lvgl\src\lv_objx/lv_ta.c ****     ta_insert_replace = NULL;
 1306              		.loc 7 324 0
 1307 0012 714B     		ldr	r3, .L70
 1308 0014 0022     		movs	r2, #0
 1309 0016 1A60     		str	r2, [r3]
 325:..\..\..\lvgl\version_6.1.2\lvgl\src\lv_objx/lv_ta.c ****     lv_event_send(ta, LV_EVENT_INSERT, txt);
 1310              		.loc 7 325 0
 1311 0018 3A68     		ldr	r2, [r7]
 1312 001a 0F21     		movs	r1, #15
 1313 001c 7868     		ldr	r0, [r7, #4]
 1314 001e FFF7FEFF 		bl	lv_event_send
 326:..\..\..\lvgl\version_6.1.2\lvgl\src\lv_objx/lv_ta.c ****     if(ta_insert_replace) {
 1315              		.loc 7 326 0
 1316 0022 6D4B     		ldr	r3, .L70
 1317 0024 1B68     		ldr	r3, [r3]
 1318 0026 002B     		cmp	r3, #0
 1319 0028 15D0     		beq	.L58
 327:..\..\..\lvgl\version_6.1.2\lvgl\src\lv_objx/lv_ta.c ****         if(ta_insert_replace[0] == '\0') return; /*Drop this text*/
 1320              		.loc 7 327 0
 1321 002a 6B4B     		ldr	r3, .L70
 1322 002c 1B68     		ldr	r3, [r3]
 1323 002e 1B78     		ldrb	r3, [r3]	@ zero_extendqisi2
 1324 0030 002B     		cmp	r3, #0
 1325 0032 00F0CB80 		beq	.L68
 328:..\..\..\lvgl\version_6.1.2\lvgl\src\lv_objx/lv_ta.c **** 
 329:..\..\..\lvgl\version_6.1.2\lvgl\src\lv_objx/lv_ta.c ****         /*Add the replaced text directly it's different from the original*/
 330:..\..\..\lvgl\version_6.1.2\lvgl\src\lv_objx/lv_ta.c ****         if(strcmp(ta_insert_replace, txt)) {
 1326              		.loc 7 330 0
 1327 0036 684B     		ldr	r3, .L70
 1328 0038 1B68     		ldr	r3, [r3]
 1329 003a 3968     		ldr	r1, [r7]
 1330 003c 1846     		mov	r0, r3
 1331 003e FFF7FEFF 		bl	strcmp
ARM GAS  C:\Users\tmj32\AppData\Local\Temp\ccI3WYuM.s 			page 52


 1332 0042 0346     		mov	r3, r0
 1333 0044 002B     		cmp	r3, #0
 1334 0046 06D0     		beq	.L58
 331:..\..\..\lvgl\version_6.1.2\lvgl\src\lv_objx/lv_ta.c ****             lv_ta_add_text(ta, ta_insert_replace);
 1335              		.loc 7 331 0
 1336 0048 634B     		ldr	r3, .L70
 1337 004a 1B68     		ldr	r3, [r3]
 1338 004c 1946     		mov	r1, r3
 1339 004e 7868     		ldr	r0, [r7, #4]
 1340 0050 FFF7FEFF 		bl	lv_ta_add_text
 332:..\..\..\lvgl\version_6.1.2\lvgl\src\lv_objx/lv_ta.c ****             return;
 1341              		.loc 7 332 0
 1342 0054 BDE0     		b	.L57
 1343              	.L58:
 333:..\..\..\lvgl\version_6.1.2\lvgl\src\lv_objx/lv_ta.c ****         }
 334:..\..\..\lvgl\version_6.1.2\lvgl\src\lv_objx/lv_ta.c ****     }
 335:..\..\..\lvgl\version_6.1.2\lvgl\src\lv_objx/lv_ta.c **** 
 336:..\..\..\lvgl\version_6.1.2\lvgl\src\lv_objx/lv_ta.c ****     if(ext->pwd_mode != 0) pwd_char_hider(ta); /*Make sure all the current text contains only '*'*/
 1344              		.loc 7 336 0
 1345 0056 FB6B     		ldr	r3, [r7, #60]
 1346 0058 93F85C30 		ldrb	r3, [r3, #92]	@ zero_extendqisi2
 1347 005c 03F00103 		and	r3, r3, #1
 1348 0060 DBB2     		uxtb	r3, r3
 1349 0062 002B     		cmp	r3, #0
 1350 0064 02D0     		beq	.L61
 1351              		.loc 7 336 0 is_stmt 0 discriminator 1
 1352 0066 7868     		ldr	r0, [r7, #4]
 1353 0068 FFF7FEFF 		bl	pwd_char_hider
 1354              	.L61:
 337:..\..\..\lvgl\version_6.1.2\lvgl\src\lv_objx/lv_ta.c **** 
 338:..\..\..\lvgl\version_6.1.2\lvgl\src\lv_objx/lv_ta.c ****     /*Add the character one-by-one if not all characters are accepted or there is character limit.*
 339:..\..\..\lvgl\version_6.1.2\lvgl\src\lv_objx/lv_ta.c ****     if(lv_ta_get_accepted_chars(ta) || lv_ta_get_max_length(ta)) {
 1355              		.loc 7 339 0 is_stmt 1
 1356 006c 7868     		ldr	r0, [r7, #4]
 1357 006e FFF7FEFF 		bl	lv_ta_get_accepted_chars
 1358 0072 0346     		mov	r3, r0
 1359 0074 002B     		cmp	r3, #0
 1360 0076 05D1     		bne	.L62
 1361              		.loc 7 339 0 is_stmt 0 discriminator 1
 1362 0078 7868     		ldr	r0, [r7, #4]
 1363 007a FFF7FEFF 		bl	lv_ta_get_max_length
 1364 007e 0346     		mov	r3, r0
 1365 0080 002B     		cmp	r3, #0
 1366 0082 1BD0     		beq	.L63
 1367              	.L62:
 1368              	.LBB8:
 340:..\..\..\lvgl\version_6.1.2\lvgl\src\lv_objx/lv_ta.c ****         uint32_t i = 0;
 1369              		.loc 7 340 0 is_stmt 1
 1370 0084 0023     		movs	r3, #0
 1371 0086 3B63     		str	r3, [r7, #48]
 341:..\..\..\lvgl\version_6.1.2\lvgl\src\lv_objx/lv_ta.c ****         while(txt[i] != '\0') {
 1372              		.loc 7 341 0
 1373 0088 10E0     		b	.L64
 1374              	.L65:
 1375              	.LBB9:
 342:..\..\..\lvgl\version_6.1.2\lvgl\src\lv_objx/lv_ta.c ****             uint32_t c = lv_txt_encoded_next(txt, &i);
 1376              		.loc 7 342 0
ARM GAS  C:\Users\tmj32\AppData\Local\Temp\ccI3WYuM.s 			page 53


 1377 008a 544B     		ldr	r3, .L70+4
 1378 008c 1B68     		ldr	r3, [r3]
 1379 008e 07F13002 		add	r2, r7, #48
 1380 0092 1146     		mov	r1, r2
 1381 0094 3868     		ldr	r0, [r7]
 1382 0096 9847     		blx	r3
 1383 0098 7863     		str	r0, [r7, #52]
 343:..\..\..\lvgl\version_6.1.2\lvgl\src\lv_objx/lv_ta.c ****             lv_ta_add_char(ta, lv_txt_unicode_to_encoded(c));
 1384              		.loc 7 343 0
 1385 009a 514B     		ldr	r3, .L70+8
 1386 009c 1B68     		ldr	r3, [r3]
 1387 009e 786B     		ldr	r0, [r7, #52]
 1388 00a0 9847     		blx	r3
 1389 00a2 0346     		mov	r3, r0
 1390 00a4 1946     		mov	r1, r3
 1391 00a6 7868     		ldr	r0, [r7, #4]
 1392 00a8 FFF7FEFF 		bl	lv_ta_add_char
 1393              	.L64:
 1394              	.LBE9:
 341:..\..\..\lvgl\version_6.1.2\lvgl\src\lv_objx/lv_ta.c ****         while(txt[i] != '\0') {
 1395              		.loc 7 341 0
 1396 00ac 3B6B     		ldr	r3, [r7, #48]
 1397 00ae 3A68     		ldr	r2, [r7]
 1398 00b0 1344     		add	r3, r3, r2
 1399 00b2 1B78     		ldrb	r3, [r3]	@ zero_extendqisi2
 1400 00b4 002B     		cmp	r3, #0
 1401 00b6 E8D1     		bne	.L65
 344:..\..\..\lvgl\version_6.1.2\lvgl\src\lv_objx/lv_ta.c ****         }
 345:..\..\..\lvgl\version_6.1.2\lvgl\src\lv_objx/lv_ta.c ****         return;
 1402              		.loc 7 345 0
 1403 00b8 00BF     		nop
 1404 00ba 8AE0     		b	.L57
 1405              	.L63:
 1406              	.LBE8:
 346:..\..\..\lvgl\version_6.1.2\lvgl\src\lv_objx/lv_ta.c ****     }
 347:..\..\..\lvgl\version_6.1.2\lvgl\src\lv_objx/lv_ta.c **** 
 348:..\..\..\lvgl\version_6.1.2\lvgl\src\lv_objx/lv_ta.c ****     /*If a new line was added it shouldn't show edge flash effect*/
 349:..\..\..\lvgl\version_6.1.2\lvgl\src\lv_objx/lv_ta.c ****     bool edge_flash_en = lv_ta_get_edge_flash(ta);
 1407              		.loc 7 349 0
 1408 00bc 7868     		ldr	r0, [r7, #4]
 1409 00be FFF7FEFF 		bl	lv_ta_get_edge_flash
 1410 00c2 0346     		mov	r3, r0
 1411 00c4 87F83B30 		strb	r3, [r7, #59]
 350:..\..\..\lvgl\version_6.1.2\lvgl\src\lv_objx/lv_ta.c ****     lv_ta_set_edge_flash(ta, false);
 1412              		.loc 7 350 0
 1413 00c8 0021     		movs	r1, #0
 1414 00ca 7868     		ldr	r0, [r7, #4]
 1415 00cc FFF7FEFF 		bl	lv_ta_set_edge_flash
 351:..\..\..\lvgl\version_6.1.2\lvgl\src\lv_objx/lv_ta.c **** 
 352:..\..\..\lvgl\version_6.1.2\lvgl\src\lv_objx/lv_ta.c ****     /*Insert the text*/
 353:..\..\..\lvgl\version_6.1.2\lvgl\src\lv_objx/lv_ta.c ****     lv_label_ins_text(ext->label, ext->cursor.pos, txt);
 1416              		.loc 7 353 0
 1417 00d0 FB6B     		ldr	r3, [r7, #60]
 1418 00d2 186B     		ldr	r0, [r3, #48]
 1419 00d4 FB6B     		ldr	r3, [r7, #60]
 1420 00d6 B3F84A30 		ldrh	r3, [r3, #74]
 1421 00da 3A68     		ldr	r2, [r7]
ARM GAS  C:\Users\tmj32\AppData\Local\Temp\ccI3WYuM.s 			page 54


 1422 00dc 1946     		mov	r1, r3
 1423 00de FFF7FEFF 		bl	lv_label_ins_text
 354:..\..\..\lvgl\version_6.1.2\lvgl\src\lv_objx/lv_ta.c ****     lv_ta_clear_selection(ta);
 1424              		.loc 7 354 0
 1425 00e2 7868     		ldr	r0, [r7, #4]
 1426 00e4 FFF7FEFF 		bl	lv_ta_clear_selection
 355:..\..\..\lvgl\version_6.1.2\lvgl\src\lv_objx/lv_ta.c **** 
 356:..\..\..\lvgl\version_6.1.2\lvgl\src\lv_objx/lv_ta.c ****     if(ext->pwd_mode != 0) {
 1427              		.loc 7 356 0
 1428 00e8 FB6B     		ldr	r3, [r7, #60]
 1429 00ea 93F85C30 		ldrb	r3, [r3, #92]	@ zero_extendqisi2
 1430 00ee 03F00103 		and	r3, r3, #1
 1431 00f2 DBB2     		uxtb	r3, r3
 1432 00f4 002B     		cmp	r3, #0
 1433 00f6 48D0     		beq	.L66
 1434              	.LBB10:
 357:..\..\..\lvgl\version_6.1.2\lvgl\src\lv_objx/lv_ta.c ****         ext->pwd_tmp = lv_mem_realloc(ext->pwd_tmp, strlen(ext->pwd_tmp) + strlen(txt) + 1);
 1435              		.loc 7 357 0
 1436 00f8 FB6B     		ldr	r3, [r7, #60]
 1437 00fa 9C6B     		ldr	r4, [r3, #56]
 1438 00fc FB6B     		ldr	r3, [r7, #60]
 1439 00fe 9B6B     		ldr	r3, [r3, #56]
 1440 0100 1846     		mov	r0, r3
 1441 0102 FFF7FEFF 		bl	strlen
 1442 0106 0546     		mov	r5, r0
 1443 0108 3868     		ldr	r0, [r7]
 1444 010a FFF7FEFF 		bl	strlen
 1445 010e 0346     		mov	r3, r0
 1446 0110 2B44     		add	r3, r3, r5
 1447 0112 0133     		adds	r3, r3, #1
 1448 0114 1946     		mov	r1, r3
 1449 0116 2046     		mov	r0, r4
 1450 0118 FFF7FEFF 		bl	lv_mem_realloc
 1451 011c 0246     		mov	r2, r0
 1452 011e FB6B     		ldr	r3, [r7, #60]
 1453 0120 9A63     		str	r2, [r3, #56]
 358:..\..\..\lvgl\version_6.1.2\lvgl\src\lv_objx/lv_ta.c ****         LV_ASSERT_MEM(ext->pwd_tmp);
 359:..\..\..\lvgl\version_6.1.2\lvgl\src\lv_objx/lv_ta.c ****         if(ext->pwd_tmp == NULL) return;
 1454              		.loc 7 359 0
 1455 0122 FB6B     		ldr	r3, [r7, #60]
 1456 0124 9B6B     		ldr	r3, [r3, #56]
 1457 0126 002B     		cmp	r3, #0
 1458 0128 52D0     		beq	.L69
 360:..\..\..\lvgl\version_6.1.2\lvgl\src\lv_objx/lv_ta.c **** 
 361:..\..\..\lvgl\version_6.1.2\lvgl\src\lv_objx/lv_ta.c ****         lv_txt_ins(ext->pwd_tmp, ext->cursor.pos, txt);
 1459              		.loc 7 361 0
 1460 012a FB6B     		ldr	r3, [r7, #60]
 1461 012c 986B     		ldr	r0, [r3, #56]
 1462 012e FB6B     		ldr	r3, [r7, #60]
 1463 0130 B3F84A30 		ldrh	r3, [r3, #74]
 1464 0134 3A68     		ldr	r2, [r7]
 1465 0136 1946     		mov	r1, r3
 1466 0138 FFF7FEFF 		bl	lv_txt_ins
 362:..\..\..\lvgl\version_6.1.2\lvgl\src\lv_objx/lv_ta.c **** 
 363:..\..\..\lvgl\version_6.1.2\lvgl\src\lv_objx/lv_ta.c **** #if LV_USE_ANIMATION
 364:..\..\..\lvgl\version_6.1.2\lvgl\src\lv_objx/lv_ta.c ****         /*Auto hide characters*/
 365:..\..\..\lvgl\version_6.1.2\lvgl\src\lv_objx/lv_ta.c ****         lv_anim_t a;
ARM GAS  C:\Users\tmj32\AppData\Local\Temp\ccI3WYuM.s 			page 55


 366:..\..\..\lvgl\version_6.1.2\lvgl\src\lv_objx/lv_ta.c ****         a.var            = ta;
 1467              		.loc 7 366 0
 1468 013c 7B68     		ldr	r3, [r7, #4]
 1469 013e FB60     		str	r3, [r7, #12]
 367:..\..\..\lvgl\version_6.1.2\lvgl\src\lv_objx/lv_ta.c ****         a.exec_cb        = (lv_anim_exec_xcb_t)pwd_char_hider_anim;
 1470              		.loc 7 367 0
 1471 0140 284B     		ldr	r3, .L70+12
 1472 0142 3B61     		str	r3, [r7, #16]
 368:..\..\..\lvgl\version_6.1.2\lvgl\src\lv_objx/lv_ta.c ****         a.time           = ext->pwd_show_time;
 1473              		.loc 7 368 0
 1474 0144 FB6B     		ldr	r3, [r7, #60]
 1475 0146 B3F84230 		ldrh	r3, [r3, #66]
 1476 014a BB84     		strh	r3, [r7, #36]	@ movhi
 369:..\..\..\lvgl\version_6.1.2\lvgl\src\lv_objx/lv_ta.c ****         a.act_time       = 0;
 1477              		.loc 7 369 0
 1478 014c 0023     		movs	r3, #0
 1479 014e FB84     		strh	r3, [r7, #38]	@ movhi
 370:..\..\..\lvgl\version_6.1.2\lvgl\src\lv_objx/lv_ta.c ****         a.ready_cb       = pwd_char_hider_anim_ready;
 1480              		.loc 7 370 0
 1481 0150 254B     		ldr	r3, .L70+16
 1482 0152 BB61     		str	r3, [r7, #24]
 371:..\..\..\lvgl\version_6.1.2\lvgl\src\lv_objx/lv_ta.c ****         a.start          = 0;
 1483              		.loc 7 371 0
 1484 0154 0023     		movs	r3, #0
 1485 0156 FB61     		str	r3, [r7, #28]
 372:..\..\..\lvgl\version_6.1.2\lvgl\src\lv_objx/lv_ta.c ****         a.end            = 1;
 1486              		.loc 7 372 0
 1487 0158 0123     		movs	r3, #1
 1488 015a 3B62     		str	r3, [r7, #32]
 373:..\..\..\lvgl\version_6.1.2\lvgl\src\lv_objx/lv_ta.c ****         a.repeat         = 0;
 1489              		.loc 7 373 0
 1490 015c 97F82C30 		ldrb	r3, [r7, #44]
 1491 0160 6FF34103 		bfc	r3, #1, #1
 1492 0164 87F82C30 		strb	r3, [r7, #44]
 374:..\..\..\lvgl\version_6.1.2\lvgl\src\lv_objx/lv_ta.c ****         a.repeat_pause   = 0;
 1493              		.loc 7 374 0
 1494 0168 0023     		movs	r3, #0
 1495 016a 7B85     		strh	r3, [r7, #42]	@ movhi
 375:..\..\..\lvgl\version_6.1.2\lvgl\src\lv_objx/lv_ta.c ****         a.playback       = 0;
 1496              		.loc 7 375 0
 1497 016c 97F82C30 		ldrb	r3, [r7, #44]
 1498 0170 6FF30003 		bfc	r3, #0, #1
 1499 0174 87F82C30 		strb	r3, [r7, #44]
 376:..\..\..\lvgl\version_6.1.2\lvgl\src\lv_objx/lv_ta.c ****         a.playback_pause = 0;
 1500              		.loc 7 376 0
 1501 0178 0023     		movs	r3, #0
 1502 017a 3B85     		strh	r3, [r7, #40]	@ movhi
 377:..\..\..\lvgl\version_6.1.2\lvgl\src\lv_objx/lv_ta.c ****         a.path_cb        = lv_anim_path_step;
 1503              		.loc 7 377 0
 1504 017c 1B4B     		ldr	r3, .L70+20
 1505 017e 7B61     		str	r3, [r7, #20]
 378:..\..\..\lvgl\version_6.1.2\lvgl\src\lv_objx/lv_ta.c ****         lv_anim_create(&a);
 1506              		.loc 7 378 0
 1507 0180 07F10C03 		add	r3, r7, #12
 1508 0184 1846     		mov	r0, r3
 1509 0186 FFF7FEFF 		bl	lv_anim_create
 1510              	.L66:
ARM GAS  C:\Users\tmj32\AppData\Local\Temp\ccI3WYuM.s 			page 56


 1511              	.LBE10:
 379:..\..\..\lvgl\version_6.1.2\lvgl\src\lv_objx/lv_ta.c **** #else
 380:..\..\..\lvgl\version_6.1.2\lvgl\src\lv_objx/lv_ta.c ****         pwd_char_hider(ta);
 381:..\..\..\lvgl\version_6.1.2\lvgl\src\lv_objx/lv_ta.c **** #endif
 382:..\..\..\lvgl\version_6.1.2\lvgl\src\lv_objx/lv_ta.c ****     }
 383:..\..\..\lvgl\version_6.1.2\lvgl\src\lv_objx/lv_ta.c **** 
 384:..\..\..\lvgl\version_6.1.2\lvgl\src\lv_objx/lv_ta.c ****     /*Move the cursor after the new text*/
 385:..\..\..\lvgl\version_6.1.2\lvgl\src\lv_objx/lv_ta.c ****     lv_ta_set_cursor_pos(ta, lv_ta_get_cursor_pos(ta) + lv_txt_get_encoded_length(txt));
 1512              		.loc 7 385 0
 1513 018a 7868     		ldr	r0, [r7, #4]
 1514 018c FFF7FEFF 		bl	lv_ta_get_cursor_pos
 1515 0190 0346     		mov	r3, r0
 1516 0192 1C46     		mov	r4, r3
 1517 0194 164B     		ldr	r3, .L70+24
 1518 0196 1B68     		ldr	r3, [r3]
 1519 0198 3868     		ldr	r0, [r7]
 1520 019a 9847     		blx	r3
 1521 019c 0346     		mov	r3, r0
 1522 019e 9BB2     		uxth	r3, r3
 1523 01a0 2344     		add	r3, r3, r4
 1524 01a2 9BB2     		uxth	r3, r3
 1525 01a4 1BB2     		sxth	r3, r3
 1526 01a6 1946     		mov	r1, r3
 1527 01a8 7868     		ldr	r0, [r7, #4]
 1528 01aa FFF7FEFF 		bl	lv_ta_set_cursor_pos
 386:..\..\..\lvgl\version_6.1.2\lvgl\src\lv_objx/lv_ta.c **** 
 387:..\..\..\lvgl\version_6.1.2\lvgl\src\lv_objx/lv_ta.c ****     /*Revert the original edge flash state*/
 388:..\..\..\lvgl\version_6.1.2\lvgl\src\lv_objx/lv_ta.c ****     lv_ta_set_edge_flash(ta, edge_flash_en);
 1529              		.loc 7 388 0
 1530 01ae 97F83B30 		ldrb	r3, [r7, #59]	@ zero_extendqisi2
 1531 01b2 1946     		mov	r1, r3
 1532 01b4 7868     		ldr	r0, [r7, #4]
 1533 01b6 FFF7FEFF 		bl	lv_ta_set_edge_flash
 389:..\..\..\lvgl\version_6.1.2\lvgl\src\lv_objx/lv_ta.c **** 
 390:..\..\..\lvgl\version_6.1.2\lvgl\src\lv_objx/lv_ta.c ****     placeholder_update(ta);
 1534              		.loc 7 390 0
 1535 01ba 7868     		ldr	r0, [r7, #4]
 1536 01bc FFF7FEFF 		bl	placeholder_update
 391:..\..\..\lvgl\version_6.1.2\lvgl\src\lv_objx/lv_ta.c **** 
 392:..\..\..\lvgl\version_6.1.2\lvgl\src\lv_objx/lv_ta.c ****     lv_event_send(ta, LV_EVENT_VALUE_CHANGED, NULL);
 1537              		.loc 7 392 0
 1538 01c0 0022     		movs	r2, #0
 1539 01c2 0E21     		movs	r1, #14
 1540 01c4 7868     		ldr	r0, [r7, #4]
 1541 01c6 FFF7FEFF 		bl	lv_event_send
 1542 01ca 02E0     		b	.L57
 1543              	.L68:
 327:..\..\..\lvgl\version_6.1.2\lvgl\src\lv_objx/lv_ta.c **** 
 1544              		.loc 7 327 0
 1545 01cc 00BF     		nop
 1546 01ce 00E0     		b	.L57
 1547              	.L69:
 1548              	.LBB11:
 359:..\..\..\lvgl\version_6.1.2\lvgl\src\lv_objx/lv_ta.c **** 
 1549              		.loc 7 359 0
 1550 01d0 00BF     		nop
 1551              	.L57:
ARM GAS  C:\Users\tmj32\AppData\Local\Temp\ccI3WYuM.s 			page 57


 1552              	.LBE11:
 393:..\..\..\lvgl\version_6.1.2\lvgl\src\lv_objx/lv_ta.c **** }
 1553              		.loc 7 393 0
 1554 01d2 4037     		adds	r7, r7, #64
 1555              		.cfi_def_cfa_offset 16
 1556 01d4 BD46     		mov	sp, r7
 1557              		.cfi_def_cfa_register 13
 1558              		@ sp needed
 1559 01d6 B0BD     		pop	{r4, r5, r7, pc}
 1560              	.L71:
 1561              		.align	2
 1562              	.L70:
 1563 01d8 10000000 		.word	ta_insert_replace
 1564 01dc 00000000 		.word	lv_txt_encoded_next
 1565 01e0 00000000 		.word	lv_txt_unicode_to_encoded
 1566 01e4 00000000 		.word	pwd_char_hider_anim
 1567 01e8 00000000 		.word	pwd_char_hider_anim_ready
 1568 01ec 00000000 		.word	lv_anim_path_step
 1569 01f0 00000000 		.word	lv_txt_get_encoded_length
 1570              		.cfi_endproc
 1571              	.LFE58:
 1572              		.size	lv_ta_add_text, .-lv_ta_add_text
 1573              		.section	.text.lv_ta_del_char,"ax",%progbits
 1574              		.align	2
 1575              		.global	lv_ta_del_char
 1576              		.thumb
 1577              		.thumb_func
 1578              		.type	lv_ta_del_char, %function
 1579              	lv_ta_del_char:
 1580              	.LFB59:
 394:..\..\..\lvgl\version_6.1.2\lvgl\src\lv_objx/lv_ta.c **** 
 395:..\..\..\lvgl\version_6.1.2\lvgl\src\lv_objx/lv_ta.c **** /**
 396:..\..\..\lvgl\version_6.1.2\lvgl\src\lv_objx/lv_ta.c ****  * Delete a the left character from the current cursor position
 397:..\..\..\lvgl\version_6.1.2\lvgl\src\lv_objx/lv_ta.c ****  * @param ta pointer to a text area object
 398:..\..\..\lvgl\version_6.1.2\lvgl\src\lv_objx/lv_ta.c ****  */
 399:..\..\..\lvgl\version_6.1.2\lvgl\src\lv_objx/lv_ta.c **** void lv_ta_del_char(lv_obj_t * ta)
 400:..\..\..\lvgl\version_6.1.2\lvgl\src\lv_objx/lv_ta.c **** {
 1581              		.loc 7 400 0
 1582              		.cfi_startproc
 1583              		@ args = 0, pretend = 0, frame = 32
 1584              		@ frame_needed = 1, uses_anonymous_args = 0
 1585 0000 B0B5     		push	{r4, r5, r7, lr}
 1586              		.cfi_def_cfa_offset 16
 1587              		.cfi_offset 4, -16
 1588              		.cfi_offset 5, -12
 1589              		.cfi_offset 7, -8
 1590              		.cfi_offset 14, -4
 1591 0002 88B0     		sub	sp, sp, #32
 1592              		.cfi_def_cfa_offset 48
 1593 0004 00AF     		add	r7, sp, #0
 1594              		.cfi_def_cfa_register 7
 1595 0006 7860     		str	r0, [r7, #4]
 401:..\..\..\lvgl\version_6.1.2\lvgl\src\lv_objx/lv_ta.c ****     LV_ASSERT_OBJ(ta, LV_OBJX_NAME);
 402:..\..\..\lvgl\version_6.1.2\lvgl\src\lv_objx/lv_ta.c **** 
 403:..\..\..\lvgl\version_6.1.2\lvgl\src\lv_objx/lv_ta.c ****     lv_ta_ext_t * ext = lv_obj_get_ext_attr(ta);
 1596              		.loc 7 403 0
 1597 0008 7868     		ldr	r0, [r7, #4]
ARM GAS  C:\Users\tmj32\AppData\Local\Temp\ccI3WYuM.s 			page 58


 1598 000a FFF7FEFF 		bl	lv_obj_get_ext_attr
 1599 000e F861     		str	r0, [r7, #28]
 404:..\..\..\lvgl\version_6.1.2\lvgl\src\lv_objx/lv_ta.c ****     uint16_t cur_pos  = ext->cursor.pos;
 1600              		.loc 7 404 0
 1601 0010 FB69     		ldr	r3, [r7, #28]
 1602 0012 B3F84A30 		ldrh	r3, [r3, #74]	@ movhi
 1603 0016 7B83     		strh	r3, [r7, #26]	@ movhi
 405:..\..\..\lvgl\version_6.1.2\lvgl\src\lv_objx/lv_ta.c **** 
 406:..\..\..\lvgl\version_6.1.2\lvgl\src\lv_objx/lv_ta.c ****     if(cur_pos == 0) return;
 1604              		.loc 7 406 0
 1605 0018 7B8B     		ldrh	r3, [r7, #26]
 1606 001a 002B     		cmp	r3, #0
 1607 001c 00F0A780 		beq	.L80
 407:..\..\..\lvgl\version_6.1.2\lvgl\src\lv_objx/lv_ta.c **** 
 408:..\..\..\lvgl\version_6.1.2\lvgl\src\lv_objx/lv_ta.c ****     ta_insert_replace = NULL;
 1608              		.loc 7 408 0
 1609 0020 574B     		ldr	r3, .L83
 1610 0022 0022     		movs	r2, #0
 1611 0024 1A60     		str	r2, [r3]
 409:..\..\..\lvgl\version_6.1.2\lvgl\src\lv_objx/lv_ta.c ****     char del_buf[2]   = {LV_KEY_DEL, '\0'};
 1612              		.loc 7 409 0
 1613 0026 7F23     		movs	r3, #127
 1614 0028 3B72     		strb	r3, [r7, #8]
 1615 002a 0023     		movs	r3, #0
 1616 002c 7B72     		strb	r3, [r7, #9]
 410:..\..\..\lvgl\version_6.1.2\lvgl\src\lv_objx/lv_ta.c ****     lv_event_send(ta, LV_EVENT_INSERT, del_buf);
 1617              		.loc 7 410 0
 1618 002e 07F10803 		add	r3, r7, #8
 1619 0032 1A46     		mov	r2, r3
 1620 0034 0F21     		movs	r1, #15
 1621 0036 7868     		ldr	r0, [r7, #4]
 1622 0038 FFF7FEFF 		bl	lv_event_send
 411:..\..\..\lvgl\version_6.1.2\lvgl\src\lv_objx/lv_ta.c ****     if(ta_insert_replace) {
 1623              		.loc 7 411 0
 1624 003c 504B     		ldr	r3, .L83
 1625 003e 1B68     		ldr	r3, [r3]
 1626 0040 002B     		cmp	r3, #0
 1627 0042 17D0     		beq	.L75
 412:..\..\..\lvgl\version_6.1.2\lvgl\src\lv_objx/lv_ta.c ****         if(ta_insert_replace[0] == '\0') return; /*Drop this text*/
 1628              		.loc 7 412 0
 1629 0044 4E4B     		ldr	r3, .L83
 1630 0046 1B68     		ldr	r3, [r3]
 1631 0048 1B78     		ldrb	r3, [r3]	@ zero_extendqisi2
 1632 004a 002B     		cmp	r3, #0
 1633 004c 00F09180 		beq	.L81
 413:..\..\..\lvgl\version_6.1.2\lvgl\src\lv_objx/lv_ta.c **** 
 414:..\..\..\lvgl\version_6.1.2\lvgl\src\lv_objx/lv_ta.c ****         /*Add the replaced text directly it's different from the original*/
 415:..\..\..\lvgl\version_6.1.2\lvgl\src\lv_objx/lv_ta.c ****         if(strcmp(ta_insert_replace, del_buf)) {
 1634              		.loc 7 415 0
 1635 0050 4B4B     		ldr	r3, .L83
 1636 0052 1B68     		ldr	r3, [r3]
 1637 0054 07F10802 		add	r2, r7, #8
 1638 0058 1146     		mov	r1, r2
 1639 005a 1846     		mov	r0, r3
 1640 005c FFF7FEFF 		bl	strcmp
 1641 0060 0346     		mov	r3, r0
 1642 0062 002B     		cmp	r3, #0
ARM GAS  C:\Users\tmj32\AppData\Local\Temp\ccI3WYuM.s 			page 59


 1643 0064 06D0     		beq	.L75
 416:..\..\..\lvgl\version_6.1.2\lvgl\src\lv_objx/lv_ta.c ****             lv_ta_add_text(ta, ta_insert_replace);
 1644              		.loc 7 416 0
 1645 0066 464B     		ldr	r3, .L83
 1646 0068 1B68     		ldr	r3, [r3]
 1647 006a 1946     		mov	r1, r3
 1648 006c 7868     		ldr	r0, [r7, #4]
 1649 006e FFF7FEFF 		bl	lv_ta_add_text
 417:..\..\..\lvgl\version_6.1.2\lvgl\src\lv_objx/lv_ta.c ****             return;
 1650              		.loc 7 417 0
 1651 0072 81E0     		b	.L72
 1652              	.L75:
 418:..\..\..\lvgl\version_6.1.2\lvgl\src\lv_objx/lv_ta.c ****         }
 419:..\..\..\lvgl\version_6.1.2\lvgl\src\lv_objx/lv_ta.c ****     }
 420:..\..\..\lvgl\version_6.1.2\lvgl\src\lv_objx/lv_ta.c **** 
 421:..\..\..\lvgl\version_6.1.2\lvgl\src\lv_objx/lv_ta.c ****     char * label_txt = lv_label_get_text(ext->label);
 1653              		.loc 7 421 0
 1654 0074 FB69     		ldr	r3, [r7, #28]
 1655 0076 1B6B     		ldr	r3, [r3, #48]
 1656 0078 1846     		mov	r0, r3
 1657 007a FFF7FEFF 		bl	lv_label_get_text
 1658 007e 7861     		str	r0, [r7, #20]
 422:..\..\..\lvgl\version_6.1.2\lvgl\src\lv_objx/lv_ta.c ****     /*Delete a character*/
 423:..\..\..\lvgl\version_6.1.2\lvgl\src\lv_objx/lv_ta.c ****     lv_txt_cut(label_txt, ext->cursor.pos - 1, 1);
 1659              		.loc 7 423 0
 1660 0080 FB69     		ldr	r3, [r7, #28]
 1661 0082 B3F84A30 		ldrh	r3, [r3, #74]
 1662 0086 013B     		subs	r3, r3, #1
 1663 0088 0122     		movs	r2, #1
 1664 008a 1946     		mov	r1, r3
 1665 008c 7869     		ldr	r0, [r7, #20]
 1666 008e FFF7FEFF 		bl	lv_txt_cut
 424:..\..\..\lvgl\version_6.1.2\lvgl\src\lv_objx/lv_ta.c ****     /*Refresh the label*/
 425:..\..\..\lvgl\version_6.1.2\lvgl\src\lv_objx/lv_ta.c ****     lv_label_set_text(ext->label, label_txt);
 1667              		.loc 7 425 0
 1668 0092 FB69     		ldr	r3, [r7, #28]
 1669 0094 1B6B     		ldr	r3, [r3, #48]
 1670 0096 7969     		ldr	r1, [r7, #20]
 1671 0098 1846     		mov	r0, r3
 1672 009a FFF7FEFF 		bl	lv_label_set_text
 426:..\..\..\lvgl\version_6.1.2\lvgl\src\lv_objx/lv_ta.c ****     lv_ta_clear_selection(ta);
 1673              		.loc 7 426 0
 1674 009e 7868     		ldr	r0, [r7, #4]
 1675 00a0 FFF7FEFF 		bl	lv_ta_clear_selection
 427:..\..\..\lvgl\version_6.1.2\lvgl\src\lv_objx/lv_ta.c **** 
 428:..\..\..\lvgl\version_6.1.2\lvgl\src\lv_objx/lv_ta.c ****     /*Don't let 'width == 0' because cursor will not be visible*/
 429:..\..\..\lvgl\version_6.1.2\lvgl\src\lv_objx/lv_ta.c ****     if(lv_obj_get_width(ext->label) == 0) {
 1676              		.loc 7 429 0
 1677 00a4 FB69     		ldr	r3, [r7, #28]
 1678 00a6 1B6B     		ldr	r3, [r3, #48]
 1679 00a8 1846     		mov	r0, r3
 1680 00aa FFF7FEFF 		bl	lv_obj_get_width
 1681 00ae 0346     		mov	r3, r0
 1682 00b0 002B     		cmp	r3, #0
 1683 00b2 0ED1     		bne	.L77
 1684              	.LBB12:
 430:..\..\..\lvgl\version_6.1.2\lvgl\src\lv_objx/lv_ta.c ****         const lv_style_t * style = lv_obj_get_style(ext->label);
ARM GAS  C:\Users\tmj32\AppData\Local\Temp\ccI3WYuM.s 			page 60


 1685              		.loc 7 430 0
 1686 00b4 FB69     		ldr	r3, [r7, #28]
 1687 00b6 1B6B     		ldr	r3, [r3, #48]
 1688 00b8 1846     		mov	r0, r3
 1689 00ba FFF7FEFF 		bl	lv_obj_get_style
 1690 00be 3861     		str	r0, [r7, #16]
 431:..\..\..\lvgl\version_6.1.2\lvgl\src\lv_objx/lv_ta.c ****         lv_obj_set_width(ext->label, style->line.width);
 1691              		.loc 7 431 0
 1692 00c0 FB69     		ldr	r3, [r7, #28]
 1693 00c2 1A6B     		ldr	r2, [r3, #48]
 1694 00c4 3B69     		ldr	r3, [r7, #16]
 1695 00c6 B3F94C30 		ldrsh	r3, [r3, #76]
 1696 00ca 1946     		mov	r1, r3
 1697 00cc 1046     		mov	r0, r2
 1698 00ce FFF7FEFF 		bl	lv_obj_set_width
 1699              	.L77:
 1700              	.LBE12:
 432:..\..\..\lvgl\version_6.1.2\lvgl\src\lv_objx/lv_ta.c ****     }
 433:..\..\..\lvgl\version_6.1.2\lvgl\src\lv_objx/lv_ta.c **** 
 434:..\..\..\lvgl\version_6.1.2\lvgl\src\lv_objx/lv_ta.c ****     if(ext->pwd_mode != 0) {
 1701              		.loc 7 434 0
 1702 00d2 FB69     		ldr	r3, [r7, #28]
 1703 00d4 93F85C30 		ldrb	r3, [r3, #92]	@ zero_extendqisi2
 1704 00d8 03F00103 		and	r3, r3, #1
 1705 00dc DBB2     		uxtb	r3, r3
 1706 00de 002B     		cmp	r3, #0
 1707 00e0 32D0     		beq	.L78
 1708              	.LBB13:
 435:..\..\..\lvgl\version_6.1.2\lvgl\src\lv_objx/lv_ta.c ****         uint32_t byte_pos = lv_txt_encoded_get_byte_id(ext->pwd_tmp, ext->cursor.pos - 1);
 1709              		.loc 7 435 0
 1710 00e2 284B     		ldr	r3, .L83+4
 1711 00e4 1B68     		ldr	r3, [r3]
 1712 00e6 FA69     		ldr	r2, [r7, #28]
 1713 00e8 906B     		ldr	r0, [r2, #56]
 1714 00ea FA69     		ldr	r2, [r7, #28]
 1715 00ec B2F84A20 		ldrh	r2, [r2, #74]
 1716 00f0 013A     		subs	r2, r2, #1
 1717 00f2 1146     		mov	r1, r2
 1718 00f4 9847     		blx	r3
 1719 00f6 F860     		str	r0, [r7, #12]
 436:..\..\..\lvgl\version_6.1.2\lvgl\src\lv_objx/lv_ta.c ****         lv_txt_cut(ext->pwd_tmp, ext->cursor.pos - 1, lv_txt_encoded_size(&label_txt[byte_pos]));
 1720              		.loc 7 436 0
 1721 00f8 FB69     		ldr	r3, [r7, #28]
 1722 00fa 9C6B     		ldr	r4, [r3, #56]
 1723 00fc FB69     		ldr	r3, [r7, #28]
 1724 00fe B3F84A30 		ldrh	r3, [r3, #74]
 1725 0102 013B     		subs	r3, r3, #1
 1726 0104 1D46     		mov	r5, r3
 1727 0106 204B     		ldr	r3, .L83+8
 1728 0108 1B68     		ldr	r3, [r3]
 1729 010a 7969     		ldr	r1, [r7, #20]
 1730 010c FA68     		ldr	r2, [r7, #12]
 1731 010e 0A44     		add	r2, r2, r1
 1732 0110 1046     		mov	r0, r2
 1733 0112 9847     		blx	r3
 1734 0114 0346     		mov	r3, r0
 1735 0116 1A46     		mov	r2, r3
ARM GAS  C:\Users\tmj32\AppData\Local\Temp\ccI3WYuM.s 			page 61


 1736 0118 2946     		mov	r1, r5
 1737 011a 2046     		mov	r0, r4
 1738 011c FFF7FEFF 		bl	lv_txt_cut
 437:..\..\..\lvgl\version_6.1.2\lvgl\src\lv_objx/lv_ta.c **** 
 438:..\..\..\lvgl\version_6.1.2\lvgl\src\lv_objx/lv_ta.c ****         ext->pwd_tmp = lv_mem_realloc(ext->pwd_tmp, strlen(ext->pwd_tmp) + 1);
 1739              		.loc 7 438 0
 1740 0120 FB69     		ldr	r3, [r7, #28]
 1741 0122 9C6B     		ldr	r4, [r3, #56]
 1742 0124 FB69     		ldr	r3, [r7, #28]
 1743 0126 9B6B     		ldr	r3, [r3, #56]
 1744 0128 1846     		mov	r0, r3
 1745 012a FFF7FEFF 		bl	strlen
 1746 012e 0346     		mov	r3, r0
 1747 0130 0133     		adds	r3, r3, #1
 1748 0132 1946     		mov	r1, r3
 1749 0134 2046     		mov	r0, r4
 1750 0136 FFF7FEFF 		bl	lv_mem_realloc
 1751 013a 0246     		mov	r2, r0
 1752 013c FB69     		ldr	r3, [r7, #28]
 1753 013e 9A63     		str	r2, [r3, #56]
 439:..\..\..\lvgl\version_6.1.2\lvgl\src\lv_objx/lv_ta.c ****         LV_ASSERT_MEM(ext->pwd_tmp);
 440:..\..\..\lvgl\version_6.1.2\lvgl\src\lv_objx/lv_ta.c ****         if(ext->pwd_tmp == NULL) return;
 1754              		.loc 7 440 0
 1755 0140 FB69     		ldr	r3, [r7, #28]
 1756 0142 9B6B     		ldr	r3, [r3, #56]
 1757 0144 002B     		cmp	r3, #0
 1758 0146 16D0     		beq	.L82
 1759              	.L78:
 1760              	.LBE13:
 441:..\..\..\lvgl\version_6.1.2\lvgl\src\lv_objx/lv_ta.c ****     }
 442:..\..\..\lvgl\version_6.1.2\lvgl\src\lv_objx/lv_ta.c **** 
 443:..\..\..\lvgl\version_6.1.2\lvgl\src\lv_objx/lv_ta.c ****     /*Move the cursor to the place of the deleted character*/
 444:..\..\..\lvgl\version_6.1.2\lvgl\src\lv_objx/lv_ta.c ****     lv_ta_set_cursor_pos(ta, ext->cursor.pos - 1);
 1761              		.loc 7 444 0
 1762 0148 FB69     		ldr	r3, [r7, #28]
 1763 014a B3F84A30 		ldrh	r3, [r3, #74]
 1764 014e 013B     		subs	r3, r3, #1
 1765 0150 9BB2     		uxth	r3, r3
 1766 0152 1BB2     		sxth	r3, r3
 1767 0154 1946     		mov	r1, r3
 1768 0156 7868     		ldr	r0, [r7, #4]
 1769 0158 FFF7FEFF 		bl	lv_ta_set_cursor_pos
 445:..\..\..\lvgl\version_6.1.2\lvgl\src\lv_objx/lv_ta.c **** 
 446:..\..\..\lvgl\version_6.1.2\lvgl\src\lv_objx/lv_ta.c ****     placeholder_update(ta);
 1770              		.loc 7 446 0
 1771 015c 7868     		ldr	r0, [r7, #4]
 1772 015e FFF7FEFF 		bl	placeholder_update
 447:..\..\..\lvgl\version_6.1.2\lvgl\src\lv_objx/lv_ta.c **** 
 448:..\..\..\lvgl\version_6.1.2\lvgl\src\lv_objx/lv_ta.c ****     lv_event_send(ta, LV_EVENT_VALUE_CHANGED, NULL);
 1773              		.loc 7 448 0
 1774 0162 0022     		movs	r2, #0
 1775 0164 0E21     		movs	r1, #14
 1776 0166 7868     		ldr	r0, [r7, #4]
 1777 0168 FFF7FEFF 		bl	lv_event_send
 1778 016c 04E0     		b	.L72
 1779              	.L80:
 406:..\..\..\lvgl\version_6.1.2\lvgl\src\lv_objx/lv_ta.c **** 
ARM GAS  C:\Users\tmj32\AppData\Local\Temp\ccI3WYuM.s 			page 62


 1780              		.loc 7 406 0
 1781 016e 00BF     		nop
 1782 0170 02E0     		b	.L72
 1783              	.L81:
 412:..\..\..\lvgl\version_6.1.2\lvgl\src\lv_objx/lv_ta.c **** 
 1784              		.loc 7 412 0
 1785 0172 00BF     		nop
 1786 0174 00E0     		b	.L72
 1787              	.L82:
 1788              	.LBB14:
 440:..\..\..\lvgl\version_6.1.2\lvgl\src\lv_objx/lv_ta.c ****     }
 1789              		.loc 7 440 0
 1790 0176 00BF     		nop
 1791              	.L72:
 1792              	.LBE14:
 449:..\..\..\lvgl\version_6.1.2\lvgl\src\lv_objx/lv_ta.c **** }
 1793              		.loc 7 449 0
 1794 0178 2037     		adds	r7, r7, #32
 1795              		.cfi_def_cfa_offset 16
 1796 017a BD46     		mov	sp, r7
 1797              		.cfi_def_cfa_register 13
 1798              		@ sp needed
 1799 017c B0BD     		pop	{r4, r5, r7, pc}
 1800              	.L84:
 1801 017e 00BF     		.align	2
 1802              	.L83:
 1803 0180 10000000 		.word	ta_insert_replace
 1804 0184 00000000 		.word	lv_txt_encoded_get_byte_id
 1805 0188 00000000 		.word	lv_txt_encoded_size
 1806              		.cfi_endproc
 1807              	.LFE59:
 1808              		.size	lv_ta_del_char, .-lv_ta_del_char
 1809              		.section	.text.lv_ta_del_char_forward,"ax",%progbits
 1810              		.align	2
 1811              		.global	lv_ta_del_char_forward
 1812              		.thumb
 1813              		.thumb_func
 1814              		.type	lv_ta_del_char_forward, %function
 1815              	lv_ta_del_char_forward:
 1816              	.LFB60:
 450:..\..\..\lvgl\version_6.1.2\lvgl\src\lv_objx/lv_ta.c **** 
 451:..\..\..\lvgl\version_6.1.2\lvgl\src\lv_objx/lv_ta.c **** /**
 452:..\..\..\lvgl\version_6.1.2\lvgl\src\lv_objx/lv_ta.c ****  * Delete the right character from the current cursor position
 453:..\..\..\lvgl\version_6.1.2\lvgl\src\lv_objx/lv_ta.c ****  * @param ta pointer to a text area object
 454:..\..\..\lvgl\version_6.1.2\lvgl\src\lv_objx/lv_ta.c ****  */
 455:..\..\..\lvgl\version_6.1.2\lvgl\src\lv_objx/lv_ta.c **** void lv_ta_del_char_forward(lv_obj_t * ta)
 456:..\..\..\lvgl\version_6.1.2\lvgl\src\lv_objx/lv_ta.c **** {
 1817              		.loc 7 456 0
 1818              		.cfi_startproc
 1819              		@ args = 0, pretend = 0, frame = 16
 1820              		@ frame_needed = 1, uses_anonymous_args = 0
 1821 0000 80B5     		push	{r7, lr}
 1822              		.cfi_def_cfa_offset 8
 1823              		.cfi_offset 7, -8
 1824              		.cfi_offset 14, -4
 1825 0002 84B0     		sub	sp, sp, #16
 1826              		.cfi_def_cfa_offset 24
ARM GAS  C:\Users\tmj32\AppData\Local\Temp\ccI3WYuM.s 			page 63


 1827 0004 00AF     		add	r7, sp, #0
 1828              		.cfi_def_cfa_register 7
 1829 0006 7860     		str	r0, [r7, #4]
 457:..\..\..\lvgl\version_6.1.2\lvgl\src\lv_objx/lv_ta.c ****     LV_ASSERT_OBJ(ta, LV_OBJX_NAME);
 458:..\..\..\lvgl\version_6.1.2\lvgl\src\lv_objx/lv_ta.c **** 
 459:..\..\..\lvgl\version_6.1.2\lvgl\src\lv_objx/lv_ta.c ****     uint16_t cp = lv_ta_get_cursor_pos(ta);
 1830              		.loc 7 459 0
 1831 0008 7868     		ldr	r0, [r7, #4]
 1832 000a FFF7FEFF 		bl	lv_ta_get_cursor_pos
 1833 000e 0346     		mov	r3, r0
 1834 0010 FB81     		strh	r3, [r7, #14]	@ movhi
 460:..\..\..\lvgl\version_6.1.2\lvgl\src\lv_objx/lv_ta.c ****     lv_ta_set_cursor_pos(ta, cp + 1);
 1835              		.loc 7 460 0
 1836 0012 FB89     		ldrh	r3, [r7, #14]	@ movhi
 1837 0014 0133     		adds	r3, r3, #1
 1838 0016 9BB2     		uxth	r3, r3
 1839 0018 1BB2     		sxth	r3, r3
 1840 001a 1946     		mov	r1, r3
 1841 001c 7868     		ldr	r0, [r7, #4]
 1842 001e FFF7FEFF 		bl	lv_ta_set_cursor_pos
 461:..\..\..\lvgl\version_6.1.2\lvgl\src\lv_objx/lv_ta.c ****     if(cp != lv_ta_get_cursor_pos(ta)) lv_ta_del_char(ta);
 1843              		.loc 7 461 0
 1844 0022 7868     		ldr	r0, [r7, #4]
 1845 0024 FFF7FEFF 		bl	lv_ta_get_cursor_pos
 1846 0028 0346     		mov	r3, r0
 1847 002a 1A46     		mov	r2, r3
 1848 002c FB89     		ldrh	r3, [r7, #14]
 1849 002e 9342     		cmp	r3, r2
 1850 0030 02D0     		beq	.L87
 1851              		.loc 7 461 0 is_stmt 0 discriminator 1
 1852 0032 7868     		ldr	r0, [r7, #4]
 1853 0034 FFF7FEFF 		bl	lv_ta_del_char
 1854              	.L87:
 462:..\..\..\lvgl\version_6.1.2\lvgl\src\lv_objx/lv_ta.c **** }
 1855              		.loc 7 462 0 is_stmt 1
 1856 0038 00BF     		nop
 1857 003a 1037     		adds	r7, r7, #16
 1858              		.cfi_def_cfa_offset 8
 1859 003c BD46     		mov	sp, r7
 1860              		.cfi_def_cfa_register 13
 1861              		@ sp needed
 1862 003e 80BD     		pop	{r7, pc}
 1863              		.cfi_endproc
 1864              	.LFE60:
 1865              		.size	lv_ta_del_char_forward, .-lv_ta_del_char_forward
 1866              		.section	.rodata
 1867 000a 0000     		.align	2
 1868              	.LC1:
 1869 000c 00       		.ascii	"\000"
 1870              		.section	.text.lv_ta_set_text,"ax",%progbits
 1871              		.align	2
 1872              		.global	lv_ta_set_text
 1873              		.thumb
 1874              		.thumb_func
 1875              		.type	lv_ta_set_text, %function
 1876              	lv_ta_set_text:
 1877              	.LFB61:
ARM GAS  C:\Users\tmj32\AppData\Local\Temp\ccI3WYuM.s 			page 64


 463:..\..\..\lvgl\version_6.1.2\lvgl\src\lv_objx/lv_ta.c **** 
 464:..\..\..\lvgl\version_6.1.2\lvgl\src\lv_objx/lv_ta.c **** /*=====================
 465:..\..\..\lvgl\version_6.1.2\lvgl\src\lv_objx/lv_ta.c ****  * Setter functions
 466:..\..\..\lvgl\version_6.1.2\lvgl\src\lv_objx/lv_ta.c ****  *====================*/
 467:..\..\..\lvgl\version_6.1.2\lvgl\src\lv_objx/lv_ta.c **** 
 468:..\..\..\lvgl\version_6.1.2\lvgl\src\lv_objx/lv_ta.c **** /**
 469:..\..\..\lvgl\version_6.1.2\lvgl\src\lv_objx/lv_ta.c ****  * Set the text of a text area
 470:..\..\..\lvgl\version_6.1.2\lvgl\src\lv_objx/lv_ta.c ****  * @param ta pointer to a text area
 471:..\..\..\lvgl\version_6.1.2\lvgl\src\lv_objx/lv_ta.c ****  * @param txt pointer to the text
 472:..\..\..\lvgl\version_6.1.2\lvgl\src\lv_objx/lv_ta.c ****  */
 473:..\..\..\lvgl\version_6.1.2\lvgl\src\lv_objx/lv_ta.c **** void lv_ta_set_text(lv_obj_t * ta, const char * txt)
 474:..\..\..\lvgl\version_6.1.2\lvgl\src\lv_objx/lv_ta.c **** {
 1878              		.loc 7 474 0
 1879              		.cfi_startproc
 1880              		@ args = 0, pretend = 0, frame = 64
 1881              		@ frame_needed = 1, uses_anonymous_args = 0
 1882 0000 90B5     		push	{r4, r7, lr}
 1883              		.cfi_def_cfa_offset 12
 1884              		.cfi_offset 4, -12
 1885              		.cfi_offset 7, -8
 1886              		.cfi_offset 14, -4
 1887 0002 91B0     		sub	sp, sp, #68
 1888              		.cfi_def_cfa_offset 80
 1889 0004 00AF     		add	r7, sp, #0
 1890              		.cfi_def_cfa_register 7
 1891 0006 7860     		str	r0, [r7, #4]
 1892 0008 3960     		str	r1, [r7]
 475:..\..\..\lvgl\version_6.1.2\lvgl\src\lv_objx/lv_ta.c ****     LV_ASSERT_OBJ(ta, LV_OBJX_NAME);
 476:..\..\..\lvgl\version_6.1.2\lvgl\src\lv_objx/lv_ta.c ****     LV_ASSERT_NULL(txt);
 477:..\..\..\lvgl\version_6.1.2\lvgl\src\lv_objx/lv_ta.c **** 
 478:..\..\..\lvgl\version_6.1.2\lvgl\src\lv_objx/lv_ta.c ****     lv_ta_ext_t * ext = lv_obj_get_ext_attr(ta);
 1893              		.loc 7 478 0
 1894 000a 7868     		ldr	r0, [r7, #4]
 1895 000c FFF7FEFF 		bl	lv_obj_get_ext_attr
 1896 0010 F863     		str	r0, [r7, #60]
 479:..\..\..\lvgl\version_6.1.2\lvgl\src\lv_objx/lv_ta.c **** 
 480:..\..\..\lvgl\version_6.1.2\lvgl\src\lv_objx/lv_ta.c ****     /*Clear the existing selection*/
 481:..\..\..\lvgl\version_6.1.2\lvgl\src\lv_objx/lv_ta.c ****     lv_ta_clear_selection(ta);
 1897              		.loc 7 481 0
 1898 0012 7868     		ldr	r0, [r7, #4]
 1899 0014 FFF7FEFF 		bl	lv_ta_clear_selection
 482:..\..\..\lvgl\version_6.1.2\lvgl\src\lv_objx/lv_ta.c **** 
 483:..\..\..\lvgl\version_6.1.2\lvgl\src\lv_objx/lv_ta.c ****     /*Add the character one-by-one if not all characters are accepted or there is character limit.*
 484:..\..\..\lvgl\version_6.1.2\lvgl\src\lv_objx/lv_ta.c ****     if(lv_ta_get_accepted_chars(ta) || lv_ta_get_max_length(ta)) {
 1900              		.loc 7 484 0
 1901 0018 7868     		ldr	r0, [r7, #4]
 1902 001a FFF7FEFF 		bl	lv_ta_get_accepted_chars
 1903 001e 0346     		mov	r3, r0
 1904 0020 002B     		cmp	r3, #0
 1905 0022 05D1     		bne	.L89
 1906              		.loc 7 484 0 is_stmt 0 discriminator 1
 1907 0024 7868     		ldr	r0, [r7, #4]
 1908 0026 FFF7FEFF 		bl	lv_ta_get_max_length
 1909 002a 0346     		mov	r3, r0
 1910 002c 002B     		cmp	r3, #0
 1911 002e 31D0     		beq	.L90
 1912              	.L89:
ARM GAS  C:\Users\tmj32\AppData\Local\Temp\ccI3WYuM.s 			page 65


 1913              	.LBB15:
 485:..\..\..\lvgl\version_6.1.2\lvgl\src\lv_objx/lv_ta.c ****         lv_label_set_text(ext->label, "");
 1914              		.loc 7 485 0 is_stmt 1
 1915 0030 FB6B     		ldr	r3, [r7, #60]
 1916 0032 1B6B     		ldr	r3, [r3, #48]
 1917 0034 5549     		ldr	r1, .L100
 1918 0036 1846     		mov	r0, r3
 1919 0038 FFF7FEFF 		bl	lv_label_set_text
 486:..\..\..\lvgl\version_6.1.2\lvgl\src\lv_objx/lv_ta.c ****         lv_ta_set_cursor_pos(ta, LV_TA_CURSOR_LAST);
 1920              		.loc 7 486 0
 1921 003c 47F6FF71 		movw	r1, #32767
 1922 0040 7868     		ldr	r0, [r7, #4]
 1923 0042 FFF7FEFF 		bl	lv_ta_set_cursor_pos
 487:..\..\..\lvgl\version_6.1.2\lvgl\src\lv_objx/lv_ta.c ****         if(ext->pwd_mode != 0) {
 1924              		.loc 7 487 0
 1925 0046 FB6B     		ldr	r3, [r7, #60]
 1926 0048 93F85C30 		ldrb	r3, [r3, #92]	@ zero_extendqisi2
 1927 004c 03F00103 		and	r3, r3, #1
 1928 0050 DBB2     		uxtb	r3, r3
 1929 0052 002B     		cmp	r3, #0
 1930 0054 03D0     		beq	.L91
 488:..\..\..\lvgl\version_6.1.2\lvgl\src\lv_objx/lv_ta.c ****             ext->pwd_tmp[0] = '\0'; /*Clear the password too*/
 1931              		.loc 7 488 0
 1932 0056 FB6B     		ldr	r3, [r7, #60]
 1933 0058 9B6B     		ldr	r3, [r3, #56]
 1934 005a 0022     		movs	r2, #0
 1935 005c 1A70     		strb	r2, [r3]
 1936              	.L91:
 489:..\..\..\lvgl\version_6.1.2\lvgl\src\lv_objx/lv_ta.c ****         }
 490:..\..\..\lvgl\version_6.1.2\lvgl\src\lv_objx/lv_ta.c ****         uint32_t i = 0;
 1937              		.loc 7 490 0
 1938 005e 0023     		movs	r3, #0
 1939 0060 3B63     		str	r3, [r7, #48]
 491:..\..\..\lvgl\version_6.1.2\lvgl\src\lv_objx/lv_ta.c ****         while(txt[i] != '\0') {
 1940              		.loc 7 491 0
 1941 0062 10E0     		b	.L92
 1942              	.L93:
 1943              	.LBB16:
 492:..\..\..\lvgl\version_6.1.2\lvgl\src\lv_objx/lv_ta.c ****             uint32_t c = lv_txt_encoded_next(txt, &i);
 1944              		.loc 7 492 0
 1945 0064 4A4B     		ldr	r3, .L100+4
 1946 0066 1B68     		ldr	r3, [r3]
 1947 0068 07F13002 		add	r2, r7, #48
 1948 006c 1146     		mov	r1, r2
 1949 006e 3868     		ldr	r0, [r7]
 1950 0070 9847     		blx	r3
 1951 0072 B863     		str	r0, [r7, #56]
 493:..\..\..\lvgl\version_6.1.2\lvgl\src\lv_objx/lv_ta.c ****             lv_ta_add_char(ta, lv_txt_unicode_to_encoded(c));
 1952              		.loc 7 493 0
 1953 0074 474B     		ldr	r3, .L100+8
 1954 0076 1B68     		ldr	r3, [r3]
 1955 0078 B86B     		ldr	r0, [r7, #56]
 1956 007a 9847     		blx	r3
 1957 007c 0346     		mov	r3, r0
 1958 007e 1946     		mov	r1, r3
 1959 0080 7868     		ldr	r0, [r7, #4]
 1960 0082 FFF7FEFF 		bl	lv_ta_add_char
ARM GAS  C:\Users\tmj32\AppData\Local\Temp\ccI3WYuM.s 			page 66


 1961              	.L92:
 1962              	.LBE16:
 491:..\..\..\lvgl\version_6.1.2\lvgl\src\lv_objx/lv_ta.c ****         while(txt[i] != '\0') {
 1963              		.loc 7 491 0
 1964 0086 3B6B     		ldr	r3, [r7, #48]
 1965 0088 3A68     		ldr	r2, [r7]
 1966 008a 1344     		add	r3, r3, r2
 1967 008c 1B78     		ldrb	r3, [r3]	@ zero_extendqisi2
 1968 008e 002B     		cmp	r3, #0
 1969 0090 E8D1     		bne	.L93
 1970              	.LBE15:
 484:..\..\..\lvgl\version_6.1.2\lvgl\src\lv_objx/lv_ta.c ****         lv_label_set_text(ext->label, "");
 1971              		.loc 7 484 0
 1972 0092 0AE0     		b	.L94
 1973              	.L90:
 494:..\..\..\lvgl\version_6.1.2\lvgl\src\lv_objx/lv_ta.c ****         }
 495:..\..\..\lvgl\version_6.1.2\lvgl\src\lv_objx/lv_ta.c ****     } else {
 496:..\..\..\lvgl\version_6.1.2\lvgl\src\lv_objx/lv_ta.c ****         lv_label_set_text(ext->label, txt);
 1974              		.loc 7 496 0
