ARM GAS  C:\Users\tmj32\AppData\Local\Temp\ccI3WYuM.s 			page 1


   1              		.syntax unified
   2              		.cpu cortex-m4
   3              		.eabi_attribute 27, 1
   4              		.fpu fpv4-sp-d16
   5              		.eabi_attribute 20, 1
   6              		.eabi_attribute 21, 1
   7              		.eabi_attribute 23, 3
   8              		.eabi_attribute 24, 1
   9              		.eabi_attribute 25, 1
  10              		.eabi_attribute 26, 1
  11              		.eabi_attribute 30, 6
  12              		.eabi_attribute 34, 1
  13              		.eabi_attribute 18, 4
  14              		.thumb
  15              		.syntax unified
  16              		.file	"lv_ta.c"
  17              		.text
  18              	.Ltext0:
  19              		.cfi_sections	.debug_frame
  20              		.section	.text.lv_font_get_line_height,"ax",%progbits
  21              		.align	2
  22              		.thumb
  23              		.thumb_func
  24              		.type	lv_font_get_line_height, %function
  25              	lv_font_get_line_height:
  26              	.LFB0:
  27              		.file 1 "..\\..\\..\\lvgl\\version_6.1.2\\lvgl\\src\\lv_objx\\../lv_core/../lv_font/lv_font.h"
   1:..\..\..\lvgl\version_6.1.2\lvgl\src\lv_objx\../lv_core/../lv_font/lv_font.h **** /**
   2:..\..\..\lvgl\version_6.1.2\lvgl\src\lv_objx\../lv_core/../lv_font/lv_font.h ****  * @file lv_font.h
   3:..\..\..\lvgl\version_6.1.2\lvgl\src\lv_objx\../lv_core/../lv_font/lv_font.h ****  *
   4:..\..\..\lvgl\version_6.1.2\lvgl\src\lv_objx\../lv_core/../lv_font/lv_font.h ****  */
   5:..\..\..\lvgl\version_6.1.2\lvgl\src\lv_objx\../lv_core/../lv_font/lv_font.h **** 
   6:..\..\..\lvgl\version_6.1.2\lvgl\src\lv_objx\../lv_core/../lv_font/lv_font.h **** #ifndef LV_FONT_H
   7:..\..\..\lvgl\version_6.1.2\lvgl\src\lv_objx\../lv_core/../lv_font/lv_font.h **** #define LV_FONT_H
   8:..\..\..\lvgl\version_6.1.2\lvgl\src\lv_objx\../lv_core/../lv_font/lv_font.h **** 
   9:..\..\..\lvgl\version_6.1.2\lvgl\src\lv_objx\../lv_core/../lv_font/lv_font.h **** #ifdef __cplusplus
  10:..\..\..\lvgl\version_6.1.2\lvgl\src\lv_objx\../lv_core/../lv_font/lv_font.h **** extern "C" {
  11:..\..\..\lvgl\version_6.1.2\lvgl\src\lv_objx\../lv_core/../lv_font/lv_font.h **** #endif
  12:..\..\..\lvgl\version_6.1.2\lvgl\src\lv_objx\../lv_core/../lv_font/lv_font.h **** 
  13:..\..\..\lvgl\version_6.1.2\lvgl\src\lv_objx\../lv_core/../lv_font/lv_font.h **** /*********************
  14:..\..\..\lvgl\version_6.1.2\lvgl\src\lv_objx\../lv_core/../lv_font/lv_font.h ****  *      INCLUDES
  15:..\..\..\lvgl\version_6.1.2\lvgl\src\lv_objx\../lv_core/../lv_font/lv_font.h ****  *********************/
  16:..\..\..\lvgl\version_6.1.2\lvgl\src\lv_objx\../lv_core/../lv_font/lv_font.h **** #ifdef LV_CONF_INCLUDE_SIMPLE
  17:..\..\..\lvgl\version_6.1.2\lvgl\src\lv_objx\../lv_core/../lv_font/lv_font.h **** #include "lv_conf.h"
  18:..\..\..\lvgl\version_6.1.2\lvgl\src\lv_objx\../lv_core/../lv_font/lv_font.h **** #else
  19:..\..\..\lvgl\version_6.1.2\lvgl\src\lv_objx\../lv_core/../lv_font/lv_font.h **** #include "../../../lv_conf.h"
  20:..\..\..\lvgl\version_6.1.2\lvgl\src\lv_objx\../lv_core/../lv_font/lv_font.h **** #endif
  21:..\..\..\lvgl\version_6.1.2\lvgl\src\lv_objx\../lv_core/../lv_font/lv_font.h **** 
  22:..\..\..\lvgl\version_6.1.2\lvgl\src\lv_objx\../lv_core/../lv_font/lv_font.h **** #include <stdint.h>
  23:..\..\..\lvgl\version_6.1.2\lvgl\src\lv_objx\../lv_core/../lv_font/lv_font.h **** #include <stddef.h>
  24:..\..\..\lvgl\version_6.1.2\lvgl\src\lv_objx\../lv_core/../lv_font/lv_font.h **** #include <stdbool.h>
  25:..\..\..\lvgl\version_6.1.2\lvgl\src\lv_objx\../lv_core/../lv_font/lv_font.h **** 
  26:..\..\..\lvgl\version_6.1.2\lvgl\src\lv_objx\../lv_core/../lv_font/lv_font.h **** #include "lv_symbol_def.h"
  27:..\..\..\lvgl\version_6.1.2\lvgl\src\lv_objx\../lv_core/../lv_font/lv_font.h **** 
  28:..\..\..\lvgl\version_6.1.2\lvgl\src\lv_objx\../lv_core/../lv_font/lv_font.h **** /*********************
  29:..\..\..\lvgl\version_6.1.2\lvgl\src\lv_objx\../lv_core/../lv_font/lv_font.h ****  *      DEFINES
  30:..\..\..\lvgl\version_6.1.2\lvgl\src\lv_objx\../lv_core/../lv_font/lv_font.h ****  *********************/
ARM GAS  C:\Users\tmj32\AppData\Local\Temp\ccI3WYuM.s 			page 2


  31:..\..\..\lvgl\version_6.1.2\lvgl\src\lv_objx\../lv_core/../lv_font/lv_font.h **** /*Number of fractional digits in the advanced width (`adv_w`) field of `lv_font_glyph_dsc_t`*/
  32:..\..\..\lvgl\version_6.1.2\lvgl\src\lv_objx\../lv_core/../lv_font/lv_font.h **** #define LV_FONT_WIDTH_FRACT_DIGIT       4
  33:..\..\..\lvgl\version_6.1.2\lvgl\src\lv_objx\../lv_core/../lv_font/lv_font.h **** 
  34:..\..\..\lvgl\version_6.1.2\lvgl\src\lv_objx\../lv_core/../lv_font/lv_font.h **** #define LV_FONT_KERN_POSITIVE        0
  35:..\..\..\lvgl\version_6.1.2\lvgl\src\lv_objx\../lv_core/../lv_font/lv_font.h **** #define LV_FONT_KERN_NEGATIVE        1
  36:..\..\..\lvgl\version_6.1.2\lvgl\src\lv_objx\../lv_core/../lv_font/lv_font.h **** 
  37:..\..\..\lvgl\version_6.1.2\lvgl\src\lv_objx\../lv_core/../lv_font/lv_font.h **** /**********************
  38:..\..\..\lvgl\version_6.1.2\lvgl\src\lv_objx\../lv_core/../lv_font/lv_font.h ****  *      TYPEDEFS
  39:..\..\..\lvgl\version_6.1.2\lvgl\src\lv_objx\../lv_core/../lv_font/lv_font.h ****  **********************/
  40:..\..\..\lvgl\version_6.1.2\lvgl\src\lv_objx\../lv_core/../lv_font/lv_font.h **** 
  41:..\..\..\lvgl\version_6.1.2\lvgl\src\lv_objx\../lv_core/../lv_font/lv_font.h **** /*------------------
  42:..\..\..\lvgl\version_6.1.2\lvgl\src\lv_objx\../lv_core/../lv_font/lv_font.h ****  * General types
  43:..\..\..\lvgl\version_6.1.2\lvgl\src\lv_objx\../lv_core/../lv_font/lv_font.h ****  *-----------------*/
  44:..\..\..\lvgl\version_6.1.2\lvgl\src\lv_objx\../lv_core/../lv_font/lv_font.h **** 
  45:..\..\..\lvgl\version_6.1.2\lvgl\src\lv_objx\../lv_core/../lv_font/lv_font.h **** /** Describes the properties of a glyph. */
  46:..\..\..\lvgl\version_6.1.2\lvgl\src\lv_objx\../lv_core/../lv_font/lv_font.h **** typedef struct
  47:..\..\..\lvgl\version_6.1.2\lvgl\src\lv_objx\../lv_core/../lv_font/lv_font.h **** {
  48:..\..\..\lvgl\version_6.1.2\lvgl\src\lv_objx\../lv_core/../lv_font/lv_font.h ****     uint16_t adv_w; /**< The glyph needs this space. Draw the next glyph after this width. 8 bit in
  49:..\..\..\lvgl\version_6.1.2\lvgl\src\lv_objx\../lv_core/../lv_font/lv_font.h ****     uint8_t box_w;  /**< Width of the glyph's bounding box*/
  50:..\..\..\lvgl\version_6.1.2\lvgl\src\lv_objx\../lv_core/../lv_font/lv_font.h ****     uint8_t box_h;  /**< Height of the glyph's bounding box*/
  51:..\..\..\lvgl\version_6.1.2\lvgl\src\lv_objx\../lv_core/../lv_font/lv_font.h ****     int8_t ofs_x;   /**< x offset of the bounding box*/
  52:..\..\..\lvgl\version_6.1.2\lvgl\src\lv_objx\../lv_core/../lv_font/lv_font.h ****     int8_t ofs_y;  /**< y offset of the bounding box*/
  53:..\..\..\lvgl\version_6.1.2\lvgl\src\lv_objx\../lv_core/../lv_font/lv_font.h ****     uint8_t bpp;   /**< Bit-per-pixel: 1, 2, 4, 8*/
  54:..\..\..\lvgl\version_6.1.2\lvgl\src\lv_objx\../lv_core/../lv_font/lv_font.h **** }lv_font_glyph_dsc_t;
  55:..\..\..\lvgl\version_6.1.2\lvgl\src\lv_objx\../lv_core/../lv_font/lv_font.h **** 
  56:..\..\..\lvgl\version_6.1.2\lvgl\src\lv_objx\../lv_core/../lv_font/lv_font.h **** 
  57:..\..\..\lvgl\version_6.1.2\lvgl\src\lv_objx\../lv_core/../lv_font/lv_font.h **** /** The bitmaps might be upscaled by 3 to achieve subpixel rendering. */
  58:..\..\..\lvgl\version_6.1.2\lvgl\src\lv_objx\../lv_core/../lv_font/lv_font.h **** enum {
  59:..\..\..\lvgl\version_6.1.2\lvgl\src\lv_objx\../lv_core/../lv_font/lv_font.h ****     LV_FONT_SUBPX_NONE,
  60:..\..\..\lvgl\version_6.1.2\lvgl\src\lv_objx\../lv_core/../lv_font/lv_font.h ****     LV_FONT_SUBPX_HOR,
  61:..\..\..\lvgl\version_6.1.2\lvgl\src\lv_objx\../lv_core/../lv_font/lv_font.h ****     LV_FONT_SUBPX_VER,
  62:..\..\..\lvgl\version_6.1.2\lvgl\src\lv_objx\../lv_core/../lv_font/lv_font.h ****     LV_FONT_SUBPX_BOTH,
  63:..\..\..\lvgl\version_6.1.2\lvgl\src\lv_objx\../lv_core/../lv_font/lv_font.h **** };
  64:..\..\..\lvgl\version_6.1.2\lvgl\src\lv_objx\../lv_core/../lv_font/lv_font.h **** 
  65:..\..\..\lvgl\version_6.1.2\lvgl\src\lv_objx\../lv_core/../lv_font/lv_font.h **** typedef uint8_t lv_font_subpx_t;
  66:..\..\..\lvgl\version_6.1.2\lvgl\src\lv_objx\../lv_core/../lv_font/lv_font.h **** 
  67:..\..\..\lvgl\version_6.1.2\lvgl\src\lv_objx\../lv_core/../lv_font/lv_font.h **** /** Describe the properties of a font*/
  68:..\..\..\lvgl\version_6.1.2\lvgl\src\lv_objx\../lv_core/../lv_font/lv_font.h **** typedef struct _lv_font_struct
  69:..\..\..\lvgl\version_6.1.2\lvgl\src\lv_objx\../lv_core/../lv_font/lv_font.h **** {
  70:..\..\..\lvgl\version_6.1.2\lvgl\src\lv_objx\../lv_core/../lv_font/lv_font.h ****     /** Get a glyph's  descriptor from a font*/
  71:..\..\..\lvgl\version_6.1.2\lvgl\src\lv_objx\../lv_core/../lv_font/lv_font.h ****     bool (*get_glyph_dsc)(const struct _lv_font_struct *, lv_font_glyph_dsc_t *, uint32_t letter, u
  72:..\..\..\lvgl\version_6.1.2\lvgl\src\lv_objx\../lv_core/../lv_font/lv_font.h **** 
  73:..\..\..\lvgl\version_6.1.2\lvgl\src\lv_objx\../lv_core/../lv_font/lv_font.h ****     /** Get a glyph's bitmap from a font*/
  74:..\..\..\lvgl\version_6.1.2\lvgl\src\lv_objx\../lv_core/../lv_font/lv_font.h ****     const uint8_t * (*get_glyph_bitmap)(const struct _lv_font_struct *, uint32_t);
  75:..\..\..\lvgl\version_6.1.2\lvgl\src\lv_objx\../lv_core/../lv_font/lv_font.h **** 
  76:..\..\..\lvgl\version_6.1.2\lvgl\src\lv_objx\../lv_core/../lv_font/lv_font.h ****     /*Pointer to the font in a font pack (must have the same line height)*/
  77:..\..\..\lvgl\version_6.1.2\lvgl\src\lv_objx\../lv_core/../lv_font/lv_font.h ****     uint8_t line_height;      /**< The real line height where any text fits*/
  78:..\..\..\lvgl\version_6.1.2\lvgl\src\lv_objx\../lv_core/../lv_font/lv_font.h ****     int8_t base_line;        /**< Base line measured from the top of the line_height*/
  79:..\..\..\lvgl\version_6.1.2\lvgl\src\lv_objx\../lv_core/../lv_font/lv_font.h ****     uint8_t subpx  :2;        /**< An element of `lv_font_subpx_t`*/
  80:..\..\..\lvgl\version_6.1.2\lvgl\src\lv_objx\../lv_core/../lv_font/lv_font.h ****     void * dsc;               /**< Store implementation specific or run_time data or caching here*/
  81:..\..\..\lvgl\version_6.1.2\lvgl\src\lv_objx\../lv_core/../lv_font/lv_font.h **** #if LV_USE_USER_DATA
  82:..\..\..\lvgl\version_6.1.2\lvgl\src\lv_objx\../lv_core/../lv_font/lv_font.h ****     lv_font_user_data_t user_data; /**< Custom user data for font. */
  83:..\..\..\lvgl\version_6.1.2\lvgl\src\lv_objx\../lv_core/../lv_font/lv_font.h **** #endif
  84:..\..\..\lvgl\version_6.1.2\lvgl\src\lv_objx\../lv_core/../lv_font/lv_font.h **** 
  85:..\..\..\lvgl\version_6.1.2\lvgl\src\lv_objx\../lv_core/../lv_font/lv_font.h **** 
  86:..\..\..\lvgl\version_6.1.2\lvgl\src\lv_objx\../lv_core/../lv_font/lv_font.h **** } lv_font_t;
  87:..\..\..\lvgl\version_6.1.2\lvgl\src\lv_objx\../lv_core/../lv_font/lv_font.h **** 
ARM GAS  C:\Users\tmj32\AppData\Local\Temp\ccI3WYuM.s 			page 3


  88:..\..\..\lvgl\version_6.1.2\lvgl\src\lv_objx\../lv_core/../lv_font/lv_font.h **** /**********************
  89:..\..\..\lvgl\version_6.1.2\lvgl\src\lv_objx\../lv_core/../lv_font/lv_font.h ****  * GLOBAL PROTOTYPES
  90:..\..\..\lvgl\version_6.1.2\lvgl\src\lv_objx\../lv_core/../lv_font/lv_font.h ****  **********************/
  91:..\..\..\lvgl\version_6.1.2\lvgl\src\lv_objx\../lv_core/../lv_font/lv_font.h **** 
  92:..\..\..\lvgl\version_6.1.2\lvgl\src\lv_objx\../lv_core/../lv_font/lv_font.h **** /**
  93:..\..\..\lvgl\version_6.1.2\lvgl\src\lv_objx\../lv_core/../lv_font/lv_font.h ****  * Return with the bitmap of a font.
  94:..\..\..\lvgl\version_6.1.2\lvgl\src\lv_objx\../lv_core/../lv_font/lv_font.h ****  * @param font_p pointer to a font
  95:..\..\..\lvgl\version_6.1.2\lvgl\src\lv_objx\../lv_core/../lv_font/lv_font.h ****  * @param letter an UNICODE character code
  96:..\..\..\lvgl\version_6.1.2\lvgl\src\lv_objx\../lv_core/../lv_font/lv_font.h ****  * @return  pointer to the bitmap of the letter
  97:..\..\..\lvgl\version_6.1.2\lvgl\src\lv_objx\../lv_core/../lv_font/lv_font.h ****  */
  98:..\..\..\lvgl\version_6.1.2\lvgl\src\lv_objx\../lv_core/../lv_font/lv_font.h **** const uint8_t * lv_font_get_glyph_bitmap(const lv_font_t * font_p, uint32_t letter);
  99:..\..\..\lvgl\version_6.1.2\lvgl\src\lv_objx\../lv_core/../lv_font/lv_font.h **** 
 100:..\..\..\lvgl\version_6.1.2\lvgl\src\lv_objx\../lv_core/../lv_font/lv_font.h **** /**
 101:..\..\..\lvgl\version_6.1.2\lvgl\src\lv_objx\../lv_core/../lv_font/lv_font.h ****  * Get the descriptor of a glyph
 102:..\..\..\lvgl\version_6.1.2\lvgl\src\lv_objx\../lv_core/../lv_font/lv_font.h ****  * @param font_p pointer to font
 103:..\..\..\lvgl\version_6.1.2\lvgl\src\lv_objx\../lv_core/../lv_font/lv_font.h ****  * @param dsc_out store the result descriptor here
 104:..\..\..\lvgl\version_6.1.2\lvgl\src\lv_objx\../lv_core/../lv_font/lv_font.h ****  * @param letter an UNICODE letter code
 105:..\..\..\lvgl\version_6.1.2\lvgl\src\lv_objx\../lv_core/../lv_font/lv_font.h ****  * @return true: descriptor is successfully loaded into `dsc_out`.
 106:..\..\..\lvgl\version_6.1.2\lvgl\src\lv_objx\../lv_core/../lv_font/lv_font.h ****  *         false: the letter was not found, no data is loaded to `dsc_out`
 107:..\..\..\lvgl\version_6.1.2\lvgl\src\lv_objx\../lv_core/../lv_font/lv_font.h ****  */
 108:..\..\..\lvgl\version_6.1.2\lvgl\src\lv_objx\../lv_core/../lv_font/lv_font.h **** bool lv_font_get_glyph_dsc(const lv_font_t * font_p, lv_font_glyph_dsc_t * dsc_out, uint32_t letter
 109:..\..\..\lvgl\version_6.1.2\lvgl\src\lv_objx\../lv_core/../lv_font/lv_font.h **** 
 110:..\..\..\lvgl\version_6.1.2\lvgl\src\lv_objx\../lv_core/../lv_font/lv_font.h **** /**
 111:..\..\..\lvgl\version_6.1.2\lvgl\src\lv_objx\../lv_core/../lv_font/lv_font.h ****  * Get the width of a glyph with kerning
 112:..\..\..\lvgl\version_6.1.2\lvgl\src\lv_objx\../lv_core/../lv_font/lv_font.h ****  * @param font pointer to a font
 113:..\..\..\lvgl\version_6.1.2\lvgl\src\lv_objx\../lv_core/../lv_font/lv_font.h ****  * @param letter an UNICODE letter
 114:..\..\..\lvgl\version_6.1.2\lvgl\src\lv_objx\../lv_core/../lv_font/lv_font.h ****  * @param letter_next the next letter after `letter`. Used for kerning
 115:..\..\..\lvgl\version_6.1.2\lvgl\src\lv_objx\../lv_core/../lv_font/lv_font.h ****  * @return the width of the glyph
 116:..\..\..\lvgl\version_6.1.2\lvgl\src\lv_objx\../lv_core/../lv_font/lv_font.h ****  */
 117:..\..\..\lvgl\version_6.1.2\lvgl\src\lv_objx\../lv_core/../lv_font/lv_font.h **** uint16_t lv_font_get_glyph_width(const lv_font_t * font, uint32_t letter, uint32_t letter_next);
 118:..\..\..\lvgl\version_6.1.2\lvgl\src\lv_objx\../lv_core/../lv_font/lv_font.h **** 
 119:..\..\..\lvgl\version_6.1.2\lvgl\src\lv_objx\../lv_core/../lv_font/lv_font.h **** /**
 120:..\..\..\lvgl\version_6.1.2\lvgl\src\lv_objx\../lv_core/../lv_font/lv_font.h ****  * Get the line height of a font. All characters fit into this height
 121:..\..\..\lvgl\version_6.1.2\lvgl\src\lv_objx\../lv_core/../lv_font/lv_font.h ****  * @param font_p pointer to a font
 122:..\..\..\lvgl\version_6.1.2\lvgl\src\lv_objx\../lv_core/../lv_font/lv_font.h ****  * @return the height of a font
 123:..\..\..\lvgl\version_6.1.2\lvgl\src\lv_objx\../lv_core/../lv_font/lv_font.h ****  */
 124:..\..\..\lvgl\version_6.1.2\lvgl\src\lv_objx\../lv_core/../lv_font/lv_font.h **** static inline uint8_t lv_font_get_line_height(const lv_font_t * font_p)
 125:..\..\..\lvgl\version_6.1.2\lvgl\src\lv_objx\../lv_core/../lv_font/lv_font.h **** {
  28              		.loc 1 125 0
  29              		.cfi_startproc
  30              		@ args = 0, pretend = 0, frame = 8
  31              		@ frame_needed = 1, uses_anonymous_args = 0
  32              		@ link register save eliminated.
  33 0000 80B4     		push	{r7}
  34              		.cfi_def_cfa_offset 4
  35              		.cfi_offset 7, -4
  36 0002 83B0     		sub	sp, sp, #12
  37              		.cfi_def_cfa_offset 16
  38 0004 00AF     		add	r7, sp, #0
  39              		.cfi_def_cfa_register 7
  40 0006 7860     		str	r0, [r7, #4]
 126:..\..\..\lvgl\version_6.1.2\lvgl\src\lv_objx\../lv_core/../lv_font/lv_font.h ****     return font_p->line_height;
  41              		.loc 1 126 0
  42 0008 7B68     		ldr	r3, [r7, #4]
  43 000a 1B7A     		ldrb	r3, [r3, #8]	@ zero_extendqisi2
 127:..\..\..\lvgl\version_6.1.2\lvgl\src\lv_objx\../lv_core/../lv_font/lv_font.h **** }
  44              		.loc 1 127 0
ARM GAS  C:\Users\tmj32\AppData\Local\Temp\ccI3WYuM.s 			page 4


  45 000c 1846     		mov	r0, r3
  46 000e 0C37     		adds	r7, r7, #12
  47              		.cfi_def_cfa_offset 4
  48 0010 BD46     		mov	sp, r7
  49              		.cfi_def_cfa_register 13
  50              		@ sp needed
  51 0012 5DF8047B 		ldr	r7, [sp], #4
  52              		.cfi_restore 7
  53              		.cfi_def_cfa_offset 0
  54 0016 7047     		bx	lr
  55              		.cfi_endproc
  56              	.LFE0:
  57              		.size	lv_font_get_line_height, .-lv_font_get_line_height
  58              		.section	.text.lv_area_copy,"ax",%progbits
  59              		.align	2
  60              		.thumb
  61              		.thumb_func
  62              		.type	lv_area_copy, %function
  63              	lv_area_copy:
  64              	.LFB10:
  65              		.file 2 "..\\..\\..\\lvgl\\version_6.1.2\\lvgl\\src\\lv_objx\\../lv_core/../lv_misc/lv_area.h"
   1:..\..\..\lvgl\version_6.1.2\lvgl\src\lv_objx\../lv_core/../lv_misc/lv_area.h **** /**
   2:..\..\..\lvgl\version_6.1.2\lvgl\src\lv_objx\../lv_core/../lv_misc/lv_area.h ****  * @file lv_area.h
   3:..\..\..\lvgl\version_6.1.2\lvgl\src\lv_objx\../lv_core/../lv_misc/lv_area.h ****  *
   4:..\..\..\lvgl\version_6.1.2\lvgl\src\lv_objx\../lv_core/../lv_misc/lv_area.h ****  */
   5:..\..\..\lvgl\version_6.1.2\lvgl\src\lv_objx\../lv_core/../lv_misc/lv_area.h **** 
   6:..\..\..\lvgl\version_6.1.2\lvgl\src\lv_objx\../lv_core/../lv_misc/lv_area.h **** #ifndef LV_AREA_H
   7:..\..\..\lvgl\version_6.1.2\lvgl\src\lv_objx\../lv_core/../lv_misc/lv_area.h **** #define LV_AREA_H
   8:..\..\..\lvgl\version_6.1.2\lvgl\src\lv_objx\../lv_core/../lv_misc/lv_area.h **** 
   9:..\..\..\lvgl\version_6.1.2\lvgl\src\lv_objx\../lv_core/../lv_misc/lv_area.h **** #ifdef __cplusplus
  10:..\..\..\lvgl\version_6.1.2\lvgl\src\lv_objx\../lv_core/../lv_misc/lv_area.h **** extern "C" {
  11:..\..\..\lvgl\version_6.1.2\lvgl\src\lv_objx\../lv_core/../lv_misc/lv_area.h **** #endif
  12:..\..\..\lvgl\version_6.1.2\lvgl\src\lv_objx\../lv_core/../lv_misc/lv_area.h **** 
  13:..\..\..\lvgl\version_6.1.2\lvgl\src\lv_objx\../lv_core/../lv_misc/lv_area.h **** /*********************
  14:..\..\..\lvgl\version_6.1.2\lvgl\src\lv_objx\../lv_core/../lv_misc/lv_area.h ****  *      INCLUDES
  15:..\..\..\lvgl\version_6.1.2\lvgl\src\lv_objx\../lv_core/../lv_misc/lv_area.h ****  *********************/
  16:..\..\..\lvgl\version_6.1.2\lvgl\src\lv_objx\../lv_core/../lv_misc/lv_area.h **** #include <string.h>
  17:..\..\..\lvgl\version_6.1.2\lvgl\src\lv_objx\../lv_core/../lv_misc/lv_area.h **** #include <stdbool.h>
  18:..\..\..\lvgl\version_6.1.2\lvgl\src\lv_objx\../lv_core/../lv_misc/lv_area.h **** #include <stdint.h>
  19:..\..\..\lvgl\version_6.1.2\lvgl\src\lv_objx\../lv_core/../lv_misc/lv_area.h **** #ifdef LV_CONF_INCLUDE_SIMPLE
  20:..\..\..\lvgl\version_6.1.2\lvgl\src\lv_objx\../lv_core/../lv_misc/lv_area.h **** #include "lv_conf.h"
  21:..\..\..\lvgl\version_6.1.2\lvgl\src\lv_objx\../lv_core/../lv_misc/lv_area.h **** #else
  22:..\..\..\lvgl\version_6.1.2\lvgl\src\lv_objx\../lv_core/../lv_misc/lv_area.h **** #include "../../../lv_conf.h"
  23:..\..\..\lvgl\version_6.1.2\lvgl\src\lv_objx\../lv_core/../lv_misc/lv_area.h **** #endif
  24:..\..\..\lvgl\version_6.1.2\lvgl\src\lv_objx\../lv_core/../lv_misc/lv_area.h **** 
  25:..\..\..\lvgl\version_6.1.2\lvgl\src\lv_objx\../lv_core/../lv_misc/lv_area.h **** /*********************
  26:..\..\..\lvgl\version_6.1.2\lvgl\src\lv_objx\../lv_core/../lv_misc/lv_area.h ****  *      DEFINES
  27:..\..\..\lvgl\version_6.1.2\lvgl\src\lv_objx\../lv_core/../lv_misc/lv_area.h ****  *********************/
  28:..\..\..\lvgl\version_6.1.2\lvgl\src\lv_objx\../lv_core/../lv_misc/lv_area.h **** /*To avoid overflow don't let the max ranges (reduce with 1000) */
  29:..\..\..\lvgl\version_6.1.2\lvgl\src\lv_objx\../lv_core/../lv_misc/lv_area.h **** #define LV_COORD_MAX ((lv_coord_t)((uint32_t)((uint32_t)1 << (8 * sizeof(lv_coord_t) - 1)) - 1000))
  30:..\..\..\lvgl\version_6.1.2\lvgl\src\lv_objx\../lv_core/../lv_misc/lv_area.h **** #define LV_COORD_MIN (-LV_COORD_MAX)
  31:..\..\..\lvgl\version_6.1.2\lvgl\src\lv_objx\../lv_core/../lv_misc/lv_area.h **** 
  32:..\..\..\lvgl\version_6.1.2\lvgl\src\lv_objx\../lv_core/../lv_misc/lv_area.h **** LV_EXPORT_CONST_INT(LV_COORD_MAX);
  33:..\..\..\lvgl\version_6.1.2\lvgl\src\lv_objx\../lv_core/../lv_misc/lv_area.h **** LV_EXPORT_CONST_INT(LV_COORD_MIN);
  34:..\..\..\lvgl\version_6.1.2\lvgl\src\lv_objx\../lv_core/../lv_misc/lv_area.h **** 
  35:..\..\..\lvgl\version_6.1.2\lvgl\src\lv_objx\../lv_core/../lv_misc/lv_area.h **** /**********************
  36:..\..\..\lvgl\version_6.1.2\lvgl\src\lv_objx\../lv_core/../lv_misc/lv_area.h ****  *      TYPEDEFS
ARM GAS  C:\Users\tmj32\AppData\Local\Temp\ccI3WYuM.s 			page 5


  37:..\..\..\lvgl\version_6.1.2\lvgl\src\lv_objx\../lv_core/../lv_misc/lv_area.h ****  **********************/
  38:..\..\..\lvgl\version_6.1.2\lvgl\src\lv_objx\../lv_core/../lv_misc/lv_area.h **** 
  39:..\..\..\lvgl\version_6.1.2\lvgl\src\lv_objx\../lv_core/../lv_misc/lv_area.h **** /**
  40:..\..\..\lvgl\version_6.1.2\lvgl\src\lv_objx\../lv_core/../lv_misc/lv_area.h ****  * Represents a point on the screen.
  41:..\..\..\lvgl\version_6.1.2\lvgl\src\lv_objx\../lv_core/../lv_misc/lv_area.h ****  */
  42:..\..\..\lvgl\version_6.1.2\lvgl\src\lv_objx\../lv_core/../lv_misc/lv_area.h **** typedef struct
  43:..\..\..\lvgl\version_6.1.2\lvgl\src\lv_objx\../lv_core/../lv_misc/lv_area.h **** {
  44:..\..\..\lvgl\version_6.1.2\lvgl\src\lv_objx\../lv_core/../lv_misc/lv_area.h ****     lv_coord_t x;
  45:..\..\..\lvgl\version_6.1.2\lvgl\src\lv_objx\../lv_core/../lv_misc/lv_area.h ****     lv_coord_t y;
  46:..\..\..\lvgl\version_6.1.2\lvgl\src\lv_objx\../lv_core/../lv_misc/lv_area.h **** } lv_point_t;
  47:..\..\..\lvgl\version_6.1.2\lvgl\src\lv_objx\../lv_core/../lv_misc/lv_area.h **** 
  48:..\..\..\lvgl\version_6.1.2\lvgl\src\lv_objx\../lv_core/../lv_misc/lv_area.h **** /** Represents an area of the screen. */
  49:..\..\..\lvgl\version_6.1.2\lvgl\src\lv_objx\../lv_core/../lv_misc/lv_area.h **** typedef struct
  50:..\..\..\lvgl\version_6.1.2\lvgl\src\lv_objx\../lv_core/../lv_misc/lv_area.h **** {
  51:..\..\..\lvgl\version_6.1.2\lvgl\src\lv_objx\../lv_core/../lv_misc/lv_area.h ****     lv_coord_t x1;
  52:..\..\..\lvgl\version_6.1.2\lvgl\src\lv_objx\../lv_core/../lv_misc/lv_area.h ****     lv_coord_t y1;
  53:..\..\..\lvgl\version_6.1.2\lvgl\src\lv_objx\../lv_core/../lv_misc/lv_area.h ****     lv_coord_t x2;
  54:..\..\..\lvgl\version_6.1.2\lvgl\src\lv_objx\../lv_core/../lv_misc/lv_area.h ****     lv_coord_t y2;
  55:..\..\..\lvgl\version_6.1.2\lvgl\src\lv_objx\../lv_core/../lv_misc/lv_area.h **** } lv_area_t;
  56:..\..\..\lvgl\version_6.1.2\lvgl\src\lv_objx\../lv_core/../lv_misc/lv_area.h **** 
  57:..\..\..\lvgl\version_6.1.2\lvgl\src\lv_objx\../lv_core/../lv_misc/lv_area.h **** /**********************
  58:..\..\..\lvgl\version_6.1.2\lvgl\src\lv_objx\../lv_core/../lv_misc/lv_area.h ****  * GLOBAL PROTOTYPES
  59:..\..\..\lvgl\version_6.1.2\lvgl\src\lv_objx\../lv_core/../lv_misc/lv_area.h ****  **********************/
  60:..\..\..\lvgl\version_6.1.2\lvgl\src\lv_objx\../lv_core/../lv_misc/lv_area.h **** 
  61:..\..\..\lvgl\version_6.1.2\lvgl\src\lv_objx\../lv_core/../lv_misc/lv_area.h **** /**
  62:..\..\..\lvgl\version_6.1.2\lvgl\src\lv_objx\../lv_core/../lv_misc/lv_area.h ****  * Initialize an area
  63:..\..\..\lvgl\version_6.1.2\lvgl\src\lv_objx\../lv_core/../lv_misc/lv_area.h ****  * @param area_p pointer to an area
  64:..\..\..\lvgl\version_6.1.2\lvgl\src\lv_objx\../lv_core/../lv_misc/lv_area.h ****  * @param x1 left coordinate of the area
  65:..\..\..\lvgl\version_6.1.2\lvgl\src\lv_objx\../lv_core/../lv_misc/lv_area.h ****  * @param y1 top coordinate of the area
  66:..\..\..\lvgl\version_6.1.2\lvgl\src\lv_objx\../lv_core/../lv_misc/lv_area.h ****  * @param x2 right coordinate of the area
  67:..\..\..\lvgl\version_6.1.2\lvgl\src\lv_objx\../lv_core/../lv_misc/lv_area.h ****  * @param y2 bottom coordinate of the area
  68:..\..\..\lvgl\version_6.1.2\lvgl\src\lv_objx\../lv_core/../lv_misc/lv_area.h ****  */
  69:..\..\..\lvgl\version_6.1.2\lvgl\src\lv_objx\../lv_core/../lv_misc/lv_area.h **** void lv_area_set(lv_area_t * area_p, lv_coord_t x1, lv_coord_t y1, lv_coord_t x2, lv_coord_t y2);
  70:..\..\..\lvgl\version_6.1.2\lvgl\src\lv_objx\../lv_core/../lv_misc/lv_area.h **** 
  71:..\..\..\lvgl\version_6.1.2\lvgl\src\lv_objx\../lv_core/../lv_misc/lv_area.h **** /**
  72:..\..\..\lvgl\version_6.1.2\lvgl\src\lv_objx\../lv_core/../lv_misc/lv_area.h ****  * Copy an area
  73:..\..\..\lvgl\version_6.1.2\lvgl\src\lv_objx\../lv_core/../lv_misc/lv_area.h ****  * @param dest pointer to the destination area
  74:..\..\..\lvgl\version_6.1.2\lvgl\src\lv_objx\../lv_core/../lv_misc/lv_area.h ****  * @param src pointer to the source area
  75:..\..\..\lvgl\version_6.1.2\lvgl\src\lv_objx\../lv_core/../lv_misc/lv_area.h ****  */
  76:..\..\..\lvgl\version_6.1.2\lvgl\src\lv_objx\../lv_core/../lv_misc/lv_area.h **** inline static void lv_area_copy(lv_area_t * dest, const lv_area_t * src)
  77:..\..\..\lvgl\version_6.1.2\lvgl\src\lv_objx\../lv_core/../lv_misc/lv_area.h **** {
  66              		.loc 2 77 0
  67              		.cfi_startproc
  68              		@ args = 0, pretend = 0, frame = 8
  69              		@ frame_needed = 1, uses_anonymous_args = 0
  70 0000 80B5     		push	{r7, lr}
  71              		.cfi_def_cfa_offset 8
  72              		.cfi_offset 7, -8
  73              		.cfi_offset 14, -4
  74 0002 82B0     		sub	sp, sp, #8
  75              		.cfi_def_cfa_offset 16
  76 0004 00AF     		add	r7, sp, #0
  77              		.cfi_def_cfa_register 7
  78 0006 7860     		str	r0, [r7, #4]
  79 0008 3960     		str	r1, [r7]
  78:..\..\..\lvgl\version_6.1.2\lvgl\src\lv_objx\../lv_core/../lv_misc/lv_area.h ****     memcpy(dest, src, sizeof(lv_area_t));
  80              		.loc 2 78 0
ARM GAS  C:\Users\tmj32\AppData\Local\Temp\ccI3WYuM.s 			page 6


  81 000a 0822     		movs	r2, #8
  82 000c 3968     		ldr	r1, [r7]
  83 000e 7868     		ldr	r0, [r7, #4]
  84 0010 FFF7FEFF 		bl	memcpy
  79:..\..\..\lvgl\version_6.1.2\lvgl\src\lv_objx\../lv_core/../lv_misc/lv_area.h **** }
  85              		.loc 2 79 0
  86 0014 00BF     		nop
  87 0016 0837     		adds	r7, r7, #8
  88              		.cfi_def_cfa_offset 8
  89 0018 BD46     		mov	sp, r7
  90              		.cfi_def_cfa_register 13
  91              		@ sp needed
  92 001a 80BD     		pop	{r7, pc}
  93              		.cfi_endproc
  94              	.LFE10:
  95              		.size	lv_area_copy, .-lv_area_copy
  96              		.section	.text.lv_area_get_width,"ax",%progbits
  97              		.align	2
  98              		.thumb
  99              		.thumb_func
 100              		.type	lv_area_get_width, %function
 101              	lv_area_get_width:
 102              	.LFB11:
  80:..\..\..\lvgl\version_6.1.2\lvgl\src\lv_objx\../lv_core/../lv_misc/lv_area.h **** 
  81:..\..\..\lvgl\version_6.1.2\lvgl\src\lv_objx\../lv_core/../lv_misc/lv_area.h **** /**
  82:..\..\..\lvgl\version_6.1.2\lvgl\src\lv_objx\../lv_core/../lv_misc/lv_area.h ****  * Get the width of an area
  83:..\..\..\lvgl\version_6.1.2\lvgl\src\lv_objx\../lv_core/../lv_misc/lv_area.h ****  * @param area_p pointer to an area
  84:..\..\..\lvgl\version_6.1.2\lvgl\src\lv_objx\../lv_core/../lv_misc/lv_area.h ****  * @return the width of the area (if x1 == x2 -> width = 1)
  85:..\..\..\lvgl\version_6.1.2\lvgl\src\lv_objx\../lv_core/../lv_misc/lv_area.h ****  */
  86:..\..\..\lvgl\version_6.1.2\lvgl\src\lv_objx\../lv_core/../lv_misc/lv_area.h **** static inline lv_coord_t lv_area_get_width(const lv_area_t * area_p)
  87:..\..\..\lvgl\version_6.1.2\lvgl\src\lv_objx\../lv_core/../lv_misc/lv_area.h **** {
 103              		.loc 2 87 0
 104              		.cfi_startproc
 105              		@ args = 0, pretend = 0, frame = 8
 106              		@ frame_needed = 1, uses_anonymous_args = 0
 107              		@ link register save eliminated.
 108 0000 80B4     		push	{r7}
 109              		.cfi_def_cfa_offset 4
 110              		.cfi_offset 7, -4
 111 0002 83B0     		sub	sp, sp, #12
 112              		.cfi_def_cfa_offset 16
 113 0004 00AF     		add	r7, sp, #0
 114              		.cfi_def_cfa_register 7
 115 0006 7860     		str	r0, [r7, #4]
  88:..\..\..\lvgl\version_6.1.2\lvgl\src\lv_objx\../lv_core/../lv_misc/lv_area.h ****     return (lv_coord_t)(area_p->x2 - area_p->x1 + 1);
 116              		.loc 2 88 0
 117 0008 7B68     		ldr	r3, [r7, #4]
 118 000a B3F90430 		ldrsh	r3, [r3, #4]
 119 000e 9AB2     		uxth	r2, r3
 120 0010 7B68     		ldr	r3, [r7, #4]
 121 0012 B3F90030 		ldrsh	r3, [r3]
 122 0016 9BB2     		uxth	r3, r3
 123 0018 D31A     		subs	r3, r2, r3
 124 001a 9BB2     		uxth	r3, r3
 125 001c 0133     		adds	r3, r3, #1
 126 001e 9BB2     		uxth	r3, r3
 127 0020 1BB2     		sxth	r3, r3
ARM GAS  C:\Users\tmj32\AppData\Local\Temp\ccI3WYuM.s 			page 7


  89:..\..\..\lvgl\version_6.1.2\lvgl\src\lv_objx\../lv_core/../lv_misc/lv_area.h **** }
 128              		.loc 2 89 0
 129 0022 1846     		mov	r0, r3
 130 0024 0C37     		adds	r7, r7, #12
 131              		.cfi_def_cfa_offset 4
 132 0026 BD46     		mov	sp, r7
 133              		.cfi_def_cfa_register 13
 134              		@ sp needed
 135 0028 5DF8047B 		ldr	r7, [sp], #4
 136              		.cfi_restore 7
 137              		.cfi_def_cfa_offset 0
 138 002c 7047     		bx	lr
 139              		.cfi_endproc
 140              	.LFE11:
 141              		.size	lv_area_get_width, .-lv_area_get_width
 142 002e 00BF     		.section	.text.lv_area_get_height,"ax",%progbits
 143              		.align	2
 144              		.thumb
 145              		.thumb_func
 146              		.type	lv_area_get_height, %function
 147              	lv_area_get_height:
 148              	.LFB12:
  90:..\..\..\lvgl\version_6.1.2\lvgl\src\lv_objx\../lv_core/../lv_misc/lv_area.h **** 
  91:..\..\..\lvgl\version_6.1.2\lvgl\src\lv_objx\../lv_core/../lv_misc/lv_area.h **** /**
  92:..\..\..\lvgl\version_6.1.2\lvgl\src\lv_objx\../lv_core/../lv_misc/lv_area.h ****  * Get the height of an area
  93:..\..\..\lvgl\version_6.1.2\lvgl\src\lv_objx\../lv_core/../lv_misc/lv_area.h ****  * @param area_p pointer to an area
  94:..\..\..\lvgl\version_6.1.2\lvgl\src\lv_objx\../lv_core/../lv_misc/lv_area.h ****  * @return the height of the area (if y1 == y2 -> height = 1)
  95:..\..\..\lvgl\version_6.1.2\lvgl\src\lv_objx\../lv_core/../lv_misc/lv_area.h ****  */
  96:..\..\..\lvgl\version_6.1.2\lvgl\src\lv_objx\../lv_core/../lv_misc/lv_area.h **** static inline lv_coord_t lv_area_get_height(const lv_area_t * area_p)
  97:..\..\..\lvgl\version_6.1.2\lvgl\src\lv_objx\../lv_core/../lv_misc/lv_area.h **** {
 149              		.loc 2 97 0
 150              		.cfi_startproc
 151              		@ args = 0, pretend = 0, frame = 8
 152              		@ frame_needed = 1, uses_anonymous_args = 0
 153              		@ link register save eliminated.
 154 0000 80B4     		push	{r7}
 155              		.cfi_def_cfa_offset 4
 156              		.cfi_offset 7, -4
 157 0002 83B0     		sub	sp, sp, #12
 158              		.cfi_def_cfa_offset 16
 159 0004 00AF     		add	r7, sp, #0
 160              		.cfi_def_cfa_register 7
 161 0006 7860     		str	r0, [r7, #4]
  98:..\..\..\lvgl\version_6.1.2\lvgl\src\lv_objx\../lv_core/../lv_misc/lv_area.h ****     return (lv_coord_t)(area_p->y2 - area_p->y1 + 1);
 162              		.loc 2 98 0
 163 0008 7B68     		ldr	r3, [r7, #4]
 164 000a B3F90630 		ldrsh	r3, [r3, #6]
 165 000e 9AB2     		uxth	r2, r3
 166 0010 7B68     		ldr	r3, [r7, #4]
 167 0012 B3F90230 		ldrsh	r3, [r3, #2]
 168 0016 9BB2     		uxth	r3, r3
 169 0018 D31A     		subs	r3, r2, r3
 170 001a 9BB2     		uxth	r3, r3
 171 001c 0133     		adds	r3, r3, #1
 172 001e 9BB2     		uxth	r3, r3
 173 0020 1BB2     		sxth	r3, r3
  99:..\..\..\lvgl\version_6.1.2\lvgl\src\lv_objx\../lv_core/../lv_misc/lv_area.h **** }
ARM GAS  C:\Users\tmj32\AppData\Local\Temp\ccI3WYuM.s 			page 8


 174              		.loc 2 99 0
 175 0022 1846     		mov	r0, r3
 176 0024 0C37     		adds	r7, r7, #12
 177              		.cfi_def_cfa_offset 4
 178 0026 BD46     		mov	sp, r7
 179              		.cfi_def_cfa_register 13
 180              		@ sp needed
 181 0028 5DF8047B 		ldr	r7, [sp], #4
 182              		.cfi_restore 7
 183              		.cfi_def_cfa_offset 0
 184 002c 7047     		bx	lr
 185              		.cfi_endproc
 186              	.LFE12:
 187              		.size	lv_area_get_height, .-lv_area_get_height
 188 002e 00BF     		.section	.text.lv_cont_set_fit2,"ax",%progbits
 189              		.align	2
 190              		.thumb
 191              		.thumb_func
 192              		.type	lv_cont_set_fit2, %function
 193              	lv_cont_set_fit2:
 194              	.LFB31:
 195              		.file 3 "..\\..\\..\\lvgl\\version_6.1.2\\lvgl\\src\\lv_objx\\lv_cont.h"
   1:..\..\..\lvgl\version_6.1.2\lvgl\src\lv_objx/lv_cont.h **** /**
   2:..\..\..\lvgl\version_6.1.2\lvgl\src\lv_objx/lv_cont.h ****  * @file lv_cont.h
   3:..\..\..\lvgl\version_6.1.2\lvgl\src\lv_objx/lv_cont.h ****  *
   4:..\..\..\lvgl\version_6.1.2\lvgl\src\lv_objx/lv_cont.h ****  */
   5:..\..\..\lvgl\version_6.1.2\lvgl\src\lv_objx/lv_cont.h **** 
   6:..\..\..\lvgl\version_6.1.2\lvgl\src\lv_objx/lv_cont.h **** #ifndef LV_CONT_H
   7:..\..\..\lvgl\version_6.1.2\lvgl\src\lv_objx/lv_cont.h **** #define LV_CONT_H
   8:..\..\..\lvgl\version_6.1.2\lvgl\src\lv_objx/lv_cont.h **** 
   9:..\..\..\lvgl\version_6.1.2\lvgl\src\lv_objx/lv_cont.h **** #ifdef __cplusplus
  10:..\..\..\lvgl\version_6.1.2\lvgl\src\lv_objx/lv_cont.h **** extern "C" {
  11:..\..\..\lvgl\version_6.1.2\lvgl\src\lv_objx/lv_cont.h **** #endif
  12:..\..\..\lvgl\version_6.1.2\lvgl\src\lv_objx/lv_cont.h **** 
  13:..\..\..\lvgl\version_6.1.2\lvgl\src\lv_objx/lv_cont.h **** /*********************
  14:..\..\..\lvgl\version_6.1.2\lvgl\src\lv_objx/lv_cont.h ****  *      INCLUDES
  15:..\..\..\lvgl\version_6.1.2\lvgl\src\lv_objx/lv_cont.h ****  *********************/
  16:..\..\..\lvgl\version_6.1.2\lvgl\src\lv_objx/lv_cont.h **** #ifdef LV_CONF_INCLUDE_SIMPLE
  17:..\..\..\lvgl\version_6.1.2\lvgl\src\lv_objx/lv_cont.h **** #include "lv_conf.h"
  18:..\..\..\lvgl\version_6.1.2\lvgl\src\lv_objx/lv_cont.h **** #else
  19:..\..\..\lvgl\version_6.1.2\lvgl\src\lv_objx/lv_cont.h **** #include "../../../lv_conf.h"
  20:..\..\..\lvgl\version_6.1.2\lvgl\src\lv_objx/lv_cont.h **** #endif
  21:..\..\..\lvgl\version_6.1.2\lvgl\src\lv_objx/lv_cont.h **** 
  22:..\..\..\lvgl\version_6.1.2\lvgl\src\lv_objx/lv_cont.h **** #if LV_USE_CONT != 0
  23:..\..\..\lvgl\version_6.1.2\lvgl\src\lv_objx/lv_cont.h **** 
  24:..\..\..\lvgl\version_6.1.2\lvgl\src\lv_objx/lv_cont.h **** #include "../lv_core/lv_obj.h"
  25:..\..\..\lvgl\version_6.1.2\lvgl\src\lv_objx/lv_cont.h **** 
  26:..\..\..\lvgl\version_6.1.2\lvgl\src\lv_objx/lv_cont.h **** /*********************
  27:..\..\..\lvgl\version_6.1.2\lvgl\src\lv_objx/lv_cont.h ****  *      DEFINES
  28:..\..\..\lvgl\version_6.1.2\lvgl\src\lv_objx/lv_cont.h ****  *********************/
  29:..\..\..\lvgl\version_6.1.2\lvgl\src\lv_objx/lv_cont.h **** 
  30:..\..\..\lvgl\version_6.1.2\lvgl\src\lv_objx/lv_cont.h **** /**********************
  31:..\..\..\lvgl\version_6.1.2\lvgl\src\lv_objx/lv_cont.h ****  *      TYPEDEFS
  32:..\..\..\lvgl\version_6.1.2\lvgl\src\lv_objx/lv_cont.h ****  **********************/
  33:..\..\..\lvgl\version_6.1.2\lvgl\src\lv_objx/lv_cont.h **** 
  34:..\..\..\lvgl\version_6.1.2\lvgl\src\lv_objx/lv_cont.h **** /** Container layout options*/
  35:..\..\..\lvgl\version_6.1.2\lvgl\src\lv_objx/lv_cont.h **** enum {
ARM GAS  C:\Users\tmj32\AppData\Local\Temp\ccI3WYuM.s 			page 9


  36:..\..\..\lvgl\version_6.1.2\lvgl\src\lv_objx/lv_cont.h ****     LV_LAYOUT_OFF = 0, /**< No layout */
  37:..\..\..\lvgl\version_6.1.2\lvgl\src\lv_objx/lv_cont.h ****     LV_LAYOUT_CENTER, /**< Center objects */
  38:..\..\..\lvgl\version_6.1.2\lvgl\src\lv_objx/lv_cont.h ****     LV_LAYOUT_COL_L,  /**< Column left align*/
  39:..\..\..\lvgl\version_6.1.2\lvgl\src\lv_objx/lv_cont.h ****     LV_LAYOUT_COL_M,  /**< Column middle align*/
  40:..\..\..\lvgl\version_6.1.2\lvgl\src\lv_objx/lv_cont.h ****     LV_LAYOUT_COL_R,  /**< Column right align*/
  41:..\..\..\lvgl\version_6.1.2\lvgl\src\lv_objx/lv_cont.h ****     LV_LAYOUT_ROW_T,  /**< Row top align*/
  42:..\..\..\lvgl\version_6.1.2\lvgl\src\lv_objx/lv_cont.h ****     LV_LAYOUT_ROW_M,  /**< Row middle align*/
  43:..\..\..\lvgl\version_6.1.2\lvgl\src\lv_objx/lv_cont.h ****     LV_LAYOUT_ROW_B,  /**< Row bottom align*/
  44:..\..\..\lvgl\version_6.1.2\lvgl\src\lv_objx/lv_cont.h ****     LV_LAYOUT_PRETTY, /**< Put as many object as possible in row and begin a new row*/
  45:..\..\..\lvgl\version_6.1.2\lvgl\src\lv_objx/lv_cont.h ****     LV_LAYOUT_GRID,   /**< Align same-sized object into a grid*/
  46:..\..\..\lvgl\version_6.1.2\lvgl\src\lv_objx/lv_cont.h ****     _LV_LAYOUT_NUM
  47:..\..\..\lvgl\version_6.1.2\lvgl\src\lv_objx/lv_cont.h **** };
  48:..\..\..\lvgl\version_6.1.2\lvgl\src\lv_objx/lv_cont.h **** typedef uint8_t lv_layout_t;
  49:..\..\..\lvgl\version_6.1.2\lvgl\src\lv_objx/lv_cont.h **** 
  50:..\..\..\lvgl\version_6.1.2\lvgl\src\lv_objx/lv_cont.h **** /**
  51:..\..\..\lvgl\version_6.1.2\lvgl\src\lv_objx/lv_cont.h ****  * How to resize the container around the children.
  52:..\..\..\lvgl\version_6.1.2\lvgl\src\lv_objx/lv_cont.h ****  */
  53:..\..\..\lvgl\version_6.1.2\lvgl\src\lv_objx/lv_cont.h **** enum {
  54:..\..\..\lvgl\version_6.1.2\lvgl\src\lv_objx/lv_cont.h ****     LV_FIT_NONE,  /**< Do not change the size automatically*/
  55:..\..\..\lvgl\version_6.1.2\lvgl\src\lv_objx/lv_cont.h ****     LV_FIT_TIGHT, /**< Shrink wrap around the children */
  56:..\..\..\lvgl\version_6.1.2\lvgl\src\lv_objx/lv_cont.h ****     LV_FIT_FLOOD, /**< Align the size to the parent's edge*/
  57:..\..\..\lvgl\version_6.1.2\lvgl\src\lv_objx/lv_cont.h ****     LV_FIT_FILL,  /**< Align the size to the parent's edge first but if there is an object out of i
  58:..\..\..\lvgl\version_6.1.2\lvgl\src\lv_objx/lv_cont.h ****                      then get larger */
  59:..\..\..\lvgl\version_6.1.2\lvgl\src\lv_objx/lv_cont.h ****     _LV_FIT_NUM
  60:..\..\..\lvgl\version_6.1.2\lvgl\src\lv_objx/lv_cont.h **** };
  61:..\..\..\lvgl\version_6.1.2\lvgl\src\lv_objx/lv_cont.h **** typedef uint8_t lv_fit_t;
  62:..\..\..\lvgl\version_6.1.2\lvgl\src\lv_objx/lv_cont.h **** 
  63:..\..\..\lvgl\version_6.1.2\lvgl\src\lv_objx/lv_cont.h **** typedef struct
  64:..\..\..\lvgl\version_6.1.2\lvgl\src\lv_objx/lv_cont.h **** {
  65:..\..\..\lvgl\version_6.1.2\lvgl\src\lv_objx/lv_cont.h ****     /*Inherited from 'base_obj' so no inherited ext. */ /*Ext. of ancestor*/
  66:..\..\..\lvgl\version_6.1.2\lvgl\src\lv_objx/lv_cont.h ****     /*New data for this type */
  67:..\..\..\lvgl\version_6.1.2\lvgl\src\lv_objx/lv_cont.h ****     uint8_t layout : 4;     /*A layout from 'lv_layout_t' enum*/
  68:..\..\..\lvgl\version_6.1.2\lvgl\src\lv_objx/lv_cont.h ****     uint8_t fit_left : 2;   /*A fit type from `lv_fit_t` enum */
  69:..\..\..\lvgl\version_6.1.2\lvgl\src\lv_objx/lv_cont.h ****     uint8_t fit_right : 2;  /*A fit type from `lv_fit_t` enum */
  70:..\..\..\lvgl\version_6.1.2\lvgl\src\lv_objx/lv_cont.h ****     uint8_t fit_top : 2;    /*A fit type from `lv_fit_t` enum */
  71:..\..\..\lvgl\version_6.1.2\lvgl\src\lv_objx/lv_cont.h ****     uint8_t fit_bottom : 2; /*A fit type from `lv_fit_t` enum */
  72:..\..\..\lvgl\version_6.1.2\lvgl\src\lv_objx/lv_cont.h **** } lv_cont_ext_t;
  73:..\..\..\lvgl\version_6.1.2\lvgl\src\lv_objx/lv_cont.h **** 
  74:..\..\..\lvgl\version_6.1.2\lvgl\src\lv_objx/lv_cont.h **** /*Styles*/
  75:..\..\..\lvgl\version_6.1.2\lvgl\src\lv_objx/lv_cont.h **** enum {
  76:..\..\..\lvgl\version_6.1.2\lvgl\src\lv_objx/lv_cont.h ****     LV_CONT_STYLE_MAIN,
  77:..\..\..\lvgl\version_6.1.2\lvgl\src\lv_objx/lv_cont.h **** };
  78:..\..\..\lvgl\version_6.1.2\lvgl\src\lv_objx/lv_cont.h **** typedef uint8_t lv_cont_style_t;
  79:..\..\..\lvgl\version_6.1.2\lvgl\src\lv_objx/lv_cont.h **** 
  80:..\..\..\lvgl\version_6.1.2\lvgl\src\lv_objx/lv_cont.h **** /**********************
  81:..\..\..\lvgl\version_6.1.2\lvgl\src\lv_objx/lv_cont.h ****  * GLOBAL PROTOTYPES
  82:..\..\..\lvgl\version_6.1.2\lvgl\src\lv_objx/lv_cont.h ****  **********************/
  83:..\..\..\lvgl\version_6.1.2\lvgl\src\lv_objx/lv_cont.h **** 
  84:..\..\..\lvgl\version_6.1.2\lvgl\src\lv_objx/lv_cont.h **** /**
  85:..\..\..\lvgl\version_6.1.2\lvgl\src\lv_objx/lv_cont.h ****  * Create a container objects
  86:..\..\..\lvgl\version_6.1.2\lvgl\src\lv_objx/lv_cont.h ****  * @param par pointer to an object, it will be the parent of the new container
  87:..\..\..\lvgl\version_6.1.2\lvgl\src\lv_objx/lv_cont.h ****  * @param copy pointer to a container object, if not NULL then the new object will be copied from i
  88:..\..\..\lvgl\version_6.1.2\lvgl\src\lv_objx/lv_cont.h ****  * @return pointer to the created container
  89:..\..\..\lvgl\version_6.1.2\lvgl\src\lv_objx/lv_cont.h ****  */
  90:..\..\..\lvgl\version_6.1.2\lvgl\src\lv_objx/lv_cont.h **** lv_obj_t * lv_cont_create(lv_obj_t * par, const lv_obj_t * copy);
  91:..\..\..\lvgl\version_6.1.2\lvgl\src\lv_objx/lv_cont.h **** 
  92:..\..\..\lvgl\version_6.1.2\lvgl\src\lv_objx/lv_cont.h **** /*=====================
ARM GAS  C:\Users\tmj32\AppData\Local\Temp\ccI3WYuM.s 			page 10


  93:..\..\..\lvgl\version_6.1.2\lvgl\src\lv_objx/lv_cont.h ****  * Setter functions
  94:..\..\..\lvgl\version_6.1.2\lvgl\src\lv_objx/lv_cont.h ****  *====================*/
  95:..\..\..\lvgl\version_6.1.2\lvgl\src\lv_objx/lv_cont.h **** 
  96:..\..\..\lvgl\version_6.1.2\lvgl\src\lv_objx/lv_cont.h **** /**
  97:..\..\..\lvgl\version_6.1.2\lvgl\src\lv_objx/lv_cont.h ****  * Set a layout on a container
  98:..\..\..\lvgl\version_6.1.2\lvgl\src\lv_objx/lv_cont.h ****  * @param cont pointer to a container object
  99:..\..\..\lvgl\version_6.1.2\lvgl\src\lv_objx/lv_cont.h ****  * @param layout a layout from 'lv_cont_layout_t'
 100:..\..\..\lvgl\version_6.1.2\lvgl\src\lv_objx/lv_cont.h ****  */
 101:..\..\..\lvgl\version_6.1.2\lvgl\src\lv_objx/lv_cont.h **** void lv_cont_set_layout(lv_obj_t * cont, lv_layout_t layout);
 102:..\..\..\lvgl\version_6.1.2\lvgl\src\lv_objx/lv_cont.h **** 
 103:..\..\..\lvgl\version_6.1.2\lvgl\src\lv_objx/lv_cont.h **** /**
 104:..\..\..\lvgl\version_6.1.2\lvgl\src\lv_objx/lv_cont.h ****  * Set the fit policy in all 4 directions separately.
 105:..\..\..\lvgl\version_6.1.2\lvgl\src\lv_objx/lv_cont.h ****  * It tell how to change the container's size automatically.
 106:..\..\..\lvgl\version_6.1.2\lvgl\src\lv_objx/lv_cont.h ****  * @param cont pointer to a container object
 107:..\..\..\lvgl\version_6.1.2\lvgl\src\lv_objx/lv_cont.h ****  * @param left left fit policy from `lv_fit_t`
 108:..\..\..\lvgl\version_6.1.2\lvgl\src\lv_objx/lv_cont.h ****  * @param right right fit policy from `lv_fit_t`
 109:..\..\..\lvgl\version_6.1.2\lvgl\src\lv_objx/lv_cont.h ****  * @param top top fit policy from `lv_fit_t`
 110:..\..\..\lvgl\version_6.1.2\lvgl\src\lv_objx/lv_cont.h ****  * @param bottom bottom fit policy from `lv_fit_t`
 111:..\..\..\lvgl\version_6.1.2\lvgl\src\lv_objx/lv_cont.h ****  */
 112:..\..\..\lvgl\version_6.1.2\lvgl\src\lv_objx/lv_cont.h **** void lv_cont_set_fit4(lv_obj_t * cont, lv_fit_t left, lv_fit_t right, lv_fit_t top, lv_fit_t bottom
 113:..\..\..\lvgl\version_6.1.2\lvgl\src\lv_objx/lv_cont.h **** 
 114:..\..\..\lvgl\version_6.1.2\lvgl\src\lv_objx/lv_cont.h **** /**
 115:..\..\..\lvgl\version_6.1.2\lvgl\src\lv_objx/lv_cont.h ****  * Set the fit policy horizontally and vertically separately.
 116:..\..\..\lvgl\version_6.1.2\lvgl\src\lv_objx/lv_cont.h ****  * It tells how to change the container's size automatically.
 117:..\..\..\lvgl\version_6.1.2\lvgl\src\lv_objx/lv_cont.h ****  * @param cont pointer to a container object
 118:..\..\..\lvgl\version_6.1.2\lvgl\src\lv_objx/lv_cont.h ****  * @param hor horizontal fit policy from `lv_fit_t`
 119:..\..\..\lvgl\version_6.1.2\lvgl\src\lv_objx/lv_cont.h ****  * @param ver vertical fit policy from `lv_fit_t`
 120:..\..\..\lvgl\version_6.1.2\lvgl\src\lv_objx/lv_cont.h ****  */
 121:..\..\..\lvgl\version_6.1.2\lvgl\src\lv_objx/lv_cont.h **** static inline void lv_cont_set_fit2(lv_obj_t * cont, lv_fit_t hor, lv_fit_t ver)
 122:..\..\..\lvgl\version_6.1.2\lvgl\src\lv_objx/lv_cont.h **** {
 196              		.loc 3 122 0
 197              		.cfi_startproc
 198              		@ args = 0, pretend = 0, frame = 8
 199              		@ frame_needed = 1, uses_anonymous_args = 0
 200 0000 80B5     		push	{r7, lr}
 201              		.cfi_def_cfa_offset 8
 202              		.cfi_offset 7, -8
 203              		.cfi_offset 14, -4
 204 0002 84B0     		sub	sp, sp, #16
 205              		.cfi_def_cfa_offset 24
 206 0004 02AF     		add	r7, sp, #8
 207              		.cfi_def_cfa 7, 16
 208 0006 7860     		str	r0, [r7, #4]
 209 0008 0B46     		mov	r3, r1
 210 000a FB70     		strb	r3, [r7, #3]
 211 000c 1346     		mov	r3, r2
 212 000e BB70     		strb	r3, [r7, #2]
 123:..\..\..\lvgl\version_6.1.2\lvgl\src\lv_objx/lv_cont.h ****     lv_cont_set_fit4(cont, hor, hor, ver, ver);
 213              		.loc 3 123 0
 214 0010 B878     		ldrb	r0, [r7, #2]	@ zero_extendqisi2
 215 0012 FA78     		ldrb	r2, [r7, #3]	@ zero_extendqisi2
 216 0014 F978     		ldrb	r1, [r7, #3]	@ zero_extendqisi2
 217 0016 BB78     		ldrb	r3, [r7, #2]	@ zero_extendqisi2
 218 0018 0093     		str	r3, [sp]
 219 001a 0346     		mov	r3, r0
 220 001c 7868     		ldr	r0, [r7, #4]
 221 001e FFF7FEFF 		bl	lv_cont_set_fit4
ARM GAS  C:\Users\tmj32\AppData\Local\Temp\ccI3WYuM.s 			page 11


 124:..\..\..\lvgl\version_6.1.2\lvgl\src\lv_objx/lv_cont.h **** }
 222              		.loc 3 124 0
 223 0022 00BF     		nop
 224 0024 0837     		adds	r7, r7, #8
 225              		.cfi_def_cfa_offset 8
 226 0026 BD46     		mov	sp, r7
 227              		.cfi_def_cfa_register 13
 228              		@ sp needed
 229 0028 80BD     		pop	{r7, pc}
 230              		.cfi_endproc
 231              	.LFE31:
 232              		.size	lv_cont_set_fit2, .-lv_cont_set_fit2
 233 002a 00BF     		.section	.text.lv_page_set_scrl_fit2,"ax",%progbits
 234              		.align	2
 235              		.thumb
 236              		.thumb_func
 237              		.type	lv_page_set_scrl_fit2, %function
 238              	lv_page_set_scrl_fit2:
 239              	.LFB36:
 240              		.file 4 "..\\..\\..\\lvgl\\version_6.1.2\\lvgl\\src\\lv_objx\\lv_page.h"
   1:..\..\..\lvgl\version_6.1.2\lvgl\src\lv_objx/lv_page.h **** /**
   2:..\..\..\lvgl\version_6.1.2\lvgl\src\lv_objx/lv_page.h ****  * @file lv_page.h
   3:..\..\..\lvgl\version_6.1.2\lvgl\src\lv_objx/lv_page.h ****  *
   4:..\..\..\lvgl\version_6.1.2\lvgl\src\lv_objx/lv_page.h ****  */
   5:..\..\..\lvgl\version_6.1.2\lvgl\src\lv_objx/lv_page.h **** 
   6:..\..\..\lvgl\version_6.1.2\lvgl\src\lv_objx/lv_page.h **** #ifndef LV_PAGE_H
   7:..\..\..\lvgl\version_6.1.2\lvgl\src\lv_objx/lv_page.h **** #define LV_PAGE_H
   8:..\..\..\lvgl\version_6.1.2\lvgl\src\lv_objx/lv_page.h **** 
   9:..\..\..\lvgl\version_6.1.2\lvgl\src\lv_objx/lv_page.h **** #ifdef __cplusplus
  10:..\..\..\lvgl\version_6.1.2\lvgl\src\lv_objx/lv_page.h **** extern "C" {
  11:..\..\..\lvgl\version_6.1.2\lvgl\src\lv_objx/lv_page.h **** #endif
  12:..\..\..\lvgl\version_6.1.2\lvgl\src\lv_objx/lv_page.h **** 
  13:..\..\..\lvgl\version_6.1.2\lvgl\src\lv_objx/lv_page.h **** /*********************
  14:..\..\..\lvgl\version_6.1.2\lvgl\src\lv_objx/lv_page.h ****  *      INCLUDES
  15:..\..\..\lvgl\version_6.1.2\lvgl\src\lv_objx/lv_page.h ****  *********************/
  16:..\..\..\lvgl\version_6.1.2\lvgl\src\lv_objx/lv_page.h **** #ifdef LV_CONF_INCLUDE_SIMPLE
  17:..\..\..\lvgl\version_6.1.2\lvgl\src\lv_objx/lv_page.h **** #include "lv_conf.h"
  18:..\..\..\lvgl\version_6.1.2\lvgl\src\lv_objx/lv_page.h **** #else
  19:..\..\..\lvgl\version_6.1.2\lvgl\src\lv_objx/lv_page.h **** #include "../../../lv_conf.h"
  20:..\..\..\lvgl\version_6.1.2\lvgl\src\lv_objx/lv_page.h **** #endif
  21:..\..\..\lvgl\version_6.1.2\lvgl\src\lv_objx/lv_page.h **** 
  22:..\..\..\lvgl\version_6.1.2\lvgl\src\lv_objx/lv_page.h **** #if LV_USE_PAGE != 0
  23:..\..\..\lvgl\version_6.1.2\lvgl\src\lv_objx/lv_page.h **** 
  24:..\..\..\lvgl\version_6.1.2\lvgl\src\lv_objx/lv_page.h **** /*Testing of dependencies*/
  25:..\..\..\lvgl\version_6.1.2\lvgl\src\lv_objx/lv_page.h **** #if LV_USE_CONT == 0
  26:..\..\..\lvgl\version_6.1.2\lvgl\src\lv_objx/lv_page.h **** #error "lv_page: lv_cont is required. Enable it in lv_conf.h (LV_USE_CONT  1) "
  27:..\..\..\lvgl\version_6.1.2\lvgl\src\lv_objx/lv_page.h **** #endif
  28:..\..\..\lvgl\version_6.1.2\lvgl\src\lv_objx/lv_page.h **** 
  29:..\..\..\lvgl\version_6.1.2\lvgl\src\lv_objx/lv_page.h **** #include "lv_cont.h"
  30:..\..\..\lvgl\version_6.1.2\lvgl\src\lv_objx/lv_page.h **** #include "../lv_core/lv_indev.h"
  31:..\..\..\lvgl\version_6.1.2\lvgl\src\lv_objx/lv_page.h **** #include "../lv_misc/lv_anim.h"
  32:..\..\..\lvgl\version_6.1.2\lvgl\src\lv_objx/lv_page.h **** 
  33:..\..\..\lvgl\version_6.1.2\lvgl\src\lv_objx/lv_page.h **** /*********************
  34:..\..\..\lvgl\version_6.1.2\lvgl\src\lv_objx/lv_page.h ****  *      DEFINES
  35:..\..\..\lvgl\version_6.1.2\lvgl\src\lv_objx/lv_page.h ****  *********************/
  36:..\..\..\lvgl\version_6.1.2\lvgl\src\lv_objx/lv_page.h **** 
  37:..\..\..\lvgl\version_6.1.2\lvgl\src\lv_objx/lv_page.h **** /**********************
ARM GAS  C:\Users\tmj32\AppData\Local\Temp\ccI3WYuM.s 			page 12


  38:..\..\..\lvgl\version_6.1.2\lvgl\src\lv_objx/lv_page.h ****  *      TYPEDEFS
  39:..\..\..\lvgl\version_6.1.2\lvgl\src\lv_objx/lv_page.h ****  **********************/
  40:..\..\..\lvgl\version_6.1.2\lvgl\src\lv_objx/lv_page.h **** 
  41:..\..\..\lvgl\version_6.1.2\lvgl\src\lv_objx/lv_page.h **** /** Scrollbar modes: shows when should the scrollbars be visible*/
  42:..\..\..\lvgl\version_6.1.2\lvgl\src\lv_objx/lv_page.h **** enum {
  43:..\..\..\lvgl\version_6.1.2\lvgl\src\lv_objx/lv_page.h ****     LV_SB_MODE_OFF    = 0x0, /**< Never show scrollbars*/
  44:..\..\..\lvgl\version_6.1.2\lvgl\src\lv_objx/lv_page.h ****     LV_SB_MODE_ON     = 0x1, /**< Always show scrollbars*/
  45:..\..\..\lvgl\version_6.1.2\lvgl\src\lv_objx/lv_page.h ****     LV_SB_MODE_DRAG   = 0x2, /**< Show scrollbars when page is being dragged*/
  46:..\..\..\lvgl\version_6.1.2\lvgl\src\lv_objx/lv_page.h ****     LV_SB_MODE_AUTO   = 0x3, /**< Show scrollbars when the scrollable container is large enough to 
  47:..\..\..\lvgl\version_6.1.2\lvgl\src\lv_objx/lv_page.h ****     LV_SB_MODE_HIDE   = 0x4, /**< Hide the scroll bar temporally*/
  48:..\..\..\lvgl\version_6.1.2\lvgl\src\lv_objx/lv_page.h ****     LV_SB_MODE_UNHIDE = 0x5, /**< Unhide the previously hidden scrollbar. Recover it's type too*/
  49:..\..\..\lvgl\version_6.1.2\lvgl\src\lv_objx/lv_page.h **** };
  50:..\..\..\lvgl\version_6.1.2\lvgl\src\lv_objx/lv_page.h **** typedef uint8_t lv_sb_mode_t;
  51:..\..\..\lvgl\version_6.1.2\lvgl\src\lv_objx/lv_page.h **** 
  52:..\..\..\lvgl\version_6.1.2\lvgl\src\lv_objx/lv_page.h **** /** Edges: describes the four edges of the page*/
  53:..\..\..\lvgl\version_6.1.2\lvgl\src\lv_objx/lv_page.h **** enum { LV_PAGE_EDGE_LEFT = 0x1, LV_PAGE_EDGE_TOP = 0x2, LV_PAGE_EDGE_RIGHT = 0x4, LV_PAGE_EDGE_BOTT
  54:..\..\..\lvgl\version_6.1.2\lvgl\src\lv_objx/lv_page.h **** typedef uint8_t lv_page_edge_t;
  55:..\..\..\lvgl\version_6.1.2\lvgl\src\lv_objx/lv_page.h **** 
  56:..\..\..\lvgl\version_6.1.2\lvgl\src\lv_objx/lv_page.h **** /*Data of page*/
  57:..\..\..\lvgl\version_6.1.2\lvgl\src\lv_objx/lv_page.h **** typedef struct
  58:..\..\..\lvgl\version_6.1.2\lvgl\src\lv_objx/lv_page.h **** {
  59:..\..\..\lvgl\version_6.1.2\lvgl\src\lv_objx/lv_page.h ****     lv_cont_ext_t bg; /*Ext. of ancestor*/
  60:..\..\..\lvgl\version_6.1.2\lvgl\src\lv_objx/lv_page.h ****     /*New data for this type */
  61:..\..\..\lvgl\version_6.1.2\lvgl\src\lv_objx/lv_page.h ****     lv_obj_t * scrl; /*The scrollable object on the background*/
  62:..\..\..\lvgl\version_6.1.2\lvgl\src\lv_objx/lv_page.h ****     struct
  63:..\..\..\lvgl\version_6.1.2\lvgl\src\lv_objx/lv_page.h ****     {
  64:..\..\..\lvgl\version_6.1.2\lvgl\src\lv_objx/lv_page.h ****         const lv_style_t * style; /*Style of scrollbars*/
  65:..\..\..\lvgl\version_6.1.2\lvgl\src\lv_objx/lv_page.h ****         lv_area_t hor_area;       /*Horizontal scrollbar area relative to the page. (Handled by the
  66:..\..\..\lvgl\version_6.1.2\lvgl\src\lv_objx/lv_page.h ****         lv_area_t ver_area;       /*Vertical scrollbar area relative to the page (Handled by the li
  67:..\..\..\lvgl\version_6.1.2\lvgl\src\lv_objx/lv_page.h ****         uint8_t hor_draw : 1;     /*1: horizontal scrollbar is visible now (Handled by the library)
  68:..\..\..\lvgl\version_6.1.2\lvgl\src\lv_objx/lv_page.h ****         uint8_t ver_draw : 1;     /*1: vertical scrollbar is visible now (Handled by the library)*/
  69:..\..\..\lvgl\version_6.1.2\lvgl\src\lv_objx/lv_page.h ****         lv_sb_mode_t mode : 3;    /*Scrollbar visibility from 'lv_page_sb_mode_t'*/
  70:..\..\..\lvgl\version_6.1.2\lvgl\src\lv_objx/lv_page.h ****     } sb;
  71:..\..\..\lvgl\version_6.1.2\lvgl\src\lv_objx/lv_page.h **** #if LV_USE_ANIMATION
  72:..\..\..\lvgl\version_6.1.2\lvgl\src\lv_objx/lv_page.h ****     struct
  73:..\..\..\lvgl\version_6.1.2\lvgl\src\lv_objx/lv_page.h ****     {
  74:..\..\..\lvgl\version_6.1.2\lvgl\src\lv_objx/lv_page.h ****         lv_anim_value_t state;    /*Store the current size of the edge flash effect*/
  75:..\..\..\lvgl\version_6.1.2\lvgl\src\lv_objx/lv_page.h ****         const lv_style_t * style; /*Style of edge flash effect (usually homogeneous circle)*/
  76:..\..\..\lvgl\version_6.1.2\lvgl\src\lv_objx/lv_page.h ****         uint8_t enabled : 1;      /*1: Show a flash animation on the edge*/
  77:..\..\..\lvgl\version_6.1.2\lvgl\src\lv_objx/lv_page.h ****         uint8_t top_ip : 1;       /*Used internally to show that top most position is reached (flas
  78:..\..\..\lvgl\version_6.1.2\lvgl\src\lv_objx/lv_page.h ****                                      Progress)*/
  79:..\..\..\lvgl\version_6.1.2\lvgl\src\lv_objx/lv_page.h ****         uint8_t bottom_ip : 1;    /*Used internally to show that bottom most position is reached (f
  80:..\..\..\lvgl\version_6.1.2\lvgl\src\lv_objx/lv_page.h ****                                      is In Progress)*/
  81:..\..\..\lvgl\version_6.1.2\lvgl\src\lv_objx/lv_page.h ****         uint8_t right_ip : 1;     /*Used internally to show that right most position is reached (fl
  82:..\..\..\lvgl\version_6.1.2\lvgl\src\lv_objx/lv_page.h ****                                      is In Progress)*/
  83:..\..\..\lvgl\version_6.1.2\lvgl\src\lv_objx/lv_page.h ****         uint8_t left_ip : 1;      /*Used internally to show that left most position is reached (fla
  84:..\..\..\lvgl\version_6.1.2\lvgl\src\lv_objx/lv_page.h ****                                      In Progress)*/
  85:..\..\..\lvgl\version_6.1.2\lvgl\src\lv_objx/lv_page.h ****     } edge_flash;
  86:..\..\..\lvgl\version_6.1.2\lvgl\src\lv_objx/lv_page.h **** 
  87:..\..\..\lvgl\version_6.1.2\lvgl\src\lv_objx/lv_page.h ****     uint16_t anim_time; /*Scroll animation time*/
  88:..\..\..\lvgl\version_6.1.2\lvgl\src\lv_objx/lv_page.h **** #endif
  89:..\..\..\lvgl\version_6.1.2\lvgl\src\lv_objx/lv_page.h **** 
  90:..\..\..\lvgl\version_6.1.2\lvgl\src\lv_objx/lv_page.h ****     uint8_t scroll_prop : 1;    /*1: Propagate the scrolling the the parent if the edge is reached*
  91:..\..\..\lvgl\version_6.1.2\lvgl\src\lv_objx/lv_page.h ****     uint8_t scroll_prop_ip : 1; /*1: Scroll propagation is in progress (used by the library)*/
  92:..\..\..\lvgl\version_6.1.2\lvgl\src\lv_objx/lv_page.h **** } lv_page_ext_t;
  93:..\..\..\lvgl\version_6.1.2\lvgl\src\lv_objx/lv_page.h **** 
  94:..\..\..\lvgl\version_6.1.2\lvgl\src\lv_objx/lv_page.h **** enum {
ARM GAS  C:\Users\tmj32\AppData\Local\Temp\ccI3WYuM.s 			page 13


  95:..\..\..\lvgl\version_6.1.2\lvgl\src\lv_objx/lv_page.h ****     LV_PAGE_STYLE_BG,
  96:..\..\..\lvgl\version_6.1.2\lvgl\src\lv_objx/lv_page.h ****     LV_PAGE_STYLE_SCRL,
  97:..\..\..\lvgl\version_6.1.2\lvgl\src\lv_objx/lv_page.h ****     LV_PAGE_STYLE_SB,
  98:..\..\..\lvgl\version_6.1.2\lvgl\src\lv_objx/lv_page.h ****     LV_PAGE_STYLE_EDGE_FLASH,
  99:..\..\..\lvgl\version_6.1.2\lvgl\src\lv_objx/lv_page.h **** };
 100:..\..\..\lvgl\version_6.1.2\lvgl\src\lv_objx/lv_page.h **** typedef uint8_t lv_page_style_t;
 101:..\..\..\lvgl\version_6.1.2\lvgl\src\lv_objx/lv_page.h **** 
 102:..\..\..\lvgl\version_6.1.2\lvgl\src\lv_objx/lv_page.h **** /**********************
 103:..\..\..\lvgl\version_6.1.2\lvgl\src\lv_objx/lv_page.h ****  * GLOBAL PROTOTYPES
 104:..\..\..\lvgl\version_6.1.2\lvgl\src\lv_objx/lv_page.h ****  **********************/
 105:..\..\..\lvgl\version_6.1.2\lvgl\src\lv_objx/lv_page.h **** 
 106:..\..\..\lvgl\version_6.1.2\lvgl\src\lv_objx/lv_page.h **** /**
 107:..\..\..\lvgl\version_6.1.2\lvgl\src\lv_objx/lv_page.h ****  * Create a page objects
 108:..\..\..\lvgl\version_6.1.2\lvgl\src\lv_objx/lv_page.h ****  * @param par pointer to an object, it will be the parent of the new page
 109:..\..\..\lvgl\version_6.1.2\lvgl\src\lv_objx/lv_page.h ****  * @param copy pointer to a page object, if not NULL then the new object will be copied from it
 110:..\..\..\lvgl\version_6.1.2\lvgl\src\lv_objx/lv_page.h ****  * @return pointer to the created page
 111:..\..\..\lvgl\version_6.1.2\lvgl\src\lv_objx/lv_page.h ****  */
 112:..\..\..\lvgl\version_6.1.2\lvgl\src\lv_objx/lv_page.h **** lv_obj_t * lv_page_create(lv_obj_t * par, const lv_obj_t * copy);
 113:..\..\..\lvgl\version_6.1.2\lvgl\src\lv_objx/lv_page.h **** 
 114:..\..\..\lvgl\version_6.1.2\lvgl\src\lv_objx/lv_page.h **** /**
 115:..\..\..\lvgl\version_6.1.2\lvgl\src\lv_objx/lv_page.h ****  * Delete all children of the scrl object, without deleting scrl child.
 116:..\..\..\lvgl\version_6.1.2\lvgl\src\lv_objx/lv_page.h ****  * @param page pointer to an object
 117:..\..\..\lvgl\version_6.1.2\lvgl\src\lv_objx/lv_page.h ****  */
 118:..\..\..\lvgl\version_6.1.2\lvgl\src\lv_objx/lv_page.h **** void lv_page_clean(lv_obj_t * page);
 119:..\..\..\lvgl\version_6.1.2\lvgl\src\lv_objx/lv_page.h **** 
 120:..\..\..\lvgl\version_6.1.2\lvgl\src\lv_objx/lv_page.h **** /**
 121:..\..\..\lvgl\version_6.1.2\lvgl\src\lv_objx/lv_page.h ****  * Get the scrollable object of a page
 122:..\..\..\lvgl\version_6.1.2\lvgl\src\lv_objx/lv_page.h ****  * @param page pointer to a page object
 123:..\..\..\lvgl\version_6.1.2\lvgl\src\lv_objx/lv_page.h ****  * @return pointer to a container which is the scrollable part of the page
 124:..\..\..\lvgl\version_6.1.2\lvgl\src\lv_objx/lv_page.h ****  */
 125:..\..\..\lvgl\version_6.1.2\lvgl\src\lv_objx/lv_page.h **** lv_obj_t * lv_page_get_scrl(const lv_obj_t * page);
 126:..\..\..\lvgl\version_6.1.2\lvgl\src\lv_objx/lv_page.h **** 
 127:..\..\..\lvgl\version_6.1.2\lvgl\src\lv_objx/lv_page.h **** /**
 128:..\..\..\lvgl\version_6.1.2\lvgl\src\lv_objx/lv_page.h ****  * Get the animation time
 129:..\..\..\lvgl\version_6.1.2\lvgl\src\lv_objx/lv_page.h ****  * @param page pointer to a page object
 130:..\..\..\lvgl\version_6.1.2\lvgl\src\lv_objx/lv_page.h ****  * @return the animation time in milliseconds
 131:..\..\..\lvgl\version_6.1.2\lvgl\src\lv_objx/lv_page.h ****  */
 132:..\..\..\lvgl\version_6.1.2\lvgl\src\lv_objx/lv_page.h **** uint16_t lv_page_get_anim_time(const lv_obj_t * page);
 133:..\..\..\lvgl\version_6.1.2\lvgl\src\lv_objx/lv_page.h **** 
 134:..\..\..\lvgl\version_6.1.2\lvgl\src\lv_objx/lv_page.h **** /*=====================
 135:..\..\..\lvgl\version_6.1.2\lvgl\src\lv_objx/lv_page.h ****  * Setter functions
 136:..\..\..\lvgl\version_6.1.2\lvgl\src\lv_objx/lv_page.h ****  *====================*/
 137:..\..\..\lvgl\version_6.1.2\lvgl\src\lv_objx/lv_page.h **** 
 138:..\..\..\lvgl\version_6.1.2\lvgl\src\lv_objx/lv_page.h **** /**
 139:..\..\..\lvgl\version_6.1.2\lvgl\src\lv_objx/lv_page.h ****  * Set the scroll bar mode on a page
 140:..\..\..\lvgl\version_6.1.2\lvgl\src\lv_objx/lv_page.h ****  * @param page pointer to a page object
 141:..\..\..\lvgl\version_6.1.2\lvgl\src\lv_objx/lv_page.h ****  * @param sb_mode the new mode from 'lv_page_sb.mode_t' enum
 142:..\..\..\lvgl\version_6.1.2\lvgl\src\lv_objx/lv_page.h ****  */
 143:..\..\..\lvgl\version_6.1.2\lvgl\src\lv_objx/lv_page.h **** void lv_page_set_sb_mode(lv_obj_t * page, lv_sb_mode_t sb_mode);
 144:..\..\..\lvgl\version_6.1.2\lvgl\src\lv_objx/lv_page.h **** 
 145:..\..\..\lvgl\version_6.1.2\lvgl\src\lv_objx/lv_page.h **** /**
 146:..\..\..\lvgl\version_6.1.2\lvgl\src\lv_objx/lv_page.h ****  * Set the animation time for the page
 147:..\..\..\lvgl\version_6.1.2\lvgl\src\lv_objx/lv_page.h ****  * @param page pointer to a page object
 148:..\..\..\lvgl\version_6.1.2\lvgl\src\lv_objx/lv_page.h ****  * @param anim_time animation time in milliseconds
 149:..\..\..\lvgl\version_6.1.2\lvgl\src\lv_objx/lv_page.h ****  */
 150:..\..\..\lvgl\version_6.1.2\lvgl\src\lv_objx/lv_page.h **** void lv_page_set_anim_time(lv_obj_t * page, uint16_t anim_time);
 151:..\..\..\lvgl\version_6.1.2\lvgl\src\lv_objx/lv_page.h **** 
ARM GAS  C:\Users\tmj32\AppData\Local\Temp\ccI3WYuM.s 			page 14


 152:..\..\..\lvgl\version_6.1.2\lvgl\src\lv_objx/lv_page.h **** /**
 153:..\..\..\lvgl\version_6.1.2\lvgl\src\lv_objx/lv_page.h ****  * Enable the scroll propagation feature. If enabled then the page will move its parent if there is
 154:..\..\..\lvgl\version_6.1.2\lvgl\src\lv_objx/lv_page.h ****  * no more space to scroll.
 155:..\..\..\lvgl\version_6.1.2\lvgl\src\lv_objx/lv_page.h ****  * @param page pointer to a Page
 156:..\..\..\lvgl\version_6.1.2\lvgl\src\lv_objx/lv_page.h ****  * @param en true or false to enable/disable scroll propagation
 157:..\..\..\lvgl\version_6.1.2\lvgl\src\lv_objx/lv_page.h ****  */
 158:..\..\..\lvgl\version_6.1.2\lvgl\src\lv_objx/lv_page.h **** void lv_page_set_scroll_propagation(lv_obj_t * page, bool en);
 159:..\..\..\lvgl\version_6.1.2\lvgl\src\lv_objx/lv_page.h **** 
 160:..\..\..\lvgl\version_6.1.2\lvgl\src\lv_objx/lv_page.h **** /**
 161:..\..\..\lvgl\version_6.1.2\lvgl\src\lv_objx/lv_page.h ****  * Enable the edge flash effect. (Show an arc when the an edge is reached)
 162:..\..\..\lvgl\version_6.1.2\lvgl\src\lv_objx/lv_page.h ****  * @param page pointer to a Page
 163:..\..\..\lvgl\version_6.1.2\lvgl\src\lv_objx/lv_page.h ****  * @param en true or false to enable/disable end flash
 164:..\..\..\lvgl\version_6.1.2\lvgl\src\lv_objx/lv_page.h ****  */
 165:..\..\..\lvgl\version_6.1.2\lvgl\src\lv_objx/lv_page.h **** void lv_page_set_edge_flash(lv_obj_t * page, bool en);
 166:..\..\..\lvgl\version_6.1.2\lvgl\src\lv_objx/lv_page.h **** 
 167:..\..\..\lvgl\version_6.1.2\lvgl\src\lv_objx/lv_page.h **** /**
 168:..\..\..\lvgl\version_6.1.2\lvgl\src\lv_objx/lv_page.h ****  * Set the fit policy in all 4 directions separately.
 169:..\..\..\lvgl\version_6.1.2\lvgl\src\lv_objx/lv_page.h ****  * It tell how to change the page size automatically.
 170:..\..\..\lvgl\version_6.1.2\lvgl\src\lv_objx/lv_page.h ****  * @param page pointer to a page object
 171:..\..\..\lvgl\version_6.1.2\lvgl\src\lv_objx/lv_page.h ****  * @param left left fit policy from `lv_fit_t`
 172:..\..\..\lvgl\version_6.1.2\lvgl\src\lv_objx/lv_page.h ****  * @param right right fit policy from `lv_fit_t`
 173:..\..\..\lvgl\version_6.1.2\lvgl\src\lv_objx/lv_page.h ****  * @param top bottom fit policy from `lv_fit_t`
 174:..\..\..\lvgl\version_6.1.2\lvgl\src\lv_objx/lv_page.h ****  * @param bottom bottom fit policy from `lv_fit_t`
 175:..\..\..\lvgl\version_6.1.2\lvgl\src\lv_objx/lv_page.h ****  */
 176:..\..\..\lvgl\version_6.1.2\lvgl\src\lv_objx/lv_page.h **** static inline void lv_page_set_scrl_fit4(lv_obj_t * page, lv_fit_t left, lv_fit_t right, lv_fit_t t
 177:..\..\..\lvgl\version_6.1.2\lvgl\src\lv_objx/lv_page.h **** {
 178:..\..\..\lvgl\version_6.1.2\lvgl\src\lv_objx/lv_page.h ****     lv_cont_set_fit4(lv_page_get_scrl(page), left, right, top, bottom);
 179:..\..\..\lvgl\version_6.1.2\lvgl\src\lv_objx/lv_page.h **** }
 180:..\..\..\lvgl\version_6.1.2\lvgl\src\lv_objx/lv_page.h **** 
 181:..\..\..\lvgl\version_6.1.2\lvgl\src\lv_objx/lv_page.h **** /**
 182:..\..\..\lvgl\version_6.1.2\lvgl\src\lv_objx/lv_page.h ****  * Set the fit policy horizontally and vertically separately.
 183:..\..\..\lvgl\version_6.1.2\lvgl\src\lv_objx/lv_page.h ****  * It tell how to change the page size automatically.
 184:..\..\..\lvgl\version_6.1.2\lvgl\src\lv_objx/lv_page.h ****  * @param page pointer to a page object
 185:..\..\..\lvgl\version_6.1.2\lvgl\src\lv_objx/lv_page.h ****  * @param hot horizontal fit policy from `lv_fit_t`
 186:..\..\..\lvgl\version_6.1.2\lvgl\src\lv_objx/lv_page.h ****  * @param ver vertical fit policy from `lv_fit_t`
 187:..\..\..\lvgl\version_6.1.2\lvgl\src\lv_objx/lv_page.h ****  */
 188:..\..\..\lvgl\version_6.1.2\lvgl\src\lv_objx/lv_page.h **** static inline void lv_page_set_scrl_fit2(lv_obj_t * page, lv_fit_t hor, lv_fit_t ver)
 189:..\..\..\lvgl\version_6.1.2\lvgl\src\lv_objx/lv_page.h **** {
 241              		.loc 4 189 0
 242              		.cfi_startproc
 243              		@ args = 0, pretend = 0, frame = 8
 244              		@ frame_needed = 1, uses_anonymous_args = 0
 245 0000 80B5     		push	{r7, lr}
 246              		.cfi_def_cfa_offset 8
 247              		.cfi_offset 7, -8
 248              		.cfi_offset 14, -4
 249 0002 82B0     		sub	sp, sp, #8
 250              		.cfi_def_cfa_offset 16
 251 0004 00AF     		add	r7, sp, #0
 252              		.cfi_def_cfa_register 7
 253 0006 7860     		str	r0, [r7, #4]
 254 0008 0B46     		mov	r3, r1
 255 000a FB70     		strb	r3, [r7, #3]
 256 000c 1346     		mov	r3, r2
 257 000e BB70     		strb	r3, [r7, #2]
 190:..\..\..\lvgl\version_6.1.2\lvgl\src\lv_objx/lv_page.h ****     lv_cont_set_fit2(lv_page_get_scrl(page), hor, ver);
 258              		.loc 4 190 0
ARM GAS  C:\Users\tmj32\AppData\Local\Temp\ccI3WYuM.s 			page 15


 259 0010 7868     		ldr	r0, [r7, #4]
 260 0012 FFF7FEFF 		bl	lv_page_get_scrl
 261 0016 BA78     		ldrb	r2, [r7, #2]	@ zero_extendqisi2
 262 0018 FB78     		ldrb	r3, [r7, #3]	@ zero_extendqisi2
 263 001a 1946     		mov	r1, r3
 264 001c FFF7FEFF 		bl	lv_cont_set_fit2
 191:..\..\..\lvgl\version_6.1.2\lvgl\src\lv_objx/lv_page.h **** }
 265              		.loc 4 191 0
 266 0020 00BF     		nop
 267 0022 0837     		adds	r7, r7, #8
 268              		.cfi_def_cfa_offset 8
 269 0024 BD46     		mov	sp, r7
 270              		.cfi_def_cfa_register 13
 271              		@ sp needed
 272 0026 80BD     		pop	{r7, pc}
 273              		.cfi_endproc
 274              	.LFE36:
 275              		.size	lv_page_set_scrl_fit2, .-lv_page_set_scrl_fit2
 276              		.section	.text.lv_label_set_style,"ax",%progbits
 277              		.align	2
 278              		.thumb
 279              		.thumb_func
 280              		.type	lv_label_set_style, %function
 281              	lv_label_set_style:
 282              	.LFB48:
 283              		.file 5 "..\\..\\..\\lvgl\\version_6.1.2\\lvgl\\src\\lv_objx\\lv_label.h"
   1:..\..\..\lvgl\version_6.1.2\lvgl\src\lv_objx/lv_label.h **** /**
   2:..\..\..\lvgl\version_6.1.2\lvgl\src\lv_objx/lv_label.h ****  * @file lv_rect.h
   3:..\..\..\lvgl\version_6.1.2\lvgl\src\lv_objx/lv_label.h ****  *
   4:..\..\..\lvgl\version_6.1.2\lvgl\src\lv_objx/lv_label.h ****  */
   5:..\..\..\lvgl\version_6.1.2\lvgl\src\lv_objx/lv_label.h **** 
   6:..\..\..\lvgl\version_6.1.2\lvgl\src\lv_objx/lv_label.h **** #ifndef LV_LABEL_H
   7:..\..\..\lvgl\version_6.1.2\lvgl\src\lv_objx/lv_label.h **** #define LV_LABEL_H
   8:..\..\..\lvgl\version_6.1.2\lvgl\src\lv_objx/lv_label.h **** 
   9:..\..\..\lvgl\version_6.1.2\lvgl\src\lv_objx/lv_label.h **** #ifdef __cplusplus
  10:..\..\..\lvgl\version_6.1.2\lvgl\src\lv_objx/lv_label.h **** extern "C" {
  11:..\..\..\lvgl\version_6.1.2\lvgl\src\lv_objx/lv_label.h **** #endif
  12:..\..\..\lvgl\version_6.1.2\lvgl\src\lv_objx/lv_label.h **** 
  13:..\..\..\lvgl\version_6.1.2\lvgl\src\lv_objx/lv_label.h **** /*********************
  14:..\..\..\lvgl\version_6.1.2\lvgl\src\lv_objx/lv_label.h ****  *      INCLUDES
  15:..\..\..\lvgl\version_6.1.2\lvgl\src\lv_objx/lv_label.h ****  *********************/
  16:..\..\..\lvgl\version_6.1.2\lvgl\src\lv_objx/lv_label.h **** #ifdef LV_CONF_INCLUDE_SIMPLE
  17:..\..\..\lvgl\version_6.1.2\lvgl\src\lv_objx/lv_label.h **** #include "lv_conf.h"
  18:..\..\..\lvgl\version_6.1.2\lvgl\src\lv_objx/lv_label.h **** #else
  19:..\..\..\lvgl\version_6.1.2\lvgl\src\lv_objx/lv_label.h **** #include "../../../lv_conf.h"
  20:..\..\..\lvgl\version_6.1.2\lvgl\src\lv_objx/lv_label.h **** #endif
  21:..\..\..\lvgl\version_6.1.2\lvgl\src\lv_objx/lv_label.h **** 
  22:..\..\..\lvgl\version_6.1.2\lvgl\src\lv_objx/lv_label.h **** #if LV_USE_LABEL != 0
  23:..\..\..\lvgl\version_6.1.2\lvgl\src\lv_objx/lv_label.h **** 
  24:..\..\..\lvgl\version_6.1.2\lvgl\src\lv_objx/lv_label.h **** #include <stdarg.h>
  25:..\..\..\lvgl\version_6.1.2\lvgl\src\lv_objx/lv_label.h **** #include "../lv_core/lv_obj.h"
  26:..\..\..\lvgl\version_6.1.2\lvgl\src\lv_objx/lv_label.h **** #include "../lv_font/lv_font.h"
  27:..\..\..\lvgl\version_6.1.2\lvgl\src\lv_objx/lv_label.h **** #include "../lv_font/lv_symbol_def.h"
  28:..\..\..\lvgl\version_6.1.2\lvgl\src\lv_objx/lv_label.h **** #include "../lv_misc/lv_txt.h"
  29:..\..\..\lvgl\version_6.1.2\lvgl\src\lv_objx/lv_label.h **** #include "../lv_draw/lv_draw.h"
  30:..\..\..\lvgl\version_6.1.2\lvgl\src\lv_objx/lv_label.h **** 
  31:..\..\..\lvgl\version_6.1.2\lvgl\src\lv_objx/lv_label.h **** /*********************
ARM GAS  C:\Users\tmj32\AppData\Local\Temp\ccI3WYuM.s 			page 16


  32:..\..\..\lvgl\version_6.1.2\lvgl\src\lv_objx/lv_label.h ****  *      DEFINES
  33:..\..\..\lvgl\version_6.1.2\lvgl\src\lv_objx/lv_label.h ****  *********************/
  34:..\..\..\lvgl\version_6.1.2\lvgl\src\lv_objx/lv_label.h **** #define LV_LABEL_DOT_NUM 3
  35:..\..\..\lvgl\version_6.1.2\lvgl\src\lv_objx/lv_label.h **** #define LV_LABEL_POS_LAST 0xFFFF
  36:..\..\..\lvgl\version_6.1.2\lvgl\src\lv_objx/lv_label.h **** #define LV_LABEL_TEXT_SEL_OFF LV_DRAW_LABEL_NO_TXT_SEL
  37:..\..\..\lvgl\version_6.1.2\lvgl\src\lv_objx/lv_label.h **** 
  38:..\..\..\lvgl\version_6.1.2\lvgl\src\lv_objx/lv_label.h **** LV_EXPORT_CONST_INT(LV_LABEL_DOT_NUM);
  39:..\..\..\lvgl\version_6.1.2\lvgl\src\lv_objx/lv_label.h **** LV_EXPORT_CONST_INT(LV_LABEL_POS_LAST);
  40:..\..\..\lvgl\version_6.1.2\lvgl\src\lv_objx/lv_label.h **** LV_EXPORT_CONST_INT(LV_LABEL_TEXT_SEL_OFF);
  41:..\..\..\lvgl\version_6.1.2\lvgl\src\lv_objx/lv_label.h **** 
  42:..\..\..\lvgl\version_6.1.2\lvgl\src\lv_objx/lv_label.h **** /**********************
  43:..\..\..\lvgl\version_6.1.2\lvgl\src\lv_objx/lv_label.h ****  *      TYPEDEFS
  44:..\..\..\lvgl\version_6.1.2\lvgl\src\lv_objx/lv_label.h ****  **********************/
  45:..\..\..\lvgl\version_6.1.2\lvgl\src\lv_objx/lv_label.h **** 
  46:..\..\..\lvgl\version_6.1.2\lvgl\src\lv_objx/lv_label.h **** /** Long mode behaviors. Used in 'lv_label_ext_t' */
  47:..\..\..\lvgl\version_6.1.2\lvgl\src\lv_objx/lv_label.h **** enum {
  48:..\..\..\lvgl\version_6.1.2\lvgl\src\lv_objx/lv_label.h ****     LV_LABEL_LONG_EXPAND,    /**< Expand the object size to the text size*/
  49:..\..\..\lvgl\version_6.1.2\lvgl\src\lv_objx/lv_label.h ****     LV_LABEL_LONG_BREAK,     /**< Keep the object width, break the too long lines and expand the ob
  50:..\..\..\lvgl\version_6.1.2\lvgl\src\lv_objx/lv_label.h ****                                 height*/
  51:..\..\..\lvgl\version_6.1.2\lvgl\src\lv_objx/lv_label.h ****     LV_LABEL_LONG_DOT,       /**< Keep the size and write dots at the end if the text is too long*/
  52:..\..\..\lvgl\version_6.1.2\lvgl\src\lv_objx/lv_label.h ****     LV_LABEL_LONG_SROLL,      /**< Keep the size and roll the text back and forth*/
  53:..\..\..\lvgl\version_6.1.2\lvgl\src\lv_objx/lv_label.h ****     LV_LABEL_LONG_SROLL_CIRC, /**< Keep the size and roll the text circularly*/
  54:..\..\..\lvgl\version_6.1.2\lvgl\src\lv_objx/lv_label.h ****     LV_LABEL_LONG_CROP,      /**< Keep the size and crop the text out of it*/
  55:..\..\..\lvgl\version_6.1.2\lvgl\src\lv_objx/lv_label.h **** };
  56:..\..\..\lvgl\version_6.1.2\lvgl\src\lv_objx/lv_label.h **** typedef uint8_t lv_label_long_mode_t;
  57:..\..\..\lvgl\version_6.1.2\lvgl\src\lv_objx/lv_label.h **** 
  58:..\..\..\lvgl\version_6.1.2\lvgl\src\lv_objx/lv_label.h **** /** Label align policy*/
  59:..\..\..\lvgl\version_6.1.2\lvgl\src\lv_objx/lv_label.h **** enum {
  60:..\..\..\lvgl\version_6.1.2\lvgl\src\lv_objx/lv_label.h ****     LV_LABEL_ALIGN_LEFT, /**< Align text to left */
  61:..\..\..\lvgl\version_6.1.2\lvgl\src\lv_objx/lv_label.h ****     LV_LABEL_ALIGN_CENTER, /**< Align text to center */
  62:..\..\..\lvgl\version_6.1.2\lvgl\src\lv_objx/lv_label.h ****     LV_LABEL_ALIGN_RIGHT, /**< Align text to right */
  63:..\..\..\lvgl\version_6.1.2\lvgl\src\lv_objx/lv_label.h ****     LV_LABEL_ALIGN_AUTO, /**< Use LEFT or RIGHT depending on the direction of the text (LTR/RTL)*/
  64:..\..\..\lvgl\version_6.1.2\lvgl\src\lv_objx/lv_label.h **** };
  65:..\..\..\lvgl\version_6.1.2\lvgl\src\lv_objx/lv_label.h **** typedef uint8_t lv_label_align_t;
  66:..\..\..\lvgl\version_6.1.2\lvgl\src\lv_objx/lv_label.h **** 
  67:..\..\..\lvgl\version_6.1.2\lvgl\src\lv_objx/lv_label.h **** /** Data of label*/
  68:..\..\..\lvgl\version_6.1.2\lvgl\src\lv_objx/lv_label.h **** typedef struct
  69:..\..\..\lvgl\version_6.1.2\lvgl\src\lv_objx/lv_label.h **** {
  70:..\..\..\lvgl\version_6.1.2\lvgl\src\lv_objx/lv_label.h ****     /*Inherited from 'base_obj' so no inherited ext.*/ /*Ext. of ancestor*/
  71:..\..\..\lvgl\version_6.1.2\lvgl\src\lv_objx/lv_label.h ****     /*New data for this type */
  72:..\..\..\lvgl\version_6.1.2\lvgl\src\lv_objx/lv_label.h ****     char * text;        /*Text of the label*/
  73:..\..\..\lvgl\version_6.1.2\lvgl\src\lv_objx/lv_label.h **** 
  74:..\..\..\lvgl\version_6.1.2\lvgl\src\lv_objx/lv_label.h ****     union
  75:..\..\..\lvgl\version_6.1.2\lvgl\src\lv_objx/lv_label.h ****     {
  76:..\..\..\lvgl\version_6.1.2\lvgl\src\lv_objx/lv_label.h ****         char * tmp_ptr; /* Pointer to the allocated memory containing the character which are repla
  77:..\..\..\lvgl\version_6.1.2\lvgl\src\lv_objx/lv_label.h ****                            by the library)*/
  78:..\..\..\lvgl\version_6.1.2\lvgl\src\lv_objx/lv_label.h ****         char tmp[LV_LABEL_DOT_NUM + 1]; /* Directly store the characters if <=4 characters */
  79:..\..\..\lvgl\version_6.1.2\lvgl\src\lv_objx/lv_label.h ****     } dot;
  80:..\..\..\lvgl\version_6.1.2\lvgl\src\lv_objx/lv_label.h ****     uint16_t dot_end;  /*The text end position in dot mode (Handled by the library)*/
  81:..\..\..\lvgl\version_6.1.2\lvgl\src\lv_objx/lv_label.h ****     lv_point_t offset; /*Text draw position offset*/
  82:..\..\..\lvgl\version_6.1.2\lvgl\src\lv_objx/lv_label.h **** #if LV_LABEL_LONG_TXT_HINT
  83:..\..\..\lvgl\version_6.1.2\lvgl\src\lv_objx/lv_label.h ****     lv_draw_label_hint_t hint; /*Used to buffer info about large text*/
  84:..\..\..\lvgl\version_6.1.2\lvgl\src\lv_objx/lv_label.h **** #endif
  85:..\..\..\lvgl\version_6.1.2\lvgl\src\lv_objx/lv_label.h **** 
  86:..\..\..\lvgl\version_6.1.2\lvgl\src\lv_objx/lv_label.h **** #if LV_USE_ANIMATION
  87:..\..\..\lvgl\version_6.1.2\lvgl\src\lv_objx/lv_label.h ****     uint16_t anim_speed; /*Speed of scroll and roll animation in px/sec unit*/
  88:..\..\..\lvgl\version_6.1.2\lvgl\src\lv_objx/lv_label.h **** #endif
ARM GAS  C:\Users\tmj32\AppData\Local\Temp\ccI3WYuM.s 			page 17


  89:..\..\..\lvgl\version_6.1.2\lvgl\src\lv_objx/lv_label.h **** 
  90:..\..\..\lvgl\version_6.1.2\lvgl\src\lv_objx/lv_label.h **** #if LV_LABEL_TEXT_SEL
  91:..\..\..\lvgl\version_6.1.2\lvgl\src\lv_objx/lv_label.h ****     uint16_t txt_sel_start; /*Left-most selection character*/
  92:..\..\..\lvgl\version_6.1.2\lvgl\src\lv_objx/lv_label.h ****     uint16_t txt_sel_end;   /*Right-most selection character*/
  93:..\..\..\lvgl\version_6.1.2\lvgl\src\lv_objx/lv_label.h **** #endif
  94:..\..\..\lvgl\version_6.1.2\lvgl\src\lv_objx/lv_label.h **** 
  95:..\..\..\lvgl\version_6.1.2\lvgl\src\lv_objx/lv_label.h ****     lv_label_long_mode_t long_mode : 3; /*Determinate what to do with the long texts*/
  96:..\..\..\lvgl\version_6.1.2\lvgl\src\lv_objx/lv_label.h ****     uint8_t static_txt : 1;             /*Flag to indicate the text is static*/
  97:..\..\..\lvgl\version_6.1.2\lvgl\src\lv_objx/lv_label.h ****     uint8_t align : 2;                  /*Align type from 'lv_label_align_t'*/
  98:..\..\..\lvgl\version_6.1.2\lvgl\src\lv_objx/lv_label.h ****     uint8_t recolor : 1;                /*Enable in-line letter re-coloring*/
  99:..\..\..\lvgl\version_6.1.2\lvgl\src\lv_objx/lv_label.h ****     uint8_t expand : 1;                 /*Ignore real width (used by the library with LV_LABEL_LONG
 100:..\..\..\lvgl\version_6.1.2\lvgl\src\lv_objx/lv_label.h ****     uint8_t body_draw : 1;              /*Draw background body*/
 101:..\..\..\lvgl\version_6.1.2\lvgl\src\lv_objx/lv_label.h ****     uint8_t dot_tmp_alloc : 1; /*True if dot_tmp has been allocated. False if dot_tmp directly hold
 102:..\..\..\lvgl\version_6.1.2\lvgl\src\lv_objx/lv_label.h ****                                   characters */
 103:..\..\..\lvgl\version_6.1.2\lvgl\src\lv_objx/lv_label.h **** } lv_label_ext_t;
 104:..\..\..\lvgl\version_6.1.2\lvgl\src\lv_objx/lv_label.h **** 
 105:..\..\..\lvgl\version_6.1.2\lvgl\src\lv_objx/lv_label.h **** /** Label styles*/
 106:..\..\..\lvgl\version_6.1.2\lvgl\src\lv_objx/lv_label.h **** enum {
 107:..\..\..\lvgl\version_6.1.2\lvgl\src\lv_objx/lv_label.h ****     LV_LABEL_STYLE_MAIN,
 108:..\..\..\lvgl\version_6.1.2\lvgl\src\lv_objx/lv_label.h **** };
 109:..\..\..\lvgl\version_6.1.2\lvgl\src\lv_objx/lv_label.h **** typedef uint8_t lv_label_style_t;
 110:..\..\..\lvgl\version_6.1.2\lvgl\src\lv_objx/lv_label.h **** 
 111:..\..\..\lvgl\version_6.1.2\lvgl\src\lv_objx/lv_label.h **** /**********************
 112:..\..\..\lvgl\version_6.1.2\lvgl\src\lv_objx/lv_label.h ****  * GLOBAL PROTOTYPES
 113:..\..\..\lvgl\version_6.1.2\lvgl\src\lv_objx/lv_label.h ****  **********************/
 114:..\..\..\lvgl\version_6.1.2\lvgl\src\lv_objx/lv_label.h **** 
 115:..\..\..\lvgl\version_6.1.2\lvgl\src\lv_objx/lv_label.h **** /**
 116:..\..\..\lvgl\version_6.1.2\lvgl\src\lv_objx/lv_label.h ****  * Create a label objects
 117:..\..\..\lvgl\version_6.1.2\lvgl\src\lv_objx/lv_label.h ****  * @param par pointer to an object, it will be the parent of the new label
 118:..\..\..\lvgl\version_6.1.2\lvgl\src\lv_objx/lv_label.h ****  * @param copy pointer to a button object, if not NULL then the new object will be copied from it
 119:..\..\..\lvgl\version_6.1.2\lvgl\src\lv_objx/lv_label.h ****  * @return pointer to the created button
 120:..\..\..\lvgl\version_6.1.2\lvgl\src\lv_objx/lv_label.h ****  */
 121:..\..\..\lvgl\version_6.1.2\lvgl\src\lv_objx/lv_label.h **** lv_obj_t * lv_label_create(lv_obj_t * par, const lv_obj_t * copy);
 122:..\..\..\lvgl\version_6.1.2\lvgl\src\lv_objx/lv_label.h **** 
 123:..\..\..\lvgl\version_6.1.2\lvgl\src\lv_objx/lv_label.h **** /*=====================
 124:..\..\..\lvgl\version_6.1.2\lvgl\src\lv_objx/lv_label.h ****  * Setter functions
 125:..\..\..\lvgl\version_6.1.2\lvgl\src\lv_objx/lv_label.h ****  *====================*/
 126:..\..\..\lvgl\version_6.1.2\lvgl\src\lv_objx/lv_label.h **** 
 127:..\..\..\lvgl\version_6.1.2\lvgl\src\lv_objx/lv_label.h **** /**
 128:..\..\..\lvgl\version_6.1.2\lvgl\src\lv_objx/lv_label.h ****  * Set a new text for a label. Memory will be allocated to store the text by the label.
 129:..\..\..\lvgl\version_6.1.2\lvgl\src\lv_objx/lv_label.h ****  * @param label pointer to a label object
 130:..\..\..\lvgl\version_6.1.2\lvgl\src\lv_objx/lv_label.h ****  * @param text '\0' terminated character string. NULL to refresh with the current text.
 131:..\..\..\lvgl\version_6.1.2\lvgl\src\lv_objx/lv_label.h ****  */
 132:..\..\..\lvgl\version_6.1.2\lvgl\src\lv_objx/lv_label.h **** void lv_label_set_text(lv_obj_t * label, const char * text);
 133:..\..\..\lvgl\version_6.1.2\lvgl\src\lv_objx/lv_label.h **** 
 134:..\..\..\lvgl\version_6.1.2\lvgl\src\lv_objx/lv_label.h **** /**
 135:..\..\..\lvgl\version_6.1.2\lvgl\src\lv_objx/lv_label.h ****  * Set a new formatted text for a label. Memory will be allocated to store the text by the label.
 136:..\..\..\lvgl\version_6.1.2\lvgl\src\lv_objx/lv_label.h ****  * @param label pointer to a label object
 137:..\..\..\lvgl\version_6.1.2\lvgl\src\lv_objx/lv_label.h ****  * @param fmt `printf`-like format
 138:..\..\..\lvgl\version_6.1.2\lvgl\src\lv_objx/lv_label.h ****  */
 139:..\..\..\lvgl\version_6.1.2\lvgl\src\lv_objx/lv_label.h **** void lv_label_set_text_fmt(lv_obj_t * label, const char * fmt, ...);
 140:..\..\..\lvgl\version_6.1.2\lvgl\src\lv_objx/lv_label.h **** 
 141:..\..\..\lvgl\version_6.1.2\lvgl\src\lv_objx/lv_label.h **** /**
 142:..\..\..\lvgl\version_6.1.2\lvgl\src\lv_objx/lv_label.h ****  * Set a new text for a label from a character array. The array don't has to be '\0' terminated.
 143:..\..\..\lvgl\version_6.1.2\lvgl\src\lv_objx/lv_label.h ****  * Memory will be allocated to store the array by the label.
 144:..\..\..\lvgl\version_6.1.2\lvgl\src\lv_objx/lv_label.h ****  * @param label pointer to a label object
 145:..\..\..\lvgl\version_6.1.2\lvgl\src\lv_objx/lv_label.h ****  * @param array array of characters or NULL to refresh the label
ARM GAS  C:\Users\tmj32\AppData\Local\Temp\ccI3WYuM.s 			page 18


 146:..\..\..\lvgl\version_6.1.2\lvgl\src\lv_objx/lv_label.h ****  * @param size the size of 'array' in bytes
 147:..\..\..\lvgl\version_6.1.2\lvgl\src\lv_objx/lv_label.h ****  */
 148:..\..\..\lvgl\version_6.1.2\lvgl\src\lv_objx/lv_label.h **** void lv_label_set_array_text(lv_obj_t * label, const char * array, uint16_t size);
 149:..\..\..\lvgl\version_6.1.2\lvgl\src\lv_objx/lv_label.h **** 
 150:..\..\..\lvgl\version_6.1.2\lvgl\src\lv_objx/lv_label.h **** /**
 151:..\..\..\lvgl\version_6.1.2\lvgl\src\lv_objx/lv_label.h ****  * Set a static text. It will not be saved by the label so the 'text' variable
 152:..\..\..\lvgl\version_6.1.2\lvgl\src\lv_objx/lv_label.h ****  * has to be 'alive' while the label exist.
 153:..\..\..\lvgl\version_6.1.2\lvgl\src\lv_objx/lv_label.h ****  * @param label pointer to a label object
 154:..\..\..\lvgl\version_6.1.2\lvgl\src\lv_objx/lv_label.h ****  * @param text pointer to a text. NULL to refresh with the current text.
 155:..\..\..\lvgl\version_6.1.2\lvgl\src\lv_objx/lv_label.h ****  */
 156:..\..\..\lvgl\version_6.1.2\lvgl\src\lv_objx/lv_label.h **** void lv_label_set_static_text(lv_obj_t * label, const char * text);
 157:..\..\..\lvgl\version_6.1.2\lvgl\src\lv_objx/lv_label.h **** 
 158:..\..\..\lvgl\version_6.1.2\lvgl\src\lv_objx/lv_label.h **** /**
 159:..\..\..\lvgl\version_6.1.2\lvgl\src\lv_objx/lv_label.h ****  * Set the behavior of the label with longer text then the object size
 160:..\..\..\lvgl\version_6.1.2\lvgl\src\lv_objx/lv_label.h ****  * @param label pointer to a label object
 161:..\..\..\lvgl\version_6.1.2\lvgl\src\lv_objx/lv_label.h ****  * @param long_mode the new mode from 'lv_label_long_mode' enum.
 162:..\..\..\lvgl\version_6.1.2\lvgl\src\lv_objx/lv_label.h ****  *                  In LV_LONG_BREAK/LONG/ROLL the size of the label should be set AFTER this
 163:..\..\..\lvgl\version_6.1.2\lvgl\src\lv_objx/lv_label.h ****  * function
 164:..\..\..\lvgl\version_6.1.2\lvgl\src\lv_objx/lv_label.h ****  */
 165:..\..\..\lvgl\version_6.1.2\lvgl\src\lv_objx/lv_label.h **** void lv_label_set_long_mode(lv_obj_t * label, lv_label_long_mode_t long_mode);
 166:..\..\..\lvgl\version_6.1.2\lvgl\src\lv_objx/lv_label.h **** 
 167:..\..\..\lvgl\version_6.1.2\lvgl\src\lv_objx/lv_label.h **** /**
 168:..\..\..\lvgl\version_6.1.2\lvgl\src\lv_objx/lv_label.h ****  * Set the align of the label (left or center)
 169:..\..\..\lvgl\version_6.1.2\lvgl\src\lv_objx/lv_label.h ****  * @param label pointer to a label object
 170:..\..\..\lvgl\version_6.1.2\lvgl\src\lv_objx/lv_label.h ****  * @param align 'LV_LABEL_ALIGN_LEFT' or 'LV_LABEL_ALIGN_LEFT'
 171:..\..\..\lvgl\version_6.1.2\lvgl\src\lv_objx/lv_label.h ****  */
 172:..\..\..\lvgl\version_6.1.2\lvgl\src\lv_objx/lv_label.h **** void lv_label_set_align(lv_obj_t * label, lv_label_align_t align);
 173:..\..\..\lvgl\version_6.1.2\lvgl\src\lv_objx/lv_label.h **** 
 174:..\..\..\lvgl\version_6.1.2\lvgl\src\lv_objx/lv_label.h **** /**
 175:..\..\..\lvgl\version_6.1.2\lvgl\src\lv_objx/lv_label.h ****  * Enable the recoloring by in-line commands
 176:..\..\..\lvgl\version_6.1.2\lvgl\src\lv_objx/lv_label.h ****  * @param label pointer to a label object
 177:..\..\..\lvgl\version_6.1.2\lvgl\src\lv_objx/lv_label.h ****  * @param en true: enable recoloring, false: disable
 178:..\..\..\lvgl\version_6.1.2\lvgl\src\lv_objx/lv_label.h ****  */
 179:..\..\..\lvgl\version_6.1.2\lvgl\src\lv_objx/lv_label.h **** void lv_label_set_recolor(lv_obj_t * label, bool en);
 180:..\..\..\lvgl\version_6.1.2\lvgl\src\lv_objx/lv_label.h **** 
 181:..\..\..\lvgl\version_6.1.2\lvgl\src\lv_objx/lv_label.h **** /**
 182:..\..\..\lvgl\version_6.1.2\lvgl\src\lv_objx/lv_label.h ****  * Set the label to draw (or not draw) background specified in its style's body
 183:..\..\..\lvgl\version_6.1.2\lvgl\src\lv_objx/lv_label.h ****  * @param label pointer to a label object
 184:..\..\..\lvgl\version_6.1.2\lvgl\src\lv_objx/lv_label.h ****  * @param en true: draw body; false: don't draw body
 185:..\..\..\lvgl\version_6.1.2\lvgl\src\lv_objx/lv_label.h ****  */
 186:..\..\..\lvgl\version_6.1.2\lvgl\src\lv_objx/lv_label.h **** void lv_label_set_body_draw(lv_obj_t * label, bool en);
 187:..\..\..\lvgl\version_6.1.2\lvgl\src\lv_objx/lv_label.h **** 
 188:..\..\..\lvgl\version_6.1.2\lvgl\src\lv_objx/lv_label.h **** /**
 189:..\..\..\lvgl\version_6.1.2\lvgl\src\lv_objx/lv_label.h ****  * Set the label's animation speed in LV_LABEL_LONG_SROLL/SCROLL_CIRC modes
 190:..\..\..\lvgl\version_6.1.2\lvgl\src\lv_objx/lv_label.h ****  * @param label pointer to a label object
 191:..\..\..\lvgl\version_6.1.2\lvgl\src\lv_objx/lv_label.h ****  * @param anim_speed speed of animation in px/sec unit
 192:..\..\..\lvgl\version_6.1.2\lvgl\src\lv_objx/lv_label.h ****  */
 193:..\..\..\lvgl\version_6.1.2\lvgl\src\lv_objx/lv_label.h **** void lv_label_set_anim_speed(lv_obj_t * label, uint16_t anim_speed);
 194:..\..\..\lvgl\version_6.1.2\lvgl\src\lv_objx/lv_label.h **** 
 195:..\..\..\lvgl\version_6.1.2\lvgl\src\lv_objx/lv_label.h **** /**
 196:..\..\..\lvgl\version_6.1.2\lvgl\src\lv_objx/lv_label.h ****  * Set the style of an label
 197:..\..\..\lvgl\version_6.1.2\lvgl\src\lv_objx/lv_label.h ****  * @param label pointer to an label object
 198:..\..\..\lvgl\version_6.1.2\lvgl\src\lv_objx/lv_label.h ****  * @param type which style should be get (can be only `LV_LABEL_STYLE_MAIN`)
 199:..\..\..\lvgl\version_6.1.2\lvgl\src\lv_objx/lv_label.h ****  * @param style pointer to a style
 200:..\..\..\lvgl\version_6.1.2\lvgl\src\lv_objx/lv_label.h ****  */
 201:..\..\..\lvgl\version_6.1.2\lvgl\src\lv_objx/lv_label.h **** static inline void lv_label_set_style(lv_obj_t * label, lv_label_style_t type, const lv_style_t * s
 202:..\..\..\lvgl\version_6.1.2\lvgl\src\lv_objx/lv_label.h **** {
ARM GAS  C:\Users\tmj32\AppData\Local\Temp\ccI3WYuM.s 			page 19


 284              		.loc 5 202 0
 285              		.cfi_startproc
 286              		@ args = 0, pretend = 0, frame = 16
 287              		@ frame_needed = 1, uses_anonymous_args = 0
 288 0000 80B5     		push	{r7, lr}
 289              		.cfi_def_cfa_offset 8
 290              		.cfi_offset 7, -8
 291              		.cfi_offset 14, -4
 292 0002 84B0     		sub	sp, sp, #16
 293              		.cfi_def_cfa_offset 24
 294 0004 00AF     		add	r7, sp, #0
 295              		.cfi_def_cfa_register 7
 296 0006 F860     		str	r0, [r7, #12]
 297 0008 0B46     		mov	r3, r1
 298 000a 7A60     		str	r2, [r7, #4]
 299 000c FB72     		strb	r3, [r7, #11]
 203:..\..\..\lvgl\version_6.1.2\lvgl\src\lv_objx/lv_label.h ****     (void)type; /*Unused*/
 204:..\..\..\lvgl\version_6.1.2\lvgl\src\lv_objx/lv_label.h ****     lv_obj_set_style(label, style);
 300              		.loc 5 204 0
 301 000e 7968     		ldr	r1, [r7, #4]
 302 0010 F868     		ldr	r0, [r7, #12]
 303 0012 FFF7FEFF 		bl	lv_obj_set_style
 205:..\..\..\lvgl\version_6.1.2\lvgl\src\lv_objx/lv_label.h **** }
 304              		.loc 5 205 0
 305 0016 00BF     		nop
 306 0018 1037     		adds	r7, r7, #16
 307              		.cfi_def_cfa_offset 8
 308 001a BD46     		mov	sp, r7
 309              		.cfi_def_cfa_register 13
 310              		@ sp needed
 311 001c 80BD     		pop	{r7, pc}
 312              		.cfi_endproc
 313              	.LFE48:
 314              		.size	lv_label_set_style, .-lv_label_set_style
 315 001e 00BF     		.section	.text.lv_label_get_style,"ax",%progbits
 316              		.align	2
 317              		.thumb
 318              		.thumb_func
 319              		.type	lv_label_get_style, %function
 320              	lv_label_get_style:
 321              	.LFB49:
 206:..\..\..\lvgl\version_6.1.2\lvgl\src\lv_objx/lv_label.h **** 
 207:..\..\..\lvgl\version_6.1.2\lvgl\src\lv_objx/lv_label.h **** /**
 208:..\..\..\lvgl\version_6.1.2\lvgl\src\lv_objx/lv_label.h ****  * @brief Set the selection start index.
 209:..\..\..\lvgl\version_6.1.2\lvgl\src\lv_objx/lv_label.h ****  * @param label pointer to a label object.
 210:..\..\..\lvgl\version_6.1.2\lvgl\src\lv_objx/lv_label.h ****  * @param index index to set. `LV_LABEL_TXT_SEL_OFF` to select nothing.
 211:..\..\..\lvgl\version_6.1.2\lvgl\src\lv_objx/lv_label.h ****  */
 212:..\..\..\lvgl\version_6.1.2\lvgl\src\lv_objx/lv_label.h **** void lv_label_set_text_sel_start(lv_obj_t * label, uint16_t index);
 213:..\..\..\lvgl\version_6.1.2\lvgl\src\lv_objx/lv_label.h **** 
 214:..\..\..\lvgl\version_6.1.2\lvgl\src\lv_objx/lv_label.h **** /**
 215:..\..\..\lvgl\version_6.1.2\lvgl\src\lv_objx/lv_label.h ****  * @brief Set the selection end index.
 216:..\..\..\lvgl\version_6.1.2\lvgl\src\lv_objx/lv_label.h ****  * @param label pointer to a label object.
 217:..\..\..\lvgl\version_6.1.2\lvgl\src\lv_objx/lv_label.h ****  * @param index index to set. `LV_LABEL_TXT_SEL_OFF` to select nothing.
 218:..\..\..\lvgl\version_6.1.2\lvgl\src\lv_objx/lv_label.h ****  */
 219:..\..\..\lvgl\version_6.1.2\lvgl\src\lv_objx/lv_label.h **** void lv_label_set_text_sel_end(lv_obj_t * label, uint16_t index);
 220:..\..\..\lvgl\version_6.1.2\lvgl\src\lv_objx/lv_label.h **** 
 221:..\..\..\lvgl\version_6.1.2\lvgl\src\lv_objx/lv_label.h **** /*=====================
ARM GAS  C:\Users\tmj32\AppData\Local\Temp\ccI3WYuM.s 			page 20


 222:..\..\..\lvgl\version_6.1.2\lvgl\src\lv_objx/lv_label.h ****  * Getter functions
 223:..\..\..\lvgl\version_6.1.2\lvgl\src\lv_objx/lv_label.h ****  *====================*/
 224:..\..\..\lvgl\version_6.1.2\lvgl\src\lv_objx/lv_label.h **** 
 225:..\..\..\lvgl\version_6.1.2\lvgl\src\lv_objx/lv_label.h **** /**
 226:..\..\..\lvgl\version_6.1.2\lvgl\src\lv_objx/lv_label.h ****  * Get the text of a label
 227:..\..\..\lvgl\version_6.1.2\lvgl\src\lv_objx/lv_label.h ****  * @param label pointer to a label object
 228:..\..\..\lvgl\version_6.1.2\lvgl\src\lv_objx/lv_label.h ****  * @return the text of the label
 229:..\..\..\lvgl\version_6.1.2\lvgl\src\lv_objx/lv_label.h ****  */
 230:..\..\..\lvgl\version_6.1.2\lvgl\src\lv_objx/lv_label.h **** char * lv_label_get_text(const lv_obj_t * label);
 231:..\..\..\lvgl\version_6.1.2\lvgl\src\lv_objx/lv_label.h **** 
 232:..\..\..\lvgl\version_6.1.2\lvgl\src\lv_objx/lv_label.h **** /**
 233:..\..\..\lvgl\version_6.1.2\lvgl\src\lv_objx/lv_label.h ****  * Get the long mode of a label
 234:..\..\..\lvgl\version_6.1.2\lvgl\src\lv_objx/lv_label.h ****  * @param label pointer to a label object
 235:..\..\..\lvgl\version_6.1.2\lvgl\src\lv_objx/lv_label.h ****  * @return the long mode
 236:..\..\..\lvgl\version_6.1.2\lvgl\src\lv_objx/lv_label.h ****  */
 237:..\..\..\lvgl\version_6.1.2\lvgl\src\lv_objx/lv_label.h **** lv_label_long_mode_t lv_label_get_long_mode(const lv_obj_t * label);
 238:..\..\..\lvgl\version_6.1.2\lvgl\src\lv_objx/lv_label.h **** 
 239:..\..\..\lvgl\version_6.1.2\lvgl\src\lv_objx/lv_label.h **** /**
 240:..\..\..\lvgl\version_6.1.2\lvgl\src\lv_objx/lv_label.h ****  * Get the align attribute
 241:..\..\..\lvgl\version_6.1.2\lvgl\src\lv_objx/lv_label.h ****  * @param label pointer to a label object
 242:..\..\..\lvgl\version_6.1.2\lvgl\src\lv_objx/lv_label.h ****  * @return LV_LABEL_ALIGN_LEFT or LV_LABEL_ALIGN_CENTER
 243:..\..\..\lvgl\version_6.1.2\lvgl\src\lv_objx/lv_label.h ****  */
 244:..\..\..\lvgl\version_6.1.2\lvgl\src\lv_objx/lv_label.h **** lv_label_align_t lv_label_get_align(const lv_obj_t * label);
 245:..\..\..\lvgl\version_6.1.2\lvgl\src\lv_objx/lv_label.h **** 
 246:..\..\..\lvgl\version_6.1.2\lvgl\src\lv_objx/lv_label.h **** /**
 247:..\..\..\lvgl\version_6.1.2\lvgl\src\lv_objx/lv_label.h ****  * Get the recoloring attribute
 248:..\..\..\lvgl\version_6.1.2\lvgl\src\lv_objx/lv_label.h ****  * @param label pointer to a label object
 249:..\..\..\lvgl\version_6.1.2\lvgl\src\lv_objx/lv_label.h ****  * @return true: recoloring is enabled, false: disable
 250:..\..\..\lvgl\version_6.1.2\lvgl\src\lv_objx/lv_label.h ****  */
 251:..\..\..\lvgl\version_6.1.2\lvgl\src\lv_objx/lv_label.h **** bool lv_label_get_recolor(const lv_obj_t * label);
 252:..\..\..\lvgl\version_6.1.2\lvgl\src\lv_objx/lv_label.h **** 
 253:..\..\..\lvgl\version_6.1.2\lvgl\src\lv_objx/lv_label.h **** /**
 254:..\..\..\lvgl\version_6.1.2\lvgl\src\lv_objx/lv_label.h ****  * Get the body draw attribute
 255:..\..\..\lvgl\version_6.1.2\lvgl\src\lv_objx/lv_label.h ****  * @param label pointer to a label object
 256:..\..\..\lvgl\version_6.1.2\lvgl\src\lv_objx/lv_label.h ****  * @return true: draw body; false: don't draw body
 257:..\..\..\lvgl\version_6.1.2\lvgl\src\lv_objx/lv_label.h ****  */
 258:..\..\..\lvgl\version_6.1.2\lvgl\src\lv_objx/lv_label.h **** bool lv_label_get_body_draw(const lv_obj_t * label);
 259:..\..\..\lvgl\version_6.1.2\lvgl\src\lv_objx/lv_label.h **** 
 260:..\..\..\lvgl\version_6.1.2\lvgl\src\lv_objx/lv_label.h **** /**
 261:..\..\..\lvgl\version_6.1.2\lvgl\src\lv_objx/lv_label.h ****  * Get the label's animation speed in LV_LABEL_LONG_ROLL and SCROLL modes
 262:..\..\..\lvgl\version_6.1.2\lvgl\src\lv_objx/lv_label.h ****  * @param label pointer to a label object
 263:..\..\..\lvgl\version_6.1.2\lvgl\src\lv_objx/lv_label.h ****  * @return speed of animation in px/sec unit
 264:..\..\..\lvgl\version_6.1.2\lvgl\src\lv_objx/lv_label.h ****  */
 265:..\..\..\lvgl\version_6.1.2\lvgl\src\lv_objx/lv_label.h **** uint16_t lv_label_get_anim_speed(const lv_obj_t * label);
 266:..\..\..\lvgl\version_6.1.2\lvgl\src\lv_objx/lv_label.h **** 
 267:..\..\..\lvgl\version_6.1.2\lvgl\src\lv_objx/lv_label.h **** /**
 268:..\..\..\lvgl\version_6.1.2\lvgl\src\lv_objx/lv_label.h ****  * Get the relative x and y coordinates of a letter
 269:..\..\..\lvgl\version_6.1.2\lvgl\src\lv_objx/lv_label.h ****  * @param label pointer to a label object
 270:..\..\..\lvgl\version_6.1.2\lvgl\src\lv_objx/lv_label.h ****  * @param index index of the letter [0 ... text length]. Expressed in character index, not byte
 271:..\..\..\lvgl\version_6.1.2\lvgl\src\lv_objx/lv_label.h ****  * index (different in UTF-8)
 272:..\..\..\lvgl\version_6.1.2\lvgl\src\lv_objx/lv_label.h ****  * @param pos store the result here (E.g. index = 0 gives 0;0 coordinates)
 273:..\..\..\lvgl\version_6.1.2\lvgl\src\lv_objx/lv_label.h ****  */
 274:..\..\..\lvgl\version_6.1.2\lvgl\src\lv_objx/lv_label.h **** void lv_label_get_letter_pos(const lv_obj_t * label, uint16_t index, lv_point_t * pos);
 275:..\..\..\lvgl\version_6.1.2\lvgl\src\lv_objx/lv_label.h **** 
 276:..\..\..\lvgl\version_6.1.2\lvgl\src\lv_objx/lv_label.h **** /**
 277:..\..\..\lvgl\version_6.1.2\lvgl\src\lv_objx/lv_label.h ****  * Get the index of letter on a relative point of a label
 278:..\..\..\lvgl\version_6.1.2\lvgl\src\lv_objx/lv_label.h ****  * @param label pointer to label object
ARM GAS  C:\Users\tmj32\AppData\Local\Temp\ccI3WYuM.s 			page 21


 279:..\..\..\lvgl\version_6.1.2\lvgl\src\lv_objx/lv_label.h ****  * @param pos pointer to point with coordinates on a the label
 280:..\..\..\lvgl\version_6.1.2\lvgl\src\lv_objx/lv_label.h ****  * @return the index of the letter on the 'pos_p' point (E.g. on 0;0 is the 0. letter)
 281:..\..\..\lvgl\version_6.1.2\lvgl\src\lv_objx/lv_label.h ****  * Expressed in character index and not byte index (different in UTF-8)
 282:..\..\..\lvgl\version_6.1.2\lvgl\src\lv_objx/lv_label.h ****  */
 283:..\..\..\lvgl\version_6.1.2\lvgl\src\lv_objx/lv_label.h **** uint16_t lv_label_get_letter_on(const lv_obj_t * label, lv_point_t * pos);
 284:..\..\..\lvgl\version_6.1.2\lvgl\src\lv_objx/lv_label.h **** 
 285:..\..\..\lvgl\version_6.1.2\lvgl\src\lv_objx/lv_label.h **** /**
 286:..\..\..\lvgl\version_6.1.2\lvgl\src\lv_objx/lv_label.h ****  * Check if a character is drawn under a point.
 287:..\..\..\lvgl\version_6.1.2\lvgl\src\lv_objx/lv_label.h ****  * @param label Label object
 288:..\..\..\lvgl\version_6.1.2\lvgl\src\lv_objx/lv_label.h ****  * @param pos Point to check for characte under
 289:..\..\..\lvgl\version_6.1.2\lvgl\src\lv_objx/lv_label.h ****  * @return whether a character is drawn under the point
 290:..\..\..\lvgl\version_6.1.2\lvgl\src\lv_objx/lv_label.h ****  */
 291:..\..\..\lvgl\version_6.1.2\lvgl\src\lv_objx/lv_label.h **** bool lv_label_is_char_under_pos(const lv_obj_t * label, lv_point_t * pos);
 292:..\..\..\lvgl\version_6.1.2\lvgl\src\lv_objx/lv_label.h **** 
 293:..\..\..\lvgl\version_6.1.2\lvgl\src\lv_objx/lv_label.h **** /**
 294:..\..\..\lvgl\version_6.1.2\lvgl\src\lv_objx/lv_label.h ****  * Get the style of an label object
 295:..\..\..\lvgl\version_6.1.2\lvgl\src\lv_objx/lv_label.h ****  * @param label pointer to an label object
 296:..\..\..\lvgl\version_6.1.2\lvgl\src\lv_objx/lv_label.h ****  * @param type which style should be get (can be only `LV_LABEL_STYLE_MAIN`)
 297:..\..\..\lvgl\version_6.1.2\lvgl\src\lv_objx/lv_label.h ****  * @return pointer to the label's style
 298:..\..\..\lvgl\version_6.1.2\lvgl\src\lv_objx/lv_label.h ****  */
 299:..\..\..\lvgl\version_6.1.2\lvgl\src\lv_objx/lv_label.h **** static inline const lv_style_t * lv_label_get_style(const lv_obj_t * label, lv_label_style_t type)
 300:..\..\..\lvgl\version_6.1.2\lvgl\src\lv_objx/lv_label.h **** {
 322              		.loc 5 300 0
 323              		.cfi_startproc
 324              		@ args = 0, pretend = 0, frame = 8
 325              		@ frame_needed = 1, uses_anonymous_args = 0
 326 0000 80B5     		push	{r7, lr}
 327              		.cfi_def_cfa_offset 8
 328              		.cfi_offset 7, -8
 329              		.cfi_offset 14, -4
 330 0002 82B0     		sub	sp, sp, #8
 331              		.cfi_def_cfa_offset 16
 332 0004 00AF     		add	r7, sp, #0
 333              		.cfi_def_cfa_register 7
 334 0006 7860     		str	r0, [r7, #4]
 335 0008 0B46     		mov	r3, r1
 336 000a FB70     		strb	r3, [r7, #3]
 301:..\..\..\lvgl\version_6.1.2\lvgl\src\lv_objx/lv_label.h ****     (void)type; /*Unused*/
 302:..\..\..\lvgl\version_6.1.2\lvgl\src\lv_objx/lv_label.h ****     return lv_obj_get_style(label);
 337              		.loc 5 302 0
 338 000c 7868     		ldr	r0, [r7, #4]
 339 000e FFF7FEFF 		bl	lv_obj_get_style
 340 0012 0346     		mov	r3, r0
 303:..\..\..\lvgl\version_6.1.2\lvgl\src\lv_objx/lv_label.h **** }
 341              		.loc 5 303 0
 342 0014 1846     		mov	r0, r3
 343 0016 0837     		adds	r7, r7, #8
 344              		.cfi_def_cfa_offset 8
 345 0018 BD46     		mov	sp, r7
 346              		.cfi_def_cfa_register 13
 347              		@ sp needed
 348 001a 80BD     		pop	{r7, pc}
 349              		.cfi_endproc
 350              	.LFE49:
 351              		.size	lv_label_get_style, .-lv_label_get_style
 352              		.section	.text.lv_ta_set_sb_mode,"ax",%progbits
 353              		.align	2
ARM GAS  C:\Users\tmj32\AppData\Local\Temp\ccI3WYuM.s 			page 22


 354              		.thumb
 355              		.thumb_func
 356              		.type	lv_ta_set_sb_mode, %function
 357              	lv_ta_set_sb_mode:
 358              	.LFB50:
 359              		.file 6 "..\\..\\..\\lvgl\\version_6.1.2\\lvgl\\src\\lv_objx\\lv_ta.h"
   1:..\..\..\lvgl\version_6.1.2\lvgl\src\lv_objx/lv_ta.h **** /**
   2:..\..\..\lvgl\version_6.1.2\lvgl\src\lv_objx/lv_ta.h ****  * @file lv_ta.h
   3:..\..\..\lvgl\version_6.1.2\lvgl\src\lv_objx/lv_ta.h ****  *
   4:..\..\..\lvgl\version_6.1.2\lvgl\src\lv_objx/lv_ta.h ****  */
   5:..\..\..\lvgl\version_6.1.2\lvgl\src\lv_objx/lv_ta.h **** 
   6:..\..\..\lvgl\version_6.1.2\lvgl\src\lv_objx/lv_ta.h **** #ifndef LV_TA_H
   7:..\..\..\lvgl\version_6.1.2\lvgl\src\lv_objx/lv_ta.h **** #define LV_TA_H
   8:..\..\..\lvgl\version_6.1.2\lvgl\src\lv_objx/lv_ta.h **** 
   9:..\..\..\lvgl\version_6.1.2\lvgl\src\lv_objx/lv_ta.h **** #ifdef __cplusplus
  10:..\..\..\lvgl\version_6.1.2\lvgl\src\lv_objx/lv_ta.h **** extern "C" {
  11:..\..\..\lvgl\version_6.1.2\lvgl\src\lv_objx/lv_ta.h **** #endif
  12:..\..\..\lvgl\version_6.1.2\lvgl\src\lv_objx/lv_ta.h **** 
  13:..\..\..\lvgl\version_6.1.2\lvgl\src\lv_objx/lv_ta.h **** /*********************
  14:..\..\..\lvgl\version_6.1.2\lvgl\src\lv_objx/lv_ta.h ****  *      INCLUDES
  15:..\..\..\lvgl\version_6.1.2\lvgl\src\lv_objx/lv_ta.h ****  *********************/
  16:..\..\..\lvgl\version_6.1.2\lvgl\src\lv_objx/lv_ta.h **** #ifdef LV_CONF_INCLUDE_SIMPLE
  17:..\..\..\lvgl\version_6.1.2\lvgl\src\lv_objx/lv_ta.h **** #include "lv_conf.h"
  18:..\..\..\lvgl\version_6.1.2\lvgl\src\lv_objx/lv_ta.h **** #else
  19:..\..\..\lvgl\version_6.1.2\lvgl\src\lv_objx/lv_ta.h **** #include "../../../lv_conf.h"
  20:..\..\..\lvgl\version_6.1.2\lvgl\src\lv_objx/lv_ta.h **** #endif
  21:..\..\..\lvgl\version_6.1.2\lvgl\src\lv_objx/lv_ta.h **** 
  22:..\..\..\lvgl\version_6.1.2\lvgl\src\lv_objx/lv_ta.h **** #if LV_USE_TA != 0
  23:..\..\..\lvgl\version_6.1.2\lvgl\src\lv_objx/lv_ta.h **** 
  24:..\..\..\lvgl\version_6.1.2\lvgl\src\lv_objx/lv_ta.h **** /*Testing of dependencies*/
  25:..\..\..\lvgl\version_6.1.2\lvgl\src\lv_objx/lv_ta.h **** #if LV_USE_PAGE == 0
  26:..\..\..\lvgl\version_6.1.2\lvgl\src\lv_objx/lv_ta.h **** #error "lv_ta: lv_page is required. Enable it in lv_conf.h (LV_USE_PAGE  1) "
  27:..\..\..\lvgl\version_6.1.2\lvgl\src\lv_objx/lv_ta.h **** #endif
  28:..\..\..\lvgl\version_6.1.2\lvgl\src\lv_objx/lv_ta.h **** 
  29:..\..\..\lvgl\version_6.1.2\lvgl\src\lv_objx/lv_ta.h **** #if LV_USE_LABEL == 0
  30:..\..\..\lvgl\version_6.1.2\lvgl\src\lv_objx/lv_ta.h **** #error "lv_ta: lv_label is required. Enable it in lv_conf.h (LV_USE_LABEL  1) "
  31:..\..\..\lvgl\version_6.1.2\lvgl\src\lv_objx/lv_ta.h **** #endif
  32:..\..\..\lvgl\version_6.1.2\lvgl\src\lv_objx/lv_ta.h **** 
  33:..\..\..\lvgl\version_6.1.2\lvgl\src\lv_objx/lv_ta.h **** #include "../lv_core/lv_obj.h"
  34:..\..\..\lvgl\version_6.1.2\lvgl\src\lv_objx/lv_ta.h **** #include "lv_page.h"
  35:..\..\..\lvgl\version_6.1.2\lvgl\src\lv_objx/lv_ta.h **** #include "lv_label.h"
  36:..\..\..\lvgl\version_6.1.2\lvgl\src\lv_objx/lv_ta.h **** 
  37:..\..\..\lvgl\version_6.1.2\lvgl\src\lv_objx/lv_ta.h **** /*********************
  38:..\..\..\lvgl\version_6.1.2\lvgl\src\lv_objx/lv_ta.h ****  *      DEFINES
  39:..\..\..\lvgl\version_6.1.2\lvgl\src\lv_objx/lv_ta.h ****  *********************/
  40:..\..\..\lvgl\version_6.1.2\lvgl\src\lv_objx/lv_ta.h **** #define LV_TA_CURSOR_LAST (0x7FFF) /*Put the cursor after the last character*/
  41:..\..\..\lvgl\version_6.1.2\lvgl\src\lv_objx/lv_ta.h **** 
  42:..\..\..\lvgl\version_6.1.2\lvgl\src\lv_objx/lv_ta.h **** LV_EXPORT_CONST_INT(LV_TA_CURSOR_LAST);
  43:..\..\..\lvgl\version_6.1.2\lvgl\src\lv_objx/lv_ta.h **** 
  44:..\..\..\lvgl\version_6.1.2\lvgl\src\lv_objx/lv_ta.h **** /**********************
  45:..\..\..\lvgl\version_6.1.2\lvgl\src\lv_objx/lv_ta.h ****  *      TYPEDEFS
  46:..\..\..\lvgl\version_6.1.2\lvgl\src\lv_objx/lv_ta.h ****  **********************/
  47:..\..\..\lvgl\version_6.1.2\lvgl\src\lv_objx/lv_ta.h **** 
  48:..\..\..\lvgl\version_6.1.2\lvgl\src\lv_objx/lv_ta.h **** /** Style of text area's cursor. */
  49:..\..\..\lvgl\version_6.1.2\lvgl\src\lv_objx/lv_ta.h **** enum {
  50:..\..\..\lvgl\version_6.1.2\lvgl\src\lv_objx/lv_ta.h ****     LV_CURSOR_NONE, /**< No cursor */
  51:..\..\..\lvgl\version_6.1.2\lvgl\src\lv_objx/lv_ta.h ****     LV_CURSOR_LINE, /**< Vertical line */
ARM GAS  C:\Users\tmj32\AppData\Local\Temp\ccI3WYuM.s 			page 23


  52:..\..\..\lvgl\version_6.1.2\lvgl\src\lv_objx/lv_ta.h ****     LV_CURSOR_BLOCK, /**< Rectangle */
  53:..\..\..\lvgl\version_6.1.2\lvgl\src\lv_objx/lv_ta.h ****     LV_CURSOR_OUTLINE, /**< Outline around character */
  54:..\..\..\lvgl\version_6.1.2\lvgl\src\lv_objx/lv_ta.h ****     LV_CURSOR_UNDERLINE, /**< Horizontal line under character */
  55:..\..\..\lvgl\version_6.1.2\lvgl\src\lv_objx/lv_ta.h ****     LV_CURSOR_HIDDEN = 0x08, /**< This flag can be ORed to any of the other values to temporarily h
  56:..\..\..\lvgl\version_6.1.2\lvgl\src\lv_objx/lv_ta.h **** };
  57:..\..\..\lvgl\version_6.1.2\lvgl\src\lv_objx/lv_ta.h **** typedef uint8_t lv_cursor_type_t;
  58:..\..\..\lvgl\version_6.1.2\lvgl\src\lv_objx/lv_ta.h **** 
  59:..\..\..\lvgl\version_6.1.2\lvgl\src\lv_objx/lv_ta.h **** /*Data of text area*/
  60:..\..\..\lvgl\version_6.1.2\lvgl\src\lv_objx/lv_ta.h **** typedef struct
  61:..\..\..\lvgl\version_6.1.2\lvgl\src\lv_objx/lv_ta.h **** {
  62:..\..\..\lvgl\version_6.1.2\lvgl\src\lv_objx/lv_ta.h ****     lv_page_ext_t page; /*Ext. of ancestor*/
  63:..\..\..\lvgl\version_6.1.2\lvgl\src\lv_objx/lv_ta.h ****     /*New data for this type */
  64:..\..\..\lvgl\version_6.1.2\lvgl\src\lv_objx/lv_ta.h ****     lv_obj_t * label;            /*Label of the text area*/
  65:..\..\..\lvgl\version_6.1.2\lvgl\src\lv_objx/lv_ta.h ****     lv_obj_t * placeholder;      /*Place holder label. only visible if text is an empty string*/
  66:..\..\..\lvgl\version_6.1.2\lvgl\src\lv_objx/lv_ta.h ****     char * pwd_tmp;              /*Used to store the original text in password mode*/
  67:..\..\..\lvgl\version_6.1.2\lvgl\src\lv_objx/lv_ta.h ****     const char * accapted_chars; /*Only these characters will be accepted. NULL: accept all*/
  68:..\..\..\lvgl\version_6.1.2\lvgl\src\lv_objx/lv_ta.h ****     uint16_t max_length;         /*The max. number of characters. 0: no limit*/
  69:..\..\..\lvgl\version_6.1.2\lvgl\src\lv_objx/lv_ta.h ****     uint16_t pwd_show_time;      /*Time to show characters in password mode before change them to '
  70:..\..\..\lvgl\version_6.1.2\lvgl\src\lv_objx/lv_ta.h ****     struct
  71:..\..\..\lvgl\version_6.1.2\lvgl\src\lv_objx/lv_ta.h ****     {
  72:..\..\..\lvgl\version_6.1.2\lvgl\src\lv_objx/lv_ta.h ****         const lv_style_t * style;  /* Style of the cursor (NULL to use label's style)*/
  73:..\..\..\lvgl\version_6.1.2\lvgl\src\lv_objx/lv_ta.h ****         lv_coord_t valid_x;        /* Used when stepping up/down to a shorter line.
  74:..\..\..\lvgl\version_6.1.2\lvgl\src\lv_objx/lv_ta.h ****                                     * (Used by the library)*/
  75:..\..\..\lvgl\version_6.1.2\lvgl\src\lv_objx/lv_ta.h ****         uint16_t pos;              /* The current cursor position
  76:..\..\..\lvgl\version_6.1.2\lvgl\src\lv_objx/lv_ta.h ****                                     * (0: before 1st letter; 1: before 2nd letter ...)*/
  77:..\..\..\lvgl\version_6.1.2\lvgl\src\lv_objx/lv_ta.h ****         uint16_t blink_time;       /*Blink period*/
  78:..\..\..\lvgl\version_6.1.2\lvgl\src\lv_objx/lv_ta.h ****         lv_area_t area;            /* Cursor area relative to the Text Area*/
  79:..\..\..\lvgl\version_6.1.2\lvgl\src\lv_objx/lv_ta.h ****         uint16_t txt_byte_pos;     /* Byte index of the letter after (on) the cursor*/
  80:..\..\..\lvgl\version_6.1.2\lvgl\src\lv_objx/lv_ta.h ****         lv_cursor_type_t type : 4; /* Shape of the cursor*/
  81:..\..\..\lvgl\version_6.1.2\lvgl\src\lv_objx/lv_ta.h ****         uint8_t state : 1;         /*Cursor is visible now or not (Handled by the library)*/
  82:..\..\..\lvgl\version_6.1.2\lvgl\src\lv_objx/lv_ta.h ****         uint8_t click_pos : 1;     /*1: Enable positioning the cursor by clicking the text area*/
  83:..\..\..\lvgl\version_6.1.2\lvgl\src\lv_objx/lv_ta.h ****     } cursor;
  84:..\..\..\lvgl\version_6.1.2\lvgl\src\lv_objx/lv_ta.h **** #if LV_LABEL_TEXT_SEL
  85:..\..\..\lvgl\version_6.1.2\lvgl\src\lv_objx/lv_ta.h ****     lv_draw_label_txt_sel_t sel;  /*Temporary values for text selection*/
  86:..\..\..\lvgl\version_6.1.2\lvgl\src\lv_objx/lv_ta.h ****     uint8_t text_sel_in_prog : 1; /*User is in process of selecting */
  87:..\..\..\lvgl\version_6.1.2\lvgl\src\lv_objx/lv_ta.h ****     uint8_t text_sel_en : 1;      /*Text can be selected on this text area*/
  88:..\..\..\lvgl\version_6.1.2\lvgl\src\lv_objx/lv_ta.h **** #endif
  89:..\..\..\lvgl\version_6.1.2\lvgl\src\lv_objx/lv_ta.h ****     uint8_t pwd_mode : 1; /*Replace characters with '*' */
  90:..\..\..\lvgl\version_6.1.2\lvgl\src\lv_objx/lv_ta.h ****     uint8_t one_line : 1; /*One line mode (ignore line breaks)*/
  91:..\..\..\lvgl\version_6.1.2\lvgl\src\lv_objx/lv_ta.h **** } lv_ta_ext_t;
  92:..\..\..\lvgl\version_6.1.2\lvgl\src\lv_objx/lv_ta.h **** 
  93:..\..\..\lvgl\version_6.1.2\lvgl\src\lv_objx/lv_ta.h **** /** Possible text areas tyles. */
  94:..\..\..\lvgl\version_6.1.2\lvgl\src\lv_objx/lv_ta.h **** enum {
  95:..\..\..\lvgl\version_6.1.2\lvgl\src\lv_objx/lv_ta.h ****     LV_TA_STYLE_BG, /**< Text area background style */
  96:..\..\..\lvgl\version_6.1.2\lvgl\src\lv_objx/lv_ta.h ****     LV_TA_STYLE_SB, /**< Scrollbar style */
  97:..\..\..\lvgl\version_6.1.2\lvgl\src\lv_objx/lv_ta.h ****     LV_TA_STYLE_CURSOR, /**< Cursor style */
  98:..\..\..\lvgl\version_6.1.2\lvgl\src\lv_objx/lv_ta.h ****     LV_TA_STYLE_EDGE_FLASH, /**< Edge flash style */
  99:..\..\..\lvgl\version_6.1.2\lvgl\src\lv_objx/lv_ta.h ****     LV_TA_STYLE_PLACEHOLDER, /**< Placeholder style */
 100:..\..\..\lvgl\version_6.1.2\lvgl\src\lv_objx/lv_ta.h **** };
 101:..\..\..\lvgl\version_6.1.2\lvgl\src\lv_objx/lv_ta.h **** typedef uint8_t lv_ta_style_t;
 102:..\..\..\lvgl\version_6.1.2\lvgl\src\lv_objx/lv_ta.h **** 
 103:..\..\..\lvgl\version_6.1.2\lvgl\src\lv_objx/lv_ta.h **** /**********************
 104:..\..\..\lvgl\version_6.1.2\lvgl\src\lv_objx/lv_ta.h ****  * GLOBAL PROTOTYPES
 105:..\..\..\lvgl\version_6.1.2\lvgl\src\lv_objx/lv_ta.h ****  **********************/
 106:..\..\..\lvgl\version_6.1.2\lvgl\src\lv_objx/lv_ta.h **** 
 107:..\..\..\lvgl\version_6.1.2\lvgl\src\lv_objx/lv_ta.h **** /**
 108:..\..\..\lvgl\version_6.1.2\lvgl\src\lv_objx/lv_ta.h ****  * Create a text area objects
ARM GAS  C:\Users\tmj32\AppData\Local\Temp\ccI3WYuM.s 			page 24


 109:..\..\..\lvgl\version_6.1.2\lvgl\src\lv_objx/lv_ta.h ****  * @param par pointer to an object, it will be the parent of the new text area
 110:..\..\..\lvgl\version_6.1.2\lvgl\src\lv_objx/lv_ta.h ****  * @param copy pointer to a text area object, if not NULL then the new object will be copied from i
 111:..\..\..\lvgl\version_6.1.2\lvgl\src\lv_objx/lv_ta.h ****  * @return pointer to the created text area
 112:..\..\..\lvgl\version_6.1.2\lvgl\src\lv_objx/lv_ta.h ****  */
 113:..\..\..\lvgl\version_6.1.2\lvgl\src\lv_objx/lv_ta.h **** lv_obj_t * lv_ta_create(lv_obj_t * par, const lv_obj_t * copy);
 114:..\..\..\lvgl\version_6.1.2\lvgl\src\lv_objx/lv_ta.h **** 
 115:..\..\..\lvgl\version_6.1.2\lvgl\src\lv_objx/lv_ta.h **** /*======================
 116:..\..\..\lvgl\version_6.1.2\lvgl\src\lv_objx/lv_ta.h ****  * Add/remove functions
 117:..\..\..\lvgl\version_6.1.2\lvgl\src\lv_objx/lv_ta.h ****  *=====================*/
 118:..\..\..\lvgl\version_6.1.2\lvgl\src\lv_objx/lv_ta.h **** 
 119:..\..\..\lvgl\version_6.1.2\lvgl\src\lv_objx/lv_ta.h **** /**
 120:..\..\..\lvgl\version_6.1.2\lvgl\src\lv_objx/lv_ta.h ****  * Insert a character to the current cursor position.
 121:..\..\..\lvgl\version_6.1.2\lvgl\src\lv_objx/lv_ta.h ****  * To add a wide char, e.g. '' use `lv_txt_encoded_conv_wc('')`
 122:..\..\..\lvgl\version_6.1.2\lvgl\src\lv_objx/lv_ta.h ****  * @param ta pointer to a text area object
 123:..\..\..\lvgl\version_6.1.2\lvgl\src\lv_objx/lv_ta.h ****  * @param c a character (e.g. 'a')
 124:..\..\..\lvgl\version_6.1.2\lvgl\src\lv_objx/lv_ta.h ****  */
 125:..\..\..\lvgl\version_6.1.2\lvgl\src\lv_objx/lv_ta.h **** void lv_ta_add_char(lv_obj_t * ta, uint32_t c);
 126:..\..\..\lvgl\version_6.1.2\lvgl\src\lv_objx/lv_ta.h **** 
 127:..\..\..\lvgl\version_6.1.2\lvgl\src\lv_objx/lv_ta.h **** /**
 128:..\..\..\lvgl\version_6.1.2\lvgl\src\lv_objx/lv_ta.h ****  * Insert a text to the current cursor position
 129:..\..\..\lvgl\version_6.1.2\lvgl\src\lv_objx/lv_ta.h ****  * @param ta pointer to a text area object
 130:..\..\..\lvgl\version_6.1.2\lvgl\src\lv_objx/lv_ta.h ****  * @param txt a '\0' terminated string to insert
 131:..\..\..\lvgl\version_6.1.2\lvgl\src\lv_objx/lv_ta.h ****  */
 132:..\..\..\lvgl\version_6.1.2\lvgl\src\lv_objx/lv_ta.h **** void lv_ta_add_text(lv_obj_t * ta, const char * txt);
 133:..\..\..\lvgl\version_6.1.2\lvgl\src\lv_objx/lv_ta.h **** 
 134:..\..\..\lvgl\version_6.1.2\lvgl\src\lv_objx/lv_ta.h **** /**
 135:..\..\..\lvgl\version_6.1.2\lvgl\src\lv_objx/lv_ta.h ****  * Delete a the left character from the current cursor position
 136:..\..\..\lvgl\version_6.1.2\lvgl\src\lv_objx/lv_ta.h ****  * @param ta pointer to a text area object
 137:..\..\..\lvgl\version_6.1.2\lvgl\src\lv_objx/lv_ta.h ****  */
 138:..\..\..\lvgl\version_6.1.2\lvgl\src\lv_objx/lv_ta.h **** void lv_ta_del_char(lv_obj_t * ta);
 139:..\..\..\lvgl\version_6.1.2\lvgl\src\lv_objx/lv_ta.h **** 
 140:..\..\..\lvgl\version_6.1.2\lvgl\src\lv_objx/lv_ta.h **** /**
 141:..\..\..\lvgl\version_6.1.2\lvgl\src\lv_objx/lv_ta.h ****  * Delete the right character from the current cursor position
 142:..\..\..\lvgl\version_6.1.2\lvgl\src\lv_objx/lv_ta.h ****  * @param ta pointer to a text area object
 143:..\..\..\lvgl\version_6.1.2\lvgl\src\lv_objx/lv_ta.h ****  */
 144:..\..\..\lvgl\version_6.1.2\lvgl\src\lv_objx/lv_ta.h **** void lv_ta_del_char_forward(lv_obj_t * ta);
 145:..\..\..\lvgl\version_6.1.2\lvgl\src\lv_objx/lv_ta.h **** 
 146:..\..\..\lvgl\version_6.1.2\lvgl\src\lv_objx/lv_ta.h **** /*=====================
 147:..\..\..\lvgl\version_6.1.2\lvgl\src\lv_objx/lv_ta.h ****  * Setter functions
 148:..\..\..\lvgl\version_6.1.2\lvgl\src\lv_objx/lv_ta.h ****  *====================*/
 149:..\..\..\lvgl\version_6.1.2\lvgl\src\lv_objx/lv_ta.h **** 
 150:..\..\..\lvgl\version_6.1.2\lvgl\src\lv_objx/lv_ta.h **** /**
 151:..\..\..\lvgl\version_6.1.2\lvgl\src\lv_objx/lv_ta.h ****  * Set the text of a text area
 152:..\..\..\lvgl\version_6.1.2\lvgl\src\lv_objx/lv_ta.h ****  * @param ta pointer to a text area
 153:..\..\..\lvgl\version_6.1.2\lvgl\src\lv_objx/lv_ta.h ****  * @param txt pointer to the text
 154:..\..\..\lvgl\version_6.1.2\lvgl\src\lv_objx/lv_ta.h ****  */
 155:..\..\..\lvgl\version_6.1.2\lvgl\src\lv_objx/lv_ta.h **** void lv_ta_set_text(lv_obj_t * ta, const char * txt);
 156:..\..\..\lvgl\version_6.1.2\lvgl\src\lv_objx/lv_ta.h **** 
 157:..\..\..\lvgl\version_6.1.2\lvgl\src\lv_objx/lv_ta.h **** /**
 158:..\..\..\lvgl\version_6.1.2\lvgl\src\lv_objx/lv_ta.h ****  * Set the placeholder text of a text area
 159:..\..\..\lvgl\version_6.1.2\lvgl\src\lv_objx/lv_ta.h ****  * @param ta pointer to a text area
 160:..\..\..\lvgl\version_6.1.2\lvgl\src\lv_objx/lv_ta.h ****  * @param txt pointer to the text
 161:..\..\..\lvgl\version_6.1.2\lvgl\src\lv_objx/lv_ta.h ****  */
 162:..\..\..\lvgl\version_6.1.2\lvgl\src\lv_objx/lv_ta.h **** void lv_ta_set_placeholder_text(lv_obj_t * ta, const char * txt);
 163:..\..\..\lvgl\version_6.1.2\lvgl\src\lv_objx/lv_ta.h **** 
 164:..\..\..\lvgl\version_6.1.2\lvgl\src\lv_objx/lv_ta.h **** /**
 165:..\..\..\lvgl\version_6.1.2\lvgl\src\lv_objx/lv_ta.h ****  * Set the cursor position
ARM GAS  C:\Users\tmj32\AppData\Local\Temp\ccI3WYuM.s 			page 25


 166:..\..\..\lvgl\version_6.1.2\lvgl\src\lv_objx/lv_ta.h ****  * @param obj pointer to a text area object
 167:..\..\..\lvgl\version_6.1.2\lvgl\src\lv_objx/lv_ta.h ****  * @param pos the new cursor position in character index
 168:..\..\..\lvgl\version_6.1.2\lvgl\src\lv_objx/lv_ta.h ****  *             < 0 : index from the end of the text
 169:..\..\..\lvgl\version_6.1.2\lvgl\src\lv_objx/lv_ta.h ****  *             LV_TA_CURSOR_LAST: go after the last character
 170:..\..\..\lvgl\version_6.1.2\lvgl\src\lv_objx/lv_ta.h ****  */
 171:..\..\..\lvgl\version_6.1.2\lvgl\src\lv_objx/lv_ta.h **** void lv_ta_set_cursor_pos(lv_obj_t * ta, int16_t pos);
 172:..\..\..\lvgl\version_6.1.2\lvgl\src\lv_objx/lv_ta.h **** 
 173:..\..\..\lvgl\version_6.1.2\lvgl\src\lv_objx/lv_ta.h **** /**
 174:..\..\..\lvgl\version_6.1.2\lvgl\src\lv_objx/lv_ta.h ****  * Set the cursor type.
 175:..\..\..\lvgl\version_6.1.2\lvgl\src\lv_objx/lv_ta.h ****  * @param ta pointer to a text area object
 176:..\..\..\lvgl\version_6.1.2\lvgl\src\lv_objx/lv_ta.h ****  * @param cur_type: element of 'lv_cursor_type_t'
 177:..\..\..\lvgl\version_6.1.2\lvgl\src\lv_objx/lv_ta.h ****  */
 178:..\..\..\lvgl\version_6.1.2\lvgl\src\lv_objx/lv_ta.h **** void lv_ta_set_cursor_type(lv_obj_t * ta, lv_cursor_type_t cur_type);
 179:..\..\..\lvgl\version_6.1.2\lvgl\src\lv_objx/lv_ta.h **** 
 180:..\..\..\lvgl\version_6.1.2\lvgl\src\lv_objx/lv_ta.h **** /**
 181:..\..\..\lvgl\version_6.1.2\lvgl\src\lv_objx/lv_ta.h ****  * Enable/Disable the positioning of the the cursor by clicking the text on the text area.
 182:..\..\..\lvgl\version_6.1.2\lvgl\src\lv_objx/lv_ta.h ****  * @param ta pointer to a text area object
 183:..\..\..\lvgl\version_6.1.2\lvgl\src\lv_objx/lv_ta.h ****  * @param en true: enable click positions; false: disable
 184:..\..\..\lvgl\version_6.1.2\lvgl\src\lv_objx/lv_ta.h ****  */
 185:..\..\..\lvgl\version_6.1.2\lvgl\src\lv_objx/lv_ta.h **** void lv_ta_set_cursor_click_pos(lv_obj_t * ta, bool en);
 186:..\..\..\lvgl\version_6.1.2\lvgl\src\lv_objx/lv_ta.h **** 
 187:..\..\..\lvgl\version_6.1.2\lvgl\src\lv_objx/lv_ta.h **** /**
 188:..\..\..\lvgl\version_6.1.2\lvgl\src\lv_objx/lv_ta.h ****  * Enable/Disable password mode
 189:..\..\..\lvgl\version_6.1.2\lvgl\src\lv_objx/lv_ta.h ****  * @param ta pointer to a text area object
 190:..\..\..\lvgl\version_6.1.2\lvgl\src\lv_objx/lv_ta.h ****  * @param en true: enable, false: disable
 191:..\..\..\lvgl\version_6.1.2\lvgl\src\lv_objx/lv_ta.h ****  */
 192:..\..\..\lvgl\version_6.1.2\lvgl\src\lv_objx/lv_ta.h **** void lv_ta_set_pwd_mode(lv_obj_t * ta, bool en);
 193:..\..\..\lvgl\version_6.1.2\lvgl\src\lv_objx/lv_ta.h **** 
 194:..\..\..\lvgl\version_6.1.2\lvgl\src\lv_objx/lv_ta.h **** /**
 195:..\..\..\lvgl\version_6.1.2\lvgl\src\lv_objx/lv_ta.h ****  * Configure the text area to one line or back to normal
 196:..\..\..\lvgl\version_6.1.2\lvgl\src\lv_objx/lv_ta.h ****  * @param ta pointer to a Text area object
 197:..\..\..\lvgl\version_6.1.2\lvgl\src\lv_objx/lv_ta.h ****  * @param en true: one line, false: normal
 198:..\..\..\lvgl\version_6.1.2\lvgl\src\lv_objx/lv_ta.h ****  */
 199:..\..\..\lvgl\version_6.1.2\lvgl\src\lv_objx/lv_ta.h **** void lv_ta_set_one_line(lv_obj_t * ta, bool en);
 200:..\..\..\lvgl\version_6.1.2\lvgl\src\lv_objx/lv_ta.h **** 
 201:..\..\..\lvgl\version_6.1.2\lvgl\src\lv_objx/lv_ta.h **** /**
 202:..\..\..\lvgl\version_6.1.2\lvgl\src\lv_objx/lv_ta.h ****  * Set the alignment of the text area.
 203:..\..\..\lvgl\version_6.1.2\lvgl\src\lv_objx/lv_ta.h ****  * In one line mode the text can be scrolled only with `LV_LABEL_ALIGN_LEFT`.
 204:..\..\..\lvgl\version_6.1.2\lvgl\src\lv_objx/lv_ta.h ****  * This function should be called if the size of text area changes.
 205:..\..\..\lvgl\version_6.1.2\lvgl\src\lv_objx/lv_ta.h ****  * @param ta pointer to a text are object
 206:..\..\..\lvgl\version_6.1.2\lvgl\src\lv_objx/lv_ta.h ****  * @param align the desired alignment from `lv_label_align_t`. (LV_LABEL_ALIGN_LEFT/CENTER/RIGHT)
 207:..\..\..\lvgl\version_6.1.2\lvgl\src\lv_objx/lv_ta.h ****  */
 208:..\..\..\lvgl\version_6.1.2\lvgl\src\lv_objx/lv_ta.h **** void lv_ta_set_text_align(lv_obj_t * ta, lv_label_align_t align);
 209:..\..\..\lvgl\version_6.1.2\lvgl\src\lv_objx/lv_ta.h **** 
 210:..\..\..\lvgl\version_6.1.2\lvgl\src\lv_objx/lv_ta.h **** /**
 211:..\..\..\lvgl\version_6.1.2\lvgl\src\lv_objx/lv_ta.h ****  * Set a list of characters. Only these characters will be accepted by the text area
 212:..\..\..\lvgl\version_6.1.2\lvgl\src\lv_objx/lv_ta.h ****  * @param ta pointer to  Text Area
 213:..\..\..\lvgl\version_6.1.2\lvgl\src\lv_objx/lv_ta.h ****  * @param list list of characters. Only the pointer is saved. E.g. "+-.,0123456789"
 214:..\..\..\lvgl\version_6.1.2\lvgl\src\lv_objx/lv_ta.h ****  */
 215:..\..\..\lvgl\version_6.1.2\lvgl\src\lv_objx/lv_ta.h **** void lv_ta_set_accepted_chars(lv_obj_t * ta, const char * list);
 216:..\..\..\lvgl\version_6.1.2\lvgl\src\lv_objx/lv_ta.h **** 
 217:..\..\..\lvgl\version_6.1.2\lvgl\src\lv_objx/lv_ta.h **** /**
 218:..\..\..\lvgl\version_6.1.2\lvgl\src\lv_objx/lv_ta.h ****  * Set max length of a Text Area.
 219:..\..\..\lvgl\version_6.1.2\lvgl\src\lv_objx/lv_ta.h ****  * @param ta pointer to  Text Area
 220:..\..\..\lvgl\version_6.1.2\lvgl\src\lv_objx/lv_ta.h ****  * @param num the maximal number of characters can be added (`lv_ta_set_text` ignores it)
 221:..\..\..\lvgl\version_6.1.2\lvgl\src\lv_objx/lv_ta.h ****  */
 222:..\..\..\lvgl\version_6.1.2\lvgl\src\lv_objx/lv_ta.h **** void lv_ta_set_max_length(lv_obj_t * ta, uint16_t num);
ARM GAS  C:\Users\tmj32\AppData\Local\Temp\ccI3WYuM.s 			page 26


 223:..\..\..\lvgl\version_6.1.2\lvgl\src\lv_objx/lv_ta.h **** 
 224:..\..\..\lvgl\version_6.1.2\lvgl\src\lv_objx/lv_ta.h **** /**
 225:..\..\..\lvgl\version_6.1.2\lvgl\src\lv_objx/lv_ta.h ****  * In `LV_EVENT_INSERT` the text which planned to be inserted can be replaced by an other text.
 226:..\..\..\lvgl\version_6.1.2\lvgl\src\lv_objx/lv_ta.h ****  * It can be used to add automatic formatting to the text area.
 227:..\..\..\lvgl\version_6.1.2\lvgl\src\lv_objx/lv_ta.h ****  * @param ta pointer to a text area.
 228:..\..\..\lvgl\version_6.1.2\lvgl\src\lv_objx/lv_ta.h ****  * @param txt pointer to a new string to insert. If `""` no text will be added.
 229:..\..\..\lvgl\version_6.1.2\lvgl\src\lv_objx/lv_ta.h ****  *            The variable must be live after the `event_cb` exists. (Should be `global` or
 230:..\..\..\lvgl\version_6.1.2\lvgl\src\lv_objx/lv_ta.h ****  * `static`)
 231:..\..\..\lvgl\version_6.1.2\lvgl\src\lv_objx/lv_ta.h ****  */
 232:..\..\..\lvgl\version_6.1.2\lvgl\src\lv_objx/lv_ta.h **** void lv_ta_set_insert_replace(lv_obj_t * ta, const char * txt);
 233:..\..\..\lvgl\version_6.1.2\lvgl\src\lv_objx/lv_ta.h **** 
 234:..\..\..\lvgl\version_6.1.2\lvgl\src\lv_objx/lv_ta.h **** /**
 235:..\..\..\lvgl\version_6.1.2\lvgl\src\lv_objx/lv_ta.h ****  * Set the scroll bar mode of a text area
 236:..\..\..\lvgl\version_6.1.2\lvgl\src\lv_objx/lv_ta.h ****  * @param ta pointer to a text area object
 237:..\..\..\lvgl\version_6.1.2\lvgl\src\lv_objx/lv_ta.h ****  * @param sb_mode the new mode from 'lv_page_sb_mode_t' enum
 238:..\..\..\lvgl\version_6.1.2\lvgl\src\lv_objx/lv_ta.h ****  */
 239:..\..\..\lvgl\version_6.1.2\lvgl\src\lv_objx/lv_ta.h **** static inline void lv_ta_set_sb_mode(lv_obj_t * ta, lv_sb_mode_t mode)
 240:..\..\..\lvgl\version_6.1.2\lvgl\src\lv_objx/lv_ta.h **** {
 360              		.loc 6 240 0
 361              		.cfi_startproc
 362              		@ args = 0, pretend = 0, frame = 8
 363              		@ frame_needed = 1, uses_anonymous_args = 0
 364 0000 80B5     		push	{r7, lr}
 365              		.cfi_def_cfa_offset 8
 366              		.cfi_offset 7, -8
 367              		.cfi_offset 14, -4
 368 0002 82B0     		sub	sp, sp, #8
 369              		.cfi_def_cfa_offset 16
 370 0004 00AF     		add	r7, sp, #0
 371              		.cfi_def_cfa_register 7
 372 0006 7860     		str	r0, [r7, #4]
 373 0008 0B46     		mov	r3, r1
 374 000a FB70     		strb	r3, [r7, #3]
 241:..\..\..\lvgl\version_6.1.2\lvgl\src\lv_objx/lv_ta.h ****     lv_page_set_sb_mode(ta, mode);
 375              		.loc 6 241 0
 376 000c FB78     		ldrb	r3, [r7, #3]	@ zero_extendqisi2
 377 000e 1946     		mov	r1, r3
 378 0010 7868     		ldr	r0, [r7, #4]
 379 0012 FFF7FEFF 		bl	lv_page_set_sb_mode
 242:..\..\..\lvgl\version_6.1.2\lvgl\src\lv_objx/lv_ta.h **** }
 380              		.loc 6 242 0
 381 0016 00BF     		nop
 382 0018 0837     		adds	r7, r7, #8
 383              		.cfi_def_cfa_offset 8
 384 001a BD46     		mov	sp, r7
 385              		.cfi_def_cfa_register 13
 386              		@ sp needed
 387 001c 80BD     		pop	{r7, pc}
 388              		.cfi_endproc
 389              	.LFE50:
 390              		.size	lv_ta_set_sb_mode, .-lv_ta_set_sb_mode
 391 001e 00BF     		.section	.text.lv_ta_set_edge_flash,"ax",%progbits
 392              		.align	2
 393              		.thumb
 394              		.thumb_func
 395              		.type	lv_ta_set_edge_flash, %function
 396              	lv_ta_set_edge_flash:
ARM GAS  C:\Users\tmj32\AppData\Local\Temp\ccI3WYuM.s 			page 27


 397              	.LFB52:
 243:..\..\..\lvgl\version_6.1.2\lvgl\src\lv_objx/lv_ta.h **** 
 244:..\..\..\lvgl\version_6.1.2\lvgl\src\lv_objx/lv_ta.h **** /**
 245:..\..\..\lvgl\version_6.1.2\lvgl\src\lv_objx/lv_ta.h ****  * Enable the scroll propagation feature. If enabled then the Text area will move its parent if
 246:..\..\..\lvgl\version_6.1.2\lvgl\src\lv_objx/lv_ta.h ****  * there is no more space to scroll.
 247:..\..\..\lvgl\version_6.1.2\lvgl\src\lv_objx/lv_ta.h ****  * @param ta pointer to a Text area
 248:..\..\..\lvgl\version_6.1.2\lvgl\src\lv_objx/lv_ta.h ****  * @param en true or false to enable/disable scroll propagation
 249:..\..\..\lvgl\version_6.1.2\lvgl\src\lv_objx/lv_ta.h ****  */
 250:..\..\..\lvgl\version_6.1.2\lvgl\src\lv_objx/lv_ta.h **** static inline void lv_ta_set_scroll_propagation(lv_obj_t * ta, bool en)
 251:..\..\..\lvgl\version_6.1.2\lvgl\src\lv_objx/lv_ta.h **** {
 252:..\..\..\lvgl\version_6.1.2\lvgl\src\lv_objx/lv_ta.h ****     lv_page_set_scroll_propagation(ta, en);
 253:..\..\..\lvgl\version_6.1.2\lvgl\src\lv_objx/lv_ta.h **** }
 254:..\..\..\lvgl\version_6.1.2\lvgl\src\lv_objx/lv_ta.h **** 
 255:..\..\..\lvgl\version_6.1.2\lvgl\src\lv_objx/lv_ta.h **** /**
 256:..\..\..\lvgl\version_6.1.2\lvgl\src\lv_objx/lv_ta.h ****  * Enable the edge flash effect. (Show an arc when the an edge is reached)
 257:..\..\..\lvgl\version_6.1.2\lvgl\src\lv_objx/lv_ta.h ****  * @param page pointer to a Text Area
 258:..\..\..\lvgl\version_6.1.2\lvgl\src\lv_objx/lv_ta.h ****  * @param en true or false to enable/disable end flash
 259:..\..\..\lvgl\version_6.1.2\lvgl\src\lv_objx/lv_ta.h ****  */
 260:..\..\..\lvgl\version_6.1.2\lvgl\src\lv_objx/lv_ta.h **** static inline void lv_ta_set_edge_flash(lv_obj_t * ta, bool en)
 261:..\..\..\lvgl\version_6.1.2\lvgl\src\lv_objx/lv_ta.h **** {
 398              		.loc 6 261 0
 399              		.cfi_startproc
 400              		@ args = 0, pretend = 0, frame = 8
 401              		@ frame_needed = 1, uses_anonymous_args = 0
 402 0000 80B5     		push	{r7, lr}
 403              		.cfi_def_cfa_offset 8
 404              		.cfi_offset 7, -8
 405              		.cfi_offset 14, -4
 406 0002 82B0     		sub	sp, sp, #8
 407              		.cfi_def_cfa_offset 16
 408 0004 00AF     		add	r7, sp, #0
 409              		.cfi_def_cfa_register 7
 410 0006 7860     		str	r0, [r7, #4]
 411 0008 0B46     		mov	r3, r1
 412 000a FB70     		strb	r3, [r7, #3]
 262:..\..\..\lvgl\version_6.1.2\lvgl\src\lv_objx/lv_ta.h ****     lv_page_set_edge_flash(ta, en);
 413              		.loc 6 262 0
 414 000c FB78     		ldrb	r3, [r7, #3]	@ zero_extendqisi2
 415 000e 1946     		mov	r1, r3
 416 0010 7868     		ldr	r0, [r7, #4]
 417 0012 FFF7FEFF 		bl	lv_page_set_edge_flash
 263:..\..\..\lvgl\version_6.1.2\lvgl\src\lv_objx/lv_ta.h **** }
 418              		.loc 6 263 0
 419 0016 00BF     		nop
 420 0018 0837     		adds	r7, r7, #8
 421              		.cfi_def_cfa_offset 8
 422 001a BD46     		mov	sp, r7
 423              		.cfi_def_cfa_register 13
 424              		@ sp needed
 425 001c 80BD     		pop	{r7, pc}
 426              		.cfi_endproc
 427              	.LFE52:
 428              		.size	lv_ta_set_edge_flash, .-lv_ta_set_edge_flash
 429 001e 00BF     		.section	.text.lv_ta_get_edge_flash,"ax",%progbits
 430              		.align	2
 431              		.thumb
 432              		.thumb_func
ARM GAS  C:\Users\tmj32\AppData\Local\Temp\ccI3WYuM.s 			page 28


 433              		.type	lv_ta_get_edge_flash, %function
 434              	lv_ta_get_edge_flash:
 435              	.LFB55:
 264:..\..\..\lvgl\version_6.1.2\lvgl\src\lv_objx/lv_ta.h **** 
 265:..\..\..\lvgl\version_6.1.2\lvgl\src\lv_objx/lv_ta.h **** /**
 266:..\..\..\lvgl\version_6.1.2\lvgl\src\lv_objx/lv_ta.h ****  * Set a style of a text area
 267:..\..\..\lvgl\version_6.1.2\lvgl\src\lv_objx/lv_ta.h ****  * @param ta pointer to a text area object
 268:..\..\..\lvgl\version_6.1.2\lvgl\src\lv_objx/lv_ta.h ****  * @param type which style should be set
 269:..\..\..\lvgl\version_6.1.2\lvgl\src\lv_objx/lv_ta.h ****  * @param style pointer to a style
 270:..\..\..\lvgl\version_6.1.2\lvgl\src\lv_objx/lv_ta.h ****  */
 271:..\..\..\lvgl\version_6.1.2\lvgl\src\lv_objx/lv_ta.h **** void lv_ta_set_style(lv_obj_t * ta, lv_ta_style_t type, const lv_style_t * style);
 272:..\..\..\lvgl\version_6.1.2\lvgl\src\lv_objx/lv_ta.h **** 
 273:..\..\..\lvgl\version_6.1.2\lvgl\src\lv_objx/lv_ta.h **** /**
 274:..\..\..\lvgl\version_6.1.2\lvgl\src\lv_objx/lv_ta.h ****  * Enable/disable selection mode.
 275:..\..\..\lvgl\version_6.1.2\lvgl\src\lv_objx/lv_ta.h ****  * @param ta pointer to a text area object
 276:..\..\..\lvgl\version_6.1.2\lvgl\src\lv_objx/lv_ta.h ****  * @param en true or false to enable/disable selection mode
 277:..\..\..\lvgl\version_6.1.2\lvgl\src\lv_objx/lv_ta.h ****  */
 278:..\..\..\lvgl\version_6.1.2\lvgl\src\lv_objx/lv_ta.h **** void lv_ta_set_text_sel(lv_obj_t * ta, bool en);
 279:..\..\..\lvgl\version_6.1.2\lvgl\src\lv_objx/lv_ta.h **** 
 280:..\..\..\lvgl\version_6.1.2\lvgl\src\lv_objx/lv_ta.h **** /**
 281:..\..\..\lvgl\version_6.1.2\lvgl\src\lv_objx/lv_ta.h ****  * Set how long show the password before changing it to '*'
 282:..\..\..\lvgl\version_6.1.2\lvgl\src\lv_objx/lv_ta.h ****  * @param ta pointer to Text area
 283:..\..\..\lvgl\version_6.1.2\lvgl\src\lv_objx/lv_ta.h ****  * @param time show time in milliseconds. 0: hide immediately.
 284:..\..\..\lvgl\version_6.1.2\lvgl\src\lv_objx/lv_ta.h ****  */
 285:..\..\..\lvgl\version_6.1.2\lvgl\src\lv_objx/lv_ta.h **** void lv_ta_set_pwd_show_time(lv_obj_t * ta, uint16_t time);
 286:..\..\..\lvgl\version_6.1.2\lvgl\src\lv_objx/lv_ta.h **** 
 287:..\..\..\lvgl\version_6.1.2\lvgl\src\lv_objx/lv_ta.h **** /**
 288:..\..\..\lvgl\version_6.1.2\lvgl\src\lv_objx/lv_ta.h ****  * Set cursor blink animation time
 289:..\..\..\lvgl\version_6.1.2\lvgl\src\lv_objx/lv_ta.h ****  * @param ta pointer to Text area
 290:..\..\..\lvgl\version_6.1.2\lvgl\src\lv_objx/lv_ta.h ****  * @param time blink period. 0: disable blinking
 291:..\..\..\lvgl\version_6.1.2\lvgl\src\lv_objx/lv_ta.h ****  */
 292:..\..\..\lvgl\version_6.1.2\lvgl\src\lv_objx/lv_ta.h **** void lv_ta_set_cursor_blink_time(lv_obj_t * ta, uint16_t time);
 293:..\..\..\lvgl\version_6.1.2\lvgl\src\lv_objx/lv_ta.h **** 
 294:..\..\..\lvgl\version_6.1.2\lvgl\src\lv_objx/lv_ta.h **** /*=====================
 295:..\..\..\lvgl\version_6.1.2\lvgl\src\lv_objx/lv_ta.h ****  * Getter functions
 296:..\..\..\lvgl\version_6.1.2\lvgl\src\lv_objx/lv_ta.h ****  *====================*/
 297:..\..\..\lvgl\version_6.1.2\lvgl\src\lv_objx/lv_ta.h **** 
 298:..\..\..\lvgl\version_6.1.2\lvgl\src\lv_objx/lv_ta.h **** /**
 299:..\..\..\lvgl\version_6.1.2\lvgl\src\lv_objx/lv_ta.h ****  * Get the text of a text area. In password mode it gives the real text (not '*'s).
 300:..\..\..\lvgl\version_6.1.2\lvgl\src\lv_objx/lv_ta.h ****  * @param ta pointer to a text area object
 301:..\..\..\lvgl\version_6.1.2\lvgl\src\lv_objx/lv_ta.h ****  * @return pointer to the text
 302:..\..\..\lvgl\version_6.1.2\lvgl\src\lv_objx/lv_ta.h ****  */
 303:..\..\..\lvgl\version_6.1.2\lvgl\src\lv_objx/lv_ta.h **** const char * lv_ta_get_text(const lv_obj_t * ta);
 304:..\..\..\lvgl\version_6.1.2\lvgl\src\lv_objx/lv_ta.h **** 
 305:..\..\..\lvgl\version_6.1.2\lvgl\src\lv_objx/lv_ta.h **** /**
 306:..\..\..\lvgl\version_6.1.2\lvgl\src\lv_objx/lv_ta.h ****  * Get the placeholder text of a text area
 307:..\..\..\lvgl\version_6.1.2\lvgl\src\lv_objx/lv_ta.h ****  * @param ta pointer to a text area object
 308:..\..\..\lvgl\version_6.1.2\lvgl\src\lv_objx/lv_ta.h ****  * @return pointer to the text
 309:..\..\..\lvgl\version_6.1.2\lvgl\src\lv_objx/lv_ta.h ****  */
 310:..\..\..\lvgl\version_6.1.2\lvgl\src\lv_objx/lv_ta.h **** const char * lv_ta_get_placeholder_text(lv_obj_t * ta);
 311:..\..\..\lvgl\version_6.1.2\lvgl\src\lv_objx/lv_ta.h **** 
 312:..\..\..\lvgl\version_6.1.2\lvgl\src\lv_objx/lv_ta.h **** /**
 313:..\..\..\lvgl\version_6.1.2\lvgl\src\lv_objx/lv_ta.h ****  * Get the label of a text area
 314:..\..\..\lvgl\version_6.1.2\lvgl\src\lv_objx/lv_ta.h ****  * @param ta pointer to a text area object
 315:..\..\..\lvgl\version_6.1.2\lvgl\src\lv_objx/lv_ta.h ****  * @return pointer to the label object
 316:..\..\..\lvgl\version_6.1.2\lvgl\src\lv_objx/lv_ta.h ****  */
 317:..\..\..\lvgl\version_6.1.2\lvgl\src\lv_objx/lv_ta.h **** lv_obj_t * lv_ta_get_label(const lv_obj_t * ta);
ARM GAS  C:\Users\tmj32\AppData\Local\Temp\ccI3WYuM.s 			page 29


 318:..\..\..\lvgl\version_6.1.2\lvgl\src\lv_objx/lv_ta.h **** 
 319:..\..\..\lvgl\version_6.1.2\lvgl\src\lv_objx/lv_ta.h **** /**
 320:..\..\..\lvgl\version_6.1.2\lvgl\src\lv_objx/lv_ta.h ****  * Get the current cursor position in character index
 321:..\..\..\lvgl\version_6.1.2\lvgl\src\lv_objx/lv_ta.h ****  * @param ta pointer to a text area object
 322:..\..\..\lvgl\version_6.1.2\lvgl\src\lv_objx/lv_ta.h ****  * @return the cursor position
 323:..\..\..\lvgl\version_6.1.2\lvgl\src\lv_objx/lv_ta.h ****  */
 324:..\..\..\lvgl\version_6.1.2\lvgl\src\lv_objx/lv_ta.h **** uint16_t lv_ta_get_cursor_pos(const lv_obj_t * ta);
 325:..\..\..\lvgl\version_6.1.2\lvgl\src\lv_objx/lv_ta.h **** 
 326:..\..\..\lvgl\version_6.1.2\lvgl\src\lv_objx/lv_ta.h **** /**
 327:..\..\..\lvgl\version_6.1.2\lvgl\src\lv_objx/lv_ta.h ****  * Get the current cursor type.
 328:..\..\..\lvgl\version_6.1.2\lvgl\src\lv_objx/lv_ta.h ****  * @param ta pointer to a text area object
 329:..\..\..\lvgl\version_6.1.2\lvgl\src\lv_objx/lv_ta.h ****  * @return element of 'lv_cursor_type_t'
 330:..\..\..\lvgl\version_6.1.2\lvgl\src\lv_objx/lv_ta.h ****  */
 331:..\..\..\lvgl\version_6.1.2\lvgl\src\lv_objx/lv_ta.h **** lv_cursor_type_t lv_ta_get_cursor_type(const lv_obj_t * ta);
 332:..\..\..\lvgl\version_6.1.2\lvgl\src\lv_objx/lv_ta.h **** 
 333:..\..\..\lvgl\version_6.1.2\lvgl\src\lv_objx/lv_ta.h **** /**
 334:..\..\..\lvgl\version_6.1.2\lvgl\src\lv_objx/lv_ta.h ****  * Get whether the cursor click positioning is enabled or not.
 335:..\..\..\lvgl\version_6.1.2\lvgl\src\lv_objx/lv_ta.h ****  * @param ta pointer to a text area object
 336:..\..\..\lvgl\version_6.1.2\lvgl\src\lv_objx/lv_ta.h ****  * @return true: enable click positions; false: disable
 337:..\..\..\lvgl\version_6.1.2\lvgl\src\lv_objx/lv_ta.h ****  */
 338:..\..\..\lvgl\version_6.1.2\lvgl\src\lv_objx/lv_ta.h **** bool lv_ta_get_cursor_click_pos(lv_obj_t * ta);
 339:..\..\..\lvgl\version_6.1.2\lvgl\src\lv_objx/lv_ta.h **** 
 340:..\..\..\lvgl\version_6.1.2\lvgl\src\lv_objx/lv_ta.h **** /**
 341:..\..\..\lvgl\version_6.1.2\lvgl\src\lv_objx/lv_ta.h ****  * Get the password mode attribute
 342:..\..\..\lvgl\version_6.1.2\lvgl\src\lv_objx/lv_ta.h ****  * @param ta pointer to a text area object
 343:..\..\..\lvgl\version_6.1.2\lvgl\src\lv_objx/lv_ta.h ****  * @return true: password mode is enabled, false: disabled
 344:..\..\..\lvgl\version_6.1.2\lvgl\src\lv_objx/lv_ta.h ****  */
 345:..\..\..\lvgl\version_6.1.2\lvgl\src\lv_objx/lv_ta.h **** bool lv_ta_get_pwd_mode(const lv_obj_t * ta);
 346:..\..\..\lvgl\version_6.1.2\lvgl\src\lv_objx/lv_ta.h **** 
 347:..\..\..\lvgl\version_6.1.2\lvgl\src\lv_objx/lv_ta.h **** /**
 348:..\..\..\lvgl\version_6.1.2\lvgl\src\lv_objx/lv_ta.h ****  * Get the one line configuration attribute
 349:..\..\..\lvgl\version_6.1.2\lvgl\src\lv_objx/lv_ta.h ****  * @param ta pointer to a text area object
 350:..\..\..\lvgl\version_6.1.2\lvgl\src\lv_objx/lv_ta.h ****  * @return true: one line configuration is enabled, false: disabled
 351:..\..\..\lvgl\version_6.1.2\lvgl\src\lv_objx/lv_ta.h ****  */
 352:..\..\..\lvgl\version_6.1.2\lvgl\src\lv_objx/lv_ta.h **** bool lv_ta_get_one_line(const lv_obj_t * ta);
 353:..\..\..\lvgl\version_6.1.2\lvgl\src\lv_objx/lv_ta.h **** 
 354:..\..\..\lvgl\version_6.1.2\lvgl\src\lv_objx/lv_ta.h **** /**
 355:..\..\..\lvgl\version_6.1.2\lvgl\src\lv_objx/lv_ta.h ****  * Get a list of accepted characters.
 356:..\..\..\lvgl\version_6.1.2\lvgl\src\lv_objx/lv_ta.h ****  * @param ta pointer to  Text Area
 357:..\..\..\lvgl\version_6.1.2\lvgl\src\lv_objx/lv_ta.h ****  * @return list of accented characters.
 358:..\..\..\lvgl\version_6.1.2\lvgl\src\lv_objx/lv_ta.h ****  */
 359:..\..\..\lvgl\version_6.1.2\lvgl\src\lv_objx/lv_ta.h **** const char * lv_ta_get_accepted_chars(lv_obj_t * ta);
 360:..\..\..\lvgl\version_6.1.2\lvgl\src\lv_objx/lv_ta.h **** 
 361:..\..\..\lvgl\version_6.1.2\lvgl\src\lv_objx/lv_ta.h **** /**
 362:..\..\..\lvgl\version_6.1.2\lvgl\src\lv_objx/lv_ta.h ****  * Set max length of a Text Area.
 363:..\..\..\lvgl\version_6.1.2\lvgl\src\lv_objx/lv_ta.h ****  * @param ta pointer to  Text Area
 364:..\..\..\lvgl\version_6.1.2\lvgl\src\lv_objx/lv_ta.h ****  * @return the maximal number of characters to be add
 365:..\..\..\lvgl\version_6.1.2\lvgl\src\lv_objx/lv_ta.h ****  */
 366:..\..\..\lvgl\version_6.1.2\lvgl\src\lv_objx/lv_ta.h **** uint16_t lv_ta_get_max_length(lv_obj_t * ta);
 367:..\..\..\lvgl\version_6.1.2\lvgl\src\lv_objx/lv_ta.h **** 
 368:..\..\..\lvgl\version_6.1.2\lvgl\src\lv_objx/lv_ta.h **** /**
 369:..\..\..\lvgl\version_6.1.2\lvgl\src\lv_objx/lv_ta.h ****  * Get the scroll bar mode of a text area
 370:..\..\..\lvgl\version_6.1.2\lvgl\src\lv_objx/lv_ta.h ****  * @param ta pointer to a text area object
 371:..\..\..\lvgl\version_6.1.2\lvgl\src\lv_objx/lv_ta.h ****  * @return scrollbar mode from 'lv_page_sb_mode_t' enum
 372:..\..\..\lvgl\version_6.1.2\lvgl\src\lv_objx/lv_ta.h ****  */
 373:..\..\..\lvgl\version_6.1.2\lvgl\src\lv_objx/lv_ta.h **** static inline lv_sb_mode_t lv_ta_get_sb_mode(const lv_obj_t * ta)
 374:..\..\..\lvgl\version_6.1.2\lvgl\src\lv_objx/lv_ta.h **** {
ARM GAS  C:\Users\tmj32\AppData\Local\Temp\ccI3WYuM.s 			page 30


 375:..\..\..\lvgl\version_6.1.2\lvgl\src\lv_objx/lv_ta.h ****     return lv_page_get_sb_mode(ta);
 376:..\..\..\lvgl\version_6.1.2\lvgl\src\lv_objx/lv_ta.h **** }
 377:..\..\..\lvgl\version_6.1.2\lvgl\src\lv_objx/lv_ta.h **** 
 378:..\..\..\lvgl\version_6.1.2\lvgl\src\lv_objx/lv_ta.h **** /**
 379:..\..\..\lvgl\version_6.1.2\lvgl\src\lv_objx/lv_ta.h ****  * Get the scroll propagation property
 380:..\..\..\lvgl\version_6.1.2\lvgl\src\lv_objx/lv_ta.h ****  * @param ta pointer to a Text area
 381:..\..\..\lvgl\version_6.1.2\lvgl\src\lv_objx/lv_ta.h ****  * @return true or false
 382:..\..\..\lvgl\version_6.1.2\lvgl\src\lv_objx/lv_ta.h ****  */
 383:..\..\..\lvgl\version_6.1.2\lvgl\src\lv_objx/lv_ta.h **** static inline bool lv_ta_get_scroll_propagation(lv_obj_t * ta)
 384:..\..\..\lvgl\version_6.1.2\lvgl\src\lv_objx/lv_ta.h **** {
 385:..\..\..\lvgl\version_6.1.2\lvgl\src\lv_objx/lv_ta.h ****     return lv_page_get_scroll_propagation(ta);
 386:..\..\..\lvgl\version_6.1.2\lvgl\src\lv_objx/lv_ta.h **** }
 387:..\..\..\lvgl\version_6.1.2\lvgl\src\lv_objx/lv_ta.h **** 
 388:..\..\..\lvgl\version_6.1.2\lvgl\src\lv_objx/lv_ta.h **** /**
 389:..\..\..\lvgl\version_6.1.2\lvgl\src\lv_objx/lv_ta.h ****  * Get the scroll propagation property
 390:..\..\..\lvgl\version_6.1.2\lvgl\src\lv_objx/lv_ta.h ****  * @param ta pointer to a Text area
 391:..\..\..\lvgl\version_6.1.2\lvgl\src\lv_objx/lv_ta.h ****  * @return true or false
 392:..\..\..\lvgl\version_6.1.2\lvgl\src\lv_objx/lv_ta.h ****  */
 393:..\..\..\lvgl\version_6.1.2\lvgl\src\lv_objx/lv_ta.h **** static inline bool lv_ta_get_edge_flash(lv_obj_t * ta)
 394:..\..\..\lvgl\version_6.1.2\lvgl\src\lv_objx/lv_ta.h **** {
 436              		.loc 6 394 0
 437              		.cfi_startproc
 438              		@ args = 0, pretend = 0, frame = 8
 439              		@ frame_needed = 1, uses_anonymous_args = 0
 440 0000 80B5     		push	{r7, lr}
 441              		.cfi_def_cfa_offset 8
 442              		.cfi_offset 7, -8
 443              		.cfi_offset 14, -4
 444 0002 82B0     		sub	sp, sp, #8
 445              		.cfi_def_cfa_offset 16
 446 0004 00AF     		add	r7, sp, #0
 447              		.cfi_def_cfa_register 7
 448 0006 7860     		str	r0, [r7, #4]
 395:..\..\..\lvgl\version_6.1.2\lvgl\src\lv_objx/lv_ta.h ****     return lv_page_get_edge_flash(ta);
 449              		.loc 6 395 0
 450 0008 7868     		ldr	r0, [r7, #4]
 451 000a FFF7FEFF 		bl	lv_page_get_edge_flash
 452 000e 0346     		mov	r3, r0
 396:..\..\..\lvgl\version_6.1.2\lvgl\src\lv_objx/lv_ta.h **** }
 453              		.loc 6 396 0
 454 0010 1846     		mov	r0, r3
 455 0012 0837     		adds	r7, r7, #8
 456              		.cfi_def_cfa_offset 8
 457 0014 BD46     		mov	sp, r7
 458              		.cfi_def_cfa_register 13
 459              		@ sp needed
 460 0016 80BD     		pop	{r7, pc}
 461              		.cfi_endproc
 462              	.LFE55:
 463              		.size	lv_ta_get_edge_flash, .-lv_ta_get_edge_flash
 464              		.bss
 465              		.align	2
 466              	ancestor_design:
 467 0000 00000000 		.space	4
 468              		.align	2
 469              	scrl_design:
 470 0004 00000000 		.space	4
ARM GAS  C:\Users\tmj32\AppData\Local\Temp\ccI3WYuM.s 			page 31


 471              		.align	2
 472              	ancestor_signal:
 473 0008 00000000 		.space	4
 474              		.align	2
 475              	scrl_signal:
 476 000c 00000000 		.space	4
 477              		.align	2
 478              	ta_insert_replace:
 479 0010 00000000 		.space	4
 480              		.section	.rodata
 481              		.align	2
 482              	.LC0:
 483 0000 54657874 		.ascii	"Text area\000"
 483      20617265 
 483      6100
 484              		.section	.text.lv_ta_create,"ax",%progbits
 485              		.align	2
 486              		.global	lv_ta_create
 487              		.thumb
 488              		.thumb_func
 489              		.type	lv_ta_create, %function
 490              	lv_ta_create:
 491              	.LFB56:
 492              		.file 7 "..\\..\\..\\lvgl\\version_6.1.2\\lvgl\\src\\lv_objx\\lv_ta.c"
   1:..\..\..\lvgl\version_6.1.2\lvgl\src\lv_objx/lv_ta.c **** /**
   2:..\..\..\lvgl\version_6.1.2\lvgl\src\lv_objx/lv_ta.c ****  * @file lv_ta.c
   3:..\..\..\lvgl\version_6.1.2\lvgl\src\lv_objx/lv_ta.c ****  *
   4:..\..\..\lvgl\version_6.1.2\lvgl\src\lv_objx/lv_ta.c ****  */
   5:..\..\..\lvgl\version_6.1.2\lvgl\src\lv_objx/lv_ta.c **** 
   6:..\..\..\lvgl\version_6.1.2\lvgl\src\lv_objx/lv_ta.c **** /*********************
   7:..\..\..\lvgl\version_6.1.2\lvgl\src\lv_objx/lv_ta.c ****  *      INCLUDES
   8:..\..\..\lvgl\version_6.1.2\lvgl\src\lv_objx/lv_ta.c ****  *********************/
   9:..\..\..\lvgl\version_6.1.2\lvgl\src\lv_objx/lv_ta.c **** #include "lv_ta.h"
  10:..\..\..\lvgl\version_6.1.2\lvgl\src\lv_objx/lv_ta.c **** #if LV_USE_TA != 0
  11:..\..\..\lvgl\version_6.1.2\lvgl\src\lv_objx/lv_ta.c **** #include <string.h>
  12:..\..\..\lvgl\version_6.1.2\lvgl\src\lv_objx/lv_ta.c **** #include "../lv_core/lv_debug.h"
  13:..\..\..\lvgl\version_6.1.2\lvgl\src\lv_objx/lv_ta.c **** #include "../lv_core/lv_group.h"
  14:..\..\..\lvgl\version_6.1.2\lvgl\src\lv_objx/lv_ta.c **** #include "../lv_core/lv_refr.h"
  15:..\..\..\lvgl\version_6.1.2\lvgl\src\lv_objx/lv_ta.c **** #include "../lv_draw/lv_draw.h"
  16:..\..\..\lvgl\version_6.1.2\lvgl\src\lv_objx/lv_ta.c **** #include "../lv_themes/lv_theme.h"
  17:..\..\..\lvgl\version_6.1.2\lvgl\src\lv_objx/lv_ta.c **** #include "../lv_misc/lv_anim.h"
  18:..\..\..\lvgl\version_6.1.2\lvgl\src\lv_objx/lv_ta.c **** #include "../lv_misc/lv_txt.h"
  19:..\..\..\lvgl\version_6.1.2\lvgl\src\lv_objx/lv_ta.c **** #include "../lv_misc/lv_math.h"
  20:..\..\..\lvgl\version_6.1.2\lvgl\src\lv_objx/lv_ta.c **** 
  21:..\..\..\lvgl\version_6.1.2\lvgl\src\lv_objx/lv_ta.c **** /*********************
  22:..\..\..\lvgl\version_6.1.2\lvgl\src\lv_objx/lv_ta.c ****  *      DEFINES
  23:..\..\..\lvgl\version_6.1.2\lvgl\src\lv_objx/lv_ta.c ****  *********************/
  24:..\..\..\lvgl\version_6.1.2\lvgl\src\lv_objx/lv_ta.c **** #define LV_OBJX_NAME "lv_ta"
  25:..\..\..\lvgl\version_6.1.2\lvgl\src\lv_objx/lv_ta.c **** 
  26:..\..\..\lvgl\version_6.1.2\lvgl\src\lv_objx/lv_ta.c **** /*Test configuration*/
  27:..\..\..\lvgl\version_6.1.2\lvgl\src\lv_objx/lv_ta.c **** #ifndef LV_TA_DEF_CURSOR_BLINK_TIME
  28:..\..\..\lvgl\version_6.1.2\lvgl\src\lv_objx/lv_ta.c **** #define LV_TA_DEF_CURSOR_BLINK_TIME 400 /*ms*/
  29:..\..\..\lvgl\version_6.1.2\lvgl\src\lv_objx/lv_ta.c **** #endif
  30:..\..\..\lvgl\version_6.1.2\lvgl\src\lv_objx/lv_ta.c **** 
  31:..\..\..\lvgl\version_6.1.2\lvgl\src\lv_objx/lv_ta.c **** #ifndef LV_TA_DEF_PWD_SHOW_TIME
  32:..\..\..\lvgl\version_6.1.2\lvgl\src\lv_objx/lv_ta.c **** #define LV_TA_DEF_PWD_SHOW_TIME 1500 /*ms*/
  33:..\..\..\lvgl\version_6.1.2\lvgl\src\lv_objx/lv_ta.c **** #endif
ARM GAS  C:\Users\tmj32\AppData\Local\Temp\ccI3WYuM.s 			page 32


  34:..\..\..\lvgl\version_6.1.2\lvgl\src\lv_objx/lv_ta.c **** 
  35:..\..\..\lvgl\version_6.1.2\lvgl\src\lv_objx/lv_ta.c **** #define LV_TA_DEF_WIDTH (2 * LV_DPI)
  36:..\..\..\lvgl\version_6.1.2\lvgl\src\lv_objx/lv_ta.c **** #define LV_TA_DEF_HEIGHT (1 * LV_DPI)
  37:..\..\..\lvgl\version_6.1.2\lvgl\src\lv_objx/lv_ta.c **** 
  38:..\..\..\lvgl\version_6.1.2\lvgl\src\lv_objx/lv_ta.c **** /**********************
  39:..\..\..\lvgl\version_6.1.2\lvgl\src\lv_objx/lv_ta.c ****  *      TYPEDEFS
  40:..\..\..\lvgl\version_6.1.2\lvgl\src\lv_objx/lv_ta.c ****  **********************/
  41:..\..\..\lvgl\version_6.1.2\lvgl\src\lv_objx/lv_ta.c **** 
  42:..\..\..\lvgl\version_6.1.2\lvgl\src\lv_objx/lv_ta.c **** /**********************
  43:..\..\..\lvgl\version_6.1.2\lvgl\src\lv_objx/lv_ta.c ****  *  STATIC PROTOTYPES
  44:..\..\..\lvgl\version_6.1.2\lvgl\src\lv_objx/lv_ta.c ****  **********************/
  45:..\..\..\lvgl\version_6.1.2\lvgl\src\lv_objx/lv_ta.c **** static bool lv_ta_design(lv_obj_t * ta, const lv_area_t * mask, lv_design_mode_t mode);
  46:..\..\..\lvgl\version_6.1.2\lvgl\src\lv_objx/lv_ta.c **** static bool lv_ta_scrollable_design(lv_obj_t * scrl, const lv_area_t * mask, lv_design_mode_t mode)
  47:..\..\..\lvgl\version_6.1.2\lvgl\src\lv_objx/lv_ta.c **** static lv_res_t lv_ta_signal(lv_obj_t * ta, lv_signal_t sign, void * param);
  48:..\..\..\lvgl\version_6.1.2\lvgl\src\lv_objx/lv_ta.c **** static lv_res_t lv_ta_scrollable_signal(lv_obj_t * scrl, lv_signal_t sign, void * param);
  49:..\..\..\lvgl\version_6.1.2\lvgl\src\lv_objx/lv_ta.c **** #if LV_USE_ANIMATION
  50:..\..\..\lvgl\version_6.1.2\lvgl\src\lv_objx/lv_ta.c **** static void cursor_blink_anim(lv_obj_t * ta, lv_anim_value_t show);
  51:..\..\..\lvgl\version_6.1.2\lvgl\src\lv_objx/lv_ta.c **** static void pwd_char_hider_anim(lv_obj_t * ta, lv_anim_value_t x);
  52:..\..\..\lvgl\version_6.1.2\lvgl\src\lv_objx/lv_ta.c **** static void pwd_char_hider_anim_ready(lv_anim_t * a);
  53:..\..\..\lvgl\version_6.1.2\lvgl\src\lv_objx/lv_ta.c **** #endif
  54:..\..\..\lvgl\version_6.1.2\lvgl\src\lv_objx/lv_ta.c **** static void pwd_char_hider(lv_obj_t * ta);
  55:..\..\..\lvgl\version_6.1.2\lvgl\src\lv_objx/lv_ta.c **** static bool char_is_accepted(lv_obj_t * ta, uint32_t c);
  56:..\..\..\lvgl\version_6.1.2\lvgl\src\lv_objx/lv_ta.c **** static void get_cursor_style(lv_obj_t * ta, lv_style_t * style_res);
  57:..\..\..\lvgl\version_6.1.2\lvgl\src\lv_objx/lv_ta.c **** static void refr_cursor_area(lv_obj_t * ta);
  58:..\..\..\lvgl\version_6.1.2\lvgl\src\lv_objx/lv_ta.c **** static void placeholder_update(lv_obj_t * ta);
  59:..\..\..\lvgl\version_6.1.2\lvgl\src\lv_objx/lv_ta.c **** static void update_cursor_position_on_click(lv_obj_t * ta, lv_signal_t sign, lv_indev_t * click_sou
  60:..\..\..\lvgl\version_6.1.2\lvgl\src\lv_objx/lv_ta.c **** 
  61:..\..\..\lvgl\version_6.1.2\lvgl\src\lv_objx/lv_ta.c **** /**********************
  62:..\..\..\lvgl\version_6.1.2\lvgl\src\lv_objx/lv_ta.c ****  *  STATIC VARIABLES
  63:..\..\..\lvgl\version_6.1.2\lvgl\src\lv_objx/lv_ta.c ****  **********************/
  64:..\..\..\lvgl\version_6.1.2\lvgl\src\lv_objx/lv_ta.c **** static lv_design_cb_t ancestor_design;
  65:..\..\..\lvgl\version_6.1.2\lvgl\src\lv_objx/lv_ta.c **** static lv_design_cb_t scrl_design;
  66:..\..\..\lvgl\version_6.1.2\lvgl\src\lv_objx/lv_ta.c **** static lv_signal_cb_t ancestor_signal;
  67:..\..\..\lvgl\version_6.1.2\lvgl\src\lv_objx/lv_ta.c **** static lv_signal_cb_t scrl_signal;
  68:..\..\..\lvgl\version_6.1.2\lvgl\src\lv_objx/lv_ta.c **** static const char * ta_insert_replace;
  69:..\..\..\lvgl\version_6.1.2\lvgl\src\lv_objx/lv_ta.c **** 
  70:..\..\..\lvgl\version_6.1.2\lvgl\src\lv_objx/lv_ta.c **** /**********************
  71:..\..\..\lvgl\version_6.1.2\lvgl\src\lv_objx/lv_ta.c ****  *      MACROS
  72:..\..\..\lvgl\version_6.1.2\lvgl\src\lv_objx/lv_ta.c ****  **********************/
  73:..\..\..\lvgl\version_6.1.2\lvgl\src\lv_objx/lv_ta.c **** 
  74:..\..\..\lvgl\version_6.1.2\lvgl\src\lv_objx/lv_ta.c **** /**********************
  75:..\..\..\lvgl\version_6.1.2\lvgl\src\lv_objx/lv_ta.c ****  *   GLOBAL FUNCTIONS
  76:..\..\..\lvgl\version_6.1.2\lvgl\src\lv_objx/lv_ta.c ****  **********************/
  77:..\..\..\lvgl\version_6.1.2\lvgl\src\lv_objx/lv_ta.c **** 
  78:..\..\..\lvgl\version_6.1.2\lvgl\src\lv_objx/lv_ta.c **** /**
  79:..\..\..\lvgl\version_6.1.2\lvgl\src\lv_objx/lv_ta.c ****  * Create a text area objects
  80:..\..\..\lvgl\version_6.1.2\lvgl\src\lv_objx/lv_ta.c ****  * @param par pointer to an object, it will be the parent of the new text area
  81:..\..\..\lvgl\version_6.1.2\lvgl\src\lv_objx/lv_ta.c ****  * @param copy pointer to a text area object, if not NULL then the new object will be copied from i
  82:..\..\..\lvgl\version_6.1.2\lvgl\src\lv_objx/lv_ta.c ****  * @return pointer to the created text area
  83:..\..\..\lvgl\version_6.1.2\lvgl\src\lv_objx/lv_ta.c ****  */
  84:..\..\..\lvgl\version_6.1.2\lvgl\src\lv_objx/lv_ta.c **** lv_obj_t * lv_ta_create(lv_obj_t * par, const lv_obj_t * copy)
  85:..\..\..\lvgl\version_6.1.2\lvgl\src\lv_objx/lv_ta.c **** {
 493              		.loc 7 85 0
 494              		.cfi_startproc
 495              		@ args = 0, pretend = 0, frame = 64
 496              		@ frame_needed = 1, uses_anonymous_args = 0
 497 0000 80B5     		push	{r7, lr}
ARM GAS  C:\Users\tmj32\AppData\Local\Temp\ccI3WYuM.s 			page 33


 498              		.cfi_def_cfa_offset 8
 499              		.cfi_offset 7, -8
 500              		.cfi_offset 14, -4
 501 0002 90B0     		sub	sp, sp, #64
 502              		.cfi_def_cfa_offset 72
 503 0004 00AF     		add	r7, sp, #0
 504              		.cfi_def_cfa_register 7
 505 0006 7860     		str	r0, [r7, #4]
 506 0008 3960     		str	r1, [r7]
  86:..\..\..\lvgl\version_6.1.2\lvgl\src\lv_objx/lv_ta.c ****     LV_LOG_TRACE("text area create started");
  87:..\..\..\lvgl\version_6.1.2\lvgl\src\lv_objx/lv_ta.c **** 
  88:..\..\..\lvgl\version_6.1.2\lvgl\src\lv_objx/lv_ta.c ****     /*Create the ancestor object*/
  89:..\..\..\lvgl\version_6.1.2\lvgl\src\lv_objx/lv_ta.c ****     lv_obj_t * new_ta = lv_page_create(par, copy);
 507              		.loc 7 89 0
 508 000a 3968     		ldr	r1, [r7]
 509 000c 7868     		ldr	r0, [r7, #4]
 510 000e FFF7FEFF 		bl	lv_page_create
 511 0012 F863     		str	r0, [r7, #60]
  90:..\..\..\lvgl\version_6.1.2\lvgl\src\lv_objx/lv_ta.c ****     LV_ASSERT_MEM(new_ta);
  91:..\..\..\lvgl\version_6.1.2\lvgl\src\lv_objx/lv_ta.c ****     if(new_ta == NULL) return NULL;
 512              		.loc 7 91 0
 513 0014 FB6B     		ldr	r3, [r7, #60]
 514 0016 002B     		cmp	r3, #0
 515 0018 01D1     		bne	.L18
 516              		.loc 7 91 0 is_stmt 0 discriminator 1
 517 001a 0023     		movs	r3, #0
 518 001c C4E1     		b	.L19
 519              	.L18:
  92:..\..\..\lvgl\version_6.1.2\lvgl\src\lv_objx/lv_ta.c **** 
  93:..\..\..\lvgl\version_6.1.2\lvgl\src\lv_objx/lv_ta.c ****     if(ancestor_signal == NULL) ancestor_signal = lv_obj_get_signal_cb(new_ta);
 520              		.loc 7 93 0 is_stmt 1
 521 001e B04B     		ldr	r3, .L36
 522 0020 1B68     		ldr	r3, [r3]
 523 0022 002B     		cmp	r3, #0
 524 0024 05D1     		bne	.L20
 525              		.loc 7 93 0 is_stmt 0 discriminator 1
 526 0026 F86B     		ldr	r0, [r7, #60]
 527 0028 FFF7FEFF 		bl	lv_obj_get_signal_cb
 528 002c 0246     		mov	r2, r0
 529 002e AC4B     		ldr	r3, .L36
 530 0030 1A60     		str	r2, [r3]
 531              	.L20:
  94:..\..\..\lvgl\version_6.1.2\lvgl\src\lv_objx/lv_ta.c ****     if(ancestor_design == NULL) ancestor_design = lv_obj_get_design_cb(new_ta);
 532              		.loc 7 94 0 is_stmt 1
 533 0032 AC4B     		ldr	r3, .L36+4
 534 0034 1B68     		ldr	r3, [r3]
 535 0036 002B     		cmp	r3, #0
 536 0038 05D1     		bne	.L21
 537              		.loc 7 94 0 is_stmt 0 discriminator 1
 538 003a F86B     		ldr	r0, [r7, #60]
 539 003c FFF7FEFF 		bl	lv_obj_get_design_cb
 540 0040 0246     		mov	r2, r0
 541 0042 A84B     		ldr	r3, .L36+4
 542 0044 1A60     		str	r2, [r3]
 543              	.L21:
  95:..\..\..\lvgl\version_6.1.2\lvgl\src\lv_objx/lv_ta.c ****     if(scrl_signal == NULL) scrl_signal = lv_obj_get_signal_cb(lv_page_get_scrl(new_ta));
 544              		.loc 7 95 0 is_stmt 1
ARM GAS  C:\Users\tmj32\AppData\Local\Temp\ccI3WYuM.s 			page 34


 545 0046 A84B     		ldr	r3, .L36+8
 546 0048 1B68     		ldr	r3, [r3]
 547 004a 002B     		cmp	r3, #0
 548 004c 09D1     		bne	.L22
 549              		.loc 7 95 0 is_stmt 0 discriminator 1
 550 004e F86B     		ldr	r0, [r7, #60]
 551 0050 FFF7FEFF 		bl	lv_page_get_scrl
 552 0054 0346     		mov	r3, r0
 553 0056 1846     		mov	r0, r3
 554 0058 FFF7FEFF 		bl	lv_obj_get_signal_cb
 555 005c 0246     		mov	r2, r0
 556 005e A24B     		ldr	r3, .L36+8
 557 0060 1A60     		str	r2, [r3]
 558              	.L22:
  96:..\..\..\lvgl\version_6.1.2\lvgl\src\lv_objx/lv_ta.c ****     if(scrl_design == NULL) scrl_design = lv_obj_get_design_cb(lv_page_get_scrl(new_ta));
 559              		.loc 7 96 0 is_stmt 1
 560 0062 A24B     		ldr	r3, .L36+12
 561 0064 1B68     		ldr	r3, [r3]
 562 0066 002B     		cmp	r3, #0
 563 0068 09D1     		bne	.L23
 564              		.loc 7 96 0 is_stmt 0 discriminator 1
 565 006a F86B     		ldr	r0, [r7, #60]
 566 006c FFF7FEFF 		bl	lv_page_get_scrl
 567 0070 0346     		mov	r3, r0
 568 0072 1846     		mov	r0, r3
 569 0074 FFF7FEFF 		bl	lv_obj_get_design_cb
 570 0078 0246     		mov	r2, r0
 571 007a 9C4B     		ldr	r3, .L36+12
 572 007c 1A60     		str	r2, [r3]
 573              	.L23:
  97:..\..\..\lvgl\version_6.1.2\lvgl\src\lv_objx/lv_ta.c **** 
  98:..\..\..\lvgl\version_6.1.2\lvgl\src\lv_objx/lv_ta.c ****     /*Allocate the object type specific extended data*/
  99:..\..\..\lvgl\version_6.1.2\lvgl\src\lv_objx/lv_ta.c ****     lv_ta_ext_t * ext = lv_obj_allocate_ext_attr(new_ta, sizeof(lv_ta_ext_t));
 574              		.loc 7 99 0 is_stmt 1
 575 007e 6021     		movs	r1, #96
 576 0080 F86B     		ldr	r0, [r7, #60]
 577 0082 FFF7FEFF 		bl	lv_obj_allocate_ext_attr
 578 0086 B863     		str	r0, [r7, #56]
 100:..\..\..\lvgl\version_6.1.2\lvgl\src\lv_objx/lv_ta.c ****     LV_ASSERT_MEM(ext);
 101:..\..\..\lvgl\version_6.1.2\lvgl\src\lv_objx/lv_ta.c ****     if(ext == NULL) return NULL;
 579              		.loc 7 101 0
 580 0088 BB6B     		ldr	r3, [r7, #56]
 581 008a 002B     		cmp	r3, #0
 582 008c 01D1     		bne	.L24
 583              		.loc 7 101 0 is_stmt 0 discriminator 1
 584 008e 0023     		movs	r3, #0
 585 0090 8AE1     		b	.L19
 586              	.L24:
 102:..\..\..\lvgl\version_6.1.2\lvgl\src\lv_objx/lv_ta.c **** 
 103:..\..\..\lvgl\version_6.1.2\lvgl\src\lv_objx/lv_ta.c ****     ext->cursor.state      = 1;
 587              		.loc 7 103 0 is_stmt 1
 588 0092 BA6B     		ldr	r2, [r7, #56]
 589 0094 92F85830 		ldrb	r3, [r2, #88]
 590 0098 43F01003 		orr	r3, r3, #16
 591 009c 82F85830 		strb	r3, [r2, #88]
 104:..\..\..\lvgl\version_6.1.2\lvgl\src\lv_objx/lv_ta.c ****     ext->pwd_mode          = 0;
 592              		.loc 7 104 0
ARM GAS  C:\Users\tmj32\AppData\Local\Temp\ccI3WYuM.s 			page 35


 593 00a0 BA6B     		ldr	r2, [r7, #56]
 594 00a2 92F85C30 		ldrb	r3, [r2, #92]
 595 00a6 6FF30003 		bfc	r3, #0, #1
 596 00aa 82F85C30 		strb	r3, [r2, #92]
 105:..\..\..\lvgl\version_6.1.2\lvgl\src\lv_objx/lv_ta.c ****     ext->pwd_tmp           = NULL;
 597              		.loc 7 105 0
 598 00ae BB6B     		ldr	r3, [r7, #56]
 599 00b0 0022     		movs	r2, #0
 600 00b2 9A63     		str	r2, [r3, #56]
 106:..\..\..\lvgl\version_6.1.2\lvgl\src\lv_objx/lv_ta.c ****     ext->pwd_show_time     = LV_TA_DEF_PWD_SHOW_TIME;
 601              		.loc 7 106 0
 602 00b4 BB6B     		ldr	r3, [r7, #56]
 603 00b6 40F2DC52 		movw	r2, #1500
 604 00ba A3F84220 		strh	r2, [r3, #66]	@ movhi
 107:..\..\..\lvgl\version_6.1.2\lvgl\src\lv_objx/lv_ta.c ****     ext->accapted_chars    = NULL;
 605              		.loc 7 107 0
 606 00be BB6B     		ldr	r3, [r7, #56]
 607 00c0 0022     		movs	r2, #0
 608 00c2 DA63     		str	r2, [r3, #60]
 108:..\..\..\lvgl\version_6.1.2\lvgl\src\lv_objx/lv_ta.c ****     ext->max_length        = 0;
 609              		.loc 7 108 0
 610 00c4 BB6B     		ldr	r3, [r7, #56]
 611 00c6 0022     		movs	r2, #0
 612 00c8 A3F84020 		strh	r2, [r3, #64]	@ movhi
 109:..\..\..\lvgl\version_6.1.2\lvgl\src\lv_objx/lv_ta.c ****     ext->cursor.style      = NULL;
 613              		.loc 7 109 0
 614 00cc BB6B     		ldr	r3, [r7, #56]
 615 00ce 0022     		movs	r2, #0
 616 00d0 5A64     		str	r2, [r3, #68]
 110:..\..\..\lvgl\version_6.1.2\lvgl\src\lv_objx/lv_ta.c ****     ext->cursor.blink_time = LV_TA_DEF_CURSOR_BLINK_TIME;
 617              		.loc 7 110 0
 618 00d2 BB6B     		ldr	r3, [r7, #56]
 619 00d4 4FF4C872 		mov	r2, #400
 620 00d8 A3F84C20 		strh	r2, [r3, #76]	@ movhi
 111:..\..\..\lvgl\version_6.1.2\lvgl\src\lv_objx/lv_ta.c ****     ext->cursor.pos        = 0;
 621              		.loc 7 111 0
 622 00dc BB6B     		ldr	r3, [r7, #56]
 623 00de 0022     		movs	r2, #0
 624 00e0 A3F84A20 		strh	r2, [r3, #74]	@ movhi
 112:..\..\..\lvgl\version_6.1.2\lvgl\src\lv_objx/lv_ta.c ****     ext->cursor.click_pos  = 1;
 625              		.loc 7 112 0
 626 00e4 BA6B     		ldr	r2, [r7, #56]
 627 00e6 92F85830 		ldrb	r3, [r2, #88]
 628 00ea 43F02003 		orr	r3, r3, #32
 629 00ee 82F85830 		strb	r3, [r2, #88]
 113:..\..\..\lvgl\version_6.1.2\lvgl\src\lv_objx/lv_ta.c ****     ext->cursor.type       = LV_CURSOR_LINE;
 630              		.loc 7 113 0
 631 00f2 BA6B     		ldr	r2, [r7, #56]
 632 00f4 92F85830 		ldrb	r3, [r2, #88]
 633 00f8 0121     		movs	r1, #1
 634 00fa 61F30303 		bfi	r3, r1, #0, #4
 635 00fe 82F85830 		strb	r3, [r2, #88]
 114:..\..\..\lvgl\version_6.1.2\lvgl\src\lv_objx/lv_ta.c ****     ext->cursor.valid_x    = 0;
 636              		.loc 7 114 0
 637 0102 BB6B     		ldr	r3, [r7, #56]
 638 0104 0022     		movs	r2, #0
 639 0106 A3F84820 		strh	r2, [r3, #72]	@ movhi
ARM GAS  C:\Users\tmj32\AppData\Local\Temp\ccI3WYuM.s 			page 36


 115:..\..\..\lvgl\version_6.1.2\lvgl\src\lv_objx/lv_ta.c ****     ext->one_line          = 0;
 640              		.loc 7 115 0
 641 010a BA6B     		ldr	r2, [r7, #56]
 642 010c 92F85C30 		ldrb	r3, [r2, #92]
 643 0110 6FF34103 		bfc	r3, #1, #1
 644 0114 82F85C30 		strb	r3, [r2, #92]
 116:..\..\..\lvgl\version_6.1.2\lvgl\src\lv_objx/lv_ta.c **** #if LV_LABEL_TEXT_SEL
 117:..\..\..\lvgl\version_6.1.2\lvgl\src\lv_objx/lv_ta.c ****     ext->text_sel_en = 0;
 118:..\..\..\lvgl\version_6.1.2\lvgl\src\lv_objx/lv_ta.c **** #endif
 119:..\..\..\lvgl\version_6.1.2\lvgl\src\lv_objx/lv_ta.c ****     ext->label       = NULL;
 645              		.loc 7 119 0
 646 0118 BB6B     		ldr	r3, [r7, #56]
 647 011a 0022     		movs	r2, #0
 648 011c 1A63     		str	r2, [r3, #48]
 120:..\..\..\lvgl\version_6.1.2\lvgl\src\lv_objx/lv_ta.c ****     ext->placeholder = NULL;
 649              		.loc 7 120 0
 650 011e BB6B     		ldr	r3, [r7, #56]
 651 0120 0022     		movs	r2, #0
 652 0122 5A63     		str	r2, [r3, #52]
 121:..\..\..\lvgl\version_6.1.2\lvgl\src\lv_objx/lv_ta.c **** 
 122:..\..\..\lvgl\version_6.1.2\lvgl\src\lv_objx/lv_ta.c **** #if LV_USE_ANIMATION == 0
 123:..\..\..\lvgl\version_6.1.2\lvgl\src\lv_objx/lv_ta.c ****     ext->pwd_show_time     = 0;
 124:..\..\..\lvgl\version_6.1.2\lvgl\src\lv_objx/lv_ta.c ****     ext->cursor.blink_time = 0;
 125:..\..\..\lvgl\version_6.1.2\lvgl\src\lv_objx/lv_ta.c **** #endif
 126:..\..\..\lvgl\version_6.1.2\lvgl\src\lv_objx/lv_ta.c **** 
 127:..\..\..\lvgl\version_6.1.2\lvgl\src\lv_objx/lv_ta.c ****     lv_obj_set_signal_cb(new_ta, lv_ta_signal);
 653              		.loc 7 127 0
 654 0124 7249     		ldr	r1, .L36+16
 655 0126 F86B     		ldr	r0, [r7, #60]
 656 0128 FFF7FEFF 		bl	lv_obj_set_signal_cb
 128:..\..\..\lvgl\version_6.1.2\lvgl\src\lv_objx/lv_ta.c ****     lv_obj_set_signal_cb(lv_page_get_scrl(new_ta), lv_ta_scrollable_signal);
 657              		.loc 7 128 0
 658 012c F86B     		ldr	r0, [r7, #60]
 659 012e FFF7FEFF 		bl	lv_page_get_scrl
 660 0132 0346     		mov	r3, r0
 661 0134 6F49     		ldr	r1, .L36+20
 662 0136 1846     		mov	r0, r3
 663 0138 FFF7FEFF 		bl	lv_obj_set_signal_cb
 129:..\..\..\lvgl\version_6.1.2\lvgl\src\lv_objx/lv_ta.c ****     lv_obj_set_design_cb(new_ta, lv_ta_design);
 664              		.loc 7 129 0
 665 013c 6E49     		ldr	r1, .L36+24
 666 013e F86B     		ldr	r0, [r7, #60]
 667 0140 FFF7FEFF 		bl	lv_obj_set_design_cb
 130:..\..\..\lvgl\version_6.1.2\lvgl\src\lv_objx/lv_ta.c **** 
 131:..\..\..\lvgl\version_6.1.2\lvgl\src\lv_objx/lv_ta.c ****     /*Init the new text area object*/
 132:..\..\..\lvgl\version_6.1.2\lvgl\src\lv_objx/lv_ta.c ****     if(copy == NULL) {
 668              		.loc 7 132 0
 669 0144 3B68     		ldr	r3, [r7]
 670 0146 002B     		cmp	r3, #0
 671 0148 4FD1     		bne	.L25
 672              	.LBB2:
 133:..\..\..\lvgl\version_6.1.2\lvgl\src\lv_objx/lv_ta.c ****         lv_page_set_scrl_fit2(new_ta, LV_FIT_FLOOD, LV_FIT_TIGHT);
 673              		.loc 7 133 0
 674 014a 0122     		movs	r2, #1
 675 014c 0221     		movs	r1, #2
 676 014e F86B     		ldr	r0, [r7, #60]
 677 0150 FFF7FEFF 		bl	lv_page_set_scrl_fit2
ARM GAS  C:\Users\tmj32\AppData\Local\Temp\ccI3WYuM.s 			page 37


 134:..\..\..\lvgl\version_6.1.2\lvgl\src\lv_objx/lv_ta.c **** 
 135:..\..\..\lvgl\version_6.1.2\lvgl\src\lv_objx/lv_ta.c ****         ext->label = lv_label_create(new_ta, NULL);
 678              		.loc 7 135 0
 679 0154 0021     		movs	r1, #0
 680 0156 F86B     		ldr	r0, [r7, #60]
 681 0158 FFF7FEFF 		bl	lv_label_create
 682 015c 0246     		mov	r2, r0
 683 015e BB6B     		ldr	r3, [r7, #56]
 684 0160 1A63     		str	r2, [r3, #48]
 136:..\..\..\lvgl\version_6.1.2\lvgl\src\lv_objx/lv_ta.c **** 
 137:..\..\..\lvgl\version_6.1.2\lvgl\src\lv_objx/lv_ta.c ****         lv_obj_set_design_cb(ext->page.scrl, lv_ta_scrollable_design);
 685              		.loc 7 137 0
 686 0162 BB6B     		ldr	r3, [r7, #56]
 687 0164 5B68     		ldr	r3, [r3, #4]
 688 0166 6549     		ldr	r1, .L36+28
 689 0168 1846     		mov	r0, r3
 690 016a FFF7FEFF 		bl	lv_obj_set_design_cb
 138:..\..\..\lvgl\version_6.1.2\lvgl\src\lv_objx/lv_ta.c **** 
 139:..\..\..\lvgl\version_6.1.2\lvgl\src\lv_objx/lv_ta.c ****         lv_label_set_long_mode(ext->label, LV_LABEL_LONG_BREAK);
 691              		.loc 7 139 0
 692 016e BB6B     		ldr	r3, [r7, #56]
 693 0170 1B6B     		ldr	r3, [r3, #48]
 694 0172 0121     		movs	r1, #1
 695 0174 1846     		mov	r0, r3
 696 0176 FFF7FEFF 		bl	lv_label_set_long_mode
 140:..\..\..\lvgl\version_6.1.2\lvgl\src\lv_objx/lv_ta.c ****         lv_label_set_text(ext->label, "Text area");
 697              		.loc 7 140 0
 698 017a BB6B     		ldr	r3, [r7, #56]
 699 017c 1B6B     		ldr	r3, [r3, #48]
 700 017e 6049     		ldr	r1, .L36+32
 701 0180 1846     		mov	r0, r3
 702 0182 FFF7FEFF 		bl	lv_label_set_text
 141:..\..\..\lvgl\version_6.1.2\lvgl\src\lv_objx/lv_ta.c ****         lv_obj_set_click(ext->label, false);
 703              		.loc 7 141 0
 704 0186 BB6B     		ldr	r3, [r7, #56]
 705 0188 1B6B     		ldr	r3, [r3, #48]
 706 018a 0021     		movs	r1, #0
 707 018c 1846     		mov	r0, r3
 708 018e FFF7FEFF 		bl	lv_obj_set_click
 142:..\..\..\lvgl\version_6.1.2\lvgl\src\lv_objx/lv_ta.c ****         lv_obj_set_size(new_ta, LV_TA_DEF_WIDTH, LV_TA_DEF_HEIGHT);
 709              		.loc 7 142 0
 710 0192 9622     		movs	r2, #150
 711 0194 4FF49671 		mov	r1, #300
 712 0198 F86B     		ldr	r0, [r7, #60]
 713 019a FFF7FEFF 		bl	lv_obj_set_size
 143:..\..\..\lvgl\version_6.1.2\lvgl\src\lv_objx/lv_ta.c ****         lv_ta_set_sb_mode(new_ta, LV_SB_MODE_DRAG);
 714              		.loc 7 143 0
 715 019e 0221     		movs	r1, #2
 716 01a0 F86B     		ldr	r0, [r7, #60]
 717 01a2 FFF7FEFF 		bl	lv_ta_set_sb_mode
 144:..\..\..\lvgl\version_6.1.2\lvgl\src\lv_objx/lv_ta.c ****         lv_page_set_style(new_ta, LV_PAGE_STYLE_SCRL, &lv_style_transp_tight);
 718              		.loc 7 144 0
 719 01a6 574A     		ldr	r2, .L36+36
 720 01a8 0121     		movs	r1, #1
 721 01aa F86B     		ldr	r0, [r7, #60]
 722 01ac FFF7FEFF 		bl	lv_page_set_style
 145:..\..\..\lvgl\version_6.1.2\lvgl\src\lv_objx/lv_ta.c **** 
ARM GAS  C:\Users\tmj32\AppData\Local\Temp\ccI3WYuM.s 			page 38


 146:..\..\..\lvgl\version_6.1.2\lvgl\src\lv_objx/lv_ta.c ****         /*Set the default styles*/
 147:..\..\..\lvgl\version_6.1.2\lvgl\src\lv_objx/lv_ta.c ****         lv_theme_t * th = lv_theme_get_current();
 723              		.loc 7 147 0
 724 01b0 FFF7FEFF 		bl	lv_theme_get_current
 725 01b4 F862     		str	r0, [r7, #44]
 148:..\..\..\lvgl\version_6.1.2\lvgl\src\lv_objx/lv_ta.c ****         if(th) {
 726              		.loc 7 148 0
 727 01b6 FB6A     		ldr	r3, [r7, #44]
 728 01b8 002B     		cmp	r3, #0
 729 01ba 10D0     		beq	.L26
 149:..\..\..\lvgl\version_6.1.2\lvgl\src\lv_objx/lv_ta.c ****             lv_ta_set_style(new_ta, LV_TA_STYLE_BG, th->style.ta.area);
 730              		.loc 7 149 0
 731 01bc FB6A     		ldr	r3, [r7, #44]
 732 01be D3F81031 		ldr	r3, [r3, #272]
 733 01c2 1A46     		mov	r2, r3
 734 01c4 0021     		movs	r1, #0
 735 01c6 F86B     		ldr	r0, [r7, #60]
 736 01c8 FFF7FEFF 		bl	lv_ta_set_style
 150:..\..\..\lvgl\version_6.1.2\lvgl\src\lv_objx/lv_ta.c ****             lv_ta_set_style(new_ta, LV_TA_STYLE_SB, th->style.ta.sb);
 737              		.loc 7 150 0
 738 01cc FB6A     		ldr	r3, [r7, #44]
 739 01ce D3F81C31 		ldr	r3, [r3, #284]
 740 01d2 1A46     		mov	r2, r3
 741 01d4 0121     		movs	r1, #1
 742 01d6 F86B     		ldr	r0, [r7, #60]
 743 01d8 FFF7FEFF 		bl	lv_ta_set_style
 744 01dc B7E0     		b	.L28
 745              	.L26:
 151:..\..\..\lvgl\version_6.1.2\lvgl\src\lv_objx/lv_ta.c ****         } else {
 152:..\..\..\lvgl\version_6.1.2\lvgl\src\lv_objx/lv_ta.c ****             lv_ta_set_style(new_ta, LV_TA_STYLE_BG, &lv_style_pretty);
 746              		.loc 7 152 0
 747 01de 4A4A     		ldr	r2, .L36+40
 748 01e0 0021     		movs	r1, #0
 749 01e2 F86B     		ldr	r0, [r7, #60]
 750 01e4 FFF7FEFF 		bl	lv_ta_set_style
 751 01e8 B1E0     		b	.L28
 752              	.L25:
 753              	.LBE2:
 754              	.LBB3:
 153:..\..\..\lvgl\version_6.1.2\lvgl\src\lv_objx/lv_ta.c ****         }
 154:..\..\..\lvgl\version_6.1.2\lvgl\src\lv_objx/lv_ta.c ****     }
 155:..\..\..\lvgl\version_6.1.2\lvgl\src\lv_objx/lv_ta.c ****     /*Copy an existing object*/
 156:..\..\..\lvgl\version_6.1.2\lvgl\src\lv_objx/lv_ta.c ****     else {
 157:..\..\..\lvgl\version_6.1.2\lvgl\src\lv_objx/lv_ta.c ****         lv_obj_set_design_cb(ext->page.scrl, lv_ta_scrollable_design);
 755              		.loc 7 157 0
 756 01ea BB6B     		ldr	r3, [r7, #56]
 757 01ec 5B68     		ldr	r3, [r3, #4]
 758 01ee 4349     		ldr	r1, .L36+28
 759 01f0 1846     		mov	r0, r3
 760 01f2 FFF7FEFF 		bl	lv_obj_set_design_cb
 158:..\..\..\lvgl\version_6.1.2\lvgl\src\lv_objx/lv_ta.c ****         lv_ta_ext_t * copy_ext = lv_obj_get_ext_attr(copy);
 761              		.loc 7 158 0
 762 01f6 3868     		ldr	r0, [r7]
 763 01f8 FFF7FEFF 		bl	lv_obj_get_ext_attr
 764 01fc 7863     		str	r0, [r7, #52]
 159:..\..\..\lvgl\version_6.1.2\lvgl\src\lv_objx/lv_ta.c ****         ext->label             = lv_label_create(new_ta, copy_ext->label);
 765              		.loc 7 159 0
ARM GAS  C:\Users\tmj32\AppData\Local\Temp\ccI3WYuM.s 			page 39


 766 01fe 7B6B     		ldr	r3, [r7, #52]
 767 0200 1B6B     		ldr	r3, [r3, #48]
 768 0202 1946     		mov	r1, r3
 769 0204 F86B     		ldr	r0, [r7, #60]
 770 0206 FFF7FEFF 		bl	lv_label_create
 771 020a 0246     		mov	r2, r0
 772 020c BB6B     		ldr	r3, [r7, #56]
 773 020e 1A63     		str	r2, [r3, #48]
 160:..\..\..\lvgl\version_6.1.2\lvgl\src\lv_objx/lv_ta.c ****         ext->pwd_mode          = copy_ext->pwd_mode;
 774              		.loc 7 160 0
 775 0210 7B6B     		ldr	r3, [r7, #52]
 776 0212 93F85C30 		ldrb	r3, [r3, #92]
 777 0216 C3F30003 		ubfx	r3, r3, #0, #1
 778 021a D9B2     		uxtb	r1, r3
 779 021c BA6B     		ldr	r2, [r7, #56]
 780 021e 92F85C30 		ldrb	r3, [r2, #92]
 781 0222 61F30003 		bfi	r3, r1, #0, #1
 782 0226 82F85C30 		strb	r3, [r2, #92]
 161:..\..\..\lvgl\version_6.1.2\lvgl\src\lv_objx/lv_ta.c ****         ext->accapted_chars    = copy_ext->accapted_chars;
 783              		.loc 7 161 0
 784 022a 7B6B     		ldr	r3, [r7, #52]
 785 022c DA6B     		ldr	r2, [r3, #60]
 786 022e BB6B     		ldr	r3, [r7, #56]
 787 0230 DA63     		str	r2, [r3, #60]
 162:..\..\..\lvgl\version_6.1.2\lvgl\src\lv_objx/lv_ta.c ****         ext->max_length        = copy_ext->max_length;
 788              		.loc 7 162 0
 789 0232 7B6B     		ldr	r3, [r7, #52]
 790 0234 B3F84020 		ldrh	r2, [r3, #64]
 791 0238 BB6B     		ldr	r3, [r7, #56]
 792 023a A3F84020 		strh	r2, [r3, #64]	@ movhi
 163:..\..\..\lvgl\version_6.1.2\lvgl\src\lv_objx/lv_ta.c ****         ext->cursor.style      = copy_ext->cursor.style;
 793              		.loc 7 163 0
 794 023e 7B6B     		ldr	r3, [r7, #52]
 795 0240 5A6C     		ldr	r2, [r3, #68]
 796 0242 BB6B     		ldr	r3, [r7, #56]
 797 0244 5A64     		str	r2, [r3, #68]
 164:..\..\..\lvgl\version_6.1.2\lvgl\src\lv_objx/lv_ta.c ****         ext->cursor.pos        = copy_ext->cursor.pos;
 798              		.loc 7 164 0
 799 0246 7B6B     		ldr	r3, [r7, #52]
 800 0248 B3F84A20 		ldrh	r2, [r3, #74]
 801 024c BB6B     		ldr	r3, [r7, #56]
 802 024e A3F84A20 		strh	r2, [r3, #74]	@ movhi
 165:..\..\..\lvgl\version_6.1.2\lvgl\src\lv_objx/lv_ta.c ****         ext->cursor.valid_x    = copy_ext->cursor.valid_x;
 803              		.loc 7 165 0
 804 0252 7B6B     		ldr	r3, [r7, #52]
 805 0254 B3F94820 		ldrsh	r2, [r3, #72]
 806 0258 BB6B     		ldr	r3, [r7, #56]
 807 025a A3F84820 		strh	r2, [r3, #72]	@ movhi
 166:..\..\..\lvgl\version_6.1.2\lvgl\src\lv_objx/lv_ta.c ****         ext->cursor.type       = copy_ext->cursor.type;
 808              		.loc 7 166 0
 809 025e 7B6B     		ldr	r3, [r7, #52]
 810 0260 93F85830 		ldrb	r3, [r3, #88]
 811 0264 C3F30303 		ubfx	r3, r3, #0, #4
 812 0268 D9B2     		uxtb	r1, r3
 813 026a BA6B     		ldr	r2, [r7, #56]
 814 026c 92F85830 		ldrb	r3, [r2, #88]
 815 0270 61F30303 		bfi	r3, r1, #0, #4
ARM GAS  C:\Users\tmj32\AppData\Local\Temp\ccI3WYuM.s 			page 40


 816 0274 82F85830 		strb	r3, [r2, #88]
 167:..\..\..\lvgl\version_6.1.2\lvgl\src\lv_objx/lv_ta.c **** 
 168:..\..\..\lvgl\version_6.1.2\lvgl\src\lv_objx/lv_ta.c ****         if(ext->pwd_mode != 0) pwd_char_hider( new_ta);
 817              		.loc 7 168 0
 818 0278 BB6B     		ldr	r3, [r7, #56]
 819 027a 93F85C30 		ldrb	r3, [r3, #92]	@ zero_extendqisi2
 820 027e 03F00103 		and	r3, r3, #1
 821 0282 DBB2     		uxtb	r3, r3
 822 0284 002B     		cmp	r3, #0
 823 0286 02D0     		beq	.L29
 824              		.loc 7 168 0 is_stmt 0 discriminator 1
 825 0288 F86B     		ldr	r0, [r7, #60]
 826 028a FFF7FEFF 		bl	pwd_char_hider
 827              	.L29:
 169:..\..\..\lvgl\version_6.1.2\lvgl\src\lv_objx/lv_ta.c **** 
 170:..\..\..\lvgl\version_6.1.2\lvgl\src\lv_objx/lv_ta.c ****         if(copy_ext->placeholder != NULL)
 828              		.loc 7 170 0 is_stmt 1
 829 028e 7B6B     		ldr	r3, [r7, #52]
 830 0290 5B6B     		ldr	r3, [r3, #52]
 831 0292 002B     		cmp	r3, #0
 832 0294 09D0     		beq	.L30
 171:..\..\..\lvgl\version_6.1.2\lvgl\src\lv_objx/lv_ta.c ****             ext->placeholder = lv_label_create(new_ta, copy_ext->placeholder);
 833              		.loc 7 171 0
 834 0296 7B6B     		ldr	r3, [r7, #52]
 835 0298 5B6B     		ldr	r3, [r3, #52]
 836 029a 1946     		mov	r1, r3
 837 029c F86B     		ldr	r0, [r7, #60]
 838 029e FFF7FEFF 		bl	lv_label_create
 839 02a2 0246     		mov	r2, r0
 840 02a4 BB6B     		ldr	r3, [r7, #56]
 841 02a6 5A63     		str	r2, [r3, #52]
 842 02a8 02E0     		b	.L31
 843              	.L30:
 172:..\..\..\lvgl\version_6.1.2\lvgl\src\lv_objx/lv_ta.c ****         else
 173:..\..\..\lvgl\version_6.1.2\lvgl\src\lv_objx/lv_ta.c ****             ext->placeholder = NULL;
 844              		.loc 7 173 0
 845 02aa BB6B     		ldr	r3, [r7, #56]
 846 02ac 0022     		movs	r2, #0
 847 02ae 5A63     		str	r2, [r3, #52]
 848              	.L31:
 174:..\..\..\lvgl\version_6.1.2\lvgl\src\lv_objx/lv_ta.c **** 
 175:..\..\..\lvgl\version_6.1.2\lvgl\src\lv_objx/lv_ta.c ****         if(copy_ext->pwd_tmp) {
 849              		.loc 7 175 0
 850 02b0 7B6B     		ldr	r3, [r7, #52]
 851 02b2 9B6B     		ldr	r3, [r3, #56]
 852 02b4 002B     		cmp	r3, #0
 853 02b6 31D0     		beq	.L32
 854              	.LBB4:
 176:..\..\..\lvgl\version_6.1.2\lvgl\src\lv_objx/lv_ta.c ****             uint16_t len = lv_mem_get_size(copy_ext->pwd_tmp);
 855              		.loc 7 176 0
 856 02b8 7B6B     		ldr	r3, [r7, #52]
 857 02ba 9B6B     		ldr	r3, [r3, #56]
 858 02bc 1846     		mov	r0, r3
 859 02be FFF7FEFF 		bl	lv_mem_get_size
 860 02c2 0346     		mov	r3, r0
 861 02c4 7B86     		strh	r3, [r7, #50]	@ movhi
 177:..\..\..\lvgl\version_6.1.2\lvgl\src\lv_objx/lv_ta.c ****             ext->pwd_tmp = lv_mem_alloc(len);
ARM GAS  C:\Users\tmj32\AppData\Local\Temp\ccI3WYuM.s 			page 41


 862              		.loc 7 177 0
 863 02c6 7B8E     		ldrh	r3, [r7, #50]
 864 02c8 1846     		mov	r0, r3
 865 02ca FFF7FEFF 		bl	lv_mem_alloc
 866 02ce 0246     		mov	r2, r0
 867 02d0 BB6B     		ldr	r3, [r7, #56]
 868 02d2 9A63     		str	r2, [r3, #56]
 178:..\..\..\lvgl\version_6.1.2\lvgl\src\lv_objx/lv_ta.c ****             LV_ASSERT_MEM(ext->pwd_tmp);
 179:..\..\..\lvgl\version_6.1.2\lvgl\src\lv_objx/lv_ta.c ****             if(ext->pwd_tmp == NULL) return NULL;
 869              		.loc 7 179 0
 870 02d4 BB6B     		ldr	r3, [r7, #56]
 871 02d6 9B6B     		ldr	r3, [r3, #56]
 872 02d8 002B     		cmp	r3, #0
 873 02da 17D1     		bne	.L33
 874              		.loc 7 179 0 is_stmt 0 discriminator 1
 875 02dc 0023     		movs	r3, #0
 876 02de 63E0     		b	.L19
 877              	.L37:
 878              		.align	2
 879              	.L36:
 880 02e0 08000000 		.word	ancestor_signal
 881 02e4 00000000 		.word	ancestor_design
 882 02e8 0C000000 		.word	scrl_signal
 883 02ec 04000000 		.word	scrl_design
 884 02f0 00000000 		.word	lv_ta_signal
 885 02f4 00000000 		.word	lv_ta_scrollable_signal
 886 02f8 00000000 		.word	lv_ta_design
 887 02fc 00000000 		.word	lv_ta_scrollable_design
 888 0300 00000000 		.word	.LC0
 889 0304 00000000 		.word	lv_style_transp_tight
 890 0308 00000000 		.word	lv_style_pretty
 891              	.L33:
 180:..\..\..\lvgl\version_6.1.2\lvgl\src\lv_objx/lv_ta.c **** 
 181:..\..\..\lvgl\version_6.1.2\lvgl\src\lv_objx/lv_ta.c ****             memcpy(ext->pwd_tmp, copy_ext->pwd_tmp, len);
 892              		.loc 7 181 0 is_stmt 1
 893 030c BB6B     		ldr	r3, [r7, #56]
 894 030e 986B     		ldr	r0, [r3, #56]
 895 0310 7B6B     		ldr	r3, [r7, #52]
 896 0312 9B6B     		ldr	r3, [r3, #56]
 897 0314 7A8E     		ldrh	r2, [r7, #50]
 898 0316 1946     		mov	r1, r3
 899 0318 FFF7FEFF 		bl	memcpy
 900              	.L32:
 901              	.LBE4:
 182:..\..\..\lvgl\version_6.1.2\lvgl\src\lv_objx/lv_ta.c ****         }
 183:..\..\..\lvgl\version_6.1.2\lvgl\src\lv_objx/lv_ta.c **** 
 184:..\..\..\lvgl\version_6.1.2\lvgl\src\lv_objx/lv_ta.c ****         if(copy_ext->one_line) lv_ta_set_one_line(new_ta, true);
 902              		.loc 7 184 0
 903 031c 7B6B     		ldr	r3, [r7, #52]
 904 031e 93F85C30 		ldrb	r3, [r3, #92]	@ zero_extendqisi2
 905 0322 03F00203 		and	r3, r3, #2
 906 0326 DBB2     		uxtb	r3, r3
 907 0328 002B     		cmp	r3, #0
 908 032a 03D0     		beq	.L34
 909              		.loc 7 184 0 is_stmt 0 discriminator 1
 910 032c 0121     		movs	r1, #1
 911 032e F86B     		ldr	r0, [r7, #60]
ARM GAS  C:\Users\tmj32\AppData\Local\Temp\ccI3WYuM.s 			page 42


 912 0330 FFF7FEFF 		bl	lv_ta_set_one_line
 913              	.L34:
 185:..\..\..\lvgl\version_6.1.2\lvgl\src\lv_objx/lv_ta.c **** 
 186:..\..\..\lvgl\version_6.1.2\lvgl\src\lv_objx/lv_ta.c ****         lv_ta_set_style(new_ta, LV_TA_STYLE_CURSOR, lv_ta_get_style(copy, LV_TA_STYLE_CURSOR));
 914              		.loc 7 186 0 is_stmt 1
 915 0334 0221     		movs	r1, #2
 916 0336 3868     		ldr	r0, [r7]
 917 0338 FFF7FEFF 		bl	lv_ta_get_style
 918 033c 0346     		mov	r3, r0
 919 033e 1A46     		mov	r2, r3
 920 0340 0221     		movs	r1, #2
 921 0342 F86B     		ldr	r0, [r7, #60]
 922 0344 FFF7FEFF 		bl	lv_ta_set_style
 187:..\..\..\lvgl\version_6.1.2\lvgl\src\lv_objx/lv_ta.c **** 
 188:..\..\..\lvgl\version_6.1.2\lvgl\src\lv_objx/lv_ta.c ****         /*Refresh the style with new signal function*/
 189:..\..\..\lvgl\version_6.1.2\lvgl\src\lv_objx/lv_ta.c ****         lv_obj_refresh_style(new_ta);
 923              		.loc 7 189 0
 924 0348 F86B     		ldr	r0, [r7, #60]
 925 034a FFF7FEFF 		bl	lv_obj_refresh_style
 926              	.L28:
 927              	.LBE3:
 190:..\..\..\lvgl\version_6.1.2\lvgl\src\lv_objx/lv_ta.c ****     }
 191:..\..\..\lvgl\version_6.1.2\lvgl\src\lv_objx/lv_ta.c **** 
 192:..\..\..\lvgl\version_6.1.2\lvgl\src\lv_objx/lv_ta.c **** #if LV_USE_ANIMATION
 193:..\..\..\lvgl\version_6.1.2\lvgl\src\lv_objx/lv_ta.c ****     if(ext->cursor.blink_time) {
 928              		.loc 7 193 0
 929 034e BB6B     		ldr	r3, [r7, #56]
 930 0350 B3F84C30 		ldrh	r3, [r3, #76]
 931 0354 002B     		cmp	r3, #0
 932 0356 26D0     		beq	.L35
 933              	.LBB5:
 194:..\..\..\lvgl\version_6.1.2\lvgl\src\lv_objx/lv_ta.c ****         /*Create a cursor blinker animation*/
 195:..\..\..\lvgl\version_6.1.2\lvgl\src\lv_objx/lv_ta.c ****         lv_anim_t a;
 196:..\..\..\lvgl\version_6.1.2\lvgl\src\lv_objx/lv_ta.c ****         a.var            = new_ta;
 934              		.loc 7 196 0
 935 0358 FB6B     		ldr	r3, [r7, #60]
 936 035a BB60     		str	r3, [r7, #8]
 197:..\..\..\lvgl\version_6.1.2\lvgl\src\lv_objx/lv_ta.c ****         a.exec_cb        = (lv_anim_exec_xcb_t)cursor_blink_anim;
 937              		.loc 7 197 0
 938 035c 144B     		ldr	r3, .L38
 939 035e FB60     		str	r3, [r7, #12]
 198:..\..\..\lvgl\version_6.1.2\lvgl\src\lv_objx/lv_ta.c ****         a.time           = ext->cursor.blink_time;
 940              		.loc 7 198 0
 941 0360 BB6B     		ldr	r3, [r7, #56]
 942 0362 B3F84C30 		ldrh	r3, [r3, #76]
 943 0366 3B84     		strh	r3, [r7, #32]	@ movhi
 199:..\..\..\lvgl\version_6.1.2\lvgl\src\lv_objx/lv_ta.c ****         a.act_time       = 0;
 944              		.loc 7 199 0
 945 0368 0023     		movs	r3, #0
 946 036a 7B84     		strh	r3, [r7, #34]	@ movhi
 200:..\..\..\lvgl\version_6.1.2\lvgl\src\lv_objx/lv_ta.c ****         a.ready_cb       = NULL;
 947              		.loc 7 200 0
 948 036c 0023     		movs	r3, #0
 949 036e 7B61     		str	r3, [r7, #20]
 201:..\..\..\lvgl\version_6.1.2\lvgl\src\lv_objx/lv_ta.c ****         a.start          = 1;
 950              		.loc 7 201 0
 951 0370 0123     		movs	r3, #1
ARM GAS  C:\Users\tmj32\AppData\Local\Temp\ccI3WYuM.s 			page 43


 952 0372 BB61     		str	r3, [r7, #24]
 202:..\..\..\lvgl\version_6.1.2\lvgl\src\lv_objx/lv_ta.c ****         a.end            = 0;
 953              		.loc 7 202 0
 954 0374 0023     		movs	r3, #0
 955 0376 FB61     		str	r3, [r7, #28]
 203:..\..\..\lvgl\version_6.1.2\lvgl\src\lv_objx/lv_ta.c ****         a.repeat         = 1;
 956              		.loc 7 203 0
 957 0378 97F82830 		ldrb	r3, [r7, #40]
 958 037c 43F00203 		orr	r3, r3, #2
 959 0380 87F82830 		strb	r3, [r7, #40]
 204:..\..\..\lvgl\version_6.1.2\lvgl\src\lv_objx/lv_ta.c ****         a.repeat_pause   = 0;
 960              		.loc 7 204 0
 961 0384 0023     		movs	r3, #0
 962 0386 FB84     		strh	r3, [r7, #38]	@ movhi
 205:..\..\..\lvgl\version_6.1.2\lvgl\src\lv_objx/lv_ta.c ****         a.playback       = 1;
 963              		.loc 7 205 0
 964 0388 97F82830 		ldrb	r3, [r7, #40]
 965 038c 43F00103 		orr	r3, r3, #1
 966 0390 87F82830 		strb	r3, [r7, #40]
 206:..\..\..\lvgl\version_6.1.2\lvgl\src\lv_objx/lv_ta.c ****         a.playback_pause = 0;
 967              		.loc 7 206 0
 968 0394 0023     		movs	r3, #0
 969 0396 BB84     		strh	r3, [r7, #36]	@ movhi
 207:..\..\..\lvgl\version_6.1.2\lvgl\src\lv_objx/lv_ta.c ****         a.path_cb        = lv_anim_path_step;
 970              		.loc 7 207 0
 971 0398 064B     		ldr	r3, .L38+4
 972 039a 3B61     		str	r3, [r7, #16]
 208:..\..\..\lvgl\version_6.1.2\lvgl\src\lv_objx/lv_ta.c ****         lv_anim_create(&a);
 973              		.loc 7 208 0
 974 039c 07F10803 		add	r3, r7, #8
 975 03a0 1846     		mov	r0, r3
 976 03a2 FFF7FEFF 		bl	lv_anim_create
 977              	.L35:
 978              	.LBE5:
 209:..\..\..\lvgl\version_6.1.2\lvgl\src\lv_objx/lv_ta.c ****     }
 210:..\..\..\lvgl\version_6.1.2\lvgl\src\lv_objx/lv_ta.c **** #endif
 211:..\..\..\lvgl\version_6.1.2\lvgl\src\lv_objx/lv_ta.c **** 
 212:..\..\..\lvgl\version_6.1.2\lvgl\src\lv_objx/lv_ta.c ****     LV_LOG_INFO("text area created");
 213:..\..\..\lvgl\version_6.1.2\lvgl\src\lv_objx/lv_ta.c **** 
 214:..\..\..\lvgl\version_6.1.2\lvgl\src\lv_objx/lv_ta.c ****     return new_ta;
 979              		.loc 7 214 0
 980 03a6 FB6B     		ldr	r3, [r7, #60]
 981              	.L19:
 215:..\..\..\lvgl\version_6.1.2\lvgl\src\lv_objx/lv_ta.c **** }
 982              		.loc 7 215 0
 983 03a8 1846     		mov	r0, r3
 984 03aa 4037     		adds	r7, r7, #64
 985              		.cfi_def_cfa_offset 8
 986 03ac BD46     		mov	sp, r7
 987              		.cfi_def_cfa_register 13
 988              		@ sp needed
 989 03ae 80BD     		pop	{r7, pc}
 990              	.L39:
 991              		.align	2
 992              	.L38:
 993 03b0 00000000 		.word	cursor_blink_anim
 994 03b4 00000000 		.word	lv_anim_path_step
ARM GAS  C:\Users\tmj32\AppData\Local\Temp\ccI3WYuM.s 			page 44


 995              		.cfi_endproc
 996              	.LFE56:
 997              		.size	lv_ta_create, .-lv_ta_create
 998              		.section	.text.lv_ta_add_char,"ax",%progbits
 999              		.align	2
 1000              		.global	lv_ta_add_char
 1001              		.thumb
 1002              		.thumb_func
 1003              		.type	lv_ta_add_char, %function
 1004              	lv_ta_add_char:
 1005              	.LFB57:
 216:..\..\..\lvgl\version_6.1.2\lvgl\src\lv_objx/lv_ta.c **** 
 217:..\..\..\lvgl\version_6.1.2\lvgl\src\lv_objx/lv_ta.c **** /*======================
 218:..\..\..\lvgl\version_6.1.2\lvgl\src\lv_objx/lv_ta.c ****  * Add/remove functions
 219:..\..\..\lvgl\version_6.1.2\lvgl\src\lv_objx/lv_ta.c ****  *=====================*/
 220:..\..\..\lvgl\version_6.1.2\lvgl\src\lv_objx/lv_ta.c **** 
 221:..\..\..\lvgl\version_6.1.2\lvgl\src\lv_objx/lv_ta.c **** /**
 222:..\..\..\lvgl\version_6.1.2\lvgl\src\lv_objx/lv_ta.c ****  * Insert a character to the current cursor position.
 223:..\..\..\lvgl\version_6.1.2\lvgl\src\lv_objx/lv_ta.c ****  * To add a wide char, e.g. '' use `lv_txt_encoded_conv_wc('')`
 224:..\..\..\lvgl\version_6.1.2\lvgl\src\lv_objx/lv_ta.c ****  * @param ta pointer to a text area object
 225:..\..\..\lvgl\version_6.1.2\lvgl\src\lv_objx/lv_ta.c ****  * @param c a character (e.g. 'a')
 226:..\..\..\lvgl\version_6.1.2\lvgl\src\lv_objx/lv_ta.c ****  */
 227:..\..\..\lvgl\version_6.1.2\lvgl\src\lv_objx/lv_ta.c **** void lv_ta_add_char(lv_obj_t * ta, uint32_t c)
 228:..\..\..\lvgl\version_6.1.2\lvgl\src\lv_objx/lv_ta.c **** {
 1006              		.loc 7 228 0
 1007              		.cfi_startproc
 1008              		@ args = 0, pretend = 0, frame = 64
 1009              		@ frame_needed = 1, uses_anonymous_args = 0
 1010 0000 90B5     		push	{r4, r7, lr}
 1011              		.cfi_def_cfa_offset 12
 1012              		.cfi_offset 4, -12
 1013              		.cfi_offset 7, -8
 1014              		.cfi_offset 14, -4
 1015 0002 91B0     		sub	sp, sp, #68
 1016              		.cfi_def_cfa_offset 80
 1017 0004 00AF     		add	r7, sp, #0
 1018              		.cfi_def_cfa_register 7
 1019 0006 7860     		str	r0, [r7, #4]
 1020 0008 3960     		str	r1, [r7]
 229:..\..\..\lvgl\version_6.1.2\lvgl\src\lv_objx/lv_ta.c ****     LV_ASSERT_OBJ(ta, LV_OBJX_NAME);
 230:..\..\..\lvgl\version_6.1.2\lvgl\src\lv_objx/lv_ta.c **** 
 231:..\..\..\lvgl\version_6.1.2\lvgl\src\lv_objx/lv_ta.c ****     lv_ta_ext_t * ext = lv_obj_get_ext_attr(ta);
 1021              		.loc 7 231 0
 1022 000a 7868     		ldr	r0, [r7, #4]
 1023 000c FFF7FEFF 		bl	lv_obj_get_ext_attr
 1024 0010 F863     		str	r0, [r7, #60]
 232:..\..\..\lvgl\version_6.1.2\lvgl\src\lv_objx/lv_ta.c **** 
 233:..\..\..\lvgl\version_6.1.2\lvgl\src\lv_objx/lv_ta.c ****     uint32_t letter_buf[2];
 234:..\..\..\lvgl\version_6.1.2\lvgl\src\lv_objx/lv_ta.c ****     letter_buf[0] = c;
 1025              		.loc 7 234 0
 1026 0012 3B68     		ldr	r3, [r7]
 1027 0014 FB62     		str	r3, [r7, #44]
 235:..\..\..\lvgl\version_6.1.2\lvgl\src\lv_objx/lv_ta.c ****     letter_buf[1] = '\0';
 1028              		.loc 7 235 0
 1029 0016 0023     		movs	r3, #0
 1030 0018 3B63     		str	r3, [r7, #48]
 236:..\..\..\lvgl\version_6.1.2\lvgl\src\lv_objx/lv_ta.c **** 
ARM GAS  C:\Users\tmj32\AppData\Local\Temp\ccI3WYuM.s 			page 45


 237:..\..\..\lvgl\version_6.1.2\lvgl\src\lv_objx/lv_ta.c ****     ta_insert_replace = NULL;
 1031              		.loc 7 237 0
 1032 001a 6E4B     		ldr	r3, .L55
 1033 001c 0022     		movs	r2, #0
 1034 001e 1A60     		str	r2, [r3]
 238:..\..\..\lvgl\version_6.1.2\lvgl\src\lv_objx/lv_ta.c ****     lv_event_send(ta, LV_EVENT_INSERT, letter_buf);
 1035              		.loc 7 238 0
 1036 0020 07F12C03 		add	r3, r7, #44
 1037 0024 1A46     		mov	r2, r3
 1038 0026 0F21     		movs	r1, #15
 1039 0028 7868     		ldr	r0, [r7, #4]
 1040 002a FFF7FEFF 		bl	lv_event_send
 239:..\..\..\lvgl\version_6.1.2\lvgl\src\lv_objx/lv_ta.c ****     if(ta_insert_replace) {
 1041              		.loc 7 239 0
 1042 002e 694B     		ldr	r3, .L55
 1043 0030 1B68     		ldr	r3, [r3]
 1044 0032 002B     		cmp	r3, #0
 1045 0034 17D0     		beq	.L41
 240:..\..\..\lvgl\version_6.1.2\lvgl\src\lv_objx/lv_ta.c ****         if(ta_insert_replace[0] == '\0') return; /*Drop this text*/
 1046              		.loc 7 240 0
 1047 0036 674B     		ldr	r3, .L55
 1048 0038 1B68     		ldr	r3, [r3]
 1049 003a 1B78     		ldrb	r3, [r3]	@ zero_extendqisi2
 1050 003c 002B     		cmp	r3, #0
 1051 003e 00F0BF80 		beq	.L51
 241:..\..\..\lvgl\version_6.1.2\lvgl\src\lv_objx/lv_ta.c **** 
 242:..\..\..\lvgl\version_6.1.2\lvgl\src\lv_objx/lv_ta.c ****         /*Add the replaced text directly it's different from the original*/
 243:..\..\..\lvgl\version_6.1.2\lvgl\src\lv_objx/lv_ta.c ****         if(strcmp(ta_insert_replace, (char *)letter_buf)) {
 1052              		.loc 7 243 0
 1053 0042 644B     		ldr	r3, .L55
 1054 0044 1B68     		ldr	r3, [r3]
 1055 0046 07F12C02 		add	r2, r7, #44
 1056 004a 1146     		mov	r1, r2
 1057 004c 1846     		mov	r0, r3
 1058 004e FFF7FEFF 		bl	strcmp
 1059 0052 0346     		mov	r3, r0
 1060 0054 002B     		cmp	r3, #0
 1061 0056 06D0     		beq	.L41
 244:..\..\..\lvgl\version_6.1.2\lvgl\src\lv_objx/lv_ta.c ****             lv_ta_add_text(ta, ta_insert_replace);
 1062              		.loc 7 244 0
 1063 0058 5E4B     		ldr	r3, .L55
 1064 005a 1B68     		ldr	r3, [r3]
 1065 005c 1946     		mov	r1, r3
 1066 005e 7868     		ldr	r0, [r7, #4]
 1067 0060 FFF7FEFF 		bl	lv_ta_add_text
 245:..\..\..\lvgl\version_6.1.2\lvgl\src\lv_objx/lv_ta.c ****             return;
 1068              		.loc 7 245 0
 1069 0064 B3E0     		b	.L40
 1070              	.L41:
 246:..\..\..\lvgl\version_6.1.2\lvgl\src\lv_objx/lv_ta.c ****         }
 247:..\..\..\lvgl\version_6.1.2\lvgl\src\lv_objx/lv_ta.c ****     }
 248:..\..\..\lvgl\version_6.1.2\lvgl\src\lv_objx/lv_ta.c **** 
 249:..\..\..\lvgl\version_6.1.2\lvgl\src\lv_objx/lv_ta.c ****     if(ext->one_line && (c == '\n' || c == '\r')) {
 1071              		.loc 7 249 0
 1072 0066 FB6B     		ldr	r3, [r7, #60]
 1073 0068 93F85C30 		ldrb	r3, [r3, #92]	@ zero_extendqisi2
 1074 006c 03F00203 		and	r3, r3, #2
ARM GAS  C:\Users\tmj32\AppData\Local\Temp\ccI3WYuM.s 			page 46


 1075 0070 DBB2     		uxtb	r3, r3
 1076 0072 002B     		cmp	r3, #0
 1077 0074 07D0     		beq	.L44
 1078              		.loc 7 249 0 is_stmt 0 discriminator 1
 1079 0076 3B68     		ldr	r3, [r7]
 1080 0078 0A2B     		cmp	r3, #10
 1081 007a 00F0A380 		beq	.L52
 1082              		.loc 7 249 0 discriminator 2
 1083 007e 3B68     		ldr	r3, [r7]
 1084 0080 0D2B     		cmp	r3, #13
 1085 0082 00F09F80 		beq	.L52
 1086              	.L44:
 250:..\..\..\lvgl\version_6.1.2\lvgl\src\lv_objx/lv_ta.c ****         LV_LOG_INFO("Text area: line break ignored in one-line mode");
 251:..\..\..\lvgl\version_6.1.2\lvgl\src\lv_objx/lv_ta.c ****         return;
 252:..\..\..\lvgl\version_6.1.2\lvgl\src\lv_objx/lv_ta.c ****     }
 253:..\..\..\lvgl\version_6.1.2\lvgl\src\lv_objx/lv_ta.c **** 
 254:..\..\..\lvgl\version_6.1.2\lvgl\src\lv_objx/lv_ta.c ****     uint32_t c_uni = lv_txt_encoded_next((const char *)&c, NULL);
 1087              		.loc 7 254 0 is_stmt 1
 1088 0086 544B     		ldr	r3, .L55+4
 1089 0088 1B68     		ldr	r3, [r3]
 1090 008a 3A46     		mov	r2, r7
 1091 008c 0021     		movs	r1, #0
 1092 008e 1046     		mov	r0, r2
 1093 0090 9847     		blx	r3
 1094 0092 B863     		str	r0, [r7, #56]
 255:..\..\..\lvgl\version_6.1.2\lvgl\src\lv_objx/lv_ta.c **** 
 256:..\..\..\lvgl\version_6.1.2\lvgl\src\lv_objx/lv_ta.c ****     if(char_is_accepted(ta, c_uni) == false) {
 1095              		.loc 7 256 0
 1096 0094 B96B     		ldr	r1, [r7, #56]
 1097 0096 7868     		ldr	r0, [r7, #4]
 1098 0098 FFF7FEFF 		bl	char_is_accepted
 1099 009c 0346     		mov	r3, r0
 1100 009e 83F00103 		eor	r3, r3, #1
 1101 00a2 DBB2     		uxtb	r3, r3
 1102 00a4 002B     		cmp	r3, #0
 1103 00a6 40F08F80 		bne	.L53
 257:..\..\..\lvgl\version_6.1.2\lvgl\src\lv_objx/lv_ta.c ****         LV_LOG_INFO("Character is no accepted by the text area (too long text or not in the "
 258:..\..\..\lvgl\version_6.1.2\lvgl\src\lv_objx/lv_ta.c ****                     "accepted list)");
 259:..\..\..\lvgl\version_6.1.2\lvgl\src\lv_objx/lv_ta.c ****         return;
 260:..\..\..\lvgl\version_6.1.2\lvgl\src\lv_objx/lv_ta.c ****     }
 261:..\..\..\lvgl\version_6.1.2\lvgl\src\lv_objx/lv_ta.c **** 
 262:..\..\..\lvgl\version_6.1.2\lvgl\src\lv_objx/lv_ta.c ****     /*If a new line was added it shouldn't show edge flash effect*/
 263:..\..\..\lvgl\version_6.1.2\lvgl\src\lv_objx/lv_ta.c ****     bool edge_flash_en = lv_ta_get_edge_flash(ta);
 1104              		.loc 7 263 0
 1105 00aa 7868     		ldr	r0, [r7, #4]
 1106 00ac FFF7FEFF 		bl	lv_ta_get_edge_flash
 1107 00b0 0346     		mov	r3, r0
 1108 00b2 87F83730 		strb	r3, [r7, #55]
 264:..\..\..\lvgl\version_6.1.2\lvgl\src\lv_objx/lv_ta.c ****     lv_ta_set_edge_flash(ta, false);
 1109              		.loc 7 264 0
 1110 00b6 0021     		movs	r1, #0
 1111 00b8 7868     		ldr	r0, [r7, #4]
 1112 00ba FFF7FEFF 		bl	lv_ta_set_edge_flash
 265:..\..\..\lvgl\version_6.1.2\lvgl\src\lv_objx/lv_ta.c **** 
 266:..\..\..\lvgl\version_6.1.2\lvgl\src\lv_objx/lv_ta.c ****     if(ext->pwd_mode != 0) pwd_char_hider(ta); /*Make sure all the current text contains only '*'*/
 1113              		.loc 7 266 0
 1114 00be FB6B     		ldr	r3, [r7, #60]
ARM GAS  C:\Users\tmj32\AppData\Local\Temp\ccI3WYuM.s 			page 47


 1115 00c0 93F85C30 		ldrb	r3, [r3, #92]	@ zero_extendqisi2
 1116 00c4 03F00103 		and	r3, r3, #1
 1117 00c8 DBB2     		uxtb	r3, r3
 1118 00ca 002B     		cmp	r3, #0
 1119 00cc 02D0     		beq	.L47
 1120              		.loc 7 266 0 is_stmt 0 discriminator 1
 1121 00ce 7868     		ldr	r0, [r7, #4]
 1122 00d0 FFF7FEFF 		bl	pwd_char_hider
 1123              	.L47:
 267:..\..\..\lvgl\version_6.1.2\lvgl\src\lv_objx/lv_ta.c **** 
 268:..\..\..\lvgl\version_6.1.2\lvgl\src\lv_objx/lv_ta.c ****     lv_label_ins_text(ext->label, ext->cursor.pos, (const char *)letter_buf); /*Insert the characte
 1124              		.loc 7 268 0 is_stmt 1
 1125 00d4 FB6B     		ldr	r3, [r7, #60]
 1126 00d6 186B     		ldr	r0, [r3, #48]
 1127 00d8 FB6B     		ldr	r3, [r7, #60]
 1128 00da B3F84A30 		ldrh	r3, [r3, #74]
 1129 00de 1946     		mov	r1, r3
 1130 00e0 07F12C03 		add	r3, r7, #44
 1131 00e4 1A46     		mov	r2, r3
 1132 00e6 FFF7FEFF 		bl	lv_label_ins_text
 269:..\..\..\lvgl\version_6.1.2\lvgl\src\lv_objx/lv_ta.c ****     lv_ta_clear_selection(ta);                                                /*Clear selection*/
 1133              		.loc 7 269 0
 1134 00ea 7868     		ldr	r0, [r7, #4]
 1135 00ec FFF7FEFF 		bl	lv_ta_clear_selection
 270:..\..\..\lvgl\version_6.1.2\lvgl\src\lv_objx/lv_ta.c **** 
 271:..\..\..\lvgl\version_6.1.2\lvgl\src\lv_objx/lv_ta.c ****     if(ext->pwd_mode != 0) {
 1136              		.loc 7 271 0
 1137 00f0 FB6B     		ldr	r3, [r7, #60]
 1138 00f2 93F85C30 		ldrb	r3, [r3, #92]	@ zero_extendqisi2
 1139 00f6 03F00103 		and	r3, r3, #1
 1140 00fa DBB2     		uxtb	r3, r3
 1141 00fc 002B     		cmp	r3, #0
 1142 00fe 45D0     		beq	.L48
 1143              	.LBB6:
 272:..\..\..\lvgl\version_6.1.2\lvgl\src\lv_objx/lv_ta.c **** 
 273:..\..\..\lvgl\version_6.1.2\lvgl\src\lv_objx/lv_ta.c ****         ext->pwd_tmp = lv_mem_realloc(ext->pwd_tmp, strlen(ext->pwd_tmp) + 2); /*+2: the new char +
 1144              		.loc 7 273 0
 1145 0100 FB6B     		ldr	r3, [r7, #60]
 1146 0102 9C6B     		ldr	r4, [r3, #56]
 1147 0104 FB6B     		ldr	r3, [r7, #60]
 1148 0106 9B6B     		ldr	r3, [r3, #56]
 1149 0108 1846     		mov	r0, r3
 1150 010a FFF7FEFF 		bl	strlen
 1151 010e 0346     		mov	r3, r0
 1152 0110 0233     		adds	r3, r3, #2
 1153 0112 1946     		mov	r1, r3
 1154 0114 2046     		mov	r0, r4
 1155 0116 FFF7FEFF 		bl	lv_mem_realloc
 1156 011a 0246     		mov	r2, r0
 1157 011c FB6B     		ldr	r3, [r7, #60]
 1158 011e 9A63     		str	r2, [r3, #56]
 274:..\..\..\lvgl\version_6.1.2\lvgl\src\lv_objx/lv_ta.c ****         LV_ASSERT_MEM(ext->pwd_tmp);
 275:..\..\..\lvgl\version_6.1.2\lvgl\src\lv_objx/lv_ta.c ****         if(ext->pwd_tmp == NULL) return;
 1159              		.loc 7 275 0
 1160 0120 FB6B     		ldr	r3, [r7, #60]
 1161 0122 9B6B     		ldr	r3, [r3, #56]
 1162 0124 002B     		cmp	r3, #0
ARM GAS  C:\Users\tmj32\AppData\Local\Temp\ccI3WYuM.s 			page 48


 1163 0126 51D0     		beq	.L54
 276:..\..\..\lvgl\version_6.1.2\lvgl\src\lv_objx/lv_ta.c **** 
 277:..\..\..\lvgl\version_6.1.2\lvgl\src\lv_objx/lv_ta.c ****         lv_txt_ins(ext->pwd_tmp, ext->cursor.pos, (const char *)letter_buf);
 1164              		.loc 7 277 0
 1165 0128 FB6B     		ldr	r3, [r7, #60]
 1166 012a 986B     		ldr	r0, [r3, #56]
 1167 012c FB6B     		ldr	r3, [r7, #60]
 1168 012e B3F84A30 		ldrh	r3, [r3, #74]
 1169 0132 1946     		mov	r1, r3
 1170 0134 07F12C03 		add	r3, r7, #44
 1171 0138 1A46     		mov	r2, r3
 1172 013a FFF7FEFF 		bl	lv_txt_ins
 278:..\..\..\lvgl\version_6.1.2\lvgl\src\lv_objx/lv_ta.c **** 
 279:..\..\..\lvgl\version_6.1.2\lvgl\src\lv_objx/lv_ta.c **** #if LV_USE_ANIMATION
 280:..\..\..\lvgl\version_6.1.2\lvgl\src\lv_objx/lv_ta.c ****         /*Auto hide characters*/
 281:..\..\..\lvgl\version_6.1.2\lvgl\src\lv_objx/lv_ta.c ****         lv_anim_t a;
 282:..\..\..\lvgl\version_6.1.2\lvgl\src\lv_objx/lv_ta.c ****         a.var            = ta;
 1173              		.loc 7 282 0
 1174 013e 7B68     		ldr	r3, [r7, #4]
 1175 0140 BB60     		str	r3, [r7, #8]
 283:..\..\..\lvgl\version_6.1.2\lvgl\src\lv_objx/lv_ta.c ****         a.exec_cb        = (lv_anim_exec_xcb_t)pwd_char_hider_anim;
 1176              		.loc 7 283 0
 1177 0142 264B     		ldr	r3, .L55+8
 1178 0144 FB60     		str	r3, [r7, #12]
 284:..\..\..\lvgl\version_6.1.2\lvgl\src\lv_objx/lv_ta.c ****         a.time           = ext->pwd_show_time;
 1179              		.loc 7 284 0
 1180 0146 FB6B     		ldr	r3, [r7, #60]
 1181 0148 B3F84230 		ldrh	r3, [r3, #66]
 1182 014c 3B84     		strh	r3, [r7, #32]	@ movhi
 285:..\..\..\lvgl\version_6.1.2\lvgl\src\lv_objx/lv_ta.c ****         a.act_time       = 0;
 1183              		.loc 7 285 0
 1184 014e 0023     		movs	r3, #0
 1185 0150 7B84     		strh	r3, [r7, #34]	@ movhi
 286:..\..\..\lvgl\version_6.1.2\lvgl\src\lv_objx/lv_ta.c ****         a.ready_cb       = pwd_char_hider_anim_ready;
 1186              		.loc 7 286 0
 1187 0152 234B     		ldr	r3, .L55+12
 1188 0154 7B61     		str	r3, [r7, #20]
 287:..\..\..\lvgl\version_6.1.2\lvgl\src\lv_objx/lv_ta.c ****         a.start          = 0;
 1189              		.loc 7 287 0
 1190 0156 0023     		movs	r3, #0
 1191 0158 BB61     		str	r3, [r7, #24]
 288:..\..\..\lvgl\version_6.1.2\lvgl\src\lv_objx/lv_ta.c ****         a.end            = 1;
 1192              		.loc 7 288 0
 1193 015a 0123     		movs	r3, #1
 1194 015c FB61     		str	r3, [r7, #28]
 289:..\..\..\lvgl\version_6.1.2\lvgl\src\lv_objx/lv_ta.c ****         a.repeat         = 0;
 1195              		.loc 7 289 0
 1196 015e 97F82830 		ldrb	r3, [r7, #40]
 1197 0162 6FF34103 		bfc	r3, #1, #1
 1198 0166 87F82830 		strb	r3, [r7, #40]
 290:..\..\..\lvgl\version_6.1.2\lvgl\src\lv_objx/lv_ta.c ****         a.repeat_pause   = 0;
 1199              		.loc 7 290 0
 1200 016a 0023     		movs	r3, #0
 1201 016c FB84     		strh	r3, [r7, #38]	@ movhi
 291:..\..\..\lvgl\version_6.1.2\lvgl\src\lv_objx/lv_ta.c ****         a.playback       = 0;
 1202              		.loc 7 291 0
 1203 016e 97F82830 		ldrb	r3, [r7, #40]
ARM GAS  C:\Users\tmj32\AppData\Local\Temp\ccI3WYuM.s 			page 49


 1204 0172 6FF30003 		bfc	r3, #0, #1
 1205 0176 87F82830 		strb	r3, [r7, #40]
 292:..\..\..\lvgl\version_6.1.2\lvgl\src\lv_objx/lv_ta.c ****         a.playback_pause = 0;
 1206              		.loc 7 292 0
 1207 017a 0023     		movs	r3, #0
 1208 017c BB84     		strh	r3, [r7, #36]	@ movhi
 293:..\..\..\lvgl\version_6.1.2\lvgl\src\lv_objx/lv_ta.c ****         a.path_cb        = lv_anim_path_step;
 1209              		.loc 7 293 0
 1210 017e 194B     		ldr	r3, .L55+16
 1211 0180 3B61     		str	r3, [r7, #16]
 294:..\..\..\lvgl\version_6.1.2\lvgl\src\lv_objx/lv_ta.c ****         lv_anim_create(&a);
 1212              		.loc 7 294 0
 1213 0182 07F10803 		add	r3, r7, #8
 1214 0186 1846     		mov	r0, r3
 1215 0188 FFF7FEFF 		bl	lv_anim_create
 1216              	.L48:
 1217              	.LBE6:
 295:..\..\..\lvgl\version_6.1.2\lvgl\src\lv_objx/lv_ta.c **** 
 296:..\..\..\lvgl\version_6.1.2\lvgl\src\lv_objx/lv_ta.c **** #else
 297:..\..\..\lvgl\version_6.1.2\lvgl\src\lv_objx/lv_ta.c ****         pwd_char_hider(ta);
 298:..\..\..\lvgl\version_6.1.2\lvgl\src\lv_objx/lv_ta.c **** #endif
 299:..\..\..\lvgl\version_6.1.2\lvgl\src\lv_objx/lv_ta.c ****     }
 300:..\..\..\lvgl\version_6.1.2\lvgl\src\lv_objx/lv_ta.c **** 
 301:..\..\..\lvgl\version_6.1.2\lvgl\src\lv_objx/lv_ta.c ****     /*Move the cursor after the new character*/
 302:..\..\..\lvgl\version_6.1.2\lvgl\src\lv_objx/lv_ta.c ****     lv_ta_set_cursor_pos(ta, lv_ta_get_cursor_pos(ta) + 1);
 1218              		.loc 7 302 0 discriminator 1
 1219 018c 7868     		ldr	r0, [r7, #4]
 1220 018e FFF7FEFF 		bl	lv_ta_get_cursor_pos
 1221 0192 0346     		mov	r3, r0
 1222 0194 0133     		adds	r3, r3, #1
 1223 0196 9BB2     		uxth	r3, r3
 1224 0198 1BB2     		sxth	r3, r3
 1225 019a 1946     		mov	r1, r3
 1226 019c 7868     		ldr	r0, [r7, #4]
 1227 019e FFF7FEFF 		bl	lv_ta_set_cursor_pos
 303:..\..\..\lvgl\version_6.1.2\lvgl\src\lv_objx/lv_ta.c **** 
 304:..\..\..\lvgl\version_6.1.2\lvgl\src\lv_objx/lv_ta.c ****     /*Revert the original edge flash state*/
 305:..\..\..\lvgl\version_6.1.2\lvgl\src\lv_objx/lv_ta.c ****     lv_ta_set_edge_flash(ta, edge_flash_en);
 1228              		.loc 7 305 0 discriminator 1
 1229 01a2 97F83730 		ldrb	r3, [r7, #55]	@ zero_extendqisi2
 1230 01a6 1946     		mov	r1, r3
 1231 01a8 7868     		ldr	r0, [r7, #4]
 1232 01aa FFF7FEFF 		bl	lv_ta_set_edge_flash
 306:..\..\..\lvgl\version_6.1.2\lvgl\src\lv_objx/lv_ta.c **** 
 307:..\..\..\lvgl\version_6.1.2\lvgl\src\lv_objx/lv_ta.c ****     placeholder_update(ta);
 1233              		.loc 7 307 0 discriminator 1
 1234 01ae 7868     		ldr	r0, [r7, #4]
 1235 01b0 FFF7FEFF 		bl	placeholder_update
 308:..\..\..\lvgl\version_6.1.2\lvgl\src\lv_objx/lv_ta.c **** 
 309:..\..\..\lvgl\version_6.1.2\lvgl\src\lv_objx/lv_ta.c ****     lv_event_send(ta, LV_EVENT_VALUE_CHANGED, NULL);
 1236              		.loc 7 309 0 discriminator 1
 1237 01b4 0022     		movs	r2, #0
 1238 01b6 0E21     		movs	r1, #14
 1239 01b8 7868     		ldr	r0, [r7, #4]
 1240 01ba FFF7FEFF 		bl	lv_event_send
 1241 01be 06E0     		b	.L40
 1242              	.L51:
ARM GAS  C:\Users\tmj32\AppData\Local\Temp\ccI3WYuM.s 			page 50


 240:..\..\..\lvgl\version_6.1.2\lvgl\src\lv_objx/lv_ta.c **** 
 1243              		.loc 7 240 0
 1244 01c0 00BF     		nop
 1245 01c2 04E0     		b	.L40
 1246              	.L52:
 251:..\..\..\lvgl\version_6.1.2\lvgl\src\lv_objx/lv_ta.c ****     }
 1247              		.loc 7 251 0
 1248 01c4 00BF     		nop
 1249 01c6 02E0     		b	.L40
 1250              	.L53:
 259:..\..\..\lvgl\version_6.1.2\lvgl\src\lv_objx/lv_ta.c ****     }
 1251              		.loc 7 259 0
 1252 01c8 00BF     		nop
 1253 01ca 00E0     		b	.L40
 1254              	.L54:
 1255              	.LBB7:
 275:..\..\..\lvgl\version_6.1.2\lvgl\src\lv_objx/lv_ta.c **** 
 1256              		.loc 7 275 0
 1257 01cc 00BF     		nop
 1258              	.L40:
 1259              	.LBE7:
 310:..\..\..\lvgl\version_6.1.2\lvgl\src\lv_objx/lv_ta.c **** }
 1260              		.loc 7 310 0
 1261 01ce 4437     		adds	r7, r7, #68
 1262              		.cfi_def_cfa_offset 12
 1263 01d0 BD46     		mov	sp, r7
 1264              		.cfi_def_cfa_register 13
 1265              		@ sp needed
 1266 01d2 90BD     		pop	{r4, r7, pc}
 1267              	.L56:
 1268              		.align	2
 1269              	.L55:
 1270 01d4 10000000 		.word	ta_insert_replace
 1271 01d8 00000000 		.word	lv_txt_encoded_next
 1272 01dc 00000000 		.word	pwd_char_hider_anim
 1273 01e0 00000000 		.word	pwd_char_hider_anim_ready
 1274 01e4 00000000 		.word	lv_anim_path_step
 1275              		.cfi_endproc
 1276              	.LFE57:
 1277              		.size	lv_ta_add_char, .-lv_ta_add_char
 1278              		.section	.text.lv_ta_add_text,"ax",%progbits
 1279              		.align	2
 1280              		.global	lv_ta_add_text
 1281              		.thumb
 1282              		.thumb_func
 1283              		.type	lv_ta_add_text, %function
 1284              	lv_ta_add_text:
 1285              	.LFB58:
 311:..\..\..\lvgl\version_6.1.2\lvgl\src\lv_objx/lv_ta.c **** 
 312:..\..\..\lvgl\version_6.1.2\lvgl\src\lv_objx/lv_ta.c **** /**
 313:..\..\..\lvgl\version_6.1.2\lvgl\src\lv_objx/lv_ta.c ****  * Insert a text to the current cursor position
 314:..\..\..\lvgl\version_6.1.2\lvgl\src\lv_objx/lv_ta.c ****  * @param ta pointer to a text area object
 315:..\..\..\lvgl\version_6.1.2\lvgl\src\lv_objx/lv_ta.c ****  * @param txt a '\0' terminated string to insert
 316:..\..\..\lvgl\version_6.1.2\lvgl\src\lv_objx/lv_ta.c ****  */
 317:..\..\..\lvgl\version_6.1.2\lvgl\src\lv_objx/lv_ta.c **** void lv_ta_add_text(lv_obj_t * ta, const char * txt)
 318:..\..\..\lvgl\version_6.1.2\lvgl\src\lv_objx/lv_ta.c **** {
 1286              		.loc 7 318 0
ARM GAS  C:\Users\tmj32\AppData\Local\Temp\ccI3WYuM.s 			page 51


 1287              		.cfi_startproc
 1288              		@ args = 0, pretend = 0, frame = 64
 1289              		@ frame_needed = 1, uses_anonymous_args = 0
 1290 0000 B0B5     		push	{r4, r5, r7, lr}
 1291              		.cfi_def_cfa_offset 16
 1292              		.cfi_offset 4, -16
 1293              		.cfi_offset 5, -12
 1294              		.cfi_offset 7, -8
 1295              		.cfi_offset 14, -4
 1296 0002 90B0     		sub	sp, sp, #64
 1297              		.cfi_def_cfa_offset 80
 1298 0004 00AF     		add	r7, sp, #0
 1299              		.cfi_def_cfa_register 7
 1300 0006 7860     		str	r0, [r7, #4]
 1301 0008 3960     		str	r1, [r7]
 319:..\..\..\lvgl\version_6.1.2\lvgl\src\lv_objx/lv_ta.c ****     LV_ASSERT_OBJ(ta, LV_OBJX_NAME);
 320:..\..\..\lvgl\version_6.1.2\lvgl\src\lv_objx/lv_ta.c ****     LV_ASSERT_NULL(txt);
 321:..\..\..\lvgl\version_6.1.2\lvgl\src\lv_objx/lv_ta.c **** 
 322:..\..\..\lvgl\version_6.1.2\lvgl\src\lv_objx/lv_ta.c ****     lv_ta_ext_t * ext = lv_obj_get_ext_attr(ta);
 1302              		.loc 7 322 0
 1303 000a 7868     		ldr	r0, [r7, #4]
 1304 000c FFF7FEFF 		bl	lv_obj_get_ext_attr
 1305 0010 F863     		str	r0, [r7, #60]
 323:..\..\..\lvgl\version_6.1.2\lvgl\src\lv_objx/lv_ta.c **** 
 324:..\..\..\lvgl\version_6.1.2\lvgl\src\lv_objx/lv_ta.c ****     ta_insert_replace = NULL;
 1306              		.loc 7 324 0
 1307 0012 714B     		ldr	r3, .L70
 1308 0014 0022     		movs	r2, #0
 1309 0016 1A60     		str	r2, [r3]
 325:..\..\..\lvgl\version_6.1.2\lvgl\src\lv_objx/lv_ta.c ****     lv_event_send(ta, LV_EVENT_INSERT, txt);
 1310              		.loc 7 325 0
 1311 0018 3A68     		ldr	r2, [r7]
 1312 001a 0F21     		movs	r1, #15
 1313 001c 7868     		ldr	r0, [r7, #4]
 1314 001e FFF7FEFF 		bl	lv_event_send
 326:..\..\..\lvgl\version_6.1.2\lvgl\src\lv_objx/lv_ta.c ****     if(ta_insert_replace) {
 1315              		.loc 7 326 0
 1316 0022 6D4B     		ldr	r3, .L70
 1317 0024 1B68     		ldr	r3, [r3]
 1318 0026 002B     		cmp	r3, #0
 1319 0028 15D0     		beq	.L58
 327:..\..\..\lvgl\version_6.1.2\lvgl\src\lv_objx/lv_ta.c ****         if(ta_insert_replace[0] == '\0') return; /*Drop this text*/
 1320              		.loc 7 327 0
 1321 002a 6B4B     		ldr	r3, .L70
 1322 002c 1B68     		ldr	r3, [r3]
 1323 002e 1B78     		ldrb	r3, [r3]	@ zero_extendqisi2
 1324 0030 002B     		cmp	r3, #0
 1325 0032 00F0CB80 		beq	.L68
 328:..\..\..\lvgl\version_6.1.2\lvgl\src\lv_objx/lv_ta.c **** 
 329:..\..\..\lvgl\version_6.1.2\lvgl\src\lv_objx/lv_ta.c ****         /*Add the replaced text directly it's different from the original*/
 330:..\..\..\lvgl\version_6.1.2\lvgl\src\lv_objx/lv_ta.c ****         if(strcmp(ta_insert_replace, txt)) {
 1326              		.loc 7 330 0
 1327 0036 684B     		ldr	r3, .L70
 1328 0038 1B68     		ldr	r3, [r3]
 1329 003a 3968     		ldr	r1, [r7]
 1330 003c 1846     		mov	r0, r3
 1331 003e FFF7FEFF 		bl	strcmp
ARM GAS  C:\Users\tmj32\AppData\Local\Temp\ccI3WYuM.s 			page 52


 1332 0042 0346     		mov	r3, r0
 1333 0044 002B     		cmp	r3, #0
 1334 0046 06D0     		beq	.L58
 331:..\..\..\lvgl\version_6.1.2\lvgl\src\lv_objx/lv_ta.c ****             lv_ta_add_text(ta, ta_insert_replace);
 1335              		.loc 7 331 0
 1336 0048 634B     		ldr	r3, .L70
 1337 004a 1B68     		ldr	r3, [r3]
 1338 004c 1946     		mov	r1, r3
 1339 004e 7868     		ldr	r0, [r7, #4]
 1340 0050 FFF7FEFF 		bl	lv_ta_add_text
 332:..\..\..\lvgl\version_6.1.2\lvgl\src\lv_objx/lv_ta.c ****             return;
 1341              		.loc 7 332 0
 1342 0054 BDE0     		b	.L57
 1343              	.L58:
 333:..\..\..\lvgl\version_6.1.2\lvgl\src\lv_objx/lv_ta.c ****         }
 334:..\..\..\lvgl\version_6.1.2\lvgl\src\lv_objx/lv_ta.c ****     }
 335:..\..\..\lvgl\version_6.1.2\lvgl\src\lv_objx/lv_ta.c **** 
 336:..\..\..\lvgl\version_6.1.2\lvgl\src\lv_objx/lv_ta.c ****     if(ext->pwd_mode != 0) pwd_char_hider(ta); /*Make sure all the current text contains only '*'*/
 1344              		.loc 7 336 0
 1345 0056 FB6B     		ldr	r3, [r7, #60]
 1346 0058 93F85C30 		ldrb	r3, [r3, #92]	@ zero_extendqisi2
 1347 005c 03F00103 		and	r3, r3, #1
 1348 0060 DBB2     		uxtb	r3, r3
 1349 0062 002B     		cmp	r3, #0
 1350 0064 02D0     		beq	.L61
 1351              		.loc 7 336 0 is_stmt 0 discriminator 1
 1352 0066 7868     		ldr	r0, [r7, #4]
 1353 0068 FFF7FEFF 		bl	pwd_char_hider
 1354              	.L61:
 337:..\..\..\lvgl\version_6.1.2\lvgl\src\lv_objx/lv_ta.c **** 
 338:..\..\..\lvgl\version_6.1.2\lvgl\src\lv_objx/lv_ta.c ****     /*Add the character one-by-one if not all characters are accepted or there is character limit.*
 339:..\..\..\lvgl\version_6.1.2\lvgl\src\lv_objx/lv_ta.c ****     if(lv_ta_get_accepted_chars(ta) || lv_ta_get_max_length(ta)) {
 1355              		.loc 7 339 0 is_stmt 1
 1356 006c 7868     		ldr	r0, [r7, #4]
 1357 006e FFF7FEFF 		bl	lv_ta_get_accepted_chars
 1358 0072 0346     		mov	r3, r0
 1359 0074 002B     		cmp	r3, #0
 1360 0076 05D1     		bne	.L62
 1361              		.loc 7 339 0 is_stmt 0 discriminator 1
 1362 0078 7868     		ldr	r0, [r7, #4]
 1363 007a FFF7FEFF 		bl	lv_ta_get_max_length
 1364 007e 0346     		mov	r3, r0
 1365 0080 002B     		cmp	r3, #0
 1366 0082 1BD0     		beq	.L63
 1367              	.L62:
 1368              	.LBB8:
 340:..\..\..\lvgl\version_6.1.2\lvgl\src\lv_objx/lv_ta.c ****         uint32_t i = 0;
 1369              		.loc 7 340 0 is_stmt 1
 1370 0084 0023     		movs	r3, #0
 1371 0086 3B63     		str	r3, [r7, #48]
 341:..\..\..\lvgl\version_6.1.2\lvgl\src\lv_objx/lv_ta.c ****         while(txt[i] != '\0') {
 1372              		.loc 7 341 0
 1373 0088 10E0     		b	.L64
 1374              	.L65:
 1375              	.LBB9:
 342:..\..\..\lvgl\version_6.1.2\lvgl\src\lv_objx/lv_ta.c ****             uint32_t c = lv_txt_encoded_next(txt, &i);
 1376              		.loc 7 342 0
ARM GAS  C:\Users\tmj32\AppData\Local\Temp\ccI3WYuM.s 			page 53


 1377 008a 544B     		ldr	r3, .L70+4
 1378 008c 1B68     		ldr	r3, [r3]
 1379 008e 07F13002 		add	r2, r7, #48
 1380 0092 1146     		mov	r1, r2
 1381 0094 3868     		ldr	r0, [r7]
 1382 0096 9847     		blx	r3
 1383 0098 7863     		str	r0, [r7, #52]
 343:..\..\..\lvgl\version_6.1.2\lvgl\src\lv_objx/lv_ta.c ****             lv_ta_add_char(ta, lv_txt_unicode_to_encoded(c));
 1384              		.loc 7 343 0
 1385 009a 514B     		ldr	r3, .L70+8
 1386 009c 1B68     		ldr	r3, [r3]
 1387 009e 786B     		ldr	r0, [r7, #52]
 1388 00a0 9847     		blx	r3
 1389 00a2 0346     		mov	r3, r0
 1390 00a4 1946     		mov	r1, r3
 1391 00a6 7868     		ldr	r0, [r7, #4]
 1392 00a8 FFF7FEFF 		bl	lv_ta_add_char
 1393              	.L64:
 1394              	.LBE9:
 341:..\..\..\lvgl\version_6.1.2\lvgl\src\lv_objx/lv_ta.c ****         while(txt[i] != '\0') {
 1395              		.loc 7 341 0
 1396 00ac 3B6B     		ldr	r3, [r7, #48]
 1397 00ae 3A68     		ldr	r2, [r7]
 1398 00b0 1344     		add	r3, r3, r2
 1399 00b2 1B78     		ldrb	r3, [r3]	@ zero_extendqisi2
 1400 00b4 002B     		cmp	r3, #0
 1401 00b6 E8D1     		bne	.L65
 344:..\..\..\lvgl\version_6.1.2\lvgl\src\lv_objx/lv_ta.c ****         }
 345:..\..\..\lvgl\version_6.1.2\lvgl\src\lv_objx/lv_ta.c ****         return;
 1402              		.loc 7 345 0
 1403 00b8 00BF     		nop
 1404 00ba 8AE0     		b	.L57
 1405              	.L63:
 1406              	.LBE8:
 346:..\..\..\lvgl\version_6.1.2\lvgl\src\lv_objx/lv_ta.c ****     }
 347:..\..\..\lvgl\version_6.1.2\lvgl\src\lv_objx/lv_ta.c **** 
 348:..\..\..\lvgl\version_6.1.2\lvgl\src\lv_objx/lv_ta.c ****     /*If a new line was added it shouldn't show edge flash effect*/
 349:..\..\..\lvgl\version_6.1.2\lvgl\src\lv_objx/lv_ta.c ****     bool edge_flash_en = lv_ta_get_edge_flash(ta);
 1407              		.loc 7 349 0
 1408 00bc 7868     		ldr	r0, [r7, #4]
 1409 00be FFF7FEFF 		bl	lv_ta_get_edge_flash
 1410 00c2 0346     		mov	r3, r0
 1411 00c4 87F83B30 		strb	r3, [r7, #59]
 350:..\..\..\lvgl\version_6.1.2\lvgl\src\lv_objx/lv_ta.c ****     lv_ta_set_edge_flash(ta, false);
 1412              		.loc 7 350 0
 1413 00c8 0021     		movs	r1, #0
 1414 00ca 7868     		ldr	r0, [r7, #4]
 1415 00cc FFF7FEFF 		bl	lv_ta_set_edge_flash
 351:..\..\..\lvgl\version_6.1.2\lvgl\src\lv_objx/lv_ta.c **** 
 352:..\..\..\lvgl\version_6.1.2\lvgl\src\lv_objx/lv_ta.c ****     /*Insert the text*/
 353:..\..\..\lvgl\version_6.1.2\lvgl\src\lv_objx/lv_ta.c ****     lv_label_ins_text(ext->label, ext->cursor.pos, txt);
 1416              		.loc 7 353 0
 1417 00d0 FB6B     		ldr	r3, [r7, #60]
 1418 00d2 186B     		ldr	r0, [r3, #48]
 1419 00d4 FB6B     		ldr	r3, [r7, #60]
 1420 00d6 B3F84A30 		ldrh	r3, [r3, #74]
 1421 00da 3A68     		ldr	r2, [r7]
ARM GAS  C:\Users\tmj32\AppData\Local\Temp\ccI3WYuM.s 			page 54


 1422 00dc 1946     		mov	r1, r3
 1423 00de FFF7FEFF 		bl	lv_label_ins_text
 354:..\..\..\lvgl\version_6.1.2\lvgl\src\lv_objx/lv_ta.c ****     lv_ta_clear_selection(ta);
 1424              		.loc 7 354 0
 1425 00e2 7868     		ldr	r0, [r7, #4]
 1426 00e4 FFF7FEFF 		bl	lv_ta_clear_selection
 355:..\..\..\lvgl\version_6.1.2\lvgl\src\lv_objx/lv_ta.c **** 
 356:..\..\..\lvgl\version_6.1.2\lvgl\src\lv_objx/lv_ta.c ****     if(ext->pwd_mode != 0) {
 1427              		.loc 7 356 0
 1428 00e8 FB6B     		ldr	r3, [r7, #60]
 1429 00ea 93F85C30 		ldrb	r3, [r3, #92]	@ zero_extendqisi2
 1430 00ee 03F00103 		and	r3, r3, #1
 1431 00f2 DBB2     		uxtb	r3, r3
 1432 00f4 002B     		cmp	r3, #0
 1433 00f6 48D0     		beq	.L66
 1434              	.LBB10:
 357:..\..\..\lvgl\version_6.1.2\lvgl\src\lv_objx/lv_ta.c ****         ext->pwd_tmp = lv_mem_realloc(ext->pwd_tmp, strlen(ext->pwd_tmp) + strlen(txt) + 1);
 1435              		.loc 7 357 0
 1436 00f8 FB6B     		ldr	r3, [r7, #60]
 1437 00fa 9C6B     		ldr	r4, [r3, #56]
 1438 00fc FB6B     		ldr	r3, [r7, #60]
 1439 00fe 9B6B     		ldr	r3, [r3, #56]
 1440 0100 1846     		mov	r0, r3
 1441 0102 FFF7FEFF 		bl	strlen
 1442 0106 0546     		mov	r5, r0
 1443 0108 3868     		ldr	r0, [r7]
 1444 010a FFF7FEFF 		bl	strlen
 1445 010e 0346     		mov	r3, r0
 1446 0110 2B44     		add	r3, r3, r5
 1447 0112 0133     		adds	r3, r3, #1
 1448 0114 1946     		mov	r1, r3
 1449 0116 2046     		mov	r0, r4
 1450 0118 FFF7FEFF 		bl	lv_mem_realloc
 1451 011c 0246     		mov	r2, r0
 1452 011e FB6B     		ldr	r3, [r7, #60]
 1453 0120 9A63     		str	r2, [r3, #56]
 358:..\..\..\lvgl\version_6.1.2\lvgl\src\lv_objx/lv_ta.c ****         LV_ASSERT_MEM(ext->pwd_tmp);
 359:..\..\..\lvgl\version_6.1.2\lvgl\src\lv_objx/lv_ta.c ****         if(ext->pwd_tmp == NULL) return;
 1454              		.loc 7 359 0
 1455 0122 FB6B     		ldr	r3, [r7, #60]
 1456 0124 9B6B     		ldr	r3, [r3, #56]
 1457 0126 002B     		cmp	r3, #0
 1458 0128 52D0     		beq	.L69
 360:..\..\..\lvgl\version_6.1.2\lvgl\src\lv_objx/lv_ta.c **** 
 361:..\..\..\lvgl\version_6.1.2\lvgl\src\lv_objx/lv_ta.c ****         lv_txt_ins(ext->pwd_tmp, ext->cursor.pos, txt);
 1459              		.loc 7 361 0
 1460 012a FB6B     		ldr	r3, [r7, #60]
 1461 012c 986B     		ldr	r0, [r3, #56]
 1462 012e FB6B     		ldr	r3, [r7, #60]
 1463 0130 B3F84A30 		ldrh	r3, [r3, #74]
 1464 0134 3A68     		ldr	r2, [r7]
 1465 0136 1946     		mov	r1, r3
 1466 0138 FFF7FEFF 		bl	lv_txt_ins
 362:..\..\..\lvgl\version_6.1.2\lvgl\src\lv_objx/lv_ta.c **** 
 363:..\..\..\lvgl\version_6.1.2\lvgl\src\lv_objx/lv_ta.c **** #if LV_USE_ANIMATION
 364:..\..\..\lvgl\version_6.1.2\lvgl\src\lv_objx/lv_ta.c ****         /*Auto hide characters*/
 365:..\..\..\lvgl\version_6.1.2\lvgl\src\lv_objx/lv_ta.c ****         lv_anim_t a;
ARM GAS  C:\Users\tmj32\AppData\Local\Temp\ccI3WYuM.s 			page 55


 366:..\..\..\lvgl\version_6.1.2\lvgl\src\lv_objx/lv_ta.c ****         a.var            = ta;
 1467              		.loc 7 366 0
 1468 013c 7B68     		ldr	r3, [r7, #4]
 1469 013e FB60     		str	r3, [r7, #12]
 367:..\..\..\lvgl\version_6.1.2\lvgl\src\lv_objx/lv_ta.c ****         a.exec_cb        = (lv_anim_exec_xcb_t)pwd_char_hider_anim;
 1470              		.loc 7 367 0
 1471 0140 284B     		ldr	r3, .L70+12
 1472 0142 3B61     		str	r3, [r7, #16]
 368:..\..\..\lvgl\version_6.1.2\lvgl\src\lv_objx/lv_ta.c ****         a.time           = ext->pwd_show_time;
 1473              		.loc 7 368 0
 1474 0144 FB6B     		ldr	r3, [r7, #60]
 1475 0146 B3F84230 		ldrh	r3, [r3, #66]
 1476 014a BB84     		strh	r3, [r7, #36]	@ movhi
 369:..\..\..\lvgl\version_6.1.2\lvgl\src\lv_objx/lv_ta.c ****         a.act_time       = 0;
 1477              		.loc 7 369 0
 1478 014c 0023     		movs	r3, #0
 1479 014e FB84     		strh	r3, [r7, #38]	@ movhi
 370:..\..\..\lvgl\version_6.1.2\lvgl\src\lv_objx/lv_ta.c ****         a.ready_cb       = pwd_char_hider_anim_ready;
 1480              		.loc 7 370 0
 1481 0150 254B     		ldr	r3, .L70+16
 1482 0152 BB61     		str	r3, [r7, #24]
 371:..\..\..\lvgl\version_6.1.2\lvgl\src\lv_objx/lv_ta.c ****         a.start          = 0;
 1483              		.loc 7 371 0
 1484 0154 0023     		movs	r3, #0
 1485 0156 FB61     		str	r3, [r7, #28]
 372:..\..\..\lvgl\version_6.1.2\lvgl\src\lv_objx/lv_ta.c ****         a.end            = 1;
 1486              		.loc 7 372 0
 1487 0158 0123     		movs	r3, #1
 1488 015a 3B62     		str	r3, [r7, #32]
 373:..\..\..\lvgl\version_6.1.2\lvgl\src\lv_objx/lv_ta.c ****         a.repeat         = 0;
 1489              		.loc 7 373 0
 1490 015c 97F82C30 		ldrb	r3, [r7, #44]
 1491 0160 6FF34103 		bfc	r3, #1, #1
 1492 0164 87F82C30 		strb	r3, [r7, #44]
 374:..\..\..\lvgl\version_6.1.2\lvgl\src\lv_objx/lv_ta.c ****         a.repeat_pause   = 0;
 1493              		.loc 7 374 0
 1494 0168 0023     		movs	r3, #0
 1495 016a 7B85     		strh	r3, [r7, #42]	@ movhi
 375:..\..\..\lvgl\version_6.1.2\lvgl\src\lv_objx/lv_ta.c ****         a.playback       = 0;
 1496              		.loc 7 375 0
 1497 016c 97F82C30 		ldrb	r3, [r7, #44]
 1498 0170 6FF30003 		bfc	r3, #0, #1
 1499 0174 87F82C30 		strb	r3, [r7, #44]
 376:..\..\..\lvgl\version_6.1.2\lvgl\src\lv_objx/lv_ta.c ****         a.playback_pause = 0;
 1500              		.loc 7 376 0
 1501 0178 0023     		movs	r3, #0
 1502 017a 3B85     		strh	r3, [r7, #40]	@ movhi
 377:..\..\..\lvgl\version_6.1.2\lvgl\src\lv_objx/lv_ta.c ****         a.path_cb        = lv_anim_path_step;
 1503              		.loc 7 377 0
 1504 017c 1B4B     		ldr	r3, .L70+20
 1505 017e 7B61     		str	r3, [r7, #20]
 378:..\..\..\lvgl\version_6.1.2\lvgl\src\lv_objx/lv_ta.c ****         lv_anim_create(&a);
 1506              		.loc 7 378 0
 1507 0180 07F10C03 		add	r3, r7, #12
 1508 0184 1846     		mov	r0, r3
 1509 0186 FFF7FEFF 		bl	lv_anim_create
 1510              	.L66:
ARM GAS  C:\Users\tmj32\AppData\Local\Temp\ccI3WYuM.s 			page 56


 1511              	.LBE10:
 379:..\..\..\lvgl\version_6.1.2\lvgl\src\lv_objx/lv_ta.c **** #else
 380:..\..\..\lvgl\version_6.1.2\lvgl\src\lv_objx/lv_ta.c ****         pwd_char_hider(ta);
 381:..\..\..\lvgl\version_6.1.2\lvgl\src\lv_objx/lv_ta.c **** #endif
 382:..\..\..\lvgl\version_6.1.2\lvgl\src\lv_objx/lv_ta.c ****     }
 383:..\..\..\lvgl\version_6.1.2\lvgl\src\lv_objx/lv_ta.c **** 
 384:..\..\..\lvgl\version_6.1.2\lvgl\src\lv_objx/lv_ta.c ****     /*Move the cursor after the new text*/
 385:..\..\..\lvgl\version_6.1.2\lvgl\src\lv_objx/lv_ta.c ****     lv_ta_set_cursor_pos(ta, lv_ta_get_cursor_pos(ta) + lv_txt_get_encoded_length(txt));
 1512              		.loc 7 385 0
 1513 018a 7868     		ldr	r0, [r7, #4]
 1514 018c FFF7FEFF 		bl	lv_ta_get_cursor_pos
 1515 0190 0346     		mov	r3, r0
 1516 0192 1C46     		mov	r4, r3
 1517 0194 164B     		ldr	r3, .L70+24
 1518 0196 1B68     		ldr	r3, [r3]
 1519 0198 3868     		ldr	r0, [r7]
 1520 019a 9847     		blx	r3
 1521 019c 0346     		mov	r3, r0
 1522 019e 9BB2     		uxth	r3, r3
 1523 01a0 2344     		add	r3, r3, r4
 1524 01a2 9BB2     		uxth	r3, r3
 1525 01a4 1BB2     		sxth	r3, r3
 1526 01a6 1946     		mov	r1, r3
 1527 01a8 7868     		ldr	r0, [r7, #4]
 1528 01aa FFF7FEFF 		bl	lv_ta_set_cursor_pos
 386:..\..\..\lvgl\version_6.1.2\lvgl\src\lv_objx/lv_ta.c **** 
 387:..\..\..\lvgl\version_6.1.2\lvgl\src\lv_objx/lv_ta.c ****     /*Revert the original edge flash state*/
 388:..\..\..\lvgl\version_6.1.2\lvgl\src\lv_objx/lv_ta.c ****     lv_ta_set_edge_flash(ta, edge_flash_en);
 1529              		.loc 7 388 0
 1530 01ae 97F83B30 		ldrb	r3, [r7, #59]	@ zero_extendqisi2
 1531 01b2 1946     		mov	r1, r3
 1532 01b4 7868     		ldr	r0, [r7, #4]
 1533 01b6 FFF7FEFF 		bl	lv_ta_set_edge_flash
 389:..\..\..\lvgl\version_6.1.2\lvgl\src\lv_objx/lv_ta.c **** 
 390:..\..\..\lvgl\version_6.1.2\lvgl\src\lv_objx/lv_ta.c ****     placeholder_update(ta);
 1534              		.loc 7 390 0
 1535 01ba 7868     		ldr	r0, [r7, #4]
 1536 01bc FFF7FEFF 		bl	placeholder_update
 391:..\..\..\lvgl\version_6.1.2\lvgl\src\lv_objx/lv_ta.c **** 
 392:..\..\..\lvgl\version_6.1.2\lvgl\src\lv_objx/lv_ta.c ****     lv_event_send(ta, LV_EVENT_VALUE_CHANGED, NULL);
 1537              		.loc 7 392 0
 1538 01c0 0022     		movs	r2, #0
 1539 01c2 0E21     		movs	r1, #14
 1540 01c4 7868     		ldr	r0, [r7, #4]
 1541 01c6 FFF7FEFF 		bl	lv_event_send
 1542 01ca 02E0     		b	.L57
 1543              	.L68:
 327:..\..\..\lvgl\version_6.1.2\lvgl\src\lv_objx/lv_ta.c **** 
 1544              		.loc 7 327 0
 1545 01cc 00BF     		nop
 1546 01ce 00E0     		b	.L57
 1547              	.L69:
 1548              	.LBB11:
 359:..\..\..\lvgl\version_6.1.2\lvgl\src\lv_objx/lv_ta.c **** 
 1549              		.loc 7 359 0
 1550 01d0 00BF     		nop
 1551              	.L57:
ARM GAS  C:\Users\tmj32\AppData\Local\Temp\ccI3WYuM.s 			page 57


 1552              	.LBE11:
 393:..\..\..\lvgl\version_6.1.2\lvgl\src\lv_objx/lv_ta.c **** }
 1553              		.loc 7 393 0
 1554 01d2 4037     		adds	r7, r7, #64
 1555              		.cfi_def_cfa_offset 16
 1556 01d4 BD46     		mov	sp, r7
 1557              		.cfi_def_cfa_register 13
 1558              		@ sp needed
 1559 01d6 B0BD     		pop	{r4, r5, r7, pc}
 1560              	.L71:
 1561              		.align	2
 1562              	.L70:
 1563 01d8 10000000 		.word	ta_insert_replace
 1564 01dc 00000000 		.word	lv_txt_encoded_next
 1565 01e0 00000000 		.word	lv_txt_unicode_to_encoded
 1566 01e4 00000000 		.word	pwd_char_hider_anim
 1567 01e8 00000000 		.word	pwd_char_hider_anim_ready
 1568 01ec 00000000 		.word	lv_anim_path_step
 1569 01f0 00000000 		.word	lv_txt_get_encoded_length
 1570              		.cfi_endproc
 1571              	.LFE58:
 1572              		.size	lv_ta_add_text, .-lv_ta_add_text
 1573              		.section	.text.lv_ta_del_char,"ax",%progbits
 1574              		.align	2
 1575              		.global	lv_ta_del_char
 1576              		.thumb
 1577              		.thumb_func
 1578              		.type	lv_ta_del_char, %function
 1579              	lv_ta_del_char:
 1580              	.LFB59:
 394:..\..\..\lvgl\version_6.1.2\lvgl\src\lv_objx/lv_ta.c **** 
 395:..\..\..\lvgl\version_6.1.2\lvgl\src\lv_objx/lv_ta.c **** /**
 396:..\..\..\lvgl\version_6.1.2\lvgl\src\lv_objx/lv_ta.c ****  * Delete a the left character from the current cursor position
 397:..\..\..\lvgl\version_6.1.2\lvgl\src\lv_objx/lv_ta.c ****  * @param ta pointer to a text area object
 398:..\..\..\lvgl\version_6.1.2\lvgl\src\lv_objx/lv_ta.c ****  */
 399:..\..\..\lvgl\version_6.1.2\lvgl\src\lv_objx/lv_ta.c **** void lv_ta_del_char(lv_obj_t * ta)
 400:..\..\..\lvgl\version_6.1.2\lvgl\src\lv_objx/lv_ta.c **** {
 1581              		.loc 7 400 0
 1582              		.cfi_startproc
 1583              		@ args = 0, pretend = 0, frame = 32
 1584              		@ frame_needed = 1, uses_anonymous_args = 0
 1585 0000 B0B5     		push	{r4, r5, r7, lr}
 1586              		.cfi_def_cfa_offset 16
 1587              		.cfi_offset 4, -16
 1588              		.cfi_offset 5, -12
 1589              		.cfi_offset 7, -8
 1590              		.cfi_offset 14, -4
 1591 0002 88B0     		sub	sp, sp, #32
 1592              		.cfi_def_cfa_offset 48
 1593 0004 00AF     		add	r7, sp, #0
 1594              		.cfi_def_cfa_register 7
 1595 0006 7860     		str	r0, [r7, #4]
 401:..\..\..\lvgl\version_6.1.2\lvgl\src\lv_objx/lv_ta.c ****     LV_ASSERT_OBJ(ta, LV_OBJX_NAME);
 402:..\..\..\lvgl\version_6.1.2\lvgl\src\lv_objx/lv_ta.c **** 
 403:..\..\..\lvgl\version_6.1.2\lvgl\src\lv_objx/lv_ta.c ****     lv_ta_ext_t * ext = lv_obj_get_ext_attr(ta);
 1596              		.loc 7 403 0
 1597 0008 7868     		ldr	r0, [r7, #4]
ARM GAS  C:\Users\tmj32\AppData\Local\Temp\ccI3WYuM.s 			page 58


 1598 000a FFF7FEFF 		bl	lv_obj_get_ext_attr
 1599 000e F861     		str	r0, [r7, #28]
 404:..\..\..\lvgl\version_6.1.2\lvgl\src\lv_objx/lv_ta.c ****     uint16_t cur_pos  = ext->cursor.pos;
 1600              		.loc 7 404 0
 1601 0010 FB69     		ldr	r3, [r7, #28]
 1602 0012 B3F84A30 		ldrh	r3, [r3, #74]	@ movhi
 1603 0016 7B83     		strh	r3, [r7, #26]	@ movhi
 405:..\..\..\lvgl\version_6.1.2\lvgl\src\lv_objx/lv_ta.c **** 
 406:..\..\..\lvgl\version_6.1.2\lvgl\src\lv_objx/lv_ta.c ****     if(cur_pos == 0) return;
 1604              		.loc 7 406 0
 1605 0018 7B8B     		ldrh	r3, [r7, #26]
 1606 001a 002B     		cmp	r3, #0
 1607 001c 00F0A780 		beq	.L80
 407:..\..\..\lvgl\version_6.1.2\lvgl\src\lv_objx/lv_ta.c **** 
 408:..\..\..\lvgl\version_6.1.2\lvgl\src\lv_objx/lv_ta.c ****     ta_insert_replace = NULL;
 1608              		.loc 7 408 0
 1609 0020 574B     		ldr	r3, .L83
 1610 0022 0022     		movs	r2, #0
 1611 0024 1A60     		str	r2, [r3]
 409:..\..\..\lvgl\version_6.1.2\lvgl\src\lv_objx/lv_ta.c ****     char del_buf[2]   = {LV_KEY_DEL, '\0'};
 1612              		.loc 7 409 0
 1613 0026 7F23     		movs	r3, #127
 1614 0028 3B72     		strb	r3, [r7, #8]
 1615 002a 0023     		movs	r3, #0
 1616 002c 7B72     		strb	r3, [r7, #9]
 410:..\..\..\lvgl\version_6.1.2\lvgl\src\lv_objx/lv_ta.c ****     lv_event_send(ta, LV_EVENT_INSERT, del_buf);
 1617              		.loc 7 410 0
 1618 002e 07F10803 		add	r3, r7, #8
 1619 0032 1A46     		mov	r2, r3
 1620 0034 0F21     		movs	r1, #15
 1621 0036 7868     		ldr	r0, [r7, #4]
 1622 0038 FFF7FEFF 		bl	lv_event_send
 411:..\..\..\lvgl\version_6.1.2\lvgl\src\lv_objx/lv_ta.c ****     if(ta_insert_replace) {
 1623              		.loc 7 411 0
 1624 003c 504B     		ldr	r3, .L83
 1625 003e 1B68     		ldr	r3, [r3]
 1626 0040 002B     		cmp	r3, #0
 1627 0042 17D0     		beq	.L75
 412:..\..\..\lvgl\version_6.1.2\lvgl\src\lv_objx/lv_ta.c ****         if(ta_insert_replace[0] == '\0') return; /*Drop this text*/
 1628              		.loc 7 412 0
 1629 0044 4E4B     		ldr	r3, .L83
 1630 0046 1B68     		ldr	r3, [r3]
 1631 0048 1B78     		ldrb	r3, [r3]	@ zero_extendqisi2
 1632 004a 002B     		cmp	r3, #0
 1633 004c 00F09180 		beq	.L81
 413:..\..\..\lvgl\version_6.1.2\lvgl\src\lv_objx/lv_ta.c **** 
 414:..\..\..\lvgl\version_6.1.2\lvgl\src\lv_objx/lv_ta.c ****         /*Add the replaced text directly it's different from the original*/
 415:..\..\..\lvgl\version_6.1.2\lvgl\src\lv_objx/lv_ta.c ****         if(strcmp(ta_insert_replace, del_buf)) {
 1634              		.loc 7 415 0
 1635 0050 4B4B     		ldr	r3, .L83
 1636 0052 1B68     		ldr	r3, [r3]
 1637 0054 07F10802 		add	r2, r7, #8
 1638 0058 1146     		mov	r1, r2
 1639 005a 1846     		mov	r0, r3
 1640 005c FFF7FEFF 		bl	strcmp
 1641 0060 0346     		mov	r3, r0
 1642 0062 002B     		cmp	r3, #0
ARM GAS  C:\Users\tmj32\AppData\Local\Temp\ccI3WYuM.s 			page 59


 1643 0064 06D0     		beq	.L75
 416:..\..\..\lvgl\version_6.1.2\lvgl\src\lv_objx/lv_ta.c ****             lv_ta_add_text(ta, ta_insert_replace);
 1644              		.loc 7 416 0
 1645 0066 464B     		ldr	r3, .L83
 1646 0068 1B68     		ldr	r3, [r3]
 1647 006a 1946     		mov	r1, r3
 1648 006c 7868     		ldr	r0, [r7, #4]
 1649 006e FFF7FEFF 		bl	lv_ta_add_text
 417:..\..\..\lvgl\version_6.1.2\lvgl\src\lv_objx/lv_ta.c ****             return;
 1650              		.loc 7 417 0
 1651 0072 81E0     		b	.L72
 1652              	.L75:
 418:..\..\..\lvgl\version_6.1.2\lvgl\src\lv_objx/lv_ta.c ****         }
 419:..\..\..\lvgl\version_6.1.2\lvgl\src\lv_objx/lv_ta.c ****     }
 420:..\..\..\lvgl\version_6.1.2\lvgl\src\lv_objx/lv_ta.c **** 
 421:..\..\..\lvgl\version_6.1.2\lvgl\src\lv_objx/lv_ta.c ****     char * label_txt = lv_label_get_text(ext->label);
 1653              		.loc 7 421 0
 1654 0074 FB69     		ldr	r3, [r7, #28]
 1655 0076 1B6B     		ldr	r3, [r3, #48]
 1656 0078 1846     		mov	r0, r3
 1657 007a FFF7FEFF 		bl	lv_label_get_text
 1658 007e 7861     		str	r0, [r7, #20]
 422:..\..\..\lvgl\version_6.1.2\lvgl\src\lv_objx/lv_ta.c ****     /*Delete a character*/
 423:..\..\..\lvgl\version_6.1.2\lvgl\src\lv_objx/lv_ta.c ****     lv_txt_cut(label_txt, ext->cursor.pos - 1, 1);
 1659              		.loc 7 423 0
 1660 0080 FB69     		ldr	r3, [r7, #28]
 1661 0082 B3F84A30 		ldrh	r3, [r3, #74]
 1662 0086 013B     		subs	r3, r3, #1
 1663 0088 0122     		movs	r2, #1
 1664 008a 1946     		mov	r1, r3
 1665 008c 7869     		ldr	r0, [r7, #20]
 1666 008e FFF7FEFF 		bl	lv_txt_cut
 424:..\..\..\lvgl\version_6.1.2\lvgl\src\lv_objx/lv_ta.c ****     /*Refresh the label*/
 425:..\..\..\lvgl\version_6.1.2\lvgl\src\lv_objx/lv_ta.c ****     lv_label_set_text(ext->label, label_txt);
 1667              		.loc 7 425 0
 1668 0092 FB69     		ldr	r3, [r7, #28]
 1669 0094 1B6B     		ldr	r3, [r3, #48]
 1670 0096 7969     		ldr	r1, [r7, #20]
 1671 0098 1846     		mov	r0, r3
 1672 009a FFF7FEFF 		bl	lv_label_set_text
 426:..\..\..\lvgl\version_6.1.2\lvgl\src\lv_objx/lv_ta.c ****     lv_ta_clear_selection(ta);
 1673              		.loc 7 426 0
 1674 009e 7868     		ldr	r0, [r7, #4]
 1675 00a0 FFF7FEFF 		bl	lv_ta_clear_selection
 427:..\..\..\lvgl\version_6.1.2\lvgl\src\lv_objx/lv_ta.c **** 
 428:..\..\..\lvgl\version_6.1.2\lvgl\src\lv_objx/lv_ta.c ****     /*Don't let 'width == 0' because cursor will not be visible*/
 429:..\..\..\lvgl\version_6.1.2\lvgl\src\lv_objx/lv_ta.c ****     if(lv_obj_get_width(ext->label) == 0) {
 1676              		.loc 7 429 0
 1677 00a4 FB69     		ldr	r3, [r7, #28]
 1678 00a6 1B6B     		ldr	r3, [r3, #48]
 1679 00a8 1846     		mov	r0, r3
 1680 00aa FFF7FEFF 		bl	lv_obj_get_width
 1681 00ae 0346     		mov	r3, r0
 1682 00b0 002B     		cmp	r3, #0
 1683 00b2 0ED1     		bne	.L77
 1684              	.LBB12:
 430:..\..\..\lvgl\version_6.1.2\lvgl\src\lv_objx/lv_ta.c ****         const lv_style_t * style = lv_obj_get_style(ext->label);
ARM GAS  C:\Users\tmj32\AppData\Local\Temp\ccI3WYuM.s 			page 60


 1685              		.loc 7 430 0
 1686 00b4 FB69     		ldr	r3, [r7, #28]
 1687 00b6 1B6B     		ldr	r3, [r3, #48]
 1688 00b8 1846     		mov	r0, r3
 1689 00ba FFF7FEFF 		bl	lv_obj_get_style
 1690 00be 3861     		str	r0, [r7, #16]
 431:..\..\..\lvgl\version_6.1.2\lvgl\src\lv_objx/lv_ta.c ****         lv_obj_set_width(ext->label, style->line.width);
 1691              		.loc 7 431 0
 1692 00c0 FB69     		ldr	r3, [r7, #28]
 1693 00c2 1A6B     		ldr	r2, [r3, #48]
 1694 00c4 3B69     		ldr	r3, [r7, #16]
 1695 00c6 B3F94C30 		ldrsh	r3, [r3, #76]
 1696 00ca 1946     		mov	r1, r3
 1697 00cc 1046     		mov	r0, r2
 1698 00ce FFF7FEFF 		bl	lv_obj_set_width
 1699              	.L77:
 1700              	.LBE12:
 432:..\..\..\lvgl\version_6.1.2\lvgl\src\lv_objx/lv_ta.c ****     }
 433:..\..\..\lvgl\version_6.1.2\lvgl\src\lv_objx/lv_ta.c **** 
 434:..\..\..\lvgl\version_6.1.2\lvgl\src\lv_objx/lv_ta.c ****     if(ext->pwd_mode != 0) {
 1701              		.loc 7 434 0
 1702 00d2 FB69     		ldr	r3, [r7, #28]
 1703 00d4 93F85C30 		ldrb	r3, [r3, #92]	@ zero_extendqisi2
 1704 00d8 03F00103 		and	r3, r3, #1
 1705 00dc DBB2     		uxtb	r3, r3
 1706 00de 002B     		cmp	r3, #0
 1707 00e0 32D0     		beq	.L78
 1708              	.LBB13:
 435:..\..\..\lvgl\version_6.1.2\lvgl\src\lv_objx/lv_ta.c ****         uint32_t byte_pos = lv_txt_encoded_get_byte_id(ext->pwd_tmp, ext->cursor.pos - 1);
 1709              		.loc 7 435 0
 1710 00e2 284B     		ldr	r3, .L83+4
 1711 00e4 1B68     		ldr	r3, [r3]
 1712 00e6 FA69     		ldr	r2, [r7, #28]
 1713 00e8 906B     		ldr	r0, [r2, #56]
 1714 00ea FA69     		ldr	r2, [r7, #28]
 1715 00ec B2F84A20 		ldrh	r2, [r2, #74]
 1716 00f0 013A     		subs	r2, r2, #1
 1717 00f2 1146     		mov	r1, r2
 1718 00f4 9847     		blx	r3
 1719 00f6 F860     		str	r0, [r7, #12]
 436:..\..\..\lvgl\version_6.1.2\lvgl\src\lv_objx/lv_ta.c ****         lv_txt_cut(ext->pwd_tmp, ext->cursor.pos - 1, lv_txt_encoded_size(&label_txt[byte_pos]));
 1720              		.loc 7 436 0
 1721 00f8 FB69     		ldr	r3, [r7, #28]
 1722 00fa 9C6B     		ldr	r4, [r3, #56]
 1723 00fc FB69     		ldr	r3, [r7, #28]
 1724 00fe B3F84A30 		ldrh	r3, [r3, #74]
 1725 0102 013B     		subs	r3, r3, #1
 1726 0104 1D46     		mov	r5, r3
 1727 0106 204B     		ldr	r3, .L83+8
 1728 0108 1B68     		ldr	r3, [r3]
 1729 010a 7969     		ldr	r1, [r7, #20]
 1730 010c FA68     		ldr	r2, [r7, #12]
 1731 010e 0A44     		add	r2, r2, r1
 1732 0110 1046     		mov	r0, r2
 1733 0112 9847     		blx	r3
 1734 0114 0346     		mov	r3, r0
 1735 0116 1A46     		mov	r2, r3
ARM GAS  C:\Users\tmj32\AppData\Local\Temp\ccI3WYuM.s 			page 61


 1736 0118 2946     		mov	r1, r5
 1737 011a 2046     		mov	r0, r4
 1738 011c FFF7FEFF 		bl	lv_txt_cut
 437:..\..\..\lvgl\version_6.1.2\lvgl\src\lv_objx/lv_ta.c **** 
 438:..\..\..\lvgl\version_6.1.2\lvgl\src\lv_objx/lv_ta.c ****         ext->pwd_tmp = lv_mem_realloc(ext->pwd_tmp, strlen(ext->pwd_tmp) + 1);
 1739              		.loc 7 438 0
 1740 0120 FB69     		ldr	r3, [r7, #28]
 1741 0122 9C6B     		ldr	r4, [r3, #56]
 1742 0124 FB69     		ldr	r3, [r7, #28]
 1743 0126 9B6B     		ldr	r3, [r3, #56]
 1744 0128 1846     		mov	r0, r3
 1745 012a FFF7FEFF 		bl	strlen
 1746 012e 0346     		mov	r3, r0
 1747 0130 0133     		adds	r3, r3, #1
 1748 0132 1946     		mov	r1, r3
 1749 0134 2046     		mov	r0, r4
 1750 0136 FFF7FEFF 		bl	lv_mem_realloc
 1751 013a 0246     		mov	r2, r0
 1752 013c FB69     		ldr	r3, [r7, #28]
 1753 013e 9A63     		str	r2, [r3, #56]
 439:..\..\..\lvgl\version_6.1.2\lvgl\src\lv_objx/lv_ta.c ****         LV_ASSERT_MEM(ext->pwd_tmp);
 440:..\..\..\lvgl\version_6.1.2\lvgl\src\lv_objx/lv_ta.c ****         if(ext->pwd_tmp == NULL) return;
 1754              		.loc 7 440 0
 1755 0140 FB69     		ldr	r3, [r7, #28]
 1756 0142 9B6B     		ldr	r3, [r3, #56]
 1757 0144 002B     		cmp	r3, #0
 1758 0146 16D0     		beq	.L82
 1759              	.L78:
 1760              	.LBE13:
 441:..\..\..\lvgl\version_6.1.2\lvgl\src\lv_objx/lv_ta.c ****     }
 442:..\..\..\lvgl\version_6.1.2\lvgl\src\lv_objx/lv_ta.c **** 
 443:..\..\..\lvgl\version_6.1.2\lvgl\src\lv_objx/lv_ta.c ****     /*Move the cursor to the place of the deleted character*/
 444:..\..\..\lvgl\version_6.1.2\lvgl\src\lv_objx/lv_ta.c ****     lv_ta_set_cursor_pos(ta, ext->cursor.pos - 1);
 1761              		.loc 7 444 0
 1762 0148 FB69     		ldr	r3, [r7, #28]
 1763 014a B3F84A30 		ldrh	r3, [r3, #74]
 1764 014e 013B     		subs	r3, r3, #1
 1765 0150 9BB2     		uxth	r3, r3
 1766 0152 1BB2     		sxth	r3, r3
 1767 0154 1946     		mov	r1, r3
 1768 0156 7868     		ldr	r0, [r7, #4]
 1769 0158 FFF7FEFF 		bl	lv_ta_set_cursor_pos
 445:..\..\..\lvgl\version_6.1.2\lvgl\src\lv_objx/lv_ta.c **** 
 446:..\..\..\lvgl\version_6.1.2\lvgl\src\lv_objx/lv_ta.c ****     placeholder_update(ta);
 1770              		.loc 7 446 0
 1771 015c 7868     		ldr	r0, [r7, #4]
 1772 015e FFF7FEFF 		bl	placeholder_update
 447:..\..\..\lvgl\version_6.1.2\lvgl\src\lv_objx/lv_ta.c **** 
 448:..\..\..\lvgl\version_6.1.2\lvgl\src\lv_objx/lv_ta.c ****     lv_event_send(ta, LV_EVENT_VALUE_CHANGED, NULL);
 1773              		.loc 7 448 0
 1774 0162 0022     		movs	r2, #0
 1775 0164 0E21     		movs	r1, #14
 1776 0166 7868     		ldr	r0, [r7, #4]
 1777 0168 FFF7FEFF 		bl	lv_event_send
 1778 016c 04E0     		b	.L72
 1779              	.L80:
 406:..\..\..\lvgl\version_6.1.2\lvgl\src\lv_objx/lv_ta.c **** 
ARM GAS  C:\Users\tmj32\AppData\Local\Temp\ccI3WYuM.s 			page 62


 1780              		.loc 7 406 0
 1781 016e 00BF     		nop
 1782 0170 02E0     		b	.L72
 1783              	.L81:
 412:..\..\..\lvgl\version_6.1.2\lvgl\src\lv_objx/lv_ta.c **** 
 1784              		.loc 7 412 0
 1785 0172 00BF     		nop
 1786 0174 00E0     		b	.L72
 1787              	.L82:
 1788              	.LBB14:
 440:..\..\..\lvgl\version_6.1.2\lvgl\src\lv_objx/lv_ta.c ****     }
 1789              		.loc 7 440 0
 1790 0176 00BF     		nop
 1791              	.L72:
 1792              	.LBE14:
 449:..\..\..\lvgl\version_6.1.2\lvgl\src\lv_objx/lv_ta.c **** }
 1793              		.loc 7 449 0
 1794 0178 2037     		adds	r7, r7, #32
 1795              		.cfi_def_cfa_offset 16
 1796 017a BD46     		mov	sp, r7
 1797              		.cfi_def_cfa_register 13
 1798              		@ sp needed
 1799 017c B0BD     		pop	{r4, r5, r7, pc}
 1800              	.L84:
 1801 017e 00BF     		.align	2
 1802              	.L83:
 1803 0180 10000000 		.word	ta_insert_replace
 1804 0184 00000000 		.word	lv_txt_encoded_get_byte_id
 1805 0188 00000000 		.word	lv_txt_encoded_size
 1806              		.cfi_endproc
 1807              	.LFE59:
 1808              		.size	lv_ta_del_char, .-lv_ta_del_char
 1809              		.section	.text.lv_ta_del_char_forward,"ax",%progbits
 1810              		.align	2
 1811              		.global	lv_ta_del_char_forward
 1812              		.thumb
 1813              		.thumb_func
 1814              		.type	lv_ta_del_char_forward, %function
 1815              	lv_ta_del_char_forward:
 1816              	.LFB60:
 450:..\..\..\lvgl\version_6.1.2\lvgl\src\lv_objx/lv_ta.c **** 
 451:..\..\..\lvgl\version_6.1.2\lvgl\src\lv_objx/lv_ta.c **** /**
 452:..\..\..\lvgl\version_6.1.2\lvgl\src\lv_objx/lv_ta.c ****  * Delete the right character from the current cursor position
 453:..\..\..\lvgl\version_6.1.2\lvgl\src\lv_objx/lv_ta.c ****  * @param ta pointer to a text area object
 454:..\..\..\lvgl\version_6.1.2\lvgl\src\lv_objx/lv_ta.c ****  */
 455:..\..\..\lvgl\version_6.1.2\lvgl\src\lv_objx/lv_ta.c **** void lv_ta_del_char_forward(lv_obj_t * ta)
 456:..\..\..\lvgl\version_6.1.2\lvgl\src\lv_objx/lv_ta.c **** {
 1817              		.loc 7 456 0
 1818              		.cfi_startproc
 1819              		@ args = 0, pretend = 0, frame = 16
 1820              		@ frame_needed = 1, uses_anonymous_args = 0
 1821 0000 80B5     		push	{r7, lr}
 1822              		.cfi_def_cfa_offset 8
 1823              		.cfi_offset 7, -8
 1824              		.cfi_offset 14, -4
 1825 0002 84B0     		sub	sp, sp, #16
 1826              		.cfi_def_cfa_offset 24
ARM GAS  C:\Users\tmj32\AppData\Local\Temp\ccI3WYuM.s 			page 63


 1827 0004 00AF     		add	r7, sp, #0
 1828              		.cfi_def_cfa_register 7
 1829 0006 7860     		str	r0, [r7, #4]
 457:..\..\..\lvgl\version_6.1.2\lvgl\src\lv_objx/lv_ta.c ****     LV_ASSERT_OBJ(ta, LV_OBJX_NAME);
 458:..\..\..\lvgl\version_6.1.2\lvgl\src\lv_objx/lv_ta.c **** 
 459:..\..\..\lvgl\version_6.1.2\lvgl\src\lv_objx/lv_ta.c ****     uint16_t cp = lv_ta_get_cursor_pos(ta);
 1830              		.loc 7 459 0
 1831 0008 7868     		ldr	r0, [r7, #4]
 1832 000a FFF7FEFF 		bl	lv_ta_get_cursor_pos
 1833 000e 0346     		mov	r3, r0
 1834 0010 FB81     		strh	r3, [r7, #14]	@ movhi
 460:..\..\..\lvgl\version_6.1.2\lvgl\src\lv_objx/lv_ta.c ****     lv_ta_set_cursor_pos(ta, cp + 1);
 1835              		.loc 7 460 0
 1836 0012 FB89     		ldrh	r3, [r7, #14]	@ movhi
 1837 0014 0133     		adds	r3, r3, #1
 1838 0016 9BB2     		uxth	r3, r3
 1839 0018 1BB2     		sxth	r3, r3
 1840 001a 1946     		mov	r1, r3
 1841 001c 7868     		ldr	r0, [r7, #4]
 1842 001e FFF7FEFF 		bl	lv_ta_set_cursor_pos
 461:..\..\..\lvgl\version_6.1.2\lvgl\src\lv_objx/lv_ta.c ****     if(cp != lv_ta_get_cursor_pos(ta)) lv_ta_del_char(ta);
 1843              		.loc 7 461 0
 1844 0022 7868     		ldr	r0, [r7, #4]
 1845 0024 FFF7FEFF 		bl	lv_ta_get_cursor_pos
 1846 0028 0346     		mov	r3, r0
 1847 002a 1A46     		mov	r2, r3
 1848 002c FB89     		ldrh	r3, [r7, #14]
 1849 002e 9342     		cmp	r3, r2
 1850 0030 02D0     		beq	.L87
 1851              		.loc 7 461 0 is_stmt 0 discriminator 1
 1852 0032 7868     		ldr	r0, [r7, #4]
 1853 0034 FFF7FEFF 		bl	lv_ta_del_char
 1854              	.L87:
 462:..\..\..\lvgl\version_6.1.2\lvgl\src\lv_objx/lv_ta.c **** }
 1855              		.loc 7 462 0 is_stmt 1
 1856 0038 00BF     		nop
 1857 003a 1037     		adds	r7, r7, #16
 1858              		.cfi_def_cfa_offset 8
 1859 003c BD46     		mov	sp, r7
 1860              		.cfi_def_cfa_register 13
 1861              		@ sp needed
 1862 003e 80BD     		pop	{r7, pc}
 1863              		.cfi_endproc
 1864              	.LFE60:
 1865              		.size	lv_ta_del_char_forward, .-lv_ta_del_char_forward
 1866              		.section	.rodata
 1867 000a 0000     		.align	2
 1868              	.LC1:
 1869 000c 00       		.ascii	"\000"
 1870              		.section	.text.lv_ta_set_text,"ax",%progbits
 1871              		.align	2
 1872              		.global	lv_ta_set_text
 1873              		.thumb
 1874              		.thumb_func
 1875              		.type	lv_ta_set_text, %function
 1876              	lv_ta_set_text:
 1877              	.LFB61:
ARM GAS  C:\Users\tmj32\AppData\Local\Temp\ccI3WYuM.s 			page 64


 463:..\..\..\lvgl\version_6.1.2\lvgl\src\lv_objx/lv_ta.c **** 
 464:..\..\..\lvgl\version_6.1.2\lvgl\src\lv_objx/lv_ta.c **** /*=====================
 465:..\..\..\lvgl\version_6.1.2\lvgl\src\lv_objx/lv_ta.c ****  * Setter functions
 466:..\..\..\lvgl\version_6.1.2\lvgl\src\lv_objx/lv_ta.c ****  *====================*/
 467:..\..\..\lvgl\version_6.1.2\lvgl\src\lv_objx/lv_ta.c **** 
 468:..\..\..\lvgl\version_6.1.2\lvgl\src\lv_objx/lv_ta.c **** /**
 469:..\..\..\lvgl\version_6.1.2\lvgl\src\lv_objx/lv_ta.c ****  * Set the text of a text area
 470:..\..\..\lvgl\version_6.1.2\lvgl\src\lv_objx/lv_ta.c ****  * @param ta pointer to a text area
 471:..\..\..\lvgl\version_6.1.2\lvgl\src\lv_objx/lv_ta.c ****  * @param txt pointer to the text
 472:..\..\..\lvgl\version_6.1.2\lvgl\src\lv_objx/lv_ta.c ****  */
 473:..\..\..\lvgl\version_6.1.2\lvgl\src\lv_objx/lv_ta.c **** void lv_ta_set_text(lv_obj_t * ta, const char * txt)
 474:..\..\..\lvgl\version_6.1.2\lvgl\src\lv_objx/lv_ta.c **** {
 1878              		.loc 7 474 0
 1879              		.cfi_startproc
 1880              		@ args = 0, pretend = 0, frame = 64
 1881              		@ frame_needed = 1, uses_anonymous_args = 0
 1882 0000 90B5     		push	{r4, r7, lr}
 1883              		.cfi_def_cfa_offset 12
 1884              		.cfi_offset 4, -12
 1885              		.cfi_offset 7, -8
 1886              		.cfi_offset 14, -4
 1887 0002 91B0     		sub	sp, sp, #68
 1888              		.cfi_def_cfa_offset 80
 1889 0004 00AF     		add	r7, sp, #0
 1890              		.cfi_def_cfa_register 7
 1891 0006 7860     		str	r0, [r7, #4]
 1892 0008 3960     		str	r1, [r7]
 475:..\..\..\lvgl\version_6.1.2\lvgl\src\lv_objx/lv_ta.c ****     LV_ASSERT_OBJ(ta, LV_OBJX_NAME);
 476:..\..\..\lvgl\version_6.1.2\lvgl\src\lv_objx/lv_ta.c ****     LV_ASSERT_NULL(txt);
 477:..\..\..\lvgl\version_6.1.2\lvgl\src\lv_objx/lv_ta.c **** 
 478:..\..\..\lvgl\version_6.1.2\lvgl\src\lv_objx/lv_ta.c ****     lv_ta_ext_t * ext = lv_obj_get_ext_attr(ta);
 1893              		.loc 7 478 0
 1894 000a 7868     		ldr	r0, [r7, #4]
 1895 000c FFF7FEFF 		bl	lv_obj_get_ext_attr
 1896 0010 F863     		str	r0, [r7, #60]
 479:..\..\..\lvgl\version_6.1.2\lvgl\src\lv_objx/lv_ta.c **** 
 480:..\..\..\lvgl\version_6.1.2\lvgl\src\lv_objx/lv_ta.c ****     /*Clear the existing selection*/
 481:..\..\..\lvgl\version_6.1.2\lvgl\src\lv_objx/lv_ta.c ****     lv_ta_clear_selection(ta);
 1897              		.loc 7 481 0
 1898 0012 7868     		ldr	r0, [r7, #4]
 1899 0014 FFF7FEFF 		bl	lv_ta_clear_selection
 482:..\..\..\lvgl\version_6.1.2\lvgl\src\lv_objx/lv_ta.c **** 
 483:..\..\..\lvgl\version_6.1.2\lvgl\src\lv_objx/lv_ta.c ****     /*Add the character one-by-one if not all characters are accepted or there is character limit.*
 484:..\..\..\lvgl\version_6.1.2\lvgl\src\lv_objx/lv_ta.c ****     if(lv_ta_get_accepted_chars(ta) || lv_ta_get_max_length(ta)) {
 1900              		.loc 7 484 0
 1901 0018 7868     		ldr	r0, [r7, #4]
 1902 001a FFF7FEFF 		bl	lv_ta_get_accepted_chars
 1903 001e 0346     		mov	r3, r0
 1904 0020 002B     		cmp	r3, #0
 1905 0022 05D1     		bne	.L89
 1906              		.loc 7 484 0 is_stmt 0 discriminator 1
 1907 0024 7868     		ldr	r0, [r7, #4]
 1908 0026 FFF7FEFF 		bl	lv_ta_get_max_length
 1909 002a 0346     		mov	r3, r0
 1910 002c 002B     		cmp	r3, #0
 1911 002e 31D0     		beq	.L90
 1912              	.L89:
ARM GAS  C:\Users\tmj32\AppData\Local\Temp\ccI3WYuM.s 			page 65


 1913              	.LBB15:
 485:..\..\..\lvgl\version_6.1.2\lvgl\src\lv_objx/lv_ta.c ****         lv_label_set_text(ext->label, "");
 1914              		.loc 7 485 0 is_stmt 1
 1915 0030 FB6B     		ldr	r3, [r7, #60]
 1916 0032 1B6B     		ldr	r3, [r3, #48]
 1917 0034 5549     		ldr	r1, .L100
 1918 0036 1846     		mov	r0, r3
 1919 0038 FFF7FEFF 		bl	lv_label_set_text
 486:..\..\..\lvgl\version_6.1.2\lvgl\src\lv_objx/lv_ta.c ****         lv_ta_set_cursor_pos(ta, LV_TA_CURSOR_LAST);
 1920              		.loc 7 486 0
 1921 003c 47F6FF71 		movw	r1, #32767
 1922 0040 7868     		ldr	r0, [r7, #4]
 1923 0042 FFF7FEFF 		bl	lv_ta_set_cursor_pos
 487:..\..\..\lvgl\version_6.1.2\lvgl\src\lv_objx/lv_ta.c ****         if(ext->pwd_mode != 0) {
 1924              		.loc 7 487 0
 1925 0046 FB6B     		ldr	r3, [r7, #60]
 1926 0048 93F85C30 		ldrb	r3, [r3, #92]	@ zero_extendqisi2
 1927 004c 03F00103 		and	r3, r3, #1
 1928 0050 DBB2     		uxtb	r3, r3
 1929 0052 002B     		cmp	r3, #0
 1930 0054 03D0     		beq	.L91
 488:..\..\..\lvgl\version_6.1.2\lvgl\src\lv_objx/lv_ta.c ****             ext->pwd_tmp[0] = '\0'; /*Clear the password too*/
 1931              		.loc 7 488 0
 1932 0056 FB6B     		ldr	r3, [r7, #60]
 1933 0058 9B6B     		ldr	r3, [r3, #56]
 1934 005a 0022     		movs	r2, #0
 1935 005c 1A70     		strb	r2, [r3]
 1936              	.L91:
 489:..\..\..\lvgl\version_6.1.2\lvgl\src\lv_objx/lv_ta.c ****         }
 490:..\..\..\lvgl\version_6.1.2\lvgl\src\lv_objx/lv_ta.c ****         uint32_t i = 0;
 1937              		.loc 7 490 0
 1938 005e 0023     		movs	r3, #0
 1939 0060 3B63     		str	r3, [r7, #48]
 491:..\..\..\lvgl\version_6.1.2\lvgl\src\lv_objx/lv_ta.c ****         while(txt[i] != '\0') {
 1940              		.loc 7 491 0
 1941 0062 10E0     		b	.L92
 1942              	.L93:
 1943              	.LBB16:
 492:..\..\..\lvgl\version_6.1.2\lvgl\src\lv_objx/lv_ta.c ****             uint32_t c = lv_txt_encoded_next(txt, &i);
 1944              		.loc 7 492 0
 1945 0064 4A4B     		ldr	r3, .L100+4
 1946 0066 1B68     		ldr	r3, [r3]
 1947 0068 07F13002 		add	r2, r7, #48
 1948 006c 1146     		mov	r1, r2
 1949 006e 3868     		ldr	r0, [r7]
 1950 0070 9847     		blx	r3
 1951 0072 B863     		str	r0, [r7, #56]
 493:..\..\..\lvgl\version_6.1.2\lvgl\src\lv_objx/lv_ta.c ****             lv_ta_add_char(ta, lv_txt_unicode_to_encoded(c));
 1952              		.loc 7 493 0
 1953 0074 474B     		ldr	r3, .L100+8
 1954 0076 1B68     		ldr	r3, [r3]
 1955 0078 B86B     		ldr	r0, [r7, #56]
 1956 007a 9847     		blx	r3
 1957 007c 0346     		mov	r3, r0
 1958 007e 1946     		mov	r1, r3
 1959 0080 7868     		ldr	r0, [r7, #4]
 1960 0082 FFF7FEFF 		bl	lv_ta_add_char
ARM GAS  C:\Users\tmj32\AppData\Local\Temp\ccI3WYuM.s 			page 66


 1961              	.L92:
 1962              	.LBE16:
 491:..\..\..\lvgl\version_6.1.2\lvgl\src\lv_objx/lv_ta.c ****         while(txt[i] != '\0') {
 1963              		.loc 7 491 0
 1964 0086 3B6B     		ldr	r3, [r7, #48]
 1965 0088 3A68     		ldr	r2, [r7]
 1966 008a 1344     		add	r3, r3, r2
 1967 008c 1B78     		ldrb	r3, [r3]	@ zero_extendqisi2
 1968 008e 002B     		cmp	r3, #0
 1969 0090 E8D1     		bne	.L93
 1970              	.LBE15:
 484:..\..\..\lvgl\version_6.1.2\lvgl\src\lv_objx/lv_ta.c ****         lv_label_set_text(ext->label, "");
 1971              		.loc 7 484 0
 1972 0092 0AE0     		b	.L94
 1973              	.L90:
 494:..\..\..\lvgl\version_6.1.2\lvgl\src\lv_objx/lv_ta.c ****         }
 495:..\..\..\lvgl\version_6.1.2\lvgl\src\lv_objx/lv_ta.c ****     } else {
 496:..\..\..\lvgl\version_6.1.2\lvgl\src\lv_objx/lv_ta.c ****         lv_label_set_text(ext->label, txt);
 1974              		.loc 7 496 0
 1975 0094 FB6B     		ldr	r3, [r7, #60]
 1976 0096 1B6B     		ldr	r3, [r3, #48]
 1977 0098 3968     		ldr	r1, [r7]
 1978 009a 1846     		mov	r0, r3
 1979 009c FFF7FEFF 		bl	lv_label_set_text
 497:..\..\..\lvgl\version_6.1.2\lvgl\src\lv_objx/lv_ta.c ****         lv_ta_set_cursor_pos(ta, LV_TA_CURSOR_LAST);
 1980              		.loc 7 497 0
 1981 00a0 47F6FF71 		movw	r1, #32767
 1982 00a4 7868     		ldr	r0, [r7, #4]
 1983 00a6 FFF7FEFF 		bl	lv_ta_set_cursor_pos
 1984              	.L94:
 498:..\..\..\lvgl\version_6.1.2\lvgl\src\lv_objx/lv_ta.c ****     }
 499:..\..\..\lvgl\version_6.1.2\lvgl\src\lv_objx/lv_ta.c **** 
 500:..\..\..\lvgl\version_6.1.2\lvgl\src\lv_objx/lv_ta.c ****     /*Don't let 'width == 0' because the cursor will not be visible*/
 501:..\..\..\lvgl\version_6.1.2\lvgl\src\lv_objx/lv_ta.c ****     if(lv_obj_get_width(ext->label) == 0) {
 1985              		.loc 7 501 0
 1986 00aa FB6B     		ldr	r3, [r7, #60]
 1987 00ac 1B6B     		ldr	r3, [r3, #48]
 1988 00ae 1846     		mov	r0, r3
 1989 00b0 FFF7FEFF 		bl	lv_obj_get_width
 1990 00b4 0346     		mov	r3, r0
 1991 00b6 002B     		cmp	r3, #0
 1992 00b8 14D1     		bne	.L95
 1993              	.LBB17:
 502:..\..\..\lvgl\version_6.1.2\lvgl\src\lv_objx/lv_ta.c ****         const lv_style_t * style = lv_obj_get_style(ext->label);
 1994              		.loc 7 502 0
 1995 00ba FB6B     		ldr	r3, [r7, #60]
 1996 00bc 1B6B     		ldr	r3, [r3, #48]
 1997 00be 1846     		mov	r0, r3
 1998 00c0 FFF7FEFF 		bl	lv_obj_get_style
 1999 00c4 7863     		str	r0, [r7, #52]
 503:..\..\..\lvgl\version_6.1.2\lvgl\src\lv_objx/lv_ta.c ****         lv_obj_set_width(ext->label, lv_font_get_glyph_width(style->text.font, ' ', '\0'));
 2000              		.loc 7 503 0
 2001 00c6 FB6B     		ldr	r3, [r7, #60]
 2002 00c8 1C6B     		ldr	r4, [r3, #48]
 2003 00ca 7B6B     		ldr	r3, [r7, #52]
 2004 00cc 5B6B     		ldr	r3, [r3, #52]
 2005 00ce 0022     		movs	r2, #0
ARM GAS  C:\Users\tmj32\AppData\Local\Temp\ccI3WYuM.s 			page 67


 2006 00d0 2021     		movs	r1, #32
 2007 00d2 1846     		mov	r0, r3
 2008 00d4 FFF7FEFF 		bl	lv_font_get_glyph_width
 2009 00d8 0346     		mov	r3, r0
 2010 00da 1BB2     		sxth	r3, r3
 2011 00dc 1946     		mov	r1, r3
 2012 00de 2046     		mov	r0, r4
 2013 00e0 FFF7FEFF 		bl	lv_obj_set_width
 2014              	.L95:
 2015              	.LBE17:
 504:..\..\..\lvgl\version_6.1.2\lvgl\src\lv_objx/lv_ta.c ****     }
 505:..\..\..\lvgl\version_6.1.2\lvgl\src\lv_objx/lv_ta.c **** 
 506:..\..\..\lvgl\version_6.1.2\lvgl\src\lv_objx/lv_ta.c ****     if(ext->pwd_mode != 0) {
 2016              		.loc 7 506 0
 2017 00e4 FB6B     		ldr	r3, [r7, #60]
 2018 00e6 93F85C30 		ldrb	r3, [r3, #92]	@ zero_extendqisi2
 2019 00ea 03F00103 		and	r3, r3, #1
 2020 00ee DBB2     		uxtb	r3, r3
 2021 00f0 002B     		cmp	r3, #0
 2022 00f2 3ED0     		beq	.L96
 2023              	.LBB18:
 507:..\..\..\lvgl\version_6.1.2\lvgl\src\lv_objx/lv_ta.c ****         ext->pwd_tmp = lv_mem_realloc(ext->pwd_tmp, strlen(txt) + 1);
 2024              		.loc 7 507 0
 2025 00f4 FB6B     		ldr	r3, [r7, #60]
 2026 00f6 9C6B     		ldr	r4, [r3, #56]
 2027 00f8 3868     		ldr	r0, [r7]
 2028 00fa FFF7FEFF 		bl	strlen
 2029 00fe 0346     		mov	r3, r0
 2030 0100 0133     		adds	r3, r3, #1
 2031 0102 1946     		mov	r1, r3
 2032 0104 2046     		mov	r0, r4
 2033 0106 FFF7FEFF 		bl	lv_mem_realloc
 2034 010a 0246     		mov	r2, r0
 2035 010c FB6B     		ldr	r3, [r7, #60]
 2036 010e 9A63     		str	r2, [r3, #56]
 508:..\..\..\lvgl\version_6.1.2\lvgl\src\lv_objx/lv_ta.c ****         LV_ASSERT_MEM(ext->pwd_tmp);
 509:..\..\..\lvgl\version_6.1.2\lvgl\src\lv_objx/lv_ta.c ****         if(ext->pwd_tmp == NULL) return;
 2037              		.loc 7 509 0
 2038 0110 FB6B     		ldr	r3, [r7, #60]
 2039 0112 9B6B     		ldr	r3, [r3, #56]
 2040 0114 002B     		cmp	r3, #0
 2041 0116 35D0     		beq	.L99
 510:..\..\..\lvgl\version_6.1.2\lvgl\src\lv_objx/lv_ta.c ****         strcpy(ext->pwd_tmp, txt);
 2042              		.loc 7 510 0
 2043 0118 FB6B     		ldr	r3, [r7, #60]
 2044 011a 9B6B     		ldr	r3, [r3, #56]
 2045 011c 3968     		ldr	r1, [r7]
 2046 011e 1846     		mov	r0, r3
 2047 0120 FFF7FEFF 		bl	strcpy
 511:..\..\..\lvgl\version_6.1.2\lvgl\src\lv_objx/lv_ta.c **** 
 512:..\..\..\lvgl\version_6.1.2\lvgl\src\lv_objx/lv_ta.c **** #if LV_USE_ANIMATION
 513:..\..\..\lvgl\version_6.1.2\lvgl\src\lv_objx/lv_ta.c ****         /*Auto hide characters*/
 514:..\..\..\lvgl\version_6.1.2\lvgl\src\lv_objx/lv_ta.c ****         lv_anim_t a;
 515:..\..\..\lvgl\version_6.1.2\lvgl\src\lv_objx/lv_ta.c ****         a.var            = ta;
 2048              		.loc 7 515 0
 2049 0124 7B68     		ldr	r3, [r7, #4]
 2050 0126 FB60     		str	r3, [r7, #12]
ARM GAS  C:\Users\tmj32\AppData\Local\Temp\ccI3WYuM.s 			page 68


 516:..\..\..\lvgl\version_6.1.2\lvgl\src\lv_objx/lv_ta.c ****         a.exec_cb        = (lv_anim_exec_xcb_t)pwd_char_hider_anim;
 2051              		.loc 7 516 0
 2052 0128 1B4B     		ldr	r3, .L100+12
 2053 012a 3B61     		str	r3, [r7, #16]
 517:..\..\..\lvgl\version_6.1.2\lvgl\src\lv_objx/lv_ta.c ****         a.time           = ext->pwd_show_time;
 2054              		.loc 7 517 0
 2055 012c FB6B     		ldr	r3, [r7, #60]
 2056 012e B3F84230 		ldrh	r3, [r3, #66]
 2057 0132 BB84     		strh	r3, [r7, #36]	@ movhi
 518:..\..\..\lvgl\version_6.1.2\lvgl\src\lv_objx/lv_ta.c ****         a.act_time       = 0;
 2058              		.loc 7 518 0
 2059 0134 0023     		movs	r3, #0
 2060 0136 FB84     		strh	r3, [r7, #38]	@ movhi
 519:..\..\..\lvgl\version_6.1.2\lvgl\src\lv_objx/lv_ta.c ****         a.ready_cb       = pwd_char_hider_anim_ready;
 2061              		.loc 7 519 0
 2062 0138 184B     		ldr	r3, .L100+16
 2063 013a BB61     		str	r3, [r7, #24]
 520:..\..\..\lvgl\version_6.1.2\lvgl\src\lv_objx/lv_ta.c ****         a.start          = 0;
 2064              		.loc 7 520 0
 2065 013c 0023     		movs	r3, #0
 2066 013e FB61     		str	r3, [r7, #28]
 521:..\..\..\lvgl\version_6.1.2\lvgl\src\lv_objx/lv_ta.c ****         a.end            = 1;
 2067              		.loc 7 521 0
 2068 0140 0123     		movs	r3, #1
 2069 0142 3B62     		str	r3, [r7, #32]
 522:..\..\..\lvgl\version_6.1.2\lvgl\src\lv_objx/lv_ta.c ****         a.repeat         = 0;
 2070              		.loc 7 522 0
 2071 0144 97F82C30 		ldrb	r3, [r7, #44]
 2072 0148 6FF34103 		bfc	r3, #1, #1
 2073 014c 87F82C30 		strb	r3, [r7, #44]
 523:..\..\..\lvgl\version_6.1.2\lvgl\src\lv_objx/lv_ta.c ****         a.repeat_pause   = 0;
 2074              		.loc 7 523 0
 2075 0150 0023     		movs	r3, #0
 2076 0152 7B85     		strh	r3, [r7, #42]	@ movhi
 524:..\..\..\lvgl\version_6.1.2\lvgl\src\lv_objx/lv_ta.c ****         a.playback       = 0;
 2077              		.loc 7 524 0
 2078 0154 97F82C30 		ldrb	r3, [r7, #44]
 2079 0158 6FF30003 		bfc	r3, #0, #1
 2080 015c 87F82C30 		strb	r3, [r7, #44]
 525:..\..\..\lvgl\version_6.1.2\lvgl\src\lv_objx/lv_ta.c ****         a.playback_pause = 0;
 2081              		.loc 7 525 0
 2082 0160 0023     		movs	r3, #0
 2083 0162 3B85     		strh	r3, [r7, #40]	@ movhi
 526:..\..\..\lvgl\version_6.1.2\lvgl\src\lv_objx/lv_ta.c ****         a.path_cb        = lv_anim_path_step;
 2084              		.loc 7 526 0
 2085 0164 0E4B     		ldr	r3, .L100+20
 2086 0166 7B61     		str	r3, [r7, #20]
 527:..\..\..\lvgl\version_6.1.2\lvgl\src\lv_objx/lv_ta.c ****         lv_anim_create(&a);
 2087              		.loc 7 527 0
 2088 0168 07F10C03 		add	r3, r7, #12
 2089 016c 1846     		mov	r0, r3
 2090 016e FFF7FEFF 		bl	lv_anim_create
 2091              	.L96:
 2092              	.LBE18:
 528:..\..\..\lvgl\version_6.1.2\lvgl\src\lv_objx/lv_ta.c **** #else
 529:..\..\..\lvgl\version_6.1.2\lvgl\src\lv_objx/lv_ta.c ****         pwd_char_hider(ta);
 530:..\..\..\lvgl\version_6.1.2\lvgl\src\lv_objx/lv_ta.c **** #endif
ARM GAS  C:\Users\tmj32\AppData\Local\Temp\ccI3WYuM.s 			page 69


 531:..\..\..\lvgl\version_6.1.2\lvgl\src\lv_objx/lv_ta.c ****     }
 532:..\..\..\lvgl\version_6.1.2\lvgl\src\lv_objx/lv_ta.c **** 
 533:..\..\..\lvgl\version_6.1.2\lvgl\src\lv_objx/lv_ta.c ****     placeholder_update(ta);
 2093              		.loc 7 533 0
 2094 0172 7868     		ldr	r0, [r7, #4]
 2095 0174 FFF7FEFF 		bl	placeholder_update
 534:..\..\..\lvgl\version_6.1.2\lvgl\src\lv_objx/lv_ta.c **** 
 535:..\..\..\lvgl\version_6.1.2\lvgl\src\lv_objx/lv_ta.c ****     lv_event_send(ta, LV_EVENT_VALUE_CHANGED, NULL);
 2096              		.loc 7 535 0
 2097 0178 0022     		movs	r2, #0
 2098 017a 0E21     		movs	r1, #14
 2099 017c 7868     		ldr	r0, [r7, #4]
 2100 017e FFF7FEFF 		bl	lv_event_send
 2101 0182 00E0     		b	.L88
 2102              	.L99:
 2103              	.LBB19:
 509:..\..\..\lvgl\version_6.1.2\lvgl\src\lv_objx/lv_ta.c ****         strcpy(ext->pwd_tmp, txt);
 2104              		.loc 7 509 0
 2105 0184 00BF     		nop
 2106              	.L88:
 2107              	.LBE19:
 536:..\..\..\lvgl\version_6.1.2\lvgl\src\lv_objx/lv_ta.c **** }
 2108              		.loc 7 536 0
 2109 0186 4437     		adds	r7, r7, #68
 2110              		.cfi_def_cfa_offset 12
 2111 0188 BD46     		mov	sp, r7
 2112              		.cfi_def_cfa_register 13
 2113              		@ sp needed
 2114 018a 90BD     		pop	{r4, r7, pc}
 2115              	.L101:
 2116              		.align	2
 2117              	.L100:
 2118 018c 0C000000 		.word	.LC1
 2119 0190 00000000 		.word	lv_txt_encoded_next
 2120 0194 00000000 		.word	lv_txt_unicode_to_encoded
 2121 0198 00000000 		.word	pwd_char_hider_anim
 2122 019c 00000000 		.word	pwd_char_hider_anim_ready
 2123 01a0 00000000 		.word	lv_anim_path_step
 2124              		.cfi_endproc
 2125              	.LFE61:
 2126              		.size	lv_ta_set_text, .-lv_ta_set_text
 2127              		.section	.text.lv_ta_set_placeholder_text,"ax",%progbits
 2128              		.align	2
 2129              		.global	lv_ta_set_placeholder_text
 2130              		.thumb
 2131              		.thumb_func
 2132              		.type	lv_ta_set_placeholder_text, %function
 2133              	lv_ta_set_placeholder_text:
 2134              	.LFB62:
 537:..\..\..\lvgl\version_6.1.2\lvgl\src\lv_objx/lv_ta.c **** 
 538:..\..\..\lvgl\version_6.1.2\lvgl\src\lv_objx/lv_ta.c **** /**
 539:..\..\..\lvgl\version_6.1.2\lvgl\src\lv_objx/lv_ta.c ****  * Set the placeholder text of a text area
 540:..\..\..\lvgl\version_6.1.2\lvgl\src\lv_objx/lv_ta.c ****  * @param ta pointer to a text area
 541:..\..\..\lvgl\version_6.1.2\lvgl\src\lv_objx/lv_ta.c ****  * @param txt pointer to the text
 542:..\..\..\lvgl\version_6.1.2\lvgl\src\lv_objx/lv_ta.c ****  */
 543:..\..\..\lvgl\version_6.1.2\lvgl\src\lv_objx/lv_ta.c **** void lv_ta_set_placeholder_text(lv_obj_t * ta, const char * txt)
 544:..\..\..\lvgl\version_6.1.2\lvgl\src\lv_objx/lv_ta.c **** {
ARM GAS  C:\Users\tmj32\AppData\Local\Temp\ccI3WYuM.s 			page 70


 2135              		.loc 7 544 0
 2136              		.cfi_startproc
 2137              		@ args = 0, pretend = 0, frame = 16
 2138              		@ frame_needed = 1, uses_anonymous_args = 0
 2139 0000 80B5     		push	{r7, lr}
 2140              		.cfi_def_cfa_offset 8
 2141              		.cfi_offset 7, -8
 2142              		.cfi_offset 14, -4
 2143 0002 84B0     		sub	sp, sp, #16
 2144              		.cfi_def_cfa_offset 24
 2145 0004 00AF     		add	r7, sp, #0
 2146              		.cfi_def_cfa_register 7
 2147 0006 7860     		str	r0, [r7, #4]
 2148 0008 3960     		str	r1, [r7]
 545:..\..\..\lvgl\version_6.1.2\lvgl\src\lv_objx/lv_ta.c ****     LV_ASSERT_OBJ(ta, LV_OBJX_NAME);
 546:..\..\..\lvgl\version_6.1.2\lvgl\src\lv_objx/lv_ta.c ****     LV_ASSERT_NULL(txt);
 547:..\..\..\lvgl\version_6.1.2\lvgl\src\lv_objx/lv_ta.c **** 
 548:..\..\..\lvgl\version_6.1.2\lvgl\src\lv_objx/lv_ta.c ****     lv_ta_ext_t * ext = lv_obj_get_ext_attr(ta);
 2149              		.loc 7 548 0
 2150 000a 7868     		ldr	r0, [r7, #4]
 2151 000c FFF7FEFF 		bl	lv_obj_get_ext_attr
 2152 0010 F860     		str	r0, [r7, #12]
 549:..\..\..\lvgl\version_6.1.2\lvgl\src\lv_objx/lv_ta.c **** 
 550:..\..\..\lvgl\version_6.1.2\lvgl\src\lv_objx/lv_ta.c ****     /*Create the placeholder label only when it is needed*/
 551:..\..\..\lvgl\version_6.1.2\lvgl\src\lv_objx/lv_ta.c ****     if(ext->placeholder == NULL) {
 2153              		.loc 7 551 0
 2154 0012 FB68     		ldr	r3, [r7, #12]
 2155 0014 5B6B     		ldr	r3, [r3, #52]
 2156 0016 002B     		cmp	r3, #0
 2157 0018 1BD1     		bne	.L103
 552:..\..\..\lvgl\version_6.1.2\lvgl\src\lv_objx/lv_ta.c ****         ext->placeholder = lv_label_create(ta, NULL);
 2158              		.loc 7 552 0
 2159 001a 0021     		movs	r1, #0
 2160 001c 7868     		ldr	r0, [r7, #4]
 2161 001e FFF7FEFF 		bl	lv_label_create
 2162 0022 0246     		mov	r2, r0
 2163 0024 FB68     		ldr	r3, [r7, #12]
 2164 0026 5A63     		str	r2, [r3, #52]
 553:..\..\..\lvgl\version_6.1.2\lvgl\src\lv_objx/lv_ta.c **** 
 554:..\..\..\lvgl\version_6.1.2\lvgl\src\lv_objx/lv_ta.c ****         if(ext->one_line) {
 2165              		.loc 7 554 0
 2166 0028 FB68     		ldr	r3, [r7, #12]
 2167 002a 93F85C30 		ldrb	r3, [r3, #92]	@ zero_extendqisi2
 2168 002e 03F00203 		and	r3, r3, #2
 2169 0032 DBB2     		uxtb	r3, r3
 2170 0034 002B     		cmp	r3, #0
 2171 0036 06D0     		beq	.L104
 555:..\..\..\lvgl\version_6.1.2\lvgl\src\lv_objx/lv_ta.c ****             lv_label_set_long_mode(ext->placeholder, LV_LABEL_LONG_EXPAND);
 2172              		.loc 7 555 0
 2173 0038 FB68     		ldr	r3, [r7, #12]
 2174 003a 5B6B     		ldr	r3, [r3, #52]
 2175 003c 0021     		movs	r1, #0
 2176 003e 1846     		mov	r0, r3
 2177 0040 FFF7FEFF 		bl	lv_label_set_long_mode
 2178 0044 05E0     		b	.L103
 2179              	.L104:
 556:..\..\..\lvgl\version_6.1.2\lvgl\src\lv_objx/lv_ta.c ****         } else {
ARM GAS  C:\Users\tmj32\AppData\Local\Temp\ccI3WYuM.s 			page 71


 557:..\..\..\lvgl\version_6.1.2\lvgl\src\lv_objx/lv_ta.c ****             lv_label_set_long_mode(ext->placeholder, LV_LABEL_LONG_BREAK);
 2180              		.loc 7 557 0
 2181 0046 FB68     		ldr	r3, [r7, #12]
 2182 0048 5B6B     		ldr	r3, [r3, #52]
 2183 004a 0121     		movs	r1, #1
 2184 004c 1846     		mov	r0, r3
 2185 004e FFF7FEFF 		bl	lv_label_set_long_mode
 2186              	.L103:
 558:..\..\..\lvgl\version_6.1.2\lvgl\src\lv_objx/lv_ta.c ****         }
 559:..\..\..\lvgl\version_6.1.2\lvgl\src\lv_objx/lv_ta.c ****     }
 560:..\..\..\lvgl\version_6.1.2\lvgl\src\lv_objx/lv_ta.c **** 
 561:..\..\..\lvgl\version_6.1.2\lvgl\src\lv_objx/lv_ta.c ****     lv_label_set_text(ext->placeholder, txt);
 2187              		.loc 7 561 0
 2188 0052 FB68     		ldr	r3, [r7, #12]
 2189 0054 5B6B     		ldr	r3, [r3, #52]
 2190 0056 3968     		ldr	r1, [r7]
 2191 0058 1846     		mov	r0, r3
 2192 005a FFF7FEFF 		bl	lv_label_set_text
 562:..\..\..\lvgl\version_6.1.2\lvgl\src\lv_objx/lv_ta.c **** 
 563:..\..\..\lvgl\version_6.1.2\lvgl\src\lv_objx/lv_ta.c ****     /*Refresh the placeholder's align*/
 564:..\..\..\lvgl\version_6.1.2\lvgl\src\lv_objx/lv_ta.c ****     lv_ta_set_text_align(ta, lv_label_get_align(ext->label));
 2193              		.loc 7 564 0
 2194 005e FB68     		ldr	r3, [r7, #12]
 2195 0060 1B6B     		ldr	r3, [r3, #48]
 2196 0062 1846     		mov	r0, r3
 2197 0064 FFF7FEFF 		bl	lv_label_get_align
 2198 0068 0346     		mov	r3, r0
 2199 006a 1946     		mov	r1, r3
 2200 006c 7868     		ldr	r0, [r7, #4]
 2201 006e FFF7FEFF 		bl	lv_ta_set_text_align
 565:..\..\..\lvgl\version_6.1.2\lvgl\src\lv_objx/lv_ta.c **** 
 566:..\..\..\lvgl\version_6.1.2\lvgl\src\lv_objx/lv_ta.c ****     placeholder_update(ta);
 2202              		.loc 7 566 0
 2203 0072 7868     		ldr	r0, [r7, #4]
 2204 0074 FFF7FEFF 		bl	placeholder_update
 567:..\..\..\lvgl\version_6.1.2\lvgl\src\lv_objx/lv_ta.c **** }
 2205              		.loc 7 567 0
 2206 0078 00BF     		nop
 2207 007a 1037     		adds	r7, r7, #16
 2208              		.cfi_def_cfa_offset 8
 2209 007c BD46     		mov	sp, r7
 2210              		.cfi_def_cfa_register 13
 2211              		@ sp needed
 2212 007e 80BD     		pop	{r7, pc}
 2213              		.cfi_endproc
 2214              	.LFE62:
 2215              		.size	lv_ta_set_placeholder_text, .-lv_ta_set_placeholder_text
 2216              		.section	.text.lv_ta_set_cursor_pos,"ax",%progbits
 2217              		.align	2
 2218              		.global	lv_ta_set_cursor_pos
 2219              		.thumb
 2220              		.thumb_func
 2221              		.type	lv_ta_set_cursor_pos, %function
 2222              	lv_ta_set_cursor_pos:
 2223              	.LFB63:
 568:..\..\..\lvgl\version_6.1.2\lvgl\src\lv_objx/lv_ta.c **** 
 569:..\..\..\lvgl\version_6.1.2\lvgl\src\lv_objx/lv_ta.c **** /**
ARM GAS  C:\Users\tmj32\AppData\Local\Temp\ccI3WYuM.s 			page 72


 570:..\..\..\lvgl\version_6.1.2\lvgl\src\lv_objx/lv_ta.c ****  * Set the cursor position
 571:..\..\..\lvgl\version_6.1.2\lvgl\src\lv_objx/lv_ta.c ****  * @param obj pointer to a text area object
 572:..\..\..\lvgl\version_6.1.2\lvgl\src\lv_objx/lv_ta.c ****  * @param pos the new cursor position in character index
 573:..\..\..\lvgl\version_6.1.2\lvgl\src\lv_objx/lv_ta.c ****  *             < 0 : index from the end of the text
 574:..\..\..\lvgl\version_6.1.2\lvgl\src\lv_objx/lv_ta.c ****  *             LV_TA_CURSOR_LAST: go after the last character
 575:..\..\..\lvgl\version_6.1.2\lvgl\src\lv_objx/lv_ta.c ****  */
 576:..\..\..\lvgl\version_6.1.2\lvgl\src\lv_objx/lv_ta.c **** void lv_ta_set_cursor_pos(lv_obj_t * ta, int16_t pos)
 577:..\..\..\lvgl\version_6.1.2\lvgl\src\lv_objx/lv_ta.c **** {
 2224              		.loc 7 577 0
 2225              		.cfi_startproc
 2226              		@ args = 0, pretend = 0, frame = 88
 2227              		@ frame_needed = 1, uses_anonymous_args = 0
 2228 0000 90B5     		push	{r4, r7, lr}
 2229              		.cfi_def_cfa_offset 12
 2230              		.cfi_offset 4, -12
 2231              		.cfi_offset 7, -8
 2232              		.cfi_offset 14, -4
 2233 0002 97B0     		sub	sp, sp, #92
 2234              		.cfi_def_cfa_offset 104
 2235 0004 00AF     		add	r7, sp, #0
 2236              		.cfi_def_cfa_register 7
 2237 0006 7860     		str	r0, [r7, #4]
 2238 0008 0B46     		mov	r3, r1
 2239 000a 7B80     		strh	r3, [r7, #2]	@ movhi
 578:..\..\..\lvgl\version_6.1.2\lvgl\src\lv_objx/lv_ta.c ****     LV_ASSERT_OBJ(ta, LV_OBJX_NAME);
 579:..\..\..\lvgl\version_6.1.2\lvgl\src\lv_objx/lv_ta.c **** 
 580:..\..\..\lvgl\version_6.1.2\lvgl\src\lv_objx/lv_ta.c ****     lv_ta_ext_t * ext = lv_obj_get_ext_attr(ta);
 2240              		.loc 7 580 0
 2241 000c 7868     		ldr	r0, [r7, #4]
 2242 000e FFF7FEFF 		bl	lv_obj_get_ext_attr
 2243 0012 7865     		str	r0, [r7, #84]
 581:..\..\..\lvgl\version_6.1.2\lvgl\src\lv_objx/lv_ta.c ****     if(ext->cursor.pos == pos) return;
 2244              		.loc 7 581 0
 2245 0014 7B6D     		ldr	r3, [r7, #84]
 2246 0016 B3F84A30 		ldrh	r3, [r3, #74]
 2247 001a 1A46     		mov	r2, r3
 2248 001c B7F90230 		ldrsh	r3, [r7, #2]
 2249 0020 9A42     		cmp	r2, r3
 2250 0022 00F01881 		beq	.L116
 582:..\..\..\lvgl\version_6.1.2\lvgl\src\lv_objx/lv_ta.c **** 
 583:..\..\..\lvgl\version_6.1.2\lvgl\src\lv_objx/lv_ta.c ****     uint16_t len = lv_txt_get_encoded_length(lv_label_get_text(ext->label));
 2251              		.loc 7 583 0
 2252 0026 8E4B     		ldr	r3, .L117
 2253 0028 1C68     		ldr	r4, [r3]
 2254 002a 7B6D     		ldr	r3, [r7, #84]
 2255 002c 1B6B     		ldr	r3, [r3, #48]
 2256 002e 1846     		mov	r0, r3
 2257 0030 FFF7FEFF 		bl	lv_label_get_text
 2258 0034 0346     		mov	r3, r0
 2259 0036 1846     		mov	r0, r3
 2260 0038 A047     		blx	r4
 2261 003a 0346     		mov	r3, r0
 2262 003c A7F85230 		strh	r3, [r7, #82]	@ movhi
 584:..\..\..\lvgl\version_6.1.2\lvgl\src\lv_objx/lv_ta.c **** 
 585:..\..\..\lvgl\version_6.1.2\lvgl\src\lv_objx/lv_ta.c ****     if(pos < 0) pos = len + pos;
 2263              		.loc 7 585 0
 2264 0040 B7F90230 		ldrsh	r3, [r7, #2]
ARM GAS  C:\Users\tmj32\AppData\Local\Temp\ccI3WYuM.s 			page 73


 2265 0044 002B     		cmp	r3, #0
 2266 0046 05DA     		bge	.L108
 2267              		.loc 7 585 0 is_stmt 0 discriminator 1
 2268 0048 7A88     		ldrh	r2, [r7, #2]
 2269 004a B7F85230 		ldrh	r3, [r7, #82]	@ movhi
 2270 004e 1344     		add	r3, r3, r2
 2271 0050 9BB2     		uxth	r3, r3
 2272 0052 7B80     		strh	r3, [r7, #2]	@ movhi
 2273              	.L108:
 586:..\..\..\lvgl\version_6.1.2\lvgl\src\lv_objx/lv_ta.c **** 
 587:..\..\..\lvgl\version_6.1.2\lvgl\src\lv_objx/lv_ta.c ****     if(pos > len || pos == LV_TA_CURSOR_LAST) pos = len;
 2274              		.loc 7 587 0 is_stmt 1
 2275 0054 B7F90220 		ldrsh	r2, [r7, #2]
 2276 0058 B7F85230 		ldrh	r3, [r7, #82]
 2277 005c 9A42     		cmp	r2, r3
 2278 005e 05DC     		bgt	.L109
 2279              		.loc 7 587 0 is_stmt 0 discriminator 2
 2280 0060 B7F90230 		ldrsh	r3, [r7, #2]
 2281 0064 47F6FF72 		movw	r2, #32767
 2282 0068 9342     		cmp	r3, r2
 2283 006a 02D1     		bne	.L110
 2284              	.L109:
 2285              		.loc 7 587 0 discriminator 3
 2286 006c B7F85230 		ldrh	r3, [r7, #82]	@ movhi
 2287 0070 7B80     		strh	r3, [r7, #2]	@ movhi
 2288              	.L110:
 588:..\..\..\lvgl\version_6.1.2\lvgl\src\lv_objx/lv_ta.c **** 
 589:..\..\..\lvgl\version_6.1.2\lvgl\src\lv_objx/lv_ta.c ****     ext->cursor.pos = pos;
 2289              		.loc 7 589 0 is_stmt 1
 2290 0072 7A88     		ldrh	r2, [r7, #2]
 2291 0074 7B6D     		ldr	r3, [r7, #84]
 2292 0076 A3F84A20 		strh	r2, [r3, #74]	@ movhi
 590:..\..\..\lvgl\version_6.1.2\lvgl\src\lv_objx/lv_ta.c **** 
 591:..\..\..\lvgl\version_6.1.2\lvgl\src\lv_objx/lv_ta.c ****     /*Position the label to make the cursor visible*/
 592:..\..\..\lvgl\version_6.1.2\lvgl\src\lv_objx/lv_ta.c ****     lv_obj_t * label_par = lv_obj_get_parent(ext->label);
 2293              		.loc 7 592 0
 2294 007a 7B6D     		ldr	r3, [r7, #84]
 2295 007c 1B6B     		ldr	r3, [r3, #48]
 2296 007e 1846     		mov	r0, r3
 2297 0080 FFF7FEFF 		bl	lv_obj_get_parent
 2298 0084 F864     		str	r0, [r7, #76]
 593:..\..\..\lvgl\version_6.1.2\lvgl\src\lv_objx/lv_ta.c ****     lv_point_t cur_pos;
 594:..\..\..\lvgl\version_6.1.2\lvgl\src\lv_objx/lv_ta.c ****     const lv_style_t * style = lv_obj_get_style(ta);
 2299              		.loc 7 594 0
 2300 0086 7868     		ldr	r0, [r7, #4]
 2301 0088 FFF7FEFF 		bl	lv_obj_get_style
 2302 008c B864     		str	r0, [r7, #72]
 595:..\..\..\lvgl\version_6.1.2\lvgl\src\lv_objx/lv_ta.c ****     const lv_font_t * font_p = style->text.font;
 2303              		.loc 7 595 0
 2304 008e BB6C     		ldr	r3, [r7, #72]
 2305 0090 5B6B     		ldr	r3, [r3, #52]
 2306 0092 7B64     		str	r3, [r7, #68]
 596:..\..\..\lvgl\version_6.1.2\lvgl\src\lv_objx/lv_ta.c ****     lv_area_t label_cords;
 597:..\..\..\lvgl\version_6.1.2\lvgl\src\lv_objx/lv_ta.c ****     lv_area_t ta_cords;
 598:..\..\..\lvgl\version_6.1.2\lvgl\src\lv_objx/lv_ta.c ****     lv_label_get_letter_pos(ext->label, pos, &cur_pos);
 2307              		.loc 7 598 0
 2308 0094 7B6D     		ldr	r3, [r7, #84]
ARM GAS  C:\Users\tmj32\AppData\Local\Temp\ccI3WYuM.s 			page 74


 2309 0096 1B6B     		ldr	r3, [r3, #48]
 2310 0098 7988     		ldrh	r1, [r7, #2]
 2311 009a 07F13C02 		add	r2, r7, #60
 2312 009e 1846     		mov	r0, r3
 2313 00a0 FFF7FEFF 		bl	lv_label_get_letter_pos
 599:..\..\..\lvgl\version_6.1.2\lvgl\src\lv_objx/lv_ta.c ****     lv_obj_get_coords(ta, &ta_cords);
 2314              		.loc 7 599 0
 2315 00a4 07F12C03 		add	r3, r7, #44
 2316 00a8 1946     		mov	r1, r3
 2317 00aa 7868     		ldr	r0, [r7, #4]
 2318 00ac FFF7FEFF 		bl	lv_obj_get_coords
 600:..\..\..\lvgl\version_6.1.2\lvgl\src\lv_objx/lv_ta.c ****     lv_obj_get_coords(ext->label, &label_cords);
 2319              		.loc 7 600 0
 2320 00b0 7B6D     		ldr	r3, [r7, #84]
 2321 00b2 1B6B     		ldr	r3, [r3, #48]
 2322 00b4 07F13402 		add	r2, r7, #52
 2323 00b8 1146     		mov	r1, r2
 2324 00ba 1846     		mov	r0, r3
 2325 00bc FFF7FEFF 		bl	lv_obj_get_coords
 601:..\..\..\lvgl\version_6.1.2\lvgl\src\lv_objx/lv_ta.c **** 
 602:..\..\..\lvgl\version_6.1.2\lvgl\src\lv_objx/lv_ta.c ****     /*Check the top*/
 603:..\..\..\lvgl\version_6.1.2\lvgl\src\lv_objx/lv_ta.c ****     lv_coord_t font_h = lv_font_get_line_height(font_p);
 2326              		.loc 7 603 0
 2327 00c0 786C     		ldr	r0, [r7, #68]
 2328 00c2 FFF7FEFF 		bl	lv_font_get_line_height
 2329 00c6 0346     		mov	r3, r0
 2330 00c8 A7F84230 		strh	r3, [r7, #66]	@ movhi
 604:..\..\..\lvgl\version_6.1.2\lvgl\src\lv_objx/lv_ta.c ****     if(lv_obj_get_y(label_par) + cur_pos.y < 0) {
 2331              		.loc 7 604 0
 2332 00cc F86C     		ldr	r0, [r7, #76]
 2333 00ce FFF7FEFF 		bl	lv_obj_get_y
 2334 00d2 0346     		mov	r3, r0
 2335 00d4 1A46     		mov	r2, r3
 2336 00d6 B7F93E30 		ldrsh	r3, [r7, #62]
 2337 00da 1344     		add	r3, r3, r2
 2338 00dc 002B     		cmp	r3, #0
 2339 00de 0DDA     		bge	.L111
 605:..\..\..\lvgl\version_6.1.2\lvgl\src\lv_objx/lv_ta.c ****         lv_obj_set_y(label_par, -cur_pos.y + style->body.padding.top);
 2340              		.loc 7 605 0
 2341 00e0 BB6C     		ldr	r3, [r7, #72]
 2342 00e2 B3F92030 		ldrsh	r3, [r3, #32]
 2343 00e6 9AB2     		uxth	r2, r3
 2344 00e8 B7F93E30 		ldrsh	r3, [r7, #62]
 2345 00ec 9BB2     		uxth	r3, r3
 2346 00ee D31A     		subs	r3, r2, r3
 2347 00f0 9BB2     		uxth	r3, r3
 2348 00f2 1BB2     		sxth	r3, r3
 2349 00f4 1946     		mov	r1, r3
 2350 00f6 F86C     		ldr	r0, [r7, #76]
 2351 00f8 FFF7FEFF 		bl	lv_obj_set_y
 2352              	.L111:
 606:..\..\..\lvgl\version_6.1.2\lvgl\src\lv_objx/lv_ta.c ****     }
 607:..\..\..\lvgl\version_6.1.2\lvgl\src\lv_objx/lv_ta.c **** 
 608:..\..\..\lvgl\version_6.1.2\lvgl\src\lv_objx/lv_ta.c ****     /*Check the bottom*/
 609:..\..\..\lvgl\version_6.1.2\lvgl\src\lv_objx/lv_ta.c ****     if(label_cords.y1 + cur_pos.y + font_h + style->body.padding.bottom > ta_cords.y2) {
 2353              		.loc 7 609 0
 2354 00fc B7F93630 		ldrsh	r3, [r7, #54]
ARM GAS  C:\Users\tmj32\AppData\Local\Temp\ccI3WYuM.s 			page 75


 2355 0100 1A46     		mov	r2, r3
 2356 0102 B7F93E30 		ldrsh	r3, [r7, #62]
 2357 0106 1A44     		add	r2, r2, r3
 2358 0108 B7F94230 		ldrsh	r3, [r7, #66]
 2359 010c 1344     		add	r3, r3, r2
 2360 010e BA6C     		ldr	r2, [r7, #72]
 2361 0110 B2F92220 		ldrsh	r2, [r2, #34]
 2362 0114 1344     		add	r3, r3, r2
 2363 0116 B7F93220 		ldrsh	r2, [r7, #50]
 2364 011a 9342     		cmp	r3, r2
 2365 011c 1EDD     		ble	.L112
 610:..\..\..\lvgl\version_6.1.2\lvgl\src\lv_objx/lv_ta.c ****         lv_obj_set_y(label_par, -(cur_pos.y - lv_obj_get_height(ta) + font_h + style->body.padding.
 2366              		.loc 7 610 0
 2367 011e 7868     		ldr	r0, [r7, #4]
 2368 0120 FFF7FEFF 		bl	lv_obj_get_height
 2369 0124 0346     		mov	r3, r0
 2370 0126 9AB2     		uxth	r2, r3
 2371 0128 B7F93E30 		ldrsh	r3, [r7, #62]
 2372 012c 9BB2     		uxth	r3, r3
 2373 012e D31A     		subs	r3, r2, r3
 2374 0130 9AB2     		uxth	r2, r3
 2375 0132 B7F84230 		ldrh	r3, [r7, #66]
 2376 0136 D31A     		subs	r3, r2, r3
 2377 0138 9AB2     		uxth	r2, r3
 2378 013a BB6C     		ldr	r3, [r7, #72]
 2379 013c B3F92030 		ldrsh	r3, [r3, #32]
 2380 0140 9BB2     		uxth	r3, r3
 2381 0142 D31A     		subs	r3, r2, r3
 2382 0144 9AB2     		uxth	r2, r3
 611:..\..\..\lvgl\version_6.1.2\lvgl\src\lv_objx/lv_ta.c ****                                   style->body.padding.bottom));
 2383              		.loc 7 611 0
 2384 0146 BB6C     		ldr	r3, [r7, #72]
 2385 0148 B3F92230 		ldrsh	r3, [r3, #34]
 610:..\..\..\lvgl\version_6.1.2\lvgl\src\lv_objx/lv_ta.c ****         lv_obj_set_y(label_par, -(cur_pos.y - lv_obj_get_height(ta) + font_h + style->body.padding.
 2386              		.loc 7 610 0
 2387 014c 9BB2     		uxth	r3, r3
 2388 014e D31A     		subs	r3, r2, r3
 2389 0150 9BB2     		uxth	r3, r3
 2390 0152 1BB2     		sxth	r3, r3
 2391 0154 1946     		mov	r1, r3
 2392 0156 F86C     		ldr	r0, [r7, #76]
 2393 0158 FFF7FEFF 		bl	lv_obj_set_y
 2394              	.L112:
 612:..\..\..\lvgl\version_6.1.2\lvgl\src\lv_objx/lv_ta.c ****     }
 613:..\..\..\lvgl\version_6.1.2\lvgl\src\lv_objx/lv_ta.c ****     /*Check the left (use the font_h as general unit)*/
 614:..\..\..\lvgl\version_6.1.2\lvgl\src\lv_objx/lv_ta.c ****     if(lv_obj_get_x(label_par) + cur_pos.x < font_h) {
 2395              		.loc 7 614 0
 2396 015c F86C     		ldr	r0, [r7, #76]
 2397 015e FFF7FEFF 		bl	lv_obj_get_x
 2398 0162 0346     		mov	r3, r0
 2399 0164 1A46     		mov	r2, r3
 2400 0166 B7F93C30 		ldrsh	r3, [r7, #60]
 2401 016a 1A44     		add	r2, r2, r3
 2402 016c B7F94230 		ldrsh	r3, [r7, #66]
 2403 0170 9A42     		cmp	r2, r3
 2404 0172 0BDA     		bge	.L113
 615:..\..\..\lvgl\version_6.1.2\lvgl\src\lv_objx/lv_ta.c ****         lv_obj_set_x(label_par, -cur_pos.x + font_h);
ARM GAS  C:\Users\tmj32\AppData\Local\Temp\ccI3WYuM.s 			page 76


 2405              		.loc 7 615 0
 2406 0174 B7F84220 		ldrh	r2, [r7, #66]
 2407 0178 B7F93C30 		ldrsh	r3, [r7, #60]
 2408 017c 9BB2     		uxth	r3, r3
 2409 017e D31A     		subs	r3, r2, r3
 2410 0180 9BB2     		uxth	r3, r3
 2411 0182 1BB2     		sxth	r3, r3
 2412 0184 1946     		mov	r1, r3
 2413 0186 F86C     		ldr	r0, [r7, #76]
 2414 0188 FFF7FEFF 		bl	lv_obj_set_x
 2415              	.L113:
 616:..\..\..\lvgl\version_6.1.2\lvgl\src\lv_objx/lv_ta.c ****     }
 617:..\..\..\lvgl\version_6.1.2\lvgl\src\lv_objx/lv_ta.c **** 
 618:..\..\..\lvgl\version_6.1.2\lvgl\src\lv_objx/lv_ta.c ****     /*Check the right (use the font_h as general unit)*/
 619:..\..\..\lvgl\version_6.1.2\lvgl\src\lv_objx/lv_ta.c ****     if(label_cords.x1 + cur_pos.x + font_h + style->body.padding.right > ta_cords.x2) {
 2416              		.loc 7 619 0
 2417 018c B7F93430 		ldrsh	r3, [r7, #52]
 2418 0190 1A46     		mov	r2, r3
 2419 0192 B7F93C30 		ldrsh	r3, [r7, #60]
 2420 0196 1A44     		add	r2, r2, r3
 2421 0198 B7F94230 		ldrsh	r3, [r7, #66]
 2422 019c 1344     		add	r3, r3, r2
 2423 019e BA6C     		ldr	r2, [r7, #72]
 2424 01a0 B2F92620 		ldrsh	r2, [r2, #38]
 2425 01a4 1344     		add	r3, r3, r2
 2426 01a6 B7F93020 		ldrsh	r2, [r7, #48]
 2427 01aa 9342     		cmp	r3, r2
 2428 01ac 1EDD     		ble	.L114
 620:..\..\..\lvgl\version_6.1.2\lvgl\src\lv_objx/lv_ta.c ****         lv_obj_set_x(label_par, -(cur_pos.x - lv_obj_get_width(ta) + font_h + style->body.padding.l
 2429              		.loc 7 620 0
 2430 01ae 7868     		ldr	r0, [r7, #4]
 2431 01b0 FFF7FEFF 		bl	lv_obj_get_width
 2432 01b4 0346     		mov	r3, r0
 2433 01b6 9AB2     		uxth	r2, r3
 2434 01b8 B7F93C30 		ldrsh	r3, [r7, #60]
 2435 01bc 9BB2     		uxth	r3, r3
 2436 01be D31A     		subs	r3, r2, r3
 2437 01c0 9AB2     		uxth	r2, r3
 2438 01c2 B7F84230 		ldrh	r3, [r7, #66]
 2439 01c6 D31A     		subs	r3, r2, r3
 2440 01c8 9AB2     		uxth	r2, r3
 2441 01ca BB6C     		ldr	r3, [r7, #72]
 2442 01cc B3F92430 		ldrsh	r3, [r3, #36]
 2443 01d0 9BB2     		uxth	r3, r3
 2444 01d2 D31A     		subs	r3, r2, r3
 2445 01d4 9AB2     		uxth	r2, r3
 621:..\..\..\lvgl\version_6.1.2\lvgl\src\lv_objx/lv_ta.c ****                                   style->body.padding.right));
 2446              		.loc 7 621 0
 2447 01d6 BB6C     		ldr	r3, [r7, #72]
 2448 01d8 B3F92630 		ldrsh	r3, [r3, #38]
 620:..\..\..\lvgl\version_6.1.2\lvgl\src\lv_objx/lv_ta.c ****         lv_obj_set_x(label_par, -(cur_pos.x - lv_obj_get_width(ta) + font_h + style->body.padding.l
 2449              		.loc 7 620 0
 2450 01dc 9BB2     		uxth	r3, r3
 2451 01de D31A     		subs	r3, r2, r3
 2452 01e0 9BB2     		uxth	r3, r3
 2453 01e2 1BB2     		sxth	r3, r3
 2454 01e4 1946     		mov	r1, r3
ARM GAS  C:\Users\tmj32\AppData\Local\Temp\ccI3WYuM.s 			page 77


 2455 01e6 F86C     		ldr	r0, [r7, #76]
 2456 01e8 FFF7FEFF 		bl	lv_obj_set_x
 2457              	.L114:
 622:..\..\..\lvgl\version_6.1.2\lvgl\src\lv_objx/lv_ta.c ****     }
 623:..\..\..\lvgl\version_6.1.2\lvgl\src\lv_objx/lv_ta.c **** 
 624:..\..\..\lvgl\version_6.1.2\lvgl\src\lv_objx/lv_ta.c ****     ext->cursor.valid_x = cur_pos.x;
 2458              		.loc 7 624 0
 2459 01ec B7F93C20 		ldrsh	r2, [r7, #60]
 2460 01f0 7B6D     		ldr	r3, [r7, #84]
 2461 01f2 A3F84820 		strh	r2, [r3, #72]	@ movhi
 625:..\..\..\lvgl\version_6.1.2\lvgl\src\lv_objx/lv_ta.c **** 
 626:..\..\..\lvgl\version_6.1.2\lvgl\src\lv_objx/lv_ta.c **** #if LV_USE_ANIMATION
 627:..\..\..\lvgl\version_6.1.2\lvgl\src\lv_objx/lv_ta.c ****     if(ext->cursor.blink_time) {
 2462              		.loc 7 627 0
 2463 01f6 7B6D     		ldr	r3, [r7, #84]
 2464 01f8 B3F84C30 		ldrh	r3, [r3, #76]
 2465 01fc 002B     		cmp	r3, #0
 2466 01fe 26D0     		beq	.L115
 2467              	.LBB20:
 628:..\..\..\lvgl\version_6.1.2\lvgl\src\lv_objx/lv_ta.c ****         /*Reset cursor blink animation*/
 629:..\..\..\lvgl\version_6.1.2\lvgl\src\lv_objx/lv_ta.c ****         lv_anim_t a;
 630:..\..\..\lvgl\version_6.1.2\lvgl\src\lv_objx/lv_ta.c ****         a.var            = ta;
 2468              		.loc 7 630 0
 2469 0200 7B68     		ldr	r3, [r7, #4]
 2470 0202 BB60     		str	r3, [r7, #8]
 631:..\..\..\lvgl\version_6.1.2\lvgl\src\lv_objx/lv_ta.c ****         a.exec_cb        = (lv_anim_exec_xcb_t)cursor_blink_anim;
 2471              		.loc 7 631 0
 2472 0204 174B     		ldr	r3, .L117+4
 2473 0206 FB60     		str	r3, [r7, #12]
 632:..\..\..\lvgl\version_6.1.2\lvgl\src\lv_objx/lv_ta.c ****         a.time           = ext->cursor.blink_time;
 2474              		.loc 7 632 0
 2475 0208 7B6D     		ldr	r3, [r7, #84]
 2476 020a B3F84C30 		ldrh	r3, [r3, #76]
 2477 020e 3B84     		strh	r3, [r7, #32]	@ movhi
 633:..\..\..\lvgl\version_6.1.2\lvgl\src\lv_objx/lv_ta.c ****         a.act_time       = 0;
 2478              		.loc 7 633 0
 2479 0210 0023     		movs	r3, #0
 2480 0212 7B84     		strh	r3, [r7, #34]	@ movhi
 634:..\..\..\lvgl\version_6.1.2\lvgl\src\lv_objx/lv_ta.c ****         a.ready_cb       = NULL;
 2481              		.loc 7 634 0
 2482 0214 0023     		movs	r3, #0
 2483 0216 7B61     		str	r3, [r7, #20]
 635:..\..\..\lvgl\version_6.1.2\lvgl\src\lv_objx/lv_ta.c ****         a.start          = 1;
 2484              		.loc 7 635 0
 2485 0218 0123     		movs	r3, #1
 2486 021a BB61     		str	r3, [r7, #24]
 636:..\..\..\lvgl\version_6.1.2\lvgl\src\lv_objx/lv_ta.c ****         a.end            = 0;
 2487              		.loc 7 636 0
 2488 021c 0023     		movs	r3, #0
 2489 021e FB61     		str	r3, [r7, #28]
 637:..\..\..\lvgl\version_6.1.2\lvgl\src\lv_objx/lv_ta.c ****         a.repeat         = 1;
 2490              		.loc 7 637 0
 2491 0220 97F82830 		ldrb	r3, [r7, #40]
 2492 0224 43F00203 		orr	r3, r3, #2
 2493 0228 87F82830 		strb	r3, [r7, #40]
 638:..\..\..\lvgl\version_6.1.2\lvgl\src\lv_objx/lv_ta.c ****         a.repeat_pause   = 0;
 2494              		.loc 7 638 0
ARM GAS  C:\Users\tmj32\AppData\Local\Temp\ccI3WYuM.s 			page 78


 2495 022c 0023     		movs	r3, #0
 2496 022e FB84     		strh	r3, [r7, #38]	@ movhi
 639:..\..\..\lvgl\version_6.1.2\lvgl\src\lv_objx/lv_ta.c ****         a.playback       = 1;
 2497              		.loc 7 639 0
 2498 0230 97F82830 		ldrb	r3, [r7, #40]
 2499 0234 43F00103 		orr	r3, r3, #1
 2500 0238 87F82830 		strb	r3, [r7, #40]
 640:..\..\..\lvgl\version_6.1.2\lvgl\src\lv_objx/lv_ta.c ****         a.playback_pause = 0;
 2501              		.loc 7 640 0
 2502 023c 0023     		movs	r3, #0
 2503 023e BB84     		strh	r3, [r7, #36]	@ movhi
 641:..\..\..\lvgl\version_6.1.2\lvgl\src\lv_objx/lv_ta.c ****         a.path_cb        = lv_anim_path_step;
 2504              		.loc 7 641 0
 2505 0240 094B     		ldr	r3, .L117+8
 2506 0242 3B61     		str	r3, [r7, #16]
 642:..\..\..\lvgl\version_6.1.2\lvgl\src\lv_objx/lv_ta.c ****         lv_anim_create(&a);
 2507              		.loc 7 642 0
 2508 0244 07F10803 		add	r3, r7, #8
 2509 0248 1846     		mov	r0, r3
 2510 024a FFF7FEFF 		bl	lv_anim_create
 2511              	.L115:
 2512              	.LBE20:
 643:..\..\..\lvgl\version_6.1.2\lvgl\src\lv_objx/lv_ta.c ****     }
 644:..\..\..\lvgl\version_6.1.2\lvgl\src\lv_objx/lv_ta.c **** #endif
 645:..\..\..\lvgl\version_6.1.2\lvgl\src\lv_objx/lv_ta.c **** 
 646:..\..\..\lvgl\version_6.1.2\lvgl\src\lv_objx/lv_ta.c ****     refr_cursor_area(ta);
 2513              		.loc 7 646 0 discriminator 1
 2514 024e 7868     		ldr	r0, [r7, #4]
 2515 0250 FFF7FEFF 		bl	refr_cursor_area
 2516 0254 00E0     		b	.L105
 2517              	.L116:
 581:..\..\..\lvgl\version_6.1.2\lvgl\src\lv_objx/lv_ta.c **** 
 2518              		.loc 7 581 0
 2519 0256 00BF     		nop
 2520              	.L105:
 647:..\..\..\lvgl\version_6.1.2\lvgl\src\lv_objx/lv_ta.c **** }
 2521              		.loc 7 647 0
 2522 0258 5C37     		adds	r7, r7, #92
 2523              		.cfi_def_cfa_offset 12
 2524 025a BD46     		mov	sp, r7
 2525              		.cfi_def_cfa_register 13
 2526              		@ sp needed
 2527 025c 90BD     		pop	{r4, r7, pc}
 2528              	.L118:
 2529 025e 00BF     		.align	2
 2530              	.L117:
 2531 0260 00000000 		.word	lv_txt_get_encoded_length
 2532 0264 00000000 		.word	cursor_blink_anim
 2533 0268 00000000 		.word	lv_anim_path_step
 2534              		.cfi_endproc
 2535              	.LFE63:
 2536              		.size	lv_ta_set_cursor_pos, .-lv_ta_set_cursor_pos
 2537              		.section	.text.lv_ta_set_cursor_type,"ax",%progbits
 2538              		.align	2
 2539              		.global	lv_ta_set_cursor_type
 2540              		.thumb
 2541              		.thumb_func
ARM GAS  C:\Users\tmj32\AppData\Local\Temp\ccI3WYuM.s 			page 79


 2542              		.type	lv_ta_set_cursor_type, %function
 2543              	lv_ta_set_cursor_type:
 2544              	.LFB64:
 648:..\..\..\lvgl\version_6.1.2\lvgl\src\lv_objx/lv_ta.c **** 
 649:..\..\..\lvgl\version_6.1.2\lvgl\src\lv_objx/lv_ta.c **** /**
 650:..\..\..\lvgl\version_6.1.2\lvgl\src\lv_objx/lv_ta.c ****  * Set the cursor type.
 651:..\..\..\lvgl\version_6.1.2\lvgl\src\lv_objx/lv_ta.c ****  * @param ta pointer to a text area object
 652:..\..\..\lvgl\version_6.1.2\lvgl\src\lv_objx/lv_ta.c ****  * @param cur_type: element of 'lv_ta_cursor_type_t'
 653:..\..\..\lvgl\version_6.1.2\lvgl\src\lv_objx/lv_ta.c ****  */
 654:..\..\..\lvgl\version_6.1.2\lvgl\src\lv_objx/lv_ta.c **** void lv_ta_set_cursor_type(lv_obj_t * ta, lv_cursor_type_t cur_type)
 655:..\..\..\lvgl\version_6.1.2\lvgl\src\lv_objx/lv_ta.c **** {
 2545              		.loc 7 655 0
 2546              		.cfi_startproc
 2547              		@ args = 0, pretend = 0, frame = 16
 2548              		@ frame_needed = 1, uses_anonymous_args = 0
 2549 0000 80B5     		push	{r7, lr}
 2550              		.cfi_def_cfa_offset 8
 2551              		.cfi_offset 7, -8
 2552              		.cfi_offset 14, -4
 2553 0002 84B0     		sub	sp, sp, #16
 2554              		.cfi_def_cfa_offset 24
 2555 0004 00AF     		add	r7, sp, #0
 2556              		.cfi_def_cfa_register 7
 2557 0006 7860     		str	r0, [r7, #4]
 2558 0008 0B46     		mov	r3, r1
 2559 000a FB70     		strb	r3, [r7, #3]
 656:..\..\..\lvgl\version_6.1.2\lvgl\src\lv_objx/lv_ta.c ****     LV_ASSERT_OBJ(ta, LV_OBJX_NAME);
 657:..\..\..\lvgl\version_6.1.2\lvgl\src\lv_objx/lv_ta.c **** 
 658:..\..\..\lvgl\version_6.1.2\lvgl\src\lv_objx/lv_ta.c ****     lv_ta_ext_t * ext = lv_obj_get_ext_attr(ta);
 2560              		.loc 7 658 0
 2561 000c 7868     		ldr	r0, [r7, #4]
 2562 000e FFF7FEFF 		bl	lv_obj_get_ext_attr
 2563 0012 F860     		str	r0, [r7, #12]
 659:..\..\..\lvgl\version_6.1.2\lvgl\src\lv_objx/lv_ta.c ****     if(ext->cursor.type == cur_type) return;
 2564              		.loc 7 659 0
 2565 0014 FB68     		ldr	r3, [r7, #12]
 2566 0016 93F85830 		ldrb	r3, [r3, #88]
 2567 001a C3F30303 		ubfx	r3, r3, #0, #4
 2568 001e DBB2     		uxtb	r3, r3
 2569 0020 1A46     		mov	r2, r3
 2570 0022 FB78     		ldrb	r3, [r7, #3]	@ zero_extendqisi2
 2571 0024 9A42     		cmp	r2, r3
 2572 0026 0ED0     		beq	.L122
 660:..\..\..\lvgl\version_6.1.2\lvgl\src\lv_objx/lv_ta.c **** 
 661:..\..\..\lvgl\version_6.1.2\lvgl\src\lv_objx/lv_ta.c ****     ext->cursor.type = cur_type;
 2573              		.loc 7 661 0
 2574 0028 FB78     		ldrb	r3, [r7, #3]
 2575 002a 03F00F03 		and	r3, r3, #15
 2576 002e D9B2     		uxtb	r1, r3
 2577 0030 FA68     		ldr	r2, [r7, #12]
 2578 0032 92F85830 		ldrb	r3, [r2, #88]
 2579 0036 61F30303 		bfi	r3, r1, #0, #4
 2580 003a 82F85830 		strb	r3, [r2, #88]
 662:..\..\..\lvgl\version_6.1.2\lvgl\src\lv_objx/lv_ta.c **** 
 663:..\..\..\lvgl\version_6.1.2\lvgl\src\lv_objx/lv_ta.c ****     refr_cursor_area(ta);
 2581              		.loc 7 663 0
 2582 003e 7868     		ldr	r0, [r7, #4]
ARM GAS  C:\Users\tmj32\AppData\Local\Temp\ccI3WYuM.s 			page 80


 2583 0040 FFF7FEFF 		bl	refr_cursor_area
 2584 0044 00E0     		b	.L119
 2585              	.L122:
 659:..\..\..\lvgl\version_6.1.2\lvgl\src\lv_objx/lv_ta.c **** 
 2586              		.loc 7 659 0
 2587 0046 00BF     		nop
 2588              	.L119:
 664:..\..\..\lvgl\version_6.1.2\lvgl\src\lv_objx/lv_ta.c **** }
 2589              		.loc 7 664 0
 2590 0048 1037     		adds	r7, r7, #16
 2591              		.cfi_def_cfa_offset 8
 2592 004a BD46     		mov	sp, r7
 2593              		.cfi_def_cfa_register 13
 2594              		@ sp needed
 2595 004c 80BD     		pop	{r7, pc}
 2596              		.cfi_endproc
 2597              	.LFE64:
 2598              		.size	lv_ta_set_cursor_type, .-lv_ta_set_cursor_type
 2599 004e 00BF     		.section	.text.lv_ta_set_cursor_click_pos,"ax",%progbits
 2600              		.align	2
 2601              		.global	lv_ta_set_cursor_click_pos
 2602              		.thumb
 2603              		.thumb_func
 2604              		.type	lv_ta_set_cursor_click_pos, %function
 2605              	lv_ta_set_cursor_click_pos:
 2606              	.LFB65:
 665:..\..\..\lvgl\version_6.1.2\lvgl\src\lv_objx/lv_ta.c **** 
 666:..\..\..\lvgl\version_6.1.2\lvgl\src\lv_objx/lv_ta.c **** /**
 667:..\..\..\lvgl\version_6.1.2\lvgl\src\lv_objx/lv_ta.c ****  * Enable/Disable the positioning of the the cursor by clicking the text on the text area.
 668:..\..\..\lvgl\version_6.1.2\lvgl\src\lv_objx/lv_ta.c ****  * @param ta pointer to a text area object
 669:..\..\..\lvgl\version_6.1.2\lvgl\src\lv_objx/lv_ta.c ****  * @param en true: enable click positions; false: disable
 670:..\..\..\lvgl\version_6.1.2\lvgl\src\lv_objx/lv_ta.c ****  */
 671:..\..\..\lvgl\version_6.1.2\lvgl\src\lv_objx/lv_ta.c **** void lv_ta_set_cursor_click_pos(lv_obj_t * ta, bool en)
 672:..\..\..\lvgl\version_6.1.2\lvgl\src\lv_objx/lv_ta.c **** {
 2607              		.loc 7 672 0
 2608              		.cfi_startproc
 2609              		@ args = 0, pretend = 0, frame = 16
 2610              		@ frame_needed = 1, uses_anonymous_args = 0
 2611 0000 80B5     		push	{r7, lr}
 2612              		.cfi_def_cfa_offset 8
 2613              		.cfi_offset 7, -8
 2614              		.cfi_offset 14, -4
 2615 0002 84B0     		sub	sp, sp, #16
 2616              		.cfi_def_cfa_offset 24
 2617 0004 00AF     		add	r7, sp, #0
 2618              		.cfi_def_cfa_register 7
 2619 0006 7860     		str	r0, [r7, #4]
 2620 0008 0B46     		mov	r3, r1
 2621 000a FB70     		strb	r3, [r7, #3]
 673:..\..\..\lvgl\version_6.1.2\lvgl\src\lv_objx/lv_ta.c ****     LV_ASSERT_OBJ(ta, LV_OBJX_NAME);
 674:..\..\..\lvgl\version_6.1.2\lvgl\src\lv_objx/lv_ta.c **** 
 675:..\..\..\lvgl\version_6.1.2\lvgl\src\lv_objx/lv_ta.c ****     lv_ta_ext_t * ext     = lv_obj_get_ext_attr(ta);
 2622              		.loc 7 675 0
 2623 000c 7868     		ldr	r0, [r7, #4]
 2624 000e FFF7FEFF 		bl	lv_obj_get_ext_attr
 2625 0012 F860     		str	r0, [r7, #12]
 676:..\..\..\lvgl\version_6.1.2\lvgl\src\lv_objx/lv_ta.c ****     ext->cursor.click_pos = en ? 1 : 0;
ARM GAS  C:\Users\tmj32\AppData\Local\Temp\ccI3WYuM.s 			page 81


 2626              		.loc 7 676 0
 2627 0014 FB78     		ldrb	r3, [r7, #3]	@ zero_extendqisi2
 2628 0016 03F00103 		and	r3, r3, #1
 2629 001a D9B2     		uxtb	r1, r3
 2630 001c FA68     		ldr	r2, [r7, #12]
 2631 001e 92F85830 		ldrb	r3, [r2, #88]
 2632 0022 61F34513 		bfi	r3, r1, #5, #1
 2633 0026 82F85830 		strb	r3, [r2, #88]
 677:..\..\..\lvgl\version_6.1.2\lvgl\src\lv_objx/lv_ta.c **** }
 2634              		.loc 7 677 0
 2635 002a 00BF     		nop
 2636 002c 1037     		adds	r7, r7, #16
 2637              		.cfi_def_cfa_offset 8
 2638 002e BD46     		mov	sp, r7
 2639              		.cfi_def_cfa_register 13
 2640              		@ sp needed
 2641 0030 80BD     		pop	{r7, pc}
 2642              		.cfi_endproc
 2643              	.LFE65:
 2644              		.size	lv_ta_set_cursor_click_pos, .-lv_ta_set_cursor_click_pos
 2645 0032 00BF     		.section	.text.lv_ta_set_pwd_mode,"ax",%progbits
 2646              		.align	2
 2647              		.global	lv_ta_set_pwd_mode
 2648              		.thumb
 2649              		.thumb_func
 2650              		.type	lv_ta_set_pwd_mode, %function
 2651              	lv_ta_set_pwd_mode:
 2652              	.LFB66:
 678:..\..\..\lvgl\version_6.1.2\lvgl\src\lv_objx/lv_ta.c **** 
 679:..\..\..\lvgl\version_6.1.2\lvgl\src\lv_objx/lv_ta.c **** /**
 680:..\..\..\lvgl\version_6.1.2\lvgl\src\lv_objx/lv_ta.c ****  * Enable/Disable password mode
 681:..\..\..\lvgl\version_6.1.2\lvgl\src\lv_objx/lv_ta.c ****  * @param ta pointer to a text area object
 682:..\..\..\lvgl\version_6.1.2\lvgl\src\lv_objx/lv_ta.c ****  * @param en true: enable, false: disable
 683:..\..\..\lvgl\version_6.1.2\lvgl\src\lv_objx/lv_ta.c ****  */
 684:..\..\..\lvgl\version_6.1.2\lvgl\src\lv_objx/lv_ta.c **** void lv_ta_set_pwd_mode(lv_obj_t * ta, bool en)
 685:..\..\..\lvgl\version_6.1.2\lvgl\src\lv_objx/lv_ta.c **** {
 2653              		.loc 7 685 0
 2654              		.cfi_startproc
 2655              		@ args = 0, pretend = 0, frame = 32
 2656              		@ frame_needed = 1, uses_anonymous_args = 0
 2657 0000 80B5     		push	{r7, lr}
 2658              		.cfi_def_cfa_offset 8
 2659              		.cfi_offset 7, -8
 2660              		.cfi_offset 14, -4
 2661 0002 88B0     		sub	sp, sp, #32
 2662              		.cfi_def_cfa_offset 40
 2663 0004 00AF     		add	r7, sp, #0
 2664              		.cfi_def_cfa_register 7
 2665 0006 7860     		str	r0, [r7, #4]
 2666 0008 0B46     		mov	r3, r1
 2667 000a FB70     		strb	r3, [r7, #3]
 686:..\..\..\lvgl\version_6.1.2\lvgl\src\lv_objx/lv_ta.c ****     LV_ASSERT_OBJ(ta, LV_OBJX_NAME);
 687:..\..\..\lvgl\version_6.1.2\lvgl\src\lv_objx/lv_ta.c **** 
 688:..\..\..\lvgl\version_6.1.2\lvgl\src\lv_objx/lv_ta.c ****     lv_ta_ext_t * ext = lv_obj_get_ext_attr(ta);
 2668              		.loc 7 688 0
 2669 000c 7868     		ldr	r0, [r7, #4]
 2670 000e FFF7FEFF 		bl	lv_obj_get_ext_attr
ARM GAS  C:\Users\tmj32\AppData\Local\Temp\ccI3WYuM.s 			page 82


 2671 0012 B861     		str	r0, [r7, #24]
 689:..\..\..\lvgl\version_6.1.2\lvgl\src\lv_objx/lv_ta.c ****     if(ext->pwd_mode == en) return;
 2672              		.loc 7 689 0
 2673 0014 BB69     		ldr	r3, [r7, #24]
 2674 0016 93F85C30 		ldrb	r3, [r3, #92]
 2675 001a C3F30003 		ubfx	r3, r3, #0, #1
 2676 001e DBB2     		uxtb	r3, r3
 2677 0020 FA78     		ldrb	r2, [r7, #3]	@ zero_extendqisi2
 2678 0022 9A42     		cmp	r2, r3
 2679 0024 7FD0     		beq	.L134
 690:..\..\..\lvgl\version_6.1.2\lvgl\src\lv_objx/lv_ta.c **** 
 691:..\..\..\lvgl\version_6.1.2\lvgl\src\lv_objx/lv_ta.c ****     /*Pwd mode is now enabled*/
 692:..\..\..\lvgl\version_6.1.2\lvgl\src\lv_objx/lv_ta.c ****     if(ext->pwd_mode == 0 && en != false) {
 2680              		.loc 7 692 0
 2681 0026 BB69     		ldr	r3, [r7, #24]
 2682 0028 93F85C30 		ldrb	r3, [r3, #92]	@ zero_extendqisi2
 2683 002c 03F00103 		and	r3, r3, #1
 2684 0030 DBB2     		uxtb	r3, r3
 2685 0032 002B     		cmp	r3, #0
 2686 0034 42D1     		bne	.L127
 2687              		.loc 7 692 0 is_stmt 0 discriminator 1
 2688 0036 FB78     		ldrb	r3, [r7, #3]	@ zero_extendqisi2
 2689 0038 002B     		cmp	r3, #0
 2690 003a 3FD0     		beq	.L127
 2691              	.LBB21:
 693:..\..\..\lvgl\version_6.1.2\lvgl\src\lv_objx/lv_ta.c ****         char * txt   = lv_label_get_text(ext->label);
 2692              		.loc 7 693 0 is_stmt 1
 2693 003c BB69     		ldr	r3, [r7, #24]
 2694 003e 1B6B     		ldr	r3, [r3, #48]
 2695 0040 1846     		mov	r0, r3
 2696 0042 FFF7FEFF 		bl	lv_label_get_text
 2697 0046 7861     		str	r0, [r7, #20]
 694:..\..\..\lvgl\version_6.1.2\lvgl\src\lv_objx/lv_ta.c ****         size_t len = strlen(txt);
 2698              		.loc 7 694 0
 2699 0048 7869     		ldr	r0, [r7, #20]
 2700 004a FFF7FEFF 		bl	strlen
 2701 004e 3861     		str	r0, [r7, #16]
 695:..\..\..\lvgl\version_6.1.2\lvgl\src\lv_objx/lv_ta.c ****         ext->pwd_tmp = lv_mem_alloc(len + 1);
 2702              		.loc 7 695 0
 2703 0050 3B69     		ldr	r3, [r7, #16]
 2704 0052 0133     		adds	r3, r3, #1
 2705 0054 1846     		mov	r0, r3
 2706 0056 FFF7FEFF 		bl	lv_mem_alloc
 2707 005a 0246     		mov	r2, r0
 2708 005c BB69     		ldr	r3, [r7, #24]
 2709 005e 9A63     		str	r2, [r3, #56]
 696:..\..\..\lvgl\version_6.1.2\lvgl\src\lv_objx/lv_ta.c ****         LV_ASSERT_MEM(ext->pwd_tmp);
 697:..\..\..\lvgl\version_6.1.2\lvgl\src\lv_objx/lv_ta.c ****         if(ext->pwd_tmp == NULL) return;
 2710              		.loc 7 697 0
 2711 0060 BB69     		ldr	r3, [r7, #24]
 2712 0062 9B6B     		ldr	r3, [r3, #56]
 2713 0064 002B     		cmp	r3, #0
 2714 0066 60D0     		beq	.L135
 698:..\..\..\lvgl\version_6.1.2\lvgl\src\lv_objx/lv_ta.c **** 
 699:..\..\..\lvgl\version_6.1.2\lvgl\src\lv_objx/lv_ta.c ****         strcpy(ext->pwd_tmp, txt);
 2715              		.loc 7 699 0
 2716 0068 BB69     		ldr	r3, [r7, #24]
ARM GAS  C:\Users\tmj32\AppData\Local\Temp\ccI3WYuM.s 			page 83


 2717 006a 9B6B     		ldr	r3, [r3, #56]
 2718 006c 7969     		ldr	r1, [r7, #20]
 2719 006e 1846     		mov	r0, r3
 2720 0070 FFF7FEFF 		bl	strcpy
 700:..\..\..\lvgl\version_6.1.2\lvgl\src\lv_objx/lv_ta.c **** 
 701:..\..\..\lvgl\version_6.1.2\lvgl\src\lv_objx/lv_ta.c ****         uint16_t i;
 702:..\..\..\lvgl\version_6.1.2\lvgl\src\lv_objx/lv_ta.c ****         uint16_t encoded_len = lv_txt_get_encoded_length(txt); 
 2721              		.loc 7 702 0
 2722 0074 2F4B     		ldr	r3, .L136
 2723 0076 1B68     		ldr	r3, [r3]
 2724 0078 7869     		ldr	r0, [r7, #20]
 2725 007a 9847     		blx	r3
 2726 007c 0346     		mov	r3, r0
 2727 007e FB81     		strh	r3, [r7, #14]	@ movhi
 703:..\..\..\lvgl\version_6.1.2\lvgl\src\lv_objx/lv_ta.c ****         for(i = 0; i < encoded_len; i++) {
 2728              		.loc 7 703 0
 2729 0080 0023     		movs	r3, #0
 2730 0082 FB83     		strh	r3, [r7, #30]	@ movhi
 2731 0084 07E0     		b	.L129
 2732              	.L130:
 704:..\..\..\lvgl\version_6.1.2\lvgl\src\lv_objx/lv_ta.c ****             txt[i] = '*'; /*All char to '*'*/
 2733              		.loc 7 704 0 discriminator 3
 2734 0086 FB8B     		ldrh	r3, [r7, #30]
 2735 0088 7A69     		ldr	r2, [r7, #20]
 2736 008a 1344     		add	r3, r3, r2
 2737 008c 2A22     		movs	r2, #42
 2738 008e 1A70     		strb	r2, [r3]
 703:..\..\..\lvgl\version_6.1.2\lvgl\src\lv_objx/lv_ta.c ****         for(i = 0; i < encoded_len; i++) {
 2739              		.loc 7 703 0 discriminator 3
 2740 0090 FB8B     		ldrh	r3, [r7, #30]
 2741 0092 0133     		adds	r3, r3, #1
 2742 0094 FB83     		strh	r3, [r7, #30]	@ movhi
 2743              	.L129:
 703:..\..\..\lvgl\version_6.1.2\lvgl\src\lv_objx/lv_ta.c ****         for(i = 0; i < encoded_len; i++) {
 2744              		.loc 7 703 0 is_stmt 0 discriminator 1
 2745 0096 FA8B     		ldrh	r2, [r7, #30]
 2746 0098 FB89     		ldrh	r3, [r7, #14]
 2747 009a 9A42     		cmp	r2, r3
 2748 009c F3D3     		bcc	.L130
 705:..\..\..\lvgl\version_6.1.2\lvgl\src\lv_objx/lv_ta.c ****         }
 706:..\..\..\lvgl\version_6.1.2\lvgl\src\lv_objx/lv_ta.c ****         txt[i] = '\0';
 2749              		.loc 7 706 0 is_stmt 1
 2750 009e FB8B     		ldrh	r3, [r7, #30]
 2751 00a0 7A69     		ldr	r2, [r7, #20]
 2752 00a2 1344     		add	r3, r3, r2
 2753 00a4 0022     		movs	r2, #0
 2754 00a6 1A70     		strb	r2, [r3]
 707:..\..\..\lvgl\version_6.1.2\lvgl\src\lv_objx/lv_ta.c **** 
 708:..\..\..\lvgl\version_6.1.2\lvgl\src\lv_objx/lv_ta.c ****         lv_ta_clear_selection(ta);
 2755              		.loc 7 708 0
 2756 00a8 7868     		ldr	r0, [r7, #4]
 2757 00aa FFF7FEFF 		bl	lv_ta_clear_selection
 709:..\..\..\lvgl\version_6.1.2\lvgl\src\lv_objx/lv_ta.c **** 
 710:..\..\..\lvgl\version_6.1.2\lvgl\src\lv_objx/lv_ta.c ****         lv_label_set_text(ext->label, NULL);
 2758              		.loc 7 710 0
 2759 00ae BB69     		ldr	r3, [r7, #24]
 2760 00b0 1B6B     		ldr	r3, [r3, #48]
ARM GAS  C:\Users\tmj32\AppData\Local\Temp\ccI3WYuM.s 			page 84


 2761 00b2 0021     		movs	r1, #0
 2762 00b4 1846     		mov	r0, r3
 2763 00b6 FFF7FEFF 		bl	lv_label_set_text
 2764              	.LBE21:
 692:..\..\..\lvgl\version_6.1.2\lvgl\src\lv_objx/lv_ta.c ****         char * txt   = lv_label_get_text(ext->label);
 2765              		.loc 7 692 0
 2766 00ba 20E0     		b	.L131
 2767              	.L127:
 711:..\..\..\lvgl\version_6.1.2\lvgl\src\lv_objx/lv_ta.c ****     }
 712:..\..\..\lvgl\version_6.1.2\lvgl\src\lv_objx/lv_ta.c ****     /*Pwd mode is now disabled*/
 713:..\..\..\lvgl\version_6.1.2\lvgl\src\lv_objx/lv_ta.c ****     else if(ext->pwd_mode == 1 && en == false) {
 2768              		.loc 7 713 0
 2769 00bc BB69     		ldr	r3, [r7, #24]
 2770 00be 93F85C30 		ldrb	r3, [r3, #92]	@ zero_extendqisi2
 2771 00c2 03F00103 		and	r3, r3, #1
 2772 00c6 DBB2     		uxtb	r3, r3
 2773 00c8 002B     		cmp	r3, #0
 2774 00ca 18D0     		beq	.L131
 2775              		.loc 7 713 0 is_stmt 0 discriminator 1
 2776 00cc FB78     		ldrb	r3, [r7, #3]
 2777 00ce 83F00103 		eor	r3, r3, #1
 2778 00d2 DBB2     		uxtb	r3, r3
 2779 00d4 002B     		cmp	r3, #0
 2780 00d6 12D0     		beq	.L131
 714:..\..\..\lvgl\version_6.1.2\lvgl\src\lv_objx/lv_ta.c ****         lv_ta_clear_selection(ta);
 2781              		.loc 7 714 0 is_stmt 1
 2782 00d8 7868     		ldr	r0, [r7, #4]
 2783 00da FFF7FEFF 		bl	lv_ta_clear_selection
 715:..\..\..\lvgl\version_6.1.2\lvgl\src\lv_objx/lv_ta.c ****         lv_label_set_text(ext->label, ext->pwd_tmp);
 2784              		.loc 7 715 0
 2785 00de BB69     		ldr	r3, [r7, #24]
 2786 00e0 1A6B     		ldr	r2, [r3, #48]
 2787 00e2 BB69     		ldr	r3, [r7, #24]
 2788 00e4 9B6B     		ldr	r3, [r3, #56]
 2789 00e6 1946     		mov	r1, r3
 2790 00e8 1046     		mov	r0, r2
 2791 00ea FFF7FEFF 		bl	lv_label_set_text
 716:..\..\..\lvgl\version_6.1.2\lvgl\src\lv_objx/lv_ta.c ****         lv_mem_free(ext->pwd_tmp);
 2792              		.loc 7 716 0
 2793 00ee BB69     		ldr	r3, [r7, #24]
 2794 00f0 9B6B     		ldr	r3, [r3, #56]
 2795 00f2 1846     		mov	r0, r3
 2796 00f4 FFF7FEFF 		bl	lv_mem_free
 717:..\..\..\lvgl\version_6.1.2\lvgl\src\lv_objx/lv_ta.c ****         ext->pwd_tmp = NULL;
 2797              		.loc 7 717 0
 2798 00f8 BB69     		ldr	r3, [r7, #24]
 2799 00fa 0022     		movs	r2, #0
 2800 00fc 9A63     		str	r2, [r3, #56]
 2801              	.L131:
 718:..\..\..\lvgl\version_6.1.2\lvgl\src\lv_objx/lv_ta.c ****     }
 719:..\..\..\lvgl\version_6.1.2\lvgl\src\lv_objx/lv_ta.c **** 
 720:..\..\..\lvgl\version_6.1.2\lvgl\src\lv_objx/lv_ta.c ****     ext->pwd_mode = en == false ? 0 : 1;
 2802              		.loc 7 720 0
 2803 00fe FB78     		ldrb	r3, [r7, #3]
 2804 0100 83F00103 		eor	r3, r3, #1
 2805 0104 DBB2     		uxtb	r3, r3
 2806 0106 002B     		cmp	r3, #0
ARM GAS  C:\Users\tmj32\AppData\Local\Temp\ccI3WYuM.s 			page 85


 2807 0108 01D0     		beq	.L132
 2808              		.loc 7 720 0 is_stmt 0 discriminator 1
 2809 010a 0021     		movs	r1, #0
 2810 010c 00E0     		b	.L133
 2811              	.L132:
 2812              		.loc 7 720 0 discriminator 2
 2813 010e 0121     		movs	r1, #1
 2814              	.L133:
 2815              		.loc 7 720 0 discriminator 4
 2816 0110 BA69     		ldr	r2, [r7, #24]
 2817 0112 92F85C30 		ldrb	r3, [r2, #92]
 2818 0116 61F30003 		bfi	r3, r1, #0, #1
 2819 011a 82F85C30 		strb	r3, [r2, #92]
 721:..\..\..\lvgl\version_6.1.2\lvgl\src\lv_objx/lv_ta.c **** 
 722:..\..\..\lvgl\version_6.1.2\lvgl\src\lv_objx/lv_ta.c ****     refr_cursor_area(ta);
 2820              		.loc 7 722 0 is_stmt 1 discriminator 4
 2821 011e 7868     		ldr	r0, [r7, #4]
 2822 0120 FFF7FEFF 		bl	refr_cursor_area
 2823 0124 02E0     		b	.L124
 2824              	.L134:
 689:..\..\..\lvgl\version_6.1.2\lvgl\src\lv_objx/lv_ta.c **** 
 2825              		.loc 7 689 0
 2826 0126 00BF     		nop
 2827 0128 00E0     		b	.L124
 2828              	.L135:
 2829              	.LBB22:
 697:..\..\..\lvgl\version_6.1.2\lvgl\src\lv_objx/lv_ta.c **** 
 2830              		.loc 7 697 0
 2831 012a 00BF     		nop
 2832              	.L124:
 2833              	.LBE22:
 723:..\..\..\lvgl\version_6.1.2\lvgl\src\lv_objx/lv_ta.c **** }
 2834              		.loc 7 723 0
 2835 012c 2037     		adds	r7, r7, #32
 2836              		.cfi_def_cfa_offset 8
 2837 012e BD46     		mov	sp, r7
 2838              		.cfi_def_cfa_register 13
 2839              		@ sp needed
 2840 0130 80BD     		pop	{r7, pc}
 2841              	.L137:
 2842 0132 00BF     		.align	2
 2843              	.L136:
 2844 0134 00000000 		.word	lv_txt_get_encoded_length
 2845              		.cfi_endproc
 2846              	.LFE66:
 2847              		.size	lv_ta_set_pwd_mode, .-lv_ta_set_pwd_mode
 2848              		.section	.text.lv_ta_set_one_line,"ax",%progbits
 2849              		.align	2
 2850              		.global	lv_ta_set_one_line
 2851              		.thumb
 2852              		.thumb_func
 2853              		.type	lv_ta_set_one_line, %function
 2854              	lv_ta_set_one_line:
 2855              	.LFB67:
 724:..\..\..\lvgl\version_6.1.2\lvgl\src\lv_objx/lv_ta.c **** 
 725:..\..\..\lvgl\version_6.1.2\lvgl\src\lv_objx/lv_ta.c **** /**
 726:..\..\..\lvgl\version_6.1.2\lvgl\src\lv_objx/lv_ta.c ****  * Configure the text area to one line or back to normal
ARM GAS  C:\Users\tmj32\AppData\Local\Temp\ccI3WYuM.s 			page 86


 727:..\..\..\lvgl\version_6.1.2\lvgl\src\lv_objx/lv_ta.c ****  * @param ta pointer to a Text area object
 728:..\..\..\lvgl\version_6.1.2\lvgl\src\lv_objx/lv_ta.c ****  * @param en true: one line, false: normal
 729:..\..\..\lvgl\version_6.1.2\lvgl\src\lv_objx/lv_ta.c ****  */
 730:..\..\..\lvgl\version_6.1.2\lvgl\src\lv_objx/lv_ta.c **** void lv_ta_set_one_line(lv_obj_t * ta, bool en)
 731:..\..\..\lvgl\version_6.1.2\lvgl\src\lv_objx/lv_ta.c **** {
 2856              		.loc 7 731 0
 2857              		.cfi_startproc
 2858              		@ args = 0, pretend = 0, frame = 40
 2859              		@ frame_needed = 1, uses_anonymous_args = 0
 2860 0000 80B5     		push	{r7, lr}
 2861              		.cfi_def_cfa_offset 8
 2862              		.cfi_offset 7, -8
 2863              		.cfi_offset 14, -4
 2864 0002 8AB0     		sub	sp, sp, #40
 2865              		.cfi_def_cfa_offset 48
 2866 0004 00AF     		add	r7, sp, #0
 2867              		.cfi_def_cfa_register 7
 2868 0006 7860     		str	r0, [r7, #4]
 2869 0008 0B46     		mov	r3, r1
 2870 000a FB70     		strb	r3, [r7, #3]
 732:..\..\..\lvgl\version_6.1.2\lvgl\src\lv_objx/lv_ta.c ****     LV_ASSERT_OBJ(ta, LV_OBJX_NAME);
 733:..\..\..\lvgl\version_6.1.2\lvgl\src\lv_objx/lv_ta.c **** 
 734:..\..\..\lvgl\version_6.1.2\lvgl\src\lv_objx/lv_ta.c ****     lv_ta_ext_t * ext = lv_obj_get_ext_attr(ta);
 2871              		.loc 7 734 0
 2872 000c 7868     		ldr	r0, [r7, #4]
 2873 000e FFF7FEFF 		bl	lv_obj_get_ext_attr
 2874 0012 7862     		str	r0, [r7, #36]
 735:..\..\..\lvgl\version_6.1.2\lvgl\src\lv_objx/lv_ta.c ****     if(ext->one_line == en) return;
 2875              		.loc 7 735 0
 2876 0014 7B6A     		ldr	r3, [r7, #36]
 2877 0016 93F85C30 		ldrb	r3, [r3, #92]
 2878 001a C3F34003 		ubfx	r3, r3, #1, #1
 2879 001e DBB2     		uxtb	r3, r3
 2880 0020 FA78     		ldrb	r2, [r7, #3]	@ zero_extendqisi2
 2881 0022 9A42     		cmp	r2, r3
 2882 0024 00F0A580 		beq	.L145
 736:..\..\..\lvgl\version_6.1.2\lvgl\src\lv_objx/lv_ta.c ****     lv_label_align_t old_align = lv_label_get_align(ext->label);
 2883              		.loc 7 736 0
 2884 0028 7B6A     		ldr	r3, [r7, #36]
 2885 002a 1B6B     		ldr	r3, [r3, #48]
 2886 002c 1846     		mov	r0, r3
 2887 002e FFF7FEFF 		bl	lv_label_get_align
 2888 0032 0346     		mov	r3, r0
 2889 0034 87F82330 		strb	r3, [r7, #35]
 737:..\..\..\lvgl\version_6.1.2\lvgl\src\lv_objx/lv_ta.c **** 
 738:..\..\..\lvgl\version_6.1.2\lvgl\src\lv_objx/lv_ta.c ****     if(en) {
 2890              		.loc 7 738 0
 2891 0038 FB78     		ldrb	r3, [r7, #3]	@ zero_extendqisi2
 2892 003a 002B     		cmp	r3, #0
 2893 003c 5FD0     		beq	.L141
 2894              	.LBB23:
 739:..\..\..\lvgl\version_6.1.2\lvgl\src\lv_objx/lv_ta.c ****         const lv_style_t * style_ta    = lv_obj_get_style(ta);
 2895              		.loc 7 739 0
 2896 003e 7868     		ldr	r0, [r7, #4]
 2897 0040 FFF7FEFF 		bl	lv_obj_get_style
 2898 0044 F861     		str	r0, [r7, #28]
 740:..\..\..\lvgl\version_6.1.2\lvgl\src\lv_objx/lv_ta.c ****         const lv_style_t * style_scrl  = lv_obj_get_style(lv_page_get_scrl(ta));
ARM GAS  C:\Users\tmj32\AppData\Local\Temp\ccI3WYuM.s 			page 87


 2899              		.loc 7 740 0
 2900 0046 7868     		ldr	r0, [r7, #4]
 2901 0048 FFF7FEFF 		bl	lv_page_get_scrl
 2902 004c 0346     		mov	r3, r0
 2903 004e 1846     		mov	r0, r3
 2904 0050 FFF7FEFF 		bl	lv_obj_get_style
 2905 0054 B861     		str	r0, [r7, #24]
 741:..\..\..\lvgl\version_6.1.2\lvgl\src\lv_objx/lv_ta.c ****         const lv_style_t * style_label = lv_obj_get_style(ext->label);
 2906              		.loc 7 741 0
 2907 0056 7B6A     		ldr	r3, [r7, #36]
 2908 0058 1B6B     		ldr	r3, [r3, #48]
 2909 005a 1846     		mov	r0, r3
 2910 005c FFF7FEFF 		bl	lv_obj_get_style
 2911 0060 7861     		str	r0, [r7, #20]
 742:..\..\..\lvgl\version_6.1.2\lvgl\src\lv_objx/lv_ta.c ****         lv_coord_t font_h              = lv_font_get_line_height(style_label->text.font);
 2912              		.loc 7 742 0
 2913 0062 7B69     		ldr	r3, [r7, #20]
 2914 0064 5B6B     		ldr	r3, [r3, #52]
 2915 0066 1846     		mov	r0, r3
 2916 0068 FFF7FEFF 		bl	lv_font_get_line_height
 2917 006c 0346     		mov	r3, r0
 2918 006e 7B82     		strh	r3, [r7, #18]	@ movhi
 743:..\..\..\lvgl\version_6.1.2\lvgl\src\lv_objx/lv_ta.c **** 
 744:..\..\..\lvgl\version_6.1.2\lvgl\src\lv_objx/lv_ta.c ****         ext->one_line = 1;
 2919              		.loc 7 744 0
 2920 0070 7A6A     		ldr	r2, [r7, #36]
 2921 0072 92F85C30 		ldrb	r3, [r2, #92]
 2922 0076 43F00203 		orr	r3, r3, #2
 2923 007a 82F85C30 		strb	r3, [r2, #92]
 745:..\..\..\lvgl\version_6.1.2\lvgl\src\lv_objx/lv_ta.c ****         lv_page_set_scrl_fit2(ta, LV_FIT_TIGHT, LV_FIT_FLOOD);
 2924              		.loc 7 745 0
 2925 007e 0222     		movs	r2, #2
 2926 0080 0121     		movs	r1, #1
 2927 0082 7868     		ldr	r0, [r7, #4]
 2928 0084 FFF7FEFF 		bl	lv_page_set_scrl_fit2
 746:..\..\..\lvgl\version_6.1.2\lvgl\src\lv_objx/lv_ta.c ****         lv_obj_set_height(ta, font_h + style_ta->body.padding.top + style_ta->body.padding.bottom +
 2929              		.loc 7 746 0
 2930 0088 FB69     		ldr	r3, [r7, #28]
 2931 008a B3F92030 		ldrsh	r3, [r3, #32]
 2932 008e 9AB2     		uxth	r2, r3
 2933 0090 7B8A     		ldrh	r3, [r7, #18]
 2934 0092 1344     		add	r3, r3, r2
 2935 0094 9AB2     		uxth	r2, r3
 2936 0096 FB69     		ldr	r3, [r7, #28]
 2937 0098 B3F92230 		ldrsh	r3, [r3, #34]
 2938 009c 9BB2     		uxth	r3, r3
 2939 009e 1344     		add	r3, r3, r2
 2940 00a0 9AB2     		uxth	r2, r3
 747:..\..\..\lvgl\version_6.1.2\lvgl\src\lv_objx/lv_ta.c ****                                   style_scrl->body.padding.top + style_scrl->body.padding.bottom);
 2941              		.loc 7 747 0
 2942 00a2 BB69     		ldr	r3, [r7, #24]
 2943 00a4 B3F92030 		ldrsh	r3, [r3, #32]
 746:..\..\..\lvgl\version_6.1.2\lvgl\src\lv_objx/lv_ta.c ****         lv_obj_set_height(ta, font_h + style_ta->body.padding.top + style_ta->body.padding.bottom +
 2944              		.loc 7 746 0
 2945 00a8 9BB2     		uxth	r3, r3
 2946 00aa 1344     		add	r3, r3, r2
 2947 00ac 9AB2     		uxth	r2, r3
ARM GAS  C:\Users\tmj32\AppData\Local\Temp\ccI3WYuM.s 			page 88


 2948              		.loc 7 747 0
 2949 00ae BB69     		ldr	r3, [r7, #24]
 2950 00b0 B3F92230 		ldrsh	r3, [r3, #34]
 746:..\..\..\lvgl\version_6.1.2\lvgl\src\lv_objx/lv_ta.c ****         lv_obj_set_height(ta, font_h + style_ta->body.padding.top + style_ta->body.padding.bottom +
 2951              		.loc 7 746 0
 2952 00b4 9BB2     		uxth	r3, r3
 2953 00b6 1344     		add	r3, r3, r2
 2954 00b8 9BB2     		uxth	r3, r3
 2955 00ba 1BB2     		sxth	r3, r3
 2956 00bc 1946     		mov	r1, r3
 2957 00be 7868     		ldr	r0, [r7, #4]
 2958 00c0 FFF7FEFF 		bl	lv_obj_set_height
 748:..\..\..\lvgl\version_6.1.2\lvgl\src\lv_objx/lv_ta.c ****         lv_label_set_long_mode(ext->label, LV_LABEL_LONG_EXPAND);
 2959              		.loc 7 748 0
 2960 00c4 7B6A     		ldr	r3, [r7, #36]
 2961 00c6 1B6B     		ldr	r3, [r3, #48]
 2962 00c8 0021     		movs	r1, #0
 2963 00ca 1846     		mov	r0, r3
 2964 00cc FFF7FEFF 		bl	lv_label_set_long_mode
 749:..\..\..\lvgl\version_6.1.2\lvgl\src\lv_objx/lv_ta.c ****         if(ext->placeholder) lv_label_set_long_mode(ext->placeholder, LV_LABEL_LONG_EXPAND);
 2965              		.loc 7 749 0
 2966 00d0 7B6A     		ldr	r3, [r7, #36]
 2967 00d2 5B6B     		ldr	r3, [r3, #52]
 2968 00d4 002B     		cmp	r3, #0
 2969 00d6 05D0     		beq	.L142
 2970              		.loc 7 749 0 is_stmt 0 discriminator 1
 2971 00d8 7B6A     		ldr	r3, [r7, #36]
 2972 00da 5B6B     		ldr	r3, [r3, #52]
 2973 00dc 0021     		movs	r1, #0
 2974 00de 1846     		mov	r0, r3
 2975 00e0 FFF7FEFF 		bl	lv_label_set_long_mode
 2976              	.L142:
 750:..\..\..\lvgl\version_6.1.2\lvgl\src\lv_objx/lv_ta.c ****         lv_obj_set_pos(lv_page_get_scrl(ta), style_ta->body.padding.left, style_ta->body.padding.to
 2977              		.loc 7 750 0 is_stmt 1
 2978 00e4 7868     		ldr	r0, [r7, #4]
 2979 00e6 FFF7FEFF 		bl	lv_page_get_scrl
 2980 00ea FB69     		ldr	r3, [r7, #28]
 2981 00ec B3F92410 		ldrsh	r1, [r3, #36]
 2982 00f0 FB69     		ldr	r3, [r7, #28]
 2983 00f2 B3F92030 		ldrsh	r3, [r3, #32]
 2984 00f6 1A46     		mov	r2, r3
 2985 00f8 FFF7FEFF 		bl	lv_obj_set_pos
 2986              	.LBE23:
 2987 00fc 2FE0     		b	.L143
 2988              	.L141:
 2989              	.LBB24:
 751:..\..\..\lvgl\version_6.1.2\lvgl\src\lv_objx/lv_ta.c ****     } else {
 752:..\..\..\lvgl\version_6.1.2\lvgl\src\lv_objx/lv_ta.c ****         const lv_style_t * style_ta = lv_obj_get_style(ta);
 2990              		.loc 7 752 0
 2991 00fe 7868     		ldr	r0, [r7, #4]
 2992 0100 FFF7FEFF 		bl	lv_obj_get_style
 2993 0104 F860     		str	r0, [r7, #12]
 753:..\..\..\lvgl\version_6.1.2\lvgl\src\lv_objx/lv_ta.c **** 
 754:..\..\..\lvgl\version_6.1.2\lvgl\src\lv_objx/lv_ta.c ****         ext->one_line = 0;
 2994              		.loc 7 754 0
 2995 0106 7A6A     		ldr	r2, [r7, #36]
 2996 0108 92F85C30 		ldrb	r3, [r2, #92]
ARM GAS  C:\Users\tmj32\AppData\Local\Temp\ccI3WYuM.s 			page 89


 2997 010c 6FF34103 		bfc	r3, #1, #1
 2998 0110 82F85C30 		strb	r3, [r2, #92]
 755:..\..\..\lvgl\version_6.1.2\lvgl\src\lv_objx/lv_ta.c ****         lv_page_set_scrl_fit2(ta, LV_FIT_FLOOD, LV_FIT_TIGHT);
 2999              		.loc 7 755 0
 3000 0114 0122     		movs	r2, #1
 3001 0116 0221     		movs	r1, #2
 3002 0118 7868     		ldr	r0, [r7, #4]
 3003 011a FFF7FEFF 		bl	lv_page_set_scrl_fit2
 756:..\..\..\lvgl\version_6.1.2\lvgl\src\lv_objx/lv_ta.c ****         lv_label_set_long_mode(ext->label, LV_LABEL_LONG_BREAK);
 3004              		.loc 7 756 0
 3005 011e 7B6A     		ldr	r3, [r7, #36]
 3006 0120 1B6B     		ldr	r3, [r3, #48]
 3007 0122 0121     		movs	r1, #1
 3008 0124 1846     		mov	r0, r3
 3009 0126 FFF7FEFF 		bl	lv_label_set_long_mode
 757:..\..\..\lvgl\version_6.1.2\lvgl\src\lv_objx/lv_ta.c ****         if(ext->placeholder) lv_label_set_long_mode(ext->placeholder, LV_LABEL_LONG_BREAK);
 3010              		.loc 7 757 0
 3011 012a 7B6A     		ldr	r3, [r7, #36]
 3012 012c 5B6B     		ldr	r3, [r3, #52]
 3013 012e 002B     		cmp	r3, #0
 3014 0130 05D0     		beq	.L144
 3015              		.loc 7 757 0 is_stmt 0 discriminator 1
 3016 0132 7B6A     		ldr	r3, [r7, #36]
 3017 0134 5B6B     		ldr	r3, [r3, #52]
 3018 0136 0121     		movs	r1, #1
 3019 0138 1846     		mov	r0, r3
 3020 013a FFF7FEFF 		bl	lv_label_set_long_mode
 3021              	.L144:
 758:..\..\..\lvgl\version_6.1.2\lvgl\src\lv_objx/lv_ta.c **** 
 759:..\..\..\lvgl\version_6.1.2\lvgl\src\lv_objx/lv_ta.c ****         lv_obj_set_height(ta, LV_TA_DEF_HEIGHT);
 3022              		.loc 7 759 0 is_stmt 1
 3023 013e 9621     		movs	r1, #150
 3024 0140 7868     		ldr	r0, [r7, #4]
 3025 0142 FFF7FEFF 		bl	lv_obj_set_height
 760:..\..\..\lvgl\version_6.1.2\lvgl\src\lv_objx/lv_ta.c ****         lv_obj_set_pos(lv_page_get_scrl(ta), style_ta->body.padding.left, style_ta->body.padding.to
 3026              		.loc 7 760 0
 3027 0146 7868     		ldr	r0, [r7, #4]
 3028 0148 FFF7FEFF 		bl	lv_page_get_scrl
 3029 014c FB68     		ldr	r3, [r7, #12]
 3030 014e B3F92410 		ldrsh	r1, [r3, #36]
 3031 0152 FB68     		ldr	r3, [r7, #12]
 3032 0154 B3F92030 		ldrsh	r3, [r3, #32]
 3033 0158 1A46     		mov	r2, r3
 3034 015a FFF7FEFF 		bl	lv_obj_set_pos
 3035              	.L143:
 3036              	.LBE24:
 761:..\..\..\lvgl\version_6.1.2\lvgl\src\lv_objx/lv_ta.c ****     }
 762:..\..\..\lvgl\version_6.1.2\lvgl\src\lv_objx/lv_ta.c **** 
 763:..\..\..\lvgl\version_6.1.2\lvgl\src\lv_objx/lv_ta.c ****     placeholder_update(ta);
 3037              		.loc 7 763 0
 3038 015e 7868     		ldr	r0, [r7, #4]
 3039 0160 FFF7FEFF 		bl	placeholder_update
 764:..\..\..\lvgl\version_6.1.2\lvgl\src\lv_objx/lv_ta.c ****     /* `refr_cursor_area` is called at the end of lv_ta_set_text_align */
 765:..\..\..\lvgl\version_6.1.2\lvgl\src\lv_objx/lv_ta.c ****     lv_ta_set_text_align(ta, old_align);
 3040              		.loc 7 765 0
 3041 0164 97F82330 		ldrb	r3, [r7, #35]	@ zero_extendqisi2
 3042 0168 1946     		mov	r1, r3
ARM GAS  C:\Users\tmj32\AppData\Local\Temp\ccI3WYuM.s 			page 90


 3043 016a 7868     		ldr	r0, [r7, #4]
 3044 016c FFF7FEFF 		bl	lv_ta_set_text_align
 3045 0170 00E0     		b	.L138
 3046              	.L145:
 735:..\..\..\lvgl\version_6.1.2\lvgl\src\lv_objx/lv_ta.c ****     lv_label_align_t old_align = lv_label_get_align(ext->label);
 3047              		.loc 7 735 0
 3048 0172 00BF     		nop
 3049              	.L138:
 766:..\..\..\lvgl\version_6.1.2\lvgl\src\lv_objx/lv_ta.c **** }
 3050              		.loc 7 766 0
 3051 0174 2837     		adds	r7, r7, #40
 3052              		.cfi_def_cfa_offset 8
 3053 0176 BD46     		mov	sp, r7
 3054              		.cfi_def_cfa_register 13
 3055              		@ sp needed
 3056 0178 80BD     		pop	{r7, pc}
 3057              		.cfi_endproc
 3058              	.LFE67:
 3059              		.size	lv_ta_set_one_line, .-lv_ta_set_one_line
 3060 017a 00BF     		.section	.text.lv_ta_set_text_align,"ax",%progbits
 3061              		.align	2
 3062              		.global	lv_ta_set_text_align
 3063              		.thumb
 3064              		.thumb_func
 3065              		.type	lv_ta_set_text_align, %function
 3066              	lv_ta_set_text_align:
 3067              	.LFB68:
 767:..\..\..\lvgl\version_6.1.2\lvgl\src\lv_objx/lv_ta.c **** 
 768:..\..\..\lvgl\version_6.1.2\lvgl\src\lv_objx/lv_ta.c **** /**
 769:..\..\..\lvgl\version_6.1.2\lvgl\src\lv_objx/lv_ta.c ****  * Set the alignment of the text area.
 770:..\..\..\lvgl\version_6.1.2\lvgl\src\lv_objx/lv_ta.c ****  * In one line mode the text can be scrolled only with `LV_LABEL_ALIGN_LEFT`.
 771:..\..\..\lvgl\version_6.1.2\lvgl\src\lv_objx/lv_ta.c ****  * This function should be called if the size of text area changes.
 772:..\..\..\lvgl\version_6.1.2\lvgl\src\lv_objx/lv_ta.c ****  * @param ta pointer to a text are object
 773:..\..\..\lvgl\version_6.1.2\lvgl\src\lv_objx/lv_ta.c ****  * @param align the desired alignment from `lv_label_align_t`. (LV_LABEL_ALIGN_LEFT/CENTER/RIGHT)
 774:..\..\..\lvgl\version_6.1.2\lvgl\src\lv_objx/lv_ta.c ****  */
 775:..\..\..\lvgl\version_6.1.2\lvgl\src\lv_objx/lv_ta.c **** void lv_ta_set_text_align(lv_obj_t * ta, lv_label_align_t align)
 776:..\..\..\lvgl\version_6.1.2\lvgl\src\lv_objx/lv_ta.c **** {
 3068              		.loc 7 776 0
 3069              		.cfi_startproc
 3070              		@ args = 0, pretend = 0, frame = 16
 3071              		@ frame_needed = 1, uses_anonymous_args = 0
 3072 0000 80B5     		push	{r7, lr}
 3073              		.cfi_def_cfa_offset 8
 3074              		.cfi_offset 7, -8
 3075              		.cfi_offset 14, -4
 3076 0002 84B0     		sub	sp, sp, #16
 3077              		.cfi_def_cfa_offset 24
 3078 0004 00AF     		add	r7, sp, #0
 3079              		.cfi_def_cfa_register 7
 3080 0006 7860     		str	r0, [r7, #4]
 3081 0008 0B46     		mov	r3, r1
 3082 000a FB70     		strb	r3, [r7, #3]
 777:..\..\..\lvgl\version_6.1.2\lvgl\src\lv_objx/lv_ta.c ****     LV_ASSERT_OBJ(ta, LV_OBJX_NAME);
 778:..\..\..\lvgl\version_6.1.2\lvgl\src\lv_objx/lv_ta.c **** 
 779:..\..\..\lvgl\version_6.1.2\lvgl\src\lv_objx/lv_ta.c ****     lv_ta_ext_t * ext = lv_obj_get_ext_attr(ta);
 3083              		.loc 7 779 0
 3084 000c 7868     		ldr	r0, [r7, #4]
ARM GAS  C:\Users\tmj32\AppData\Local\Temp\ccI3WYuM.s 			page 91


 3085 000e FFF7FEFF 		bl	lv_obj_get_ext_attr
 3086 0012 F860     		str	r0, [r7, #12]
 780:..\..\..\lvgl\version_6.1.2\lvgl\src\lv_objx/lv_ta.c ****     lv_obj_t * label  = lv_ta_get_label(ta);
 3087              		.loc 7 780 0
 3088 0014 7868     		ldr	r0, [r7, #4]
 3089 0016 FFF7FEFF 		bl	lv_ta_get_label
 3090 001a B860     		str	r0, [r7, #8]
 781:..\..\..\lvgl\version_6.1.2\lvgl\src\lv_objx/lv_ta.c ****     if(!ext->one_line) {
 3091              		.loc 7 781 0
 3092 001c FB68     		ldr	r3, [r7, #12]
 3093 001e 93F85C30 		ldrb	r3, [r3, #92]	@ zero_extendqisi2
 3094 0022 03F00203 		and	r3, r3, #2
 3095 0026 DBB2     		uxtb	r3, r3
 3096 0028 002B     		cmp	r3, #0
 3097 002a 10D1     		bne	.L147
 782:..\..\..\lvgl\version_6.1.2\lvgl\src\lv_objx/lv_ta.c ****         lv_label_set_align(label, align);
 3098              		.loc 7 782 0
 3099 002c FB78     		ldrb	r3, [r7, #3]	@ zero_extendqisi2
 3100 002e 1946     		mov	r1, r3
 3101 0030 B868     		ldr	r0, [r7, #8]
 3102 0032 FFF7FEFF 		bl	lv_label_set_align
 783:..\..\..\lvgl\version_6.1.2\lvgl\src\lv_objx/lv_ta.c ****         if(ext->placeholder) lv_label_set_align(ext->placeholder, align);
 3103              		.loc 7 783 0
 3104 0036 FB68     		ldr	r3, [r7, #12]
 3105 0038 5B6B     		ldr	r3, [r3, #52]
 3106 003a 002B     		cmp	r3, #0
 3107 003c 45D0     		beq	.L149
 3108              		.loc 7 783 0 is_stmt 0 discriminator 1
 3109 003e FB68     		ldr	r3, [r7, #12]
 3110 0040 5B6B     		ldr	r3, [r3, #52]
 3111 0042 FA78     		ldrb	r2, [r7, #3]	@ zero_extendqisi2
 3112 0044 1146     		mov	r1, r2
 3113 0046 1846     		mov	r0, r3
 3114 0048 FFF7FEFF 		bl	lv_label_set_align
 3115 004c 3DE0     		b	.L149
 3116              	.L147:
 784:..\..\..\lvgl\version_6.1.2\lvgl\src\lv_objx/lv_ta.c ****     } else {
 785:..\..\..\lvgl\version_6.1.2\lvgl\src\lv_objx/lv_ta.c ****         /*Normal left align. Just let the text expand*/
 786:..\..\..\lvgl\version_6.1.2\lvgl\src\lv_objx/lv_ta.c ****         if(align == LV_LABEL_ALIGN_LEFT) {
 3117              		.loc 7 786 0 is_stmt 1
 3118 004e FB78     		ldrb	r3, [r7, #3]	@ zero_extendqisi2
 3119 0050 002B     		cmp	r3, #0
 3120 0052 19D1     		bne	.L150
 787:..\..\..\lvgl\version_6.1.2\lvgl\src\lv_objx/lv_ta.c ****             lv_label_set_long_mode(label, LV_LABEL_LONG_EXPAND);
 3121              		.loc 7 787 0
 3122 0054 0021     		movs	r1, #0
 3123 0056 B868     		ldr	r0, [r7, #8]
 3124 0058 FFF7FEFF 		bl	lv_label_set_long_mode
 788:..\..\..\lvgl\version_6.1.2\lvgl\src\lv_objx/lv_ta.c ****             lv_page_set_scrl_fit2(ta, LV_FIT_TIGHT, LV_FIT_FLOOD);
 3125              		.loc 7 788 0
 3126 005c 0222     		movs	r2, #2
 3127 005e 0121     		movs	r1, #1
 3128 0060 7868     		ldr	r0, [r7, #4]
 3129 0062 FFF7FEFF 		bl	lv_page_set_scrl_fit2
 789:..\..\..\lvgl\version_6.1.2\lvgl\src\lv_objx/lv_ta.c ****             lv_label_set_align(label, align);
 3130              		.loc 7 789 0
 3131 0066 FB78     		ldrb	r3, [r7, #3]	@ zero_extendqisi2
ARM GAS  C:\Users\tmj32\AppData\Local\Temp\ccI3WYuM.s 			page 92


 3132 0068 1946     		mov	r1, r3
 3133 006a B868     		ldr	r0, [r7, #8]
 3134 006c FFF7FEFF 		bl	lv_label_set_align
 790:..\..\..\lvgl\version_6.1.2\lvgl\src\lv_objx/lv_ta.c ****             if(ext->placeholder) lv_label_set_align(ext->placeholder, align);
 3135              		.loc 7 790 0
 3136 0070 FB68     		ldr	r3, [r7, #12]
 3137 0072 5B6B     		ldr	r3, [r3, #52]
 3138 0074 002B     		cmp	r3, #0
 3139 0076 28D0     		beq	.L149
 3140              		.loc 7 790 0 is_stmt 0 discriminator 1
 3141 0078 FB68     		ldr	r3, [r7, #12]
 3142 007a 5B6B     		ldr	r3, [r3, #52]
 3143 007c FA78     		ldrb	r2, [r7, #3]	@ zero_extendqisi2
 3144 007e 1146     		mov	r1, r2
 3145 0080 1846     		mov	r0, r3
 3146 0082 FFF7FEFF 		bl	lv_label_set_align
 3147 0086 20E0     		b	.L149
 3148              	.L150:
 791:..\..\..\lvgl\version_6.1.2\lvgl\src\lv_objx/lv_ta.c **** 
 792:..\..\..\lvgl\version_6.1.2\lvgl\src\lv_objx/lv_ta.c ****         }
 793:..\..\..\lvgl\version_6.1.2\lvgl\src\lv_objx/lv_ta.c ****         /*Else use fix label width equal to the Text area width*/
 794:..\..\..\lvgl\version_6.1.2\lvgl\src\lv_objx/lv_ta.c ****         else {
 795:..\..\..\lvgl\version_6.1.2\lvgl\src\lv_objx/lv_ta.c ****             lv_label_set_long_mode(label, LV_LABEL_LONG_CROP);
 3149              		.loc 7 795 0 is_stmt 1
 3150 0088 0521     		movs	r1, #5
 3151 008a B868     		ldr	r0, [r7, #8]
 3152 008c FFF7FEFF 		bl	lv_label_set_long_mode
 796:..\..\..\lvgl\version_6.1.2\lvgl\src\lv_objx/lv_ta.c ****             lv_page_set_scrl_fit2(ta, LV_FIT_FLOOD, LV_FIT_FLOOD);
 3153              		.loc 7 796 0
 3154 0090 0222     		movs	r2, #2
 3155 0092 0221     		movs	r1, #2
 3156 0094 7868     		ldr	r0, [r7, #4]
 3157 0096 FFF7FEFF 		bl	lv_page_set_scrl_fit2
 797:..\..\..\lvgl\version_6.1.2\lvgl\src\lv_objx/lv_ta.c ****             lv_label_set_align(label, align);
 3158              		.loc 7 797 0
 3159 009a FB78     		ldrb	r3, [r7, #3]	@ zero_extendqisi2
 3160 009c 1946     		mov	r1, r3
 3161 009e B868     		ldr	r0, [r7, #8]
 3162 00a0 FFF7FEFF 		bl	lv_label_set_align
 798:..\..\..\lvgl\version_6.1.2\lvgl\src\lv_objx/lv_ta.c ****             if(ext->placeholder) lv_label_set_align(ext->placeholder, align);
 3163              		.loc 7 798 0
 3164 00a4 FB68     		ldr	r3, [r7, #12]
 3165 00a6 5B6B     		ldr	r3, [r3, #52]
 3166 00a8 002B     		cmp	r3, #0
 3167 00aa 06D0     		beq	.L152
 3168              		.loc 7 798 0 is_stmt 0 discriminator 1
 3169 00ac FB68     		ldr	r3, [r7, #12]
 3170 00ae 5B6B     		ldr	r3, [r3, #52]
 3171 00b0 FA78     		ldrb	r2, [r7, #3]	@ zero_extendqisi2
 3172 00b2 1146     		mov	r1, r2
 3173 00b4 1846     		mov	r0, r3
 3174 00b6 FFF7FEFF 		bl	lv_label_set_align
 3175              	.L152:
 799:..\..\..\lvgl\version_6.1.2\lvgl\src\lv_objx/lv_ta.c **** 
 800:..\..\..\lvgl\version_6.1.2\lvgl\src\lv_objx/lv_ta.c ****             lv_obj_set_width(label, lv_page_get_fit_width(ta));
 3176              		.loc 7 800 0 is_stmt 1
 3177 00ba 7868     		ldr	r0, [r7, #4]
ARM GAS  C:\Users\tmj32\AppData\Local\Temp\ccI3WYuM.s 			page 93


 3178 00bc FFF7FEFF 		bl	lv_page_get_fit_width
 3179 00c0 0346     		mov	r3, r0
 3180 00c2 1946     		mov	r1, r3
 3181 00c4 B868     		ldr	r0, [r7, #8]
 3182 00c6 FFF7FEFF 		bl	lv_obj_set_width
 3183              	.L149:
 801:..\..\..\lvgl\version_6.1.2\lvgl\src\lv_objx/lv_ta.c ****         }
 802:..\..\..\lvgl\version_6.1.2\lvgl\src\lv_objx/lv_ta.c ****     }
 803:..\..\..\lvgl\version_6.1.2\lvgl\src\lv_objx/lv_ta.c **** 
 804:..\..\..\lvgl\version_6.1.2\lvgl\src\lv_objx/lv_ta.c ****     refr_cursor_area(ta);
 3184              		.loc 7 804 0
 3185 00ca 7868     		ldr	r0, [r7, #4]
 3186 00cc FFF7FEFF 		bl	refr_cursor_area
 805:..\..\..\lvgl\version_6.1.2\lvgl\src\lv_objx/lv_ta.c **** }
 3187              		.loc 7 805 0
 3188 00d0 00BF     		nop
 3189 00d2 1037     		adds	r7, r7, #16
 3190              		.cfi_def_cfa_offset 8
 3191 00d4 BD46     		mov	sp, r7
 3192              		.cfi_def_cfa_register 13
 3193              		@ sp needed
 3194 00d6 80BD     		pop	{r7, pc}
 3195              		.cfi_endproc
 3196              	.LFE68:
 3197              		.size	lv_ta_set_text_align, .-lv_ta_set_text_align
 3198              		.section	.text.lv_ta_set_accepted_chars,"ax",%progbits
 3199              		.align	2
 3200              		.global	lv_ta_set_accepted_chars
 3201              		.thumb
 3202              		.thumb_func
 3203              		.type	lv_ta_set_accepted_chars, %function
 3204              	lv_ta_set_accepted_chars:
 3205              	.LFB69:
 806:..\..\..\lvgl\version_6.1.2\lvgl\src\lv_objx/lv_ta.c **** 
 807:..\..\..\lvgl\version_6.1.2\lvgl\src\lv_objx/lv_ta.c **** /**
 808:..\..\..\lvgl\version_6.1.2\lvgl\src\lv_objx/lv_ta.c ****  * Set a list of characters. Only these characters will be accepted by the text area
 809:..\..\..\lvgl\version_6.1.2\lvgl\src\lv_objx/lv_ta.c ****  * @param ta pointer to  Text Area
 810:..\..\..\lvgl\version_6.1.2\lvgl\src\lv_objx/lv_ta.c ****  * @param list list of characters. Only the pointer is saved. E.g. "+-.,0123456789"
 811:..\..\..\lvgl\version_6.1.2\lvgl\src\lv_objx/lv_ta.c ****  */
 812:..\..\..\lvgl\version_6.1.2\lvgl\src\lv_objx/lv_ta.c **** void lv_ta_set_accepted_chars(lv_obj_t * ta, const char * list)
 813:..\..\..\lvgl\version_6.1.2\lvgl\src\lv_objx/lv_ta.c **** {
 3206              		.loc 7 813 0
 3207              		.cfi_startproc
 3208              		@ args = 0, pretend = 0, frame = 16
 3209              		@ frame_needed = 1, uses_anonymous_args = 0
 3210 0000 80B5     		push	{r7, lr}
 3211              		.cfi_def_cfa_offset 8
 3212              		.cfi_offset 7, -8
 3213              		.cfi_offset 14, -4
 3214 0002 84B0     		sub	sp, sp, #16
 3215              		.cfi_def_cfa_offset 24
 3216 0004 00AF     		add	r7, sp, #0
 3217              		.cfi_def_cfa_register 7
 3218 0006 7860     		str	r0, [r7, #4]
 3219 0008 3960     		str	r1, [r7]
 814:..\..\..\lvgl\version_6.1.2\lvgl\src\lv_objx/lv_ta.c ****     LV_ASSERT_OBJ(ta, LV_OBJX_NAME);
 815:..\..\..\lvgl\version_6.1.2\lvgl\src\lv_objx/lv_ta.c **** 
ARM GAS  C:\Users\tmj32\AppData\Local\Temp\ccI3WYuM.s 			page 94


 816:..\..\..\lvgl\version_6.1.2\lvgl\src\lv_objx/lv_ta.c ****     lv_ta_ext_t * ext = lv_obj_get_ext_attr(ta);
 3220              		.loc 7 816 0
 3221 000a 7868     		ldr	r0, [r7, #4]
 3222 000c FFF7FEFF 		bl	lv_obj_get_ext_attr
 3223 0010 F860     		str	r0, [r7, #12]
 817:..\..\..\lvgl\version_6.1.2\lvgl\src\lv_objx/lv_ta.c **** 
 818:..\..\..\lvgl\version_6.1.2\lvgl\src\lv_objx/lv_ta.c ****     ext->accapted_chars = list;
 3224              		.loc 7 818 0
 3225 0012 FB68     		ldr	r3, [r7, #12]
 3226 0014 3A68     		ldr	r2, [r7]
 3227 0016 DA63     		str	r2, [r3, #60]
 819:..\..\..\lvgl\version_6.1.2\lvgl\src\lv_objx/lv_ta.c **** }
 3228              		.loc 7 819 0
 3229 0018 00BF     		nop
 3230 001a 1037     		adds	r7, r7, #16
 3231              		.cfi_def_cfa_offset 8
 3232 001c BD46     		mov	sp, r7
 3233              		.cfi_def_cfa_register 13
 3234              		@ sp needed
 3235 001e 80BD     		pop	{r7, pc}
 3236              		.cfi_endproc
 3237              	.LFE69:
 3238              		.size	lv_ta_set_accepted_chars, .-lv_ta_set_accepted_chars
 3239              		.section	.text.lv_ta_set_max_length,"ax",%progbits
 3240              		.align	2
 3241              		.global	lv_ta_set_max_length
 3242              		.thumb
 3243              		.thumb_func
 3244              		.type	lv_ta_set_max_length, %function
 3245              	lv_ta_set_max_length:
 3246              	.LFB70:
 820:..\..\..\lvgl\version_6.1.2\lvgl\src\lv_objx/lv_ta.c **** 
 821:..\..\..\lvgl\version_6.1.2\lvgl\src\lv_objx/lv_ta.c **** /**
 822:..\..\..\lvgl\version_6.1.2\lvgl\src\lv_objx/lv_ta.c ****  * Set max length of a Text Area.
 823:..\..\..\lvgl\version_6.1.2\lvgl\src\lv_objx/lv_ta.c ****  * @param ta pointer to  Text Area
 824:..\..\..\lvgl\version_6.1.2\lvgl\src\lv_objx/lv_ta.c ****  * @param num the maximal number of characters can be added (`lv_ta_set_text` ignores it)
 825:..\..\..\lvgl\version_6.1.2\lvgl\src\lv_objx/lv_ta.c ****  */
 826:..\..\..\lvgl\version_6.1.2\lvgl\src\lv_objx/lv_ta.c **** void lv_ta_set_max_length(lv_obj_t * ta, uint16_t num)
 827:..\..\..\lvgl\version_6.1.2\lvgl\src\lv_objx/lv_ta.c **** {
 3247              		.loc 7 827 0
 3248              		.cfi_startproc
 3249              		@ args = 0, pretend = 0, frame = 16
 3250              		@ frame_needed = 1, uses_anonymous_args = 0
 3251 0000 80B5     		push	{r7, lr}
 3252              		.cfi_def_cfa_offset 8
 3253              		.cfi_offset 7, -8
 3254              		.cfi_offset 14, -4
 3255 0002 84B0     		sub	sp, sp, #16
 3256              		.cfi_def_cfa_offset 24
 3257 0004 00AF     		add	r7, sp, #0
 3258              		.cfi_def_cfa_register 7
 3259 0006 7860     		str	r0, [r7, #4]
 3260 0008 0B46     		mov	r3, r1
 3261 000a 7B80     		strh	r3, [r7, #2]	@ movhi
 828:..\..\..\lvgl\version_6.1.2\lvgl\src\lv_objx/lv_ta.c ****     LV_ASSERT_OBJ(ta, LV_OBJX_NAME);
 829:..\..\..\lvgl\version_6.1.2\lvgl\src\lv_objx/lv_ta.c **** 
 830:..\..\..\lvgl\version_6.1.2\lvgl\src\lv_objx/lv_ta.c ****     lv_ta_ext_t * ext = lv_obj_get_ext_attr(ta);
ARM GAS  C:\Users\tmj32\AppData\Local\Temp\ccI3WYuM.s 			page 95


 3262              		.loc 7 830 0
 3263 000c 7868     		ldr	r0, [r7, #4]
 3264 000e FFF7FEFF 		bl	lv_obj_get_ext_attr
 3265 0012 F860     		str	r0, [r7, #12]
 831:..\..\..\lvgl\version_6.1.2\lvgl\src\lv_objx/lv_ta.c **** 
 832:..\..\..\lvgl\version_6.1.2\lvgl\src\lv_objx/lv_ta.c ****     ext->max_length = num;
 3266              		.loc 7 832 0
 3267 0014 FB68     		ldr	r3, [r7, #12]
 3268 0016 7A88     		ldrh	r2, [r7, #2]	@ movhi
 3269 0018 A3F84020 		strh	r2, [r3, #64]	@ movhi
 833:..\..\..\lvgl\version_6.1.2\lvgl\src\lv_objx/lv_ta.c **** }
 3270              		.loc 7 833 0
 3271 001c 00BF     		nop
 3272 001e 1037     		adds	r7, r7, #16
 3273              		.cfi_def_cfa_offset 8
 3274 0020 BD46     		mov	sp, r7
 3275              		.cfi_def_cfa_register 13
 3276              		@ sp needed
 3277 0022 80BD     		pop	{r7, pc}
 3278              		.cfi_endproc
 3279              	.LFE70:
 3280              		.size	lv_ta_set_max_length, .-lv_ta_set_max_length
 3281              		.section	.text.lv_ta_set_insert_replace,"ax",%progbits
 3282              		.align	2
 3283              		.global	lv_ta_set_insert_replace
 3284              		.thumb
 3285              		.thumb_func
 3286              		.type	lv_ta_set_insert_replace, %function
 3287              	lv_ta_set_insert_replace:
 3288              	.LFB71:
 834:..\..\..\lvgl\version_6.1.2\lvgl\src\lv_objx/lv_ta.c **** 
 835:..\..\..\lvgl\version_6.1.2\lvgl\src\lv_objx/lv_ta.c **** /**
 836:..\..\..\lvgl\version_6.1.2\lvgl\src\lv_objx/lv_ta.c ****  * In `LV_EVENT_INSERT` the text which planned to be inserted can be replaced by an other text.
 837:..\..\..\lvgl\version_6.1.2\lvgl\src\lv_objx/lv_ta.c ****  * It can be used to add automatic formatting to the text area.
 838:..\..\..\lvgl\version_6.1.2\lvgl\src\lv_objx/lv_ta.c ****  * @param ta pointer to a text area.
 839:..\..\..\lvgl\version_6.1.2\lvgl\src\lv_objx/lv_ta.c ****  * @param txt pointer to a new string to insert. If `""` no text will be added.
 840:..\..\..\lvgl\version_6.1.2\lvgl\src\lv_objx/lv_ta.c ****  *            The variable must be live after the `event_cb` exists. (Should be `global` or
 841:..\..\..\lvgl\version_6.1.2\lvgl\src\lv_objx/lv_ta.c ****  * `static`)
 842:..\..\..\lvgl\version_6.1.2\lvgl\src\lv_objx/lv_ta.c ****  */
 843:..\..\..\lvgl\version_6.1.2\lvgl\src\lv_objx/lv_ta.c **** void lv_ta_set_insert_replace(lv_obj_t * ta, const char * txt)
 844:..\..\..\lvgl\version_6.1.2\lvgl\src\lv_objx/lv_ta.c **** {
 3289              		.loc 7 844 0
 3290              		.cfi_startproc
 3291              		@ args = 0, pretend = 0, frame = 8
 3292              		@ frame_needed = 1, uses_anonymous_args = 0
 3293              		@ link register save eliminated.
 3294 0000 80B4     		push	{r7}
 3295              		.cfi_def_cfa_offset 4
 3296              		.cfi_offset 7, -4
 3297 0002 83B0     		sub	sp, sp, #12
 3298              		.cfi_def_cfa_offset 16
 3299 0004 00AF     		add	r7, sp, #0
 3300              		.cfi_def_cfa_register 7
 3301 0006 7860     		str	r0, [r7, #4]
 3302 0008 3960     		str	r1, [r7]
 845:..\..\..\lvgl\version_6.1.2\lvgl\src\lv_objx/lv_ta.c ****     LV_ASSERT_OBJ(ta, LV_OBJX_NAME);
 846:..\..\..\lvgl\version_6.1.2\lvgl\src\lv_objx/lv_ta.c **** 
ARM GAS  C:\Users\tmj32\AppData\Local\Temp\ccI3WYuM.s 			page 96


 847:..\..\..\lvgl\version_6.1.2\lvgl\src\lv_objx/lv_ta.c ****     (void)ta; /*Unused*/
 848:..\..\..\lvgl\version_6.1.2\lvgl\src\lv_objx/lv_ta.c ****     ta_insert_replace = txt;
 3303              		.loc 7 848 0
 3304 000a 044A     		ldr	r2, .L156
 3305 000c 3B68     		ldr	r3, [r7]
 3306 000e 1360     		str	r3, [r2]
 849:..\..\..\lvgl\version_6.1.2\lvgl\src\lv_objx/lv_ta.c **** }
 3307              		.loc 7 849 0
 3308 0010 00BF     		nop
 3309 0012 0C37     		adds	r7, r7, #12
 3310              		.cfi_def_cfa_offset 4
 3311 0014 BD46     		mov	sp, r7
 3312              		.cfi_def_cfa_register 13
 3313              		@ sp needed
 3314 0016 5DF8047B 		ldr	r7, [sp], #4
 3315              		.cfi_restore 7
 3316              		.cfi_def_cfa_offset 0
 3317 001a 7047     		bx	lr
 3318              	.L157:
 3319              		.align	2
 3320              	.L156:
 3321 001c 10000000 		.word	ta_insert_replace
 3322              		.cfi_endproc
 3323              	.LFE71:
 3324              		.size	lv_ta_set_insert_replace, .-lv_ta_set_insert_replace
 3325              		.section	.text.lv_ta_set_style,"ax",%progbits
 3326              		.align	2
 3327              		.global	lv_ta_set_style
 3328              		.thumb
 3329              		.thumb_func
 3330              		.type	lv_ta_set_style, %function
 3331              	lv_ta_set_style:
 3332              	.LFB72:
 850:..\..\..\lvgl\version_6.1.2\lvgl\src\lv_objx/lv_ta.c **** 
 851:..\..\..\lvgl\version_6.1.2\lvgl\src\lv_objx/lv_ta.c **** /**
 852:..\..\..\lvgl\version_6.1.2\lvgl\src\lv_objx/lv_ta.c ****  * Set a style of a text area
 853:..\..\..\lvgl\version_6.1.2\lvgl\src\lv_objx/lv_ta.c ****  * @param ta pointer to a text area object
 854:..\..\..\lvgl\version_6.1.2\lvgl\src\lv_objx/lv_ta.c ****  * @param type which style should be set
 855:..\..\..\lvgl\version_6.1.2\lvgl\src\lv_objx/lv_ta.c ****  * @param style pointer to a style
 856:..\..\..\lvgl\version_6.1.2\lvgl\src\lv_objx/lv_ta.c ****  */
 857:..\..\..\lvgl\version_6.1.2\lvgl\src\lv_objx/lv_ta.c **** void lv_ta_set_style(lv_obj_t * ta, lv_ta_style_t type, const lv_style_t * style)
 858:..\..\..\lvgl\version_6.1.2\lvgl\src\lv_objx/lv_ta.c **** {
 3333              		.loc 7 858 0
 3334              		.cfi_startproc
 3335              		@ args = 0, pretend = 0, frame = 24
 3336              		@ frame_needed = 1, uses_anonymous_args = 0
 3337 0000 80B5     		push	{r7, lr}
 3338              		.cfi_def_cfa_offset 8
 3339              		.cfi_offset 7, -8
 3340              		.cfi_offset 14, -4
 3341 0002 86B0     		sub	sp, sp, #24
 3342              		.cfi_def_cfa_offset 32
 3343 0004 00AF     		add	r7, sp, #0
 3344              		.cfi_def_cfa_register 7
 3345 0006 F860     		str	r0, [r7, #12]
 3346 0008 0B46     		mov	r3, r1
 3347 000a 7A60     		str	r2, [r7, #4]
ARM GAS  C:\Users\tmj32\AppData\Local\Temp\ccI3WYuM.s 			page 97


 3348 000c FB72     		strb	r3, [r7, #11]
 859:..\..\..\lvgl\version_6.1.2\lvgl\src\lv_objx/lv_ta.c ****     LV_ASSERT_OBJ(ta, LV_OBJX_NAME);
 860:..\..\..\lvgl\version_6.1.2\lvgl\src\lv_objx/lv_ta.c **** 
 861:..\..\..\lvgl\version_6.1.2\lvgl\src\lv_objx/lv_ta.c ****     lv_ta_ext_t * ext = lv_obj_get_ext_attr(ta);
 3349              		.loc 7 861 0
 3350 000e F868     		ldr	r0, [r7, #12]
 3351 0010 FFF7FEFF 		bl	lv_obj_get_ext_attr
 3352 0014 7861     		str	r0, [r7, #20]
 862:..\..\..\lvgl\version_6.1.2\lvgl\src\lv_objx/lv_ta.c **** 
 863:..\..\..\lvgl\version_6.1.2\lvgl\src\lv_objx/lv_ta.c ****     switch(type) {
 3353              		.loc 7 863 0
 3354 0016 FB7A     		ldrb	r3, [r7, #11]	@ zero_extendqisi2
 3355 0018 042B     		cmp	r3, #4
 3356 001a 39D8     		bhi	.L167
 3357 001c 01A2     		adr	r2, .L161
 3358 001e 52F823F0 		ldr	pc, [r2, r3, lsl #2]
 3359 0022 00BF     		.p2align 2
 3360              	.L161:
 3361 0024 39000000 		.word	.L160+1
 3362 0028 45000000 		.word	.L162+1
 3363 002c 5D000000 		.word	.L163+1
 3364 0030 51000000 		.word	.L164+1
 3365 0034 79000000 		.word	.L165+1
 3366              		.p2align 1
 3367              	.L160:
 864:..\..\..\lvgl\version_6.1.2\lvgl\src\lv_objx/lv_ta.c ****         case LV_TA_STYLE_BG: lv_page_set_style(ta, LV_PAGE_STYLE_BG, style); break;
 3368              		.loc 7 864 0
 3369 0038 7A68     		ldr	r2, [r7, #4]
 3370 003a 0021     		movs	r1, #0
 3371 003c F868     		ldr	r0, [r7, #12]
 3372 003e FFF7FEFF 		bl	lv_page_set_style
 3373 0042 25E0     		b	.L159
 3374              	.L162:
 865:..\..\..\lvgl\version_6.1.2\lvgl\src\lv_objx/lv_ta.c ****         case LV_TA_STYLE_SB: lv_page_set_style(ta, LV_PAGE_STYLE_SB, style); break;
 3375              		.loc 7 865 0
 3376 0044 7A68     		ldr	r2, [r7, #4]
 3377 0046 0221     		movs	r1, #2
 3378 0048 F868     		ldr	r0, [r7, #12]
 3379 004a FFF7FEFF 		bl	lv_page_set_style
 3380 004e 1FE0     		b	.L159
 3381              	.L164:
 866:..\..\..\lvgl\version_6.1.2\lvgl\src\lv_objx/lv_ta.c ****         case LV_TA_STYLE_EDGE_FLASH: lv_page_set_style(ta, LV_PAGE_STYLE_EDGE_FLASH, style); break;
 3382              		.loc 7 866 0
 3383 0050 7A68     		ldr	r2, [r7, #4]
 3384 0052 0321     		movs	r1, #3
 3385 0054 F868     		ldr	r0, [r7, #12]
 3386 0056 FFF7FEFF 		bl	lv_page_set_style
 3387 005a 19E0     		b	.L159
 3388              	.L163:
 867:..\..\..\lvgl\version_6.1.2\lvgl\src\lv_objx/lv_ta.c ****         case LV_TA_STYLE_CURSOR:
 868:..\..\..\lvgl\version_6.1.2\lvgl\src\lv_objx/lv_ta.c ****             ext->cursor.style = style;
 3389              		.loc 7 868 0
 3390 005c 7B69     		ldr	r3, [r7, #20]
 3391 005e 7A68     		ldr	r2, [r7, #4]
 3392 0060 5A64     		str	r2, [r3, #68]
 869:..\..\..\lvgl\version_6.1.2\lvgl\src\lv_objx/lv_ta.c ****             lv_obj_refresh_ext_draw_pad(lv_page_get_scrl(ta)); /*Refresh ext. size because of curso
 3393              		.loc 7 869 0
ARM GAS  C:\Users\tmj32\AppData\Local\Temp\ccI3WYuM.s 			page 98


 3394 0062 F868     		ldr	r0, [r7, #12]
 3395 0064 FFF7FEFF 		bl	lv_page_get_scrl
 3396 0068 0346     		mov	r3, r0
 3397 006a 1846     		mov	r0, r3
 3398 006c FFF7FEFF 		bl	lv_obj_refresh_ext_draw_pad
 870:..\..\..\lvgl\version_6.1.2\lvgl\src\lv_objx/lv_ta.c ****             refr_cursor_area(ta);
 3399              		.loc 7 870 0
 3400 0070 F868     		ldr	r0, [r7, #12]
 3401 0072 FFF7FEFF 		bl	refr_cursor_area
 871:..\..\..\lvgl\version_6.1.2\lvgl\src\lv_objx/lv_ta.c ****             break;
 3402              		.loc 7 871 0
 3403 0076 0BE0     		b	.L159
 3404              	.L165:
 872:..\..\..\lvgl\version_6.1.2\lvgl\src\lv_objx/lv_ta.c ****         case LV_TA_STYLE_PLACEHOLDER:
 873:..\..\..\lvgl\version_6.1.2\lvgl\src\lv_objx/lv_ta.c ****             if(ext->placeholder) lv_label_set_style(ext->placeholder, LV_LABEL_STYLE_MAIN, style);
 3405              		.loc 7 873 0
 3406 0078 7B69     		ldr	r3, [r7, #20]
 3407 007a 5B6B     		ldr	r3, [r3, #52]
 3408 007c 002B     		cmp	r3, #0
 3409 007e 06D0     		beq	.L168
 3410              		.loc 7 873 0 is_stmt 0 discriminator 1
 3411 0080 7B69     		ldr	r3, [r7, #20]
 3412 0082 5B6B     		ldr	r3, [r3, #52]
 3413 0084 7A68     		ldr	r2, [r7, #4]
 3414 0086 0021     		movs	r1, #0
 3415 0088 1846     		mov	r0, r3
 3416 008a FFF7FEFF 		bl	lv_label_set_style
 3417              	.L168:
 874:..\..\..\lvgl\version_6.1.2\lvgl\src\lv_objx/lv_ta.c ****             break;
 3418              		.loc 7 874 0 is_stmt 1
 3419 008e 00BF     		nop
 3420              	.L159:
 3421              	.L167:
 875:..\..\..\lvgl\version_6.1.2\lvgl\src\lv_objx/lv_ta.c ****     }
 876:..\..\..\lvgl\version_6.1.2\lvgl\src\lv_objx/lv_ta.c **** }
 3422              		.loc 7 876 0
 3423 0090 00BF     		nop
 3424 0092 1837     		adds	r7, r7, #24
 3425              		.cfi_def_cfa_offset 8
 3426 0094 BD46     		mov	sp, r7
 3427              		.cfi_def_cfa_register 13
 3428              		@ sp needed
 3429 0096 80BD     		pop	{r7, pc}
 3430              		.cfi_endproc
 3431              	.LFE72:
 3432              		.size	lv_ta_set_style, .-lv_ta_set_style
 3433              		.section	.text.lv_ta_set_text_sel,"ax",%progbits
 3434              		.align	2
 3435              		.global	lv_ta_set_text_sel
 3436              		.thumb
 3437              		.thumb_func
 3438              		.type	lv_ta_set_text_sel, %function
 3439              	lv_ta_set_text_sel:
 3440              	.LFB73:
 877:..\..\..\lvgl\version_6.1.2\lvgl\src\lv_objx/lv_ta.c **** 
 878:..\..\..\lvgl\version_6.1.2\lvgl\src\lv_objx/lv_ta.c **** /**
 879:..\..\..\lvgl\version_6.1.2\lvgl\src\lv_objx/lv_ta.c ****  * Enable/disable selection mode.
ARM GAS  C:\Users\tmj32\AppData\Local\Temp\ccI3WYuM.s 			page 99


 880:..\..\..\lvgl\version_6.1.2\lvgl\src\lv_objx/lv_ta.c ****  * @param ta pointer to a text area object
 881:..\..\..\lvgl\version_6.1.2\lvgl\src\lv_objx/lv_ta.c ****  * @param en true or false to enable/disable selection mode
 882:..\..\..\lvgl\version_6.1.2\lvgl\src\lv_objx/lv_ta.c ****  */
 883:..\..\..\lvgl\version_6.1.2\lvgl\src\lv_objx/lv_ta.c **** void lv_ta_set_text_sel(lv_obj_t * ta, bool en)
 884:..\..\..\lvgl\version_6.1.2\lvgl\src\lv_objx/lv_ta.c **** {
 3441              		.loc 7 884 0
 3442              		.cfi_startproc
 3443              		@ args = 0, pretend = 0, frame = 8
 3444              		@ frame_needed = 1, uses_anonymous_args = 0
 3445              		@ link register save eliminated.
 3446 0000 80B4     		push	{r7}
 3447              		.cfi_def_cfa_offset 4
 3448              		.cfi_offset 7, -4
 3449 0002 83B0     		sub	sp, sp, #12
 3450              		.cfi_def_cfa_offset 16
 3451 0004 00AF     		add	r7, sp, #0
 3452              		.cfi_def_cfa_register 7
 3453 0006 7860     		str	r0, [r7, #4]
 3454 0008 0B46     		mov	r3, r1
 3455 000a FB70     		strb	r3, [r7, #3]
 885:..\..\..\lvgl\version_6.1.2\lvgl\src\lv_objx/lv_ta.c ****     LV_ASSERT_OBJ(ta, LV_OBJX_NAME);
 886:..\..\..\lvgl\version_6.1.2\lvgl\src\lv_objx/lv_ta.c **** 
 887:..\..\..\lvgl\version_6.1.2\lvgl\src\lv_objx/lv_ta.c **** #if LV_LABEL_TEXT_SEL
 888:..\..\..\lvgl\version_6.1.2\lvgl\src\lv_objx/lv_ta.c ****     lv_ta_ext_t * ext = lv_obj_get_ext_attr(ta);
 889:..\..\..\lvgl\version_6.1.2\lvgl\src\lv_objx/lv_ta.c **** 
 890:..\..\..\lvgl\version_6.1.2\lvgl\src\lv_objx/lv_ta.c ****     ext->text_sel_en = en;
 891:..\..\..\lvgl\version_6.1.2\lvgl\src\lv_objx/lv_ta.c **** 
 892:..\..\..\lvgl\version_6.1.2\lvgl\src\lv_objx/lv_ta.c ****     if(!en) lv_ta_clear_selection(ta);
 893:..\..\..\lvgl\version_6.1.2\lvgl\src\lv_objx/lv_ta.c **** #else
 894:..\..\..\lvgl\version_6.1.2\lvgl\src\lv_objx/lv_ta.c ****     (void)ta; /*Unused*/
 895:..\..\..\lvgl\version_6.1.2\lvgl\src\lv_objx/lv_ta.c ****     (void)en; /*Unused*/
 896:..\..\..\lvgl\version_6.1.2\lvgl\src\lv_objx/lv_ta.c **** #endif
 897:..\..\..\lvgl\version_6.1.2\lvgl\src\lv_objx/lv_ta.c **** }
 3456              		.loc 7 897 0
 3457 000c 00BF     		nop
 3458 000e 0C37     		adds	r7, r7, #12
 3459              		.cfi_def_cfa_offset 4
 3460 0010 BD46     		mov	sp, r7
 3461              		.cfi_def_cfa_register 13
 3462              		@ sp needed
 3463 0012 5DF8047B 		ldr	r7, [sp], #4
 3464              		.cfi_restore 7
 3465              		.cfi_def_cfa_offset 0
 3466 0016 7047     		bx	lr
 3467              		.cfi_endproc
 3468              	.LFE73:
 3469              		.size	lv_ta_set_text_sel, .-lv_ta_set_text_sel
 3470              		.section	.text.lv_ta_set_pwd_show_time,"ax",%progbits
 3471              		.align	2
 3472              		.global	lv_ta_set_pwd_show_time
 3473              		.thumb
 3474              		.thumb_func
 3475              		.type	lv_ta_set_pwd_show_time, %function
 3476              	lv_ta_set_pwd_show_time:
 3477              	.LFB74:
 898:..\..\..\lvgl\version_6.1.2\lvgl\src\lv_objx/lv_ta.c **** 
 899:..\..\..\lvgl\version_6.1.2\lvgl\src\lv_objx/lv_ta.c **** /**
ARM GAS  C:\Users\tmj32\AppData\Local\Temp\ccI3WYuM.s 			page 100


 900:..\..\..\lvgl\version_6.1.2\lvgl\src\lv_objx/lv_ta.c ****  * Set how long show the password before changing it to '*'
 901:..\..\..\lvgl\version_6.1.2\lvgl\src\lv_objx/lv_ta.c ****  * @param ta pointer to Text area
 902:..\..\..\lvgl\version_6.1.2\lvgl\src\lv_objx/lv_ta.c ****  * @param time show time in milliseconds. 0: hide immediately.
 903:..\..\..\lvgl\version_6.1.2\lvgl\src\lv_objx/lv_ta.c ****  */
 904:..\..\..\lvgl\version_6.1.2\lvgl\src\lv_objx/lv_ta.c **** void lv_ta_set_pwd_show_time(lv_obj_t * ta, uint16_t time)
 905:..\..\..\lvgl\version_6.1.2\lvgl\src\lv_objx/lv_ta.c **** {
 3478              		.loc 7 905 0
 3479              		.cfi_startproc
 3480              		@ args = 0, pretend = 0, frame = 16
 3481              		@ frame_needed = 1, uses_anonymous_args = 0
 3482 0000 80B5     		push	{r7, lr}
 3483              		.cfi_def_cfa_offset 8
 3484              		.cfi_offset 7, -8
 3485              		.cfi_offset 14, -4
 3486 0002 84B0     		sub	sp, sp, #16
 3487              		.cfi_def_cfa_offset 24
 3488 0004 00AF     		add	r7, sp, #0
 3489              		.cfi_def_cfa_register 7
 3490 0006 7860     		str	r0, [r7, #4]
 3491 0008 0B46     		mov	r3, r1
 3492 000a 7B80     		strh	r3, [r7, #2]	@ movhi
 906:..\..\..\lvgl\version_6.1.2\lvgl\src\lv_objx/lv_ta.c ****     LV_ASSERT_OBJ(ta, LV_OBJX_NAME);
 907:..\..\..\lvgl\version_6.1.2\lvgl\src\lv_objx/lv_ta.c **** 
 908:..\..\..\lvgl\version_6.1.2\lvgl\src\lv_objx/lv_ta.c **** #if LV_USE_ANIMATION == 0
 909:..\..\..\lvgl\version_6.1.2\lvgl\src\lv_objx/lv_ta.c ****     time = 0;
 910:..\..\..\lvgl\version_6.1.2\lvgl\src\lv_objx/lv_ta.c **** #endif
 911:..\..\..\lvgl\version_6.1.2\lvgl\src\lv_objx/lv_ta.c **** 
 912:..\..\..\lvgl\version_6.1.2\lvgl\src\lv_objx/lv_ta.c ****     lv_ta_ext_t * ext  = lv_obj_get_ext_attr(ta);
 3493              		.loc 7 912 0
 3494 000c 7868     		ldr	r0, [r7, #4]
 3495 000e FFF7FEFF 		bl	lv_obj_get_ext_attr
 3496 0012 F860     		str	r0, [r7, #12]
 913:..\..\..\lvgl\version_6.1.2\lvgl\src\lv_objx/lv_ta.c ****     ext->pwd_show_time = time;
 3497              		.loc 7 913 0
 3498 0014 FB68     		ldr	r3, [r7, #12]
 3499 0016 7A88     		ldrh	r2, [r7, #2]	@ movhi
 3500 0018 A3F84220 		strh	r2, [r3, #66]	@ movhi
 914:..\..\..\lvgl\version_6.1.2\lvgl\src\lv_objx/lv_ta.c **** }
 3501              		.loc 7 914 0
 3502 001c 00BF     		nop
 3503 001e 1037     		adds	r7, r7, #16
 3504              		.cfi_def_cfa_offset 8
 3505 0020 BD46     		mov	sp, r7
 3506              		.cfi_def_cfa_register 13
 3507              		@ sp needed
 3508 0022 80BD     		pop	{r7, pc}
 3509              		.cfi_endproc
 3510              	.LFE74:
 3511              		.size	lv_ta_set_pwd_show_time, .-lv_ta_set_pwd_show_time
 3512              		.section	.text.lv_ta_set_cursor_blink_time,"ax",%progbits
 3513              		.align	2
 3514              		.global	lv_ta_set_cursor_blink_time
 3515              		.thumb
 3516              		.thumb_func
 3517              		.type	lv_ta_set_cursor_blink_time, %function
 3518              	lv_ta_set_cursor_blink_time:
 3519              	.LFB75:
ARM GAS  C:\Users\tmj32\AppData\Local\Temp\ccI3WYuM.s 			page 101


 915:..\..\..\lvgl\version_6.1.2\lvgl\src\lv_objx/lv_ta.c **** 
 916:..\..\..\lvgl\version_6.1.2\lvgl\src\lv_objx/lv_ta.c **** /**
 917:..\..\..\lvgl\version_6.1.2\lvgl\src\lv_objx/lv_ta.c ****  * Set cursor blink animation time
 918:..\..\..\lvgl\version_6.1.2\lvgl\src\lv_objx/lv_ta.c ****  * @param ta pointer to Text area
 919:..\..\..\lvgl\version_6.1.2\lvgl\src\lv_objx/lv_ta.c ****  * @param time blink period. 0: disable blinking
 920:..\..\..\lvgl\version_6.1.2\lvgl\src\lv_objx/lv_ta.c ****  */
 921:..\..\..\lvgl\version_6.1.2\lvgl\src\lv_objx/lv_ta.c **** void lv_ta_set_cursor_blink_time(lv_obj_t * ta, uint16_t time)
 922:..\..\..\lvgl\version_6.1.2\lvgl\src\lv_objx/lv_ta.c **** {
 3520              		.loc 7 922 0
 3521              		.cfi_startproc
 3522              		@ args = 0, pretend = 0, frame = 48
 3523              		@ frame_needed = 1, uses_anonymous_args = 0
 3524 0000 80B5     		push	{r7, lr}
 3525              		.cfi_def_cfa_offset 8
 3526              		.cfi_offset 7, -8
 3527              		.cfi_offset 14, -4
 3528 0002 8CB0     		sub	sp, sp, #48
 3529              		.cfi_def_cfa_offset 56
 3530 0004 00AF     		add	r7, sp, #0
 3531              		.cfi_def_cfa_register 7
 3532 0006 7860     		str	r0, [r7, #4]
 3533 0008 0B46     		mov	r3, r1
 3534 000a 7B80     		strh	r3, [r7, #2]	@ movhi
 923:..\..\..\lvgl\version_6.1.2\lvgl\src\lv_objx/lv_ta.c ****     LV_ASSERT_OBJ(ta, LV_OBJX_NAME);
 924:..\..\..\lvgl\version_6.1.2\lvgl\src\lv_objx/lv_ta.c **** 
 925:..\..\..\lvgl\version_6.1.2\lvgl\src\lv_objx/lv_ta.c **** #if LV_USE_ANIMATION == 0
 926:..\..\..\lvgl\version_6.1.2\lvgl\src\lv_objx/lv_ta.c ****     time = 0;
 927:..\..\..\lvgl\version_6.1.2\lvgl\src\lv_objx/lv_ta.c **** #endif
 928:..\..\..\lvgl\version_6.1.2\lvgl\src\lv_objx/lv_ta.c **** 
 929:..\..\..\lvgl\version_6.1.2\lvgl\src\lv_objx/lv_ta.c ****     lv_ta_ext_t * ext      = lv_obj_get_ext_attr(ta);
 3535              		.loc 7 929 0
 3536 000c 7868     		ldr	r0, [r7, #4]
 3537 000e FFF7FEFF 		bl	lv_obj_get_ext_attr
 3538 0012 F862     		str	r0, [r7, #44]
 930:..\..\..\lvgl\version_6.1.2\lvgl\src\lv_objx/lv_ta.c ****     ext->cursor.blink_time = time;
 3539              		.loc 7 930 0
 3540 0014 FB6A     		ldr	r3, [r7, #44]
 3541 0016 7A88     		ldrh	r2, [r7, #2]	@ movhi
 3542 0018 A3F84C20 		strh	r2, [r3, #76]	@ movhi
 931:..\..\..\lvgl\version_6.1.2\lvgl\src\lv_objx/lv_ta.c **** 
 932:..\..\..\lvgl\version_6.1.2\lvgl\src\lv_objx/lv_ta.c **** #if LV_USE_ANIMATION
 933:..\..\..\lvgl\version_6.1.2\lvgl\src\lv_objx/lv_ta.c ****     if(ext->cursor.blink_time) {
 3543              		.loc 7 933 0
 3544 001c FB6A     		ldr	r3, [r7, #44]
 3545 001e B3F84C30 		ldrh	r3, [r3, #76]
 3546 0022 002B     		cmp	r3, #0
 3547 0024 27D0     		beq	.L172
 3548              	.LBB25:
 934:..\..\..\lvgl\version_6.1.2\lvgl\src\lv_objx/lv_ta.c ****         /*Reset cursor blink animation*/
 935:..\..\..\lvgl\version_6.1.2\lvgl\src\lv_objx/lv_ta.c ****         lv_anim_t a;
 936:..\..\..\lvgl\version_6.1.2\lvgl\src\lv_objx/lv_ta.c ****         a.var            = ta;
 3549              		.loc 7 936 0
 3550 0026 7B68     		ldr	r3, [r7, #4]
 3551 0028 BB60     		str	r3, [r7, #8]
 937:..\..\..\lvgl\version_6.1.2\lvgl\src\lv_objx/lv_ta.c ****         a.exec_cb        = (lv_anim_exec_xcb_t)cursor_blink_anim;
 3552              		.loc 7 937 0
 3553 002a 1A4B     		ldr	r3, .L175
ARM GAS  C:\Users\tmj32\AppData\Local\Temp\ccI3WYuM.s 			page 102


 3554 002c FB60     		str	r3, [r7, #12]
 938:..\..\..\lvgl\version_6.1.2\lvgl\src\lv_objx/lv_ta.c ****         a.time           = ext->cursor.blink_time;
 3555              		.loc 7 938 0
 3556 002e FB6A     		ldr	r3, [r7, #44]
 3557 0030 B3F84C30 		ldrh	r3, [r3, #76]
 3558 0034 3B84     		strh	r3, [r7, #32]	@ movhi
 939:..\..\..\lvgl\version_6.1.2\lvgl\src\lv_objx/lv_ta.c ****         a.act_time       = 0;
 3559              		.loc 7 939 0
 3560 0036 0023     		movs	r3, #0
 3561 0038 7B84     		strh	r3, [r7, #34]	@ movhi
 940:..\..\..\lvgl\version_6.1.2\lvgl\src\lv_objx/lv_ta.c ****         a.ready_cb       = NULL;
 3562              		.loc 7 940 0
 3563 003a 0023     		movs	r3, #0
 3564 003c 7B61     		str	r3, [r7, #20]
 941:..\..\..\lvgl\version_6.1.2\lvgl\src\lv_objx/lv_ta.c ****         a.start          = 1;
 3565              		.loc 7 941 0
 3566 003e 0123     		movs	r3, #1
 3567 0040 BB61     		str	r3, [r7, #24]
 942:..\..\..\lvgl\version_6.1.2\lvgl\src\lv_objx/lv_ta.c ****         a.end            = 0;
 3568              		.loc 7 942 0
 3569 0042 0023     		movs	r3, #0
 3570 0044 FB61     		str	r3, [r7, #28]
 943:..\..\..\lvgl\version_6.1.2\lvgl\src\lv_objx/lv_ta.c ****         a.repeat         = 1;
 3571              		.loc 7 943 0
 3572 0046 97F82830 		ldrb	r3, [r7, #40]
 3573 004a 43F00203 		orr	r3, r3, #2
 3574 004e 87F82830 		strb	r3, [r7, #40]
 944:..\..\..\lvgl\version_6.1.2\lvgl\src\lv_objx/lv_ta.c ****         a.repeat_pause   = 0;
 3575              		.loc 7 944 0
 3576 0052 0023     		movs	r3, #0
 3577 0054 FB84     		strh	r3, [r7, #38]	@ movhi
 945:..\..\..\lvgl\version_6.1.2\lvgl\src\lv_objx/lv_ta.c ****         a.playback       = 1;
 3578              		.loc 7 945 0
 3579 0056 97F82830 		ldrb	r3, [r7, #40]
 3580 005a 43F00103 		orr	r3, r3, #1
 3581 005e 87F82830 		strb	r3, [r7, #40]
 946:..\..\..\lvgl\version_6.1.2\lvgl\src\lv_objx/lv_ta.c ****         a.playback_pause = 0;
 3582              		.loc 7 946 0
 3583 0062 0023     		movs	r3, #0
 3584 0064 BB84     		strh	r3, [r7, #36]	@ movhi
 947:..\..\..\lvgl\version_6.1.2\lvgl\src\lv_objx/lv_ta.c ****         a.path_cb        = lv_anim_path_step;
 3585              		.loc 7 947 0
 3586 0066 0C4B     		ldr	r3, .L175+4
 3587 0068 3B61     		str	r3, [r7, #16]
 948:..\..\..\lvgl\version_6.1.2\lvgl\src\lv_objx/lv_ta.c ****         lv_anim_create(&a);
 3588              		.loc 7 948 0
 3589 006a 07F10803 		add	r3, r7, #8
 3590 006e 1846     		mov	r0, r3
 3591 0070 FFF7FEFF 		bl	lv_anim_create
 3592              	.LBE25:
 949:..\..\..\lvgl\version_6.1.2\lvgl\src\lv_objx/lv_ta.c ****     } else {
 950:..\..\..\lvgl\version_6.1.2\lvgl\src\lv_objx/lv_ta.c ****         lv_anim_del(ta, (lv_anim_exec_xcb_t)cursor_blink_anim);
 951:..\..\..\lvgl\version_6.1.2\lvgl\src\lv_objx/lv_ta.c ****         ext->cursor.state = 1;
 952:..\..\..\lvgl\version_6.1.2\lvgl\src\lv_objx/lv_ta.c ****     }
 953:..\..\..\lvgl\version_6.1.2\lvgl\src\lv_objx/lv_ta.c **** #else
 954:..\..\..\lvgl\version_6.1.2\lvgl\src\lv_objx/lv_ta.c ****     ext->cursor.state = 1;
 955:..\..\..\lvgl\version_6.1.2\lvgl\src\lv_objx/lv_ta.c **** #endif
ARM GAS  C:\Users\tmj32\AppData\Local\Temp\ccI3WYuM.s 			page 103


 956:..\..\..\lvgl\version_6.1.2\lvgl\src\lv_objx/lv_ta.c **** }
 3593              		.loc 7 956 0
 3594 0074 0AE0     		b	.L174
 3595              	.L172:
 950:..\..\..\lvgl\version_6.1.2\lvgl\src\lv_objx/lv_ta.c ****         ext->cursor.state = 1;
 3596              		.loc 7 950 0
 3597 0076 0749     		ldr	r1, .L175
 3598 0078 7868     		ldr	r0, [r7, #4]
 3599 007a FFF7FEFF 		bl	lv_anim_del
 951:..\..\..\lvgl\version_6.1.2\lvgl\src\lv_objx/lv_ta.c ****     }
 3600              		.loc 7 951 0
 3601 007e FA6A     		ldr	r2, [r7, #44]
 3602 0080 92F85830 		ldrb	r3, [r2, #88]
 3603 0084 43F01003 		orr	r3, r3, #16
 3604 0088 82F85830 		strb	r3, [r2, #88]
 3605              	.L174:
 3606              		.loc 7 956 0
 3607 008c 00BF     		nop
 3608 008e 3037     		adds	r7, r7, #48
 3609              		.cfi_def_cfa_offset 8
 3610 0090 BD46     		mov	sp, r7
 3611              		.cfi_def_cfa_register 13
 3612              		@ sp needed
 3613 0092 80BD     		pop	{r7, pc}
 3614              	.L176:
 3615              		.align	2
 3616              	.L175:
 3617 0094 00000000 		.word	cursor_blink_anim
 3618 0098 00000000 		.word	lv_anim_path_step
 3619              		.cfi_endproc
 3620              	.LFE75:
 3621              		.size	lv_ta_set_cursor_blink_time, .-lv_ta_set_cursor_blink_time
 3622              		.section	.text.lv_ta_get_text,"ax",%progbits
 3623              		.align	2
 3624              		.global	lv_ta_get_text
 3625              		.thumb
 3626              		.thumb_func
 3627              		.type	lv_ta_get_text, %function
 3628              	lv_ta_get_text:
 3629              	.LFB76:
 957:..\..\..\lvgl\version_6.1.2\lvgl\src\lv_objx/lv_ta.c **** 
 958:..\..\..\lvgl\version_6.1.2\lvgl\src\lv_objx/lv_ta.c **** /*=====================
 959:..\..\..\lvgl\version_6.1.2\lvgl\src\lv_objx/lv_ta.c ****  * Getter functions
 960:..\..\..\lvgl\version_6.1.2\lvgl\src\lv_objx/lv_ta.c ****  *====================*/
 961:..\..\..\lvgl\version_6.1.2\lvgl\src\lv_objx/lv_ta.c **** 
 962:..\..\..\lvgl\version_6.1.2\lvgl\src\lv_objx/lv_ta.c **** /**
 963:..\..\..\lvgl\version_6.1.2\lvgl\src\lv_objx/lv_ta.c ****  * Get the text of a text area. In password mode it gives the real text (not '*'s).
 964:..\..\..\lvgl\version_6.1.2\lvgl\src\lv_objx/lv_ta.c ****  * @param ta pointer to a text area object
 965:..\..\..\lvgl\version_6.1.2\lvgl\src\lv_objx/lv_ta.c ****  * @return pointer to the text
 966:..\..\..\lvgl\version_6.1.2\lvgl\src\lv_objx/lv_ta.c ****  */
 967:..\..\..\lvgl\version_6.1.2\lvgl\src\lv_objx/lv_ta.c **** const char * lv_ta_get_text(const lv_obj_t * ta)
 968:..\..\..\lvgl\version_6.1.2\lvgl\src\lv_objx/lv_ta.c **** {
 3630              		.loc 7 968 0
 3631              		.cfi_startproc
 3632              		@ args = 0, pretend = 0, frame = 16
 3633              		@ frame_needed = 1, uses_anonymous_args = 0
 3634 0000 80B5     		push	{r7, lr}
ARM GAS  C:\Users\tmj32\AppData\Local\Temp\ccI3WYuM.s 			page 104


 3635              		.cfi_def_cfa_offset 8
 3636              		.cfi_offset 7, -8
 3637              		.cfi_offset 14, -4
 3638 0002 84B0     		sub	sp, sp, #16
 3639              		.cfi_def_cfa_offset 24
 3640 0004 00AF     		add	r7, sp, #0
 3641              		.cfi_def_cfa_register 7
 3642 0006 7860     		str	r0, [r7, #4]
 969:..\..\..\lvgl\version_6.1.2\lvgl\src\lv_objx/lv_ta.c ****     LV_ASSERT_OBJ(ta, LV_OBJX_NAME);
 970:..\..\..\lvgl\version_6.1.2\lvgl\src\lv_objx/lv_ta.c **** 
 971:..\..\..\lvgl\version_6.1.2\lvgl\src\lv_objx/lv_ta.c ****     lv_ta_ext_t * ext = lv_obj_get_ext_attr(ta);
 3643              		.loc 7 971 0
 3644 0008 7868     		ldr	r0, [r7, #4]
 3645 000a FFF7FEFF 		bl	lv_obj_get_ext_attr
 3646 000e B860     		str	r0, [r7, #8]
 972:..\..\..\lvgl\version_6.1.2\lvgl\src\lv_objx/lv_ta.c **** 
 973:..\..\..\lvgl\version_6.1.2\lvgl\src\lv_objx/lv_ta.c ****     const char * txt;
 974:..\..\..\lvgl\version_6.1.2\lvgl\src\lv_objx/lv_ta.c ****     if(ext->pwd_mode == 0) {
 3647              		.loc 7 974 0
 3648 0010 BB68     		ldr	r3, [r7, #8]
 3649 0012 93F85C30 		ldrb	r3, [r3, #92]	@ zero_extendqisi2
 3650 0016 03F00103 		and	r3, r3, #1
 3651 001a DBB2     		uxtb	r3, r3
 3652 001c 002B     		cmp	r3, #0
 3653 001e 06D1     		bne	.L178
 975:..\..\..\lvgl\version_6.1.2\lvgl\src\lv_objx/lv_ta.c ****         txt = lv_label_get_text(ext->label);
 3654              		.loc 7 975 0
 3655 0020 BB68     		ldr	r3, [r7, #8]
 3656 0022 1B6B     		ldr	r3, [r3, #48]
 3657 0024 1846     		mov	r0, r3
 3658 0026 FFF7FEFF 		bl	lv_label_get_text
 3659 002a F860     		str	r0, [r7, #12]
 3660 002c 02E0     		b	.L179
 3661              	.L178:
 976:..\..\..\lvgl\version_6.1.2\lvgl\src\lv_objx/lv_ta.c ****     } else {
 977:..\..\..\lvgl\version_6.1.2\lvgl\src\lv_objx/lv_ta.c ****         txt = ext->pwd_tmp;
 3662              		.loc 7 977 0
 3663 002e BB68     		ldr	r3, [r7, #8]
 3664 0030 9B6B     		ldr	r3, [r3, #56]
 3665 0032 FB60     		str	r3, [r7, #12]
 3666              	.L179:
 978:..\..\..\lvgl\version_6.1.2\lvgl\src\lv_objx/lv_ta.c ****     }
 979:..\..\..\lvgl\version_6.1.2\lvgl\src\lv_objx/lv_ta.c **** 
 980:..\..\..\lvgl\version_6.1.2\lvgl\src\lv_objx/lv_ta.c ****     return txt;
 3667              		.loc 7 980 0
 3668 0034 FB68     		ldr	r3, [r7, #12]
 981:..\..\..\lvgl\version_6.1.2\lvgl\src\lv_objx/lv_ta.c **** }
 3669              		.loc 7 981 0
 3670 0036 1846     		mov	r0, r3
 3671 0038 1037     		adds	r7, r7, #16
 3672              		.cfi_def_cfa_offset 8
 3673 003a BD46     		mov	sp, r7
 3674              		.cfi_def_cfa_register 13
 3675              		@ sp needed
 3676 003c 80BD     		pop	{r7, pc}
 3677              		.cfi_endproc
 3678              	.LFE76:
ARM GAS  C:\Users\tmj32\AppData\Local\Temp\ccI3WYuM.s 			page 105


 3679              		.size	lv_ta_get_text, .-lv_ta_get_text
 3680 003e 00BF     		.section	.text.lv_ta_get_placeholder_text,"ax",%progbits
 3681              		.align	2
 3682              		.global	lv_ta_get_placeholder_text
 3683              		.thumb
 3684              		.thumb_func
 3685              		.type	lv_ta_get_placeholder_text, %function
 3686              	lv_ta_get_placeholder_text:
 3687              	.LFB77:
 982:..\..\..\lvgl\version_6.1.2\lvgl\src\lv_objx/lv_ta.c **** 
 983:..\..\..\lvgl\version_6.1.2\lvgl\src\lv_objx/lv_ta.c **** /**
 984:..\..\..\lvgl\version_6.1.2\lvgl\src\lv_objx/lv_ta.c ****  * Get the placeholder text of a text area
 985:..\..\..\lvgl\version_6.1.2\lvgl\src\lv_objx/lv_ta.c ****  * @param ta pointer to a text area object
 986:..\..\..\lvgl\version_6.1.2\lvgl\src\lv_objx/lv_ta.c ****  * @return pointer to the text
 987:..\..\..\lvgl\version_6.1.2\lvgl\src\lv_objx/lv_ta.c ****  */
 988:..\..\..\lvgl\version_6.1.2\lvgl\src\lv_objx/lv_ta.c **** const char * lv_ta_get_placeholder_text(lv_obj_t * ta)
 989:..\..\..\lvgl\version_6.1.2\lvgl\src\lv_objx/lv_ta.c **** {
 3688              		.loc 7 989 0
 3689              		.cfi_startproc
 3690              		@ args = 0, pretend = 0, frame = 16
 3691              		@ frame_needed = 1, uses_anonymous_args = 0
 3692 0000 80B5     		push	{r7, lr}
 3693              		.cfi_def_cfa_offset 8
 3694              		.cfi_offset 7, -8
 3695              		.cfi_offset 14, -4
 3696 0002 84B0     		sub	sp, sp, #16
 3697              		.cfi_def_cfa_offset 24
 3698 0004 00AF     		add	r7, sp, #0
 3699              		.cfi_def_cfa_register 7
 3700 0006 7860     		str	r0, [r7, #4]
 990:..\..\..\lvgl\version_6.1.2\lvgl\src\lv_objx/lv_ta.c ****     LV_ASSERT_OBJ(ta, LV_OBJX_NAME);
 991:..\..\..\lvgl\version_6.1.2\lvgl\src\lv_objx/lv_ta.c **** 
 992:..\..\..\lvgl\version_6.1.2\lvgl\src\lv_objx/lv_ta.c ****     lv_ta_ext_t * ext = lv_obj_get_ext_attr(ta);
 3701              		.loc 7 992 0
 3702 0008 7868     		ldr	r0, [r7, #4]
 3703 000a FFF7FEFF 		bl	lv_obj_get_ext_attr
 3704 000e B860     		str	r0, [r7, #8]
 993:..\..\..\lvgl\version_6.1.2\lvgl\src\lv_objx/lv_ta.c **** 
 994:..\..\..\lvgl\version_6.1.2\lvgl\src\lv_objx/lv_ta.c ****     const char * txt = NULL;
 3705              		.loc 7 994 0
 3706 0010 0023     		movs	r3, #0
 3707 0012 FB60     		str	r3, [r7, #12]
 995:..\..\..\lvgl\version_6.1.2\lvgl\src\lv_objx/lv_ta.c **** 
 996:..\..\..\lvgl\version_6.1.2\lvgl\src\lv_objx/lv_ta.c ****     if(ext->placeholder) txt = lv_label_get_text(ext->placeholder);
 3708              		.loc 7 996 0
 3709 0014 BB68     		ldr	r3, [r7, #8]
 3710 0016 5B6B     		ldr	r3, [r3, #52]
 3711 0018 002B     		cmp	r3, #0
 3712 001a 05D0     		beq	.L182
 3713              		.loc 7 996 0 is_stmt 0 discriminator 1
 3714 001c BB68     		ldr	r3, [r7, #8]
 3715 001e 5B6B     		ldr	r3, [r3, #52]
 3716 0020 1846     		mov	r0, r3
 3717 0022 FFF7FEFF 		bl	lv_label_get_text
 3718 0026 F860     		str	r0, [r7, #12]
 3719              	.L182:
 997:..\..\..\lvgl\version_6.1.2\lvgl\src\lv_objx/lv_ta.c **** 
ARM GAS  C:\Users\tmj32\AppData\Local\Temp\ccI3WYuM.s 			page 106


 998:..\..\..\lvgl\version_6.1.2\lvgl\src\lv_objx/lv_ta.c ****     return txt;
 3720              		.loc 7 998 0 is_stmt 1
 3721 0028 FB68     		ldr	r3, [r7, #12]
 999:..\..\..\lvgl\version_6.1.2\lvgl\src\lv_objx/lv_ta.c **** }
 3722              		.loc 7 999 0
 3723 002a 1846     		mov	r0, r3
 3724 002c 1037     		adds	r7, r7, #16
 3725              		.cfi_def_cfa_offset 8
 3726 002e BD46     		mov	sp, r7
 3727              		.cfi_def_cfa_register 13
 3728              		@ sp needed
 3729 0030 80BD     		pop	{r7, pc}
 3730              		.cfi_endproc
 3731              	.LFE77:
 3732              		.size	lv_ta_get_placeholder_text, .-lv_ta_get_placeholder_text
 3733 0032 00BF     		.section	.text.lv_ta_get_label,"ax",%progbits
 3734              		.align	2
 3735              		.global	lv_ta_get_label
 3736              		.thumb
 3737              		.thumb_func
 3738              		.type	lv_ta_get_label, %function
 3739              	lv_ta_get_label:
 3740              	.LFB78:
1000:..\..\..\lvgl\version_6.1.2\lvgl\src\lv_objx/lv_ta.c **** 
1001:..\..\..\lvgl\version_6.1.2\lvgl\src\lv_objx/lv_ta.c **** /**
1002:..\..\..\lvgl\version_6.1.2\lvgl\src\lv_objx/lv_ta.c ****  * Get the label of a text area
1003:..\..\..\lvgl\version_6.1.2\lvgl\src\lv_objx/lv_ta.c ****  * @param ta pointer to a text area object
1004:..\..\..\lvgl\version_6.1.2\lvgl\src\lv_objx/lv_ta.c ****  * @return pointer to the label object
1005:..\..\..\lvgl\version_6.1.2\lvgl\src\lv_objx/lv_ta.c ****  */
1006:..\..\..\lvgl\version_6.1.2\lvgl\src\lv_objx/lv_ta.c **** lv_obj_t * lv_ta_get_label(const lv_obj_t * ta)
1007:..\..\..\lvgl\version_6.1.2\lvgl\src\lv_objx/lv_ta.c **** {
 3741              		.loc 7 1007 0
 3742              		.cfi_startproc
 3743              		@ args = 0, pretend = 0, frame = 16
 3744              		@ frame_needed = 1, uses_anonymous_args = 0
 3745 0000 80B5     		push	{r7, lr}
 3746              		.cfi_def_cfa_offset 8
 3747              		.cfi_offset 7, -8
 3748              		.cfi_offset 14, -4
 3749 0002 84B0     		sub	sp, sp, #16
 3750              		.cfi_def_cfa_offset 24
 3751 0004 00AF     		add	r7, sp, #0
 3752              		.cfi_def_cfa_register 7
 3753 0006 7860     		str	r0, [r7, #4]
1008:..\..\..\lvgl\version_6.1.2\lvgl\src\lv_objx/lv_ta.c ****     LV_ASSERT_OBJ(ta, LV_OBJX_NAME);
1009:..\..\..\lvgl\version_6.1.2\lvgl\src\lv_objx/lv_ta.c **** 
1010:..\..\..\lvgl\version_6.1.2\lvgl\src\lv_objx/lv_ta.c ****     lv_ta_ext_t * ext = lv_obj_get_ext_attr(ta);
 3754              		.loc 7 1010 0
 3755 0008 7868     		ldr	r0, [r7, #4]
 3756 000a FFF7FEFF 		bl	lv_obj_get_ext_attr
 3757 000e F860     		str	r0, [r7, #12]
1011:..\..\..\lvgl\version_6.1.2\lvgl\src\lv_objx/lv_ta.c ****     return ext->label;
 3758              		.loc 7 1011 0
 3759 0010 FB68     		ldr	r3, [r7, #12]
 3760 0012 1B6B     		ldr	r3, [r3, #48]
1012:..\..\..\lvgl\version_6.1.2\lvgl\src\lv_objx/lv_ta.c **** }
 3761              		.loc 7 1012 0
ARM GAS  C:\Users\tmj32\AppData\Local\Temp\ccI3WYuM.s 			page 107


 3762 0014 1846     		mov	r0, r3
 3763 0016 1037     		adds	r7, r7, #16
 3764              		.cfi_def_cfa_offset 8
 3765 0018 BD46     		mov	sp, r7
 3766              		.cfi_def_cfa_register 13
 3767              		@ sp needed
 3768 001a 80BD     		pop	{r7, pc}
 3769              		.cfi_endproc
 3770              	.LFE78:
 3771              		.size	lv_ta_get_label, .-lv_ta_get_label
 3772              		.section	.text.lv_ta_get_cursor_pos,"ax",%progbits
 3773              		.align	2
 3774              		.global	lv_ta_get_cursor_pos
 3775              		.thumb
 3776              		.thumb_func
 3777              		.type	lv_ta_get_cursor_pos, %function
 3778              	lv_ta_get_cursor_pos:
 3779              	.LFB79:
1013:..\..\..\lvgl\version_6.1.2\lvgl\src\lv_objx/lv_ta.c **** 
1014:..\..\..\lvgl\version_6.1.2\lvgl\src\lv_objx/lv_ta.c **** /**
1015:..\..\..\lvgl\version_6.1.2\lvgl\src\lv_objx/lv_ta.c ****  * Get the current cursor position in character index
1016:..\..\..\lvgl\version_6.1.2\lvgl\src\lv_objx/lv_ta.c ****  * @param ta pointer to a text area object
1017:..\..\..\lvgl\version_6.1.2\lvgl\src\lv_objx/lv_ta.c ****  * @return the cursor position
1018:..\..\..\lvgl\version_6.1.2\lvgl\src\lv_objx/lv_ta.c ****  */
1019:..\..\..\lvgl\version_6.1.2\lvgl\src\lv_objx/lv_ta.c **** uint16_t lv_ta_get_cursor_pos(const lv_obj_t * ta)
1020:..\..\..\lvgl\version_6.1.2\lvgl\src\lv_objx/lv_ta.c **** {
 3780              		.loc 7 1020 0
 3781              		.cfi_startproc
 3782              		@ args = 0, pretend = 0, frame = 16
 3783              		@ frame_needed = 1, uses_anonymous_args = 0
 3784 0000 80B5     		push	{r7, lr}
 3785              		.cfi_def_cfa_offset 8
 3786              		.cfi_offset 7, -8
 3787              		.cfi_offset 14, -4
 3788 0002 84B0     		sub	sp, sp, #16
 3789              		.cfi_def_cfa_offset 24
 3790 0004 00AF     		add	r7, sp, #0
 3791              		.cfi_def_cfa_register 7
 3792 0006 7860     		str	r0, [r7, #4]
1021:..\..\..\lvgl\version_6.1.2\lvgl\src\lv_objx/lv_ta.c ****     LV_ASSERT_OBJ(ta, LV_OBJX_NAME);
1022:..\..\..\lvgl\version_6.1.2\lvgl\src\lv_objx/lv_ta.c **** 
1023:..\..\..\lvgl\version_6.1.2\lvgl\src\lv_objx/lv_ta.c ****     lv_ta_ext_t * ext = lv_obj_get_ext_attr(ta);
 3793              		.loc 7 1023 0
 3794 0008 7868     		ldr	r0, [r7, #4]
 3795 000a FFF7FEFF 		bl	lv_obj_get_ext_attr
 3796 000e F860     		str	r0, [r7, #12]
1024:..\..\..\lvgl\version_6.1.2\lvgl\src\lv_objx/lv_ta.c ****     return ext->cursor.pos;
 3797              		.loc 7 1024 0
 3798 0010 FB68     		ldr	r3, [r7, #12]
 3799 0012 B3F84A30 		ldrh	r3, [r3, #74]
1025:..\..\..\lvgl\version_6.1.2\lvgl\src\lv_objx/lv_ta.c **** }
 3800              		.loc 7 1025 0
 3801 0016 1846     		mov	r0, r3
 3802 0018 1037     		adds	r7, r7, #16
 3803              		.cfi_def_cfa_offset 8
 3804 001a BD46     		mov	sp, r7
 3805              		.cfi_def_cfa_register 13
ARM GAS  C:\Users\tmj32\AppData\Local\Temp\ccI3WYuM.s 			page 108


 3806              		@ sp needed
 3807 001c 80BD     		pop	{r7, pc}
 3808              		.cfi_endproc
 3809              	.LFE79:
 3810              		.size	lv_ta_get_cursor_pos, .-lv_ta_get_cursor_pos
 3811 001e 00BF     		.section	.text.lv_ta_get_cursor_type,"ax",%progbits
 3812              		.align	2
 3813              		.global	lv_ta_get_cursor_type
 3814              		.thumb
 3815              		.thumb_func
 3816              		.type	lv_ta_get_cursor_type, %function
 3817              	lv_ta_get_cursor_type:
 3818              	.LFB80:
1026:..\..\..\lvgl\version_6.1.2\lvgl\src\lv_objx/lv_ta.c **** 
1027:..\..\..\lvgl\version_6.1.2\lvgl\src\lv_objx/lv_ta.c **** /**
1028:..\..\..\lvgl\version_6.1.2\lvgl\src\lv_objx/lv_ta.c ****  * Get the current cursor type.
1029:..\..\..\lvgl\version_6.1.2\lvgl\src\lv_objx/lv_ta.c ****  * @param ta pointer to a text area object
1030:..\..\..\lvgl\version_6.1.2\lvgl\src\lv_objx/lv_ta.c ****  * @return element of 'lv_ta_cursor_type_t'
1031:..\..\..\lvgl\version_6.1.2\lvgl\src\lv_objx/lv_ta.c ****  */
1032:..\..\..\lvgl\version_6.1.2\lvgl\src\lv_objx/lv_ta.c **** lv_cursor_type_t lv_ta_get_cursor_type(const lv_obj_t * ta)
1033:..\..\..\lvgl\version_6.1.2\lvgl\src\lv_objx/lv_ta.c **** {
 3819              		.loc 7 1033 0
 3820              		.cfi_startproc
 3821              		@ args = 0, pretend = 0, frame = 16
 3822              		@ frame_needed = 1, uses_anonymous_args = 0
 3823 0000 80B5     		push	{r7, lr}
 3824              		.cfi_def_cfa_offset 8
 3825              		.cfi_offset 7, -8
 3826              		.cfi_offset 14, -4
 3827 0002 84B0     		sub	sp, sp, #16
 3828              		.cfi_def_cfa_offset 24
 3829 0004 00AF     		add	r7, sp, #0
 3830              		.cfi_def_cfa_register 7
 3831 0006 7860     		str	r0, [r7, #4]
1034:..\..\..\lvgl\version_6.1.2\lvgl\src\lv_objx/lv_ta.c ****     LV_ASSERT_OBJ(ta, LV_OBJX_NAME);
1035:..\..\..\lvgl\version_6.1.2\lvgl\src\lv_objx/lv_ta.c **** 
1036:..\..\..\lvgl\version_6.1.2\lvgl\src\lv_objx/lv_ta.c ****     lv_ta_ext_t * ext = lv_obj_get_ext_attr(ta);
 3832              		.loc 7 1036 0
 3833 0008 7868     		ldr	r0, [r7, #4]
 3834 000a FFF7FEFF 		bl	lv_obj_get_ext_attr
 3835 000e F860     		str	r0, [r7, #12]
1037:..\..\..\lvgl\version_6.1.2\lvgl\src\lv_objx/lv_ta.c ****     return ext->cursor.type;
 3836              		.loc 7 1037 0
 3837 0010 FB68     		ldr	r3, [r7, #12]
 3838 0012 93F85830 		ldrb	r3, [r3, #88]
 3839 0016 C3F30303 		ubfx	r3, r3, #0, #4
 3840 001a DBB2     		uxtb	r3, r3
1038:..\..\..\lvgl\version_6.1.2\lvgl\src\lv_objx/lv_ta.c **** }
 3841              		.loc 7 1038 0
 3842 001c 1846     		mov	r0, r3
 3843 001e 1037     		adds	r7, r7, #16
 3844              		.cfi_def_cfa_offset 8
 3845 0020 BD46     		mov	sp, r7
 3846              		.cfi_def_cfa_register 13
 3847              		@ sp needed
 3848 0022 80BD     		pop	{r7, pc}
 3849              		.cfi_endproc
ARM GAS  C:\Users\tmj32\AppData\Local\Temp\ccI3WYuM.s 			page 109


 3850              	.LFE80:
 3851              		.size	lv_ta_get_cursor_type, .-lv_ta_get_cursor_type
 3852              		.section	.text.lv_ta_get_cursor_click_pos,"ax",%progbits
 3853              		.align	2
 3854              		.global	lv_ta_get_cursor_click_pos
 3855              		.thumb
 3856              		.thumb_func
 3857              		.type	lv_ta_get_cursor_click_pos, %function
 3858              	lv_ta_get_cursor_click_pos:
 3859              	.LFB81:
1039:..\..\..\lvgl\version_6.1.2\lvgl\src\lv_objx/lv_ta.c **** 
1040:..\..\..\lvgl\version_6.1.2\lvgl\src\lv_objx/lv_ta.c **** /**
1041:..\..\..\lvgl\version_6.1.2\lvgl\src\lv_objx/lv_ta.c ****  * Get whether the cursor click positioning is enabled or not.
1042:..\..\..\lvgl\version_6.1.2\lvgl\src\lv_objx/lv_ta.c ****  * @param ta pointer to a text area object
1043:..\..\..\lvgl\version_6.1.2\lvgl\src\lv_objx/lv_ta.c ****  * @return true: enable click positions; false: disable
1044:..\..\..\lvgl\version_6.1.2\lvgl\src\lv_objx/lv_ta.c ****  */
1045:..\..\..\lvgl\version_6.1.2\lvgl\src\lv_objx/lv_ta.c **** bool lv_ta_get_cursor_click_pos(lv_obj_t * ta)
1046:..\..\..\lvgl\version_6.1.2\lvgl\src\lv_objx/lv_ta.c **** {
 3860              		.loc 7 1046 0
 3861              		.cfi_startproc
 3862              		@ args = 0, pretend = 0, frame = 16
 3863              		@ frame_needed = 1, uses_anonymous_args = 0
 3864 0000 80B5     		push	{r7, lr}
 3865              		.cfi_def_cfa_offset 8
 3866              		.cfi_offset 7, -8
 3867              		.cfi_offset 14, -4
 3868 0002 84B0     		sub	sp, sp, #16
 3869              		.cfi_def_cfa_offset 24
 3870 0004 00AF     		add	r7, sp, #0
 3871              		.cfi_def_cfa_register 7
 3872 0006 7860     		str	r0, [r7, #4]
1047:..\..\..\lvgl\version_6.1.2\lvgl\src\lv_objx/lv_ta.c ****     LV_ASSERT_OBJ(ta, LV_OBJX_NAME);
1048:..\..\..\lvgl\version_6.1.2\lvgl\src\lv_objx/lv_ta.c **** 
1049:..\..\..\lvgl\version_6.1.2\lvgl\src\lv_objx/lv_ta.c ****     lv_ta_ext_t * ext = lv_obj_get_ext_attr(ta);
 3873              		.loc 7 1049 0
 3874 0008 7868     		ldr	r0, [r7, #4]
 3875 000a FFF7FEFF 		bl	lv_obj_get_ext_attr
 3876 000e F860     		str	r0, [r7, #12]
1050:..\..\..\lvgl\version_6.1.2\lvgl\src\lv_objx/lv_ta.c ****     return ext->cursor.click_pos ? true : false;
 3877              		.loc 7 1050 0
 3878 0010 FB68     		ldr	r3, [r7, #12]
 3879 0012 93F85830 		ldrb	r3, [r3, #88]	@ zero_extendqisi2
 3880 0016 03F02003 		and	r3, r3, #32
 3881 001a DBB2     		uxtb	r3, r3
 3882 001c 002B     		cmp	r3, #0
 3883 001e 14BF     		ite	ne
 3884 0020 0123     		movne	r3, #1
 3885 0022 0023     		moveq	r3, #0
 3886 0024 DBB2     		uxtb	r3, r3
1051:..\..\..\lvgl\version_6.1.2\lvgl\src\lv_objx/lv_ta.c **** }
 3887              		.loc 7 1051 0
 3888 0026 1846     		mov	r0, r3
 3889 0028 1037     		adds	r7, r7, #16
 3890              		.cfi_def_cfa_offset 8
 3891 002a BD46     		mov	sp, r7
 3892              		.cfi_def_cfa_register 13
 3893              		@ sp needed
ARM GAS  C:\Users\tmj32\AppData\Local\Temp\ccI3WYuM.s 			page 110


 3894 002c 80BD     		pop	{r7, pc}
 3895              		.cfi_endproc
 3896              	.LFE81:
 3897              		.size	lv_ta_get_cursor_click_pos, .-lv_ta_get_cursor_click_pos
 3898 002e 00BF     		.section	.text.lv_ta_get_pwd_mode,"ax",%progbits
 3899              		.align	2
 3900              		.global	lv_ta_get_pwd_mode
 3901              		.thumb
 3902              		.thumb_func
 3903              		.type	lv_ta_get_pwd_mode, %function
 3904              	lv_ta_get_pwd_mode:
 3905              	.LFB82:
1052:..\..\..\lvgl\version_6.1.2\lvgl\src\lv_objx/lv_ta.c **** 
1053:..\..\..\lvgl\version_6.1.2\lvgl\src\lv_objx/lv_ta.c **** /**
1054:..\..\..\lvgl\version_6.1.2\lvgl\src\lv_objx/lv_ta.c ****  * Get the password mode attribute
1055:..\..\..\lvgl\version_6.1.2\lvgl\src\lv_objx/lv_ta.c ****  * @param ta pointer to a text area object
1056:..\..\..\lvgl\version_6.1.2\lvgl\src\lv_objx/lv_ta.c ****  * @return true: password mode is enabled, false: disabled
1057:..\..\..\lvgl\version_6.1.2\lvgl\src\lv_objx/lv_ta.c ****  */
1058:..\..\..\lvgl\version_6.1.2\lvgl\src\lv_objx/lv_ta.c **** bool lv_ta_get_pwd_mode(const lv_obj_t * ta)
1059:..\..\..\lvgl\version_6.1.2\lvgl\src\lv_objx/lv_ta.c **** {
 3906              		.loc 7 1059 0
 3907              		.cfi_startproc
 3908              		@ args = 0, pretend = 0, frame = 16
 3909              		@ frame_needed = 1, uses_anonymous_args = 0
 3910 0000 80B5     		push	{r7, lr}
 3911              		.cfi_def_cfa_offset 8
 3912              		.cfi_offset 7, -8
 3913              		.cfi_offset 14, -4
 3914 0002 84B0     		sub	sp, sp, #16
 3915              		.cfi_def_cfa_offset 24
 3916 0004 00AF     		add	r7, sp, #0
 3917              		.cfi_def_cfa_register 7
 3918 0006 7860     		str	r0, [r7, #4]
1060:..\..\..\lvgl\version_6.1.2\lvgl\src\lv_objx/lv_ta.c ****     LV_ASSERT_OBJ(ta, LV_OBJX_NAME);
1061:..\..\..\lvgl\version_6.1.2\lvgl\src\lv_objx/lv_ta.c **** 
1062:..\..\..\lvgl\version_6.1.2\lvgl\src\lv_objx/lv_ta.c ****     lv_ta_ext_t * ext = lv_obj_get_ext_attr(ta);
 3919              		.loc 7 1062 0
 3920 0008 7868     		ldr	r0, [r7, #4]
 3921 000a FFF7FEFF 		bl	lv_obj_get_ext_attr
 3922 000e F860     		str	r0, [r7, #12]
1063:..\..\..\lvgl\version_6.1.2\lvgl\src\lv_objx/lv_ta.c ****     return ext->pwd_mode == 0 ? false : true;
 3923              		.loc 7 1063 0
 3924 0010 FB68     		ldr	r3, [r7, #12]
 3925 0012 93F85C30 		ldrb	r3, [r3, #92]	@ zero_extendqisi2
 3926 0016 03F00103 		and	r3, r3, #1
 3927 001a DBB2     		uxtb	r3, r3
 3928 001c 002B     		cmp	r3, #0
 3929 001e 14BF     		ite	ne
 3930 0020 0123     		movne	r3, #1
 3931 0022 0023     		moveq	r3, #0
 3932 0024 DBB2     		uxtb	r3, r3
1064:..\..\..\lvgl\version_6.1.2\lvgl\src\lv_objx/lv_ta.c **** }
 3933              		.loc 7 1064 0
 3934 0026 1846     		mov	r0, r3
 3935 0028 1037     		adds	r7, r7, #16
 3936              		.cfi_def_cfa_offset 8
 3937 002a BD46     		mov	sp, r7
ARM GAS  C:\Users\tmj32\AppData\Local\Temp\ccI3WYuM.s 			page 111


 3938              		.cfi_def_cfa_register 13
 3939              		@ sp needed
 3940 002c 80BD     		pop	{r7, pc}
 3941              		.cfi_endproc
 3942              	.LFE82:
 3943              		.size	lv_ta_get_pwd_mode, .-lv_ta_get_pwd_mode
 3944 002e 00BF     		.section	.text.lv_ta_get_one_line,"ax",%progbits
 3945              		.align	2
 3946              		.global	lv_ta_get_one_line
 3947              		.thumb
 3948              		.thumb_func
 3949              		.type	lv_ta_get_one_line, %function
 3950              	lv_ta_get_one_line:
 3951              	.LFB83:
1065:..\..\..\lvgl\version_6.1.2\lvgl\src\lv_objx/lv_ta.c **** 
1066:..\..\..\lvgl\version_6.1.2\lvgl\src\lv_objx/lv_ta.c **** /**
1067:..\..\..\lvgl\version_6.1.2\lvgl\src\lv_objx/lv_ta.c ****  * Get the one line configuration attribute
1068:..\..\..\lvgl\version_6.1.2\lvgl\src\lv_objx/lv_ta.c ****  * @param ta pointer to a text area object
1069:..\..\..\lvgl\version_6.1.2\lvgl\src\lv_objx/lv_ta.c ****  * @return true: one line configuration is enabled, false: disabled
1070:..\..\..\lvgl\version_6.1.2\lvgl\src\lv_objx/lv_ta.c ****  */
1071:..\..\..\lvgl\version_6.1.2\lvgl\src\lv_objx/lv_ta.c **** bool lv_ta_get_one_line(const lv_obj_t * ta)
1072:..\..\..\lvgl\version_6.1.2\lvgl\src\lv_objx/lv_ta.c **** {
 3952              		.loc 7 1072 0
 3953              		.cfi_startproc
 3954              		@ args = 0, pretend = 0, frame = 16
 3955              		@ frame_needed = 1, uses_anonymous_args = 0
 3956 0000 80B5     		push	{r7, lr}
 3957              		.cfi_def_cfa_offset 8
 3958              		.cfi_offset 7, -8
 3959              		.cfi_offset 14, -4
 3960 0002 84B0     		sub	sp, sp, #16
 3961              		.cfi_def_cfa_offset 24
 3962 0004 00AF     		add	r7, sp, #0
 3963              		.cfi_def_cfa_register 7
 3964 0006 7860     		str	r0, [r7, #4]
1073:..\..\..\lvgl\version_6.1.2\lvgl\src\lv_objx/lv_ta.c ****     LV_ASSERT_OBJ(ta, LV_OBJX_NAME);
1074:..\..\..\lvgl\version_6.1.2\lvgl\src\lv_objx/lv_ta.c **** 
1075:..\..\..\lvgl\version_6.1.2\lvgl\src\lv_objx/lv_ta.c ****     lv_ta_ext_t * ext = lv_obj_get_ext_attr(ta);
 3965              		.loc 7 1075 0
 3966 0008 7868     		ldr	r0, [r7, #4]
 3967 000a FFF7FEFF 		bl	lv_obj_get_ext_attr
 3968 000e F860     		str	r0, [r7, #12]
1076:..\..\..\lvgl\version_6.1.2\lvgl\src\lv_objx/lv_ta.c ****     return ext->one_line == 0 ? false : true;
 3969              		.loc 7 1076 0
 3970 0010 FB68     		ldr	r3, [r7, #12]
 3971 0012 93F85C30 		ldrb	r3, [r3, #92]	@ zero_extendqisi2
 3972 0016 03F00203 		and	r3, r3, #2
 3973 001a DBB2     		uxtb	r3, r3
 3974 001c 002B     		cmp	r3, #0
 3975 001e 14BF     		ite	ne
 3976 0020 0123     		movne	r3, #1
 3977 0022 0023     		moveq	r3, #0
 3978 0024 DBB2     		uxtb	r3, r3
1077:..\..\..\lvgl\version_6.1.2\lvgl\src\lv_objx/lv_ta.c **** }
 3979              		.loc 7 1077 0
 3980 0026 1846     		mov	r0, r3
 3981 0028 1037     		adds	r7, r7, #16
ARM GAS  C:\Users\tmj32\AppData\Local\Temp\ccI3WYuM.s 			page 112


 3982              		.cfi_def_cfa_offset 8
 3983 002a BD46     		mov	sp, r7
 3984              		.cfi_def_cfa_register 13
 3985              		@ sp needed
 3986 002c 80BD     		pop	{r7, pc}
 3987              		.cfi_endproc
 3988              	.LFE83:
 3989              		.size	lv_ta_get_one_line, .-lv_ta_get_one_line
 3990 002e 00BF     		.section	.text.lv_ta_get_accepted_chars,"ax",%progbits
 3991              		.align	2
 3992              		.global	lv_ta_get_accepted_chars
 3993              		.thumb
 3994              		.thumb_func
 3995              		.type	lv_ta_get_accepted_chars, %function
 3996              	lv_ta_get_accepted_chars:
 3997              	.LFB84:
1078:..\..\..\lvgl\version_6.1.2\lvgl\src\lv_objx/lv_ta.c **** 
1079:..\..\..\lvgl\version_6.1.2\lvgl\src\lv_objx/lv_ta.c **** /**
1080:..\..\..\lvgl\version_6.1.2\lvgl\src\lv_objx/lv_ta.c ****  * Get a list of accepted characters.
1081:..\..\..\lvgl\version_6.1.2\lvgl\src\lv_objx/lv_ta.c ****  * @param ta pointer to  Text Area
1082:..\..\..\lvgl\version_6.1.2\lvgl\src\lv_objx/lv_ta.c ****  * @return list of accented characters.
1083:..\..\..\lvgl\version_6.1.2\lvgl\src\lv_objx/lv_ta.c ****  */
1084:..\..\..\lvgl\version_6.1.2\lvgl\src\lv_objx/lv_ta.c **** const char * lv_ta_get_accepted_chars(lv_obj_t * ta)
1085:..\..\..\lvgl\version_6.1.2\lvgl\src\lv_objx/lv_ta.c **** {
 3998              		.loc 7 1085 0
 3999              		.cfi_startproc
 4000              		@ args = 0, pretend = 0, frame = 16
 4001              		@ frame_needed = 1, uses_anonymous_args = 0
 4002 0000 80B5     		push	{r7, lr}
 4003              		.cfi_def_cfa_offset 8
 4004              		.cfi_offset 7, -8
 4005              		.cfi_offset 14, -4
 4006 0002 84B0     		sub	sp, sp, #16
 4007              		.cfi_def_cfa_offset 24
 4008 0004 00AF     		add	r7, sp, #0
 4009              		.cfi_def_cfa_register 7
 4010 0006 7860     		str	r0, [r7, #4]
1086:..\..\..\lvgl\version_6.1.2\lvgl\src\lv_objx/lv_ta.c ****     LV_ASSERT_OBJ(ta, LV_OBJX_NAME);
1087:..\..\..\lvgl\version_6.1.2\lvgl\src\lv_objx/lv_ta.c **** 
1088:..\..\..\lvgl\version_6.1.2\lvgl\src\lv_objx/lv_ta.c ****     lv_ta_ext_t * ext = lv_obj_get_ext_attr(ta);
 4011              		.loc 7 1088 0
 4012 0008 7868     		ldr	r0, [r7, #4]
 4013 000a FFF7FEFF 		bl	lv_obj_get_ext_attr
 4014 000e F860     		str	r0, [r7, #12]
1089:..\..\..\lvgl\version_6.1.2\lvgl\src\lv_objx/lv_ta.c **** 
1090:..\..\..\lvgl\version_6.1.2\lvgl\src\lv_objx/lv_ta.c ****     return ext->accapted_chars;
 4015              		.loc 7 1090 0
 4016 0010 FB68     		ldr	r3, [r7, #12]
 4017 0012 DB6B     		ldr	r3, [r3, #60]
1091:..\..\..\lvgl\version_6.1.2\lvgl\src\lv_objx/lv_ta.c **** }
 4018              		.loc 7 1091 0
 4019 0014 1846     		mov	r0, r3
 4020 0016 1037     		adds	r7, r7, #16
 4021              		.cfi_def_cfa_offset 8
 4022 0018 BD46     		mov	sp, r7
 4023              		.cfi_def_cfa_register 13
 4024              		@ sp needed
ARM GAS  C:\Users\tmj32\AppData\Local\Temp\ccI3WYuM.s 			page 113


 4025 001a 80BD     		pop	{r7, pc}
 4026              		.cfi_endproc
 4027              	.LFE84:
 4028              		.size	lv_ta_get_accepted_chars, .-lv_ta_get_accepted_chars
 4029              		.section	.text.lv_ta_get_max_length,"ax",%progbits
 4030              		.align	2
 4031              		.global	lv_ta_get_max_length
 4032              		.thumb
 4033              		.thumb_func
 4034              		.type	lv_ta_get_max_length, %function
 4035              	lv_ta_get_max_length:
 4036              	.LFB85:
1092:..\..\..\lvgl\version_6.1.2\lvgl\src\lv_objx/lv_ta.c **** 
1093:..\..\..\lvgl\version_6.1.2\lvgl\src\lv_objx/lv_ta.c **** /**
1094:..\..\..\lvgl\version_6.1.2\lvgl\src\lv_objx/lv_ta.c ****  * Set max length of a Text Area.
1095:..\..\..\lvgl\version_6.1.2\lvgl\src\lv_objx/lv_ta.c ****  * @param ta pointer to  Text Area
1096:..\..\..\lvgl\version_6.1.2\lvgl\src\lv_objx/lv_ta.c ****  * @return the maximal number of characters to be add
1097:..\..\..\lvgl\version_6.1.2\lvgl\src\lv_objx/lv_ta.c ****  */
1098:..\..\..\lvgl\version_6.1.2\lvgl\src\lv_objx/lv_ta.c **** uint16_t lv_ta_get_max_length(lv_obj_t * ta)
1099:..\..\..\lvgl\version_6.1.2\lvgl\src\lv_objx/lv_ta.c **** {
 4037              		.loc 7 1099 0
 4038              		.cfi_startproc
 4039              		@ args = 0, pretend = 0, frame = 16
 4040              		@ frame_needed = 1, uses_anonymous_args = 0
 4041 0000 80B5     		push	{r7, lr}
 4042              		.cfi_def_cfa_offset 8
 4043              		.cfi_offset 7, -8
 4044              		.cfi_offset 14, -4
 4045 0002 84B0     		sub	sp, sp, #16
 4046              		.cfi_def_cfa_offset 24
 4047 0004 00AF     		add	r7, sp, #0
 4048              		.cfi_def_cfa_register 7
 4049 0006 7860     		str	r0, [r7, #4]
1100:..\..\..\lvgl\version_6.1.2\lvgl\src\lv_objx/lv_ta.c ****     LV_ASSERT_OBJ(ta, LV_OBJX_NAME);
1101:..\..\..\lvgl\version_6.1.2\lvgl\src\lv_objx/lv_ta.c **** 
1102:..\..\..\lvgl\version_6.1.2\lvgl\src\lv_objx/lv_ta.c ****     lv_ta_ext_t * ext = lv_obj_get_ext_attr(ta);
 4050              		.loc 7 1102 0
 4051 0008 7868     		ldr	r0, [r7, #4]
 4052 000a FFF7FEFF 		bl	lv_obj_get_ext_attr
 4053 000e F860     		str	r0, [r7, #12]
1103:..\..\..\lvgl\version_6.1.2\lvgl\src\lv_objx/lv_ta.c ****     return ext->max_length;
 4054              		.loc 7 1103 0
 4055 0010 FB68     		ldr	r3, [r7, #12]
 4056 0012 B3F84030 		ldrh	r3, [r3, #64]
1104:..\..\..\lvgl\version_6.1.2\lvgl\src\lv_objx/lv_ta.c **** }
 4057              		.loc 7 1104 0
 4058 0016 1846     		mov	r0, r3
 4059 0018 1037     		adds	r7, r7, #16
 4060              		.cfi_def_cfa_offset 8
 4061 001a BD46     		mov	sp, r7
 4062              		.cfi_def_cfa_register 13
 4063              		@ sp needed
 4064 001c 80BD     		pop	{r7, pc}
 4065              		.cfi_endproc
 4066              	.LFE85:
 4067              		.size	lv_ta_get_max_length, .-lv_ta_get_max_length
 4068 001e 00BF     		.section	.text.lv_ta_get_style,"ax",%progbits
ARM GAS  C:\Users\tmj32\AppData\Local\Temp\ccI3WYuM.s 			page 114


 4069              		.align	2
 4070              		.global	lv_ta_get_style
 4071              		.thumb
 4072              		.thumb_func
 4073              		.type	lv_ta_get_style, %function
 4074              	lv_ta_get_style:
 4075              	.LFB86:
1105:..\..\..\lvgl\version_6.1.2\lvgl\src\lv_objx/lv_ta.c **** 
1106:..\..\..\lvgl\version_6.1.2\lvgl\src\lv_objx/lv_ta.c **** /**
1107:..\..\..\lvgl\version_6.1.2\lvgl\src\lv_objx/lv_ta.c ****  * Get a style of a text area
1108:..\..\..\lvgl\version_6.1.2\lvgl\src\lv_objx/lv_ta.c ****  * @param ta pointer to a text area object
1109:..\..\..\lvgl\version_6.1.2\lvgl\src\lv_objx/lv_ta.c ****  * @param type which style should be get
1110:..\..\..\lvgl\version_6.1.2\lvgl\src\lv_objx/lv_ta.c ****  * @return style pointer to a style
1111:..\..\..\lvgl\version_6.1.2\lvgl\src\lv_objx/lv_ta.c ****  */
1112:..\..\..\lvgl\version_6.1.2\lvgl\src\lv_objx/lv_ta.c **** const lv_style_t * lv_ta_get_style(const lv_obj_t * ta, lv_ta_style_t type)
1113:..\..\..\lvgl\version_6.1.2\lvgl\src\lv_objx/lv_ta.c **** {
 4076              		.loc 7 1113 0
 4077              		.cfi_startproc
 4078              		@ args = 0, pretend = 0, frame = 16
 4079              		@ frame_needed = 1, uses_anonymous_args = 0
 4080 0000 80B5     		push	{r7, lr}
 4081              		.cfi_def_cfa_offset 8
 4082              		.cfi_offset 7, -8
 4083              		.cfi_offset 14, -4
 4084 0002 84B0     		sub	sp, sp, #16
 4085              		.cfi_def_cfa_offset 24
 4086 0004 00AF     		add	r7, sp, #0
 4087              		.cfi_def_cfa_register 7
 4088 0006 7860     		str	r0, [r7, #4]
 4089 0008 0B46     		mov	r3, r1
 4090 000a FB70     		strb	r3, [r7, #3]
1114:..\..\..\lvgl\version_6.1.2\lvgl\src\lv_objx/lv_ta.c ****     LV_ASSERT_OBJ(ta, LV_OBJX_NAME);
1115:..\..\..\lvgl\version_6.1.2\lvgl\src\lv_objx/lv_ta.c **** 
1116:..\..\..\lvgl\version_6.1.2\lvgl\src\lv_objx/lv_ta.c ****     const lv_style_t * style = NULL;
 4091              		.loc 7 1116 0
 4092 000c 0023     		movs	r3, #0
 4093 000e FB60     		str	r3, [r7, #12]
1117:..\..\..\lvgl\version_6.1.2\lvgl\src\lv_objx/lv_ta.c ****     lv_ta_ext_t * ext        = lv_obj_get_ext_attr(ta);
 4094              		.loc 7 1117 0
 4095 0010 7868     		ldr	r0, [r7, #4]
 4096 0012 FFF7FEFF 		bl	lv_obj_get_ext_attr
 4097 0016 B860     		str	r0, [r7, #8]
1118:..\..\..\lvgl\version_6.1.2\lvgl\src\lv_objx/lv_ta.c **** 
1119:..\..\..\lvgl\version_6.1.2\lvgl\src\lv_objx/lv_ta.c ****     switch(type) {
 4098              		.loc 7 1119 0
 4099 0018 FB78     		ldrb	r3, [r7, #3]	@ zero_extendqisi2
 4100 001a 042B     		cmp	r3, #4
 4101 001c 2ED8     		bhi	.L201
 4102 001e 01A2     		adr	r2, .L203
 4103 0020 52F823F0 		ldr	pc, [r2, r3, lsl #2]
 4104              		.p2align 2
 4105              	.L203:
 4106 0024 39000000 		.word	.L202+1
 4107 0028 45000000 		.word	.L204+1
 4108 002c 5D000000 		.word	.L205+1
 4109 0030 51000000 		.word	.L206+1
 4110 0034 65000000 		.word	.L207+1
ARM GAS  C:\Users\tmj32\AppData\Local\Temp\ccI3WYuM.s 			page 115


 4111              		.p2align 1
 4112              	.L202:
1120:..\..\..\lvgl\version_6.1.2\lvgl\src\lv_objx/lv_ta.c ****         case LV_TA_STYLE_BG: style = lv_page_get_style(ta, LV_PAGE_STYLE_BG); break;
 4113              		.loc 7 1120 0
 4114 0038 0021     		movs	r1, #0
 4115 003a 7868     		ldr	r0, [r7, #4]
 4116 003c FFF7FEFF 		bl	lv_page_get_style
 4117 0040 F860     		str	r0, [r7, #12]
 4118 0042 1FE0     		b	.L208
 4119              	.L204:
1121:..\..\..\lvgl\version_6.1.2\lvgl\src\lv_objx/lv_ta.c ****         case LV_TA_STYLE_SB: style = lv_page_get_style(ta, LV_PAGE_STYLE_SB); break;
 4120              		.loc 7 1121 0
 4121 0044 0221     		movs	r1, #2
 4122 0046 7868     		ldr	r0, [r7, #4]
 4123 0048 FFF7FEFF 		bl	lv_page_get_style
 4124 004c F860     		str	r0, [r7, #12]
 4125 004e 19E0     		b	.L208
 4126              	.L206:
1122:..\..\..\lvgl\version_6.1.2\lvgl\src\lv_objx/lv_ta.c ****         case LV_TA_STYLE_EDGE_FLASH: style = lv_page_get_style(ta, LV_PAGE_STYLE_EDGE_FLASH); break
 4127              		.loc 7 1122 0
 4128 0050 0321     		movs	r1, #3
 4129 0052 7868     		ldr	r0, [r7, #4]
 4130 0054 FFF7FEFF 		bl	lv_page_get_style
 4131 0058 F860     		str	r0, [r7, #12]
 4132 005a 13E0     		b	.L208
 4133              	.L205:
1123:..\..\..\lvgl\version_6.1.2\lvgl\src\lv_objx/lv_ta.c ****         case LV_TA_STYLE_CURSOR: style = ext->cursor.style; break;
 4134              		.loc 7 1123 0
 4135 005c BB68     		ldr	r3, [r7, #8]
 4136 005e 5B6C     		ldr	r3, [r3, #68]
 4137 0060 FB60     		str	r3, [r7, #12]
 4138 0062 0FE0     		b	.L208
 4139              	.L207:
1124:..\..\..\lvgl\version_6.1.2\lvgl\src\lv_objx/lv_ta.c ****         case LV_TA_STYLE_PLACEHOLDER:
1125:..\..\..\lvgl\version_6.1.2\lvgl\src\lv_objx/lv_ta.c ****             if(ext->placeholder) style = lv_label_get_style(ext->placeholder, LV_LABEL_STYLE_MAIN);
 4140              		.loc 7 1125 0
 4141 0064 BB68     		ldr	r3, [r7, #8]
 4142 0066 5B6B     		ldr	r3, [r3, #52]
 4143 0068 002B     		cmp	r3, #0
 4144 006a 0AD0     		beq	.L211
 4145              		.loc 7 1125 0 is_stmt 0 discriminator 1
 4146 006c BB68     		ldr	r3, [r7, #8]
 4147 006e 5B6B     		ldr	r3, [r3, #52]
 4148 0070 0021     		movs	r1, #0
 4149 0072 1846     		mov	r0, r3
 4150 0074 FFF7FEFF 		bl	lv_label_get_style
 4151 0078 F860     		str	r0, [r7, #12]
1126:..\..\..\lvgl\version_6.1.2\lvgl\src\lv_objx/lv_ta.c ****             break;
 4152              		.loc 7 1126 0 is_stmt 1 discriminator 1
 4153 007a 02E0     		b	.L211
 4154              	.L201:
1127:..\..\..\lvgl\version_6.1.2\lvgl\src\lv_objx/lv_ta.c ****         default: style = NULL; break;
 4155              		.loc 7 1127 0
 4156 007c 0023     		movs	r3, #0
 4157 007e FB60     		str	r3, [r7, #12]
 4158 0080 00E0     		b	.L208
 4159              	.L211:
ARM GAS  C:\Users\tmj32\AppData\Local\Temp\ccI3WYuM.s 			page 116


1126:..\..\..\lvgl\version_6.1.2\lvgl\src\lv_objx/lv_ta.c ****             break;
 4160              		.loc 7 1126 0
 4161 0082 00BF     		nop
 4162              	.L208:
1128:..\..\..\lvgl\version_6.1.2\lvgl\src\lv_objx/lv_ta.c ****     }
1129:..\..\..\lvgl\version_6.1.2\lvgl\src\lv_objx/lv_ta.c **** 
1130:..\..\..\lvgl\version_6.1.2\lvgl\src\lv_objx/lv_ta.c ****     return style;
 4163              		.loc 7 1130 0
 4164 0084 FB68     		ldr	r3, [r7, #12]
1131:..\..\..\lvgl\version_6.1.2\lvgl\src\lv_objx/lv_ta.c **** }
 4165              		.loc 7 1131 0
 4166 0086 1846     		mov	r0, r3
 4167 0088 1037     		adds	r7, r7, #16
 4168              		.cfi_def_cfa_offset 8
 4169 008a BD46     		mov	sp, r7
 4170              		.cfi_def_cfa_register 13
 4171              		@ sp needed
 4172 008c 80BD     		pop	{r7, pc}
 4173              		.cfi_endproc
 4174              	.LFE86:
 4175              		.size	lv_ta_get_style, .-lv_ta_get_style
 4176 008e 00BF     		.section	.text.lv_ta_text_is_selected,"ax",%progbits
 4177              		.align	2
 4178              		.global	lv_ta_text_is_selected
 4179              		.thumb
 4180              		.thumb_func
 4181              		.type	lv_ta_text_is_selected, %function
 4182              	lv_ta_text_is_selected:
 4183              	.LFB87:
1132:..\..\..\lvgl\version_6.1.2\lvgl\src\lv_objx/lv_ta.c **** 
1133:..\..\..\lvgl\version_6.1.2\lvgl\src\lv_objx/lv_ta.c **** /**
1134:..\..\..\lvgl\version_6.1.2\lvgl\src\lv_objx/lv_ta.c ****  * Find whether text is selected or not.
1135:..\..\..\lvgl\version_6.1.2\lvgl\src\lv_objx/lv_ta.c ****  * @param ta Text area object
1136:..\..\..\lvgl\version_6.1.2\lvgl\src\lv_objx/lv_ta.c ****  * @return whether text is selected or not
1137:..\..\..\lvgl\version_6.1.2\lvgl\src\lv_objx/lv_ta.c ****  */
1138:..\..\..\lvgl\version_6.1.2\lvgl\src\lv_objx/lv_ta.c **** bool lv_ta_text_is_selected(const lv_obj_t * ta)
1139:..\..\..\lvgl\version_6.1.2\lvgl\src\lv_objx/lv_ta.c **** {
 4184              		.loc 7 1139 0
 4185              		.cfi_startproc
 4186              		@ args = 0, pretend = 0, frame = 8
 4187              		@ frame_needed = 1, uses_anonymous_args = 0
 4188              		@ link register save eliminated.
 4189 0000 80B4     		push	{r7}
 4190              		.cfi_def_cfa_offset 4
 4191              		.cfi_offset 7, -4
 4192 0002 83B0     		sub	sp, sp, #12
 4193              		.cfi_def_cfa_offset 16
 4194 0004 00AF     		add	r7, sp, #0
 4195              		.cfi_def_cfa_register 7
 4196 0006 7860     		str	r0, [r7, #4]
1140:..\..\..\lvgl\version_6.1.2\lvgl\src\lv_objx/lv_ta.c ****     LV_ASSERT_OBJ(ta, LV_OBJX_NAME);
1141:..\..\..\lvgl\version_6.1.2\lvgl\src\lv_objx/lv_ta.c **** 
1142:..\..\..\lvgl\version_6.1.2\lvgl\src\lv_objx/lv_ta.c **** #if LV_LABEL_TEXT_SEL
1143:..\..\..\lvgl\version_6.1.2\lvgl\src\lv_objx/lv_ta.c ****     lv_ta_ext_t * ext = lv_obj_get_ext_attr(ta);
1144:..\..\..\lvgl\version_6.1.2\lvgl\src\lv_objx/lv_ta.c **** 
1145:..\..\..\lvgl\version_6.1.2\lvgl\src\lv_objx/lv_ta.c ****     if((lv_label_get_text_sel_start(ext->label) == LV_DRAW_LABEL_NO_TXT_SEL ||
1146:..\..\..\lvgl\version_6.1.2\lvgl\src\lv_objx/lv_ta.c ****         lv_label_get_text_sel_end(ext->label) == LV_DRAW_LABEL_NO_TXT_SEL)) {
ARM GAS  C:\Users\tmj32\AppData\Local\Temp\ccI3WYuM.s 			page 117


1147:..\..\..\lvgl\version_6.1.2\lvgl\src\lv_objx/lv_ta.c ****         return true;
1148:..\..\..\lvgl\version_6.1.2\lvgl\src\lv_objx/lv_ta.c ****     } else {
1149:..\..\..\lvgl\version_6.1.2\lvgl\src\lv_objx/lv_ta.c ****         return false;
1150:..\..\..\lvgl\version_6.1.2\lvgl\src\lv_objx/lv_ta.c ****     }
1151:..\..\..\lvgl\version_6.1.2\lvgl\src\lv_objx/lv_ta.c **** #else
1152:..\..\..\lvgl\version_6.1.2\lvgl\src\lv_objx/lv_ta.c ****     (void)ta; /*Unused*/
1153:..\..\..\lvgl\version_6.1.2\lvgl\src\lv_objx/lv_ta.c ****     return false;
 4197              		.loc 7 1153 0
 4198 0008 0023     		movs	r3, #0
1154:..\..\..\lvgl\version_6.1.2\lvgl\src\lv_objx/lv_ta.c **** #endif
1155:..\..\..\lvgl\version_6.1.2\lvgl\src\lv_objx/lv_ta.c **** }
 4199              		.loc 7 1155 0
 4200 000a 1846     		mov	r0, r3
 4201 000c 0C37     		adds	r7, r7, #12
 4202              		.cfi_def_cfa_offset 4
 4203 000e BD46     		mov	sp, r7
 4204              		.cfi_def_cfa_register 13
 4205              		@ sp needed
 4206 0010 5DF8047B 		ldr	r7, [sp], #4
 4207              		.cfi_restore 7
 4208              		.cfi_def_cfa_offset 0
 4209 0014 7047     		bx	lr
 4210              		.cfi_endproc
 4211              	.LFE87:
 4212              		.size	lv_ta_text_is_selected, .-lv_ta_text_is_selected
 4213 0016 00BF     		.section	.text.lv_ta_get_text_sel_en,"ax",%progbits
 4214              		.align	2
 4215              		.global	lv_ta_get_text_sel_en
 4216              		.thumb
 4217              		.thumb_func
 4218              		.type	lv_ta_get_text_sel_en, %function
 4219              	lv_ta_get_text_sel_en:
 4220              	.LFB88:
1156:..\..\..\lvgl\version_6.1.2\lvgl\src\lv_objx/lv_ta.c **** 
1157:..\..\..\lvgl\version_6.1.2\lvgl\src\lv_objx/lv_ta.c **** /**
1158:..\..\..\lvgl\version_6.1.2\lvgl\src\lv_objx/lv_ta.c ****  * Find whether selection mode is enabled.
1159:..\..\..\lvgl\version_6.1.2\lvgl\src\lv_objx/lv_ta.c ****  * @param ta pointer to a text area object
1160:..\..\..\lvgl\version_6.1.2\lvgl\src\lv_objx/lv_ta.c ****  * @return true: selection mode is enabled, false: disabled
1161:..\..\..\lvgl\version_6.1.2\lvgl\src\lv_objx/lv_ta.c ****  */
1162:..\..\..\lvgl\version_6.1.2\lvgl\src\lv_objx/lv_ta.c **** bool lv_ta_get_text_sel_en(lv_obj_t * ta)
1163:..\..\..\lvgl\version_6.1.2\lvgl\src\lv_objx/lv_ta.c **** {
 4221              		.loc 7 1163 0
 4222              		.cfi_startproc
 4223              		@ args = 0, pretend = 0, frame = 8
 4224              		@ frame_needed = 1, uses_anonymous_args = 0
 4225              		@ link register save eliminated.
 4226 0000 80B4     		push	{r7}
 4227              		.cfi_def_cfa_offset 4
 4228              		.cfi_offset 7, -4
 4229 0002 83B0     		sub	sp, sp, #12
 4230              		.cfi_def_cfa_offset 16
 4231 0004 00AF     		add	r7, sp, #0
 4232              		.cfi_def_cfa_register 7
 4233 0006 7860     		str	r0, [r7, #4]
1164:..\..\..\lvgl\version_6.1.2\lvgl\src\lv_objx/lv_ta.c ****     LV_ASSERT_OBJ(ta, LV_OBJX_NAME);
1165:..\..\..\lvgl\version_6.1.2\lvgl\src\lv_objx/lv_ta.c **** 
1166:..\..\..\lvgl\version_6.1.2\lvgl\src\lv_objx/lv_ta.c **** #if LV_LABEL_TEXT_SEL
ARM GAS  C:\Users\tmj32\AppData\Local\Temp\ccI3WYuM.s 			page 118


1167:..\..\..\lvgl\version_6.1.2\lvgl\src\lv_objx/lv_ta.c ****     lv_ta_ext_t * ext = lv_obj_get_ext_attr(ta);
1168:..\..\..\lvgl\version_6.1.2\lvgl\src\lv_objx/lv_ta.c ****     return ext->text_sel_en;
1169:..\..\..\lvgl\version_6.1.2\lvgl\src\lv_objx/lv_ta.c **** #else
1170:..\..\..\lvgl\version_6.1.2\lvgl\src\lv_objx/lv_ta.c ****     (void)ta; /*Unused*/
1171:..\..\..\lvgl\version_6.1.2\lvgl\src\lv_objx/lv_ta.c ****     return false;
 4234              		.loc 7 1171 0
 4235 0008 0023     		movs	r3, #0
1172:..\..\..\lvgl\version_6.1.2\lvgl\src\lv_objx/lv_ta.c **** #endif
1173:..\..\..\lvgl\version_6.1.2\lvgl\src\lv_objx/lv_ta.c **** }
 4236              		.loc 7 1173 0
 4237 000a 1846     		mov	r0, r3
 4238 000c 0C37     		adds	r7, r7, #12
 4239              		.cfi_def_cfa_offset 4
 4240 000e BD46     		mov	sp, r7
 4241              		.cfi_def_cfa_register 13
 4242              		@ sp needed
 4243 0010 5DF8047B 		ldr	r7, [sp], #4
 4244              		.cfi_restore 7
 4245              		.cfi_def_cfa_offset 0
 4246 0014 7047     		bx	lr
 4247              		.cfi_endproc
 4248              	.LFE88:
 4249              		.size	lv_ta_get_text_sel_en, .-lv_ta_get_text_sel_en
 4250 0016 00BF     		.section	.text.lv_ta_get_pwd_show_time,"ax",%progbits
 4251              		.align	2
 4252              		.global	lv_ta_get_pwd_show_time
 4253              		.thumb
 4254              		.thumb_func
 4255              		.type	lv_ta_get_pwd_show_time, %function
 4256              	lv_ta_get_pwd_show_time:
 4257              	.LFB89:
1174:..\..\..\lvgl\version_6.1.2\lvgl\src\lv_objx/lv_ta.c **** 
1175:..\..\..\lvgl\version_6.1.2\lvgl\src\lv_objx/lv_ta.c **** /**
1176:..\..\..\lvgl\version_6.1.2\lvgl\src\lv_objx/lv_ta.c ****  * Set how long show the password before changing it to '*'
1177:..\..\..\lvgl\version_6.1.2\lvgl\src\lv_objx/lv_ta.c ****  * @param ta pointer to Text area
1178:..\..\..\lvgl\version_6.1.2\lvgl\src\lv_objx/lv_ta.c ****  * @return show time in milliseconds. 0: hide immediately.
1179:..\..\..\lvgl\version_6.1.2\lvgl\src\lv_objx/lv_ta.c ****  */
1180:..\..\..\lvgl\version_6.1.2\lvgl\src\lv_objx/lv_ta.c **** uint16_t lv_ta_get_pwd_show_time(lv_obj_t * ta)
1181:..\..\..\lvgl\version_6.1.2\lvgl\src\lv_objx/lv_ta.c **** {
 4258              		.loc 7 1181 0
 4259              		.cfi_startproc
 4260              		@ args = 0, pretend = 0, frame = 16
 4261              		@ frame_needed = 1, uses_anonymous_args = 0
 4262 0000 80B5     		push	{r7, lr}
 4263              		.cfi_def_cfa_offset 8
 4264              		.cfi_offset 7, -8
 4265              		.cfi_offset 14, -4
 4266 0002 84B0     		sub	sp, sp, #16
 4267              		.cfi_def_cfa_offset 24
 4268 0004 00AF     		add	r7, sp, #0
 4269              		.cfi_def_cfa_register 7
 4270 0006 7860     		str	r0, [r7, #4]
1182:..\..\..\lvgl\version_6.1.2\lvgl\src\lv_objx/lv_ta.c ****     LV_ASSERT_OBJ(ta, LV_OBJX_NAME);
1183:..\..\..\lvgl\version_6.1.2\lvgl\src\lv_objx/lv_ta.c **** 
1184:..\..\..\lvgl\version_6.1.2\lvgl\src\lv_objx/lv_ta.c ****     lv_ta_ext_t * ext = lv_obj_get_ext_attr(ta);
 4271              		.loc 7 1184 0
 4272 0008 7868     		ldr	r0, [r7, #4]
ARM GAS  C:\Users\tmj32\AppData\Local\Temp\ccI3WYuM.s 			page 119


 4273 000a FFF7FEFF 		bl	lv_obj_get_ext_attr
 4274 000e F860     		str	r0, [r7, #12]
1185:..\..\..\lvgl\version_6.1.2\lvgl\src\lv_objx/lv_ta.c **** 
1186:..\..\..\lvgl\version_6.1.2\lvgl\src\lv_objx/lv_ta.c ****     return ext->pwd_show_time;
 4275              		.loc 7 1186 0
 4276 0010 FB68     		ldr	r3, [r7, #12]
 4277 0012 B3F84230 		ldrh	r3, [r3, #66]
1187:..\..\..\lvgl\version_6.1.2\lvgl\src\lv_objx/lv_ta.c **** }
 4278              		.loc 7 1187 0
 4279 0016 1846     		mov	r0, r3
 4280 0018 1037     		adds	r7, r7, #16
 4281              		.cfi_def_cfa_offset 8
 4282 001a BD46     		mov	sp, r7
 4283              		.cfi_def_cfa_register 13
 4284              		@ sp needed
 4285 001c 80BD     		pop	{r7, pc}
 4286              		.cfi_endproc
 4287              	.LFE89:
 4288              		.size	lv_ta_get_pwd_show_time, .-lv_ta_get_pwd_show_time
 4289 001e 00BF     		.section	.text.lv_ta_get_cursor_blink_time,"ax",%progbits
 4290              		.align	2
 4291              		.global	lv_ta_get_cursor_blink_time
 4292              		.thumb
 4293              		.thumb_func
 4294              		.type	lv_ta_get_cursor_blink_time, %function
 4295              	lv_ta_get_cursor_blink_time:
 4296              	.LFB90:
1188:..\..\..\lvgl\version_6.1.2\lvgl\src\lv_objx/lv_ta.c **** 
1189:..\..\..\lvgl\version_6.1.2\lvgl\src\lv_objx/lv_ta.c **** /**
1190:..\..\..\lvgl\version_6.1.2\lvgl\src\lv_objx/lv_ta.c ****  * Set cursor blink animation time
1191:..\..\..\lvgl\version_6.1.2\lvgl\src\lv_objx/lv_ta.c ****  * @param ta pointer to Text area
1192:..\..\..\lvgl\version_6.1.2\lvgl\src\lv_objx/lv_ta.c ****  * @return time blink period. 0: disable blinking
1193:..\..\..\lvgl\version_6.1.2\lvgl\src\lv_objx/lv_ta.c ****  */
1194:..\..\..\lvgl\version_6.1.2\lvgl\src\lv_objx/lv_ta.c **** uint16_t lv_ta_get_cursor_blink_time(lv_obj_t * ta)
1195:..\..\..\lvgl\version_6.1.2\lvgl\src\lv_objx/lv_ta.c **** {
 4297              		.loc 7 1195 0
 4298              		.cfi_startproc
 4299              		@ args = 0, pretend = 0, frame = 16
 4300              		@ frame_needed = 1, uses_anonymous_args = 0
 4301 0000 80B5     		push	{r7, lr}
 4302              		.cfi_def_cfa_offset 8
 4303              		.cfi_offset 7, -8
 4304              		.cfi_offset 14, -4
 4305 0002 84B0     		sub	sp, sp, #16
 4306              		.cfi_def_cfa_offset 24
 4307 0004 00AF     		add	r7, sp, #0
 4308              		.cfi_def_cfa_register 7
 4309 0006 7860     		str	r0, [r7, #4]
1196:..\..\..\lvgl\version_6.1.2\lvgl\src\lv_objx/lv_ta.c ****     LV_ASSERT_OBJ(ta, LV_OBJX_NAME);
1197:..\..\..\lvgl\version_6.1.2\lvgl\src\lv_objx/lv_ta.c **** 
1198:..\..\..\lvgl\version_6.1.2\lvgl\src\lv_objx/lv_ta.c ****     lv_ta_ext_t * ext = lv_obj_get_ext_attr(ta);
 4310              		.loc 7 1198 0
 4311 0008 7868     		ldr	r0, [r7, #4]
 4312 000a FFF7FEFF 		bl	lv_obj_get_ext_attr
 4313 000e F860     		str	r0, [r7, #12]
1199:..\..\..\lvgl\version_6.1.2\lvgl\src\lv_objx/lv_ta.c ****     return ext->cursor.blink_time;
 4314              		.loc 7 1199 0
ARM GAS  C:\Users\tmj32\AppData\Local\Temp\ccI3WYuM.s 			page 120


 4315 0010 FB68     		ldr	r3, [r7, #12]
 4316 0012 B3F84C30 		ldrh	r3, [r3, #76]
1200:..\..\..\lvgl\version_6.1.2\lvgl\src\lv_objx/lv_ta.c **** }
 4317              		.loc 7 1200 0
 4318 0016 1846     		mov	r0, r3
 4319 0018 1037     		adds	r7, r7, #16
 4320              		.cfi_def_cfa_offset 8
 4321 001a BD46     		mov	sp, r7
 4322              		.cfi_def_cfa_register 13
 4323              		@ sp needed
 4324 001c 80BD     		pop	{r7, pc}
 4325              		.cfi_endproc
 4326              	.LFE90:
 4327              		.size	lv_ta_get_cursor_blink_time, .-lv_ta_get_cursor_blink_time
 4328 001e 00BF     		.section	.text.lv_ta_clear_selection,"ax",%progbits
 4329              		.align	2
 4330              		.global	lv_ta_clear_selection
 4331              		.thumb
 4332              		.thumb_func
 4333              		.type	lv_ta_clear_selection, %function
 4334              	lv_ta_clear_selection:
 4335              	.LFB91:
1201:..\..\..\lvgl\version_6.1.2\lvgl\src\lv_objx/lv_ta.c **** 
1202:..\..\..\lvgl\version_6.1.2\lvgl\src\lv_objx/lv_ta.c **** /*=====================
1203:..\..\..\lvgl\version_6.1.2\lvgl\src\lv_objx/lv_ta.c ****  * Other functions
1204:..\..\..\lvgl\version_6.1.2\lvgl\src\lv_objx/lv_ta.c ****  *====================*/
1205:..\..\..\lvgl\version_6.1.2\lvgl\src\lv_objx/lv_ta.c **** 
1206:..\..\..\lvgl\version_6.1.2\lvgl\src\lv_objx/lv_ta.c **** /**
1207:..\..\..\lvgl\version_6.1.2\lvgl\src\lv_objx/lv_ta.c ****  * Clear the selection on the text area.
1208:..\..\..\lvgl\version_6.1.2\lvgl\src\lv_objx/lv_ta.c ****  * @param ta Text area object
1209:..\..\..\lvgl\version_6.1.2\lvgl\src\lv_objx/lv_ta.c ****  */
1210:..\..\..\lvgl\version_6.1.2\lvgl\src\lv_objx/lv_ta.c **** void lv_ta_clear_selection(lv_obj_t * ta)
1211:..\..\..\lvgl\version_6.1.2\lvgl\src\lv_objx/lv_ta.c **** {
 4336              		.loc 7 1211 0
 4337              		.cfi_startproc
 4338              		@ args = 0, pretend = 0, frame = 8
 4339              		@ frame_needed = 1, uses_anonymous_args = 0
 4340              		@ link register save eliminated.
 4341 0000 80B4     		push	{r7}
 4342              		.cfi_def_cfa_offset 4
 4343              		.cfi_offset 7, -4
 4344 0002 83B0     		sub	sp, sp, #12
 4345              		.cfi_def_cfa_offset 16
 4346 0004 00AF     		add	r7, sp, #0
 4347              		.cfi_def_cfa_register 7
 4348 0006 7860     		str	r0, [r7, #4]
1212:..\..\..\lvgl\version_6.1.2\lvgl\src\lv_objx/lv_ta.c ****     LV_ASSERT_OBJ(ta, LV_OBJX_NAME);
1213:..\..\..\lvgl\version_6.1.2\lvgl\src\lv_objx/lv_ta.c **** 
1214:..\..\..\lvgl\version_6.1.2\lvgl\src\lv_objx/lv_ta.c **** #if LV_LABEL_TEXT_SEL
1215:..\..\..\lvgl\version_6.1.2\lvgl\src\lv_objx/lv_ta.c ****     lv_ta_ext_t * ext = lv_obj_get_ext_attr(ta);
1216:..\..\..\lvgl\version_6.1.2\lvgl\src\lv_objx/lv_ta.c **** 
1217:..\..\..\lvgl\version_6.1.2\lvgl\src\lv_objx/lv_ta.c ****     if(lv_label_get_text_sel_start(ext->label) != LV_DRAW_LABEL_NO_TXT_SEL ||
1218:..\..\..\lvgl\version_6.1.2\lvgl\src\lv_objx/lv_ta.c ****        lv_label_get_text_sel_end(ext->label) != LV_DRAW_LABEL_NO_TXT_SEL) {
1219:..\..\..\lvgl\version_6.1.2\lvgl\src\lv_objx/lv_ta.c ****         lv_label_set_text_sel_start(ext->label, LV_DRAW_LABEL_NO_TXT_SEL);
1220:..\..\..\lvgl\version_6.1.2\lvgl\src\lv_objx/lv_ta.c ****         lv_label_set_text_sel_end(ext->label, LV_DRAW_LABEL_NO_TXT_SEL);
1221:..\..\..\lvgl\version_6.1.2\lvgl\src\lv_objx/lv_ta.c ****     }
1222:..\..\..\lvgl\version_6.1.2\lvgl\src\lv_objx/lv_ta.c **** #else
ARM GAS  C:\Users\tmj32\AppData\Local\Temp\ccI3WYuM.s 			page 121


1223:..\..\..\lvgl\version_6.1.2\lvgl\src\lv_objx/lv_ta.c ****     (void)ta; /*Unused*/
1224:..\..\..\lvgl\version_6.1.2\lvgl\src\lv_objx/lv_ta.c **** #endif
1225:..\..\..\lvgl\version_6.1.2\lvgl\src\lv_objx/lv_ta.c **** }
 4349              		.loc 7 1225 0
 4350 0008 00BF     		nop
 4351 000a 0C37     		adds	r7, r7, #12
 4352              		.cfi_def_cfa_offset 4
 4353 000c BD46     		mov	sp, r7
 4354              		.cfi_def_cfa_register 13
 4355              		@ sp needed
 4356 000e 5DF8047B 		ldr	r7, [sp], #4
 4357              		.cfi_restore 7
 4358              		.cfi_def_cfa_offset 0
 4359 0012 7047     		bx	lr
 4360              		.cfi_endproc
 4361              	.LFE91:
 4362              		.size	lv_ta_clear_selection, .-lv_ta_clear_selection
 4363              		.section	.text.lv_ta_cursor_right,"ax",%progbits
 4364              		.align	2
 4365              		.global	lv_ta_cursor_right
 4366              		.thumb
 4367              		.thumb_func
 4368              		.type	lv_ta_cursor_right, %function
 4369              	lv_ta_cursor_right:
 4370              	.LFB92:
1226:..\..\..\lvgl\version_6.1.2\lvgl\src\lv_objx/lv_ta.c **** 
1227:..\..\..\lvgl\version_6.1.2\lvgl\src\lv_objx/lv_ta.c **** /**
1228:..\..\..\lvgl\version_6.1.2\lvgl\src\lv_objx/lv_ta.c ****  * Move the cursor one character right
1229:..\..\..\lvgl\version_6.1.2\lvgl\src\lv_objx/lv_ta.c ****  * @param ta pointer to a text area object
1230:..\..\..\lvgl\version_6.1.2\lvgl\src\lv_objx/lv_ta.c ****  */
1231:..\..\..\lvgl\version_6.1.2\lvgl\src\lv_objx/lv_ta.c **** void lv_ta_cursor_right(lv_obj_t * ta)
1232:..\..\..\lvgl\version_6.1.2\lvgl\src\lv_objx/lv_ta.c **** {
 4371              		.loc 7 1232 0
 4372              		.cfi_startproc
 4373              		@ args = 0, pretend = 0, frame = 16
 4374              		@ frame_needed = 1, uses_anonymous_args = 0
 4375 0000 80B5     		push	{r7, lr}
 4376              		.cfi_def_cfa_offset 8
 4377              		.cfi_offset 7, -8
 4378              		.cfi_offset 14, -4
 4379 0002 84B0     		sub	sp, sp, #16
 4380              		.cfi_def_cfa_offset 24
 4381 0004 00AF     		add	r7, sp, #0
 4382              		.cfi_def_cfa_register 7
 4383 0006 7860     		str	r0, [r7, #4]
1233:..\..\..\lvgl\version_6.1.2\lvgl\src\lv_objx/lv_ta.c ****     LV_ASSERT_OBJ(ta, LV_OBJX_NAME);
1234:..\..\..\lvgl\version_6.1.2\lvgl\src\lv_objx/lv_ta.c **** 
1235:..\..\..\lvgl\version_6.1.2\lvgl\src\lv_objx/lv_ta.c ****     uint16_t cp = lv_ta_get_cursor_pos(ta);
 4384              		.loc 7 1235 0
 4385 0008 7868     		ldr	r0, [r7, #4]
 4386 000a FFF7FEFF 		bl	lv_ta_get_cursor_pos
 4387 000e 0346     		mov	r3, r0
 4388 0010 FB81     		strh	r3, [r7, #14]	@ movhi
1236:..\..\..\lvgl\version_6.1.2\lvgl\src\lv_objx/lv_ta.c ****     cp++;
 4389              		.loc 7 1236 0
 4390 0012 FB89     		ldrh	r3, [r7, #14]
 4391 0014 0133     		adds	r3, r3, #1
ARM GAS  C:\Users\tmj32\AppData\Local\Temp\ccI3WYuM.s 			page 122


 4392 0016 FB81     		strh	r3, [r7, #14]	@ movhi
1237:..\..\..\lvgl\version_6.1.2\lvgl\src\lv_objx/lv_ta.c ****     lv_ta_set_cursor_pos(ta, cp);
 4393              		.loc 7 1237 0
 4394 0018 B7F90E30 		ldrsh	r3, [r7, #14]
 4395 001c 1946     		mov	r1, r3
 4396 001e 7868     		ldr	r0, [r7, #4]
 4397 0020 FFF7FEFF 		bl	lv_ta_set_cursor_pos
1238:..\..\..\lvgl\version_6.1.2\lvgl\src\lv_objx/lv_ta.c **** }
 4398              		.loc 7 1238 0
 4399 0024 00BF     		nop
 4400 0026 1037     		adds	r7, r7, #16
 4401              		.cfi_def_cfa_offset 8
 4402 0028 BD46     		mov	sp, r7
 4403              		.cfi_def_cfa_register 13
 4404              		@ sp needed
 4405 002a 80BD     		pop	{r7, pc}
 4406              		.cfi_endproc
 4407              	.LFE92:
 4408              		.size	lv_ta_cursor_right, .-lv_ta_cursor_right
 4409              		.section	.text.lv_ta_cursor_left,"ax",%progbits
 4410              		.align	2
 4411              		.global	lv_ta_cursor_left
 4412              		.thumb
 4413              		.thumb_func
 4414              		.type	lv_ta_cursor_left, %function
 4415              	lv_ta_cursor_left:
 4416              	.LFB93:
1239:..\..\..\lvgl\version_6.1.2\lvgl\src\lv_objx/lv_ta.c **** 
1240:..\..\..\lvgl\version_6.1.2\lvgl\src\lv_objx/lv_ta.c **** /**
1241:..\..\..\lvgl\version_6.1.2\lvgl\src\lv_objx/lv_ta.c ****  * Move the cursor one character left
1242:..\..\..\lvgl\version_6.1.2\lvgl\src\lv_objx/lv_ta.c ****  * @param ta pointer to a text area object
1243:..\..\..\lvgl\version_6.1.2\lvgl\src\lv_objx/lv_ta.c ****  */
1244:..\..\..\lvgl\version_6.1.2\lvgl\src\lv_objx/lv_ta.c **** void lv_ta_cursor_left(lv_obj_t * ta)
1245:..\..\..\lvgl\version_6.1.2\lvgl\src\lv_objx/lv_ta.c **** {
 4417              		.loc 7 1245 0
 4418              		.cfi_startproc
 4419              		@ args = 0, pretend = 0, frame = 16
 4420              		@ frame_needed = 1, uses_anonymous_args = 0
 4421 0000 80B5     		push	{r7, lr}
 4422              		.cfi_def_cfa_offset 8
 4423              		.cfi_offset 7, -8
 4424              		.cfi_offset 14, -4
 4425 0002 84B0     		sub	sp, sp, #16
 4426              		.cfi_def_cfa_offset 24
 4427 0004 00AF     		add	r7, sp, #0
 4428              		.cfi_def_cfa_register 7
 4429 0006 7860     		str	r0, [r7, #4]
1246:..\..\..\lvgl\version_6.1.2\lvgl\src\lv_objx/lv_ta.c ****     LV_ASSERT_OBJ(ta, LV_OBJX_NAME);
1247:..\..\..\lvgl\version_6.1.2\lvgl\src\lv_objx/lv_ta.c **** 
1248:..\..\..\lvgl\version_6.1.2\lvgl\src\lv_objx/lv_ta.c ****     uint16_t cp = lv_ta_get_cursor_pos(ta);
 4430              		.loc 7 1248 0
 4431 0008 7868     		ldr	r0, [r7, #4]
 4432 000a FFF7FEFF 		bl	lv_ta_get_cursor_pos
 4433 000e 0346     		mov	r3, r0
 4434 0010 FB81     		strh	r3, [r7, #14]	@ movhi
1249:..\..\..\lvgl\version_6.1.2\lvgl\src\lv_objx/lv_ta.c ****     if(cp > 0) {
 4435              		.loc 7 1249 0
ARM GAS  C:\Users\tmj32\AppData\Local\Temp\ccI3WYuM.s 			page 123


 4436 0012 FB89     		ldrh	r3, [r7, #14]
 4437 0014 002B     		cmp	r3, #0
 4438 0016 08D0     		beq	.L224
1250:..\..\..\lvgl\version_6.1.2\lvgl\src\lv_objx/lv_ta.c ****         cp--;
 4439              		.loc 7 1250 0
 4440 0018 FB89     		ldrh	r3, [r7, #14]
 4441 001a 013B     		subs	r3, r3, #1
 4442 001c FB81     		strh	r3, [r7, #14]	@ movhi
1251:..\..\..\lvgl\version_6.1.2\lvgl\src\lv_objx/lv_ta.c ****         lv_ta_set_cursor_pos(ta, cp);
 4443              		.loc 7 1251 0
 4444 001e B7F90E30 		ldrsh	r3, [r7, #14]
 4445 0022 1946     		mov	r1, r3
 4446 0024 7868     		ldr	r0, [r7, #4]
 4447 0026 FFF7FEFF 		bl	lv_ta_set_cursor_pos
 4448              	.L224:
1252:..\..\..\lvgl\version_6.1.2\lvgl\src\lv_objx/lv_ta.c ****     }
1253:..\..\..\lvgl\version_6.1.2\lvgl\src\lv_objx/lv_ta.c **** }
 4449              		.loc 7 1253 0
 4450 002a 00BF     		nop
 4451 002c 1037     		adds	r7, r7, #16
 4452              		.cfi_def_cfa_offset 8
 4453 002e BD46     		mov	sp, r7
 4454              		.cfi_def_cfa_register 13
 4455              		@ sp needed
 4456 0030 80BD     		pop	{r7, pc}
 4457              		.cfi_endproc
 4458              	.LFE93:
 4459              		.size	lv_ta_cursor_left, .-lv_ta_cursor_left
 4460 0032 00BF     		.section	.text.lv_ta_cursor_down,"ax",%progbits
 4461              		.align	2
 4462              		.global	lv_ta_cursor_down
 4463              		.thumb
 4464              		.thumb_func
 4465              		.type	lv_ta_cursor_down, %function
 4466              	lv_ta_cursor_down:
 4467              	.LFB94:
1254:..\..\..\lvgl\version_6.1.2\lvgl\src\lv_objx/lv_ta.c **** 
1255:..\..\..\lvgl\version_6.1.2\lvgl\src\lv_objx/lv_ta.c **** /**
1256:..\..\..\lvgl\version_6.1.2\lvgl\src\lv_objx/lv_ta.c ****  * Move the cursor one line down
1257:..\..\..\lvgl\version_6.1.2\lvgl\src\lv_objx/lv_ta.c ****  * @param ta pointer to a text area object
1258:..\..\..\lvgl\version_6.1.2\lvgl\src\lv_objx/lv_ta.c ****  */
1259:..\..\..\lvgl\version_6.1.2\lvgl\src\lv_objx/lv_ta.c **** void lv_ta_cursor_down(lv_obj_t * ta)
1260:..\..\..\lvgl\version_6.1.2\lvgl\src\lv_objx/lv_ta.c **** {
 4468              		.loc 7 1260 0
 4469              		.cfi_startproc
 4470              		@ args = 0, pretend = 0, frame = 32
 4471              		@ frame_needed = 1, uses_anonymous_args = 0
 4472 0000 90B5     		push	{r4, r7, lr}
 4473              		.cfi_def_cfa_offset 12
 4474              		.cfi_offset 4, -12
 4475              		.cfi_offset 7, -8
 4476              		.cfi_offset 14, -4
 4477 0002 89B0     		sub	sp, sp, #36
 4478              		.cfi_def_cfa_offset 48
 4479 0004 00AF     		add	r7, sp, #0
 4480              		.cfi_def_cfa_register 7
 4481 0006 7860     		str	r0, [r7, #4]
ARM GAS  C:\Users\tmj32\AppData\Local\Temp\ccI3WYuM.s 			page 124


1261:..\..\..\lvgl\version_6.1.2\lvgl\src\lv_objx/lv_ta.c ****     LV_ASSERT_OBJ(ta, LV_OBJX_NAME);
1262:..\..\..\lvgl\version_6.1.2\lvgl\src\lv_objx/lv_ta.c **** 
1263:..\..\..\lvgl\version_6.1.2\lvgl\src\lv_objx/lv_ta.c ****     lv_ta_ext_t * ext = lv_obj_get_ext_attr(ta);
 4482              		.loc 7 1263 0
 4483 0008 7868     		ldr	r0, [r7, #4]
 4484 000a FFF7FEFF 		bl	lv_obj_get_ext_attr
 4485 000e F861     		str	r0, [r7, #28]
1264:..\..\..\lvgl\version_6.1.2\lvgl\src\lv_objx/lv_ta.c ****     lv_point_t pos;
1265:..\..\..\lvgl\version_6.1.2\lvgl\src\lv_objx/lv_ta.c **** 
1266:..\..\..\lvgl\version_6.1.2\lvgl\src\lv_objx/lv_ta.c ****     /*Get the position of the current letter*/
1267:..\..\..\lvgl\version_6.1.2\lvgl\src\lv_objx/lv_ta.c ****     lv_label_get_letter_pos(ext->label, lv_ta_get_cursor_pos(ta), &pos);
 4486              		.loc 7 1267 0
 4487 0010 FB69     		ldr	r3, [r7, #28]
 4488 0012 1C6B     		ldr	r4, [r3, #48]
 4489 0014 7868     		ldr	r0, [r7, #4]
 4490 0016 FFF7FEFF 		bl	lv_ta_get_cursor_pos
 4491 001a 0346     		mov	r3, r0
 4492 001c 1946     		mov	r1, r3
 4493 001e 07F10803 		add	r3, r7, #8
 4494 0022 1A46     		mov	r2, r3
 4495 0024 2046     		mov	r0, r4
 4496 0026 FFF7FEFF 		bl	lv_label_get_letter_pos
1268:..\..\..\lvgl\version_6.1.2\lvgl\src\lv_objx/lv_ta.c **** 
1269:..\..\..\lvgl\version_6.1.2\lvgl\src\lv_objx/lv_ta.c ****     /*Increment the y with one line and keep the valid x*/
1270:..\..\..\lvgl\version_6.1.2\lvgl\src\lv_objx/lv_ta.c ****     const lv_style_t * label_style = lv_obj_get_style(ext->label);
 4497              		.loc 7 1270 0
 4498 002a FB69     		ldr	r3, [r7, #28]
 4499 002c 1B6B     		ldr	r3, [r3, #48]
 4500 002e 1846     		mov	r0, r3
 4501 0030 FFF7FEFF 		bl	lv_obj_get_style
 4502 0034 B861     		str	r0, [r7, #24]
1271:..\..\..\lvgl\version_6.1.2\lvgl\src\lv_objx/lv_ta.c ****     const lv_font_t * font_p       = label_style->text.font;
 4503              		.loc 7 1271 0
 4504 0036 BB69     		ldr	r3, [r7, #24]
 4505 0038 5B6B     		ldr	r3, [r3, #52]
 4506 003a 7B61     		str	r3, [r7, #20]
1272:..\..\..\lvgl\version_6.1.2\lvgl\src\lv_objx/lv_ta.c ****     lv_coord_t font_h              = lv_font_get_line_height(font_p);
 4507              		.loc 7 1272 0
 4508 003c 7869     		ldr	r0, [r7, #20]
 4509 003e FFF7FEFF 		bl	lv_font_get_line_height
 4510 0042 0346     		mov	r3, r0
 4511 0044 7B82     		strh	r3, [r7, #18]	@ movhi
1273:..\..\..\lvgl\version_6.1.2\lvgl\src\lv_objx/lv_ta.c ****     pos.y += font_h + label_style->text.line_space + 1;
 4512              		.loc 7 1273 0
 4513 0046 B7F90A30 		ldrsh	r3, [r7, #10]
 4514 004a 9AB2     		uxth	r2, r3
 4515 004c BB69     		ldr	r3, [r7, #24]
 4516 004e B3F93A30 		ldrsh	r3, [r3, #58]
 4517 0052 99B2     		uxth	r1, r3
 4518 0054 7B8A     		ldrh	r3, [r7, #18]
 4519 0056 0B44     		add	r3, r3, r1
 4520 0058 9BB2     		uxth	r3, r3
 4521 005a 1344     		add	r3, r3, r2
 4522 005c 9BB2     		uxth	r3, r3
 4523 005e 0133     		adds	r3, r3, #1
 4524 0060 9BB2     		uxth	r3, r3
 4525 0062 1BB2     		sxth	r3, r3
ARM GAS  C:\Users\tmj32\AppData\Local\Temp\ccI3WYuM.s 			page 125


 4526 0064 7B81     		strh	r3, [r7, #10]	@ movhi
1274:..\..\..\lvgl\version_6.1.2\lvgl\src\lv_objx/lv_ta.c ****     pos.x = ext->cursor.valid_x;
 4527              		.loc 7 1274 0
 4528 0066 FB69     		ldr	r3, [r7, #28]
 4529 0068 B3F94830 		ldrsh	r3, [r3, #72]
 4530 006c 3B81     		strh	r3, [r7, #8]	@ movhi
1275:..\..\..\lvgl\version_6.1.2\lvgl\src\lv_objx/lv_ta.c **** 
1276:..\..\..\lvgl\version_6.1.2\lvgl\src\lv_objx/lv_ta.c ****     /*Do not go below the last line*/
1277:..\..\..\lvgl\version_6.1.2\lvgl\src\lv_objx/lv_ta.c ****     if(pos.y < lv_obj_get_height(ext->label)) {
 4531              		.loc 7 1277 0
 4532 006e B7F90A40 		ldrsh	r4, [r7, #10]
 4533 0072 FB69     		ldr	r3, [r7, #28]
 4534 0074 1B6B     		ldr	r3, [r3, #48]
 4535 0076 1846     		mov	r0, r3
 4536 0078 FFF7FEFF 		bl	lv_obj_get_height
 4537 007c 0346     		mov	r3, r0
 4538 007e 9C42     		cmp	r4, r3
 4539 0080 17DA     		bge	.L227
 4540              	.LBB26:
1278:..\..\..\lvgl\version_6.1.2\lvgl\src\lv_objx/lv_ta.c ****         /*Get the letter index on the new cursor position and set it*/
1279:..\..\..\lvgl\version_6.1.2\lvgl\src\lv_objx/lv_ta.c ****         uint16_t new_cur_pos = lv_label_get_letter_on(ext->label, &pos);
 4541              		.loc 7 1279 0
 4542 0082 FB69     		ldr	r3, [r7, #28]
 4543 0084 1B6B     		ldr	r3, [r3, #48]
 4544 0086 07F10802 		add	r2, r7, #8
 4545 008a 1146     		mov	r1, r2
 4546 008c 1846     		mov	r0, r3
 4547 008e FFF7FEFF 		bl	lv_label_get_letter_on
 4548 0092 0346     		mov	r3, r0
 4549 0094 3B82     		strh	r3, [r7, #16]	@ movhi
1280:..\..\..\lvgl\version_6.1.2\lvgl\src\lv_objx/lv_ta.c **** 
1281:..\..\..\lvgl\version_6.1.2\lvgl\src\lv_objx/lv_ta.c ****         lv_coord_t cur_valid_x_tmp = ext->cursor.valid_x; /*Cursor position set overwrites the vali
 4550              		.loc 7 1281 0
 4551 0096 FB69     		ldr	r3, [r7, #28]
 4552 0098 B3F84830 		ldrh	r3, [r3, #72]	@ movhi
 4553 009c FB81     		strh	r3, [r7, #14]	@ movhi
1282:..\..\..\lvgl\version_6.1.2\lvgl\src\lv_objx/lv_ta.c ****         lv_ta_set_cursor_pos(ta, new_cur_pos);
 4554              		.loc 7 1282 0
 4555 009e B7F91030 		ldrsh	r3, [r7, #16]
 4556 00a2 1946     		mov	r1, r3
 4557 00a4 7868     		ldr	r0, [r7, #4]
 4558 00a6 FFF7FEFF 		bl	lv_ta_set_cursor_pos
1283:..\..\..\lvgl\version_6.1.2\lvgl\src\lv_objx/lv_ta.c ****         ext->cursor.valid_x = cur_valid_x_tmp;
 4559              		.loc 7 1283 0
 4560 00aa FB69     		ldr	r3, [r7, #28]
 4561 00ac FA89     		ldrh	r2, [r7, #14]	@ movhi
 4562 00ae A3F84820 		strh	r2, [r3, #72]	@ movhi
 4563              	.L227:
 4564              	.LBE26:
1284:..\..\..\lvgl\version_6.1.2\lvgl\src\lv_objx/lv_ta.c ****     }
1285:..\..\..\lvgl\version_6.1.2\lvgl\src\lv_objx/lv_ta.c **** }
 4565              		.loc 7 1285 0
 4566 00b2 00BF     		nop
 4567 00b4 2437     		adds	r7, r7, #36
 4568              		.cfi_def_cfa_offset 12
 4569 00b6 BD46     		mov	sp, r7
 4570              		.cfi_def_cfa_register 13
ARM GAS  C:\Users\tmj32\AppData\Local\Temp\ccI3WYuM.s 			page 126


 4571              		@ sp needed
 4572 00b8 90BD     		pop	{r4, r7, pc}
 4573              		.cfi_endproc
 4574              	.LFE94:
 4575              		.size	lv_ta_cursor_down, .-lv_ta_cursor_down
 4576 00ba 00BF     		.section	.text.lv_ta_cursor_up,"ax",%progbits
 4577              		.align	2
 4578              		.global	lv_ta_cursor_up
 4579              		.thumb
 4580              		.thumb_func
 4581              		.type	lv_ta_cursor_up, %function
 4582              	lv_ta_cursor_up:
 4583              	.LFB95:
1286:..\..\..\lvgl\version_6.1.2\lvgl\src\lv_objx/lv_ta.c **** 
1287:..\..\..\lvgl\version_6.1.2\lvgl\src\lv_objx/lv_ta.c **** /**
1288:..\..\..\lvgl\version_6.1.2\lvgl\src\lv_objx/lv_ta.c ****  * Move the cursor one line up
1289:..\..\..\lvgl\version_6.1.2\lvgl\src\lv_objx/lv_ta.c ****  * @param ta pointer to a text area object
1290:..\..\..\lvgl\version_6.1.2\lvgl\src\lv_objx/lv_ta.c ****  */
1291:..\..\..\lvgl\version_6.1.2\lvgl\src\lv_objx/lv_ta.c **** void lv_ta_cursor_up(lv_obj_t * ta)
1292:..\..\..\lvgl\version_6.1.2\lvgl\src\lv_objx/lv_ta.c **** {
 4584              		.loc 7 1292 0
 4585              		.cfi_startproc
 4586              		@ args = 0, pretend = 0, frame = 32
 4587              		@ frame_needed = 1, uses_anonymous_args = 0
 4588 0000 90B5     		push	{r4, r7, lr}
 4589              		.cfi_def_cfa_offset 12
 4590              		.cfi_offset 4, -12
 4591              		.cfi_offset 7, -8
 4592              		.cfi_offset 14, -4
 4593 0002 89B0     		sub	sp, sp, #36
 4594              		.cfi_def_cfa_offset 48
 4595 0004 00AF     		add	r7, sp, #0
 4596              		.cfi_def_cfa_register 7
 4597 0006 7860     		str	r0, [r7, #4]
1293:..\..\..\lvgl\version_6.1.2\lvgl\src\lv_objx/lv_ta.c ****     LV_ASSERT_OBJ(ta, LV_OBJX_NAME);
1294:..\..\..\lvgl\version_6.1.2\lvgl\src\lv_objx/lv_ta.c **** 
1295:..\..\..\lvgl\version_6.1.2\lvgl\src\lv_objx/lv_ta.c ****     lv_ta_ext_t * ext = lv_obj_get_ext_attr(ta);
 4598              		.loc 7 1295 0
 4599 0008 7868     		ldr	r0, [r7, #4]
 4600 000a FFF7FEFF 		bl	lv_obj_get_ext_attr
 4601 000e F861     		str	r0, [r7, #28]
1296:..\..\..\lvgl\version_6.1.2\lvgl\src\lv_objx/lv_ta.c ****     lv_point_t pos;
1297:..\..\..\lvgl\version_6.1.2\lvgl\src\lv_objx/lv_ta.c **** 
1298:..\..\..\lvgl\version_6.1.2\lvgl\src\lv_objx/lv_ta.c ****     /*Get the position of the current letter*/
1299:..\..\..\lvgl\version_6.1.2\lvgl\src\lv_objx/lv_ta.c ****     lv_label_get_letter_pos(ext->label, lv_ta_get_cursor_pos(ta), &pos);
 4602              		.loc 7 1299 0
 4603 0010 FB69     		ldr	r3, [r7, #28]
 4604 0012 1C6B     		ldr	r4, [r3, #48]
 4605 0014 7868     		ldr	r0, [r7, #4]
 4606 0016 FFF7FEFF 		bl	lv_ta_get_cursor_pos
 4607 001a 0346     		mov	r3, r0
 4608 001c 1946     		mov	r1, r3
 4609 001e 07F10803 		add	r3, r7, #8
 4610 0022 1A46     		mov	r2, r3
 4611 0024 2046     		mov	r0, r4
 4612 0026 FFF7FEFF 		bl	lv_label_get_letter_pos
1300:..\..\..\lvgl\version_6.1.2\lvgl\src\lv_objx/lv_ta.c **** 
ARM GAS  C:\Users\tmj32\AppData\Local\Temp\ccI3WYuM.s 			page 127


1301:..\..\..\lvgl\version_6.1.2\lvgl\src\lv_objx/lv_ta.c ****     /*Decrement the y with one line and keep the valid x*/
1302:..\..\..\lvgl\version_6.1.2\lvgl\src\lv_objx/lv_ta.c ****     const lv_style_t * label_style = lv_obj_get_style(ext->label);
 4613              		.loc 7 1302 0
 4614 002a FB69     		ldr	r3, [r7, #28]
 4615 002c 1B6B     		ldr	r3, [r3, #48]
 4616 002e 1846     		mov	r0, r3
 4617 0030 FFF7FEFF 		bl	lv_obj_get_style
 4618 0034 B861     		str	r0, [r7, #24]
1303:..\..\..\lvgl\version_6.1.2\lvgl\src\lv_objx/lv_ta.c ****     const lv_font_t * font         = label_style->text.font;
 4619              		.loc 7 1303 0
 4620 0036 BB69     		ldr	r3, [r7, #24]
 4621 0038 5B6B     		ldr	r3, [r3, #52]
 4622 003a 7B61     		str	r3, [r7, #20]
1304:..\..\..\lvgl\version_6.1.2\lvgl\src\lv_objx/lv_ta.c ****     lv_coord_t font_h              = lv_font_get_line_height(font);
 4623              		.loc 7 1304 0
 4624 003c 7869     		ldr	r0, [r7, #20]
 4625 003e FFF7FEFF 		bl	lv_font_get_line_height
 4626 0042 0346     		mov	r3, r0
 4627 0044 7B82     		strh	r3, [r7, #18]	@ movhi
1305:..\..\..\lvgl\version_6.1.2\lvgl\src\lv_objx/lv_ta.c ****     pos.y -= font_h + label_style->text.line_space - 1;
 4628              		.loc 7 1305 0
 4629 0046 B7F90A30 		ldrsh	r3, [r7, #10]
 4630 004a 9AB2     		uxth	r2, r3
 4631 004c BB69     		ldr	r3, [r7, #24]
 4632 004e B3F93A30 		ldrsh	r3, [r3, #58]
 4633 0052 99B2     		uxth	r1, r3
 4634 0054 7B8A     		ldrh	r3, [r7, #18]
 4635 0056 0B44     		add	r3, r3, r1
 4636 0058 9BB2     		uxth	r3, r3
 4637 005a D31A     		subs	r3, r2, r3
 4638 005c 9BB2     		uxth	r3, r3
 4639 005e 0133     		adds	r3, r3, #1
 4640 0060 9BB2     		uxth	r3, r3
 4641 0062 1BB2     		sxth	r3, r3
 4642 0064 7B81     		strh	r3, [r7, #10]	@ movhi
1306:..\..\..\lvgl\version_6.1.2\lvgl\src\lv_objx/lv_ta.c ****     pos.x = ext->cursor.valid_x;
 4643              		.loc 7 1306 0
 4644 0066 FB69     		ldr	r3, [r7, #28]
 4645 0068 B3F94830 		ldrsh	r3, [r3, #72]
 4646 006c 3B81     		strh	r3, [r7, #8]	@ movhi
1307:..\..\..\lvgl\version_6.1.2\lvgl\src\lv_objx/lv_ta.c **** 
1308:..\..\..\lvgl\version_6.1.2\lvgl\src\lv_objx/lv_ta.c ****     /*Get the letter index on the new cursor position and set it*/
1309:..\..\..\lvgl\version_6.1.2\lvgl\src\lv_objx/lv_ta.c ****     uint16_t new_cur_pos       = lv_label_get_letter_on(ext->label, &pos);
 4647              		.loc 7 1309 0
 4648 006e FB69     		ldr	r3, [r7, #28]
 4649 0070 1B6B     		ldr	r3, [r3, #48]
 4650 0072 07F10802 		add	r2, r7, #8
 4651 0076 1146     		mov	r1, r2
 4652 0078 1846     		mov	r0, r3
 4653 007a FFF7FEFF 		bl	lv_label_get_letter_on
 4654 007e 0346     		mov	r3, r0
 4655 0080 3B82     		strh	r3, [r7, #16]	@ movhi
1310:..\..\..\lvgl\version_6.1.2\lvgl\src\lv_objx/lv_ta.c ****     lv_coord_t cur_valid_x_tmp = ext->cursor.valid_x; /*Cursor position set overwrites the valid po
 4656              		.loc 7 1310 0
 4657 0082 FB69     		ldr	r3, [r7, #28]
 4658 0084 B3F84830 		ldrh	r3, [r3, #72]	@ movhi
 4659 0088 FB81     		strh	r3, [r7, #14]	@ movhi
ARM GAS  C:\Users\tmj32\AppData\Local\Temp\ccI3WYuM.s 			page 128


1311:..\..\..\lvgl\version_6.1.2\lvgl\src\lv_objx/lv_ta.c ****     lv_ta_set_cursor_pos(ta, new_cur_pos);
 4660              		.loc 7 1311 0
 4661 008a B7F91030 		ldrsh	r3, [r7, #16]
 4662 008e 1946     		mov	r1, r3
 4663 0090 7868     		ldr	r0, [r7, #4]
 4664 0092 FFF7FEFF 		bl	lv_ta_set_cursor_pos
1312:..\..\..\lvgl\version_6.1.2\lvgl\src\lv_objx/lv_ta.c ****     ext->cursor.valid_x = cur_valid_x_tmp;
 4665              		.loc 7 1312 0
 4666 0096 FB69     		ldr	r3, [r7, #28]
 4667 0098 FA89     		ldrh	r2, [r7, #14]	@ movhi
 4668 009a A3F84820 		strh	r2, [r3, #72]	@ movhi
1313:..\..\..\lvgl\version_6.1.2\lvgl\src\lv_objx/lv_ta.c **** }
 4669              		.loc 7 1313 0
 4670 009e 00BF     		nop
 4671 00a0 2437     		adds	r7, r7, #36
 4672              		.cfi_def_cfa_offset 12
 4673 00a2 BD46     		mov	sp, r7
 4674              		.cfi_def_cfa_register 13
 4675              		@ sp needed
 4676 00a4 90BD     		pop	{r4, r7, pc}
 4677              		.cfi_endproc
 4678              	.LFE95:
 4679              		.size	lv_ta_cursor_up, .-lv_ta_cursor_up
 4680 00a6 00BF     		.section	.text.lv_ta_design,"ax",%progbits
 4681              		.align	2
 4682              		.thumb
 4683              		.thumb_func
 4684              		.type	lv_ta_design, %function
 4685              	lv_ta_design:
 4686              	.LFB96:
1314:..\..\..\lvgl\version_6.1.2\lvgl\src\lv_objx/lv_ta.c **** 
1315:..\..\..\lvgl\version_6.1.2\lvgl\src\lv_objx/lv_ta.c **** /**********************
1316:..\..\..\lvgl\version_6.1.2\lvgl\src\lv_objx/lv_ta.c ****  *   STATIC FUNCTIONS
1317:..\..\..\lvgl\version_6.1.2\lvgl\src\lv_objx/lv_ta.c ****  **********************/
1318:..\..\..\lvgl\version_6.1.2\lvgl\src\lv_objx/lv_ta.c **** 
1319:..\..\..\lvgl\version_6.1.2\lvgl\src\lv_objx/lv_ta.c **** /**
1320:..\..\..\lvgl\version_6.1.2\lvgl\src\lv_objx/lv_ta.c ****  * Handle the drawing related tasks of the text areas
1321:..\..\..\lvgl\version_6.1.2\lvgl\src\lv_objx/lv_ta.c ****  * @param ta pointer to an object
1322:..\..\..\lvgl\version_6.1.2\lvgl\src\lv_objx/lv_ta.c ****  * @param mask the object will be drawn only in this area
1323:..\..\..\lvgl\version_6.1.2\lvgl\src\lv_objx/lv_ta.c ****  * @param mode LV_DESIGN_COVER_CHK: only check if the object fully covers the 'mask_p' area
1324:..\..\..\lvgl\version_6.1.2\lvgl\src\lv_objx/lv_ta.c ****  *                                  (return 'true' if yes)
1325:..\..\..\lvgl\version_6.1.2\lvgl\src\lv_objx/lv_ta.c ****  *             LV_DESIGN_DRAW_MAIN: draw the object (always return 'true')
1326:..\..\..\lvgl\version_6.1.2\lvgl\src\lv_objx/lv_ta.c ****  *             LV_DESIGN_DRAW_POST: drawing after every children are drawn
1327:..\..\..\lvgl\version_6.1.2\lvgl\src\lv_objx/lv_ta.c ****  * @param return true/false, depends on 'mode'
1328:..\..\..\lvgl\version_6.1.2\lvgl\src\lv_objx/lv_ta.c ****  */
1329:..\..\..\lvgl\version_6.1.2\lvgl\src\lv_objx/lv_ta.c **** static bool lv_ta_design(lv_obj_t * ta, const lv_area_t * mask, lv_design_mode_t mode)
1330:..\..\..\lvgl\version_6.1.2\lvgl\src\lv_objx/lv_ta.c **** {
 4687              		.loc 7 1330 0
 4688              		.cfi_startproc
 4689              		@ args = 0, pretend = 0, frame = 16
 4690              		@ frame_needed = 1, uses_anonymous_args = 0
 4691 0000 80B5     		push	{r7, lr}
 4692              		.cfi_def_cfa_offset 8
 4693              		.cfi_offset 7, -8
 4694              		.cfi_offset 14, -4
 4695 0002 84B0     		sub	sp, sp, #16
 4696              		.cfi_def_cfa_offset 24
ARM GAS  C:\Users\tmj32\AppData\Local\Temp\ccI3WYuM.s 			page 129


 4697 0004 00AF     		add	r7, sp, #0
 4698              		.cfi_def_cfa_register 7
 4699 0006 F860     		str	r0, [r7, #12]
 4700 0008 B960     		str	r1, [r7, #8]
 4701 000a 1346     		mov	r3, r2
 4702 000c FB71     		strb	r3, [r7, #7]
1331:..\..\..\lvgl\version_6.1.2\lvgl\src\lv_objx/lv_ta.c ****     if(mode == LV_DESIGN_COVER_CHK) {
 4703              		.loc 7 1331 0
 4704 000e FB79     		ldrb	r3, [r7, #7]	@ zero_extendqisi2
 4705 0010 022B     		cmp	r3, #2
 4706 0012 07D1     		bne	.L230
1332:..\..\..\lvgl\version_6.1.2\lvgl\src\lv_objx/lv_ta.c ****         /*Return false if the object is not covers the mask_p area*/
1333:..\..\..\lvgl\version_6.1.2\lvgl\src\lv_objx/lv_ta.c ****         return ancestor_design(ta, mask, mode);
 4707              		.loc 7 1333 0
 4708 0014 0F4B     		ldr	r3, .L234
 4709 0016 1B68     		ldr	r3, [r3]
 4710 0018 FA79     		ldrb	r2, [r7, #7]	@ zero_extendqisi2
 4711 001a B968     		ldr	r1, [r7, #8]
 4712 001c F868     		ldr	r0, [r7, #12]
 4713 001e 9847     		blx	r3
 4714 0020 0346     		mov	r3, r0
 4715 0022 13E0     		b	.L231
 4716              	.L230:
1334:..\..\..\lvgl\version_6.1.2\lvgl\src\lv_objx/lv_ta.c ****     } else if(mode == LV_DESIGN_DRAW_MAIN) {
 4717              		.loc 7 1334 0
 4718 0024 FB79     		ldrb	r3, [r7, #7]	@ zero_extendqisi2
 4719 0026 002B     		cmp	r3, #0
 4720 0028 06D1     		bne	.L232
1335:..\..\..\lvgl\version_6.1.2\lvgl\src\lv_objx/lv_ta.c ****         /*Draw the object*/
1336:..\..\..\lvgl\version_6.1.2\lvgl\src\lv_objx/lv_ta.c ****         ancestor_design(ta, mask, mode);
 4721              		.loc 7 1336 0
 4722 002a 0A4B     		ldr	r3, .L234
 4723 002c 1B68     		ldr	r3, [r3]
 4724 002e FA79     		ldrb	r2, [r7, #7]	@ zero_extendqisi2
 4725 0030 B968     		ldr	r1, [r7, #8]
 4726 0032 F868     		ldr	r0, [r7, #12]
 4727 0034 9847     		blx	r3
 4728 0036 08E0     		b	.L233
 4729              	.L232:
1337:..\..\..\lvgl\version_6.1.2\lvgl\src\lv_objx/lv_ta.c **** 
1338:..\..\..\lvgl\version_6.1.2\lvgl\src\lv_objx/lv_ta.c ****     } else if(mode == LV_DESIGN_DRAW_POST) {
 4730              		.loc 7 1338 0
 4731 0038 FB79     		ldrb	r3, [r7, #7]	@ zero_extendqisi2
 4732 003a 012B     		cmp	r3, #1
 4733 003c 05D1     		bne	.L233
1339:..\..\..\lvgl\version_6.1.2\lvgl\src\lv_objx/lv_ta.c ****         ancestor_design(ta, mask, mode);
 4734              		.loc 7 1339 0
 4735 003e 054B     		ldr	r3, .L234
 4736 0040 1B68     		ldr	r3, [r3]
 4737 0042 FA79     		ldrb	r2, [r7, #7]	@ zero_extendqisi2
 4738 0044 B968     		ldr	r1, [r7, #8]
 4739 0046 F868     		ldr	r0, [r7, #12]
 4740 0048 9847     		blx	r3
 4741              	.L233:
1340:..\..\..\lvgl\version_6.1.2\lvgl\src\lv_objx/lv_ta.c ****     }
1341:..\..\..\lvgl\version_6.1.2\lvgl\src\lv_objx/lv_ta.c ****     return true;
 4742              		.loc 7 1341 0
ARM GAS  C:\Users\tmj32\AppData\Local\Temp\ccI3WYuM.s 			page 130


 4743 004a 0123     		movs	r3, #1
 4744              	.L231:
1342:..\..\..\lvgl\version_6.1.2\lvgl\src\lv_objx/lv_ta.c **** }
 4745              		.loc 7 1342 0
 4746 004c 1846     		mov	r0, r3
 4747 004e 1037     		adds	r7, r7, #16
 4748              		.cfi_def_cfa_offset 8
 4749 0050 BD46     		mov	sp, r7
 4750              		.cfi_def_cfa_register 13
 4751              		@ sp needed
 4752 0052 80BD     		pop	{r7, pc}
 4753              	.L235:
 4754              		.align	2
 4755              	.L234:
 4756 0054 00000000 		.word	ancestor_design
 4757              		.cfi_endproc
 4758              	.LFE96:
 4759              		.size	lv_ta_design, .-lv_ta_design
 4760              		.section	.text.lv_ta_scrollable_design,"ax",%progbits
 4761              		.align	2
 4762              		.thumb
 4763              		.thumb_func
 4764              		.type	lv_ta_scrollable_design, %function
 4765              	lv_ta_scrollable_design:
 4766              	.LFB97:
1343:..\..\..\lvgl\version_6.1.2\lvgl\src\lv_objx/lv_ta.c **** 
1344:..\..\..\lvgl\version_6.1.2\lvgl\src\lv_objx/lv_ta.c **** /**
1345:..\..\..\lvgl\version_6.1.2\lvgl\src\lv_objx/lv_ta.c ****  * An extended scrollable design of the page. Calls the normal design function and draws a cursor.
1346:..\..\..\lvgl\version_6.1.2\lvgl\src\lv_objx/lv_ta.c ****  * @param scrl pointer to the scrollable part of the Text area
1347:..\..\..\lvgl\version_6.1.2\lvgl\src\lv_objx/lv_ta.c ****  * @param mask  the object will be drawn only in this area
1348:..\..\..\lvgl\version_6.1.2\lvgl\src\lv_objx/lv_ta.c ****  * @param mode LV_DESIGN_COVER_CHK: only check if the object fully covers the 'mask_p' area
1349:..\..\..\lvgl\version_6.1.2\lvgl\src\lv_objx/lv_ta.c ****  *                                  (return 'true' if yes)
1350:..\..\..\lvgl\version_6.1.2\lvgl\src\lv_objx/lv_ta.c ****  *             LV_DESIGN_DRAW_MAIN: draw the object (always return 'true')
1351:..\..\..\lvgl\version_6.1.2\lvgl\src\lv_objx/lv_ta.c ****  *             LV_DESIGN_DRAW_POST: drawing after every children are drawn
1352:..\..\..\lvgl\version_6.1.2\lvgl\src\lv_objx/lv_ta.c ****  * @return return true/false, depends on 'mode'
1353:..\..\..\lvgl\version_6.1.2\lvgl\src\lv_objx/lv_ta.c ****  */
1354:..\..\..\lvgl\version_6.1.2\lvgl\src\lv_objx/lv_ta.c **** static bool lv_ta_scrollable_design(lv_obj_t * scrl, const lv_area_t * mask, lv_design_mode_t mode)
1355:..\..\..\lvgl\version_6.1.2\lvgl\src\lv_objx/lv_ta.c **** {
 4767              		.loc 7 1355 0
 4768              		.cfi_startproc
 4769              		@ args = 0, pretend = 0, frame = 128
 4770              		@ frame_needed = 1, uses_anonymous_args = 0
 4771 0000 90B5     		push	{r4, r7, lr}
 4772              		.cfi_def_cfa_offset 12
 4773              		.cfi_offset 4, -12
 4774              		.cfi_offset 7, -8
 4775              		.cfi_offset 14, -4
 4776 0002 A7B0     		sub	sp, sp, #156
 4777              		.cfi_def_cfa_offset 168
 4778 0004 06AF     		add	r7, sp, #24
 4779              		.cfi_def_cfa 7, 144
 4780 0006 F860     		str	r0, [r7, #12]
 4781 0008 B960     		str	r1, [r7, #8]
 4782 000a 1346     		mov	r3, r2
 4783 000c FB71     		strb	r3, [r7, #7]
1356:..\..\..\lvgl\version_6.1.2\lvgl\src\lv_objx/lv_ta.c ****     if(mode == LV_DESIGN_COVER_CHK) {
 4784              		.loc 7 1356 0
ARM GAS  C:\Users\tmj32\AppData\Local\Temp\ccI3WYuM.s 			page 131


 4785 000e FB79     		ldrb	r3, [r7, #7]	@ zero_extendqisi2
 4786 0010 022B     		cmp	r3, #2
 4787 0012 07D1     		bne	.L237
1357:..\..\..\lvgl\version_6.1.2\lvgl\src\lv_objx/lv_ta.c ****         /*Return false if the object is not covers the mask_p area*/
1358:..\..\..\lvgl\version_6.1.2\lvgl\src\lv_objx/lv_ta.c ****         return scrl_design(scrl, mask, mode);
 4788              		.loc 7 1358 0
 4789 0014 974B     		ldr	r3, .L248
 4790 0016 1B68     		ldr	r3, [r3]
 4791 0018 FA79     		ldrb	r2, [r7, #7]	@ zero_extendqisi2
 4792 001a B968     		ldr	r1, [r7, #8]
 4793 001c F868     		ldr	r0, [r7, #12]
 4794 001e 9847     		blx	r3
 4795 0020 0346     		mov	r3, r0
 4796 0022 23E1     		b	.L238
 4797              	.L237:
1359:..\..\..\lvgl\version_6.1.2\lvgl\src\lv_objx/lv_ta.c ****     } else if(mode == LV_DESIGN_DRAW_MAIN) {
 4798              		.loc 7 1359 0
 4799 0024 FB79     		ldrb	r3, [r7, #7]	@ zero_extendqisi2
 4800 0026 002B     		cmp	r3, #0
 4801 0028 06D1     		bne	.L239
1360:..\..\..\lvgl\version_6.1.2\lvgl\src\lv_objx/lv_ta.c ****         /*Draw the object*/
1361:..\..\..\lvgl\version_6.1.2\lvgl\src\lv_objx/lv_ta.c ****         scrl_design(scrl, mask, mode);
 4802              		.loc 7 1361 0
 4803 002a 924B     		ldr	r3, .L248
 4804 002c 1B68     		ldr	r3, [r3]
 4805 002e FA79     		ldrb	r2, [r7, #7]	@ zero_extendqisi2
 4806 0030 B968     		ldr	r1, [r7, #8]
 4807 0032 F868     		ldr	r0, [r7, #12]
 4808 0034 9847     		blx	r3
 4809 0036 18E1     		b	.L240
 4810              	.L239:
1362:..\..\..\lvgl\version_6.1.2\lvgl\src\lv_objx/lv_ta.c ****     } else if(mode == LV_DESIGN_DRAW_POST) {
 4811              		.loc 7 1362 0
 4812 0038 FB79     		ldrb	r3, [r7, #7]	@ zero_extendqisi2
 4813 003a 012B     		cmp	r3, #1
 4814 003c 40F01581 		bne	.L240
 4815              	.LBB27:
1363:..\..\..\lvgl\version_6.1.2\lvgl\src\lv_objx/lv_ta.c ****         scrl_design(scrl, mask, mode);
 4816              		.loc 7 1363 0
 4817 0040 8C4B     		ldr	r3, .L248
 4818 0042 1B68     		ldr	r3, [r3]
 4819 0044 FA79     		ldrb	r2, [r7, #7]	@ zero_extendqisi2
 4820 0046 B968     		ldr	r1, [r7, #8]
 4821 0048 F868     		ldr	r0, [r7, #12]
 4822 004a 9847     		blx	r3
1364:..\..\..\lvgl\version_6.1.2\lvgl\src\lv_objx/lv_ta.c **** 
1365:..\..\..\lvgl\version_6.1.2\lvgl\src\lv_objx/lv_ta.c ****         /*Draw the cursor*/
1366:..\..\..\lvgl\version_6.1.2\lvgl\src\lv_objx/lv_ta.c ****         lv_obj_t * ta     = lv_obj_get_parent(scrl);
 4823              		.loc 7 1366 0
 4824 004c F868     		ldr	r0, [r7, #12]
 4825 004e FFF7FEFF 		bl	lv_obj_get_parent
 4826 0052 F867     		str	r0, [r7, #124]
1367:..\..\..\lvgl\version_6.1.2\lvgl\src\lv_objx/lv_ta.c ****         lv_ta_ext_t * ext = lv_obj_get_ext_attr(ta);
 4827              		.loc 7 1367 0
 4828 0054 F86F     		ldr	r0, [r7, #124]
 4829 0056 FFF7FEFF 		bl	lv_obj_get_ext_attr
 4830 005a B867     		str	r0, [r7, #120]
ARM GAS  C:\Users\tmj32\AppData\Local\Temp\ccI3WYuM.s 			page 132


1368:..\..\..\lvgl\version_6.1.2\lvgl\src\lv_objx/lv_ta.c **** 
1369:..\..\..\lvgl\version_6.1.2\lvgl\src\lv_objx/lv_ta.c ****         if(ext->cursor.type == LV_CURSOR_NONE || (ext->cursor.type & LV_CURSOR_HIDDEN) || ext->curs
 4831              		.loc 7 1369 0
 4832 005c BB6F     		ldr	r3, [r7, #120]
 4833 005e 93F85830 		ldrb	r3, [r3, #88]	@ zero_extendqisi2
 4834 0062 03F00F03 		and	r3, r3, #15
 4835 0066 DBB2     		uxtb	r3, r3
 4836 0068 002B     		cmp	r3, #0
 4837 006a 11D0     		beq	.L241
 4838              		.loc 7 1369 0 is_stmt 0 discriminator 1
 4839 006c BB6F     		ldr	r3, [r7, #120]
 4840 006e 93F85830 		ldrb	r3, [r3, #88]
 4841 0072 C3F30303 		ubfx	r3, r3, #0, #4
 4842 0076 DBB2     		uxtb	r3, r3
 4843 0078 03F00803 		and	r3, r3, #8
 4844 007c 002B     		cmp	r3, #0
 4845 007e 07D1     		bne	.L241
 4846              		.loc 7 1369 0 discriminator 2
 4847 0080 BB6F     		ldr	r3, [r7, #120]
 4848 0082 93F85830 		ldrb	r3, [r3, #88]	@ zero_extendqisi2
 4849 0086 03F01003 		and	r3, r3, #16
 4850 008a DBB2     		uxtb	r3, r3
 4851 008c 002B     		cmp	r3, #0
 4852 008e 01D1     		bne	.L242
 4853              	.L241:
1370:..\..\..\lvgl\version_6.1.2\lvgl\src\lv_objx/lv_ta.c ****             return true; /*The cursor is not visible now*/
 4854              		.loc 7 1370 0 is_stmt 1
 4855 0090 0123     		movs	r3, #1
 4856 0092 EBE0     		b	.L238
 4857              	.L242:
1371:..\..\..\lvgl\version_6.1.2\lvgl\src\lv_objx/lv_ta.c ****         }
1372:..\..\..\lvgl\version_6.1.2\lvgl\src\lv_objx/lv_ta.c **** 
1373:..\..\..\lvgl\version_6.1.2\lvgl\src\lv_objx/lv_ta.c ****         lv_style_t cur_style;
1374:..\..\..\lvgl\version_6.1.2\lvgl\src\lv_objx/lv_ta.c ****         get_cursor_style(ta, &cur_style);
 4858              		.loc 7 1374 0
 4859 0094 07F11003 		add	r3, r7, #16
 4860 0098 1946     		mov	r1, r3
 4861 009a F86F     		ldr	r0, [r7, #124]
 4862 009c FFF7FEFF 		bl	get_cursor_style
1375:..\..\..\lvgl\version_6.1.2\lvgl\src\lv_objx/lv_ta.c **** 
1376:..\..\..\lvgl\version_6.1.2\lvgl\src\lv_objx/lv_ta.c ****         const char * txt = lv_label_get_text(ext->label);
 4863              		.loc 7 1376 0
 4864 00a0 BB6F     		ldr	r3, [r7, #120]
 4865 00a2 1B6B     		ldr	r3, [r3, #48]
 4866 00a4 1846     		mov	r0, r3
 4867 00a6 FFF7FEFF 		bl	lv_label_get_text
 4868 00aa 7867     		str	r0, [r7, #116]
1377:..\..\..\lvgl\version_6.1.2\lvgl\src\lv_objx/lv_ta.c **** 
1378:..\..\..\lvgl\version_6.1.2\lvgl\src\lv_objx/lv_ta.c ****         /*Draw he cursor according to the type*/
1379:..\..\..\lvgl\version_6.1.2\lvgl\src\lv_objx/lv_ta.c ****         lv_area_t cur_area;
1380:..\..\..\lvgl\version_6.1.2\lvgl\src\lv_objx/lv_ta.c ****         lv_area_copy(&cur_area, &ext->cursor.area);
 4869              		.loc 7 1380 0
 4870 00ac BB6F     		ldr	r3, [r7, #120]
 4871 00ae 03F14E02 		add	r2, r3, #78
 4872 00b2 07F16803 		add	r3, r7, #104
 4873 00b6 1146     		mov	r1, r2
 4874 00b8 1846     		mov	r0, r3
ARM GAS  C:\Users\tmj32\AppData\Local\Temp\ccI3WYuM.s 			page 133


 4875 00ba FFF7FEFF 		bl	lv_area_copy
1381:..\..\..\lvgl\version_6.1.2\lvgl\src\lv_objx/lv_ta.c **** 
1382:..\..\..\lvgl\version_6.1.2\lvgl\src\lv_objx/lv_ta.c ****         cur_area.x1 += ext->label->coords.x1;
 4876              		.loc 7 1382 0
 4877 00be B7F96830 		ldrsh	r3, [r7, #104]
 4878 00c2 9AB2     		uxth	r2, r3
 4879 00c4 BB6F     		ldr	r3, [r7, #120]
 4880 00c6 1B6B     		ldr	r3, [r3, #48]
 4881 00c8 B3F91030 		ldrsh	r3, [r3, #16]
 4882 00cc 9BB2     		uxth	r3, r3
 4883 00ce 1344     		add	r3, r3, r2
 4884 00d0 9BB2     		uxth	r3, r3
 4885 00d2 1BB2     		sxth	r3, r3
 4886 00d4 A7F86830 		strh	r3, [r7, #104]	@ movhi
1383:..\..\..\lvgl\version_6.1.2\lvgl\src\lv_objx/lv_ta.c ****         cur_area.y1 += ext->label->coords.y1;
 4887              		.loc 7 1383 0
 4888 00d8 B7F96A30 		ldrsh	r3, [r7, #106]
 4889 00dc 9AB2     		uxth	r2, r3
 4890 00de BB6F     		ldr	r3, [r7, #120]
 4891 00e0 1B6B     		ldr	r3, [r3, #48]
 4892 00e2 B3F91230 		ldrsh	r3, [r3, #18]
 4893 00e6 9BB2     		uxth	r3, r3
 4894 00e8 1344     		add	r3, r3, r2
 4895 00ea 9BB2     		uxth	r3, r3
 4896 00ec 1BB2     		sxth	r3, r3
 4897 00ee A7F86A30 		strh	r3, [r7, #106]	@ movhi
1384:..\..\..\lvgl\version_6.1.2\lvgl\src\lv_objx/lv_ta.c ****         cur_area.x2 += ext->label->coords.x1;
 4898              		.loc 7 1384 0
 4899 00f2 B7F96C30 		ldrsh	r3, [r7, #108]
 4900 00f6 9AB2     		uxth	r2, r3
 4901 00f8 BB6F     		ldr	r3, [r7, #120]
 4902 00fa 1B6B     		ldr	r3, [r3, #48]
 4903 00fc B3F91030 		ldrsh	r3, [r3, #16]
 4904 0100 9BB2     		uxth	r3, r3
 4905 0102 1344     		add	r3, r3, r2
 4906 0104 9BB2     		uxth	r3, r3
 4907 0106 1BB2     		sxth	r3, r3
 4908 0108 A7F86C30 		strh	r3, [r7, #108]	@ movhi
1385:..\..\..\lvgl\version_6.1.2\lvgl\src\lv_objx/lv_ta.c ****         cur_area.y2 += ext->label->coords.y1;
 4909              		.loc 7 1385 0
 4910 010c B7F96E30 		ldrsh	r3, [r7, #110]
 4911 0110 9AB2     		uxth	r2, r3
 4912 0112 BB6F     		ldr	r3, [r7, #120]
 4913 0114 1B6B     		ldr	r3, [r3, #48]
 4914 0116 B3F91230 		ldrsh	r3, [r3, #18]
 4915 011a 9BB2     		uxth	r3, r3
 4916 011c 1344     		add	r3, r3, r2
 4917 011e 9BB2     		uxth	r3, r3
 4918 0120 1BB2     		sxth	r3, r3
 4919 0122 A7F86E30 		strh	r3, [r7, #110]	@ movhi
1386:..\..\..\lvgl\version_6.1.2\lvgl\src\lv_objx/lv_ta.c **** 
1387:..\..\..\lvgl\version_6.1.2\lvgl\src\lv_objx/lv_ta.c ****         lv_opa_t opa_scale = lv_obj_get_opa_scale(ta);
 4920              		.loc 7 1387 0
 4921 0126 F86F     		ldr	r0, [r7, #124]
 4922 0128 FFF7FEFF 		bl	lv_obj_get_opa_scale
 4923 012c 0346     		mov	r3, r0
 4924 012e 87F87330 		strb	r3, [r7, #115]
ARM GAS  C:\Users\tmj32\AppData\Local\Temp\ccI3WYuM.s 			page 134


1388:..\..\..\lvgl\version_6.1.2\lvgl\src\lv_objx/lv_ta.c **** 
1389:..\..\..\lvgl\version_6.1.2\lvgl\src\lv_objx/lv_ta.c ****         if(ext->cursor.type == LV_CURSOR_LINE) {
 4925              		.loc 7 1389 0
 4926 0132 BB6F     		ldr	r3, [r7, #120]
 4927 0134 93F85830 		ldrb	r3, [r3, #88]	@ zero_extendqisi2
 4928 0138 03F00F03 		and	r3, r3, #15
 4929 013c DBB2     		uxtb	r3, r3
 4930 013e 012B     		cmp	r3, #1
 4931 0140 09D1     		bne	.L243
1390:..\..\..\lvgl\version_6.1.2\lvgl\src\lv_objx/lv_ta.c ****             lv_draw_rect(&cur_area, mask, &cur_style, opa_scale);
 4932              		.loc 7 1390 0
 4933 0142 97F87330 		ldrb	r3, [r7, #115]	@ zero_extendqisi2
 4934 0146 07F11002 		add	r2, r7, #16
 4935 014a 07F16800 		add	r0, r7, #104
 4936 014e B968     		ldr	r1, [r7, #8]
 4937 0150 FFF7FEFF 		bl	lv_draw_rect
 4938 0154 89E0     		b	.L240
 4939              	.L243:
1391:..\..\..\lvgl\version_6.1.2\lvgl\src\lv_objx/lv_ta.c ****         } else if(ext->cursor.type == LV_CURSOR_BLOCK) {
 4940              		.loc 7 1391 0
 4941 0156 BB6F     		ldr	r3, [r7, #120]
 4942 0158 93F85830 		ldrb	r3, [r3, #88]	@ zero_extendqisi2
 4943 015c 03F00F03 		and	r3, r3, #15
 4944 0160 DBB2     		uxtb	r3, r3
 4945 0162 022B     		cmp	r3, #2
 4946 0164 56D1     		bne	.L245
 4947              	.LBB28:
1392:..\..\..\lvgl\version_6.1.2\lvgl\src\lv_objx/lv_ta.c ****             lv_draw_rect(&cur_area, mask, &cur_style, opa_scale);
 4948              		.loc 7 1392 0
 4949 0166 97F87330 		ldrb	r3, [r7, #115]	@ zero_extendqisi2
 4950 016a 07F11002 		add	r2, r7, #16
 4951 016e 07F16800 		add	r0, r7, #104
 4952 0172 B968     		ldr	r1, [r7, #8]
 4953 0174 FFF7FEFF 		bl	lv_draw_rect
1393:..\..\..\lvgl\version_6.1.2\lvgl\src\lv_objx/lv_ta.c **** 
1394:..\..\..\lvgl\version_6.1.2\lvgl\src\lv_objx/lv_ta.c ****             char letter_buf[8] = {0};
 4954              		.loc 7 1394 0
 4955 0178 07F16003 		add	r3, r7, #96
 4956 017c 0022     		movs	r2, #0
 4957 017e 1A60     		str	r2, [r3]
 4958 0180 5A60     		str	r2, [r3, #4]
1395:..\..\..\lvgl\version_6.1.2\lvgl\src\lv_objx/lv_ta.c ****             memcpy(letter_buf, &txt[ext->cursor.txt_byte_pos], lv_txt_encoded_size(&txt[ext->cursor
 4959              		.loc 7 1395 0
 4960 0182 BB6F     		ldr	r3, [r7, #120]
 4961 0184 B3F85630 		ldrh	r3, [r3, #86]
 4962 0188 1A46     		mov	r2, r3
 4963 018a 7B6F     		ldr	r3, [r7, #116]
 4964 018c 9C18     		adds	r4, r3, r2
 4965 018e 3A4B     		ldr	r3, .L248+4
 4966 0190 1B68     		ldr	r3, [r3]
 4967 0192 BA6F     		ldr	r2, [r7, #120]
 4968 0194 B2F85620 		ldrh	r2, [r2, #86]
 4969 0198 1146     		mov	r1, r2
 4970 019a 7A6F     		ldr	r2, [r7, #116]
 4971 019c 0A44     		add	r2, r2, r1
 4972 019e 1046     		mov	r0, r2
 4973 01a0 9847     		blx	r3
ARM GAS  C:\Users\tmj32\AppData\Local\Temp\ccI3WYuM.s 			page 135


 4974 01a2 0346     		mov	r3, r0
 4975 01a4 1A46     		mov	r2, r3
 4976 01a6 07F16003 		add	r3, r7, #96
 4977 01aa 2146     		mov	r1, r4
 4978 01ac 1846     		mov	r0, r3
 4979 01ae FFF7FEFF 		bl	memcpy
1396:..\..\..\lvgl\version_6.1.2\lvgl\src\lv_objx/lv_ta.c **** 
1397:..\..\..\lvgl\version_6.1.2\lvgl\src\lv_objx/lv_ta.c ****             cur_area.x1 += cur_style.body.padding.left;
 4980              		.loc 7 1397 0
 4981 01b2 B7F96830 		ldrsh	r3, [r7, #104]
 4982 01b6 9AB2     		uxth	r2, r3
 4983 01b8 B7F93430 		ldrsh	r3, [r7, #52]
 4984 01bc 9BB2     		uxth	r3, r3
 4985 01be 1344     		add	r3, r3, r2
 4986 01c0 9BB2     		uxth	r3, r3
 4987 01c2 1BB2     		sxth	r3, r3
 4988 01c4 A7F86830 		strh	r3, [r7, #104]	@ movhi
1398:..\..\..\lvgl\version_6.1.2\lvgl\src\lv_objx/lv_ta.c ****             cur_area.y1 += cur_style.body.padding.top;
 4989              		.loc 7 1398 0
 4990 01c8 B7F96A30 		ldrsh	r3, [r7, #106]
 4991 01cc 9AB2     		uxth	r2, r3
 4992 01ce B7F93030 		ldrsh	r3, [r7, #48]
 4993 01d2 9BB2     		uxth	r3, r3
 4994 01d4 1344     		add	r3, r3, r2
 4995 01d6 9BB2     		uxth	r3, r3
 4996 01d8 1BB2     		sxth	r3, r3
 4997 01da A7F86A30 		strh	r3, [r7, #106]	@ movhi
1399:..\..\..\lvgl\version_6.1.2\lvgl\src\lv_objx/lv_ta.c ****             lv_draw_label(&cur_area, mask, &cur_style, opa_scale, letter_buf, LV_TXT_FLAG_NONE, NUL
 4998              		.loc 7 1399 0
 4999 01de F86F     		ldr	r0, [r7, #124]
 5000 01e0 FFF7FEFF 		bl	lv_obj_get_base_dir
 5001 01e4 0346     		mov	r3, r0
 5002 01e6 97F87310 		ldrb	r1, [r7, #115]	@ zero_extendqisi2
 5003 01ea 07F11002 		add	r2, r7, #16
 5004 01ee 07F16800 		add	r0, r7, #104
 5005 01f2 0593     		str	r3, [sp, #20]
 5006 01f4 0023     		movs	r3, #0
 5007 01f6 0493     		str	r3, [sp, #16]
 5008 01f8 0023     		movs	r3, #0
 5009 01fa 0393     		str	r3, [sp, #12]
 5010 01fc 0023     		movs	r3, #0
 5011 01fe 0293     		str	r3, [sp, #8]
 5012 0200 0023     		movs	r3, #0
 5013 0202 0193     		str	r3, [sp, #4]
 5014 0204 07F16003 		add	r3, r7, #96
 5015 0208 0093     		str	r3, [sp]
 5016 020a 0B46     		mov	r3, r1
 5017 020c B968     		ldr	r1, [r7, #8]
 5018 020e FFF7FEFF 		bl	lv_draw_label
 5019              	.LBE28:
 5020 0212 2AE0     		b	.L240
 5021              	.L245:
1400:..\..\..\lvgl\version_6.1.2\lvgl\src\lv_objx/lv_ta.c **** 
1401:..\..\..\lvgl\version_6.1.2\lvgl\src\lv_objx/lv_ta.c ****         } else if(ext->cursor.type == LV_CURSOR_OUTLINE) {
 5022              		.loc 7 1401 0
 5023 0214 BB6F     		ldr	r3, [r7, #120]
 5024 0216 93F85830 		ldrb	r3, [r3, #88]	@ zero_extendqisi2
ARM GAS  C:\Users\tmj32\AppData\Local\Temp\ccI3WYuM.s 			page 136


 5025 021a 03F00F03 		and	r3, r3, #15
 5026 021e DBB2     		uxtb	r3, r3
 5027 0220 032B     		cmp	r3, #3
 5028 0222 11D1     		bne	.L246
1402:..\..\..\lvgl\version_6.1.2\lvgl\src\lv_objx/lv_ta.c ****             cur_style.body.opa = LV_OPA_TRANSP;
 5029              		.loc 7 1402 0
 5030 0224 0023     		movs	r3, #0
 5031 0226 BB77     		strb	r3, [r7, #30]
1403:..\..\..\lvgl\version_6.1.2\lvgl\src\lv_objx/lv_ta.c ****             if(cur_style.body.border.width == 0) cur_style.body.border.width = 1; /*Be sure the bor
 5032              		.loc 7 1403 0
 5033 0228 B7F92430 		ldrsh	r3, [r7, #36]
 5034 022c 002B     		cmp	r3, #0
 5035 022e 01D1     		bne	.L247
 5036              		.loc 7 1403 0 is_stmt 0 discriminator 1
 5037 0230 0123     		movs	r3, #1
 5038 0232 BB84     		strh	r3, [r7, #36]	@ movhi
 5039              	.L247:
1404:..\..\..\lvgl\version_6.1.2\lvgl\src\lv_objx/lv_ta.c ****             lv_draw_rect(&cur_area, mask, &cur_style, opa_scale);
 5040              		.loc 7 1404 0 is_stmt 1
 5041 0234 97F87330 		ldrb	r3, [r7, #115]	@ zero_extendqisi2
 5042 0238 07F11002 		add	r2, r7, #16
 5043 023c 07F16800 		add	r0, r7, #104
 5044 0240 B968     		ldr	r1, [r7, #8]
 5045 0242 FFF7FEFF 		bl	lv_draw_rect
 5046 0246 10E0     		b	.L240
 5047              	.L246:
1405:..\..\..\lvgl\version_6.1.2\lvgl\src\lv_objx/lv_ta.c ****         } else if(ext->cursor.type == LV_CURSOR_UNDERLINE) {
 5048              		.loc 7 1405 0
 5049 0248 BB6F     		ldr	r3, [r7, #120]
 5050 024a 93F85830 		ldrb	r3, [r3, #88]	@ zero_extendqisi2
 5051 024e 03F00F03 		and	r3, r3, #15
 5052 0252 DBB2     		uxtb	r3, r3
 5053 0254 042B     		cmp	r3, #4
 5054 0256 08D1     		bne	.L240
1406:..\..\..\lvgl\version_6.1.2\lvgl\src\lv_objx/lv_ta.c ****             lv_draw_rect(&cur_area, mask, &cur_style, opa_scale);
 5055              		.loc 7 1406 0
 5056 0258 97F87330 		ldrb	r3, [r7, #115]	@ zero_extendqisi2
 5057 025c 07F11002 		add	r2, r7, #16
 5058 0260 07F16800 		add	r0, r7, #104
 5059 0264 B968     		ldr	r1, [r7, #8]
 5060 0266 FFF7FEFF 		bl	lv_draw_rect
 5061              	.L240:
 5062              	.LBE27:
1407:..\..\..\lvgl\version_6.1.2\lvgl\src\lv_objx/lv_ta.c ****         }
1408:..\..\..\lvgl\version_6.1.2\lvgl\src\lv_objx/lv_ta.c ****     }
1409:..\..\..\lvgl\version_6.1.2\lvgl\src\lv_objx/lv_ta.c **** 
1410:..\..\..\lvgl\version_6.1.2\lvgl\src\lv_objx/lv_ta.c ****     return true;
 5063              		.loc 7 1410 0
 5064 026a 0123     		movs	r3, #1
 5065              	.L238:
1411:..\..\..\lvgl\version_6.1.2\lvgl\src\lv_objx/lv_ta.c **** }
 5066              		.loc 7 1411 0
 5067 026c 1846     		mov	r0, r3
 5068 026e 8437     		adds	r7, r7, #132
 5069              		.cfi_def_cfa_offset 12
 5070 0270 BD46     		mov	sp, r7
 5071              		.cfi_def_cfa_register 13
ARM GAS  C:\Users\tmj32\AppData\Local\Temp\ccI3WYuM.s 			page 137


 5072              		@ sp needed
 5073 0272 90BD     		pop	{r4, r7, pc}
 5074              	.L249:
 5075              		.align	2
 5076              	.L248:
 5077 0274 04000000 		.word	scrl_design
 5078 0278 00000000 		.word	lv_txt_encoded_size
 5079              		.cfi_endproc
 5080              	.LFE97:
 5081              		.size	lv_ta_scrollable_design, .-lv_ta_scrollable_design
 5082              		.section	.rodata
 5083 000d 000000   		.align	2
 5084              	.LC2:
 5085 0010 6C765F74 		.ascii	"lv_ta\000"
 5085      6100
 5086              		.section	.text.lv_ta_signal,"ax",%progbits
 5087              		.align	2
 5088              		.thumb
 5089              		.thumb_func
 5090              		.type	lv_ta_signal, %function
 5091              	lv_ta_signal:
 5092              	.LFB98:
1412:..\..\..\lvgl\version_6.1.2\lvgl\src\lv_objx/lv_ta.c **** 
1413:..\..\..\lvgl\version_6.1.2\lvgl\src\lv_objx/lv_ta.c **** /**
1414:..\..\..\lvgl\version_6.1.2\lvgl\src\lv_objx/lv_ta.c ****  * Signal function of the text area
1415:..\..\..\lvgl\version_6.1.2\lvgl\src\lv_objx/lv_ta.c ****  * @param ta pointer to a text area object
1416:..\..\..\lvgl\version_6.1.2\lvgl\src\lv_objx/lv_ta.c ****  * @param sign a signal type from lv_signal_t enum
1417:..\..\..\lvgl\version_6.1.2\lvgl\src\lv_objx/lv_ta.c ****  * @param param pointer to a signal specific variable
1418:..\..\..\lvgl\version_6.1.2\lvgl\src\lv_objx/lv_ta.c ****  * @return LV_RES_OK: the object is not deleted in the function; LV_RES_INV: the object is deleted
1419:..\..\..\lvgl\version_6.1.2\lvgl\src\lv_objx/lv_ta.c ****  */
1420:..\..\..\lvgl\version_6.1.2\lvgl\src\lv_objx/lv_ta.c **** static lv_res_t lv_ta_signal(lv_obj_t * ta, lv_signal_t sign, void * param)
1421:..\..\..\lvgl\version_6.1.2\lvgl\src\lv_objx/lv_ta.c **** {
 5093              		.loc 7 1421 0
 5094              		.cfi_startproc
 5095              		@ args = 0, pretend = 0, frame = 72
 5096              		@ frame_needed = 1, uses_anonymous_args = 0
 5097 0000 90B5     		push	{r4, r7, lr}
 5098              		.cfi_def_cfa_offset 12
 5099              		.cfi_offset 4, -12
 5100              		.cfi_offset 7, -8
 5101              		.cfi_offset 14, -4
 5102 0002 93B0     		sub	sp, sp, #76
 5103              		.cfi_def_cfa_offset 88
 5104 0004 00AF     		add	r7, sp, #0
 5105              		.cfi_def_cfa_register 7
 5106 0006 F860     		str	r0, [r7, #12]
 5107 0008 0B46     		mov	r3, r1
 5108 000a 7A60     		str	r2, [r7, #4]
 5109 000c FB72     		strb	r3, [r7, #11]
1422:..\..\..\lvgl\version_6.1.2\lvgl\src\lv_objx/lv_ta.c ****     lv_res_t res;
1423:..\..\..\lvgl\version_6.1.2\lvgl\src\lv_objx/lv_ta.c **** 
1424:..\..\..\lvgl\version_6.1.2\lvgl\src\lv_objx/lv_ta.c ****     /* Include the ancient signal function */
1425:..\..\..\lvgl\version_6.1.2\lvgl\src\lv_objx/lv_ta.c ****     res = ancestor_signal(ta, sign, param);
 5110              		.loc 7 1425 0
 5111 000e B04B     		ldr	r3, .L279
 5112 0010 1B68     		ldr	r3, [r3]
 5113 0012 F97A     		ldrb	r1, [r7, #11]	@ zero_extendqisi2
ARM GAS  C:\Users\tmj32\AppData\Local\Temp\ccI3WYuM.s 			page 138


 5114 0014 7A68     		ldr	r2, [r7, #4]
 5115 0016 F868     		ldr	r0, [r7, #12]
 5116 0018 9847     		blx	r3
 5117 001a 0346     		mov	r3, r0
 5118 001c 87F84730 		strb	r3, [r7, #71]
1426:..\..\..\lvgl\version_6.1.2\lvgl\src\lv_objx/lv_ta.c ****     if(res != LV_RES_OK) return res;
 5119              		.loc 7 1426 0
 5120 0020 97F84730 		ldrb	r3, [r7, #71]	@ zero_extendqisi2
 5121 0024 012B     		cmp	r3, #1
 5122 0026 02D0     		beq	.L251
 5123              		.loc 7 1426 0 is_stmt 0 discriminator 1
 5124 0028 97F84730 		ldrb	r3, [r7, #71]	@ zero_extendqisi2
 5125 002c A2E1     		b	.L252
 5126              	.L251:
1427:..\..\..\lvgl\version_6.1.2\lvgl\src\lv_objx/lv_ta.c ****     if(sign == LV_SIGNAL_GET_TYPE) return lv_obj_handle_get_type_signal(param, LV_OBJX_NAME);
 5127              		.loc 7 1427 0 is_stmt 1
 5128 002e FB7A     		ldrb	r3, [r7, #11]	@ zero_extendqisi2
 5129 0030 072B     		cmp	r3, #7
 5130 0032 05D1     		bne	.L253
 5131              		.loc 7 1427 0 is_stmt 0 discriminator 1
 5132 0034 A749     		ldr	r1, .L279+4
 5133 0036 7868     		ldr	r0, [r7, #4]
 5134 0038 FFF7FEFF 		bl	lv_obj_handle_get_type_signal
 5135 003c 0346     		mov	r3, r0
 5136 003e 99E1     		b	.L252
 5137              	.L253:
1428:..\..\..\lvgl\version_6.1.2\lvgl\src\lv_objx/lv_ta.c **** 
1429:..\..\..\lvgl\version_6.1.2\lvgl\src\lv_objx/lv_ta.c ****     lv_ta_ext_t * ext = lv_obj_get_ext_attr(ta);
 5138              		.loc 7 1429 0 is_stmt 1
 5139 0040 F868     		ldr	r0, [r7, #12]
 5140 0042 FFF7FEFF 		bl	lv_obj_get_ext_attr
 5141 0046 3864     		str	r0, [r7, #64]
1430:..\..\..\lvgl\version_6.1.2\lvgl\src\lv_objx/lv_ta.c ****     if(sign == LV_SIGNAL_CLEANUP) {
 5142              		.loc 7 1430 0
 5143 0048 FB7A     		ldrb	r3, [r7, #11]	@ zero_extendqisi2
 5144 004a 002B     		cmp	r3, #0
 5145 004c 0AD1     		bne	.L254
1431:..\..\..\lvgl\version_6.1.2\lvgl\src\lv_objx/lv_ta.c ****         if(ext->pwd_tmp != NULL) lv_mem_free(ext->pwd_tmp);
 5146              		.loc 7 1431 0
 5147 004e 3B6C     		ldr	r3, [r7, #64]
 5148 0050 9B6B     		ldr	r3, [r3, #56]
 5149 0052 002B     		cmp	r3, #0
 5150 0054 00F08C81 		beq	.L256
 5151              		.loc 7 1431 0 is_stmt 0 discriminator 1
 5152 0058 3B6C     		ldr	r3, [r7, #64]
 5153 005a 9B6B     		ldr	r3, [r3, #56]
 5154 005c 1846     		mov	r0, r3
 5155 005e FFF7FEFF 		bl	lv_mem_free
 5156 0062 85E1     		b	.L256
 5157              	.L254:
1432:..\..\..\lvgl\version_6.1.2\lvgl\src\lv_objx/lv_ta.c **** 
1433:..\..\..\lvgl\version_6.1.2\lvgl\src\lv_objx/lv_ta.c ****         /* (The created label will be deleted automatically) */
1434:..\..\..\lvgl\version_6.1.2\lvgl\src\lv_objx/lv_ta.c ****     } else if(sign == LV_SIGNAL_STYLE_CHG) {
 5158              		.loc 7 1434 0 is_stmt 1
 5159 0064 FB7A     		ldrb	r3, [r7, #11]	@ zero_extendqisi2
 5160 0066 042B     		cmp	r3, #4
 5161 0068 40F08280 		bne	.L257
ARM GAS  C:\Users\tmj32\AppData\Local\Temp\ccI3WYuM.s 			page 139


1435:..\..\..\lvgl\version_6.1.2\lvgl\src\lv_objx/lv_ta.c ****         if(ext->label) {
 5162              		.loc 7 1435 0
 5163 006c 3B6C     		ldr	r3, [r7, #64]
 5164 006e 1B6B     		ldr	r3, [r3, #48]
 5165 0070 002B     		cmp	r3, #0
 5166 0072 00F07D81 		beq	.L256
 5167              	.LBB29:
1436:..\..\..\lvgl\version_6.1.2\lvgl\src\lv_objx/lv_ta.c ****             lv_obj_t * scrl               = lv_page_get_scrl(ta);
 5168              		.loc 7 1436 0
 5169 0076 F868     		ldr	r0, [r7, #12]
 5170 0078 FFF7FEFF 		bl	lv_page_get_scrl
 5171 007c F863     		str	r0, [r7, #60]
1437:..\..\..\lvgl\version_6.1.2\lvgl\src\lv_objx/lv_ta.c ****             const lv_style_t * style_ta   = lv_obj_get_style(ta);
 5172              		.loc 7 1437 0
 5173 007e F868     		ldr	r0, [r7, #12]
 5174 0080 FFF7FEFF 		bl	lv_obj_get_style
 5175 0084 B863     		str	r0, [r7, #56]
1438:..\..\..\lvgl\version_6.1.2\lvgl\src\lv_objx/lv_ta.c ****             const lv_style_t * style_scrl = lv_obj_get_style(scrl);
 5176              		.loc 7 1438 0
 5177 0086 F86B     		ldr	r0, [r7, #60]
 5178 0088 FFF7FEFF 		bl	lv_obj_get_style
 5179 008c 7863     		str	r0, [r7, #52]
1439:..\..\..\lvgl\version_6.1.2\lvgl\src\lv_objx/lv_ta.c ****             if(ext->one_line) {
 5180              		.loc 7 1439 0
 5181 008e 3B6C     		ldr	r3, [r7, #64]
 5182 0090 93F85C30 		ldrb	r3, [r3, #92]	@ zero_extendqisi2
 5183 0094 03F00203 		and	r3, r3, #2
 5184 0098 DBB2     		uxtb	r3, r3
 5185 009a 002B     		cmp	r3, #0
 5186 009c 33D0     		beq	.L259
 5187              	.LBB30:
1440:..\..\..\lvgl\version_6.1.2\lvgl\src\lv_objx/lv_ta.c ****                 /*In one line mode refresh the Text Area height because 'vpad' can modify it*/
1441:..\..\..\lvgl\version_6.1.2\lvgl\src\lv_objx/lv_ta.c ****                 const lv_style_t * style_label = lv_obj_get_style(ext->label);
 5188              		.loc 7 1441 0
 5189 009e 3B6C     		ldr	r3, [r7, #64]
 5190 00a0 1B6B     		ldr	r3, [r3, #48]
 5191 00a2 1846     		mov	r0, r3
 5192 00a4 FFF7FEFF 		bl	lv_obj_get_style
 5193 00a8 3863     		str	r0, [r7, #48]
1442:..\..\..\lvgl\version_6.1.2\lvgl\src\lv_objx/lv_ta.c ****                 lv_coord_t font_h              = lv_font_get_line_height(style_label->text.font);
 5194              		.loc 7 1442 0
 5195 00aa 3B6B     		ldr	r3, [r7, #48]
 5196 00ac 5B6B     		ldr	r3, [r3, #52]
 5197 00ae 1846     		mov	r0, r3
 5198 00b0 FFF7FEFF 		bl	lv_font_get_line_height
 5199 00b4 0346     		mov	r3, r0
 5200 00b6 FB85     		strh	r3, [r7, #46]	@ movhi
1443:..\..\..\lvgl\version_6.1.2\lvgl\src\lv_objx/lv_ta.c ****                 lv_obj_set_height(ext->label, font_h);
 5201              		.loc 7 1443 0
 5202 00b8 3B6C     		ldr	r3, [r7, #64]
 5203 00ba 1B6B     		ldr	r3, [r3, #48]
 5204 00bc B7F92E20 		ldrsh	r2, [r7, #46]
 5205 00c0 1146     		mov	r1, r2
 5206 00c2 1846     		mov	r0, r3
 5207 00c4 FFF7FEFF 		bl	lv_obj_set_height
1444:..\..\..\lvgl\version_6.1.2\lvgl\src\lv_objx/lv_ta.c ****                 lv_obj_set_height(ta, font_h + style_ta->body.padding.top + style_ta->body.padding.
 5208              		.loc 7 1444 0
ARM GAS  C:\Users\tmj32\AppData\Local\Temp\ccI3WYuM.s 			page 140


 5209 00c8 BB6B     		ldr	r3, [r7, #56]
 5210 00ca B3F92030 		ldrsh	r3, [r3, #32]
 5211 00ce 9AB2     		uxth	r2, r3
 5212 00d0 FB8D     		ldrh	r3, [r7, #46]
 5213 00d2 1344     		add	r3, r3, r2
 5214 00d4 9AB2     		uxth	r2, r3
 5215 00d6 BB6B     		ldr	r3, [r7, #56]
 5216 00d8 B3F92230 		ldrsh	r3, [r3, #34]
 5217 00dc 9BB2     		uxth	r3, r3
 5218 00de 1344     		add	r3, r3, r2
 5219 00e0 9AB2     		uxth	r2, r3
1445:..\..\..\lvgl\version_6.1.2\lvgl\src\lv_objx/lv_ta.c ****                                           style_scrl->body.padding.top + style_scrl->body.padding.b
 5220              		.loc 7 1445 0
 5221 00e2 7B6B     		ldr	r3, [r7, #52]
 5222 00e4 B3F92030 		ldrsh	r3, [r3, #32]
1444:..\..\..\lvgl\version_6.1.2\lvgl\src\lv_objx/lv_ta.c ****                 lv_obj_set_height(ta, font_h + style_ta->body.padding.top + style_ta->body.padding.
 5223              		.loc 7 1444 0
 5224 00e8 9BB2     		uxth	r3, r3
 5225 00ea 1344     		add	r3, r3, r2
 5226 00ec 9AB2     		uxth	r2, r3
 5227              		.loc 7 1445 0
 5228 00ee 7B6B     		ldr	r3, [r7, #52]
 5229 00f0 B3F92230 		ldrsh	r3, [r3, #34]
1444:..\..\..\lvgl\version_6.1.2\lvgl\src\lv_objx/lv_ta.c ****                 lv_obj_set_height(ta, font_h + style_ta->body.padding.top + style_ta->body.padding.
 5230              		.loc 7 1444 0
 5231 00f4 9BB2     		uxth	r3, r3
 5232 00f6 1344     		add	r3, r3, r2
 5233 00f8 9BB2     		uxth	r3, r3
 5234 00fa 1BB2     		sxth	r3, r3
 5235 00fc 1946     		mov	r1, r3
 5236 00fe F868     		ldr	r0, [r7, #12]
 5237 0100 FFF7FEFF 		bl	lv_obj_set_height
 5238              	.LBE30:
 5239 0104 2DE0     		b	.L260
 5240              	.L259:
1446:..\..\..\lvgl\version_6.1.2\lvgl\src\lv_objx/lv_ta.c ****             } else {
1447:..\..\..\lvgl\version_6.1.2\lvgl\src\lv_objx/lv_ta.c ****                 /*In not one line mode refresh the Label width because 'hpad' can modify it*/
1448:..\..\..\lvgl\version_6.1.2\lvgl\src\lv_objx/lv_ta.c ****                 lv_obj_set_width(ext->label, lv_page_get_fit_width(ta));
 5241              		.loc 7 1448 0
 5242 0106 3B6C     		ldr	r3, [r7, #64]
 5243 0108 1C6B     		ldr	r4, [r3, #48]
 5244 010a F868     		ldr	r0, [r7, #12]
 5245 010c FFF7FEFF 		bl	lv_page_get_fit_width
 5246 0110 0346     		mov	r3, r0
 5247 0112 1946     		mov	r1, r3
 5248 0114 2046     		mov	r0, r4
 5249 0116 FFF7FEFF 		bl	lv_obj_set_width
1449:..\..\..\lvgl\version_6.1.2\lvgl\src\lv_objx/lv_ta.c ****                 lv_obj_set_pos(ext->label, style_scrl->body.padding.left,
 5250              		.loc 7 1449 0
 5251 011a 3B6C     		ldr	r3, [r7, #64]
 5252 011c 186B     		ldr	r0, [r3, #48]
 5253 011e 7B6B     		ldr	r3, [r7, #52]
 5254 0120 B3F92410 		ldrsh	r1, [r3, #36]
 5255 0124 7B6B     		ldr	r3, [r7, #52]
 5256 0126 B3F92630 		ldrsh	r3, [r3, #38]
 5257 012a 1A46     		mov	r2, r3
 5258 012c FFF7FEFF 		bl	lv_obj_set_pos
ARM GAS  C:\Users\tmj32\AppData\Local\Temp\ccI3WYuM.s 			page 141


1450:..\..\..\lvgl\version_6.1.2\lvgl\src\lv_objx/lv_ta.c ****                                style_scrl->body.padding.right); /*Be sure the Label is in the corre
1451:..\..\..\lvgl\version_6.1.2\lvgl\src\lv_objx/lv_ta.c **** 
1452:..\..\..\lvgl\version_6.1.2\lvgl\src\lv_objx/lv_ta.c ****                 if(ext->placeholder) {
 5259              		.loc 7 1452 0
 5260 0130 3B6C     		ldr	r3, [r7, #64]
 5261 0132 5B6B     		ldr	r3, [r3, #52]
 5262 0134 002B     		cmp	r3, #0
 5263 0136 14D0     		beq	.L260
1453:..\..\..\lvgl\version_6.1.2\lvgl\src\lv_objx/lv_ta.c ****                     lv_obj_set_width(ext->placeholder, lv_page_get_fit_width(ta));
 5264              		.loc 7 1453 0
 5265 0138 3B6C     		ldr	r3, [r7, #64]
 5266 013a 5C6B     		ldr	r4, [r3, #52]
 5267 013c F868     		ldr	r0, [r7, #12]
 5268 013e FFF7FEFF 		bl	lv_page_get_fit_width
 5269 0142 0346     		mov	r3, r0
 5270 0144 1946     		mov	r1, r3
 5271 0146 2046     		mov	r0, r4
 5272 0148 FFF7FEFF 		bl	lv_obj_set_width
1454:..\..\..\lvgl\version_6.1.2\lvgl\src\lv_objx/lv_ta.c ****                     lv_obj_set_pos(ext->placeholder, style_scrl->body.padding.left,
 5273              		.loc 7 1454 0
 5274 014c 3B6C     		ldr	r3, [r7, #64]
 5275 014e 586B     		ldr	r0, [r3, #52]
 5276 0150 7B6B     		ldr	r3, [r7, #52]
 5277 0152 B3F92410 		ldrsh	r1, [r3, #36]
 5278 0156 7B6B     		ldr	r3, [r7, #52]
 5279 0158 B3F92030 		ldrsh	r3, [r3, #32]
 5280 015c 1A46     		mov	r2, r3
 5281 015e FFF7FEFF 		bl	lv_obj_set_pos
 5282              	.L260:
1455:..\..\..\lvgl\version_6.1.2\lvgl\src\lv_objx/lv_ta.c ****                                    style_scrl->body.padding.top); /*Be sure the placeholder is in t
1456:..\..\..\lvgl\version_6.1.2\lvgl\src\lv_objx/lv_ta.c ****                 }
1457:..\..\..\lvgl\version_6.1.2\lvgl\src\lv_objx/lv_ta.c ****             }
1458:..\..\..\lvgl\version_6.1.2\lvgl\src\lv_objx/lv_ta.c ****             lv_label_set_text(ext->label, NULL);
 5283              		.loc 7 1458 0
 5284 0162 3B6C     		ldr	r3, [r7, #64]
 5285 0164 1B6B     		ldr	r3, [r3, #48]
 5286 0166 0021     		movs	r1, #0
 5287 0168 1846     		mov	r0, r3
 5288 016a FFF7FEFF 		bl	lv_label_set_text
 5289 016e FFE0     		b	.L256
 5290              	.L257:
 5291              	.LBE29:
1459:..\..\..\lvgl\version_6.1.2\lvgl\src\lv_objx/lv_ta.c ****         }
1460:..\..\..\lvgl\version_6.1.2\lvgl\src\lv_objx/lv_ta.c ****     } else if(sign == LV_SIGNAL_CORD_CHG) {
 5292              		.loc 7 1460 0
 5293 0170 FB7A     		ldrb	r3, [r7, #11]	@ zero_extendqisi2
 5294 0172 022B     		cmp	r3, #2
 5295 0174 40F08380 		bne	.L261
1461:..\..\..\lvgl\version_6.1.2\lvgl\src\lv_objx/lv_ta.c ****         /*Set the label width according to the text area width*/
1462:..\..\..\lvgl\version_6.1.2\lvgl\src\lv_objx/lv_ta.c ****         if(ext->label) {
 5296              		.loc 7 1462 0
 5297 0178 3B6C     		ldr	r3, [r7, #64]
 5298 017a 1B6B     		ldr	r3, [r3, #48]
 5299 017c 002B     		cmp	r3, #0
 5300 017e 3BD0     		beq	.L262
1463:..\..\..\lvgl\version_6.1.2\lvgl\src\lv_objx/lv_ta.c ****             if(lv_obj_get_width(ta) != lv_area_get_width(param) || lv_obj_get_height(ta) != lv_area
 5301              		.loc 7 1463 0
ARM GAS  C:\Users\tmj32\AppData\Local\Temp\ccI3WYuM.s 			page 142


 5302 0180 F868     		ldr	r0, [r7, #12]
 5303 0182 FFF7FEFF 		bl	lv_obj_get_width
 5304 0186 0346     		mov	r3, r0
 5305 0188 1C46     		mov	r4, r3
 5306 018a 7868     		ldr	r0, [r7, #4]
 5307 018c FFF7FEFF 		bl	lv_area_get_width
 5308 0190 0346     		mov	r3, r0
 5309 0192 9C42     		cmp	r4, r3
 5310 0194 0AD1     		bne	.L263
 5311              		.loc 7 1463 0 is_stmt 0 discriminator 1
 5312 0196 F868     		ldr	r0, [r7, #12]
 5313 0198 FFF7FEFF 		bl	lv_obj_get_height
 5314 019c 0346     		mov	r3, r0
 5315 019e 1C46     		mov	r4, r3
 5316 01a0 7868     		ldr	r0, [r7, #4]
 5317 01a2 FFF7FEFF 		bl	lv_area_get_height
 5318 01a6 0346     		mov	r3, r0
 5319 01a8 9C42     		cmp	r4, r3
 5320 01aa 25D0     		beq	.L262
 5321              	.L263:
 5322              	.LBB31:
1464:..\..\..\lvgl\version_6.1.2\lvgl\src\lv_objx/lv_ta.c ****                 lv_obj_t * scrl               = lv_page_get_scrl(ta);
 5323              		.loc 7 1464 0 is_stmt 1
 5324 01ac F868     		ldr	r0, [r7, #12]
 5325 01ae FFF7FEFF 		bl	lv_page_get_scrl
 5326 01b2 B862     		str	r0, [r7, #40]
1465:..\..\..\lvgl\version_6.1.2\lvgl\src\lv_objx/lv_ta.c ****                 const lv_style_t * style_scrl = lv_obj_get_style(scrl);
 5327              		.loc 7 1465 0
 5328 01b4 B86A     		ldr	r0, [r7, #40]
 5329 01b6 FFF7FEFF 		bl	lv_obj_get_style
 5330 01ba 7862     		str	r0, [r7, #36]
1466:..\..\..\lvgl\version_6.1.2\lvgl\src\lv_objx/lv_ta.c ****                 lv_obj_set_width(ext->label, lv_page_get_fit_width(ta));
 5331              		.loc 7 1466 0
 5332 01bc 3B6C     		ldr	r3, [r7, #64]
 5333 01be 1C6B     		ldr	r4, [r3, #48]
 5334 01c0 F868     		ldr	r0, [r7, #12]
 5335 01c2 FFF7FEFF 		bl	lv_page_get_fit_width
 5336 01c6 0346     		mov	r3, r0
 5337 01c8 1946     		mov	r1, r3
 5338 01ca 2046     		mov	r0, r4
 5339 01cc FFF7FEFF 		bl	lv_obj_set_width
1467:..\..\..\lvgl\version_6.1.2\lvgl\src\lv_objx/lv_ta.c ****                 lv_obj_set_pos(ext->label, style_scrl->body.padding.left, style_scrl->body.padding.
 5340              		.loc 7 1467 0
 5341 01d0 3B6C     		ldr	r3, [r7, #64]
 5342 01d2 186B     		ldr	r0, [r3, #48]
 5343 01d4 7B6A     		ldr	r3, [r7, #36]
 5344 01d6 B3F92410 		ldrsh	r1, [r3, #36]
 5345 01da 7B6A     		ldr	r3, [r7, #36]
 5346 01dc B3F92030 		ldrsh	r3, [r3, #32]
 5347 01e0 1A46     		mov	r2, r3
 5348 01e2 FFF7FEFF 		bl	lv_obj_set_pos
1468:..\..\..\lvgl\version_6.1.2\lvgl\src\lv_objx/lv_ta.c ****                 lv_label_set_text(ext->label, NULL); /*Refresh the label*/
 5349              		.loc 7 1468 0
 5350 01e6 3B6C     		ldr	r3, [r7, #64]
 5351 01e8 1B6B     		ldr	r3, [r3, #48]
 5352 01ea 0021     		movs	r1, #0
 5353 01ec 1846     		mov	r0, r3
ARM GAS  C:\Users\tmj32\AppData\Local\Temp\ccI3WYuM.s 			page 143


 5354 01ee FFF7FEFF 		bl	lv_label_set_text
1469:..\..\..\lvgl\version_6.1.2\lvgl\src\lv_objx/lv_ta.c **** 
1470:..\..\..\lvgl\version_6.1.2\lvgl\src\lv_objx/lv_ta.c ****                 refr_cursor_area(ta);
 5355              		.loc 7 1470 0
 5356 01f2 F868     		ldr	r0, [r7, #12]
 5357 01f4 FFF7FEFF 		bl	refr_cursor_area
 5358              	.L262:
 5359              	.LBE31:
1471:..\..\..\lvgl\version_6.1.2\lvgl\src\lv_objx/lv_ta.c ****             }
1472:..\..\..\lvgl\version_6.1.2\lvgl\src\lv_objx/lv_ta.c ****         }
1473:..\..\..\lvgl\version_6.1.2\lvgl\src\lv_objx/lv_ta.c ****         /*Set the placeholder width according to the text area width*/
1474:..\..\..\lvgl\version_6.1.2\lvgl\src\lv_objx/lv_ta.c ****         if(ext->placeholder) {
 5360              		.loc 7 1474 0
 5361 01f8 3B6C     		ldr	r3, [r7, #64]
 5362 01fa 5B6B     		ldr	r3, [r3, #52]
 5363 01fc 002B     		cmp	r3, #0
 5364 01fe 00F0B780 		beq	.L256
1475:..\..\..\lvgl\version_6.1.2\lvgl\src\lv_objx/lv_ta.c ****             if(lv_obj_get_width(ta) != lv_area_get_width(param) || lv_obj_get_height(ta) != lv_area
 5365              		.loc 7 1475 0
 5366 0202 F868     		ldr	r0, [r7, #12]
 5367 0204 FFF7FEFF 		bl	lv_obj_get_width
 5368 0208 0346     		mov	r3, r0
 5369 020a 1C46     		mov	r4, r3
 5370 020c 7868     		ldr	r0, [r7, #4]
 5371 020e FFF7FEFF 		bl	lv_area_get_width
 5372 0212 0346     		mov	r3, r0
 5373 0214 9C42     		cmp	r4, r3
 5374 0216 0BD1     		bne	.L265
 5375              		.loc 7 1475 0 is_stmt 0 discriminator 1
 5376 0218 F868     		ldr	r0, [r7, #12]
 5377 021a FFF7FEFF 		bl	lv_obj_get_height
 5378 021e 0346     		mov	r3, r0
 5379 0220 1C46     		mov	r4, r3
 5380 0222 7868     		ldr	r0, [r7, #4]
 5381 0224 FFF7FEFF 		bl	lv_area_get_height
 5382 0228 0346     		mov	r3, r0
 5383 022a 9C42     		cmp	r4, r3
 5384 022c 00F0A080 		beq	.L256
 5385              	.L265:
 5386              	.LBB32:
1476:..\..\..\lvgl\version_6.1.2\lvgl\src\lv_objx/lv_ta.c ****                 lv_obj_t * scrl               = lv_page_get_scrl(ta);
 5387              		.loc 7 1476 0 is_stmt 1
 5388 0230 F868     		ldr	r0, [r7, #12]
 5389 0232 FFF7FEFF 		bl	lv_page_get_scrl
 5390 0236 3862     		str	r0, [r7, #32]
1477:..\..\..\lvgl\version_6.1.2\lvgl\src\lv_objx/lv_ta.c ****                 const lv_style_t * style_scrl = lv_obj_get_style(scrl);
 5391              		.loc 7 1477 0
 5392 0238 386A     		ldr	r0, [r7, #32]
 5393 023a FFF7FEFF 		bl	lv_obj_get_style
 5394 023e F861     		str	r0, [r7, #28]
1478:..\..\..\lvgl\version_6.1.2\lvgl\src\lv_objx/lv_ta.c ****                 lv_obj_set_width(ext->placeholder, lv_page_get_fit_width(ta));
 5395              		.loc 7 1478 0
 5396 0240 3B6C     		ldr	r3, [r7, #64]
 5397 0242 5C6B     		ldr	r4, [r3, #52]
 5398 0244 F868     		ldr	r0, [r7, #12]
 5399 0246 FFF7FEFF 		bl	lv_page_get_fit_width
 5400 024a 0346     		mov	r3, r0
ARM GAS  C:\Users\tmj32\AppData\Local\Temp\ccI3WYuM.s 			page 144


 5401 024c 1946     		mov	r1, r3
 5402 024e 2046     		mov	r0, r4
 5403 0250 FFF7FEFF 		bl	lv_obj_set_width
1479:..\..\..\lvgl\version_6.1.2\lvgl\src\lv_objx/lv_ta.c ****                 lv_obj_set_pos(ext->placeholder, style_scrl->body.padding.left, style_scrl->body.pa
 5404              		.loc 7 1479 0
 5405 0254 3B6C     		ldr	r3, [r7, #64]
 5406 0256 586B     		ldr	r0, [r3, #52]
 5407 0258 FB69     		ldr	r3, [r7, #28]
 5408 025a B3F92410 		ldrsh	r1, [r3, #36]
 5409 025e FB69     		ldr	r3, [r7, #28]
 5410 0260 B3F92030 		ldrsh	r3, [r3, #32]
 5411 0264 1A46     		mov	r2, r3
 5412 0266 FFF7FEFF 		bl	lv_obj_set_pos
1480:..\..\..\lvgl\version_6.1.2\lvgl\src\lv_objx/lv_ta.c ****                 lv_label_set_text(ext->placeholder, NULL); /*Refresh the label*/
 5413              		.loc 7 1480 0
 5414 026a 3B6C     		ldr	r3, [r7, #64]
 5415 026c 5B6B     		ldr	r3, [r3, #52]
 5416 026e 0021     		movs	r1, #0
 5417 0270 1846     		mov	r0, r3
 5418 0272 FFF7FEFF 		bl	lv_label_set_text
1481:..\..\..\lvgl\version_6.1.2\lvgl\src\lv_objx/lv_ta.c **** 
1482:..\..\..\lvgl\version_6.1.2\lvgl\src\lv_objx/lv_ta.c ****                 refr_cursor_area(ta);
 5419              		.loc 7 1482 0
 5420 0276 F868     		ldr	r0, [r7, #12]
 5421 0278 FFF7FEFF 		bl	refr_cursor_area
 5422 027c 78E0     		b	.L256
 5423              	.L261:
 5424              	.LBE32:
1483:..\..\..\lvgl\version_6.1.2\lvgl\src\lv_objx/lv_ta.c ****             }
1484:..\..\..\lvgl\version_6.1.2\lvgl\src\lv_objx/lv_ta.c ****         }
1485:..\..\..\lvgl\version_6.1.2\lvgl\src\lv_objx/lv_ta.c ****     } else if(sign == LV_SIGNAL_CONTROL) {
 5425              		.loc 7 1485 0
 5426 027e FB7A     		ldrb	r3, [r7, #11]	@ zero_extendqisi2
 5427 0280 122B     		cmp	r3, #18
 5428 0282 46D1     		bne	.L266
 5429              	.LBB33:
1486:..\..\..\lvgl\version_6.1.2\lvgl\src\lv_objx/lv_ta.c ****         uint32_t c = *((uint32_t *)param); /*uint32_t because can be UTF-8*/
 5430              		.loc 7 1486 0
 5431 0284 7B68     		ldr	r3, [r7, #4]
 5432 0286 1B68     		ldr	r3, [r3]
 5433 0288 BB61     		str	r3, [r7, #24]
1487:..\..\..\lvgl\version_6.1.2\lvgl\src\lv_objx/lv_ta.c ****         if(c == LV_KEY_RIGHT)
 5434              		.loc 7 1487 0
 5435 028a BB69     		ldr	r3, [r7, #24]
 5436 028c 132B     		cmp	r3, #19
 5437 028e 03D1     		bne	.L267
1488:..\..\..\lvgl\version_6.1.2\lvgl\src\lv_objx/lv_ta.c ****             lv_ta_cursor_right(ta);
 5438              		.loc 7 1488 0
 5439 0290 F868     		ldr	r0, [r7, #12]
 5440 0292 FFF7FEFF 		bl	lv_ta_cursor_right
 5441 0296 6BE0     		b	.L256
 5442              	.L267:
1489:..\..\..\lvgl\version_6.1.2\lvgl\src\lv_objx/lv_ta.c ****         else if(c == LV_KEY_LEFT)
 5443              		.loc 7 1489 0
 5444 0298 BB69     		ldr	r3, [r7, #24]
 5445 029a 142B     		cmp	r3, #20
 5446 029c 03D1     		bne	.L269
ARM GAS  C:\Users\tmj32\AppData\Local\Temp\ccI3WYuM.s 			page 145


1490:..\..\..\lvgl\version_6.1.2\lvgl\src\lv_objx/lv_ta.c ****             lv_ta_cursor_left(ta);
 5447              		.loc 7 1490 0
 5448 029e F868     		ldr	r0, [r7, #12]
 5449 02a0 FFF7FEFF 		bl	lv_ta_cursor_left
 5450 02a4 64E0     		b	.L256
 5451              	.L269:
1491:..\..\..\lvgl\version_6.1.2\lvgl\src\lv_objx/lv_ta.c ****         else if(c == LV_KEY_UP)
 5452              		.loc 7 1491 0
 5453 02a6 BB69     		ldr	r3, [r7, #24]
 5454 02a8 112B     		cmp	r3, #17
 5455 02aa 03D1     		bne	.L270
1492:..\..\..\lvgl\version_6.1.2\lvgl\src\lv_objx/lv_ta.c ****             lv_ta_cursor_up(ta);
 5456              		.loc 7 1492 0
 5457 02ac F868     		ldr	r0, [r7, #12]
 5458 02ae FFF7FEFF 		bl	lv_ta_cursor_up
 5459 02b2 5DE0     		b	.L256
 5460              	.L270:
1493:..\..\..\lvgl\version_6.1.2\lvgl\src\lv_objx/lv_ta.c ****         else if(c == LV_KEY_DOWN)
 5461              		.loc 7 1493 0
 5462 02b4 BB69     		ldr	r3, [r7, #24]
 5463 02b6 122B     		cmp	r3, #18
 5464 02b8 03D1     		bne	.L271
1494:..\..\..\lvgl\version_6.1.2\lvgl\src\lv_objx/lv_ta.c ****             lv_ta_cursor_down(ta);
 5465              		.loc 7 1494 0
 5466 02ba F868     		ldr	r0, [r7, #12]
 5467 02bc FFF7FEFF 		bl	lv_ta_cursor_down
 5468 02c0 56E0     		b	.L256
 5469              	.L271:
1495:..\..\..\lvgl\version_6.1.2\lvgl\src\lv_objx/lv_ta.c ****         else if(c == LV_KEY_BACKSPACE)
 5470              		.loc 7 1495 0
 5471 02c2 BB69     		ldr	r3, [r7, #24]
 5472 02c4 082B     		cmp	r3, #8
 5473 02c6 07D1     		bne	.L272
1496:..\..\..\lvgl\version_6.1.2\lvgl\src\lv_objx/lv_ta.c ****             lv_ta_del_char(ta);
 5474              		.loc 7 1496 0
 5475 02c8 F868     		ldr	r0, [r7, #12]
 5476 02ca FFF7FEFF 		bl	lv_ta_del_char
 5477 02ce 4FE0     		b	.L256
 5478              	.L280:
 5479              		.align	2
 5480              	.L279:
 5481 02d0 08000000 		.word	ancestor_signal
 5482 02d4 10000000 		.word	.LC2
 5483              	.L272:
1497:..\..\..\lvgl\version_6.1.2\lvgl\src\lv_objx/lv_ta.c ****         else if(c == LV_KEY_DEL)
 5484              		.loc 7 1497 0
 5485 02d8 BB69     		ldr	r3, [r7, #24]
 5486 02da 7F2B     		cmp	r3, #127
 5487 02dc 03D1     		bne	.L273
1498:..\..\..\lvgl\version_6.1.2\lvgl\src\lv_objx/lv_ta.c ****             lv_ta_del_char_forward(ta);
 5488              		.loc 7 1498 0
 5489 02de F868     		ldr	r0, [r7, #12]
 5490 02e0 FFF7FEFF 		bl	lv_ta_del_char_forward
 5491 02e4 44E0     		b	.L256
 5492              	.L273:
1499:..\..\..\lvgl\version_6.1.2\lvgl\src\lv_objx/lv_ta.c ****         else if(c == LV_KEY_HOME)
 5493              		.loc 7 1499 0
ARM GAS  C:\Users\tmj32\AppData\Local\Temp\ccI3WYuM.s 			page 146


 5494 02e6 BB69     		ldr	r3, [r7, #24]
 5495 02e8 022B     		cmp	r3, #2
 5496 02ea 04D1     		bne	.L274
1500:..\..\..\lvgl\version_6.1.2\lvgl\src\lv_objx/lv_ta.c ****             lv_ta_set_cursor_pos(ta, 0);
 5497              		.loc 7 1500 0
 5498 02ec 0021     		movs	r1, #0
 5499 02ee F868     		ldr	r0, [r7, #12]
 5500 02f0 FFF7FEFF 		bl	lv_ta_set_cursor_pos
 5501 02f4 3CE0     		b	.L256
 5502              	.L274:
1501:..\..\..\lvgl\version_6.1.2\lvgl\src\lv_objx/lv_ta.c ****         else if(c == LV_KEY_END)
 5503              		.loc 7 1501 0
 5504 02f6 BB69     		ldr	r3, [r7, #24]
 5505 02f8 032B     		cmp	r3, #3
 5506 02fa 05D1     		bne	.L275
1502:..\..\..\lvgl\version_6.1.2\lvgl\src\lv_objx/lv_ta.c ****             lv_ta_set_cursor_pos(ta, LV_TA_CURSOR_LAST);
 5507              		.loc 7 1502 0
 5508 02fc 47F6FF71 		movw	r1, #32767
 5509 0300 F868     		ldr	r0, [r7, #12]
 5510 0302 FFF7FEFF 		bl	lv_ta_set_cursor_pos
 5511 0306 33E0     		b	.L256
 5512              	.L275:
1503:..\..\..\lvgl\version_6.1.2\lvgl\src\lv_objx/lv_ta.c ****         else {
1504:..\..\..\lvgl\version_6.1.2\lvgl\src\lv_objx/lv_ta.c ****             lv_ta_add_char(ta, c);
 5513              		.loc 7 1504 0
 5514 0308 B969     		ldr	r1, [r7, #24]
 5515 030a F868     		ldr	r0, [r7, #12]
 5516 030c FFF7FEFF 		bl	lv_ta_add_char
 5517 0310 2EE0     		b	.L256
 5518              	.L266:
 5519              	.LBE33:
1505:..\..\..\lvgl\version_6.1.2\lvgl\src\lv_objx/lv_ta.c ****         }
1506:..\..\..\lvgl\version_6.1.2\lvgl\src\lv_objx/lv_ta.c ****     } else if(sign == LV_SIGNAL_GET_EDITABLE) {
 5520              		.loc 7 1506 0
 5521 0312 FB7A     		ldrb	r3, [r7, #11]	@ zero_extendqisi2
 5522 0314 132B     		cmp	r3, #19
 5523 0316 05D1     		bne	.L276
 5524              	.LBB34:
1507:..\..\..\lvgl\version_6.1.2\lvgl\src\lv_objx/lv_ta.c ****         bool * editable = (bool *)param;
 5525              		.loc 7 1507 0
 5526 0318 7B68     		ldr	r3, [r7, #4]
 5527 031a 7B61     		str	r3, [r7, #20]
1508:..\..\..\lvgl\version_6.1.2\lvgl\src\lv_objx/lv_ta.c ****         *editable       = true;
 5528              		.loc 7 1508 0
 5529 031c 7B69     		ldr	r3, [r7, #20]
 5530 031e 0122     		movs	r2, #1
 5531 0320 1A70     		strb	r2, [r3]
 5532              	.LBE34:
 5533 0322 25E0     		b	.L256
 5534              	.L276:
1509:..\..\..\lvgl\version_6.1.2\lvgl\src\lv_objx/lv_ta.c ****     } else if(sign == LV_SIGNAL_DEFOCUS) {
 5535              		.loc 7 1509 0
 5536 0324 FB7A     		ldrb	r3, [r7, #11]	@ zero_extendqisi2
 5537 0326 112B     		cmp	r3, #17
 5538 0328 0DD1     		bne	.L277
 5539              	.LBB35:
1510:..\..\..\lvgl\version_6.1.2\lvgl\src\lv_objx/lv_ta.c ****         lv_cursor_type_t cur_type;
ARM GAS  C:\Users\tmj32\AppData\Local\Temp\ccI3WYuM.s 			page 147


1511:..\..\..\lvgl\version_6.1.2\lvgl\src\lv_objx/lv_ta.c ****         cur_type = lv_ta_get_cursor_type(ta);
 5540              		.loc 7 1511 0
 5541 032a F868     		ldr	r0, [r7, #12]
 5542 032c FFF7FEFF 		bl	lv_ta_get_cursor_type
 5543 0330 0346     		mov	r3, r0
 5544 0332 FB74     		strb	r3, [r7, #19]
1512:..\..\..\lvgl\version_6.1.2\lvgl\src\lv_objx/lv_ta.c ****         lv_ta_set_cursor_type(ta, cur_type | LV_CURSOR_HIDDEN);
 5545              		.loc 7 1512 0
 5546 0334 FB7C     		ldrb	r3, [r7, #19]
 5547 0336 43F00803 		orr	r3, r3, #8
 5548 033a DBB2     		uxtb	r3, r3
 5549 033c 1946     		mov	r1, r3
 5550 033e F868     		ldr	r0, [r7, #12]
 5551 0340 FFF7FEFF 		bl	lv_ta_set_cursor_type
 5552              	.LBE35:
 5553 0344 14E0     		b	.L256
 5554              	.L277:
1513:..\..\..\lvgl\version_6.1.2\lvgl\src\lv_objx/lv_ta.c ****     } else if(sign == LV_SIGNAL_FOCUS) {
 5555              		.loc 7 1513 0
 5556 0346 FB7A     		ldrb	r3, [r7, #11]	@ zero_extendqisi2
 5557 0348 102B     		cmp	r3, #16
 5558 034a 11D0     		beq	.L256
1514:..\..\..\lvgl\version_6.1.2\lvgl\src\lv_objx/lv_ta.c **** #if LV_USE_GROUP
1515:..\..\..\lvgl\version_6.1.2\lvgl\src\lv_objx/lv_ta.c ****         lv_cursor_type_t cur_type;
1516:..\..\..\lvgl\version_6.1.2\lvgl\src\lv_objx/lv_ta.c ****         cur_type                   = lv_ta_get_cursor_type(ta);
1517:..\..\..\lvgl\version_6.1.2\lvgl\src\lv_objx/lv_ta.c ****         lv_group_t * g             = lv_obj_get_group(ta);
1518:..\..\..\lvgl\version_6.1.2\lvgl\src\lv_objx/lv_ta.c ****         bool editing               = lv_group_get_editing(g);
1519:..\..\..\lvgl\version_6.1.2\lvgl\src\lv_objx/lv_ta.c ****         lv_indev_type_t indev_type = lv_indev_get_type(lv_indev_get_act());
1520:..\..\..\lvgl\version_6.1.2\lvgl\src\lv_objx/lv_ta.c **** 
1521:..\..\..\lvgl\version_6.1.2\lvgl\src\lv_objx/lv_ta.c ****         /*Encoders need special handling*/
1522:..\..\..\lvgl\version_6.1.2\lvgl\src\lv_objx/lv_ta.c ****         if(indev_type == LV_INDEV_TYPE_ENCODER) {
1523:..\..\..\lvgl\version_6.1.2\lvgl\src\lv_objx/lv_ta.c ****             if(editing)
1524:..\..\..\lvgl\version_6.1.2\lvgl\src\lv_objx/lv_ta.c ****                 lv_ta_set_cursor_type(ta, cur_type & (~LV_CURSOR_HIDDEN));
1525:..\..\..\lvgl\version_6.1.2\lvgl\src\lv_objx/lv_ta.c ****             else
1526:..\..\..\lvgl\version_6.1.2\lvgl\src\lv_objx/lv_ta.c ****                 lv_ta_set_cursor_type(ta, cur_type | LV_CURSOR_HIDDEN);
1527:..\..\..\lvgl\version_6.1.2\lvgl\src\lv_objx/lv_ta.c ****         } else {
1528:..\..\..\lvgl\version_6.1.2\lvgl\src\lv_objx/lv_ta.c ****             lv_ta_set_cursor_type(ta, cur_type & (~LV_CURSOR_HIDDEN));
1529:..\..\..\lvgl\version_6.1.2\lvgl\src\lv_objx/lv_ta.c ****         }
1530:..\..\..\lvgl\version_6.1.2\lvgl\src\lv_objx/lv_ta.c **** #endif
1531:..\..\..\lvgl\version_6.1.2\lvgl\src\lv_objx/lv_ta.c ****     } else if(sign == LV_SIGNAL_PRESSED || sign == LV_SIGNAL_PRESSING || sign == LV_SIGNAL_PRESS_LO
 5559              		.loc 7 1531 0
 5560 034c FB7A     		ldrb	r3, [r7, #11]	@ zero_extendqisi2
 5561 034e 082B     		cmp	r3, #8
 5562 0350 08D0     		beq	.L278
 5563              		.loc 7 1531 0 is_stmt 0 discriminator 1
 5564 0352 FB7A     		ldrb	r3, [r7, #11]	@ zero_extendqisi2
 5565 0354 092B     		cmp	r3, #9
 5566 0356 05D0     		beq	.L278
 5567              		.loc 7 1531 0 discriminator 2
 5568 0358 FB7A     		ldrb	r3, [r7, #11]	@ zero_extendqisi2
 5569 035a 0A2B     		cmp	r3, #10
 5570 035c 02D0     		beq	.L278
 5571              		.loc 7 1531 0 discriminator 3
 5572 035e FB7A     		ldrb	r3, [r7, #11]	@ zero_extendqisi2
 5573 0360 0B2B     		cmp	r3, #11
 5574 0362 05D1     		bne	.L256
 5575              	.L278:
ARM GAS  C:\Users\tmj32\AppData\Local\Temp\ccI3WYuM.s 			page 148


1532:..\..\..\lvgl\version_6.1.2\lvgl\src\lv_objx/lv_ta.c ****               sign == LV_SIGNAL_RELEASED) {
1533:..\..\..\lvgl\version_6.1.2\lvgl\src\lv_objx/lv_ta.c ****         update_cursor_position_on_click(ta, sign, (lv_indev_t *)param);
 5576              		.loc 7 1533 0 is_stmt 1
 5577 0364 FB7A     		ldrb	r3, [r7, #11]	@ zero_extendqisi2
 5578 0366 7A68     		ldr	r2, [r7, #4]
 5579 0368 1946     		mov	r1, r3
 5580 036a F868     		ldr	r0, [r7, #12]
 5581 036c FFF7FEFF 		bl	update_cursor_position_on_click
 5582              	.L256:
1534:..\..\..\lvgl\version_6.1.2\lvgl\src\lv_objx/lv_ta.c ****     }
1535:..\..\..\lvgl\version_6.1.2\lvgl\src\lv_objx/lv_ta.c ****     return res;
 5583              		.loc 7 1535 0
 5584 0370 97F84730 		ldrb	r3, [r7, #71]	@ zero_extendqisi2
 5585              	.L252:
1536:..\..\..\lvgl\version_6.1.2\lvgl\src\lv_objx/lv_ta.c **** }
 5586              		.loc 7 1536 0
 5587 0374 1846     		mov	r0, r3
 5588 0376 4C37     		adds	r7, r7, #76
 5589              		.cfi_def_cfa_offset 12
 5590 0378 BD46     		mov	sp, r7
 5591              		.cfi_def_cfa_register 13
 5592              		@ sp needed
 5593 037a 90BD     		pop	{r4, r7, pc}
 5594              		.cfi_endproc
 5595              	.LFE98:
 5596              		.size	lv_ta_signal, .-lv_ta_signal
 5597              		.section	.text.lv_ta_scrollable_signal,"ax",%progbits
 5598              		.align	2
 5599              		.thumb
 5600              		.thumb_func
 5601              		.type	lv_ta_scrollable_signal, %function
 5602              	lv_ta_scrollable_signal:
 5603              	.LFB99:
1537:..\..\..\lvgl\version_6.1.2\lvgl\src\lv_objx/lv_ta.c **** 
1538:..\..\..\lvgl\version_6.1.2\lvgl\src\lv_objx/lv_ta.c **** /**
1539:..\..\..\lvgl\version_6.1.2\lvgl\src\lv_objx/lv_ta.c ****  * Signal function of the scrollable part of the text area
1540:..\..\..\lvgl\version_6.1.2\lvgl\src\lv_objx/lv_ta.c ****  * @param scrl pointer to scrollable part of a text area object
1541:..\..\..\lvgl\version_6.1.2\lvgl\src\lv_objx/lv_ta.c ****  * @param sign a signal type from lv_signal_t enum
1542:..\..\..\lvgl\version_6.1.2\lvgl\src\lv_objx/lv_ta.c ****  * @param param pointer to a signal specific variable
1543:..\..\..\lvgl\version_6.1.2\lvgl\src\lv_objx/lv_ta.c ****  * @return LV_RES_OK: the object is not deleted in the function; LV_RES_INV: the object is deleted
1544:..\..\..\lvgl\version_6.1.2\lvgl\src\lv_objx/lv_ta.c ****  */
1545:..\..\..\lvgl\version_6.1.2\lvgl\src\lv_objx/lv_ta.c **** static lv_res_t lv_ta_scrollable_signal(lv_obj_t * scrl, lv_signal_t sign, void * param)
1546:..\..\..\lvgl\version_6.1.2\lvgl\src\lv_objx/lv_ta.c **** {
 5604              		.loc 7 1546 0
 5605              		.cfi_startproc
 5606              		@ args = 0, pretend = 0, frame = 40
 5607              		@ frame_needed = 1, uses_anonymous_args = 0
 5608 0000 90B5     		push	{r4, r7, lr}
 5609              		.cfi_def_cfa_offset 12
 5610              		.cfi_offset 4, -12
 5611              		.cfi_offset 7, -8
 5612              		.cfi_offset 14, -4
 5613 0002 8BB0     		sub	sp, sp, #44
 5614              		.cfi_def_cfa_offset 56
 5615 0004 00AF     		add	r7, sp, #0
 5616              		.cfi_def_cfa_register 7
 5617 0006 F860     		str	r0, [r7, #12]
ARM GAS  C:\Users\tmj32\AppData\Local\Temp\ccI3WYuM.s 			page 149


 5618 0008 0B46     		mov	r3, r1
 5619 000a 7A60     		str	r2, [r7, #4]
 5620 000c FB72     		strb	r3, [r7, #11]
1547:..\..\..\lvgl\version_6.1.2\lvgl\src\lv_objx/lv_ta.c ****     lv_res_t res;
1548:..\..\..\lvgl\version_6.1.2\lvgl\src\lv_objx/lv_ta.c **** 
1549:..\..\..\lvgl\version_6.1.2\lvgl\src\lv_objx/lv_ta.c ****     /* Include the ancient signal function */
1550:..\..\..\lvgl\version_6.1.2\lvgl\src\lv_objx/lv_ta.c ****     res = scrl_signal(scrl, sign, param);
 5621              		.loc 7 1550 0
 5622 000e 4D4B     		ldr	r3, .L291
 5623 0010 1B68     		ldr	r3, [r3]
 5624 0012 F97A     		ldrb	r1, [r7, #11]	@ zero_extendqisi2
 5625 0014 7A68     		ldr	r2, [r7, #4]
 5626 0016 F868     		ldr	r0, [r7, #12]
 5627 0018 9847     		blx	r3
 5628 001a 0346     		mov	r3, r0
 5629 001c 87F82730 		strb	r3, [r7, #39]
1551:..\..\..\lvgl\version_6.1.2\lvgl\src\lv_objx/lv_ta.c ****     if(res != LV_RES_OK) return res;
 5630              		.loc 7 1551 0
 5631 0020 97F82730 		ldrb	r3, [r7, #39]	@ zero_extendqisi2
 5632 0024 012B     		cmp	r3, #1
 5633 0026 02D0     		beq	.L282
 5634              		.loc 7 1551 0 is_stmt 0 discriminator 1
 5635 0028 97F82730 		ldrb	r3, [r7, #39]	@ zero_extendqisi2
 5636 002c 85E0     		b	.L283
 5637              	.L282:
1552:..\..\..\lvgl\version_6.1.2\lvgl\src\lv_objx/lv_ta.c ****     if(sign == LV_SIGNAL_GET_TYPE) return lv_obj_handle_get_type_signal(param, "");
 5638              		.loc 7 1552 0 is_stmt 1
 5639 002e FB7A     		ldrb	r3, [r7, #11]	@ zero_extendqisi2
 5640 0030 072B     		cmp	r3, #7
 5641 0032 05D1     		bne	.L284
 5642              		.loc 7 1552 0 is_stmt 0 discriminator 1
 5643 0034 4449     		ldr	r1, .L291+4
 5644 0036 7868     		ldr	r0, [r7, #4]
 5645 0038 FFF7FEFF 		bl	lv_obj_handle_get_type_signal
 5646 003c 0346     		mov	r3, r0
 5647 003e 7CE0     		b	.L283
 5648              	.L284:
1553:..\..\..\lvgl\version_6.1.2\lvgl\src\lv_objx/lv_ta.c **** 
1554:..\..\..\lvgl\version_6.1.2\lvgl\src\lv_objx/lv_ta.c ****     lv_obj_t * ta     = lv_obj_get_parent(scrl);
 5649              		.loc 7 1554 0 is_stmt 1
 5650 0040 F868     		ldr	r0, [r7, #12]
 5651 0042 FFF7FEFF 		bl	lv_obj_get_parent
 5652 0046 3862     		str	r0, [r7, #32]
1555:..\..\..\lvgl\version_6.1.2\lvgl\src\lv_objx/lv_ta.c ****     lv_ta_ext_t * ext = lv_obj_get_ext_attr(ta);
 5653              		.loc 7 1555 0
 5654 0048 386A     		ldr	r0, [r7, #32]
 5655 004a FFF7FEFF 		bl	lv_obj_get_ext_attr
 5656 004e F861     		str	r0, [r7, #28]
1556:..\..\..\lvgl\version_6.1.2\lvgl\src\lv_objx/lv_ta.c **** 
1557:..\..\..\lvgl\version_6.1.2\lvgl\src\lv_objx/lv_ta.c ****     if(sign == LV_SIGNAL_REFR_EXT_DRAW_PAD) {
 5657              		.loc 7 1557 0
 5658 0050 FB7A     		ldrb	r3, [r7, #11]	@ zero_extendqisi2
 5659 0052 062B     		cmp	r3, #6
 5660 0054 1DD1     		bne	.L285
 5661              	.LBB36:
1558:..\..\..\lvgl\version_6.1.2\lvgl\src\lv_objx/lv_ta.c ****         /*Set ext. size because the cursor might be out of this object*/
1559:..\..\..\lvgl\version_6.1.2\lvgl\src\lv_objx/lv_ta.c ****         const lv_style_t * style_label = lv_obj_get_style(ext->label);
ARM GAS  C:\Users\tmj32\AppData\Local\Temp\ccI3WYuM.s 			page 150


 5662              		.loc 7 1559 0
 5663 0056 FB69     		ldr	r3, [r7, #28]
 5664 0058 1B6B     		ldr	r3, [r3, #48]
 5665 005a 1846     		mov	r0, r3
 5666 005c FFF7FEFF 		bl	lv_obj_get_style
 5667 0060 B861     		str	r0, [r7, #24]
1560:..\..\..\lvgl\version_6.1.2\lvgl\src\lv_objx/lv_ta.c ****         lv_coord_t font_h              = lv_font_get_line_height(style_label->text.font);
 5668              		.loc 7 1560 0
 5669 0062 BB69     		ldr	r3, [r7, #24]
 5670 0064 5B6B     		ldr	r3, [r3, #52]
 5671 0066 1846     		mov	r0, r3
 5672 0068 FFF7FEFF 		bl	lv_font_get_line_height
 5673 006c 0346     		mov	r3, r0
 5674 006e FB82     		strh	r3, [r7, #22]	@ movhi
1561:..\..\..\lvgl\version_6.1.2\lvgl\src\lv_objx/lv_ta.c ****         scrl->ext_draw_pad             = LV_MATH_MAX(scrl->ext_draw_pad, style_label->text.line_spa
 5675              		.loc 7 1561 0
 5676 0070 BB69     		ldr	r3, [r7, #24]
 5677 0072 B3F93A30 		ldrsh	r3, [r3, #58]
 5678 0076 1A46     		mov	r2, r3
 5679 0078 B7F91630 		ldrsh	r3, [r7, #22]
 5680 007c 1344     		add	r3, r3, r2
 5681 007e FA68     		ldr	r2, [r7, #12]
 5682 0080 B2F93020 		ldrsh	r2, [r2, #48]
 5683 0084 9342     		cmp	r3, r2
 5684 0086 B8BF     		it	lt
 5685 0088 1346     		movlt	r3, r2
 5686 008a 1AB2     		sxth	r2, r3
 5687 008c FB68     		ldr	r3, [r7, #12]
 5688 008e 1A86     		strh	r2, [r3, #48]	@ movhi
 5689              	.LBE36:
 5690 0090 51E0     		b	.L286
 5691              	.L285:
1562:..\..\..\lvgl\version_6.1.2\lvgl\src\lv_objx/lv_ta.c ****     } else if(sign == LV_SIGNAL_CORD_CHG) {
 5692              		.loc 7 1562 0
 5693 0092 FB7A     		ldrb	r3, [r7, #11]	@ zero_extendqisi2
 5694 0094 022B     		cmp	r3, #2
 5695 0096 3CD1     		bne	.L287
1563:..\..\..\lvgl\version_6.1.2\lvgl\src\lv_objx/lv_ta.c ****         /*Set the label width according to the text area width*/
1564:..\..\..\lvgl\version_6.1.2\lvgl\src\lv_objx/lv_ta.c ****         if(ext->label) {
 5696              		.loc 7 1564 0
 5697 0098 FB69     		ldr	r3, [r7, #28]
 5698 009a 1B6B     		ldr	r3, [r3, #48]
 5699 009c 002B     		cmp	r3, #0
 5700 009e 4AD0     		beq	.L286
1565:..\..\..\lvgl\version_6.1.2\lvgl\src\lv_objx/lv_ta.c ****             if(lv_obj_get_width(scrl) != lv_area_get_width(param) ||
 5701              		.loc 7 1565 0
 5702 00a0 F868     		ldr	r0, [r7, #12]
 5703 00a2 FFF7FEFF 		bl	lv_obj_get_width
 5704 00a6 0346     		mov	r3, r0
 5705 00a8 1C46     		mov	r4, r3
 5706 00aa 7868     		ldr	r0, [r7, #4]
 5707 00ac FFF7FEFF 		bl	lv_area_get_width
 5708 00b0 0346     		mov	r3, r0
 5709 00b2 9C42     		cmp	r4, r3
 5710 00b4 0AD1     		bne	.L289
1566:..\..\..\lvgl\version_6.1.2\lvgl\src\lv_objx/lv_ta.c ****                lv_obj_get_height(scrl) != lv_area_get_height(param)) {
 5711              		.loc 7 1566 0 discriminator 1
ARM GAS  C:\Users\tmj32\AppData\Local\Temp\ccI3WYuM.s 			page 151


 5712 00b6 F868     		ldr	r0, [r7, #12]
 5713 00b8 FFF7FEFF 		bl	lv_obj_get_height
 5714 00bc 0346     		mov	r3, r0
 5715 00be 1C46     		mov	r4, r3
 5716 00c0 7868     		ldr	r0, [r7, #4]
 5717 00c2 FFF7FEFF 		bl	lv_area_get_height
 5718 00c6 0346     		mov	r3, r0
1565:..\..\..\lvgl\version_6.1.2\lvgl\src\lv_objx/lv_ta.c ****             if(lv_obj_get_width(scrl) != lv_area_get_width(param) ||
 5719              		.loc 7 1565 0 discriminator 1
 5720 00c8 9C42     		cmp	r4, r3
 5721 00ca 34D0     		beq	.L286
 5722              	.L289:
 5723              	.LBB37:
1567:..\..\..\lvgl\version_6.1.2\lvgl\src\lv_objx/lv_ta.c **** 
1568:..\..\..\lvgl\version_6.1.2\lvgl\src\lv_objx/lv_ta.c ****                 const lv_style_t * style_scrl = lv_obj_get_style(scrl);
 5724              		.loc 7 1568 0
 5725 00cc F868     		ldr	r0, [r7, #12]
 5726 00ce FFF7FEFF 		bl	lv_obj_get_style
 5727 00d2 3861     		str	r0, [r7, #16]
1569:..\..\..\lvgl\version_6.1.2\lvgl\src\lv_objx/lv_ta.c ****                 lv_obj_set_width(ext->label, lv_page_get_fit_width(ta));
 5728              		.loc 7 1569 0
 5729 00d4 FB69     		ldr	r3, [r7, #28]
 5730 00d6 1C6B     		ldr	r4, [r3, #48]
 5731 00d8 386A     		ldr	r0, [r7, #32]
 5732 00da FFF7FEFF 		bl	lv_page_get_fit_width
 5733 00de 0346     		mov	r3, r0
 5734 00e0 1946     		mov	r1, r3
 5735 00e2 2046     		mov	r0, r4
 5736 00e4 FFF7FEFF 		bl	lv_obj_set_width
1570:..\..\..\lvgl\version_6.1.2\lvgl\src\lv_objx/lv_ta.c ****                 lv_obj_set_pos(ext->label, style_scrl->body.padding.left, style_scrl->body.padding.
 5737              		.loc 7 1570 0
 5738 00e8 FB69     		ldr	r3, [r7, #28]
 5739 00ea 186B     		ldr	r0, [r3, #48]
 5740 00ec 3B69     		ldr	r3, [r7, #16]
 5741 00ee B3F92410 		ldrsh	r1, [r3, #36]
 5742 00f2 3B69     		ldr	r3, [r7, #16]
 5743 00f4 B3F92030 		ldrsh	r3, [r3, #32]
 5744 00f8 1A46     		mov	r2, r3
 5745 00fa FFF7FEFF 		bl	lv_obj_set_pos
1571:..\..\..\lvgl\version_6.1.2\lvgl\src\lv_objx/lv_ta.c ****                 lv_label_set_text(ext->label, NULL); /*Refresh the label*/
 5746              		.loc 7 1571 0
 5747 00fe FB69     		ldr	r3, [r7, #28]
 5748 0100 1B6B     		ldr	r3, [r3, #48]
 5749 0102 0021     		movs	r1, #0
 5750 0104 1846     		mov	r0, r3
 5751 0106 FFF7FEFF 		bl	lv_label_set_text
1572:..\..\..\lvgl\version_6.1.2\lvgl\src\lv_objx/lv_ta.c **** 
1573:..\..\..\lvgl\version_6.1.2\lvgl\src\lv_objx/lv_ta.c ****                 refr_cursor_area(ta);
 5752              		.loc 7 1573 0
 5753 010a 386A     		ldr	r0, [r7, #32]
 5754 010c FFF7FEFF 		bl	refr_cursor_area
 5755 0110 11E0     		b	.L286
 5756              	.L287:
 5757              	.LBE37:
1574:..\..\..\lvgl\version_6.1.2\lvgl\src\lv_objx/lv_ta.c ****             }
1575:..\..\..\lvgl\version_6.1.2\lvgl\src\lv_objx/lv_ta.c ****         }
1576:..\..\..\lvgl\version_6.1.2\lvgl\src\lv_objx/lv_ta.c ****     } else if(sign == LV_SIGNAL_PRESSING || sign == LV_SIGNAL_PRESSED || sign == LV_SIGNAL_PRESS_LO
ARM GAS  C:\Users\tmj32\AppData\Local\Temp\ccI3WYuM.s 			page 152


 5758              		.loc 7 1576 0
 5759 0112 FB7A     		ldrb	r3, [r7, #11]	@ zero_extendqisi2
 5760 0114 092B     		cmp	r3, #9
 5761 0116 08D0     		beq	.L290
 5762              		.loc 7 1576 0 is_stmt 0 discriminator 1
 5763 0118 FB7A     		ldrb	r3, [r7, #11]	@ zero_extendqisi2
 5764 011a 082B     		cmp	r3, #8
 5765 011c 05D0     		beq	.L290
 5766              		.loc 7 1576 0 discriminator 2
 5767 011e FB7A     		ldrb	r3, [r7, #11]	@ zero_extendqisi2
 5768 0120 0A2B     		cmp	r3, #10
 5769 0122 02D0     		beq	.L290
 5770              		.loc 7 1576 0 discriminator 3
 5771 0124 FB7A     		ldrb	r3, [r7, #11]	@ zero_extendqisi2
 5772 0126 0B2B     		cmp	r3, #11
 5773 0128 05D1     		bne	.L286
 5774              	.L290:
1577:..\..\..\lvgl\version_6.1.2\lvgl\src\lv_objx/lv_ta.c ****               sign == LV_SIGNAL_RELEASED) {
1578:..\..\..\lvgl\version_6.1.2\lvgl\src\lv_objx/lv_ta.c ****         update_cursor_position_on_click(ta, sign, (lv_indev_t *)param);
 5775              		.loc 7 1578 0 is_stmt 1
 5776 012a FB7A     		ldrb	r3, [r7, #11]	@ zero_extendqisi2
 5777 012c 7A68     		ldr	r2, [r7, #4]
 5778 012e 1946     		mov	r1, r3
 5779 0130 386A     		ldr	r0, [r7, #32]
 5780 0132 FFF7FEFF 		bl	update_cursor_position_on_click
 5781              	.L286:
1579:..\..\..\lvgl\version_6.1.2\lvgl\src\lv_objx/lv_ta.c ****     }
1580:..\..\..\lvgl\version_6.1.2\lvgl\src\lv_objx/lv_ta.c **** 
1581:..\..\..\lvgl\version_6.1.2\lvgl\src\lv_objx/lv_ta.c ****     return res;
 5782              		.loc 7 1581 0
 5783 0136 97F82730 		ldrb	r3, [r7, #39]	@ zero_extendqisi2
 5784              	.L283:
1582:..\..\..\lvgl\version_6.1.2\lvgl\src\lv_objx/lv_ta.c **** }
 5785              		.loc 7 1582 0
 5786 013a 1846     		mov	r0, r3
 5787 013c 2C37     		adds	r7, r7, #44
 5788              		.cfi_def_cfa_offset 12
 5789 013e BD46     		mov	sp, r7
 5790              		.cfi_def_cfa_register 13
 5791              		@ sp needed
 5792 0140 90BD     		pop	{r4, r7, pc}
 5793              	.L292:
 5794 0142 00BF     		.align	2
 5795              	.L291:
 5796 0144 0C000000 		.word	scrl_signal
 5797 0148 0C000000 		.word	.LC1
 5798              		.cfi_endproc
 5799              	.LFE99:
 5800              		.size	lv_ta_scrollable_signal, .-lv_ta_scrollable_signal
 5801              		.section	.text.cursor_blink_anim,"ax",%progbits
 5802              		.align	2
 5803              		.thumb
 5804              		.thumb_func
 5805              		.type	cursor_blink_anim, %function
 5806              	cursor_blink_anim:
 5807              	.LFB100:
1583:..\..\..\lvgl\version_6.1.2\lvgl\src\lv_objx/lv_ta.c **** 
ARM GAS  C:\Users\tmj32\AppData\Local\Temp\ccI3WYuM.s 			page 153


1584:..\..\..\lvgl\version_6.1.2\lvgl\src\lv_objx/lv_ta.c **** #if LV_USE_ANIMATION
1585:..\..\..\lvgl\version_6.1.2\lvgl\src\lv_objx/lv_ta.c **** 
1586:..\..\..\lvgl\version_6.1.2\lvgl\src\lv_objx/lv_ta.c **** /**
1587:..\..\..\lvgl\version_6.1.2\lvgl\src\lv_objx/lv_ta.c ****  * Called to blink the cursor
1588:..\..\..\lvgl\version_6.1.2\lvgl\src\lv_objx/lv_ta.c ****  * @param ta pointer to a text area
1589:..\..\..\lvgl\version_6.1.2\lvgl\src\lv_objx/lv_ta.c ****  * @param hide 1: hide the cursor, 0: show it
1590:..\..\..\lvgl\version_6.1.2\lvgl\src\lv_objx/lv_ta.c ****  */
1591:..\..\..\lvgl\version_6.1.2\lvgl\src\lv_objx/lv_ta.c **** static void cursor_blink_anim(lv_obj_t * ta, lv_anim_value_t show)
1592:..\..\..\lvgl\version_6.1.2\lvgl\src\lv_objx/lv_ta.c **** {
 5808              		.loc 7 1592 0
 5809              		.cfi_startproc
 5810              		@ args = 0, pretend = 0, frame = 24
 5811              		@ frame_needed = 1, uses_anonymous_args = 0
 5812 0000 80B5     		push	{r7, lr}
 5813              		.cfi_def_cfa_offset 8
 5814              		.cfi_offset 7, -8
 5815              		.cfi_offset 14, -4
 5816 0002 86B0     		sub	sp, sp, #24
 5817              		.cfi_def_cfa_offset 32
 5818 0004 00AF     		add	r7, sp, #0
 5819              		.cfi_def_cfa_register 7
 5820 0006 7860     		str	r0, [r7, #4]
 5821 0008 0B46     		mov	r3, r1
 5822 000a 7B80     		strh	r3, [r7, #2]	@ movhi
1593:..\..\..\lvgl\version_6.1.2\lvgl\src\lv_objx/lv_ta.c ****     lv_ta_ext_t * ext = lv_obj_get_ext_attr(ta);
 5823              		.loc 7 1593 0
 5824 000c 7868     		ldr	r0, [r7, #4]
 5825 000e FFF7FEFF 		bl	lv_obj_get_ext_attr
 5826 0012 7861     		str	r0, [r7, #20]
1594:..\..\..\lvgl\version_6.1.2\lvgl\src\lv_objx/lv_ta.c ****     if(show != ext->cursor.state) {
 5827              		.loc 7 1594 0
 5828 0014 B7F90230 		ldrsh	r3, [r7, #2]
 5829 0018 7A69     		ldr	r2, [r7, #20]
 5830 001a 92F85820 		ldrb	r2, [r2, #88]
 5831 001e C2F30012 		ubfx	r2, r2, #4, #1
 5832 0022 D2B2     		uxtb	r2, r2
 5833 0024 9342     		cmp	r3, r2
 5834 0026 5ED0     		beq	.L295
1595:..\..\..\lvgl\version_6.1.2\lvgl\src\lv_objx/lv_ta.c ****         ext->cursor.state = show == 0 ? 0 : 1;
 5835              		.loc 7 1595 0
 5836 0028 B7F90230 		ldrsh	r3, [r7, #2]
 5837 002c 002B     		cmp	r3, #0
 5838 002e 14BF     		ite	ne
 5839 0030 0123     		movne	r3, #1
 5840 0032 0023     		moveq	r3, #0
 5841 0034 D9B2     		uxtb	r1, r3
 5842 0036 7A69     		ldr	r2, [r7, #20]
 5843 0038 92F85830 		ldrb	r3, [r2, #88]
 5844 003c 61F30413 		bfi	r3, r1, #4, #1
 5845 0040 82F85830 		strb	r3, [r2, #88]
1596:..\..\..\lvgl\version_6.1.2\lvgl\src\lv_objx/lv_ta.c ****         if(ext->cursor.type != LV_CURSOR_NONE && (ext->cursor.type & LV_CURSOR_HIDDEN) == 0) {
 5846              		.loc 7 1596 0
 5847 0044 7B69     		ldr	r3, [r7, #20]
 5848 0046 93F85830 		ldrb	r3, [r3, #88]	@ zero_extendqisi2
 5849 004a 03F00F03 		and	r3, r3, #15
 5850 004e DBB2     		uxtb	r3, r3
 5851 0050 002B     		cmp	r3, #0
ARM GAS  C:\Users\tmj32\AppData\Local\Temp\ccI3WYuM.s 			page 154


 5852 0052 48D0     		beq	.L295
 5853              		.loc 7 1596 0 is_stmt 0 discriminator 1
 5854 0054 7B69     		ldr	r3, [r7, #20]
 5855 0056 93F85830 		ldrb	r3, [r3, #88]
 5856 005a C3F30303 		ubfx	r3, r3, #0, #4
 5857 005e DBB2     		uxtb	r3, r3
 5858 0060 03F00803 		and	r3, r3, #8
 5859 0064 002B     		cmp	r3, #0
 5860 0066 3ED1     		bne	.L295
 5861              	.LBB38:
1597:..\..\..\lvgl\version_6.1.2\lvgl\src\lv_objx/lv_ta.c ****             lv_area_t area_tmp;
1598:..\..\..\lvgl\version_6.1.2\lvgl\src\lv_objx/lv_ta.c ****             lv_area_copy(&area_tmp, &ext->cursor.area);
 5862              		.loc 7 1598 0 is_stmt 1
 5863 0068 7B69     		ldr	r3, [r7, #20]
 5864 006a 03F14E02 		add	r2, r3, #78
 5865 006e 07F10C03 		add	r3, r7, #12
 5866 0072 1146     		mov	r1, r2
 5867 0074 1846     		mov	r0, r3
 5868 0076 FFF7FEFF 		bl	lv_area_copy
1599:..\..\..\lvgl\version_6.1.2\lvgl\src\lv_objx/lv_ta.c ****             area_tmp.x1 += ext->label->coords.x1;
 5869              		.loc 7 1599 0
 5870 007a B7F90C30 		ldrsh	r3, [r7, #12]
 5871 007e 9AB2     		uxth	r2, r3
 5872 0080 7B69     		ldr	r3, [r7, #20]
 5873 0082 1B6B     		ldr	r3, [r3, #48]
 5874 0084 B3F91030 		ldrsh	r3, [r3, #16]
 5875 0088 9BB2     		uxth	r3, r3
 5876 008a 1344     		add	r3, r3, r2
 5877 008c 9BB2     		uxth	r3, r3
 5878 008e 1BB2     		sxth	r3, r3
 5879 0090 BB81     		strh	r3, [r7, #12]	@ movhi
1600:..\..\..\lvgl\version_6.1.2\lvgl\src\lv_objx/lv_ta.c ****             area_tmp.y1 += ext->label->coords.y1;
 5880              		.loc 7 1600 0
 5881 0092 B7F90E30 		ldrsh	r3, [r7, #14]
 5882 0096 9AB2     		uxth	r2, r3
 5883 0098 7B69     		ldr	r3, [r7, #20]
 5884 009a 1B6B     		ldr	r3, [r3, #48]
 5885 009c B3F91230 		ldrsh	r3, [r3, #18]
 5886 00a0 9BB2     		uxth	r3, r3
 5887 00a2 1344     		add	r3, r3, r2
 5888 00a4 9BB2     		uxth	r3, r3
 5889 00a6 1BB2     		sxth	r3, r3
 5890 00a8 FB81     		strh	r3, [r7, #14]	@ movhi
1601:..\..\..\lvgl\version_6.1.2\lvgl\src\lv_objx/lv_ta.c ****             area_tmp.x2 += ext->label->coords.x1;
 5891              		.loc 7 1601 0
 5892 00aa B7F91030 		ldrsh	r3, [r7, #16]
 5893 00ae 9AB2     		uxth	r2, r3
 5894 00b0 7B69     		ldr	r3, [r7, #20]
 5895 00b2 1B6B     		ldr	r3, [r3, #48]
 5896 00b4 B3F91030 		ldrsh	r3, [r3, #16]
 5897 00b8 9BB2     		uxth	r3, r3
 5898 00ba 1344     		add	r3, r3, r2
 5899 00bc 9BB2     		uxth	r3, r3
 5900 00be 1BB2     		sxth	r3, r3
 5901 00c0 3B82     		strh	r3, [r7, #16]	@ movhi
1602:..\..\..\lvgl\version_6.1.2\lvgl\src\lv_objx/lv_ta.c ****             area_tmp.y2 += ext->label->coords.y1;
 5902              		.loc 7 1602 0
ARM GAS  C:\Users\tmj32\AppData\Local\Temp\ccI3WYuM.s 			page 155


 5903 00c2 B7F91230 		ldrsh	r3, [r7, #18]
 5904 00c6 9AB2     		uxth	r2, r3
 5905 00c8 7B69     		ldr	r3, [r7, #20]
 5906 00ca 1B6B     		ldr	r3, [r3, #48]
 5907 00cc B3F91230 		ldrsh	r3, [r3, #18]
 5908 00d0 9BB2     		uxth	r3, r3
 5909 00d2 1344     		add	r3, r3, r2
 5910 00d4 9BB2     		uxth	r3, r3
 5911 00d6 1BB2     		sxth	r3, r3
 5912 00d8 7B82     		strh	r3, [r7, #18]	@ movhi
1603:..\..\..\lvgl\version_6.1.2\lvgl\src\lv_objx/lv_ta.c ****             lv_obj_invalidate_area(ta, &area_tmp);
 5913              		.loc 7 1603 0
 5914 00da 07F10C03 		add	r3, r7, #12
 5915 00de 1946     		mov	r1, r3
 5916 00e0 7868     		ldr	r0, [r7, #4]
 5917 00e2 FFF7FEFF 		bl	lv_obj_invalidate_area
 5918              	.L295:
 5919              	.LBE38:
1604:..\..\..\lvgl\version_6.1.2\lvgl\src\lv_objx/lv_ta.c ****         }
1605:..\..\..\lvgl\version_6.1.2\lvgl\src\lv_objx/lv_ta.c ****     }
1606:..\..\..\lvgl\version_6.1.2\lvgl\src\lv_objx/lv_ta.c **** }
 5920              		.loc 7 1606 0
 5921 00e6 00BF     		nop
 5922 00e8 1837     		adds	r7, r7, #24
 5923              		.cfi_def_cfa_offset 8
 5924 00ea BD46     		mov	sp, r7
 5925              		.cfi_def_cfa_register 13
 5926              		@ sp needed
 5927 00ec 80BD     		pop	{r7, pc}
 5928              		.cfi_endproc
 5929              	.LFE100:
 5930              		.size	cursor_blink_anim, .-cursor_blink_anim
 5931 00ee 00BF     		.section	.text.pwd_char_hider_anim,"ax",%progbits
 5932              		.align	2
 5933              		.thumb
 5934              		.thumb_func
 5935              		.type	pwd_char_hider_anim, %function
 5936              	pwd_char_hider_anim:
 5937              	.LFB101:
1607:..\..\..\lvgl\version_6.1.2\lvgl\src\lv_objx/lv_ta.c **** 
1608:..\..\..\lvgl\version_6.1.2\lvgl\src\lv_objx/lv_ta.c **** /**
1609:..\..\..\lvgl\version_6.1.2\lvgl\src\lv_objx/lv_ta.c ****  * Dummy function to animate char hiding in pwd mode.
1610:..\..\..\lvgl\version_6.1.2\lvgl\src\lv_objx/lv_ta.c ****  * Does nothing, but a function is required in car hiding anim.
1611:..\..\..\lvgl\version_6.1.2\lvgl\src\lv_objx/lv_ta.c ****  * (pwd_char_hider callback do the real job)
1612:..\..\..\lvgl\version_6.1.2\lvgl\src\lv_objx/lv_ta.c ****  * @param ta unused
1613:..\..\..\lvgl\version_6.1.2\lvgl\src\lv_objx/lv_ta.c ****  * @param x unused
1614:..\..\..\lvgl\version_6.1.2\lvgl\src\lv_objx/lv_ta.c ****  */
1615:..\..\..\lvgl\version_6.1.2\lvgl\src\lv_objx/lv_ta.c **** static void pwd_char_hider_anim(lv_obj_t * ta, lv_anim_value_t x)
1616:..\..\..\lvgl\version_6.1.2\lvgl\src\lv_objx/lv_ta.c **** {
 5938              		.loc 7 1616 0
 5939              		.cfi_startproc
 5940              		@ args = 0, pretend = 0, frame = 8
 5941              		@ frame_needed = 1, uses_anonymous_args = 0
 5942              		@ link register save eliminated.
 5943 0000 80B4     		push	{r7}
 5944              		.cfi_def_cfa_offset 4
 5945              		.cfi_offset 7, -4
ARM GAS  C:\Users\tmj32\AppData\Local\Temp\ccI3WYuM.s 			page 156


 5946 0002 83B0     		sub	sp, sp, #12
 5947              		.cfi_def_cfa_offset 16
 5948 0004 00AF     		add	r7, sp, #0
 5949              		.cfi_def_cfa_register 7
 5950 0006 7860     		str	r0, [r7, #4]
 5951 0008 0B46     		mov	r3, r1
 5952 000a 7B80     		strh	r3, [r7, #2]	@ movhi
1617:..\..\..\lvgl\version_6.1.2\lvgl\src\lv_objx/lv_ta.c ****     (void)ta;
1618:..\..\..\lvgl\version_6.1.2\lvgl\src\lv_objx/lv_ta.c ****     (void)x;
1619:..\..\..\lvgl\version_6.1.2\lvgl\src\lv_objx/lv_ta.c **** }
 5953              		.loc 7 1619 0
 5954 000c 00BF     		nop
 5955 000e 0C37     		adds	r7, r7, #12
 5956              		.cfi_def_cfa_offset 4
 5957 0010 BD46     		mov	sp, r7
 5958              		.cfi_def_cfa_register 13
 5959              		@ sp needed
 5960 0012 5DF8047B 		ldr	r7, [sp], #4
 5961              		.cfi_restore 7
 5962              		.cfi_def_cfa_offset 0
 5963 0016 7047     		bx	lr
 5964              		.cfi_endproc
 5965              	.LFE101:
 5966              		.size	pwd_char_hider_anim, .-pwd_char_hider_anim
 5967              		.section	.text.pwd_char_hider_anim_ready,"ax",%progbits
 5968              		.align	2
 5969              		.thumb
 5970              		.thumb_func
 5971              		.type	pwd_char_hider_anim_ready, %function
 5972              	pwd_char_hider_anim_ready:
 5973              	.LFB102:
1620:..\..\..\lvgl\version_6.1.2\lvgl\src\lv_objx/lv_ta.c **** 
1621:..\..\..\lvgl\version_6.1.2\lvgl\src\lv_objx/lv_ta.c **** /**
1622:..\..\..\lvgl\version_6.1.2\lvgl\src\lv_objx/lv_ta.c ****  * Call when an animation is ready to convert all characters to '*'
1623:..\..\..\lvgl\version_6.1.2\lvgl\src\lv_objx/lv_ta.c ****  * @param a pointer to the animation
1624:..\..\..\lvgl\version_6.1.2\lvgl\src\lv_objx/lv_ta.c ****  */
1625:..\..\..\lvgl\version_6.1.2\lvgl\src\lv_objx/lv_ta.c **** static void pwd_char_hider_anim_ready(lv_anim_t * a)
1626:..\..\..\lvgl\version_6.1.2\lvgl\src\lv_objx/lv_ta.c **** {
 5974              		.loc 7 1626 0
 5975              		.cfi_startproc
 5976              		@ args = 0, pretend = 0, frame = 16
 5977              		@ frame_needed = 1, uses_anonymous_args = 0
 5978 0000 80B5     		push	{r7, lr}
 5979              		.cfi_def_cfa_offset 8
 5980              		.cfi_offset 7, -8
 5981              		.cfi_offset 14, -4
 5982 0002 84B0     		sub	sp, sp, #16
 5983              		.cfi_def_cfa_offset 24
 5984 0004 00AF     		add	r7, sp, #0
 5985              		.cfi_def_cfa_register 7
 5986 0006 7860     		str	r0, [r7, #4]
1627:..\..\..\lvgl\version_6.1.2\lvgl\src\lv_objx/lv_ta.c ****     lv_obj_t * ta = a->var;
 5987              		.loc 7 1627 0
 5988 0008 7B68     		ldr	r3, [r7, #4]
 5989 000a 1B68     		ldr	r3, [r3]
 5990 000c FB60     		str	r3, [r7, #12]
1628:..\..\..\lvgl\version_6.1.2\lvgl\src\lv_objx/lv_ta.c ****     pwd_char_hider(ta);
ARM GAS  C:\Users\tmj32\AppData\Local\Temp\ccI3WYuM.s 			page 157


 5991              		.loc 7 1628 0
 5992 000e F868     		ldr	r0, [r7, #12]
 5993 0010 FFF7FEFF 		bl	pwd_char_hider
1629:..\..\..\lvgl\version_6.1.2\lvgl\src\lv_objx/lv_ta.c **** }
 5994              		.loc 7 1629 0
 5995 0014 00BF     		nop
 5996 0016 1037     		adds	r7, r7, #16
 5997              		.cfi_def_cfa_offset 8
 5998 0018 BD46     		mov	sp, r7
 5999              		.cfi_def_cfa_register 13
 6000              		@ sp needed
 6001 001a 80BD     		pop	{r7, pc}
 6002              		.cfi_endproc
 6003              	.LFE102:
 6004              		.size	pwd_char_hider_anim_ready, .-pwd_char_hider_anim_ready
 6005              		.section	.text.pwd_char_hider,"ax",%progbits
 6006              		.align	2
 6007              		.thumb
 6008              		.thumb_func
 6009              		.type	pwd_char_hider, %function
 6010              	pwd_char_hider:
 6011              	.LFB103:
1630:..\..\..\lvgl\version_6.1.2\lvgl\src\lv_objx/lv_ta.c **** #endif
1631:..\..\..\lvgl\version_6.1.2\lvgl\src\lv_objx/lv_ta.c **** 
1632:..\..\..\lvgl\version_6.1.2\lvgl\src\lv_objx/lv_ta.c **** /**
1633:..\..\..\lvgl\version_6.1.2\lvgl\src\lv_objx/lv_ta.c ****  * Hide all characters (convert them to '*')
1634:..\..\..\lvgl\version_6.1.2\lvgl\src\lv_objx/lv_ta.c ****  * @param ta: pointer to text area object
1635:..\..\..\lvgl\version_6.1.2\lvgl\src\lv_objx/lv_ta.c ****  */
1636:..\..\..\lvgl\version_6.1.2\lvgl\src\lv_objx/lv_ta.c **** static void pwd_char_hider(lv_obj_t * ta)
1637:..\..\..\lvgl\version_6.1.2\lvgl\src\lv_objx/lv_ta.c **** {
 6012              		.loc 7 1637 0
 6013              		.cfi_startproc
 6014              		@ args = 0, pretend = 0, frame = 24
 6015              		@ frame_needed = 1, uses_anonymous_args = 0
 6016 0000 80B5     		push	{r7, lr}
 6017              		.cfi_def_cfa_offset 8
 6018              		.cfi_offset 7, -8
 6019              		.cfi_offset 14, -4
 6020 0002 86B0     		sub	sp, sp, #24
 6021              		.cfi_def_cfa_offset 32
 6022 0004 00AF     		add	r7, sp, #0
 6023              		.cfi_def_cfa_register 7
 6024 0006 7860     		str	r0, [r7, #4]
1638:..\..\..\lvgl\version_6.1.2\lvgl\src\lv_objx/lv_ta.c ****     lv_ta_ext_t * ext = lv_obj_get_ext_attr(ta);
 6025              		.loc 7 1638 0
 6026 0008 7868     		ldr	r0, [r7, #4]
 6027 000a FFF7FEFF 		bl	lv_obj_get_ext_attr
 6028 000e 3861     		str	r0, [r7, #16]
1639:..\..\..\lvgl\version_6.1.2\lvgl\src\lv_objx/lv_ta.c ****     if(ext->pwd_mode != 0) {
 6029              		.loc 7 1639 0
 6030 0010 3B69     		ldr	r3, [r7, #16]
 6031 0012 93F85C30 		ldrb	r3, [r3, #92]	@ zero_extendqisi2
 6032 0016 03F00103 		and	r3, r3, #1
 6033 001a DBB2     		uxtb	r3, r3
 6034 001c 002B     		cmp	r3, #0
 6035 001e 2DD0     		beq	.L302
 6036              	.LBB39:
ARM GAS  C:\Users\tmj32\AppData\Local\Temp\ccI3WYuM.s 			page 158


1640:..\..\..\lvgl\version_6.1.2\lvgl\src\lv_objx/lv_ta.c ****         char * txt  = lv_label_get_text(ext->label);
 6037              		.loc 7 1640 0
 6038 0020 3B69     		ldr	r3, [r7, #16]
 6039 0022 1B6B     		ldr	r3, [r3, #48]
 6040 0024 1846     		mov	r0, r3
 6041 0026 FFF7FEFF 		bl	lv_label_get_text
 6042 002a F860     		str	r0, [r7, #12]
1641:..\..\..\lvgl\version_6.1.2\lvgl\src\lv_objx/lv_ta.c ****         int16_t len = lv_txt_get_encoded_length(txt);
 6043              		.loc 7 1641 0
 6044 002c 154B     		ldr	r3, .L303
 6045 002e 1B68     		ldr	r3, [r3]
 6046 0030 F868     		ldr	r0, [r7, #12]
 6047 0032 9847     		blx	r3
 6048 0034 0346     		mov	r3, r0
 6049 0036 7B81     		strh	r3, [r7, #10]	@ movhi
1642:..\..\..\lvgl\version_6.1.2\lvgl\src\lv_objx/lv_ta.c ****         bool refr   = false;
 6050              		.loc 7 1642 0
 6051 0038 0023     		movs	r3, #0
 6052 003a FB75     		strb	r3, [r7, #23]
1643:..\..\..\lvgl\version_6.1.2\lvgl\src\lv_objx/lv_ta.c ****         uint16_t i;
1644:..\..\..\lvgl\version_6.1.2\lvgl\src\lv_objx/lv_ta.c ****         for(i = 0; i < len; i++) {
 6053              		.loc 7 1644 0
 6054 003c 0023     		movs	r3, #0
 6055 003e BB82     		strh	r3, [r7, #20]	@ movhi
 6056 0040 09E0     		b	.L300
 6057              	.L301:
1645:..\..\..\lvgl\version_6.1.2\lvgl\src\lv_objx/lv_ta.c ****             txt[i] = '*';
 6058              		.loc 7 1645 0 discriminator 3
 6059 0042 BB8A     		ldrh	r3, [r7, #20]
 6060 0044 FA68     		ldr	r2, [r7, #12]
 6061 0046 1344     		add	r3, r3, r2
 6062 0048 2A22     		movs	r2, #42
 6063 004a 1A70     		strb	r2, [r3]
1646:..\..\..\lvgl\version_6.1.2\lvgl\src\lv_objx/lv_ta.c ****             refr   = true;
 6064              		.loc 7 1646 0 discriminator 3
 6065 004c 0123     		movs	r3, #1
 6066 004e FB75     		strb	r3, [r7, #23]
1644:..\..\..\lvgl\version_6.1.2\lvgl\src\lv_objx/lv_ta.c ****             txt[i] = '*';
 6067              		.loc 7 1644 0 discriminator 3
 6068 0050 BB8A     		ldrh	r3, [r7, #20]
 6069 0052 0133     		adds	r3, r3, #1
 6070 0054 BB82     		strh	r3, [r7, #20]	@ movhi
 6071              	.L300:
1644:..\..\..\lvgl\version_6.1.2\lvgl\src\lv_objx/lv_ta.c ****             txt[i] = '*';
 6072              		.loc 7 1644 0 is_stmt 0 discriminator 1
 6073 0056 BA8A     		ldrh	r2, [r7, #20]
 6074 0058 B7F90A30 		ldrsh	r3, [r7, #10]
 6075 005c 9A42     		cmp	r2, r3
 6076 005e F0DB     		blt	.L301
1647:..\..\..\lvgl\version_6.1.2\lvgl\src\lv_objx/lv_ta.c ****         }
1648:..\..\..\lvgl\version_6.1.2\lvgl\src\lv_objx/lv_ta.c **** 
1649:..\..\..\lvgl\version_6.1.2\lvgl\src\lv_objx/lv_ta.c ****         txt[i] = '\0';
 6077              		.loc 7 1649 0 is_stmt 1
 6078 0060 BB8A     		ldrh	r3, [r7, #20]
 6079 0062 FA68     		ldr	r2, [r7, #12]
 6080 0064 1344     		add	r3, r3, r2
 6081 0066 0022     		movs	r2, #0
ARM GAS  C:\Users\tmj32\AppData\Local\Temp\ccI3WYuM.s 			page 159


 6082 0068 1A70     		strb	r2, [r3]
1650:..\..\..\lvgl\version_6.1.2\lvgl\src\lv_objx/lv_ta.c **** 
1651:..\..\..\lvgl\version_6.1.2\lvgl\src\lv_objx/lv_ta.c ****         if(refr != false) lv_label_set_text(ext->label, txt);
 6083              		.loc 7 1651 0
 6084 006a FB7D     		ldrb	r3, [r7, #23]	@ zero_extendqisi2
 6085 006c 002B     		cmp	r3, #0
 6086 006e 05D0     		beq	.L302
 6087              		.loc 7 1651 0 is_stmt 0 discriminator 1
 6088 0070 3B69     		ldr	r3, [r7, #16]
 6089 0072 1B6B     		ldr	r3, [r3, #48]
 6090 0074 F968     		ldr	r1, [r7, #12]
 6091 0076 1846     		mov	r0, r3
 6092 0078 FFF7FEFF 		bl	lv_label_set_text
 6093              	.L302:
 6094              	.LBE39:
1652:..\..\..\lvgl\version_6.1.2\lvgl\src\lv_objx/lv_ta.c ****     }
1653:..\..\..\lvgl\version_6.1.2\lvgl\src\lv_objx/lv_ta.c **** }
 6095              		.loc 7 1653 0 is_stmt 1
 6096 007c 00BF     		nop
 6097 007e 1837     		adds	r7, r7, #24
 6098              		.cfi_def_cfa_offset 8
 6099 0080 BD46     		mov	sp, r7
 6100              		.cfi_def_cfa_register 13
 6101              		@ sp needed
 6102 0082 80BD     		pop	{r7, pc}
 6103              	.L304:
 6104              		.align	2
 6105              	.L303:
 6106 0084 00000000 		.word	lv_txt_get_encoded_length
 6107              		.cfi_endproc
 6108              	.LFE103:
 6109              		.size	pwd_char_hider, .-pwd_char_hider
 6110              		.section	.text.char_is_accepted,"ax",%progbits
 6111              		.align	2
 6112              		.thumb
 6113              		.thumb_func
 6114              		.type	char_is_accepted, %function
 6115              	char_is_accepted:
 6116              	.LFB104:
1654:..\..\..\lvgl\version_6.1.2\lvgl\src\lv_objx/lv_ta.c **** 
1655:..\..\..\lvgl\version_6.1.2\lvgl\src\lv_objx/lv_ta.c **** /**
1656:..\..\..\lvgl\version_6.1.2\lvgl\src\lv_objx/lv_ta.c ****  * Test an unicode character if it is accepted or not. Checks max length and accepted char list.
1657:..\..\..\lvgl\version_6.1.2\lvgl\src\lv_objx/lv_ta.c ****  * @param ta pointer to a test area object
1658:..\..\..\lvgl\version_6.1.2\lvgl\src\lv_objx/lv_ta.c ****  * @param c an unicode character
1659:..\..\..\lvgl\version_6.1.2\lvgl\src\lv_objx/lv_ta.c ****  * @return true: accapted; false: rejected
1660:..\..\..\lvgl\version_6.1.2\lvgl\src\lv_objx/lv_ta.c ****  */
1661:..\..\..\lvgl\version_6.1.2\lvgl\src\lv_objx/lv_ta.c **** static bool char_is_accepted(lv_obj_t * ta, uint32_t c)
1662:..\..\..\lvgl\version_6.1.2\lvgl\src\lv_objx/lv_ta.c **** {
 6117              		.loc 7 1662 0
 6118              		.cfi_startproc
 6119              		@ args = 0, pretend = 0, frame = 24
 6120              		@ frame_needed = 1, uses_anonymous_args = 0
 6121 0000 90B5     		push	{r4, r7, lr}
 6122              		.cfi_def_cfa_offset 12
 6123              		.cfi_offset 4, -12
 6124              		.cfi_offset 7, -8
 6125              		.cfi_offset 14, -4
ARM GAS  C:\Users\tmj32\AppData\Local\Temp\ccI3WYuM.s 			page 160


 6126 0002 87B0     		sub	sp, sp, #28
 6127              		.cfi_def_cfa_offset 40
 6128 0004 00AF     		add	r7, sp, #0
 6129              		.cfi_def_cfa_register 7
 6130 0006 7860     		str	r0, [r7, #4]
 6131 0008 3960     		str	r1, [r7]
1663:..\..\..\lvgl\version_6.1.2\lvgl\src\lv_objx/lv_ta.c ****     lv_ta_ext_t * ext = lv_obj_get_ext_attr(ta);
 6132              		.loc 7 1663 0
 6133 000a 7868     		ldr	r0, [r7, #4]
 6134 000c FFF7FEFF 		bl	lv_obj_get_ext_attr
 6135 0010 7861     		str	r0, [r7, #20]
1664:..\..\..\lvgl\version_6.1.2\lvgl\src\lv_objx/lv_ta.c **** 
1665:..\..\..\lvgl\version_6.1.2\lvgl\src\lv_objx/lv_ta.c ****     /*If no restriction accept it*/
1666:..\..\..\lvgl\version_6.1.2\lvgl\src\lv_objx/lv_ta.c ****     if(ext->accapted_chars == NULL && ext->max_length == 0) return true;
 6136              		.loc 7 1666 0
 6137 0012 7B69     		ldr	r3, [r7, #20]
 6138 0014 DB6B     		ldr	r3, [r3, #60]
 6139 0016 002B     		cmp	r3, #0
 6140 0018 06D1     		bne	.L306
 6141              		.loc 7 1666 0 is_stmt 0 discriminator 1
 6142 001a 7B69     		ldr	r3, [r7, #20]
 6143 001c B3F84030 		ldrh	r3, [r3, #64]
 6144 0020 002B     		cmp	r3, #0
 6145 0022 01D1     		bne	.L306
 6146              		.loc 7 1666 0 discriminator 2
 6147 0024 0123     		movs	r3, #1
 6148 0026 34E0     		b	.L307
 6149              	.L306:
1667:..\..\..\lvgl\version_6.1.2\lvgl\src\lv_objx/lv_ta.c **** 
1668:..\..\..\lvgl\version_6.1.2\lvgl\src\lv_objx/lv_ta.c ****     /*Too many characters?*/
1669:..\..\..\lvgl\version_6.1.2\lvgl\src\lv_objx/lv_ta.c ****     if(ext->max_length > 0 && lv_txt_get_encoded_length(lv_ta_get_text(ta)) >= ext->max_length) {
 6150              		.loc 7 1669 0 is_stmt 1
 6151 0028 7B69     		ldr	r3, [r7, #20]
 6152 002a B3F84030 		ldrh	r3, [r3, #64]
 6153 002e 002B     		cmp	r3, #0
 6154 0030 0FD0     		beq	.L308
 6155              		.loc 7 1669 0 is_stmt 0 discriminator 1
 6156 0032 1A4B     		ldr	r3, .L313
 6157 0034 1C68     		ldr	r4, [r3]
 6158 0036 7868     		ldr	r0, [r7, #4]
 6159 0038 FFF7FEFF 		bl	lv_ta_get_text
 6160 003c 0346     		mov	r3, r0
 6161 003e 1846     		mov	r0, r3
 6162 0040 A047     		blx	r4
 6163 0042 0246     		mov	r2, r0
 6164 0044 7B69     		ldr	r3, [r7, #20]
 6165 0046 B3F84030 		ldrh	r3, [r3, #64]
 6166 004a 9A42     		cmp	r2, r3
 6167 004c 01D3     		bcc	.L308
1670:..\..\..\lvgl\version_6.1.2\lvgl\src\lv_objx/lv_ta.c ****         return false;
 6168              		.loc 7 1670 0 is_stmt 1
 6169 004e 0023     		movs	r3, #0
 6170 0050 1FE0     		b	.L307
 6171              	.L308:
1671:..\..\..\lvgl\version_6.1.2\lvgl\src\lv_objx/lv_ta.c ****     }
1672:..\..\..\lvgl\version_6.1.2\lvgl\src\lv_objx/lv_ta.c **** 
1673:..\..\..\lvgl\version_6.1.2\lvgl\src\lv_objx/lv_ta.c ****     /*Accepted character?*/
ARM GAS  C:\Users\tmj32\AppData\Local\Temp\ccI3WYuM.s 			page 161


1674:..\..\..\lvgl\version_6.1.2\lvgl\src\lv_objx/lv_ta.c ****     if(ext->accapted_chars) {
 6172              		.loc 7 1674 0
 6173 0052 7B69     		ldr	r3, [r7, #20]
 6174 0054 DB6B     		ldr	r3, [r3, #60]
 6175 0056 002B     		cmp	r3, #0
 6176 0058 1AD0     		beq	.L309
 6177              	.LBB40:
1675:..\..\..\lvgl\version_6.1.2\lvgl\src\lv_objx/lv_ta.c ****         uint32_t i = 0;
 6178              		.loc 7 1675 0
 6179 005a 0023     		movs	r3, #0
 6180 005c FB60     		str	r3, [r7, #12]
1676:..\..\..\lvgl\version_6.1.2\lvgl\src\lv_objx/lv_ta.c ****         uint32_t a;
1677:..\..\..\lvgl\version_6.1.2\lvgl\src\lv_objx/lv_ta.c ****         while(ext->accapted_chars[i] != '\0') {
 6181              		.loc 7 1677 0
 6182 005e 0EE0     		b	.L310
 6183              	.L312:
1678:..\..\..\lvgl\version_6.1.2\lvgl\src\lv_objx/lv_ta.c ****             a = lv_txt_encoded_next(ext->accapted_chars, &i);
 6184              		.loc 7 1678 0
 6185 0060 0F4B     		ldr	r3, .L313+4
 6186 0062 1B68     		ldr	r3, [r3]
 6187 0064 7A69     		ldr	r2, [r7, #20]
 6188 0066 D26B     		ldr	r2, [r2, #60]
 6189 0068 07F10C01 		add	r1, r7, #12
 6190 006c 1046     		mov	r0, r2
 6191 006e 9847     		blx	r3
 6192 0070 3861     		str	r0, [r7, #16]
1679:..\..\..\lvgl\version_6.1.2\lvgl\src\lv_objx/lv_ta.c ****             if(a == c) return true; /*Accepted*/
 6193              		.loc 7 1679 0
 6194 0072 3A69     		ldr	r2, [r7, #16]
 6195 0074 3B68     		ldr	r3, [r7]
 6196 0076 9A42     		cmp	r2, r3
 6197 0078 01D1     		bne	.L310
 6198              		.loc 7 1679 0 is_stmt 0 discriminator 1
 6199 007a 0123     		movs	r3, #1
 6200 007c 09E0     		b	.L307
 6201              	.L310:
1677:..\..\..\lvgl\version_6.1.2\lvgl\src\lv_objx/lv_ta.c ****             a = lv_txt_encoded_next(ext->accapted_chars, &i);
 6202              		.loc 7 1677 0 is_stmt 1
 6203 007e 7B69     		ldr	r3, [r7, #20]
 6204 0080 DA6B     		ldr	r2, [r3, #60]
 6205 0082 FB68     		ldr	r3, [r7, #12]
 6206 0084 1344     		add	r3, r3, r2
 6207 0086 1B78     		ldrb	r3, [r3]	@ zero_extendqisi2
 6208 0088 002B     		cmp	r3, #0
 6209 008a E9D1     		bne	.L312
1680:..\..\..\lvgl\version_6.1.2\lvgl\src\lv_objx/lv_ta.c ****         }
1681:..\..\..\lvgl\version_6.1.2\lvgl\src\lv_objx/lv_ta.c **** 
1682:..\..\..\lvgl\version_6.1.2\lvgl\src\lv_objx/lv_ta.c ****         return false; /*The character wasn't in the list*/
 6210              		.loc 7 1682 0
 6211 008c 0023     		movs	r3, #0
 6212 008e 00E0     		b	.L307
 6213              	.L309:
 6214              	.LBE40:
1683:..\..\..\lvgl\version_6.1.2\lvgl\src\lv_objx/lv_ta.c ****     } else {
1684:..\..\..\lvgl\version_6.1.2\lvgl\src\lv_objx/lv_ta.c ****         return true; /*If the accepted char list in not specified the accept the character*/
 6215              		.loc 7 1684 0
 6216 0090 0123     		movs	r3, #1
ARM GAS  C:\Users\tmj32\AppData\Local\Temp\ccI3WYuM.s 			page 162


 6217              	.L307:
1685:..\..\..\lvgl\version_6.1.2\lvgl\src\lv_objx/lv_ta.c ****     }
1686:..\..\..\lvgl\version_6.1.2\lvgl\src\lv_objx/lv_ta.c **** }
 6218              		.loc 7 1686 0 discriminator 1
 6219 0092 1846     		mov	r0, r3
 6220 0094 1C37     		adds	r7, r7, #28
 6221              		.cfi_def_cfa_offset 12
 6222 0096 BD46     		mov	sp, r7
 6223              		.cfi_def_cfa_register 13
 6224              		@ sp needed
 6225 0098 90BD     		pop	{r4, r7, pc}
 6226              	.L314:
 6227 009a 00BF     		.align	2
 6228              	.L313:
 6229 009c 00000000 		.word	lv_txt_get_encoded_length
 6230 00a0 00000000 		.word	lv_txt_encoded_next
 6231              		.cfi_endproc
 6232              	.LFE104:
 6233              		.size	char_is_accepted, .-char_is_accepted
 6234              		.section	.text.get_cursor_style,"ax",%progbits
 6235              		.align	2
 6236              		.thumb
 6237              		.thumb_func
 6238              		.type	get_cursor_style, %function
 6239              	get_cursor_style:
 6240              	.LFB105:
1687:..\..\..\lvgl\version_6.1.2\lvgl\src\lv_objx/lv_ta.c **** 
1688:..\..\..\lvgl\version_6.1.2\lvgl\src\lv_objx/lv_ta.c **** static void get_cursor_style(lv_obj_t * ta, lv_style_t * style_res)
1689:..\..\..\lvgl\version_6.1.2\lvgl\src\lv_objx/lv_ta.c **** {
 6241              		.loc 7 1689 0
 6242              		.cfi_startproc
 6243              		@ args = 0, pretend = 0, frame = 24
 6244              		@ frame_needed = 1, uses_anonymous_args = 0
 6245 0000 80B5     		push	{r7, lr}
 6246              		.cfi_def_cfa_offset 8
 6247              		.cfi_offset 7, -8
 6248              		.cfi_offset 14, -4
 6249 0002 86B0     		sub	sp, sp, #24
 6250              		.cfi_def_cfa_offset 32
 6251 0004 00AF     		add	r7, sp, #0
 6252              		.cfi_def_cfa_register 7
 6253 0006 7860     		str	r0, [r7, #4]
 6254 0008 3960     		str	r1, [r7]
1690:..\..\..\lvgl\version_6.1.2\lvgl\src\lv_objx/lv_ta.c ****     lv_ta_ext_t * ext              = lv_obj_get_ext_attr(ta);
 6255              		.loc 7 1690 0
 6256 000a 7868     		ldr	r0, [r7, #4]
 6257 000c FFF7FEFF 		bl	lv_obj_get_ext_attr
 6258 0010 7861     		str	r0, [r7, #20]
1691:..\..\..\lvgl\version_6.1.2\lvgl\src\lv_objx/lv_ta.c ****     const lv_style_t * label_style = lv_obj_get_style(ext->label);
 6259              		.loc 7 1691 0
 6260 0012 7B69     		ldr	r3, [r7, #20]
 6261 0014 1B6B     		ldr	r3, [r3, #48]
 6262 0016 1846     		mov	r0, r3
 6263 0018 FFF7FEFF 		bl	lv_obj_get_style
 6264 001c 3861     		str	r0, [r7, #16]
1692:..\..\..\lvgl\version_6.1.2\lvgl\src\lv_objx/lv_ta.c **** 
1693:..\..\..\lvgl\version_6.1.2\lvgl\src\lv_objx/lv_ta.c ****     if(ext->cursor.style) {
ARM GAS  C:\Users\tmj32\AppData\Local\Temp\ccI3WYuM.s 			page 163


 6265              		.loc 7 1693 0
 6266 001e 7B69     		ldr	r3, [r7, #20]
 6267 0020 5B6C     		ldr	r3, [r3, #68]
 6268 0022 002B     		cmp	r3, #0
 6269 0024 06D0     		beq	.L316
1694:..\..\..\lvgl\version_6.1.2\lvgl\src\lv_objx/lv_ta.c ****         lv_style_copy(style_res, ext->cursor.style);
 6270              		.loc 7 1694 0
 6271 0026 7B69     		ldr	r3, [r7, #20]
 6272 0028 5B6C     		ldr	r3, [r3, #68]
 6273 002a 1946     		mov	r1, r3
 6274 002c 3868     		ldr	r0, [r7]
 6275 002e FFF7FEFF 		bl	lv_style_copy
1695:..\..\..\lvgl\version_6.1.2\lvgl\src\lv_objx/lv_ta.c ****     } else {
1696:..\..\..\lvgl\version_6.1.2\lvgl\src\lv_objx/lv_ta.c ****         /*If cursor style is not specified then use the modified label style */
1697:..\..\..\lvgl\version_6.1.2\lvgl\src\lv_objx/lv_ta.c ****         lv_style_copy(style_res, label_style);
1698:..\..\..\lvgl\version_6.1.2\lvgl\src\lv_objx/lv_ta.c ****         lv_color_t clv_color_tmp = style_res->text.color; /*Make letter color to cursor color*/
1699:..\..\..\lvgl\version_6.1.2\lvgl\src\lv_objx/lv_ta.c ****         style_res->text.color =
1700:..\..\..\lvgl\version_6.1.2\lvgl\src\lv_objx/lv_ta.c ****             style_res->body.main_color; /*In block mode the letter color will be current background
1701:..\..\..\lvgl\version_6.1.2\lvgl\src\lv_objx/lv_ta.c ****         style_res->body.main_color     = clv_color_tmp;
1702:..\..\..\lvgl\version_6.1.2\lvgl\src\lv_objx/lv_ta.c ****         style_res->body.grad_color     = clv_color_tmp;
1703:..\..\..\lvgl\version_6.1.2\lvgl\src\lv_objx/lv_ta.c ****         style_res->body.border.color   = clv_color_tmp;
1704:..\..\..\lvgl\version_6.1.2\lvgl\src\lv_objx/lv_ta.c ****         style_res->body.border.opa     = LV_OPA_COVER;
1705:..\..\..\lvgl\version_6.1.2\lvgl\src\lv_objx/lv_ta.c ****         style_res->body.border.width   = 1;
1706:..\..\..\lvgl\version_6.1.2\lvgl\src\lv_objx/lv_ta.c ****         style_res->body.shadow.width   = 0;
1707:..\..\..\lvgl\version_6.1.2\lvgl\src\lv_objx/lv_ta.c ****         style_res->body.radius         = 0;
1708:..\..\..\lvgl\version_6.1.2\lvgl\src\lv_objx/lv_ta.c ****         style_res->body.opa            = LV_OPA_COVER;
1709:..\..\..\lvgl\version_6.1.2\lvgl\src\lv_objx/lv_ta.c ****         style_res->body.padding.left   = 0;
1710:..\..\..\lvgl\version_6.1.2\lvgl\src\lv_objx/lv_ta.c ****         style_res->body.padding.right  = 0;
1711:..\..\..\lvgl\version_6.1.2\lvgl\src\lv_objx/lv_ta.c ****         style_res->body.padding.top    = 0;
1712:..\..\..\lvgl\version_6.1.2\lvgl\src\lv_objx/lv_ta.c ****         style_res->body.padding.bottom = 0;
1713:..\..\..\lvgl\version_6.1.2\lvgl\src\lv_objx/lv_ta.c ****         style_res->line.width          = 1;
1714:..\..\..\lvgl\version_6.1.2\lvgl\src\lv_objx/lv_ta.c ****     }
1715:..\..\..\lvgl\version_6.1.2\lvgl\src\lv_objx/lv_ta.c **** }
 6276              		.loc 7 1715 0
 6277 0032 32E0     		b	.L318
 6278              	.L316:
 6279              	.LBB41:
1697:..\..\..\lvgl\version_6.1.2\lvgl\src\lv_objx/lv_ta.c ****         lv_color_t clv_color_tmp = style_res->text.color; /*Make letter color to cursor color*/
 6280              		.loc 7 1697 0
 6281 0034 3969     		ldr	r1, [r7, #16]
 6282 0036 3868     		ldr	r0, [r7]
 6283 0038 FFF7FEFF 		bl	lv_style_copy
1698:..\..\..\lvgl\version_6.1.2\lvgl\src\lv_objx/lv_ta.c ****         style_res->text.color =
 6284              		.loc 7 1698 0
 6285 003c 3B68     		ldr	r3, [r7]
 6286 003e DB6A     		ldr	r3, [r3, #44]
 6287 0040 FB60     		str	r3, [r7, #12]
1699:..\..\..\lvgl\version_6.1.2\lvgl\src\lv_objx/lv_ta.c ****             style_res->body.main_color; /*In block mode the letter color will be current background
 6288              		.loc 7 1699 0
 6289 0042 3B68     		ldr	r3, [r7]
 6290 0044 3A68     		ldr	r2, [r7]
 6291 0046 5268     		ldr	r2, [r2, #4]
 6292 0048 DA62     		str	r2, [r3, #44]
1701:..\..\..\lvgl\version_6.1.2\lvgl\src\lv_objx/lv_ta.c ****         style_res->body.grad_color     = clv_color_tmp;
 6293              		.loc 7 1701 0
 6294 004a 3B68     		ldr	r3, [r7]
 6295 004c FA68     		ldr	r2, [r7, #12]
ARM GAS  C:\Users\tmj32\AppData\Local\Temp\ccI3WYuM.s 			page 164


 6296 004e 5A60     		str	r2, [r3, #4]
1702:..\..\..\lvgl\version_6.1.2\lvgl\src\lv_objx/lv_ta.c ****         style_res->body.border.color   = clv_color_tmp;
 6297              		.loc 7 1702 0
 6298 0050 3B68     		ldr	r3, [r7]
 6299 0052 FA68     		ldr	r2, [r7, #12]
 6300 0054 9A60     		str	r2, [r3, #8]
1703:..\..\..\lvgl\version_6.1.2\lvgl\src\lv_objx/lv_ta.c ****         style_res->body.border.opa     = LV_OPA_COVER;
 6301              		.loc 7 1703 0
 6302 0056 3B68     		ldr	r3, [r7]
 6303 0058 FA68     		ldr	r2, [r7, #12]
 6304 005a 1A61     		str	r2, [r3, #16]
1704:..\..\..\lvgl\version_6.1.2\lvgl\src\lv_objx/lv_ta.c ****         style_res->body.border.width   = 1;
 6305              		.loc 7 1704 0
 6306 005c 3B68     		ldr	r3, [r7]
 6307 005e FF22     		movs	r2, #255
 6308 0060 DA75     		strb	r2, [r3, #23]
1705:..\..\..\lvgl\version_6.1.2\lvgl\src\lv_objx/lv_ta.c ****         style_res->body.shadow.width   = 0;
 6309              		.loc 7 1705 0
 6310 0062 3B68     		ldr	r3, [r7]
 6311 0064 0122     		movs	r2, #1
 6312 0066 9A82     		strh	r2, [r3, #20]	@ movhi
1706:..\..\..\lvgl\version_6.1.2\lvgl\src\lv_objx/lv_ta.c ****         style_res->body.radius         = 0;
 6313              		.loc 7 1706 0
 6314 0068 3B68     		ldr	r3, [r7]
 6315 006a 0022     		movs	r2, #0
 6316 006c 9A83     		strh	r2, [r3, #28]	@ movhi
1707:..\..\..\lvgl\version_6.1.2\lvgl\src\lv_objx/lv_ta.c ****         style_res->body.opa            = LV_OPA_COVER;
 6317              		.loc 7 1707 0
 6318 006e 3B68     		ldr	r3, [r7]
 6319 0070 0022     		movs	r2, #0
 6320 0072 9A81     		strh	r2, [r3, #12]	@ movhi
1708:..\..\..\lvgl\version_6.1.2\lvgl\src\lv_objx/lv_ta.c ****         style_res->body.padding.left   = 0;
 6321              		.loc 7 1708 0
 6322 0074 3B68     		ldr	r3, [r7]
 6323 0076 FF22     		movs	r2, #255
 6324 0078 9A73     		strb	r2, [r3, #14]
1709:..\..\..\lvgl\version_6.1.2\lvgl\src\lv_objx/lv_ta.c ****         style_res->body.padding.right  = 0;
 6325              		.loc 7 1709 0
 6326 007a 3B68     		ldr	r3, [r7]
 6327 007c 0022     		movs	r2, #0
 6328 007e 9A84     		strh	r2, [r3, #36]	@ movhi
1710:..\..\..\lvgl\version_6.1.2\lvgl\src\lv_objx/lv_ta.c ****         style_res->body.padding.top    = 0;
 6329              		.loc 7 1710 0
 6330 0080 3B68     		ldr	r3, [r7]
 6331 0082 0022     		movs	r2, #0
 6332 0084 DA84     		strh	r2, [r3, #38]	@ movhi
1711:..\..\..\lvgl\version_6.1.2\lvgl\src\lv_objx/lv_ta.c ****         style_res->body.padding.bottom = 0;
 6333              		.loc 7 1711 0
 6334 0086 3B68     		ldr	r3, [r7]
 6335 0088 0022     		movs	r2, #0
 6336 008a 1A84     		strh	r2, [r3, #32]	@ movhi
1712:..\..\..\lvgl\version_6.1.2\lvgl\src\lv_objx/lv_ta.c ****         style_res->line.width          = 1;
 6337              		.loc 7 1712 0
 6338 008c 3B68     		ldr	r3, [r7]
 6339 008e 0022     		movs	r2, #0
 6340 0090 5A84     		strh	r2, [r3, #34]	@ movhi
1713:..\..\..\lvgl\version_6.1.2\lvgl\src\lv_objx/lv_ta.c ****     }
ARM GAS  C:\Users\tmj32\AppData\Local\Temp\ccI3WYuM.s 			page 165


 6341              		.loc 7 1713 0
 6342 0092 3B68     		ldr	r3, [r7]
 6343 0094 0122     		movs	r2, #1
 6344 0096 A3F84C20 		strh	r2, [r3, #76]	@ movhi
 6345              	.L318:
 6346              	.LBE41:
 6347              		.loc 7 1715 0
 6348 009a 00BF     		nop
 6349 009c 1837     		adds	r7, r7, #24
 6350              		.cfi_def_cfa_offset 8
 6351 009e BD46     		mov	sp, r7
 6352              		.cfi_def_cfa_register 13
 6353              		@ sp needed
 6354 00a0 80BD     		pop	{r7, pc}
 6355              		.cfi_endproc
 6356              	.LFE105:
 6357              		.size	get_cursor_style, .-get_cursor_style
 6358 00a2 00BF     		.section	.text.refr_cursor_area,"ax",%progbits
 6359              		.align	2
 6360              		.thumb
 6361              		.thumb_func
 6362              		.type	refr_cursor_area, %function
 6363              	refr_cursor_area:
 6364              	.LFB106:
1716:..\..\..\lvgl\version_6.1.2\lvgl\src\lv_objx/lv_ta.c **** 
1717:..\..\..\lvgl\version_6.1.2\lvgl\src\lv_objx/lv_ta.c **** static void refr_cursor_area(lv_obj_t * ta)
1718:..\..\..\lvgl\version_6.1.2\lvgl\src\lv_objx/lv_ta.c **** {
 6365              		.loc 7 1718 0
 6366              		.cfi_startproc
 6367              		@ args = 0, pretend = 0, frame = 144
 6368              		@ frame_needed = 1, uses_anonymous_args = 0
 6369 0000 80B5     		push	{r7, lr}
 6370              		.cfi_def_cfa_offset 8
 6371              		.cfi_offset 7, -8
 6372              		.cfi_offset 14, -4
 6373 0002 A4B0     		sub	sp, sp, #144
 6374              		.cfi_def_cfa_offset 152
 6375 0004 00AF     		add	r7, sp, #0
 6376              		.cfi_def_cfa_register 7
 6377 0006 7860     		str	r0, [r7, #4]
1719:..\..\..\lvgl\version_6.1.2\lvgl\src\lv_objx/lv_ta.c ****     lv_ta_ext_t * ext = lv_obj_get_ext_attr(ta);
 6378              		.loc 7 1719 0
 6379 0008 7868     		ldr	r0, [r7, #4]
 6380 000a FFF7FEFF 		bl	lv_obj_get_ext_attr
 6381 000e C7F88000 		str	r0, [r7, #128]
1720:..\..\..\lvgl\version_6.1.2\lvgl\src\lv_objx/lv_ta.c **** 
1721:..\..\..\lvgl\version_6.1.2\lvgl\src\lv_objx/lv_ta.c ****     const lv_style_t * label_style = lv_obj_get_style(ext->label);
 6382              		.loc 7 1721 0
 6383 0012 D7F88030 		ldr	r3, [r7, #128]
 6384 0016 1B6B     		ldr	r3, [r3, #48]
 6385 0018 1846     		mov	r0, r3
 6386 001a FFF7FEFF 		bl	lv_obj_get_style
 6387 001e F867     		str	r0, [r7, #124]
1722:..\..\..\lvgl\version_6.1.2\lvgl\src\lv_objx/lv_ta.c **** 
1723:..\..\..\lvgl\version_6.1.2\lvgl\src\lv_objx/lv_ta.c ****     lv_style_t cur_style;
1724:..\..\..\lvgl\version_6.1.2\lvgl\src\lv_objx/lv_ta.c ****     get_cursor_style(ta, &cur_style);
 6388              		.loc 7 1724 0
ARM GAS  C:\Users\tmj32\AppData\Local\Temp\ccI3WYuM.s 			page 166


 6389 0020 07F12003 		add	r3, r7, #32
 6390 0024 1946     		mov	r1, r3
 6391 0026 7868     		ldr	r0, [r7, #4]
 6392 0028 FFF7FEFF 		bl	get_cursor_style
1725:..\..\..\lvgl\version_6.1.2\lvgl\src\lv_objx/lv_ta.c **** 
1726:..\..\..\lvgl\version_6.1.2\lvgl\src\lv_objx/lv_ta.c ****     uint16_t cur_pos = lv_ta_get_cursor_pos(ta);
 6393              		.loc 7 1726 0
 6394 002c 7868     		ldr	r0, [r7, #4]
 6395 002e FFF7FEFF 		bl	lv_ta_get_cursor_pos
 6396 0032 0346     		mov	r3, r0
 6397 0034 A7F87A30 		strh	r3, [r7, #122]	@ movhi
1727:..\..\..\lvgl\version_6.1.2\lvgl\src\lv_objx/lv_ta.c ****     const char * txt = lv_label_get_text(ext->label);
 6398              		.loc 7 1727 0
 6399 0038 D7F88030 		ldr	r3, [r7, #128]
 6400 003c 1B6B     		ldr	r3, [r3, #48]
 6401 003e 1846     		mov	r0, r3
 6402 0040 FFF7FEFF 		bl	lv_label_get_text
 6403 0044 7867     		str	r0, [r7, #116]
1728:..\..\..\lvgl\version_6.1.2\lvgl\src\lv_objx/lv_ta.c **** 
1729:..\..\..\lvgl\version_6.1.2\lvgl\src\lv_objx/lv_ta.c ****     uint32_t byte_pos;
1730:..\..\..\lvgl\version_6.1.2\lvgl\src\lv_objx/lv_ta.c ****     byte_pos = lv_txt_encoded_get_byte_id(txt, cur_pos);
 6404              		.loc 7 1730 0
 6405 0046 A54B     		ldr	r3, .L331
 6406 0048 1B68     		ldr	r3, [r3]
 6407 004a B7F87A20 		ldrh	r2, [r7, #122]
 6408 004e 1146     		mov	r1, r2
 6409 0050 786F     		ldr	r0, [r7, #116]
 6410 0052 9847     		blx	r3
 6411 0054 C7F88C00 		str	r0, [r7, #140]
1731:..\..\..\lvgl\version_6.1.2\lvgl\src\lv_objx/lv_ta.c **** 
1732:..\..\..\lvgl\version_6.1.2\lvgl\src\lv_objx/lv_ta.c ****     uint32_t letter = lv_txt_encoded_next(&txt[byte_pos], NULL);
 6412              		.loc 7 1732 0
 6413 0058 A14B     		ldr	r3, .L331+4
 6414 005a 1B68     		ldr	r3, [r3]
 6415 005c 796F     		ldr	r1, [r7, #116]
 6416 005e D7F88C20 		ldr	r2, [r7, #140]
 6417 0062 0A44     		add	r2, r2, r1
 6418 0064 0021     		movs	r1, #0
 6419 0066 1046     		mov	r0, r2
 6420 0068 9847     		blx	r3
 6421 006a C7F88800 		str	r0, [r7, #136]
1733:..\..\..\lvgl\version_6.1.2\lvgl\src\lv_objx/lv_ta.c **** 
1734:..\..\..\lvgl\version_6.1.2\lvgl\src\lv_objx/lv_ta.c ****     lv_coord_t letter_h = lv_font_get_line_height(label_style->text.font);
 6422              		.loc 7 1734 0
 6423 006e FB6F     		ldr	r3, [r7, #124]
 6424 0070 5B6B     		ldr	r3, [r3, #52]
 6425 0072 1846     		mov	r0, r3
 6426 0074 FFF7FEFF 		bl	lv_font_get_line_height
 6427 0078 0346     		mov	r3, r0
 6428 007a A7F87230 		strh	r3, [r7, #114]	@ movhi
1735:..\..\..\lvgl\version_6.1.2\lvgl\src\lv_objx/lv_ta.c **** 
1736:..\..\..\lvgl\version_6.1.2\lvgl\src\lv_objx/lv_ta.c ****     /*Set letter_w (set not 0 on non printable but valid chars)*/
1737:..\..\..\lvgl\version_6.1.2\lvgl\src\lv_objx/lv_ta.c ****     lv_coord_t letter_w;
1738:..\..\..\lvgl\version_6.1.2\lvgl\src\lv_objx/lv_ta.c ****     if(letter == '\0' || letter == '\n' || letter == '\r') {
 6429              		.loc 7 1738 0
 6430 007e D7F88830 		ldr	r3, [r7, #136]
 6431 0082 002B     		cmp	r3, #0
ARM GAS  C:\Users\tmj32\AppData\Local\Temp\ccI3WYuM.s 			page 167


 6432 0084 07D0     		beq	.L320
 6433              		.loc 7 1738 0 is_stmt 0 discriminator 1
 6434 0086 D7F88830 		ldr	r3, [r7, #136]
 6435 008a 0A2B     		cmp	r3, #10
 6436 008c 03D0     		beq	.L320
 6437              		.loc 7 1738 0 discriminator 2
 6438 008e D7F88830 		ldr	r3, [r7, #136]
 6439 0092 0D2B     		cmp	r3, #13
 6440 0094 0AD1     		bne	.L321
 6441              	.L320:
1739:..\..\..\lvgl\version_6.1.2\lvgl\src\lv_objx/lv_ta.c ****         letter_w = lv_font_get_glyph_width(label_style->text.font, ' ', '\0');
 6442              		.loc 7 1739 0 is_stmt 1
 6443 0096 FB6F     		ldr	r3, [r7, #124]
 6444 0098 5B6B     		ldr	r3, [r3, #52]
 6445 009a 0022     		movs	r2, #0
 6446 009c 2021     		movs	r1, #32
 6447 009e 1846     		mov	r0, r3
 6448 00a0 FFF7FEFF 		bl	lv_font_get_glyph_width
 6449 00a4 0346     		mov	r3, r0
 6450 00a6 A7F88630 		strh	r3, [r7, #134]	@ movhi
 6451 00aa 0AE0     		b	.L322
 6452              	.L321:
1740:..\..\..\lvgl\version_6.1.2\lvgl\src\lv_objx/lv_ta.c ****     } else {
1741:..\..\..\lvgl\version_6.1.2\lvgl\src\lv_objx/lv_ta.c ****         /*`letter_next` parameter is '\0' to ignore kerning*/
1742:..\..\..\lvgl\version_6.1.2\lvgl\src\lv_objx/lv_ta.c ****         letter_w = lv_font_get_glyph_width(label_style->text.font, letter, '\0');
 6453              		.loc 7 1742 0
 6454 00ac FB6F     		ldr	r3, [r7, #124]
 6455 00ae 5B6B     		ldr	r3, [r3, #52]
 6456 00b0 0022     		movs	r2, #0
 6457 00b2 D7F88810 		ldr	r1, [r7, #136]
 6458 00b6 1846     		mov	r0, r3
 6459 00b8 FFF7FEFF 		bl	lv_font_get_glyph_width
 6460 00bc 0346     		mov	r3, r0
 6461 00be A7F88630 		strh	r3, [r7, #134]	@ movhi
 6462              	.L322:
1743:..\..\..\lvgl\version_6.1.2\lvgl\src\lv_objx/lv_ta.c ****     }
1744:..\..\..\lvgl\version_6.1.2\lvgl\src\lv_objx/lv_ta.c **** 
1745:..\..\..\lvgl\version_6.1.2\lvgl\src\lv_objx/lv_ta.c ****     lv_point_t letter_pos;
1746:..\..\..\lvgl\version_6.1.2\lvgl\src\lv_objx/lv_ta.c ****     lv_label_get_letter_pos(ext->label, cur_pos, &letter_pos);
 6463              		.loc 7 1746 0
 6464 00c2 D7F88030 		ldr	r3, [r7, #128]
 6465 00c6 1B6B     		ldr	r3, [r3, #48]
 6466 00c8 07F11C02 		add	r2, r7, #28
 6467 00cc B7F87A10 		ldrh	r1, [r7, #122]
 6468 00d0 1846     		mov	r0, r3
 6469 00d2 FFF7FEFF 		bl	lv_label_get_letter_pos
1747:..\..\..\lvgl\version_6.1.2\lvgl\src\lv_objx/lv_ta.c **** 
1748:..\..\..\lvgl\version_6.1.2\lvgl\src\lv_objx/lv_ta.c ****     /*If the cursor is out of the text (most right) draw it to the next line*/
1749:..\..\..\lvgl\version_6.1.2\lvgl\src\lv_objx/lv_ta.c ****     if(letter_pos.x + ext->label->coords.x1 + letter_w > ext->label->coords.x2 && ext->one_line == 
 6470              		.loc 7 1749 0
 6471 00d6 B7F91C30 		ldrsh	r3, [r7, #28]
 6472 00da 1A46     		mov	r2, r3
 6473 00dc D7F88030 		ldr	r3, [r7, #128]
 6474 00e0 1B6B     		ldr	r3, [r3, #48]
 6475 00e2 B3F91030 		ldrsh	r3, [r3, #16]
 6476 00e6 1A44     		add	r2, r2, r3
 6477 00e8 B7F98630 		ldrsh	r3, [r7, #134]
ARM GAS  C:\Users\tmj32\AppData\Local\Temp\ccI3WYuM.s 			page 168


 6478 00ec 1344     		add	r3, r3, r2
 6479 00ee D7F88020 		ldr	r2, [r7, #128]
 6480 00f2 126B     		ldr	r2, [r2, #48]
 6481 00f4 B2F91420 		ldrsh	r2, [r2, #20]
 6482 00f8 9342     		cmp	r3, r2
 6483 00fa 62DD     		ble	.L323
 6484              		.loc 7 1749 0 is_stmt 0 discriminator 1
 6485 00fc D7F88030 		ldr	r3, [r7, #128]
 6486 0100 93F85C30 		ldrb	r3, [r3, #92]	@ zero_extendqisi2
 6487 0104 03F00203 		and	r3, r3, #2
 6488 0108 DBB2     		uxtb	r3, r3
 6489 010a 002B     		cmp	r3, #0
 6490 010c 59D1     		bne	.L323
1750:..\..\..\lvgl\version_6.1.2\lvgl\src\lv_objx/lv_ta.c ****        lv_label_get_align(ext->label) != LV_LABEL_ALIGN_RIGHT) {
 6491              		.loc 7 1750 0 is_stmt 1 discriminator 2
 6492 010e D7F88030 		ldr	r3, [r7, #128]
 6493 0112 1B6B     		ldr	r3, [r3, #48]
 6494 0114 1846     		mov	r0, r3
 6495 0116 FFF7FEFF 		bl	lv_label_get_align
 6496 011a 0346     		mov	r3, r0
1749:..\..\..\lvgl\version_6.1.2\lvgl\src\lv_objx/lv_ta.c ****        lv_label_get_align(ext->label) != LV_LABEL_ALIGN_RIGHT) {
 6497              		.loc 7 1749 0 discriminator 2
 6498 011c 022B     		cmp	r3, #2
 6499 011e 50D0     		beq	.L323
1751:..\..\..\lvgl\version_6.1.2\lvgl\src\lv_objx/lv_ta.c ****         letter_pos.x = 0;
 6500              		.loc 7 1751 0
 6501 0120 0023     		movs	r3, #0
 6502 0122 BB83     		strh	r3, [r7, #28]	@ movhi
1752:..\..\..\lvgl\version_6.1.2\lvgl\src\lv_objx/lv_ta.c ****         letter_pos.y += letter_h + label_style->text.line_space;
 6503              		.loc 7 1752 0
 6504 0124 B7F91E30 		ldrsh	r3, [r7, #30]
 6505 0128 9AB2     		uxth	r2, r3
 6506 012a FB6F     		ldr	r3, [r7, #124]
 6507 012c B3F93A30 		ldrsh	r3, [r3, #58]
 6508 0130 99B2     		uxth	r1, r3
 6509 0132 B7F87230 		ldrh	r3, [r7, #114]
 6510 0136 0B44     		add	r3, r3, r1
 6511 0138 9BB2     		uxth	r3, r3
 6512 013a 1344     		add	r3, r3, r2
 6513 013c 9BB2     		uxth	r3, r3
 6514 013e 1BB2     		sxth	r3, r3
 6515 0140 FB83     		strh	r3, [r7, #30]	@ movhi
1753:..\..\..\lvgl\version_6.1.2\lvgl\src\lv_objx/lv_ta.c **** 
1754:..\..\..\lvgl\version_6.1.2\lvgl\src\lv_objx/lv_ta.c ****         if(letter != '\0') {
 6516              		.loc 7 1754 0
 6517 0142 D7F88830 		ldr	r3, [r7, #136]
 6518 0146 002B     		cmp	r3, #0
 6519 0148 19D0     		beq	.L324
1755:..\..\..\lvgl\version_6.1.2\lvgl\src\lv_objx/lv_ta.c ****             byte_pos += lv_txt_encoded_size(&txt[byte_pos]);
 6520              		.loc 7 1755 0
 6521 014a 664B     		ldr	r3, .L331+8
 6522 014c 1B68     		ldr	r3, [r3]
 6523 014e 796F     		ldr	r1, [r7, #116]
 6524 0150 D7F88C20 		ldr	r2, [r7, #140]
 6525 0154 0A44     		add	r2, r2, r1
 6526 0156 1046     		mov	r0, r2
 6527 0158 9847     		blx	r3
ARM GAS  C:\Users\tmj32\AppData\Local\Temp\ccI3WYuM.s 			page 169


 6528 015a 0346     		mov	r3, r0
 6529 015c 1A46     		mov	r2, r3
 6530 015e D7F88C30 		ldr	r3, [r7, #140]
 6531 0162 1344     		add	r3, r3, r2
 6532 0164 C7F88C30 		str	r3, [r7, #140]
1756:..\..\..\lvgl\version_6.1.2\lvgl\src\lv_objx/lv_ta.c ****             letter = lv_txt_encoded_next(&txt[byte_pos], NULL);
 6533              		.loc 7 1756 0
 6534 0168 5D4B     		ldr	r3, .L331+4
 6535 016a 1B68     		ldr	r3, [r3]
 6536 016c 796F     		ldr	r1, [r7, #116]
 6537 016e D7F88C20 		ldr	r2, [r7, #140]
 6538 0172 0A44     		add	r2, r2, r1
 6539 0174 0021     		movs	r1, #0
 6540 0176 1046     		mov	r0, r2
 6541 0178 9847     		blx	r3
 6542 017a C7F88800 		str	r0, [r7, #136]
 6543              	.L324:
1757:..\..\..\lvgl\version_6.1.2\lvgl\src\lv_objx/lv_ta.c ****         }
1758:..\..\..\lvgl\version_6.1.2\lvgl\src\lv_objx/lv_ta.c **** 
1759:..\..\..\lvgl\version_6.1.2\lvgl\src\lv_objx/lv_ta.c ****         if(letter == '\0' || letter == '\n' || letter == '\r') {
 6544              		.loc 7 1759 0
 6545 017e D7F88830 		ldr	r3, [r7, #136]
 6546 0182 002B     		cmp	r3, #0
 6547 0184 07D0     		beq	.L325
 6548              		.loc 7 1759 0 is_stmt 0 discriminator 1
 6549 0186 D7F88830 		ldr	r3, [r7, #136]
 6550 018a 0A2B     		cmp	r3, #10
 6551 018c 03D0     		beq	.L325
 6552              		.loc 7 1759 0 discriminator 2
 6553 018e D7F88830 		ldr	r3, [r7, #136]
 6554 0192 0D2B     		cmp	r3, #13
 6555 0194 0AD1     		bne	.L326
 6556              	.L325:
1760:..\..\..\lvgl\version_6.1.2\lvgl\src\lv_objx/lv_ta.c ****             letter_w = lv_font_get_glyph_width(label_style->text.font, ' ', '\0');
 6557              		.loc 7 1760 0 is_stmt 1
 6558 0196 FB6F     		ldr	r3, [r7, #124]
 6559 0198 5B6B     		ldr	r3, [r3, #52]
 6560 019a 0022     		movs	r2, #0
 6561 019c 2021     		movs	r1, #32
 6562 019e 1846     		mov	r0, r3
 6563 01a0 FFF7FEFF 		bl	lv_font_get_glyph_width
 6564 01a4 0346     		mov	r3, r0
 6565 01a6 A7F88630 		strh	r3, [r7, #134]	@ movhi
 6566 01aa 0AE0     		b	.L323
 6567              	.L326:
1761:..\..\..\lvgl\version_6.1.2\lvgl\src\lv_objx/lv_ta.c ****         } else {
1762:..\..\..\lvgl\version_6.1.2\lvgl\src\lv_objx/lv_ta.c ****             letter_w = lv_font_get_glyph_width(label_style->text.font, letter, '\0');
 6568              		.loc 7 1762 0
 6569 01ac FB6F     		ldr	r3, [r7, #124]
 6570 01ae 5B6B     		ldr	r3, [r3, #52]
 6571 01b0 0022     		movs	r2, #0
 6572 01b2 D7F88810 		ldr	r1, [r7, #136]
 6573 01b6 1846     		mov	r0, r3
 6574 01b8 FFF7FEFF 		bl	lv_font_get_glyph_width
 6575 01bc 0346     		mov	r3, r0
 6576 01be A7F88630 		strh	r3, [r7, #134]	@ movhi
 6577              	.L323:
ARM GAS  C:\Users\tmj32\AppData\Local\Temp\ccI3WYuM.s 			page 170


1763:..\..\..\lvgl\version_6.1.2\lvgl\src\lv_objx/lv_ta.c ****         }
1764:..\..\..\lvgl\version_6.1.2\lvgl\src\lv_objx/lv_ta.c ****     }
1765:..\..\..\lvgl\version_6.1.2\lvgl\src\lv_objx/lv_ta.c **** 
1766:..\..\..\lvgl\version_6.1.2\lvgl\src\lv_objx/lv_ta.c ****     /*Save the byte position. It is required to draw `LV_CURSOR_BLOCK`*/
1767:..\..\..\lvgl\version_6.1.2\lvgl\src\lv_objx/lv_ta.c ****     ext->cursor.txt_byte_pos = byte_pos;
 6578              		.loc 7 1767 0
 6579 01c2 D7F88C30 		ldr	r3, [r7, #140]
 6580 01c6 9AB2     		uxth	r2, r3
 6581 01c8 D7F88030 		ldr	r3, [r7, #128]
 6582 01cc A3F85620 		strh	r2, [r3, #86]	@ movhi
1768:..\..\..\lvgl\version_6.1.2\lvgl\src\lv_objx/lv_ta.c **** 
1769:..\..\..\lvgl\version_6.1.2\lvgl\src\lv_objx/lv_ta.c ****     /*Draw he cursor according to the type*/
1770:..\..\..\lvgl\version_6.1.2\lvgl\src\lv_objx/lv_ta.c ****     lv_area_t cur_area;
1771:..\..\..\lvgl\version_6.1.2\lvgl\src\lv_objx/lv_ta.c **** 
1772:..\..\..\lvgl\version_6.1.2\lvgl\src\lv_objx/lv_ta.c ****     if(ext->cursor.type == LV_CURSOR_LINE) {
 6583              		.loc 7 1772 0
 6584 01d0 D7F88030 		ldr	r3, [r7, #128]
 6585 01d4 93F85830 		ldrb	r3, [r3, #88]	@ zero_extendqisi2
 6586 01d8 03F00F03 		and	r3, r3, #15
 6587 01dc DBB2     		uxtb	r3, r3
 6588 01de 012B     		cmp	r3, #1
 6589 01e0 42D1     		bne	.L327
1773:..\..\..\lvgl\version_6.1.2\lvgl\src\lv_objx/lv_ta.c ****         cur_area.x1 =
1774:..\..\..\lvgl\version_6.1.2\lvgl\src\lv_objx/lv_ta.c ****             letter_pos.x + cur_style.body.padding.left - (cur_style.line.width >> 1) - (cur_style.l
 6590              		.loc 7 1774 0
 6591 01e2 B7F91C30 		ldrsh	r3, [r7, #28]
1773:..\..\..\lvgl\version_6.1.2\lvgl\src\lv_objx/lv_ta.c ****         cur_area.x1 =
 6592              		.loc 7 1773 0
 6593 01e6 9AB2     		uxth	r2, r3
 6594              		.loc 7 1774 0
 6595 01e8 B7F94430 		ldrsh	r3, [r7, #68]
1773:..\..\..\lvgl\version_6.1.2\lvgl\src\lv_objx/lv_ta.c ****         cur_area.x1 =
 6596              		.loc 7 1773 0
 6597 01ec 9BB2     		uxth	r3, r3
 6598 01ee 1344     		add	r3, r3, r2
 6599 01f0 9AB2     		uxth	r2, r3
 6600              		.loc 7 1774 0
 6601 01f2 B7F96C30 		ldrsh	r3, [r7, #108]
1773:..\..\..\lvgl\version_6.1.2\lvgl\src\lv_objx/lv_ta.c ****         cur_area.x1 =
 6602              		.loc 7 1773 0
 6603 01f6 5B10     		asrs	r3, r3, #1
 6604 01f8 1BB2     		sxth	r3, r3
 6605 01fa 9BB2     		uxth	r3, r3
 6606 01fc D31A     		subs	r3, r2, r3
 6607 01fe 9AB2     		uxth	r2, r3
 6608              		.loc 7 1774 0
 6609 0200 B7F96C30 		ldrsh	r3, [r7, #108]
1773:..\..\..\lvgl\version_6.1.2\lvgl\src\lv_objx/lv_ta.c ****         cur_area.x1 =
 6610              		.loc 7 1773 0
 6611 0204 9BB2     		uxth	r3, r3
 6612 0206 03F00103 		and	r3, r3, #1
 6613 020a 9BB2     		uxth	r3, r3
 6614 020c D31A     		subs	r3, r2, r3
 6615 020e 9BB2     		uxth	r3, r3
 6616 0210 1BB2     		sxth	r3, r3
 6617 0212 BB82     		strh	r3, [r7, #20]	@ movhi
1775:..\..\..\lvgl\version_6.1.2\lvgl\src\lv_objx/lv_ta.c ****         cur_area.y1 = letter_pos.y + cur_style.body.padding.top;
ARM GAS  C:\Users\tmj32\AppData\Local\Temp\ccI3WYuM.s 			page 171


 6618              		.loc 7 1775 0
 6619 0214 B7F91E30 		ldrsh	r3, [r7, #30]
 6620 0218 9AB2     		uxth	r2, r3
 6621 021a B7F94030 		ldrsh	r3, [r7, #64]
 6622 021e 9BB2     		uxth	r3, r3
 6623 0220 1344     		add	r3, r3, r2
 6624 0222 9BB2     		uxth	r3, r3
 6625 0224 1BB2     		sxth	r3, r3
 6626 0226 FB82     		strh	r3, [r7, #22]	@ movhi
1776:..\..\..\lvgl\version_6.1.2\lvgl\src\lv_objx/lv_ta.c ****         cur_area.x2 = letter_pos.x + cur_style.body.padding.right + (cur_style.line.width >> 1);
 6627              		.loc 7 1776 0
 6628 0228 B7F91C30 		ldrsh	r3, [r7, #28]
 6629 022c 9AB2     		uxth	r2, r3
 6630 022e B7F94630 		ldrsh	r3, [r7, #70]
 6631 0232 9BB2     		uxth	r3, r3
 6632 0234 1344     		add	r3, r3, r2
 6633 0236 9AB2     		uxth	r2, r3
 6634 0238 B7F96C30 		ldrsh	r3, [r7, #108]
 6635 023c 5B10     		asrs	r3, r3, #1
 6636 023e 1BB2     		sxth	r3, r3
 6637 0240 9BB2     		uxth	r3, r3
 6638 0242 1344     		add	r3, r3, r2
 6639 0244 9BB2     		uxth	r3, r3
 6640 0246 1BB2     		sxth	r3, r3
 6641 0248 3B83     		strh	r3, [r7, #24]	@ movhi
1777:..\..\..\lvgl\version_6.1.2\lvgl\src\lv_objx/lv_ta.c ****         cur_area.y2 = letter_pos.y + cur_style.body.padding.bottom + letter_h;
 6642              		.loc 7 1777 0
 6643 024a B7F91E30 		ldrsh	r3, [r7, #30]
 6644 024e 9AB2     		uxth	r2, r3
 6645 0250 B7F94230 		ldrsh	r3, [r7, #66]
 6646 0254 9BB2     		uxth	r3, r3
 6647 0256 1344     		add	r3, r3, r2
 6648 0258 9AB2     		uxth	r2, r3
 6649 025a B7F87230 		ldrh	r3, [r7, #114]
 6650 025e 1344     		add	r3, r3, r2
 6651 0260 9BB2     		uxth	r3, r3
 6652 0262 1BB2     		sxth	r3, r3
 6653 0264 7B83     		strh	r3, [r7, #26]	@ movhi
 6654 0266 CCE0     		b	.L328
 6655              	.L327:
1778:..\..\..\lvgl\version_6.1.2\lvgl\src\lv_objx/lv_ta.c ****     } else if(ext->cursor.type == LV_CURSOR_BLOCK) {
 6656              		.loc 7 1778 0
 6657 0268 D7F88030 		ldr	r3, [r7, #128]
 6658 026c 93F85830 		ldrb	r3, [r3, #88]	@ zero_extendqisi2
 6659 0270 03F00F03 		and	r3, r3, #15
 6660 0274 DBB2     		uxtb	r3, r3
 6661 0276 022B     		cmp	r3, #2
 6662 0278 36D1     		bne	.L329
1779:..\..\..\lvgl\version_6.1.2\lvgl\src\lv_objx/lv_ta.c ****         cur_area.x1 = letter_pos.x - cur_style.body.padding.left;
 6663              		.loc 7 1779 0
 6664 027a B7F91C30 		ldrsh	r3, [r7, #28]
 6665 027e 9AB2     		uxth	r2, r3
 6666 0280 B7F94430 		ldrsh	r3, [r7, #68]
 6667 0284 9BB2     		uxth	r3, r3
 6668 0286 D31A     		subs	r3, r2, r3
 6669 0288 9BB2     		uxth	r3, r3
 6670 028a 1BB2     		sxth	r3, r3
ARM GAS  C:\Users\tmj32\AppData\Local\Temp\ccI3WYuM.s 			page 172


 6671 028c BB82     		strh	r3, [r7, #20]	@ movhi
1780:..\..\..\lvgl\version_6.1.2\lvgl\src\lv_objx/lv_ta.c ****         cur_area.y1 = letter_pos.y - cur_style.body.padding.top;
 6672              		.loc 7 1780 0
 6673 028e B7F91E30 		ldrsh	r3, [r7, #30]
 6674 0292 9AB2     		uxth	r2, r3
 6675 0294 B7F94030 		ldrsh	r3, [r7, #64]
 6676 0298 9BB2     		uxth	r3, r3
 6677 029a D31A     		subs	r3, r2, r3
 6678 029c 9BB2     		uxth	r3, r3
 6679 029e 1BB2     		sxth	r3, r3
 6680 02a0 FB82     		strh	r3, [r7, #22]	@ movhi
1781:..\..\..\lvgl\version_6.1.2\lvgl\src\lv_objx/lv_ta.c ****         cur_area.x2 = letter_pos.x + cur_style.body.padding.right + letter_w;
 6681              		.loc 7 1781 0
 6682 02a2 B7F91C30 		ldrsh	r3, [r7, #28]
 6683 02a6 9AB2     		uxth	r2, r3
 6684 02a8 B7F94630 		ldrsh	r3, [r7, #70]
 6685 02ac 9BB2     		uxth	r3, r3
 6686 02ae 1344     		add	r3, r3, r2
 6687 02b0 9AB2     		uxth	r2, r3
 6688 02b2 B7F88630 		ldrh	r3, [r7, #134]
 6689 02b6 1344     		add	r3, r3, r2
 6690 02b8 9BB2     		uxth	r3, r3
 6691 02ba 1BB2     		sxth	r3, r3
 6692 02bc 3B83     		strh	r3, [r7, #24]	@ movhi
1782:..\..\..\lvgl\version_6.1.2\lvgl\src\lv_objx/lv_ta.c ****         cur_area.y2 = letter_pos.y + cur_style.body.padding.bottom + letter_h;
 6693              		.loc 7 1782 0
 6694 02be B7F91E30 		ldrsh	r3, [r7, #30]
 6695 02c2 9AB2     		uxth	r2, r3
 6696 02c4 B7F94230 		ldrsh	r3, [r7, #66]
 6697 02c8 9BB2     		uxth	r3, r3
 6698 02ca 1344     		add	r3, r3, r2
 6699 02cc 9AB2     		uxth	r2, r3
 6700 02ce B7F87230 		ldrh	r3, [r7, #114]
 6701 02d2 1344     		add	r3, r3, r2
 6702 02d4 9BB2     		uxth	r3, r3
 6703 02d6 1BB2     		sxth	r3, r3
 6704 02d8 7B83     		strh	r3, [r7, #26]	@ movhi
 6705 02da 92E0     		b	.L328
 6706              	.L332:
 6707              		.align	2
 6708              	.L331:
 6709 02dc 00000000 		.word	lv_txt_encoded_get_byte_id
 6710 02e0 00000000 		.word	lv_txt_encoded_next
 6711 02e4 00000000 		.word	lv_txt_encoded_size
 6712              	.L329:
1783:..\..\..\lvgl\version_6.1.2\lvgl\src\lv_objx/lv_ta.c **** 
1784:..\..\..\lvgl\version_6.1.2\lvgl\src\lv_objx/lv_ta.c ****     } else if(ext->cursor.type == LV_CURSOR_OUTLINE) {
 6713              		.loc 7 1784 0
 6714 02e8 D7F88030 		ldr	r3, [r7, #128]
 6715 02ec 93F85830 		ldrb	r3, [r3, #88]	@ zero_extendqisi2
 6716 02f0 03F00F03 		and	r3, r3, #15
 6717 02f4 DBB2     		uxtb	r3, r3
 6718 02f6 032B     		cmp	r3, #3
 6719 02f8 30D1     		bne	.L330
1785:..\..\..\lvgl\version_6.1.2\lvgl\src\lv_objx/lv_ta.c ****         cur_area.x1 = letter_pos.x - cur_style.body.padding.left;
 6720              		.loc 7 1785 0
 6721 02fa B7F91C30 		ldrsh	r3, [r7, #28]
ARM GAS  C:\Users\tmj32\AppData\Local\Temp\ccI3WYuM.s 			page 173


 6722 02fe 9AB2     		uxth	r2, r3
 6723 0300 B7F94430 		ldrsh	r3, [r7, #68]
 6724 0304 9BB2     		uxth	r3, r3
 6725 0306 D31A     		subs	r3, r2, r3
 6726 0308 9BB2     		uxth	r3, r3
 6727 030a 1BB2     		sxth	r3, r3
 6728 030c BB82     		strh	r3, [r7, #20]	@ movhi
1786:..\..\..\lvgl\version_6.1.2\lvgl\src\lv_objx/lv_ta.c ****         cur_area.y1 = letter_pos.y - cur_style.body.padding.top;
 6729              		.loc 7 1786 0
 6730 030e B7F91E30 		ldrsh	r3, [r7, #30]
 6731 0312 9AB2     		uxth	r2, r3
 6732 0314 B7F94030 		ldrsh	r3, [r7, #64]
 6733 0318 9BB2     		uxth	r3, r3
 6734 031a D31A     		subs	r3, r2, r3
 6735 031c 9BB2     		uxth	r3, r3
 6736 031e 1BB2     		sxth	r3, r3
 6737 0320 FB82     		strh	r3, [r7, #22]	@ movhi
1787:..\..\..\lvgl\version_6.1.2\lvgl\src\lv_objx/lv_ta.c ****         cur_area.x2 = letter_pos.x + cur_style.body.padding.right + letter_w;
 6738              		.loc 7 1787 0
 6739 0322 B7F91C30 		ldrsh	r3, [r7, #28]
 6740 0326 9AB2     		uxth	r2, r3
 6741 0328 B7F94630 		ldrsh	r3, [r7, #70]
 6742 032c 9BB2     		uxth	r3, r3
 6743 032e 1344     		add	r3, r3, r2
 6744 0330 9AB2     		uxth	r2, r3
 6745 0332 B7F88630 		ldrh	r3, [r7, #134]
 6746 0336 1344     		add	r3, r3, r2
 6747 0338 9BB2     		uxth	r3, r3
 6748 033a 1BB2     		sxth	r3, r3
 6749 033c 3B83     		strh	r3, [r7, #24]	@ movhi
1788:..\..\..\lvgl\version_6.1.2\lvgl\src\lv_objx/lv_ta.c ****         cur_area.y2 = letter_pos.y + cur_style.body.padding.bottom + letter_h;
 6750              		.loc 7 1788 0
 6751 033e B7F91E30 		ldrsh	r3, [r7, #30]
 6752 0342 9AB2     		uxth	r2, r3
 6753 0344 B7F94230 		ldrsh	r3, [r7, #66]
 6754 0348 9BB2     		uxth	r3, r3
 6755 034a 1344     		add	r3, r3, r2
 6756 034c 9AB2     		uxth	r2, r3
 6757 034e B7F87230 		ldrh	r3, [r7, #114]
 6758 0352 1344     		add	r3, r3, r2
 6759 0354 9BB2     		uxth	r3, r3
 6760 0356 1BB2     		sxth	r3, r3
 6761 0358 7B83     		strh	r3, [r7, #26]	@ movhi
 6762 035a 52E0     		b	.L328
 6763              	.L330:
1789:..\..\..\lvgl\version_6.1.2\lvgl\src\lv_objx/lv_ta.c ****     } else if(ext->cursor.type == LV_CURSOR_UNDERLINE) {
 6764              		.loc 7 1789 0
 6765 035c D7F88030 		ldr	r3, [r7, #128]
 6766 0360 93F85830 		ldrb	r3, [r3, #88]	@ zero_extendqisi2
 6767 0364 03F00F03 		and	r3, r3, #15
 6768 0368 DBB2     		uxtb	r3, r3
 6769 036a 042B     		cmp	r3, #4
 6770 036c 49D1     		bne	.L328
1790:..\..\..\lvgl\version_6.1.2\lvgl\src\lv_objx/lv_ta.c ****         cur_area.x1 = letter_pos.x + cur_style.body.padding.left;
 6771              		.loc 7 1790 0
 6772 036e B7F91C30 		ldrsh	r3, [r7, #28]
 6773 0372 9AB2     		uxth	r2, r3
ARM GAS  C:\Users\tmj32\AppData\Local\Temp\ccI3WYuM.s 			page 174


 6774 0374 B7F94430 		ldrsh	r3, [r7, #68]
 6775 0378 9BB2     		uxth	r3, r3
 6776 037a 1344     		add	r3, r3, r2
 6777 037c 9BB2     		uxth	r3, r3
 6778 037e 1BB2     		sxth	r3, r3
 6779 0380 BB82     		strh	r3, [r7, #20]	@ movhi
1791:..\..\..\lvgl\version_6.1.2\lvgl\src\lv_objx/lv_ta.c ****         cur_area.y1 = letter_pos.y + cur_style.body.padding.top + letter_h - (cur_style.line.width 
 6780              		.loc 7 1791 0
 6781 0382 B7F91E30 		ldrsh	r3, [r7, #30]
 6782 0386 9AB2     		uxth	r2, r3
 6783 0388 B7F94030 		ldrsh	r3, [r7, #64]
 6784 038c 9BB2     		uxth	r3, r3
 6785 038e 1344     		add	r3, r3, r2
 6786 0390 9AB2     		uxth	r2, r3
 6787 0392 B7F87230 		ldrh	r3, [r7, #114]
 6788 0396 1344     		add	r3, r3, r2
 6789 0398 9AB2     		uxth	r2, r3
 6790 039a B7F96C30 		ldrsh	r3, [r7, #108]
 6791 039e 5B10     		asrs	r3, r3, #1
 6792 03a0 1BB2     		sxth	r3, r3
 6793 03a2 9BB2     		uxth	r3, r3
 6794 03a4 D31A     		subs	r3, r2, r3
 6795 03a6 9BB2     		uxth	r3, r3
 6796 03a8 1BB2     		sxth	r3, r3
 6797 03aa FB82     		strh	r3, [r7, #22]	@ movhi
1792:..\..\..\lvgl\version_6.1.2\lvgl\src\lv_objx/lv_ta.c ****         cur_area.x2 = letter_pos.x + cur_style.body.padding.right + letter_w;
 6798              		.loc 7 1792 0
 6799 03ac B7F91C30 		ldrsh	r3, [r7, #28]
 6800 03b0 9AB2     		uxth	r2, r3
 6801 03b2 B7F94630 		ldrsh	r3, [r7, #70]
 6802 03b6 9BB2     		uxth	r3, r3
 6803 03b8 1344     		add	r3, r3, r2
 6804 03ba 9AB2     		uxth	r2, r3
 6805 03bc B7F88630 		ldrh	r3, [r7, #134]
 6806 03c0 1344     		add	r3, r3, r2
 6807 03c2 9BB2     		uxth	r3, r3
 6808 03c4 1BB2     		sxth	r3, r3
 6809 03c6 3B83     		strh	r3, [r7, #24]	@ movhi
1793:..\..\..\lvgl\version_6.1.2\lvgl\src\lv_objx/lv_ta.c ****         cur_area.y2 = letter_pos.y + cur_style.body.padding.bottom + letter_h + (cur_style.line.wid
 6810              		.loc 7 1793 0
 6811 03c8 B7F91E30 		ldrsh	r3, [r7, #30]
 6812 03cc 9AB2     		uxth	r2, r3
 6813 03ce B7F94230 		ldrsh	r3, [r7, #66]
 6814 03d2 9BB2     		uxth	r3, r3
 6815 03d4 1344     		add	r3, r3, r2
 6816 03d6 9AB2     		uxth	r2, r3
 6817 03d8 B7F87230 		ldrh	r3, [r7, #114]
 6818 03dc 1344     		add	r3, r3, r2
 6819 03de 9AB2     		uxth	r2, r3
 6820 03e0 B7F96C30 		ldrsh	r3, [r7, #108]
 6821 03e4 5B10     		asrs	r3, r3, #1
 6822 03e6 1BB2     		sxth	r3, r3
 6823 03e8 9BB2     		uxth	r3, r3
 6824 03ea 1344     		add	r3, r3, r2
 6825 03ec 9AB2     		uxth	r2, r3
1794:..\..\..\lvgl\version_6.1.2\lvgl\src\lv_objx/lv_ta.c ****                       (cur_style.line.width & 0x1);
 6826              		.loc 7 1794 0
ARM GAS  C:\Users\tmj32\AppData\Local\Temp\ccI3WYuM.s 			page 175


 6827 03ee B7F96C30 		ldrsh	r3, [r7, #108]
1793:..\..\..\lvgl\version_6.1.2\lvgl\src\lv_objx/lv_ta.c ****         cur_area.y2 = letter_pos.y + cur_style.body.padding.bottom + letter_h + (cur_style.line.wid
 6828              		.loc 7 1793 0
 6829 03f2 9BB2     		uxth	r3, r3
 6830 03f4 03F00103 		and	r3, r3, #1
 6831 03f8 9BB2     		uxth	r3, r3
 6832 03fa 1344     		add	r3, r3, r2
 6833 03fc 9BB2     		uxth	r3, r3
 6834 03fe 1BB2     		sxth	r3, r3
 6835 0400 7B83     		strh	r3, [r7, #26]	@ movhi
 6836              	.L328:
1795:..\..\..\lvgl\version_6.1.2\lvgl\src\lv_objx/lv_ta.c ****     }
1796:..\..\..\lvgl\version_6.1.2\lvgl\src\lv_objx/lv_ta.c **** 
1797:..\..\..\lvgl\version_6.1.2\lvgl\src\lv_objx/lv_ta.c ****     /*Save the new area*/
1798:..\..\..\lvgl\version_6.1.2\lvgl\src\lv_objx/lv_ta.c ****     lv_area_t area_tmp;
1799:..\..\..\lvgl\version_6.1.2\lvgl\src\lv_objx/lv_ta.c ****     lv_area_copy(&area_tmp, &ext->cursor.area);
 6837              		.loc 7 1799 0
 6838 0402 D7F88030 		ldr	r3, [r7, #128]
 6839 0406 03F14E02 		add	r2, r3, #78
 6840 040a 07F10C03 		add	r3, r7, #12
 6841 040e 1146     		mov	r1, r2
 6842 0410 1846     		mov	r0, r3
 6843 0412 FFF7FEFF 		bl	lv_area_copy
1800:..\..\..\lvgl\version_6.1.2\lvgl\src\lv_objx/lv_ta.c ****     area_tmp.x1 += ext->label->coords.x1;
 6844              		.loc 7 1800 0
 6845 0416 B7F90C30 		ldrsh	r3, [r7, #12]
 6846 041a 9AB2     		uxth	r2, r3
 6847 041c D7F88030 		ldr	r3, [r7, #128]
 6848 0420 1B6B     		ldr	r3, [r3, #48]
 6849 0422 B3F91030 		ldrsh	r3, [r3, #16]
 6850 0426 9BB2     		uxth	r3, r3
 6851 0428 1344     		add	r3, r3, r2
 6852 042a 9BB2     		uxth	r3, r3
 6853 042c 1BB2     		sxth	r3, r3
 6854 042e BB81     		strh	r3, [r7, #12]	@ movhi
1801:..\..\..\lvgl\version_6.1.2\lvgl\src\lv_objx/lv_ta.c ****     area_tmp.y1 += ext->label->coords.y1;
 6855              		.loc 7 1801 0
 6856 0430 B7F90E30 		ldrsh	r3, [r7, #14]
 6857 0434 9AB2     		uxth	r2, r3
 6858 0436 D7F88030 		ldr	r3, [r7, #128]
 6859 043a 1B6B     		ldr	r3, [r3, #48]
 6860 043c B3F91230 		ldrsh	r3, [r3, #18]
 6861 0440 9BB2     		uxth	r3, r3
 6862 0442 1344     		add	r3, r3, r2
 6863 0444 9BB2     		uxth	r3, r3
 6864 0446 1BB2     		sxth	r3, r3
 6865 0448 FB81     		strh	r3, [r7, #14]	@ movhi
1802:..\..\..\lvgl\version_6.1.2\lvgl\src\lv_objx/lv_ta.c ****     area_tmp.x2 += ext->label->coords.x1;
 6866              		.loc 7 1802 0
 6867 044a B7F91030 		ldrsh	r3, [r7, #16]
 6868 044e 9AB2     		uxth	r2, r3
 6869 0450 D7F88030 		ldr	r3, [r7, #128]
 6870 0454 1B6B     		ldr	r3, [r3, #48]
 6871 0456 B3F91030 		ldrsh	r3, [r3, #16]
 6872 045a 9BB2     		uxth	r3, r3
 6873 045c 1344     		add	r3, r3, r2
 6874 045e 9BB2     		uxth	r3, r3
ARM GAS  C:\Users\tmj32\AppData\Local\Temp\ccI3WYuM.s 			page 176


 6875 0460 1BB2     		sxth	r3, r3
 6876 0462 3B82     		strh	r3, [r7, #16]	@ movhi
1803:..\..\..\lvgl\version_6.1.2\lvgl\src\lv_objx/lv_ta.c ****     area_tmp.y2 += ext->label->coords.y1;
 6877              		.loc 7 1803 0
 6878 0464 B7F91230 		ldrsh	r3, [r7, #18]
 6879 0468 9AB2     		uxth	r2, r3
 6880 046a D7F88030 		ldr	r3, [r7, #128]
 6881 046e 1B6B     		ldr	r3, [r3, #48]
 6882 0470 B3F91230 		ldrsh	r3, [r3, #18]
 6883 0474 9BB2     		uxth	r3, r3
 6884 0476 1344     		add	r3, r3, r2
 6885 0478 9BB2     		uxth	r3, r3
 6886 047a 1BB2     		sxth	r3, r3
 6887 047c 7B82     		strh	r3, [r7, #18]	@ movhi
1804:..\..\..\lvgl\version_6.1.2\lvgl\src\lv_objx/lv_ta.c ****     lv_obj_invalidate_area(ta, &area_tmp);
 6888              		.loc 7 1804 0
 6889 047e 07F10C03 		add	r3, r7, #12
 6890 0482 1946     		mov	r1, r3
 6891 0484 7868     		ldr	r0, [r7, #4]
 6892 0486 FFF7FEFF 		bl	lv_obj_invalidate_area
1805:..\..\..\lvgl\version_6.1.2\lvgl\src\lv_objx/lv_ta.c **** 
1806:..\..\..\lvgl\version_6.1.2\lvgl\src\lv_objx/lv_ta.c ****     lv_area_copy(&ext->cursor.area, &cur_area);
 6893              		.loc 7 1806 0
 6894 048a D7F88030 		ldr	r3, [r7, #128]
 6895 048e 4E33     		adds	r3, r3, #78
 6896 0490 07F11402 		add	r2, r7, #20
 6897 0494 1146     		mov	r1, r2
 6898 0496 1846     		mov	r0, r3
 6899 0498 FFF7FEFF 		bl	lv_area_copy
1807:..\..\..\lvgl\version_6.1.2\lvgl\src\lv_objx/lv_ta.c **** 
1808:..\..\..\lvgl\version_6.1.2\lvgl\src\lv_objx/lv_ta.c ****     lv_area_copy(&area_tmp, &ext->cursor.area);
 6900              		.loc 7 1808 0
 6901 049c D7F88030 		ldr	r3, [r7, #128]
 6902 04a0 03F14E02 		add	r2, r3, #78
 6903 04a4 07F10C03 		add	r3, r7, #12
 6904 04a8 1146     		mov	r1, r2
 6905 04aa 1846     		mov	r0, r3
 6906 04ac FFF7FEFF 		bl	lv_area_copy
1809:..\..\..\lvgl\version_6.1.2\lvgl\src\lv_objx/lv_ta.c ****     area_tmp.x1 += ext->label->coords.x1;
 6907              		.loc 7 1809 0
 6908 04b0 B7F90C30 		ldrsh	r3, [r7, #12]
 6909 04b4 9AB2     		uxth	r2, r3
 6910 04b6 D7F88030 		ldr	r3, [r7, #128]
 6911 04ba 1B6B     		ldr	r3, [r3, #48]
 6912 04bc B3F91030 		ldrsh	r3, [r3, #16]
 6913 04c0 9BB2     		uxth	r3, r3
 6914 04c2 1344     		add	r3, r3, r2
 6915 04c4 9BB2     		uxth	r3, r3
 6916 04c6 1BB2     		sxth	r3, r3
 6917 04c8 BB81     		strh	r3, [r7, #12]	@ movhi
1810:..\..\..\lvgl\version_6.1.2\lvgl\src\lv_objx/lv_ta.c ****     area_tmp.y1 += ext->label->coords.y1;
 6918              		.loc 7 1810 0
 6919 04ca B7F90E30 		ldrsh	r3, [r7, #14]
 6920 04ce 9AB2     		uxth	r2, r3
 6921 04d0 D7F88030 		ldr	r3, [r7, #128]
 6922 04d4 1B6B     		ldr	r3, [r3, #48]
 6923 04d6 B3F91230 		ldrsh	r3, [r3, #18]
ARM GAS  C:\Users\tmj32\AppData\Local\Temp\ccI3WYuM.s 			page 177


 6924 04da 9BB2     		uxth	r3, r3
 6925 04dc 1344     		add	r3, r3, r2
 6926 04de 9BB2     		uxth	r3, r3
 6927 04e0 1BB2     		sxth	r3, r3
 6928 04e2 FB81     		strh	r3, [r7, #14]	@ movhi
1811:..\..\..\lvgl\version_6.1.2\lvgl\src\lv_objx/lv_ta.c ****     area_tmp.x2 += ext->label->coords.x1;
 6929              		.loc 7 1811 0
 6930 04e4 B7F91030 		ldrsh	r3, [r7, #16]
 6931 04e8 9AB2     		uxth	r2, r3
 6932 04ea D7F88030 		ldr	r3, [r7, #128]
 6933 04ee 1B6B     		ldr	r3, [r3, #48]
 6934 04f0 B3F91030 		ldrsh	r3, [r3, #16]
 6935 04f4 9BB2     		uxth	r3, r3
 6936 04f6 1344     		add	r3, r3, r2
 6937 04f8 9BB2     		uxth	r3, r3
 6938 04fa 1BB2     		sxth	r3, r3
 6939 04fc 3B82     		strh	r3, [r7, #16]	@ movhi
1812:..\..\..\lvgl\version_6.1.2\lvgl\src\lv_objx/lv_ta.c ****     area_tmp.y2 += ext->label->coords.y1;
 6940              		.loc 7 1812 0
 6941 04fe B7F91230 		ldrsh	r3, [r7, #18]
 6942 0502 9AB2     		uxth	r2, r3
 6943 0504 D7F88030 		ldr	r3, [r7, #128]
 6944 0508 1B6B     		ldr	r3, [r3, #48]
 6945 050a B3F91230 		ldrsh	r3, [r3, #18]
 6946 050e 9BB2     		uxth	r3, r3
 6947 0510 1344     		add	r3, r3, r2
 6948 0512 9BB2     		uxth	r3, r3
 6949 0514 1BB2     		sxth	r3, r3
 6950 0516 7B82     		strh	r3, [r7, #18]	@ movhi
1813:..\..\..\lvgl\version_6.1.2\lvgl\src\lv_objx/lv_ta.c ****     lv_obj_invalidate_area(ta, &area_tmp);
 6951              		.loc 7 1813 0
 6952 0518 07F10C03 		add	r3, r7, #12
 6953 051c 1946     		mov	r1, r3
 6954 051e 7868     		ldr	r0, [r7, #4]
 6955 0520 FFF7FEFF 		bl	lv_obj_invalidate_area
1814:..\..\..\lvgl\version_6.1.2\lvgl\src\lv_objx/lv_ta.c **** }
 6956              		.loc 7 1814 0
 6957 0524 00BF     		nop
 6958 0526 9037     		adds	r7, r7, #144
 6959              		.cfi_def_cfa_offset 8
 6960 0528 BD46     		mov	sp, r7
 6961              		.cfi_def_cfa_register 13
 6962              		@ sp needed
 6963 052a 80BD     		pop	{r7, pc}
 6964              		.cfi_endproc
 6965              	.LFE106:
 6966              		.size	refr_cursor_area, .-refr_cursor_area
 6967              		.section	.text.placeholder_update,"ax",%progbits
 6968              		.align	2
 6969              		.thumb
 6970              		.thumb_func
 6971              		.type	placeholder_update, %function
 6972              	placeholder_update:
 6973              	.LFB107:
1815:..\..\..\lvgl\version_6.1.2\lvgl\src\lv_objx/lv_ta.c **** 
1816:..\..\..\lvgl\version_6.1.2\lvgl\src\lv_objx/lv_ta.c **** static void placeholder_update(lv_obj_t * ta)
1817:..\..\..\lvgl\version_6.1.2\lvgl\src\lv_objx/lv_ta.c **** {
ARM GAS  C:\Users\tmj32\AppData\Local\Temp\ccI3WYuM.s 			page 178


 6974              		.loc 7 1817 0
 6975              		.cfi_startproc
 6976              		@ args = 0, pretend = 0, frame = 24
 6977              		@ frame_needed = 1, uses_anonymous_args = 0
 6978 0000 90B5     		push	{r4, r7, lr}
 6979              		.cfi_def_cfa_offset 12
 6980              		.cfi_offset 4, -12
 6981              		.cfi_offset 7, -8
 6982              		.cfi_offset 14, -4
 6983 0002 87B0     		sub	sp, sp, #28
 6984              		.cfi_def_cfa_offset 40
 6985 0004 00AF     		add	r7, sp, #0
 6986              		.cfi_def_cfa_register 7
 6987 0006 7860     		str	r0, [r7, #4]
1818:..\..\..\lvgl\version_6.1.2\lvgl\src\lv_objx/lv_ta.c ****     lv_ta_ext_t * ext = lv_obj_get_ext_attr(ta);
 6988              		.loc 7 1818 0
 6989 0008 7868     		ldr	r0, [r7, #4]
 6990 000a FFF7FEFF 		bl	lv_obj_get_ext_attr
 6991 000e 7861     		str	r0, [r7, #20]
1819:..\..\..\lvgl\version_6.1.2\lvgl\src\lv_objx/lv_ta.c ****     const char * ta_text;
1820:..\..\..\lvgl\version_6.1.2\lvgl\src\lv_objx/lv_ta.c **** 
1821:..\..\..\lvgl\version_6.1.2\lvgl\src\lv_objx/lv_ta.c ****     if(ext->placeholder == NULL) return;
 6992              		.loc 7 1821 0
 6993 0010 7B69     		ldr	r3, [r7, #20]
 6994 0012 5B6B     		ldr	r3, [r3, #52]
 6995 0014 002B     		cmp	r3, #0
 6996 0016 3DD0     		beq	.L337
1822:..\..\..\lvgl\version_6.1.2\lvgl\src\lv_objx/lv_ta.c **** 
1823:..\..\..\lvgl\version_6.1.2\lvgl\src\lv_objx/lv_ta.c ****     ta_text = lv_ta_get_text(ta);
 6997              		.loc 7 1823 0
 6998 0018 7868     		ldr	r0, [r7, #4]
 6999 001a FFF7FEFF 		bl	lv_ta_get_text
 7000 001e 3861     		str	r0, [r7, #16]
1824:..\..\..\lvgl\version_6.1.2\lvgl\src\lv_objx/lv_ta.c **** 
1825:..\..\..\lvgl\version_6.1.2\lvgl\src\lv_objx/lv_ta.c ****     if(ta_text[0] == '\0') {
 7001              		.loc 7 1825 0
 7002 0020 3B69     		ldr	r3, [r7, #16]
 7003 0022 1B78     		ldrb	r3, [r3]	@ zero_extendqisi2
 7004 0024 002B     		cmp	r3, #0
 7005 0026 2ED1     		bne	.L336
 7006              	.LBB42:
1826:..\..\..\lvgl\version_6.1.2\lvgl\src\lv_objx/lv_ta.c ****         /*Be sure the main label and the placeholder has the same coordinates*/
1827:..\..\..\lvgl\version_6.1.2\lvgl\src\lv_objx/lv_ta.c ****         lv_obj_t * scrl               = lv_page_get_scrl(ta);
 7007              		.loc 7 1827 0
 7008 0028 7868     		ldr	r0, [r7, #4]
 7009 002a FFF7FEFF 		bl	lv_page_get_scrl
 7010 002e F860     		str	r0, [r7, #12]
1828:..\..\..\lvgl\version_6.1.2\lvgl\src\lv_objx/lv_ta.c ****         const lv_style_t * style_scrl = lv_obj_get_style(scrl);
 7011              		.loc 7 1828 0
 7012 0030 F868     		ldr	r0, [r7, #12]
 7013 0032 FFF7FEFF 		bl	lv_obj_get_style
 7014 0036 B860     		str	r0, [r7, #8]
1829:..\..\..\lvgl\version_6.1.2\lvgl\src\lv_objx/lv_ta.c ****         lv_obj_set_pos(ext->placeholder, style_scrl->body.padding.left, style_scrl->body.padding.to
 7015              		.loc 7 1829 0
 7016 0038 7B69     		ldr	r3, [r7, #20]
 7017 003a 586B     		ldr	r0, [r3, #52]
 7018 003c BB68     		ldr	r3, [r7, #8]
ARM GAS  C:\Users\tmj32\AppData\Local\Temp\ccI3WYuM.s 			page 179


 7019 003e B3F92410 		ldrsh	r1, [r3, #36]
 7020 0042 BB68     		ldr	r3, [r7, #8]
 7021 0044 B3F92030 		ldrsh	r3, [r3, #32]
 7022 0048 1A46     		mov	r2, r3
 7023 004a FFF7FEFF 		bl	lv_obj_set_pos
1830:..\..\..\lvgl\version_6.1.2\lvgl\src\lv_objx/lv_ta.c ****         lv_obj_set_pos(ext->label, style_scrl->body.padding.left, style_scrl->body.padding.top);
 7024              		.loc 7 1830 0
 7025 004e 7B69     		ldr	r3, [r7, #20]
 7026 0050 186B     		ldr	r0, [r3, #48]
 7027 0052 BB68     		ldr	r3, [r7, #8]
 7028 0054 B3F92410 		ldrsh	r1, [r3, #36]
 7029 0058 BB68     		ldr	r3, [r7, #8]
 7030 005a B3F92030 		ldrsh	r3, [r3, #32]
 7031 005e 1A46     		mov	r2, r3
 7032 0060 FFF7FEFF 		bl	lv_obj_set_pos
1831:..\..\..\lvgl\version_6.1.2\lvgl\src\lv_objx/lv_ta.c **** 
1832:..\..\..\lvgl\version_6.1.2\lvgl\src\lv_objx/lv_ta.c ****         lv_obj_set_width(ext->placeholder, lv_page_get_fit_width(ta));
 7033              		.loc 7 1832 0
 7034 0064 7B69     		ldr	r3, [r7, #20]
 7035 0066 5C6B     		ldr	r4, [r3, #52]
 7036 0068 7868     		ldr	r0, [r7, #4]
 7037 006a FFF7FEFF 		bl	lv_page_get_fit_width
 7038 006e 0346     		mov	r3, r0
 7039 0070 1946     		mov	r1, r3
 7040 0072 2046     		mov	r0, r4
 7041 0074 FFF7FEFF 		bl	lv_obj_set_width
1833:..\..\..\lvgl\version_6.1.2\lvgl\src\lv_objx/lv_ta.c ****         lv_obj_set_hidden(ext->placeholder, false);
 7042              		.loc 7 1833 0
 7043 0078 7B69     		ldr	r3, [r7, #20]
 7044 007a 5B6B     		ldr	r3, [r3, #52]
 7045 007c 0021     		movs	r1, #0
 7046 007e 1846     		mov	r0, r3
 7047 0080 FFF7FEFF 		bl	lv_obj_set_hidden
 7048              	.LBE42:
 7049 0084 07E0     		b	.L333
 7050              	.L336:
1834:..\..\..\lvgl\version_6.1.2\lvgl\src\lv_objx/lv_ta.c ****     } else {
1835:..\..\..\lvgl\version_6.1.2\lvgl\src\lv_objx/lv_ta.c ****         lv_obj_set_hidden(ext->placeholder, true);
 7051              		.loc 7 1835 0
 7052 0086 7B69     		ldr	r3, [r7, #20]
 7053 0088 5B6B     		ldr	r3, [r3, #52]
 7054 008a 0121     		movs	r1, #1
 7055 008c 1846     		mov	r0, r3
 7056 008e FFF7FEFF 		bl	lv_obj_set_hidden
 7057 0092 00E0     		b	.L333
 7058              	.L337:
1821:..\..\..\lvgl\version_6.1.2\lvgl\src\lv_objx/lv_ta.c **** 
 7059              		.loc 7 1821 0
 7060 0094 00BF     		nop
 7061              	.L333:
1836:..\..\..\lvgl\version_6.1.2\lvgl\src\lv_objx/lv_ta.c ****     }
1837:..\..\..\lvgl\version_6.1.2\lvgl\src\lv_objx/lv_ta.c **** }
 7062              		.loc 7 1837 0
 7063 0096 1C37     		adds	r7, r7, #28
 7064              		.cfi_def_cfa_offset 12
 7065 0098 BD46     		mov	sp, r7
 7066              		.cfi_def_cfa_register 13
ARM GAS  C:\Users\tmj32\AppData\Local\Temp\ccI3WYuM.s 			page 180


 7067              		@ sp needed
 7068 009a 90BD     		pop	{r4, r7, pc}
 7069              		.cfi_endproc
 7070              	.LFE107:
 7071              		.size	placeholder_update, .-placeholder_update
 7072              		.section	.text.update_cursor_position_on_click,"ax",%progbits
 7073              		.align	2
 7074              		.thumb
 7075              		.thumb_func
 7076              		.type	update_cursor_position_on_click, %function
 7077              	update_cursor_position_on_click:
 7078              	.LFB108:
1838:..\..\..\lvgl\version_6.1.2\lvgl\src\lv_objx/lv_ta.c **** 
1839:..\..\..\lvgl\version_6.1.2\lvgl\src\lv_objx/lv_ta.c **** static void update_cursor_position_on_click(lv_obj_t * ta, lv_signal_t sign, lv_indev_t * click_sou
1840:..\..\..\lvgl\version_6.1.2\lvgl\src\lv_objx/lv_ta.c **** {
 7079              		.loc 7 1840 0
 7080              		.cfi_startproc
 7081              		@ args = 0, pretend = 0, frame = 48
 7082              		@ frame_needed = 1, uses_anonymous_args = 0
 7083 0000 80B5     		push	{r7, lr}
 7084              		.cfi_def_cfa_offset 8
 7085              		.cfi_offset 7, -8
 7086              		.cfi_offset 14, -4
 7087 0002 8CB0     		sub	sp, sp, #48
 7088              		.cfi_def_cfa_offset 56
 7089 0004 00AF     		add	r7, sp, #0
 7090              		.cfi_def_cfa_register 7
 7091 0006 F860     		str	r0, [r7, #12]
 7092 0008 0B46     		mov	r3, r1
 7093 000a 7A60     		str	r2, [r7, #4]
 7094 000c FB72     		strb	r3, [r7, #11]
1841:..\..\..\lvgl\version_6.1.2\lvgl\src\lv_objx/lv_ta.c **** 
1842:..\..\..\lvgl\version_6.1.2\lvgl\src\lv_objx/lv_ta.c ****     if(click_source == NULL) return;
 7095              		.loc 7 1842 0
 7096 000e 7B68     		ldr	r3, [r7, #4]
 7097 0010 002B     		cmp	r3, #0
 7098 0012 7BD0     		beq	.L352
1843:..\..\..\lvgl\version_6.1.2\lvgl\src\lv_objx/lv_ta.c **** 
1844:..\..\..\lvgl\version_6.1.2\lvgl\src\lv_objx/lv_ta.c ****     lv_ta_ext_t * ext = lv_obj_get_ext_attr(ta);
 7099              		.loc 7 1844 0
 7100 0014 F868     		ldr	r0, [r7, #12]
 7101 0016 FFF7FEFF 		bl	lv_obj_get_ext_attr
 7102 001a B862     		str	r0, [r7, #40]
1845:..\..\..\lvgl\version_6.1.2\lvgl\src\lv_objx/lv_ta.c ****     if(ext->cursor.click_pos == 0) return;
 7103              		.loc 7 1845 0
 7104 001c BB6A     		ldr	r3, [r7, #40]
 7105 001e 93F85830 		ldrb	r3, [r3, #88]	@ zero_extendqisi2
 7106 0022 03F02003 		and	r3, r3, #32
 7107 0026 DBB2     		uxtb	r3, r3
 7108 0028 002B     		cmp	r3, #0
 7109 002a 71D0     		beq	.L353
1846:..\..\..\lvgl\version_6.1.2\lvgl\src\lv_objx/lv_ta.c ****     if(ext->cursor.type == LV_CURSOR_NONE) return;
 7110              		.loc 7 1846 0
 7111 002c BB6A     		ldr	r3, [r7, #40]
 7112 002e 93F85830 		ldrb	r3, [r3, #88]	@ zero_extendqisi2
 7113 0032 03F00F03 		and	r3, r3, #15
 7114 0036 DBB2     		uxtb	r3, r3
ARM GAS  C:\Users\tmj32\AppData\Local\Temp\ccI3WYuM.s 			page 181


 7115 0038 002B     		cmp	r3, #0
 7116 003a 6BD0     		beq	.L354
1847:..\..\..\lvgl\version_6.1.2\lvgl\src\lv_objx/lv_ta.c **** 
1848:..\..\..\lvgl\version_6.1.2\lvgl\src\lv_objx/lv_ta.c ****     if(lv_indev_get_type(click_source) == LV_INDEV_TYPE_KEYPAD ||
 7117              		.loc 7 1848 0
 7118 003c 7868     		ldr	r0, [r7, #4]
 7119 003e FFF7FEFF 		bl	lv_indev_get_type
 7120 0042 0346     		mov	r3, r0
 7121 0044 022B     		cmp	r3, #2
 7122 0046 67D0     		beq	.L355
1849:..\..\..\lvgl\version_6.1.2\lvgl\src\lv_objx/lv_ta.c ****        lv_indev_get_type(click_source) == LV_INDEV_TYPE_ENCODER) {
 7123              		.loc 7 1849 0 discriminator 1
 7124 0048 7868     		ldr	r0, [r7, #4]
 7125 004a FFF7FEFF 		bl	lv_indev_get_type
 7126 004e 0346     		mov	r3, r0
1848:..\..\..\lvgl\version_6.1.2\lvgl\src\lv_objx/lv_ta.c ****        lv_indev_get_type(click_source) == LV_INDEV_TYPE_ENCODER) {
 7127              		.loc 7 1848 0 discriminator 1
 7128 0050 042B     		cmp	r3, #4
 7129 0052 61D0     		beq	.L355
1850:..\..\..\lvgl\version_6.1.2\lvgl\src\lv_objx/lv_ta.c ****         return;
1851:..\..\..\lvgl\version_6.1.2\lvgl\src\lv_objx/lv_ta.c ****     }
1852:..\..\..\lvgl\version_6.1.2\lvgl\src\lv_objx/lv_ta.c **** 
1853:..\..\..\lvgl\version_6.1.2\lvgl\src\lv_objx/lv_ta.c ****     lv_area_t label_coords;
1854:..\..\..\lvgl\version_6.1.2\lvgl\src\lv_objx/lv_ta.c ****     lv_obj_get_coords(ext->label, &label_coords);
 7130              		.loc 7 1854 0
 7131 0054 BB6A     		ldr	r3, [r7, #40]
 7132 0056 1B6B     		ldr	r3, [r3, #48]
 7133 0058 07F11C02 		add	r2, r7, #28
 7134 005c 1146     		mov	r1, r2
 7135 005e 1846     		mov	r0, r3
 7136 0060 FFF7FEFF 		bl	lv_obj_get_coords
1855:..\..\..\lvgl\version_6.1.2\lvgl\src\lv_objx/lv_ta.c **** 
1856:..\..\..\lvgl\version_6.1.2\lvgl\src\lv_objx/lv_ta.c ****     lv_point_t point_act, vect_act;
1857:..\..\..\lvgl\version_6.1.2\lvgl\src\lv_objx/lv_ta.c ****     lv_indev_get_point(click_source, &point_act);
 7137              		.loc 7 1857 0
 7138 0064 07F11803 		add	r3, r7, #24
 7139 0068 1946     		mov	r1, r3
 7140 006a 7868     		ldr	r0, [r7, #4]
 7141 006c FFF7FEFF 		bl	lv_indev_get_point
1858:..\..\..\lvgl\version_6.1.2\lvgl\src\lv_objx/lv_ta.c ****     lv_indev_get_vect(click_source, &vect_act);
 7142              		.loc 7 1858 0
 7143 0070 07F11403 		add	r3, r7, #20
 7144 0074 1946     		mov	r1, r3
 7145 0076 7868     		ldr	r0, [r7, #4]
 7146 0078 FFF7FEFF 		bl	lv_indev_get_vect
1859:..\..\..\lvgl\version_6.1.2\lvgl\src\lv_objx/lv_ta.c **** 
1860:..\..\..\lvgl\version_6.1.2\lvgl\src\lv_objx/lv_ta.c ****     if(point_act.x < 0 || point_act.y < 0) return; /*Ignore event from keypad*/
 7147              		.loc 7 1860 0
 7148 007c B7F91830 		ldrsh	r3, [r7, #24]
 7149 0080 002B     		cmp	r3, #0
 7150 0082 4BDB     		blt	.L356
 7151              		.loc 7 1860 0 is_stmt 0 discriminator 1
 7152 0084 B7F91A30 		ldrsh	r3, [r7, #26]
 7153 0088 002B     		cmp	r3, #0
 7154 008a 47DB     		blt	.L356
1861:..\..\..\lvgl\version_6.1.2\lvgl\src\lv_objx/lv_ta.c ****     lv_point_t rel_pos;
1862:..\..\..\lvgl\version_6.1.2\lvgl\src\lv_objx/lv_ta.c ****     rel_pos.x = point_act.x - label_coords.x1;
ARM GAS  C:\Users\tmj32\AppData\Local\Temp\ccI3WYuM.s 			page 182


 7155              		.loc 7 1862 0 is_stmt 1
 7156 008c B7F91830 		ldrsh	r3, [r7, #24]
 7157 0090 9AB2     		uxth	r2, r3
 7158 0092 B7F91C30 		ldrsh	r3, [r7, #28]
 7159 0096 9BB2     		uxth	r3, r3
 7160 0098 D31A     		subs	r3, r2, r3
 7161 009a 9BB2     		uxth	r3, r3
 7162 009c 1BB2     		sxth	r3, r3
 7163 009e 3B82     		strh	r3, [r7, #16]	@ movhi
1863:..\..\..\lvgl\version_6.1.2\lvgl\src\lv_objx/lv_ta.c ****     rel_pos.y = point_act.y - label_coords.y1;
 7164              		.loc 7 1863 0
 7165 00a0 B7F91A30 		ldrsh	r3, [r7, #26]
 7166 00a4 9AB2     		uxth	r2, r3
 7167 00a6 B7F91E30 		ldrsh	r3, [r7, #30]
 7168 00aa 9BB2     		uxth	r3, r3
 7169 00ac D31A     		subs	r3, r2, r3
 7170 00ae 9BB2     		uxth	r3, r3
 7171 00b0 1BB2     		sxth	r3, r3
 7172 00b2 7B82     		strh	r3, [r7, #18]	@ movhi
1864:..\..\..\lvgl\version_6.1.2\lvgl\src\lv_objx/lv_ta.c **** 
1865:..\..\..\lvgl\version_6.1.2\lvgl\src\lv_objx/lv_ta.c ****     lv_coord_t label_width = lv_obj_get_width(ext->label);
 7173              		.loc 7 1865 0
 7174 00b4 BB6A     		ldr	r3, [r7, #40]
 7175 00b6 1B6B     		ldr	r3, [r3, #48]
 7176 00b8 1846     		mov	r0, r3
 7177 00ba FFF7FEFF 		bl	lv_obj_get_width
 7178 00be 0346     		mov	r3, r0
 7179 00c0 FB84     		strh	r3, [r7, #38]	@ movhi
1866:..\..\..\lvgl\version_6.1.2\lvgl\src\lv_objx/lv_ta.c **** 
1867:..\..\..\lvgl\version_6.1.2\lvgl\src\lv_objx/lv_ta.c ****     uint16_t char_id_at_click;
1868:..\..\..\lvgl\version_6.1.2\lvgl\src\lv_objx/lv_ta.c **** 
1869:..\..\..\lvgl\version_6.1.2\lvgl\src\lv_objx/lv_ta.c **** #if LV_LABEL_TEXT_SEL
1870:..\..\..\lvgl\version_6.1.2\lvgl\src\lv_objx/lv_ta.c ****     lv_label_ext_t * ext_label = lv_obj_get_ext_attr(ext->label);
1871:..\..\..\lvgl\version_6.1.2\lvgl\src\lv_objx/lv_ta.c ****     bool click_outside_label;
1872:..\..\..\lvgl\version_6.1.2\lvgl\src\lv_objx/lv_ta.c ****     /*Check if the click happened on the left side of the area outside the label*/
1873:..\..\..\lvgl\version_6.1.2\lvgl\src\lv_objx/lv_ta.c ****     if(rel_pos.x < 0) {
1874:..\..\..\lvgl\version_6.1.2\lvgl\src\lv_objx/lv_ta.c ****         char_id_at_click = 0;
1875:..\..\..\lvgl\version_6.1.2\lvgl\src\lv_objx/lv_ta.c ****         click_outside_label       = true;
1876:..\..\..\lvgl\version_6.1.2\lvgl\src\lv_objx/lv_ta.c ****     }
1877:..\..\..\lvgl\version_6.1.2\lvgl\src\lv_objx/lv_ta.c ****     /*Check if the click happened on the right side of the area outside the label*/
1878:..\..\..\lvgl\version_6.1.2\lvgl\src\lv_objx/lv_ta.c ****     else if(rel_pos.x >= label_width) {
1879:..\..\..\lvgl\version_6.1.2\lvgl\src\lv_objx/lv_ta.c ****         char_id_at_click = LV_TA_CURSOR_LAST;
1880:..\..\..\lvgl\version_6.1.2\lvgl\src\lv_objx/lv_ta.c ****         click_outside_label       = true;
1881:..\..\..\lvgl\version_6.1.2\lvgl\src\lv_objx/lv_ta.c ****     } else {
1882:..\..\..\lvgl\version_6.1.2\lvgl\src\lv_objx/lv_ta.c ****         char_id_at_click = lv_label_get_letter_on(ext->label, &rel_pos);
1883:..\..\..\lvgl\version_6.1.2\lvgl\src\lv_objx/lv_ta.c ****         click_outside_label       = !lv_label_is_char_under_pos(ext->label, &rel_pos);
1884:..\..\..\lvgl\version_6.1.2\lvgl\src\lv_objx/lv_ta.c ****     }
1885:..\..\..\lvgl\version_6.1.2\lvgl\src\lv_objx/lv_ta.c **** 
1886:..\..\..\lvgl\version_6.1.2\lvgl\src\lv_objx/lv_ta.c ****     if(ext->text_sel_en) {
1887:..\..\..\lvgl\version_6.1.2\lvgl\src\lv_objx/lv_ta.c ****         if(!ext->text_sel_in_prog && !click_outside_label && sign == LV_SIGNAL_PRESSED) {
1888:..\..\..\lvgl\version_6.1.2\lvgl\src\lv_objx/lv_ta.c ****             /*Input device just went down. Store the selection start position*/
1889:..\..\..\lvgl\version_6.1.2\lvgl\src\lv_objx/lv_ta.c ****             ext->sel.start    = char_id_at_click;
1890:..\..\..\lvgl\version_6.1.2\lvgl\src\lv_objx/lv_ta.c ****             ext->sel.end      = LV_LABEL_TEXT_SEL_OFF;
1891:..\..\..\lvgl\version_6.1.2\lvgl\src\lv_objx/lv_ta.c ****             ext->text_sel_in_prog = 1;
1892:..\..\..\lvgl\version_6.1.2\lvgl\src\lv_objx/lv_ta.c ****             lv_obj_set_drag(lv_page_get_scrl(ta), false);
1893:..\..\..\lvgl\version_6.1.2\lvgl\src\lv_objx/lv_ta.c ****         } else if(ext->text_sel_in_prog && sign == LV_SIGNAL_PRESSING) {
1894:..\..\..\lvgl\version_6.1.2\lvgl\src\lv_objx/lv_ta.c ****             /*Input device may be moving. Store the end position */
ARM GAS  C:\Users\tmj32\AppData\Local\Temp\ccI3WYuM.s 			page 183


1895:..\..\..\lvgl\version_6.1.2\lvgl\src\lv_objx/lv_ta.c ****             ext->sel.end = char_id_at_click;
1896:..\..\..\lvgl\version_6.1.2\lvgl\src\lv_objx/lv_ta.c ****         } else if(ext->text_sel_in_prog && (sign == LV_SIGNAL_PRESS_LOST || sign == LV_SIGNAL_RELEA
1897:..\..\..\lvgl\version_6.1.2\lvgl\src\lv_objx/lv_ta.c ****             /*Input device is released. Check if anything was selected.*/
1898:..\..\..\lvgl\version_6.1.2\lvgl\src\lv_objx/lv_ta.c ****             lv_obj_set_drag(lv_page_get_scrl(ta), true);
1899:..\..\..\lvgl\version_6.1.2\lvgl\src\lv_objx/lv_ta.c ****         }
1900:..\..\..\lvgl\version_6.1.2\lvgl\src\lv_objx/lv_ta.c ****     }
1901:..\..\..\lvgl\version_6.1.2\lvgl\src\lv_objx/lv_ta.c **** 
1902:..\..\..\lvgl\version_6.1.2\lvgl\src\lv_objx/lv_ta.c ****     if(ext->text_sel_in_prog || sign == LV_SIGNAL_PRESSED) lv_ta_set_cursor_pos(ta, char_id_at_clic
1903:..\..\..\lvgl\version_6.1.2\lvgl\src\lv_objx/lv_ta.c **** 
1904:..\..\..\lvgl\version_6.1.2\lvgl\src\lv_objx/lv_ta.c ****     if(ext->text_sel_in_prog) {
1905:..\..\..\lvgl\version_6.1.2\lvgl\src\lv_objx/lv_ta.c ****         /*If the selected area has changed then update the real values and*/
1906:..\..\..\lvgl\version_6.1.2\lvgl\src\lv_objx/lv_ta.c **** 
1907:..\..\..\lvgl\version_6.1.2\lvgl\src\lv_objx/lv_ta.c ****         /*Invalidate the text area.*/
1908:..\..\..\lvgl\version_6.1.2\lvgl\src\lv_objx/lv_ta.c ****         if(ext->sel.start > ext->sel.end) {
1909:..\..\..\lvgl\version_6.1.2\lvgl\src\lv_objx/lv_ta.c ****             if(ext_label->txt_sel_start != ext->sel.end || ext_label->txt_sel_end != ext->sel.start
1910:..\..\..\lvgl\version_6.1.2\lvgl\src\lv_objx/lv_ta.c ****                 ext_label->txt_sel_start = ext->sel.end;
1911:..\..\..\lvgl\version_6.1.2\lvgl\src\lv_objx/lv_ta.c ****                 ext_label->txt_sel_end   = ext->sel.start;
1912:..\..\..\lvgl\version_6.1.2\lvgl\src\lv_objx/lv_ta.c ****                 lv_obj_invalidate(ta);
1913:..\..\..\lvgl\version_6.1.2\lvgl\src\lv_objx/lv_ta.c ****             }
1914:..\..\..\lvgl\version_6.1.2\lvgl\src\lv_objx/lv_ta.c ****         } else if(ext->sel.start < ext->sel.end) {
1915:..\..\..\lvgl\version_6.1.2\lvgl\src\lv_objx/lv_ta.c ****             if(ext_label->txt_sel_start != ext->sel.start || ext_label->txt_sel_end != ext->sel.end
1916:..\..\..\lvgl\version_6.1.2\lvgl\src\lv_objx/lv_ta.c ****                 ext_label->txt_sel_start = ext->sel.start;
1917:..\..\..\lvgl\version_6.1.2\lvgl\src\lv_objx/lv_ta.c ****                 ext_label->txt_sel_end   = ext->sel.end;
1918:..\..\..\lvgl\version_6.1.2\lvgl\src\lv_objx/lv_ta.c ****                 lv_obj_invalidate(ta);
1919:..\..\..\lvgl\version_6.1.2\lvgl\src\lv_objx/lv_ta.c ****             }
1920:..\..\..\lvgl\version_6.1.2\lvgl\src\lv_objx/lv_ta.c ****         } else {
1921:..\..\..\lvgl\version_6.1.2\lvgl\src\lv_objx/lv_ta.c ****             if(ext_label->txt_sel_start != LV_DRAW_LABEL_NO_TXT_SEL || ext_label->txt_sel_end != LV
1922:..\..\..\lvgl\version_6.1.2\lvgl\src\lv_objx/lv_ta.c ****                 ext_label->txt_sel_start = LV_DRAW_LABEL_NO_TXT_SEL;
1923:..\..\..\lvgl\version_6.1.2\lvgl\src\lv_objx/lv_ta.c ****                 ext_label->txt_sel_end   = LV_DRAW_LABEL_NO_TXT_SEL;
1924:..\..\..\lvgl\version_6.1.2\lvgl\src\lv_objx/lv_ta.c ****                 lv_obj_invalidate(ta);
1925:..\..\..\lvgl\version_6.1.2\lvgl\src\lv_objx/lv_ta.c ****             }
1926:..\..\..\lvgl\version_6.1.2\lvgl\src\lv_objx/lv_ta.c ****         }
1927:..\..\..\lvgl\version_6.1.2\lvgl\src\lv_objx/lv_ta.c ****         /*Finish selection if necessary */
1928:..\..\..\lvgl\version_6.1.2\lvgl\src\lv_objx/lv_ta.c ****         if(sign == LV_SIGNAL_PRESS_LOST || sign == LV_SIGNAL_RELEASED) {
1929:..\..\..\lvgl\version_6.1.2\lvgl\src\lv_objx/lv_ta.c ****             ext->text_sel_in_prog = 0;
1930:..\..\..\lvgl\version_6.1.2\lvgl\src\lv_objx/lv_ta.c ****         }
1931:..\..\..\lvgl\version_6.1.2\lvgl\src\lv_objx/lv_ta.c ****     }
1932:..\..\..\lvgl\version_6.1.2\lvgl\src\lv_objx/lv_ta.c **** #else
1933:..\..\..\lvgl\version_6.1.2\lvgl\src\lv_objx/lv_ta.c ****     /*Check if the click happened on the left side of the area outside the label*/
1934:..\..\..\lvgl\version_6.1.2\lvgl\src\lv_objx/lv_ta.c ****     if(rel_pos.x < 0) {
 7180              		.loc 7 1934 0
 7181 00c2 B7F91030 		ldrsh	r3, [r7, #16]
 7182 00c6 002B     		cmp	r3, #0
 7183 00c8 02DA     		bge	.L347
1935:..\..\..\lvgl\version_6.1.2\lvgl\src\lv_objx/lv_ta.c ****         char_id_at_click = 0;
 7184              		.loc 7 1935 0
 7185 00ca 0023     		movs	r3, #0
 7186 00cc FB85     		strh	r3, [r7, #46]	@ movhi
 7187 00ce 13E0     		b	.L348
 7188              	.L347:
1936:..\..\..\lvgl\version_6.1.2\lvgl\src\lv_objx/lv_ta.c ****     }
1937:..\..\..\lvgl\version_6.1.2\lvgl\src\lv_objx/lv_ta.c ****     /*Check if the click happened on the right side of the area outside the label*/
1938:..\..\..\lvgl\version_6.1.2\lvgl\src\lv_objx/lv_ta.c ****     else if(rel_pos.x >= label_width) {
 7189              		.loc 7 1938 0
 7190 00d0 B7F91030 		ldrsh	r3, [r7, #16]
 7191 00d4 B7F92620 		ldrsh	r2, [r7, #38]
 7192 00d8 9A42     		cmp	r2, r3
ARM GAS  C:\Users\tmj32\AppData\Local\Temp\ccI3WYuM.s 			page 184


 7193 00da 03DC     		bgt	.L349
1939:..\..\..\lvgl\version_6.1.2\lvgl\src\lv_objx/lv_ta.c ****         char_id_at_click = LV_TA_CURSOR_LAST;
 7194              		.loc 7 1939 0
 7195 00dc 47F6FF73 		movw	r3, #32767
 7196 00e0 FB85     		strh	r3, [r7, #46]	@ movhi
 7197 00e2 09E0     		b	.L348
 7198              	.L349:
1940:..\..\..\lvgl\version_6.1.2\lvgl\src\lv_objx/lv_ta.c ****     } else {
1941:..\..\..\lvgl\version_6.1.2\lvgl\src\lv_objx/lv_ta.c ****         char_id_at_click = lv_label_get_letter_on(ext->label, &rel_pos);
 7199              		.loc 7 1941 0
 7200 00e4 BB6A     		ldr	r3, [r7, #40]
 7201 00e6 1B6B     		ldr	r3, [r3, #48]
 7202 00e8 07F11002 		add	r2, r7, #16
 7203 00ec 1146     		mov	r1, r2
 7204 00ee 1846     		mov	r0, r3
 7205 00f0 FFF7FEFF 		bl	lv_label_get_letter_on
 7206 00f4 0346     		mov	r3, r0
 7207 00f6 FB85     		strh	r3, [r7, #46]	@ movhi
 7208              	.L348:
1942:..\..\..\lvgl\version_6.1.2\lvgl\src\lv_objx/lv_ta.c ****     }
1943:..\..\..\lvgl\version_6.1.2\lvgl\src\lv_objx/lv_ta.c **** 
1944:..\..\..\lvgl\version_6.1.2\lvgl\src\lv_objx/lv_ta.c ****     if(sign == LV_SIGNAL_PRESSED) lv_ta_set_cursor_pos(ta, char_id_at_click);
 7209              		.loc 7 1944 0
 7210 00f8 FB7A     		ldrb	r3, [r7, #11]	@ zero_extendqisi2
 7211 00fa 082B     		cmp	r3, #8
 7212 00fc 0FD1     		bne	.L338
 7213              		.loc 7 1944 0 is_stmt 0 discriminator 1
 7214 00fe B7F92E30 		ldrsh	r3, [r7, #46]
 7215 0102 1946     		mov	r1, r3
 7216 0104 F868     		ldr	r0, [r7, #12]
 7217 0106 FFF7FEFF 		bl	lv_ta_set_cursor_pos
 7218 010a 08E0     		b	.L338
 7219              	.L352:
1842:..\..\..\lvgl\version_6.1.2\lvgl\src\lv_objx/lv_ta.c **** 
 7220              		.loc 7 1842 0 is_stmt 1
 7221 010c 00BF     		nop
 7222 010e 06E0     		b	.L338
 7223              	.L353:
1845:..\..\..\lvgl\version_6.1.2\lvgl\src\lv_objx/lv_ta.c ****     if(ext->cursor.type == LV_CURSOR_NONE) return;
 7224              		.loc 7 1845 0
 7225 0110 00BF     		nop
 7226 0112 04E0     		b	.L338
 7227              	.L354:
1846:..\..\..\lvgl\version_6.1.2\lvgl\src\lv_objx/lv_ta.c **** 
 7228              		.loc 7 1846 0
 7229 0114 00BF     		nop
 7230 0116 02E0     		b	.L338
 7231              	.L355:
1850:..\..\..\lvgl\version_6.1.2\lvgl\src\lv_objx/lv_ta.c ****     }
 7232              		.loc 7 1850 0
 7233 0118 00BF     		nop
 7234 011a 00E0     		b	.L338
 7235              	.L356:
1860:..\..\..\lvgl\version_6.1.2\lvgl\src\lv_objx/lv_ta.c ****     lv_point_t rel_pos;
 7236              		.loc 7 1860 0
 7237 011c 00BF     		nop
 7238              	.L338:
ARM GAS  C:\Users\tmj32\AppData\Local\Temp\ccI3WYuM.s 			page 185


1945:..\..\..\lvgl\version_6.1.2\lvgl\src\lv_objx/lv_ta.c **** #endif
1946:..\..\..\lvgl\version_6.1.2\lvgl\src\lv_objx/lv_ta.c **** }
 7239              		.loc 7 1946 0
 7240 011e 3037     		adds	r7, r7, #48
 7241              		.cfi_def_cfa_offset 8
 7242 0120 BD46     		mov	sp, r7
 7243              		.cfi_def_cfa_register 13
 7244              		@ sp needed
 7245 0122 80BD     		pop	{r7, pc}
 7246              		.cfi_endproc
 7247              	.LFE108:
 7248              		.size	update_cursor_position_on_click, .-update_cursor_position_on_click
 7249              		.text
 7250              	.Letext0:
 7251              		.file 8 "c:\\program files (x86)\\cypress\\psoc creator\\4.3\\psoc creator\\import\\gnu\\arm\\5.4.
 7252              		.file 9 "c:\\program files (x86)\\cypress\\psoc creator\\4.3\\psoc creator\\import\\gnu\\arm\\5.4.
 7253              		.file 10 "..\\..\\..\\lvgl\\version_6.1.2\\lvgl\\src\\lv_objx\\../../../lv_conf.h"
 7254              		.file 11 "c:\\program files (x86)\\cypress\\psoc creator\\4.3\\psoc creator\\import\\gnu\\arm\\5.4
 7255              		.file 12 "..\\..\\..\\lvgl\\version_6.1.2\\lvgl\\src\\lv_objx\\../lv_core/../lv_misc/lv_color.h"
 7256              		.file 13 "..\\..\\..\\lvgl\\version_6.1.2\\lvgl\\src\\lv_objx\\../lv_core/../lv_misc/lv_anim.h"
 7257              		.file 14 "..\\..\\..\\lvgl\\version_6.1.2\\lvgl\\src\\lv_objx\\../lv_core/lv_style.h"
 7258              		.file 15 "..\\..\\..\\lvgl\\version_6.1.2\\lvgl\\src\\lv_objx\\../lv_core/../lv_misc/lv_types.h"
 7259              		.file 16 "..\\..\\..\\lvgl\\version_6.1.2\\lvgl\\src\\lv_objx\\../lv_core/../lv_misc/lv_ll.h"
 7260              		.file 17 "..\\..\\..\\lvgl\\version_6.1.2\\lvgl\\src\\lv_objx\\../lv_core/../lv_misc/lv_bidi.h"
 7261              		.file 18 "..\\..\\..\\lvgl\\version_6.1.2\\lvgl\\src\\lv_objx\\../lv_core/../lv_hal/../lv_misc/lv_
 7262              		.file 19 "..\\..\\..\\lvgl\\version_6.1.2\\lvgl\\src\\lv_objx\\../lv_core/../lv_hal/lv_hal_disp.h"
 7263              		.file 20 "..\\..\\..\\lvgl\\version_6.1.2\\lvgl\\src\\lv_objx\\../lv_core/lv_obj.h"
 7264              		.file 21 "..\\..\\..\\lvgl\\version_6.1.2\\lvgl\\src\\lv_objx\\../lv_core/../lv_hal/lv_hal_indev.h
 7265              		.file 22 "..\\..\\..\\lvgl\\version_6.1.2\\lvgl\\src\\lv_objx\\../lv_core/../lv_core/lv_group.h"
 7266              		.file 23 "..\\..\\..\\lvgl\\version_6.1.2\\lvgl\\src\\lv_objx\\../lv_misc/lv_txt.h"
 7267              		.file 24 "..\\..\\..\\lvgl\\version_6.1.2\\lvgl\\src\\lv_objx\\../lv_themes/lv_theme.h"
 7268              		.section	.debug_info,"",%progbits
 7269              	.Ldebug_info0:
 7270 0000 8B350000 		.4byte	0x358b
 7271 0004 0400     		.2byte	0x4
 7272 0006 00000000 		.4byte	.Ldebug_abbrev0
 7273 000a 04       		.byte	0x4
 7274 000b 01       		.uleb128 0x1
 7275 000c 81140000 		.4byte	.LASF548
 7276 0010 0C       		.byte	0xc
 7277 0011 8B0C0000 		.4byte	.LASF549
 7278 0015 270D0000 		.4byte	.LASF550
 7279 0019 78000000 		.4byte	.Ldebug_ranges0+0x78
 7280 001d 00000000 		.4byte	0
 7281 0021 00000000 		.4byte	.Ldebug_line0
 7282 0025 02       		.uleb128 0x2
 7283 0026 A0120000 		.4byte	.LASF0
 7284 002a 08       		.byte	0x8
 7285 002b 1B       		.byte	0x1b
 7286 002c 30000000 		.4byte	0x30
 7287 0030 03       		.uleb128 0x3
 7288 0031 01       		.byte	0x1
 7289 0032 06       		.byte	0x6
 7290 0033 74050000 		.4byte	.LASF2
 7291 0037 02       		.uleb128 0x2
 7292 0038 47030000 		.4byte	.LASF1
 7293 003c 08       		.byte	0x8
ARM GAS  C:\Users\tmj32\AppData\Local\Temp\ccI3WYuM.s 			page 186


 7294 003d 1D       		.byte	0x1d
 7295 003e 42000000 		.4byte	0x42
 7296 0042 03       		.uleb128 0x3
 7297 0043 01       		.byte	0x1
 7298 0044 08       		.byte	0x8
 7299 0045 01060000 		.4byte	.LASF3
 7300 0049 02       		.uleb128 0x2
 7301 004a 58150000 		.4byte	.LASF4
 7302 004e 08       		.byte	0x8
 7303 004f 29       		.byte	0x29
 7304 0050 54000000 		.4byte	0x54
 7305 0054 03       		.uleb128 0x3
 7306 0055 02       		.byte	0x2
 7307 0056 05       		.byte	0x5
 7308 0057 48170000 		.4byte	.LASF5
 7309 005b 02       		.uleb128 0x2
 7310 005c 83070000 		.4byte	.LASF6
 7311 0060 08       		.byte	0x8
 7312 0061 2B       		.byte	0x2b
 7313 0062 66000000 		.4byte	0x66
 7314 0066 03       		.uleb128 0x3
 7315 0067 02       		.byte	0x2
 7316 0068 07       		.byte	0x7
 7317 0069 931A0000 		.4byte	.LASF7
 7318 006d 02       		.uleb128 0x2
 7319 006e 5D1B0000 		.4byte	.LASF8
 7320 0072 08       		.byte	0x8
 7321 0073 3F       		.byte	0x3f
 7322 0074 78000000 		.4byte	0x78
 7323 0078 03       		.uleb128 0x3
 7324 0079 04       		.byte	0x4
 7325 007a 05       		.byte	0x5
 7326 007b 5C040000 		.4byte	.LASF9
 7327 007f 02       		.uleb128 0x2
 7328 0080 F70C0000 		.4byte	.LASF10
 7329 0084 08       		.byte	0x8
 7330 0085 41       		.byte	0x41
 7331 0086 8A000000 		.4byte	0x8a
 7332 008a 03       		.uleb128 0x3
 7333 008b 04       		.byte	0x4
 7334 008c 07       		.byte	0x7
 7335 008d 5B0B0000 		.4byte	.LASF11
 7336 0091 03       		.uleb128 0x3
 7337 0092 08       		.byte	0x8
 7338 0093 05       		.byte	0x5
 7339 0094 190D0000 		.4byte	.LASF12
 7340 0098 03       		.uleb128 0x3
 7341 0099 08       		.byte	0x8
 7342 009a 07       		.byte	0x7
 7343 009b DE120000 		.4byte	.LASF13
 7344 009f 04       		.uleb128 0x4
 7345 00a0 04       		.byte	0x4
 7346 00a1 05       		.byte	0x5
 7347 00a2 696E7400 		.ascii	"int\000"
 7348 00a6 03       		.uleb128 0x3
 7349 00a7 04       		.byte	0x4
 7350 00a8 07       		.byte	0x7
ARM GAS  C:\Users\tmj32\AppData\Local\Temp\ccI3WYuM.s 			page 187


 7351 00a9 2B0F0000 		.4byte	.LASF14
 7352 00ad 02       		.uleb128 0x2
 7353 00ae 00000000 		.4byte	.LASF15
 7354 00b2 09       		.byte	0x9
 7355 00b3 14       		.byte	0x14
 7356 00b4 25000000 		.4byte	0x25
 7357 00b8 02       		.uleb128 0x2
 7358 00b9 80050000 		.4byte	.LASF16
 7359 00bd 09       		.byte	0x9
 7360 00be 18       		.byte	0x18
 7361 00bf 37000000 		.4byte	0x37
 7362 00c3 02       		.uleb128 0x2
 7363 00c4 9E170000 		.4byte	.LASF17
 7364 00c8 09       		.byte	0x9
 7365 00c9 20       		.byte	0x20
 7366 00ca 49000000 		.4byte	0x49
 7367 00ce 02       		.uleb128 0x2
 7368 00cf 11130000 		.4byte	.LASF18
 7369 00d3 09       		.byte	0x9
 7370 00d4 24       		.byte	0x24
 7371 00d5 5B000000 		.4byte	0x5b
 7372 00d9 02       		.uleb128 0x2
 7373 00da 11010000 		.4byte	.LASF19
 7374 00de 09       		.byte	0x9
 7375 00df 2C       		.byte	0x2c
 7376 00e0 6D000000 		.4byte	0x6d
 7377 00e4 02       		.uleb128 0x2
 7378 00e5 E1190000 		.4byte	.LASF20
 7379 00e9 09       		.byte	0x9
 7380 00ea 30       		.byte	0x30
 7381 00eb 7F000000 		.4byte	0x7f
 7382 00ef 02       		.uleb128 0x2
 7383 00f0 E41A0000 		.4byte	.LASF21
 7384 00f4 0A       		.byte	0xa
 7385 00f5 3C       		.byte	0x3c
 7386 00f6 C3000000 		.4byte	0xc3
 7387 00fa 05       		.uleb128 0x5
 7388 00fb 04       		.byte	0x4
 7389 00fc 02       		.uleb128 0x2
 7390 00fd 25000000 		.4byte	.LASF22
 7391 0101 0B       		.byte	0xb
 7392 0102 D8       		.byte	0xd8
 7393 0103 A6000000 		.4byte	0xa6
 7394 0107 03       		.uleb128 0x3
 7395 0108 08       		.byte	0x8
 7396 0109 04       		.byte	0x4
 7397 010a 4E110000 		.4byte	.LASF23
 7398 010e 06       		.uleb128 0x6
 7399 010f 08       		.byte	0x8
 7400 0110 01       		.byte	0x1
 7401 0111 2E       		.byte	0x2e
 7402 0112 5F010000 		.4byte	0x15f
 7403 0116 07       		.uleb128 0x7
 7404 0117 2C000000 		.4byte	.LASF24
 7405 011b 01       		.byte	0x1
 7406 011c 30       		.byte	0x30
 7407 011d CE000000 		.4byte	0xce
ARM GAS  C:\Users\tmj32\AppData\Local\Temp\ccI3WYuM.s 			page 188


 7408 0121 00       		.byte	0
 7409 0122 07       		.uleb128 0x7
 7410 0123 42170000 		.4byte	.LASF25
 7411 0127 01       		.byte	0x1
 7412 0128 31       		.byte	0x31
 7413 0129 B8000000 		.4byte	0xb8
 7414 012d 02       		.byte	0x2
 7415 012e 07       		.uleb128 0x7
 7416 012f 02170000 		.4byte	.LASF26
 7417 0133 01       		.byte	0x1
 7418 0134 32       		.byte	0x32
 7419 0135 B8000000 		.4byte	0xb8
 7420 0139 03       		.byte	0x3
 7421 013a 07       		.uleb128 0x7
 7422 013b 6D060000 		.4byte	.LASF27
 7423 013f 01       		.byte	0x1
 7424 0140 33       		.byte	0x33
 7425 0141 AD000000 		.4byte	0xad
 7426 0145 04       		.byte	0x4
 7427 0146 07       		.uleb128 0x7
 7428 0147 73060000 		.4byte	.LASF28
 7429 014b 01       		.byte	0x1
 7430 014c 34       		.byte	0x34
 7431 014d AD000000 		.4byte	0xad
 7432 0151 05       		.byte	0x5
 7433 0152 08       		.uleb128 0x8
 7434 0153 62707000 		.ascii	"bpp\000"
 7435 0157 01       		.byte	0x1
 7436 0158 35       		.byte	0x35
 7437 0159 B8000000 		.4byte	0xb8
 7438 015d 06       		.byte	0x6
 7439 015e 00       		.byte	0
 7440 015f 02       		.uleb128 0x2
 7441 0160 34100000 		.4byte	.LASF29
 7442 0164 01       		.byte	0x1
 7443 0165 36       		.byte	0x36
 7444 0166 0E010000 		.4byte	0x10e
 7445 016a 09       		.uleb128 0x9
 7446 016b 311C0000 		.4byte	.LASF62
 7447 016f 10       		.byte	0x10
 7448 0170 01       		.byte	0x1
 7449 0171 44       		.byte	0x44
 7450 0172 C2010000 		.4byte	0x1c2
 7451 0176 07       		.uleb128 0x7
 7452 0177 4F1B0000 		.4byte	.LASF30
 7453 017b 01       		.byte	0x1
 7454 017c 47       		.byte	0x47
 7455 017d F8010000 		.4byte	0x1f8
 7456 0181 00       		.byte	0
 7457 0182 07       		.uleb128 0x7
 7458 0183 B9050000 		.4byte	.LASF31
 7459 0187 01       		.byte	0x1
 7460 0188 4A       		.byte	0x4a
 7461 0189 1D020000 		.4byte	0x21d
 7462 018d 04       		.byte	0x4
 7463 018e 07       		.uleb128 0x7
 7464 018f 99010000 		.4byte	.LASF32
ARM GAS  C:\Users\tmj32\AppData\Local\Temp\ccI3WYuM.s 			page 189


 7465 0193 01       		.byte	0x1
 7466 0194 4D       		.byte	0x4d
 7467 0195 B8000000 		.4byte	0xb8
 7468 0199 08       		.byte	0x8
 7469 019a 07       		.uleb128 0x7
 7470 019b 5B170000 		.4byte	.LASF33
 7471 019f 01       		.byte	0x1
 7472 01a0 4E       		.byte	0x4e
 7473 01a1 AD000000 		.4byte	0xad
 7474 01a5 09       		.byte	0x9
 7475 01a6 0A       		.uleb128 0xa
 7476 01a7 C0110000 		.4byte	.LASF72
 7477 01ab 01       		.byte	0x1
 7478 01ac 4F       		.byte	0x4f
 7479 01ad B8000000 		.4byte	0xb8
 7480 01b1 01       		.byte	0x1
 7481 01b2 02       		.byte	0x2
 7482 01b3 06       		.byte	0x6
 7483 01b4 0A       		.byte	0xa
 7484 01b5 08       		.uleb128 0x8
 7485 01b6 64736300 		.ascii	"dsc\000"
 7486 01ba 01       		.byte	0x1
 7487 01bb 50       		.byte	0x50
 7488 01bc FA000000 		.4byte	0xfa
 7489 01c0 0C       		.byte	0xc
 7490 01c1 00       		.byte	0
 7491 01c2 0B       		.uleb128 0xb
 7492 01c3 E0010000 		.4byte	0x1e0
 7493 01c7 E0010000 		.4byte	0x1e0
 7494 01cb 0C       		.uleb128 0xc
 7495 01cc E7010000 		.4byte	0x1e7
 7496 01d0 0C       		.uleb128 0xc
 7497 01d1 F2010000 		.4byte	0x1f2
 7498 01d5 0C       		.uleb128 0xc
 7499 01d6 E4000000 		.4byte	0xe4
 7500 01da 0C       		.uleb128 0xc
 7501 01db E4000000 		.4byte	0xe4
 7502 01df 00       		.byte	0
 7503 01e0 03       		.uleb128 0x3
 7504 01e1 01       		.byte	0x1
 7505 01e2 02       		.byte	0x2
 7506 01e3 99060000 		.4byte	.LASF34
 7507 01e7 0D       		.uleb128 0xd
 7508 01e8 04       		.byte	0x4
 7509 01e9 ED010000 		.4byte	0x1ed
 7510 01ed 0E       		.uleb128 0xe
 7511 01ee 6A010000 		.4byte	0x16a
 7512 01f2 0D       		.uleb128 0xd
 7513 01f3 04       		.byte	0x4
 7514 01f4 5F010000 		.4byte	0x15f
 7515 01f8 0D       		.uleb128 0xd
 7516 01f9 04       		.byte	0x4
 7517 01fa C2010000 		.4byte	0x1c2
 7518 01fe 0B       		.uleb128 0xb
 7519 01ff 12020000 		.4byte	0x212
 7520 0203 12020000 		.4byte	0x212
 7521 0207 0C       		.uleb128 0xc
ARM GAS  C:\Users\tmj32\AppData\Local\Temp\ccI3WYuM.s 			page 190


 7522 0208 E7010000 		.4byte	0x1e7
 7523 020c 0C       		.uleb128 0xc
 7524 020d E4000000 		.4byte	0xe4
 7525 0211 00       		.byte	0
 7526 0212 0D       		.uleb128 0xd
 7527 0213 04       		.byte	0x4
 7528 0214 18020000 		.4byte	0x218
 7529 0218 0E       		.uleb128 0xe
 7530 0219 B8000000 		.4byte	0xb8
 7531 021d 0D       		.uleb128 0xd
 7532 021e 04       		.byte	0x4
 7533 021f FE010000 		.4byte	0x1fe
 7534 0223 02       		.uleb128 0x2
 7535 0224 2F1A0000 		.4byte	.LASF35
 7536 0228 01       		.byte	0x1
 7537 0229 56       		.byte	0x56
 7538 022a 6A010000 		.4byte	0x16a
 7539 022e 0F       		.uleb128 0xf
 7540 022f 01       		.byte	0x1
 7541 0230 42000000 		.4byte	0x42
 7542 0234 0C       		.byte	0xc
 7543 0235 3E       		.byte	0x3e
 7544 0236 89020000 		.4byte	0x289
 7545 023a 10       		.uleb128 0x10
 7546 023b AB0E0000 		.4byte	.LASF36
 7547 023f 00       		.byte	0
 7548 0240 10       		.uleb128 0x10
 7549 0241 D10B0000 		.4byte	.LASF37
 7550 0245 00       		.byte	0
 7551 0246 10       		.uleb128 0x10
 7552 0247 13140000 		.4byte	.LASF38
 7553 024b 19       		.byte	0x19
 7554 024c 10       		.uleb128 0x10
 7555 024d AE150000 		.4byte	.LASF39
 7556 0251 33       		.byte	0x33
 7557 0252 10       		.uleb128 0x10
 7558 0253 C9160000 		.4byte	.LASF40
 7559 0257 4C       		.byte	0x4c
 7560 0258 10       		.uleb128 0x10
 7561 0259 94170000 		.4byte	.LASF41
 7562 025d 66       		.byte	0x66
 7563 025e 10       		.uleb128 0x10
 7564 025f CF180000 		.4byte	.LASF42
 7565 0263 7F       		.byte	0x7f
 7566 0264 10       		.uleb128 0x10
 7567 0265 D7190000 		.4byte	.LASF43
 7568 0269 99       		.byte	0x99
 7569 026a 10       		.uleb128 0x10
 7570 026b 891A0000 		.4byte	.LASF44
 7571 026f B2       		.byte	0xb2
 7572 0270 10       		.uleb128 0x10
 7573 0271 AD1B0000 		.4byte	.LASF45
 7574 0275 CC       		.byte	0xcc
 7575 0276 10       		.uleb128 0x10
 7576 0277 BB1C0000 		.4byte	.LASF46
 7577 027b E5       		.byte	0xe5
 7578 027c 10       		.uleb128 0x10
ARM GAS  C:\Users\tmj32\AppData\Local\Temp\ccI3WYuM.s 			page 191


 7579 027d D1100000 		.4byte	.LASF47
 7580 0281 FF       		.byte	0xff
 7581 0282 10       		.uleb128 0x10
 7582 0283 D8110000 		.4byte	.LASF48
 7583 0287 FF       		.byte	0xff
 7584 0288 00       		.byte	0
 7585 0289 06       		.uleb128 0x6
 7586 028a 04       		.byte	0x4
 7587 028b 0C       		.byte	0xc
 7588 028c F3       		.byte	0xf3
 7589 028d C2020000 		.4byte	0x2c2
 7590 0291 07       		.uleb128 0x7
 7591 0292 CF050000 		.4byte	.LASF49
 7592 0296 0C       		.byte	0xc
 7593 0297 F5       		.byte	0xf5
 7594 0298 B8000000 		.4byte	0xb8
 7595 029c 00       		.byte	0
 7596 029d 07       		.uleb128 0x7
 7597 029e 291A0000 		.4byte	.LASF50
 7598 02a2 0C       		.byte	0xc
 7599 02a3 F6       		.byte	0xf6
 7600 02a4 B8000000 		.4byte	0xb8
 7601 02a8 01       		.byte	0x1
 7602 02a9 08       		.uleb128 0x8
 7603 02aa 72656400 		.ascii	"red\000"
 7604 02ae 0C       		.byte	0xc
 7605 02af F7       		.byte	0xf7
 7606 02b0 B8000000 		.4byte	0xb8
 7607 02b4 02       		.byte	0x2
 7608 02b5 07       		.uleb128 0x7
 7609 02b6 8F030000 		.4byte	.LASF51
 7610 02ba 0C       		.byte	0xc
 7611 02bb F8       		.byte	0xf8
 7612 02bc B8000000 		.4byte	0xb8
 7613 02c0 03       		.byte	0x3
 7614 02c1 00       		.byte	0
 7615 02c2 11       		.uleb128 0x11
 7616 02c3 04       		.byte	0x4
 7617 02c4 0C       		.byte	0xc
 7618 02c5 F1       		.byte	0xf1
 7619 02c6 E0020000 		.4byte	0x2e0
 7620 02ca 12       		.uleb128 0x12
 7621 02cb 636800   		.ascii	"ch\000"
 7622 02ce 0C       		.byte	0xc
 7623 02cf F9       		.byte	0xf9
 7624 02d0 89020000 		.4byte	0x289
 7625 02d4 13       		.uleb128 0x13
 7626 02d5 A2150000 		.4byte	.LASF52
 7627 02d9 0C       		.byte	0xc
 7628 02da FA       		.byte	0xfa
 7629 02db E4000000 		.4byte	0xe4
 7630 02df 00       		.byte	0
 7631 02e0 02       		.uleb128 0x2
 7632 02e1 58000000 		.4byte	.LASF53
 7633 02e5 0C       		.byte	0xc
 7634 02e6 FB       		.byte	0xfb
 7635 02e7 C2020000 		.4byte	0x2c2
ARM GAS  C:\Users\tmj32\AppData\Local\Temp\ccI3WYuM.s 			page 192


 7636 02eb 14       		.uleb128 0x14
 7637 02ec 75130000 		.4byte	.LASF54
 7638 02f0 0C       		.byte	0xc
 7639 02f1 0801     		.2byte	0x108
 7640 02f3 E0020000 		.4byte	0x2e0
 7641 02f7 14       		.uleb128 0x14
 7642 02f8 F3000000 		.4byte	.LASF55
 7643 02fc 0C       		.byte	0xc
 7644 02fd 0D01     		.2byte	0x10d
 7645 02ff B8000000 		.4byte	0xb8
 7646 0303 03       		.uleb128 0x3
 7647 0304 04       		.byte	0x4
 7648 0305 07       		.byte	0x7
 7649 0306 3C000000 		.4byte	.LASF56
 7650 030a 0D       		.uleb128 0xd
 7651 030b 04       		.byte	0x4
 7652 030c 10030000 		.4byte	0x310
 7653 0310 03       		.uleb128 0x3
 7654 0311 01       		.byte	0x1
 7655 0312 08       		.byte	0x8
 7656 0313 F2060000 		.4byte	.LASF57
 7657 0317 0D       		.uleb128 0xd
 7658 0318 04       		.byte	0x4
 7659 0319 1D030000 		.4byte	0x31d
 7660 031d 0E       		.uleb128 0xe
 7661 031e 10030000 		.4byte	0x310
 7662 0322 15       		.uleb128 0x15
 7663 0323 10030000 		.4byte	0x310
 7664 0327 32030000 		.4byte	0x332
 7665 032b 16       		.uleb128 0x16
 7666 032c 03030000 		.4byte	0x303
 7667 0330 07       		.byte	0x7
 7668 0331 00       		.byte	0
 7669 0332 06       		.uleb128 0x6
 7670 0333 04       		.byte	0x4
 7671 0334 02       		.byte	0x2
 7672 0335 2A       		.byte	0x2a
 7673 0336 4F030000 		.4byte	0x34f
 7674 033a 08       		.uleb128 0x8
 7675 033b 7800     		.ascii	"x\000"
 7676 033d 02       		.byte	0x2
 7677 033e 2C       		.byte	0x2c
 7678 033f EF000000 		.4byte	0xef
 7679 0343 00       		.byte	0
 7680 0344 08       		.uleb128 0x8
 7681 0345 7900     		.ascii	"y\000"
 7682 0347 02       		.byte	0x2
 7683 0348 2D       		.byte	0x2d
 7684 0349 EF000000 		.4byte	0xef
 7685 034d 02       		.byte	0x2
 7686 034e 00       		.byte	0
 7687 034f 02       		.uleb128 0x2
 7688 0350 4A010000 		.4byte	.LASF58
 7689 0354 02       		.byte	0x2
 7690 0355 2E       		.byte	0x2e
 7691 0356 32030000 		.4byte	0x332
 7692 035a 06       		.uleb128 0x6
ARM GAS  C:\Users\tmj32\AppData\Local\Temp\ccI3WYuM.s 			page 193


 7693 035b 08       		.byte	0x8
 7694 035c 02       		.byte	0x2
 7695 035d 31       		.byte	0x31
 7696 035e 8F030000 		.4byte	0x38f
 7697 0362 08       		.uleb128 0x8
 7698 0363 783100   		.ascii	"x1\000"
 7699 0366 02       		.byte	0x2
 7700 0367 33       		.byte	0x33
 7701 0368 EF000000 		.4byte	0xef
 7702 036c 00       		.byte	0
 7703 036d 08       		.uleb128 0x8
 7704 036e 793100   		.ascii	"y1\000"
 7705 0371 02       		.byte	0x2
 7706 0372 34       		.byte	0x34
 7707 0373 EF000000 		.4byte	0xef
 7708 0377 02       		.byte	0x2
 7709 0378 08       		.uleb128 0x8
 7710 0379 783200   		.ascii	"x2\000"
 7711 037c 02       		.byte	0x2
 7712 037d 35       		.byte	0x35
 7713 037e EF000000 		.4byte	0xef
 7714 0382 04       		.byte	0x4
 7715 0383 08       		.uleb128 0x8
 7716 0384 793200   		.ascii	"y2\000"
 7717 0387 02       		.byte	0x2
 7718 0388 36       		.byte	0x36
 7719 0389 EF000000 		.4byte	0xef
 7720 038d 06       		.byte	0x6
 7721 038e 00       		.byte	0
 7722 038f 02       		.uleb128 0x2
 7723 0390 9D090000 		.4byte	.LASF59
 7724 0394 02       		.byte	0x2
 7725 0395 37       		.byte	0x37
 7726 0396 5A030000 		.4byte	0x35a
 7727 039a 02       		.uleb128 0x2
 7728 039b E9070000 		.4byte	.LASF60
 7729 039f 0D       		.byte	0xd
 7730 03a0 2B       		.byte	0x2b
 7731 03a1 EF000000 		.4byte	0xef
 7732 03a5 02       		.uleb128 0x2
 7733 03a6 0B070000 		.4byte	.LASF61
 7734 03aa 0D       		.byte	0xd
 7735 03ab 37       		.byte	0x37
 7736 03ac B0030000 		.4byte	0x3b0
 7737 03b0 0D       		.uleb128 0xd
 7738 03b1 04       		.byte	0x4
 7739 03b2 B6030000 		.4byte	0x3b6
 7740 03b6 17       		.uleb128 0x17
 7741 03b7 C6030000 		.4byte	0x3c6
 7742 03bb 0C       		.uleb128 0xc
 7743 03bc FA000000 		.4byte	0xfa
 7744 03c0 0C       		.uleb128 0xc
 7745 03c1 9A030000 		.4byte	0x39a
 7746 03c5 00       		.byte	0
 7747 03c6 0D       		.uleb128 0xd
 7748 03c7 04       		.byte	0x4
 7749 03c8 CC030000 		.4byte	0x3cc
ARM GAS  C:\Users\tmj32\AppData\Local\Temp\ccI3WYuM.s 			page 194


 7750 03cc 09       		.uleb128 0x9
 7751 03cd 541C0000 		.4byte	.LASF63
 7752 03d1 24       		.byte	0x24
 7753 03d2 0D       		.byte	0xd
 7754 03d3 44       		.byte	0x44
 7755 03d4 8D040000 		.4byte	0x48d
 7756 03d8 08       		.uleb128 0x8
 7757 03d9 76617200 		.ascii	"var\000"
 7758 03dd 0D       		.byte	0xd
 7759 03de 46       		.byte	0x46
 7760 03df FA000000 		.4byte	0xfa
 7761 03e3 00       		.byte	0
 7762 03e4 07       		.uleb128 0x7
 7763 03e5 DC130000 		.4byte	.LASF64
 7764 03e9 0D       		.byte	0xd
 7765 03ea 47       		.byte	0x47
 7766 03eb A5030000 		.4byte	0x3a5
 7767 03ef 04       		.byte	0x4
 7768 03f0 07       		.uleb128 0x7
 7769 03f1 A5010000 		.4byte	.LASF65
 7770 03f5 0D       		.byte	0xd
 7771 03f6 48       		.byte	0x48
 7772 03f7 8D040000 		.4byte	0x48d
 7773 03fb 08       		.byte	0x8
 7774 03fc 07       		.uleb128 0x7
 7775 03fd CB080000 		.4byte	.LASF66
 7776 0401 0D       		.byte	0xd
 7777 0402 49       		.byte	0x49
 7778 0403 B8040000 		.4byte	0x4b8
 7779 0407 0C       		.byte	0xc
 7780 0408 07       		.uleb128 0x7
 7781 0409 52000000 		.4byte	.LASF67
 7782 040d 0D       		.byte	0xd
 7783 040e 4A       		.byte	0x4a
 7784 040f D9000000 		.4byte	0xd9
 7785 0413 10       		.byte	0x10
 7786 0414 08       		.uleb128 0x8
 7787 0415 656E6400 		.ascii	"end\000"
 7788 0419 0D       		.byte	0xd
 7789 041a 4B       		.byte	0x4b
 7790 041b D9000000 		.4byte	0xd9
 7791 041f 14       		.byte	0x14
 7792 0420 07       		.uleb128 0x7
 7793 0421 BE150000 		.4byte	.LASF68
 7794 0425 0D       		.byte	0xd
 7795 0426 4C       		.byte	0x4c
 7796 0427 CE000000 		.4byte	0xce
 7797 042b 18       		.byte	0x18
 7798 042c 07       		.uleb128 0x7
 7799 042d 2E190000 		.4byte	.LASF69
 7800 0431 0D       		.byte	0xd
 7801 0432 4D       		.byte	0x4d
 7802 0433 C3000000 		.4byte	0xc3
 7803 0437 1A       		.byte	0x1a
 7804 0438 07       		.uleb128 0x7
 7805 0439 F9190000 		.4byte	.LASF70
 7806 043d 0D       		.byte	0xd
ARM GAS  C:\Users\tmj32\AppData\Local\Temp\ccI3WYuM.s 			page 195


 7807 043e 4E       		.byte	0x4e
 7808 043f CE000000 		.4byte	0xce
 7809 0443 1C       		.byte	0x1c
 7810 0444 07       		.uleb128 0x7
 7811 0445 3C040000 		.4byte	.LASF71
 7812 0449 0D       		.byte	0xd
 7813 044a 4F       		.byte	0x4f
 7814 044b CE000000 		.4byte	0xce
 7815 044f 1E       		.byte	0x1e
 7816 0450 0A       		.uleb128 0xa
 7817 0451 52170000 		.4byte	.LASF73
 7818 0455 0D       		.byte	0xd
 7819 0456 54       		.byte	0x54
 7820 0457 B8000000 		.4byte	0xb8
 7821 045b 01       		.byte	0x1
 7822 045c 01       		.byte	0x1
 7823 045d 07       		.byte	0x7
 7824 045e 20       		.byte	0x20
 7825 045f 0A       		.uleb128 0xa
 7826 0460 EC000000 		.4byte	.LASF74
 7827 0464 0D       		.byte	0xd
 7828 0465 55       		.byte	0x55
 7829 0466 B8000000 		.4byte	0xb8
 7830 046a 01       		.byte	0x1
 7831 046b 01       		.byte	0x1
 7832 046c 06       		.byte	0x6
 7833 046d 20       		.byte	0x20
 7834 046e 0A       		.uleb128 0xa
 7835 046f 291B0000 		.4byte	.LASF75
 7836 0473 0D       		.byte	0xd
 7837 0474 57       		.byte	0x57
 7838 0475 B8000000 		.4byte	0xb8
 7839 0479 01       		.byte	0x1
 7840 047a 01       		.byte	0x1
 7841 047b 05       		.byte	0x5
 7842 047c 20       		.byte	0x20
 7843 047d 0A       		.uleb128 0xa
 7844 047e C6120000 		.4byte	.LASF76
 7845 0482 0D       		.byte	0xd
 7846 0483 58       		.byte	0x58
 7847 0484 E4000000 		.4byte	0xe4
 7848 0488 04       		.byte	0x4
 7849 0489 01       		.byte	0x1
 7850 048a 1C       		.byte	0x1c
 7851 048b 20       		.byte	0x20
 7852 048c 00       		.byte	0
 7853 048d 02       		.uleb128 0x2
 7854 048e 4C0F0000 		.4byte	.LASF77
 7855 0492 0D       		.byte	0xd
 7856 0493 3E       		.byte	0x3e
 7857 0494 98040000 		.4byte	0x498
 7858 0498 0D       		.uleb128 0xd
 7859 0499 04       		.byte	0x4
 7860 049a 9E040000 		.4byte	0x49e
 7861 049e 0B       		.uleb128 0xb
 7862 049f 9A030000 		.4byte	0x39a
 7863 04a3 AD040000 		.4byte	0x4ad
ARM GAS  C:\Users\tmj32\AppData\Local\Temp\ccI3WYuM.s 			page 196


 7864 04a7 0C       		.uleb128 0xc
 7865 04a8 AD040000 		.4byte	0x4ad
 7866 04ac 00       		.byte	0
 7867 04ad 0D       		.uleb128 0xd
 7868 04ae 04       		.byte	0x4
 7869 04af B3040000 		.4byte	0x4b3
 7870 04b3 0E       		.uleb128 0xe
 7871 04b4 CC030000 		.4byte	0x3cc
 7872 04b8 02       		.uleb128 0x2
 7873 04b9 3B0A0000 		.4byte	.LASF78
 7874 04bd 0D       		.byte	0xd
 7875 04be 41       		.byte	0x41
 7876 04bf C3040000 		.4byte	0x4c3
 7877 04c3 0D       		.uleb128 0xd
 7878 04c4 04       		.byte	0x4
 7879 04c5 C9040000 		.4byte	0x4c9
 7880 04c9 17       		.uleb128 0x17
 7881 04ca D4040000 		.4byte	0x4d4
 7882 04ce 0C       		.uleb128 0xc
 7883 04cf C6030000 		.4byte	0x3c6
 7884 04d3 00       		.byte	0
 7885 04d4 02       		.uleb128 0x2
 7886 04d5 440B0000 		.4byte	.LASF79
 7887 04d9 0D       		.byte	0xd
 7888 04da 59       		.byte	0x59
 7889 04db CC030000 		.4byte	0x3cc
 7890 04df 02       		.uleb128 0x2
 7891 04e0 851B0000 		.4byte	.LASF80
 7892 04e4 0E       		.byte	0xe
 7893 04e5 2C       		.byte	0x2c
 7894 04e6 B8000000 		.4byte	0xb8
 7895 04ea 02       		.uleb128 0x2
 7896 04eb 34160000 		.4byte	.LASF81
 7897 04ef 0E       		.byte	0xe
 7898 04f0 33       		.byte	0x33
 7899 04f1 B8000000 		.4byte	0xb8
 7900 04f5 06       		.uleb128 0x6
 7901 04f6 08       		.byte	0x8
 7902 04f7 0E       		.byte	0xe
 7903 04f8 48       		.byte	0x48
 7904 04f9 2E050000 		.4byte	0x52e
 7905 04fd 07       		.uleb128 0x7
 7906 04fe B8150000 		.4byte	.LASF82
 7907 0502 0E       		.byte	0xe
 7908 0503 4A       		.byte	0x4a
 7909 0504 EB020000 		.4byte	0x2eb
 7910 0508 00       		.byte	0
 7911 0509 07       		.uleb128 0x7
 7912 050a D40D0000 		.4byte	.LASF83
 7913 050e 0E       		.byte	0xe
 7914 050f 4B       		.byte	0x4b
 7915 0510 EF000000 		.4byte	0xef
 7916 0514 04       		.byte	0x4
 7917 0515 07       		.uleb128 0x7
 7918 0516 D21A0000 		.4byte	.LASF84
 7919 051a 0E       		.byte	0xe
 7920 051b 4C       		.byte	0x4c
ARM GAS  C:\Users\tmj32\AppData\Local\Temp\ccI3WYuM.s 			page 197


 7921 051c DF040000 		.4byte	0x4df
 7922 0520 06       		.byte	0x6
 7923 0521 08       		.uleb128 0x8
 7924 0522 6F706100 		.ascii	"opa\000"
 7925 0526 0E       		.byte	0xe
 7926 0527 4D       		.byte	0x4d
 7927 0528 F7020000 		.4byte	0x2f7
 7928 052c 07       		.byte	0x7
 7929 052d 00       		.byte	0
 7930 052e 06       		.uleb128 0x6
 7931 052f 08       		.byte	0x8
 7932 0530 0E       		.byte	0xe
 7933 0531 51       		.byte	0x51
 7934 0532 5B050000 		.4byte	0x55b
 7935 0536 07       		.uleb128 0x7
 7936 0537 B8150000 		.4byte	.LASF82
 7937 053b 0E       		.byte	0xe
 7938 053c 53       		.byte	0x53
 7939 053d EB020000 		.4byte	0x2eb
 7940 0541 00       		.byte	0
 7941 0542 07       		.uleb128 0x7
 7942 0543 D40D0000 		.4byte	.LASF83
 7943 0547 0E       		.byte	0xe
 7944 0548 54       		.byte	0x54
 7945 0549 EF000000 		.4byte	0xef
 7946 054d 04       		.byte	0x4
 7947 054e 07       		.uleb128 0x7
 7948 054f 8B020000 		.4byte	.LASF85
 7949 0553 0E       		.byte	0xe
 7950 0554 55       		.byte	0x55
 7951 0555 EA040000 		.4byte	0x4ea
 7952 0559 06       		.byte	0x6
 7953 055a 00       		.byte	0
 7954 055b 06       		.uleb128 0x6
 7955 055c 0A       		.byte	0xa
 7956 055d 0E       		.byte	0xe
 7957 055e 58       		.byte	0x58
 7958 055f A0050000 		.4byte	0x5a0
 7959 0563 08       		.uleb128 0x8
 7960 0564 746F7000 		.ascii	"top\000"
 7961 0568 0E       		.byte	0xe
 7962 0569 5A       		.byte	0x5a
 7963 056a EF000000 		.4byte	0xef
 7964 056e 00       		.byte	0
 7965 056f 07       		.uleb128 0x7
 7966 0570 EC0D0000 		.4byte	.LASF86
 7967 0574 0E       		.byte	0xe
 7968 0575 5B       		.byte	0x5b
 7969 0576 EF000000 		.4byte	0xef
 7970 057a 02       		.byte	0x2
 7971 057b 07       		.uleb128 0x7
 7972 057c 200A0000 		.4byte	.LASF87
 7973 0580 0E       		.byte	0xe
 7974 0581 5C       		.byte	0x5c
 7975 0582 EF000000 		.4byte	0xef
 7976 0586 04       		.byte	0x4
 7977 0587 07       		.uleb128 0x7
ARM GAS  C:\Users\tmj32\AppData\Local\Temp\ccI3WYuM.s 			page 198


 7978 0588 0B0D0000 		.4byte	.LASF88
 7979 058c 0E       		.byte	0xe
 7980 058d 5D       		.byte	0x5d
 7981 058e EF000000 		.4byte	0xef
 7982 0592 06       		.byte	0x6
 7983 0593 07       		.uleb128 0x7
 7984 0594 240B0000 		.4byte	.LASF89
 7985 0598 0E       		.byte	0xe
 7986 0599 5E       		.byte	0x5e
 7987 059a EF000000 		.4byte	0xef
 7988 059e 08       		.byte	0x8
 7989 059f 00       		.byte	0
 7990 05a0 06       		.uleb128 0x6
 7991 05a1 28       		.byte	0x28
 7992 05a2 0E       		.byte	0xe
 7993 05a3 41       		.byte	0x41
 7994 05a4 FD050000 		.4byte	0x5fd
 7995 05a8 07       		.uleb128 0x7
 7996 05a9 95120000 		.4byte	.LASF90
 7997 05ad 0E       		.byte	0xe
 7998 05ae 43       		.byte	0x43
 7999 05af EB020000 		.4byte	0x2eb
 8000 05b3 00       		.byte	0
 8001 05b4 07       		.uleb128 0x7
 8002 05b5 4D100000 		.4byte	.LASF91
 8003 05b9 0E       		.byte	0xe
 8004 05ba 44       		.byte	0x44
 8005 05bb EB020000 		.4byte	0x2eb
 8006 05bf 04       		.byte	0x4
 8007 05c0 07       		.uleb128 0x7
 8008 05c1 85010000 		.4byte	.LASF92
 8009 05c5 0E       		.byte	0xe
 8010 05c6 45       		.byte	0x45
 8011 05c7 EF000000 		.4byte	0xef
 8012 05cb 08       		.byte	0x8
 8013 05cc 08       		.uleb128 0x8
 8014 05cd 6F706100 		.ascii	"opa\000"
 8015 05d1 0E       		.byte	0xe
 8016 05d2 46       		.byte	0x46
 8017 05d3 F7020000 		.4byte	0x2f7
 8018 05d7 0A       		.byte	0xa
 8019 05d8 07       		.uleb128 0x7
 8020 05d9 421B0000 		.4byte	.LASF93
 8021 05dd 0E       		.byte	0xe
 8022 05de 4E       		.byte	0x4e
 8023 05df F5040000 		.4byte	0x4f5
 8024 05e3 0C       		.byte	0xc
 8025 05e4 07       		.uleb128 0x7
 8026 05e5 B8180000 		.4byte	.LASF94
 8027 05e9 0E       		.byte	0xe
 8028 05ea 56       		.byte	0x56
 8029 05eb 2E050000 		.4byte	0x52e
 8030 05ef 14       		.byte	0x14
 8031 05f0 07       		.uleb128 0x7
 8032 05f1 B8190000 		.4byte	.LASF95
 8033 05f5 0E       		.byte	0xe
 8034 05f6 5F       		.byte	0x5f
ARM GAS  C:\Users\tmj32\AppData\Local\Temp\ccI3WYuM.s 			page 199


 8035 05f7 5B050000 		.4byte	0x55b
 8036 05fb 1C       		.byte	0x1c
 8037 05fc 00       		.byte	0
 8038 05fd 06       		.uleb128 0x6
 8039 05fe 14       		.byte	0x14
 8040 05ff 0E       		.byte	0xe
 8041 0600 63       		.byte	0x63
 8042 0601 4E060000 		.4byte	0x64e
 8043 0605 07       		.uleb128 0x7
 8044 0606 B8150000 		.4byte	.LASF82
 8045 060a 0E       		.byte	0xe
 8046 060b 65       		.byte	0x65
 8047 060c EB020000 		.4byte	0x2eb
 8048 0610 00       		.byte	0
 8049 0611 07       		.uleb128 0x7
 8050 0612 001C0000 		.4byte	.LASF96
 8051 0616 0E       		.byte	0xe
 8052 0617 66       		.byte	0x66
 8053 0618 EB020000 		.4byte	0x2eb
 8054 061c 04       		.byte	0x4
 8055 061d 07       		.uleb128 0x7
 8056 061e A4160000 		.4byte	.LASF97
 8057 0622 0E       		.byte	0xe
 8058 0623 67       		.byte	0x67
 8059 0624 4E060000 		.4byte	0x64e
 8060 0628 08       		.byte	0x8
 8061 0629 07       		.uleb128 0x7
 8062 062a BC160000 		.4byte	.LASF98
 8063 062e 0E       		.byte	0xe
 8064 062f 68       		.byte	0x68
 8065 0630 EF000000 		.4byte	0xef
 8066 0634 0C       		.byte	0xc
 8067 0635 07       		.uleb128 0x7
 8068 0636 DB150000 		.4byte	.LASF99
 8069 063a 0E       		.byte	0xe
 8070 063b 69       		.byte	0x69
 8071 063c EF000000 		.4byte	0xef
 8072 0640 0E       		.byte	0xe
 8073 0641 08       		.uleb128 0x8
 8074 0642 6F706100 		.ascii	"opa\000"
 8075 0646 0E       		.byte	0xe
 8076 0647 6A       		.byte	0x6a
 8077 0648 F7020000 		.4byte	0x2f7
 8078 064c 10       		.byte	0x10
 8079 064d 00       		.byte	0
 8080 064e 0D       		.uleb128 0xd
 8081 064f 04       		.byte	0x4
 8082 0650 54060000 		.4byte	0x654
 8083 0654 0E       		.uleb128 0xe
 8084 0655 23020000 		.4byte	0x223
 8085 0659 06       		.uleb128 0x6
 8086 065a 08       		.byte	0x8
 8087 065b 0E       		.byte	0xe
 8088 065c 6E       		.byte	0x6e
 8089 065d 86060000 		.4byte	0x686
 8090 0661 07       		.uleb128 0x7
 8091 0662 B8150000 		.4byte	.LASF82
ARM GAS  C:\Users\tmj32\AppData\Local\Temp\ccI3WYuM.s 			page 200


 8092 0666 0E       		.byte	0xe
 8093 0667 70       		.byte	0x70
 8094 0668 EB020000 		.4byte	0x2eb
 8095 066c 00       		.byte	0
 8096 066d 07       		.uleb128 0x7
 8097 066e 19010000 		.4byte	.LASF100
 8098 0672 0E       		.byte	0xe
 8099 0673 71       		.byte	0x71
 8100 0674 F7020000 		.4byte	0x2f7
 8101 0678 04       		.byte	0x4
 8102 0679 08       		.uleb128 0x8
 8103 067a 6F706100 		.ascii	"opa\000"
 8104 067e 0E       		.byte	0xe
 8105 067f 72       		.byte	0x72
 8106 0680 F7020000 		.4byte	0x2f7
 8107 0684 05       		.byte	0x5
 8108 0685 00       		.byte	0
 8109 0686 06       		.uleb128 0x6
 8110 0687 08       		.byte	0x8
 8111 0688 0E       		.byte	0xe
 8112 0689 76       		.byte	0x76
 8113 068a C2060000 		.4byte	0x6c2
 8114 068e 07       		.uleb128 0x7
 8115 068f B8150000 		.4byte	.LASF82
 8116 0693 0E       		.byte	0xe
 8117 0694 78       		.byte	0x78
 8118 0695 EB020000 		.4byte	0x2eb
 8119 0699 00       		.byte	0
 8120 069a 07       		.uleb128 0x7
 8121 069b D40D0000 		.4byte	.LASF83
 8122 069f 0E       		.byte	0xe
 8123 06a0 79       		.byte	0x79
 8124 06a1 EF000000 		.4byte	0xef
 8125 06a5 04       		.byte	0x4
 8126 06a6 08       		.uleb128 0x8
 8127 06a7 6F706100 		.ascii	"opa\000"
 8128 06ab 0E       		.byte	0xe
 8129 06ac 7A       		.byte	0x7a
 8130 06ad F7020000 		.4byte	0x2f7
 8131 06b1 06       		.byte	0x6
 8132 06b2 0A       		.uleb128 0xa
 8133 06b3 3A090000 		.4byte	.LASF101
 8134 06b7 0E       		.byte	0xe
 8135 06b8 7B       		.byte	0x7b
 8136 06b9 B8000000 		.4byte	0xb8
 8137 06bd 01       		.byte	0x1
 8138 06be 01       		.byte	0x1
 8139 06bf 07       		.byte	0x7
 8140 06c0 07       		.byte	0x7
 8141 06c1 00       		.byte	0
 8142 06c2 06       		.uleb128 0x6
 8143 06c3 50       		.byte	0x50
 8144 06c4 0E       		.byte	0xe
 8145 06c5 3C       		.byte	0x3c
 8146 06c6 0A070000 		.4byte	0x70a
 8147 06ca 0A       		.uleb128 0xa
 8148 06cb C70E0000 		.4byte	.LASF102
ARM GAS  C:\Users\tmj32\AppData\Local\Temp\ccI3WYuM.s 			page 201


 8149 06cf 0E       		.byte	0xe
 8150 06d0 3E       		.byte	0x3e
 8151 06d1 B8000000 		.4byte	0xb8
 8152 06d5 01       		.byte	0x1
 8153 06d6 01       		.byte	0x1
 8154 06d7 07       		.byte	0x7
 8155 06d8 00       		.byte	0
 8156 06d9 07       		.uleb128 0x7
 8157 06da 32070000 		.4byte	.LASF103
 8158 06de 0E       		.byte	0xe
 8159 06df 60       		.byte	0x60
 8160 06e0 A0050000 		.4byte	0x5a0
 8161 06e4 04       		.byte	0x4
 8162 06e5 07       		.uleb128 0x7
 8163 06e6 D4080000 		.4byte	.LASF104
 8164 06ea 0E       		.byte	0xe
 8165 06eb 6B       		.byte	0x6b
 8166 06ec FD050000 		.4byte	0x5fd
 8167 06f0 2C       		.byte	0x2c
 8168 06f1 07       		.uleb128 0x7
 8169 06f2 34090000 		.4byte	.LASF105
 8170 06f6 0E       		.byte	0xe
 8171 06f7 73       		.byte	0x73
 8172 06f8 59060000 		.4byte	0x659
 8173 06fc 40       		.byte	0x40
 8174 06fd 07       		.uleb128 0x7
 8175 06fe B10B0000 		.4byte	.LASF106
 8176 0702 0E       		.byte	0xe
 8177 0703 7C       		.byte	0x7c
 8178 0704 86060000 		.4byte	0x686
 8179 0708 48       		.byte	0x48
 8180 0709 00       		.byte	0
 8181 070a 02       		.uleb128 0x2
 8182 070b 190B0000 		.4byte	.LASF107
 8183 070f 0E       		.byte	0xe
 8184 0710 84       		.byte	0x84
 8185 0711 C2060000 		.4byte	0x6c2
 8186 0715 0D       		.uleb128 0xd
 8187 0716 04       		.byte	0x4
 8188 0717 0A070000 		.4byte	0x70a
 8189 071b 0F       		.uleb128 0xf
 8190 071c 01       		.byte	0x1
 8191 071d 42000000 		.4byte	0x42
 8192 0721 0F       		.byte	0xf
 8193 0722 27       		.byte	0x27
 8194 0723 34070000 		.4byte	0x734
 8195 0727 10       		.uleb128 0x10
 8196 0728 6E020000 		.4byte	.LASF108
 8197 072c 00       		.byte	0
 8198 072d 10       		.uleb128 0x10
 8199 072e 1A130000 		.4byte	.LASF109
 8200 0732 01       		.byte	0x1
 8201 0733 00       		.byte	0
 8202 0734 02       		.uleb128 0x2
 8203 0735 2A110000 		.4byte	.LASF110
 8204 0739 0F       		.byte	0xf
 8205 073a 2C       		.byte	0x2c
ARM GAS  C:\Users\tmj32\AppData\Local\Temp\ccI3WYuM.s 			page 202


 8206 073b B8000000 		.4byte	0xb8
 8207 073f 02       		.uleb128 0x2
 8208 0740 18000000 		.4byte	.LASF111
 8209 0744 10       		.byte	0x10
 8210 0745 1E       		.byte	0x1e
 8211 0746 B8000000 		.4byte	0xb8
 8212 074a 06       		.uleb128 0x6
 8213 074b 0C       		.byte	0xc
 8214 074c 10       		.byte	0x10
 8215 074d 21       		.byte	0x21
 8216 074e 77070000 		.4byte	0x777
 8217 0752 07       		.uleb128 0x7
 8218 0753 5F1C0000 		.4byte	.LASF112
 8219 0757 10       		.byte	0x10
 8220 0758 23       		.byte	0x23
 8221 0759 E4000000 		.4byte	0xe4
 8222 075d 00       		.byte	0
 8223 075e 07       		.uleb128 0x7
 8224 075f 12050000 		.4byte	.LASF113
 8225 0763 10       		.byte	0x10
 8226 0764 24       		.byte	0x24
 8227 0765 77070000 		.4byte	0x777
 8228 0769 04       		.byte	0x4
 8229 076a 07       		.uleb128 0x7
 8230 076b B3000000 		.4byte	.LASF114
 8231 076f 10       		.byte	0x10
 8232 0770 25       		.byte	0x25
 8233 0771 77070000 		.4byte	0x777
 8234 0775 08       		.byte	0x8
 8235 0776 00       		.byte	0
 8236 0777 0D       		.uleb128 0xd
 8237 0778 04       		.byte	0x4
 8238 0779 3F070000 		.4byte	0x73f
 8239 077d 02       		.uleb128 0x2
 8240 077e 6B170000 		.4byte	.LASF115
 8241 0782 10       		.byte	0x10
 8242 0783 26       		.byte	0x26
 8243 0784 4A070000 		.4byte	0x74a
 8244 0788 02       		.uleb128 0x2
 8245 0789 5E090000 		.4byte	.LASF116
 8246 078d 11       		.byte	0x11
 8247 078e 30       		.byte	0x30
 8248 078f B8000000 		.4byte	0xb8
 8249 0793 02       		.uleb128 0x2
 8250 0794 0A1C0000 		.4byte	.LASF117
 8251 0798 12       		.byte	0x12
 8252 0799 2B       		.byte	0x2b
 8253 079a 9E070000 		.4byte	0x79e
 8254 079e 0D       		.uleb128 0xd
 8255 079f 04       		.byte	0x4
 8256 07a0 A4070000 		.4byte	0x7a4
 8257 07a4 17       		.uleb128 0x17
 8258 07a5 AF070000 		.4byte	0x7af
 8259 07a9 0C       		.uleb128 0xc
 8260 07aa AF070000 		.4byte	0x7af
 8261 07ae 00       		.byte	0
 8262 07af 0D       		.uleb128 0xd
ARM GAS  C:\Users\tmj32\AppData\Local\Temp\ccI3WYuM.s 			page 203


 8263 07b0 04       		.byte	0x4
 8264 07b1 B5070000 		.4byte	0x7b5
 8265 07b5 09       		.uleb128 0x9
 8266 07b6 78070000 		.4byte	.LASF118
 8267 07ba 14       		.byte	0x14
 8268 07bb 12       		.byte	0x12
 8269 07bc 3E       		.byte	0x3e
 8270 07bd 10080000 		.4byte	0x810
 8271 07c1 07       		.uleb128 0x7
 8272 07c2 34150000 		.4byte	.LASF119
 8273 07c6 12       		.byte	0x12
 8274 07c7 40       		.byte	0x40
 8275 07c8 E4000000 		.4byte	0xe4
 8276 07cc 00       		.byte	0
 8277 07cd 07       		.uleb128 0x7
 8278 07ce 40130000 		.4byte	.LASF120
 8279 07d2 12       		.byte	0x12
 8280 07d3 41       		.byte	0x41
 8281 07d4 E4000000 		.4byte	0xe4
 8282 07d8 04       		.byte	0x4
 8283 07d9 07       		.uleb128 0x7
 8284 07da 5D060000 		.4byte	.LASF121
 8285 07de 12       		.byte	0x12
 8286 07df 42       		.byte	0x42
 8287 07e0 93070000 		.4byte	0x793
 8288 07e4 08       		.byte	0x8
 8289 07e5 07       		.uleb128 0x7
 8290 07e6 0B1B0000 		.4byte	.LASF122
 8291 07ea 12       		.byte	0x12
 8292 07eb 44       		.byte	0x44
 8293 07ec FA000000 		.4byte	0xfa
 8294 07f0 0C       		.byte	0xc
 8295 07f1 0A       		.uleb128 0xa
 8296 07f2 03030000 		.4byte	.LASF123
 8297 07f6 12       		.byte	0x12
 8298 07f7 46       		.byte	0x46
 8299 07f8 B8000000 		.4byte	0xb8
 8300 07fc 01       		.byte	0x1
 8301 07fd 03       		.byte	0x3
 8302 07fe 05       		.byte	0x5
 8303 07ff 10       		.byte	0x10
 8304 0800 0A       		.uleb128 0xa
 8305 0801 1B100000 		.4byte	.LASF124
 8306 0805 12       		.byte	0x12
 8307 0806 47       		.byte	0x47
 8308 0807 B8000000 		.4byte	0xb8
 8309 080b 01       		.byte	0x1
 8310 080c 01       		.byte	0x1
 8311 080d 04       		.byte	0x4
 8312 080e 10       		.byte	0x10
 8313 080f 00       		.byte	0
 8314 0810 02       		.uleb128 0x2
 8315 0811 A1130000 		.4byte	.LASF125
 8316 0815 12       		.byte	0x12
 8317 0816 48       		.byte	0x48
 8318 0817 B5070000 		.4byte	0x7b5
 8319 081b 06       		.uleb128 0x6
ARM GAS  C:\Users\tmj32\AppData\Local\Temp\ccI3WYuM.s 			page 204


 8320 081c 1C       		.byte	0x1c
 8321 081d 13       		.byte	0x13
 8322 081e 2F       		.byte	0x2f
 8323 081f 6F080000 		.4byte	0x86f
 8324 0823 07       		.uleb128 0x7
 8325 0824 0A0E0000 		.4byte	.LASF126
 8326 0828 13       		.byte	0x13
 8327 0829 31       		.byte	0x31
 8328 082a FA000000 		.4byte	0xfa
 8329 082e 00       		.byte	0
 8330 082f 07       		.uleb128 0x7
 8331 0830 0F0E0000 		.4byte	.LASF127
 8332 0834 13       		.byte	0x13
 8333 0835 32       		.byte	0x32
 8334 0836 FA000000 		.4byte	0xfa
 8335 083a 04       		.byte	0x4
 8336 083b 07       		.uleb128 0x7
 8337 083c 46110000 		.4byte	.LASF128
 8338 0840 13       		.byte	0x13
 8339 0841 35       		.byte	0x35
 8340 0842 FA000000 		.4byte	0xfa
 8341 0846 08       		.byte	0x8
 8342 0847 07       		.uleb128 0x7
 8343 0848 5A110000 		.4byte	.LASF129
 8344 084c 13       		.byte	0x13
 8345 084d 36       		.byte	0x36
 8346 084e E4000000 		.4byte	0xe4
 8347 0852 0C       		.byte	0xc
 8348 0853 07       		.uleb128 0x7
 8349 0854 EB0A0000 		.4byte	.LASF130
 8350 0858 13       		.byte	0x13
 8351 0859 37       		.byte	0x37
 8352 085a 8F030000 		.4byte	0x38f
 8353 085e 10       		.byte	0x10
 8354 085f 0A       		.uleb128 0xa
 8355 0860 83080000 		.4byte	.LASF131
 8356 0864 13       		.byte	0x13
 8357 0865 38       		.byte	0x38
 8358 0866 6F080000 		.4byte	0x86f
 8359 086a 04       		.byte	0x4
 8360 086b 01       		.byte	0x1
 8361 086c 1F       		.byte	0x1f
 8362 086d 18       		.byte	0x18
 8363 086e 00       		.byte	0
 8364 086f 18       		.uleb128 0x18
 8365 0870 E4000000 		.4byte	0xe4
 8366 0874 02       		.uleb128 0x2
 8367 0875 D40C0000 		.4byte	.LASF132
 8368 0879 13       		.byte	0x13
 8369 087a 39       		.byte	0x39
 8370 087b 1B080000 		.4byte	0x81b
 8371 087f 09       		.uleb128 0x9
 8372 0880 260C0000 		.4byte	.LASF133
 8373 0884 20       		.byte	0x20
 8374 0885 13       		.byte	0x13
 8375 0886 3E       		.byte	0x3e
 8376 0887 FB080000 		.4byte	0x8fb
ARM GAS  C:\Users\tmj32\AppData\Local\Temp\ccI3WYuM.s 			page 205


 8377 088b 07       		.uleb128 0x7
 8378 088c 88050000 		.4byte	.LASF134
 8379 0890 13       		.byte	0x13
 8380 0891 41       		.byte	0x41
 8381 0892 EF000000 		.4byte	0xef
 8382 0896 00       		.byte	0
 8383 0897 07       		.uleb128 0x7
 8384 0898 95030000 		.4byte	.LASF135
 8385 089c 13       		.byte	0x13
 8386 089d 42       		.byte	0x42
 8387 089e EF000000 		.4byte	0xef
 8388 08a2 02       		.byte	0x2
 8389 08a3 07       		.uleb128 0x7
 8390 08a4 D3090000 		.4byte	.LASF136
 8391 08a8 13       		.byte	0x13
 8392 08a9 46       		.byte	0x46
 8393 08aa FB080000 		.4byte	0x8fb
 8394 08ae 04       		.byte	0x4
 8395 08af 0A       		.uleb128 0xa
 8396 08b0 6F040000 		.4byte	.LASF137
 8397 08b4 13       		.byte	0x13
 8398 08b5 4B       		.byte	0x4b
 8399 08b6 E4000000 		.4byte	0xe4
 8400 08ba 04       		.byte	0x4
 8401 08bb 01       		.byte	0x1
 8402 08bc 1F       		.byte	0x1f
 8403 08bd 08       		.byte	0x8
 8404 08be 07       		.uleb128 0x7
 8405 08bf 021B0000 		.4byte	.LASF138
 8406 08c3 13       		.byte	0x13
 8407 08c4 55       		.byte	0x55
 8408 08c5 2D090000 		.4byte	0x92d
 8409 08c9 0C       		.byte	0xc
 8410 08ca 07       		.uleb128 0x7
 8411 08cb 3B150000 		.4byte	.LASF139
 8412 08cf 13       		.byte	0x13
 8413 08d0 59       		.byte	0x59
 8414 08d1 49090000 		.4byte	0x949
 8415 08d5 10       		.byte	0x10
 8416 08d6 07       		.uleb128 0x7
 8417 08d7 6A050000 		.4byte	.LASF140
 8418 08db 13       		.byte	0x13
 8419 08dc 5E       		.byte	0x5e
 8420 08dd 7E090000 		.4byte	0x97e
 8421 08e1 14       		.byte	0x14
 8422 08e2 07       		.uleb128 0x7
 8423 08e3 7E1A0000 		.4byte	.LASF141
 8424 08e7 13       		.byte	0x13
 8425 08e8 63       		.byte	0x63
 8426 08e9 99090000 		.4byte	0x999
 8427 08ed 18       		.byte	0x18
 8428 08ee 07       		.uleb128 0x7
 8429 08ef 07000000 		.4byte	.LASF142
 8430 08f3 13       		.byte	0x13
 8431 08f4 71       		.byte	0x71
 8432 08f5 EB020000 		.4byte	0x2eb
 8433 08f9 1C       		.byte	0x1c
ARM GAS  C:\Users\tmj32\AppData\Local\Temp\ccI3WYuM.s 			page 206


 8434 08fa 00       		.byte	0
 8435 08fb 0D       		.uleb128 0xd
 8436 08fc 04       		.byte	0x4
 8437 08fd 74080000 		.4byte	0x874
 8438 0901 17       		.uleb128 0x17
 8439 0902 16090000 		.4byte	0x916
 8440 0906 0C       		.uleb128 0xc
 8441 0907 16090000 		.4byte	0x916
 8442 090b 0C       		.uleb128 0xc
 8443 090c 1C090000 		.4byte	0x91c
 8444 0910 0C       		.uleb128 0xc
 8445 0911 27090000 		.4byte	0x927
 8446 0915 00       		.byte	0
 8447 0916 0D       		.uleb128 0xd
 8448 0917 04       		.byte	0x4
 8449 0918 7F080000 		.4byte	0x87f
 8450 091c 0D       		.uleb128 0xd
 8451 091d 04       		.byte	0x4
 8452 091e 22090000 		.4byte	0x922
 8453 0922 0E       		.uleb128 0xe
 8454 0923 8F030000 		.4byte	0x38f
 8455 0927 0D       		.uleb128 0xd
 8456 0928 04       		.byte	0x4
 8457 0929 EB020000 		.4byte	0x2eb
 8458 092d 0D       		.uleb128 0xd
 8459 092e 04       		.byte	0x4
 8460 092f 01090000 		.4byte	0x901
 8461 0933 17       		.uleb128 0x17
 8462 0934 43090000 		.4byte	0x943
 8463 0938 0C       		.uleb128 0xc
 8464 0939 16090000 		.4byte	0x916
 8465 093d 0C       		.uleb128 0xc
 8466 093e 43090000 		.4byte	0x943
 8467 0942 00       		.byte	0
 8468 0943 0D       		.uleb128 0xd
 8469 0944 04       		.byte	0x4
 8470 0945 8F030000 		.4byte	0x38f
 8471 0949 0D       		.uleb128 0xd
 8472 094a 04       		.byte	0x4
 8473 094b 33090000 		.4byte	0x933
 8474 094f 17       		.uleb128 0x17
 8475 0950 78090000 		.4byte	0x978
 8476 0954 0C       		.uleb128 0xc
 8477 0955 16090000 		.4byte	0x916
 8478 0959 0C       		.uleb128 0xc
 8479 095a 78090000 		.4byte	0x978
 8480 095e 0C       		.uleb128 0xc
 8481 095f EF000000 		.4byte	0xef
 8482 0963 0C       		.uleb128 0xc
 8483 0964 EF000000 		.4byte	0xef
 8484 0968 0C       		.uleb128 0xc
 8485 0969 EF000000 		.4byte	0xef
 8486 096d 0C       		.uleb128 0xc
 8487 096e EB020000 		.4byte	0x2eb
 8488 0972 0C       		.uleb128 0xc
 8489 0973 F7020000 		.4byte	0x2f7
 8490 0977 00       		.byte	0
ARM GAS  C:\Users\tmj32\AppData\Local\Temp\ccI3WYuM.s 			page 207


 8491 0978 0D       		.uleb128 0xd
 8492 0979 04       		.byte	0x4
 8493 097a B8000000 		.4byte	0xb8
 8494 097e 0D       		.uleb128 0xd
 8495 097f 04       		.byte	0x4
 8496 0980 4F090000 		.4byte	0x94f
 8497 0984 17       		.uleb128 0x17
 8498 0985 99090000 		.4byte	0x999
 8499 0989 0C       		.uleb128 0xc
 8500 098a 16090000 		.4byte	0x916
 8501 098e 0C       		.uleb128 0xc
 8502 098f E4000000 		.4byte	0xe4
 8503 0993 0C       		.uleb128 0xc
 8504 0994 E4000000 		.4byte	0xe4
 8505 0998 00       		.byte	0
 8506 0999 0D       		.uleb128 0xd
 8507 099a 04       		.byte	0x4
 8508 099b 84090000 		.4byte	0x984
 8509 099f 02       		.uleb128 0x2
 8510 09a0 82190000 		.4byte	.LASF143
 8511 09a4 13       		.byte	0x13
 8512 09a5 77       		.byte	0x77
 8513 09a6 7F080000 		.4byte	0x87f
 8514 09aa 19       		.uleb128 0x19
 8515 09ab 84100000 		.4byte	.LASF144
 8516 09af 6401     		.2byte	0x164
 8517 09b1 13       		.byte	0x13
 8518 09b2 7F       		.byte	0x7f
 8519 09b3 360A0000 		.4byte	0xa36
 8520 09b7 07       		.uleb128 0x7
 8521 09b8 0A160000 		.4byte	.LASF145
 8522 09bc 13       		.byte	0x13
 8523 09bd 82       		.byte	0x82
 8524 09be 9F090000 		.4byte	0x99f
 8525 09c2 00       		.byte	0
 8526 09c3 07       		.uleb128 0x7
 8527 09c4 65040000 		.4byte	.LASF146
 8528 09c8 13       		.byte	0x13
 8529 09c9 85       		.byte	0x85
 8530 09ca 360A0000 		.4byte	0xa36
 8531 09ce 20       		.byte	0x20
 8532 09cf 07       		.uleb128 0x7
 8533 09d0 08030000 		.4byte	.LASF147
 8534 09d4 13       		.byte	0x13
 8535 09d5 88       		.byte	0x88
 8536 09d6 7D070000 		.4byte	0x77d
 8537 09da 24       		.byte	0x24
 8538 09db 07       		.uleb128 0x7
 8539 09dc E4000000 		.4byte	.LASF148
 8540 09e0 13       		.byte	0x13
 8541 09e1 89       		.byte	0x89
 8542 09e2 7E0B0000 		.4byte	0xb7e
 8543 09e6 30       		.byte	0x30
 8544 09e7 07       		.uleb128 0x7
 8545 09e8 0F060000 		.4byte	.LASF149
 8546 09ec 13       		.byte	0x13
 8547 09ed 8A       		.byte	0x8a
ARM GAS  C:\Users\tmj32\AppData\Local\Temp\ccI3WYuM.s 			page 208


 8548 09ee 7E0B0000 		.4byte	0xb7e
 8549 09f2 34       		.byte	0x34
 8550 09f3 07       		.uleb128 0x7
 8551 09f4 0D180000 		.4byte	.LASF150
 8552 09f8 13       		.byte	0x13
 8553 09f9 8B       		.byte	0x8b
 8554 09fa 7E0B0000 		.4byte	0xb7e
 8555 09fe 38       		.byte	0x38
 8556 09ff 07       		.uleb128 0x7
 8557 0a00 EF0F0000 		.4byte	.LASF151
 8558 0a04 13       		.byte	0x13
 8559 0a05 8E       		.byte	0x8e
 8560 0a06 840B0000 		.4byte	0xb84
 8561 0a0a 3C       		.byte	0x3c
 8562 0a0b 1A       		.uleb128 0x1a
 8563 0a0c C2060000 		.4byte	.LASF152
 8564 0a10 13       		.byte	0x13
 8565 0a11 8F       		.byte	0x8f
 8566 0a12 940B0000 		.4byte	0xb94
 8567 0a16 3C01     		.2byte	0x13c
 8568 0a18 1B       		.uleb128 0x1b
 8569 0a19 65170000 		.4byte	.LASF153
 8570 0a1d 13       		.byte	0x13
 8571 0a1e 90       		.byte	0x90
 8572 0a1f E4000000 		.4byte	0xe4
 8573 0a23 04       		.byte	0x4
 8574 0a24 0A       		.byte	0xa
 8575 0a25 16       		.byte	0x16
 8576 0a26 5C01     		.2byte	0x15c
 8577 0a28 1A       		.uleb128 0x1a
 8578 0a29 49040000 		.4byte	.LASF154
 8579 0a2d 13       		.byte	0x13
 8580 0a2e 93       		.byte	0x93
 8581 0a2f E4000000 		.4byte	0xe4
 8582 0a33 6001     		.2byte	0x160
 8583 0a35 00       		.byte	0
 8584 0a36 0D       		.uleb128 0xd
 8585 0a37 04       		.byte	0x4
 8586 0a38 10080000 		.4byte	0x810
 8587 0a3c 09       		.uleb128 0x9
 8588 0a3d 9A160000 		.4byte	.LASF155
 8589 0a41 40       		.byte	0x40
 8590 0a42 14       		.byte	0x14
 8591 0a43 BB       		.byte	0xbb
 8592 0a44 7E0B0000 		.4byte	0xb7e
 8593 0a48 08       		.uleb128 0x8
 8594 0a49 70617200 		.ascii	"par\000"
 8595 0a4d 14       		.byte	0x14
 8596 0a4e BD       		.byte	0xbd
 8597 0a4f 7E0B0000 		.4byte	0xb7e
 8598 0a53 00       		.byte	0
 8599 0a54 07       		.uleb128 0x7
 8600 0a55 F30D0000 		.4byte	.LASF156
 8601 0a59 14       		.byte	0x14
 8602 0a5a BE       		.byte	0xbe
 8603 0a5b 7D070000 		.4byte	0x77d
 8604 0a5f 04       		.byte	0x4
ARM GAS  C:\Users\tmj32\AppData\Local\Temp\ccI3WYuM.s 			page 209


 8605 0a60 07       		.uleb128 0x7
 8606 0a61 F8170000 		.4byte	.LASF157
 8607 0a65 14       		.byte	0x14
 8608 0a66 C0       		.byte	0xc0
 8609 0a67 8F030000 		.4byte	0x38f
 8610 0a6b 10       		.byte	0x10
 8611 0a6c 07       		.uleb128 0x7
 8612 0a6d 020D0000 		.4byte	.LASF158
 8613 0a71 14       		.byte	0x14
 8614 0a72 C2       		.byte	0xc2
 8615 0a73 940F0000 		.4byte	0xf94
 8616 0a77 18       		.byte	0x18
 8617 0a78 07       		.uleb128 0x7
 8618 0a79 CD190000 		.4byte	.LASF159
 8619 0a7d 14       		.byte	0x14
 8620 0a7e C3       		.byte	0xc3
 8621 0a7f 45100000 		.4byte	0x1045
 8622 0a83 1C       		.byte	0x1c
 8623 0a84 07       		.uleb128 0x7
 8624 0a85 32080000 		.4byte	.LASF160
 8625 0a89 14       		.byte	0x14
 8626 0a8a C4       		.byte	0xc4
 8627 0a8b DA0E0000 		.4byte	0xeda
 8628 0a8f 20       		.byte	0x20
 8629 0a90 07       		.uleb128 0x7
 8630 0a91 6A110000 		.4byte	.LASF161
 8631 0a95 14       		.byte	0x14
 8632 0a96 C6       		.byte	0xc6
 8633 0a97 FA000000 		.4byte	0xfa
 8634 0a9b 24       		.byte	0x24
 8635 0a9c 07       		.uleb128 0x7
 8636 0a9d 110D0000 		.4byte	.LASF162
 8637 0aa1 14       		.byte	0x14
 8638 0aa2 C7       		.byte	0xc7
 8639 0aa3 F2100000 		.4byte	0x10f2
 8640 0aa7 28       		.byte	0x28
 8641 0aa8 0A       		.uleb128 0xa
 8642 0aa9 AD010000 		.4byte	.LASF163
 8643 0aad 14       		.byte	0x14
 8644 0aae D7       		.byte	0xd7
 8645 0aaf B8000000 		.4byte	0xb8
 8646 0ab3 01       		.byte	0x1
 8647 0ab4 01       		.byte	0x1
 8648 0ab5 07       		.byte	0x7
 8649 0ab6 2C       		.byte	0x2c
 8650 0ab7 0A       		.uleb128 0xa
 8651 0ab8 45160000 		.4byte	.LASF164
 8652 0abc 14       		.byte	0x14
 8653 0abd D8       		.byte	0xd8
 8654 0abe B8000000 		.4byte	0xb8
 8655 0ac2 01       		.byte	0x1
 8656 0ac3 01       		.byte	0x1
 8657 0ac4 06       		.byte	0x6
 8658 0ac5 2C       		.byte	0x2c
 8659 0ac6 0A       		.uleb128 0xa
 8660 0ac7 42090000 		.4byte	.LASF165
 8661 0acb 14       		.byte	0x14
ARM GAS  C:\Users\tmj32\AppData\Local\Temp\ccI3WYuM.s 			page 210


 8662 0acc D9       		.byte	0xd9
 8663 0acd B8000000 		.4byte	0xb8
 8664 0ad1 01       		.byte	0x1
 8665 0ad2 01       		.byte	0x1
 8666 0ad3 05       		.byte	0x5
 8667 0ad4 2C       		.byte	0x2c
 8668 0ad5 0A       		.uleb128 0xa
 8669 0ad6 EB180000 		.4byte	.LASF166
 8670 0ada 14       		.byte	0x14
 8671 0adb DA       		.byte	0xda
 8672 0adc B8000000 		.4byte	0xb8
 8673 0ae0 01       		.byte	0x1
 8674 0ae1 01       		.byte	0x1
 8675 0ae2 04       		.byte	0x4
 8676 0ae3 2C       		.byte	0x2c
 8677 0ae4 0A       		.uleb128 0xa
 8678 0ae5 35040000 		.4byte	.LASF167
 8679 0ae9 14       		.byte	0x14
 8680 0aea DB       		.byte	0xdb
 8681 0aeb B8000000 		.4byte	0xb8
 8682 0aef 01       		.byte	0x1
 8683 0af0 01       		.byte	0x1
 8684 0af1 03       		.byte	0x3
 8685 0af2 2C       		.byte	0x2c
 8686 0af3 1C       		.uleb128 0x1c
 8687 0af4 746F7000 		.ascii	"top\000"
 8688 0af8 14       		.byte	0x14
 8689 0af9 DC       		.byte	0xdc
 8690 0afa B8000000 		.4byte	0xb8
 8691 0afe 01       		.byte	0x1
 8692 0aff 01       		.byte	0x1
 8693 0b00 02       		.byte	0x2
 8694 0b01 2C       		.byte	0x2c
 8695 0b02 0A       		.uleb128 0xa
 8696 0b03 5A180000 		.4byte	.LASF168
 8697 0b07 14       		.byte	0x14
 8698 0b08 DD       		.byte	0xdd
 8699 0b09 B8000000 		.4byte	0xb8
 8700 0b0d 01       		.byte	0x1
 8701 0b0e 01       		.byte	0x1
 8702 0b0f 01       		.byte	0x1
 8703 0b10 2C       		.byte	0x2c
 8704 0b11 0A       		.uleb128 0xa
 8705 0b12 720E0000 		.4byte	.LASF169
 8706 0b16 14       		.byte	0x14
 8707 0b17 DE       		.byte	0xde
 8708 0b18 B8000000 		.4byte	0xb8
 8709 0b1c 01       		.byte	0x1
 8710 0b1d 01       		.byte	0x1
 8711 0b1e 00       		.byte	0
 8712 0b1f 2C       		.byte	0x2c
 8713 0b20 0A       		.uleb128 0xa
 8714 0b21 4A060000 		.4byte	.LASF170
 8715 0b25 14       		.byte	0x14
 8716 0b26 DF       		.byte	0xdf
 8717 0b27 E7100000 		.4byte	0x10e7
 8718 0b2b 01       		.byte	0x1
ARM GAS  C:\Users\tmj32\AppData\Local\Temp\ccI3WYuM.s 			page 211


 8719 0b2c 02       		.byte	0x2
 8720 0b2d 06       		.byte	0x6
 8721 0b2e 2D       		.byte	0x2d
 8722 0b2f 0A       		.uleb128 0xa
 8723 0b30 E6160000 		.4byte	.LASF171
 8724 0b34 14       		.byte	0x14
 8725 0b35 E0       		.byte	0xe0
 8726 0b36 88070000 		.4byte	0x788
 8727 0b3a 01       		.byte	0x1
 8728 0b3b 02       		.byte	0x2
 8729 0b3c 04       		.byte	0x4
 8730 0b3d 2D       		.byte	0x2d
 8731 0b3e 0A       		.uleb128 0xa
 8732 0b3f 391A0000 		.4byte	.LASF172
 8733 0b43 14       		.byte	0x14
 8734 0b44 E1       		.byte	0xe1
 8735 0b45 B8000000 		.4byte	0xb8
 8736 0b49 01       		.byte	0x1
 8737 0b4a 03       		.byte	0x3
 8738 0b4b 01       		.byte	0x1
 8739 0b4c 2D       		.byte	0x2d
 8740 0b4d 07       		.uleb128 0x7
 8741 0b4e 020E0000 		.4byte	.LASF173
 8742 0b52 14       		.byte	0x14
 8743 0b53 E2       		.byte	0xe2
 8744 0b54 B8000000 		.4byte	0xb8
 8745 0b58 2E       		.byte	0x2e
 8746 0b59 07       		.uleb128 0x7
 8747 0b5a C51C0000 		.4byte	.LASF174
 8748 0b5e 14       		.byte	0x14
 8749 0b5f E4       		.byte	0xe4
 8750 0b60 F7020000 		.4byte	0x2f7
 8751 0b64 2F       		.byte	0x2f
 8752 0b65 07       		.uleb128 0x7
 8753 0b66 6C090000 		.4byte	.LASF175
 8754 0b6a 14       		.byte	0x14
 8755 0b6b E6       		.byte	0xe6
 8756 0b6c EF000000 		.4byte	0xef
 8757 0b70 30       		.byte	0x30
 8758 0b71 07       		.uleb128 0x7
 8759 0b72 5D0A0000 		.4byte	.LASF176
 8760 0b76 14       		.byte	0x14
 8761 0b77 E9       		.byte	0xe9
 8762 0b78 DC100000 		.4byte	0x10dc
 8763 0b7c 34       		.byte	0x34
 8764 0b7d 00       		.byte	0
 8765 0b7e 0D       		.uleb128 0xd
 8766 0b7f 04       		.byte	0x4
 8767 0b80 3C0A0000 		.4byte	0xa3c
 8768 0b84 15       		.uleb128 0x15
 8769 0b85 8F030000 		.4byte	0x38f
 8770 0b89 940B0000 		.4byte	0xb94
 8771 0b8d 16       		.uleb128 0x16
 8772 0b8e 03030000 		.4byte	0x303
 8773 0b92 1F       		.byte	0x1f
 8774 0b93 00       		.byte	0
 8775 0b94 15       		.uleb128 0x15
ARM GAS  C:\Users\tmj32\AppData\Local\Temp\ccI3WYuM.s 			page 212


 8776 0b95 B8000000 		.4byte	0xb8
 8777 0b99 A40B0000 		.4byte	0xba4
 8778 0b9d 16       		.uleb128 0x16
 8779 0b9e 03030000 		.4byte	0x303
 8780 0ba2 1F       		.byte	0x1f
 8781 0ba3 00       		.byte	0
 8782 0ba4 0F       		.uleb128 0xf
 8783 0ba5 01       		.byte	0x1
 8784 0ba6 42000000 		.4byte	0x42
 8785 0baa 15       		.byte	0x15
 8786 0bab 2B       		.byte	0x2b
 8787 0bac CF0B0000 		.4byte	0xbcf
 8788 0bb0 10       		.uleb128 0x10
 8789 0bb1 EF1A0000 		.4byte	.LASF177
 8790 0bb5 00       		.byte	0
 8791 0bb6 10       		.uleb128 0x10
 8792 0bb7 85110000 		.4byte	.LASF178
 8793 0bbb 01       		.byte	0x1
 8794 0bbc 10       		.uleb128 0x10
 8795 0bbd FE130000 		.4byte	.LASF179
 8796 0bc1 02       		.byte	0x2
 8797 0bc2 10       		.uleb128 0x10
 8798 0bc3 E20C0000 		.4byte	.LASF180
 8799 0bc7 03       		.byte	0x3
 8800 0bc8 10       		.uleb128 0x10
 8801 0bc9 250A0000 		.4byte	.LASF181
 8802 0bcd 04       		.byte	0x4
 8803 0bce 00       		.byte	0
 8804 0bcf 02       		.uleb128 0x2
 8805 0bd0 640C0000 		.4byte	.LASF182
 8806 0bd4 15       		.byte	0x15
 8807 0bd5 33       		.byte	0x33
 8808 0bd6 B8000000 		.4byte	0xb8
 8809 0bda 02       		.uleb128 0x2
 8810 0bdb 4D090000 		.4byte	.LASF183
 8811 0bdf 15       		.byte	0x15
 8812 0be0 37       		.byte	0x37
 8813 0be1 B8000000 		.4byte	0xb8
 8814 0be5 06       		.uleb128 0x6
 8815 0be6 10       		.byte	0x10
 8816 0be7 15       		.byte	0x15
 8817 0be8 3A       		.byte	0x3a
 8818 0be9 2A0C0000 		.4byte	0xc2a
 8819 0bed 07       		.uleb128 0x7
 8820 0bee 21030000 		.4byte	.LASF184
 8821 0bf2 15       		.byte	0x15
 8822 0bf3 3C       		.byte	0x3c
 8823 0bf4 4F030000 		.4byte	0x34f
 8824 0bf8 00       		.byte	0
 8825 0bf9 08       		.uleb128 0x8
 8826 0bfa 6B657900 		.ascii	"key\000"
 8827 0bfe 15       		.byte	0x15
 8828 0bff 3D       		.byte	0x3d
 8829 0c00 E4000000 		.4byte	0xe4
 8830 0c04 04       		.byte	0x4
 8831 0c05 07       		.uleb128 0x7
 8832 0c06 F7060000 		.4byte	.LASF185
ARM GAS  C:\Users\tmj32\AppData\Local\Temp\ccI3WYuM.s 			page 213


 8833 0c0a 15       		.byte	0x15
 8834 0c0b 3E       		.byte	0x3e
 8835 0c0c E4000000 		.4byte	0xe4
 8836 0c10 08       		.byte	0x8
 8837 0c11 07       		.uleb128 0x7
 8838 0c12 C70F0000 		.4byte	.LASF186
 8839 0c16 15       		.byte	0x15
 8840 0c17 3F       		.byte	0x3f
 8841 0c18 C3000000 		.4byte	0xc3
 8842 0c1c 0C       		.byte	0xc
 8843 0c1d 07       		.uleb128 0x7
 8844 0c1e 24020000 		.4byte	.LASF187
 8845 0c22 15       		.byte	0x15
 8846 0c23 41       		.byte	0x41
 8847 0c24 DA0B0000 		.4byte	0xbda
 8848 0c28 0E       		.byte	0xe
 8849 0c29 00       		.byte	0
 8850 0c2a 02       		.uleb128 0x2
 8851 0c2b 97190000 		.4byte	.LASF188
 8852 0c2f 15       		.byte	0x15
 8853 0c30 42       		.byte	0x42
 8854 0c31 E50B0000 		.4byte	0xbe5
 8855 0c35 09       		.uleb128 0x9
 8856 0c36 E9020000 		.4byte	.LASF189
 8857 0c3a 1C       		.byte	0x1c
 8858 0c3b 15       		.byte	0x15
 8859 0c3c 45       		.byte	0x45
 8860 0c3d AE0C0000 		.4byte	0xcae
 8861 0c41 07       		.uleb128 0x7
 8862 0c42 8B020000 		.4byte	.LASF85
 8863 0c46 15       		.byte	0x15
 8864 0c47 49       		.byte	0x49
 8865 0c48 CF0B0000 		.4byte	0xbcf
 8866 0c4c 00       		.byte	0
 8867 0c4d 07       		.uleb128 0x7
 8868 0c4e 1E050000 		.4byte	.LASF190
 8869 0c52 15       		.byte	0x15
 8870 0c53 4E       		.byte	0x4e
 8871 0c54 CE0C0000 		.4byte	0xcce
 8872 0c58 04       		.byte	0x4
 8873 0c59 07       		.uleb128 0x7
 8874 0c5a 28120000 		.4byte	.LASF191
 8875 0c5e 15       		.byte	0x15
 8876 0c5f 52       		.byte	0x52
 8877 0c60 E40C0000 		.4byte	0xce4
 8878 0c64 08       		.byte	0x8
 8879 0c65 07       		.uleb128 0x7
 8880 0c66 5E0F0000 		.4byte	.LASF192
 8881 0c6a 15       		.byte	0x15
 8882 0c6b 59       		.byte	0x59
 8883 0c6c EA0C0000 		.4byte	0xcea
 8884 0c70 0C       		.byte	0xc
 8885 0c71 07       		.uleb128 0x7
 8886 0c72 E5110000 		.4byte	.LASF193
 8887 0c76 15       		.byte	0x15
 8888 0c77 5C       		.byte	0x5c
 8889 0c78 360A0000 		.4byte	0xa36
ARM GAS  C:\Users\tmj32\AppData\Local\Temp\ccI3WYuM.s 			page 214


 8890 0c7c 10       		.byte	0x10
 8891 0c7d 07       		.uleb128 0x7
 8892 0c7e 77190000 		.4byte	.LASF194
 8893 0c82 15       		.byte	0x15
 8894 0c83 5F       		.byte	0x5f
 8895 0c84 B8000000 		.4byte	0xb8
 8896 0c88 14       		.byte	0x14
 8897 0c89 07       		.uleb128 0x7
 8898 0c8a 42090000 		.4byte	.LASF165
 8899 0c8e 15       		.byte	0x15
 8900 0c8f 62       		.byte	0x62
 8901 0c90 B8000000 		.4byte	0xb8
 8902 0c94 15       		.byte	0x15
 8903 0c95 07       		.uleb128 0x7
 8904 0c96 CE120000 		.4byte	.LASF195
 8905 0c9a 15       		.byte	0x15
 8906 0c9b 65       		.byte	0x65
 8907 0c9c CE000000 		.4byte	0xce
 8908 0ca0 16       		.byte	0x16
 8909 0ca1 07       		.uleb128 0x7
 8910 0ca2 89090000 		.4byte	.LASF196
 8911 0ca6 15       		.byte	0x15
 8912 0ca7 68       		.byte	0x68
 8913 0ca8 CE000000 		.4byte	0xce
 8914 0cac 18       		.byte	0x18
 8915 0cad 00       		.byte	0
 8916 0cae 0B       		.uleb128 0xb
 8917 0caf E0010000 		.4byte	0x1e0
 8918 0cb3 C20C0000 		.4byte	0xcc2
 8919 0cb7 0C       		.uleb128 0xc
 8920 0cb8 C20C0000 		.4byte	0xcc2
 8921 0cbc 0C       		.uleb128 0xc
 8922 0cbd C80C0000 		.4byte	0xcc8
 8923 0cc1 00       		.byte	0
 8924 0cc2 0D       		.uleb128 0xd
 8925 0cc3 04       		.byte	0x4
 8926 0cc4 350C0000 		.4byte	0xc35
 8927 0cc8 0D       		.uleb128 0xd
 8928 0cc9 04       		.byte	0x4
 8929 0cca 2A0C0000 		.4byte	0xc2a
 8930 0cce 0D       		.uleb128 0xd
 8931 0ccf 04       		.byte	0x4
 8932 0cd0 AE0C0000 		.4byte	0xcae
 8933 0cd4 17       		.uleb128 0x17
 8934 0cd5 E40C0000 		.4byte	0xce4
 8935 0cd9 0C       		.uleb128 0xc
 8936 0cda C20C0000 		.4byte	0xcc2
 8937 0cde 0C       		.uleb128 0xc
 8938 0cdf B8000000 		.4byte	0xb8
 8939 0ce3 00       		.byte	0
 8940 0ce4 0D       		.uleb128 0xd
 8941 0ce5 04       		.byte	0x4
 8942 0ce6 D40C0000 		.4byte	0xcd4
 8943 0cea 0D       		.uleb128 0xd
 8944 0ceb 04       		.byte	0x4
 8945 0cec AA090000 		.4byte	0x9aa
 8946 0cf0 02       		.uleb128 0x2
ARM GAS  C:\Users\tmj32\AppData\Local\Temp\ccI3WYuM.s 			page 215


 8947 0cf1 08190000 		.4byte	.LASF197
 8948 0cf5 15       		.byte	0x15
 8949 0cf6 69       		.byte	0x69
 8950 0cf7 350C0000 		.4byte	0xc35
 8951 0cfb 06       		.uleb128 0x6
 8952 0cfc 24       		.byte	0x24
 8953 0cfd 15       		.byte	0x15
 8954 0cfe 73       		.byte	0x73
 8955 0cff 820D0000 		.4byte	0xd82
 8956 0d03 07       		.uleb128 0x7
 8957 0d04 460C0000 		.4byte	.LASF198
 8958 0d08 15       		.byte	0x15
 8959 0d09 75       		.byte	0x75
 8960 0d0a 4F030000 		.4byte	0x34f
 8961 0d0e 00       		.byte	0
 8962 0d0f 07       		.uleb128 0x7
 8963 0d10 230E0000 		.4byte	.LASF199
 8964 0d14 15       		.byte	0x15
 8965 0d15 76       		.byte	0x76
 8966 0d16 4F030000 		.4byte	0x34f
 8967 0d1a 04       		.byte	0x4
 8968 0d1b 07       		.uleb128 0x7
 8969 0d1c 65110000 		.4byte	.LASF200
 8970 0d20 15       		.byte	0x15
 8971 0d21 77       		.byte	0x77
 8972 0d22 4F030000 		.4byte	0x34f
 8973 0d26 08       		.byte	0x8
 8974 0d27 07       		.uleb128 0x7
 8975 0d28 73110000 		.4byte	.LASF201
 8976 0d2c 15       		.byte	0x15
 8977 0d2d 78       		.byte	0x78
 8978 0d2e 4F030000 		.4byte	0x34f
 8979 0d32 0C       		.byte	0xc
 8980 0d33 07       		.uleb128 0x7
 8981 0d34 41070000 		.4byte	.LASF202
 8982 0d38 15       		.byte	0x15
 8983 0d39 79       		.byte	0x79
 8984 0d3a 4F030000 		.4byte	0x34f
 8985 0d3e 10       		.byte	0x10
 8986 0d3f 07       		.uleb128 0x7
 8987 0d40 4A0E0000 		.4byte	.LASF203
 8988 0d44 15       		.byte	0x15
 8989 0d45 7A       		.byte	0x7a
 8990 0d46 7E0B0000 		.4byte	0xb7e
 8991 0d4a 14       		.byte	0x14
 8992 0d4b 07       		.uleb128 0x7
 8993 0d4c 5B0C0000 		.4byte	.LASF204
 8994 0d50 15       		.byte	0x15
 8995 0d51 7B       		.byte	0x7b
 8996 0d52 7E0B0000 		.4byte	0xb7e
 8997 0d56 18       		.byte	0x18
 8998 0d57 07       		.uleb128 0x7
 8999 0d58 2C050000 		.4byte	.LASF205
 9000 0d5c 15       		.byte	0x15
 9001 0d5d 7D       		.byte	0x7d
 9002 0d5e 7E0B0000 		.4byte	0xb7e
 9003 0d62 1C       		.byte	0x1c
ARM GAS  C:\Users\tmj32\AppData\Local\Temp\ccI3WYuM.s 			page 216


 9004 0d63 0A       		.uleb128 0xa
 9005 0d64 CC150000 		.4byte	.LASF206
 9006 0d68 15       		.byte	0x15
 9007 0d69 80       		.byte	0x80
 9008 0d6a B8000000 		.4byte	0xb8
 9009 0d6e 01       		.byte	0x1
 9010 0d6f 01       		.byte	0x1
 9011 0d70 07       		.byte	0x7
 9012 0d71 20       		.byte	0x20
 9013 0d72 0A       		.uleb128 0xa
 9014 0d73 7D150000 		.4byte	.LASF207
 9015 0d77 15       		.byte	0x15
 9016 0d78 81       		.byte	0x81
 9017 0d79 B8000000 		.4byte	0xb8
 9018 0d7d 01       		.byte	0x1
 9019 0d7e 01       		.byte	0x1
 9020 0d7f 06       		.byte	0x6
 9021 0d80 20       		.byte	0x20
 9022 0d81 00       		.byte	0
 9023 0d82 06       		.uleb128 0x6
 9024 0d83 08       		.byte	0x8
 9025 0d84 15       		.byte	0x15
 9026 0d85 83       		.byte	0x83
 9027 0d86 A30D0000 		.4byte	0xda3
 9028 0d8a 07       		.uleb128 0x7
 9029 0d8b 77040000 		.4byte	.LASF208
 9030 0d8f 15       		.byte	0x15
 9031 0d90 85       		.byte	0x85
 9032 0d91 DA0B0000 		.4byte	0xbda
 9033 0d95 00       		.byte	0
 9034 0d96 07       		.uleb128 0x7
 9035 0d97 080B0000 		.4byte	.LASF209
 9036 0d9b 15       		.byte	0x15
 9037 0d9c 86       		.byte	0x86
 9038 0d9d E4000000 		.4byte	0xe4
 9039 0da1 04       		.byte	0x4
 9040 0da2 00       		.byte	0
 9041 0da3 11       		.uleb128 0x11
 9042 0da4 24       		.byte	0x24
 9043 0da5 15       		.byte	0x15
 9044 0da6 71       		.byte	0x71
 9045 0da7 C20D0000 		.4byte	0xdc2
 9046 0dab 13       		.uleb128 0x13
 9047 0dac EA080000 		.4byte	.LASF210
 9048 0db0 15       		.byte	0x15
 9049 0db1 82       		.byte	0x82
 9050 0db2 FB0C0000 		.4byte	0xcfb
 9051 0db6 13       		.uleb128 0x13
 9052 0db7 8D170000 		.4byte	.LASF211
 9053 0dbb 15       		.byte	0x15
 9054 0dbc 87       		.byte	0x87
 9055 0dbd 820D0000 		.4byte	0xd82
 9056 0dc1 00       		.byte	0
 9057 0dc2 09       		.uleb128 0x9
 9058 0dc3 A9120000 		.4byte	.LASF212
 9059 0dc7 34       		.byte	0x34
 9060 0dc8 15       		.byte	0x15
ARM GAS  C:\Users\tmj32\AppData\Local\Temp\ccI3WYuM.s 			page 217


 9061 0dc9 6E       		.byte	0x6e
 9062 0dca 3B0E0000 		.4byte	0xe3b
 9063 0dce 07       		.uleb128 0x7
 9064 0dcf 24020000 		.4byte	.LASF187
 9065 0dd3 15       		.byte	0x15
 9066 0dd4 70       		.byte	0x70
 9067 0dd5 DA0B0000 		.4byte	0xbda
 9068 0dd9 00       		.byte	0
 9069 0dda 07       		.uleb128 0x7
 9070 0ddb 411C0000 		.4byte	.LASF213
 9071 0ddf 15       		.byte	0x15
 9072 0de0 88       		.byte	0x88
 9073 0de1 A30D0000 		.4byte	0xda3
 9074 0de5 04       		.byte	0x4
 9075 0de6 07       		.uleb128 0x7
 9076 0de7 9B110000 		.4byte	.LASF214
 9077 0deb 15       		.byte	0x15
 9078 0dec 8A       		.byte	0x8a
 9079 0ded E4000000 		.4byte	0xe4
 9080 0df1 28       		.byte	0x28
 9081 0df2 07       		.uleb128 0x7
 9082 0df3 62150000 		.4byte	.LASF215
 9083 0df7 15       		.byte	0x15
 9084 0df8 8B       		.byte	0x8b
 9085 0df9 E4000000 		.4byte	0xe4
 9086 0dfd 2C       		.byte	0x2c
 9087 0dfe 0A       		.uleb128 0xa
 9088 0dff A01B0000 		.4byte	.LASF216
 9089 0e03 15       		.byte	0x15
 9090 0e04 8E       		.byte	0x8e
 9091 0e05 B8000000 		.4byte	0xb8
 9092 0e09 01       		.byte	0x1
 9093 0e0a 01       		.byte	0x1
 9094 0e0b 07       		.byte	0x7
 9095 0e0c 30       		.byte	0x30
 9096 0e0d 0A       		.uleb128 0xa
 9097 0e0e 95130000 		.4byte	.LASF217
 9098 0e12 15       		.byte	0x15
 9099 0e13 8F       		.byte	0x8f
 9100 0e14 B8000000 		.4byte	0xb8
 9101 0e18 01       		.byte	0x1
 9102 0e19 01       		.byte	0x1
 9103 0e1a 06       		.byte	0x6
 9104 0e1b 30       		.byte	0x30
 9105 0e1c 0A       		.uleb128 0xa
 9106 0e1d 2A0B0000 		.4byte	.LASF218
 9107 0e21 15       		.byte	0x15
 9108 0e22 90       		.byte	0x90
 9109 0e23 B8000000 		.4byte	0xb8
 9110 0e27 01       		.byte	0x1
 9111 0e28 01       		.byte	0x1
 9112 0e29 05       		.byte	0x5
 9113 0e2a 30       		.byte	0x30
 9114 0e2b 0A       		.uleb128 0xa
 9115 0e2c D00A0000 		.4byte	.LASF219
 9116 0e30 15       		.byte	0x15
 9117 0e31 91       		.byte	0x91
ARM GAS  C:\Users\tmj32\AppData\Local\Temp\ccI3WYuM.s 			page 218


 9118 0e32 B8000000 		.4byte	0xb8
 9119 0e36 01       		.byte	0x1
 9120 0e37 01       		.byte	0x1
 9121 0e38 04       		.byte	0x4
 9122 0e39 30       		.byte	0x30
 9123 0e3a 00       		.byte	0
 9124 0e3b 02       		.uleb128 0x2
 9125 0e3c BF180000 		.4byte	.LASF220
 9126 0e40 15       		.byte	0x15
 9127 0e41 92       		.byte	0x92
 9128 0e42 C20D0000 		.4byte	0xdc2
 9129 0e46 09       		.uleb128 0x9
 9130 0e47 C5030000 		.4byte	.LASF221
 9131 0e4b 5C       		.byte	0x5c
 9132 0e4c 15       		.byte	0x15
 9133 0e4d 99       		.byte	0x99
 9134 0e4e 8F0E0000 		.4byte	0xe8f
 9135 0e52 07       		.uleb128 0x7
 9136 0e53 0A160000 		.4byte	.LASF145
 9137 0e57 15       		.byte	0x15
 9138 0e58 9B       		.byte	0x9b
 9139 0e59 F00C0000 		.4byte	0xcf0
 9140 0e5d 00       		.byte	0
 9141 0e5e 07       		.uleb128 0x7
 9142 0e5f 25080000 		.4byte	.LASF222
 9143 0e63 15       		.byte	0x15
 9144 0e64 9C       		.byte	0x9c
 9145 0e65 3B0E0000 		.4byte	0xe3b
 9146 0e69 1C       		.byte	0x1c
 9147 0e6a 07       		.uleb128 0x7
 9148 0e6b 661C0000 		.4byte	.LASF223
 9149 0e6f 15       		.byte	0x15
 9150 0e70 9D       		.byte	0x9d
 9151 0e71 7E0B0000 		.4byte	0xb7e
 9152 0e75 50       		.byte	0x50
 9153 0e76 07       		.uleb128 0x7
 9154 0e77 320C0000 		.4byte	.LASF224
 9155 0e7b 15       		.byte	0x15
 9156 0e7c 9E       		.byte	0x9e
 9157 0e7d 940E0000 		.4byte	0xe94
 9158 0e81 54       		.byte	0x54
 9159 0e82 07       		.uleb128 0x7
 9160 0e83 9C0A0000 		.4byte	.LASF225
 9161 0e87 15       		.byte	0x15
 9162 0e88 9F       		.byte	0x9f
 9163 0e89 9A0E0000 		.4byte	0xe9a
 9164 0e8d 58       		.byte	0x58
 9165 0e8e 00       		.byte	0
 9166 0e8f 1D       		.uleb128 0x1d
 9167 0e90 831C0000 		.4byte	.LASF551
 9168 0e94 0D       		.uleb128 0xd
 9169 0e95 04       		.byte	0x4
 9170 0e96 8F0E0000 		.4byte	0xe8f
 9171 0e9a 0D       		.uleb128 0xd
 9172 0e9b 04       		.byte	0x4
 9173 0e9c A00E0000 		.4byte	0xea0
 9174 0ea0 0E       		.uleb128 0xe
ARM GAS  C:\Users\tmj32\AppData\Local\Temp\ccI3WYuM.s 			page 219


 9175 0ea1 4F030000 		.4byte	0x34f
 9176 0ea5 02       		.uleb128 0x2
 9177 0ea6 910A0000 		.4byte	.LASF226
 9178 0eaa 15       		.byte	0x15
 9179 0eab A1       		.byte	0xa1
 9180 0eac 460E0000 		.4byte	0xe46
 9181 0eb0 0F       		.uleb128 0xf
 9182 0eb1 01       		.byte	0x1
 9183 0eb2 42000000 		.4byte	0x42
 9184 0eb6 14       		.byte	0x14
 9185 0eb7 3D       		.byte	0x3d
 9186 0eb8 CF0E0000 		.4byte	0xecf
 9187 0ebc 10       		.uleb128 0x10
 9188 0ebd 20100000 		.4byte	.LASF227
 9189 0ec1 00       		.byte	0
 9190 0ec2 10       		.uleb128 0x10
 9191 0ec3 1E070000 		.4byte	.LASF228
 9192 0ec7 01       		.byte	0x1
 9193 0ec8 10       		.uleb128 0x10
 9194 0ec9 02080000 		.4byte	.LASF229
 9195 0ecd 02       		.byte	0x2
 9196 0ece 00       		.byte	0
 9197 0ecf 02       		.uleb128 0x2
 9198 0ed0 AF110000 		.4byte	.LASF230
 9199 0ed4 14       		.byte	0x14
 9200 0ed5 42       		.byte	0x42
 9201 0ed6 B8000000 		.4byte	0xb8
 9202 0eda 02       		.uleb128 0x2
 9203 0edb A11C0000 		.4byte	.LASF231
 9204 0edf 14       		.byte	0x14
 9205 0ee0 48       		.byte	0x48
 9206 0ee1 E50E0000 		.4byte	0xee5
 9207 0ee5 0D       		.uleb128 0xd
 9208 0ee6 04       		.byte	0x4
 9209 0ee7 EB0E0000 		.4byte	0xeeb
 9210 0eeb 0B       		.uleb128 0xb
 9211 0eec E0010000 		.4byte	0x1e0
 9212 0ef0 040F0000 		.4byte	0xf04
 9213 0ef4 0C       		.uleb128 0xc
 9214 0ef5 7E0B0000 		.4byte	0xb7e
 9215 0ef9 0C       		.uleb128 0xc
 9216 0efa 1C090000 		.4byte	0x91c
 9217 0efe 0C       		.uleb128 0xc
 9218 0eff CF0E0000 		.4byte	0xecf
 9219 0f03 00       		.byte	0
 9220 0f04 0F       		.uleb128 0xf
 9221 0f05 01       		.byte	0x1
 9222 0f06 42000000 		.4byte	0x42
 9223 0f0a 14       		.byte	0x14
 9224 0f0b 4A       		.byte	0x4a
 9225 0f0c 890F0000 		.4byte	0xf89
 9226 0f10 10       		.uleb128 0x10
 9227 0f11 47120000 		.4byte	.LASF232
 9228 0f15 00       		.byte	0
 9229 0f16 10       		.uleb128 0x10
 9230 0f17 61100000 		.4byte	.LASF233
 9231 0f1b 01       		.byte	0x1
ARM GAS  C:\Users\tmj32\AppData\Local\Temp\ccI3WYuM.s 			page 220


 9232 0f1c 10       		.uleb128 0x10
 9233 0f1d 151B0000 		.4byte	.LASF234
 9234 0f21 02       		.byte	0x2
 9235 0f22 10       		.uleb128 0x10
 9236 0f23 27030000 		.4byte	.LASF235
 9237 0f27 03       		.byte	0x3
 9238 0f28 10       		.uleb128 0x10
 9239 0f29 90020000 		.4byte	.LASF236
 9240 0f2d 04       		.byte	0x4
 9241 0f2e 10       		.uleb128 0x10
 9242 0f2f ED100000 		.4byte	.LASF237
 9243 0f33 05       		.byte	0x5
 9244 0f34 10       		.uleb128 0x10
 9245 0f35 F3090000 		.4byte	.LASF238
 9246 0f39 06       		.byte	0x6
 9247 0f3a 10       		.uleb128 0x10
 9248 0f3b 8F1C0000 		.4byte	.LASF239
 9249 0f3f 07       		.byte	0x7
 9250 0f40 10       		.uleb128 0x10
 9251 0f41 20090000 		.4byte	.LASF240
 9252 0f45 08       		.byte	0x8
 9253 0f46 10       		.uleb128 0x10
 9254 0f47 C6110000 		.4byte	.LASF241
 9255 0f4b 09       		.byte	0x9
 9256 0f4c 10       		.uleb128 0x10
 9257 0f4d 770A0000 		.4byte	.LASF242
 9258 0f51 0A       		.byte	0xa
 9259 0f52 10       		.uleb128 0x10
 9260 0f53 D71A0000 		.4byte	.LASF243
 9261 0f57 0B       		.byte	0xb
 9262 0f58 10       		.uleb128 0x10
 9263 0f59 B3080000 		.4byte	.LASF244
 9264 0f5d 0C       		.byte	0xc
 9265 0f5e 10       		.uleb128 0x10
 9266 0f5f 5B190000 		.4byte	.LASF245
 9267 0f63 0D       		.byte	0xd
 9268 0f64 10       		.uleb128 0x10
 9269 0f65 D80F0000 		.4byte	.LASF246
 9270 0f69 0E       		.byte	0xe
 9271 0f6a 10       		.uleb128 0x10
 9272 0f6b 3A010000 		.4byte	.LASF247
 9273 0f6f 0F       		.byte	0xf
 9274 0f70 10       		.uleb128 0x10
 9275 0f71 0F0C0000 		.4byte	.LASF248
 9276 0f75 10       		.byte	0x10
 9277 0f76 10       		.uleb128 0x10
 9278 0f77 4E0A0000 		.4byte	.LASF249
 9279 0f7b 11       		.byte	0x11
 9280 0f7c 10       		.uleb128 0x10
 9281 0f7d 72120000 		.4byte	.LASF250
 9282 0f81 12       		.byte	0x12
 9283 0f82 10       		.uleb128 0x10
 9284 0f83 0D0F0000 		.4byte	.LASF251
 9285 0f87 13       		.byte	0x13
 9286 0f88 00       		.byte	0
 9287 0f89 02       		.uleb128 0x2
 9288 0f8a 19020000 		.4byte	.LASF252
ARM GAS  C:\Users\tmj32\AppData\Local\Temp\ccI3WYuM.s 			page 221


 9289 0f8e 14       		.byte	0x14
 9290 0f8f 61       		.byte	0x61
 9291 0f90 B8000000 		.4byte	0xb8
 9292 0f94 02       		.uleb128 0x2
 9293 0f95 75080000 		.4byte	.LASF253
 9294 0f99 14       		.byte	0x14
 9295 0f9a 68       		.byte	0x68
 9296 0f9b 9F0F0000 		.4byte	0xf9f
 9297 0f9f 0D       		.uleb128 0xd
 9298 0fa0 04       		.byte	0x4
 9299 0fa1 A50F0000 		.4byte	0xfa5
 9300 0fa5 17       		.uleb128 0x17
 9301 0fa6 B50F0000 		.4byte	0xfb5
 9302 0faa 0C       		.uleb128 0xc
 9303 0fab 7E0B0000 		.4byte	0xb7e
 9304 0faf 0C       		.uleb128 0xc
 9305 0fb0 890F0000 		.4byte	0xf89
 9306 0fb4 00       		.byte	0
 9307 0fb5 0F       		.uleb128 0xf
 9308 0fb6 01       		.byte	0x1
 9309 0fb7 42000000 		.4byte	0x42
 9310 0fbb 14       		.byte	0x14
 9311 0fbc 6D       		.byte	0x6d
 9312 0fbd 3A100000 		.4byte	0x103a
 9313 0fc1 10       		.uleb128 0x10
 9314 0fc2 7F0E0000 		.4byte	.LASF254
 9315 0fc6 00       		.byte	0
 9316 0fc7 10       		.uleb128 0x10
 9317 0fc8 380F0000 		.4byte	.LASF255
 9318 0fcc 01       		.byte	0x1
 9319 0fcd 10       		.uleb128 0x10
 9320 0fce C2170000 		.4byte	.LASF256
 9321 0fd2 02       		.byte	0x2
 9322 0fd3 10       		.uleb128 0x10
 9323 0fd4 58120000 		.4byte	.LASF257
 9324 0fd8 03       		.byte	0x3
 9325 0fd9 10       		.uleb128 0x10
 9326 0fda D0000000 		.4byte	.LASF258
 9327 0fde 04       		.byte	0x4
 9328 0fdf 10       		.uleb128 0x10
 9329 0fe0 17190000 		.4byte	.LASF259
 9330 0fe4 05       		.byte	0x5
 9331 0fe5 10       		.uleb128 0x10
 9332 0fe6 2E060000 		.4byte	.LASF260
 9333 0fea 06       		.byte	0x6
 9334 0feb 10       		.uleb128 0x10
 9335 0fec BD0A0000 		.4byte	.LASF261
 9336 0ff0 07       		.byte	0x7
 9337 0ff1 10       		.uleb128 0x10
 9338 0ff2 79020000 		.4byte	.LASF262
 9339 0ff6 08       		.byte	0x8
 9340 0ff7 10       		.uleb128 0x10
 9341 0ff8 BE100000 		.4byte	.LASF263
 9342 0ffc 09       		.byte	0x9
 9343 0ffd 10       		.uleb128 0x10
 9344 0ffe EF110000 		.4byte	.LASF264
 9345 1002 0A       		.byte	0xa
ARM GAS  C:\Users\tmj32\AppData\Local\Temp\ccI3WYuM.s 			page 222


 9346 1003 10       		.uleb128 0x10
 9347 1004 82120000 		.4byte	.LASF265
 9348 1008 0B       		.byte	0xb
 9349 1009 10       		.uleb128 0x10
 9350 100a 70010000 		.4byte	.LASF266
 9351 100e 0C       		.byte	0xc
 9352 100f 10       		.uleb128 0x10
 9353 1010 D4050000 		.4byte	.LASF267
 9354 1014 0D       		.byte	0xd
 9355 1015 10       		.uleb128 0x10
 9356 1016 D2010000 		.4byte	.LASF268
 9357 101a 0E       		.byte	0xe
 9358 101b 10       		.uleb128 0x10
 9359 101c 34120000 		.4byte	.LASF269
 9360 1020 0F       		.byte	0xf
 9361 1021 10       		.uleb128 0x10
 9362 1022 C10B0000 		.4byte	.LASF270
 9363 1026 10       		.byte	0x10
 9364 1027 10       		.uleb128 0x10
 9365 1028 A1080000 		.4byte	.LASF271
 9366 102c 11       		.byte	0x11
 9367 102d 10       		.uleb128 0x10
 9368 102e DA0D0000 		.4byte	.LASF272
 9369 1032 12       		.byte	0x12
 9370 1033 10       		.uleb128 0x10
 9371 1034 740C0000 		.4byte	.LASF273
 9372 1038 13       		.byte	0x13
 9373 1039 00       		.byte	0
 9374 103a 02       		.uleb128 0x2
 9375 103b BA120000 		.4byte	.LASF274
 9376 103f 14       		.byte	0x14
 9377 1040 88       		.byte	0x88
 9378 1041 B8000000 		.4byte	0xb8
 9379 1045 02       		.uleb128 0x2
 9380 1046 AD060000 		.4byte	.LASF275
 9381 104a 14       		.byte	0x14
 9382 104b 8A       		.byte	0x8a
 9383 104c 50100000 		.4byte	0x1050
 9384 1050 0D       		.uleb128 0xd
 9385 1051 04       		.byte	0x4
 9386 1052 56100000 		.4byte	0x1056
 9387 1056 0B       		.uleb128 0xb
 9388 1057 34070000 		.4byte	0x734
 9389 105b 6F100000 		.4byte	0x106f
 9390 105f 0C       		.uleb128 0xc
 9391 1060 7E0B0000 		.4byte	0xb7e
 9392 1064 0C       		.uleb128 0xc
 9393 1065 3A100000 		.4byte	0x103a
 9394 1069 0C       		.uleb128 0xc
 9395 106a FA000000 		.4byte	0xfa
 9396 106e 00       		.byte	0
 9397 106f 02       		.uleb128 0x2
 9398 1070 B3010000 		.4byte	.LASF276
 9399 1074 14       		.byte	0x14
 9400 1075 A4       		.byte	0xa4
 9401 1076 B8000000 		.4byte	0xb8
 9402 107a 06       		.uleb128 0x6
ARM GAS  C:\Users\tmj32\AppData\Local\Temp\ccI3WYuM.s 			page 223


 9403 107b 0C       		.byte	0xc
 9404 107c 14       		.byte	0x14
 9405 107d A7       		.byte	0xa7
 9406 107e D1100000 		.4byte	0x10d1
 9407 1082 07       		.uleb128 0x7
 9408 1083 25170000 		.4byte	.LASF277
 9409 1087 14       		.byte	0x14
 9410 1088 A9       		.byte	0xa9
 9411 1089 D1100000 		.4byte	0x10d1
 9412 108d 00       		.byte	0
 9413 108e 07       		.uleb128 0x7
 9414 108f E6150000 		.4byte	.LASF278
 9415 1093 14       		.byte	0x14
 9416 1094 AA       		.byte	0xaa
 9417 1095 EF000000 		.4byte	0xef
 9418 1099 04       		.byte	0x4
 9419 109a 07       		.uleb128 0x7
 9420 109b 90130000 		.4byte	.LASF279
 9421 109f 14       		.byte	0x14
 9422 10a0 AB       		.byte	0xab
 9423 10a1 EF000000 		.4byte	0xef
 9424 10a5 06       		.byte	0x6
 9425 10a6 07       		.uleb128 0x7
 9426 10a7 A50E0000 		.4byte	.LASF280
 9427 10ab 14       		.byte	0x14
 9428 10ac AC       		.byte	0xac
 9429 10ad 6F100000 		.4byte	0x106f
 9430 10b1 08       		.byte	0x8
 9431 10b2 0A       		.uleb128 0xa
 9432 10b3 0E100000 		.4byte	.LASF281
 9433 10b7 14       		.byte	0x14
 9434 10b8 AD       		.byte	0xad
 9435 10b9 B8000000 		.4byte	0xb8
 9436 10bd 01       		.byte	0x1
 9437 10be 01       		.byte	0x1
 9438 10bf 07       		.byte	0x7
 9439 10c0 09       		.byte	0x9
 9440 10c1 0A       		.uleb128 0xa
 9441 10c2 CF1B0000 		.4byte	.LASF282
 9442 10c6 14       		.byte	0x14
 9443 10c7 AE       		.byte	0xae
 9444 10c8 B8000000 		.4byte	0xb8
 9445 10cc 01       		.byte	0x1
 9446 10cd 01       		.byte	0x1
 9447 10ce 06       		.byte	0x6
 9448 10cf 09       		.byte	0x9
 9449 10d0 00       		.byte	0
 9450 10d1 0D       		.uleb128 0xd
 9451 10d2 04       		.byte	0x4
 9452 10d3 D7100000 		.4byte	0x10d7
 9453 10d7 0E       		.uleb128 0xe
 9454 10d8 3C0A0000 		.4byte	0xa3c
 9455 10dc 02       		.uleb128 0x2
 9456 10dd 8C010000 		.4byte	.LASF283
 9457 10e1 14       		.byte	0x14
 9458 10e2 B0       		.byte	0xb0
 9459 10e3 7A100000 		.4byte	0x107a
ARM GAS  C:\Users\tmj32\AppData\Local\Temp\ccI3WYuM.s 			page 224


 9460 10e7 02       		.uleb128 0x2
 9461 10e8 771B0000 		.4byte	.LASF284
 9462 10ec 14       		.byte	0x14
 9463 10ed B9       		.byte	0xb9
 9464 10ee B8000000 		.4byte	0xb8
 9465 10f2 0D       		.uleb128 0xd
 9466 10f3 04       		.byte	0x4
 9467 10f4 F8100000 		.4byte	0x10f8
 9468 10f8 0E       		.uleb128 0xe
 9469 10f9 0A070000 		.4byte	0x70a
 9470 10fd 02       		.uleb128 0x2
 9471 10fe 01160000 		.4byte	.LASF285
 9472 1102 14       		.byte	0x14
 9473 1103 F0       		.byte	0xf0
 9474 1104 3C0A0000 		.4byte	0xa3c
 9475 1108 0F       		.uleb128 0xf
 9476 1109 01       		.byte	0x1
 9477 110a 42000000 		.4byte	0x42
 9478 110e 03       		.byte	0x3
 9479 110f 35       		.byte	0x35
 9480 1110 33110000 		.4byte	0x1133
 9481 1114 10       		.uleb128 0x10
 9482 1115 A6020000 		.4byte	.LASF286
 9483 1119 00       		.byte	0
 9484 111a 10       		.uleb128 0x10
 9485 111b C0190000 		.4byte	.LASF287
 9486 111f 01       		.byte	0x1
 9487 1120 10       		.uleb128 0x10
 9488 1121 4E0B0000 		.4byte	.LASF288
 9489 1125 02       		.byte	0x2
 9490 1126 10       		.uleb128 0x10
 9491 1127 62160000 		.4byte	.LASF289
 9492 112b 03       		.byte	0x3
 9493 112c 10       		.uleb128 0x10
 9494 112d F5150000 		.4byte	.LASF290
 9495 1131 04       		.byte	0x4
 9496 1132 00       		.byte	0
 9497 1133 02       		.uleb128 0x2
 9498 1134 BE130000 		.4byte	.LASF291
 9499 1138 03       		.byte	0x3
 9500 1139 3D       		.byte	0x3d
 9501 113a B8000000 		.4byte	0xb8
 9502 113e 06       		.uleb128 0x6
 9503 113f 02       		.byte	0x2
 9504 1140 03       		.byte	0x3
 9505 1141 3F       		.byte	0x3f
 9506 1142 92110000 		.4byte	0x1192
 9507 1146 0A       		.uleb128 0xa
 9508 1147 5E0E0000 		.4byte	.LASF292
 9509 114b 03       		.byte	0x3
 9510 114c 43       		.byte	0x43
 9511 114d B8000000 		.4byte	0xb8
 9512 1151 01       		.byte	0x1
 9513 1152 04       		.byte	0x4
 9514 1153 04       		.byte	0x4
 9515 1154 00       		.byte	0
 9516 1155 0A       		.uleb128 0xa
ARM GAS  C:\Users\tmj32\AppData\Local\Temp\ccI3WYuM.s 			page 225


 9517 1156 58100000 		.4byte	.LASF293
 9518 115a 03       		.byte	0x3
 9519 115b 44       		.byte	0x44
 9520 115c B8000000 		.4byte	0xb8
 9521 1160 01       		.byte	0x1
 9522 1161 02       		.byte	0x2
 9523 1162 02       		.byte	0x2
 9524 1163 00       		.byte	0
 9525 1164 0A       		.uleb128 0xa
 9526 1165 EB150000 		.4byte	.LASF294
 9527 1169 03       		.byte	0x3
 9528 116a 45       		.byte	0x45
 9529 116b B8000000 		.4byte	0xb8
 9530 116f 01       		.byte	0x1
 9531 1170 02       		.byte	0x2
 9532 1171 00       		.byte	0
 9533 1172 00       		.byte	0
 9534 1173 0A       		.uleb128 0xa
 9535 1174 B1050000 		.4byte	.LASF295
 9536 1178 03       		.byte	0x3
 9537 1179 46       		.byte	0x46
 9538 117a B8000000 		.4byte	0xb8
 9539 117e 01       		.byte	0x1
 9540 117f 02       		.byte	0x2
 9541 1180 06       		.byte	0x6
 9542 1181 01       		.byte	0x1
 9543 1182 0A       		.uleb128 0xa
 9544 1183 29140000 		.4byte	.LASF296
 9545 1187 03       		.byte	0x3
 9546 1188 47       		.byte	0x47
 9547 1189 B8000000 		.4byte	0xb8
 9548 118d 01       		.byte	0x1
 9549 118e 02       		.byte	0x2
 9550 118f 04       		.byte	0x4
 9551 1190 01       		.byte	0x1
 9552 1191 00       		.byte	0
 9553 1192 02       		.uleb128 0x2
 9554 1193 1D0F0000 		.4byte	.LASF297
 9555 1197 03       		.byte	0x3
 9556 1198 48       		.byte	0x48
 9557 1199 3E110000 		.4byte	0x113e
 9558 119d 0F       		.uleb128 0xf
 9559 119e 01       		.byte	0x1
 9560 119f 42000000 		.4byte	0x42
 9561 11a3 16       		.byte	0x16
 9562 11a4 1E       		.byte	0x1e
 9563 11a5 F2110000 		.4byte	0x11f2
 9564 11a9 10       		.uleb128 0x10
 9565 11aa ED1B0000 		.4byte	.LASF298
 9566 11ae 11       		.byte	0x11
 9567 11af 10       		.uleb128 0x10
 9568 11b0 1D140000 		.4byte	.LASF299
 9569 11b4 12       		.byte	0x12
 9570 11b5 10       		.uleb128 0x10
 9571 11b6 45000000 		.4byte	.LASF300
 9572 11ba 13       		.byte	0x13
 9573 11bb 10       		.uleb128 0x10
ARM GAS  C:\Users\tmj32\AppData\Local\Temp\ccI3WYuM.s 			page 226


 9574 11bc 5E050000 		.4byte	.LASF301
 9575 11c0 14       		.byte	0x14
 9576 11c1 10       		.uleb128 0x10
 9577 11c2 34140000 		.4byte	.LASF302
 9578 11c6 1B       		.byte	0x1b
 9579 11c7 10       		.uleb128 0x10
 9580 11c8 E1040000 		.4byte	.LASF303
 9581 11cc 7F       		.byte	0x7f
 9582 11cd 10       		.uleb128 0x10
 9583 11ce 79060000 		.4byte	.LASF304
 9584 11d2 08       		.byte	0x8
 9585 11d3 10       		.uleb128 0x10
 9586 11d4 3C020000 		.4byte	.LASF305
 9587 11d8 0A       		.byte	0xa
 9588 11d9 10       		.uleb128 0x10
 9589 11da 9B100000 		.4byte	.LASF306
 9590 11de 09       		.byte	0x9
 9591 11df 10       		.uleb128 0x10
 9592 11e0 19170000 		.4byte	.LASF307
 9593 11e4 0B       		.byte	0xb
 9594 11e5 10       		.uleb128 0x10
 9595 11e6 6D0B0000 		.4byte	.LASF308
 9596 11ea 02       		.byte	0x2
 9597 11eb 10       		.uleb128 0x10
 9598 11ec 1D120000 		.4byte	.LASF309
 9599 11f0 03       		.byte	0x3
 9600 11f1 00       		.byte	0
 9601 11f2 0F       		.uleb128 0xf
 9602 11f3 01       		.byte	0x1
 9603 11f4 42000000 		.4byte	0x42
 9604 11f8 04       		.byte	0x4
 9605 11f9 2A       		.byte	0x2a
 9606 11fa 23120000 		.4byte	0x1223
 9607 11fe 10       		.uleb128 0x10
 9608 11ff 140E0000 		.4byte	.LASF310
 9609 1203 00       		.byte	0
 9610 1204 10       		.uleb128 0x10
 9611 1205 1C110000 		.4byte	.LASF311
 9612 1209 01       		.byte	0x1
 9613 120a 10       		.uleb128 0x10
 9614 120b 081A0000 		.4byte	.LASF312
 9615 120f 02       		.byte	0x2
 9616 1210 10       		.uleb128 0x10
 9617 1211 D9070000 		.4byte	.LASF313
 9618 1215 03       		.byte	0x3
 9619 1216 10       		.uleb128 0x10
 9620 1217 9A050000 		.4byte	.LASF314
 9621 121b 04       		.byte	0x4
 9622 121c 10       		.uleb128 0x10
 9623 121d 2A020000 		.4byte	.LASF315
 9624 1221 05       		.byte	0x5
 9625 1222 00       		.byte	0
 9626 1223 02       		.uleb128 0x2
 9627 1224 C51A0000 		.4byte	.LASF316
 9628 1228 04       		.byte	0x4
 9629 1229 32       		.byte	0x32
 9630 122a B8000000 		.4byte	0xb8
ARM GAS  C:\Users\tmj32\AppData\Local\Temp\ccI3WYuM.s 			page 227


 9631 122e 06       		.uleb128 0x6
 9632 122f 18       		.byte	0x18
 9633 1230 04       		.byte	0x4
 9634 1231 3E       		.byte	0x3e
 9635 1232 88120000 		.4byte	0x1288
 9636 1236 07       		.uleb128 0x7
 9637 1237 5F110000 		.4byte	.LASF317
 9638 123b 04       		.byte	0x4
 9639 123c 40       		.byte	0x40
 9640 123d F2100000 		.4byte	0x10f2
 9641 1241 00       		.byte	0
 9642 1242 07       		.uleb128 0x7
 9643 1243 F71B0000 		.4byte	.LASF318
 9644 1247 04       		.byte	0x4
 9645 1248 41       		.byte	0x41
 9646 1249 8F030000 		.4byte	0x38f
 9647 124d 04       		.byte	0x4
 9648 124e 07       		.uleb128 0x7
 9649 124f 5E130000 		.4byte	.LASF319
 9650 1253 04       		.byte	0x4
 9651 1254 42       		.byte	0x42
 9652 1255 8F030000 		.4byte	0x38f
 9653 1259 0C       		.byte	0xc
 9654 125a 0A       		.uleb128 0xa
 9655 125b 040A0000 		.4byte	.LASF320
 9656 125f 04       		.byte	0x4
 9657 1260 43       		.byte	0x43
 9658 1261 B8000000 		.4byte	0xb8
 9659 1265 01       		.byte	0x1
 9660 1266 01       		.byte	0x1
 9661 1267 07       		.byte	0x7
 9662 1268 14       		.byte	0x14
 9663 1269 0A       		.uleb128 0xa
 9664 126a D1020000 		.4byte	.LASF321
 9665 126e 04       		.byte	0x4
 9666 126f 44       		.byte	0x44
 9667 1270 B8000000 		.4byte	0xb8
 9668 1274 01       		.byte	0x1
 9669 1275 01       		.byte	0x1
 9670 1276 06       		.byte	0x6
 9671 1277 14       		.byte	0x14
 9672 1278 0A       		.uleb128 0xa
 9673 1279 7F170000 		.4byte	.LASF322
 9674 127d 04       		.byte	0x4
 9675 127e 45       		.byte	0x45
 9676 127f 23120000 		.4byte	0x1223
 9677 1283 01       		.byte	0x1
 9678 1284 03       		.byte	0x3
 9679 1285 03       		.byte	0x3
 9680 1286 14       		.byte	0x14
 9681 1287 00       		.byte	0
 9682 1288 06       		.uleb128 0x6
 9683 1289 0C       		.byte	0xc
 9684 128a 04       		.byte	0x4
 9685 128b 48       		.byte	0x48
 9686 128c F4120000 		.4byte	0x12f4
 9687 1290 07       		.uleb128 0x7
ARM GAS  C:\Users\tmj32\AppData\Local\Temp\ccI3WYuM.s 			page 228


 9688 1291 24020000 		.4byte	.LASF187
 9689 1295 04       		.byte	0x4
 9690 1296 4A       		.byte	0x4a
 9691 1297 9A030000 		.4byte	0x39a
 9692 129b 00       		.byte	0
 9693 129c 07       		.uleb128 0x7
 9694 129d 5F110000 		.4byte	.LASF317
 9695 12a1 04       		.byte	0x4
 9696 12a2 4B       		.byte	0x4b
 9697 12a3 F2100000 		.4byte	0x10f2
 9698 12a7 04       		.byte	0x4
 9699 12a8 0A       		.uleb128 0xa
 9700 12a9 110B0000 		.4byte	.LASF323
 9701 12ad 04       		.byte	0x4
 9702 12ae 4C       		.byte	0x4c
 9703 12af B8000000 		.4byte	0xb8
 9704 12b3 01       		.byte	0x1
 9705 12b4 01       		.byte	0x1
 9706 12b5 07       		.byte	0x7
 9707 12b6 08       		.byte	0x8
 9708 12b7 0A       		.uleb128 0xa
 9709 12b8 A7150000 		.4byte	.LASF324
 9710 12bc 04       		.byte	0x4
 9711 12bd 4D       		.byte	0x4d
 9712 12be B8000000 		.4byte	0xb8
 9713 12c2 01       		.byte	0x1
 9714 12c3 01       		.byte	0x1
 9715 12c4 06       		.byte	0x6
 9716 12c5 08       		.byte	0x8
 9717 12c6 0A       		.uleb128 0xa
 9718 12c7 F8160000 		.4byte	.LASF325
 9719 12cb 04       		.byte	0x4
 9720 12cc 4F       		.byte	0x4f
 9721 12cd B8000000 		.4byte	0xb8
 9722 12d1 01       		.byte	0x1
 9723 12d2 01       		.byte	0x1
 9724 12d3 05       		.byte	0x5
 9725 12d4 08       		.byte	0x8
 9726 12d5 0A       		.uleb128 0xa
 9727 12d6 EF160000 		.4byte	.LASF326
 9728 12da 04       		.byte	0x4
 9729 12db 51       		.byte	0x51
 9730 12dc B8000000 		.4byte	0xb8
 9731 12e0 01       		.byte	0x1
 9732 12e1 01       		.byte	0x1
 9733 12e2 04       		.byte	0x4
 9734 12e3 08       		.byte	0x8
 9735 12e4 0A       		.uleb128 0xa
 9736 12e5 70070000 		.4byte	.LASF327
 9737 12e9 04       		.byte	0x4
 9738 12ea 53       		.byte	0x53
 9739 12eb B8000000 		.4byte	0xb8
 9740 12ef 01       		.byte	0x1
 9741 12f0 01       		.byte	0x1
 9742 12f1 03       		.byte	0x3
 9743 12f2 08       		.byte	0x8
 9744 12f3 00       		.byte	0
ARM GAS  C:\Users\tmj32\AppData\Local\Temp\ccI3WYuM.s 			page 229


 9745 12f4 06       		.uleb128 0x6
 9746 12f5 30       		.byte	0x30
 9747 12f6 04       		.byte	0x4
 9748 12f7 39       		.byte	0x39
 9749 12f8 55130000 		.4byte	0x1355
 9750 12fc 08       		.uleb128 0x8
 9751 12fd 626700   		.ascii	"bg\000"
 9752 1300 04       		.byte	0x4
 9753 1301 3B       		.byte	0x3b
 9754 1302 92110000 		.4byte	0x1192
 9755 1306 00       		.byte	0
 9756 1307 07       		.uleb128 0x7
 9757 1308 CA050000 		.4byte	.LASF328
 9758 130c 04       		.byte	0x4
 9759 130d 3D       		.byte	0x3d
 9760 130e 55130000 		.4byte	0x1355
 9761 1312 04       		.byte	0x4
 9762 1313 08       		.uleb128 0x8
 9763 1314 736200   		.ascii	"sb\000"
 9764 1317 04       		.byte	0x4
 9765 1318 46       		.byte	0x46
 9766 1319 2E120000 		.4byte	0x122e
 9767 131d 08       		.byte	0x8
 9768 131e 07       		.uleb128 0x7
 9769 131f B01C0000 		.4byte	.LASF329
 9770 1323 04       		.byte	0x4
 9771 1324 55       		.byte	0x55
 9772 1325 88120000 		.4byte	0x1288
 9773 1329 20       		.byte	0x20
 9774 132a 07       		.uleb128 0x7
 9775 132b 37070000 		.4byte	.LASF330
 9776 132f 04       		.byte	0x4
 9777 1330 57       		.byte	0x57
 9778 1331 CE000000 		.4byte	0xce
 9779 1335 2C       		.byte	0x2c
 9780 1336 0A       		.uleb128 0xa
 9781 1337 52050000 		.4byte	.LASF331
 9782 133b 04       		.byte	0x4
 9783 133c 5A       		.byte	0x5a
 9784 133d B8000000 		.4byte	0xb8
 9785 1341 01       		.byte	0x1
 9786 1342 01       		.byte	0x1
 9787 1343 07       		.byte	0x7
 9788 1344 2E       		.byte	0x2e
 9789 1345 0A       		.uleb128 0xa
 9790 1346 F00A0000 		.4byte	.LASF332
 9791 134a 04       		.byte	0x4
 9792 134b 5B       		.byte	0x5b
 9793 134c B8000000 		.4byte	0xb8
 9794 1350 01       		.byte	0x1
 9795 1351 01       		.byte	0x1
 9796 1352 06       		.byte	0x6
 9797 1353 2E       		.byte	0x2e
 9798 1354 00       		.byte	0
 9799 1355 0D       		.uleb128 0xd
 9800 1356 04       		.byte	0x4
 9801 1357 FD100000 		.4byte	0x10fd
ARM GAS  C:\Users\tmj32\AppData\Local\Temp\ccI3WYuM.s 			page 230


 9802 135b 02       		.uleb128 0x2
 9803 135c E4060000 		.4byte	.LASF333
 9804 1360 04       		.byte	0x4
 9805 1361 5C       		.byte	0x5c
 9806 1362 F4120000 		.4byte	0x12f4
 9807 1366 0F       		.uleb128 0xf
 9808 1367 01       		.byte	0x1
 9809 1368 42000000 		.4byte	0x42
 9810 136c 04       		.byte	0x4
 9811 136d 5E       		.byte	0x5e
 9812 136e 8B130000 		.4byte	0x138b
 9813 1372 10       		.uleb128 0x10
 9814 1373 08170000 		.4byte	.LASF334
 9815 1377 00       		.byte	0
 9816 1378 10       		.uleb128 0x10
 9817 1379 59140000 		.4byte	.LASF335
 9818 137d 01       		.byte	0x1
 9819 137e 10       		.uleb128 0x10
 9820 137f E2090000 		.4byte	.LASF336
 9821 1383 02       		.byte	0x2
 9822 1384 10       		.uleb128 0x10
 9823 1385 21010000 		.4byte	.LASF337
 9824 1389 03       		.byte	0x3
 9825 138a 00       		.byte	0
 9826 138b 0F       		.uleb128 0xf
 9827 138c 01       		.byte	0x1
 9828 138d 42000000 		.4byte	0x42
 9829 1391 17       		.byte	0x17
 9830 1392 2B       		.byte	0x2b
 9831 1393 B6130000 		.4byte	0x13b6
 9832 1397 10       		.uleb128 0x10
 9833 1398 4F080000 		.4byte	.LASF338
 9834 139c 00       		.byte	0
 9835 139d 10       		.uleb128 0x10
 9836 139e 3E050000 		.4byte	.LASF339
 9837 13a2 01       		.byte	0x1
 9838 13a3 10       		.uleb128 0x10
 9839 13a4 E10B0000 		.4byte	.LASF340
 9840 13a8 02       		.byte	0x2
 9841 13a9 10       		.uleb128 0x10
 9842 13aa 0D0A0000 		.4byte	.LASF341
 9843 13ae 04       		.byte	0x4
 9844 13af 10       		.uleb128 0x10
 9845 13b0 EC040000 		.4byte	.LASF342
 9846 13b4 08       		.byte	0x8
 9847 13b5 00       		.byte	0
 9848 13b6 0F       		.uleb128 0xf
 9849 13b7 01       		.byte	0x1
 9850 13b8 42000000 		.4byte	0x42
 9851 13bc 05       		.byte	0x5
 9852 13bd 2F       		.byte	0x2f
 9853 13be E7130000 		.4byte	0x13e7
 9854 13c2 10       		.uleb128 0x10
 9855 13c3 37190000 		.4byte	.LASF343
 9856 13c7 00       		.byte	0
 9857 13c8 10       		.uleb128 0x10
 9858 13c9 ED050000 		.4byte	.LASF344
ARM GAS  C:\Users\tmj32\AppData\Local\Temp\ccI3WYuM.s 			page 231


 9859 13cd 01       		.byte	0x1
 9860 13ce 10       		.uleb128 0x10
 9861 13cf 11160000 		.4byte	.LASF345
 9862 13d3 02       		.byte	0x2
 9863 13d4 10       		.uleb128 0x10
 9864 13d5 E10E0000 		.4byte	.LASF346
 9865 13d9 03       		.byte	0x3
 9866 13da 10       		.uleb128 0x10
 9867 13db 97070000 		.4byte	.LASF347
 9868 13df 04       		.byte	0x4
 9869 13e0 10       		.uleb128 0x10
 9870 13e1 561A0000 		.4byte	.LASF348
 9871 13e5 05       		.byte	0x5
 9872 13e6 00       		.byte	0
 9873 13e7 0F       		.uleb128 0xf
 9874 13e8 01       		.byte	0x1
 9875 13e9 42000000 		.4byte	0x42
 9876 13ed 05       		.byte	0x5
 9877 13ee 3B       		.byte	0x3b
 9878 13ef 0C140000 		.4byte	0x140c
 9879 13f3 10       		.uleb128 0x10
 9880 13f4 421A0000 		.4byte	.LASF349
 9881 13f8 00       		.byte	0
 9882 13f9 10       		.uleb128 0x10
 9883 13fa 1F040000 		.4byte	.LASF350
 9884 13fe 01       		.byte	0x1
 9885 13ff 10       		.uleb128 0x10
 9886 1400 19060000 		.4byte	.LASF351
 9887 1404 02       		.byte	0x2
 9888 1405 10       		.uleb128 0x10
 9889 1406 5C010000 		.4byte	.LASF352
 9890 140a 03       		.byte	0x3
 9891 140b 00       		.byte	0
 9892 140c 02       		.uleb128 0x2
 9893 140d 65000000 		.4byte	.LASF353
 9894 1411 05       		.byte	0x5
 9895 1412 41       		.byte	0x41
 9896 1413 B8000000 		.4byte	0xb8
 9897 1417 0F       		.uleb128 0xf
 9898 1418 01       		.byte	0x1
 9899 1419 42000000 		.4byte	0x42
 9900 141d 05       		.byte	0x5
 9901 141e 6A       		.byte	0x6a
 9902 141f 2A140000 		.4byte	0x142a
 9903 1423 10       		.uleb128 0x10
 9904 1424 C00C0000 		.4byte	.LASF354
 9905 1428 00       		.byte	0
 9906 1429 00       		.byte	0
 9907 142a 02       		.uleb128 0x2
 9908 142b 8A000000 		.4byte	.LASF355
 9909 142f 05       		.byte	0x5
 9910 1430 6D       		.byte	0x6d
 9911 1431 B8000000 		.4byte	0xb8
 9912 1435 0F       		.uleb128 0xf
 9913 1436 01       		.byte	0x1
 9914 1437 42000000 		.4byte	0x42
 9915 143b 06       		.byte	0x6
ARM GAS  C:\Users\tmj32\AppData\Local\Temp\ccI3WYuM.s 			page 232


 9916 143c 31       		.byte	0x31
 9917 143d 66140000 		.4byte	0x1466
 9918 1441 10       		.uleb128 0x10
 9919 1442 16080000 		.4byte	.LASF356
 9920 1446 00       		.byte	0
 9921 1447 10       		.uleb128 0x10
 9922 1448 49020000 		.4byte	.LASF357
 9923 144c 01       		.byte	0x1
 9924 144d 10       		.uleb128 0x10
 9925 144e D6030000 		.4byte	.LASF358
 9926 1452 02       		.byte	0x2
 9927 1453 10       		.uleb128 0x10
 9928 1454 F8010000 		.4byte	.LASF359
 9929 1458 03       		.byte	0x3
 9930 1459 10       		.uleb128 0x10
 9931 145a 910E0000 		.4byte	.LASF360
 9932 145e 04       		.byte	0x4
 9933 145f 10       		.uleb128 0x10
 9934 1460 F7180000 		.4byte	.LASF361
 9935 1464 08       		.byte	0x8
 9936 1465 00       		.byte	0
 9937 1466 02       		.uleb128 0x2
 9938 1467 A0180000 		.4byte	.LASF362
 9939 146b 06       		.byte	0x6
 9940 146c 39       		.byte	0x39
 9941 146d B8000000 		.4byte	0xb8
 9942 1471 06       		.uleb128 0x6
 9943 1472 18       		.byte	0x18
 9944 1473 06       		.byte	0x6
 9945 1474 46       		.byte	0x46
 9946 1475 EF140000 		.4byte	0x14ef
 9947 1479 07       		.uleb128 0x7
 9948 147a 5F110000 		.4byte	.LASF317
 9949 147e 06       		.byte	0x6
 9950 147f 48       		.byte	0x48
 9951 1480 F2100000 		.4byte	0x10f2
 9952 1484 00       		.byte	0
 9953 1485 07       		.uleb128 0x7
 9954 1486 2A080000 		.4byte	.LASF363
 9955 148a 06       		.byte	0x6
 9956 148b 49       		.byte	0x49
 9957 148c EF000000 		.4byte	0xef
 9958 1490 04       		.byte	0x4
 9959 1491 08       		.uleb128 0x8
 9960 1492 706F7300 		.ascii	"pos\000"
 9961 1496 06       		.byte	0x6
 9962 1497 4B       		.byte	0x4b
 9963 1498 CE000000 		.4byte	0xce
 9964 149c 06       		.byte	0x6
 9965 149d 07       		.uleb128 0x7
 9966 149e BC0F0000 		.4byte	.LASF364
 9967 14a2 06       		.byte	0x6
 9968 14a3 4D       		.byte	0x4d
 9969 14a4 CE000000 		.4byte	0xce
 9970 14a8 08       		.byte	0x8
 9971 14a9 07       		.uleb128 0x7
 9972 14aa EB0A0000 		.4byte	.LASF130
ARM GAS  C:\Users\tmj32\AppData\Local\Temp\ccI3WYuM.s 			page 233


 9973 14ae 06       		.byte	0x6
 9974 14af 4E       		.byte	0x4e
 9975 14b0 8F030000 		.4byte	0x38f
 9976 14b4 0A       		.byte	0xa
 9977 14b5 07       		.uleb128 0x7
 9978 14b6 D5170000 		.4byte	.LASF365
 9979 14ba 06       		.byte	0x6
 9980 14bb 4F       		.byte	0x4f
 9981 14bc CE000000 		.4byte	0xce
 9982 14c0 12       		.byte	0x12
 9983 14c1 0A       		.uleb128 0xa
 9984 14c2 8B020000 		.4byte	.LASF85
 9985 14c6 06       		.byte	0x6
 9986 14c7 50       		.byte	0x50
 9987 14c8 66140000 		.4byte	0x1466
 9988 14cc 01       		.byte	0x1
 9989 14cd 04       		.byte	0x4
 9990 14ce 04       		.byte	0x4
 9991 14cf 14       		.byte	0x14
 9992 14d0 0A       		.uleb128 0xa
 9993 14d1 24020000 		.4byte	.LASF187
 9994 14d5 06       		.byte	0x6
 9995 14d6 51       		.byte	0x51
 9996 14d7 B8000000 		.4byte	0xb8
 9997 14db 01       		.byte	0x1
 9998 14dc 01       		.byte	0x1
 9999 14dd 03       		.byte	0x3
 10000 14de 14       		.byte	0x14
 10001 14df 0A       		.uleb128 0xa
 10002 14e0 08090000 		.4byte	.LASF366
 10003 14e4 06       		.byte	0x6
 10004 14e5 52       		.byte	0x52
 10005 14e6 B8000000 		.4byte	0xb8
 10006 14ea 01       		.byte	0x1
 10007 14eb 01       		.byte	0x1
 10008 14ec 02       		.byte	0x2
 10009 14ed 14       		.byte	0x14
 10010 14ee 00       		.byte	0
 10011 14ef 06       		.uleb128 0x6
 10012 14f0 60       		.byte	0x60
 10013 14f1 06       		.byte	0x6
 10014 14f2 3C       		.byte	0x3c
 10015 14f3 76150000 		.4byte	0x1576
 10016 14f7 07       		.uleb128 0x7
 10017 14f8 73100000 		.4byte	.LASF367
 10018 14fc 06       		.byte	0x6
 10019 14fd 3E       		.byte	0x3e
 10020 14fe 5B130000 		.4byte	0x135b
 10021 1502 00       		.byte	0
 10022 1503 07       		.uleb128 0x7
 10023 1504 491B0000 		.4byte	.LASF368
 10024 1508 06       		.byte	0x6
 10025 1509 40       		.byte	0x40
 10026 150a 55130000 		.4byte	0x1355
 10027 150e 30       		.byte	0x30
 10028 150f 07       		.uleb128 0x7
 10029 1510 B4040000 		.4byte	.LASF369
ARM GAS  C:\Users\tmj32\AppData\Local\Temp\ccI3WYuM.s 			page 234


 10030 1514 06       		.byte	0x6
 10031 1515 41       		.byte	0x41
 10032 1516 55130000 		.4byte	0x1355
 10033 151a 34       		.byte	0x34
 10034 151b 07       		.uleb128 0x7
 10035 151c DA090000 		.4byte	.LASF370
 10036 1520 06       		.byte	0x6
 10037 1521 42       		.byte	0x42
 10038 1522 0A030000 		.4byte	0x30a
 10039 1526 38       		.byte	0x38
 10040 1527 07       		.uleb128 0x7
 10041 1528 C2020000 		.4byte	.LASF371
 10042 152c 06       		.byte	0x6
 10043 152d 43       		.byte	0x43
 10044 152e 17030000 		.4byte	0x317
 10045 1532 3C       		.byte	0x3c
 10046 1533 07       		.uleb128 0x7
 10047 1534 B60B0000 		.4byte	.LASF372
 10048 1538 06       		.byte	0x6
 10049 1539 44       		.byte	0x44
 10050 153a CE000000 		.4byte	0xce
 10051 153e 40       		.byte	0x40
 10052 153f 07       		.uleb128 0x7
 10053 1540 9F060000 		.4byte	.LASF373
 10054 1544 06       		.byte	0x6
 10055 1545 45       		.byte	0x45
 10056 1546 CE000000 		.4byte	0xce
 10057 154a 42       		.byte	0x42
 10058 154b 07       		.uleb128 0x7
 10059 154c 661C0000 		.4byte	.LASF223
 10060 1550 06       		.byte	0x6
 10061 1551 53       		.byte	0x53
 10062 1552 71140000 		.4byte	0x1471
 10063 1556 44       		.byte	0x44
 10064 1557 0A       		.uleb128 0xa
 10065 1558 F9070000 		.4byte	.LASF374
 10066 155c 06       		.byte	0x6
 10067 155d 59       		.byte	0x59
 10068 155e B8000000 		.4byte	0xb8
 10069 1562 01       		.byte	0x1
 10070 1563 01       		.byte	0x1
 10071 1564 07       		.byte	0x7
 10072 1565 5C       		.byte	0x5c
 10073 1566 0A       		.uleb128 0xa
 10074 1567 3E030000 		.4byte	.LASF375
 10075 156b 06       		.byte	0x6
 10076 156c 5A       		.byte	0x5a
 10077 156d B8000000 		.4byte	0xb8
 10078 1571 01       		.byte	0x1
 10079 1572 01       		.byte	0x1
 10080 1573 06       		.byte	0x6
 10081 1574 5C       		.byte	0x5c
 10082 1575 00       		.byte	0
 10083 1576 02       		.uleb128 0x2
 10084 1577 4C150000 		.4byte	.LASF376
 10085 157b 06       		.byte	0x6
 10086 157c 5B       		.byte	0x5b
ARM GAS  C:\Users\tmj32\AppData\Local\Temp\ccI3WYuM.s 			page 235


 10087 157d EF140000 		.4byte	0x14ef
 10088 1581 0F       		.uleb128 0xf
 10089 1582 01       		.byte	0x1
 10090 1583 42000000 		.4byte	0x42
 10091 1587 06       		.byte	0x6
 10092 1588 5E       		.byte	0x5e
 10093 1589 AC150000 		.4byte	0x15ac
 10094 158d 10       		.uleb128 0x10
 10095 158e FD030000 		.4byte	.LASF377
 10096 1592 00       		.byte	0
 10097 1593 10       		.uleb128 0x10
 10098 1594 02130000 		.4byte	.LASF378
 10099 1598 01       		.byte	0x1
 10100 1599 10       		.uleb128 0x10
 10101 159a 8F150000 		.4byte	.LASF379
 10102 159e 02       		.byte	0x2
 10103 159f 10       		.uleb128 0x10
 10104 15a0 E6030000 		.4byte	.LASF380
 10105 15a4 03       		.byte	0x3
 10106 15a5 10       		.uleb128 0x10
 10107 15a6 2E180000 		.4byte	.LASF381
 10108 15aa 04       		.byte	0x4
 10109 15ab 00       		.byte	0
 10110 15ac 02       		.uleb128 0x2
 10111 15ad FF170000 		.4byte	.LASF382
 10112 15b1 06       		.byte	0x6
 10113 15b2 65       		.byte	0x65
 10114 15b3 B8000000 		.4byte	0xb8
 10115 15b7 06       		.uleb128 0x6
 10116 15b8 14       		.byte	0x14
 10117 15b9 18       		.byte	0x18
 10118 15ba 34       		.byte	0x34
 10119 15bb FB150000 		.4byte	0x15fb
 10120 15bf 08       		.uleb128 0x8
 10121 15c0 72656C00 		.ascii	"rel\000"
 10122 15c4 18       		.byte	0x18
 10123 15c5 36       		.byte	0x36
 10124 15c6 15070000 		.4byte	0x715
 10125 15ca 00       		.byte	0
 10126 15cb 08       		.uleb128 0x8
 10127 15cc 707200   		.ascii	"pr\000"
 10128 15cf 18       		.byte	0x18
 10129 15d0 37       		.byte	0x37
 10130 15d1 15070000 		.4byte	0x715
 10131 15d5 04       		.byte	0x4
 10132 15d6 07       		.uleb128 0x7
 10133 15d7 D00F0000 		.4byte	.LASF383
 10134 15db 18       		.byte	0x18
 10135 15dc 38       		.byte	0x38
 10136 15dd 15070000 		.4byte	0x715
 10137 15e1 08       		.byte	0x8
 10138 15e2 07       		.uleb128 0x7
 10139 15e3 AA050000 		.4byte	.LASF384
 10140 15e7 18       		.byte	0x18
 10141 15e8 39       		.byte	0x39
 10142 15e9 15070000 		.4byte	0x715
 10143 15ed 0C       		.byte	0xc
ARM GAS  C:\Users\tmj32\AppData\Local\Temp\ccI3WYuM.s 			page 236


 10144 15ee 08       		.uleb128 0x8
 10145 15ef 696E6100 		.ascii	"ina\000"
 10146 15f3 18       		.byte	0x18
 10147 15f4 3A       		.byte	0x3a
 10148 15f5 15070000 		.4byte	0x715
 10149 15f9 10       		.byte	0x10
 10150 15fa 00       		.byte	0
 10151 15fb 06       		.uleb128 0x6
 10152 15fc 14       		.byte	0x14
 10153 15fd 18       		.byte	0x18
 10154 15fe 3F       		.byte	0x3f
 10155 15ff 3F160000 		.4byte	0x163f
 10156 1603 08       		.uleb128 0x8
 10157 1604 72656C00 		.ascii	"rel\000"
 10158 1608 18       		.byte	0x18
 10159 1609 41       		.byte	0x41
 10160 160a 15070000 		.4byte	0x715
 10161 160e 00       		.byte	0
 10162 160f 08       		.uleb128 0x8
 10163 1610 707200   		.ascii	"pr\000"
 10164 1613 18       		.byte	0x18
 10165 1614 42       		.byte	0x42
 10166 1615 15070000 		.4byte	0x715
 10167 1619 04       		.byte	0x4
 10168 161a 07       		.uleb128 0x7
 10169 161b D00F0000 		.4byte	.LASF383
 10170 161f 18       		.byte	0x18
 10171 1620 43       		.byte	0x43
 10172 1621 15070000 		.4byte	0x715
 10173 1625 08       		.byte	0x8
 10174 1626 07       		.uleb128 0x7
 10175 1627 AA050000 		.4byte	.LASF384
 10176 162b 18       		.byte	0x18
 10177 162c 44       		.byte	0x44
 10178 162d 15070000 		.4byte	0x715
 10179 1631 0C       		.byte	0xc
 10180 1632 08       		.uleb128 0x8
 10181 1633 696E6100 		.ascii	"ina\000"
 10182 1637 18       		.byte	0x18
 10183 1638 45       		.byte	0x45
 10184 1639 15070000 		.4byte	0x715
 10185 163d 10       		.byte	0x10
 10186 163e 00       		.byte	0
 10187 163f 06       		.uleb128 0x6
 10188 1640 0C       		.byte	0xc
 10189 1641 18       		.byte	0x18
 10190 1642 4A       		.byte	0x4a
 10191 1643 6C160000 		.4byte	0x166c
 10192 1647 07       		.uleb128 0x7
 10193 1648 FE020000 		.4byte	.LASF385
 10194 164c 18       		.byte	0x18
 10195 164d 4C       		.byte	0x4c
 10196 164e 15070000 		.4byte	0x715
 10197 1652 00       		.byte	0
 10198 1653 08       		.uleb128 0x8
 10199 1654 73656300 		.ascii	"sec\000"
 10200 1658 18       		.byte	0x18
ARM GAS  C:\Users\tmj32\AppData\Local\Temp\ccI3WYuM.s 			page 237


 10201 1659 4D       		.byte	0x4d
 10202 165a 15070000 		.4byte	0x715
 10203 165e 04       		.byte	0x4
 10204 165f 07       		.uleb128 0x7
 10205 1660 920B0000 		.4byte	.LASF386
 10206 1664 18       		.byte	0x18
 10207 1665 4E       		.byte	0x4e
 10208 1666 15070000 		.4byte	0x715
 10209 166a 08       		.byte	0x8
 10210 166b 00       		.byte	0
 10211 166c 06       		.uleb128 0x6
 10212 166d 08       		.byte	0x8
 10213 166e 18       		.byte	0x18
 10214 166f 53       		.byte	0x53
 10215 1670 8D160000 		.4byte	0x168d
 10216 1674 07       		.uleb128 0x7
 10217 1675 DA020000 		.4byte	.LASF387
 10218 1679 18       		.byte	0x18
 10219 167a 55       		.byte	0x55
 10220 167b 15070000 		.4byte	0x715
 10221 167f 00       		.byte	0
 10222 1680 07       		.uleb128 0x7
 10223 1681 241A0000 		.4byte	.LASF388
 10224 1685 18       		.byte	0x18
 10225 1686 56       		.byte	0x56
 10226 1687 15070000 		.4byte	0x715
 10227 168b 04       		.byte	0x4
 10228 168c 00       		.byte	0
 10229 168d 06       		.uleb128 0x6
 10230 168e 04       		.byte	0x4
 10231 168f 18       		.byte	0x18
 10232 1690 5B       		.byte	0x5b
 10233 1691 A2160000 		.4byte	0x16a2
 10234 1695 07       		.uleb128 0x7
 10235 1696 46150000 		.4byte	.LASF389
 10236 169a 18       		.byte	0x18
 10237 169b 5D       		.byte	0x5d
 10238 169c 15070000 		.4byte	0x715
 10239 16a0 00       		.byte	0
 10240 16a1 00       		.byte	0
 10241 16a2 06       		.uleb128 0x6
 10242 16a3 08       		.byte	0x8
 10243 16a4 18       		.byte	0x18
 10244 16a5 66       		.byte	0x66
 10245 16a6 C2160000 		.4byte	0x16c2
 10246 16aa 08       		.uleb128 0x8
 10247 16ab 626700   		.ascii	"bg\000"
 10248 16ae 18       		.byte	0x18
 10249 16af 68       		.byte	0x68
 10250 16b0 15070000 		.4byte	0x715
 10251 16b4 00       		.byte	0
 10252 16b5 07       		.uleb128 0x7
 10253 16b6 FC0D0000 		.4byte	.LASF390
 10254 16ba 18       		.byte	0x18
 10255 16bb 69       		.byte	0x69
 10256 16bc 15070000 		.4byte	0x715
 10257 16c0 04       		.byte	0x4
ARM GAS  C:\Users\tmj32\AppData\Local\Temp\ccI3WYuM.s 			page 238


 10258 16c1 00       		.byte	0
 10259 16c2 06       		.uleb128 0x6
 10260 16c3 0C       		.byte	0xc
 10261 16c4 18       		.byte	0x18
 10262 16c5 6E       		.byte	0x6e
 10263 16c6 EE160000 		.4byte	0x16ee
 10264 16ca 08       		.uleb128 0x8
 10265 16cb 626700   		.ascii	"bg\000"
 10266 16ce 18       		.byte	0x18
 10267 16cf 70       		.byte	0x70
 10268 16d0 15070000 		.4byte	0x715
 10269 16d4 00       		.byte	0
 10270 16d5 07       		.uleb128 0x7
 10271 16d6 FC0D0000 		.4byte	.LASF390
 10272 16da 18       		.byte	0x18
 10273 16db 71       		.byte	0x71
 10274 16dc 15070000 		.4byte	0x715
 10275 16e0 04       		.byte	0x4
 10276 16e1 07       		.uleb128 0x7
 10277 16e2 E81B0000 		.4byte	.LASF391
 10278 16e6 18       		.byte	0x18
 10279 16e7 72       		.byte	0x72
 10280 16e8 15070000 		.4byte	0x715
 10281 16ec 08       		.byte	0x8
 10282 16ed 00       		.byte	0
 10283 16ee 06       		.uleb128 0x6
 10284 16ef 10       		.byte	0x10
 10285 16f0 18       		.byte	0x18
 10286 16f1 87       		.byte	0x87
 10287 16f2 26170000 		.4byte	0x1726
 10288 16f6 08       		.uleb128 0x8
 10289 16f7 626700   		.ascii	"bg\000"
 10290 16fa 18       		.byte	0x18
 10291 16fb 89       		.byte	0x89
 10292 16fc 15070000 		.4byte	0x715
 10293 1700 00       		.byte	0
 10294 1701 07       		.uleb128 0x7
 10295 1702 FC0D0000 		.4byte	.LASF390
 10296 1706 18       		.byte	0x18
 10297 1707 8A       		.byte	0x8a
 10298 1708 15070000 		.4byte	0x715
 10299 170c 04       		.byte	0x4
 10300 170d 07       		.uleb128 0x7
 10301 170e 8C100000 		.4byte	.LASF392
 10302 1712 18       		.byte	0x18
 10303 1713 8B       		.byte	0x8b
 10304 1714 15070000 		.4byte	0x715
 10305 1718 08       		.byte	0x8
 10306 1719 07       		.uleb128 0x7
 10307 171a 65060000 		.4byte	.LASF393
 10308 171e 18       		.byte	0x18
 10309 171f 8C       		.byte	0x8c
 10310 1720 15070000 		.4byte	0x715
 10311 1724 0C       		.byte	0xc
 10312 1725 00       		.byte	0
 10313 1726 06       		.uleb128 0x6
 10314 1727 20       		.byte	0x20
ARM GAS  C:\Users\tmj32\AppData\Local\Temp\ccI3WYuM.s 			page 239


 10315 1728 18       		.byte	0x18
 10316 1729 95       		.byte	0x95
 10317 172a 8E170000 		.4byte	0x178e
 10318 172e 08       		.uleb128 0x8
 10319 172f 626700   		.ascii	"bg\000"
 10320 1732 18       		.byte	0x18
 10321 1733 97       		.byte	0x97
 10322 1734 15070000 		.4byte	0x715
 10323 1738 00       		.byte	0
 10324 1739 07       		.uleb128 0x7
 10325 173a 8A060000 		.4byte	.LASF394
 10326 173e 18       		.byte	0x18
 10327 173f 98       		.byte	0x98
 10328 1740 15070000 		.4byte	0x715
 10329 1744 04       		.byte	0x4
 10330 1745 07       		.uleb128 0x7
 10331 1746 32000000 		.4byte	.LASF395
 10332 174a 18       		.byte	0x18
 10333 174b 99       		.byte	0x99
 10334 174c 15070000 		.4byte	0x715
 10335 1750 08       		.byte	0x8
 10336 1751 07       		.uleb128 0x7
 10337 1752 67180000 		.4byte	.LASF396
 10338 1756 18       		.byte	0x18
 10339 1757 9A       		.byte	0x9a
 10340 1758 15070000 		.4byte	0x715
 10341 175c 0C       		.byte	0xc
 10342 175d 07       		.uleb128 0x7
 10343 175e E7010000 		.4byte	.LASF397
 10344 1762 18       		.byte	0x18
 10345 1763 9B       		.byte	0x9b
 10346 1764 15070000 		.4byte	0x715
 10347 1768 10       		.byte	0x10
 10348 1769 07       		.uleb128 0x7
 10349 176a 67130000 		.4byte	.LASF398
 10350 176e 18       		.byte	0x18
 10351 176f 9C       		.byte	0x9c
 10352 1770 15070000 		.4byte	0x715
 10353 1774 14       		.byte	0x14
 10354 1775 07       		.uleb128 0x7
 10355 1776 8E070000 		.4byte	.LASF399
 10356 177a 18       		.byte	0x18
 10357 177b 9D       		.byte	0x9d
 10358 177c 15070000 		.4byte	0x715
 10359 1780 18       		.byte	0x18
 10360 1781 07       		.uleb128 0x7
 10361 1782 90050000 		.4byte	.LASF400
 10362 1786 18       		.byte	0x18
 10363 1787 9E       		.byte	0x9e
 10364 1788 15070000 		.4byte	0x715
 10365 178c 1C       		.byte	0x1c
 10366 178d 00       		.byte	0
 10367 178e 06       		.uleb128 0x6
 10368 178f 14       		.byte	0x14
 10369 1790 18       		.byte	0x18
 10370 1791 A6       		.byte	0xa6
 10371 1792 D2170000 		.4byte	0x17d2
ARM GAS  C:\Users\tmj32\AppData\Local\Temp\ccI3WYuM.s 			page 240


 10372 1796 08       		.uleb128 0x8
 10373 1797 72656C00 		.ascii	"rel\000"
 10374 179b 18       		.byte	0x18
 10375 179c A8       		.byte	0xa8
 10376 179d 15070000 		.4byte	0x715
 10377 17a1 00       		.byte	0
 10378 17a2 08       		.uleb128 0x8
 10379 17a3 707200   		.ascii	"pr\000"
 10380 17a6 18       		.byte	0x18
 10381 17a7 A9       		.byte	0xa9
 10382 17a8 15070000 		.4byte	0x715
 10383 17ac 04       		.byte	0x4
 10384 17ad 07       		.uleb128 0x7
 10385 17ae D00F0000 		.4byte	.LASF383
 10386 17b2 18       		.byte	0x18
 10387 17b3 AA       		.byte	0xaa
 10388 17b4 15070000 		.4byte	0x715
 10389 17b8 08       		.byte	0x8
 10390 17b9 07       		.uleb128 0x7
 10391 17ba AA050000 		.4byte	.LASF384
 10392 17be 18       		.byte	0x18
 10393 17bf AB       		.byte	0xab
 10394 17c0 15070000 		.4byte	0x715
 10395 17c4 0C       		.byte	0xc
 10396 17c5 08       		.uleb128 0x8
 10397 17c6 696E6100 		.ascii	"ina\000"
 10398 17ca 18       		.byte	0x18
 10399 17cb AC       		.byte	0xac
 10400 17cc 15070000 		.4byte	0x715
 10401 17d0 10       		.byte	0x10
 10402 17d1 00       		.byte	0
 10403 17d2 06       		.uleb128 0x6
 10404 17d3 18       		.byte	0x18
 10405 17d4 18       		.byte	0x18
 10406 17d5 A3       		.byte	0xa3
 10407 17d6 F2170000 		.4byte	0x17f2
 10408 17da 08       		.uleb128 0x8
 10409 17db 626700   		.ascii	"bg\000"
 10410 17de 18       		.byte	0x18
 10411 17df A5       		.byte	0xa5
 10412 17e0 15070000 		.4byte	0x715
 10413 17e4 00       		.byte	0
 10414 17e5 08       		.uleb128 0x8
 10415 17e6 626F7800 		.ascii	"box\000"
 10416 17ea 18       		.byte	0x18
 10417 17eb AD       		.byte	0xad
 10418 17ec 8E170000 		.4byte	0x178e
 10419 17f0 04       		.byte	0x4
 10420 17f1 00       		.byte	0
 10421 17f2 06       		.uleb128 0x6
 10422 17f3 14       		.byte	0x14
 10423 17f4 18       		.byte	0x18
 10424 17f5 B5       		.byte	0xb5
 10425 17f6 36180000 		.4byte	0x1836
 10426 17fa 08       		.uleb128 0x8
 10427 17fb 72656C00 		.ascii	"rel\000"
 10428 17ff 18       		.byte	0x18
ARM GAS  C:\Users\tmj32\AppData\Local\Temp\ccI3WYuM.s 			page 241


 10429 1800 B7       		.byte	0xb7
 10430 1801 15070000 		.4byte	0x715
 10431 1805 00       		.byte	0
 10432 1806 08       		.uleb128 0x8
 10433 1807 707200   		.ascii	"pr\000"
 10434 180a 18       		.byte	0x18
 10435 180b B8       		.byte	0xb8
 10436 180c 15070000 		.4byte	0x715
 10437 1810 04       		.byte	0x4
 10438 1811 07       		.uleb128 0x7
 10439 1812 D00F0000 		.4byte	.LASF383
 10440 1816 18       		.byte	0x18
 10441 1817 B9       		.byte	0xb9
 10442 1818 15070000 		.4byte	0x715
 10443 181c 08       		.byte	0x8
 10444 181d 07       		.uleb128 0x7
 10445 181e AA050000 		.4byte	.LASF384
 10446 1822 18       		.byte	0x18
 10447 1823 BA       		.byte	0xba
 10448 1824 15070000 		.4byte	0x715
 10449 1828 0C       		.byte	0xc
 10450 1829 08       		.uleb128 0x8
 10451 182a 696E6100 		.ascii	"ina\000"
 10452 182e 18       		.byte	0x18
 10453 182f BB       		.byte	0xbb
 10454 1830 15070000 		.4byte	0x715
 10455 1834 10       		.byte	0x10
 10456 1835 00       		.byte	0
 10457 1836 06       		.uleb128 0x6
 10458 1837 18       		.byte	0x18
 10459 1838 18       		.byte	0x18
 10460 1839 B2       		.byte	0xb2
 10461 183a 56180000 		.4byte	0x1856
 10462 183e 08       		.uleb128 0x8
 10463 183f 626700   		.ascii	"bg\000"
 10464 1842 18       		.byte	0x18
 10465 1843 B4       		.byte	0xb4
 10466 1844 15070000 		.4byte	0x715
 10467 1848 00       		.byte	0
 10468 1849 08       		.uleb128 0x8
 10469 184a 62746E00 		.ascii	"btn\000"
 10470 184e 18       		.byte	0x18
 10471 184f BC       		.byte	0xbc
 10472 1850 F2170000 		.4byte	0x17f2
 10473 1854 04       		.byte	0x4
 10474 1855 00       		.byte	0
 10475 1856 06       		.uleb128 0x6
 10476 1857 14       		.byte	0x14
 10477 1858 18       		.byte	0x18
 10478 1859 C4       		.byte	0xc4
 10479 185a 9A180000 		.4byte	0x189a
 10480 185e 08       		.uleb128 0x8
 10481 185f 72656C00 		.ascii	"rel\000"
 10482 1863 18       		.byte	0x18
 10483 1864 C6       		.byte	0xc6
 10484 1865 15070000 		.4byte	0x715
 10485 1869 00       		.byte	0
ARM GAS  C:\Users\tmj32\AppData\Local\Temp\ccI3WYuM.s 			page 242


 10486 186a 08       		.uleb128 0x8
 10487 186b 707200   		.ascii	"pr\000"
 10488 186e 18       		.byte	0x18
 10489 186f C7       		.byte	0xc7
 10490 1870 15070000 		.4byte	0x715
 10491 1874 04       		.byte	0x4
 10492 1875 07       		.uleb128 0x7
 10493 1876 D00F0000 		.4byte	.LASF383
 10494 187a 18       		.byte	0x18
 10495 187b C8       		.byte	0xc8
 10496 187c 15070000 		.4byte	0x715
 10497 1880 08       		.byte	0x8
 10498 1881 07       		.uleb128 0x7
 10499 1882 AA050000 		.4byte	.LASF384
 10500 1886 18       		.byte	0x18
 10501 1887 C9       		.byte	0xc9
 10502 1888 15070000 		.4byte	0x715
 10503 188c 0C       		.byte	0xc
 10504 188d 08       		.uleb128 0x8
 10505 188e 696E6100 		.ascii	"ina\000"
 10506 1892 18       		.byte	0x18
 10507 1893 CA       		.byte	0xca
 10508 1894 15070000 		.4byte	0x715
 10509 1898 10       		.byte	0x10
 10510 1899 00       		.byte	0
 10511 189a 06       		.uleb128 0x6
 10512 189b 18       		.byte	0x18
 10513 189c 18       		.byte	0x18
 10514 189d C1       		.byte	0xc1
 10515 189e BA180000 		.4byte	0x18ba
 10516 18a2 08       		.uleb128 0x8
 10517 18a3 626700   		.ascii	"bg\000"
 10518 18a6 18       		.byte	0x18
 10519 18a7 C3       		.byte	0xc3
 10520 18a8 15070000 		.4byte	0x715
 10521 18ac 00       		.byte	0
 10522 18ad 08       		.uleb128 0x8
 10523 18ae 62746E00 		.ascii	"btn\000"
 10524 18b2 18       		.byte	0x18
 10525 18b3 CB       		.byte	0xcb
 10526 18b4 56180000 		.4byte	0x1856
 10527 18b8 04       		.byte	0x4
 10528 18b9 00       		.byte	0
 10529 18ba 06       		.uleb128 0x6
 10530 18bb 0C       		.byte	0xc
 10531 18bc 18       		.byte	0x18
 10532 18bd D3       		.byte	0xd3
 10533 18be E5180000 		.4byte	0x18e5
 10534 18c2 08       		.uleb128 0x8
 10535 18c3 626700   		.ascii	"bg\000"
 10536 18c6 18       		.byte	0x18
 10537 18c7 D5       		.byte	0xd5
 10538 18c8 15070000 		.4byte	0x715
 10539 18cc 00       		.byte	0
 10540 18cd 08       		.uleb128 0x8
 10541 18ce 72656C00 		.ascii	"rel\000"
 10542 18d2 18       		.byte	0x18
ARM GAS  C:\Users\tmj32\AppData\Local\Temp\ccI3WYuM.s 			page 243


 10543 18d3 D6       		.byte	0xd6
 10544 18d4 15070000 		.4byte	0x715
 10545 18d8 04       		.byte	0x4
 10546 18d9 08       		.uleb128 0x8
 10547 18da 707200   		.ascii	"pr\000"
 10548 18dd 18       		.byte	0x18
 10549 18de D7       		.byte	0xd7
 10550 18df 15070000 		.4byte	0x715
 10551 18e3 08       		.byte	0x8
 10552 18e4 00       		.byte	0
 10553 18e5 06       		.uleb128 0x6
 10554 18e6 10       		.byte	0x10
 10555 18e7 18       		.byte	0x18
 10556 18e8 D0       		.byte	0xd0
 10557 18e9 05190000 		.4byte	0x1905
 10558 18ed 08       		.uleb128 0x8
 10559 18ee 626700   		.ascii	"bg\000"
 10560 18f1 18       		.byte	0x18
 10561 18f2 D2       		.byte	0xd2
 10562 18f3 15070000 		.4byte	0x715
 10563 18f7 00       		.byte	0
 10564 18f8 08       		.uleb128 0x8
 10565 18f9 62746E00 		.ascii	"btn\000"
 10566 18fd 18       		.byte	0x18
 10567 18fe D8       		.byte	0xd8
 10568 18ff BA180000 		.4byte	0x18ba
 10569 1903 04       		.byte	0x4
 10570 1904 00       		.byte	0
 10571 1905 06       		.uleb128 0x6
 10572 1906 0C       		.byte	0xc
 10573 1907 18       		.byte	0x18
 10574 1908 DD       		.byte	0xdd
 10575 1909 30190000 		.4byte	0x1930
 10576 190d 08       		.uleb128 0x8
 10577 190e 626700   		.ascii	"bg\000"
 10578 1911 18       		.byte	0x18
 10579 1912 DF       		.byte	0xdf
 10580 1913 15070000 		.4byte	0x715
 10581 1917 00       		.byte	0
 10582 1918 07       		.uleb128 0x7
 10583 1919 CA050000 		.4byte	.LASF328
 10584 191d 18       		.byte	0x18
 10585 191e E0       		.byte	0xe0
 10586 191f 15070000 		.4byte	0x715
 10587 1923 04       		.byte	0x4
 10588 1924 08       		.uleb128 0x8
 10589 1925 736200   		.ascii	"sb\000"
 10590 1928 18       		.byte	0x18
 10591 1929 E1       		.byte	0xe1
 10592 192a 15070000 		.4byte	0x715
 10593 192e 08       		.byte	0x8
 10594 192f 00       		.byte	0
 10595 1930 06       		.uleb128 0x6
 10596 1931 10       		.byte	0x10
 10597 1932 18       		.byte	0x18
 10598 1933 E6       		.byte	0xe6
 10599 1934 68190000 		.4byte	0x1968
ARM GAS  C:\Users\tmj32\AppData\Local\Temp\ccI3WYuM.s 			page 244


 10600 1938 07       		.uleb128 0x7
 10601 1939 EB0A0000 		.4byte	.LASF130
 10602 193d 18       		.byte	0x18
 10603 193e E8       		.byte	0xe8
 10604 193f 15070000 		.4byte	0x715
 10605 1943 00       		.byte	0
 10606 1944 07       		.uleb128 0x7
 10607 1945 E30A0000 		.4byte	.LASF401
 10608 1949 18       		.byte	0x18
 10609 194a E9       		.byte	0xe9
 10610 194b 15070000 		.4byte	0x715
 10611 194f 04       		.byte	0x4
 10612 1950 07       		.uleb128 0x7
 10613 1951 661C0000 		.4byte	.LASF223
 10614 1955 18       		.byte	0x18
 10615 1956 EA       		.byte	0xea
 10616 1957 15070000 		.4byte	0x715
 10617 195b 08       		.byte	0x8
 10618 195c 08       		.uleb128 0x8
 10619 195d 736200   		.ascii	"sb\000"
 10620 1960 18       		.byte	0x18
 10621 1961 EB       		.byte	0xeb
 10622 1962 15070000 		.4byte	0x715
 10623 1966 0C       		.byte	0xc
 10624 1967 00       		.byte	0
 10625 1968 06       		.uleb128 0x6
 10626 1969 0C       		.byte	0xc
 10627 196a 18       		.byte	0x18
 10628 196b F0       		.byte	0xf0
 10629 196c 93190000 		.4byte	0x1993
 10630 1970 08       		.uleb128 0x8
 10631 1971 626700   		.ascii	"bg\000"
 10632 1974 18       		.byte	0x18
 10633 1975 F2       		.byte	0xf2
 10634 1976 15070000 		.4byte	0x715
 10635 197a 00       		.byte	0
 10636 197b 07       		.uleb128 0x7
 10637 197c 661C0000 		.4byte	.LASF223
 10638 1980 18       		.byte	0x18
 10639 1981 F3       		.byte	0xf3
 10640 1982 15070000 		.4byte	0x715
 10641 1986 04       		.byte	0x4
 10642 1987 08       		.uleb128 0x8
 10643 1988 736200   		.ascii	"sb\000"
 10644 198b 18       		.byte	0x18
 10645 198c F4       		.byte	0xf4
 10646 198d 15070000 		.4byte	0x715
 10647 1991 08       		.byte	0x8
 10648 1992 00       		.byte	0
 10649 1993 06       		.uleb128 0x6
 10650 1994 14       		.byte	0x14
 10651 1995 18       		.byte	0x18
 10652 1996 FE       		.byte	0xfe
 10653 1997 DC190000 		.4byte	0x19dc
 10654 199b 1E       		.uleb128 0x1e
 10655 199c 72656C00 		.ascii	"rel\000"
 10656 19a0 18       		.byte	0x18
ARM GAS  C:\Users\tmj32\AppData\Local\Temp\ccI3WYuM.s 			page 245


 10657 19a1 0001     		.2byte	0x100
 10658 19a3 15070000 		.4byte	0x715
 10659 19a7 00       		.byte	0
 10660 19a8 1E       		.uleb128 0x1e
 10661 19a9 707200   		.ascii	"pr\000"
 10662 19ac 18       		.byte	0x18
 10663 19ad 0101     		.2byte	0x101
 10664 19af 15070000 		.4byte	0x715
 10665 19b3 04       		.byte	0x4
 10666 19b4 1F       		.uleb128 0x1f
 10667 19b5 D00F0000 		.4byte	.LASF383
 10668 19b9 18       		.byte	0x18
 10669 19ba 0201     		.2byte	0x102
 10670 19bc 15070000 		.4byte	0x715
 10671 19c0 08       		.byte	0x8
 10672 19c1 1F       		.uleb128 0x1f
 10673 19c2 AA050000 		.4byte	.LASF384
 10674 19c6 18       		.byte	0x18
 10675 19c7 0301     		.2byte	0x103
 10676 19c9 15070000 		.4byte	0x715
 10677 19cd 0C       		.byte	0xc
 10678 19ce 1E       		.uleb128 0x1e
 10679 19cf 696E6100 		.ascii	"ina\000"
 10680 19d3 18       		.byte	0x18
 10681 19d4 0401     		.2byte	0x104
 10682 19d6 15070000 		.4byte	0x715
 10683 19da 10       		.byte	0x10
 10684 19db 00       		.byte	0
 10685 19dc 06       		.uleb128 0x6
 10686 19dd 20       		.byte	0x20
 10687 19de 18       		.byte	0x18
 10688 19df F9       		.byte	0xf9
 10689 19e0 141A0000 		.4byte	0x1a14
 10690 19e4 08       		.uleb128 0x8
 10691 19e5 626700   		.ascii	"bg\000"
 10692 19e8 18       		.byte	0x18
 10693 19e9 FB       		.byte	0xfb
 10694 19ea 15070000 		.4byte	0x715
 10695 19ee 00       		.byte	0
 10696 19ef 07       		.uleb128 0x7
 10697 19f0 CA050000 		.4byte	.LASF328
 10698 19f4 18       		.byte	0x18
 10699 19f5 FC       		.byte	0xfc
 10700 19f6 15070000 		.4byte	0x715
 10701 19fa 04       		.byte	0x4
 10702 19fb 08       		.uleb128 0x8
 10703 19fc 736200   		.ascii	"sb\000"
 10704 19ff 18       		.byte	0x18
 10705 1a00 FD       		.byte	0xfd
 10706 1a01 15070000 		.4byte	0x715
 10707 1a05 08       		.byte	0x8
 10708 1a06 1E       		.uleb128 0x1e
 10709 1a07 62746E00 		.ascii	"btn\000"
 10710 1a0b 18       		.byte	0x18
 10711 1a0c 0501     		.2byte	0x105
 10712 1a0e 93190000 		.4byte	0x1993
 10713 1a12 0C       		.byte	0xc
ARM GAS  C:\Users\tmj32\AppData\Local\Temp\ccI3WYuM.s 			page 246


 10714 1a13 00       		.byte	0
 10715 1a14 20       		.uleb128 0x20
 10716 1a15 0C       		.byte	0xc
 10717 1a16 18       		.byte	0x18
 10718 1a17 0A01     		.2byte	0x10a
 10719 1a19 431A0000 		.4byte	0x1a43
 10720 1a1d 1E       		.uleb128 0x1e
 10721 1a1e 626700   		.ascii	"bg\000"
 10722 1a21 18       		.byte	0x18
 10723 1a22 0C01     		.2byte	0x10c
 10724 1a24 15070000 		.4byte	0x715
 10725 1a28 00       		.byte	0
 10726 1a29 1E       		.uleb128 0x1e
 10727 1a2a 73656C00 		.ascii	"sel\000"
 10728 1a2e 18       		.byte	0x18
 10729 1a2f 0D01     		.2byte	0x10d
 10730 1a31 15070000 		.4byte	0x715
 10731 1a35 04       		.byte	0x4
 10732 1a36 1E       		.uleb128 0x1e
 10733 1a37 736200   		.ascii	"sb\000"
 10734 1a3a 18       		.byte	0x18
 10735 1a3b 0E01     		.2byte	0x10e
 10736 1a3d 15070000 		.4byte	0x715
 10737 1a41 08       		.byte	0x8
 10738 1a42 00       		.byte	0
 10739 1a43 20       		.uleb128 0x20
 10740 1a44 08       		.byte	0x8
 10741 1a45 18       		.byte	0x18
 10742 1a46 1301     		.2byte	0x113
 10743 1a48 661A0000 		.4byte	0x1a66
 10744 1a4c 1E       		.uleb128 0x1e
 10745 1a4d 626700   		.ascii	"bg\000"
 10746 1a50 18       		.byte	0x18
 10747 1a51 1501     		.2byte	0x115
 10748 1a53 15070000 		.4byte	0x715
 10749 1a57 00       		.byte	0
 10750 1a58 1E       		.uleb128 0x1e
 10751 1a59 73656C00 		.ascii	"sel\000"
 10752 1a5d 18       		.byte	0x18
 10753 1a5e 1601     		.2byte	0x116
 10754 1a60 15070000 		.4byte	0x715
 10755 1a64 04       		.byte	0x4
 10756 1a65 00       		.byte	0
 10757 1a66 20       		.uleb128 0x20
 10758 1a67 14       		.byte	0x14
 10759 1a68 18       		.byte	0x18
 10760 1a69 1F01     		.2byte	0x11f
 10761 1a6b AF1A0000 		.4byte	0x1aaf
 10762 1a6f 1E       		.uleb128 0x1e
 10763 1a70 626700   		.ascii	"bg\000"
 10764 1a73 18       		.byte	0x18
 10765 1a74 2101     		.2byte	0x121
 10766 1a76 15070000 		.4byte	0x715
 10767 1a7a 00       		.byte	0
 10768 1a7b 1E       		.uleb128 0x1e
 10769 1a7c 72656C00 		.ascii	"rel\000"
 10770 1a80 18       		.byte	0x18
ARM GAS  C:\Users\tmj32\AppData\Local\Temp\ccI3WYuM.s 			page 247


 10771 1a81 2201     		.2byte	0x122
 10772 1a83 15070000 		.4byte	0x715
 10773 1a87 04       		.byte	0x4
 10774 1a88 1E       		.uleb128 0x1e
 10775 1a89 707200   		.ascii	"pr\000"
 10776 1a8c 18       		.byte	0x18
 10777 1a8d 2301     		.2byte	0x123
 10778 1a8f 15070000 		.4byte	0x715
 10779 1a93 08       		.byte	0x8
 10780 1a94 1F       		.uleb128 0x1f
 10781 1a95 D00F0000 		.4byte	.LASF383
 10782 1a99 18       		.byte	0x18
 10783 1a9a 2401     		.2byte	0x124
 10784 1a9c 15070000 		.4byte	0x715
 10785 1aa0 0C       		.byte	0xc
 10786 1aa1 1F       		.uleb128 0x1f
 10787 1aa2 AA050000 		.4byte	.LASF384
 10788 1aa6 18       		.byte	0x18
 10789 1aa7 2501     		.2byte	0x125
 10790 1aa9 15070000 		.4byte	0x715
 10791 1aad 10       		.byte	0x10
 10792 1aae 00       		.byte	0
 10793 1aaf 20       		.uleb128 0x20
 10794 1ab0 1C       		.byte	0x1c
 10795 1ab1 18       		.byte	0x18
 10796 1ab2 1B01     		.2byte	0x11b
 10797 1ab4 DF1A0000 		.4byte	0x1adf
 10798 1ab8 1E       		.uleb128 0x1e
 10799 1ab9 626700   		.ascii	"bg\000"
 10800 1abc 18       		.byte	0x18
 10801 1abd 1D01     		.2byte	0x11d
 10802 1abf 15070000 		.4byte	0x715
 10803 1ac3 00       		.byte	0
 10804 1ac4 1F       		.uleb128 0x1f
 10805 1ac5 FC0D0000 		.4byte	.LASF390
 10806 1ac9 18       		.byte	0x18
 10807 1aca 1E01     		.2byte	0x11e
 10808 1acc 15070000 		.4byte	0x715
 10809 1ad0 04       		.byte	0x4
 10810 1ad1 1E       		.uleb128 0x1e
 10811 1ad2 62746E00 		.ascii	"btn\000"
 10812 1ad6 18       		.byte	0x18
 10813 1ad7 2601     		.2byte	0x126
 10814 1ad9 661A0000 		.4byte	0x1a66
 10815 1add 08       		.byte	0x8
 10816 1ade 00       		.byte	0
 10817 1adf 20       		.uleb128 0x20
 10818 1ae0 0C       		.byte	0xc
 10819 1ae1 18       		.byte	0x18
 10820 1ae2 2B01     		.2byte	0x12b
 10821 1ae4 0E1B0000 		.4byte	0x1b0e
 10822 1ae8 1E       		.uleb128 0x1e
 10823 1ae9 626700   		.ascii	"bg\000"
 10824 1aec 18       		.byte	0x18
 10825 1aed 2D01     		.2byte	0x12d
 10826 1aef 15070000 		.4byte	0x715
 10827 1af3 00       		.byte	0
ARM GAS  C:\Users\tmj32\AppData\Local\Temp\ccI3WYuM.s 			page 248


 10828 1af4 1F       		.uleb128 0x1f
 10829 1af5 CA050000 		.4byte	.LASF328
 10830 1af9 18       		.byte	0x18
 10831 1afa 2E01     		.2byte	0x12e
 10832 1afc 15070000 		.4byte	0x715
 10833 1b00 04       		.byte	0x4
 10834 1b01 1E       		.uleb128 0x1e
 10835 1b02 736200   		.ascii	"sb\000"
 10836 1b05 18       		.byte	0x18
 10837 1b06 2F01     		.2byte	0x12f
 10838 1b08 15070000 		.4byte	0x715
 10839 1b0c 08       		.byte	0x8
 10840 1b0d 00       		.byte	0
 10841 1b0e 20       		.uleb128 0x20
 10842 1b0f 08       		.byte	0x8
 10843 1b10 18       		.byte	0x18
 10844 1b11 3401     		.2byte	0x134
 10845 1b13 311B0000 		.4byte	0x1b31
 10846 1b17 1E       		.uleb128 0x1e
 10847 1b18 626700   		.ascii	"bg\000"
 10848 1b1b 18       		.byte	0x18
 10849 1b1c 3601     		.2byte	0x136
 10850 1b1e 15070000 		.4byte	0x715
 10851 1b22 00       		.byte	0
 10852 1b23 1F       		.uleb128 0x1f
 10853 1b24 85000000 		.4byte	.LASF402
 10854 1b28 18       		.byte	0x18
 10855 1b29 3701     		.2byte	0x137
 10856 1b2b 15070000 		.4byte	0x715
 10857 1b2f 04       		.byte	0x4
 10858 1b30 00       		.byte	0
 10859 1b31 20       		.uleb128 0x20
 10860 1b32 08       		.byte	0x8
 10861 1b33 18       		.byte	0x18
 10862 1b34 4201     		.2byte	0x142
 10863 1b36 541B0000 		.4byte	0x1b54
 10864 1b3a 1E       		.uleb128 0x1e
 10865 1b3b 72656C00 		.ascii	"rel\000"
 10866 1b3f 18       		.byte	0x18
 10867 1b40 4401     		.2byte	0x144
 10868 1b42 15070000 		.4byte	0x715
 10869 1b46 00       		.byte	0
 10870 1b47 1E       		.uleb128 0x1e
 10871 1b48 707200   		.ascii	"pr\000"
 10872 1b4b 18       		.byte	0x18
 10873 1b4c 4501     		.2byte	0x145
 10874 1b4e 15070000 		.4byte	0x715
 10875 1b52 04       		.byte	0x4
 10876 1b53 00       		.byte	0
 10877 1b54 20       		.uleb128 0x20
 10878 1b55 18       		.byte	0x18
 10879 1b56 18       		.byte	0x18
 10880 1b57 3C01     		.2byte	0x13c
 10881 1b59 9D1B0000 		.4byte	0x1b9d
 10882 1b5d 1E       		.uleb128 0x1e
 10883 1b5e 626700   		.ascii	"bg\000"
 10884 1b61 18       		.byte	0x18
ARM GAS  C:\Users\tmj32\AppData\Local\Temp\ccI3WYuM.s 			page 249


 10885 1b62 3E01     		.2byte	0x13e
 10886 1b64 15070000 		.4byte	0x715
 10887 1b68 00       		.byte	0
 10888 1b69 1E       		.uleb128 0x1e
 10889 1b6a 736200   		.ascii	"sb\000"
 10890 1b6d 18       		.byte	0x18
 10891 1b6e 3F01     		.2byte	0x13f
 10892 1b70 15070000 		.4byte	0x715
 10893 1b74 04       		.byte	0x4
 10894 1b75 1F       		.uleb128 0x1f
 10895 1b76 8A060000 		.4byte	.LASF394
 10896 1b7a 18       		.byte	0x18
 10897 1b7b 4001     		.2byte	0x140
 10898 1b7d 15070000 		.4byte	0x715
 10899 1b81 08       		.byte	0x8
 10900 1b82 1F       		.uleb128 0x1f
 10901 1b83 B0190000 		.4byte	.LASF403
 10902 1b87 18       		.byte	0x18
 10903 1b88 4101     		.2byte	0x141
 10904 1b8a 15070000 		.4byte	0x715
 10905 1b8e 0C       		.byte	0xc
 10906 1b8f 1E       		.uleb128 0x1e
 10907 1b90 62746E00 		.ascii	"btn\000"
 10908 1b94 18       		.byte	0x18
 10909 1b95 4601     		.2byte	0x146
 10910 1b97 311B0000 		.4byte	0x1b31
 10911 1b9b 10       		.byte	0x10
 10912 1b9c 00       		.byte	0
 10913 1b9d 21       		.uleb128 0x21
 10914 1b9e A801     		.2byte	0x1a8
 10915 1ba0 18       		.byte	0x18
 10916 1ba1 29       		.byte	0x29
 10917 1ba2 3F1D0000 		.4byte	0x1d3f
 10918 1ba6 08       		.uleb128 0x8
 10919 1ba7 73637200 		.ascii	"scr\000"
 10920 1bab 18       		.byte	0x18
 10921 1bac 2B       		.byte	0x2b
 10922 1bad 15070000 		.4byte	0x715
 10923 1bb1 00       		.byte	0
 10924 1bb2 08       		.uleb128 0x8
 10925 1bb3 626700   		.ascii	"bg\000"
 10926 1bb6 18       		.byte	0x18
 10927 1bb7 2C       		.byte	0x2c
 10928 1bb8 15070000 		.4byte	0x715
 10929 1bbc 04       		.byte	0x4
 10930 1bbd 07       		.uleb128 0x7
 10931 1bbe 77150000 		.4byte	.LASF404
 10932 1bc2 18       		.byte	0x18
 10933 1bc3 2D       		.byte	0x2d
 10934 1bc4 15070000 		.4byte	0x715
 10935 1bc8 08       		.byte	0x8
 10936 1bc9 07       		.uleb128 0x7
 10937 1bca F9020000 		.4byte	.LASF405
 10938 1bce 18       		.byte	0x18
 10939 1bcf 30       		.byte	0x30
 10940 1bd0 15070000 		.4byte	0x715
 10941 1bd4 0C       		.byte	0xc
ARM GAS  C:\Users\tmj32\AppData\Local\Temp\ccI3WYuM.s 			page 250


 10942 1bd5 08       		.uleb128 0x8
 10943 1bd6 62746E00 		.ascii	"btn\000"
 10944 1bda 18       		.byte	0x18
 10945 1bdb 3B       		.byte	0x3b
 10946 1bdc B7150000 		.4byte	0x15b7
 10947 1be0 10       		.byte	0x10
 10948 1be1 07       		.uleb128 0x7
 10949 1be2 A8110000 		.4byte	.LASF406
 10950 1be6 18       		.byte	0x18
 10951 1be7 46       		.byte	0x46
 10952 1be8 FB150000 		.4byte	0x15fb
 10953 1bec 24       		.byte	0x24
 10954 1bed 07       		.uleb128 0x7
 10955 1bee 491B0000 		.4byte	.LASF368
 10956 1bf2 18       		.byte	0x18
 10957 1bf3 4F       		.byte	0x4f
 10958 1bf4 3F160000 		.4byte	0x163f
 10959 1bf8 38       		.byte	0x38
 10960 1bf9 08       		.uleb128 0x8
 10961 1bfa 696D6700 		.ascii	"img\000"
 10962 1bfe 18       		.byte	0x18
 10963 1bff 57       		.byte	0x57
 10964 1c00 6C160000 		.4byte	0x166c
 10965 1c04 44       		.byte	0x44
 10966 1c05 07       		.uleb128 0x7
 10967 1c06 B10B0000 		.4byte	.LASF106
 10968 1c0a 18       		.byte	0x18
 10969 1c0b 5E       		.byte	0x5e
 10970 1c0c 8D160000 		.4byte	0x168d
 10971 1c10 4C       		.byte	0x4c
 10972 1c11 08       		.uleb128 0x8
 10973 1c12 6C656400 		.ascii	"led\000"
 10974 1c16 18       		.byte	0x18
 10975 1c17 62       		.byte	0x62
 10976 1c18 15070000 		.4byte	0x715
 10977 1c1c 50       		.byte	0x50
 10978 1c1d 08       		.uleb128 0x8
 10979 1c1e 62617200 		.ascii	"bar\000"
 10980 1c22 18       		.byte	0x18
 10981 1c23 6A       		.byte	0x6a
 10982 1c24 A2160000 		.4byte	0x16a2
 10983 1c28 54       		.byte	0x54
 10984 1c29 07       		.uleb128 0x7
 10985 1c2a DA0B0000 		.4byte	.LASF407
 10986 1c2e 18       		.byte	0x18
 10987 1c2f 73       		.byte	0x73
 10988 1c30 C2160000 		.4byte	0x16c2
 10989 1c34 5C       		.byte	0x5c
 10990 1c35 07       		.uleb128 0x7
 10991 1c36 55010000 		.4byte	.LASF408
 10992 1c3a 18       		.byte	0x18
 10993 1c3b 77       		.byte	0x77
 10994 1c3c 15070000 		.4byte	0x715
 10995 1c40 68       		.byte	0x68
 10996 1c41 07       		.uleb128 0x7
 10997 1c42 95100000 		.4byte	.LASF409
 10998 1c46 18       		.byte	0x18
ARM GAS  C:\Users\tmj32\AppData\Local\Temp\ccI3WYuM.s 			page 251


 10999 1c47 7B       		.byte	0x7b
 11000 1c48 15070000 		.4byte	0x715
 11001 1c4c 6C       		.byte	0x6c
 11002 1c4d 08       		.uleb128 0x8
 11003 1c4e 61726300 		.ascii	"arc\000"
 11004 1c52 18       		.byte	0x18
 11005 1c53 7F       		.byte	0x7f
 11006 1c54 15070000 		.4byte	0x715
 11007 1c58 70       		.byte	0x70
 11008 1c59 07       		.uleb128 0x7
 11009 1c5a C71B0000 		.4byte	.LASF410
 11010 1c5e 18       		.byte	0x18
 11011 1c5f 83       		.byte	0x83
 11012 1c60 15070000 		.4byte	0x715
 11013 1c64 74       		.byte	0x74
 11014 1c65 08       		.uleb128 0x8
 11015 1c66 737700   		.ascii	"sw\000"
 11016 1c69 18       		.byte	0x18
 11017 1c6a 8D       		.byte	0x8d
 11018 1c6b EE160000 		.4byte	0x16ee
 11019 1c6f 78       		.byte	0x78
 11020 1c70 07       		.uleb128 0x7
 11021 1c71 26050000 		.4byte	.LASF411
 11022 1c75 18       		.byte	0x18
 11023 1c76 91       		.byte	0x91
 11024 1c77 15070000 		.4byte	0x715
 11025 1c7b 88       		.byte	0x88
 11026 1c7c 07       		.uleb128 0x7
 11027 1c7d 7C110000 		.4byte	.LASF412
 11028 1c81 18       		.byte	0x18
 11029 1c82 9F       		.byte	0x9f
 11030 1c83 26170000 		.4byte	0x1726
 11031 1c87 8C       		.byte	0x8c
 11032 1c88 08       		.uleb128 0x8
 11033 1c89 636200   		.ascii	"cb\000"
 11034 1c8c 18       		.byte	0x18
 11035 1c8d AE       		.byte	0xae
 11036 1c8e D2170000 		.4byte	0x17d2
 11037 1c92 AC       		.byte	0xac
 11038 1c93 07       		.uleb128 0x7
 11039 1c94 39050000 		.4byte	.LASF413
 11040 1c98 18       		.byte	0x18
 11041 1c99 BD       		.byte	0xbd
 11042 1c9a 36180000 		.4byte	0x1836
 11043 1c9e C4       		.byte	0xc4
 11044 1c9f 08       		.uleb128 0x8
 11045 1ca0 6B6200   		.ascii	"kb\000"
 11046 1ca3 18       		.byte	0x18
 11047 1ca4 CC       		.byte	0xcc
 11048 1ca5 9A180000 		.4byte	0x189a
 11049 1ca9 DC       		.byte	0xdc
 11050 1caa 07       		.uleb128 0x7
 11051 1cab 6E160000 		.4byte	.LASF414
 11052 1caf 18       		.byte	0x18
 11053 1cb0 D9       		.byte	0xd9
 11054 1cb1 E5180000 		.4byte	0x18e5
 11055 1cb5 F4       		.byte	0xf4
ARM GAS  C:\Users\tmj32\AppData\Local\Temp\ccI3WYuM.s 			page 252


 11056 1cb6 1A       		.uleb128 0x1a
 11057 1cb7 73100000 		.4byte	.LASF367
 11058 1cbb 18       		.byte	0x18
 11059 1cbc E2       		.byte	0xe2
 11060 1cbd 05190000 		.4byte	0x1905
 11061 1cc1 0401     		.2byte	0x104
 11062 1cc3 22       		.uleb128 0x22
 11063 1cc4 746100   		.ascii	"ta\000"
 11064 1cc7 18       		.byte	0x18
 11065 1cc8 EC       		.byte	0xec
 11066 1cc9 30190000 		.4byte	0x1930
 11067 1ccd 1001     		.2byte	0x110
 11068 1ccf 1A       		.uleb128 0x1a
 11069 1cd0 17180000 		.4byte	.LASF415
 11070 1cd4 18       		.byte	0x18
 11071 1cd5 F5       		.byte	0xf5
 11072 1cd6 68190000 		.4byte	0x1968
 11073 1cda 2001     		.2byte	0x120
 11074 1cdc 23       		.uleb128 0x23
 11075 1cdd 48100000 		.4byte	.LASF416
 11076 1ce1 18       		.byte	0x18
 11077 1ce2 0601     		.2byte	0x106
 11078 1ce4 DC190000 		.4byte	0x19dc
 11079 1ce8 2C01     		.2byte	0x12c
 11080 1cea 23       		.uleb128 0x23
 11081 1ceb C4080000 		.4byte	.LASF417
 11082 1cef 18       		.byte	0x18
 11083 1cf0 0F01     		.2byte	0x10f
 11084 1cf2 141A0000 		.4byte	0x1a14
 11085 1cf6 4C01     		.2byte	0x14c
 11086 1cf8 23       		.uleb128 0x23
 11087 1cf9 CF1C0000 		.4byte	.LASF418
 11088 1cfd 18       		.byte	0x18
 11089 1cfe 1701     		.2byte	0x117
 11090 1d00 431A0000 		.4byte	0x1a43
 11091 1d04 5801     		.2byte	0x158
 11092 1d06 23       		.uleb128 0x23
 11093 1d07 6A0E0000 		.4byte	.LASF419
 11094 1d0b 18       		.byte	0x18
 11095 1d0c 2701     		.2byte	0x127
 11096 1d0e AF1A0000 		.4byte	0x1aaf
 11097 1d12 6001     		.2byte	0x160
 11098 1d14 23       		.uleb128 0x23
 11099 1d15 CF040000 		.4byte	.LASF420
 11100 1d19 18       		.byte	0x18
 11101 1d1a 3001     		.2byte	0x130
 11102 1d1c DF1A0000 		.4byte	0x1adf
 11103 1d20 7C01     		.2byte	0x17c
 11104 1d22 23       		.uleb128 0x23
 11105 1d23 BC060000 		.4byte	.LASF421
 11106 1d27 18       		.byte	0x18
 11107 1d28 3801     		.2byte	0x138
 11108 1d2a 0E1B0000 		.4byte	0x1b0e
 11109 1d2e 8801     		.2byte	0x188
 11110 1d30 24       		.uleb128 0x24
 11111 1d31 77696E00 		.ascii	"win\000"
 11112 1d35 18       		.byte	0x18
ARM GAS  C:\Users\tmj32\AppData\Local\Temp\ccI3WYuM.s 			page 253


 11113 1d36 4701     		.2byte	0x147
 11114 1d38 541B0000 		.4byte	0x1b54
 11115 1d3c 9001     		.2byte	0x190
 11116 1d3e 00       		.byte	0
 11117 1d3f 21       		.uleb128 0x21
 11118 1d40 A801     		.2byte	0x1a8
 11119 1d42 18       		.byte	0x18
 11120 1d43 27       		.byte	0x27
 11121 1d44 561D0000 		.4byte	0x1d56
 11122 1d48 1F       		.uleb128 0x1f
 11123 1d49 5F110000 		.4byte	.LASF317
 11124 1d4d 18       		.byte	0x18
 11125 1d4e 4901     		.2byte	0x149
 11126 1d50 9D1B0000 		.4byte	0x1b9d
 11127 1d54 00       		.byte	0
 11128 1d55 00       		.byte	0
 11129 1d56 14       		.uleb128 0x14
 11130 1d57 731A0000 		.4byte	.LASF422
 11131 1d5b 18       		.byte	0x18
 11132 1d5c 5401     		.2byte	0x154
 11133 1d5e 3F1D0000 		.4byte	0x1d3f
 11134 1d62 25       		.uleb128 0x25
 11135 1d63 B8000000 		.4byte	.LASF425
 11136 1d67 01       		.byte	0x1
 11137 1d68 7C       		.byte	0x7c
 11138 1d69 B8000000 		.4byte	0xb8
 11139 1d6d 00000000 		.4byte	.LFB0
 11140 1d71 18000000 		.4byte	.LFE0-.LFB0
 11141 1d75 01       		.uleb128 0x1
 11142 1d76 9C       		.byte	0x9c
 11143 1d77 8A1D0000 		.4byte	0x1d8a
 11144 1d7b 26       		.uleb128 0x26
 11145 1d7c 90190000 		.4byte	.LASF423
 11146 1d80 01       		.byte	0x1
 11147 1d81 7C       		.byte	0x7c
 11148 1d82 4E060000 		.4byte	0x64e
 11149 1d86 02       		.uleb128 0x2
 11150 1d87 91       		.byte	0x91
 11151 1d88 74       		.sleb128 -12
 11152 1d89 00       		.byte	0
 11153 1d8a 27       		.uleb128 0x27
 11154 1d8b FE060000 		.4byte	.LASF429
 11155 1d8f 02       		.byte	0x2
 11156 1d90 4C       		.byte	0x4c
 11157 1d91 00000000 		.4byte	.LFB10
 11158 1d95 1C000000 		.4byte	.LFE10-.LFB10
 11159 1d99 01       		.uleb128 0x1
 11160 1d9a 9C       		.byte	0x9c
 11161 1d9b BC1D0000 		.4byte	0x1dbc
 11162 1d9f 26       		.uleb128 0x26
 11163 1da0 8A150000 		.4byte	.LASF424
 11164 1da4 02       		.byte	0x2
 11165 1da5 4C       		.byte	0x4c
 11166 1da6 43090000 		.4byte	0x943
 11167 1daa 02       		.uleb128 0x2
 11168 1dab 91       		.byte	0x91
 11169 1dac 74       		.sleb128 -12
ARM GAS  C:\Users\tmj32\AppData\Local\Temp\ccI3WYuM.s 			page 254


 11170 1dad 28       		.uleb128 0x28
 11171 1dae 73726300 		.ascii	"src\000"
 11172 1db2 02       		.byte	0x2
 11173 1db3 4C       		.byte	0x4c
 11174 1db4 1C090000 		.4byte	0x91c
 11175 1db8 02       		.uleb128 0x2
 11176 1db9 91       		.byte	0x91
 11177 1dba 70       		.sleb128 -16
 11178 1dbb 00       		.byte	0
 11179 1dbc 25       		.uleb128 0x25
 11180 1dbd D9180000 		.4byte	.LASF426
 11181 1dc1 02       		.byte	0x2
 11182 1dc2 56       		.byte	0x56
 11183 1dc3 EF000000 		.4byte	0xef
 11184 1dc7 00000000 		.4byte	.LFB11
 11185 1dcb 2E000000 		.4byte	.LFE11-.LFB11
 11186 1dcf 01       		.uleb128 0x1
 11187 1dd0 9C       		.byte	0x9c
 11188 1dd1 E41D0000 		.4byte	0x1de4
 11189 1dd5 26       		.uleb128 0x26
 11190 1dd6 FE040000 		.4byte	.LASF427
 11191 1dda 02       		.byte	0x2
 11192 1ddb 56       		.byte	0x56
 11193 1ddc 1C090000 		.4byte	0x91c
 11194 1de0 02       		.uleb128 0x2
 11195 1de1 91       		.byte	0x91
 11196 1de2 74       		.sleb128 -12
 11197 1de3 00       		.byte	0
 11198 1de4 25       		.uleb128 0x25
 11199 1de5 AB130000 		.4byte	.LASF428
 11200 1de9 02       		.byte	0x2
 11201 1dea 60       		.byte	0x60
 11202 1deb EF000000 		.4byte	0xef
 11203 1def 00000000 		.4byte	.LFB12
 11204 1df3 2E000000 		.4byte	.LFE12-.LFB12
 11205 1df7 01       		.uleb128 0x1
 11206 1df8 9C       		.byte	0x9c
 11207 1df9 0C1E0000 		.4byte	0x1e0c
 11208 1dfd 26       		.uleb128 0x26
 11209 1dfe FE040000 		.4byte	.LASF427
 11210 1e02 02       		.byte	0x2
 11211 1e03 60       		.byte	0x60
 11212 1e04 1C090000 		.4byte	0x91c
 11213 1e08 02       		.uleb128 0x2
 11214 1e09 91       		.byte	0x91
 11215 1e0a 74       		.sleb128 -12
 11216 1e0b 00       		.byte	0
 11217 1e0c 27       		.uleb128 0x27
 11218 1e0d D9080000 		.4byte	.LASF430
 11219 1e11 03       		.byte	0x3
 11220 1e12 79       		.byte	0x79
 11221 1e13 00000000 		.4byte	.LFB31
 11222 1e17 2A000000 		.4byte	.LFE31-.LFB31
 11223 1e1b 01       		.uleb128 0x1
 11224 1e1c 9C       		.byte	0x9c
 11225 1e1d 4C1E0000 		.4byte	0x1e4c
 11226 1e21 26       		.uleb128 0x26
ARM GAS  C:\Users\tmj32\AppData\Local\Temp\ccI3WYuM.s 			page 255


 11227 1e22 F9020000 		.4byte	.LASF405
 11228 1e26 03       		.byte	0x3
 11229 1e27 79       		.byte	0x79
 11230 1e28 55130000 		.4byte	0x1355
 11231 1e2c 02       		.uleb128 0x2
 11232 1e2d 91       		.byte	0x91
 11233 1e2e 74       		.sleb128 -12
 11234 1e2f 28       		.uleb128 0x28
 11235 1e30 686F7200 		.ascii	"hor\000"
 11236 1e34 03       		.byte	0x3
 11237 1e35 79       		.byte	0x79
 11238 1e36 33110000 		.4byte	0x1133
 11239 1e3a 02       		.uleb128 0x2
 11240 1e3b 91       		.byte	0x91
 11241 1e3c 73       		.sleb128 -13
 11242 1e3d 28       		.uleb128 0x28
 11243 1e3e 76657200 		.ascii	"ver\000"
 11244 1e42 03       		.byte	0x3
 11245 1e43 79       		.byte	0x79
 11246 1e44 33110000 		.4byte	0x1133
 11247 1e48 02       		.uleb128 0x2
 11248 1e49 91       		.byte	0x91
 11249 1e4a 72       		.sleb128 -14
 11250 1e4b 00       		.byte	0
 11251 1e4c 27       		.uleb128 0x27
 11252 1e4d C3070000 		.4byte	.LASF431
 11253 1e51 04       		.byte	0x4
 11254 1e52 BC       		.byte	0xbc
 11255 1e53 00000000 		.4byte	.LFB36
 11256 1e57 28000000 		.4byte	.LFE36-.LFB36
 11257 1e5b 01       		.uleb128 0x1
 11258 1e5c 9C       		.byte	0x9c
 11259 1e5d 8C1E0000 		.4byte	0x1e8c
 11260 1e61 26       		.uleb128 0x26
 11261 1e62 73100000 		.4byte	.LASF367
 11262 1e66 04       		.byte	0x4
 11263 1e67 BC       		.byte	0xbc
 11264 1e68 55130000 		.4byte	0x1355
 11265 1e6c 02       		.uleb128 0x2
 11266 1e6d 91       		.byte	0x91
 11267 1e6e 74       		.sleb128 -12
 11268 1e6f 28       		.uleb128 0x28
 11269 1e70 686F7200 		.ascii	"hor\000"
 11270 1e74 04       		.byte	0x4
 11271 1e75 BC       		.byte	0xbc
 11272 1e76 33110000 		.4byte	0x1133
 11273 1e7a 02       		.uleb128 0x2
 11274 1e7b 91       		.byte	0x91
 11275 1e7c 73       		.sleb128 -13
 11276 1e7d 28       		.uleb128 0x28
 11277 1e7e 76657200 		.ascii	"ver\000"
 11278 1e82 04       		.byte	0x4
 11279 1e83 BC       		.byte	0xbc
 11280 1e84 33110000 		.4byte	0x1133
 11281 1e88 02       		.uleb128 0x2
 11282 1e89 91       		.byte	0x91
 11283 1e8a 72       		.sleb128 -14
ARM GAS  C:\Users\tmj32\AppData\Local\Temp\ccI3WYuM.s 			page 256


 11284 1e8b 00       		.byte	0
 11285 1e8c 27       		.uleb128 0x27
 11286 1e8d A9160000 		.4byte	.LASF432
 11287 1e91 05       		.byte	0x5
 11288 1e92 C9       		.byte	0xc9
 11289 1e93 00000000 		.4byte	.LFB48
 11290 1e97 1E000000 		.4byte	.LFE48-.LFB48
 11291 1e9b 01       		.uleb128 0x1
 11292 1e9c 9C       		.byte	0x9c
 11293 1e9d CC1E0000 		.4byte	0x1ecc
 11294 1ea1 26       		.uleb128 0x26
 11295 1ea2 491B0000 		.4byte	.LASF368
 11296 1ea6 05       		.byte	0x5
 11297 1ea7 C9       		.byte	0xc9
 11298 1ea8 55130000 		.4byte	0x1355
 11299 1eac 02       		.uleb128 0x2
 11300 1ead 91       		.byte	0x91
 11301 1eae 74       		.sleb128 -12
 11302 1eaf 26       		.uleb128 0x26
 11303 1eb0 8B020000 		.4byte	.LASF85
 11304 1eb4 05       		.byte	0x5
 11305 1eb5 C9       		.byte	0xc9
 11306 1eb6 2A140000 		.4byte	0x142a
 11307 1eba 02       		.uleb128 0x2
 11308 1ebb 91       		.byte	0x91
 11309 1ebc 73       		.sleb128 -13
 11310 1ebd 26       		.uleb128 0x26
 11311 1ebe 5F110000 		.4byte	.LASF317
 11312 1ec2 05       		.byte	0x5
 11313 1ec3 C9       		.byte	0xc9
 11314 1ec4 F2100000 		.4byte	0x10f2
 11315 1ec8 02       		.uleb128 0x2
 11316 1ec9 91       		.byte	0x91
 11317 1eca 6C       		.sleb128 -20
 11318 1ecb 00       		.byte	0
 11319 1ecc 29       		.uleb128 0x29
 11320 1ecd 0C040000 		.4byte	.LASF433
 11321 1ed1 05       		.byte	0x5
 11322 1ed2 2B01     		.2byte	0x12b
 11323 1ed4 F2100000 		.4byte	0x10f2
 11324 1ed8 00000000 		.4byte	.LFB49
 11325 1edc 1C000000 		.4byte	.LFE49-.LFB49
 11326 1ee0 01       		.uleb128 0x1
 11327 1ee1 9C       		.byte	0x9c
 11328 1ee2 051F0000 		.4byte	0x1f05
 11329 1ee6 2A       		.uleb128 0x2a
 11330 1ee7 491B0000 		.4byte	.LASF368
 11331 1eeb 05       		.byte	0x5
 11332 1eec 2B01     		.2byte	0x12b
 11333 1eee 051F0000 		.4byte	0x1f05
 11334 1ef2 02       		.uleb128 0x2
 11335 1ef3 91       		.byte	0x91
 11336 1ef4 74       		.sleb128 -12
 11337 1ef5 2A       		.uleb128 0x2a
 11338 1ef6 8B020000 		.4byte	.LASF85
 11339 1efa 05       		.byte	0x5
 11340 1efb 2B01     		.2byte	0x12b
ARM GAS  C:\Users\tmj32\AppData\Local\Temp\ccI3WYuM.s 			page 257


 11341 1efd 2A140000 		.4byte	0x142a
 11342 1f01 02       		.uleb128 0x2
 11343 1f02 91       		.byte	0x91
 11344 1f03 73       		.sleb128 -13
 11345 1f04 00       		.byte	0
 11346 1f05 0D       		.uleb128 0xd
 11347 1f06 04       		.byte	0x4
 11348 1f07 0B1F0000 		.4byte	0x1f0b
 11349 1f0b 0E       		.uleb128 0xe
 11350 1f0c FD100000 		.4byte	0x10fd
 11351 1f10 27       		.uleb128 0x27
 11352 1f11 650A0000 		.4byte	.LASF434
 11353 1f15 06       		.byte	0x6
 11354 1f16 EF       		.byte	0xef
 11355 1f17 00000000 		.4byte	.LFB50
 11356 1f1b 1E000000 		.4byte	.LFE50-.LFB50
 11357 1f1f 01       		.uleb128 0x1
 11358 1f20 9C       		.byte	0x9c
 11359 1f21 411F0000 		.4byte	0x1f41
 11360 1f25 28       		.uleb128 0x28
 11361 1f26 746100   		.ascii	"ta\000"
 11362 1f29 06       		.byte	0x6
 11363 1f2a EF       		.byte	0xef
 11364 1f2b 55130000 		.4byte	0x1355
 11365 1f2f 02       		.uleb128 0x2
 11366 1f30 91       		.byte	0x91
 11367 1f31 74       		.sleb128 -12
 11368 1f32 26       		.uleb128 0x26
 11369 1f33 7F170000 		.4byte	.LASF322
 11370 1f37 06       		.byte	0x6
 11371 1f38 EF       		.byte	0xef
 11372 1f39 23120000 		.4byte	0x1223
 11373 1f3d 02       		.uleb128 0x2
 11374 1f3e 91       		.byte	0x91
 11375 1f3f 73       		.sleb128 -13
 11376 1f40 00       		.byte	0
 11377 1f41 2B       		.uleb128 0x2b
 11378 1f42 F90F0000 		.4byte	.LASF435
 11379 1f46 06       		.byte	0x6
 11380 1f47 0401     		.2byte	0x104
 11381 1f49 00000000 		.4byte	.LFB52
 11382 1f4d 1E000000 		.4byte	.LFE52-.LFB52
 11383 1f51 01       		.uleb128 0x1
 11384 1f52 9C       		.byte	0x9c
 11385 1f53 741F0000 		.4byte	0x1f74
 11386 1f57 2C       		.uleb128 0x2c
 11387 1f58 746100   		.ascii	"ta\000"
 11388 1f5b 06       		.byte	0x6
 11389 1f5c 0401     		.2byte	0x104
 11390 1f5e 55130000 		.4byte	0x1355
 11391 1f62 02       		.uleb128 0x2
 11392 1f63 91       		.byte	0x91
 11393 1f64 74       		.sleb128 -12
 11394 1f65 2C       		.uleb128 0x2c
 11395 1f66 656E00   		.ascii	"en\000"
 11396 1f69 06       		.byte	0x6
 11397 1f6a 0401     		.2byte	0x104
ARM GAS  C:\Users\tmj32\AppData\Local\Temp\ccI3WYuM.s 			page 258


 11398 1f6c E0010000 		.4byte	0x1e0
 11399 1f70 02       		.uleb128 0x2
 11400 1f71 91       		.byte	0x91
 11401 1f72 73       		.sleb128 -13
 11402 1f73 00       		.byte	0
 11403 1f74 29       		.uleb128 0x29
 11404 1f75 71180000 		.4byte	.LASF436
 11405 1f79 06       		.byte	0x6
 11406 1f7a 8901     		.2byte	0x189
 11407 1f7c E0010000 		.4byte	0x1e0
 11408 1f80 00000000 		.4byte	.LFB55
 11409 1f84 18000000 		.4byte	.LFE55-.LFB55
 11410 1f88 01       		.uleb128 0x1
 11411 1f89 9C       		.byte	0x9c
 11412 1f8a 9D1F0000 		.4byte	0x1f9d
 11413 1f8e 2C       		.uleb128 0x2c
 11414 1f8f 746100   		.ascii	"ta\000"
 11415 1f92 06       		.byte	0x6
 11416 1f93 8901     		.2byte	0x189
 11417 1f95 55130000 		.4byte	0x1355
 11418 1f99 02       		.uleb128 0x2
 11419 1f9a 91       		.byte	0x91
 11420 1f9b 74       		.sleb128 -12
 11421 1f9c 00       		.byte	0
 11422 1f9d 2D       		.uleb128 0x2d
 11423 1f9e 82040000 		.4byte	.LASF476
 11424 1fa2 07       		.byte	0x7
 11425 1fa3 54       		.byte	0x54
 11426 1fa4 55130000 		.4byte	0x1355
 11427 1fa8 00000000 		.4byte	.LFB56
 11428 1fac B8030000 		.4byte	.LFE56-.LFB56
 11429 1fb0 01       		.uleb128 0x1
 11430 1fb1 9C       		.byte	0x9c
 11431 1fb2 56200000 		.4byte	0x2056
 11432 1fb6 28       		.uleb128 0x28
 11433 1fb7 70617200 		.ascii	"par\000"
 11434 1fbb 07       		.byte	0x7
 11435 1fbc 54       		.byte	0x54
 11436 1fbd 55130000 		.4byte	0x1355
 11437 1fc1 03       		.uleb128 0x3
 11438 1fc2 91       		.byte	0x91
 11439 1fc3 BC7F     		.sleb128 -68
 11440 1fc5 26       		.uleb128 0x26
 11441 1fc6 410C0000 		.4byte	.LASF437
 11442 1fca 07       		.byte	0x7
 11443 1fcb 54       		.byte	0x54
 11444 1fcc 051F0000 		.4byte	0x1f05
 11445 1fd0 03       		.uleb128 0x3
 11446 1fd1 91       		.byte	0x91
 11447 1fd2 B87F     		.sleb128 -72
 11448 1fd4 2E       		.uleb128 0x2e
 11449 1fd5 17050000 		.4byte	.LASF438
 11450 1fd9 07       		.byte	0x7
 11451 1fda 59       		.byte	0x59
 11452 1fdb 55130000 		.4byte	0x1355
 11453 1fdf 02       		.uleb128 0x2
 11454 1fe0 91       		.byte	0x91
ARM GAS  C:\Users\tmj32\AppData\Local\Temp\ccI3WYuM.s 			page 259


 11455 1fe1 74       		.sleb128 -12
 11456 1fe2 2F       		.uleb128 0x2f
 11457 1fe3 65787400 		.ascii	"ext\000"
 11458 1fe7 07       		.byte	0x7
 11459 1fe8 63       		.byte	0x63
 11460 1fe9 56200000 		.4byte	0x2056
 11461 1fed 02       		.uleb128 0x2
 11462 1fee 91       		.byte	0x91
 11463 1fef 70       		.sleb128 -16
 11464 1ff0 30       		.uleb128 0x30
 11465 1ff1 4A010000 		.4byte	.LBB2
 11466 1ff5 A0000000 		.4byte	.LBE2-.LBB2
 11467 1ff9 0B200000 		.4byte	0x200b
 11468 1ffd 2F       		.uleb128 0x2f
 11469 1ffe 746800   		.ascii	"th\000"
 11470 2001 07       		.byte	0x7
 11471 2002 93       		.byte	0x93
 11472 2003 5C200000 		.4byte	0x205c
 11473 2007 02       		.uleb128 0x2
 11474 2008 91       		.byte	0x91
 11475 2009 64       		.sleb128 -28
 11476 200a 00       		.byte	0
 11477 200b 30       		.uleb128 0x30
 11478 200c EA010000 		.4byte	.LBB3
 11479 2010 64010000 		.4byte	.LBE3-.LBB3
 11480 2014 3F200000 		.4byte	0x203f
 11481 2018 2E       		.uleb128 0x2e
 11482 2019 A7190000 		.4byte	.LASF439
 11483 201d 07       		.byte	0x7
 11484 201e 9E       		.byte	0x9e
 11485 201f 56200000 		.4byte	0x2056
 11486 2023 02       		.uleb128 0x2
 11487 2024 91       		.byte	0x91
 11488 2025 6C       		.sleb128 -20
 11489 2026 31       		.uleb128 0x31
 11490 2027 B8020000 		.4byte	.LBB4
 11491 202b 64000000 		.4byte	.LBE4-.LBB4
 11492 202f 2F       		.uleb128 0x2f
 11493 2030 6C656E00 		.ascii	"len\000"
 11494 2034 07       		.byte	0x7
 11495 2035 B0       		.byte	0xb0
 11496 2036 CE000000 		.4byte	0xce
 11497 203a 02       		.uleb128 0x2
 11498 203b 91       		.byte	0x91
 11499 203c 6A       		.sleb128 -22
 11500 203d 00       		.byte	0
 11501 203e 00       		.byte	0
 11502 203f 31       		.uleb128 0x31
 11503 2040 58030000 		.4byte	.LBB5
 11504 2044 4E000000 		.4byte	.LBE5-.LBB5
 11505 2048 2F       		.uleb128 0x2f
 11506 2049 6100     		.ascii	"a\000"
 11507 204b 07       		.byte	0x7
 11508 204c C3       		.byte	0xc3
 11509 204d D4040000 		.4byte	0x4d4
 11510 2051 02       		.uleb128 0x2
 11511 2052 91       		.byte	0x91
ARM GAS  C:\Users\tmj32\AppData\Local\Temp\ccI3WYuM.s 			page 260


 11512 2053 40       		.sleb128 -64
 11513 2054 00       		.byte	0
 11514 2055 00       		.byte	0
 11515 2056 0D       		.uleb128 0xd
 11516 2057 04       		.byte	0x4
 11517 2058 76150000 		.4byte	0x1576
 11518 205c 0D       		.uleb128 0xd
 11519 205d 04       		.byte	0x4
 11520 205e 561D0000 		.4byte	0x1d56
 11521 2062 32       		.uleb128 0x32
 11522 2063 C0040000 		.4byte	.LASF443
 11523 2067 07       		.byte	0x7
 11524 2068 E3       		.byte	0xe3
 11525 2069 00000000 		.4byte	.LFB57
 11526 206d E8010000 		.4byte	.LFE57-.LFB57
 11527 2071 01       		.uleb128 0x1
 11528 2072 9C       		.byte	0x9c
 11529 2073 E0200000 		.4byte	0x20e0
 11530 2077 28       		.uleb128 0x28
 11531 2078 746100   		.ascii	"ta\000"
 11532 207b 07       		.byte	0x7
 11533 207c E3       		.byte	0xe3
 11534 207d 55130000 		.4byte	0x1355
 11535 2081 03       		.uleb128 0x3
 11536 2082 91       		.byte	0x91
 11537 2083 B47F     		.sleb128 -76
 11538 2085 28       		.uleb128 0x28
 11539 2086 6300     		.ascii	"c\000"
 11540 2088 07       		.byte	0x7
 11541 2089 E3       		.byte	0xe3
 11542 208a E4000000 		.4byte	0xe4
 11543 208e 03       		.uleb128 0x3
 11544 208f 91       		.byte	0x91
 11545 2090 B07F     		.sleb128 -80
 11546 2092 2F       		.uleb128 0x2f
 11547 2093 65787400 		.ascii	"ext\000"
 11548 2097 07       		.byte	0x7
 11549 2098 E7       		.byte	0xe7
 11550 2099 56200000 		.4byte	0x2056
 11551 209d 02       		.uleb128 0x2
 11552 209e 91       		.byte	0x91
 11553 209f 6C       		.sleb128 -20
 11554 20a0 2E       		.uleb128 0x2e
 11555 20a1 DB160000 		.4byte	.LASF440
 11556 20a5 07       		.byte	0x7
 11557 20a6 E9       		.byte	0xe9
 11558 20a7 E0200000 		.4byte	0x20e0
 11559 20ab 02       		.uleb128 0x2
 11560 20ac 91       		.byte	0x91
 11561 20ad 5C       		.sleb128 -36
 11562 20ae 2E       		.uleb128 0x2e
 11563 20af 200C0000 		.4byte	.LASF441
 11564 20b3 07       		.byte	0x7
 11565 20b4 FE       		.byte	0xfe
 11566 20b5 E4000000 		.4byte	0xe4
 11567 20b9 02       		.uleb128 0x2
 11568 20ba 91       		.byte	0x91
ARM GAS  C:\Users\tmj32\AppData\Local\Temp\ccI3WYuM.s 			page 261


 11569 20bb 68       		.sleb128 -24
 11570 20bc 33       		.uleb128 0x33
 11571 20bd 12090000 		.4byte	.LASF442
 11572 20c1 07       		.byte	0x7
 11573 20c2 0701     		.2byte	0x107
 11574 20c4 E0010000 		.4byte	0x1e0
 11575 20c8 02       		.uleb128 0x2
 11576 20c9 91       		.byte	0x91
 11577 20ca 67       		.sleb128 -25
 11578 20cb 34       		.uleb128 0x34
 11579 20cc 00000000 		.4byte	.Ldebug_ranges0+0
 11580 20d0 35       		.uleb128 0x35
 11581 20d1 6100     		.ascii	"a\000"
 11582 20d3 07       		.byte	0x7
 11583 20d4 1901     		.2byte	0x119
 11584 20d6 D4040000 		.4byte	0x4d4
 11585 20da 03       		.uleb128 0x3
 11586 20db 91       		.byte	0x91
 11587 20dc B87F     		.sleb128 -72
 11588 20de 00       		.byte	0
 11589 20df 00       		.byte	0
 11590 20e0 15       		.uleb128 0x15
 11591 20e1 E4000000 		.4byte	0xe4
 11592 20e5 F0200000 		.4byte	0x20f0
 11593 20e9 16       		.uleb128 0x16
 11594 20ea 03030000 		.4byte	0x303
 11595 20ee 01       		.byte	0x1
 11596 20ef 00       		.byte	0
 11597 20f0 36       		.uleb128 0x36
 11598 20f1 EA190000 		.4byte	.LASF444
 11599 20f5 07       		.byte	0x7
 11600 20f6 3D01     		.2byte	0x13d
 11601 20f8 00000000 		.4byte	.LFB58
 11602 20fc F4010000 		.4byte	.LFE58-.LFB58
 11603 2100 01       		.uleb128 0x1
 11604 2101 9C       		.byte	0x9c
 11605 2102 8A210000 		.4byte	0x218a
 11606 2106 2C       		.uleb128 0x2c
 11607 2107 746100   		.ascii	"ta\000"
 11608 210a 07       		.byte	0x7
 11609 210b 3D01     		.2byte	0x13d
 11610 210d 55130000 		.4byte	0x1355
 11611 2111 03       		.uleb128 0x3
 11612 2112 91       		.byte	0x91
 11613 2113 B47F     		.sleb128 -76
 11614 2115 2C       		.uleb128 0x2c
 11615 2116 74787400 		.ascii	"txt\000"
 11616 211a 07       		.byte	0x7
 11617 211b 3D01     		.2byte	0x13d
 11618 211d 17030000 		.4byte	0x317
 11619 2121 03       		.uleb128 0x3
 11620 2122 91       		.byte	0x91
 11621 2123 B07F     		.sleb128 -80
 11622 2125 35       		.uleb128 0x35
 11623 2126 65787400 		.ascii	"ext\000"
 11624 212a 07       		.byte	0x7
 11625 212b 4201     		.2byte	0x142
ARM GAS  C:\Users\tmj32\AppData\Local\Temp\ccI3WYuM.s 			page 262


 11626 212d 56200000 		.4byte	0x2056
 11627 2131 02       		.uleb128 0x2
 11628 2132 91       		.byte	0x91
 11629 2133 6C       		.sleb128 -20
 11630 2134 33       		.uleb128 0x33
 11631 2135 12090000 		.4byte	.LASF442
 11632 2139 07       		.byte	0x7
 11633 213a 5D01     		.2byte	0x15d
 11634 213c E0010000 		.4byte	0x1e0
 11635 2140 02       		.uleb128 0x2
 11636 2141 91       		.byte	0x91
 11637 2142 6B       		.sleb128 -21
 11638 2143 30       		.uleb128 0x30
 11639 2144 84000000 		.4byte	.LBB8
 11640 2148 38000000 		.4byte	.LBE8-.LBB8
 11641 214c 75210000 		.4byte	0x2175
 11642 2150 35       		.uleb128 0x35
 11643 2151 6900     		.ascii	"i\000"
 11644 2153 07       		.byte	0x7
 11645 2154 5401     		.2byte	0x154
 11646 2156 E4000000 		.4byte	0xe4
 11647 215a 02       		.uleb128 0x2
 11648 215b 91       		.byte	0x91
 11649 215c 60       		.sleb128 -32
 11650 215d 31       		.uleb128 0x31
 11651 215e 8A000000 		.4byte	.LBB9
 11652 2162 22000000 		.4byte	.LBE9-.LBB9
 11653 2166 35       		.uleb128 0x35
 11654 2167 6300     		.ascii	"c\000"
 11655 2169 07       		.byte	0x7
 11656 216a 5601     		.2byte	0x156
 11657 216c E4000000 		.4byte	0xe4
 11658 2170 02       		.uleb128 0x2
 11659 2171 91       		.byte	0x91
 11660 2172 64       		.sleb128 -28
 11661 2173 00       		.byte	0
 11662 2174 00       		.byte	0
 11663 2175 34       		.uleb128 0x34
 11664 2176 18000000 		.4byte	.Ldebug_ranges0+0x18
 11665 217a 35       		.uleb128 0x35
 11666 217b 6100     		.ascii	"a\000"
 11667 217d 07       		.byte	0x7
 11668 217e 6D01     		.2byte	0x16d
 11669 2180 D4040000 		.4byte	0x4d4
 11670 2184 03       		.uleb128 0x3
 11671 2185 91       		.byte	0x91
 11672 2186 BC7F     		.sleb128 -68
 11673 2188 00       		.byte	0
 11674 2189 00       		.byte	0
 11675 218a 36       		.uleb128 0x36
 11676 218b 76000000 		.4byte	.LASF445
 11677 218f 07       		.byte	0x7
 11678 2190 8F01     		.2byte	0x18f
 11679 2192 00000000 		.4byte	.LFB59
 11680 2196 8C010000 		.4byte	.LFE59-.LFB59
 11681 219a 01       		.uleb128 0x1
 11682 219b 9C       		.byte	0x9c
ARM GAS  C:\Users\tmj32\AppData\Local\Temp\ccI3WYuM.s 			page 263


 11683 219c 1D220000 		.4byte	0x221d
 11684 21a0 2C       		.uleb128 0x2c
 11685 21a1 746100   		.ascii	"ta\000"
 11686 21a4 07       		.byte	0x7
 11687 21a5 8F01     		.2byte	0x18f
 11688 21a7 55130000 		.4byte	0x1355
 11689 21ab 02       		.uleb128 0x2
 11690 21ac 91       		.byte	0x91
 11691 21ad 54       		.sleb128 -44
 11692 21ae 35       		.uleb128 0x35
 11693 21af 65787400 		.ascii	"ext\000"
 11694 21b3 07       		.byte	0x7
 11695 21b4 9301     		.2byte	0x193
 11696 21b6 56200000 		.4byte	0x2056
 11697 21ba 02       		.uleb128 0x2
 11698 21bb 91       		.byte	0x91
 11699 21bc 6C       		.sleb128 -20
 11700 21bd 33       		.uleb128 0x33
 11701 21be 91060000 		.4byte	.LASF446
 11702 21c2 07       		.byte	0x7
 11703 21c3 9401     		.2byte	0x194
 11704 21c5 CE000000 		.4byte	0xce
 11705 21c9 02       		.uleb128 0x2
 11706 21ca 91       		.byte	0x91
 11707 21cb 6A       		.sleb128 -22
 11708 21cc 33       		.uleb128 0x33
 11709 21cd 9D030000 		.4byte	.LASF447
 11710 21d1 07       		.byte	0x7
 11711 21d2 9901     		.2byte	0x199
 11712 21d4 1D220000 		.4byte	0x221d
 11713 21d8 02       		.uleb128 0x2
 11714 21d9 91       		.byte	0x91
 11715 21da 58       		.sleb128 -40
 11716 21db 33       		.uleb128 0x33
 11717 21dc 961B0000 		.4byte	.LASF448
 11718 21e0 07       		.byte	0x7
 11719 21e1 A501     		.2byte	0x1a5
 11720 21e3 0A030000 		.4byte	0x30a
 11721 21e7 02       		.uleb128 0x2
 11722 21e8 91       		.byte	0x91
 11723 21e9 64       		.sleb128 -28
 11724 21ea 30       		.uleb128 0x30
 11725 21eb B4000000 		.4byte	.LBB12
 11726 21ef 1E000000 		.4byte	.LBE12-.LBB12
 11727 21f3 07220000 		.4byte	0x2207
 11728 21f7 33       		.uleb128 0x33
 11729 21f8 5F110000 		.4byte	.LASF317
 11730 21fc 07       		.byte	0x7
 11731 21fd AE01     		.2byte	0x1ae
 11732 21ff F2100000 		.4byte	0x10f2
 11733 2203 02       		.uleb128 0x2
 11734 2204 91       		.byte	0x91
 11735 2205 60       		.sleb128 -32
 11736 2206 00       		.byte	0
 11737 2207 34       		.uleb128 0x34
 11738 2208 30000000 		.4byte	.Ldebug_ranges0+0x30
 11739 220c 33       		.uleb128 0x33
ARM GAS  C:\Users\tmj32\AppData\Local\Temp\ccI3WYuM.s 			page 264


 11740 220d 6E190000 		.4byte	.LASF449
 11741 2211 07       		.byte	0x7
 11742 2212 B301     		.2byte	0x1b3
 11743 2214 E4000000 		.4byte	0xe4
 11744 2218 02       		.uleb128 0x2
 11745 2219 91       		.byte	0x91
 11746 221a 5C       		.sleb128 -36
 11747 221b 00       		.byte	0
 11748 221c 00       		.byte	0
 11749 221d 15       		.uleb128 0x15
 11750 221e 10030000 		.4byte	0x310
 11751 2222 2D220000 		.4byte	0x222d
 11752 2226 16       		.uleb128 0x16
 11753 2227 03030000 		.4byte	0x303
 11754 222b 01       		.byte	0x1
 11755 222c 00       		.byte	0
 11756 222d 36       		.uleb128 0x36
 11757 222e A7100000 		.4byte	.LASF450
 11758 2232 07       		.byte	0x7
 11759 2233 C701     		.2byte	0x1c7
 11760 2235 00000000 		.4byte	.LFB60
 11761 2239 40000000 		.4byte	.LFE60-.LFB60
 11762 223d 01       		.uleb128 0x1
 11763 223e 9C       		.byte	0x9c
 11764 223f 60220000 		.4byte	0x2260
 11765 2243 2C       		.uleb128 0x2c
 11766 2244 746100   		.ascii	"ta\000"
 11767 2247 07       		.byte	0x7
 11768 2248 C701     		.2byte	0x1c7
 11769 224a 55130000 		.4byte	0x1355
 11770 224e 02       		.uleb128 0x2
 11771 224f 91       		.byte	0x91
 11772 2250 6C       		.sleb128 -20
 11773 2251 35       		.uleb128 0x35
 11774 2252 637000   		.ascii	"cp\000"
 11775 2255 07       		.byte	0x7
 11776 2256 CB01     		.2byte	0x1cb
 11777 2258 CE000000 		.4byte	0xce
 11778 225c 02       		.uleb128 0x2
 11779 225d 91       		.byte	0x91
 11780 225e 76       		.sleb128 -10
 11781 225f 00       		.byte	0
 11782 2260 36       		.uleb128 0x36
 11783 2261 1F180000 		.4byte	.LASF451
 11784 2265 07       		.byte	0x7
 11785 2266 D901     		.2byte	0x1d9
 11786 2268 00000000 		.4byte	.LFB61
 11787 226c A4010000 		.4byte	.LFE61-.LFB61
 11788 2270 01       		.uleb128 0x1
 11789 2271 9C       		.byte	0x9c
 11790 2272 08230000 		.4byte	0x2308
 11791 2276 2C       		.uleb128 0x2c
 11792 2277 746100   		.ascii	"ta\000"
 11793 227a 07       		.byte	0x7
 11794 227b D901     		.2byte	0x1d9
 11795 227d 55130000 		.4byte	0x1355
 11796 2281 03       		.uleb128 0x3
ARM GAS  C:\Users\tmj32\AppData\Local\Temp\ccI3WYuM.s 			page 265


 11797 2282 91       		.byte	0x91
 11798 2283 B47F     		.sleb128 -76
 11799 2285 2C       		.uleb128 0x2c
 11800 2286 74787400 		.ascii	"txt\000"
 11801 228a 07       		.byte	0x7
 11802 228b D901     		.2byte	0x1d9
 11803 228d 17030000 		.4byte	0x317
 11804 2291 03       		.uleb128 0x3
 11805 2292 91       		.byte	0x91
 11806 2293 B07F     		.sleb128 -80
 11807 2295 35       		.uleb128 0x35
 11808 2296 65787400 		.ascii	"ext\000"
 11809 229a 07       		.byte	0x7
 11810 229b DE01     		.2byte	0x1de
 11811 229d 56200000 		.4byte	0x2056
 11812 22a1 02       		.uleb128 0x2
 11813 22a2 91       		.byte	0x91
 11814 22a3 6C       		.sleb128 -20
 11815 22a4 30       		.uleb128 0x30
 11816 22a5 30000000 		.4byte	.LBB15
 11817 22a9 62000000 		.4byte	.LBE15-.LBB15
 11818 22ad D6220000 		.4byte	0x22d6
 11819 22b1 35       		.uleb128 0x35
 11820 22b2 6900     		.ascii	"i\000"
 11821 22b4 07       		.byte	0x7
 11822 22b5 EA01     		.2byte	0x1ea
 11823 22b7 E4000000 		.4byte	0xe4
 11824 22bb 02       		.uleb128 0x2
 11825 22bc 91       		.byte	0x91
 11826 22bd 60       		.sleb128 -32
 11827 22be 31       		.uleb128 0x31
 11828 22bf 64000000 		.4byte	.LBB16
 11829 22c3 22000000 		.4byte	.LBE16-.LBB16
 11830 22c7 35       		.uleb128 0x35
 11831 22c8 6300     		.ascii	"c\000"
 11832 22ca 07       		.byte	0x7
 11833 22cb EC01     		.2byte	0x1ec
 11834 22cd E4000000 		.4byte	0xe4
 11835 22d1 02       		.uleb128 0x2
 11836 22d2 91       		.byte	0x91
 11837 22d3 68       		.sleb128 -24
 11838 22d4 00       		.byte	0
 11839 22d5 00       		.byte	0
 11840 22d6 30       		.uleb128 0x30
 11841 22d7 BA000000 		.4byte	.LBB17
 11842 22db 2A000000 		.4byte	.LBE17-.LBB17
 11843 22df F3220000 		.4byte	0x22f3
 11844 22e3 33       		.uleb128 0x33
 11845 22e4 5F110000 		.4byte	.LASF317
 11846 22e8 07       		.byte	0x7
 11847 22e9 F601     		.2byte	0x1f6
 11848 22eb F2100000 		.4byte	0x10f2
 11849 22ef 02       		.uleb128 0x2
 11850 22f0 91       		.byte	0x91
 11851 22f1 64       		.sleb128 -28
 11852 22f2 00       		.byte	0
 11853 22f3 34       		.uleb128 0x34
ARM GAS  C:\Users\tmj32\AppData\Local\Temp\ccI3WYuM.s 			page 266


 11854 22f4 48000000 		.4byte	.Ldebug_ranges0+0x48
 11855 22f8 35       		.uleb128 0x35
 11856 22f9 6100     		.ascii	"a\000"
 11857 22fb 07       		.byte	0x7
 11858 22fc 0202     		.2byte	0x202
 11859 22fe D4040000 		.4byte	0x4d4
 11860 2302 03       		.uleb128 0x3
 11861 2303 91       		.byte	0x91
 11862 2304 BC7F     		.sleb128 -68
 11863 2306 00       		.byte	0
 11864 2307 00       		.byte	0
 11865 2308 36       		.uleb128 0x36
 11866 2309 74030000 		.4byte	.LASF452
 11867 230d 07       		.byte	0x7
 11868 230e 1F02     		.2byte	0x21f
 11869 2310 00000000 		.4byte	.LFB62
 11870 2314 80000000 		.4byte	.LFE62-.LFB62
 11871 2318 01       		.uleb128 0x1
 11872 2319 9C       		.byte	0x9c
 11873 231a 4B230000 		.4byte	0x234b
 11874 231e 2C       		.uleb128 0x2c
 11875 231f 746100   		.ascii	"ta\000"
 11876 2322 07       		.byte	0x7
 11877 2323 1F02     		.2byte	0x21f
 11878 2325 55130000 		.4byte	0x1355
 11879 2329 02       		.uleb128 0x2
 11880 232a 91       		.byte	0x91
 11881 232b 6C       		.sleb128 -20
 11882 232c 2C       		.uleb128 0x2c
 11883 232d 74787400 		.ascii	"txt\000"
 11884 2331 07       		.byte	0x7
 11885 2332 1F02     		.2byte	0x21f
 11886 2334 17030000 		.4byte	0x317
 11887 2338 02       		.uleb128 0x2
 11888 2339 91       		.byte	0x91
 11889 233a 68       		.sleb128 -24
 11890 233b 35       		.uleb128 0x35
 11891 233c 65787400 		.ascii	"ext\000"
 11892 2340 07       		.byte	0x7
 11893 2341 2402     		.2byte	0x224
 11894 2343 56200000 		.4byte	0x2056
 11895 2347 02       		.uleb128 0x2
 11896 2348 91       		.byte	0x91
 11897 2349 74       		.sleb128 -12
 11898 234a 00       		.byte	0
 11899 234b 36       		.uleb128 0x36
 11900 234c 8C080000 		.4byte	.LASF453
 11901 2350 07       		.byte	0x7
 11902 2351 4002     		.2byte	0x240
 11903 2353 00000000 		.4byte	.LFB63
 11904 2357 6C020000 		.4byte	.LFE63-.LFB63
 11905 235b 01       		.uleb128 0x1
 11906 235c 9C       		.byte	0x9c
 11907 235d 20240000 		.4byte	0x2420
 11908 2361 2C       		.uleb128 0x2c
 11909 2362 746100   		.ascii	"ta\000"
 11910 2365 07       		.byte	0x7
ARM GAS  C:\Users\tmj32\AppData\Local\Temp\ccI3WYuM.s 			page 267


 11911 2366 4002     		.2byte	0x240
 11912 2368 55130000 		.4byte	0x1355
 11913 236c 03       		.uleb128 0x3
 11914 236d 91       		.byte	0x91
 11915 236e 9C7F     		.sleb128 -100
 11916 2370 2C       		.uleb128 0x2c
 11917 2371 706F7300 		.ascii	"pos\000"
 11918 2375 07       		.byte	0x7
 11919 2376 4002     		.2byte	0x240
 11920 2378 C3000000 		.4byte	0xc3
 11921 237c 03       		.uleb128 0x3
 11922 237d 91       		.byte	0x91
 11923 237e 9A7F     		.sleb128 -102
 11924 2380 35       		.uleb128 0x35
 11925 2381 65787400 		.ascii	"ext\000"
 11926 2385 07       		.byte	0x7
 11927 2386 4402     		.2byte	0x244
 11928 2388 56200000 		.4byte	0x2056
 11929 238c 02       		.uleb128 0x2
 11930 238d 91       		.byte	0x91
 11931 238e 6C       		.sleb128 -20
 11932 238f 35       		.uleb128 0x35
 11933 2390 6C656E00 		.ascii	"len\000"
 11934 2394 07       		.byte	0x7
 11935 2395 4702     		.2byte	0x247
 11936 2397 CE000000 		.4byte	0xce
 11937 239b 02       		.uleb128 0x2
 11938 239c 91       		.byte	0x91
 11939 239d 6A       		.sleb128 -22
 11940 239e 33       		.uleb128 0x33
 11941 239f 53060000 		.4byte	.LASF454
 11942 23a3 07       		.byte	0x7
 11943 23a4 5002     		.2byte	0x250
 11944 23a6 55130000 		.4byte	0x1355
 11945 23aa 02       		.uleb128 0x2
 11946 23ab 91       		.byte	0x91
 11947 23ac 64       		.sleb128 -28
 11948 23ad 33       		.uleb128 0x33
 11949 23ae 91060000 		.4byte	.LASF446
 11950 23b2 07       		.byte	0x7
 11951 23b3 5102     		.2byte	0x251
 11952 23b5 4F030000 		.4byte	0x34f
 11953 23b9 02       		.uleb128 0x2
 11954 23ba 91       		.byte	0x91
 11955 23bb 54       		.sleb128 -44
 11956 23bc 33       		.uleb128 0x33
 11957 23bd 5F110000 		.4byte	.LASF317
 11958 23c1 07       		.byte	0x7
 11959 23c2 5202     		.2byte	0x252
 11960 23c4 F2100000 		.4byte	0x10f2
 11961 23c8 02       		.uleb128 0x2
 11962 23c9 91       		.byte	0x91
 11963 23ca 60       		.sleb128 -32
 11964 23cb 33       		.uleb128 0x33
 11965 23cc 90190000 		.4byte	.LASF423
 11966 23d0 07       		.byte	0x7
 11967 23d1 5302     		.2byte	0x253
ARM GAS  C:\Users\tmj32\AppData\Local\Temp\ccI3WYuM.s 			page 268


 11968 23d3 4E060000 		.4byte	0x64e
 11969 23d7 02       		.uleb128 0x2
 11970 23d8 91       		.byte	0x91
 11971 23d9 5C       		.sleb128 -36
 11972 23da 33       		.uleb128 0x33
 11973 23db 73170000 		.4byte	.LASF455
 11974 23df 07       		.byte	0x7
 11975 23e0 5402     		.2byte	0x254
 11976 23e2 8F030000 		.4byte	0x38f
 11977 23e6 02       		.uleb128 0x2
 11978 23e7 91       		.byte	0x91
 11979 23e8 4C       		.sleb128 -52
 11980 23e9 33       		.uleb128 0x33
 11981 23ea 67070000 		.4byte	.LASF456
 11982 23ee 07       		.byte	0x7
 11983 23ef 5502     		.2byte	0x255
 11984 23f1 8F030000 		.4byte	0x38f
 11985 23f5 02       		.uleb128 0x2
 11986 23f6 91       		.byte	0x91
 11987 23f7 44       		.sleb128 -60
 11988 23f8 33       		.uleb128 0x33
 11989 23f9 3F140000 		.4byte	.LASF457
 11990 23fd 07       		.byte	0x7
 11991 23fe 5B02     		.2byte	0x25b
 11992 2400 EF000000 		.4byte	0xef
 11993 2404 02       		.uleb128 0x2
 11994 2405 91       		.byte	0x91
 11995 2406 5A       		.sleb128 -38
 11996 2407 31       		.uleb128 0x31
 11997 2408 00020000 		.4byte	.LBB20
 11998 240c 4E000000 		.4byte	.LBE20-.LBB20
 11999 2410 35       		.uleb128 0x35
 12000 2411 6100     		.ascii	"a\000"
 12001 2413 07       		.byte	0x7
 12002 2414 7502     		.2byte	0x275
 12003 2416 D4040000 		.4byte	0x4d4
 12004 241a 03       		.uleb128 0x3
 12005 241b 91       		.byte	0x91
 12006 241c A07F     		.sleb128 -96
 12007 241e 00       		.byte	0
 12008 241f 00       		.byte	0
 12009 2420 36       		.uleb128 0x36
 12010 2421 51070000 		.4byte	.LASF458
 12011 2425 07       		.byte	0x7
 12012 2426 8E02     		.2byte	0x28e
 12013 2428 00000000 		.4byte	.LFB64
 12014 242c 4E000000 		.4byte	.LFE64-.LFB64
 12015 2430 01       		.uleb128 0x1
 12016 2431 9C       		.byte	0x9c
 12017 2432 63240000 		.4byte	0x2463
 12018 2436 2C       		.uleb128 0x2c
 12019 2437 746100   		.ascii	"ta\000"
 12020 243a 07       		.byte	0x7
 12021 243b 8E02     		.2byte	0x28e
 12022 243d 55130000 		.4byte	0x1355
 12023 2441 02       		.uleb128 0x2
 12024 2442 91       		.byte	0x91
ARM GAS  C:\Users\tmj32\AppData\Local\Temp\ccI3WYuM.s 			page 269


 12025 2443 6C       		.sleb128 -20
 12026 2444 2A       		.uleb128 0x2a
 12027 2445 380C0000 		.4byte	.LASF459
 12028 2449 07       		.byte	0x7
 12029 244a 8E02     		.2byte	0x28e
 12030 244c 66140000 		.4byte	0x1466
 12031 2450 02       		.uleb128 0x2
 12032 2451 91       		.byte	0x91
 12033 2452 6B       		.sleb128 -21
 12034 2453 35       		.uleb128 0x35
 12035 2454 65787400 		.ascii	"ext\000"
 12036 2458 07       		.byte	0x7
 12037 2459 9202     		.2byte	0x292
 12038 245b 56200000 		.4byte	0x2056
 12039 245f 02       		.uleb128 0x2
 12040 2460 91       		.byte	0x91
 12041 2461 74       		.sleb128 -12
 12042 2462 00       		.byte	0
 12043 2463 36       		.uleb128 0x36
 12044 2464 A7090000 		.4byte	.LASF460
 12045 2468 07       		.byte	0x7
 12046 2469 9F02     		.2byte	0x29f
 12047 246b 00000000 		.4byte	.LFB65
 12048 246f 32000000 		.4byte	.LFE65-.LFB65
 12049 2473 01       		.uleb128 0x1
 12050 2474 9C       		.byte	0x9c
 12051 2475 A5240000 		.4byte	0x24a5
 12052 2479 2C       		.uleb128 0x2c
 12053 247a 746100   		.ascii	"ta\000"
 12054 247d 07       		.byte	0x7
 12055 247e 9F02     		.2byte	0x29f
 12056 2480 55130000 		.4byte	0x1355
 12057 2484 02       		.uleb128 0x2
 12058 2485 91       		.byte	0x91
 12059 2486 6C       		.sleb128 -20
 12060 2487 2C       		.uleb128 0x2c
 12061 2488 656E00   		.ascii	"en\000"
 12062 248b 07       		.byte	0x7
 12063 248c 9F02     		.2byte	0x29f
 12064 248e E0010000 		.4byte	0x1e0
 12065 2492 02       		.uleb128 0x2
 12066 2493 91       		.byte	0x91
 12067 2494 6B       		.sleb128 -21
 12068 2495 35       		.uleb128 0x35
 12069 2496 65787400 		.ascii	"ext\000"
 12070 249a 07       		.byte	0x7
 12071 249b A302     		.2byte	0x2a3
 12072 249d 56200000 		.4byte	0x2056
 12073 24a1 02       		.uleb128 0x2
 12074 24a2 91       		.byte	0x91
 12075 24a3 74       		.sleb128 -12
 12076 24a4 00       		.byte	0
 12077 24a5 36       		.uleb128 0x36
 12078 24a6 B0070000 		.4byte	.LASF461
 12079 24aa 07       		.byte	0x7
 12080 24ab AC02     		.2byte	0x2ac
 12081 24ad 00000000 		.4byte	.LFB66
ARM GAS  C:\Users\tmj32\AppData\Local\Temp\ccI3WYuM.s 			page 270


 12082 24b1 38010000 		.4byte	.LFE66-.LFB66
 12083 24b5 01       		.uleb128 0x1
 12084 24b6 9C       		.byte	0x9c
 12085 24b7 27250000 		.4byte	0x2527
 12086 24bb 2C       		.uleb128 0x2c
 12087 24bc 746100   		.ascii	"ta\000"
 12088 24bf 07       		.byte	0x7
 12089 24c0 AC02     		.2byte	0x2ac
 12090 24c2 55130000 		.4byte	0x1355
 12091 24c6 02       		.uleb128 0x2
 12092 24c7 91       		.byte	0x91
 12093 24c8 5C       		.sleb128 -36
 12094 24c9 2C       		.uleb128 0x2c
 12095 24ca 656E00   		.ascii	"en\000"
 12096 24cd 07       		.byte	0x7
 12097 24ce AC02     		.2byte	0x2ac
 12098 24d0 E0010000 		.4byte	0x1e0
 12099 24d4 02       		.uleb128 0x2
 12100 24d5 91       		.byte	0x91
 12101 24d6 5B       		.sleb128 -37
 12102 24d7 35       		.uleb128 0x35
 12103 24d8 65787400 		.ascii	"ext\000"
 12104 24dc 07       		.byte	0x7
 12105 24dd B002     		.2byte	0x2b0
 12106 24df 56200000 		.4byte	0x2056
 12107 24e3 02       		.uleb128 0x2
 12108 24e4 91       		.byte	0x91
 12109 24e5 70       		.sleb128 -16
 12110 24e6 34       		.uleb128 0x34
 12111 24e7 60000000 		.4byte	.Ldebug_ranges0+0x60
 12112 24eb 35       		.uleb128 0x35
 12113 24ec 74787400 		.ascii	"txt\000"
 12114 24f0 07       		.byte	0x7
 12115 24f1 B502     		.2byte	0x2b5
 12116 24f3 0A030000 		.4byte	0x30a
 12117 24f7 02       		.uleb128 0x2
 12118 24f8 91       		.byte	0x91
 12119 24f9 6C       		.sleb128 -20
 12120 24fa 35       		.uleb128 0x35
 12121 24fb 6C656E00 		.ascii	"len\000"
 12122 24ff 07       		.byte	0x7
 12123 2500 B602     		.2byte	0x2b6
 12124 2502 FC000000 		.4byte	0xfc
 12125 2506 02       		.uleb128 0x2
 12126 2507 91       		.byte	0x91
 12127 2508 68       		.sleb128 -24
 12128 2509 35       		.uleb128 0x35
 12129 250a 6900     		.ascii	"i\000"
 12130 250c 07       		.byte	0x7
 12131 250d BD02     		.2byte	0x2bd
 12132 250f CE000000 		.4byte	0xce
 12133 2513 02       		.uleb128 0x2
 12134 2514 91       		.byte	0x91
 12135 2515 76       		.sleb128 -10
 12136 2516 33       		.uleb128 0x33
 12137 2517 520E0000 		.4byte	.LASF462
 12138 251b 07       		.byte	0x7
ARM GAS  C:\Users\tmj32\AppData\Local\Temp\ccI3WYuM.s 			page 271


 12139 251c BE02     		.2byte	0x2be
 12140 251e CE000000 		.4byte	0xce
 12141 2522 02       		.uleb128 0x2
 12142 2523 91       		.byte	0x91
 12143 2524 66       		.sleb128 -26
 12144 2525 00       		.byte	0
 12145 2526 00       		.byte	0
 12146 2527 36       		.uleb128 0x36
 12147 2528 46140000 		.4byte	.LASF463
 12148 252c 07       		.byte	0x7
 12149 252d DA02     		.2byte	0x2da
 12150 252f 00000000 		.4byte	.LFB67
 12151 2533 7A010000 		.4byte	.LFE67-.LFB67
 12152 2537 01       		.uleb128 0x1
 12153 2538 9C       		.byte	0x9c
 12154 2539 DB250000 		.4byte	0x25db
 12155 253d 2C       		.uleb128 0x2c
 12156 253e 746100   		.ascii	"ta\000"
 12157 2541 07       		.byte	0x7
 12158 2542 DA02     		.2byte	0x2da
 12159 2544 55130000 		.4byte	0x1355
 12160 2548 02       		.uleb128 0x2
 12161 2549 91       		.byte	0x91
 12162 254a 54       		.sleb128 -44
 12163 254b 2C       		.uleb128 0x2c
 12164 254c 656E00   		.ascii	"en\000"
 12165 254f 07       		.byte	0x7
 12166 2550 DA02     		.2byte	0x2da
 12167 2552 E0010000 		.4byte	0x1e0
 12168 2556 02       		.uleb128 0x2
 12169 2557 91       		.byte	0x91
 12170 2558 53       		.sleb128 -45
 12171 2559 35       		.uleb128 0x35
 12172 255a 65787400 		.ascii	"ext\000"
 12173 255e 07       		.byte	0x7
 12174 255f DE02     		.2byte	0x2de
 12175 2561 56200000 		.4byte	0x2056
 12176 2565 02       		.uleb128 0x2
 12177 2566 91       		.byte	0x91
 12178 2567 74       		.sleb128 -12
 12179 2568 33       		.uleb128 0x33
 12180 2569 0F020000 		.4byte	.LASF464
 12181 256d 07       		.byte	0x7
 12182 256e E002     		.2byte	0x2e0
 12183 2570 0C140000 		.4byte	0x140c
 12184 2574 02       		.uleb128 0x2
 12185 2575 91       		.byte	0x91
 12186 2576 73       		.sleb128 -13
 12187 2577 30       		.uleb128 0x30
 12188 2578 3E000000 		.4byte	.LBB23
 12189 257c BE000000 		.4byte	.LBE23-.LBB23
 12190 2580 C1250000 		.4byte	0x25c1
 12191 2584 33       		.uleb128 0x33
 12192 2585 D8040000 		.4byte	.LASF465
 12193 2589 07       		.byte	0x7
 12194 258a E302     		.2byte	0x2e3
 12195 258c F2100000 		.4byte	0x10f2
ARM GAS  C:\Users\tmj32\AppData\Local\Temp\ccI3WYuM.s 			page 272


 12196 2590 02       		.uleb128 0x2
 12197 2591 91       		.byte	0x91
 12198 2592 6C       		.sleb128 -20
 12199 2593 33       		.uleb128 0x33
 12200 2594 500C0000 		.4byte	.LASF466
 12201 2598 07       		.byte	0x7
 12202 2599 E402     		.2byte	0x2e4
 12203 259b F2100000 		.4byte	0x10f2
 12204 259f 02       		.uleb128 0x2
 12205 25a0 91       		.byte	0x91
 12206 25a1 68       		.sleb128 -24
 12207 25a2 33       		.uleb128 0x33
 12208 25a3 FC080000 		.4byte	.LASF467
 12209 25a7 07       		.byte	0x7
 12210 25a8 E502     		.2byte	0x2e5
 12211 25aa F2100000 		.4byte	0x10f2
 12212 25ae 02       		.uleb128 0x2
 12213 25af 91       		.byte	0x91
 12214 25b0 64       		.sleb128 -28
 12215 25b1 33       		.uleb128 0x33
 12216 25b2 3F140000 		.4byte	.LASF457
 12217 25b6 07       		.byte	0x7
 12218 25b7 E602     		.2byte	0x2e6
 12219 25b9 EF000000 		.4byte	0xef
 12220 25bd 02       		.uleb128 0x2
 12221 25be 91       		.byte	0x91
 12222 25bf 62       		.sleb128 -30
 12223 25c0 00       		.byte	0
 12224 25c1 31       		.uleb128 0x31
 12225 25c2 FE000000 		.4byte	.LBB24
 12226 25c6 60000000 		.4byte	.LBE24-.LBB24
 12227 25ca 33       		.uleb128 0x33
 12228 25cb D8040000 		.4byte	.LASF465
 12229 25cf 07       		.byte	0x7
 12230 25d0 F002     		.2byte	0x2f0
 12231 25d2 F2100000 		.4byte	0x10f2
 12232 25d6 02       		.uleb128 0x2
 12233 25d7 91       		.byte	0x91
 12234 25d8 5C       		.sleb128 -36
 12235 25d9 00       		.byte	0
 12236 25da 00       		.byte	0
 12237 25db 36       		.uleb128 0x36
 12238 25dc 60080000 		.4byte	.LASF468
 12239 25e0 07       		.byte	0x7
 12240 25e1 0703     		.2byte	0x307
 12241 25e3 00000000 		.4byte	.LFB68
 12242 25e7 D8000000 		.4byte	.LFE68-.LFB68
 12243 25eb 01       		.uleb128 0x1
 12244 25ec 9C       		.byte	0x9c
 12245 25ed 2D260000 		.4byte	0x262d
 12246 25f1 2C       		.uleb128 0x2c
 12247 25f2 746100   		.ascii	"ta\000"
 12248 25f5 07       		.byte	0x7
 12249 25f6 0703     		.2byte	0x307
 12250 25f8 55130000 		.4byte	0x1355
 12251 25fc 02       		.uleb128 0x2
 12252 25fd 91       		.byte	0x91
ARM GAS  C:\Users\tmj32\AppData\Local\Temp\ccI3WYuM.s 			page 273


 12253 25fe 6C       		.sleb128 -20
 12254 25ff 2A       		.uleb128 0x2a
 12255 2600 A50E0000 		.4byte	.LASF280
 12256 2604 07       		.byte	0x7
 12257 2605 0703     		.2byte	0x307
 12258 2607 0C140000 		.4byte	0x140c
 12259 260b 02       		.uleb128 0x2
 12260 260c 91       		.byte	0x91
 12261 260d 6B       		.sleb128 -21
 12262 260e 35       		.uleb128 0x35
 12263 260f 65787400 		.ascii	"ext\000"
 12264 2613 07       		.byte	0x7
 12265 2614 0B03     		.2byte	0x30b
 12266 2616 56200000 		.4byte	0x2056
 12267 261a 02       		.uleb128 0x2
 12268 261b 91       		.byte	0x91
 12269 261c 74       		.sleb128 -12
 12270 261d 33       		.uleb128 0x33
 12271 261e 491B0000 		.4byte	.LASF368
 12272 2622 07       		.byte	0x7
 12273 2623 0C03     		.2byte	0x30c
 12274 2625 55130000 		.4byte	0x1355
 12275 2629 02       		.uleb128 0x2
 12276 262a 91       		.byte	0x91
 12277 262b 70       		.sleb128 -16
 12278 262c 00       		.byte	0
 12279 262d 36       		.uleb128 0x36
 12280 262e 04120000 		.4byte	.LASF469
 12281 2632 07       		.byte	0x7
 12282 2633 2C03     		.2byte	0x32c
 12283 2635 00000000 		.4byte	.LFB69
 12284 2639 20000000 		.4byte	.LFE69-.LFB69
 12285 263d 01       		.uleb128 0x1
 12286 263e 9C       		.byte	0x9c
 12287 263f 70260000 		.4byte	0x2670
 12288 2643 2C       		.uleb128 0x2c
 12289 2644 746100   		.ascii	"ta\000"
 12290 2647 07       		.byte	0x7
 12291 2648 2C03     		.2byte	0x32c
 12292 264a 55130000 		.4byte	0x1355
 12293 264e 02       		.uleb128 0x2
 12294 264f 91       		.byte	0x91
 12295 2650 6C       		.sleb128 -20
 12296 2651 2A       		.uleb128 0x2a
 12297 2652 48100000 		.4byte	.LASF416
 12298 2656 07       		.byte	0x7
 12299 2657 2C03     		.2byte	0x32c
 12300 2659 17030000 		.4byte	0x317
 12301 265d 02       		.uleb128 0x2
 12302 265e 91       		.byte	0x91
 12303 265f 68       		.sleb128 -24
 12304 2660 35       		.uleb128 0x35
 12305 2661 65787400 		.ascii	"ext\000"
 12306 2665 07       		.byte	0x7
 12307 2666 3003     		.2byte	0x330
 12308 2668 56200000 		.4byte	0x2056
 12309 266c 02       		.uleb128 0x2
ARM GAS  C:\Users\tmj32\AppData\Local\Temp\ccI3WYuM.s 			page 274


 12310 266d 91       		.byte	0x91
 12311 266e 74       		.sleb128 -12
 12312 266f 00       		.byte	0
 12313 2670 36       		.uleb128 0x36
 12314 2671 FC000000 		.4byte	.LASF470
 12315 2675 07       		.byte	0x7
 12316 2676 3A03     		.2byte	0x33a
 12317 2678 00000000 		.4byte	.LFB70
 12318 267c 24000000 		.4byte	.LFE70-.LFB70
 12319 2680 01       		.uleb128 0x1
 12320 2681 9C       		.byte	0x9c
 12321 2682 B3260000 		.4byte	0x26b3
 12322 2686 2C       		.uleb128 0x2c
 12323 2687 746100   		.ascii	"ta\000"
 12324 268a 07       		.byte	0x7
 12325 268b 3A03     		.2byte	0x33a
 12326 268d 55130000 		.4byte	0x1355
 12327 2691 02       		.uleb128 0x2
 12328 2692 91       		.byte	0x91
 12329 2693 6C       		.sleb128 -20
 12330 2694 2C       		.uleb128 0x2c
 12331 2695 6E756D00 		.ascii	"num\000"
 12332 2699 07       		.byte	0x7
 12333 269a 3A03     		.2byte	0x33a
 12334 269c CE000000 		.4byte	0xce
 12335 26a0 02       		.uleb128 0x2
 12336 26a1 91       		.byte	0x91
 12337 26a2 6A       		.sleb128 -22
 12338 26a3 35       		.uleb128 0x35
 12339 26a4 65787400 		.ascii	"ext\000"
 12340 26a8 07       		.byte	0x7
 12341 26a9 3E03     		.2byte	0x33e
 12342 26ab 56200000 		.4byte	0x2056
 12343 26af 02       		.uleb128 0x2
 12344 26b0 91       		.byte	0x91
 12345 26b1 74       		.sleb128 -12
 12346 26b2 00       		.byte	0
 12347 26b3 37       		.uleb128 0x37
 12348 26b4 790B0000 		.4byte	.LASF471
 12349 26b8 07       		.byte	0x7
 12350 26b9 4B03     		.2byte	0x34b
 12351 26bb 00000000 		.4byte	.LFB71
 12352 26bf 20000000 		.4byte	.LFE71-.LFB71
 12353 26c3 01       		.uleb128 0x1
 12354 26c4 9C       		.byte	0x9c
 12355 26c5 E7260000 		.4byte	0x26e7
 12356 26c9 2C       		.uleb128 0x2c
 12357 26ca 746100   		.ascii	"ta\000"
 12358 26cd 07       		.byte	0x7
 12359 26ce 4B03     		.2byte	0x34b
 12360 26d0 55130000 		.4byte	0x1355
 12361 26d4 02       		.uleb128 0x2
 12362 26d5 91       		.byte	0x91
 12363 26d6 74       		.sleb128 -12
 12364 26d7 2C       		.uleb128 0x2c
 12365 26d8 74787400 		.ascii	"txt\000"
 12366 26dc 07       		.byte	0x7
ARM GAS  C:\Users\tmj32\AppData\Local\Temp\ccI3WYuM.s 			page 275


 12367 26dd 4B03     		.2byte	0x34b
 12368 26df 17030000 		.4byte	0x317
 12369 26e3 02       		.uleb128 0x2
 12370 26e4 91       		.byte	0x91
 12371 26e5 70       		.sleb128 -16
 12372 26e6 00       		.byte	0
 12373 26e7 36       		.uleb128 0x36
 12374 26e8 79090000 		.4byte	.LASF472
 12375 26ec 07       		.byte	0x7
 12376 26ed 5903     		.2byte	0x359
 12377 26ef 00000000 		.4byte	.LFB72
 12378 26f3 98000000 		.4byte	.LFE72-.LFB72
 12379 26f7 01       		.uleb128 0x1
 12380 26f8 9C       		.byte	0x9c
 12381 26f9 39270000 		.4byte	0x2739
 12382 26fd 2C       		.uleb128 0x2c
 12383 26fe 746100   		.ascii	"ta\000"
 12384 2701 07       		.byte	0x7
 12385 2702 5903     		.2byte	0x359
 12386 2704 55130000 		.4byte	0x1355
 12387 2708 02       		.uleb128 0x2
 12388 2709 91       		.byte	0x91
 12389 270a 6C       		.sleb128 -20
 12390 270b 2A       		.uleb128 0x2a
 12391 270c 8B020000 		.4byte	.LASF85
 12392 2710 07       		.byte	0x7
 12393 2711 5903     		.2byte	0x359
 12394 2713 AC150000 		.4byte	0x15ac
 12395 2717 02       		.uleb128 0x2
 12396 2718 91       		.byte	0x91
 12397 2719 6B       		.sleb128 -21
 12398 271a 2A       		.uleb128 0x2a
 12399 271b 5F110000 		.4byte	.LASF317
 12400 271f 07       		.byte	0x7
 12401 2720 5903     		.2byte	0x359
 12402 2722 F2100000 		.4byte	0x10f2
 12403 2726 02       		.uleb128 0x2
 12404 2727 91       		.byte	0x91
 12405 2728 64       		.sleb128 -28
 12406 2729 35       		.uleb128 0x35
 12407 272a 65787400 		.ascii	"ext\000"
 12408 272e 07       		.byte	0x7
 12409 272f 5D03     		.2byte	0x35d
 12410 2731 56200000 		.4byte	0x2056
 12411 2735 02       		.uleb128 0x2
 12412 2736 91       		.byte	0x91
 12413 2737 74       		.sleb128 -12
 12414 2738 00       		.byte	0
 12415 2739 37       		.uleb128 0x37
 12416 273a 33110000 		.4byte	.LASF473
 12417 273e 07       		.byte	0x7
 12418 273f 7303     		.2byte	0x373
 12419 2741 00000000 		.4byte	.LFB73
 12420 2745 18000000 		.4byte	.LFE73-.LFB73
 12421 2749 01       		.uleb128 0x1
 12422 274a 9C       		.byte	0x9c
 12423 274b 6C270000 		.4byte	0x276c
ARM GAS  C:\Users\tmj32\AppData\Local\Temp\ccI3WYuM.s 			page 276


 12424 274f 2C       		.uleb128 0x2c
 12425 2750 746100   		.ascii	"ta\000"
 12426 2753 07       		.byte	0x7
 12427 2754 7303     		.2byte	0x373
 12428 2756 55130000 		.4byte	0x1355
 12429 275a 02       		.uleb128 0x2
 12430 275b 91       		.byte	0x91
 12431 275c 74       		.sleb128 -12
 12432 275d 2C       		.uleb128 0x2c
 12433 275e 656E00   		.ascii	"en\000"
 12434 2761 07       		.byte	0x7
 12435 2762 7303     		.2byte	0x373
 12436 2764 E0010000 		.4byte	0x1e0
 12437 2768 02       		.uleb128 0x2
 12438 2769 91       		.byte	0x91
 12439 276a 73       		.sleb128 -13
 12440 276b 00       		.byte	0
 12441 276c 36       		.uleb128 0x36
 12442 276d 2A170000 		.4byte	.LASF474
 12443 2771 07       		.byte	0x7
 12444 2772 8803     		.2byte	0x388
 12445 2774 00000000 		.4byte	.LFB74
 12446 2778 24000000 		.4byte	.LFE74-.LFB74
 12447 277c 01       		.uleb128 0x1
 12448 277d 9C       		.byte	0x9c
 12449 277e AF270000 		.4byte	0x27af
 12450 2782 2C       		.uleb128 0x2c
 12451 2783 746100   		.ascii	"ta\000"
 12452 2786 07       		.byte	0x7
 12453 2787 8803     		.2byte	0x388
 12454 2789 55130000 		.4byte	0x1355
 12455 278d 02       		.uleb128 0x2
 12456 278e 91       		.byte	0x91
 12457 278f 6C       		.sleb128 -20
 12458 2790 2A       		.uleb128 0x2a
 12459 2791 BE150000 		.4byte	.LASF68
 12460 2795 07       		.byte	0x7
 12461 2796 8803     		.2byte	0x388
 12462 2798 CE000000 		.4byte	0xce
 12463 279c 02       		.uleb128 0x2
 12464 279d 91       		.byte	0x91
 12465 279e 6A       		.sleb128 -22
 12466 279f 35       		.uleb128 0x35
 12467 27a0 65787400 		.ascii	"ext\000"
 12468 27a4 07       		.byte	0x7
 12469 27a5 9003     		.2byte	0x390
 12470 27a7 56200000 		.4byte	0x2056
 12471 27ab 02       		.uleb128 0x2
 12472 27ac 91       		.byte	0x91
 12473 27ad 74       		.sleb128 -12
 12474 27ae 00       		.byte	0
 12475 27af 36       		.uleb128 0x36
 12476 27b0 24130000 		.4byte	.LASF475
 12477 27b4 07       		.byte	0x7
 12478 27b5 9903     		.2byte	0x399
 12479 27b7 00000000 		.4byte	.LFB75
 12480 27bb 9C000000 		.4byte	.LFE75-.LFB75
ARM GAS  C:\Users\tmj32\AppData\Local\Temp\ccI3WYuM.s 			page 277


 12481 27bf 01       		.uleb128 0x1
 12482 27c0 9C       		.byte	0x9c
 12483 27c1 09280000 		.4byte	0x2809
 12484 27c5 2C       		.uleb128 0x2c
 12485 27c6 746100   		.ascii	"ta\000"
 12486 27c9 07       		.byte	0x7
 12487 27ca 9903     		.2byte	0x399
 12488 27cc 55130000 		.4byte	0x1355
 12489 27d0 02       		.uleb128 0x2
 12490 27d1 91       		.byte	0x91
 12491 27d2 4C       		.sleb128 -52
 12492 27d3 2A       		.uleb128 0x2a
 12493 27d4 BE150000 		.4byte	.LASF68
 12494 27d8 07       		.byte	0x7
 12495 27d9 9903     		.2byte	0x399
 12496 27db CE000000 		.4byte	0xce
 12497 27df 02       		.uleb128 0x2
 12498 27e0 91       		.byte	0x91
 12499 27e1 4A       		.sleb128 -54
 12500 27e2 35       		.uleb128 0x35
 12501 27e3 65787400 		.ascii	"ext\000"
 12502 27e7 07       		.byte	0x7
 12503 27e8 A103     		.2byte	0x3a1
 12504 27ea 56200000 		.4byte	0x2056
 12505 27ee 02       		.uleb128 0x2
 12506 27ef 91       		.byte	0x91
 12507 27f0 74       		.sleb128 -12
 12508 27f1 31       		.uleb128 0x31
 12509 27f2 26000000 		.4byte	.LBB25
 12510 27f6 4E000000 		.4byte	.LBE25-.LBB25
 12511 27fa 35       		.uleb128 0x35
 12512 27fb 6100     		.ascii	"a\000"
 12513 27fd 07       		.byte	0x7
 12514 27fe A703     		.2byte	0x3a7
 12515 2800 D4040000 		.4byte	0x4d4
 12516 2804 02       		.uleb128 0x2
 12517 2805 91       		.byte	0x91
 12518 2806 50       		.sleb128 -48
 12519 2807 00       		.byte	0
 12520 2808 00       		.byte	0
 12521 2809 38       		.uleb128 0x38
 12522 280a 630F0000 		.4byte	.LASF477
 12523 280e 07       		.byte	0x7
 12524 280f C703     		.2byte	0x3c7
 12525 2811 17030000 		.4byte	0x317
 12526 2815 00000000 		.4byte	.LFB76
 12527 2819 3E000000 		.4byte	.LFE76-.LFB76
 12528 281d 01       		.uleb128 0x1
 12529 281e 9C       		.byte	0x9c
 12530 281f 50280000 		.4byte	0x2850
 12531 2823 2C       		.uleb128 0x2c
 12532 2824 746100   		.ascii	"ta\000"
 12533 2827 07       		.byte	0x7
 12534 2828 C703     		.2byte	0x3c7
 12535 282a 051F0000 		.4byte	0x1f05
 12536 282e 02       		.uleb128 0x2
 12537 282f 91       		.byte	0x91
ARM GAS  C:\Users\tmj32\AppData\Local\Temp\ccI3WYuM.s 			page 278


 12538 2830 6C       		.sleb128 -20
 12539 2831 35       		.uleb128 0x35
 12540 2832 65787400 		.ascii	"ext\000"
 12541 2836 07       		.byte	0x7
 12542 2837 CB03     		.2byte	0x3cb
 12543 2839 56200000 		.4byte	0x2056
 12544 283d 02       		.uleb128 0x2
 12545 283e 91       		.byte	0x91
 12546 283f 70       		.sleb128 -16
 12547 2840 35       		.uleb128 0x35
 12548 2841 74787400 		.ascii	"txt\000"
 12549 2845 07       		.byte	0x7
 12550 2846 CD03     		.2byte	0x3cd
 12551 2848 17030000 		.4byte	0x317
 12552 284c 02       		.uleb128 0x2
 12553 284d 91       		.byte	0x91
 12554 284e 74       		.sleb128 -12
 12555 284f 00       		.byte	0
 12556 2850 38       		.uleb128 0x38
 12557 2851 890F0000 		.4byte	.LASF478
 12558 2855 07       		.byte	0x7
 12559 2856 DC03     		.2byte	0x3dc
 12560 2858 17030000 		.4byte	0x317
 12561 285c 00000000 		.4byte	.LFB77
 12562 2860 32000000 		.4byte	.LFE77-.LFB77
 12563 2864 01       		.uleb128 0x1
 12564 2865 9C       		.byte	0x9c
 12565 2866 97280000 		.4byte	0x2897
 12566 286a 2C       		.uleb128 0x2c
 12567 286b 746100   		.ascii	"ta\000"
 12568 286e 07       		.byte	0x7
 12569 286f DC03     		.2byte	0x3dc
 12570 2871 55130000 		.4byte	0x1355
 12571 2875 02       		.uleb128 0x2
 12572 2876 91       		.byte	0x91
 12573 2877 6C       		.sleb128 -20
 12574 2878 35       		.uleb128 0x35
 12575 2879 65787400 		.ascii	"ext\000"
 12576 287d 07       		.byte	0x7
 12577 287e E003     		.2byte	0x3e0
 12578 2880 56200000 		.4byte	0x2056
 12579 2884 02       		.uleb128 0x2
 12580 2885 91       		.byte	0x91
 12581 2886 70       		.sleb128 -16
 12582 2887 35       		.uleb128 0x35
 12583 2888 74787400 		.ascii	"txt\000"
 12584 288c 07       		.byte	0x7
 12585 288d E203     		.2byte	0x3e2
 12586 288f 17030000 		.4byte	0x317
 12587 2893 02       		.uleb128 0x2
 12588 2894 91       		.byte	0x91
 12589 2895 74       		.sleb128 -12
 12590 2896 00       		.byte	0
 12591 2897 38       		.uleb128 0x38
 12592 2898 671B0000 		.4byte	.LASF479
 12593 289c 07       		.byte	0x7
 12594 289d EE03     		.2byte	0x3ee
ARM GAS  C:\Users\tmj32\AppData\Local\Temp\ccI3WYuM.s 			page 279


 12595 289f 55130000 		.4byte	0x1355
 12596 28a3 00000000 		.4byte	.LFB78
 12597 28a7 1C000000 		.4byte	.LFE78-.LFB78
 12598 28ab 01       		.uleb128 0x1
 12599 28ac 9C       		.byte	0x9c
 12600 28ad CF280000 		.4byte	0x28cf
 12601 28b1 2C       		.uleb128 0x2c
 12602 28b2 746100   		.ascii	"ta\000"
 12603 28b5 07       		.byte	0x7
 12604 28b6 EE03     		.2byte	0x3ee
 12605 28b8 051F0000 		.4byte	0x1f05
 12606 28bc 02       		.uleb128 0x2
 12607 28bd 91       		.byte	0x91
 12608 28be 6C       		.sleb128 -20
 12609 28bf 35       		.uleb128 0x35
 12610 28c0 65787400 		.ascii	"ext\000"
 12611 28c4 07       		.byte	0x7
 12612 28c5 F203     		.2byte	0x3f2
 12613 28c7 56200000 		.4byte	0x2056
 12614 28cb 02       		.uleb128 0x2
 12615 28cc 91       		.byte	0x91
 12616 28cd 74       		.sleb128 -12
 12617 28ce 00       		.byte	0
 12618 28cf 38       		.uleb128 0x38
 12619 28d0 49130000 		.4byte	.LASF480
 12620 28d4 07       		.byte	0x7
 12621 28d5 FB03     		.2byte	0x3fb
 12622 28d7 CE000000 		.4byte	0xce
 12623 28db 00000000 		.4byte	.LFB79
 12624 28df 1E000000 		.4byte	.LFE79-.LFB79
 12625 28e3 01       		.uleb128 0x1
 12626 28e4 9C       		.byte	0x9c
 12627 28e5 07290000 		.4byte	0x2907
 12628 28e9 2C       		.uleb128 0x2c
 12629 28ea 746100   		.ascii	"ta\000"
 12630 28ed 07       		.byte	0x7
 12631 28ee FB03     		.2byte	0x3fb
 12632 28f0 051F0000 		.4byte	0x1f05
 12633 28f4 02       		.uleb128 0x2
 12634 28f5 91       		.byte	0x91
 12635 28f6 6C       		.sleb128 -20
 12636 28f7 35       		.uleb128 0x35
 12637 28f8 65787400 		.ascii	"ext\000"
 12638 28fc 07       		.byte	0x7
 12639 28fd FF03     		.2byte	0x3ff
 12640 28ff 56200000 		.4byte	0x2056
 12641 2903 02       		.uleb128 0x2
 12642 2904 91       		.byte	0x91
 12643 2905 74       		.sleb128 -12
 12644 2906 00       		.byte	0
 12645 2907 38       		.uleb128 0x38
 12646 2908 A70A0000 		.4byte	.LASF481
 12647 290c 07       		.byte	0x7
 12648 290d 0804     		.2byte	0x408
 12649 290f 66140000 		.4byte	0x1466
 12650 2913 00000000 		.4byte	.LFB80
 12651 2917 24000000 		.4byte	.LFE80-.LFB80
ARM GAS  C:\Users\tmj32\AppData\Local\Temp\ccI3WYuM.s 			page 280


 12652 291b 01       		.uleb128 0x1
 12653 291c 9C       		.byte	0x9c
 12654 291d 3F290000 		.4byte	0x293f
 12655 2921 2C       		.uleb128 0x2c
 12656 2922 746100   		.ascii	"ta\000"
 12657 2925 07       		.byte	0x7
 12658 2926 0804     		.2byte	0x408
 12659 2928 051F0000 		.4byte	0x1f05
 12660 292c 02       		.uleb128 0x2
 12661 292d 91       		.byte	0x91
 12662 292e 6C       		.sleb128 -20
 12663 292f 35       		.uleb128 0x35
 12664 2930 65787400 		.ascii	"ext\000"
 12665 2934 07       		.byte	0x7
 12666 2935 0C04     		.2byte	0x40c
 12667 2937 56200000 		.4byte	0x2056
 12668 293b 02       		.uleb128 0x2
 12669 293c 91       		.byte	0x91
 12670 293d 74       		.sleb128 -12
 12671 293e 00       		.byte	0
 12672 293f 38       		.uleb128 0x38
 12673 2940 F40B0000 		.4byte	.LASF482
 12674 2944 07       		.byte	0x7
 12675 2945 1504     		.2byte	0x415
 12676 2947 E0010000 		.4byte	0x1e0
 12677 294b 00000000 		.4byte	.LFB81
 12678 294f 2E000000 		.4byte	.LFE81-.LFB81
 12679 2953 01       		.uleb128 0x1
 12680 2954 9C       		.byte	0x9c
 12681 2955 77290000 		.4byte	0x2977
 12682 2959 2C       		.uleb128 0x2c
 12683 295a 746100   		.ascii	"ta\000"
 12684 295d 07       		.byte	0x7
 12685 295e 1504     		.2byte	0x415
 12686 2960 55130000 		.4byte	0x1355
 12687 2964 02       		.uleb128 0x2
 12688 2965 91       		.byte	0x91
 12689 2966 6C       		.sleb128 -20
 12690 2967 35       		.uleb128 0x35
 12691 2968 65787400 		.ascii	"ext\000"
 12692 296c 07       		.byte	0x7
 12693 296d 1904     		.2byte	0x419
 12694 296f 56200000 		.4byte	0x2056
 12695 2973 02       		.uleb128 0x2
 12696 2974 91       		.byte	0x91
 12697 2975 74       		.sleb128 -12
 12698 2976 00       		.byte	0
 12699 2977 38       		.uleb128 0x38
 12700 2978 A1040000 		.4byte	.LASF483
 12701 297c 07       		.byte	0x7
 12702 297d 2204     		.2byte	0x422
 12703 297f E0010000 		.4byte	0x1e0
 12704 2983 00000000 		.4byte	.LFB82
 12705 2987 2E000000 		.4byte	.LFE82-.LFB82
 12706 298b 01       		.uleb128 0x1
 12707 298c 9C       		.byte	0x9c
 12708 298d AF290000 		.4byte	0x29af
ARM GAS  C:\Users\tmj32\AppData\Local\Temp\ccI3WYuM.s 			page 281


 12709 2991 2C       		.uleb128 0x2c
 12710 2992 746100   		.ascii	"ta\000"
 12711 2995 07       		.byte	0x7
 12712 2996 2204     		.2byte	0x422
 12713 2998 051F0000 		.4byte	0x1f05
 12714 299c 02       		.uleb128 0x2
 12715 299d 91       		.byte	0x91
 12716 299e 6C       		.sleb128 -20
 12717 299f 35       		.uleb128 0x35
 12718 29a0 65787400 		.ascii	"ext\000"
 12719 29a4 07       		.byte	0x7
 12720 29a5 2604     		.2byte	0x426
 12721 29a7 56200000 		.4byte	0x2056
 12722 29ab 02       		.uleb128 0x2
 12723 29ac 91       		.byte	0x91
 12724 29ad 74       		.sleb128 -12
 12725 29ae 00       		.byte	0
 12726 29af 38       		.uleb128 0x38
 12727 29b0 AF170000 		.4byte	.LASF484
 12728 29b4 07       		.byte	0x7
 12729 29b5 2F04     		.2byte	0x42f
 12730 29b7 E0010000 		.4byte	0x1e0
 12731 29bb 00000000 		.4byte	.LFB83
 12732 29bf 2E000000 		.4byte	.LFE83-.LFB83
 12733 29c3 01       		.uleb128 0x1
 12734 29c4 9C       		.byte	0x9c
 12735 29c5 E7290000 		.4byte	0x29e7
 12736 29c9 2C       		.uleb128 0x2c
 12737 29ca 746100   		.ascii	"ta\000"
 12738 29cd 07       		.byte	0x7
 12739 29ce 2F04     		.2byte	0x42f
 12740 29d0 051F0000 		.4byte	0x1f05
 12741 29d4 02       		.uleb128 0x2
 12742 29d5 91       		.byte	0x91
 12743 29d6 6C       		.sleb128 -20
 12744 29d7 35       		.uleb128 0x35
 12745 29d8 65787400 		.ascii	"ext\000"
 12746 29dc 07       		.byte	0x7
 12747 29dd 3304     		.2byte	0x433
 12748 29df 56200000 		.4byte	0x2056
 12749 29e3 02       		.uleb128 0x2
 12750 29e4 91       		.byte	0x91
 12751 29e5 74       		.sleb128 -12
 12752 29e6 00       		.byte	0
 12753 29e7 38       		.uleb128 0x38
 12754 29e8 5B030000 		.4byte	.LASF485
 12755 29ec 07       		.byte	0x7
 12756 29ed 3C04     		.2byte	0x43c
 12757 29ef 17030000 		.4byte	0x317
 12758 29f3 00000000 		.4byte	.LFB84
 12759 29f7 1C000000 		.4byte	.LFE84-.LFB84
 12760 29fb 01       		.uleb128 0x1
 12761 29fc 9C       		.byte	0x9c
 12762 29fd 1F2A0000 		.4byte	0x2a1f
 12763 2a01 2C       		.uleb128 0x2c
 12764 2a02 746100   		.ascii	"ta\000"
 12765 2a05 07       		.byte	0x7
ARM GAS  C:\Users\tmj32\AppData\Local\Temp\ccI3WYuM.s 			page 282


 12766 2a06 3C04     		.2byte	0x43c
 12767 2a08 55130000 		.4byte	0x1355
 12768 2a0c 02       		.uleb128 0x2
 12769 2a0d 91       		.byte	0x91
 12770 2a0e 6C       		.sleb128 -20
 12771 2a0f 35       		.uleb128 0x35
 12772 2a10 65787400 		.ascii	"ext\000"
 12773 2a14 07       		.byte	0x7
 12774 2a15 4004     		.2byte	0x440
 12775 2a17 56200000 		.4byte	0x2056
 12776 2a1b 02       		.uleb128 0x2
 12777 2a1c 91       		.byte	0x91
 12778 2a1d 74       		.sleb128 -12
 12779 2a1e 00       		.byte	0
 12780 2a1f 38       		.uleb128 0x38
 12781 2a20 6C140000 		.4byte	.LASF486
 12782 2a24 07       		.byte	0x7
 12783 2a25 4A04     		.2byte	0x44a
 12784 2a27 CE000000 		.4byte	0xce
 12785 2a2b 00000000 		.4byte	.LFB85
 12786 2a2f 1E000000 		.4byte	.LFE85-.LFB85
 12787 2a33 01       		.uleb128 0x1
 12788 2a34 9C       		.byte	0x9c
 12789 2a35 572A0000 		.4byte	0x2a57
 12790 2a39 2C       		.uleb128 0x2c
 12791 2a3a 746100   		.ascii	"ta\000"
 12792 2a3d 07       		.byte	0x7
 12793 2a3e 4A04     		.2byte	0x44a
 12794 2a40 55130000 		.4byte	0x1355
 12795 2a44 02       		.uleb128 0x2
 12796 2a45 91       		.byte	0x91
 12797 2a46 6C       		.sleb128 -20
 12798 2a47 35       		.uleb128 0x35
 12799 2a48 65787400 		.ascii	"ext\000"
 12800 2a4c 07       		.byte	0x7
 12801 2a4d 4E04     		.2byte	0x44e
 12802 2a4f 56200000 		.4byte	0x2056
 12803 2a53 02       		.uleb128 0x2
 12804 2a54 91       		.byte	0x91
 12805 2a55 74       		.sleb128 -12
 12806 2a56 00       		.byte	0
 12807 2a57 38       		.uleb128 0x38
 12808 2a58 C40D0000 		.4byte	.LASF487
 12809 2a5c 07       		.byte	0x7
 12810 2a5d 5804     		.2byte	0x458
 12811 2a5f F2100000 		.4byte	0x10f2
 12812 2a63 00000000 		.4byte	.LFB86
 12813 2a67 8E000000 		.4byte	.LFE86-.LFB86
 12814 2a6b 01       		.uleb128 0x1
 12815 2a6c 9C       		.byte	0x9c
 12816 2a6d AD2A0000 		.4byte	0x2aad
 12817 2a71 2C       		.uleb128 0x2c
 12818 2a72 746100   		.ascii	"ta\000"
 12819 2a75 07       		.byte	0x7
 12820 2a76 5804     		.2byte	0x458
 12821 2a78 051F0000 		.4byte	0x1f05
 12822 2a7c 02       		.uleb128 0x2
ARM GAS  C:\Users\tmj32\AppData\Local\Temp\ccI3WYuM.s 			page 283


 12823 2a7d 91       		.byte	0x91
 12824 2a7e 6C       		.sleb128 -20
 12825 2a7f 2A       		.uleb128 0x2a
 12826 2a80 8B020000 		.4byte	.LASF85
 12827 2a84 07       		.byte	0x7
 12828 2a85 5804     		.2byte	0x458
 12829 2a87 AC150000 		.4byte	0x15ac
 12830 2a8b 02       		.uleb128 0x2
 12831 2a8c 91       		.byte	0x91
 12832 2a8d 6B       		.sleb128 -21
 12833 2a8e 33       		.uleb128 0x33
 12834 2a8f 5F110000 		.4byte	.LASF317
 12835 2a93 07       		.byte	0x7
 12836 2a94 5C04     		.2byte	0x45c
 12837 2a96 F2100000 		.4byte	0x10f2
 12838 2a9a 02       		.uleb128 0x2
 12839 2a9b 91       		.byte	0x91
 12840 2a9c 74       		.sleb128 -12
 12841 2a9d 35       		.uleb128 0x35
 12842 2a9e 65787400 		.ascii	"ext\000"
 12843 2aa2 07       		.byte	0x7
 12844 2aa3 5D04     		.2byte	0x45d
 12845 2aa5 56200000 		.4byte	0x2056
 12846 2aa9 02       		.uleb128 0x2
 12847 2aaa 91       		.byte	0x91
 12848 2aab 70       		.sleb128 -16
 12849 2aac 00       		.byte	0
 12850 2aad 39       		.uleb128 0x39
 12851 2aae 720F0000 		.4byte	.LASF488
 12852 2ab2 07       		.byte	0x7
 12853 2ab3 7204     		.2byte	0x472
 12854 2ab5 E0010000 		.4byte	0x1e0
 12855 2ab9 00000000 		.4byte	.LFB87
 12856 2abd 16000000 		.4byte	.LFE87-.LFB87
 12857 2ac1 01       		.uleb128 0x1
 12858 2ac2 9C       		.byte	0x9c
 12859 2ac3 D62A0000 		.4byte	0x2ad6
 12860 2ac7 2C       		.uleb128 0x2c
 12861 2ac8 746100   		.ascii	"ta\000"
 12862 2acb 07       		.byte	0x7
 12863 2acc 7204     		.2byte	0x472
 12864 2ace 051F0000 		.4byte	0x1f05
 12865 2ad2 02       		.uleb128 0x2
 12866 2ad3 91       		.byte	0x91
 12867 2ad4 74       		.sleb128 -12
 12868 2ad5 00       		.byte	0
 12869 2ad6 39       		.uleb128 0x39
 12870 2ad7 58020000 		.4byte	.LASF489
 12871 2adb 07       		.byte	0x7
 12872 2adc 8A04     		.2byte	0x48a
 12873 2ade E0010000 		.4byte	0x1e0
 12874 2ae2 00000000 		.4byte	.LFB88
 12875 2ae6 16000000 		.4byte	.LFE88-.LFB88
 12876 2aea 01       		.uleb128 0x1
 12877 2aeb 9C       		.byte	0x9c
 12878 2aec FF2A0000 		.4byte	0x2aff
 12879 2af0 2C       		.uleb128 0x2c
ARM GAS  C:\Users\tmj32\AppData\Local\Temp\ccI3WYuM.s 			page 284


 12880 2af1 746100   		.ascii	"ta\000"
 12881 2af4 07       		.byte	0x7
 12882 2af5 8A04     		.2byte	0x48a
 12883 2af7 55130000 		.4byte	0x1355
 12884 2afb 02       		.uleb128 0x2
 12885 2afc 91       		.byte	0x91
 12886 2afd 74       		.sleb128 -12
 12887 2afe 00       		.byte	0
 12888 2aff 38       		.uleb128 0x38
 12889 2b00 9B000000 		.4byte	.LASF490
 12890 2b04 07       		.byte	0x7
 12891 2b05 9C04     		.2byte	0x49c
 12892 2b07 CE000000 		.4byte	0xce
 12893 2b0b 00000000 		.4byte	.LFB89
 12894 2b0f 1E000000 		.4byte	.LFE89-.LFB89
 12895 2b13 01       		.uleb128 0x1
 12896 2b14 9C       		.byte	0x9c
 12897 2b15 372B0000 		.4byte	0x2b37
 12898 2b19 2C       		.uleb128 0x2c
 12899 2b1a 746100   		.ascii	"ta\000"
 12900 2b1d 07       		.byte	0x7
 12901 2b1e 9C04     		.2byte	0x49c
 12902 2b20 55130000 		.4byte	0x1355
 12903 2b24 02       		.uleb128 0x2
 12904 2b25 91       		.byte	0x91
 12905 2b26 6C       		.sleb128 -20
 12906 2b27 35       		.uleb128 0x35
 12907 2b28 65787400 		.ascii	"ext\000"
 12908 2b2c 07       		.byte	0x7
 12909 2b2d A004     		.2byte	0x4a0
 12910 2b2f 56200000 		.4byte	0x2056
 12911 2b33 02       		.uleb128 0x2
 12912 2b34 91       		.byte	0x91
 12913 2b35 74       		.sleb128 -12
 12914 2b36 00       		.byte	0
 12915 2b37 38       		.uleb128 0x38
 12916 2b38 2E0E0000 		.4byte	.LASF491
 12917 2b3c 07       		.byte	0x7
 12918 2b3d AA04     		.2byte	0x4aa
 12919 2b3f CE000000 		.4byte	0xce
 12920 2b43 00000000 		.4byte	.LFB90
 12921 2b47 1E000000 		.4byte	.LFE90-.LFB90
 12922 2b4b 01       		.uleb128 0x1
 12923 2b4c 9C       		.byte	0x9c
 12924 2b4d 6F2B0000 		.4byte	0x2b6f
 12925 2b51 2C       		.uleb128 0x2c
 12926 2b52 746100   		.ascii	"ta\000"
 12927 2b55 07       		.byte	0x7
 12928 2b56 AA04     		.2byte	0x4aa
 12929 2b58 55130000 		.4byte	0x1355
 12930 2b5c 02       		.uleb128 0x2
 12931 2b5d 91       		.byte	0x91
 12932 2b5e 6C       		.sleb128 -20
 12933 2b5f 35       		.uleb128 0x35
 12934 2b60 65787400 		.ascii	"ext\000"
 12935 2b64 07       		.byte	0x7
 12936 2b65 AE04     		.2byte	0x4ae
ARM GAS  C:\Users\tmj32\AppData\Local\Temp\ccI3WYuM.s 			page 285


 12937 2b67 56200000 		.4byte	0x2056
 12938 2b6b 02       		.uleb128 0x2
 12939 2b6c 91       		.byte	0x91
 12940 2b6d 74       		.sleb128 -12
 12941 2b6e 00       		.byte	0
 12942 2b6f 37       		.uleb128 0x37
 12943 2b70 6D1C0000 		.4byte	.LASF492
 12944 2b74 07       		.byte	0x7
 12945 2b75 BA04     		.2byte	0x4ba
 12946 2b77 00000000 		.4byte	.LFB91
 12947 2b7b 14000000 		.4byte	.LFE91-.LFB91
 12948 2b7f 01       		.uleb128 0x1
 12949 2b80 9C       		.byte	0x9c
 12950 2b81 942B0000 		.4byte	0x2b94
 12951 2b85 2C       		.uleb128 0x2c
 12952 2b86 746100   		.ascii	"ta\000"
 12953 2b89 07       		.byte	0x7
 12954 2b8a BA04     		.2byte	0x4ba
 12955 2b8c 55130000 		.4byte	0x1355
 12956 2b90 02       		.uleb128 0x2
 12957 2b91 91       		.byte	0x91
 12958 2b92 74       		.sleb128 -12
 12959 2b93 00       		.byte	0
 12960 2b94 36       		.uleb128 0x36
 12961 2b95 3C080000 		.4byte	.LASF493
 12962 2b99 07       		.byte	0x7
 12963 2b9a CF04     		.2byte	0x4cf
 12964 2b9c 00000000 		.4byte	.LFB92
 12965 2ba0 2C000000 		.4byte	.LFE92-.LFB92
 12966 2ba4 01       		.uleb128 0x1
 12967 2ba5 9C       		.byte	0x9c
 12968 2ba6 C72B0000 		.4byte	0x2bc7
 12969 2baa 2C       		.uleb128 0x2c
 12970 2bab 746100   		.ascii	"ta\000"
 12971 2bae 07       		.byte	0x7
 12972 2baf CF04     		.2byte	0x4cf
 12973 2bb1 55130000 		.4byte	0x1355
 12974 2bb5 02       		.uleb128 0x2
 12975 2bb6 91       		.byte	0x91
 12976 2bb7 6C       		.sleb128 -20
 12977 2bb8 35       		.uleb128 0x35
 12978 2bb9 637000   		.ascii	"cp\000"
 12979 2bbc 07       		.byte	0x7
 12980 2bbd D304     		.2byte	0x4d3
 12981 2bbf CE000000 		.4byte	0xce
 12982 2bc3 02       		.uleb128 0x2
 12983 2bc4 91       		.byte	0x91
 12984 2bc5 76       		.sleb128 -10
 12985 2bc6 00       		.byte	0
 12986 2bc7 36       		.uleb128 0x36
 12987 2bc8 0A110000 		.4byte	.LASF494
 12988 2bcc 07       		.byte	0x7
 12989 2bcd DC04     		.2byte	0x4dc
 12990 2bcf 00000000 		.4byte	.LFB93
 12991 2bd3 32000000 		.4byte	.LFE93-.LFB93
 12992 2bd7 01       		.uleb128 0x1
 12993 2bd8 9C       		.byte	0x9c
ARM GAS  C:\Users\tmj32\AppData\Local\Temp\ccI3WYuM.s 			page 286


 12994 2bd9 FA2B0000 		.4byte	0x2bfa
 12995 2bdd 2C       		.uleb128 0x2c
 12996 2bde 746100   		.ascii	"ta\000"
 12997 2be1 07       		.byte	0x7
 12998 2be2 DC04     		.2byte	0x4dc
 12999 2be4 55130000 		.4byte	0x1355
 13000 2be8 02       		.uleb128 0x2
 13001 2be9 91       		.byte	0x91
 13002 2bea 6C       		.sleb128 -20
 13003 2beb 35       		.uleb128 0x35
 13004 2bec 637000   		.ascii	"cp\000"
 13005 2bef 07       		.byte	0x7
 13006 2bf0 E004     		.2byte	0x4e0
 13007 2bf2 CE000000 		.4byte	0xce
 13008 2bf6 02       		.uleb128 0x2
 13009 2bf7 91       		.byte	0x91
 13010 2bf8 76       		.sleb128 -10
 13011 2bf9 00       		.byte	0
 13012 2bfa 36       		.uleb128 0x36
 13013 2bfb 8F040000 		.4byte	.LASF495
 13014 2bff 07       		.byte	0x7
 13015 2c00 EB04     		.2byte	0x4eb
 13016 2c02 00000000 		.4byte	.LFB94
 13017 2c06 BA000000 		.4byte	.LFE94-.LFB94
 13018 2c0a 01       		.uleb128 0x1
 13019 2c0b 9C       		.byte	0x9c
 13020 2c0c 922C0000 		.4byte	0x2c92
 13021 2c10 2C       		.uleb128 0x2c
 13022 2c11 746100   		.ascii	"ta\000"
 13023 2c14 07       		.byte	0x7
 13024 2c15 EB04     		.2byte	0x4eb
 13025 2c17 55130000 		.4byte	0x1355
 13026 2c1b 02       		.uleb128 0x2
 13027 2c1c 91       		.byte	0x91
 13028 2c1d 54       		.sleb128 -44
 13029 2c1e 35       		.uleb128 0x35
 13030 2c1f 65787400 		.ascii	"ext\000"
 13031 2c23 07       		.byte	0x7
 13032 2c24 EF04     		.2byte	0x4ef
 13033 2c26 56200000 		.4byte	0x2056
 13034 2c2a 02       		.uleb128 0x2
 13035 2c2b 91       		.byte	0x91
 13036 2c2c 6C       		.sleb128 -20
 13037 2c2d 35       		.uleb128 0x35
 13038 2c2e 706F7300 		.ascii	"pos\000"
 13039 2c32 07       		.byte	0x7
 13040 2c33 F004     		.2byte	0x4f0
 13041 2c35 4F030000 		.4byte	0x34f
 13042 2c39 02       		.uleb128 0x2
 13043 2c3a 91       		.byte	0x91
 13044 2c3b 58       		.sleb128 -40
 13045 2c3c 33       		.uleb128 0x33
 13046 2c3d 361B0000 		.4byte	.LASF496
 13047 2c41 07       		.byte	0x7
 13048 2c42 F604     		.2byte	0x4f6
 13049 2c44 F2100000 		.4byte	0x10f2
 13050 2c48 02       		.uleb128 0x2
ARM GAS  C:\Users\tmj32\AppData\Local\Temp\ccI3WYuM.s 			page 287


 13051 2c49 91       		.byte	0x91
 13052 2c4a 68       		.sleb128 -24
 13053 2c4b 33       		.uleb128 0x33
 13054 2c4c 90190000 		.4byte	.LASF423
 13055 2c50 07       		.byte	0x7
 13056 2c51 F704     		.2byte	0x4f7
 13057 2c53 4E060000 		.4byte	0x64e
 13058 2c57 02       		.uleb128 0x2
 13059 2c58 91       		.byte	0x91
 13060 2c59 64       		.sleb128 -28
 13061 2c5a 33       		.uleb128 0x33
 13062 2c5b 3F140000 		.4byte	.LASF457
 13063 2c5f 07       		.byte	0x7
 13064 2c60 F804     		.2byte	0x4f8
 13065 2c62 EF000000 		.4byte	0xef
 13066 2c66 02       		.uleb128 0x2
 13067 2c67 91       		.byte	0x91
 13068 2c68 62       		.sleb128 -30
 13069 2c69 31       		.uleb128 0x31
 13070 2c6a 82000000 		.4byte	.LBB26
 13071 2c6e 30000000 		.4byte	.LBE26-.LBB26
 13072 2c72 33       		.uleb128 0x33
 13073 2c73 8E160000 		.4byte	.LASF497
 13074 2c77 07       		.byte	0x7
 13075 2c78 FF04     		.2byte	0x4ff
 13076 2c7a CE000000 		.4byte	0xce
 13077 2c7e 02       		.uleb128 0x2
 13078 2c7f 91       		.byte	0x91
 13079 2c80 60       		.sleb128 -32
 13080 2c81 33       		.uleb128 0x33
 13081 2c82 B71B0000 		.4byte	.LASF498
 13082 2c86 07       		.byte	0x7
 13083 2c87 0105     		.2byte	0x501
 13084 2c89 EF000000 		.4byte	0xef
 13085 2c8d 02       		.uleb128 0x2
 13086 2c8e 91       		.byte	0x91
 13087 2c8f 5E       		.sleb128 -34
 13088 2c90 00       		.byte	0
 13089 2c91 00       		.byte	0
 13090 2c92 36       		.uleb128 0x36
 13091 2c93 B2020000 		.4byte	.LASF499
 13092 2c97 07       		.byte	0x7
 13093 2c98 0B05     		.2byte	0x50b
 13094 2c9a 00000000 		.4byte	.LFB95
 13095 2c9e A6000000 		.4byte	.LFE95-.LFB95
 13096 2ca2 01       		.uleb128 0x1
 13097 2ca3 9C       		.byte	0x9c
 13098 2ca4 202D0000 		.4byte	0x2d20
 13099 2ca8 2C       		.uleb128 0x2c
 13100 2ca9 746100   		.ascii	"ta\000"
 13101 2cac 07       		.byte	0x7
 13102 2cad 0B05     		.2byte	0x50b
 13103 2caf 55130000 		.4byte	0x1355
 13104 2cb3 02       		.uleb128 0x2
 13105 2cb4 91       		.byte	0x91
 13106 2cb5 54       		.sleb128 -44
 13107 2cb6 35       		.uleb128 0x35
ARM GAS  C:\Users\tmj32\AppData\Local\Temp\ccI3WYuM.s 			page 288


 13108 2cb7 65787400 		.ascii	"ext\000"
 13109 2cbb 07       		.byte	0x7
 13110 2cbc 0F05     		.2byte	0x50f
 13111 2cbe 56200000 		.4byte	0x2056
 13112 2cc2 02       		.uleb128 0x2
 13113 2cc3 91       		.byte	0x91
 13114 2cc4 6C       		.sleb128 -20
 13115 2cc5 35       		.uleb128 0x35
 13116 2cc6 706F7300 		.ascii	"pos\000"
 13117 2cca 07       		.byte	0x7
 13118 2ccb 1005     		.2byte	0x510
 13119 2ccd 4F030000 		.4byte	0x34f
 13120 2cd1 02       		.uleb128 0x2
 13121 2cd2 91       		.byte	0x91
 13122 2cd3 58       		.sleb128 -40
 13123 2cd4 33       		.uleb128 0x33
 13124 2cd5 361B0000 		.4byte	.LASF496
 13125 2cd9 07       		.byte	0x7
 13126 2cda 1605     		.2byte	0x516
 13127 2cdc F2100000 		.4byte	0x10f2
 13128 2ce0 02       		.uleb128 0x2
 13129 2ce1 91       		.byte	0x91
 13130 2ce2 68       		.sleb128 -24
 13131 2ce3 33       		.uleb128 0x33
 13132 2ce4 A4160000 		.4byte	.LASF97
 13133 2ce8 07       		.byte	0x7
 13134 2ce9 1705     		.2byte	0x517
 13135 2ceb 4E060000 		.4byte	0x64e
 13136 2cef 02       		.uleb128 0x2
 13137 2cf0 91       		.byte	0x91
 13138 2cf1 64       		.sleb128 -28
 13139 2cf2 33       		.uleb128 0x33
 13140 2cf3 3F140000 		.4byte	.LASF457
 13141 2cf7 07       		.byte	0x7
 13142 2cf8 1805     		.2byte	0x518
 13143 2cfa EF000000 		.4byte	0xef
 13144 2cfe 02       		.uleb128 0x2
 13145 2cff 91       		.byte	0x91
 13146 2d00 62       		.sleb128 -30
 13147 2d01 33       		.uleb128 0x33
 13148 2d02 8E160000 		.4byte	.LASF497
 13149 2d06 07       		.byte	0x7
 13150 2d07 1D05     		.2byte	0x51d
 13151 2d09 CE000000 		.4byte	0xce
 13152 2d0d 02       		.uleb128 0x2
 13153 2d0e 91       		.byte	0x91
 13154 2d0f 60       		.sleb128 -32
 13155 2d10 33       		.uleb128 0x33
 13156 2d11 B71B0000 		.4byte	.LASF498
 13157 2d15 07       		.byte	0x7
 13158 2d16 1E05     		.2byte	0x51e
 13159 2d18 EF000000 		.4byte	0xef
 13160 2d1c 02       		.uleb128 0x2
 13161 2d1d 91       		.byte	0x91
 13162 2d1e 5E       		.sleb128 -34
 13163 2d1f 00       		.byte	0
 13164 2d20 29       		.uleb128 0x29
ARM GAS  C:\Users\tmj32\AppData\Local\Temp\ccI3WYuM.s 			page 289


 13165 2d21 DB1B0000 		.4byte	.LASF500
 13166 2d25 07       		.byte	0x7
 13167 2d26 3105     		.2byte	0x531
 13168 2d28 E0010000 		.4byte	0x1e0
 13169 2d2c 00000000 		.4byte	.LFB96
 13170 2d30 58000000 		.4byte	.LFE96-.LFB96
 13171 2d34 01       		.uleb128 0x1
 13172 2d35 9C       		.byte	0x9c
 13173 2d36 672D0000 		.4byte	0x2d67
 13174 2d3a 2C       		.uleb128 0x2c
 13175 2d3b 746100   		.ascii	"ta\000"
 13176 2d3e 07       		.byte	0x7
 13177 2d3f 3105     		.2byte	0x531
 13178 2d41 55130000 		.4byte	0x1355
 13179 2d45 02       		.uleb128 0x2
 13180 2d46 91       		.byte	0x91
 13181 2d47 74       		.sleb128 -12
 13182 2d48 2A       		.uleb128 0x2a
 13183 2d49 650E0000 		.4byte	.LASF501
 13184 2d4d 07       		.byte	0x7
 13185 2d4e 3105     		.2byte	0x531
 13186 2d50 1C090000 		.4byte	0x91c
 13187 2d54 02       		.uleb128 0x2
 13188 2d55 91       		.byte	0x91
 13189 2d56 70       		.sleb128 -16
 13190 2d57 2A       		.uleb128 0x2a
 13191 2d58 7F170000 		.4byte	.LASF322
 13192 2d5c 07       		.byte	0x7
 13193 2d5d 3105     		.2byte	0x531
 13194 2d5f CF0E0000 		.4byte	0xecf
 13195 2d63 02       		.uleb128 0x2
 13196 2d64 91       		.byte	0x91
 13197 2d65 6F       		.sleb128 -17
 13198 2d66 00       		.byte	0
 13199 2d67 29       		.uleb128 0x29
 13200 2d68 A40F0000 		.4byte	.LASF502
 13201 2d6c 07       		.byte	0x7
 13202 2d6d 4A05     		.2byte	0x54a
 13203 2d6f E0010000 		.4byte	0x1e0
 13204 2d73 00000000 		.4byte	.LFB97
 13205 2d77 7C020000 		.4byte	.LFE97-.LFB97
 13206 2d7b 01       		.uleb128 0x1
 13207 2d7c 9C       		.byte	0x9c
 13208 2d7d 2F2E0000 		.4byte	0x2e2f
 13209 2d81 2A       		.uleb128 0x2a
 13210 2d82 CA050000 		.4byte	.LASF328
 13211 2d86 07       		.byte	0x7
 13212 2d87 4A05     		.2byte	0x54a
 13213 2d89 55130000 		.4byte	0x1355
 13214 2d8d 03       		.uleb128 0x3
 13215 2d8e 91       		.byte	0x91
 13216 2d8f FC7E     		.sleb128 -132
 13217 2d91 2A       		.uleb128 0x2a
 13218 2d92 650E0000 		.4byte	.LASF501
 13219 2d96 07       		.byte	0x7
 13220 2d97 4A05     		.2byte	0x54a
 13221 2d99 1C090000 		.4byte	0x91c
ARM GAS  C:\Users\tmj32\AppData\Local\Temp\ccI3WYuM.s 			page 290


 13222 2d9d 03       		.uleb128 0x3
 13223 2d9e 91       		.byte	0x91
 13224 2d9f F87E     		.sleb128 -136
 13225 2da1 2A       		.uleb128 0x2a
 13226 2da2 7F170000 		.4byte	.LASF322
 13227 2da6 07       		.byte	0x7
 13228 2da7 4A05     		.2byte	0x54a
 13229 2da9 CF0E0000 		.4byte	0xecf
 13230 2dad 03       		.uleb128 0x3
 13231 2dae 91       		.byte	0x91
 13232 2daf F77E     		.sleb128 -137
 13233 2db1 31       		.uleb128 0x31
 13234 2db2 40000000 		.4byte	.LBB27
 13235 2db6 2A020000 		.4byte	.LBE27-.LBB27
 13236 2dba 35       		.uleb128 0x35
 13237 2dbb 746100   		.ascii	"ta\000"
 13238 2dbe 07       		.byte	0x7
 13239 2dbf 5605     		.2byte	0x556
 13240 2dc1 55130000 		.4byte	0x1355
 13241 2dc5 02       		.uleb128 0x2
 13242 2dc6 91       		.byte	0x91
 13243 2dc7 6C       		.sleb128 -20
 13244 2dc8 35       		.uleb128 0x35
 13245 2dc9 65787400 		.ascii	"ext\000"
 13246 2dcd 07       		.byte	0x7
 13247 2dce 5705     		.2byte	0x557
 13248 2dd0 56200000 		.4byte	0x2056
 13249 2dd4 02       		.uleb128 0x2
 13250 2dd5 91       		.byte	0x91
 13251 2dd6 68       		.sleb128 -24
 13252 2dd7 33       		.uleb128 0x33
 13253 2dd8 51030000 		.4byte	.LASF503
 13254 2ddc 07       		.byte	0x7
 13255 2ddd 5D05     		.2byte	0x55d
 13256 2ddf 0A070000 		.4byte	0x70a
 13257 2de3 03       		.uleb128 0x3
 13258 2de4 91       		.byte	0x91
 13259 2de5 807F     		.sleb128 -128
 13260 2de7 35       		.uleb128 0x35
 13261 2de8 74787400 		.ascii	"txt\000"
 13262 2dec 07       		.byte	0x7
 13263 2ded 6005     		.2byte	0x560
 13264 2def 17030000 		.4byte	0x317
 13265 2df3 02       		.uleb128 0x2
 13266 2df4 91       		.byte	0x91
 13267 2df5 64       		.sleb128 -28
 13268 2df6 33       		.uleb128 0x33
 13269 2df7 C3150000 		.4byte	.LASF504
 13270 2dfb 07       		.byte	0x7
 13271 2dfc 6305     		.2byte	0x563
 13272 2dfe 8F030000 		.4byte	0x38f
 13273 2e02 02       		.uleb128 0x2
 13274 2e03 91       		.byte	0x91
 13275 2e04 58       		.sleb128 -40
 13276 2e05 33       		.uleb128 0x33
 13277 2e06 C51C0000 		.4byte	.LASF174
 13278 2e0a 07       		.byte	0x7
ARM GAS  C:\Users\tmj32\AppData\Local\Temp\ccI3WYuM.s 			page 291


 13279 2e0b 6B05     		.2byte	0x56b
 13280 2e0d F7020000 		.4byte	0x2f7
 13281 2e11 02       		.uleb128 0x2
 13282 2e12 91       		.byte	0x91
 13283 2e13 63       		.sleb128 -29
 13284 2e14 31       		.uleb128 0x31
 13285 2e15 66010000 		.4byte	.LBB28
 13286 2e19 AC000000 		.4byte	.LBE28-.LBB28
 13287 2e1d 33       		.uleb128 0x33
 13288 2e1e DB160000 		.4byte	.LASF440
 13289 2e22 07       		.byte	0x7
 13290 2e23 7205     		.2byte	0x572
 13291 2e25 22030000 		.4byte	0x322
 13292 2e29 02       		.uleb128 0x2
 13293 2e2a 91       		.byte	0x91
 13294 2e2b 50       		.sleb128 -48
 13295 2e2c 00       		.byte	0
 13296 2e2d 00       		.byte	0
 13297 2e2e 00       		.byte	0
 13298 2e2f 29       		.uleb128 0x29
 13299 2e30 05050000 		.4byte	.LASF505
 13300 2e34 07       		.byte	0x7
 13301 2e35 8C05     		.2byte	0x58c
 13302 2e37 34070000 		.4byte	0x734
 13303 2e3b 00000000 		.4byte	.LFB98
 13304 2e3f 7C030000 		.4byte	.LFE98-.LFB98
 13305 2e43 01       		.uleb128 0x1
 13306 2e44 9C       		.byte	0x9c
 13307 2e45 A52F0000 		.4byte	0x2fa5
 13308 2e49 2C       		.uleb128 0x2c
 13309 2e4a 746100   		.ascii	"ta\000"
 13310 2e4d 07       		.byte	0x7
 13311 2e4e 8C05     		.2byte	0x58c
 13312 2e50 55130000 		.4byte	0x1355
 13313 2e54 03       		.uleb128 0x3
 13314 2e55 91       		.byte	0x91
 13315 2e56 B47F     		.sleb128 -76
 13316 2e58 2A       		.uleb128 0x2a
 13317 2e59 0A020000 		.4byte	.LASF506
 13318 2e5d 07       		.byte	0x7
 13319 2e5e 8C05     		.2byte	0x58c
 13320 2e60 3A100000 		.4byte	0x103a
 13321 2e64 03       		.uleb128 0x3
 13322 2e65 91       		.byte	0x91
 13323 2e66 B37F     		.sleb128 -77
 13324 2e68 2A       		.uleb128 0x2a
 13325 2e69 970B0000 		.4byte	.LASF507
 13326 2e6d 07       		.byte	0x7
 13327 2e6e 8C05     		.2byte	0x58c
 13328 2e70 FA000000 		.4byte	0xfa
 13329 2e74 03       		.uleb128 0x3
 13330 2e75 91       		.byte	0x91
 13331 2e76 AC7F     		.sleb128 -84
 13332 2e78 35       		.uleb128 0x35
 13333 2e79 72657300 		.ascii	"res\000"
 13334 2e7d 07       		.byte	0x7
 13335 2e7e 8E05     		.2byte	0x58e
ARM GAS  C:\Users\tmj32\AppData\Local\Temp\ccI3WYuM.s 			page 292


 13336 2e80 34070000 		.4byte	0x734
 13337 2e84 02       		.uleb128 0x2
 13338 2e85 91       		.byte	0x91
 13339 2e86 6F       		.sleb128 -17
 13340 2e87 35       		.uleb128 0x35
 13341 2e88 65787400 		.ascii	"ext\000"
 13342 2e8c 07       		.byte	0x7
 13343 2e8d 9505     		.2byte	0x595
 13344 2e8f 56200000 		.4byte	0x2056
 13345 2e93 02       		.uleb128 0x2
 13346 2e94 91       		.byte	0x91
 13347 2e95 68       		.sleb128 -24
 13348 2e96 30       		.uleb128 0x30
 13349 2e97 76000000 		.4byte	.LBB29
 13350 2e9b FA000000 		.4byte	.LBE29-.LBB29
 13351 2e9f F92E0000 		.4byte	0x2ef9
 13352 2ea3 33       		.uleb128 0x33
 13353 2ea4 CA050000 		.4byte	.LASF328
 13354 2ea8 07       		.byte	0x7
 13355 2ea9 9C05     		.2byte	0x59c
 13356 2eab 55130000 		.4byte	0x1355
 13357 2eaf 02       		.uleb128 0x2
 13358 2eb0 91       		.byte	0x91
 13359 2eb1 64       		.sleb128 -28
 13360 2eb2 33       		.uleb128 0x33
 13361 2eb3 D8040000 		.4byte	.LASF465
 13362 2eb7 07       		.byte	0x7
 13363 2eb8 9D05     		.2byte	0x59d
 13364 2eba F2100000 		.4byte	0x10f2
 13365 2ebe 02       		.uleb128 0x2
 13366 2ebf 91       		.byte	0x91
 13367 2ec0 60       		.sleb128 -32
 13368 2ec1 33       		.uleb128 0x33
 13369 2ec2 500C0000 		.4byte	.LASF466
 13370 2ec6 07       		.byte	0x7
 13371 2ec7 9E05     		.2byte	0x59e
 13372 2ec9 F2100000 		.4byte	0x10f2
 13373 2ecd 02       		.uleb128 0x2
 13374 2ece 91       		.byte	0x91
 13375 2ecf 5C       		.sleb128 -36
 13376 2ed0 31       		.uleb128 0x31
 13377 2ed1 9E000000 		.4byte	.LBB30
 13378 2ed5 66000000 		.4byte	.LBE30-.LBB30
 13379 2ed9 33       		.uleb128 0x33
 13380 2eda FC080000 		.4byte	.LASF467
 13381 2ede 07       		.byte	0x7
 13382 2edf A105     		.2byte	0x5a1
 13383 2ee1 F2100000 		.4byte	0x10f2
 13384 2ee5 02       		.uleb128 0x2
 13385 2ee6 91       		.byte	0x91
 13386 2ee7 58       		.sleb128 -40
 13387 2ee8 33       		.uleb128 0x33
 13388 2ee9 3F140000 		.4byte	.LASF457
 13389 2eed 07       		.byte	0x7
 13390 2eee A205     		.2byte	0x5a2
 13391 2ef0 EF000000 		.4byte	0xef
 13392 2ef4 02       		.uleb128 0x2
ARM GAS  C:\Users\tmj32\AppData\Local\Temp\ccI3WYuM.s 			page 293


 13393 2ef5 91       		.byte	0x91
 13394 2ef6 56       		.sleb128 -42
 13395 2ef7 00       		.byte	0
 13396 2ef8 00       		.byte	0
 13397 2ef9 30       		.uleb128 0x30
 13398 2efa AC010000 		.4byte	.LBB31
 13399 2efe 4C000000 		.4byte	.LBE31-.LBB31
 13400 2f02 252F0000 		.4byte	0x2f25
 13401 2f06 33       		.uleb128 0x33
 13402 2f07 CA050000 		.4byte	.LASF328
 13403 2f0b 07       		.byte	0x7
 13404 2f0c B805     		.2byte	0x5b8
 13405 2f0e 55130000 		.4byte	0x1355
 13406 2f12 02       		.uleb128 0x2
 13407 2f13 91       		.byte	0x91
 13408 2f14 50       		.sleb128 -48
 13409 2f15 33       		.uleb128 0x33
 13410 2f16 500C0000 		.4byte	.LASF466
 13411 2f1a 07       		.byte	0x7
 13412 2f1b B905     		.2byte	0x5b9
 13413 2f1d F2100000 		.4byte	0x10f2
 13414 2f21 02       		.uleb128 0x2
 13415 2f22 91       		.byte	0x91
 13416 2f23 4C       		.sleb128 -52
 13417 2f24 00       		.byte	0
 13418 2f25 30       		.uleb128 0x30
 13419 2f26 30020000 		.4byte	.LBB32
 13420 2f2a 4E000000 		.4byte	.LBE32-.LBB32
 13421 2f2e 512F0000 		.4byte	0x2f51
 13422 2f32 33       		.uleb128 0x33
 13423 2f33 CA050000 		.4byte	.LASF328
 13424 2f37 07       		.byte	0x7
 13425 2f38 C405     		.2byte	0x5c4
 13426 2f3a 55130000 		.4byte	0x1355
 13427 2f3e 02       		.uleb128 0x2
 13428 2f3f 91       		.byte	0x91
 13429 2f40 48       		.sleb128 -56
 13430 2f41 33       		.uleb128 0x33
 13431 2f42 500C0000 		.4byte	.LASF466
 13432 2f46 07       		.byte	0x7
 13433 2f47 C505     		.2byte	0x5c5
 13434 2f49 F2100000 		.4byte	0x10f2
 13435 2f4d 02       		.uleb128 0x2
 13436 2f4e 91       		.byte	0x91
 13437 2f4f 44       		.sleb128 -60
 13438 2f50 00       		.byte	0
 13439 2f51 30       		.uleb128 0x30
 13440 2f52 84020000 		.4byte	.LBB33
 13441 2f56 8E000000 		.4byte	.LBE33-.LBB33
 13442 2f5a 6C2F0000 		.4byte	0x2f6c
 13443 2f5e 35       		.uleb128 0x35
 13444 2f5f 6300     		.ascii	"c\000"
 13445 2f61 07       		.byte	0x7
 13446 2f62 CE05     		.2byte	0x5ce
 13447 2f64 E4000000 		.4byte	0xe4
 13448 2f68 02       		.uleb128 0x2
 13449 2f69 91       		.byte	0x91
ARM GAS  C:\Users\tmj32\AppData\Local\Temp\ccI3WYuM.s 			page 294


 13450 2f6a 40       		.sleb128 -64
 13451 2f6b 00       		.byte	0
 13452 2f6c 30       		.uleb128 0x30
 13453 2f6d 18030000 		.4byte	.LBB34
 13454 2f71 0A000000 		.4byte	.LBE34-.LBB34
 13455 2f75 8A2F0000 		.4byte	0x2f8a
 13456 2f79 33       		.uleb128 0x33
 13457 2f7a 9D0B0000 		.4byte	.LASF508
 13458 2f7e 07       		.byte	0x7
 13459 2f7f E305     		.2byte	0x5e3
 13460 2f81 A52F0000 		.4byte	0x2fa5
 13461 2f85 03       		.uleb128 0x3
 13462 2f86 91       		.byte	0x91
 13463 2f87 BC7F     		.sleb128 -68
 13464 2f89 00       		.byte	0
 13465 2f8a 31       		.uleb128 0x31
 13466 2f8b 2A030000 		.4byte	.LBB35
 13467 2f8f 1A000000 		.4byte	.LBE35-.LBB35
 13468 2f93 33       		.uleb128 0x33
 13469 2f94 380C0000 		.4byte	.LASF459
 13470 2f98 07       		.byte	0x7
 13471 2f99 E605     		.2byte	0x5e6
 13472 2f9b 66140000 		.4byte	0x1466
 13473 2f9f 03       		.uleb128 0x3
 13474 2fa0 91       		.byte	0x91
 13475 2fa1 BB7F     		.sleb128 -69
 13476 2fa3 00       		.byte	0
 13477 2fa4 00       		.byte	0
 13478 2fa5 0D       		.uleb128 0xd
 13479 2fa6 04       		.byte	0x4
 13480 2fa7 E0010000 		.4byte	0x1e0
 13481 2fab 29       		.uleb128 0x29
 13482 2fac F50E0000 		.4byte	.LASF509
 13483 2fb0 07       		.byte	0x7
 13484 2fb1 0906     		.2byte	0x609
 13485 2fb3 34070000 		.4byte	0x734
 13486 2fb7 00000000 		.4byte	.LFB99
 13487 2fbb 4C010000 		.4byte	.LFE99-.LFB99
 13488 2fbf 01       		.uleb128 0x1
 13489 2fc0 9C       		.byte	0x9c
 13490 2fc1 64300000 		.4byte	0x3064
 13491 2fc5 2A       		.uleb128 0x2a
 13492 2fc6 CA050000 		.4byte	.LASF328
 13493 2fca 07       		.byte	0x7
 13494 2fcb 0906     		.2byte	0x609
 13495 2fcd 55130000 		.4byte	0x1355
 13496 2fd1 02       		.uleb128 0x2
 13497 2fd2 91       		.byte	0x91
 13498 2fd3 54       		.sleb128 -44
 13499 2fd4 2A       		.uleb128 0x2a
 13500 2fd5 0A020000 		.4byte	.LASF506
 13501 2fd9 07       		.byte	0x7
 13502 2fda 0906     		.2byte	0x609
 13503 2fdc 3A100000 		.4byte	0x103a
 13504 2fe0 02       		.uleb128 0x2
 13505 2fe1 91       		.byte	0x91
 13506 2fe2 53       		.sleb128 -45
ARM GAS  C:\Users\tmj32\AppData\Local\Temp\ccI3WYuM.s 			page 295


 13507 2fe3 2A       		.uleb128 0x2a
 13508 2fe4 970B0000 		.4byte	.LASF507
 13509 2fe8 07       		.byte	0x7
 13510 2fe9 0906     		.2byte	0x609
 13511 2feb FA000000 		.4byte	0xfa
 13512 2fef 02       		.uleb128 0x2
 13513 2ff0 91       		.byte	0x91
 13514 2ff1 4C       		.sleb128 -52
 13515 2ff2 35       		.uleb128 0x35
 13516 2ff3 72657300 		.ascii	"res\000"
 13517 2ff7 07       		.byte	0x7
 13518 2ff8 0B06     		.2byte	0x60b
 13519 2ffa 34070000 		.4byte	0x734
 13520 2ffe 02       		.uleb128 0x2
 13521 2fff 91       		.byte	0x91
 13522 3000 6F       		.sleb128 -17
 13523 3001 35       		.uleb128 0x35
 13524 3002 746100   		.ascii	"ta\000"
 13525 3005 07       		.byte	0x7
 13526 3006 1206     		.2byte	0x612
 13527 3008 55130000 		.4byte	0x1355
 13528 300c 02       		.uleb128 0x2
 13529 300d 91       		.byte	0x91
 13530 300e 68       		.sleb128 -24
 13531 300f 35       		.uleb128 0x35
 13532 3010 65787400 		.ascii	"ext\000"
 13533 3014 07       		.byte	0x7
 13534 3015 1306     		.2byte	0x613
 13535 3017 56200000 		.4byte	0x2056
 13536 301b 02       		.uleb128 0x2
 13537 301c 91       		.byte	0x91
 13538 301d 64       		.sleb128 -28
 13539 301e 30       		.uleb128 0x30
 13540 301f 56000000 		.4byte	.LBB36
 13541 3023 3A000000 		.4byte	.LBE36-.LBB36
 13542 3027 4A300000 		.4byte	0x304a
 13543 302b 33       		.uleb128 0x33
 13544 302c FC080000 		.4byte	.LASF467
 13545 3030 07       		.byte	0x7
 13546 3031 1706     		.2byte	0x617
 13547 3033 F2100000 		.4byte	0x10f2
 13548 3037 02       		.uleb128 0x2
 13549 3038 91       		.byte	0x91
 13550 3039 60       		.sleb128 -32
 13551 303a 33       		.uleb128 0x33
 13552 303b 3F140000 		.4byte	.LASF457
 13553 303f 07       		.byte	0x7
 13554 3040 1806     		.2byte	0x618
 13555 3042 EF000000 		.4byte	0xef
 13556 3046 02       		.uleb128 0x2
 13557 3047 91       		.byte	0x91
 13558 3048 5E       		.sleb128 -34
 13559 3049 00       		.byte	0
 13560 304a 31       		.uleb128 0x31
 13561 304b CC000000 		.4byte	.LBB37
 13562 304f 46000000 		.4byte	.LBE37-.LBB37
 13563 3053 33       		.uleb128 0x33
ARM GAS  C:\Users\tmj32\AppData\Local\Temp\ccI3WYuM.s 			page 296


 13564 3054 500C0000 		.4byte	.LASF466
 13565 3058 07       		.byte	0x7
 13566 3059 2006     		.2byte	0x620
 13567 305b F2100000 		.4byte	0x10f2
 13568 305f 02       		.uleb128 0x2
 13569 3060 91       		.byte	0x91
 13570 3061 58       		.sleb128 -40
 13571 3062 00       		.byte	0
 13572 3063 00       		.byte	0
 13573 3064 2B       		.uleb128 0x2b
 13574 3065 D2060000 		.4byte	.LASF510
 13575 3069 07       		.byte	0x7
 13576 306a 3706     		.2byte	0x637
 13577 306c 00000000 		.4byte	.LFB100
 13578 3070 EE000000 		.4byte	.LFE100-.LFB100
 13579 3074 01       		.uleb128 0x1
 13580 3075 9C       		.byte	0x9c
 13581 3076 C0300000 		.4byte	0x30c0
 13582 307a 2C       		.uleb128 0x2c
 13583 307b 746100   		.ascii	"ta\000"
 13584 307e 07       		.byte	0x7
 13585 307f 3706     		.2byte	0x637
 13586 3081 55130000 		.4byte	0x1355
 13587 3085 02       		.uleb128 0x2
 13588 3086 91       		.byte	0x91
 13589 3087 64       		.sleb128 -28
 13590 3088 2A       		.uleb128 0x2a
 13591 3089 D1030000 		.4byte	.LASF511
 13592 308d 07       		.byte	0x7
 13593 308e 3706     		.2byte	0x637
 13594 3090 9A030000 		.4byte	0x39a
 13595 3094 02       		.uleb128 0x2
 13596 3095 91       		.byte	0x91
 13597 3096 62       		.sleb128 -30
 13598 3097 35       		.uleb128 0x35
 13599 3098 65787400 		.ascii	"ext\000"
 13600 309c 07       		.byte	0x7
 13601 309d 3906     		.2byte	0x639
 13602 309f 56200000 		.4byte	0x2056
 13603 30a3 02       		.uleb128 0x2
 13604 30a4 91       		.byte	0x91
 13605 30a5 74       		.sleb128 -12
 13606 30a6 31       		.uleb128 0x31
 13607 30a7 68000000 		.4byte	.LBB38
 13608 30ab 7E000000 		.4byte	.LBE38-.LBB38
 13609 30af 33       		.uleb128 0x33
 13610 30b0 FF0A0000 		.4byte	.LASF512
 13611 30b4 07       		.byte	0x7
 13612 30b5 3D06     		.2byte	0x63d
 13613 30b7 8F030000 		.4byte	0x38f
 13614 30bb 02       		.uleb128 0x2
 13615 30bc 91       		.byte	0x91
 13616 30bd 6C       		.sleb128 -20
 13617 30be 00       		.byte	0
 13618 30bf 00       		.byte	0
 13619 30c0 3A       		.uleb128 0x3a
 13620 30c1 46180000 		.4byte	.LASF513
ARM GAS  C:\Users\tmj32\AppData\Local\Temp\ccI3WYuM.s 			page 297


 13621 30c5 07       		.byte	0x7
 13622 30c6 4F06     		.2byte	0x64f
 13623 30c8 00000000 		.4byte	.LFB101
 13624 30cc 18000000 		.4byte	.LFE101-.LFB101
 13625 30d0 01       		.uleb128 0x1
 13626 30d1 9C       		.byte	0x9c
 13627 30d2 F2300000 		.4byte	0x30f2
 13628 30d6 2C       		.uleb128 0x2c
 13629 30d7 746100   		.ascii	"ta\000"
 13630 30da 07       		.byte	0x7
 13631 30db 4F06     		.2byte	0x64f
 13632 30dd 55130000 		.4byte	0x1355
 13633 30e1 02       		.uleb128 0x2
 13634 30e2 91       		.byte	0x91
 13635 30e3 74       		.sleb128 -12
 13636 30e4 2C       		.uleb128 0x2c
 13637 30e5 7800     		.ascii	"x\000"
 13638 30e7 07       		.byte	0x7
 13639 30e8 4F06     		.2byte	0x64f
 13640 30ea 9A030000 		.4byte	0x39a
 13641 30ee 02       		.uleb128 0x2
 13642 30ef 91       		.byte	0x91
 13643 30f0 72       		.sleb128 -14
 13644 30f1 00       		.byte	0
 13645 30f2 2B       		.uleb128 0x2b
 13646 30f3 171C0000 		.4byte	.LASF514
 13647 30f7 07       		.byte	0x7
 13648 30f8 5906     		.2byte	0x659
 13649 30fa 00000000 		.4byte	.LFB102
 13650 30fe 1C000000 		.4byte	.LFE102-.LFB102
 13651 3102 01       		.uleb128 0x1
 13652 3103 9C       		.byte	0x9c
 13653 3104 24310000 		.4byte	0x3124
 13654 3108 2C       		.uleb128 0x2c
 13655 3109 6100     		.ascii	"a\000"
 13656 310b 07       		.byte	0x7
 13657 310c 5906     		.2byte	0x659
 13658 310e 24310000 		.4byte	0x3124
 13659 3112 02       		.uleb128 0x2
 13660 3113 91       		.byte	0x91
 13661 3114 6C       		.sleb128 -20
 13662 3115 35       		.uleb128 0x35
 13663 3116 746100   		.ascii	"ta\000"
 13664 3119 07       		.byte	0x7
 13665 311a 5B06     		.2byte	0x65b
 13666 311c 55130000 		.4byte	0x1355
 13667 3120 02       		.uleb128 0x2
 13668 3121 91       		.byte	0x91
 13669 3122 74       		.sleb128 -12
 13670 3123 00       		.byte	0
 13671 3124 0D       		.uleb128 0xd
 13672 3125 04       		.byte	0x4
 13673 3126 D4040000 		.4byte	0x4d4
 13674 312a 2B       		.uleb128 0x2b
 13675 312b 4C190000 		.4byte	.LASF515
 13676 312f 07       		.byte	0x7
 13677 3130 6406     		.2byte	0x664
ARM GAS  C:\Users\tmj32\AppData\Local\Temp\ccI3WYuM.s 			page 298


 13678 3132 00000000 		.4byte	.LFB103
 13679 3136 88000000 		.4byte	.LFE103-.LFB103
 13680 313a 01       		.uleb128 0x1
 13681 313b 9C       		.byte	0x9c
 13682 313c A2310000 		.4byte	0x31a2
 13683 3140 2C       		.uleb128 0x2c
 13684 3141 746100   		.ascii	"ta\000"
 13685 3144 07       		.byte	0x7
 13686 3145 6406     		.2byte	0x664
 13687 3147 55130000 		.4byte	0x1355
 13688 314b 02       		.uleb128 0x2
 13689 314c 91       		.byte	0x91
 13690 314d 64       		.sleb128 -28
 13691 314e 35       		.uleb128 0x35
 13692 314f 65787400 		.ascii	"ext\000"
 13693 3153 07       		.byte	0x7
 13694 3154 6606     		.2byte	0x666
 13695 3156 56200000 		.4byte	0x2056
 13696 315a 02       		.uleb128 0x2
 13697 315b 91       		.byte	0x91
 13698 315c 70       		.sleb128 -16
 13699 315d 31       		.uleb128 0x31
 13700 315e 20000000 		.4byte	.LBB39
 13701 3162 5C000000 		.4byte	.LBE39-.LBB39
 13702 3166 35       		.uleb128 0x35
 13703 3167 74787400 		.ascii	"txt\000"
 13704 316b 07       		.byte	0x7
 13705 316c 6806     		.2byte	0x668
 13706 316e 0A030000 		.4byte	0x30a
 13707 3172 02       		.uleb128 0x2
 13708 3173 91       		.byte	0x91
 13709 3174 6C       		.sleb128 -20
 13710 3175 35       		.uleb128 0x35
 13711 3176 6C656E00 		.ascii	"len\000"
 13712 317a 07       		.byte	0x7
 13713 317b 6906     		.2byte	0x669
 13714 317d C3000000 		.4byte	0xc3
 13715 3181 02       		.uleb128 0x2
 13716 3182 91       		.byte	0x91
 13717 3183 6A       		.sleb128 -22
 13718 3184 33       		.uleb128 0x33
 13719 3185 C7130000 		.4byte	.LASF516
 13720 3189 07       		.byte	0x7
 13721 318a 6A06     		.2byte	0x66a
 13722 318c E0010000 		.4byte	0x1e0
 13723 3190 02       		.uleb128 0x2
 13724 3191 91       		.byte	0x91
 13725 3192 77       		.sleb128 -9
 13726 3193 35       		.uleb128 0x35
 13727 3194 6900     		.ascii	"i\000"
 13728 3196 07       		.byte	0x7
 13729 3197 6B06     		.2byte	0x66b
 13730 3199 CE000000 		.4byte	0xce
 13731 319d 02       		.uleb128 0x2
 13732 319e 91       		.byte	0x91
 13733 319f 74       		.sleb128 -12
 13734 31a0 00       		.byte	0
ARM GAS  C:\Users\tmj32\AppData\Local\Temp\ccI3WYuM.s 			page 299


 13735 31a1 00       		.byte	0
 13736 31a2 29       		.uleb128 0x29
 13737 31a3 C2090000 		.4byte	.LASF517
 13738 31a7 07       		.byte	0x7
 13739 31a8 7D06     		.2byte	0x67d
 13740 31aa E0010000 		.4byte	0x1e0
 13741 31ae 00000000 		.4byte	.LFB104
 13742 31b2 A4000000 		.4byte	.LFE104-.LFB104
 13743 31b6 01       		.uleb128 0x1
 13744 31b7 9C       		.byte	0x9c
 13745 31b8 0B320000 		.4byte	0x320b
 13746 31bc 2C       		.uleb128 0x2c
 13747 31bd 746100   		.ascii	"ta\000"
 13748 31c0 07       		.byte	0x7
 13749 31c1 7D06     		.2byte	0x67d
 13750 31c3 55130000 		.4byte	0x1355
 13751 31c7 02       		.uleb128 0x2
 13752 31c8 91       		.byte	0x91
 13753 31c9 5C       		.sleb128 -36
 13754 31ca 2C       		.uleb128 0x2c
 13755 31cb 6300     		.ascii	"c\000"
 13756 31cd 07       		.byte	0x7
 13757 31ce 7D06     		.2byte	0x67d
 13758 31d0 E4000000 		.4byte	0xe4
 13759 31d4 02       		.uleb128 0x2
 13760 31d5 91       		.byte	0x91
 13761 31d6 58       		.sleb128 -40
 13762 31d7 35       		.uleb128 0x35
 13763 31d8 65787400 		.ascii	"ext\000"
 13764 31dc 07       		.byte	0x7
 13765 31dd 7F06     		.2byte	0x67f
 13766 31df 56200000 		.4byte	0x2056
 13767 31e3 02       		.uleb128 0x2
 13768 31e4 91       		.byte	0x91
 13769 31e5 6C       		.sleb128 -20
 13770 31e6 31       		.uleb128 0x31
 13771 31e7 5A000000 		.4byte	.LBB40
 13772 31eb 36000000 		.4byte	.LBE40-.LBB40
 13773 31ef 35       		.uleb128 0x35
 13774 31f0 6900     		.ascii	"i\000"
 13775 31f2 07       		.byte	0x7
 13776 31f3 8B06     		.2byte	0x68b
 13777 31f5 E4000000 		.4byte	0xe4
 13778 31f9 02       		.uleb128 0x2
 13779 31fa 91       		.byte	0x91
 13780 31fb 64       		.sleb128 -28
 13781 31fc 35       		.uleb128 0x35
 13782 31fd 6100     		.ascii	"a\000"
 13783 31ff 07       		.byte	0x7
 13784 3200 8C06     		.2byte	0x68c
 13785 3202 E4000000 		.4byte	0xe4
 13786 3206 02       		.uleb128 0x2
 13787 3207 91       		.byte	0x91
 13788 3208 68       		.sleb128 -24
 13789 3209 00       		.byte	0
 13790 320a 00       		.byte	0
 13791 320b 2B       		.uleb128 0x2b
ARM GAS  C:\Users\tmj32\AppData\Local\Temp\ccI3WYuM.s 			page 300


 13792 320c DC100000 		.4byte	.LASF518
 13793 3210 07       		.byte	0x7
 13794 3211 9806     		.2byte	0x698
 13795 3213 00000000 		.4byte	.LFB105
 13796 3217 A2000000 		.4byte	.LFE105-.LFB105
 13797 321b 01       		.uleb128 0x1
 13798 321c 9C       		.byte	0x9c
 13799 321d 76320000 		.4byte	0x3276
 13800 3221 2C       		.uleb128 0x2c
 13801 3222 746100   		.ascii	"ta\000"
 13802 3225 07       		.byte	0x7
 13803 3226 9806     		.2byte	0x698
 13804 3228 55130000 		.4byte	0x1355
 13805 322c 02       		.uleb128 0x2
 13806 322d 91       		.byte	0x91
 13807 322e 64       		.sleb128 -28
 13808 322f 2A       		.uleb128 0x2a
 13809 3230 691A0000 		.4byte	.LASF519
 13810 3234 07       		.byte	0x7
 13811 3235 9806     		.2byte	0x698
 13812 3237 15070000 		.4byte	0x715
 13813 323b 02       		.uleb128 0x2
 13814 323c 91       		.byte	0x91
 13815 323d 60       		.sleb128 -32
 13816 323e 35       		.uleb128 0x35
 13817 323f 65787400 		.ascii	"ext\000"
 13818 3243 07       		.byte	0x7
 13819 3244 9A06     		.2byte	0x69a
 13820 3246 56200000 		.4byte	0x2056
 13821 324a 02       		.uleb128 0x2
 13822 324b 91       		.byte	0x91
 13823 324c 74       		.sleb128 -12
 13824 324d 33       		.uleb128 0x33
 13825 324e 361B0000 		.4byte	.LASF496
 13826 3252 07       		.byte	0x7
 13827 3253 9B06     		.2byte	0x69b
 13828 3255 F2100000 		.4byte	0x10f2
 13829 3259 02       		.uleb128 0x2
 13830 325a 91       		.byte	0x91
 13831 325b 70       		.sleb128 -16
 13832 325c 31       		.uleb128 0x31
 13833 325d 34000000 		.4byte	.LBB41
 13834 3261 66000000 		.4byte	.LBE41-.LBB41
 13835 3265 33       		.uleb128 0x33
 13836 3266 B90E0000 		.4byte	.LASF520
 13837 326a 07       		.byte	0x7
 13838 326b A206     		.2byte	0x6a2
 13839 326d EB020000 		.4byte	0x2eb
 13840 3271 02       		.uleb128 0x2
 13841 3272 91       		.byte	0x91
 13842 3273 6C       		.sleb128 -20
 13843 3274 00       		.byte	0
 13844 3275 00       		.byte	0
 13845 3276 2B       		.uleb128 0x2b
 13846 3277 330B0000 		.4byte	.LASF521
 13847 327b 07       		.byte	0x7
 13848 327c B506     		.2byte	0x6b5
ARM GAS  C:\Users\tmj32\AppData\Local\Temp\ccI3WYuM.s 			page 301


 13849 327e 00000000 		.4byte	.LFB106
 13850 3282 2C050000 		.4byte	.LFE106-.LFB106
 13851 3286 01       		.uleb128 0x1
 13852 3287 9C       		.byte	0x9c
 13853 3288 54330000 		.4byte	0x3354
 13854 328c 2C       		.uleb128 0x2c
 13855 328d 746100   		.ascii	"ta\000"
 13856 3290 07       		.byte	0x7
 13857 3291 B506     		.2byte	0x6b5
 13858 3293 55130000 		.4byte	0x1355
 13859 3297 03       		.uleb128 0x3
 13860 3298 91       		.byte	0x91
 13861 3299 EC7E     		.sleb128 -148
 13862 329b 35       		.uleb128 0x35
 13863 329c 65787400 		.ascii	"ext\000"
 13864 32a0 07       		.byte	0x7
 13865 32a1 B706     		.2byte	0x6b7
 13866 32a3 56200000 		.4byte	0x2056
 13867 32a7 02       		.uleb128 0x2
 13868 32a8 91       		.byte	0x91
 13869 32a9 68       		.sleb128 -24
 13870 32aa 33       		.uleb128 0x33
 13871 32ab 361B0000 		.4byte	.LASF496
 13872 32af 07       		.byte	0x7
 13873 32b0 B906     		.2byte	0x6b9
 13874 32b2 F2100000 		.4byte	0x10f2
 13875 32b6 02       		.uleb128 0x2
 13876 32b7 91       		.byte	0x91
 13877 32b8 64       		.sleb128 -28
 13878 32b9 33       		.uleb128 0x33
 13879 32ba 51030000 		.4byte	.LASF503
 13880 32be 07       		.byte	0x7
 13881 32bf BB06     		.2byte	0x6bb
 13882 32c1 0A070000 		.4byte	0x70a
 13883 32c5 03       		.uleb128 0x3
 13884 32c6 91       		.byte	0x91
 13885 32c7 887F     		.sleb128 -120
 13886 32c9 33       		.uleb128 0x33
 13887 32ca 91060000 		.4byte	.LASF446
 13888 32ce 07       		.byte	0x7
 13889 32cf BE06     		.2byte	0x6be
 13890 32d1 CE000000 		.4byte	0xce
 13891 32d5 02       		.uleb128 0x2
 13892 32d6 91       		.byte	0x91
 13893 32d7 62       		.sleb128 -30
 13894 32d8 35       		.uleb128 0x35
 13895 32d9 74787400 		.ascii	"txt\000"
 13896 32dd 07       		.byte	0x7
 13897 32de BF06     		.2byte	0x6bf
 13898 32e0 17030000 		.4byte	0x317
 13899 32e4 02       		.uleb128 0x2
 13900 32e5 91       		.byte	0x91
 13901 32e6 5C       		.sleb128 -36
 13902 32e7 33       		.uleb128 0x33
 13903 32e8 6E190000 		.4byte	.LASF449
 13904 32ec 07       		.byte	0x7
 13905 32ed C106     		.2byte	0x6c1
ARM GAS  C:\Users\tmj32\AppData\Local\Temp\ccI3WYuM.s 			page 302


 13906 32ef E4000000 		.4byte	0xe4
 13907 32f3 02       		.uleb128 0x2
 13908 32f4 91       		.byte	0x91
 13909 32f5 74       		.sleb128 -12
 13910 32f6 33       		.uleb128 0x33
 13911 32f7 B1180000 		.4byte	.LASF522
 13912 32fb 07       		.byte	0x7
 13913 32fc C406     		.2byte	0x6c4
 13914 32fe E4000000 		.4byte	0xe4
 13915 3302 02       		.uleb128 0x2
 13916 3303 91       		.byte	0x91
 13917 3304 70       		.sleb128 -16
 13918 3305 33       		.uleb128 0x33
 13919 3306 84170000 		.4byte	.LASF523
 13920 330a 07       		.byte	0x7
 13921 330b C606     		.2byte	0x6c6
 13922 330d EF000000 		.4byte	0xef
 13923 3311 02       		.uleb128 0x2
 13924 3312 91       		.byte	0x91
 13925 3313 5A       		.sleb128 -38
 13926 3314 33       		.uleb128 0x33
 13927 3315 A6170000 		.4byte	.LASF524
 13928 3319 07       		.byte	0x7
 13929 331a C906     		.2byte	0x6c9
 13930 331c EF000000 		.4byte	0xef
 13931 3320 02       		.uleb128 0x2
 13932 3321 91       		.byte	0x91
 13933 3322 6E       		.sleb128 -18
 13934 3323 33       		.uleb128 0x33
 13935 3324 A60B0000 		.4byte	.LASF525
 13936 3328 07       		.byte	0x7
 13937 3329 D106     		.2byte	0x6d1
 13938 332b 4F030000 		.4byte	0x34f
 13939 332f 03       		.uleb128 0x3
 13940 3330 91       		.byte	0x91
 13941 3331 847F     		.sleb128 -124
 13942 3333 33       		.uleb128 0x33
 13943 3334 C3150000 		.4byte	.LASF504
 13944 3338 07       		.byte	0x7
 13945 3339 EA06     		.2byte	0x6ea
 13946 333b 8F030000 		.4byte	0x38f
 13947 333f 03       		.uleb128 0x3
 13948 3340 91       		.byte	0x91
 13949 3341 FC7E     		.sleb128 -132
 13950 3343 33       		.uleb128 0x33
 13951 3344 FF0A0000 		.4byte	.LASF512
 13952 3348 07       		.byte	0x7
 13953 3349 0607     		.2byte	0x706
 13954 334b 8F030000 		.4byte	0x38f
 13955 334f 03       		.uleb128 0x3
 13956 3350 91       		.byte	0x91
 13957 3351 F47E     		.sleb128 -140
 13958 3353 00       		.byte	0
 13959 3354 2B       		.uleb128 0x2b
 13960 3355 A61A0000 		.4byte	.LASF526
 13961 3359 07       		.byte	0x7
 13962 335a 1807     		.2byte	0x718
ARM GAS  C:\Users\tmj32\AppData\Local\Temp\ccI3WYuM.s 			page 303


 13963 335c 00000000 		.4byte	.LFB107
 13964 3360 9C000000 		.4byte	.LFE107-.LFB107
 13965 3364 01       		.uleb128 0x1
 13966 3365 9C       		.byte	0x9c
 13967 3366 BF330000 		.4byte	0x33bf
 13968 336a 2C       		.uleb128 0x2c
 13969 336b 746100   		.ascii	"ta\000"
 13970 336e 07       		.byte	0x7
 13971 336f 1807     		.2byte	0x718
 13972 3371 55130000 		.4byte	0x1355
 13973 3375 02       		.uleb128 0x2
 13974 3376 91       		.byte	0x91
 13975 3377 5C       		.sleb128 -36
 13976 3378 35       		.uleb128 0x35
 13977 3379 65787400 		.ascii	"ext\000"
 13978 337d 07       		.byte	0x7
 13979 337e 1A07     		.2byte	0x71a
 13980 3380 56200000 		.4byte	0x2056
 13981 3384 02       		.uleb128 0x2
 13982 3385 91       		.byte	0x91
 13983 3386 6C       		.sleb128 -20
 13984 3387 33       		.uleb128 0x33
 13985 3388 D3160000 		.4byte	.LASF527
 13986 338c 07       		.byte	0x7
 13987 338d 1B07     		.2byte	0x71b
 13988 338f 17030000 		.4byte	0x317
 13989 3393 02       		.uleb128 0x2
 13990 3394 91       		.byte	0x91
 13991 3395 68       		.sleb128 -24
 13992 3396 31       		.uleb128 0x31
 13993 3397 28000000 		.4byte	.LBB42
 13994 339b 5C000000 		.4byte	.LBE42-.LBB42
 13995 339f 33       		.uleb128 0x33
 13996 33a0 CA050000 		.4byte	.LASF328
 13997 33a4 07       		.byte	0x7
 13998 33a5 2307     		.2byte	0x723
 13999 33a7 55130000 		.4byte	0x1355
 14000 33ab 02       		.uleb128 0x2
 14001 33ac 91       		.byte	0x91
 14002 33ad 64       		.sleb128 -28
 14003 33ae 33       		.uleb128 0x33
 14004 33af 500C0000 		.4byte	.LASF466
 14005 33b3 07       		.byte	0x7
 14006 33b4 2407     		.2byte	0x724
 14007 33b6 F2100000 		.4byte	0x10f2
 14008 33ba 02       		.uleb128 0x2
 14009 33bb 91       		.byte	0x91
 14010 33bc 60       		.sleb128 -32
 14011 33bd 00       		.byte	0
 14012 33be 00       		.byte	0
 14013 33bf 2B       		.uleb128 0x2b
 14014 33c0 A5030000 		.4byte	.LASF528
 14015 33c4 07       		.byte	0x7
 14016 33c5 2F07     		.2byte	0x72f
 14017 33c7 00000000 		.4byte	.LFB108
 14018 33cb 24010000 		.4byte	.LFE108-.LFB108
 14019 33cf 01       		.uleb128 0x1
ARM GAS  C:\Users\tmj32\AppData\Local\Temp\ccI3WYuM.s 			page 304


 14020 33d0 9C       		.byte	0x9c
 14021 33d1 6B340000 		.4byte	0x346b
 14022 33d5 2C       		.uleb128 0x2c
 14023 33d6 746100   		.ascii	"ta\000"
 14024 33d9 07       		.byte	0x7
 14025 33da 2F07     		.2byte	0x72f
 14026 33dc 55130000 		.4byte	0x1355
 14027 33e0 02       		.uleb128 0x2
 14028 33e1 91       		.byte	0x91
 14029 33e2 54       		.sleb128 -44
 14030 33e3 2A       		.uleb128 0x2a
 14031 33e4 0A020000 		.4byte	.LASF506
 14032 33e8 07       		.byte	0x7
 14033 33e9 2F07     		.2byte	0x72f
 14034 33eb 3A100000 		.4byte	0x103a
 14035 33ef 02       		.uleb128 0x2
 14036 33f0 91       		.byte	0x91
 14037 33f1 53       		.sleb128 -45
 14038 33f2 2A       		.uleb128 0x2a
 14039 33f3 471C0000 		.4byte	.LASF529
 14040 33f7 07       		.byte	0x7
 14041 33f8 2F07     		.2byte	0x72f
 14042 33fa 6B340000 		.4byte	0x346b
 14043 33fe 02       		.uleb128 0x2
 14044 33ff 91       		.byte	0x91
 14045 3400 4C       		.sleb128 -52
 14046 3401 35       		.uleb128 0x35
 14047 3402 65787400 		.ascii	"ext\000"
 14048 3406 07       		.byte	0x7
 14049 3407 3407     		.2byte	0x734
 14050 3409 56200000 		.4byte	0x2056
 14051 340d 02       		.uleb128 0x2
 14052 340e 91       		.byte	0x91
 14053 340f 70       		.sleb128 -16
 14054 3410 33       		.uleb128 0x33
 14055 3411 F5120000 		.4byte	.LASF530
 14056 3415 07       		.byte	0x7
 14057 3416 3D07     		.2byte	0x73d
 14058 3418 8F030000 		.4byte	0x38f
 14059 341c 02       		.uleb128 0x2
 14060 341d 91       		.byte	0x91
 14061 341e 64       		.sleb128 -28
 14062 341f 33       		.uleb128 0x33
 14063 3420 F2080000 		.4byte	.LASF531
 14064 3424 07       		.byte	0x7
 14065 3425 4007     		.2byte	0x740
 14066 3427 4F030000 		.4byte	0x34f
 14067 342b 02       		.uleb128 0x2
 14068 342c 91       		.byte	0x91
 14069 342d 60       		.sleb128 -32
 14070 342e 33       		.uleb128 0x33
 14071 342f E0020000 		.4byte	.LASF532
 14072 3433 07       		.byte	0x7
 14073 3434 4007     		.2byte	0x740
 14074 3436 4F030000 		.4byte	0x34f
 14075 343a 02       		.uleb128 0x2
 14076 343b 91       		.byte	0x91
ARM GAS  C:\Users\tmj32\AppData\Local\Temp\ccI3WYuM.s 			page 305


 14077 343c 5C       		.sleb128 -36
 14078 343d 33       		.uleb128 0x33
 14079 343e 4A160000 		.4byte	.LASF533
 14080 3442 07       		.byte	0x7
 14081 3443 4507     		.2byte	0x745
 14082 3445 4F030000 		.4byte	0x34f
 14083 3449 02       		.uleb128 0x2
 14084 344a 91       		.byte	0x91
 14085 344b 58       		.sleb128 -40
 14086 344c 33       		.uleb128 0x33
 14087 344d 78100000 		.4byte	.LASF534
 14088 3451 07       		.byte	0x7
 14089 3452 4907     		.2byte	0x749
 14090 3454 EF000000 		.4byte	0xef
 14091 3458 02       		.uleb128 0x2
 14092 3459 91       		.byte	0x91
 14093 345a 6E       		.sleb128 -18
 14094 345b 33       		.uleb128 0x33
 14095 345c 23160000 		.4byte	.LASF535
 14096 3460 07       		.byte	0x7
 14097 3461 4B07     		.2byte	0x74b
 14098 3463 CE000000 		.4byte	0xce
 14099 3467 02       		.uleb128 0x2
 14100 3468 91       		.byte	0x91
 14101 3469 76       		.sleb128 -10
 14102 346a 00       		.byte	0
 14103 346b 0D       		.uleb128 0xd
 14104 346c 04       		.byte	0x4
 14105 346d A50E0000 		.4byte	0xea5
 14106 3471 2E       		.uleb128 0x2e
 14107 3472 CC130000 		.4byte	.LASF536
 14108 3476 07       		.byte	0x7
 14109 3477 40       		.byte	0x40
 14110 3478 DA0E0000 		.4byte	0xeda
 14111 347c 05       		.uleb128 0x5
 14112 347d 03       		.byte	0x3
 14113 347e 00000000 		.4byte	ancestor_design
 14114 3482 2E       		.uleb128 0x2e
 14115 3483 B91A0000 		.4byte	.LASF537
 14116 3487 07       		.byte	0x7
 14117 3488 41       		.byte	0x41
 14118 3489 DA0E0000 		.4byte	0xeda
 14119 348d 05       		.uleb128 0x5
 14120 348e 03       		.byte	0x3
 14121 348f 04000000 		.4byte	scrl_design
 14122 3493 2E       		.uleb128 0x2e
 14123 3494 80130000 		.4byte	.LASF538
 14124 3498 07       		.byte	0x7
 14125 3499 42       		.byte	0x42
 14126 349a 45100000 		.4byte	0x1045
 14127 349e 05       		.uleb128 0x5
 14128 349f 03       		.byte	0x3
 14129 34a0 08000000 		.4byte	ancestor_signal
 14130 34a4 2E       		.uleb128 0x2e
 14131 34a5 181A0000 		.4byte	.LASF539
 14132 34a9 07       		.byte	0x7
 14133 34aa 43       		.byte	0x43
ARM GAS  C:\Users\tmj32\AppData\Local\Temp\ccI3WYuM.s 			page 306


 14134 34ab 45100000 		.4byte	0x1045
 14135 34af 05       		.uleb128 0x5
 14136 34b0 03       		.byte	0x3
 14137 34b1 0C000000 		.4byte	scrl_signal
 14138 34b5 2E       		.uleb128 0x2e
 14139 34b6 0F030000 		.4byte	.LASF540
 14140 34ba 07       		.byte	0x7
 14141 34bb 44       		.byte	0x44
 14142 34bc 17030000 		.4byte	0x317
 14143 34c0 05       		.uleb128 0x5
 14144 34c1 03       		.byte	0x3
 14145 34c2 10000000 		.4byte	ta_insert_replace
 14146 34c6 3B       		.uleb128 0x3b
 14147 34c7 E2170000 		.4byte	.LASF541
 14148 34cb 0E       		.byte	0xe
 14149 34cc 0E01     		.2byte	0x10e
 14150 34ce 0A070000 		.4byte	0x70a
 14151 34d2 3B       		.uleb128 0x3b
 14152 34d3 52160000 		.4byte	.LASF542
 14153 34d7 0E       		.byte	0xe
 14154 34d8 1101     		.2byte	0x111
 14155 34da 0A070000 		.4byte	0x70a
 14156 34de 0B       		.uleb128 0xb
 14157 34df B8000000 		.4byte	0xb8
 14158 34e3 ED340000 		.4byte	0x34ed
 14159 34e7 0C       		.uleb128 0xc
 14160 34e8 17030000 		.4byte	0x317
 14161 34ec 00       		.byte	0
 14162 34ed 3C       		.uleb128 0x3c
 14163 34ee BE010000 		.4byte	.LASF543
 14164 34f2 17       		.byte	0x17
 14165 34f3 8E       		.byte	0x8e
 14166 34f4 F8340000 		.4byte	0x34f8
 14167 34f8 0D       		.uleb128 0xd
 14168 34f9 04       		.byte	0x4
 14169 34fa DE340000 		.4byte	0x34de
 14170 34fe 0B       		.uleb128 0xb
 14171 34ff E4000000 		.4byte	0xe4
 14172 3503 0D350000 		.4byte	0x350d
 14173 3507 0C       		.uleb128 0xc
 14174 3508 E4000000 		.4byte	0xe4
 14175 350c 00       		.byte	0
 14176 350d 3C       		.uleb128 0x3c
 14177 350e 86180000 		.4byte	.LASF544
 14178 3512 17       		.byte	0x17
 14179 3513 95       		.byte	0x95
 14180 3514 18350000 		.4byte	0x3518
 14181 3518 0D       		.uleb128 0xd
 14182 3519 04       		.byte	0x4
 14183 351a FE340000 		.4byte	0x34fe
 14184 351e 0B       		.uleb128 0xb
 14185 351f E4000000 		.4byte	0xe4
 14186 3523 32350000 		.4byte	0x3532
 14187 3527 0C       		.uleb128 0xc
 14188 3528 17030000 		.4byte	0x317
 14189 352c 0C       		.uleb128 0xc
 14190 352d 32350000 		.4byte	0x3532
ARM GAS  C:\Users\tmj32\AppData\Local\Temp\ccI3WYuM.s 			page 307


 14191 3531 00       		.byte	0
 14192 3532 0D       		.uleb128 0xd
 14193 3533 04       		.byte	0x4
 14194 3534 E4000000 		.4byte	0xe4
 14195 3538 3C       		.uleb128 0x3c
 14196 3539 CD0E0000 		.4byte	.LASF545
 14197 353d 17       		.byte	0x17
 14198 353e A6       		.byte	0xa6
 14199 353f 43350000 		.4byte	0x3543
 14200 3543 0D       		.uleb128 0xd
 14201 3544 04       		.byte	0x4
 14202 3545 1E350000 		.4byte	0x351e
 14203 3549 0B       		.uleb128 0xb
 14204 354a E4000000 		.4byte	0xe4
 14205 354e 5D350000 		.4byte	0x355d
 14206 3552 0C       		.uleb128 0xc
 14207 3553 17030000 		.4byte	0x317
 14208 3557 0C       		.uleb128 0xc
 14209 3558 E4000000 		.4byte	0xe4
 14210 355c 00       		.byte	0
 14211 355d 3C       		.uleb128 0x3c
 14212 355e 73160000 		.4byte	.LASF546
 14213 3562 17       		.byte	0x17
 14214 3563 B8       		.byte	0xb8
 14215 3564 68350000 		.4byte	0x3568
 14216 3568 0D       		.uleb128 0xd
 14217 3569 04       		.byte	0x4
 14218 356a 49350000 		.4byte	0x3549
 14219 356e 0B       		.uleb128 0xb
 14220 356f E4000000 		.4byte	0xe4
 14221 3573 7D350000 		.4byte	0x357d
 14222 3577 0C       		.uleb128 0xc
 14223 3578 17030000 		.4byte	0x317
 14224 357c 00       		.byte	0
 14225 357d 3C       		.uleb128 0x3c
 14226 357e E4130000 		.4byte	.LASF547
 14227 3582 17       		.byte	0x17
 14228 3583 C9       		.byte	0xc9
 14229 3584 88350000 		.4byte	0x3588
 14230 3588 0D       		.uleb128 0xd
 14231 3589 04       		.byte	0x4
 14232 358a 6E350000 		.4byte	0x356e
 14233 358e 00       		.byte	0
 14234              		.section	.debug_abbrev,"",%progbits
 14235              	.Ldebug_abbrev0:
 14236 0000 01       		.uleb128 0x1
 14237 0001 11       		.uleb128 0x11
 14238 0002 01       		.byte	0x1
 14239 0003 25       		.uleb128 0x25
 14240 0004 0E       		.uleb128 0xe
 14241 0005 13       		.uleb128 0x13
 14242 0006 0B       		.uleb128 0xb
 14243 0007 03       		.uleb128 0x3
 14244 0008 0E       		.uleb128 0xe
 14245 0009 1B       		.uleb128 0x1b
 14246 000a 0E       		.uleb128 0xe
 14247 000b 55       		.uleb128 0x55
ARM GAS  C:\Users\tmj32\AppData\Local\Temp\ccI3WYuM.s 			page 308


 14248 000c 17       		.uleb128 0x17
 14249 000d 11       		.uleb128 0x11
 14250 000e 01       		.uleb128 0x1
 14251 000f 10       		.uleb128 0x10
 14252 0010 17       		.uleb128 0x17
 14253 0011 00       		.byte	0
 14254 0012 00       		.byte	0
 14255 0013 02       		.uleb128 0x2
 14256 0014 16       		.uleb128 0x16
 14257 0015 00       		.byte	0
 14258 0016 03       		.uleb128 0x3
 14259 0017 0E       		.uleb128 0xe
 14260 0018 3A       		.uleb128 0x3a
 14261 0019 0B       		.uleb128 0xb
 14262 001a 3B       		.uleb128 0x3b
 14263 001b 0B       		.uleb128 0xb
 14264 001c 49       		.uleb128 0x49
 14265 001d 13       		.uleb128 0x13
 14266 001e 00       		.byte	0
 14267 001f 00       		.byte	0
 14268 0020 03       		.uleb128 0x3
 14269 0021 24       		.uleb128 0x24
 14270 0022 00       		.byte	0
 14271 0023 0B       		.uleb128 0xb
 14272 0024 0B       		.uleb128 0xb
 14273 0025 3E       		.uleb128 0x3e
 14274 0026 0B       		.uleb128 0xb
 14275 0027 03       		.uleb128 0x3
 14276 0028 0E       		.uleb128 0xe
 14277 0029 00       		.byte	0
 14278 002a 00       		.byte	0
 14279 002b 04       		.uleb128 0x4
 14280 002c 24       		.uleb128 0x24
 14281 002d 00       		.byte	0
 14282 002e 0B       		.uleb128 0xb
 14283 002f 0B       		.uleb128 0xb
 14284 0030 3E       		.uleb128 0x3e
 14285 0031 0B       		.uleb128 0xb
 14286 0032 03       		.uleb128 0x3
 14287 0033 08       		.uleb128 0x8
 14288 0034 00       		.byte	0
 14289 0035 00       		.byte	0
 14290 0036 05       		.uleb128 0x5
 14291 0037 0F       		.uleb128 0xf
 14292 0038 00       		.byte	0
 14293 0039 0B       		.uleb128 0xb
 14294 003a 0B       		.uleb128 0xb
 14295 003b 00       		.byte	0
 14296 003c 00       		.byte	0
 14297 003d 06       		.uleb128 0x6
 14298 003e 13       		.uleb128 0x13
 14299 003f 01       		.byte	0x1
 14300 0040 0B       		.uleb128 0xb
 14301 0041 0B       		.uleb128 0xb
 14302 0042 3A       		.uleb128 0x3a
 14303 0043 0B       		.uleb128 0xb
 14304 0044 3B       		.uleb128 0x3b
ARM GAS  C:\Users\tmj32\AppData\Local\Temp\ccI3WYuM.s 			page 309


 14305 0045 0B       		.uleb128 0xb
 14306 0046 01       		.uleb128 0x1
 14307 0047 13       		.uleb128 0x13
 14308 0048 00       		.byte	0
 14309 0049 00       		.byte	0
 14310 004a 07       		.uleb128 0x7
 14311 004b 0D       		.uleb128 0xd
 14312 004c 00       		.byte	0
 14313 004d 03       		.uleb128 0x3
 14314 004e 0E       		.uleb128 0xe
 14315 004f 3A       		.uleb128 0x3a
 14316 0050 0B       		.uleb128 0xb
 14317 0051 3B       		.uleb128 0x3b
 14318 0052 0B       		.uleb128 0xb
 14319 0053 49       		.uleb128 0x49
 14320 0054 13       		.uleb128 0x13
 14321 0055 38       		.uleb128 0x38
 14322 0056 0B       		.uleb128 0xb
 14323 0057 00       		.byte	0
 14324 0058 00       		.byte	0
 14325 0059 08       		.uleb128 0x8
 14326 005a 0D       		.uleb128 0xd
 14327 005b 00       		.byte	0
 14328 005c 03       		.uleb128 0x3
 14329 005d 08       		.uleb128 0x8
 14330 005e 3A       		.uleb128 0x3a
 14331 005f 0B       		.uleb128 0xb
 14332 0060 3B       		.uleb128 0x3b
 14333 0061 0B       		.uleb128 0xb
 14334 0062 49       		.uleb128 0x49
 14335 0063 13       		.uleb128 0x13
 14336 0064 38       		.uleb128 0x38
 14337 0065 0B       		.uleb128 0xb
 14338 0066 00       		.byte	0
 14339 0067 00       		.byte	0
 14340 0068 09       		.uleb128 0x9
 14341 0069 13       		.uleb128 0x13
 14342 006a 01       		.byte	0x1
 14343 006b 03       		.uleb128 0x3
 14344 006c 0E       		.uleb128 0xe
 14345 006d 0B       		.uleb128 0xb
 14346 006e 0B       		.uleb128 0xb
 14347 006f 3A       		.uleb128 0x3a
 14348 0070 0B       		.uleb128 0xb
 14349 0071 3B       		.uleb128 0x3b
 14350 0072 0B       		.uleb128 0xb
 14351 0073 01       		.uleb128 0x1
 14352 0074 13       		.uleb128 0x13
 14353 0075 00       		.byte	0
 14354 0076 00       		.byte	0
 14355 0077 0A       		.uleb128 0xa
 14356 0078 0D       		.uleb128 0xd
 14357 0079 00       		.byte	0
 14358 007a 03       		.uleb128 0x3
 14359 007b 0E       		.uleb128 0xe
 14360 007c 3A       		.uleb128 0x3a
 14361 007d 0B       		.uleb128 0xb
ARM GAS  C:\Users\tmj32\AppData\Local\Temp\ccI3WYuM.s 			page 310


 14362 007e 3B       		.uleb128 0x3b
 14363 007f 0B       		.uleb128 0xb
 14364 0080 49       		.uleb128 0x49
 14365 0081 13       		.uleb128 0x13
 14366 0082 0B       		.uleb128 0xb
 14367 0083 0B       		.uleb128 0xb
 14368 0084 0D       		.uleb128 0xd
 14369 0085 0B       		.uleb128 0xb
 14370 0086 0C       		.uleb128 0xc
 14371 0087 0B       		.uleb128 0xb
 14372 0088 38       		.uleb128 0x38
 14373 0089 0B       		.uleb128 0xb
 14374 008a 00       		.byte	0
 14375 008b 00       		.byte	0
 14376 008c 0B       		.uleb128 0xb
 14377 008d 15       		.uleb128 0x15
 14378 008e 01       		.byte	0x1
 14379 008f 27       		.uleb128 0x27
 14380 0090 19       		.uleb128 0x19
 14381 0091 49       		.uleb128 0x49
 14382 0092 13       		.uleb128 0x13
 14383 0093 01       		.uleb128 0x1
 14384 0094 13       		.uleb128 0x13
 14385 0095 00       		.byte	0
 14386 0096 00       		.byte	0
 14387 0097 0C       		.uleb128 0xc
 14388 0098 05       		.uleb128 0x5
 14389 0099 00       		.byte	0
 14390 009a 49       		.uleb128 0x49
 14391 009b 13       		.uleb128 0x13
 14392 009c 00       		.byte	0
 14393 009d 00       		.byte	0
 14394 009e 0D       		.uleb128 0xd
 14395 009f 0F       		.uleb128 0xf
 14396 00a0 00       		.byte	0
 14397 00a1 0B       		.uleb128 0xb
 14398 00a2 0B       		.uleb128 0xb
 14399 00a3 49       		.uleb128 0x49
 14400 00a4 13       		.uleb128 0x13
 14401 00a5 00       		.byte	0
 14402 00a6 00       		.byte	0
 14403 00a7 0E       		.uleb128 0xe
 14404 00a8 26       		.uleb128 0x26
 14405 00a9 00       		.byte	0
 14406 00aa 49       		.uleb128 0x49
 14407 00ab 13       		.uleb128 0x13
 14408 00ac 00       		.byte	0
 14409 00ad 00       		.byte	0
 14410 00ae 0F       		.uleb128 0xf
 14411 00af 04       		.uleb128 0x4
 14412 00b0 01       		.byte	0x1
 14413 00b1 0B       		.uleb128 0xb
 14414 00b2 0B       		.uleb128 0xb
 14415 00b3 49       		.uleb128 0x49
 14416 00b4 13       		.uleb128 0x13
 14417 00b5 3A       		.uleb128 0x3a
 14418 00b6 0B       		.uleb128 0xb
ARM GAS  C:\Users\tmj32\AppData\Local\Temp\ccI3WYuM.s 			page 311


 14419 00b7 3B       		.uleb128 0x3b
 14420 00b8 0B       		.uleb128 0xb
 14421 00b9 01       		.uleb128 0x1
 14422 00ba 13       		.uleb128 0x13
 14423 00bb 00       		.byte	0
 14424 00bc 00       		.byte	0
 14425 00bd 10       		.uleb128 0x10
 14426 00be 28       		.uleb128 0x28
 14427 00bf 00       		.byte	0
 14428 00c0 03       		.uleb128 0x3
 14429 00c1 0E       		.uleb128 0xe
 14430 00c2 1C       		.uleb128 0x1c
 14431 00c3 0B       		.uleb128 0xb
 14432 00c4 00       		.byte	0
 14433 00c5 00       		.byte	0
 14434 00c6 11       		.uleb128 0x11
 14435 00c7 17       		.uleb128 0x17
 14436 00c8 01       		.byte	0x1
 14437 00c9 0B       		.uleb128 0xb
 14438 00ca 0B       		.uleb128 0xb
 14439 00cb 3A       		.uleb128 0x3a
 14440 00cc 0B       		.uleb128 0xb
 14441 00cd 3B       		.uleb128 0x3b
 14442 00ce 0B       		.uleb128 0xb
 14443 00cf 01       		.uleb128 0x1
 14444 00d0 13       		.uleb128 0x13
 14445 00d1 00       		.byte	0
 14446 00d2 00       		.byte	0
 14447 00d3 12       		.uleb128 0x12
 14448 00d4 0D       		.uleb128 0xd
 14449 00d5 00       		.byte	0
 14450 00d6 03       		.uleb128 0x3
 14451 00d7 08       		.uleb128 0x8
 14452 00d8 3A       		.uleb128 0x3a
 14453 00d9 0B       		.uleb128 0xb
 14454 00da 3B       		.uleb128 0x3b
 14455 00db 0B       		.uleb128 0xb
 14456 00dc 49       		.uleb128 0x49
 14457 00dd 13       		.uleb128 0x13
 14458 00de 00       		.byte	0
 14459 00df 00       		.byte	0
 14460 00e0 13       		.uleb128 0x13
 14461 00e1 0D       		.uleb128 0xd
 14462 00e2 00       		.byte	0
 14463 00e3 03       		.uleb128 0x3
 14464 00e4 0E       		.uleb128 0xe
 14465 00e5 3A       		.uleb128 0x3a
 14466 00e6 0B       		.uleb128 0xb
 14467 00e7 3B       		.uleb128 0x3b
 14468 00e8 0B       		.uleb128 0xb
 14469 00e9 49       		.uleb128 0x49
 14470 00ea 13       		.uleb128 0x13
 14471 00eb 00       		.byte	0
 14472 00ec 00       		.byte	0
 14473 00ed 14       		.uleb128 0x14
 14474 00ee 16       		.uleb128 0x16
 14475 00ef 00       		.byte	0
ARM GAS  C:\Users\tmj32\AppData\Local\Temp\ccI3WYuM.s 			page 312


 14476 00f0 03       		.uleb128 0x3
 14477 00f1 0E       		.uleb128 0xe
 14478 00f2 3A       		.uleb128 0x3a
 14479 00f3 0B       		.uleb128 0xb
 14480 00f4 3B       		.uleb128 0x3b
 14481 00f5 05       		.uleb128 0x5
 14482 00f6 49       		.uleb128 0x49
 14483 00f7 13       		.uleb128 0x13
 14484 00f8 00       		.byte	0
 14485 00f9 00       		.byte	0
 14486 00fa 15       		.uleb128 0x15
 14487 00fb 01       		.uleb128 0x1
 14488 00fc 01       		.byte	0x1
 14489 00fd 49       		.uleb128 0x49
 14490 00fe 13       		.uleb128 0x13
 14491 00ff 01       		.uleb128 0x1
 14492 0100 13       		.uleb128 0x13
 14493 0101 00       		.byte	0
 14494 0102 00       		.byte	0
 14495 0103 16       		.uleb128 0x16
 14496 0104 21       		.uleb128 0x21
 14497 0105 00       		.byte	0
 14498 0106 49       		.uleb128 0x49
 14499 0107 13       		.uleb128 0x13
 14500 0108 2F       		.uleb128 0x2f
 14501 0109 0B       		.uleb128 0xb
 14502 010a 00       		.byte	0
 14503 010b 00       		.byte	0
 14504 010c 17       		.uleb128 0x17
 14505 010d 15       		.uleb128 0x15
 14506 010e 01       		.byte	0x1
 14507 010f 27       		.uleb128 0x27
 14508 0110 19       		.uleb128 0x19
 14509 0111 01       		.uleb128 0x1
 14510 0112 13       		.uleb128 0x13
 14511 0113 00       		.byte	0
 14512 0114 00       		.byte	0
 14513 0115 18       		.uleb128 0x18
 14514 0116 35       		.uleb128 0x35
 14515 0117 00       		.byte	0
 14516 0118 49       		.uleb128 0x49
 14517 0119 13       		.uleb128 0x13
 14518 011a 00       		.byte	0
 14519 011b 00       		.byte	0
 14520 011c 19       		.uleb128 0x19
 14521 011d 13       		.uleb128 0x13
 14522 011e 01       		.byte	0x1
 14523 011f 03       		.uleb128 0x3
 14524 0120 0E       		.uleb128 0xe
 14525 0121 0B       		.uleb128 0xb
 14526 0122 05       		.uleb128 0x5
 14527 0123 3A       		.uleb128 0x3a
 14528 0124 0B       		.uleb128 0xb
 14529 0125 3B       		.uleb128 0x3b
 14530 0126 0B       		.uleb128 0xb
 14531 0127 01       		.uleb128 0x1
 14532 0128 13       		.uleb128 0x13
ARM GAS  C:\Users\tmj32\AppData\Local\Temp\ccI3WYuM.s 			page 313


 14533 0129 00       		.byte	0
 14534 012a 00       		.byte	0
 14535 012b 1A       		.uleb128 0x1a
 14536 012c 0D       		.uleb128 0xd
 14537 012d 00       		.byte	0
 14538 012e 03       		.uleb128 0x3
 14539 012f 0E       		.uleb128 0xe
 14540 0130 3A       		.uleb128 0x3a
 14541 0131 0B       		.uleb128 0xb
 14542 0132 3B       		.uleb128 0x3b
 14543 0133 0B       		.uleb128 0xb
 14544 0134 49       		.uleb128 0x49
 14545 0135 13       		.uleb128 0x13
 14546 0136 38       		.uleb128 0x38
 14547 0137 05       		.uleb128 0x5
 14548 0138 00       		.byte	0
 14549 0139 00       		.byte	0
 14550 013a 1B       		.uleb128 0x1b
 14551 013b 0D       		.uleb128 0xd
 14552 013c 00       		.byte	0
 14553 013d 03       		.uleb128 0x3
 14554 013e 0E       		.uleb128 0xe
 14555 013f 3A       		.uleb128 0x3a
 14556 0140 0B       		.uleb128 0xb
 14557 0141 3B       		.uleb128 0x3b
 14558 0142 0B       		.uleb128 0xb
 14559 0143 49       		.uleb128 0x49
 14560 0144 13       		.uleb128 0x13
 14561 0145 0B       		.uleb128 0xb
 14562 0146 0B       		.uleb128 0xb
 14563 0147 0D       		.uleb128 0xd
 14564 0148 0B       		.uleb128 0xb
 14565 0149 0C       		.uleb128 0xc
 14566 014a 0B       		.uleb128 0xb
 14567 014b 38       		.uleb128 0x38
 14568 014c 05       		.uleb128 0x5
 14569 014d 00       		.byte	0
 14570 014e 00       		.byte	0
 14571 014f 1C       		.uleb128 0x1c
 14572 0150 0D       		.uleb128 0xd
 14573 0151 00       		.byte	0
 14574 0152 03       		.uleb128 0x3
 14575 0153 08       		.uleb128 0x8
 14576 0154 3A       		.uleb128 0x3a
 14577 0155 0B       		.uleb128 0xb
 14578 0156 3B       		.uleb128 0x3b
 14579 0157 0B       		.uleb128 0xb
 14580 0158 49       		.uleb128 0x49
 14581 0159 13       		.uleb128 0x13
 14582 015a 0B       		.uleb128 0xb
 14583 015b 0B       		.uleb128 0xb
 14584 015c 0D       		.uleb128 0xd
 14585 015d 0B       		.uleb128 0xb
 14586 015e 0C       		.uleb128 0xc
 14587 015f 0B       		.uleb128 0xb
 14588 0160 38       		.uleb128 0x38
 14589 0161 0B       		.uleb128 0xb
ARM GAS  C:\Users\tmj32\AppData\Local\Temp\ccI3WYuM.s 			page 314


 14590 0162 00       		.byte	0
 14591 0163 00       		.byte	0
 14592 0164 1D       		.uleb128 0x1d
 14593 0165 13       		.uleb128 0x13
 14594 0166 00       		.byte	0
 14595 0167 03       		.uleb128 0x3
 14596 0168 0E       		.uleb128 0xe
 14597 0169 3C       		.uleb128 0x3c
 14598 016a 19       		.uleb128 0x19
 14599 016b 00       		.byte	0
 14600 016c 00       		.byte	0
 14601 016d 1E       		.uleb128 0x1e
 14602 016e 0D       		.uleb128 0xd
 14603 016f 00       		.byte	0
 14604 0170 03       		.uleb128 0x3
 14605 0171 08       		.uleb128 0x8
 14606 0172 3A       		.uleb128 0x3a
 14607 0173 0B       		.uleb128 0xb
 14608 0174 3B       		.uleb128 0x3b
 14609 0175 05       		.uleb128 0x5
 14610 0176 49       		.uleb128 0x49
 14611 0177 13       		.uleb128 0x13
 14612 0178 38       		.uleb128 0x38
 14613 0179 0B       		.uleb128 0xb
 14614 017a 00       		.byte	0
 14615 017b 00       		.byte	0
 14616 017c 1F       		.uleb128 0x1f
 14617 017d 0D       		.uleb128 0xd
 14618 017e 00       		.byte	0
 14619 017f 03       		.uleb128 0x3
 14620 0180 0E       		.uleb128 0xe
 14621 0181 3A       		.uleb128 0x3a
 14622 0182 0B       		.uleb128 0xb
 14623 0183 3B       		.uleb128 0x3b
 14624 0184 05       		.uleb128 0x5
 14625 0185 49       		.uleb128 0x49
 14626 0186 13       		.uleb128 0x13
 14627 0187 38       		.uleb128 0x38
 14628 0188 0B       		.uleb128 0xb
 14629 0189 00       		.byte	0
 14630 018a 00       		.byte	0
 14631 018b 20       		.uleb128 0x20
 14632 018c 13       		.uleb128 0x13
 14633 018d 01       		.byte	0x1
 14634 018e 0B       		.uleb128 0xb
 14635 018f 0B       		.uleb128 0xb
 14636 0190 3A       		.uleb128 0x3a
 14637 0191 0B       		.uleb128 0xb
 14638 0192 3B       		.uleb128 0x3b
 14639 0193 05       		.uleb128 0x5
 14640 0194 01       		.uleb128 0x1
 14641 0195 13       		.uleb128 0x13
 14642 0196 00       		.byte	0
 14643 0197 00       		.byte	0
 14644 0198 21       		.uleb128 0x21
 14645 0199 13       		.uleb128 0x13
 14646 019a 01       		.byte	0x1
ARM GAS  C:\Users\tmj32\AppData\Local\Temp\ccI3WYuM.s 			page 315


 14647 019b 0B       		.uleb128 0xb
 14648 019c 05       		.uleb128 0x5
 14649 019d 3A       		.uleb128 0x3a
 14650 019e 0B       		.uleb128 0xb
 14651 019f 3B       		.uleb128 0x3b
 14652 01a0 0B       		.uleb128 0xb
 14653 01a1 01       		.uleb128 0x1
 14654 01a2 13       		.uleb128 0x13
 14655 01a3 00       		.byte	0
 14656 01a4 00       		.byte	0
 14657 01a5 22       		.uleb128 0x22
 14658 01a6 0D       		.uleb128 0xd
 14659 01a7 00       		.byte	0
 14660 01a8 03       		.uleb128 0x3
 14661 01a9 08       		.uleb128 0x8
 14662 01aa 3A       		.uleb128 0x3a
 14663 01ab 0B       		.uleb128 0xb
 14664 01ac 3B       		.uleb128 0x3b
 14665 01ad 0B       		.uleb128 0xb
 14666 01ae 49       		.uleb128 0x49
 14667 01af 13       		.uleb128 0x13
 14668 01b0 38       		.uleb128 0x38
 14669 01b1 05       		.uleb128 0x5
 14670 01b2 00       		.byte	0
 14671 01b3 00       		.byte	0
 14672 01b4 23       		.uleb128 0x23
 14673 01b5 0D       		.uleb128 0xd
 14674 01b6 00       		.byte	0
 14675 01b7 03       		.uleb128 0x3
 14676 01b8 0E       		.uleb128 0xe
 14677 01b9 3A       		.uleb128 0x3a
 14678 01ba 0B       		.uleb128 0xb
 14679 01bb 3B       		.uleb128 0x3b
 14680 01bc 05       		.uleb128 0x5
 14681 01bd 49       		.uleb128 0x49
 14682 01be 13       		.uleb128 0x13
 14683 01bf 38       		.uleb128 0x38
 14684 01c0 05       		.uleb128 0x5
 14685 01c1 00       		.byte	0
 14686 01c2 00       		.byte	0
 14687 01c3 24       		.uleb128 0x24
 14688 01c4 0D       		.uleb128 0xd
 14689 01c5 00       		.byte	0
 14690 01c6 03       		.uleb128 0x3
 14691 01c7 08       		.uleb128 0x8
 14692 01c8 3A       		.uleb128 0x3a
 14693 01c9 0B       		.uleb128 0xb
 14694 01ca 3B       		.uleb128 0x3b
 14695 01cb 05       		.uleb128 0x5
 14696 01cc 49       		.uleb128 0x49
 14697 01cd 13       		.uleb128 0x13
 14698 01ce 38       		.uleb128 0x38
 14699 01cf 05       		.uleb128 0x5
 14700 01d0 00       		.byte	0
 14701 01d1 00       		.byte	0
 14702 01d2 25       		.uleb128 0x25
 14703 01d3 2E       		.uleb128 0x2e
ARM GAS  C:\Users\tmj32\AppData\Local\Temp\ccI3WYuM.s 			page 316


 14704 01d4 01       		.byte	0x1
 14705 01d5 03       		.uleb128 0x3
 14706 01d6 0E       		.uleb128 0xe
 14707 01d7 3A       		.uleb128 0x3a
 14708 01d8 0B       		.uleb128 0xb
 14709 01d9 3B       		.uleb128 0x3b
 14710 01da 0B       		.uleb128 0xb
 14711 01db 27       		.uleb128 0x27
 14712 01dc 19       		.uleb128 0x19
 14713 01dd 49       		.uleb128 0x49
 14714 01de 13       		.uleb128 0x13
 14715 01df 11       		.uleb128 0x11
 14716 01e0 01       		.uleb128 0x1
 14717 01e1 12       		.uleb128 0x12
 14718 01e2 06       		.uleb128 0x6
 14719 01e3 40       		.uleb128 0x40
 14720 01e4 18       		.uleb128 0x18
 14721 01e5 9742     		.uleb128 0x2117
 14722 01e7 19       		.uleb128 0x19
 14723 01e8 01       		.uleb128 0x1
 14724 01e9 13       		.uleb128 0x13
 14725 01ea 00       		.byte	0
 14726 01eb 00       		.byte	0
 14727 01ec 26       		.uleb128 0x26
 14728 01ed 05       		.uleb128 0x5
 14729 01ee 00       		.byte	0
 14730 01ef 03       		.uleb128 0x3
 14731 01f0 0E       		.uleb128 0xe
 14732 01f1 3A       		.uleb128 0x3a
 14733 01f2 0B       		.uleb128 0xb
 14734 01f3 3B       		.uleb128 0x3b
 14735 01f4 0B       		.uleb128 0xb
 14736 01f5 49       		.uleb128 0x49
 14737 01f6 13       		.uleb128 0x13
 14738 01f7 02       		.uleb128 0x2
 14739 01f8 18       		.uleb128 0x18
 14740 01f9 00       		.byte	0
 14741 01fa 00       		.byte	0
 14742 01fb 27       		.uleb128 0x27
 14743 01fc 2E       		.uleb128 0x2e
 14744 01fd 01       		.byte	0x1
 14745 01fe 03       		.uleb128 0x3
 14746 01ff 0E       		.uleb128 0xe
 14747 0200 3A       		.uleb128 0x3a
 14748 0201 0B       		.uleb128 0xb
 14749 0202 3B       		.uleb128 0x3b
 14750 0203 0B       		.uleb128 0xb
 14751 0204 27       		.uleb128 0x27
 14752 0205 19       		.uleb128 0x19
 14753 0206 11       		.uleb128 0x11
 14754 0207 01       		.uleb128 0x1
 14755 0208 12       		.uleb128 0x12
 14756 0209 06       		.uleb128 0x6
 14757 020a 40       		.uleb128 0x40
 14758 020b 18       		.uleb128 0x18
 14759 020c 9642     		.uleb128 0x2116
 14760 020e 19       		.uleb128 0x19
ARM GAS  C:\Users\tmj32\AppData\Local\Temp\ccI3WYuM.s 			page 317


 14761 020f 01       		.uleb128 0x1
 14762 0210 13       		.uleb128 0x13
 14763 0211 00       		.byte	0
 14764 0212 00       		.byte	0
 14765 0213 28       		.uleb128 0x28
 14766 0214 05       		.uleb128 0x5
 14767 0215 00       		.byte	0
 14768 0216 03       		.uleb128 0x3
 14769 0217 08       		.uleb128 0x8
 14770 0218 3A       		.uleb128 0x3a
 14771 0219 0B       		.uleb128 0xb
 14772 021a 3B       		.uleb128 0x3b
 14773 021b 0B       		.uleb128 0xb
 14774 021c 49       		.uleb128 0x49
 14775 021d 13       		.uleb128 0x13
 14776 021e 02       		.uleb128 0x2
 14777 021f 18       		.uleb128 0x18
 14778 0220 00       		.byte	0
 14779 0221 00       		.byte	0
 14780 0222 29       		.uleb128 0x29
 14781 0223 2E       		.uleb128 0x2e
 14782 0224 01       		.byte	0x1
 14783 0225 03       		.uleb128 0x3
 14784 0226 0E       		.uleb128 0xe
 14785 0227 3A       		.uleb128 0x3a
 14786 0228 0B       		.uleb128 0xb
 14787 0229 3B       		.uleb128 0x3b
 14788 022a 05       		.uleb128 0x5
 14789 022b 27       		.uleb128 0x27
 14790 022c 19       		.uleb128 0x19
 14791 022d 49       		.uleb128 0x49
 14792 022e 13       		.uleb128 0x13
 14793 022f 11       		.uleb128 0x11
 14794 0230 01       		.uleb128 0x1
 14795 0231 12       		.uleb128 0x12
 14796 0232 06       		.uleb128 0x6
 14797 0233 40       		.uleb128 0x40
 14798 0234 18       		.uleb128 0x18
 14799 0235 9642     		.uleb128 0x2116
 14800 0237 19       		.uleb128 0x19
 14801 0238 01       		.uleb128 0x1
 14802 0239 13       		.uleb128 0x13
 14803 023a 00       		.byte	0
 14804 023b 00       		.byte	0
 14805 023c 2A       		.uleb128 0x2a
 14806 023d 05       		.uleb128 0x5
 14807 023e 00       		.byte	0
 14808 023f 03       		.uleb128 0x3
 14809 0240 0E       		.uleb128 0xe
 14810 0241 3A       		.uleb128 0x3a
 14811 0242 0B       		.uleb128 0xb
 14812 0243 3B       		.uleb128 0x3b
 14813 0244 05       		.uleb128 0x5
 14814 0245 49       		.uleb128 0x49
 14815 0246 13       		.uleb128 0x13
 14816 0247 02       		.uleb128 0x2
 14817 0248 18       		.uleb128 0x18
ARM GAS  C:\Users\tmj32\AppData\Local\Temp\ccI3WYuM.s 			page 318


 14818 0249 00       		.byte	0
 14819 024a 00       		.byte	0
 14820 024b 2B       		.uleb128 0x2b
 14821 024c 2E       		.uleb128 0x2e
 14822 024d 01       		.byte	0x1
 14823 024e 03       		.uleb128 0x3
 14824 024f 0E       		.uleb128 0xe
 14825 0250 3A       		.uleb128 0x3a
 14826 0251 0B       		.uleb128 0xb
 14827 0252 3B       		.uleb128 0x3b
 14828 0253 05       		.uleb128 0x5
 14829 0254 27       		.uleb128 0x27
 14830 0255 19       		.uleb128 0x19
 14831 0256 11       		.uleb128 0x11
 14832 0257 01       		.uleb128 0x1
 14833 0258 12       		.uleb128 0x12
 14834 0259 06       		.uleb128 0x6
 14835 025a 40       		.uleb128 0x40
 14836 025b 18       		.uleb128 0x18
 14837 025c 9642     		.uleb128 0x2116
 14838 025e 19       		.uleb128 0x19
 14839 025f 01       		.uleb128 0x1
 14840 0260 13       		.uleb128 0x13
 14841 0261 00       		.byte	0
 14842 0262 00       		.byte	0
 14843 0263 2C       		.uleb128 0x2c
 14844 0264 05       		.uleb128 0x5
 14845 0265 00       		.byte	0
 14846 0266 03       		.uleb128 0x3
 14847 0267 08       		.uleb128 0x8
 14848 0268 3A       		.uleb128 0x3a
 14849 0269 0B       		.uleb128 0xb
 14850 026a 3B       		.uleb128 0x3b
 14851 026b 05       		.uleb128 0x5
 14852 026c 49       		.uleb128 0x49
 14853 026d 13       		.uleb128 0x13
 14854 026e 02       		.uleb128 0x2
 14855 026f 18       		.uleb128 0x18
 14856 0270 00       		.byte	0
 14857 0271 00       		.byte	0
 14858 0272 2D       		.uleb128 0x2d
 14859 0273 2E       		.uleb128 0x2e
 14860 0274 01       		.byte	0x1
 14861 0275 3F       		.uleb128 0x3f
 14862 0276 19       		.uleb128 0x19
 14863 0277 03       		.uleb128 0x3
 14864 0278 0E       		.uleb128 0xe
 14865 0279 3A       		.uleb128 0x3a
 14866 027a 0B       		.uleb128 0xb
 14867 027b 3B       		.uleb128 0x3b
 14868 027c 0B       		.uleb128 0xb
 14869 027d 27       		.uleb128 0x27
 14870 027e 19       		.uleb128 0x19
 14871 027f 49       		.uleb128 0x49
 14872 0280 13       		.uleb128 0x13
 14873 0281 11       		.uleb128 0x11
 14874 0282 01       		.uleb128 0x1
ARM GAS  C:\Users\tmj32\AppData\Local\Temp\ccI3WYuM.s 			page 319


 14875 0283 12       		.uleb128 0x12
 14876 0284 06       		.uleb128 0x6
 14877 0285 40       		.uleb128 0x40
 14878 0286 18       		.uleb128 0x18
 14879 0287 9642     		.uleb128 0x2116
 14880 0289 19       		.uleb128 0x19
 14881 028a 01       		.uleb128 0x1
 14882 028b 13       		.uleb128 0x13
 14883 028c 00       		.byte	0
 14884 028d 00       		.byte	0
 14885 028e 2E       		.uleb128 0x2e
 14886 028f 34       		.uleb128 0x34
 14887 0290 00       		.byte	0
 14888 0291 03       		.uleb128 0x3
 14889 0292 0E       		.uleb128 0xe
 14890 0293 3A       		.uleb128 0x3a
 14891 0294 0B       		.uleb128 0xb
 14892 0295 3B       		.uleb128 0x3b
 14893 0296 0B       		.uleb128 0xb
 14894 0297 49       		.uleb128 0x49
 14895 0298 13       		.uleb128 0x13
 14896 0299 02       		.uleb128 0x2
 14897 029a 18       		.uleb128 0x18
 14898 029b 00       		.byte	0
 14899 029c 00       		.byte	0
 14900 029d 2F       		.uleb128 0x2f
 14901 029e 34       		.uleb128 0x34
 14902 029f 00       		.byte	0
 14903 02a0 03       		.uleb128 0x3
 14904 02a1 08       		.uleb128 0x8
 14905 02a2 3A       		.uleb128 0x3a
 14906 02a3 0B       		.uleb128 0xb
 14907 02a4 3B       		.uleb128 0x3b
 14908 02a5 0B       		.uleb128 0xb
 14909 02a6 49       		.uleb128 0x49
 14910 02a7 13       		.uleb128 0x13
 14911 02a8 02       		.uleb128 0x2
 14912 02a9 18       		.uleb128 0x18
 14913 02aa 00       		.byte	0
 14914 02ab 00       		.byte	0
 14915 02ac 30       		.uleb128 0x30
 14916 02ad 0B       		.uleb128 0xb
 14917 02ae 01       		.byte	0x1
 14918 02af 11       		.uleb128 0x11
 14919 02b0 01       		.uleb128 0x1
 14920 02b1 12       		.uleb128 0x12
 14921 02b2 06       		.uleb128 0x6
 14922 02b3 01       		.uleb128 0x1
 14923 02b4 13       		.uleb128 0x13
 14924 02b5 00       		.byte	0
 14925 02b6 00       		.byte	0
 14926 02b7 31       		.uleb128 0x31
 14927 02b8 0B       		.uleb128 0xb
 14928 02b9 01       		.byte	0x1
 14929 02ba 11       		.uleb128 0x11
 14930 02bb 01       		.uleb128 0x1
 14931 02bc 12       		.uleb128 0x12
ARM GAS  C:\Users\tmj32\AppData\Local\Temp\ccI3WYuM.s 			page 320


 14932 02bd 06       		.uleb128 0x6
 14933 02be 00       		.byte	0
 14934 02bf 00       		.byte	0
 14935 02c0 32       		.uleb128 0x32
 14936 02c1 2E       		.uleb128 0x2e
 14937 02c2 01       		.byte	0x1
 14938 02c3 3F       		.uleb128 0x3f
 14939 02c4 19       		.uleb128 0x19
 14940 02c5 03       		.uleb128 0x3
 14941 02c6 0E       		.uleb128 0xe
 14942 02c7 3A       		.uleb128 0x3a
 14943 02c8 0B       		.uleb128 0xb
 14944 02c9 3B       		.uleb128 0x3b
 14945 02ca 0B       		.uleb128 0xb
 14946 02cb 27       		.uleb128 0x27
 14947 02cc 19       		.uleb128 0x19
 14948 02cd 11       		.uleb128 0x11
 14949 02ce 01       		.uleb128 0x1
 14950 02cf 12       		.uleb128 0x12
 14951 02d0 06       		.uleb128 0x6
 14952 02d1 40       		.uleb128 0x40
 14953 02d2 18       		.uleb128 0x18
 14954 02d3 9642     		.uleb128 0x2116
 14955 02d5 19       		.uleb128 0x19
 14956 02d6 01       		.uleb128 0x1
 14957 02d7 13       		.uleb128 0x13
 14958 02d8 00       		.byte	0
 14959 02d9 00       		.byte	0
 14960 02da 33       		.uleb128 0x33
 14961 02db 34       		.uleb128 0x34
 14962 02dc 00       		.byte	0
 14963 02dd 03       		.uleb128 0x3
 14964 02de 0E       		.uleb128 0xe
 14965 02df 3A       		.uleb128 0x3a
 14966 02e0 0B       		.uleb128 0xb
 14967 02e1 3B       		.uleb128 0x3b
 14968 02e2 05       		.uleb128 0x5
 14969 02e3 49       		.uleb128 0x49
 14970 02e4 13       		.uleb128 0x13
 14971 02e5 02       		.uleb128 0x2
 14972 02e6 18       		.uleb128 0x18
 14973 02e7 00       		.byte	0
 14974 02e8 00       		.byte	0
 14975 02e9 34       		.uleb128 0x34
 14976 02ea 0B       		.uleb128 0xb
 14977 02eb 01       		.byte	0x1
 14978 02ec 55       		.uleb128 0x55
 14979 02ed 17       		.uleb128 0x17
 14980 02ee 00       		.byte	0
 14981 02ef 00       		.byte	0
 14982 02f0 35       		.uleb128 0x35
 14983 02f1 34       		.uleb128 0x34
 14984 02f2 00       		.byte	0
 14985 02f3 03       		.uleb128 0x3
 14986 02f4 08       		.uleb128 0x8
 14987 02f5 3A       		.uleb128 0x3a
 14988 02f6 0B       		.uleb128 0xb
ARM GAS  C:\Users\tmj32\AppData\Local\Temp\ccI3WYuM.s 			page 321


 14989 02f7 3B       		.uleb128 0x3b
 14990 02f8 05       		.uleb128 0x5
 14991 02f9 49       		.uleb128 0x49
 14992 02fa 13       		.uleb128 0x13
 14993 02fb 02       		.uleb128 0x2
 14994 02fc 18       		.uleb128 0x18
 14995 02fd 00       		.byte	0
 14996 02fe 00       		.byte	0
 14997 02ff 36       		.uleb128 0x36
 14998 0300 2E       		.uleb128 0x2e
 14999 0301 01       		.byte	0x1
 15000 0302 3F       		.uleb128 0x3f
 15001 0303 19       		.uleb128 0x19
 15002 0304 03       		.uleb128 0x3
 15003 0305 0E       		.uleb128 0xe
 15004 0306 3A       		.uleb128 0x3a
 15005 0307 0B       		.uleb128 0xb
 15006 0308 3B       		.uleb128 0x3b
 15007 0309 05       		.uleb128 0x5
 15008 030a 27       		.uleb128 0x27
 15009 030b 19       		.uleb128 0x19
 15010 030c 11       		.uleb128 0x11
 15011 030d 01       		.uleb128 0x1
 15012 030e 12       		.uleb128 0x12
 15013 030f 06       		.uleb128 0x6
 15014 0310 40       		.uleb128 0x40
 15015 0311 18       		.uleb128 0x18
 15016 0312 9642     		.uleb128 0x2116
 15017 0314 19       		.uleb128 0x19
 15018 0315 01       		.uleb128 0x1
 15019 0316 13       		.uleb128 0x13
 15020 0317 00       		.byte	0
 15021 0318 00       		.byte	0
 15022 0319 37       		.uleb128 0x37
 15023 031a 2E       		.uleb128 0x2e
 15024 031b 01       		.byte	0x1
 15025 031c 3F       		.uleb128 0x3f
 15026 031d 19       		.uleb128 0x19
 15027 031e 03       		.uleb128 0x3
 15028 031f 0E       		.uleb128 0xe
 15029 0320 3A       		.uleb128 0x3a
 15030 0321 0B       		.uleb128 0xb
 15031 0322 3B       		.uleb128 0x3b
 15032 0323 05       		.uleb128 0x5
 15033 0324 27       		.uleb128 0x27
 15034 0325 19       		.uleb128 0x19
 15035 0326 11       		.uleb128 0x11
 15036 0327 01       		.uleb128 0x1
 15037 0328 12       		.uleb128 0x12
 15038 0329 06       		.uleb128 0x6
 15039 032a 40       		.uleb128 0x40
 15040 032b 18       		.uleb128 0x18
 15041 032c 9742     		.uleb128 0x2117
 15042 032e 19       		.uleb128 0x19
 15043 032f 01       		.uleb128 0x1
 15044 0330 13       		.uleb128 0x13
 15045 0331 00       		.byte	0
ARM GAS  C:\Users\tmj32\AppData\Local\Temp\ccI3WYuM.s 			page 322


 15046 0332 00       		.byte	0
 15047 0333 38       		.uleb128 0x38
 15048 0334 2E       		.uleb128 0x2e
 15049 0335 01       		.byte	0x1
 15050 0336 3F       		.uleb128 0x3f
 15051 0337 19       		.uleb128 0x19
 15052 0338 03       		.uleb128 0x3
 15053 0339 0E       		.uleb128 0xe
 15054 033a 3A       		.uleb128 0x3a
 15055 033b 0B       		.uleb128 0xb
 15056 033c 3B       		.uleb128 0x3b
 15057 033d 05       		.uleb128 0x5
 15058 033e 27       		.uleb128 0x27
 15059 033f 19       		.uleb128 0x19
 15060 0340 49       		.uleb128 0x49
 15061 0341 13       		.uleb128 0x13
 15062 0342 11       		.uleb128 0x11
 15063 0343 01       		.uleb128 0x1
 15064 0344 12       		.uleb128 0x12
 15065 0345 06       		.uleb128 0x6
 15066 0346 40       		.uleb128 0x40
 15067 0347 18       		.uleb128 0x18
 15068 0348 9642     		.uleb128 0x2116
 15069 034a 19       		.uleb128 0x19
 15070 034b 01       		.uleb128 0x1
 15071 034c 13       		.uleb128 0x13
 15072 034d 00       		.byte	0
 15073 034e 00       		.byte	0
 15074 034f 39       		.uleb128 0x39
 15075 0350 2E       		.uleb128 0x2e
 15076 0351 01       		.byte	0x1
 15077 0352 3F       		.uleb128 0x3f
 15078 0353 19       		.uleb128 0x19
 15079 0354 03       		.uleb128 0x3
 15080 0355 0E       		.uleb128 0xe
 15081 0356 3A       		.uleb128 0x3a
 15082 0357 0B       		.uleb128 0xb
 15083 0358 3B       		.uleb128 0x3b
 15084 0359 05       		.uleb128 0x5
 15085 035a 27       		.uleb128 0x27
 15086 035b 19       		.uleb128 0x19
 15087 035c 49       		.uleb128 0x49
 15088 035d 13       		.uleb128 0x13
 15089 035e 11       		.uleb128 0x11
 15090 035f 01       		.uleb128 0x1
 15091 0360 12       		.uleb128 0x12
 15092 0361 06       		.uleb128 0x6
 15093 0362 40       		.uleb128 0x40
 15094 0363 18       		.uleb128 0x18
 15095 0364 9742     		.uleb128 0x2117
 15096 0366 19       		.uleb128 0x19
 15097 0367 01       		.uleb128 0x1
 15098 0368 13       		.uleb128 0x13
 15099 0369 00       		.byte	0
 15100 036a 00       		.byte	0
 15101 036b 3A       		.uleb128 0x3a
 15102 036c 2E       		.uleb128 0x2e
ARM GAS  C:\Users\tmj32\AppData\Local\Temp\ccI3WYuM.s 			page 323


 15103 036d 01       		.byte	0x1
 15104 036e 03       		.uleb128 0x3
 15105 036f 0E       		.uleb128 0xe
 15106 0370 3A       		.uleb128 0x3a
 15107 0371 0B       		.uleb128 0xb
 15108 0372 3B       		.uleb128 0x3b
 15109 0373 05       		.uleb128 0x5
 15110 0374 27       		.uleb128 0x27
 15111 0375 19       		.uleb128 0x19
 15112 0376 11       		.uleb128 0x11
 15113 0377 01       		.uleb128 0x1
 15114 0378 12       		.uleb128 0x12
 15115 0379 06       		.uleb128 0x6
 15116 037a 40       		.uleb128 0x40
 15117 037b 18       		.uleb128 0x18
 15118 037c 9742     		.uleb128 0x2117
 15119 037e 19       		.uleb128 0x19
 15120 037f 01       		.uleb128 0x1
 15121 0380 13       		.uleb128 0x13
 15122 0381 00       		.byte	0
 15123 0382 00       		.byte	0
 15124 0383 3B       		.uleb128 0x3b
 15125 0384 34       		.uleb128 0x34
 15126 0385 00       		.byte	0
 15127 0386 03       		.uleb128 0x3
 15128 0387 0E       		.uleb128 0xe
 15129 0388 3A       		.uleb128 0x3a
 15130 0389 0B       		.uleb128 0xb
 15131 038a 3B       		.uleb128 0x3b
 15132 038b 05       		.uleb128 0x5
 15133 038c 49       		.uleb128 0x49
 15134 038d 13       		.uleb128 0x13
 15135 038e 3F       		.uleb128 0x3f
 15136 038f 19       		.uleb128 0x19
 15137 0390 3C       		.uleb128 0x3c
 15138 0391 19       		.uleb128 0x19
 15139 0392 00       		.byte	0
 15140 0393 00       		.byte	0
 15141 0394 3C       		.uleb128 0x3c
 15142 0395 34       		.uleb128 0x34
 15143 0396 00       		.byte	0
 15144 0397 03       		.uleb128 0x3
 15145 0398 0E       		.uleb128 0xe
 15146 0399 3A       		.uleb128 0x3a
 15147 039a 0B       		.uleb128 0xb
 15148 039b 3B       		.uleb128 0x3b
 15149 039c 0B       		.uleb128 0xb
 15150 039d 49       		.uleb128 0x49
 15151 039e 13       		.uleb128 0x13
 15152 039f 3F       		.uleb128 0x3f
 15153 03a0 19       		.uleb128 0x19
 15154 03a1 3C       		.uleb128 0x3c
 15155 03a2 19       		.uleb128 0x19
 15156 03a3 00       		.byte	0
 15157 03a4 00       		.byte	0
 15158 03a5 00       		.byte	0
 15159              		.section	.debug_aranges,"",%progbits
ARM GAS  C:\Users\tmj32\AppData\Local\Temp\ccI3WYuM.s 			page 324


 15160 0000 14020000 		.4byte	0x214
 15161 0004 0200     		.2byte	0x2
 15162 0006 00000000 		.4byte	.Ldebug_info0
 15163 000a 04       		.byte	0x4
 15164 000b 00       		.byte	0
 15165 000c 0000     		.2byte	0
 15166 000e 0000     		.2byte	0
 15167 0010 00000000 		.4byte	.LFB0
 15168 0014 18000000 		.4byte	.LFE0-.LFB0
 15169 0018 00000000 		.4byte	.LFB10
 15170 001c 1C000000 		.4byte	.LFE10-.LFB10
 15171 0020 00000000 		.4byte	.LFB11
 15172 0024 2E000000 		.4byte	.LFE11-.LFB11
 15173 0028 00000000 		.4byte	.LFB12
 15174 002c 2E000000 		.4byte	.LFE12-.LFB12
 15175 0030 00000000 		.4byte	.LFB31
 15176 0034 2A000000 		.4byte	.LFE31-.LFB31
 15177 0038 00000000 		.4byte	.LFB36
 15178 003c 28000000 		.4byte	.LFE36-.LFB36
 15179 0040 00000000 		.4byte	.LFB48
 15180 0044 1E000000 		.4byte	.LFE48-.LFB48
 15181 0048 00000000 		.4byte	.LFB49
 15182 004c 1C000000 		.4byte	.LFE49-.LFB49
 15183 0050 00000000 		.4byte	.LFB50
 15184 0054 1E000000 		.4byte	.LFE50-.LFB50
 15185 0058 00000000 		.4byte	.LFB52
 15186 005c 1E000000 		.4byte	.LFE52-.LFB52
 15187 0060 00000000 		.4byte	.LFB55
 15188 0064 18000000 		.4byte	.LFE55-.LFB55
 15189 0068 00000000 		.4byte	.LFB56
 15190 006c B8030000 		.4byte	.LFE56-.LFB56
 15191 0070 00000000 		.4byte	.LFB57
 15192 0074 E8010000 		.4byte	.LFE57-.LFB57
 15193 0078 00000000 		.4byte	.LFB58
 15194 007c F4010000 		.4byte	.LFE58-.LFB58
 15195 0080 00000000 		.4byte	.LFB59
 15196 0084 8C010000 		.4byte	.LFE59-.LFB59
 15197 0088 00000000 		.4byte	.LFB60
 15198 008c 40000000 		.4byte	.LFE60-.LFB60
 15199 0090 00000000 		.4byte	.LFB61
 15200 0094 A4010000 		.4byte	.LFE61-.LFB61
 15201 0098 00000000 		.4byte	.LFB62
 15202 009c 80000000 		.4byte	.LFE62-.LFB62
 15203 00a0 00000000 		.4byte	.LFB63
 15204 00a4 6C020000 		.4byte	.LFE63-.LFB63
 15205 00a8 00000000 		.4byte	.LFB64
 15206 00ac 4E000000 		.4byte	.LFE64-.LFB64
 15207 00b0 00000000 		.4byte	.LFB65
 15208 00b4 32000000 		.4byte	.LFE65-.LFB65
 15209 00b8 00000000 		.4byte	.LFB66
 15210 00bc 38010000 		.4byte	.LFE66-.LFB66
 15211 00c0 00000000 		.4byte	.LFB67
 15212 00c4 7A010000 		.4byte	.LFE67-.LFB67
 15213 00c8 00000000 		.4byte	.LFB68
 15214 00cc D8000000 		.4byte	.LFE68-.LFB68
 15215 00d0 00000000 		.4byte	.LFB69
 15216 00d4 20000000 		.4byte	.LFE69-.LFB69
ARM GAS  C:\Users\tmj32\AppData\Local\Temp\ccI3WYuM.s 			page 325


 15217 00d8 00000000 		.4byte	.LFB70
 15218 00dc 24000000 		.4byte	.LFE70-.LFB70
 15219 00e0 00000000 		.4byte	.LFB71
 15220 00e4 20000000 		.4byte	.LFE71-.LFB71
 15221 00e8 00000000 		.4byte	.LFB72
 15222 00ec 98000000 		.4byte	.LFE72-.LFB72
 15223 00f0 00000000 		.4byte	.LFB73
 15224 00f4 18000000 		.4byte	.LFE73-.LFB73
 15225 00f8 00000000 		.4byte	.LFB74
 15226 00fc 24000000 		.4byte	.LFE74-.LFB74
 15227 0100 00000000 		.4byte	.LFB75
 15228 0104 9C000000 		.4byte	.LFE75-.LFB75
 15229 0108 00000000 		.4byte	.LFB76
 15230 010c 3E000000 		.4byte	.LFE76-.LFB76
 15231 0110 00000000 		.4byte	.LFB77
 15232 0114 32000000 		.4byte	.LFE77-.LFB77
 15233 0118 00000000 		.4byte	.LFB78
 15234 011c 1C000000 		.4byte	.LFE78-.LFB78
 15235 0120 00000000 		.4byte	.LFB79
 15236 0124 1E000000 		.4byte	.LFE79-.LFB79
 15237 0128 00000000 		.4byte	.LFB80
 15238 012c 24000000 		.4byte	.LFE80-.LFB80
 15239 0130 00000000 		.4byte	.LFB81
 15240 0134 2E000000 		.4byte	.LFE81-.LFB81
 15241 0138 00000000 		.4byte	.LFB82
 15242 013c 2E000000 		.4byte	.LFE82-.LFB82
 15243 0140 00000000 		.4byte	.LFB83
 15244 0144 2E000000 		.4byte	.LFE83-.LFB83
 15245 0148 00000000 		.4byte	.LFB84
 15246 014c 1C000000 		.4byte	.LFE84-.LFB84
 15247 0150 00000000 		.4byte	.LFB85
 15248 0154 1E000000 		.4byte	.LFE85-.LFB85
 15249 0158 00000000 		.4byte	.LFB86
 15250 015c 8E000000 		.4byte	.LFE86-.LFB86
 15251 0160 00000000 		.4byte	.LFB87
 15252 0164 16000000 		.4byte	.LFE87-.LFB87
 15253 0168 00000000 		.4byte	.LFB88
 15254 016c 16000000 		.4byte	.LFE88-.LFB88
 15255 0170 00000000 		.4byte	.LFB89
 15256 0174 1E000000 		.4byte	.LFE89-.LFB89
 15257 0178 00000000 		.4byte	.LFB90
 15258 017c 1E000000 		.4byte	.LFE90-.LFB90
 15259 0180 00000000 		.4byte	.LFB91
 15260 0184 14000000 		.4byte	.LFE91-.LFB91
 15261 0188 00000000 		.4byte	.LFB92
 15262 018c 2C000000 		.4byte	.LFE92-.LFB92
 15263 0190 00000000 		.4byte	.LFB93
 15264 0194 32000000 		.4byte	.LFE93-.LFB93
 15265 0198 00000000 		.4byte	.LFB94
 15266 019c BA000000 		.4byte	.LFE94-.LFB94
 15267 01a0 00000000 		.4byte	.LFB95
 15268 01a4 A6000000 		.4byte	.LFE95-.LFB95
 15269 01a8 00000000 		.4byte	.LFB96
 15270 01ac 58000000 		.4byte	.LFE96-.LFB96
 15271 01b0 00000000 		.4byte	.LFB97
 15272 01b4 7C020000 		.4byte	.LFE97-.LFB97
 15273 01b8 00000000 		.4byte	.LFB98
ARM GAS  C:\Users\tmj32\AppData\Local\Temp\ccI3WYuM.s 			page 326


 15274 01bc 7C030000 		.4byte	.LFE98-.LFB98
 15275 01c0 00000000 		.4byte	.LFB99
 15276 01c4 4C010000 		.4byte	.LFE99-.LFB99
 15277 01c8 00000000 		.4byte	.LFB100
 15278 01cc EE000000 		.4byte	.LFE100-.LFB100
 15279 01d0 00000000 		.4byte	.LFB101
 15280 01d4 18000000 		.4byte	.LFE101-.LFB101
 15281 01d8 00000000 		.4byte	.LFB102
 15282 01dc 1C000000 		.4byte	.LFE102-.LFB102
 15283 01e0 00000000 		.4byte	.LFB103
 15284 01e4 88000000 		.4byte	.LFE103-.LFB103
 15285 01e8 00000000 		.4byte	.LFB104
 15286 01ec A4000000 		.4byte	.LFE104-.LFB104
 15287 01f0 00000000 		.4byte	.LFB105
 15288 01f4 A2000000 		.4byte	.LFE105-.LFB105
 15289 01f8 00000000 		.4byte	.LFB106
 15290 01fc 2C050000 		.4byte	.LFE106-.LFB106
 15291 0200 00000000 		.4byte	.LFB107
 15292 0204 9C000000 		.4byte	.LFE107-.LFB107
 15293 0208 00000000 		.4byte	.LFB108
 15294 020c 24010000 		.4byte	.LFE108-.LFB108
 15295 0210 00000000 		.4byte	0
 15296 0214 00000000 		.4byte	0
 15297              		.section	.debug_ranges,"",%progbits
 15298              	.Ldebug_ranges0:
 15299 0000 00010000 		.4byte	.LBB6
 15300 0004 8C010000 		.4byte	.LBE6
 15301 0008 CC010000 		.4byte	.LBB7
 15302 000c CE010000 		.4byte	.LBE7
 15303 0010 00000000 		.4byte	0
 15304 0014 00000000 		.4byte	0
 15305 0018 F8000000 		.4byte	.LBB10
 15306 001c 8A010000 		.4byte	.LBE10
 15307 0020 D0010000 		.4byte	.LBB11
 15308 0024 D2010000 		.4byte	.LBE11
 15309 0028 00000000 		.4byte	0
 15310 002c 00000000 		.4byte	0
 15311 0030 E2000000 		.4byte	.LBB13
 15312 0034 48010000 		.4byte	.LBE13
 15313 0038 76010000 		.4byte	.LBB14
 15314 003c 78010000 		.4byte	.LBE14
 15315 0040 00000000 		.4byte	0
 15316 0044 00000000 		.4byte	0
 15317 0048 F4000000 		.4byte	.LBB18
 15318 004c 72010000 		.4byte	.LBE18
 15319 0050 84010000 		.4byte	.LBB19
 15320 0054 86010000 		.4byte	.LBE19
 15321 0058 00000000 		.4byte	0
 15322 005c 00000000 		.4byte	0
 15323 0060 3C000000 		.4byte	.LBB21
 15324 0064 BA000000 		.4byte	.LBE21
 15325 0068 2A010000 		.4byte	.LBB22
 15326 006c 2C010000 		.4byte	.LBE22
 15327 0070 00000000 		.4byte	0
 15328 0074 00000000 		.4byte	0
 15329 0078 00000000 		.4byte	.LFB0
 15330 007c 18000000 		.4byte	.LFE0
ARM GAS  C:\Users\tmj32\AppData\Local\Temp\ccI3WYuM.s 			page 327


 15331 0080 00000000 		.4byte	.LFB10
 15332 0084 1C000000 		.4byte	.LFE10
 15333 0088 00000000 		.4byte	.LFB11
 15334 008c 2E000000 		.4byte	.LFE11
 15335 0090 00000000 		.4byte	.LFB12
 15336 0094 2E000000 		.4byte	.LFE12
 15337 0098 00000000 		.4byte	.LFB31
 15338 009c 2A000000 		.4byte	.LFE31
 15339 00a0 00000000 		.4byte	.LFB36
 15340 00a4 28000000 		.4byte	.LFE36
 15341 00a8 00000000 		.4byte	.LFB48
 15342 00ac 1E000000 		.4byte	.LFE48
 15343 00b0 00000000 		.4byte	.LFB49
 15344 00b4 1C000000 		.4byte	.LFE49
 15345 00b8 00000000 		.4byte	.LFB50
 15346 00bc 1E000000 		.4byte	.LFE50
 15347 00c0 00000000 		.4byte	.LFB52
 15348 00c4 1E000000 		.4byte	.LFE52
 15349 00c8 00000000 		.4byte	.LFB55
 15350 00cc 18000000 		.4byte	.LFE55
 15351 00d0 00000000 		.4byte	.LFB56
 15352 00d4 B8030000 		.4byte	.LFE56
 15353 00d8 00000000 		.4byte	.LFB57
 15354 00dc E8010000 		.4byte	.LFE57
 15355 00e0 00000000 		.4byte	.LFB58
 15356 00e4 F4010000 		.4byte	.LFE58
 15357 00e8 00000000 		.4byte	.LFB59
 15358 00ec 8C010000 		.4byte	.LFE59
 15359 00f0 00000000 		.4byte	.LFB60
 15360 00f4 40000000 		.4byte	.LFE60
 15361 00f8 00000000 		.4byte	.LFB61
 15362 00fc A4010000 		.4byte	.LFE61
 15363 0100 00000000 		.4byte	.LFB62
 15364 0104 80000000 		.4byte	.LFE62
 15365 0108 00000000 		.4byte	.LFB63
 15366 010c 6C020000 		.4byte	.LFE63
 15367 0110 00000000 		.4byte	.LFB64
 15368 0114 4E000000 		.4byte	.LFE64
 15369 0118 00000000 		.4byte	.LFB65
 15370 011c 32000000 		.4byte	.LFE65
 15371 0120 00000000 		.4byte	.LFB66
 15372 0124 38010000 		.4byte	.LFE66
 15373 0128 00000000 		.4byte	.LFB67
 15374 012c 7A010000 		.4byte	.LFE67
 15375 0130 00000000 		.4byte	.LFB68
 15376 0134 D8000000 		.4byte	.LFE68
 15377 0138 00000000 		.4byte	.LFB69
 15378 013c 20000000 		.4byte	.LFE69
 15379 0140 00000000 		.4byte	.LFB70
 15380 0144 24000000 		.4byte	.LFE70
 15381 0148 00000000 		.4byte	.LFB71
 15382 014c 20000000 		.4byte	.LFE71
 15383 0150 00000000 		.4byte	.LFB72
 15384 0154 98000000 		.4byte	.LFE72
 15385 0158 00000000 		.4byte	.LFB73
 15386 015c 18000000 		.4byte	.LFE73
 15387 0160 00000000 		.4byte	.LFB74
ARM GAS  C:\Users\tmj32\AppData\Local\Temp\ccI3WYuM.s 			page 328


 15388 0164 24000000 		.4byte	.LFE74
 15389 0168 00000000 		.4byte	.LFB75
 15390 016c 9C000000 		.4byte	.LFE75
 15391 0170 00000000 		.4byte	.LFB76
 15392 0174 3E000000 		.4byte	.LFE76
 15393 0178 00000000 		.4byte	.LFB77
 15394 017c 32000000 		.4byte	.LFE77
 15395 0180 00000000 		.4byte	.LFB78
 15396 0184 1C000000 		.4byte	.LFE78
 15397 0188 00000000 		.4byte	.LFB79
 15398 018c 1E000000 		.4byte	.LFE79
 15399 0190 00000000 		.4byte	.LFB80
 15400 0194 24000000 		.4byte	.LFE80
 15401 0198 00000000 		.4byte	.LFB81
 15402 019c 2E000000 		.4byte	.LFE81
 15403 01a0 00000000 		.4byte	.LFB82
 15404 01a4 2E000000 		.4byte	.LFE82
 15405 01a8 00000000 		.4byte	.LFB83
 15406 01ac 2E000000 		.4byte	.LFE83
 15407 01b0 00000000 		.4byte	.LFB84
 15408 01b4 1C000000 		.4byte	.LFE84
 15409 01b8 00000000 		.4byte	.LFB85
 15410 01bc 1E000000 		.4byte	.LFE85
 15411 01c0 00000000 		.4byte	.LFB86
 15412 01c4 8E000000 		.4byte	.LFE86
 15413 01c8 00000000 		.4byte	.LFB87
 15414 01cc 16000000 		.4byte	.LFE87
 15415 01d0 00000000 		.4byte	.LFB88
 15416 01d4 16000000 		.4byte	.LFE88
 15417 01d8 00000000 		.4byte	.LFB89
 15418 01dc 1E000000 		.4byte	.LFE89
 15419 01e0 00000000 		.4byte	.LFB90
 15420 01e4 1E000000 		.4byte	.LFE90
 15421 01e8 00000000 		.4byte	.LFB91
 15422 01ec 14000000 		.4byte	.LFE91
 15423 01f0 00000000 		.4byte	.LFB92
 15424 01f4 2C000000 		.4byte	.LFE92
 15425 01f8 00000000 		.4byte	.LFB93
 15426 01fc 32000000 		.4byte	.LFE93
 15427 0200 00000000 		.4byte	.LFB94
 15428 0204 BA000000 		.4byte	.LFE94
 15429 0208 00000000 		.4byte	.LFB95
 15430 020c A6000000 		.4byte	.LFE95
 15431 0210 00000000 		.4byte	.LFB96
 15432 0214 58000000 		.4byte	.LFE96
 15433 0218 00000000 		.4byte	.LFB97
 15434 021c 7C020000 		.4byte	.LFE97
 15435 0220 00000000 		.4byte	.LFB98
 15436 0224 7C030000 		.4byte	.LFE98
 15437 0228 00000000 		.4byte	.LFB99
 15438 022c 4C010000 		.4byte	.LFE99
 15439 0230 00000000 		.4byte	.LFB100
 15440 0234 EE000000 		.4byte	.LFE100
 15441 0238 00000000 		.4byte	.LFB101
 15442 023c 18000000 		.4byte	.LFE101
 15443 0240 00000000 		.4byte	.LFB102
 15444 0244 1C000000 		.4byte	.LFE102
ARM GAS  C:\Users\tmj32\AppData\Local\Temp\ccI3WYuM.s 			page 329


 15445 0248 00000000 		.4byte	.LFB103
 15446 024c 88000000 		.4byte	.LFE103
 15447 0250 00000000 		.4byte	.LFB104
 15448 0254 A4000000 		.4byte	.LFE104
 15449 0258 00000000 		.4byte	.LFB105
 15450 025c A2000000 		.4byte	.LFE105
 15451 0260 00000000 		.4byte	.LFB106
 15452 0264 2C050000 		.4byte	.LFE106
 15453 0268 00000000 		.4byte	.LFB107
 15454 026c 9C000000 		.4byte	.LFE107
 15455 0270 00000000 		.4byte	.LFB108
 15456 0274 24010000 		.4byte	.LFE108
 15457 0278 00000000 		.4byte	0
 15458 027c 00000000 		.4byte	0
 15459              		.section	.debug_line,"",%progbits
 15460              	.Ldebug_line0:
 15461 0000 250F0000 		.section	.debug_str,"MS",%progbits,1
 15461      02000F05 
 15461      00000201 
 15461      FB0E0D00 
 15461      01010101 
 15462              	.LASF15:
 15463 0000 696E7438 		.ascii	"int8_t\000"
 15463      5F7400
 15464              	.LASF142:
 15465 0007 636F6C6F 		.ascii	"color_chroma_key\000"
 15465      725F6368 
 15465      726F6D61 
 15465      5F6B6579 
 15465      00
 15466              	.LASF111:
 15467 0018 6C765F6C 		.ascii	"lv_ll_node_t\000"
 15467      6C5F6E6F 
 15467      64655F74 
 15467      00
 15468              	.LASF22:
 15469 0025 73697A65 		.ascii	"size_t\000"
 15469      5F7400
 15470              	.LASF24:
 15471 002c 6164765F 		.ascii	"adv_w\000"
 15471      7700
 15472              	.LASF395:
 15473 0032 68656164 		.ascii	"header_pr\000"
 15473      65725F70 
 15473      7200
 15474              	.LASF56:
 15475 003c 73697A65 		.ascii	"sizetype\000"
 15475      74797065 
 15475      00
 15476              	.LASF300:
 15477 0045 4C565F4B 		.ascii	"LV_KEY_RIGHT\000"
 15477      45595F52 
 15477      49474854 
 15477      00
 15478              	.LASF67:
 15479 0052 73746172 		.ascii	"start\000"
 15479      7400
ARM GAS  C:\Users\tmj32\AppData\Local\Temp\ccI3WYuM.s 			page 330


 15480              	.LASF53:
 15481 0058 6C765F63 		.ascii	"lv_color32_t\000"
 15481      6F6C6F72 
 15481      33325F74 
 15481      00
 15482              	.LASF353:
 15483 0065 6C765F6C 		.ascii	"lv_label_align_t\000"
 15483      6162656C 
 15483      5F616C69 
 15483      676E5F74 
 15483      00
 15484              	.LASF445:
 15485 0076 6C765F74 		.ascii	"lv_ta_del_char\000"
 15485      615F6465 
 15485      6C5F6368 
 15485      617200
 15486              	.LASF402:
 15487 0085 63656C6C 		.ascii	"cell\000"
 15487      00
 15488              	.LASF355:
 15489 008a 6C765F6C 		.ascii	"lv_label_style_t\000"
 15489      6162656C 
 15489      5F737479 
 15489      6C655F74 
 15489      00
 15490              	.LASF490:
 15491 009b 6C765F74 		.ascii	"lv_ta_get_pwd_show_time\000"
 15491      615F6765 
 15491      745F7077 
 15491      645F7368 
 15491      6F775F74 
 15492              	.LASF114:
 15493 00b3 7461696C 		.ascii	"tail\000"
 15493      00
 15494              	.LASF425:
 15495 00b8 6C765F66 		.ascii	"lv_font_get_line_height\000"
 15495      6F6E745F 
 15495      6765745F 
 15495      6C696E65 
 15495      5F686569 
 15496              	.LASF258:
 15497 00d0 4C565F53 		.ascii	"LV_SIGNAL_STYLE_CHG\000"
 15497      49474E41 
 15497      4C5F5354 
 15497      594C455F 
 15497      43484700 
 15498              	.LASF148:
 15499 00e4 6163745F 		.ascii	"act_scr\000"
 15499      73637200 
 15500              	.LASF74:
 15501 00ec 72657065 		.ascii	"repeat\000"
 15501      617400
 15502              	.LASF55:
 15503 00f3 6C765F6F 		.ascii	"lv_opa_t\000"
 15503      70615F74 
 15503      00
 15504              	.LASF470:
ARM GAS  C:\Users\tmj32\AppData\Local\Temp\ccI3WYuM.s 			page 331


 15505 00fc 6C765F74 		.ascii	"lv_ta_set_max_length\000"
 15505      615F7365 
 15505      745F6D61 
 15505      785F6C65 
 15505      6E677468 
 15506              	.LASF19:
 15507 0111 696E7433 		.ascii	"int32_t\000"
 15507      325F7400 
 15508              	.LASF100:
 15509 0119 696E7465 		.ascii	"intense\000"
 15509      6E736500 
 15510              	.LASF337:
 15511 0121 4C565F50 		.ascii	"LV_PAGE_STYLE_EDGE_FLASH\000"
 15511      4147455F 
 15511      5354594C 
 15511      455F4544 
 15511      47455F46 
 15512              	.LASF247:
 15513 013a 4C565F45 		.ascii	"LV_EVENT_INSERT\000"
 15513      56454E54 
 15513      5F494E53 
 15513      45525400 
 15514              	.LASF58:
 15515 014a 6C765F70 		.ascii	"lv_point_t\000"
 15515      6F696E74 
 15515      5F7400
 15516              	.LASF408:
 15517 0155 6C6D6574 		.ascii	"lmeter\000"
 15517      657200
 15518              	.LASF352:
 15519 015c 4C565F4C 		.ascii	"LV_LABEL_ALIGN_AUTO\000"
 15519      4142454C 
 15519      5F414C49 
 15519      474E5F41 
 15519      55544F00 
 15520              	.LASF266:
 15521 0170 4C565F53 		.ascii	"LV_SIGNAL_LONG_PRESS\000"
 15521      49474E41 
 15521      4C5F4C4F 
 15521      4E475F50 
 15521      52455353 
 15522              	.LASF92:
 15523 0185 72616469 		.ascii	"radius\000"
 15523      757300
 15524              	.LASF283:
 15525 018c 6C765F72 		.ascii	"lv_reailgn_t\000"
 15525      6561696C 
 15525      676E5F74 
 15525      00
 15526              	.LASF32:
 15527 0199 6C696E65 		.ascii	"line_height\000"
 15527      5F686569 
 15527      67687400 
 15528              	.LASF65:
 15529 01a5 70617468 		.ascii	"path_cb\000"
 15529      5F636200 
 15530              	.LASF163:
ARM GAS  C:\Users\tmj32\AppData\Local\Temp\ccI3WYuM.s 			page 332


 15531 01ad 636C6963 		.ascii	"click\000"
 15531      6B00
 15532              	.LASF276:
 15533 01b3 6C765F61 		.ascii	"lv_align_t\000"
 15533      6C69676E 
 15533      5F7400
 15534              	.LASF543:
 15535 01be 6C765F74 		.ascii	"lv_txt_encoded_size\000"
 15535      78745F65 
 15535      6E636F64 
 15535      65645F73 
 15535      697A6500 
 15536              	.LASF268:
 15537 01d2 4C565F53 		.ascii	"LV_SIGNAL_DRAG_BEGIN\000"
 15537      49474E41 
 15537      4C5F4452 
 15537      41475F42 
 15537      4547494E 
 15538              	.LASF397:
 15539 01e7 68696768 		.ascii	"highlighted_days\000"
 15539      6C696768 
 15539      7465645F 
 15539      64617973 
 15539      00
 15540              	.LASF359:
 15541 01f8 4C565F43 		.ascii	"LV_CURSOR_OUTLINE\000"
 15541      5552534F 
 15541      525F4F55 
 15541      544C494E 
 15541      4500
 15542              	.LASF506:
 15543 020a 7369676E 		.ascii	"sign\000"
 15543      00
 15544              	.LASF464:
 15545 020f 6F6C645F 		.ascii	"old_align\000"
 15545      616C6967 
 15545      6E00
 15546              	.LASF252:
 15547 0219 6C765F65 		.ascii	"lv_event_t\000"
 15547      76656E74 
 15547      5F7400
 15548              	.LASF187:
 15549 0224 73746174 		.ascii	"state\000"
 15549      6500
 15550              	.LASF315:
 15551 022a 4C565F53 		.ascii	"LV_SB_MODE_UNHIDE\000"
 15551      425F4D4F 
 15551      44455F55 
 15551      4E484944 
 15551      4500
 15552              	.LASF305:
 15553 023c 4C565F4B 		.ascii	"LV_KEY_ENTER\000"
 15553      45595F45 
 15553      4E544552 
 15553      00
 15554              	.LASF357:
 15555 0249 4C565F43 		.ascii	"LV_CURSOR_LINE\000"
ARM GAS  C:\Users\tmj32\AppData\Local\Temp\ccI3WYuM.s 			page 333


 15555      5552534F 
 15555      525F4C49 
 15555      4E4500
 15556              	.LASF489:
 15557 0258 6C765F74 		.ascii	"lv_ta_get_text_sel_en\000"
 15557      615F6765 
 15557      745F7465 
 15557      78745F73 
 15557      656C5F65 
 15558              	.LASF108:
 15559 026e 4C565F52 		.ascii	"LV_RES_INV\000"
 15559      45535F49 
 15559      4E5600
 15560              	.LASF262:
 15561 0279 4C565F53 		.ascii	"LV_SIGNAL_PRESSED\000"
 15561      49474E41 
 15561      4C5F5052 
 15561      45535345 
 15561      4400
 15562              	.LASF85:
 15563 028b 74797065 		.ascii	"type\000"
 15563      00
 15564              	.LASF236:
 15565 0290 4C565F45 		.ascii	"LV_EVENT_LONG_PRESSED\000"
 15565      56454E54 
 15565      5F4C4F4E 
 15565      475F5052 
 15565      45535345 
 15566              	.LASF286:
 15567 02a6 4C565F46 		.ascii	"LV_FIT_NONE\000"
 15567      49545F4E 
 15567      4F4E4500 
 15568              	.LASF499:
 15569 02b2 6C765F74 		.ascii	"lv_ta_cursor_up\000"
 15569      615F6375 
 15569      72736F72 
 15569      5F757000 
 15570              	.LASF371:
 15571 02c2 61636361 		.ascii	"accapted_chars\000"
 15571      70746564 
 15571      5F636861 
 15571      727300
 15572              	.LASF321:
 15573 02d1 7665725F 		.ascii	"ver_draw\000"
 15573      64726177 
 15573      00
 15574              	.LASF387:
 15575 02da 6C696768 		.ascii	"light\000"
 15575      7400
 15576              	.LASF532:
 15577 02e0 76656374 		.ascii	"vect_act\000"
 15577      5F616374 
 15577      00
 15578              	.LASF189:
 15579 02e9 5F6C765F 		.ascii	"_lv_indev_drv_t\000"
 15579      696E6465 
 15579      765F6472 
ARM GAS  C:\Users\tmj32\AppData\Local\Temp\ccI3WYuM.s 			page 334


 15579      765F7400 
 15580              	.LASF405:
 15581 02f9 636F6E74 		.ascii	"cont\000"
 15581      00
 15582              	.LASF385:
 15583 02fe 7072696D 		.ascii	"prim\000"
 15583      00
 15584              	.LASF123:
 15585 0303 7072696F 		.ascii	"prio\000"
 15585      00
 15586              	.LASF147:
 15587 0308 7363725F 		.ascii	"scr_ll\000"
 15587      6C6C00
 15588              	.LASF540:
 15589 030f 74615F69 		.ascii	"ta_insert_replace\000"
 15589      6E736572 
 15589      745F7265 
 15589      706C6163 
 15589      6500
 15590              	.LASF184:
 15591 0321 706F696E 		.ascii	"point\000"
 15591      7400
 15592              	.LASF235:
 15593 0327 4C565F45 		.ascii	"LV_EVENT_SHORT_CLICKED\000"
 15593      56454E54 
 15593      5F53484F 
 15593      52545F43 
 15593      4C49434B 
 15594              	.LASF375:
 15595 033e 6F6E655F 		.ascii	"one_line\000"
 15595      6C696E65 
 15595      00
 15596              	.LASF1:
 15597 0347 5F5F7569 		.ascii	"__uint8_t\000"
 15597      6E74385F 
 15597      7400
 15598              	.LASF503:
 15599 0351 6375725F 		.ascii	"cur_style\000"
 15599      7374796C 
 15599      6500
 15600              	.LASF485:
 15601 035b 6C765F74 		.ascii	"lv_ta_get_accepted_chars\000"
 15601      615F6765 
 15601      745F6163 
 15601      63657074 
 15601      65645F63 
 15602              	.LASF452:
 15603 0374 6C765F74 		.ascii	"lv_ta_set_placeholder_text\000"
 15603      615F7365 
 15603      745F706C 
 15603      61636568 
 15603      6F6C6465 
 15604              	.LASF51:
 15605 038f 616C7068 		.ascii	"alpha\000"
 15605      6100
 15606              	.LASF135:
 15607 0395 7665725F 		.ascii	"ver_res\000"
ARM GAS  C:\Users\tmj32\AppData\Local\Temp\ccI3WYuM.s 			page 335


 15607      72657300 
 15608              	.LASF447:
 15609 039d 64656C5F 		.ascii	"del_buf\000"
 15609      62756600 
 15610              	.LASF528:
 15611 03a5 75706461 		.ascii	"update_cursor_position_on_click\000"
 15611      74655F63 
 15611      7572736F 
 15611      725F706F 
 15611      73697469 
 15612              	.LASF221:
 15613 03c5 5F6C765F 		.ascii	"_lv_indev_t\000"
 15613      696E6465 
 15613      765F7400 
 15614              	.LASF511:
 15615 03d1 73686F77 		.ascii	"show\000"
 15615      00
 15616              	.LASF358:
 15617 03d6 4C565F43 		.ascii	"LV_CURSOR_BLOCK\000"
 15617      5552534F 
 15617      525F424C 
 15617      4F434B00 
 15618              	.LASF380:
 15619 03e6 4C565F54 		.ascii	"LV_TA_STYLE_EDGE_FLASH\000"
 15619      415F5354 
 15619      594C455F 
 15619      45444745 
 15619      5F464C41 
 15620              	.LASF377:
 15621 03fd 4C565F54 		.ascii	"LV_TA_STYLE_BG\000"
 15621      415F5354 
 15621      594C455F 
 15621      424700
 15622              	.LASF433:
 15623 040c 6C765F6C 		.ascii	"lv_label_get_style\000"
 15623      6162656C 
 15623      5F676574 
 15623      5F737479 
 15623      6C6500
 15624              	.LASF350:
 15625 041f 4C565F4C 		.ascii	"LV_LABEL_ALIGN_CENTER\000"
 15625      4142454C 
 15625      5F414C49 
 15625      474E5F43 
 15625      454E5445 
 15626              	.LASF167:
 15627 0435 68696464 		.ascii	"hidden\000"
 15627      656E00
 15628              	.LASF71:
 15629 043c 72657065 		.ascii	"repeat_pause\000"
 15629      61745F70 
 15629      61757365 
 15629      00
 15630              	.LASF154:
 15631 0449 6C617374 		.ascii	"last_activity_time\000"
 15631      5F616374 
 15631      69766974 
ARM GAS  C:\Users\tmj32\AppData\Local\Temp\ccI3WYuM.s 			page 336


 15631      795F7469 
 15631      6D6500
 15632              	.LASF9:
 15633 045c 6C6F6E67 		.ascii	"long int\000"
 15633      20696E74 
 15633      00
 15634              	.LASF146:
 15635 0465 72656672 		.ascii	"refr_task\000"
 15635      5F746173 
 15635      6B00
 15636              	.LASF137:
 15637 046f 726F7461 		.ascii	"rotated\000"
 15637      74656400 
 15638              	.LASF208:
 15639 0477 6C617374 		.ascii	"last_state\000"
 15639      5F737461 
 15639      746500
 15640              	.LASF476:
 15641 0482 6C765F74 		.ascii	"lv_ta_create\000"
 15641      615F6372 
 15641      65617465 
 15641      00
 15642              	.LASF495:
 15643 048f 6C765F74 		.ascii	"lv_ta_cursor_down\000"
 15643      615F6375 
 15643      72736F72 
 15643      5F646F77 
 15643      6E00
 15644              	.LASF483:
 15645 04a1 6C765F74 		.ascii	"lv_ta_get_pwd_mode\000"
 15645      615F6765 
 15645      745F7077 
 15645      645F6D6F 
 15645      646500
 15646              	.LASF369:
 15647 04b4 706C6163 		.ascii	"placeholder\000"
 15647      65686F6C 
 15647      64657200 
 15648              	.LASF443:
 15649 04c0 6C765F74 		.ascii	"lv_ta_add_char\000"
 15649      615F6164 
 15649      645F6368 
 15649      617200
 15650              	.LASF420:
 15651 04cf 74696C65 		.ascii	"tileview\000"
 15651      76696577 
 15651      00
 15652              	.LASF465:
 15653 04d8 7374796C 		.ascii	"style_ta\000"
 15653      655F7461 
 15653      00
 15654              	.LASF303:
 15655 04e1 4C565F4B 		.ascii	"LV_KEY_DEL\000"
 15655      45595F44 
 15655      454C00
 15656              	.LASF342:
 15657 04ec 4C565F54 		.ascii	"LV_TXT_FLAG_RIGHT\000"
ARM GAS  C:\Users\tmj32\AppData\Local\Temp\ccI3WYuM.s 			page 337


 15657      58545F46 
 15657      4C41475F 
 15657      52494748 
 15657      5400
 15658              	.LASF427:
 15659 04fe 61726561 		.ascii	"area_p\000"
 15659      5F7000
 15660              	.LASF505:
 15661 0505 6C765F74 		.ascii	"lv_ta_signal\000"
 15661      615F7369 
 15661      676E616C 
 15661      00
 15662              	.LASF113:
 15663 0512 68656164 		.ascii	"head\000"
 15663      00
 15664              	.LASF438:
 15665 0517 6E65775F 		.ascii	"new_ta\000"
 15665      746100
 15666              	.LASF190:
 15667 051e 72656164 		.ascii	"read_cb\000"
 15667      5F636200 
 15668              	.LASF411:
 15669 0526 63686172 		.ascii	"chart\000"
 15669      7400
 15670              	.LASF205:
 15671 052c 6C617374 		.ascii	"last_pressed\000"
 15671      5F707265 
 15671      73736564 
 15671      00
 15672              	.LASF413:
 15673 0539 62746E6D 		.ascii	"btnm\000"
 15673      00
 15674              	.LASF339:
 15675 053e 4C565F54 		.ascii	"LV_TXT_FLAG_RECOLOR\000"
 15675      58545F46 
 15675      4C41475F 
 15675      5245434F 
 15675      4C4F5200 
 15676              	.LASF331:
 15677 0552 7363726F 		.ascii	"scroll_prop\000"
 15677      6C6C5F70 
 15677      726F7000 
 15678              	.LASF301:
 15679 055e 4C565F4B 		.ascii	"LV_KEY_LEFT\000"
 15679      45595F4C 
 15679      45465400 
 15680              	.LASF140:
 15681 056a 7365745F 		.ascii	"set_px_cb\000"
 15681      70785F63 
 15681      6200
 15682              	.LASF2:
 15683 0574 7369676E 		.ascii	"signed char\000"
 15683      65642063 
 15683      68617200 
 15684              	.LASF16:
 15685 0580 75696E74 		.ascii	"uint8_t\000"
 15685      385F7400 
ARM GAS  C:\Users\tmj32\AppData\Local\Temp\ccI3WYuM.s 			page 338


 15686              	.LASF134:
 15687 0588 686F725F 		.ascii	"hor_res\000"
 15687      72657300 
 15688              	.LASF400:
 15689 0590 746F6461 		.ascii	"today_box\000"
 15689      795F626F 
 15689      7800
 15690              	.LASF314:
 15691 059a 4C565F53 		.ascii	"LV_SB_MODE_HIDE\000"
 15691      425F4D4F 
 15691      44455F48 
 15691      49444500 
 15692              	.LASF384:
 15693 05aa 74676C5F 		.ascii	"tgl_pr\000"
 15693      707200
 15694              	.LASF295:
 15695 05b1 6669745F 		.ascii	"fit_top\000"
 15695      746F7000 
 15696              	.LASF31:
 15697 05b9 6765745F 		.ascii	"get_glyph_bitmap\000"
 15697      676C7970 
 15697      685F6269 
 15697      746D6170 
 15697      00
 15698              	.LASF328:
 15699 05ca 7363726C 		.ascii	"scrl\000"
 15699      00
 15700              	.LASF49:
 15701 05cf 626C7565 		.ascii	"blue\000"
 15701      00
 15702              	.LASF267:
 15703 05d4 4C565F53 		.ascii	"LV_SIGNAL_LONG_PRESS_REP\000"
 15703      49474E41 
 15703      4C5F4C4F 
 15703      4E475F50 
 15703      52455353 
 15704              	.LASF344:
 15705 05ed 4C565F4C 		.ascii	"LV_LABEL_LONG_BREAK\000"
 15705      4142454C 
 15705      5F4C4F4E 
 15705      475F4252 
 15705      45414B00 
 15706              	.LASF3:
 15707 0601 756E7369 		.ascii	"unsigned char\000"
 15707      676E6564 
 15707      20636861 
 15707      7200
 15708              	.LASF149:
 15709 060f 746F705F 		.ascii	"top_layer\000"
 15709      6C617965 
 15709      7200
 15710              	.LASF351:
 15711 0619 4C565F4C 		.ascii	"LV_LABEL_ALIGN_RIGHT\000"
 15711      4142454C 
 15711      5F414C49 
 15711      474E5F52 
 15711      49474854 
ARM GAS  C:\Users\tmj32\AppData\Local\Temp\ccI3WYuM.s 			page 339


 15712              	.LASF260:
 15713 062e 4C565F53 		.ascii	"LV_SIGNAL_REFR_EXT_DRAW_PAD\000"
 15713      49474E41 
 15713      4C5F5245 
 15713      46525F45 
 15713      58545F44 
 15714              	.LASF170:
 15715 064a 64726167 		.ascii	"drag_dir\000"
 15715      5F646972 
 15715      00
 15716              	.LASF454:
 15717 0653 6C616265 		.ascii	"label_par\000"
 15717      6C5F7061 
 15717      7200
 15718              	.LASF121:
 15719 065d 7461736B 		.ascii	"task_cb\000"
 15719      5F636200 
 15720              	.LASF393:
 15721 0665 6B6E6F62 		.ascii	"knob_on\000"
 15721      5F6F6E00 
 15722              	.LASF27:
 15723 066d 6F66735F 		.ascii	"ofs_x\000"
 15723      7800
 15724              	.LASF28:
 15725 0673 6F66735F 		.ascii	"ofs_y\000"
 15725      7900
 15726              	.LASF304:
 15727 0679 4C565F4B 		.ascii	"LV_KEY_BACKSPACE\000"
 15727      45595F42 
 15727      41434B53 
 15727      50414345 
 15727      00
 15728              	.LASF394:
 15729 068a 68656164 		.ascii	"header\000"
 15729      657200
 15730              	.LASF446:
 15731 0691 6375725F 		.ascii	"cur_pos\000"
 15731      706F7300 
 15732              	.LASF34:
 15733 0699 5F426F6F 		.ascii	"_Bool\000"
 15733      6C00
 15734              	.LASF373:
 15735 069f 7077645F 		.ascii	"pwd_show_time\000"
 15735      73686F77 
 15735      5F74696D 
 15735      6500
 15736              	.LASF275:
 15737 06ad 6C765F73 		.ascii	"lv_signal_cb_t\000"
 15737      69676E61 
 15737      6C5F6362 
 15737      5F7400
 15738              	.LASF421:
 15739 06bc 7461626C 		.ascii	"table\000"
 15739      6500
 15740              	.LASF152:
 15741 06c2 696E765F 		.ascii	"inv_area_joined\000"
 15741      61726561 
ARM GAS  C:\Users\tmj32\AppData\Local\Temp\ccI3WYuM.s 			page 340


 15741      5F6A6F69 
 15741      6E656400 
 15742              	.LASF510:
 15743 06d2 63757273 		.ascii	"cursor_blink_anim\000"
 15743      6F725F62 
 15743      6C696E6B 
 15743      5F616E69 
 15743      6D00
 15744              	.LASF333:
 15745 06e4 6C765F70 		.ascii	"lv_page_ext_t\000"
 15745      6167655F 
 15745      6578745F 
 15745      7400
 15746              	.LASF57:
 15747 06f2 63686172 		.ascii	"char\000"
 15747      00
 15748              	.LASF185:
 15749 06f7 62746E5F 		.ascii	"btn_id\000"
 15749      696400
 15750              	.LASF429:
 15751 06fe 6C765F61 		.ascii	"lv_area_copy\000"
 15751      7265615F 
 15751      636F7079 
 15751      00
 15752              	.LASF61:
 15753 070b 6C765F61 		.ascii	"lv_anim_exec_xcb_t\000"
 15753      6E696D5F 
 15753      65786563 
 15753      5F786362 
 15753      5F7400
 15754              	.LASF228:
 15755 071e 4C565F44 		.ascii	"LV_DESIGN_DRAW_POST\000"
 15755      45534947 
 15755      4E5F4452 
 15755      41575F50 
 15755      4F535400 
 15756              	.LASF103:
 15757 0732 626F6479 		.ascii	"body\000"
 15757      00
 15758              	.LASF330:
 15759 0737 616E696D 		.ascii	"anim_time\000"
 15759      5F74696D 
 15759      6500
 15760              	.LASF202:
 15761 0741 64726167 		.ascii	"drag_throw_vect\000"
 15761      5F746872 
 15761      6F775F76 
 15761      65637400 
 15762              	.LASF458:
 15763 0751 6C765F74 		.ascii	"lv_ta_set_cursor_type\000"
 15763      615F7365 
 15763      745F6375 
 15763      72736F72 
 15763      5F747970 
 15764              	.LASF456:
 15765 0767 74615F63 		.ascii	"ta_cords\000"
 15765      6F726473 
ARM GAS  C:\Users\tmj32\AppData\Local\Temp\ccI3WYuM.s 			page 341


 15765      00
 15766              	.LASF327:
 15767 0770 6C656674 		.ascii	"left_ip\000"
 15767      5F697000 
 15768              	.LASF118:
 15769 0778 5F6C765F 		.ascii	"_lv_task_t\000"
 15769      7461736B 
 15769      5F7400
 15770              	.LASF6:
 15771 0783 5F5F7569 		.ascii	"__uint16_t\000"
 15771      6E743136 
 15771      5F7400
 15772              	.LASF399:
 15773 078e 7765656B 		.ascii	"week_box\000"
 15773      5F626F78 
 15773      00
 15774              	.LASF347:
 15775 0797 4C565F4C 		.ascii	"LV_LABEL_LONG_SROLL_CIRC\000"
 15775      4142454C 
 15775      5F4C4F4E 
 15775      475F5352 
 15775      4F4C4C5F 
 15776              	.LASF461:
 15777 07b0 6C765F74 		.ascii	"lv_ta_set_pwd_mode\000"
 15777      615F7365 
 15777      745F7077 
 15777      645F6D6F 
 15777      646500
 15778              	.LASF431:
 15779 07c3 6C765F70 		.ascii	"lv_page_set_scrl_fit2\000"
 15779      6167655F 
 15779      7365745F 
 15779      7363726C 
 15779      5F666974 
 15780              	.LASF313:
 15781 07d9 4C565F53 		.ascii	"LV_SB_MODE_AUTO\000"
 15781      425F4D4F 
 15781      44455F41 
 15781      55544F00 
 15782              	.LASF60:
 15783 07e9 6C765F61 		.ascii	"lv_anim_value_t\000"
 15783      6E696D5F 
 15783      76616C75 
 15783      655F7400 
 15784              	.LASF374:
 15785 07f9 7077645F 		.ascii	"pwd_mode\000"
 15785      6D6F6465 
 15785      00
 15786              	.LASF229:
 15787 0802 4C565F44 		.ascii	"LV_DESIGN_COVER_CHK\000"
 15787      45534947 
 15787      4E5F434F 
 15787      5645525F 
 15787      43484B00 
 15788              	.LASF356:
 15789 0816 4C565F43 		.ascii	"LV_CURSOR_NONE\000"
 15789      5552534F 
ARM GAS  C:\Users\tmj32\AppData\Local\Temp\ccI3WYuM.s 			page 342


 15789      525F4E4F 
 15789      4E4500
 15790              	.LASF222:
 15791 0825 70726F63 		.ascii	"proc\000"
 15791      00
 15792              	.LASF363:
 15793 082a 76616C69 		.ascii	"valid_x\000"
 15793      645F7800 
 15794              	.LASF160:
 15795 0832 64657369 		.ascii	"design_cb\000"
 15795      676E5F63 
 15795      6200
 15796              	.LASF493:
 15797 083c 6C765F74 		.ascii	"lv_ta_cursor_right\000"
 15797      615F6375 
 15797      72736F72 
 15797      5F726967 
 15797      687400
 15798              	.LASF338:
 15799 084f 4C565F54 		.ascii	"LV_TXT_FLAG_NONE\000"
 15799      58545F46 
 15799      4C41475F 
 15799      4E4F4E45 
 15799      00
 15800              	.LASF468:
 15801 0860 6C765F74 		.ascii	"lv_ta_set_text_align\000"
 15801      615F7365 
 15801      745F7465 
 15801      78745F61 
 15801      6C69676E 
 15802              	.LASF253:
 15803 0875 6C765F65 		.ascii	"lv_event_cb_t\000"
 15803      76656E74 
 15803      5F63625F 
 15803      7400
 15804              	.LASF131:
 15805 0883 666C7573 		.ascii	"flushing\000"
 15805      68696E67 
 15805      00
 15806              	.LASF453:
 15807 088c 6C765F74 		.ascii	"lv_ta_set_cursor_pos\000"
 15807      615F7365 
 15807      745F6375 
 15807      72736F72 
 15807      5F706F73 
 15808              	.LASF271:
 15809 08a1 4C565F53 		.ascii	"LV_SIGNAL_DEFOCUS\000"
 15809      49474E41 
 15809      4C5F4445 
 15809      464F4355 
 15809      5300
 15810              	.LASF244:
 15811 08b3 4C565F45 		.ascii	"LV_EVENT_FOCUSED\000"
 15811      56454E54 
 15811      5F464F43 
 15811      55534544 
 15811      00
ARM GAS  C:\Users\tmj32\AppData\Local\Temp\ccI3WYuM.s 			page 343


 15812              	.LASF417:
 15813 08c4 64646C69 		.ascii	"ddlist\000"
 15813      737400
 15814              	.LASF66:
 15815 08cb 72656164 		.ascii	"ready_cb\000"
 15815      795F6362 
 15815      00
 15816              	.LASF104:
 15817 08d4 74657874 		.ascii	"text\000"
 15817      00
 15818              	.LASF430:
 15819 08d9 6C765F63 		.ascii	"lv_cont_set_fit2\000"
 15819      6F6E745F 
 15819      7365745F 
 15819      66697432 
 15819      00
 15820              	.LASF210:
 15821 08ea 706F696E 		.ascii	"pointer\000"
 15821      74657200 
 15822              	.LASF531:
 15823 08f2 706F696E 		.ascii	"point_act\000"
 15823      745F6163 
 15823      7400
 15824              	.LASF467:
 15825 08fc 7374796C 		.ascii	"style_label\000"
 15825      655F6C61 
 15825      62656C00 
 15826              	.LASF366:
 15827 0908 636C6963 		.ascii	"click_pos\000"
 15827      6B5F706F 
 15827      7300
 15828              	.LASF442:
 15829 0912 65646765 		.ascii	"edge_flash_en\000"
 15829      5F666C61 
 15829      73685F65 
 15829      6E00
 15830              	.LASF240:
 15831 0920 4C565F45 		.ascii	"LV_EVENT_DRAG_BEGIN\000"
 15831      56454E54 
 15831      5F445241 
 15831      475F4245 
 15831      47494E00 
 15832              	.LASF105:
 15833 0934 696D6167 		.ascii	"image\000"
 15833      6500
 15834              	.LASF101:
 15835 093a 726F756E 		.ascii	"rounded\000"
 15835      64656400 
 15836              	.LASF165:
 15837 0942 64726167 		.ascii	"drag_throw\000"
 15837      5F746872 
 15837      6F7700
 15838              	.LASF183:
 15839 094d 6C765F69 		.ascii	"lv_indev_state_t\000"
 15839      6E646576 
 15839      5F737461 
 15839      74655F74 
ARM GAS  C:\Users\tmj32\AppData\Local\Temp\ccI3WYuM.s 			page 344


 15839      00
 15840              	.LASF116:
 15841 095e 6C765F62 		.ascii	"lv_bidi_dir_t\000"
 15841      6964695F 
 15841      6469725F 
 15841      7400
 15842              	.LASF175:
 15843 096c 6578745F 		.ascii	"ext_draw_pad\000"
 15843      64726177 
 15843      5F706164 
 15843      00
 15844              	.LASF472:
 15845 0979 6C765F74 		.ascii	"lv_ta_set_style\000"
 15845      615F7365 
 15845      745F7374 
 15845      796C6500 
 15846              	.LASF196:
 15847 0989 6C6F6E67 		.ascii	"long_press_rep_time\000"
 15847      5F707265 
 15847      73735F72 
 15847      65705F74 
 15847      696D6500 
 15848              	.LASF59:
 15849 099d 6C765F61 		.ascii	"lv_area_t\000"
 15849      7265615F 
 15849      7400
 15850              	.LASF460:
 15851 09a7 6C765F74 		.ascii	"lv_ta_set_cursor_click_pos\000"
 15851      615F7365 
 15851      745F6375 
 15851      72736F72 
 15851      5F636C69 
 15852              	.LASF517:
 15853 09c2 63686172 		.ascii	"char_is_accepted\000"
 15853      5F69735F 
 15853      61636365 
 15853      70746564 
 15853      00
 15854              	.LASF136:
 15855 09d3 62756666 		.ascii	"buffer\000"
 15855      657200
 15856              	.LASF370:
 15857 09da 7077645F 		.ascii	"pwd_tmp\000"
 15857      746D7000 
 15858              	.LASF336:
 15859 09e2 4C565F50 		.ascii	"LV_PAGE_STYLE_SB\000"
 15859      4147455F 
 15859      5354594C 
 15859      455F5342 
 15859      00
 15860              	.LASF238:
 15861 09f3 4C565F45 		.ascii	"LV_EVENT_CLICKED\000"
 15861      56454E54 
 15861      5F434C49 
 15861      434B4544 
 15861      00
 15862              	.LASF320:
ARM GAS  C:\Users\tmj32\AppData\Local\Temp\ccI3WYuM.s 			page 345


 15863 0a04 686F725F 		.ascii	"hor_draw\000"
 15863      64726177 
 15863      00
 15864              	.LASF341:
 15865 0a0d 4C565F54 		.ascii	"LV_TXT_FLAG_CENTER\000"
 15865      58545F46 
 15865      4C41475F 
 15865      43454E54 
 15865      455200
 15866              	.LASF87:
 15867 0a20 6C656674 		.ascii	"left\000"
 15867      00
 15868              	.LASF181:
 15869 0a25 4C565F49 		.ascii	"LV_INDEV_TYPE_ENCODER\000"
 15869      4E444556 
 15869      5F545950 
 15869      455F454E 
 15869      434F4445 
 15870              	.LASF78:
 15871 0a3b 6C765F61 		.ascii	"lv_anim_ready_cb_t\000"
 15871      6E696D5F 
 15871      72656164 
 15871      795F6362 
 15871      5F7400
 15872              	.LASF249:
 15873 0a4e 4C565F45 		.ascii	"LV_EVENT_APPLY\000"
 15873      56454E54 
 15873      5F415050 
 15873      4C5900
 15874              	.LASF176:
 15875 0a5d 7265616C 		.ascii	"realign\000"
 15875      69676E00 
 15876              	.LASF434:
 15877 0a65 6C765F74 		.ascii	"lv_ta_set_sb_mode\000"
 15877      615F7365 
 15877      745F7362 
 15877      5F6D6F64 
 15877      6500
 15878              	.LASF242:
 15879 0a77 4C565F45 		.ascii	"LV_EVENT_DRAG_THROW_BEGIN\000"
 15879      56454E54 
 15879      5F445241 
 15879      475F5448 
 15879      524F575F 
 15880              	.LASF226:
 15881 0a91 6C765F69 		.ascii	"lv_indev_t\000"
 15881      6E646576 
 15881      5F7400
 15882              	.LASF225:
 15883 0a9c 62746E5F 		.ascii	"btn_points\000"
 15883      706F696E 
 15883      747300
 15884              	.LASF481:
 15885 0aa7 6C765F74 		.ascii	"lv_ta_get_cursor_type\000"
 15885      615F6765 
 15885      745F6375 
 15885      72736F72 
ARM GAS  C:\Users\tmj32\AppData\Local\Temp\ccI3WYuM.s 			page 346


 15885      5F747970 
 15886              	.LASF261:
 15887 0abd 4C565F53 		.ascii	"LV_SIGNAL_GET_TYPE\000"
 15887      49474E41 
 15887      4C5F4745 
 15887      545F5459 
 15887      504500
 15888              	.LASF219:
 15889 0ad0 77616974 		.ascii	"wait_until_release\000"
 15889      5F756E74 
 15889      696C5F72 
 15889      656C6561 
 15889      736500
 15890              	.LASF401:
 15891 0ae3 6F6E656C 		.ascii	"oneline\000"
 15891      696E6500 
 15892              	.LASF130:
 15893 0aeb 61726561 		.ascii	"area\000"
 15893      00
 15894              	.LASF332:
 15895 0af0 7363726F 		.ascii	"scroll_prop_ip\000"
 15895      6C6C5F70 
 15895      726F705F 
 15895      697000
 15896              	.LASF512:
 15897 0aff 61726561 		.ascii	"area_tmp\000"
 15897      5F746D70 
 15897      00
 15898              	.LASF209:
 15899 0b08 6C617374 		.ascii	"last_key\000"
 15899      5F6B6579 
 15899      00
 15900              	.LASF323:
 15901 0b11 656E6162 		.ascii	"enabled\000"
 15901      6C656400 
 15902              	.LASF107:
 15903 0b19 6C765F73 		.ascii	"lv_style_t\000"
 15903      74796C65 
 15903      5F7400
 15904              	.LASF89:
 15905 0b24 696E6E65 		.ascii	"inner\000"
 15905      7200
 15906              	.LASF218:
 15907 0b2a 64697361 		.ascii	"disabled\000"
 15907      626C6564 
 15907      00
 15908              	.LASF521:
 15909 0b33 72656672 		.ascii	"refr_cursor_area\000"
 15909      5F637572 
 15909      736F725F 
 15909      61726561 
 15909      00
 15910              	.LASF79:
 15911 0b44 6C765F61 		.ascii	"lv_anim_t\000"
 15911      6E696D5F 
 15911      7400
 15912              	.LASF288:
ARM GAS  C:\Users\tmj32\AppData\Local\Temp\ccI3WYuM.s 			page 347


 15913 0b4e 4C565F46 		.ascii	"LV_FIT_FLOOD\000"
 15913      49545F46 
 15913      4C4F4F44 
 15913      00
 15914              	.LASF11:
 15915 0b5b 6C6F6E67 		.ascii	"long unsigned int\000"
 15915      20756E73 
 15915      69676E65 
 15915      6420696E 
 15915      7400
 15916              	.LASF308:
 15917 0b6d 4C565F4B 		.ascii	"LV_KEY_HOME\000"
 15917      45595F48 
 15917      4F4D4500 
 15918              	.LASF471:
 15919 0b79 6C765F74 		.ascii	"lv_ta_set_insert_replace\000"
 15919      615F7365 
 15919      745F696E 
 15919      73657274 
 15919      5F726570 
 15920              	.LASF386:
 15921 0b92 68696E74 		.ascii	"hint\000"
 15921      00
 15922              	.LASF507:
 15923 0b97 70617261 		.ascii	"param\000"
 15923      6D00
 15924              	.LASF508:
 15925 0b9d 65646974 		.ascii	"editable\000"
 15925      61626C65 
 15925      00
 15926              	.LASF525:
 15927 0ba6 6C657474 		.ascii	"letter_pos\000"
 15927      65725F70 
 15927      6F7300
 15928              	.LASF106:
 15929 0bb1 6C696E65 		.ascii	"line\000"
 15929      00
 15930              	.LASF372:
 15931 0bb6 6D61785F 		.ascii	"max_length\000"
 15931      6C656E67 
 15931      746800
 15932              	.LASF270:
 15933 0bc1 4C565F53 		.ascii	"LV_SIGNAL_FOCUS\000"
 15933      49474E41 
 15933      4C5F464F 
 15933      43555300 
 15934              	.LASF37:
 15935 0bd1 4C565F4F 		.ascii	"LV_OPA_0\000"
 15935      50415F30 
 15935      00
 15936              	.LASF407:
 15937 0bda 736C6964 		.ascii	"slider\000"
 15937      657200
 15938              	.LASF340:
 15939 0be1 4C565F54 		.ascii	"LV_TXT_FLAG_EXPAND\000"
 15939      58545F46 
 15939      4C41475F 
ARM GAS  C:\Users\tmj32\AppData\Local\Temp\ccI3WYuM.s 			page 348


 15939      45585041 
 15939      4E4400
 15940              	.LASF482:
 15941 0bf4 6C765F74 		.ascii	"lv_ta_get_cursor_click_pos\000"
 15941      615F6765 
 15941      745F6375 
 15941      72736F72 
 15941      5F636C69 
 15942              	.LASF248:
 15943 0c0f 4C565F45 		.ascii	"LV_EVENT_REFRESH\000"
 15943      56454E54 
 15943      5F524546 
 15943      52455348 
 15943      00
 15944              	.LASF441:
 15945 0c20 635F756E 		.ascii	"c_uni\000"
 15945      6900
 15946              	.LASF133:
 15947 0c26 5F646973 		.ascii	"_disp_drv_t\000"
 15947      705F6472 
 15947      765F7400 
 15948              	.LASF224:
 15949 0c32 67726F75 		.ascii	"group\000"
 15949      7000
 15950              	.LASF459:
 15951 0c38 6375725F 		.ascii	"cur_type\000"
 15951      74797065 
 15951      00
 15952              	.LASF437:
 15953 0c41 636F7079 		.ascii	"copy\000"
 15953      00
 15954              	.LASF198:
 15955 0c46 6163745F 		.ascii	"act_point\000"
 15955      706F696E 
 15955      7400
 15956              	.LASF466:
 15957 0c50 7374796C 		.ascii	"style_scrl\000"
 15957      655F7363 
 15957      726C00
 15958              	.LASF204:
 15959 0c5b 6C617374 		.ascii	"last_obj\000"
 15959      5F6F626A 
 15959      00
 15960              	.LASF182:
 15961 0c64 6C765F69 		.ascii	"lv_indev_type_t\000"
 15961      6E646576 
 15961      5F747970 
 15961      655F7400 
 15962              	.LASF273:
 15963 0c74 4C565F53 		.ascii	"LV_SIGNAL_GET_EDITABLE\000"
 15963      49474E41 
 15963      4C5F4745 
 15963      545F4544 
 15963      49544142 
 15964              	.LASF549:
 15965 0c8b 2E2E5C2E 		.ascii	"..\\..\\..\\lvgl\\version_6.1.2\\lvgl\\src\\lv_objx"
 15965      2E5C2E2E 
ARM GAS  C:\Users\tmj32\AppData\Local\Temp\ccI3WYuM.s 			page 349


 15965      5C6C7667 
 15965      6C5C7665 
 15965      7273696F 
 15966 0cb7 5C6C765F 		.ascii	"\\lv_ta.c\000"
 15966      74612E63 
 15966      00
 15967              	.LASF354:
 15968 0cc0 4C565F4C 		.ascii	"LV_LABEL_STYLE_MAIN\000"
 15968      4142454C 
 15968      5F535459 
 15968      4C455F4D 
 15968      41494E00 
 15969              	.LASF132:
 15970 0cd4 6C765F64 		.ascii	"lv_disp_buf_t\000"
 15970      6973705F 
 15970      6275665F 
 15970      7400
 15971              	.LASF180:
 15972 0ce2 4C565F49 		.ascii	"LV_INDEV_TYPE_BUTTON\000"
 15972      4E444556 
 15972      5F545950 
 15972      455F4255 
 15972      54544F4E 
 15973              	.LASF10:
 15974 0cf7 5F5F7569 		.ascii	"__uint32_t\000"
 15974      6E743332 
 15974      5F7400
 15975              	.LASF158:
 15976 0d02 6576656E 		.ascii	"event_cb\000"
 15976      745F6362 
 15976      00
 15977              	.LASF88:
 15978 0d0b 72696768 		.ascii	"right\000"
 15978      7400
 15979              	.LASF162:
 15980 0d11 7374796C 		.ascii	"style_p\000"
 15980      655F7000 
 15981              	.LASF12:
 15982 0d19 6C6F6E67 		.ascii	"long long int\000"
 15982      206C6F6E 
 15982      6720696E 
 15982      7400
 15983              	.LASF550:
 15984 0d27 433A5C55 		.ascii	"C:\\Users\\tmj32\\Documents\\TCNJ\\Senior_Project\\"
 15984      73657273 
 15984      5C746D6A 
 15984      33325C44 
 15984      6F63756D 
 15985 0d54 4F736369 		.ascii	"Oscilloscope_Senior_Project\\tcom_engineering\\embe"
 15985      6C6C6F73 
 15985      636F7065 
 15985      5F53656E 
 15985      696F725F 
 15986 0d85 645F7377 		.ascii	"d_sw\\tcom_app\\tcom_app_psoc6_lvgl6\\tcom_displ_te"
 15986      5C74636F 
 15986      6D5F6170 
 15986      705C7463 
ARM GAS  C:\Users\tmj32\AppData\Local\Temp\ccI3WYuM.s 			page 350


 15986      6F6D5F61 
 15987 0db5 73745F70 		.ascii	"st_psoc6.cydsn\000"
 15987      736F6336 
 15987      2E637964 
 15987      736E00
 15988              	.LASF487:
 15989 0dc4 6C765F74 		.ascii	"lv_ta_get_style\000"
 15989      615F6765 
 15989      745F7374 
 15989      796C6500 
 15990              	.LASF83:
 15991 0dd4 77696474 		.ascii	"width\000"
 15991      6800
 15992              	.LASF272:
 15993 0dda 4C565F53 		.ascii	"LV_SIGNAL_CONTROL\000"
 15993      49474E41 
 15993      4C5F434F 
 15993      4E54524F 
 15993      4C00
 15994              	.LASF86:
 15995 0dec 626F7474 		.ascii	"bottom\000"
 15995      6F6D00
 15996              	.LASF156:
 15997 0df3 6368696C 		.ascii	"child_ll\000"
 15997      645F6C6C 
 15997      00
 15998              	.LASF390:
 15999 0dfc 696E6469 		.ascii	"indic\000"
 15999      6300
 16000              	.LASF173:
 16001 0e02 70726F74 		.ascii	"protect\000"
 16001      65637400 
 16002              	.LASF126:
 16003 0e0a 62756631 		.ascii	"buf1\000"
 16003      00
 16004              	.LASF127:
 16005 0e0f 62756632 		.ascii	"buf2\000"
 16005      00
 16006              	.LASF310:
 16007 0e14 4C565F53 		.ascii	"LV_SB_MODE_OFF\000"
 16007      425F4D4F 
 16007      44455F4F 
 16007      464600
 16008              	.LASF199:
 16009 0e23 6C617374 		.ascii	"last_point\000"
 16009      5F706F69 
 16009      6E7400
 16010              	.LASF491:
 16011 0e2e 6C765F74 		.ascii	"lv_ta_get_cursor_blink_time\000"
 16011      615F6765 
 16011      745F6375 
 16011      72736F72 
 16011      5F626C69 
 16012              	.LASF203:
 16013 0e4a 6163745F 		.ascii	"act_obj\000"
 16013      6F626A00 
 16014              	.LASF462:
ARM GAS  C:\Users\tmj32\AppData\Local\Temp\ccI3WYuM.s 			page 351


 16015 0e52 656E636F 		.ascii	"encoded_len\000"
 16015      6465645F 
 16015      6C656E00 
 16016              	.LASF292:
 16017 0e5e 6C61796F 		.ascii	"layout\000"
 16017      757400
 16018              	.LASF501:
 16019 0e65 6D61736B 		.ascii	"mask\000"
 16019      00
 16020              	.LASF419:
 16021 0e6a 74616276 		.ascii	"tabview\000"
 16021      69657700 
 16022              	.LASF169:
 16023 0e72 70617265 		.ascii	"parent_event\000"
 16023      6E745F65 
 16023      76656E74 
 16023      00
 16024              	.LASF254:
 16025 0e7f 4C565F53 		.ascii	"LV_SIGNAL_CLEANUP\000"
 16025      49474E41 
 16025      4C5F434C 
 16025      45414E55 
 16025      5000
 16026              	.LASF360:
 16027 0e91 4C565F43 		.ascii	"LV_CURSOR_UNDERLINE\000"
 16027      5552534F 
 16027      525F554E 
 16027      4445524C 
 16027      494E4500 
 16028              	.LASF280:
 16029 0ea5 616C6967 		.ascii	"align\000"
 16029      6E00
 16030              	.LASF36:
 16031 0eab 4C565F4F 		.ascii	"LV_OPA_TRANSP\000"
 16031      50415F54 
 16031      52414E53 
 16031      5000
 16032              	.LASF520:
 16033 0eb9 636C765F 		.ascii	"clv_color_tmp\000"
 16033      636F6C6F 
 16033      725F746D 
 16033      7000
 16034              	.LASF102:
 16035 0ec7 676C6173 		.ascii	"glass\000"
 16035      7300
 16036              	.LASF545:
 16037 0ecd 6C765F74 		.ascii	"lv_txt_encoded_next\000"
 16037      78745F65 
 16037      6E636F64 
 16037      65645F6E 
 16037      65787400 
 16038              	.LASF346:
 16039 0ee1 4C565F4C 		.ascii	"LV_LABEL_LONG_SROLL\000"
 16039      4142454C 
 16039      5F4C4F4E 
 16039      475F5352 
 16039      4F4C4C00 
ARM GAS  C:\Users\tmj32\AppData\Local\Temp\ccI3WYuM.s 			page 352


 16040              	.LASF509:
 16041 0ef5 6C765F74 		.ascii	"lv_ta_scrollable_signal\000"
 16041      615F7363 
 16041      726F6C6C 
 16041      61626C65 
 16041      5F736967 
 16042              	.LASF251:
 16043 0f0d 4C565F45 		.ascii	"LV_EVENT_DELETE\000"
 16043      56454E54 
 16043      5F44454C 
 16043      45544500 
 16044              	.LASF297:
 16045 0f1d 6C765F63 		.ascii	"lv_cont_ext_t\000"
 16045      6F6E745F 
 16045      6578745F 
 16045      7400
 16046              	.LASF14:
 16047 0f2b 756E7369 		.ascii	"unsigned int\000"
 16047      676E6564 
 16047      20696E74 
 16047      00
 16048              	.LASF255:
 16049 0f38 4C565F53 		.ascii	"LV_SIGNAL_CHILD_CHG\000"
 16049      49474E41 
 16049      4C5F4348 
 16049      494C445F 
 16049      43484700 
 16050              	.LASF77:
 16051 0f4c 6C765F61 		.ascii	"lv_anim_path_cb_t\000"
 16051      6E696D5F 
 16051      70617468 
 16051      5F63625F 
 16051      7400
 16052              	.LASF192:
 16053 0f5e 64697370 		.ascii	"disp\000"
 16053      00
 16054              	.LASF477:
 16055 0f63 6C765F74 		.ascii	"lv_ta_get_text\000"
 16055      615F6765 
 16055      745F7465 
 16055      787400
 16056              	.LASF488:
 16057 0f72 6C765F74 		.ascii	"lv_ta_text_is_selected\000"
 16057      615F7465 
 16057      78745F69 
 16057      735F7365 
 16057      6C656374 
 16058              	.LASF478:
 16059 0f89 6C765F74 		.ascii	"lv_ta_get_placeholder_text\000"
 16059      615F6765 
 16059      745F706C 
 16059      61636568 
 16059      6F6C6465 
 16060              	.LASF502:
 16061 0fa4 6C765F74 		.ascii	"lv_ta_scrollable_design\000"
 16061      615F7363 
 16061      726F6C6C 
ARM GAS  C:\Users\tmj32\AppData\Local\Temp\ccI3WYuM.s 			page 353


 16061      61626C65 
 16061      5F646573 
 16062              	.LASF364:
 16063 0fbc 626C696E 		.ascii	"blink_time\000"
 16063      6B5F7469 
 16063      6D6500
 16064              	.LASF186:
 16065 0fc7 656E635F 		.ascii	"enc_diff\000"
 16065      64696666 
 16065      00
 16066              	.LASF383:
 16067 0fd0 74676C5F 		.ascii	"tgl_rel\000"
 16067      72656C00 
 16068              	.LASF246:
 16069 0fd8 4C565F45 		.ascii	"LV_EVENT_VALUE_CHANGED\000"
 16069      56454E54 
 16069      5F56414C 
 16069      55455F43 
 16069      48414E47 
 16070              	.LASF151:
 16071 0fef 696E765F 		.ascii	"inv_areas\000"
 16071      61726561 
 16071      7300
 16072              	.LASF435:
 16073 0ff9 6C765F74 		.ascii	"lv_ta_set_edge_flash\000"
 16073      615F7365 
 16073      745F6564 
 16073      67655F66 
 16073      6C617368 
 16074              	.LASF281:
 16075 100e 6175746F 		.ascii	"auto_realign\000"
 16075      5F726561 
 16075      6C69676E 
 16075      00
 16076              	.LASF124:
 16077 101b 6F6E6365 		.ascii	"once\000"
 16077      00
 16078              	.LASF227:
 16079 1020 4C565F44 		.ascii	"LV_DESIGN_DRAW_MAIN\000"
 16079      45534947 
 16079      4E5F4452 
 16079      41575F4D 
 16079      41494E00 
 16080              	.LASF29:
 16081 1034 6C765F66 		.ascii	"lv_font_glyph_dsc_t\000"
 16081      6F6E745F 
 16081      676C7970 
 16081      685F6473 
 16081      635F7400 
 16082              	.LASF416:
 16083 1048 6C697374 		.ascii	"list\000"
 16083      00
 16084              	.LASF91:
 16085 104d 67726164 		.ascii	"grad_color\000"
 16085      5F636F6C 
 16085      6F7200
 16086              	.LASF293:
ARM GAS  C:\Users\tmj32\AppData\Local\Temp\ccI3WYuM.s 			page 354


 16087 1058 6669745F 		.ascii	"fit_left\000"
 16087      6C656674 
 16087      00
 16088              	.LASF233:
 16089 1061 4C565F45 		.ascii	"LV_EVENT_PRESSING\000"
 16089      56454E54 
 16089      5F505245 
 16089      5353494E 
 16089      4700
 16090              	.LASF367:
 16091 1073 70616765 		.ascii	"page\000"
 16091      00
 16092              	.LASF534:
 16093 1078 6C616265 		.ascii	"label_width\000"
 16093      6C5F7769 
 16093      64746800 
 16094              	.LASF144:
 16095 1084 5F646973 		.ascii	"_disp_t\000"
 16095      705F7400 
 16096              	.LASF392:
 16097 108c 6B6E6F62 		.ascii	"knob_off\000"
 16097      5F6F6666 
 16097      00
 16098              	.LASF409:
 16099 1095 67617567 		.ascii	"gauge\000"
 16099      6500
 16100              	.LASF306:
 16101 109b 4C565F4B 		.ascii	"LV_KEY_NEXT\000"
 16101      45595F4E 
 16101      45585400 
 16102              	.LASF450:
 16103 10a7 6C765F74 		.ascii	"lv_ta_del_char_forward\000"
 16103      615F6465 
 16103      6C5F6368 
 16103      61725F66 
 16103      6F727761 
 16104              	.LASF263:
 16105 10be 4C565F53 		.ascii	"LV_SIGNAL_PRESSING\000"
 16105      49474E41 
 16105      4C5F5052 
 16105      45535349 
 16105      4E4700
 16106              	.LASF47:
 16107 10d1 4C565F4F 		.ascii	"LV_OPA_100\000"
 16107      50415F31 
 16107      303000
 16108              	.LASF518:
 16109 10dc 6765745F 		.ascii	"get_cursor_style\000"
 16109      63757273 
 16109      6F725F73 
 16109      74796C65 
 16109      00
 16110              	.LASF237:
 16111 10ed 4C565F45 		.ascii	"LV_EVENT_LONG_PRESSED_REPEAT\000"
 16111      56454E54 
 16111      5F4C4F4E 
 16111      475F5052 
ARM GAS  C:\Users\tmj32\AppData\Local\Temp\ccI3WYuM.s 			page 355


 16111      45535345 
 16112              	.LASF494:
 16113 110a 6C765F74 		.ascii	"lv_ta_cursor_left\000"
 16113      615F6375 
 16113      72736F72 
 16113      5F6C6566 
 16113      7400
 16114              	.LASF311:
 16115 111c 4C565F53 		.ascii	"LV_SB_MODE_ON\000"
 16115      425F4D4F 
 16115      44455F4F 
 16115      4E00
 16116              	.LASF110:
 16117 112a 6C765F72 		.ascii	"lv_res_t\000"
 16117      65735F74 
 16117      00
 16118              	.LASF473:
 16119 1133 6C765F74 		.ascii	"lv_ta_set_text_sel\000"
 16119      615F7365 
 16119      745F7465 
 16119      78745F73 
 16119      656C00
 16120              	.LASF128:
 16121 1146 6275665F 		.ascii	"buf_act\000"
 16121      61637400 
 16122              	.LASF23:
 16123 114e 6C6F6E67 		.ascii	"long double\000"
 16123      20646F75 
 16123      626C6500 
 16124              	.LASF129:
 16125 115a 73697A65 		.ascii	"size\000"
 16125      00
 16126              	.LASF317:
 16127 115f 7374796C 		.ascii	"style\000"
 16127      6500
 16128              	.LASF200:
 16129 1165 76656374 		.ascii	"vect\000"
 16129      00
 16130              	.LASF161:
 16131 116a 6578745F 		.ascii	"ext_attr\000"
 16131      61747472 
 16131      00
 16132              	.LASF201:
 16133 1173 64726167 		.ascii	"drag_sum\000"
 16133      5F73756D 
 16133      00
 16134              	.LASF412:
 16135 117c 63616C65 		.ascii	"calendar\000"
 16135      6E646172 
 16135      00
 16136              	.LASF178:
 16137 1185 4C565F49 		.ascii	"LV_INDEV_TYPE_POINTER\000"
 16137      4E444556 
 16137      5F545950 
 16137      455F504F 
 16137      494E5445 
 16138              	.LASF214:
ARM GAS  C:\Users\tmj32\AppData\Local\Temp\ccI3WYuM.s 			page 356


 16139 119b 70725F74 		.ascii	"pr_timestamp\000"
 16139      696D6573 
 16139      74616D70 
 16139      00
 16140              	.LASF406:
 16141 11a8 696D6762 		.ascii	"imgbtn\000"
 16141      746E00
 16142              	.LASF230:
 16143 11af 6C765F64 		.ascii	"lv_design_mode_t\000"
 16143      65736967 
 16143      6E5F6D6F 
 16143      64655F74 
 16143      00
 16144              	.LASF72:
 16145 11c0 73756270 		.ascii	"subpx\000"
 16145      7800
 16146              	.LASF241:
 16147 11c6 4C565F45 		.ascii	"LV_EVENT_DRAG_END\000"
 16147      56454E54 
 16147      5F445241 
 16147      475F454E 
 16147      4400
 16148              	.LASF48:
 16149 11d8 4C565F4F 		.ascii	"LV_OPA_COVER\000"
 16149      50415F43 
 16149      4F564552 
 16149      00
 16150              	.LASF193:
 16151 11e5 72656164 		.ascii	"read_task\000"
 16151      5F746173 
 16151      6B00
 16152              	.LASF264:
 16153 11ef 4C565F53 		.ascii	"LV_SIGNAL_PRESS_LOST\000"
 16153      49474E41 
 16153      4C5F5052 
 16153      4553535F 
 16153      4C4F5354 
 16154              	.LASF469:
 16155 1204 6C765F74 		.ascii	"lv_ta_set_accepted_chars\000"
 16155      615F7365 
 16155      745F6163 
 16155      63657074 
 16155      65645F63 
 16156              	.LASF309:
 16157 121d 4C565F4B 		.ascii	"LV_KEY_END\000"
 16157      45595F45 
 16157      4E4400
 16158              	.LASF191:
 16159 1228 66656564 		.ascii	"feedback_cb\000"
 16159      6261636B 
 16159      5F636200 
 16160              	.LASF269:
 16161 1234 4C565F53 		.ascii	"LV_SIGNAL_DRAG_END\000"
 16161      49474E41 
 16161      4C5F4452 
 16161      41475F45 
 16161      4E4400
ARM GAS  C:\Users\tmj32\AppData\Local\Temp\ccI3WYuM.s 			page 357


 16162              	.LASF232:
 16163 1247 4C565F45 		.ascii	"LV_EVENT_PRESSED\000"
 16163      56454E54 
 16163      5F505245 
 16163      53534544 
 16163      00
 16164              	.LASF257:
 16165 1258 4C565F53 		.ascii	"LV_SIGNAL_PARENT_SIZE_CHG\000"
 16165      49474E41 
 16165      4C5F5041 
 16165      52454E54 
 16165      5F53495A 
 16166              	.LASF250:
 16167 1272 4C565F45 		.ascii	"LV_EVENT_CANCEL\000"
 16167      56454E54 
 16167      5F43414E 
 16167      43454C00 
 16168              	.LASF265:
 16169 1282 4C565F53 		.ascii	"LV_SIGNAL_RELEASED\000"
 16169      49474E41 
 16169      4C5F5245 
 16169      4C454153 
 16169      454400
 16170              	.LASF90:
 16171 1295 6D61696E 		.ascii	"main_color\000"
 16171      5F636F6C 
 16171      6F7200
 16172              	.LASF0:
 16173 12a0 5F5F696E 		.ascii	"__int8_t\000"
 16173      74385F74 
 16173      00
 16174              	.LASF212:
 16175 12a9 5F6C765F 		.ascii	"_lv_indev_proc_t\000"
 16175      696E6465 
 16175      765F7072 
 16175      6F635F74 
 16175      00
 16176              	.LASF274:
 16177 12ba 6C765F73 		.ascii	"lv_signal_t\000"
 16177      69676E61 
 16177      6C5F7400 
 16178              	.LASF76:
 16179 12c6 6861735F 		.ascii	"has_run\000"
 16179      72756E00 
 16180              	.LASF195:
 16181 12ce 6C6F6E67 		.ascii	"long_press_time\000"
 16181      5F707265 
 16181      73735F74 
 16181      696D6500 
 16182              	.LASF13:
 16183 12de 6C6F6E67 		.ascii	"long long unsigned int\000"
 16183      206C6F6E 
 16183      6720756E 
 16183      7369676E 
 16183      65642069 
 16184              	.LASF530:
 16185 12f5 6C616265 		.ascii	"label_coords\000"
ARM GAS  C:\Users\tmj32\AppData\Local\Temp\ccI3WYuM.s 			page 358


 16185      6C5F636F 
 16185      6F726473 
 16185      00
 16186              	.LASF378:
 16187 1302 4C565F54 		.ascii	"LV_TA_STYLE_SB\000"
 16187      415F5354 
 16187      594C455F 
 16187      534200
 16188              	.LASF18:
 16189 1311 75696E74 		.ascii	"uint16_t\000"
 16189      31365F74 
 16189      00
 16190              	.LASF109:
 16191 131a 4C565F52 		.ascii	"LV_RES_OK\000"
 16191      45535F4F 
 16191      4B00
 16192              	.LASF475:
 16193 1324 6C765F74 		.ascii	"lv_ta_set_cursor_blink_time\000"
 16193      615F7365 
 16193      745F6375 
 16193      72736F72 
 16193      5F626C69 
 16194              	.LASF120:
 16195 1340 6C617374 		.ascii	"last_run\000"
 16195      5F72756E 
 16195      00
 16196              	.LASF480:
 16197 1349 6C765F74 		.ascii	"lv_ta_get_cursor_pos\000"
 16197      615F6765 
 16197      745F6375 
 16197      72736F72 
 16197      5F706F73 
 16198              	.LASF319:
 16199 135e 7665725F 		.ascii	"ver_area\000"
 16199      61726561 
 16199      00
 16200              	.LASF398:
 16201 1367 696E6163 		.ascii	"inactive_days\000"
 16201      74697665 
 16201      5F646179 
 16201      7300
 16202              	.LASF54:
 16203 1375 6C765F63 		.ascii	"lv_color_t\000"
 16203      6F6C6F72 
 16203      5F7400
 16204              	.LASF538:
 16205 1380 616E6365 		.ascii	"ancestor_signal\000"
 16205      73746F72 
 16205      5F736967 
 16205      6E616C00 
 16206              	.LASF279:
 16207 1390 796F6673 		.ascii	"yofs\000"
 16207      00
 16208              	.LASF217:
 16209 1395 72657365 		.ascii	"reset_query\000"
 16209      745F7175 
 16209      65727900 
ARM GAS  C:\Users\tmj32\AppData\Local\Temp\ccI3WYuM.s 			page 359


 16210              	.LASF125:
 16211 13a1 6C765F74 		.ascii	"lv_task_t\000"
 16211      61736B5F 
 16211      7400
 16212              	.LASF428:
 16213 13ab 6C765F61 		.ascii	"lv_area_get_height\000"
 16213      7265615F 
 16213      6765745F 
 16213      68656967 
 16213      687400
 16214              	.LASF291:
 16215 13be 6C765F66 		.ascii	"lv_fit_t\000"
 16215      69745F74 
 16215      00
 16216              	.LASF516:
 16217 13c7 72656672 		.ascii	"refr\000"
 16217      00
 16218              	.LASF536:
 16219 13cc 616E6365 		.ascii	"ancestor_design\000"
 16219      73746F72 
 16219      5F646573 
 16219      69676E00 
 16220              	.LASF64:
 16221 13dc 65786563 		.ascii	"exec_cb\000"
 16221      5F636200 
 16222              	.LASF547:
 16223 13e4 6C765F74 		.ascii	"lv_txt_get_encoded_length\000"
 16223      78745F67 
 16223      65745F65 
 16223      6E636F64 
 16223      65645F6C 
 16224              	.LASF179:
 16225 13fe 4C565F49 		.ascii	"LV_INDEV_TYPE_KEYPAD\000"
 16225      4E444556 
 16225      5F545950 
 16225      455F4B45 
 16225      59504144 
 16226              	.LASF38:
 16227 1413 4C565F4F 		.ascii	"LV_OPA_10\000"
 16227      50415F31 
 16227      3000
 16228              	.LASF299:
 16229 141d 4C565F4B 		.ascii	"LV_KEY_DOWN\000"
 16229      45595F44 
 16229      4F574E00 
 16230              	.LASF296:
 16231 1429 6669745F 		.ascii	"fit_bottom\000"
 16231      626F7474 
 16231      6F6D00
 16232              	.LASF302:
 16233 1434 4C565F4B 		.ascii	"LV_KEY_ESC\000"
 16233      45595F45 
 16233      534300
 16234              	.LASF457:
 16235 143f 666F6E74 		.ascii	"font_h\000"
 16235      5F6800
 16236              	.LASF463:
ARM GAS  C:\Users\tmj32\AppData\Local\Temp\ccI3WYuM.s 			page 360


 16237 1446 6C765F74 		.ascii	"lv_ta_set_one_line\000"
 16237      615F7365 
 16237      745F6F6E 
 16237      655F6C69 
 16237      6E6500
 16238              	.LASF335:
 16239 1459 4C565F50 		.ascii	"LV_PAGE_STYLE_SCRL\000"
 16239      4147455F 
 16239      5354594C 
 16239      455F5343 
 16239      524C00
 16240              	.LASF486:
 16241 146c 6C765F74 		.ascii	"lv_ta_get_max_length\000"
 16241      615F6765 
 16241      745F6D61 
 16241      785F6C65 
 16241      6E677468 
 16242              	.LASF548:
 16243 1481 474E5520 		.ascii	"GNU C11 5.4.1 20160609 (release) [ARM/embedded-5-br"
 16243      43313120 
 16243      352E342E 
 16243      31203230 
 16243      31363036 
 16244 14b4 616E6368 		.ascii	"anch revision 237715] -mcpu=cortex-m4 -mfloat-abi=s"
 16244      20726576 
 16244      6973696F 
 16244      6E203233 
 16244      37373135 
 16245 14e7 6F667466 		.ascii	"oftfp -mfpu=fpv4-sp-d16 -mthumb -g -O0 -ffunction-s"
 16245      70202D6D 
 16245      6670753D 
 16245      66707634 
 16245      2D73702D 
 16246 151a 65637469 		.ascii	"ections -ffat-lto-objects\000"
 16246      6F6E7320 
 16246      2D666661 
 16246      742D6C74 
 16246      6F2D6F62 
 16247              	.LASF119:
 16248 1534 70657269 		.ascii	"period\000"
 16248      6F6400
 16249              	.LASF139:
 16250 153b 726F756E 		.ascii	"rounder_cb\000"
 16250      6465725F 
 16250      636200
 16251              	.LASF389:
 16252 1546 6465636F 		.ascii	"decor\000"
 16252      7200
 16253              	.LASF376:
 16254 154c 6C765F74 		.ascii	"lv_ta_ext_t\000"
 16254      615F6578 
 16254      745F7400 
 16255              	.LASF4:
 16256 1558 5F5F696E 		.ascii	"__int16_t\000"
 16256      7431365F 
 16256      7400
 16257              	.LASF215:
ARM GAS  C:\Users\tmj32\AppData\Local\Temp\ccI3WYuM.s 			page 361


 16258 1562 6C6F6E67 		.ascii	"longpr_rep_timestamp\000"
 16258      70725F72 
 16258      65705F74 
 16258      696D6573 
 16258      74616D70 
 16259              	.LASF404:
 16260 1577 70616E65 		.ascii	"panel\000"
 16260      6C00
 16261              	.LASF207:
 16262 157d 64726167 		.ascii	"drag_in_prog\000"
 16262      5F696E5F 
 16262      70726F67 
 16262      00
 16263              	.LASF424:
 16264 158a 64657374 		.ascii	"dest\000"
 16264      00
 16265              	.LASF379:
 16266 158f 4C565F54 		.ascii	"LV_TA_STYLE_CURSOR\000"
 16266      415F5354 
 16266      594C455F 
 16266      43555253 
 16266      4F5200
 16267              	.LASF52:
 16268 15a2 66756C6C 		.ascii	"full\000"
 16268      00
 16269              	.LASF324:
 16270 15a7 746F705F 		.ascii	"top_ip\000"
 16270      697000
 16271              	.LASF39:
 16272 15ae 4C565F4F 		.ascii	"LV_OPA_20\000"
 16272      50415F32 
 16272      3000
 16273              	.LASF82:
 16274 15b8 636F6C6F 		.ascii	"color\000"
 16274      7200
 16275              	.LASF68:
 16276 15be 74696D65 		.ascii	"time\000"
 16276      00
 16277              	.LASF504:
 16278 15c3 6375725F 		.ascii	"cur_area\000"
 16278      61726561 
 16278      00
 16279              	.LASF206:
 16280 15cc 64726167 		.ascii	"drag_limit_out\000"
 16280      5F6C696D 
 16280      69745F6F 
 16280      757400
 16281              	.LASF99:
 16282 15db 6C696E65 		.ascii	"line_space\000"
 16282      5F737061 
 16282      636500
 16283              	.LASF278:
 16284 15e6 786F6673 		.ascii	"xofs\000"
 16284      00
 16285              	.LASF294:
 16286 15eb 6669745F 		.ascii	"fit_right\000"
 16286      72696768 
ARM GAS  C:\Users\tmj32\AppData\Local\Temp\ccI3WYuM.s 			page 362


 16286      7400
 16287              	.LASF290:
 16288 15f5 5F4C565F 		.ascii	"_LV_FIT_NUM\000"
 16288      4649545F 
 16288      4E554D00 
 16289              	.LASF285:
 16290 1601 6C765F6F 		.ascii	"lv_obj_t\000"
 16290      626A5F74 
 16290      00
 16291              	.LASF145:
 16292 160a 64726976 		.ascii	"driver\000"
 16292      657200
 16293              	.LASF345:
 16294 1611 4C565F4C 		.ascii	"LV_LABEL_LONG_DOT\000"
 16294      4142454C 
 16294      5F4C4F4E 
 16294      475F444F 
 16294      5400
 16295              	.LASF535:
 16296 1623 63686172 		.ascii	"char_id_at_click\000"
 16296      5F69645F 
 16296      61745F63 
 16296      6C69636B 
 16296      00
 16297              	.LASF81:
 16298 1634 6C765F73 		.ascii	"lv_shadow_type_t\000"
 16298      6861646F 
 16298      775F7479 
 16298      70655F74 
 16298      00
 16299              	.LASF164:
 16300 1645 64726167 		.ascii	"drag\000"
 16300      00
 16301              	.LASF533:
 16302 164a 72656C5F 		.ascii	"rel_pos\000"
 16302      706F7300 
 16303              	.LASF542:
 16304 1652 6C765F73 		.ascii	"lv_style_pretty\000"
 16304      74796C65 
 16304      5F707265 
 16304      74747900 
 16305              	.LASF289:
 16306 1662 4C565F46 		.ascii	"LV_FIT_FILL\000"
 16306      49545F46 
 16306      494C4C00 
 16307              	.LASF414:
 16308 166e 6D626F78 		.ascii	"mbox\000"
 16308      00
 16309              	.LASF546:
 16310 1673 6C765F74 		.ascii	"lv_txt_encoded_get_byte_id\000"
 16310      78745F65 
 16310      6E636F64 
 16310      65645F67 
 16310      65745F62 
 16311              	.LASF497:
 16312 168e 6E65775F 		.ascii	"new_cur_pos\000"
 16312      6375725F 
ARM GAS  C:\Users\tmj32\AppData\Local\Temp\ccI3WYuM.s 			page 363


 16312      706F7300 
 16313              	.LASF155:
 16314 169a 5F6C765F 		.ascii	"_lv_obj_t\000"
 16314      6F626A5F 
 16314      7400
 16315              	.LASF97:
 16316 16a4 666F6E74 		.ascii	"font\000"
 16316      00
 16317              	.LASF432:
 16318 16a9 6C765F6C 		.ascii	"lv_label_set_style\000"
 16318      6162656C 
 16318      5F736574 
 16318      5F737479 
 16318      6C6500
 16319              	.LASF98:
 16320 16bc 6C657474 		.ascii	"letter_space\000"
 16320      65725F73 
 16320      70616365 
 16320      00
 16321              	.LASF40:
 16322 16c9 4C565F4F 		.ascii	"LV_OPA_30\000"
 16322      50415F33 
 16322      3000
 16323              	.LASF527:
 16324 16d3 74615F74 		.ascii	"ta_text\000"
 16324      65787400 
 16325              	.LASF440:
 16326 16db 6C657474 		.ascii	"letter_buf\000"
 16326      65725F62 
 16326      756600
 16327              	.LASF171:
 16328 16e6 62617365 		.ascii	"base_dir\000"
 16328      5F646972 
 16328      00
 16329              	.LASF326:
 16330 16ef 72696768 		.ascii	"right_ip\000"
 16330      745F6970 
 16330      00
 16331              	.LASF325:
 16332 16f8 626F7474 		.ascii	"bottom_ip\000"
 16332      6F6D5F69 
 16332      7000
 16333              	.LASF26:
 16334 1702 626F785F 		.ascii	"box_h\000"
 16334      6800
 16335              	.LASF334:
 16336 1708 4C565F50 		.ascii	"LV_PAGE_STYLE_BG\000"
 16336      4147455F 
 16336      5354594C 
 16336      455F4247 
 16336      00
 16337              	.LASF307:
 16338 1719 4C565F4B 		.ascii	"LV_KEY_PREV\000"
 16338      45595F50 
 16338      52455600 
 16339              	.LASF277:
 16340 1725 62617365 		.ascii	"base\000"
ARM GAS  C:\Users\tmj32\AppData\Local\Temp\ccI3WYuM.s 			page 364


 16340      00
 16341              	.LASF474:
 16342 172a 6C765F74 		.ascii	"lv_ta_set_pwd_show_time\000"
 16342      615F7365 
 16342      745F7077 
 16342      645F7368 
 16342      6F775F74 
 16343              	.LASF25:
 16344 1742 626F785F 		.ascii	"box_w\000"
 16344      7700
 16345              	.LASF5:
 16346 1748 73686F72 		.ascii	"short int\000"
 16346      7420696E 
 16346      7400
 16347              	.LASF73:
 16348 1752 706C6179 		.ascii	"playback\000"
 16348      6261636B 
 16348      00
 16349              	.LASF33:
 16350 175b 62617365 		.ascii	"base_line\000"
 16350      5F6C696E 
 16350      6500
 16351              	.LASF153:
 16352 1765 696E765F 		.ascii	"inv_p\000"
 16352      7000
 16353              	.LASF115:
 16354 176b 6C765F6C 		.ascii	"lv_ll_t\000"
 16354      6C5F7400 
 16355              	.LASF455:
 16356 1773 6C616265 		.ascii	"label_cords\000"
 16356      6C5F636F 
 16356      72647300 
 16357              	.LASF322:
 16358 177f 6D6F6465 		.ascii	"mode\000"
 16358      00
 16359              	.LASF523:
 16360 1784 6C657474 		.ascii	"letter_h\000"
 16360      65725F68 
 16360      00
 16361              	.LASF211:
 16362 178d 6B657970 		.ascii	"keypad\000"
 16362      616400
 16363              	.LASF41:
 16364 1794 4C565F4F 		.ascii	"LV_OPA_40\000"
 16364      50415F34 
 16364      3000
 16365              	.LASF17:
 16366 179e 696E7431 		.ascii	"int16_t\000"
 16366      365F7400 
 16367              	.LASF524:
 16368 17a6 6C657474 		.ascii	"letter_w\000"
 16368      65725F77 
 16368      00
 16369              	.LASF484:
 16370 17af 6C765F74 		.ascii	"lv_ta_get_one_line\000"
 16370      615F6765 
 16370      745F6F6E 
ARM GAS  C:\Users\tmj32\AppData\Local\Temp\ccI3WYuM.s 			page 365


 16370      655F6C69 
 16370      6E6500
 16371              	.LASF256:
 16372 17c2 4C565F53 		.ascii	"LV_SIGNAL_CORD_CHG\000"
 16372      49474E41 
 16372      4C5F434F 
 16372      52445F43 
 16372      484700
 16373              	.LASF365:
 16374 17d5 7478745F 		.ascii	"txt_byte_pos\000"
 16374      62797465 
 16374      5F706F73 
 16374      00
 16375              	.LASF541:
 16376 17e2 6C765F73 		.ascii	"lv_style_transp_tight\000"
 16376      74796C65 
 16376      5F747261 
 16376      6E73705F 
 16376      74696768 
 16377              	.LASF157:
 16378 17f8 636F6F72 		.ascii	"coords\000"
 16378      647300
 16379              	.LASF382:
 16380 17ff 6C765F74 		.ascii	"lv_ta_style_t\000"
 16380      615F7374 
 16380      796C655F 
 16380      7400
 16381              	.LASF150:
 16382 180d 7379735F 		.ascii	"sys_layer\000"
 16382      6C617965 
 16382      7200
 16383              	.LASF415:
 16384 1817 7370696E 		.ascii	"spinbox\000"
 16384      626F7800 
 16385              	.LASF451:
 16386 181f 6C765F74 		.ascii	"lv_ta_set_text\000"
 16386      615F7365 
 16386      745F7465 
 16386      787400
 16387              	.LASF381:
 16388 182e 4C565F54 		.ascii	"LV_TA_STYLE_PLACEHOLDER\000"
 16388      415F5354 
 16388      594C455F 
 16388      504C4143 
 16388      45484F4C 
 16389              	.LASF513:
 16390 1846 7077645F 		.ascii	"pwd_char_hider_anim\000"
 16390      63686172 
 16390      5F686964 
 16390      65725F61 
 16390      6E696D00 
 16391              	.LASF168:
 16392 185a 6F70615F 		.ascii	"opa_scale_en\000"
 16392      7363616C 
 16392      655F656E 
 16392      00
 16393              	.LASF396:
ARM GAS  C:\Users\tmj32\AppData\Local\Temp\ccI3WYuM.s 			page 366


 16394 1867 6461795F 		.ascii	"day_names\000"
 16394      6E616D65 
 16394      7300
 16395              	.LASF436:
 16396 1871 6C765F74 		.ascii	"lv_ta_get_edge_flash\000"
 16396      615F6765 
 16396      745F6564 
 16396      67655F66 
 16396      6C617368 
 16397              	.LASF544:
 16398 1886 6C765F74 		.ascii	"lv_txt_unicode_to_encoded\000"
 16398      78745F75 
 16398      6E69636F 
 16398      64655F74 
 16398      6F5F656E 
 16399              	.LASF362:
 16400 18a0 6C765F63 		.ascii	"lv_cursor_type_t\000"
 16400      7572736F 
 16400      725F7479 
 16400      70655F74 
 16400      00
 16401              	.LASF522:
 16402 18b1 6C657474 		.ascii	"letter\000"
 16402      657200
 16403              	.LASF94:
 16404 18b8 73686164 		.ascii	"shadow\000"
 16404      6F7700
 16405              	.LASF220:
 16406 18bf 6C765F69 		.ascii	"lv_indev_proc_t\000"
 16406      6E646576 
 16406      5F70726F 
 16406      635F7400 
 16407              	.LASF42:
 16408 18cf 4C565F4F 		.ascii	"LV_OPA_50\000"
 16408      50415F35 
 16408      3000
 16409              	.LASF426:
 16410 18d9 6C765F61 		.ascii	"lv_area_get_width\000"
 16410      7265615F 
 16410      6765745F 
 16410      77696474 
 16410      6800
 16411              	.LASF166:
 16412 18eb 64726167 		.ascii	"drag_parent\000"
 16412      5F706172 
 16412      656E7400 
 16413              	.LASF361:
 16414 18f7 4C565F43 		.ascii	"LV_CURSOR_HIDDEN\000"
 16414      5552534F 
 16414      525F4849 
 16414      4444454E 
 16414      00
 16415              	.LASF197:
 16416 1908 6C765F69 		.ascii	"lv_indev_drv_t\000"
 16416      6E646576 
 16416      5F647276 
 16416      5F7400
ARM GAS  C:\Users\tmj32\AppData\Local\Temp\ccI3WYuM.s 			page 367


 16417              	.LASF259:
 16418 1917 4C565F53 		.ascii	"LV_SIGNAL_BASE_DIR_CHG\000"
 16418      49474E41 
 16418      4C5F4241 
 16418      53455F44 
 16418      49525F43 
 16419              	.LASF69:
 16420 192e 6163745F 		.ascii	"act_time\000"
 16420      74696D65 
 16420      00
 16421              	.LASF343:
 16422 1937 4C565F4C 		.ascii	"LV_LABEL_LONG_EXPAND\000"
 16422      4142454C 
 16422      5F4C4F4E 
 16422      475F4558 
 16422      50414E44 
 16423              	.LASF515:
 16424 194c 7077645F 		.ascii	"pwd_char_hider\000"
 16424      63686172 
 16424      5F686964 
 16424      657200
 16425              	.LASF245:
 16426 195b 4C565F45 		.ascii	"LV_EVENT_DEFOCUSED\000"
 16426      56454E54 
 16426      5F444546 
 16426      4F435553 
 16426      454400
 16427              	.LASF449:
 16428 196e 62797465 		.ascii	"byte_pos\000"
 16428      5F706F73 
 16428      00
 16429              	.LASF194:
 16430 1977 64726167 		.ascii	"drag_limit\000"
 16430      5F6C696D 
 16430      697400
 16431              	.LASF143:
 16432 1982 6C765F64 		.ascii	"lv_disp_drv_t\000"
 16432      6973705F 
 16432      6472765F 
 16432      7400
 16433              	.LASF423:
 16434 1990 666F6E74 		.ascii	"font_p\000"
 16434      5F7000
 16435              	.LASF188:
 16436 1997 6C765F69 		.ascii	"lv_indev_data_t\000"
 16436      6E646576 
 16436      5F646174 
 16436      615F7400 
 16437              	.LASF439:
 16438 19a7 636F7079 		.ascii	"copy_ext\000"
 16438      5F657874 
 16438      00
 16439              	.LASF403:
 16440 19b0 636F6E74 		.ascii	"content\000"
 16440      656E7400 
 16441              	.LASF95:
 16442 19b8 70616464 		.ascii	"padding\000"
ARM GAS  C:\Users\tmj32\AppData\Local\Temp\ccI3WYuM.s 			page 368


 16442      696E6700 
 16443              	.LASF287:
 16444 19c0 4C565F46 		.ascii	"LV_FIT_TIGHT\000"
 16444      49545F54 
 16444      49474854 
 16444      00
 16445              	.LASF159:
 16446 19cd 7369676E 		.ascii	"signal_cb\000"
 16446      616C5F63 
 16446      6200
 16447              	.LASF43:
 16448 19d7 4C565F4F 		.ascii	"LV_OPA_60\000"
 16448      50415F36 
 16448      3000
 16449              	.LASF20:
 16450 19e1 75696E74 		.ascii	"uint32_t\000"
 16450      33325F74 
 16450      00
 16451              	.LASF444:
 16452 19ea 6C765F74 		.ascii	"lv_ta_add_text\000"
 16452      615F6164 
 16452      645F7465 
 16452      787400
 16453              	.LASF70:
 16454 19f9 706C6179 		.ascii	"playback_pause\000"
 16454      6261636B 
 16454      5F706175 
 16454      736500
 16455              	.LASF312:
 16456 1a08 4C565F53 		.ascii	"LV_SB_MODE_DRAG\000"
 16456      425F4D4F 
 16456      44455F44 
 16456      52414700 
 16457              	.LASF539:
 16458 1a18 7363726C 		.ascii	"scrl_signal\000"
 16458      5F736967 
 16458      6E616C00 
 16459              	.LASF388:
 16460 1a24 6461726B 		.ascii	"dark\000"
 16460      00
 16461              	.LASF50:
 16462 1a29 67726565 		.ascii	"green\000"
 16462      6E00
 16463              	.LASF35:
 16464 1a2f 6C765F66 		.ascii	"lv_font_t\000"
 16464      6F6E745F 
 16464      7400
 16465              	.LASF172:
 16466 1a39 72657365 		.ascii	"reserved\000"
 16466      72766564 
 16466      00
 16467              	.LASF349:
 16468 1a42 4C565F4C 		.ascii	"LV_LABEL_ALIGN_LEFT\000"
 16468      4142454C 
 16468      5F414C49 
 16468      474E5F4C 
 16468      45465400 
ARM GAS  C:\Users\tmj32\AppData\Local\Temp\ccI3WYuM.s 			page 369


 16469              	.LASF348:
 16470 1a56 4C565F4C 		.ascii	"LV_LABEL_LONG_CROP\000"
 16470      4142454C 
 16470      5F4C4F4E 
 16470      475F4352 
 16470      4F5000
 16471              	.LASF519:
 16472 1a69 7374796C 		.ascii	"style_res\000"
 16472      655F7265 
 16472      7300
 16473              	.LASF422:
 16474 1a73 6C765F74 		.ascii	"lv_theme_t\000"
 16474      68656D65 
 16474      5F7400
 16475              	.LASF141:
 16476 1a7e 6D6F6E69 		.ascii	"monitor_cb\000"
 16476      746F725F 
 16476      636200
 16477              	.LASF44:
 16478 1a89 4C565F4F 		.ascii	"LV_OPA_70\000"
 16478      50415F37 
 16478      3000
 16479              	.LASF7:
 16480 1a93 73686F72 		.ascii	"short unsigned int\000"
 16480      7420756E 
 16480      7369676E 
 16480      65642069 
 16480      6E7400
 16481              	.LASF526:
 16482 1aa6 706C6163 		.ascii	"placeholder_update\000"
 16482      65686F6C 
 16482      6465725F 
 16482      75706461 
 16482      746500
 16483              	.LASF537:
 16484 1ab9 7363726C 		.ascii	"scrl_design\000"
 16484      5F646573 
 16484      69676E00 
 16485              	.LASF316:
 16486 1ac5 6C765F73 		.ascii	"lv_sb_mode_t\000"
 16486      625F6D6F 
 16486      64655F74 
 16486      00
 16487              	.LASF84:
 16488 1ad2 70617274 		.ascii	"part\000"
 16488      00
 16489              	.LASF243:
 16490 1ad7 4C565F45 		.ascii	"LV_EVENT_KEY\000"
 16490      56454E54 
 16490      5F4B4559 
 16490      00
 16491              	.LASF21:
 16492 1ae4 6C765F63 		.ascii	"lv_coord_t\000"
 16492      6F6F7264 
 16492      5F7400
 16493              	.LASF177:
 16494 1aef 4C565F49 		.ascii	"LV_INDEV_TYPE_NONE\000"
ARM GAS  C:\Users\tmj32\AppData\Local\Temp\ccI3WYuM.s 			page 370


 16494      4E444556 
 16494      5F545950 
 16494      455F4E4F 
 16494      4E4500
 16495              	.LASF138:
 16496 1b02 666C7573 		.ascii	"flush_cb\000"
 16496      685F6362 
 16496      00
 16497              	.LASF122:
 16498 1b0b 75736572 		.ascii	"user_data\000"
 16498      5F646174 
 16498      6100
 16499              	.LASF234:
 16500 1b15 4C565F45 		.ascii	"LV_EVENT_PRESS_LOST\000"
 16500      56454E54 
 16500      5F505245 
 16500      53535F4C 
 16500      4F535400 
 16501              	.LASF75:
 16502 1b29 706C6179 		.ascii	"playback_now\000"
 16502      6261636B 
 16502      5F6E6F77 
 16502      00
 16503              	.LASF496:
 16504 1b36 6C616265 		.ascii	"label_style\000"
 16504      6C5F7374 
 16504      796C6500 
 16505              	.LASF93:
 16506 1b42 626F7264 		.ascii	"border\000"
 16506      657200
 16507              	.LASF368:
 16508 1b49 6C616265 		.ascii	"label\000"
 16508      6C00
 16509              	.LASF30:
 16510 1b4f 6765745F 		.ascii	"get_glyph_dsc\000"
 16510      676C7970 
 16510      685F6473 
 16510      6300
 16511              	.LASF8:
 16512 1b5d 5F5F696E 		.ascii	"__int32_t\000"
 16512      7433325F 
 16512      7400
 16513              	.LASF479:
 16514 1b67 6C765F74 		.ascii	"lv_ta_get_label\000"
 16514      615F6765 
 16514      745F6C61 
 16514      62656C00 
 16515              	.LASF284:
 16516 1b77 6C765F64 		.ascii	"lv_drag_dir_t\000"
 16516      7261675F 
 16516      6469725F 
 16516      7400
 16517              	.LASF80:
 16518 1b85 6C765F62 		.ascii	"lv_border_part_t\000"
 16518      6F726465 
 16518      725F7061 
 16518      72745F74 
ARM GAS  C:\Users\tmj32\AppData\Local\Temp\ccI3WYuM.s 			page 371


 16518      00
 16519              	.LASF448:
 16520 1b96 6C616265 		.ascii	"label_txt\000"
 16520      6C5F7478 
 16520      7400
 16521              	.LASF216:
 16522 1ba0 6C6F6E67 		.ascii	"long_pr_sent\000"
 16522      5F70725F 
 16522      73656E74 
 16522      00
 16523              	.LASF45:
 16524 1bad 4C565F4F 		.ascii	"LV_OPA_80\000"
 16524      50415F38 
 16524      3000
 16525              	.LASF498:
 16526 1bb7 6375725F 		.ascii	"cur_valid_x_tmp\000"
 16526      76616C69 
 16526      645F785F 
 16526      746D7000 
 16527              	.LASF410:
 16528 1bc7 7072656C 		.ascii	"preload\000"
 16528      6F616400 
 16529              	.LASF282:
 16530 1bcf 6F726967 		.ascii	"origo_align\000"
 16530      6F5F616C 
 16530      69676E00 
 16531              	.LASF500:
 16532 1bdb 6C765F74 		.ascii	"lv_ta_design\000"
 16532      615F6465 
 16532      7369676E 
 16532      00
 16533              	.LASF391:
 16534 1be8 6B6E6F62 		.ascii	"knob\000"
 16534      00
 16535              	.LASF298:
 16536 1bed 4C565F4B 		.ascii	"LV_KEY_UP\000"
 16536      45595F55 
 16536      5000
 16537              	.LASF318:
 16538 1bf7 686F725F 		.ascii	"hor_area\000"
 16538      61726561 
 16538      00
 16539              	.LASF96:
 16540 1c00 73656C5F 		.ascii	"sel_color\000"
 16540      636F6C6F 
 16540      7200
 16541              	.LASF117:
 16542 1c0a 6C765F74 		.ascii	"lv_task_cb_t\000"
 16542      61736B5F 
 16542      63625F74 
 16542      00
 16543              	.LASF514:
 16544 1c17 7077645F 		.ascii	"pwd_char_hider_anim_ready\000"
 16544      63686172 
 16544      5F686964 
 16544      65725F61 
 16544      6E696D5F 
ARM GAS  C:\Users\tmj32\AppData\Local\Temp\ccI3WYuM.s 			page 372


 16545              	.LASF62:
 16546 1c31 5F6C765F 		.ascii	"_lv_font_struct\000"
 16546      666F6E74 
 16546      5F737472 
 16546      75637400 
 16547              	.LASF213:
 16548 1c41 74797065 		.ascii	"types\000"
 16548      7300
 16549              	.LASF529:
 16550 1c47 636C6963 		.ascii	"click_source\000"
 16550      6B5F736F 
 16550      75726365 
 16550      00
 16551              	.LASF63:
 16552 1c54 5F6C765F 		.ascii	"_lv_anim_t\000"
 16552      616E696D 
 16552      5F7400
 16553              	.LASF112:
 16554 1c5f 6E5F7369 		.ascii	"n_size\000"
 16554      7A6500
 16555              	.LASF223:
 16556 1c66 63757273 		.ascii	"cursor\000"
 16556      6F7200
 16557              	.LASF492:
 16558 1c6d 6C765F74 		.ascii	"lv_ta_clear_selection\000"
 16558      615F636C 
 16558      6561725F 
 16558      73656C65 
 16558      6374696F 
 16559              	.LASF551:
 16560 1c83 5F6C765F 		.ascii	"_lv_group_t\000"
 16560      67726F75 
 16560      705F7400 
 16561              	.LASF239:
 16562 1c8f 4C565F45 		.ascii	"LV_EVENT_RELEASED\000"
 16562      56454E54 
 16562      5F52454C 
 16562      45415345 
 16562      4400
 16563              	.LASF231:
 16564 1ca1 6C765F64 		.ascii	"lv_design_cb_t\000"
 16564      65736967 
 16564      6E5F6362 
 16564      5F7400
 16565              	.LASF329:
 16566 1cb0 65646765 		.ascii	"edge_flash\000"
 16566      5F666C61 
 16566      736800
 16567              	.LASF46:
 16568 1cbb 4C565F4F 		.ascii	"LV_OPA_90\000"
 16568      50415F39 
 16568      3000
 16569              	.LASF174:
 16570 1cc5 6F70615F 		.ascii	"opa_scale\000"
 16570      7363616C 
 16570      6500
 16571              	.LASF418:
ARM GAS  C:\Users\tmj32\AppData\Local\Temp\ccI3WYuM.s 			page 373


 16572 1ccf 726F6C6C 		.ascii	"roller\000"
 16572      657200
 16573              		.ident	"GCC: (GNU Tools for ARM Embedded Processors) 5.4.1 20160609 (release) [ARM/embedded-5-bran
