ARM GAS  C:\Users\chris\AppData\Local\Temp\ccc597r1.s 			page 1


   1              		.syntax unified
   2              		.cpu cortex-m4
   3              		.eabi_attribute 27, 1
   4              		.fpu fpv4-sp-d16
   5              		.eabi_attribute 20, 1
   6              		.eabi_attribute 21, 1
   7              		.eabi_attribute 23, 3
   8              		.eabi_attribute 24, 1
   9              		.eabi_attribute 25, 1
  10              		.eabi_attribute 26, 1
  11              		.eabi_attribute 30, 6
  12              		.eabi_attribute 34, 1
  13              		.eabi_attribute 18, 4
  14              		.thumb
  15              		.syntax unified
  16              		.file	"spi_functions.c"
  17              		.text
  18              	.Ltext0:
  19              		.cfi_sections	.debug_frame
  20              		.global	dummyBuffer
  21              		.section	.rodata
  22              		.align	2
  23              		.type	dummyBuffer, %object
  24              		.size	dummyBuffer, 3
  25              	dummyBuffer:
  26 0000 FF       		.byte	-1
  27 0001 FF       		.byte	-1
  28 0002 FF       		.byte	-1
  29              		.section	.text.SPIM_SendCommandPacket,"ax",%progbits
  30              		.align	2
  31              		.global	SPIM_SendCommandPacket
  32              		.thumb
  33              		.thumb_func
  34              		.type	SPIM_SendCommandPacket, %function
  35              	SPIM_SendCommandPacket:
  36              	.LFB717:
  37              		.file 1 "spi_functions.c"
   1:spi_functions.c **** #include <stdio.h>
   2:spi_functions.c **** #include "project.h"
   3:spi_functions.c **** #include "lvgl.h"
   4:spi_functions.c **** 
   5:spi_functions.c **** /***************************************
   6:spi_functions.c **** *            Constants
   7:spi_functions.c **** ****************************************/
   8:spi_functions.c **** #define PACKET_SIZE     (3u)
   9:spi_functions.c **** 
  10:spi_functions.c **** /* Commands */
  11:spi_functions.c **** #define CMD_SET_OFF     (0u)
  12:spi_functions.c **** #define CMD_SET_RED     (1u)
  13:spi_functions.c **** #define CMD_SET_RG      (2u)
  14:spi_functions.c **** #define CMD_SET_GREEN   (3u)
  15:spi_functions.c **** #define CMD_SET_GB      (4u)
  16:spi_functions.c **** #define CMD_SET_BLUE    (5u)
  17:spi_functions.c **** #define CMD_END         (6u)
  18:spi_functions.c **** #define CMD_SET_UNKNOWN (0xFFu)
  19:spi_functions.c **** 
  20:spi_functions.c **** /* Start and end of the packet markers */
ARM GAS  C:\Users\chris\AppData\Local\Temp\ccc597r1.s 			page 2


  21:spi_functions.c **** #define PACKET_SOP      (0x01u)
  22:spi_functions.c **** #define PACKET_EOP      (0x17u)
  23:spi_functions.c **** 
  24:spi_functions.c **** /* Byte position within the packet */
  25:spi_functions.c **** #define PACKET_SOP_POS  (0u)
  26:spi_functions.c **** #define PACKET_CMD_POS  (1u)
  27:spi_functions.c **** 
  28:spi_functions.c **** /* Command execution status */
  29:spi_functions.c **** #define STS_CMD_DONE    (0x07u)
  30:spi_functions.c **** #define STS_CMD_FAIL    (0xFFu)
  31:spi_functions.c **** 
  32:spi_functions.c **** /* Command and status share the same offset */
  33:spi_functions.c **** #define PACKET_STS_POS  (PACKET_CMD_POS)
  34:spi_functions.c **** #define PACKET_EOP_POS  (2u)
  35:spi_functions.c **** 
  36:spi_functions.c **** /* Controls the frequency at which the light changes */
  37:spi_functions.c **** #define CMD_TO_CMD_DELAY    (500u)
  38:spi_functions.c **** #define CMD_STALL           (20u)
  39:spi_functions.c **** 
  40:spi_functions.c **** /* A dummy buffer to send to the slave when the master needs to receive
  41:spi_functions.c ****    the status packet*/
  42:spi_functions.c **** const uint8 dummyBuffer[PACKET_SIZE] = {0xFFu, 0xFFu, 0xFFu};
  43:spi_functions.c **** 
  44:spi_functions.c **** /*******************************************************************************
  45:spi_functions.c **** * Function Name: SPIM_SendCommandPacket
  46:spi_functions.c **** ********************************************************************************
  47:spi_functions.c **** * Summary:
  48:spi_functions.c **** *  Loads a three byte packet into the Tx buffer and sends it to the slave device. Waits
  49:spi_functions.c **** *  until the entire transmission is completed. The master receives dummy bytes which can 
  50:spi_functions.c **** *  be cleared from the Rx buffer.
  51:spi_functions.c **** *
  52:spi_functions.c **** * Parameters:
  53:spi_functions.c **** *  cmd - The commmand to be sent to the slave device
  54:spi_functions.c **** *
  55:spi_functions.c **** * Return:
  56:spi_functions.c **** *  None
  57:spi_functions.c **** *
  58:spi_functions.c **** *******************************************************************************/
  59:spi_functions.c **** void SPIM_SendCommandPacket(uint8 cmd)
  60:spi_functions.c **** {
  38              		.loc 1 60 0
  39              		.cfi_startproc
  40              		@ args = 0, pretend = 0, frame = 8
  41              		@ frame_needed = 1, uses_anonymous_args = 0
  42 0000 80B5     		push	{r7, lr}
  43              		.cfi_def_cfa_offset 8
  44              		.cfi_offset 7, -8
  45              		.cfi_offset 14, -4
  46 0002 82B0     		sub	sp, sp, #8
  47              		.cfi_def_cfa_offset 16
  48 0004 00AF     		add	r7, sp, #0
  49              		.cfi_def_cfa_register 7
  50 0006 0346     		mov	r3, r0
  51 0008 FB71     		strb	r3, [r7, #7]
  61:spi_functions.c ****     /* SPIM TX buffer */
  62:spi_functions.c ****     static uint8 mTxBuffer[PACKET_SIZE] = {PACKET_SOP, CMD_SET_BLUE, PACKET_EOP};
  63:spi_functions.c **** 
ARM GAS  C:\Users\chris\AppData\Local\Temp\ccc597r1.s 			page 3


  64:spi_functions.c ****     mTxBuffer[PACKET_CMD_POS] = cmd;
  52              		.loc 1 64 0
  53 000a 094A     		ldr	r2, .L3
  54 000c FB79     		ldrb	r3, [r7, #7]
  55 000e 5370     		strb	r3, [r2, #1]
  65:spi_functions.c **** 
  66:spi_functions.c ****     /* Start transfer */
  67:spi_functions.c ****     SPIM_SpiUartPutArray(mTxBuffer, PACKET_SIZE);
  56              		.loc 1 67 0
  57 0010 0321     		movs	r1, #3
  58 0012 0748     		ldr	r0, .L3
  59 0014 FFF7FEFF 		bl	SPIM_SpiUartPutArray
  60              	.LBB2:
  68:spi_functions.c **** 
  69:spi_functions.c ****     /* Wait for the end of the transfer. In SPI, the number of transmitted data
  70:spi_functions.c ****        elements has to be equal to the number of received data elements. */
  71:spi_functions.c ****     while(PACKET_SIZE != SPIM_SpiUartGetRxBufferSize());
  61              		.loc 1 71 0
  62 0018 00BF     		nop
  63              	.L2:
  64              		.loc 1 71 0 is_stmt 0 discriminator 1
  65 001a FFF7FEFF 		bl	SPIM_SpiUartGetRxBufferSize
  66 001e 0346     		mov	r3, r0
  67 0020 032B     		cmp	r3, #3
  68 0022 FAD1     		bne	.L2
  69              	.LBE2:
  72:spi_functions.c **** 
  73:spi_functions.c ****     /* Clear dummy bytes from RX buffer */
  74:spi_functions.c ****     SPIM_SpiUartClearRxBuffer();
  70              		.loc 1 74 0 is_stmt 1
  71 0024 FFF7FEFF 		bl	SPIM_SpiUartClearRxBuffer
  75:spi_functions.c **** }
  72              		.loc 1 75 0
  73 0028 00BF     		nop
  74 002a 0837     		adds	r7, r7, #8
  75              		.cfi_def_cfa_offset 8
  76 002c BD46     		mov	sp, r7
  77              		.cfi_def_cfa_register 13
  78              		@ sp needed
  79 002e 80BD     		pop	{r7, pc}
  80              	.L4:
  81              		.align	2
  82              	.L3:
  83 0030 00000000 		.word	mTxBuffer.20298
  84              		.cfi_endproc
  85              	.LFE717:
  86              		.size	SPIM_SendCommandPacket, .-SPIM_SendCommandPacket
  87              		.section	.text.SPIM_ReadStatusPacket,"ax",%progbits
  88              		.align	2
  89              		.thumb
  90              		.thumb_func
  91              		.type	SPIM_ReadStatusPacket, %function
  92              	SPIM_ReadStatusPacket:
  93              	.LFB718:
  76:spi_functions.c **** 
  77:spi_functions.c **** /*******************************************************************************
  78:spi_functions.c **** * Function Name: SPIM_ReadStatusPacket
ARM GAS  C:\Users\chris\AppData\Local\Temp\ccc597r1.s 			page 4


  79:spi_functions.c **** ********************************************************************************
  80:spi_functions.c **** * Summary:
  81:spi_functions.c **** *  SPIM initiates the transmission of a dummy packet to collect the status
  82:spi_functions.c **** *  information from the SPIS. After the transfer is complete the format of
  83:spi_functions.c **** *  the packet is verified and the status is returned. If the format of the
  84:spi_functions.c **** *  packet is invalid the unknown status is returned.
  85:spi_functions.c **** *
  86:spi_functions.c **** * Parameters:
  87:spi_functions.c **** *  None
  88:spi_functions.c **** *
  89:spi_functions.c **** * Return:
  90:spi_functions.c **** *  Status - Returns the status byte of the recieved packet
  91:spi_functions.c **** *
  92:spi_functions.c **** *******************************************************************************/
  93:spi_functions.c **** static uint32 SPIM_ReadStatusPacket(void)
  94:spi_functions.c **** {
  94              		.loc 1 94 0
  95              		.cfi_startproc
  96              		@ args = 0, pretend = 0, frame = 8
  97              		@ frame_needed = 1, uses_anonymous_args = 0
  98 0000 90B5     		push	{r4, r7, lr}
  99              		.cfi_def_cfa_offset 12
 100              		.cfi_offset 4, -12
 101              		.cfi_offset 7, -8
 102              		.cfi_offset 14, -4
 103 0002 83B0     		sub	sp, sp, #12
 104              		.cfi_def_cfa_offset 24
 105 0004 00AF     		add	r7, sp, #0
 106              		.cfi_def_cfa_register 7
  95:spi_functions.c ****     uint8 tmpBuffer[PACKET_SIZE];
  96:spi_functions.c ****     uint8 status;
  97:spi_functions.c ****     uint8 i = 0;
 107              		.loc 1 97 0
 108 0006 0023     		movs	r3, #0
 109 0008 BB71     		strb	r3, [r7, #6]
  98:spi_functions.c **** 
  99:spi_functions.c ****     /* Start transfer */
 100:spi_functions.c ****     SPIM_SpiUartPutArray(dummyBuffer, PACKET_SIZE);
 110              		.loc 1 100 0
 111 000a 0321     		movs	r1, #3
 112 000c 1748     		ldr	r0, .L12
 113 000e FFF7FEFF 		bl	SPIM_SpiUartPutArray
 114              	.LBB3:
 101:spi_functions.c **** 
 102:spi_functions.c ****     /* Wait for the end of the transfer. The number of transmitted data
 103:spi_functions.c ****     * elements has to be equal to the number of received data elements. */
 104:spi_functions.c ****     while (PACKET_SIZE != SPIM_SpiUartGetRxBufferSize());
 115              		.loc 1 104 0
 116 0012 00BF     		nop
 117              	.L6:
 118              		.loc 1 104 0 is_stmt 0 discriminator 1
 119 0014 FFF7FEFF 		bl	SPIM_SpiUartGetRxBufferSize
 120 0018 0346     		mov	r3, r0
 121 001a 032B     		cmp	r3, #3
 122 001c FAD1     		bne	.L6
 123              	.LBE3:
 105:spi_functions.c **** 
ARM GAS  C:\Users\chris\AppData\Local\Temp\ccc597r1.s 			page 5


 106:spi_functions.c ****     /* Clear dummy bytes from TX buffer */
 107:spi_functions.c ****     SPIM_SpiUartClearTxBuffer();
 124              		.loc 1 107 0 is_stmt 1
 125 001e FFF7FEFF 		bl	SPIM_SpiUartClearTxBuffer
 126              	.LBB4:
 108:spi_functions.c **** 
 109:spi_functions.c ****     
 110:spi_functions.c ****     /* Read data from the RX buffer */
 111:spi_functions.c ****     while(0u != SPIM_SpiUartGetRxBufferSize())
 127              		.loc 1 111 0
 128 0022 0CE0     		b	.L7
 129              	.L8:
 130              	.LBB5:
 112:spi_functions.c ****     {
 113:spi_functions.c ****         tmpBuffer[i] = (uint8) SPIM_SpiUartReadRxData();
 131              		.loc 1 113 0
 132 0024 BC79     		ldrb	r4, [r7, #6]	@ zero_extendqisi2
 133 0026 FFF7FEFF 		bl	SPIM_SpiUartReadRxData
 134 002a 0346     		mov	r3, r0
 135 002c DAB2     		uxtb	r2, r3
 136 002e 07F10803 		add	r3, r7, #8
 137 0032 2344     		add	r3, r3, r4
 138 0034 03F8082C 		strb	r2, [r3, #-8]
 114:spi_functions.c ****         i++;
 139              		.loc 1 114 0
 140 0038 BB79     		ldrb	r3, [r7, #6]	@ zero_extendqisi2
 141 003a 0133     		adds	r3, r3, #1
 142 003c BB71     		strb	r3, [r7, #6]
 143              	.L7:
 144              	.LBE5:
 111:spi_functions.c ****     {
 145              		.loc 1 111 0
 146 003e FFF7FEFF 		bl	SPIM_SpiUartGetRxBufferSize
 147 0042 0346     		mov	r3, r0
 148 0044 002B     		cmp	r3, #0
 149 0046 EDD1     		bne	.L8
 150              	.LBE4:
 115:spi_functions.c ****     }
 116:spi_functions.c **** 
 117:spi_functions.c ****     /* Clears the Rx buffer after reading it */
 118:spi_functions.c ****     SPIM_SpiUartClearRxBuffer();
 151              		.loc 1 118 0
 152 0048 FFF7FEFF 		bl	SPIM_SpiUartClearRxBuffer
 119:spi_functions.c ****     
 120:spi_functions.c ****     /* Check packet format */
 121:spi_functions.c ****     if ((tmpBuffer[PACKET_SOP_POS] == PACKET_SOP) &&
 153              		.loc 1 121 0
 154 004c 3B78     		ldrb	r3, [r7]	@ zero_extendqisi2
 155 004e 012B     		cmp	r3, #1
 156 0050 05D1     		bne	.L9
 122:spi_functions.c ****         (tmpBuffer[PACKET_EOP_POS] == PACKET_EOP))
 157              		.loc 1 122 0 discriminator 1
 158 0052 BB78     		ldrb	r3, [r7, #2]	@ zero_extendqisi2
 121:spi_functions.c ****         (tmpBuffer[PACKET_EOP_POS] == PACKET_EOP))
 159              		.loc 1 121 0 discriminator 1
 160 0054 172B     		cmp	r3, #23
 161 0056 02D1     		bne	.L9
ARM GAS  C:\Users\chris\AppData\Local\Temp\ccc597r1.s 			page 6


 123:spi_functions.c ****     {
 124:spi_functions.c ****         /* Return status */
 125:spi_functions.c ****         status = tmpBuffer[PACKET_STS_POS];
 162              		.loc 1 125 0
 163 0058 7B78     		ldrb	r3, [r7, #1]
 164 005a FB71     		strb	r3, [r7, #7]
 165 005c 01E0     		b	.L10
 166              	.L9:
 126:spi_functions.c ****     }
 127:spi_functions.c ****     else
 128:spi_functions.c ****     {
 129:spi_functions.c ****         /* Invalid packet format, return fail status */
 130:spi_functions.c ****         status = STS_CMD_FAIL;
 167              		.loc 1 130 0
 168 005e FF23     		movs	r3, #255
 169 0060 FB71     		strb	r3, [r7, #7]
 170              	.L10:
 131:spi_functions.c ****     }
 132:spi_functions.c **** 
 133:spi_functions.c ****     return ((uint32)status);
 171              		.loc 1 133 0
 172 0062 FB79     		ldrb	r3, [r7, #7]	@ zero_extendqisi2
 134:spi_functions.c **** }...
 173              		.loc 1 134 0
 174 0064 1846     		mov	r0, r3
 175 0066 0C37     		adds	r7, r7, #12
 176              		.cfi_def_cfa_offset 12
 177 0068 BD46     		mov	sp, r7
 178              		.cfi_def_cfa_register 13
 179              		@ sp needed
 180 006a 90BD     		pop	{r4, r7, pc}
 181              	.L13:
 182              		.align	2
 183              	.L12:
 184 006c 00000000 		.word	dummyBuffer
 185              		.cfi_endproc
 186              	.LFE718:
 187              		.size	SPIM_ReadStatusPacket, .-SPIM_ReadStatusPacket
 188              		.data
 189              		.align	2
 190              		.type	mTxBuffer.20298, %object
 191              		.size	mTxBuffer.20298, 3
 192              	mTxBuffer.20298:
 193 0000 01       		.byte	1
 194 0001 05       		.byte	5
 195 0002 17       		.byte	23
 196              		.text
 197              	.Letext0:
 198              		.file 2 "e:\\applications\\psoc\\psoc creator\\4.3\\psoc creator\\import\\gnu\\arm\\5.4.1\\arm-non
 199              		.file 3 "e:\\applications\\psoc\\psoc creator\\4.3\\psoc creator\\import\\gnu\\arm\\5.4.1\\arm-non
 200              		.file 4 "Generated_Source\\PSoC6\\pdl\\drivers/peripheral/device/cy_device.h"
 201              		.file 5 "Generated_Source\\PSoC6\\pdl\\drivers/peripheral/syslib/cy_syslib.h"
 202              		.file 6 "Generated_Source\\PSoC6\\pdl\\drivers/peripheral/scb/cy_scb_i2c.h"
 203              		.file 7 "Generated_Source\\PSoC6\\pdl\\drivers/peripheral/scb/cy_scb_spi.h"
 204              		.file 8 "Generated_Source\\PSoC6\\pdl\\drivers/peripheral/tcpwm/cy_tcpwm_counter.h"
 205              		.file 9 "..\\..\\..\\lvgl\\version_6.1.2\\lvgl/src/lv_objx/lv_btn.h"
 206              		.file 10 "Generated_Source\\PSoC6\\pdl\\cmsis/include/core_cm4.h"
ARM GAS  C:\Users\chris\AppData\Local\Temp\ccc597r1.s 			page 7


 207              		.file 11 "Generated_Source\\PSoC6/DISP_TICK_TIMER.h"
 208              		.file 12 "Generated_Source\\PSoC6/I2C_MASTER.h"
 209              		.file 13 "Generated_Source\\PSoC6/SPIM.h"