ARM GAS  C:\Users\chris\AppData\Local\Temp\ccGnetZg.s 			page 1


   1              		.syntax unified
   2              		.cpu cortex-m4
   3              		.eabi_attribute 27, 1
   4              		.fpu fpv4-sp-d16
   5              		.eabi_attribute 20, 1
   6              		.eabi_attribute 21, 1
   7              		.eabi_attribute 23, 3
   8              		.eabi_attribute 24, 1
   9              		.eabi_attribute 25, 1
  10              		.eabi_attribute 26, 1
  11              		.eabi_attribute 30, 6
  12              		.eabi_attribute 34, 1
  13              		.eabi_attribute 18, 4
  14              		.thumb
  15              		.syntax unified
  16              		.file	"time_date_activity.c"
  17              		.text
  18              	.Ltext0:
  19              		.cfi_sections	.debug_frame
  20              		.section	.text.lv_scr_act,"ax",%progbits
  21              		.align	2
  22              		.thumb
  23              		.thumb_func
  24              		.type	lv_scr_act, %function
  25              	lv_scr_act:
  26              	.LFB613:
  27              		.file 1 "..\\..\\..\\lvgl\\version_6.1.2\\lvgl/src/lv_core/lv_disp.h"
   1:..\..\..\lvgl\version_6.1.2\lvgl/src/lv_core/lv_disp.h **** /**
   2:..\..\..\lvgl\version_6.1.2\lvgl/src/lv_core/lv_disp.h ****  * @file lv_disp.h
   3:..\..\..\lvgl\version_6.1.2\lvgl/src/lv_core/lv_disp.h ****  *
   4:..\..\..\lvgl\version_6.1.2\lvgl/src/lv_core/lv_disp.h ****  */
   5:..\..\..\lvgl\version_6.1.2\lvgl/src/lv_core/lv_disp.h **** 
   6:..\..\..\lvgl\version_6.1.2\lvgl/src/lv_core/lv_disp.h **** #ifndef LV_DISP_H
   7:..\..\..\lvgl\version_6.1.2\lvgl/src/lv_core/lv_disp.h **** #define LV_DISP_H
   8:..\..\..\lvgl\version_6.1.2\lvgl/src/lv_core/lv_disp.h **** 
   9:..\..\..\lvgl\version_6.1.2\lvgl/src/lv_core/lv_disp.h **** #ifdef __cplusplus
  10:..\..\..\lvgl\version_6.1.2\lvgl/src/lv_core/lv_disp.h **** extern "C" {
  11:..\..\..\lvgl\version_6.1.2\lvgl/src/lv_core/lv_disp.h **** #endif
  12:..\..\..\lvgl\version_6.1.2\lvgl/src/lv_core/lv_disp.h **** 
  13:..\..\..\lvgl\version_6.1.2\lvgl/src/lv_core/lv_disp.h **** /*********************
  14:..\..\..\lvgl\version_6.1.2\lvgl/src/lv_core/lv_disp.h ****  *      INCLUDES
  15:..\..\..\lvgl\version_6.1.2\lvgl/src/lv_core/lv_disp.h ****  *********************/
  16:..\..\..\lvgl\version_6.1.2\lvgl/src/lv_core/lv_disp.h **** #include "../lv_hal/lv_hal.h"
  17:..\..\..\lvgl\version_6.1.2\lvgl/src/lv_core/lv_disp.h **** #include "lv_obj.h"
  18:..\..\..\lvgl\version_6.1.2\lvgl/src/lv_core/lv_disp.h **** 
  19:..\..\..\lvgl\version_6.1.2\lvgl/src/lv_core/lv_disp.h **** /*********************
  20:..\..\..\lvgl\version_6.1.2\lvgl/src/lv_core/lv_disp.h ****  *      DEFINES
  21:..\..\..\lvgl\version_6.1.2\lvgl/src/lv_core/lv_disp.h ****  *********************/
  22:..\..\..\lvgl\version_6.1.2\lvgl/src/lv_core/lv_disp.h **** 
  23:..\..\..\lvgl\version_6.1.2\lvgl/src/lv_core/lv_disp.h **** /**********************
  24:..\..\..\lvgl\version_6.1.2\lvgl/src/lv_core/lv_disp.h ****  *      TYPEDEFS
  25:..\..\..\lvgl\version_6.1.2\lvgl/src/lv_core/lv_disp.h ****  **********************/
  26:..\..\..\lvgl\version_6.1.2\lvgl/src/lv_core/lv_disp.h **** 
  27:..\..\..\lvgl\version_6.1.2\lvgl/src/lv_core/lv_disp.h **** /**********************
  28:..\..\..\lvgl\version_6.1.2\lvgl/src/lv_core/lv_disp.h ****  * GLOBAL PROTOTYPES
  29:..\..\..\lvgl\version_6.1.2\lvgl/src/lv_core/lv_disp.h ****  **********************/
  30:..\..\..\lvgl\version_6.1.2\lvgl/src/lv_core/lv_disp.h **** 
ARM GAS  C:\Users\chris\AppData\Local\Temp\ccGnetZg.s 			page 2


  31:..\..\..\lvgl\version_6.1.2\lvgl/src/lv_core/lv_disp.h **** /**
  32:..\..\..\lvgl\version_6.1.2\lvgl/src/lv_core/lv_disp.h ****  * Return with a pointer to the active screen
  33:..\..\..\lvgl\version_6.1.2\lvgl/src/lv_core/lv_disp.h ****  * @param disp pointer to display which active screen should be get. (NULL to use the default
  34:..\..\..\lvgl\version_6.1.2\lvgl/src/lv_core/lv_disp.h ****  * screen)
  35:..\..\..\lvgl\version_6.1.2\lvgl/src/lv_core/lv_disp.h ****  * @return pointer to the active screen object (loaded by 'lv_scr_load()')
  36:..\..\..\lvgl\version_6.1.2\lvgl/src/lv_core/lv_disp.h ****  */
  37:..\..\..\lvgl\version_6.1.2\lvgl/src/lv_core/lv_disp.h **** lv_obj_t * lv_disp_get_scr_act(lv_disp_t * disp);
  38:..\..\..\lvgl\version_6.1.2\lvgl/src/lv_core/lv_disp.h **** 
  39:..\..\..\lvgl\version_6.1.2\lvgl/src/lv_core/lv_disp.h **** /**
  40:..\..\..\lvgl\version_6.1.2\lvgl/src/lv_core/lv_disp.h ****  * Make a screen active
  41:..\..\..\lvgl\version_6.1.2\lvgl/src/lv_core/lv_disp.h ****  * @param scr pointer to a screen
  42:..\..\..\lvgl\version_6.1.2\lvgl/src/lv_core/lv_disp.h ****  */
  43:..\..\..\lvgl\version_6.1.2\lvgl/src/lv_core/lv_disp.h **** void lv_disp_load_scr(lv_obj_t * scr);
  44:..\..\..\lvgl\version_6.1.2\lvgl/src/lv_core/lv_disp.h **** 
  45:..\..\..\lvgl\version_6.1.2\lvgl/src/lv_core/lv_disp.h **** /**
  46:..\..\..\lvgl\version_6.1.2\lvgl/src/lv_core/lv_disp.h ****  * Return with the top layer. (Same on every screen and it is above the normal screen layer)
  47:..\..\..\lvgl\version_6.1.2\lvgl/src/lv_core/lv_disp.h ****  * @param disp pointer to display which top layer should be get. (NULL to use the default screen)
  48:..\..\..\lvgl\version_6.1.2\lvgl/src/lv_core/lv_disp.h ****  * @return pointer to the top layer object  (transparent screen sized lv_obj)
  49:..\..\..\lvgl\version_6.1.2\lvgl/src/lv_core/lv_disp.h ****  */
  50:..\..\..\lvgl\version_6.1.2\lvgl/src/lv_core/lv_disp.h **** lv_obj_t * lv_disp_get_layer_top(lv_disp_t * disp);
  51:..\..\..\lvgl\version_6.1.2\lvgl/src/lv_core/lv_disp.h **** 
  52:..\..\..\lvgl\version_6.1.2\lvgl/src/lv_core/lv_disp.h **** /**
  53:..\..\..\lvgl\version_6.1.2\lvgl/src/lv_core/lv_disp.h ****  * Return with the sys. layer. (Same on every screen and it is above the normal screen and the top
  54:..\..\..\lvgl\version_6.1.2\lvgl/src/lv_core/lv_disp.h ****  * layer)
  55:..\..\..\lvgl\version_6.1.2\lvgl/src/lv_core/lv_disp.h ****  * @param disp pointer to display which sys. layer  should be get. (NULL to use the default screen)
  56:..\..\..\lvgl\version_6.1.2\lvgl/src/lv_core/lv_disp.h ****  * @return pointer to the sys layer object  (transparent screen sized lv_obj)
  57:..\..\..\lvgl\version_6.1.2\lvgl/src/lv_core/lv_disp.h ****  */
  58:..\..\..\lvgl\version_6.1.2\lvgl/src/lv_core/lv_disp.h **** lv_obj_t * lv_disp_get_layer_sys(lv_disp_t * disp);
  59:..\..\..\lvgl\version_6.1.2\lvgl/src/lv_core/lv_disp.h **** 
  60:..\..\..\lvgl\version_6.1.2\lvgl/src/lv_core/lv_disp.h **** /**
  61:..\..\..\lvgl\version_6.1.2\lvgl/src/lv_core/lv_disp.h ****  * Assign a screen to a display.
  62:..\..\..\lvgl\version_6.1.2\lvgl/src/lv_core/lv_disp.h ****  * @param disp pointer to a display where to assign the screen
  63:..\..\..\lvgl\version_6.1.2\lvgl/src/lv_core/lv_disp.h ****  * @param scr pointer to a screen object to assign
  64:..\..\..\lvgl\version_6.1.2\lvgl/src/lv_core/lv_disp.h ****  */
  65:..\..\..\lvgl\version_6.1.2\lvgl/src/lv_core/lv_disp.h **** void lv_disp_assign_screen(lv_disp_t * disp, lv_obj_t * scr);
  66:..\..\..\lvgl\version_6.1.2\lvgl/src/lv_core/lv_disp.h **** 
  67:..\..\..\lvgl\version_6.1.2\lvgl/src/lv_core/lv_disp.h **** /**
  68:..\..\..\lvgl\version_6.1.2\lvgl/src/lv_core/lv_disp.h ****  * Get a pointer to the screen refresher task to
  69:..\..\..\lvgl\version_6.1.2\lvgl/src/lv_core/lv_disp.h ****  * modify its parameters with `lv_task_...` functions.
  70:..\..\..\lvgl\version_6.1.2\lvgl/src/lv_core/lv_disp.h ****  * @param disp pointer to a display
  71:..\..\..\lvgl\version_6.1.2\lvgl/src/lv_core/lv_disp.h ****  * @return pointer to the display refresher task. (NULL on error)
  72:..\..\..\lvgl\version_6.1.2\lvgl/src/lv_core/lv_disp.h ****  */
  73:..\..\..\lvgl\version_6.1.2\lvgl/src/lv_core/lv_disp.h **** lv_task_t * lv_disp_get_refr_task(lv_disp_t * disp);
  74:..\..\..\lvgl\version_6.1.2\lvgl/src/lv_core/lv_disp.h **** 
  75:..\..\..\lvgl\version_6.1.2\lvgl/src/lv_core/lv_disp.h **** /**
  76:..\..\..\lvgl\version_6.1.2\lvgl/src/lv_core/lv_disp.h ****  * Get elapsed time since last user activity on a display (e.g. click)
  77:..\..\..\lvgl\version_6.1.2\lvgl/src/lv_core/lv_disp.h ****  * @param disp pointer to an display (NULL to get the overall smallest inactivity)
  78:..\..\..\lvgl\version_6.1.2\lvgl/src/lv_core/lv_disp.h ****  * @return elapsed ticks (milliseconds) since the last activity
  79:..\..\..\lvgl\version_6.1.2\lvgl/src/lv_core/lv_disp.h ****  */
  80:..\..\..\lvgl\version_6.1.2\lvgl/src/lv_core/lv_disp.h **** uint32_t lv_disp_get_inactive_time(const lv_disp_t * disp);
  81:..\..\..\lvgl\version_6.1.2\lvgl/src/lv_core/lv_disp.h **** 
  82:..\..\..\lvgl\version_6.1.2\lvgl/src/lv_core/lv_disp.h **** /**
  83:..\..\..\lvgl\version_6.1.2\lvgl/src/lv_core/lv_disp.h ****  * Manually trigger an activity on a display
  84:..\..\..\lvgl\version_6.1.2\lvgl/src/lv_core/lv_disp.h ****  * @param disp pointer to an display (NULL to use the default display)
  85:..\..\..\lvgl\version_6.1.2\lvgl/src/lv_core/lv_disp.h ****  */
  86:..\..\..\lvgl\version_6.1.2\lvgl/src/lv_core/lv_disp.h **** void lv_disp_trig_activity(lv_disp_t * disp);
  87:..\..\..\lvgl\version_6.1.2\lvgl/src/lv_core/lv_disp.h **** 
ARM GAS  C:\Users\chris\AppData\Local\Temp\ccGnetZg.s 			page 3


  88:..\..\..\lvgl\version_6.1.2\lvgl/src/lv_core/lv_disp.h **** /*------------------------------------------------
  89:..\..\..\lvgl\version_6.1.2\lvgl/src/lv_core/lv_disp.h ****  * To improve backward compatibility
  90:..\..\..\lvgl\version_6.1.2\lvgl/src/lv_core/lv_disp.h ****  * Recommended only if you have one display
  91:..\..\..\lvgl\version_6.1.2\lvgl/src/lv_core/lv_disp.h ****  *------------------------------------------------*/
  92:..\..\..\lvgl\version_6.1.2\lvgl/src/lv_core/lv_disp.h **** 
  93:..\..\..\lvgl\version_6.1.2\lvgl/src/lv_core/lv_disp.h **** /**
  94:..\..\..\lvgl\version_6.1.2\lvgl/src/lv_core/lv_disp.h ****  * Get the active screen of the default display
  95:..\..\..\lvgl\version_6.1.2\lvgl/src/lv_core/lv_disp.h ****  * @return pointer to the active screen
  96:..\..\..\lvgl\version_6.1.2\lvgl/src/lv_core/lv_disp.h ****  */
  97:..\..\..\lvgl\version_6.1.2\lvgl/src/lv_core/lv_disp.h **** static inline lv_obj_t * lv_scr_act(void)
  98:..\..\..\lvgl\version_6.1.2\lvgl/src/lv_core/lv_disp.h **** {
  28              		.loc 1 98 0
  29              		.cfi_startproc
  30              		@ args = 0, pretend = 0, frame = 0
  31              		@ frame_needed = 1, uses_anonymous_args = 0
  32 0000 80B5     		push	{r7, lr}
  33              		.cfi_def_cfa_offset 8
  34              		.cfi_offset 7, -8
  35              		.cfi_offset 14, -4
  36 0002 00AF     		add	r7, sp, #0
  37              		.cfi_def_cfa_register 7
  99:..\..\..\lvgl\version_6.1.2\lvgl/src/lv_core/lv_disp.h ****     return lv_disp_get_scr_act(lv_disp_get_default());
  38              		.loc 1 99 0
  39 0004 FFF7FEFF 		bl	lv_disp_get_default
  40 0008 0346     		mov	r3, r0
  41 000a 1846     		mov	r0, r3
  42 000c FFF7FEFF 		bl	lv_disp_get_scr_act
  43 0010 0346     		mov	r3, r0
 100:..\..\..\lvgl\version_6.1.2\lvgl/src/lv_core/lv_disp.h **** }
  44              		.loc 1 100 0
  45 0012 1846     		mov	r0, r3
  46 0014 80BD     		pop	{r7, pc}
  47              		.cfi_endproc
  48              	.LFE613:
  49              		.size	lv_scr_act, .-lv_scr_act
  50 0016 00BF     		.bss
  51              		.align	2
  52              	label_dat:
  53 0000 00000000 		.space	4
  54              		.align	2
  55              	label_tim:
  56 0004 00000000 		.space	4
  57              		.section	.rodata
  58              		.align	2
  59              	.LC0:
  60 0000 4A616E75 		.ascii	"January\000"
  60      61727900 
  61              		.align	2
  62              	.LC1:
  63 0008 46656272 		.ascii	"February\000"
  63      75617279 
  63      00
  64 0011 000000   		.align	2
  65              	.LC2:
  66 0014 4D617263 		.ascii	"March\000"
  66      6800
  67 001a 0000     		.align	2
ARM GAS  C:\Users\chris\AppData\Local\Temp\ccGnetZg.s 			page 4


  68              	.LC3:
  69 001c 41707269 		.ascii	"April\000"
  69      6C00
  70 0022 0000     		.align	2
  71              	.LC4:
  72 0024 4D617900 		.ascii	"May\000"
  73              		.align	2
  74              	.LC5:
  75 0028 4A756E65 		.ascii	"June\000"
  75      00
  76 002d 000000   		.align	2
  77              	.LC6:
  78 0030 4A756C79 		.ascii	"July\000"
  78      00
  79 0035 000000   		.align	2
  80              	.LC7:
  81 0038 41756775 		.ascii	"August\000"
  81      737400
  82 003f 00       		.align	2
  83              	.LC8:
  84 0040 53657074 		.ascii	"September\000"
  84      656D6265 
  84      7200
  85 004a 0000     		.align	2
  86              	.LC9:
  87 004c 4F63746F 		.ascii	"October\000"
  87      62657200 
  88              		.align	2
  89              	.LC10:
  90 0054 4E6F7665 		.ascii	"November\000"
  90      6D626572 
  90      00
  91 005d 000000   		.align	2
  92              	.LC11:
  93 0060 44656365 		.ascii	"December\000"
  93      6D626572 
  93      00
  94              		.data
  95              		.align	2
  96              		.type	months, %object
  97              		.size	months, 48
  98              	months:
  99 0000 00000000 		.word	.LC0
 100 0004 08000000 		.word	.LC1
 101 0008 14000000 		.word	.LC2
 102 000c 1C000000 		.word	.LC3
 103 0010 24000000 		.word	.LC4
 104 0014 28000000 		.word	.LC5
 105 0018 30000000 		.word	.LC6
 106 001c 38000000 		.word	.LC7
 107 0020 40000000 		.word	.LC8
 108 0024 4C000000 		.word	.LC9
 109 0028 54000000 		.word	.LC10
 110 002c 60000000 		.word	.LC11
 111              		.align	2
 112              		.type	today, %object
 113              		.size	today, 4
ARM GAS  C:\Users\chris\AppData\Local\Temp\ccGnetZg.s 			page 5


 114              	today:
 115 0030 E507     		.short	2021
 116 0032 01       		.byte	1
 117 0033 14       		.byte	20
 118              		.global	day_names
 119              		.section	.rodata
 120 0069 000000   		.align	2
 121              	.LC12:
 122 006c 537500   		.ascii	"Su\000"
 123 006f 00       		.align	2
 124              	.LC13:
 125 0070 4D00     		.ascii	"M\000"
 126 0072 0000     		.align	2
 127              	.LC14:
 128 0074 547500   		.ascii	"Tu\000"
 129 0077 00       		.align	2
 130              	.LC15:
 131 0078 5700     		.ascii	"W\000"
 132 007a 0000     		.align	2
 133              	.LC16:
 134 007c 546800   		.ascii	"Th\000"
 135 007f 00       		.align	2
 136              	.LC17:
 137 0080 4600     		.ascii	"F\000"
 138 0082 0000     		.align	2
 139              	.LC18:
 140 0084 536100   		.ascii	"Sa\000"
 141              		.data
 142              		.align	2
 143              		.type	day_names, %object
 144              		.size	day_names, 28
 145              	day_names:
 146 0034 6C000000 		.word	.LC12
 147 0038 70000000 		.word	.LC13
 148 003c 74000000 		.word	.LC14
 149 0040 78000000 		.word	.LC15
 150 0044 7C000000 		.word	.LC16
 151 0048 80000000 		.word	.LC17
 152 004c 84000000 		.word	.LC18
 153              		.section	.text.set_label_dat,"ax",%progbits
 154              		.align	2
 155              		.global	set_label_dat
 156              		.thumb
 157              		.thumb_func
 158              		.type	set_label_dat, %function
 159              	set_label_dat:
 160              	.LFB717:
 161              		.file 2 "time_date_activity.c"
   1:time_date_activity.c **** #include <stdio.h>
   2:time_date_activity.c **** #include "project.h"
   3:time_date_activity.c **** #include "lvgl.h"
   4:time_date_activity.c **** #include "time_date_activity.h"
   5:time_date_activity.c **** 
   6:time_date_activity.c **** static lv_obj_t *label_dat;
   7:time_date_activity.c **** static lv_obj_t *label_tim;
   8:time_date_activity.c **** 
   9:time_date_activity.c **** static char *months[] =
ARM GAS  C:\Users\chris\AppData\Local\Temp\ccGnetZg.s 			page 6


  10:time_date_activity.c **** {
  11:time_date_activity.c ****     "January",
  12:time_date_activity.c ****     "February",
  13:time_date_activity.c ****     "March",
  14:time_date_activity.c ****     "April",
  15:time_date_activity.c ****     "May",
  16:time_date_activity.c ****     "June",
  17:time_date_activity.c ****     "July",
  18:time_date_activity.c ****     "August",
  19:time_date_activity.c ****     "September",
  20:time_date_activity.c ****     "October",
  21:time_date_activity.c ****     "November",
  22:time_date_activity.c ****     "December"
  23:time_date_activity.c **** };
  24:time_date_activity.c **** 
  25:time_date_activity.c **** static lv_calendar_date_t   today = 
  26:time_date_activity.c **** {
  27:time_date_activity.c ****     .year=2021,
  28:time_date_activity.c ****     .month=1,
  29:time_date_activity.c ****     .day=20
  30:time_date_activity.c **** };
  31:time_date_activity.c **** 
  32:time_date_activity.c **** const char * day_names[7] = {"Su", "M", "Tu", "W", "Th", "F", "Sa"};
  33:time_date_activity.c **** 
  34:time_date_activity.c **** void set_label_dat(lv_obj_t *obj)
  35:time_date_activity.c **** {
 162              		.loc 2 35 0
 163              		.cfi_startproc
 164              		@ args = 0, pretend = 0, frame = 8
 165              		@ frame_needed = 1, uses_anonymous_args = 0
 166              		@ link register save eliminated.
 167 0000 80B4     		push	{r7}
 168              		.cfi_def_cfa_offset 4
 169              		.cfi_offset 7, -4
 170 0002 83B0     		sub	sp, sp, #12
 171              		.cfi_def_cfa_offset 16
 172 0004 00AF     		add	r7, sp, #0
 173              		.cfi_def_cfa_register 7
 174 0006 7860     		str	r0, [r7, #4]
  36:time_date_activity.c ****     label_dat = obj;
 175              		.loc 2 36 0
 176 0008 044A     		ldr	r2, .L4
 177 000a 7B68     		ldr	r3, [r7, #4]
 178 000c 1360     		str	r3, [r2]
  37:time_date_activity.c **** }
 179              		.loc 2 37 0
 180 000e 00BF     		nop
 181 0010 0C37     		adds	r7, r7, #12
 182              		.cfi_def_cfa_offset 4
 183 0012 BD46     		mov	sp, r7
 184              		.cfi_def_cfa_register 13
 185              		@ sp needed
 186 0014 5DF8047B 		ldr	r7, [sp], #4
 187              		.cfi_restore 7
 188              		.cfi_def_cfa_offset 0
 189 0018 7047     		bx	lr
 190              	.L5:
ARM GAS  C:\Users\chris\AppData\Local\Temp\ccGnetZg.s 			page 7


 191 001a 00BF     		.align	2
 192              	.L4:
 193 001c 00000000 		.word	label_dat
 194              		.cfi_endproc
 195              	.LFE717:
 196              		.size	set_label_dat, .-set_label_dat
 197              		.section	.text.set_label_tim,"ax",%progbits
 198              		.align	2
 199              		.global	set_label_tim
 200              		.thumb
 201              		.thumb_func
 202              		.type	set_label_tim, %function
 203              	set_label_tim:
 204              	.LFB718:
  38:time_date_activity.c **** 
  39:time_date_activity.c **** void set_label_tim(lv_obj_t *obj)
  40:time_date_activity.c **** {
 205              		.loc 2 40 0
 206              		.cfi_startproc
 207              		@ args = 0, pretend = 0, frame = 8
 208              		@ frame_needed = 1, uses_anonymous_args = 0
 209              		@ link register save eliminated.
 210 0000 80B4     		push	{r7}
 211              		.cfi_def_cfa_offset 4
 212              		.cfi_offset 7, -4
 213 0002 83B0     		sub	sp, sp, #12
 214              		.cfi_def_cfa_offset 16
 215 0004 00AF     		add	r7, sp, #0
 216              		.cfi_def_cfa_register 7
 217 0006 7860     		str	r0, [r7, #4]
  41:time_date_activity.c ****     label_tim = obj;
 218              		.loc 2 41 0
 219 0008 044A     		ldr	r2, .L7
 220 000a 7B68     		ldr	r3, [r7, #4]
 221 000c 1360     		str	r3, [r2]
  42:time_date_activity.c **** }
 222              		.loc 2 42 0
 223 000e 00BF     		nop
 224 0010 0C37     		adds	r7, r7, #12
 225              		.cfi_def_cfa_offset 4
 226 0012 BD46     		mov	sp, r7
 227              		.cfi_def_cfa_register 13
 228              		@ sp needed
 229 0014 5DF8047B 		ldr	r7, [sp], #4
 230              		.cfi_restore 7
 231              		.cfi_def_cfa_offset 0
 232 0018 7047     		bx	lr
 233              	.L8:
 234 001a 00BF     		.align	2
 235              	.L7:
 236 001c 04000000 		.word	label_tim
 237              		.cfi_endproc
 238              	.LFE718:
 239              		.size	set_label_tim, .-set_label_tim
 240              		.section	.rodata
 241 0087 00       		.align	2
 242              	.LC19:
ARM GAS  C:\Users\chris\AppData\Local\Temp\ccGnetZg.s 			page 8


 243 0088 25732025 		.ascii	"%s %2d, %4d\000"
 243      32642C20 
 243      25346400 
 244              		.section	.text.calendar_event_handler,"ax",%progbits
 245              		.align	2
 246              		.thumb
 247              		.thumb_func
 248              		.type	calendar_event_handler, %function
 249              	calendar_event_handler:
 250              	.LFB719:
  43:time_date_activity.c **** 
  44:time_date_activity.c **** static void calendar_event_handler(lv_obj_t * obj, lv_event_t event)
  45:time_date_activity.c **** {
 251              		.loc 2 45 0
 252              		.cfi_startproc
 253              		@ args = 0, pretend = 0, frame = 16
 254              		@ frame_needed = 1, uses_anonymous_args = 0
 255 0000 80B5     		push	{r7, lr}
 256              		.cfi_def_cfa_offset 8
 257              		.cfi_offset 7, -8
 258              		.cfi_offset 14, -4
 259 0002 86B0     		sub	sp, sp, #24
 260              		.cfi_def_cfa_offset 32
 261 0004 02AF     		add	r7, sp, #8
 262              		.cfi_def_cfa 7, 24
 263 0006 7860     		str	r0, [r7, #4]
 264 0008 0B46     		mov	r3, r1
 265 000a FB70     		strb	r3, [r7, #3]
  46:time_date_activity.c ****     static char date_str[64];
  47:time_date_activity.c ****     
  48:time_date_activity.c ****     if(event == LV_EVENT_CLICKED) 
 266              		.loc 2 48 0
 267 000c FB78     		ldrb	r3, [r7, #3]	@ zero_extendqisi2
 268 000e 062B     		cmp	r3, #6
 269 0010 2AD1     		bne	.L11
 270              	.LBB2:
  49:time_date_activity.c ****     {
  50:time_date_activity.c ****         lv_calendar_date_t * date = lv_calendar_get_pressed_date(obj);
 271              		.loc 2 50 0
 272 0012 7868     		ldr	r0, [r7, #4]
 273 0014 FFF7FEFF 		bl	lv_calendar_get_pressed_date
 274 0018 F860     		str	r0, [r7, #12]
  51:time_date_activity.c ****         if(date) 
 275              		.loc 2 51 0
 276 001a FB68     		ldr	r3, [r7, #12]
 277 001c 002B     		cmp	r3, #0
 278 001e 23D0     		beq	.L11
  52:time_date_activity.c ****         {
  53:time_date_activity.c ****             lv_calendar_set_today_date(obj, date);
 279              		.loc 2 53 0
 280 0020 F968     		ldr	r1, [r7, #12]
 281 0022 7868     		ldr	r0, [r7, #4]
 282 0024 FFF7FEFF 		bl	lv_calendar_set_today_date
  54:time_date_activity.c ****             today = *date;
 283              		.loc 2 54 0
 284 0028 114B     		ldr	r3, .L12
 285 002a FA68     		ldr	r2, [r7, #12]
ARM GAS  C:\Users\chris\AppData\Local\Temp\ccGnetZg.s 			page 9


 286 002c 1068     		ldr	r0, [r2]	@ unaligned
 287 002e 1860     		str	r0, [r3]	@ unaligned
  55:time_date_activity.c **** 
  56:time_date_activity.c ****             sprintf( date_str, "%s %2d, %4d", months[today.month-1], today.day, today.year );
 288              		.loc 2 56 0
 289 0030 0F4B     		ldr	r3, .L12
 290 0032 93F90230 		ldrsb	r3, [r3, #2]
 291 0036 013B     		subs	r3, r3, #1
 292 0038 0E4A     		ldr	r2, .L12+4
 293 003a 52F82320 		ldr	r2, [r2, r3, lsl #2]
 294 003e 0C4B     		ldr	r3, .L12
 295 0040 93F90330 		ldrsb	r3, [r3, #3]
 296 0044 1946     		mov	r1, r3
 297 0046 0A4B     		ldr	r3, .L12
 298 0048 1B88     		ldrh	r3, [r3]
 299 004a 0093     		str	r3, [sp]
 300 004c 0B46     		mov	r3, r1
 301 004e 0A49     		ldr	r1, .L12+8
 302 0050 0A48     		ldr	r0, .L12+12
 303 0052 FFF7FEFF 		bl	sprintf
  57:time_date_activity.c ****             lv_label_set_text( label_dat, date_str );
 304              		.loc 2 57 0
 305 0056 0A4B     		ldr	r3, .L12+16
 306 0058 1B68     		ldr	r3, [r3]
 307 005a 0849     		ldr	r1, .L12+12
 308 005c 1846     		mov	r0, r3
 309 005e FFF7FEFF 		bl	lv_label_set_text
  58:time_date_activity.c **** 
  59:time_date_activity.c ****             lv_obj_del(obj);
 310              		.loc 2 59 0
 311 0062 7868     		ldr	r0, [r7, #4]
 312 0064 FFF7FEFF 		bl	lv_obj_del
 313              	.L11:
 314              	.LBE2:
  60:time_date_activity.c ****         }
  61:time_date_activity.c ****     }
  62:time_date_activity.c **** }
 315              		.loc 2 62 0
 316 0068 00BF     		nop
 317 006a 1037     		adds	r7, r7, #16
 318              		.cfi_def_cfa_offset 8
 319 006c BD46     		mov	sp, r7
 320              		.cfi_def_cfa_register 13
 321              		@ sp needed
 322 006e 80BD     		pop	{r7, pc}
 323              	.L13:
 324              		.align	2
 325              	.L12:
 326 0070 30000000 		.word	today
 327 0074 00000000 		.word	months
 328 0078 88000000 		.word	.LC19
 329 007c 5C000000 		.word	date_str.20319
 330 0080 00000000 		.word	label_dat
 331              		.cfi_endproc
 332              	.LFE719:
 333              		.size	calendar_event_handler, .-calendar_event_handler
 334              		.section	.text.date_activity_action,"ax",%progbits
ARM GAS  C:\Users\chris\AppData\Local\Temp\ccGnetZg.s 			page 10


 335              		.align	2
 336              		.global	date_activity_action
 337              		.thumb
 338              		.thumb_func
 339              		.type	date_activity_action, %function
 340              	date_activity_action:
 341              	.LFB720:
  63:time_date_activity.c **** 
  64:time_date_activity.c **** void date_activity_action(lv_obj_t *obj, lv_event_t event)
  65:time_date_activity.c **** {
 342              		.loc 2 65 0
 343              		.cfi_startproc
 344              		@ args = 0, pretend = 0, frame = 16
 345              		@ frame_needed = 1, uses_anonymous_args = 0
 346 0000 80B5     		push	{r7, lr}
 347              		.cfi_def_cfa_offset 8
 348              		.cfi_offset 7, -8
 349              		.cfi_offset 14, -4
 350 0002 86B0     		sub	sp, sp, #24
 351              		.cfi_def_cfa_offset 32
 352 0004 02AF     		add	r7, sp, #8
 353              		.cfi_def_cfa 7, 24
 354 0006 7860     		str	r0, [r7, #4]
 355 0008 0B46     		mov	r3, r1
 356 000a FB70     		strb	r3, [r7, #3]
  66:time_date_activity.c ****     lv_obj_t *calendar;
  67:time_date_activity.c **** 
  68:time_date_activity.c ****     if (event == LV_EVENT_CLICKED)
 357              		.loc 2 68 0
 358 000c FB78     		ldrb	r3, [r7, #3]	@ zero_extendqisi2
 359 000e 062B     		cmp	r3, #6
 360 0010 26D1     		bne	.L16
  69:time_date_activity.c ****     {
  70:time_date_activity.c ****         calendar = lv_calendar_create(lv_scr_act(), NULL);
 361              		.loc 2 70 0
 362 0012 FFF7FEFF 		bl	lv_scr_act
 363 0016 0346     		mov	r3, r0
 364 0018 0021     		movs	r1, #0
 365 001a 1846     		mov	r0, r3
 366 001c FFF7FEFF 		bl	lv_calendar_create
 367 0020 F860     		str	r0, [r7, #12]
  71:time_date_activity.c ****         lv_calendar_set_day_names(calendar, day_names);
 368              		.loc 2 71 0
 369 0022 1149     		ldr	r1, .L17
 370 0024 F868     		ldr	r0, [r7, #12]
 371 0026 FFF7FEFF 		bl	lv_calendar_set_day_names
  72:time_date_activity.c ****         lv_obj_set_size(calendar, 320, 320);
 372              		.loc 2 72 0
 373 002a 4FF4A072 		mov	r2, #320
 374 002e 4FF4A071 		mov	r1, #320
 375 0032 F868     		ldr	r0, [r7, #12]
 376 0034 FFF7FEFF 		bl	lv_obj_set_size
  73:time_date_activity.c ****         lv_obj_align(calendar, NULL, LV_ALIGN_CENTER, 0, 0);
 377              		.loc 2 73 0
 378 0038 0023     		movs	r3, #0
 379 003a 0093     		str	r3, [sp]
 380 003c 0023     		movs	r3, #0
ARM GAS  C:\Users\chris\AppData\Local\Temp\ccGnetZg.s 			page 11


 381 003e 0022     		movs	r2, #0
 382 0040 0021     		movs	r1, #0
 383 0042 F868     		ldr	r0, [r7, #12]
 384 0044 FFF7FEFF 		bl	lv_obj_align
  74:time_date_activity.c ****         lv_obj_set_event_cb(calendar, calendar_event_handler);
 385              		.loc 2 74 0
 386 0048 0849     		ldr	r1, .L17+4
 387 004a F868     		ldr	r0, [r7, #12]
 388 004c FFF7FEFF 		bl	lv_obj_set_event_cb
  75:time_date_activity.c **** 
  76:time_date_activity.c ****         lv_calendar_set_today_date(calendar, &today);
 389              		.loc 2 76 0
 390 0050 0749     		ldr	r1, .L17+8
 391 0052 F868     		ldr	r0, [r7, #12]
 392 0054 FFF7FEFF 		bl	lv_calendar_set_today_date
  77:time_date_activity.c ****         lv_calendar_set_showed_date(calendar, &today);
 393              		.loc 2 77 0
 394 0058 0549     		ldr	r1, .L17+8
 395 005a F868     		ldr	r0, [r7, #12]
 396 005c FFF7FEFF 		bl	lv_calendar_set_showed_date
 397              	.L16:
  78:time_date_activity.c ****     }
  79:time_date_activity.c **** }
 398              		.loc 2 79 0
 399 0060 00BF     		nop
 400 0062 1037     		adds	r7, r7, #16
 401              		.cfi_def_cfa_offset 8
 402 0064 BD46     		mov	sp, r7
 403              		.cfi_def_cfa_register 13
 404              		@ sp needed
 405 0066 80BD     		pop	{r7, pc}
 406              	.L18:
 407              		.align	2
 408              	.L17:
 409 0068 00000000 		.word	day_names
 410 006c 00000000 		.word	calendar_event_handler
 411 0070 30000000 		.word	today
 412              		.cfi_endproc
 413              	.LFE720:
 414              		.size	date_activity_action, .-date_activity_action
 415              		.data
 416              		.align	2
 417              		.type	time_hr, %object
 418              		.size	time_hr, 4
 419              	time_hr:
 420 0050 0C000000 		.word	12
 421              		.bss
 422              		.align	2
 423              	time_mn:
 424 0008 00000000 		.space	4
 425              		.align	2
 426              	time_se:
 427 000c 00000000 		.space	4
 428              		.data
 429              		.align	2
 430              		.type	ap_str, %object
 431              		.size	ap_str, 3
ARM GAS  C:\Users\chris\AppData\Local\Temp\ccGnetZg.s 			page 12


 432              	ap_str:
 433 0054 414D00   		.ascii	"AM\000"
 434              		.bss
 435              		.align	2
 436              	time_str:
 437 0010 00000000 		.space	64
 437      00000000 
 437      00000000 
 437      00000000 
 437      00000000 
 438              		.align	2
 439              	list_hr:
 440 0050 00000000 		.space	4
 441              		.align	2
 442              	list_mn:
 443 0054 00000000 		.space	4
 444              		.align	2
 445              	list_ap:
 446 0058 00000000 		.space	4
 447              		.section	.rodata
 448              		.align	2
 449              	.LC20:
 450 0094 256400   		.ascii	"%d\000"
 451 0097 00       		.align	2
 452              	.LC21:
 453 0098 2532643A 		.ascii	"%2d:%02d %s\000"
 453      25303264 
 453      20257300 
 454              		.section	.text.hr_event_handler,"ax",%progbits
 455              		.align	2
 456              		.thumb
 457              		.thumb_func
 458              		.type	hr_event_handler, %function
 459              	hr_event_handler:
 460              	.LFB721:
  80:time_date_activity.c **** 
  81:time_date_activity.c **** static int  time_hr = 12;
  82:time_date_activity.c **** static int  time_mn = 00;
  83:time_date_activity.c **** static int  time_se = 00;
  84:time_date_activity.c **** static char ap_str[3] = "AM";
  85:time_date_activity.c **** static char time_str[64];
  86:time_date_activity.c **** 
  87:time_date_activity.c **** static lv_obj_t *list_hr;
  88:time_date_activity.c **** static lv_obj_t *list_mn;
  89:time_date_activity.c **** static lv_obj_t *list_ap;   // am or pm
  90:time_date_activity.c **** 
  91:time_date_activity.c **** static void hr_event_handler(lv_obj_t * obj, lv_event_t event)
  92:time_date_activity.c **** {
 461              		.loc 2 92 0
 462              		.cfi_startproc
 463              		@ args = 0, pretend = 0, frame = 8
 464              		@ frame_needed = 1, uses_anonymous_args = 0
 465 0000 80B5     		push	{r7, lr}
 466              		.cfi_def_cfa_offset 8
 467              		.cfi_offset 7, -8
 468              		.cfi_offset 14, -4
 469 0002 84B0     		sub	sp, sp, #16
ARM GAS  C:\Users\chris\AppData\Local\Temp\ccGnetZg.s 			page 13


 470              		.cfi_def_cfa_offset 24
 471 0004 02AF     		add	r7, sp, #8
 472              		.cfi_def_cfa 7, 16
 473 0006 7860     		str	r0, [r7, #4]
 474 0008 0B46     		mov	r3, r1
 475 000a FB70     		strb	r3, [r7, #3]
  93:time_date_activity.c ****     if(event == LV_EVENT_CLICKED) 
 476              		.loc 2 93 0
 477 000c FB78     		ldrb	r3, [r7, #3]	@ zero_extendqisi2
 478 000e 062B     		cmp	r3, #6
 479 0010 19D1     		bne	.L21
  94:time_date_activity.c ****     {
  95:time_date_activity.c ****         sscanf( lv_list_get_btn_text(obj), "%d", &time_hr );
 480              		.loc 2 95 0
 481 0012 7868     		ldr	r0, [r7, #4]
 482 0014 FFF7FEFF 		bl	lv_list_get_btn_text
 483 0018 0346     		mov	r3, r0
 484 001a 0D4A     		ldr	r2, .L22
 485 001c 0D49     		ldr	r1, .L22+4
 486 001e 1846     		mov	r0, r3
 487 0020 FFF7FEFF 		bl	sscanf
  96:time_date_activity.c ****         sprintf( time_str, "%2d:%02d %s", time_hr, time_mn, ap_str );
 488              		.loc 2 96 0
 489 0024 0A4B     		ldr	r3, .L22
 490 0026 1A68     		ldr	r2, [r3]
 491 0028 0B4B     		ldr	r3, .L22+8
 492 002a 1968     		ldr	r1, [r3]
 493 002c 0B4B     		ldr	r3, .L22+12
 494 002e 0093     		str	r3, [sp]
 495 0030 0B46     		mov	r3, r1
 496 0032 0B49     		ldr	r1, .L22+16
 497 0034 0B48     		ldr	r0, .L22+20
 498 0036 FFF7FEFF 		bl	sprintf
  97:time_date_activity.c ****         lv_label_set_static_text( label_tim, time_str );
 499              		.loc 2 97 0
 500 003a 0B4B     		ldr	r3, .L22+24
 501 003c 1B68     		ldr	r3, [r3]
 502 003e 0949     		ldr	r1, .L22+20
 503 0040 1846     		mov	r0, r3
 504 0042 FFF7FEFF 		bl	lv_label_set_static_text
 505              	.L21:
  98:time_date_activity.c ****     }
  99:time_date_activity.c **** }
 506              		.loc 2 99 0
 507 0046 00BF     		nop
 508 0048 0837     		adds	r7, r7, #8
 509              		.cfi_def_cfa_offset 8
 510 004a BD46     		mov	sp, r7
 511              		.cfi_def_cfa_register 13
 512              		@ sp needed
 513 004c 80BD     		pop	{r7, pc}
 514              	.L23:
 515 004e 00BF     		.align	2
 516              	.L22:
 517 0050 50000000 		.word	time_hr
 518 0054 94000000 		.word	.LC20
 519 0058 08000000 		.word	time_mn
ARM GAS  C:\Users\chris\AppData\Local\Temp\ccGnetZg.s 			page 14


 520 005c 54000000 		.word	ap_str
 521 0060 98000000 		.word	.LC21
 522 0064 10000000 		.word	time_str
 523 0068 04000000 		.word	label_tim
 524              		.cfi_endproc
 525              	.LFE721:
 526              		.size	hr_event_handler, .-hr_event_handler
 527              		.section	.text.mn_event_handler,"ax",%progbits
 528              		.align	2
 529              		.thumb
 530              		.thumb_func
 531              		.type	mn_event_handler, %function
 532              	mn_event_handler:
 533              	.LFB722:
 100:time_date_activity.c **** 
 101:time_date_activity.c **** static void mn_event_handler(lv_obj_t * obj, lv_event_t event)
 102:time_date_activity.c **** {
 534              		.loc 2 102 0
 535              		.cfi_startproc
 536              		@ args = 0, pretend = 0, frame = 8
 537              		@ frame_needed = 1, uses_anonymous_args = 0
 538 0000 80B5     		push	{r7, lr}
 539              		.cfi_def_cfa_offset 8
 540              		.cfi_offset 7, -8
 541              		.cfi_offset 14, -4
 542 0002 84B0     		sub	sp, sp, #16
 543              		.cfi_def_cfa_offset 24
 544 0004 02AF     		add	r7, sp, #8
 545              		.cfi_def_cfa 7, 16
 546 0006 7860     		str	r0, [r7, #4]
 547 0008 0B46     		mov	r3, r1
 548 000a FB70     		strb	r3, [r7, #3]
 103:time_date_activity.c ****     if(event == LV_EVENT_CLICKED) 
 549              		.loc 2 103 0
 550 000c FB78     		ldrb	r3, [r7, #3]	@ zero_extendqisi2
 551 000e 062B     		cmp	r3, #6
 552 0010 19D1     		bne	.L26
 104:time_date_activity.c ****     {
 105:time_date_activity.c ****         sscanf( lv_list_get_btn_text(obj), "%d", &time_mn );
 553              		.loc 2 105 0
 554 0012 7868     		ldr	r0, [r7, #4]
 555 0014 FFF7FEFF 		bl	lv_list_get_btn_text
 556 0018 0346     		mov	r3, r0
 557 001a 0D4A     		ldr	r2, .L27
 558 001c 0D49     		ldr	r1, .L27+4
 559 001e 1846     		mov	r0, r3
 560 0020 FFF7FEFF 		bl	sscanf
 106:time_date_activity.c ****         sprintf( time_str, "%2d:%02d %s", time_hr, time_mn, ap_str );
 561              		.loc 2 106 0
 562 0024 0C4B     		ldr	r3, .L27+8
 563 0026 1A68     		ldr	r2, [r3]
 564 0028 094B     		ldr	r3, .L27
 565 002a 1968     		ldr	r1, [r3]
 566 002c 0B4B     		ldr	r3, .L27+12
 567 002e 0093     		str	r3, [sp]
 568 0030 0B46     		mov	r3, r1
 569 0032 0B49     		ldr	r1, .L27+16
ARM GAS  C:\Users\chris\AppData\Local\Temp\ccGnetZg.s 			page 15


 570 0034 0B48     		ldr	r0, .L27+20
 571 0036 FFF7FEFF 		bl	sprintf
 107:time_date_activity.c ****         lv_label_set_static_text( label_tim, time_str );
 572              		.loc 2 107 0
 573 003a 0B4B     		ldr	r3, .L27+24
 574 003c 1B68     		ldr	r3, [r3]
 575 003e 0949     		ldr	r1, .L27+20
 576 0040 1846     		mov	r0, r3
 577 0042 FFF7FEFF 		bl	lv_label_set_static_text
 578              	.L26:
 108:time_date_activity.c ****     }
 109:time_date_activity.c **** }
 579              		.loc 2 109 0
 580 0046 00BF     		nop
 581 0048 0837     		adds	r7, r7, #8
 582              		.cfi_def_cfa_offset 8
 583 004a BD46     		mov	sp, r7
 584              		.cfi_def_cfa_register 13
 585              		@ sp needed
 586 004c 80BD     		pop	{r7, pc}
 587              	.L28:
 588 004e 00BF     		.align	2
 589              	.L27:
 590 0050 08000000 		.word	time_mn
 591 0054 94000000 		.word	.LC20
 592 0058 50000000 		.word	time_hr
 593 005c 54000000 		.word	ap_str
 594 0060 98000000 		.word	.LC21
 595 0064 10000000 		.word	time_str
 596 0068 04000000 		.word	label_tim
 597              		.cfi_endproc
 598              	.LFE722:
 599              		.size	mn_event_handler, .-mn_event_handler
 600              		.section	.text.ap_event_handler,"ax",%progbits
 601              		.align	2
 602              		.thumb
 603              		.thumb_func
 604              		.type	ap_event_handler, %function
 605              	ap_event_handler:
 606              	.LFB723:
 110:time_date_activity.c **** 
 111:time_date_activity.c **** static void ap_event_handler(lv_obj_t * obj, lv_event_t event)
 112:time_date_activity.c **** {
 607              		.loc 2 112 0
 608              		.cfi_startproc
 609              		@ args = 0, pretend = 0, frame = 16
 610              		@ frame_needed = 1, uses_anonymous_args = 0
 611 0000 80B5     		push	{r7, lr}
 612              		.cfi_def_cfa_offset 8
 613              		.cfi_offset 7, -8
 614              		.cfi_offset 14, -4
 615 0002 86B0     		sub	sp, sp, #24
 616              		.cfi_def_cfa_offset 32
 617 0004 02AF     		add	r7, sp, #8
 618              		.cfi_def_cfa 7, 24
 619 0006 7860     		str	r0, [r7, #4]
 620 0008 0B46     		mov	r3, r1
ARM GAS  C:\Users\chris\AppData\Local\Temp\ccGnetZg.s 			page 16


 621 000a FB70     		strb	r3, [r7, #3]
 113:time_date_activity.c ****     if(event == LV_EVENT_CLICKED) 
 622              		.loc 2 113 0
 623 000c FB78     		ldrb	r3, [r7, #3]	@ zero_extendqisi2
 624 000e 062B     		cmp	r3, #6
 625 0010 27D1     		bne	.L31
 626              	.LBB3:
 114:time_date_activity.c ****     {
 115:time_date_activity.c ****         const char *str;
 116:time_date_activity.c ****         
 117:time_date_activity.c ****         str = lv_list_get_btn_text(obj);
 627              		.loc 2 117 0
 628 0012 7868     		ldr	r0, [r7, #4]
 629 0014 FFF7FEFF 		bl	lv_list_get_btn_text
 630 0018 F860     		str	r0, [r7, #12]
 118:time_date_activity.c ****         ap_str[0] = str[0];                 // either A or P
 631              		.loc 2 118 0
 632 001a FB68     		ldr	r3, [r7, #12]
 633 001c 1A78     		ldrb	r2, [r3]	@ zero_extendqisi2
 634 001e 134B     		ldr	r3, .L32
 635 0020 1A70     		strb	r2, [r3]
 119:time_date_activity.c **** 
 120:time_date_activity.c ****         sprintf( time_str, "%2d:%02d %s", time_hr, time_mn, ap_str );
 636              		.loc 2 120 0
 637 0022 134B     		ldr	r3, .L32+4
 638 0024 1A68     		ldr	r2, [r3]
 639 0026 134B     		ldr	r3, .L32+8
 640 0028 1968     		ldr	r1, [r3]
 641 002a 104B     		ldr	r3, .L32
 642 002c 0093     		str	r3, [sp]
 643 002e 0B46     		mov	r3, r1
 644 0030 1149     		ldr	r1, .L32+12
 645 0032 1248     		ldr	r0, .L32+16
 646 0034 FFF7FEFF 		bl	sprintf
 121:time_date_activity.c ****         lv_label_set_static_text( label_tim, time_str );
 647              		.loc 2 121 0
 648 0038 114B     		ldr	r3, .L32+20
 649 003a 1B68     		ldr	r3, [r3]
 650 003c 0F49     		ldr	r1, .L32+16
 651 003e 1846     		mov	r0, r3
 652 0040 FFF7FEFF 		bl	lv_label_set_static_text
 122:time_date_activity.c **** 
 123:time_date_activity.c ****         lv_obj_del(list_hr);
 653              		.loc 2 123 0
 654 0044 0F4B     		ldr	r3, .L32+24
 655 0046 1B68     		ldr	r3, [r3]
 656 0048 1846     		mov	r0, r3
 657 004a FFF7FEFF 		bl	lv_obj_del
 124:time_date_activity.c ****         lv_obj_del(list_mn);
 658              		.loc 2 124 0
 659 004e 0E4B     		ldr	r3, .L32+28
 660 0050 1B68     		ldr	r3, [r3]
 661 0052 1846     		mov	r0, r3
 662 0054 FFF7FEFF 		bl	lv_obj_del
 125:time_date_activity.c ****         lv_obj_del(list_ap);
 663              		.loc 2 125 0
 664 0058 0C4B     		ldr	r3, .L32+32
ARM GAS  C:\Users\chris\AppData\Local\Temp\ccGnetZg.s 			page 17


 665 005a 1B68     		ldr	r3, [r3]
 666 005c 1846     		mov	r0, r3
 667 005e FFF7FEFF 		bl	lv_obj_del
 668              	.L31:
 669              	.LBE3:
 126:time_date_activity.c ****     }
 127:time_date_activity.c **** }
 670              		.loc 2 127 0
 671 0062 00BF     		nop
 672 0064 1037     		adds	r7, r7, #16
 673              		.cfi_def_cfa_offset 8
 674 0066 BD46     		mov	sp, r7
 675              		.cfi_def_cfa_register 13
 676              		@ sp needed
 677 0068 80BD     		pop	{r7, pc}
 678              	.L33:
 679 006a 00BF     		.align	2
 680              	.L32:
 681 006c 54000000 		.word	ap_str
 682 0070 50000000 		.word	time_hr
 683 0074 08000000 		.word	time_mn
 684 0078 98000000 		.word	.LC21
 685 007c 10000000 		.word	time_str
 686 0080 04000000 		.word	label_tim
 687 0084 50000000 		.word	list_hr
 688 0088 54000000 		.word	list_mn
 689 008c 58000000 		.word	list_ap
 690              		.cfi_endproc
 691              	.LFE723:
 692              		.size	ap_event_handler, .-ap_event_handler
 693              		.section	.rodata
 694              		.align	2
 695              	.LC22:
 696 00a4 25303264 		.ascii	"%02d\000"
 696      00
 697 00a9 000000   		.align	2
 698              	.LC23:
 699 00ac 414D00   		.ascii	"AM\000"
 700 00af 00       		.align	2
 701              	.LC24:
 702 00b0 504D00   		.ascii	"PM\000"
 703              		.section	.text.time_activity_action,"ax",%progbits
 704              		.align	2
 705              		.global	time_activity_action
 706              		.thumb
 707              		.thumb_func
 708              		.type	time_activity_action, %function
 709              	time_activity_action:
 710              	.LFB724:
 128:time_date_activity.c **** 
 129:time_date_activity.c **** 
 130:time_date_activity.c **** void time_activity_action(lv_obj_t *obj, lv_event_t event)
 131:time_date_activity.c **** {
 711              		.loc 2 131 0
 712              		.cfi_startproc
 713              		@ args = 0, pretend = 0, frame = 32
 714              		@ frame_needed = 1, uses_anonymous_args = 0
ARM GAS  C:\Users\chris\AppData\Local\Temp\ccGnetZg.s 			page 18


 715 0000 80B5     		push	{r7, lr}
 716              		.cfi_def_cfa_offset 8
 717              		.cfi_offset 7, -8
 718              		.cfi_offset 14, -4
 719 0002 88B0     		sub	sp, sp, #32
 720              		.cfi_def_cfa_offset 40
 721 0004 00AF     		add	r7, sp, #0
 722              		.cfi_def_cfa_register 7
 723 0006 7860     		str	r0, [r7, #4]
 724 0008 0B46     		mov	r3, r1
 725 000a FB70     		strb	r3, [r7, #3]
 132:time_date_activity.c ****     char    num_str[8];
 133:time_date_activity.c ****     int     i;
 134:time_date_activity.c ****     
 135:time_date_activity.c ****     if (event == LV_EVENT_CLICKED)
 726              		.loc 2 135 0
 727 000c FB78     		ldrb	r3, [r7, #3]	@ zero_extendqisi2
 728 000e 062B     		cmp	r3, #6
 729 0010 40F0B880 		bne	.L40
 136:time_date_activity.c ****     {
 137:time_date_activity.c ****         list_hr = lv_list_create(lv_scr_act(), NULL);
 730              		.loc 2 137 0
 731 0014 FFF7FEFF 		bl	lv_scr_act
 732 0018 0346     		mov	r3, r0
 733 001a 0021     		movs	r1, #0
 734 001c 1846     		mov	r0, r3
 735 001e FFF7FEFF 		bl	lv_list_create
 736 0022 0246     		mov	r2, r0
 737 0024 594B     		ldr	r3, .L41
 738 0026 1A60     		str	r2, [r3]
 138:time_date_activity.c ****         lv_obj_set_size(list_hr, 60, 120);
 739              		.loc 2 138 0
 740 0028 584B     		ldr	r3, .L41
 741 002a 1B68     		ldr	r3, [r3]
 742 002c 7822     		movs	r2, #120
 743 002e 3C21     		movs	r1, #60
 744 0030 1846     		mov	r0, r3
 745 0032 FFF7FEFF 		bl	lv_obj_set_size
 139:time_date_activity.c ****         lv_obj_set_pos(list_hr, 10, 10);
 746              		.loc 2 139 0
 747 0036 554B     		ldr	r3, .L41
 748 0038 1B68     		ldr	r3, [r3]
 749 003a 0A22     		movs	r2, #10
 750 003c 0A21     		movs	r1, #10
 751 003e 1846     		mov	r0, r3
 752 0040 FFF7FEFF 		bl	lv_obj_set_pos
 140:time_date_activity.c ****         
 141:time_date_activity.c ****         /*Add buttons*/
 142:time_date_activity.c ****         for(i = 0; i < 12; i++) 
 753              		.loc 2 142 0
 754 0044 0023     		movs	r3, #0
 755 0046 FB61     		str	r3, [r7, #28]
 756 0048 28E0     		b	.L36
 757              	.L37:
 758              	.LBB4:
 143:time_date_activity.c ****         {
 144:time_date_activity.c ****             lv_obj_t *btn;
ARM GAS  C:\Users\chris\AppData\Local\Temp\ccGnetZg.s 			page 19


 145:time_date_activity.c ****             sprintf( num_str, "%d", ((11+i)%12) + 1 );
 759              		.loc 2 145 0 discriminator 3
 760 004a FB69     		ldr	r3, [r7, #28]
 761 004c 03F10B01 		add	r1, r3, #11
 762 0050 4F4B     		ldr	r3, .L41+4
 763 0052 83FB0123 		smull	r2, r3, r3, r1
 764 0056 5A10     		asrs	r2, r3, #1
 765 0058 CB17     		asrs	r3, r1, #31
 766 005a D21A     		subs	r2, r2, r3
 767 005c 1346     		mov	r3, r2
 768 005e 5B00     		lsls	r3, r3, #1
 769 0060 1344     		add	r3, r3, r2
 770 0062 9B00     		lsls	r3, r3, #2
 771 0064 CA1A     		subs	r2, r1, r3
 772 0066 0132     		adds	r2, r2, #1
 773 0068 07F10803 		add	r3, r7, #8
 774 006c 4949     		ldr	r1, .L41+8
 775 006e 1846     		mov	r0, r3
 776 0070 FFF7FEFF 		bl	sprintf
 146:time_date_activity.c ****             btn = lv_list_add_btn(list_hr, NULL, num_str);
 777              		.loc 2 146 0 discriminator 3
 778 0074 454B     		ldr	r3, .L41
 779 0076 1B68     		ldr	r3, [r3]
 780 0078 07F10802 		add	r2, r7, #8
 781 007c 0021     		movs	r1, #0
 782 007e 1846     		mov	r0, r3
 783 0080 FFF7FEFF 		bl	lv_list_add_btn
 784 0084 B861     		str	r0, [r7, #24]
 147:time_date_activity.c ****             lv_obj_set_event_cb(btn, hr_event_handler);                           /*Assign event fu
 785              		.loc 2 147 0 discriminator 3
 786 0086 4449     		ldr	r1, .L41+12
 787 0088 B869     		ldr	r0, [r7, #24]
 788 008a FFF7FEFF 		bl	lv_obj_set_event_cb
 148:time_date_activity.c ****             lv_btn_set_toggle(btn, true);                                           /*Enable on/off
 789              		.loc 2 148 0 discriminator 3
 790 008e 0121     		movs	r1, #1
 791 0090 B869     		ldr	r0, [r7, #24]
 792 0092 FFF7FEFF 		bl	lv_btn_set_toggle
 793              	.LBE4:
 142:time_date_activity.c ****         {
 794              		.loc 2 142 0 discriminator 3
 795 0096 FB69     		ldr	r3, [r7, #28]
 796 0098 0133     		adds	r3, r3, #1
 797 009a FB61     		str	r3, [r7, #28]
 798              	.L36:
 142:time_date_activity.c ****         {
 799              		.loc 2 142 0 is_stmt 0 discriminator 1
 800 009c FB69     		ldr	r3, [r7, #28]
 801 009e 0B2B     		cmp	r3, #11
 802 00a0 D3DD     		ble	.L37
 149:time_date_activity.c ****         }
 150:time_date_activity.c ****      
 151:time_date_activity.c ****         list_mn = lv_list_create(lv_scr_act(), NULL);
 803              		.loc 2 151 0 is_stmt 1
 804 00a2 FFF7FEFF 		bl	lv_scr_act
 805 00a6 0346     		mov	r3, r0
 806 00a8 0021     		movs	r1, #0
ARM GAS  C:\Users\chris\AppData\Local\Temp\ccGnetZg.s 			page 20


 807 00aa 1846     		mov	r0, r3
 808 00ac FFF7FEFF 		bl	lv_list_create
 809 00b0 0246     		mov	r2, r0
 810 00b2 3A4B     		ldr	r3, .L41+16
 811 00b4 1A60     		str	r2, [r3]
 152:time_date_activity.c ****         lv_obj_set_size(list_mn, 60, 120);
 812              		.loc 2 152 0
 813 00b6 394B     		ldr	r3, .L41+16
 814 00b8 1B68     		ldr	r3, [r3]
 815 00ba 7822     		movs	r2, #120
 816 00bc 3C21     		movs	r1, #60
 817 00be 1846     		mov	r0, r3
 818 00c0 FFF7FEFF 		bl	lv_obj_set_size
 153:time_date_activity.c ****         lv_obj_set_pos(list_mn, 70, 10);
 819              		.loc 2 153 0
 820 00c4 354B     		ldr	r3, .L41+16
 821 00c6 1B68     		ldr	r3, [r3]
 822 00c8 0A22     		movs	r2, #10
 823 00ca 4621     		movs	r1, #70
 824 00cc 1846     		mov	r0, r3
 825 00ce FFF7FEFF 		bl	lv_obj_set_pos
 154:time_date_activity.c ****         
 155:time_date_activity.c ****         /*Add buttons*/
 156:time_date_activity.c ****         for(i = 0; i < 60; i++) 
 826              		.loc 2 156 0
 827 00d2 0023     		movs	r3, #0
 828 00d4 FB61     		str	r3, [r7, #28]
 829 00d6 1AE0     		b	.L38
 830              	.L39:
 831              	.LBB5:
 157:time_date_activity.c ****         {
 158:time_date_activity.c ****             lv_obj_t *btn;
 159:time_date_activity.c ****             sprintf( num_str, "%02d", i);
 832              		.loc 2 159 0 discriminator 3
 833 00d8 07F10803 		add	r3, r7, #8
 834 00dc FA69     		ldr	r2, [r7, #28]
 835 00de 3049     		ldr	r1, .L41+20
 836 00e0 1846     		mov	r0, r3
 837 00e2 FFF7FEFF 		bl	sprintf
 160:time_date_activity.c ****             btn = lv_list_add_btn(list_mn, NULL, num_str);
 838              		.loc 2 160 0 discriminator 3
 839 00e6 2D4B     		ldr	r3, .L41+16
 840 00e8 1B68     		ldr	r3, [r3]
 841 00ea 07F10802 		add	r2, r7, #8
 842 00ee 0021     		movs	r1, #0
 843 00f0 1846     		mov	r0, r3
 844 00f2 FFF7FEFF 		bl	lv_list_add_btn
 845 00f6 7861     		str	r0, [r7, #20]
 161:time_date_activity.c ****             lv_obj_set_event_cb(btn, mn_event_handler);                           /*Assign event fu
 846              		.loc 2 161 0 discriminator 3
 847 00f8 2A49     		ldr	r1, .L41+24
 848 00fa 7869     		ldr	r0, [r7, #20]
 849 00fc FFF7FEFF 		bl	lv_obj_set_event_cb
 162:time_date_activity.c ****             lv_btn_set_toggle(btn, true);                                           /*Enable on/off
 850              		.loc 2 162 0 discriminator 3
 851 0100 0121     		movs	r1, #1
 852 0102 7869     		ldr	r0, [r7, #20]
ARM GAS  C:\Users\chris\AppData\Local\Temp\ccGnetZg.s 			page 21


 853 0104 FFF7FEFF 		bl	lv_btn_set_toggle
 854              	.LBE5:
 156:time_date_activity.c ****         {
 855              		.loc 2 156 0 discriminator 3
 856 0108 FB69     		ldr	r3, [r7, #28]
 857 010a 0133     		adds	r3, r3, #1
 858 010c FB61     		str	r3, [r7, #28]
 859              	.L38:
 156:time_date_activity.c ****         {
 860              		.loc 2 156 0 is_stmt 0 discriminator 1
 861 010e FB69     		ldr	r3, [r7, #28]
 862 0110 3B2B     		cmp	r3, #59
 863 0112 E1DD     		ble	.L39
 163:time_date_activity.c ****         }
 164:time_date_activity.c **** 
 165:time_date_activity.c ****         list_ap = lv_list_create(lv_scr_act(), NULL);
 864              		.loc 2 165 0 is_stmt 1
 865 0114 FFF7FEFF 		bl	lv_scr_act
 866 0118 0346     		mov	r3, r0
 867 011a 0021     		movs	r1, #0
 868 011c 1846     		mov	r0, r3
 869 011e FFF7FEFF 		bl	lv_list_create
 870 0122 0246     		mov	r2, r0
 871 0124 204B     		ldr	r3, .L41+28
 872 0126 1A60     		str	r2, [r3]
 166:time_date_activity.c ****         lv_obj_set_size(list_ap, 60, 120);
 873              		.loc 2 166 0
 874 0128 1F4B     		ldr	r3, .L41+28
 875 012a 1B68     		ldr	r3, [r3]
 876 012c 7822     		movs	r2, #120
 877 012e 3C21     		movs	r1, #60
 878 0130 1846     		mov	r0, r3
 879 0132 FFF7FEFF 		bl	lv_obj_set_size
 167:time_date_activity.c ****         lv_obj_set_pos(list_ap, 130, 10);
 880              		.loc 2 167 0
 881 0136 1C4B     		ldr	r3, .L41+28
 882 0138 1B68     		ldr	r3, [r3]
 883 013a 0A22     		movs	r2, #10
 884 013c 8221     		movs	r1, #130
 885 013e 1846     		mov	r0, r3
 886 0140 FFF7FEFF 		bl	lv_obj_set_pos
 887              	.LBB6:
 168:time_date_activity.c ****         
 169:time_date_activity.c ****         /*Add buttons*/
 170:time_date_activity.c ****         {
 171:time_date_activity.c ****             lv_obj_t *btn;
 172:time_date_activity.c ****             btn = lv_list_add_btn(list_ap, NULL, "AM");
 888              		.loc 2 172 0
 889 0144 184B     		ldr	r3, .L41+28
 890 0146 1B68     		ldr	r3, [r3]
 891 0148 184A     		ldr	r2, .L41+32
 892 014a 0021     		movs	r1, #0
 893 014c 1846     		mov	r0, r3
 894 014e FFF7FEFF 		bl	lv_list_add_btn
 895 0152 3861     		str	r0, [r7, #16]
 173:time_date_activity.c ****             lv_obj_set_event_cb(btn, ap_event_handler);                           /*Assign event fu
 896              		.loc 2 173 0
ARM GAS  C:\Users\chris\AppData\Local\Temp\ccGnetZg.s 			page 22


 897 0154 1649     		ldr	r1, .L41+36
 898 0156 3869     		ldr	r0, [r7, #16]
 899 0158 FFF7FEFF 		bl	lv_obj_set_event_cb
 174:time_date_activity.c ****             lv_btn_set_toggle(btn, true);                                         /*Enable on/off s
 900              		.loc 2 174 0
 901 015c 0121     		movs	r1, #1
 902 015e 3869     		ldr	r0, [r7, #16]
 903 0160 FFF7FEFF 		bl	lv_btn_set_toggle
 175:time_date_activity.c ****             
 176:time_date_activity.c ****             btn = lv_list_add_btn(list_ap, NULL, "PM");
 904              		.loc 2 176 0
 905 0164 104B     		ldr	r3, .L41+28
 906 0166 1B68     		ldr	r3, [r3]
 907 0168 124A     		ldr	r2, .L41+40
 908 016a 0021     		movs	r1, #0
 909 016c 1846     		mov	r0, r3
 910 016e FFF7FEFF 		bl	lv_list_add_btn
 911 0172 3861     		str	r0, [r7, #16]
 177:time_date_activity.c ****             lv_obj_set_event_cb(btn, ap_event_handler);                           /*Assign event fu
 912              		.loc 2 177 0
 913 0174 0E49     		ldr	r1, .L41+36
 914 0176 3869     		ldr	r0, [r7, #16]
 915 0178 FFF7FEFF 		bl	lv_obj_set_event_cb
 178:time_date_activity.c ****             lv_btn_set_toggle(btn, true);                                         /*Enable on/off s
 916              		.loc 2 178 0
 917 017c 0121     		movs	r1, #1
 918 017e 3869     		ldr	r0, [r7, #16]
 919 0180 FFF7FEFF 		bl	lv_btn_set_toggle
 920              	.L40:
 921              	.LBE6:
 179:time_date_activity.c ****         }
 180:time_date_activity.c ****     }
 181:time_date_activity.c **** }...
 922              		.loc 2 181 0
 923 0184 00BF     		nop
 924 0186 2037     		adds	r7, r7, #32
 925              		.cfi_def_cfa_offset 8
 926 0188 BD46     		mov	sp, r7
 927              		.cfi_def_cfa_register 13
 928              		@ sp needed
 929 018a 80BD     		pop	{r7, pc}
 930              	.L42:
 931              		.align	2
 932              	.L41:
 933 018c 50000000 		.word	list_hr
 934 0190 ABAAAA2A 		.word	715827883
 935 0194 94000000 		.word	.LC20
 936 0198 00000000 		.word	hr_event_handler
 937 019c 54000000 		.word	list_mn
 938 01a0 A4000000 		.word	.LC22
 939 01a4 00000000 		.word	mn_event_handler
 940 01a8 58000000 		.word	list_ap
 941 01ac AC000000 		.word	.LC23
 942 01b0 00000000 		.word	ap_event_handler
 943 01b4 B0000000 		.word	.LC24
 944              		.cfi_endproc
 945              	.LFE724:
ARM GAS  C:\Users\chris\AppData\Local\Temp\ccGnetZg.s 			page 23


 946              		.size	time_activity_action, .-time_activity_action
 947              		.bss
 948              		.align	2
 949              	date_str.20319:
 950 005c 00000000 		.space	64
 950      00000000 
 950      00000000 
 950      00000000 
 950      00000000 
 951              		.text
 952              	.Letext0:
 953              		.file 3 "e:\\applications\\psoc\\psoc creator\\4.3\\psoc creator\\import\\gnu\\arm\\5.4.1\\arm-non
 954              		.file 4 "e:\\applications\\psoc\\psoc creator\\4.3\\psoc creator\\import\\gnu\\arm\\5.4.1\\arm-non
 955              		.file 5 "Generated_Source\\PSoC6\\pdl\\drivers/peripheral/device/cy_device.h"
 956              		.file 6 "Generated_Source\\PSoC6\\pdl\\drivers/peripheral/scb/cy_scb_i2c.h"
 957              		.file 7 "Generated_Source\\PSoC6\\pdl\\drivers/peripheral/scb/cy_scb_spi.h"
 958              		.file 8 "Generated_Source\\PSoC6\\pdl\\drivers/peripheral/tcpwm/cy_tcpwm_counter.h"
 959              		.file 9 "..\\..\\..\\lvgl\\version_6.1.2\\lvgl/src/lv_misc/../../../lv_conf.h"
 960              		.file 10 "..\\..\\..\\lvgl\\version_6.1.2\\lvgl/src/lv_misc/lv_types.h"
 961              		.file 11 "..\\..\\..\\lvgl\\version_6.1.2\\lvgl/src/lv_misc/lv_ll.h"
 962              		.file 12 "..\\..\\..\\lvgl\\version_6.1.2\\lvgl/src/lv_hal/../lv_misc/lv_color.h"
 963              		.file 13 "..\\..\\..\\lvgl\\version_6.1.2\\lvgl/src/lv_hal/../lv_misc/lv_area.h"
 964              		.file 14 "..\\..\\..\\lvgl\\version_6.1.2\\lvgl/src/lv_core/lv_obj.h"
 965              		.file 15 "..\\..\\..\\lvgl\\version_6.1.2\\lvgl/src/lv_core/../lv_font/lv_font.h"
 966              		.file 16 "..\\..\\..\\lvgl\\version_6.1.2\\lvgl/src/lv_core/lv_style.h"
 967              		.file 17 "..\\..\\..\\lvgl\\version_6.1.2\\lvgl/src/lv_core/../lv_misc/lv_bidi.h"
 968              		.file 18 "..\\..\\..\\lvgl\\version_6.1.2\\lvgl/src/lv_objx/lv_btn.h"
 969              		.file 19 "..\\..\\..\\lvgl\\version_6.1.2\\lvgl/src/lv_objx/lv_calendar.h"
 970              		.file 20 "Generated_Source\\PSoC6\\pdl\\cmsis/include/core_cm4.h"
 971              		.file 21 "Generated_Source\\PSoC6/DISP_TICK_TIMER.h"
 972              		.file 22 "Generated_Source\\PSoC6/I2C_MASTER.h"
 973              		.file 23 "Generated_Source\\PSoC6/SPIM.h"