ARM GAS  C:\Users\chris\AppData\Local\Temp\ccEPm6Uv.s 			page 1


   1              		.syntax unified
   2              		.cpu cortex-m4
   3              		.eabi_attribute 27, 1
   4              		.fpu fpv4-sp-d16
   5              		.eabi_attribute 20, 1
   6              		.eabi_attribute 21, 1
   7              		.eabi_attribute 23, 3
   8              		.eabi_attribute 24, 1
   9              		.eabi_attribute 25, 1
  10              		.eabi_attribute 26, 1
  11              		.eabi_attribute 30, 6
  12              		.eabi_attribute 34, 1
  13              		.eabi_attribute 18, 4
  14              		.thumb
  15              		.syntax unified
  16              		.file	"touchpad_glue.c"
  17              		.text
  18              	.Ltext0:
  19              		.cfi_sections	.debug_frame
  20              		.section	.text.I2C_MASTER_MasterGetStatus,"ax",%progbits
  21              		.align	2
  22              		.thumb
  23              		.thumb_func
  24              		.type	I2C_MASTER_MasterGetStatus, %function
  25              	I2C_MASTER_MasterGetStatus:
  26              	.LFB523:
  27              		.file 1 "Generated_Source\\PSoC6/I2C_MASTER.h"
   1:Generated_Source\PSoC6/I2C_MASTER.h **** /***************************************************************************//**
   2:Generated_Source\PSoC6/I2C_MASTER.h **** * \file I2C_MASTER.c
   3:Generated_Source\PSoC6/I2C_MASTER.h **** * \version 2.0
   4:Generated_Source\PSoC6/I2C_MASTER.h **** *
   5:Generated_Source\PSoC6/I2C_MASTER.h **** *  This file provides constants and parameter values for the I2C component.
   6:Generated_Source\PSoC6/I2C_MASTER.h **** *
   7:Generated_Source\PSoC6/I2C_MASTER.h **** ********************************************************************************
   8:Generated_Source\PSoC6/I2C_MASTER.h **** * \copyright
   9:Generated_Source\PSoC6/I2C_MASTER.h **** * Copyright 2016-2017, Cypress Semiconductor Corporation. All rights reserved.
  10:Generated_Source\PSoC6/I2C_MASTER.h **** * You may use this file only in accordance with the license, terms, conditions,
  11:Generated_Source\PSoC6/I2C_MASTER.h **** * disclaimers, and limitations in the end user license agreement accompanying
  12:Generated_Source\PSoC6/I2C_MASTER.h **** * the software package with which this file was provided.
  13:Generated_Source\PSoC6/I2C_MASTER.h **** *******************************************************************************/
  14:Generated_Source\PSoC6/I2C_MASTER.h **** 
  15:Generated_Source\PSoC6/I2C_MASTER.h **** #if !defined(I2C_MASTER_CY_SCB_I2C_PDL_H)
  16:Generated_Source\PSoC6/I2C_MASTER.h **** #define I2C_MASTER_CY_SCB_I2C_PDL_H
  17:Generated_Source\PSoC6/I2C_MASTER.h **** 
  18:Generated_Source\PSoC6/I2C_MASTER.h **** #include "cyfitter.h"
  19:Generated_Source\PSoC6/I2C_MASTER.h **** #include "scb/cy_scb_i2c.h"
  20:Generated_Source\PSoC6/I2C_MASTER.h **** 
  21:Generated_Source\PSoC6/I2C_MASTER.h **** #if defined(__cplusplus)
  22:Generated_Source\PSoC6/I2C_MASTER.h **** extern "C" {
  23:Generated_Source\PSoC6/I2C_MASTER.h **** #endif
  24:Generated_Source\PSoC6/I2C_MASTER.h **** 
  25:Generated_Source\PSoC6/I2C_MASTER.h **** /***************************************
  26:Generated_Source\PSoC6/I2C_MASTER.h **** *   Initial Parameter Constants
  27:Generated_Source\PSoC6/I2C_MASTER.h **** ****************************************/
  28:Generated_Source\PSoC6/I2C_MASTER.h **** 
  29:Generated_Source\PSoC6/I2C_MASTER.h **** #define I2C_MASTER_MODE               (0x2U)
  30:Generated_Source\PSoC6/I2C_MASTER.h **** #define I2C_MASTER_MODE_SLAVE_MASK    (0x1U)
ARM GAS  C:\Users\chris\AppData\Local\Temp\ccEPm6Uv.s 			page 2


  31:Generated_Source\PSoC6/I2C_MASTER.h **** #define I2C_MASTER_MODE_MASTER_MASK   (0x2U)
  32:Generated_Source\PSoC6/I2C_MASTER.h **** 
  33:Generated_Source\PSoC6/I2C_MASTER.h **** #define I2C_MASTER_ENABLE_SLAVE       (0UL != (I2C_MASTER_MODE & I2C_MASTER_MODE_SLAVE_MASK))
  34:Generated_Source\PSoC6/I2C_MASTER.h **** #define I2C_MASTER_ENABLE_MASTER      (0UL != (I2C_MASTER_MODE & I2C_MASTER_MODE_MASTER_MASK))
  35:Generated_Source\PSoC6/I2C_MASTER.h **** #define I2C_MASTER_MANUAL_SCL_CONTROL (0U)
  36:Generated_Source\PSoC6/I2C_MASTER.h **** 
  37:Generated_Source\PSoC6/I2C_MASTER.h **** 
  38:Generated_Source\PSoC6/I2C_MASTER.h **** /***************************************
  39:Generated_Source\PSoC6/I2C_MASTER.h **** *        Function Prototypes
  40:Generated_Source\PSoC6/I2C_MASTER.h **** ***************************************/
  41:Generated_Source\PSoC6/I2C_MASTER.h **** /**
  42:Generated_Source\PSoC6/I2C_MASTER.h **** * \addtogroup group_general
  43:Generated_Source\PSoC6/I2C_MASTER.h **** * @{
  44:Generated_Source\PSoC6/I2C_MASTER.h **** */
  45:Generated_Source\PSoC6/I2C_MASTER.h **** /* Component only APIs. */
  46:Generated_Source\PSoC6/I2C_MASTER.h **** void I2C_MASTER_Start(void);
  47:Generated_Source\PSoC6/I2C_MASTER.h **** 
  48:Generated_Source\PSoC6/I2C_MASTER.h **** /* Basic functions. */
  49:Generated_Source\PSoC6/I2C_MASTER.h **** __STATIC_INLINE cy_en_scb_i2c_status_t I2C_MASTER_Init(cy_stc_scb_i2c_config_t const *config);
  50:Generated_Source\PSoC6/I2C_MASTER.h **** __STATIC_INLINE void I2C_MASTER_DeInit (void);
  51:Generated_Source\PSoC6/I2C_MASTER.h **** __STATIC_INLINE void I2C_MASTER_Enable (void);
  52:Generated_Source\PSoC6/I2C_MASTER.h **** __STATIC_INLINE void I2C_MASTER_Disable(void);
  53:Generated_Source\PSoC6/I2C_MASTER.h **** 
  54:Generated_Source\PSoC6/I2C_MASTER.h **** /* Data rate configuration functions. */
  55:Generated_Source\PSoC6/I2C_MASTER.h **** __STATIC_INLINE uint32_t I2C_MASTER_SetDataRate(uint32_t dataRateHz, uint32_t scbClockHz);
  56:Generated_Source\PSoC6/I2C_MASTER.h **** __STATIC_INLINE uint32_t I2C_MASTER_GetDataRate(uint32_t scbClockHz);
  57:Generated_Source\PSoC6/I2C_MASTER.h **** 
  58:Generated_Source\PSoC6/I2C_MASTER.h **** /* Register callbacks. */
  59:Generated_Source\PSoC6/I2C_MASTER.h **** __STATIC_INLINE void I2C_MASTER_RegisterEventCallback(cy_cb_scb_i2c_handle_events_t callback);
  60:Generated_Source\PSoC6/I2C_MASTER.h **** #if (I2C_MASTER_ENABLE_SLAVE)
  61:Generated_Source\PSoC6/I2C_MASTER.h **** __STATIC_INLINE void I2C_MASTER_RegisterAddrCallback (cy_cb_scb_i2c_handle_addr_t callback);
  62:Generated_Source\PSoC6/I2C_MASTER.h **** #endif /* (I2C_MASTER_ENABLE_SLAVE) */
  63:Generated_Source\PSoC6/I2C_MASTER.h **** 
  64:Generated_Source\PSoC6/I2C_MASTER.h **** /* Configuration functions. */
  65:Generated_Source\PSoC6/I2C_MASTER.h **** #if (I2C_MASTER_ENABLE_SLAVE)
  66:Generated_Source\PSoC6/I2C_MASTER.h **** __STATIC_INLINE void     I2C_MASTER_SlaveSetAddress(uint8_t addr);
  67:Generated_Source\PSoC6/I2C_MASTER.h **** __STATIC_INLINE uint32_t I2C_MASTER_SlaveGetAddress(void);
  68:Generated_Source\PSoC6/I2C_MASTER.h **** __STATIC_INLINE void     I2C_MASTER_SlaveSetAddressMask(uint8_t addrMask);
  69:Generated_Source\PSoC6/I2C_MASTER.h **** __STATIC_INLINE uint32_t I2C_MASTER_SlaveGetAddressMask(void);
  70:Generated_Source\PSoC6/I2C_MASTER.h **** #endif /* (I2C_MASTER_ENABLE_SLAVE) */
  71:Generated_Source\PSoC6/I2C_MASTER.h **** 
  72:Generated_Source\PSoC6/I2C_MASTER.h **** #if (I2C_MASTER_ENABLE_MASTER)
  73:Generated_Source\PSoC6/I2C_MASTER.h **** __STATIC_INLINE void I2C_MASTER_MasterSetLowPhaseDutyCycle (uint32_t clockCycles);
  74:Generated_Source\PSoC6/I2C_MASTER.h **** __STATIC_INLINE void I2C_MASTER_MasterSetHighPhaseDutyCycle(uint32_t clockCycles);
  75:Generated_Source\PSoC6/I2C_MASTER.h **** #endif /* (I2C_MASTER_ENABLE_MASTER) */
  76:Generated_Source\PSoC6/I2C_MASTER.h **** 
  77:Generated_Source\PSoC6/I2C_MASTER.h **** /* Bus status. */
  78:Generated_Source\PSoC6/I2C_MASTER.h **** __STATIC_INLINE bool     I2C_MASTER_IsBusBusy(void);
  79:Generated_Source\PSoC6/I2C_MASTER.h **** 
  80:Generated_Source\PSoC6/I2C_MASTER.h **** /* Slave functions. */
  81:Generated_Source\PSoC6/I2C_MASTER.h **** #if (I2C_MASTER_ENABLE_SLAVE)
  82:Generated_Source\PSoC6/I2C_MASTER.h **** __STATIC_INLINE uint32_t I2C_MASTER_SlaveGetStatus(void);
  83:Generated_Source\PSoC6/I2C_MASTER.h **** 
  84:Generated_Source\PSoC6/I2C_MASTER.h **** __STATIC_INLINE void     I2C_MASTER_SlaveConfigReadBuf(uint8_t *buffer, uint32_t size);
  85:Generated_Source\PSoC6/I2C_MASTER.h **** __STATIC_INLINE void     I2C_MASTER_SlaveAbortRead(void);
  86:Generated_Source\PSoC6/I2C_MASTER.h **** __STATIC_INLINE uint32_t I2C_MASTER_SlaveGetReadTransferCount(void);
  87:Generated_Source\PSoC6/I2C_MASTER.h **** __STATIC_INLINE uint32_t I2C_MASTER_SlaveClearReadStatus(void);
ARM GAS  C:\Users\chris\AppData\Local\Temp\ccEPm6Uv.s 			page 3


  88:Generated_Source\PSoC6/I2C_MASTER.h **** 
  89:Generated_Source\PSoC6/I2C_MASTER.h **** __STATIC_INLINE void     I2C_MASTER_SlaveConfigWriteBuf(uint8_t *buffer, uint32_t size);
  90:Generated_Source\PSoC6/I2C_MASTER.h **** __STATIC_INLINE void     I2C_MASTER_SlaveAbortWrite(void);
  91:Generated_Source\PSoC6/I2C_MASTER.h **** __STATIC_INLINE uint32_t I2C_MASTER_SlaveGetWriteTransferCount(void);
  92:Generated_Source\PSoC6/I2C_MASTER.h **** __STATIC_INLINE uint32_t I2C_MASTER_SlaveClearWriteStatus(void);
  93:Generated_Source\PSoC6/I2C_MASTER.h **** #endif /* (I2C_MASTER_ENABLE_SLAVE) */
  94:Generated_Source\PSoC6/I2C_MASTER.h **** 
  95:Generated_Source\PSoC6/I2C_MASTER.h **** /* Master interrupt processing functions. */
  96:Generated_Source\PSoC6/I2C_MASTER.h **** #if (I2C_MASTER_ENABLE_MASTER)
  97:Generated_Source\PSoC6/I2C_MASTER.h **** __STATIC_INLINE uint32_t I2C_MASTER_MasterGetStatus(void);
  98:Generated_Source\PSoC6/I2C_MASTER.h **** 
  99:Generated_Source\PSoC6/I2C_MASTER.h **** __STATIC_INLINE cy_en_scb_i2c_status_t I2C_MASTER_MasterRead(cy_stc_scb_i2c_master_xfer_config_t *x
 100:Generated_Source\PSoC6/I2C_MASTER.h **** __STATIC_INLINE void I2C_MASTER_MasterAbortRead(void);
 101:Generated_Source\PSoC6/I2C_MASTER.h **** __STATIC_INLINE cy_en_scb_i2c_status_t I2C_MASTER_MasterWrite(cy_stc_scb_i2c_master_xfer_config_t *
 102:Generated_Source\PSoC6/I2C_MASTER.h **** __STATIC_INLINE void I2C_MASTER_MasterAbortWrite(void);
 103:Generated_Source\PSoC6/I2C_MASTER.h **** __STATIC_INLINE uint32_t I2C_MASTER_MasterGetTransferCount(void);
 104:Generated_Source\PSoC6/I2C_MASTER.h **** 
 105:Generated_Source\PSoC6/I2C_MASTER.h **** /* Master manual processing functions. */
 106:Generated_Source\PSoC6/I2C_MASTER.h **** __STATIC_INLINE cy_en_scb_i2c_status_t I2C_MASTER_MasterSendStart(uint32_t address, cy_en_scb_i2c_d
 107:Generated_Source\PSoC6/I2C_MASTER.h **** __STATIC_INLINE cy_en_scb_i2c_status_t I2C_MASTER_MasterSendReStart(uint32_t address, cy_en_scb_i2c
 108:Generated_Source\PSoC6/I2C_MASTER.h **** __STATIC_INLINE cy_en_scb_i2c_status_t I2C_MASTER_MasterSendStop(uint32_t timeoutMs);
 109:Generated_Source\PSoC6/I2C_MASTER.h **** __STATIC_INLINE cy_en_scb_i2c_status_t I2C_MASTER_MasterReadByte(cy_en_scb_i2c_command_t ackNack, u
 110:Generated_Source\PSoC6/I2C_MASTER.h **** __STATIC_INLINE cy_en_scb_i2c_status_t I2C_MASTER_MasterWriteByte(uint8_t byte, uint32_t timeoutMs)
 111:Generated_Source\PSoC6/I2C_MASTER.h **** #endif /* (I2C_MASTER_ENABLE_MASTER) */
 112:Generated_Source\PSoC6/I2C_MASTER.h **** 
 113:Generated_Source\PSoC6/I2C_MASTER.h **** /* Interrupt handler. */
 114:Generated_Source\PSoC6/I2C_MASTER.h **** __STATIC_INLINE void I2C_MASTER_Interrupt(void);
 115:Generated_Source\PSoC6/I2C_MASTER.h **** /** @} group_general */
 116:Generated_Source\PSoC6/I2C_MASTER.h **** 
 117:Generated_Source\PSoC6/I2C_MASTER.h **** 
 118:Generated_Source\PSoC6/I2C_MASTER.h **** /***************************************
 119:Generated_Source\PSoC6/I2C_MASTER.h **** *    Variables with External Linkage
 120:Generated_Source\PSoC6/I2C_MASTER.h **** ***************************************/
 121:Generated_Source\PSoC6/I2C_MASTER.h **** /**
 122:Generated_Source\PSoC6/I2C_MASTER.h **** * \addtogroup group_globals
 123:Generated_Source\PSoC6/I2C_MASTER.h **** * @{
 124:Generated_Source\PSoC6/I2C_MASTER.h **** */
 125:Generated_Source\PSoC6/I2C_MASTER.h **** extern uint8_t I2C_MASTER_initVar;
 126:Generated_Source\PSoC6/I2C_MASTER.h **** extern cy_stc_scb_i2c_config_t const I2C_MASTER_config;
 127:Generated_Source\PSoC6/I2C_MASTER.h **** extern cy_stc_scb_i2c_context_t I2C_MASTER_context;
 128:Generated_Source\PSoC6/I2C_MASTER.h **** /** @} group_globals */
 129:Generated_Source\PSoC6/I2C_MASTER.h **** 
 130:Generated_Source\PSoC6/I2C_MASTER.h **** 
 131:Generated_Source\PSoC6/I2C_MASTER.h **** /***************************************
 132:Generated_Source\PSoC6/I2C_MASTER.h **** *         Preprocessor Macros
 133:Generated_Source\PSoC6/I2C_MASTER.h **** ***************************************/
 134:Generated_Source\PSoC6/I2C_MASTER.h **** /**
 135:Generated_Source\PSoC6/I2C_MASTER.h **** * \addtogroup group_macros
 136:Generated_Source\PSoC6/I2C_MASTER.h **** * @{
 137:Generated_Source\PSoC6/I2C_MASTER.h **** */
 138:Generated_Source\PSoC6/I2C_MASTER.h **** /** The pointer to the base address of the SCB instance */
 139:Generated_Source\PSoC6/I2C_MASTER.h **** #define I2C_MASTER_HW     ((CySCB_Type *) I2C_MASTER_SCB__HW)
 140:Generated_Source\PSoC6/I2C_MASTER.h **** 
 141:Generated_Source\PSoC6/I2C_MASTER.h **** /** The desired data rate in Hz */
 142:Generated_Source\PSoC6/I2C_MASTER.h **** #define I2C_MASTER_DATA_RATE_HZ      (100000U)
 143:Generated_Source\PSoC6/I2C_MASTER.h **** 
 144:Generated_Source\PSoC6/I2C_MASTER.h **** /** The frequency of the clock used by the Component in Hz */
ARM GAS  C:\Users\chris\AppData\Local\Temp\ccEPm6Uv.s 			page 4


 145:Generated_Source\PSoC6/I2C_MASTER.h **** #define I2C_MASTER_CLK_FREQ_HZ       (1550387U)
 146:Generated_Source\PSoC6/I2C_MASTER.h **** 
 147:Generated_Source\PSoC6/I2C_MASTER.h **** /** The number of Component clocks used by the master to generate the SCL
 148:Generated_Source\PSoC6/I2C_MASTER.h **** * low phase. This number is calculated by GUI based on the selected data rate.
 149:Generated_Source\PSoC6/I2C_MASTER.h **** */
 150:Generated_Source\PSoC6/I2C_MASTER.h **** #define I2C_MASTER_LOW_PHASE_DUTY_CYCLE   (8U)
 151:Generated_Source\PSoC6/I2C_MASTER.h **** 
 152:Generated_Source\PSoC6/I2C_MASTER.h **** /** The number of Component clocks used by the master to generate the SCL
 153:Generated_Source\PSoC6/I2C_MASTER.h **** * high phase. This number is calculated by GUI based on the selected data rate.
 154:Generated_Source\PSoC6/I2C_MASTER.h **** */
 155:Generated_Source\PSoC6/I2C_MASTER.h **** #define I2C_MASTER_HIGH_PHASE_DUTY_CYCLE  (8U)
 156:Generated_Source\PSoC6/I2C_MASTER.h **** /** @} group_macros */
 157:Generated_Source\PSoC6/I2C_MASTER.h **** 
 158:Generated_Source\PSoC6/I2C_MASTER.h **** 
 159:Generated_Source\PSoC6/I2C_MASTER.h **** /***************************************
 160:Generated_Source\PSoC6/I2C_MASTER.h **** *    In-line Function Implementation
 161:Generated_Source\PSoC6/I2C_MASTER.h **** ***************************************/
 162:Generated_Source\PSoC6/I2C_MASTER.h **** 
 163:Generated_Source\PSoC6/I2C_MASTER.h **** /*******************************************************************************
 164:Generated_Source\PSoC6/I2C_MASTER.h **** * Function Name: I2C_MASTER_Init
 165:Generated_Source\PSoC6/I2C_MASTER.h **** ****************************************************************************//**
 166:Generated_Source\PSoC6/I2C_MASTER.h **** *
 167:Generated_Source\PSoC6/I2C_MASTER.h **** * Invokes the Cy_SCB_I2C_Init() PDL driver function.
 168:Generated_Source\PSoC6/I2C_MASTER.h **** *
 169:Generated_Source\PSoC6/I2C_MASTER.h **** *******************************************************************************/
 170:Generated_Source\PSoC6/I2C_MASTER.h **** __STATIC_INLINE cy_en_scb_i2c_status_t I2C_MASTER_Init(cy_stc_scb_i2c_config_t const *config)
 171:Generated_Source\PSoC6/I2C_MASTER.h **** {
 172:Generated_Source\PSoC6/I2C_MASTER.h ****     return Cy_SCB_I2C_Init(I2C_MASTER_HW, config, &I2C_MASTER_context);
 173:Generated_Source\PSoC6/I2C_MASTER.h **** }
 174:Generated_Source\PSoC6/I2C_MASTER.h **** 
 175:Generated_Source\PSoC6/I2C_MASTER.h **** 
 176:Generated_Source\PSoC6/I2C_MASTER.h **** /*******************************************************************************
 177:Generated_Source\PSoC6/I2C_MASTER.h **** *  Function Name: I2C_MASTER_DeInit
 178:Generated_Source\PSoC6/I2C_MASTER.h **** ****************************************************************************//**
 179:Generated_Source\PSoC6/I2C_MASTER.h **** *
 180:Generated_Source\PSoC6/I2C_MASTER.h **** * Invokes the Cy_SCB_I2C_DeInit() PDL driver function.
 181:Generated_Source\PSoC6/I2C_MASTER.h **** *
 182:Generated_Source\PSoC6/I2C_MASTER.h **** *******************************************************************************/
 183:Generated_Source\PSoC6/I2C_MASTER.h **** __STATIC_INLINE void I2C_MASTER_DeInit(void)
 184:Generated_Source\PSoC6/I2C_MASTER.h **** {
 185:Generated_Source\PSoC6/I2C_MASTER.h ****     Cy_SCB_I2C_DeInit(I2C_MASTER_HW);
 186:Generated_Source\PSoC6/I2C_MASTER.h **** }
 187:Generated_Source\PSoC6/I2C_MASTER.h **** 
 188:Generated_Source\PSoC6/I2C_MASTER.h **** 
 189:Generated_Source\PSoC6/I2C_MASTER.h **** /*******************************************************************************
 190:Generated_Source\PSoC6/I2C_MASTER.h **** * Function Name: I2C_MASTER_Enable
 191:Generated_Source\PSoC6/I2C_MASTER.h **** ****************************************************************************//**
 192:Generated_Source\PSoC6/I2C_MASTER.h **** *
 193:Generated_Source\PSoC6/I2C_MASTER.h **** * Invokes the Cy_SCB_I2C_Enable() PDL driver function.
 194:Generated_Source\PSoC6/I2C_MASTER.h **** *
 195:Generated_Source\PSoC6/I2C_MASTER.h **** *******************************************************************************/
 196:Generated_Source\PSoC6/I2C_MASTER.h **** __STATIC_INLINE void I2C_MASTER_Enable(void)
 197:Generated_Source\PSoC6/I2C_MASTER.h **** {
 198:Generated_Source\PSoC6/I2C_MASTER.h ****     Cy_SCB_I2C_Enable(I2C_MASTER_HW);
 199:Generated_Source\PSoC6/I2C_MASTER.h **** }
 200:Generated_Source\PSoC6/I2C_MASTER.h **** 
 201:Generated_Source\PSoC6/I2C_MASTER.h **** 
ARM GAS  C:\Users\chris\AppData\Local\Temp\ccEPm6Uv.s 			page 5


 202:Generated_Source\PSoC6/I2C_MASTER.h **** /*******************************************************************************
 203:Generated_Source\PSoC6/I2C_MASTER.h **** * Function Name: I2C_MASTER_Disable
 204:Generated_Source\PSoC6/I2C_MASTER.h **** ****************************************************************************//**
 205:Generated_Source\PSoC6/I2C_MASTER.h **** *
 206:Generated_Source\PSoC6/I2C_MASTER.h **** * Invokes the Cy_SCB_I2C_Disable() PDL driver function.
 207:Generated_Source\PSoC6/I2C_MASTER.h **** *
 208:Generated_Source\PSoC6/I2C_MASTER.h **** *******************************************************************************/
 209:Generated_Source\PSoC6/I2C_MASTER.h **** __STATIC_INLINE void I2C_MASTER_Disable(void)
 210:Generated_Source\PSoC6/I2C_MASTER.h **** {
 211:Generated_Source\PSoC6/I2C_MASTER.h ****     Cy_SCB_I2C_Disable(I2C_MASTER_HW, &I2C_MASTER_context);
 212:Generated_Source\PSoC6/I2C_MASTER.h **** }
 213:Generated_Source\PSoC6/I2C_MASTER.h **** 
 214:Generated_Source\PSoC6/I2C_MASTER.h **** 
 215:Generated_Source\PSoC6/I2C_MASTER.h **** /*******************************************************************************
 216:Generated_Source\PSoC6/I2C_MASTER.h **** * Function Name: I2C_MASTER_SetDataRate
 217:Generated_Source\PSoC6/I2C_MASTER.h **** ****************************************************************************//**
 218:Generated_Source\PSoC6/I2C_MASTER.h **** *
 219:Generated_Source\PSoC6/I2C_MASTER.h **** * Invokes the Cy_SCB_I2C_SetDataRate() PDL driver function.
 220:Generated_Source\PSoC6/I2C_MASTER.h **** *
 221:Generated_Source\PSoC6/I2C_MASTER.h **** *******************************************************************************/
 222:Generated_Source\PSoC6/I2C_MASTER.h **** __STATIC_INLINE uint32_t I2C_MASTER_SetDataRate(uint32_t dataRateHz, uint32_t scbClockHz)
 223:Generated_Source\PSoC6/I2C_MASTER.h **** {
 224:Generated_Source\PSoC6/I2C_MASTER.h ****     return Cy_SCB_I2C_SetDataRate(I2C_MASTER_HW, dataRateHz, scbClockHz);
 225:Generated_Source\PSoC6/I2C_MASTER.h **** }
 226:Generated_Source\PSoC6/I2C_MASTER.h **** 
 227:Generated_Source\PSoC6/I2C_MASTER.h **** 
 228:Generated_Source\PSoC6/I2C_MASTER.h **** /*******************************************************************************
 229:Generated_Source\PSoC6/I2C_MASTER.h **** * Function Name: I2C_MASTER_GetDataRate
 230:Generated_Source\PSoC6/I2C_MASTER.h **** ****************************************************************************//**
 231:Generated_Source\PSoC6/I2C_MASTER.h **** *
 232:Generated_Source\PSoC6/I2C_MASTER.h **** * Invokes the Cy_SCB_I2C_GetDataRate() PDL driver function.
 233:Generated_Source\PSoC6/I2C_MASTER.h **** *
 234:Generated_Source\PSoC6/I2C_MASTER.h **** *******************************************************************************/
 235:Generated_Source\PSoC6/I2C_MASTER.h **** __STATIC_INLINE uint32_t I2C_MASTER_GetDataRate(uint32_t scbClockHz)
 236:Generated_Source\PSoC6/I2C_MASTER.h **** {
 237:Generated_Source\PSoC6/I2C_MASTER.h ****     return Cy_SCB_I2C_GetDataRate(I2C_MASTER_HW, scbClockHz);
 238:Generated_Source\PSoC6/I2C_MASTER.h **** }
 239:Generated_Source\PSoC6/I2C_MASTER.h **** 
 240:Generated_Source\PSoC6/I2C_MASTER.h **** 
 241:Generated_Source\PSoC6/I2C_MASTER.h **** /*******************************************************************************
 242:Generated_Source\PSoC6/I2C_MASTER.h **** * Function Name: I2C_MASTER_RegisterEventCallback
 243:Generated_Source\PSoC6/I2C_MASTER.h **** ****************************************************************************//**
 244:Generated_Source\PSoC6/I2C_MASTER.h **** *
 245:Generated_Source\PSoC6/I2C_MASTER.h **** * Invokes the Cy_SCB_I2C_RegisterEventCallback() PDL driver function.
 246:Generated_Source\PSoC6/I2C_MASTER.h **** *
 247:Generated_Source\PSoC6/I2C_MASTER.h **** *******************************************************************************/
 248:Generated_Source\PSoC6/I2C_MASTER.h **** __STATIC_INLINE void I2C_MASTER_RegisterEventCallback(cy_cb_scb_i2c_handle_events_t callback)
 249:Generated_Source\PSoC6/I2C_MASTER.h **** {
 250:Generated_Source\PSoC6/I2C_MASTER.h ****     Cy_SCB_I2C_RegisterEventCallback(I2C_MASTER_HW, callback, &I2C_MASTER_context);
 251:Generated_Source\PSoC6/I2C_MASTER.h **** }
 252:Generated_Source\PSoC6/I2C_MASTER.h **** 
 253:Generated_Source\PSoC6/I2C_MASTER.h **** 
 254:Generated_Source\PSoC6/I2C_MASTER.h **** #if (I2C_MASTER_ENABLE_SLAVE)
 255:Generated_Source\PSoC6/I2C_MASTER.h **** /*******************************************************************************
 256:Generated_Source\PSoC6/I2C_MASTER.h **** * Function Name: I2C_MASTER_RegisterAddrCallback
 257:Generated_Source\PSoC6/I2C_MASTER.h **** ****************************************************************************//**
 258:Generated_Source\PSoC6/I2C_MASTER.h **** *
ARM GAS  C:\Users\chris\AppData\Local\Temp\ccEPm6Uv.s 			page 6


 259:Generated_Source\PSoC6/I2C_MASTER.h **** * Invokes the Cy_SCB_I2C_RegisterAddrCallback() PDL driver function.
 260:Generated_Source\PSoC6/I2C_MASTER.h **** *
 261:Generated_Source\PSoC6/I2C_MASTER.h **** *******************************************************************************/
 262:Generated_Source\PSoC6/I2C_MASTER.h **** __STATIC_INLINE void I2C_MASTER_RegisterAddrCallback(cy_cb_scb_i2c_handle_addr_t callback)
 263:Generated_Source\PSoC6/I2C_MASTER.h **** {
 264:Generated_Source\PSoC6/I2C_MASTER.h ****     Cy_SCB_I2C_RegisterAddrCallback(I2C_MASTER_HW, callback, &I2C_MASTER_context);
 265:Generated_Source\PSoC6/I2C_MASTER.h **** }
 266:Generated_Source\PSoC6/I2C_MASTER.h **** #endif /* (I2C_MASTER_ENABLE_SLAVE) */
 267:Generated_Source\PSoC6/I2C_MASTER.h **** 
 268:Generated_Source\PSoC6/I2C_MASTER.h **** 
 269:Generated_Source\PSoC6/I2C_MASTER.h **** /*******************************************************************************
 270:Generated_Source\PSoC6/I2C_MASTER.h **** * Function Name: I2C_MASTER_IsBusBusy
 271:Generated_Source\PSoC6/I2C_MASTER.h **** ****************************************************************************//**
 272:Generated_Source\PSoC6/I2C_MASTER.h **** *
 273:Generated_Source\PSoC6/I2C_MASTER.h **** * Invokes the Cy_SCB_I2C_IsBusBusy() PDL driver function.
 274:Generated_Source\PSoC6/I2C_MASTER.h **** *
 275:Generated_Source\PSoC6/I2C_MASTER.h **** *******************************************************************************/
 276:Generated_Source\PSoC6/I2C_MASTER.h **** __STATIC_INLINE bool I2C_MASTER_IsBusBusy(void)
 277:Generated_Source\PSoC6/I2C_MASTER.h **** {
 278:Generated_Source\PSoC6/I2C_MASTER.h ****     return Cy_SCB_I2C_IsBusBusy(I2C_MASTER_HW);
 279:Generated_Source\PSoC6/I2C_MASTER.h **** }
 280:Generated_Source\PSoC6/I2C_MASTER.h **** 
 281:Generated_Source\PSoC6/I2C_MASTER.h **** 
 282:Generated_Source\PSoC6/I2C_MASTER.h **** #if (I2C_MASTER_ENABLE_SLAVE)
 283:Generated_Source\PSoC6/I2C_MASTER.h **** /*******************************************************************************
 284:Generated_Source\PSoC6/I2C_MASTER.h **** * Function Name: I2C_MASTER_SlaveSetAddress
 285:Generated_Source\PSoC6/I2C_MASTER.h **** ****************************************************************************//**
 286:Generated_Source\PSoC6/I2C_MASTER.h **** *
 287:Generated_Source\PSoC6/I2C_MASTER.h **** * Invokes the Cy_SCB_I2C_SlaveGetAddress() PDL driver function.
 288:Generated_Source\PSoC6/I2C_MASTER.h **** *
 289:Generated_Source\PSoC6/I2C_MASTER.h **** *******************************************************************************/
 290:Generated_Source\PSoC6/I2C_MASTER.h **** __STATIC_INLINE void I2C_MASTER_SlaveSetAddress(uint8_t addr)
 291:Generated_Source\PSoC6/I2C_MASTER.h **** {
 292:Generated_Source\PSoC6/I2C_MASTER.h ****     Cy_SCB_I2C_SlaveSetAddress(I2C_MASTER_HW, addr);
 293:Generated_Source\PSoC6/I2C_MASTER.h **** }
 294:Generated_Source\PSoC6/I2C_MASTER.h **** 
 295:Generated_Source\PSoC6/I2C_MASTER.h **** 
 296:Generated_Source\PSoC6/I2C_MASTER.h **** /*******************************************************************************
 297:Generated_Source\PSoC6/I2C_MASTER.h **** * Function Name: I2C_MASTER_SlaveGetAddress
 298:Generated_Source\PSoC6/I2C_MASTER.h **** ****************************************************************************//**
 299:Generated_Source\PSoC6/I2C_MASTER.h **** *
 300:Generated_Source\PSoC6/I2C_MASTER.h **** * Invokes the Cy_SCB_I2C_SlaveGetAddress() PDL driver function.
 301:Generated_Source\PSoC6/I2C_MASTER.h **** *
 302:Generated_Source\PSoC6/I2C_MASTER.h **** *******************************************************************************/
 303:Generated_Source\PSoC6/I2C_MASTER.h **** __STATIC_INLINE uint32_t I2C_MASTER_SlaveGetAddress(void)
 304:Generated_Source\PSoC6/I2C_MASTER.h **** {
 305:Generated_Source\PSoC6/I2C_MASTER.h ****     return Cy_SCB_I2C_SlaveGetAddress(I2C_MASTER_HW);
 306:Generated_Source\PSoC6/I2C_MASTER.h **** }
 307:Generated_Source\PSoC6/I2C_MASTER.h **** 
 308:Generated_Source\PSoC6/I2C_MASTER.h **** 
 309:Generated_Source\PSoC6/I2C_MASTER.h **** /*******************************************************************************
 310:Generated_Source\PSoC6/I2C_MASTER.h **** * Function Name: I2C_MASTER_SlaveSetAddressMask
 311:Generated_Source\PSoC6/I2C_MASTER.h **** ****************************************************************************//**
 312:Generated_Source\PSoC6/I2C_MASTER.h **** *
 313:Generated_Source\PSoC6/I2C_MASTER.h **** * Invokes the Cy_SCB_I2C_SlaveSetAddressMask() PDL driver function.
 314:Generated_Source\PSoC6/I2C_MASTER.h **** *
 315:Generated_Source\PSoC6/I2C_MASTER.h **** *******************************************************************************/
ARM GAS  C:\Users\chris\AppData\Local\Temp\ccEPm6Uv.s 			page 7


 316:Generated_Source\PSoC6/I2C_MASTER.h **** __STATIC_INLINE void I2C_MASTER_SlaveSetAddressMask(uint8_t addrMask)
 317:Generated_Source\PSoC6/I2C_MASTER.h **** {
 318:Generated_Source\PSoC6/I2C_MASTER.h ****     Cy_SCB_I2C_SlaveSetAddressMask(I2C_MASTER_HW, addrMask);
 319:Generated_Source\PSoC6/I2C_MASTER.h **** }
 320:Generated_Source\PSoC6/I2C_MASTER.h **** 
 321:Generated_Source\PSoC6/I2C_MASTER.h **** 
 322:Generated_Source\PSoC6/I2C_MASTER.h **** /*******************************************************************************
 323:Generated_Source\PSoC6/I2C_MASTER.h **** * Function Name: I2C_MASTER_SlaveGetAddressMask
 324:Generated_Source\PSoC6/I2C_MASTER.h **** ****************************************************************************//**
 325:Generated_Source\PSoC6/I2C_MASTER.h **** *
 326:Generated_Source\PSoC6/I2C_MASTER.h **** * Invokes the Cy_SCB_I2C_SlaveGetAddressMask() PDL driver function.
 327:Generated_Source\PSoC6/I2C_MASTER.h **** *
 328:Generated_Source\PSoC6/I2C_MASTER.h **** *******************************************************************************/
 329:Generated_Source\PSoC6/I2C_MASTER.h **** __STATIC_INLINE uint32_t I2C_MASTER_SlaveGetAddressMask(void)
 330:Generated_Source\PSoC6/I2C_MASTER.h **** {
 331:Generated_Source\PSoC6/I2C_MASTER.h ****     return Cy_SCB_I2C_SlaveGetAddressMask(I2C_MASTER_HW);
 332:Generated_Source\PSoC6/I2C_MASTER.h **** }
 333:Generated_Source\PSoC6/I2C_MASTER.h **** #endif /* (I2C_MASTER_ENABLE_SLAVE) */
 334:Generated_Source\PSoC6/I2C_MASTER.h **** 
 335:Generated_Source\PSoC6/I2C_MASTER.h **** #if (I2C_MASTER_ENABLE_MASTER)
 336:Generated_Source\PSoC6/I2C_MASTER.h **** /*******************************************************************************
 337:Generated_Source\PSoC6/I2C_MASTER.h **** * Function Name: I2C_MASTER_MasterSetLowPhaseDutyCycle
 338:Generated_Source\PSoC6/I2C_MASTER.h **** ****************************************************************************//**
 339:Generated_Source\PSoC6/I2C_MASTER.h **** *
 340:Generated_Source\PSoC6/I2C_MASTER.h **** * Invokes the Cy_SCB_I2C_MasterSetLowPhaseDutyCycle() PDL driver function.
 341:Generated_Source\PSoC6/I2C_MASTER.h **** *
 342:Generated_Source\PSoC6/I2C_MASTER.h **** *******************************************************************************/
 343:Generated_Source\PSoC6/I2C_MASTER.h **** __STATIC_INLINE void I2C_MASTER_MasterSetLowPhaseDutyCycle(uint32_t clockCycles)
 344:Generated_Source\PSoC6/I2C_MASTER.h **** {
 345:Generated_Source\PSoC6/I2C_MASTER.h ****     Cy_SCB_I2C_MasterSetLowPhaseDutyCycle(I2C_MASTER_HW, clockCycles);
 346:Generated_Source\PSoC6/I2C_MASTER.h **** }
 347:Generated_Source\PSoC6/I2C_MASTER.h **** 
 348:Generated_Source\PSoC6/I2C_MASTER.h **** 
 349:Generated_Source\PSoC6/I2C_MASTER.h **** /*******************************************************************************
 350:Generated_Source\PSoC6/I2C_MASTER.h **** * Function Name: I2C_MASTER_MasterSetHighPhaseDutyCycle
 351:Generated_Source\PSoC6/I2C_MASTER.h **** ****************************************************************************//**
 352:Generated_Source\PSoC6/I2C_MASTER.h **** *
 353:Generated_Source\PSoC6/I2C_MASTER.h **** * Invokes the Cy_SCB_I2C_MasterSetHighPhaseDutyCycle() PDL driver function.
 354:Generated_Source\PSoC6/I2C_MASTER.h **** *
 355:Generated_Source\PSoC6/I2C_MASTER.h **** *******************************************************************************/
 356:Generated_Source\PSoC6/I2C_MASTER.h **** __STATIC_INLINE void I2C_MASTER_MasterSetHighPhaseDutyCycle(uint32_t clockCycles)
 357:Generated_Source\PSoC6/I2C_MASTER.h **** {
 358:Generated_Source\PSoC6/I2C_MASTER.h ****     Cy_SCB_I2C_MasterSetHighPhaseDutyCycle(I2C_MASTER_HW, clockCycles);
 359:Generated_Source\PSoC6/I2C_MASTER.h **** }
 360:Generated_Source\PSoC6/I2C_MASTER.h **** #endif /* (I2C_MASTER_ENABLE_MASTER) */
 361:Generated_Source\PSoC6/I2C_MASTER.h **** 
 362:Generated_Source\PSoC6/I2C_MASTER.h **** 
 363:Generated_Source\PSoC6/I2C_MASTER.h **** #if (I2C_MASTER_ENABLE_SLAVE)
 364:Generated_Source\PSoC6/I2C_MASTER.h **** /*******************************************************************************
 365:Generated_Source\PSoC6/I2C_MASTER.h **** * Function Name: I2C_MASTER_SlaveGetStatus
 366:Generated_Source\PSoC6/I2C_MASTER.h **** ****************************************************************************//**
 367:Generated_Source\PSoC6/I2C_MASTER.h **** *
 368:Generated_Source\PSoC6/I2C_MASTER.h **** * Invokes the Cy_SCB_I2C_SlaveGetStatus() PDL driver function.
 369:Generated_Source\PSoC6/I2C_MASTER.h **** *
 370:Generated_Source\PSoC6/I2C_MASTER.h **** *******************************************************************************/
 371:Generated_Source\PSoC6/I2C_MASTER.h **** __STATIC_INLINE uint32_t I2C_MASTER_SlaveGetStatus(void)
 372:Generated_Source\PSoC6/I2C_MASTER.h **** {
ARM GAS  C:\Users\chris\AppData\Local\Temp\ccEPm6Uv.s 			page 8


 373:Generated_Source\PSoC6/I2C_MASTER.h ****     return Cy_SCB_I2C_SlaveGetStatus(I2C_MASTER_HW, &I2C_MASTER_context);
 374:Generated_Source\PSoC6/I2C_MASTER.h **** }
 375:Generated_Source\PSoC6/I2C_MASTER.h **** 
 376:Generated_Source\PSoC6/I2C_MASTER.h **** 
 377:Generated_Source\PSoC6/I2C_MASTER.h **** /*******************************************************************************
 378:Generated_Source\PSoC6/I2C_MASTER.h **** * Function Name: I2C_MASTER_SlaveConfigReadBuf
 379:Generated_Source\PSoC6/I2C_MASTER.h **** ****************************************************************************//**
 380:Generated_Source\PSoC6/I2C_MASTER.h **** *
 381:Generated_Source\PSoC6/I2C_MASTER.h **** * Invokes the Cy_SCB_I2C_SlaveConfigReadBuf() PDL driver function.
 382:Generated_Source\PSoC6/I2C_MASTER.h **** *
 383:Generated_Source\PSoC6/I2C_MASTER.h **** *******************************************************************************/
 384:Generated_Source\PSoC6/I2C_MASTER.h **** __STATIC_INLINE void I2C_MASTER_SlaveConfigReadBuf(uint8_t *buffer, uint32_t size)
 385:Generated_Source\PSoC6/I2C_MASTER.h **** {
 386:Generated_Source\PSoC6/I2C_MASTER.h ****     Cy_SCB_I2C_SlaveConfigReadBuf(I2C_MASTER_HW, buffer, size, &I2C_MASTER_context);
 387:Generated_Source\PSoC6/I2C_MASTER.h **** }
 388:Generated_Source\PSoC6/I2C_MASTER.h **** 
 389:Generated_Source\PSoC6/I2C_MASTER.h **** 
 390:Generated_Source\PSoC6/I2C_MASTER.h **** /*******************************************************************************
 391:Generated_Source\PSoC6/I2C_MASTER.h **** * Function Name: I2C_MASTER_SlaveAbortRead
 392:Generated_Source\PSoC6/I2C_MASTER.h **** ****************************************************************************//**
 393:Generated_Source\PSoC6/I2C_MASTER.h **** *
 394:Generated_Source\PSoC6/I2C_MASTER.h **** * Invokes the Cy_SCB_I2C_SlaveAbortRead() PDL driver function.
 395:Generated_Source\PSoC6/I2C_MASTER.h **** *
 396:Generated_Source\PSoC6/I2C_MASTER.h **** *******************************************************************************/
 397:Generated_Source\PSoC6/I2C_MASTER.h **** __STATIC_INLINE void I2C_MASTER_SlaveAbortRead(void)
 398:Generated_Source\PSoC6/I2C_MASTER.h **** {
 399:Generated_Source\PSoC6/I2C_MASTER.h ****     Cy_SCB_I2C_SlaveAbortRead(I2C_MASTER_HW, &I2C_MASTER_context);
 400:Generated_Source\PSoC6/I2C_MASTER.h **** }
 401:Generated_Source\PSoC6/I2C_MASTER.h **** 
 402:Generated_Source\PSoC6/I2C_MASTER.h **** 
 403:Generated_Source\PSoC6/I2C_MASTER.h **** /*******************************************************************************
 404:Generated_Source\PSoC6/I2C_MASTER.h **** * Function Name: I2C_MASTER_SlaveGetReadTransferCount
 405:Generated_Source\PSoC6/I2C_MASTER.h **** ****************************************************************************//**
 406:Generated_Source\PSoC6/I2C_MASTER.h **** *
 407:Generated_Source\PSoC6/I2C_MASTER.h **** * Invokes the Cy_SCB_I2C_SlaveGetReadTransferCount() PDL driver function.
 408:Generated_Source\PSoC6/I2C_MASTER.h **** *
 409:Generated_Source\PSoC6/I2C_MASTER.h **** *******************************************************************************/
 410:Generated_Source\PSoC6/I2C_MASTER.h **** __STATIC_INLINE uint32_t I2C_MASTER_SlaveGetReadTransferCount(void)
 411:Generated_Source\PSoC6/I2C_MASTER.h **** {
 412:Generated_Source\PSoC6/I2C_MASTER.h ****     return Cy_SCB_I2C_SlaveGetReadTransferCount(I2C_MASTER_HW, &I2C_MASTER_context);
 413:Generated_Source\PSoC6/I2C_MASTER.h **** }
 414:Generated_Source\PSoC6/I2C_MASTER.h **** 
 415:Generated_Source\PSoC6/I2C_MASTER.h **** 
 416:Generated_Source\PSoC6/I2C_MASTER.h **** /*******************************************************************************
 417:Generated_Source\PSoC6/I2C_MASTER.h **** * Function Name: I2C_MASTER_SlaveClearReadStatus
 418:Generated_Source\PSoC6/I2C_MASTER.h **** ****************************************************************************//**
 419:Generated_Source\PSoC6/I2C_MASTER.h **** *
 420:Generated_Source\PSoC6/I2C_MASTER.h **** * Invokes the Cy_SCB_I2C_SlaveClearReadStatus() PDL driver function.
 421:Generated_Source\PSoC6/I2C_MASTER.h **** *
 422:Generated_Source\PSoC6/I2C_MASTER.h **** *******************************************************************************/
 423:Generated_Source\PSoC6/I2C_MASTER.h **** __STATIC_INLINE uint32_t I2C_MASTER_SlaveClearReadStatus(void)
 424:Generated_Source\PSoC6/I2C_MASTER.h **** {
 425:Generated_Source\PSoC6/I2C_MASTER.h ****     return Cy_SCB_I2C_SlaveClearReadStatus(I2C_MASTER_HW, &I2C_MASTER_context);
 426:Generated_Source\PSoC6/I2C_MASTER.h **** }
 427:Generated_Source\PSoC6/I2C_MASTER.h **** 
 428:Generated_Source\PSoC6/I2C_MASTER.h **** 
 429:Generated_Source\PSoC6/I2C_MASTER.h **** /*******************************************************************************
ARM GAS  C:\Users\chris\AppData\Local\Temp\ccEPm6Uv.s 			page 9


 430:Generated_Source\PSoC6/I2C_MASTER.h **** * Function Name: I2C_MASTER_SlaveConfigWriteBuf
 431:Generated_Source\PSoC6/I2C_MASTER.h **** ****************************************************************************//**
 432:Generated_Source\PSoC6/I2C_MASTER.h **** *
 433:Generated_Source\PSoC6/I2C_MASTER.h **** * Invokes the Cy_SCB_I2C_SlaveConfigWriteBuf() PDL driver function.
 434:Generated_Source\PSoC6/I2C_MASTER.h **** *
 435:Generated_Source\PSoC6/I2C_MASTER.h **** *******************************************************************************/
 436:Generated_Source\PSoC6/I2C_MASTER.h **** __STATIC_INLINE void I2C_MASTER_SlaveConfigWriteBuf(uint8_t *buffer, uint32_t size)
 437:Generated_Source\PSoC6/I2C_MASTER.h **** {
 438:Generated_Source\PSoC6/I2C_MASTER.h ****     Cy_SCB_I2C_SlaveConfigWriteBuf(I2C_MASTER_HW, buffer, size, &I2C_MASTER_context);
 439:Generated_Source\PSoC6/I2C_MASTER.h **** }
 440:Generated_Source\PSoC6/I2C_MASTER.h **** 
 441:Generated_Source\PSoC6/I2C_MASTER.h **** 
 442:Generated_Source\PSoC6/I2C_MASTER.h **** /*******************************************************************************
 443:Generated_Source\PSoC6/I2C_MASTER.h **** * Function Name: I2C_MASTER_SlaveAbortWrite
 444:Generated_Source\PSoC6/I2C_MASTER.h **** ****************************************************************************//**
 445:Generated_Source\PSoC6/I2C_MASTER.h **** *
 446:Generated_Source\PSoC6/I2C_MASTER.h **** * Invokes the Cy_SCB_I2C_SlaveAbortWrite() PDL driver function.
 447:Generated_Source\PSoC6/I2C_MASTER.h **** *
 448:Generated_Source\PSoC6/I2C_MASTER.h **** *******************************************************************************/
 449:Generated_Source\PSoC6/I2C_MASTER.h **** __STATIC_INLINE void I2C_MASTER_SlaveAbortWrite(void)
 450:Generated_Source\PSoC6/I2C_MASTER.h **** {
 451:Generated_Source\PSoC6/I2C_MASTER.h ****     Cy_SCB_I2C_SlaveAbortWrite(I2C_MASTER_HW, &I2C_MASTER_context);
 452:Generated_Source\PSoC6/I2C_MASTER.h **** }
 453:Generated_Source\PSoC6/I2C_MASTER.h **** 
 454:Generated_Source\PSoC6/I2C_MASTER.h **** 
 455:Generated_Source\PSoC6/I2C_MASTER.h **** /*******************************************************************************
 456:Generated_Source\PSoC6/I2C_MASTER.h **** * Function Name: I2C_MASTER_SlaveGetWriteTransferCount
 457:Generated_Source\PSoC6/I2C_MASTER.h **** ****************************************************************************//**
 458:Generated_Source\PSoC6/I2C_MASTER.h **** *
 459:Generated_Source\PSoC6/I2C_MASTER.h **** * Invokes the Cy_SCB_I2C_SlaveGetWriteTransferCount() PDL driver function.
 460:Generated_Source\PSoC6/I2C_MASTER.h **** *
 461:Generated_Source\PSoC6/I2C_MASTER.h **** *******************************************************************************/
 462:Generated_Source\PSoC6/I2C_MASTER.h **** __STATIC_INLINE uint32_t I2C_MASTER_SlaveGetWriteTransferCount(void)
 463:Generated_Source\PSoC6/I2C_MASTER.h **** {
 464:Generated_Source\PSoC6/I2C_MASTER.h ****     return Cy_SCB_I2C_SlaveGetWriteTransferCount(I2C_MASTER_HW, &I2C_MASTER_context);
 465:Generated_Source\PSoC6/I2C_MASTER.h **** }
 466:Generated_Source\PSoC6/I2C_MASTER.h **** 
 467:Generated_Source\PSoC6/I2C_MASTER.h **** 
 468:Generated_Source\PSoC6/I2C_MASTER.h **** /*******************************************************************************
 469:Generated_Source\PSoC6/I2C_MASTER.h **** * Function Name: I2C_MASTER_SlaveClearWriteStatus
 470:Generated_Source\PSoC6/I2C_MASTER.h **** ****************************************************************************//**
 471:Generated_Source\PSoC6/I2C_MASTER.h **** *
 472:Generated_Source\PSoC6/I2C_MASTER.h **** * Invokes the Cy_SCB_I2C_SlaveClearWriteStatus() PDL driver function.
 473:Generated_Source\PSoC6/I2C_MASTER.h **** *
 474:Generated_Source\PSoC6/I2C_MASTER.h **** *******************************************************************************/
 475:Generated_Source\PSoC6/I2C_MASTER.h **** __STATIC_INLINE uint32_t I2C_MASTER_SlaveClearWriteStatus(void)
 476:Generated_Source\PSoC6/I2C_MASTER.h **** {
 477:Generated_Source\PSoC6/I2C_MASTER.h ****     return Cy_SCB_I2C_SlaveClearWriteStatus(I2C_MASTER_HW, &I2C_MASTER_context);
 478:Generated_Source\PSoC6/I2C_MASTER.h **** }
 479:Generated_Source\PSoC6/I2C_MASTER.h **** #endif /* (I2C_MASTER_ENABLE_SLAVE) */
 480:Generated_Source\PSoC6/I2C_MASTER.h **** 
 481:Generated_Source\PSoC6/I2C_MASTER.h **** 
 482:Generated_Source\PSoC6/I2C_MASTER.h **** #if (I2C_MASTER_ENABLE_MASTER)
 483:Generated_Source\PSoC6/I2C_MASTER.h **** /*******************************************************************************
 484:Generated_Source\PSoC6/I2C_MASTER.h **** * Function Name: I2C_MASTER_MasterGetStatus
 485:Generated_Source\PSoC6/I2C_MASTER.h **** ****************************************************************************//**
 486:Generated_Source\PSoC6/I2C_MASTER.h **** *
ARM GAS  C:\Users\chris\AppData\Local\Temp\ccEPm6Uv.s 			page 10


 487:Generated_Source\PSoC6/I2C_MASTER.h **** * Invokes the Cy_SCB_I2C_MasterGetStatus() PDL driver function.
 488:Generated_Source\PSoC6/I2C_MASTER.h **** *
 489:Generated_Source\PSoC6/I2C_MASTER.h **** *******************************************************************************/
 490:Generated_Source\PSoC6/I2C_MASTER.h **** __STATIC_INLINE uint32_t I2C_MASTER_MasterGetStatus(void)
 491:Generated_Source\PSoC6/I2C_MASTER.h **** {
  28              		.loc 1 491 0
  29              		.cfi_startproc
  30              		@ args = 0, pretend = 0, frame = 0
  31              		@ frame_needed = 1, uses_anonymous_args = 0
  32 0000 80B5     		push	{r7, lr}
  33              		.cfi_def_cfa_offset 8
  34              		.cfi_offset 7, -8
  35              		.cfi_offset 14, -4
  36 0002 00AF     		add	r7, sp, #0
  37              		.cfi_def_cfa_register 7
 492:Generated_Source\PSoC6/I2C_MASTER.h ****     return Cy_SCB_I2C_MasterGetStatus(I2C_MASTER_HW, &I2C_MASTER_context);
  38              		.loc 1 492 0
  39 0004 0349     		ldr	r1, .L3
  40 0006 0448     		ldr	r0, .L3+4
  41 0008 FFF7FEFF 		bl	Cy_SCB_I2C_MasterGetStatus
  42 000c 0346     		mov	r3, r0
 493:Generated_Source\PSoC6/I2C_MASTER.h **** }
  43              		.loc 1 493 0
  44 000e 1846     		mov	r0, r3
  45 0010 80BD     		pop	{r7, pc}
  46              	.L4:
  47 0012 00BF     		.align	2
  48              	.L3:
  49 0014 00000000 		.word	I2C_MASTER_context
  50 0018 00006340 		.word	1080229888
  51              		.cfi_endproc
  52              	.LFE523:
  53              		.size	I2C_MASTER_MasterGetStatus, .-I2C_MASTER_MasterGetStatus
  54              		.comm	cm4,16,4
  55              		.section	.rodata
  56              		.align	2
  57              	.LC0:
  58 0000 78703D25 		.ascii	"xp=%04X, yp=%04X\015\012\000"
  58      3034582C 
  58      2079703D 
  58      25303458 
  58      0D0A00
  59 0013 00       		.align	2
  60              	.LC1:
  61 0014 78703D30 		.ascii	"xp=0.%02d, yp=0.%02d\015\012\000"
  61      2E253032 
  61      642C2079 
  61      703D302E 
  61      25303264 
  62              		.section	.text.touchpad_read,"ax",%progbits
  63              		.align	2
  64              		.global	touchpad_read
  65              		.thumb
  66              		.thumb_func
  67              		.type	touchpad_read, %function
  68              	touchpad_read:
  69              	.LFB717:
ARM GAS  C:\Users\chris\AppData\Local\Temp\ccEPm6Uv.s 			page 11


  70              		.file 2 "touchpad_glue.c"
   1:touchpad_glue.c **** #include <stdio.h>
   2:touchpad_glue.c **** 
   3:touchpad_glue.c **** #include "project.h"
   4:touchpad_glue.c **** #include "lvgl.h"
   5:touchpad_glue.c **** #include "touchpad_glue.h"
   6:touchpad_glue.c **** 
   7:touchpad_glue.c **** #define CTP_I2C_ADDR        (0x38)
   8:touchpad_glue.c **** 
   9:touchpad_glue.c **** bool
  10:touchpad_glue.c **** touchpad_read(lv_indev_drv_t *drv, lv_indev_data_t * data)
  11:touchpad_glue.c **** {
  71              		.loc 2 11 0
  72              		.cfi_startproc
  73              		@ args = 0, pretend = 0, frame = 72
  74              		@ frame_needed = 1, uses_anonymous_args = 0
  75 0000 80B5     		push	{r7, lr}
  76              		.cfi_def_cfa_offset 8
  77              		.cfi_offset 7, -8
  78              		.cfi_offset 14, -4
  79 0002 92B0     		sub	sp, sp, #72
  80              		.cfi_def_cfa_offset 80
  81 0004 00AF     		add	r7, sp, #0
  82              		.cfi_def_cfa_register 7
  83 0006 7860     		str	r0, [r7, #4]
  84 0008 3960     		str	r1, [r7]
  12:touchpad_glue.c ****     char    val_str[20];
  13:touchpad_glue.c ****     int     xp;
  14:touchpad_glue.c ****     int     yp;
  15:touchpad_glue.c ****         
  16:touchpad_glue.c ****     cy_stc_scb_i2c_master_xfer_config_t i2c_xfer_config;
  17:touchpad_glue.c **** 
  18:touchpad_glue.c ****     uint8_t write_buf[1] = {0x0};
  85              		.loc 2 18 0
  86 000a 0023     		movs	r3, #0
  87 000c 3B75     		strb	r3, [r7, #20]
  19:touchpad_glue.c ****     uint8_t read_buf[7];
  20:touchpad_glue.c ****     
  21:touchpad_glue.c ****     int event_flag;
  22:touchpad_glue.c **** 
  23:touchpad_glue.c ****     while (I2C_MASTER_MasterGetStatus() & CY_SCB_I2C_MASTER_BUSY) {}
  88              		.loc 2 23 0
  89 000e 00BF     		nop
  90              	.L6:
  91              		.loc 2 23 0 is_stmt 0 discriminator 1
  92 0010 FFF7FEFF 		bl	I2C_MASTER_MasterGetStatus
  93 0014 0346     		mov	r3, r0
  94 0016 03F48033 		and	r3, r3, #65536
  95 001a 002B     		cmp	r3, #0
  96 001c F8D1     		bne	.L6
  24:touchpad_glue.c ****     i2c_xfer_config.slaveAddress = CTP_I2C_ADDR;    // address of instance
  97              		.loc 2 24 0 is_stmt 1
  98 001e 3823     		movs	r3, #56
  99 0020 3B76     		strb	r3, [r7, #24]
  25:touchpad_glue.c ****     i2c_xfer_config.buffer = write_buf;             // buffer
 100              		.loc 2 25 0
 101 0022 07F11403 		add	r3, r7, #20
ARM GAS  C:\Users\chris\AppData\Local\Temp\ccEPm6Uv.s 			page 12


 102 0026 FB61     		str	r3, [r7, #28]
  26:touchpad_glue.c ****     i2c_xfer_config.bufferSize = 1;                 // byte count = 1
 103              		.loc 2 26 0
 104 0028 0123     		movs	r3, #1
 105 002a 3B62     		str	r3, [r7, #32]
  27:touchpad_glue.c ****     i2c_xfer_config.xferPending = 0;                // complete transfer (generate a STOP)
 106              		.loc 2 27 0
 107 002c 0023     		movs	r3, #0
 108 002e 87F82430 		strb	r3, [r7, #36]
  28:touchpad_glue.c **** 
  29:touchpad_glue.c ****     Cy_SCB_I2C_MasterWrite(I2C_MASTER_HW, &i2c_xfer_config, &I2C_MASTER_context);
 109              		.loc 2 29 0
 110 0032 07F11803 		add	r3, r7, #24
 111 0036 3A4A     		ldr	r2, .L12
 112 0038 1946     		mov	r1, r3
 113 003a 3A48     		ldr	r0, .L12+4
 114 003c FFF7FEFF 		bl	Cy_SCB_I2C_MasterWrite
  30:touchpad_glue.c **** 
  31:touchpad_glue.c ****     while (I2C_MASTER_MasterGetStatus() & CY_SCB_I2C_MASTER_BUSY) {}
 115              		.loc 2 31 0
 116 0040 00BF     		nop
 117              	.L7:
 118              		.loc 2 31 0 is_stmt 0 discriminator 1
 119 0042 FFF7FEFF 		bl	I2C_MASTER_MasterGetStatus
 120 0046 0346     		mov	r3, r0
 121 0048 03F48033 		and	r3, r3, #65536
 122 004c 002B     		cmp	r3, #0
 123 004e F8D1     		bne	.L7
  32:touchpad_glue.c **** 
  33:touchpad_glue.c ****     i2c_xfer_config.buffer = read_buf;             // buffer
 124              		.loc 2 33 0 is_stmt 1
 125 0050 07F10C03 		add	r3, r7, #12
 126 0054 FB61     		str	r3, [r7, #28]
  34:touchpad_glue.c ****     i2c_xfer_config.bufferSize = 7;                 // byte count = 1
 127              		.loc 2 34 0
 128 0056 0723     		movs	r3, #7
 129 0058 3B62     		str	r3, [r7, #32]
  35:touchpad_glue.c ****     Cy_SCB_I2C_MasterRead(I2C_MASTER_HW, &i2c_xfer_config, &I2C_MASTER_context);
 130              		.loc 2 35 0
 131 005a 07F11803 		add	r3, r7, #24
 132 005e 304A     		ldr	r2, .L12
 133 0060 1946     		mov	r1, r3
 134 0062 3048     		ldr	r0, .L12+4
 135 0064 FFF7FEFF 		bl	Cy_SCB_I2C_MasterRead
  36:touchpad_glue.c **** 
  37:touchpad_glue.c ****     while (I2C_MASTER_MasterGetStatus() & CY_SCB_I2C_MASTER_BUSY) {}
 136              		.loc 2 37 0
 137 0068 00BF     		nop
 138              	.L8:
 139              		.loc 2 37 0 is_stmt 0 discriminator 1
 140 006a FFF7FEFF 		bl	I2C_MASTER_MasterGetStatus
 141 006e 0346     		mov	r3, r0
 142 0070 03F48033 		and	r3, r3, #65536
 143 0074 002B     		cmp	r3, #0
 144 0076 F8D1     		bne	.L8
  38:touchpad_glue.c **** 
  39:touchpad_glue.c ****     xp = ((read_buf[3] << 8) + read_buf[4]) & 0x3FF;
ARM GAS  C:\Users\chris\AppData\Local\Temp\ccEPm6Uv.s 			page 13


 145              		.loc 2 39 0 is_stmt 1
 146 0078 FB7B     		ldrb	r3, [r7, #15]	@ zero_extendqisi2
 147 007a 1B02     		lsls	r3, r3, #8
 148 007c 3A7C     		ldrb	r2, [r7, #16]	@ zero_extendqisi2
 149 007e 1344     		add	r3, r3, r2
 150 0080 C3F30903 		ubfx	r3, r3, #0, #10
 151 0084 7B64     		str	r3, [r7, #68]
  40:touchpad_glue.c ****     yp = ((read_buf[5] << 8) + read_buf[6]) & 0x3FF;
 152              		.loc 2 40 0
 153 0086 7B7C     		ldrb	r3, [r7, #17]	@ zero_extendqisi2
 154 0088 1B02     		lsls	r3, r3, #8
 155 008a BA7C     		ldrb	r2, [r7, #18]	@ zero_extendqisi2
 156 008c 1344     		add	r3, r3, r2
 157 008e C3F30903 		ubfx	r3, r3, #0, #10
 158 0092 3B64     		str	r3, [r7, #64]
  41:touchpad_glue.c ****     
  42:touchpad_glue.c ****     event_flag = (read_buf[3] >> 6) & 0x3;
 159              		.loc 2 42 0
 160 0094 FB7B     		ldrb	r3, [r7, #15]	@ zero_extendqisi2
 161 0096 9B09     		lsrs	r3, r3, #6
 162 0098 DBB2     		uxtb	r3, r3
 163 009a 03F00303 		and	r3, r3, #3
 164 009e FB63     		str	r3, [r7, #60]
  43:touchpad_glue.c **** 
  44:touchpad_glue.c ****     sprintf( val_str, "xp=%04X, yp=%04X\r\n", (read_buf[3] << 8) + read_buf[4], (read_buf[5] << 8) 
 165              		.loc 2 44 0
 166 00a0 FB7B     		ldrb	r3, [r7, #15]	@ zero_extendqisi2
 167 00a2 1B02     		lsls	r3, r3, #8
 168 00a4 3A7C     		ldrb	r2, [r7, #16]	@ zero_extendqisi2
 169 00a6 1A44     		add	r2, r2, r3
 170 00a8 7B7C     		ldrb	r3, [r7, #17]	@ zero_extendqisi2
 171 00aa 1B02     		lsls	r3, r3, #8
 172 00ac B97C     		ldrb	r1, [r7, #18]	@ zero_extendqisi2
 173 00ae 0B44     		add	r3, r3, r1
 174 00b0 07F12800 		add	r0, r7, #40
 175 00b4 1C49     		ldr	r1, .L12+8
 176 00b6 FFF7FEFF 		bl	sprintf
  45:touchpad_glue.c ****     sprintf( val_str, "xp=0.%02d, yp=0.%02d\r\n", xp * 100/320, yp * 100/480 );
 177              		.loc 2 45 0
 178 00ba 7B6C     		ldr	r3, [r7, #68]
 179 00bc 6422     		movs	r2, #100
 180 00be 02FB03F3 		mul	r3, r2, r3
 181 00c2 1A4A     		ldr	r2, .L12+12
 182 00c4 82FB0312 		smull	r1, r2, r2, r3
 183 00c8 D211     		asrs	r2, r2, #7
 184 00ca DB17     		asrs	r3, r3, #31
 185 00cc D11A     		subs	r1, r2, r3
 186 00ce 3B6C     		ldr	r3, [r7, #64]
 187 00d0 6422     		movs	r2, #100
 188 00d2 02FB03F3 		mul	r3, r2, r3
 189 00d6 164A     		ldr	r2, .L12+16
 190 00d8 82FB0302 		smull	r0, r2, r2, r3
 191 00dc 1A44     		add	r2, r2, r3
 192 00de 1212     		asrs	r2, r2, #8
 193 00e0 DB17     		asrs	r3, r3, #31
 194 00e2 D31A     		subs	r3, r2, r3
 195 00e4 07F12800 		add	r0, r7, #40
ARM GAS  C:\Users\chris\AppData\Local\Temp\ccEPm6Uv.s 			page 14


 196 00e8 0A46     		mov	r2, r1
 197 00ea 1249     		ldr	r1, .L12+20
 198 00ec FFF7FEFF 		bl	sprintf
  46:touchpad_glue.c **** //    UART_KITPROG_USB_PutString( val_str );
  47:touchpad_glue.c **** //    lv_label_set_text(label2, val_str);
  48:touchpad_glue.c **** 
  49:touchpad_glue.c ****     
  50:touchpad_glue.c ****     data->point.x = xp;
 199              		.loc 2 50 0
 200 00f0 7B6C     		ldr	r3, [r7, #68]
 201 00f2 1AB2     		sxth	r2, r3
 202 00f4 3B68     		ldr	r3, [r7]
 203 00f6 1A80     		strh	r2, [r3]	@ movhi
  51:touchpad_glue.c ****     data->point.y = yp;
 204              		.loc 2 51 0
 205 00f8 3B6C     		ldr	r3, [r7, #64]
 206 00fa 1AB2     		sxth	r2, r3
 207 00fc 3B68     		ldr	r3, [r7]
 208 00fe 5A80     		strh	r2, [r3, #2]	@ movhi
  52:touchpad_glue.c ****     
  53:touchpad_glue.c ****     if (event_flag == 2)    data->state = LV_INDEV_STATE_PR;         
 209              		.loc 2 53 0
 210 0100 FB6B     		ldr	r3, [r7, #60]
 211 0102 022B     		cmp	r3, #2
 212 0104 03D1     		bne	.L9
 213              		.loc 2 53 0 is_stmt 0 discriminator 1
 214 0106 3B68     		ldr	r3, [r7]
 215 0108 0122     		movs	r2, #1
 216 010a 9A73     		strb	r2, [r3, #14]
 217 010c 02E0     		b	.L10
 218              	.L9:
  54:touchpad_glue.c ****     else                    data->state = LV_INDEV_STATE_REL;        
 219              		.loc 2 54 0 is_stmt 1
 220 010e 3B68     		ldr	r3, [r7]
 221 0110 0022     		movs	r2, #0
 222 0112 9A73     		strb	r2, [r3, #14]
 223              	.L10:
  55:touchpad_glue.c ****     
  56:touchpad_glue.c ****     return false;
 224              		.loc 2 56 0
 225 0114 0023     		movs	r3, #0
  57:touchpad_glue.c **** }
 226              		.loc 2 57 0
 227 0116 1846     		mov	r0, r3
 228 0118 4837     		adds	r7, r7, #72
 229              		.cfi_def_cfa_offset 8
 230 011a BD46     		mov	sp, r7
 231              		.cfi_def_cfa_register 13
 232              		@ sp needed
 233 011c 80BD     		pop	{r7, pc}
 234              	.L13:
 235 011e 00BF     		.align	2
 236              	.L12:
 237 0120 00000000 		.word	I2C_MASTER_context
 238 0124 00006340 		.word	1080229888
 239 0128 00000000 		.word	.LC0
 240 012c 67666666 		.word	1717986919
ARM GAS  C:\Users\chris\AppData\Local\Temp\ccEPm6Uv.s 			page 15


 241 0130 89888888 		.word	-2004318071
 242 0134 14000000 		.word	.LC1
 243              		.cfi_endproc
 244              	.LFE717:
 245              		.size	touchpad_read, .-touchpad_read
 246              		.text
 247              	.Letext0:
 248              		.file 3 "e:\\applications\\psoc\\psoc creator\\4.3\\psoc creator\\import\\gnu\\arm\\5.4.1\\arm-non
 249              		.file 4 "e:\\applications\\psoc\\psoc creator\\4.3\\psoc creator\\import\\gnu\\arm\\5.4.1\\arm-non
 250              		.file 5 "Generated_Source\\PSoC6\\pdl\\devices/psoc6/include/ip/cyip_scb.h"
 251              		.file 6 "Generated_Source\\PSoC6\\pdl\\devices/psoc6/include/psoc6_01_config.h"
 252              		.file 7 "Generated_Source\\PSoC6\\pdl\\drivers/peripheral/device/cy_device.h"
 253              		.file 8 "Generated_Source\\PSoC6\\pdl\\drivers/peripheral/scb/cy_scb_i2c.h"
 254              		.file 9 "Generated_Source\\PSoC6\\pdl\\drivers/peripheral/scb/cy_scb_spi.h"
 255              		.file 10 "Generated_Source\\PSoC6\\pdl\\drivers/peripheral/tcpwm/cy_tcpwm_counter.h"
 256              		.file 11 "Generated_Source\\PSoC6/project.h"
 257              		.file 12 "..\\..\\..\\lvgl\\version_6.1.2\\lvgl/src/lv_misc/../../../lv_conf.h"
 258              		.file 13 "..\\..\\..\\lvgl\\version_6.1.2\\lvgl/src/lv_misc/lv_types.h"
 259              		.file 14 "..\\..\\..\\lvgl\\version_6.1.2\\lvgl/src/lv_misc/lv_ll.h"
 260              		.file 15 "..\\..\\..\\lvgl\\version_6.1.2\\lvgl/src/lv_misc/lv_task.h"
 261              		.file 16 "..\\..\\..\\lvgl\\version_6.1.2\\lvgl/src/lv_hal/../lv_misc/lv_color.h"
 262              		.file 17 "..\\..\\..\\lvgl\\version_6.1.2\\lvgl/src/lv_hal/../lv_misc/lv_area.h"
 263              		.file 18 "..\\..\\..\\lvgl\\version_6.1.2\\lvgl/src/lv_hal/lv_hal_disp.h"
 264              		.file 19 "..\\..\\..\\lvgl\\version_6.1.2\\lvgl/src/lv_core/lv_obj.h"
 265              		.file 20 "..\\..\\..\\lvgl\\version_6.1.2\\lvgl/src/lv_hal/lv_hal_indev.h"
 266              		.file 21 "..\\..\\..\\lvgl\\version_6.1.2\\lvgl/src/lv_core/../lv_font/lv_font.h"
 267              		.file 22 "..\\..\\..\\lvgl\\version_6.1.2\\lvgl/src/lv_core/lv_style.h"
 268              		.file 23 "..\\..\\..\\lvgl\\version_6.1.2\\lvgl/src/lv_core/../lv_misc/lv_bidi.h"
 269              		.file 24 "Generated_Source\\PSoC6\\pdl\\cmsis/include/core_cm4.h"
 270              		.file 25 "Generated_Source\\PSoC6/DISP_TICK_TIMER.h"
 271              		.file 26 "Generated_Source\\PSoC6/SPIM.h"