ARM GAS  C:\Users\pearlstl\AppData\Local\Temp\ccAUXqAU.s 			page 1


   1              		.syntax unified
   2              		.cpu cortex-m0plus
   3              		.fpu softvfp
   4              		.eabi_attribute 20, 1
   5              		.eabi_attribute 21, 1
   6              		.eabi_attribute 23, 3
   7              		.eabi_attribute 24, 1
   8              		.eabi_attribute 25, 1
   9              		.eabi_attribute 26, 1
  10              		.eabi_attribute 30, 4
  11              		.eabi_attribute 34, 0
  12              		.eabi_attribute 18, 4
  13              		.thumb
  14              		.syntax unified
  15              		.file	"cy_scb_uart.c"
  16              		.text
  17              	.Ltext0:
  18              		.cfi_sections	.debug_frame
  19              		.section	.text.Cy_SCB_UART_Init,"ax",%progbits
  20              		.align	1
  21              		.global	Cy_SCB_UART_Init
  22              		.code	16
  23              		.thumb_func
  24              		.type	Cy_SCB_UART_Init, %function
  25              	Cy_SCB_UART_Init:
  26              	.LFB155:
  27              		.file 1 "Generated_Source\\PSoC6\\pdl\\drivers\\peripheral\\scb\\cy_scb_uart.c"
   1:Generated_Source\PSoC6\pdl\drivers\peripheral\scb/cy_scb_uart.c **** /***************************************************************************//**
   2:Generated_Source\PSoC6\pdl\drivers\peripheral\scb/cy_scb_uart.c **** * \file cy_scb_uart.c
   3:Generated_Source\PSoC6\pdl\drivers\peripheral\scb/cy_scb_uart.c **** * \version 2.20
   4:Generated_Source\PSoC6\pdl\drivers\peripheral\scb/cy_scb_uart.c **** *
   5:Generated_Source\PSoC6\pdl\drivers\peripheral\scb/cy_scb_uart.c **** * Provides UART API implementation of the SCB driver.
   6:Generated_Source\PSoC6\pdl\drivers\peripheral\scb/cy_scb_uart.c **** *
   7:Generated_Source\PSoC6\pdl\drivers\peripheral\scb/cy_scb_uart.c **** ********************************************************************************
   8:Generated_Source\PSoC6\pdl\drivers\peripheral\scb/cy_scb_uart.c **** * \copyright
   9:Generated_Source\PSoC6\pdl\drivers\peripheral\scb/cy_scb_uart.c **** * Copyright 2016-2018, Cypress Semiconductor Corporation. All rights reserved.
  10:Generated_Source\PSoC6\pdl\drivers\peripheral\scb/cy_scb_uart.c **** * You may use this file only in accordance with the license, terms, conditions,
  11:Generated_Source\PSoC6\pdl\drivers\peripheral\scb/cy_scb_uart.c **** * disclaimers, and limitations in the end user license agreement accompanying
  12:Generated_Source\PSoC6\pdl\drivers\peripheral\scb/cy_scb_uart.c **** * the software package with which this file was provided.
  13:Generated_Source\PSoC6\pdl\drivers\peripheral\scb/cy_scb_uart.c **** *******************************************************************************/
  14:Generated_Source\PSoC6\pdl\drivers\peripheral\scb/cy_scb_uart.c **** 
  15:Generated_Source\PSoC6\pdl\drivers\peripheral\scb/cy_scb_uart.c **** #include "cy_scb_uart.h"
  16:Generated_Source\PSoC6\pdl\drivers\peripheral\scb/cy_scb_uart.c **** 
  17:Generated_Source\PSoC6\pdl\drivers\peripheral\scb/cy_scb_uart.c **** #ifdef CY_IP_MXSCB
  18:Generated_Source\PSoC6\pdl\drivers\peripheral\scb/cy_scb_uart.c **** 
  19:Generated_Source\PSoC6\pdl\drivers\peripheral\scb/cy_scb_uart.c **** #if defined(__cplusplus)
  20:Generated_Source\PSoC6\pdl\drivers\peripheral\scb/cy_scb_uart.c **** extern "C" {
  21:Generated_Source\PSoC6\pdl\drivers\peripheral\scb/cy_scb_uart.c **** #endif
  22:Generated_Source\PSoC6\pdl\drivers\peripheral\scb/cy_scb_uart.c **** 
  23:Generated_Source\PSoC6\pdl\drivers\peripheral\scb/cy_scb_uart.c **** /* Static functions */
  24:Generated_Source\PSoC6\pdl\drivers\peripheral\scb/cy_scb_uart.c **** static void HandleDataReceive (CySCB_Type *base, cy_stc_scb_uart_context_t *context);
  25:Generated_Source\PSoC6\pdl\drivers\peripheral\scb/cy_scb_uart.c **** static void HandleRingBuffer  (CySCB_Type *base, cy_stc_scb_uart_context_t *context);
  26:Generated_Source\PSoC6\pdl\drivers\peripheral\scb/cy_scb_uart.c **** static void HandleDataTransmit(CySCB_Type *base, cy_stc_scb_uart_context_t *context);
  27:Generated_Source\PSoC6\pdl\drivers\peripheral\scb/cy_scb_uart.c **** 
  28:Generated_Source\PSoC6\pdl\drivers\peripheral\scb/cy_scb_uart.c **** 
  29:Generated_Source\PSoC6\pdl\drivers\peripheral\scb/cy_scb_uart.c **** /*******************************************************************************
  30:Generated_Source\PSoC6\pdl\drivers\peripheral\scb/cy_scb_uart.c **** * Function Name: Cy_SCB_UART_Init
ARM GAS  C:\Users\pearlstl\AppData\Local\Temp\ccAUXqAU.s 			page 2


  31:Generated_Source\PSoC6\pdl\drivers\peripheral\scb/cy_scb_uart.c **** ****************************************************************************//**
  32:Generated_Source\PSoC6\pdl\drivers\peripheral\scb/cy_scb_uart.c **** *
  33:Generated_Source\PSoC6\pdl\drivers\peripheral\scb/cy_scb_uart.c **** * Initializes the SCB for UART operation.
  34:Generated_Source\PSoC6\pdl\drivers\peripheral\scb/cy_scb_uart.c **** *
  35:Generated_Source\PSoC6\pdl\drivers\peripheral\scb/cy_scb_uart.c **** * \param base
  36:Generated_Source\PSoC6\pdl\drivers\peripheral\scb/cy_scb_uart.c **** * The pointer to the UART SCB instance.
  37:Generated_Source\PSoC6\pdl\drivers\peripheral\scb/cy_scb_uart.c **** *
  38:Generated_Source\PSoC6\pdl\drivers\peripheral\scb/cy_scb_uart.c **** * \param config
  39:Generated_Source\PSoC6\pdl\drivers\peripheral\scb/cy_scb_uart.c **** * The pointer to configuration structure \ref cy_stc_scb_uart_config_t.
  40:Generated_Source\PSoC6\pdl\drivers\peripheral\scb/cy_scb_uart.c **** *
  41:Generated_Source\PSoC6\pdl\drivers\peripheral\scb/cy_scb_uart.c **** * \param context
  42:Generated_Source\PSoC6\pdl\drivers\peripheral\scb/cy_scb_uart.c **** * The pointer to the context structure \ref cy_stc_scb_uart_context_t allocated
  43:Generated_Source\PSoC6\pdl\drivers\peripheral\scb/cy_scb_uart.c **** * by the user. The structure is used during the UART operation for internal
  44:Generated_Source\PSoC6\pdl\drivers\peripheral\scb/cy_scb_uart.c **** * configuration and data retention. The user must not modify anything
  45:Generated_Source\PSoC6\pdl\drivers\peripheral\scb/cy_scb_uart.c **** * in this structure.
  46:Generated_Source\PSoC6\pdl\drivers\peripheral\scb/cy_scb_uart.c **** * If only UART \ref group_scb_uart_ll will be used pass NULL as pointer to 
  47:Generated_Source\PSoC6\pdl\drivers\peripheral\scb/cy_scb_uart.c **** * context.
  48:Generated_Source\PSoC6\pdl\drivers\peripheral\scb/cy_scb_uart.c **** *
  49:Generated_Source\PSoC6\pdl\drivers\peripheral\scb/cy_scb_uart.c **** * \return
  50:Generated_Source\PSoC6\pdl\drivers\peripheral\scb/cy_scb_uart.c **** * \ref cy_en_scb_uart_status_t
  51:Generated_Source\PSoC6\pdl\drivers\peripheral\scb/cy_scb_uart.c **** *
  52:Generated_Source\PSoC6\pdl\drivers\peripheral\scb/cy_scb_uart.c **** * \note
  53:Generated_Source\PSoC6\pdl\drivers\peripheral\scb/cy_scb_uart.c **** * Ensure that the SCB block is disabled before calling this function.
  54:Generated_Source\PSoC6\pdl\drivers\peripheral\scb/cy_scb_uart.c **** *
  55:Generated_Source\PSoC6\pdl\drivers\peripheral\scb/cy_scb_uart.c **** *******************************************************************************/
  56:Generated_Source\PSoC6\pdl\drivers\peripheral\scb/cy_scb_uart.c **** cy_en_scb_uart_status_t Cy_SCB_UART_Init(CySCB_Type *base, cy_stc_scb_uart_config_t const *config, 
  57:Generated_Source\PSoC6\pdl\drivers\peripheral\scb/cy_scb_uart.c **** {
  28              		.loc 1 57 0
  29              		.cfi_startproc
  30              		@ args = 0, pretend = 0, frame = 16
  31              		@ frame_needed = 0, uses_anonymous_args = 0
  32              	.LVL0:
  33 0000 F0B5     		push	{r4, r5, r6, r7, lr}
  34              		.cfi_def_cfa_offset 20
  35              		.cfi_offset 4, -20
  36              		.cfi_offset 5, -16
  37              		.cfi_offset 6, -12
  38              		.cfi_offset 7, -8
  39              		.cfi_offset 14, -4
  40 0002 85B0     		sub	sp, sp, #20
  41              		.cfi_def_cfa_offset 40
  58:Generated_Source\PSoC6\pdl\drivers\peripheral\scb/cy_scb_uart.c ****     if ((NULL == base) || (NULL == config))
  42              		.loc 1 58 0
  43 0004 0028     		cmp	r0, #0
  44 0006 00D1     		bne	.LCB17
  45 0008 D1E0     		b	.L20	@long jump
  46              	.LCB17:
  47              		.loc 1 58 0 is_stmt 0 discriminator 1
  48 000a 0029     		cmp	r1, #0
  49 000c 00D1     		bne	.LCB19
  50 000e CEE0     		b	.L20	@long jump
  51              	.LCB19:
  59:Generated_Source\PSoC6\pdl\drivers\peripheral\scb/cy_scb_uart.c ****     {
  60:Generated_Source\PSoC6\pdl\drivers\peripheral\scb/cy_scb_uart.c ****         return CY_SCB_UART_BAD_PARAM;
  61:Generated_Source\PSoC6\pdl\drivers\peripheral\scb/cy_scb_uart.c ****     }
  62:Generated_Source\PSoC6\pdl\drivers\peripheral\scb/cy_scb_uart.c **** 
  63:Generated_Source\PSoC6\pdl\drivers\peripheral\scb/cy_scb_uart.c ****     CY_ASSERT_L3(CY_SCB_UART_IS_MODE_VALID     (config->uartMode));
ARM GAS  C:\Users\pearlstl\AppData\Local\Temp\ccAUXqAU.s 			page 3


  64:Generated_Source\PSoC6\pdl\drivers\peripheral\scb/cy_scb_uart.c ****     CY_ASSERT_L3(CY_SCB_UART_IS_STOP_BITS_VALID(config->stopBits));
  65:Generated_Source\PSoC6\pdl\drivers\peripheral\scb/cy_scb_uart.c ****     CY_ASSERT_L3(CY_SCB_UART_IS_PARITY_VALID   (config->parity));
  66:Generated_Source\PSoC6\pdl\drivers\peripheral\scb/cy_scb_uart.c ****     CY_ASSERT_L3(CY_SCB_UART_IS_POLARITY_VALID (config->ctsPolarity));
  67:Generated_Source\PSoC6\pdl\drivers\peripheral\scb/cy_scb_uart.c ****     CY_ASSERT_L3(CY_SCB_UART_IS_POLARITY_VALID (config->rtsPolarity));
  68:Generated_Source\PSoC6\pdl\drivers\peripheral\scb/cy_scb_uart.c **** 
  69:Generated_Source\PSoC6\pdl\drivers\peripheral\scb/cy_scb_uart.c ****     CY_ASSERT_L2(CY_SCB_UART_IS_OVERSAMPLE_VALID  (config->oversample, config->uartMode, config->ir
  70:Generated_Source\PSoC6\pdl\drivers\peripheral\scb/cy_scb_uart.c ****     CY_ASSERT_L2(CY_SCB_UART_IS_DATA_WIDTH_VALID  (config->dataWidth));
  71:Generated_Source\PSoC6\pdl\drivers\peripheral\scb/cy_scb_uart.c ****     CY_ASSERT_L2(CY_SCB_UART_IS_ADDRESS_VALID     (config->receiverAddress));
  72:Generated_Source\PSoC6\pdl\drivers\peripheral\scb/cy_scb_uart.c ****     CY_ASSERT_L2(CY_SCB_UART_IS_ADDRESS_MASK_VALID(config->receiverAddressMask));
  73:Generated_Source\PSoC6\pdl\drivers\peripheral\scb/cy_scb_uart.c ****     CY_ASSERT_L2(CY_SCB_UART_IS_MUTLI_PROC_VALID  (config->enableMutliProcessorMode, config->uartMo
  74:Generated_Source\PSoC6\pdl\drivers\peripheral\scb/cy_scb_uart.c ****                                                    config->parity));
  75:Generated_Source\PSoC6\pdl\drivers\peripheral\scb/cy_scb_uart.c **** 
  76:Generated_Source\PSoC6\pdl\drivers\peripheral\scb/cy_scb_uart.c ****     CY_ASSERT_L2(CY_SCB_IS_INTR_VALID(config->rxFifoIntEnableMask, CY_SCB_UART_RX_INTR_MASK));
  77:Generated_Source\PSoC6\pdl\drivers\peripheral\scb/cy_scb_uart.c ****     CY_ASSERT_L2(CY_SCB_IS_INTR_VALID(config->txFifoIntEnableMask, CY_SCB_UART_TX_INTR_MASK));
  78:Generated_Source\PSoC6\pdl\drivers\peripheral\scb/cy_scb_uart.c **** 
  79:Generated_Source\PSoC6\pdl\drivers\peripheral\scb/cy_scb_uart.c ****     uint32_t ovs;
  80:Generated_Source\PSoC6\pdl\drivers\peripheral\scb/cy_scb_uart.c **** 
  81:Generated_Source\PSoC6\pdl\drivers\peripheral\scb/cy_scb_uart.c ****     if ((CY_SCB_UART_IRDA == config->uartMode) && (!config->irdaEnableLowPowerReceiver))
  52              		.loc 1 81 0 is_stmt 1
  53 0010 0B78     		ldrb	r3, [r1]
  54 0012 022B     		cmp	r3, #2
  55 0014 03D1     		bne	.L3
  82:Generated_Source\PSoC6\pdl\drivers\peripheral\scb/cy_scb_uart.c ****     {
  83:Generated_Source\PSoC6\pdl\drivers\peripheral\scb/cy_scb_uart.c ****         /* For Normal IrDA mode oversampling is always zero */
  84:Generated_Source\PSoC6\pdl\drivers\peripheral\scb/cy_scb_uart.c ****         ovs = 0UL;
  56              		.loc 1 84 0 discriminator 1
  57 0016 0027     		movs	r7, #0
  81:Generated_Source\PSoC6\pdl\drivers\peripheral\scb/cy_scb_uart.c ****     {
  58              		.loc 1 81 0 discriminator 1
  59 0018 8C7F     		ldrb	r4, [r1, #30]
  60 001a BC42     		cmp	r4, r7
  61 001c 01D0     		beq	.L4
  62              	.L3:
  85:Generated_Source\PSoC6\pdl\drivers\peripheral\scb/cy_scb_uart.c ****     }
  86:Generated_Source\PSoC6\pdl\drivers\peripheral\scb/cy_scb_uart.c ****     else
  87:Generated_Source\PSoC6\pdl\drivers\peripheral\scb/cy_scb_uart.c ****     {
  88:Generated_Source\PSoC6\pdl\drivers\peripheral\scb/cy_scb_uart.c ****         ovs = (config->oversample - 1UL);
  63              		.loc 1 88 0
  64 001e 4C68     		ldr	r4, [r1, #4]
  65 0020 671E     		subs	r7, r4, #1
  66              	.LVL1:
  67              	.L4:
  89:Generated_Source\PSoC6\pdl\drivers\peripheral\scb/cy_scb_uart.c ****     }
  90:Generated_Source\PSoC6\pdl\drivers\peripheral\scb/cy_scb_uart.c **** 
  91:Generated_Source\PSoC6\pdl\drivers\peripheral\scb/cy_scb_uart.c ****     /* Configure the UART interface */
  92:Generated_Source\PSoC6\pdl\drivers\peripheral\scb/cy_scb_uart.c ****     SCB_CTRL(base) = _BOOL2FLD(SCB_CTRL_ADDR_ACCEPT, config->acceptAddrInFifo)               |
  68              		.loc 1 92 0
  69 0022 0D7F     		ldrb	r5, [r1, #28]
  93:Generated_Source\PSoC6\pdl\drivers\peripheral\scb/cy_scb_uart.c ****                  _BOOL2FLD(SCB_CTRL_BYTE_MODE, (config->dataWidth <= CY_SCB_BYTE_WIDTH)) |
  70              		.loc 1 93 0
  71 0024 0826     		movs	r6, #8
  92:Generated_Source\PSoC6\pdl\drivers\peripheral\scb/cy_scb_uart.c ****                  _BOOL2FLD(SCB_CTRL_BYTE_MODE, (config->dataWidth <= CY_SCB_BYTE_WIDTH)) |
  72              		.loc 1 92 0
  73 0026 6C1E     		subs	r4, r5, #1
  74 0028 A541     		sbcs	r5, r5, r4
  75 002a 2C04     		lsls	r4, r5, #16
  76 002c 0094     		str	r4, [sp]
ARM GAS  C:\Users\pearlstl\AppData\Local\Temp\ccAUXqAU.s 			page 4


  77              		.loc 1 93 0
  78 002e 8C68     		ldr	r4, [r1, #8]
  79 0030 A446     		mov	ip, r4
  80 0032 0024     		movs	r4, #0
  81 0034 6546     		mov	r5, ip
  82 0036 AE42     		cmp	r6, r5
  83 0038 6441     		adcs	r4, r4, r4
  94:Generated_Source\PSoC6\pdl\drivers\peripheral\scb/cy_scb_uart.c ****                  _VAL2FLD(SCB_CTRL_OVS, ovs)                                             |
  84              		.loc 1 94 0
  85 003a 0736     		adds	r6, r6, #7
  86 003c 3E40     		ands	r6, r7
  87 003e 8027     		movs	r7, #128
  88              	.LVL2:
  89 0040 009D     		ldr	r5, [sp]
  90 0042 BF04     		lsls	r7, r7, #18
  91 0044 3E43     		orrs	r6, r7
  92 0046 3543     		orrs	r5, r6
  93:Generated_Source\PSoC6\pdl\drivers\peripheral\scb/cy_scb_uart.c ****                  _BOOL2FLD(SCB_CTRL_BYTE_MODE, (config->dataWidth <= CY_SCB_BYTE_WIDTH)) |
  93              		.loc 1 93 0
  94 0048 E402     		lsls	r4, r4, #11
  95              		.loc 1 94 0
  96 004a 2C43     		orrs	r4, r5
  92:Generated_Source\PSoC6\pdl\drivers\peripheral\scb/cy_scb_uart.c ****                  _BOOL2FLD(SCB_CTRL_BYTE_MODE, (config->dataWidth <= CY_SCB_BYTE_WIDTH)) |
  97              		.loc 1 92 0
  98 004c 0460     		str	r4, [r0]
  95:Generated_Source\PSoC6\pdl\drivers\peripheral\scb/cy_scb_uart.c ****                  _VAL2FLD(SCB_CTRL_MODE, CY_SCB_CTRL_MODE_UART);
  96:Generated_Source\PSoC6\pdl\drivers\peripheral\scb/cy_scb_uart.c **** 
  97:Generated_Source\PSoC6\pdl\drivers\peripheral\scb/cy_scb_uart.c ****     /* Configure SCB_CTRL.BYTE_MODE then verify levels */
  98:Generated_Source\PSoC6\pdl\drivers\peripheral\scb/cy_scb_uart.c ****     CY_ASSERT_L2(CY_SCB_IS_TRIGGER_LEVEL_VALID(base, config->rxFifoTriggerLevel));
  99:Generated_Source\PSoC6\pdl\drivers\peripheral\scb/cy_scb_uart.c ****     CY_ASSERT_L2(CY_SCB_IS_TRIGGER_LEVEL_VALID(base, config->txFifoTriggerLevel));
 100:Generated_Source\PSoC6\pdl\drivers\peripheral\scb/cy_scb_uart.c ****     CY_ASSERT_L2(CY_SCB_IS_TRIGGER_LEVEL_VALID(base, config->rtsRxFifoLevel));
 101:Generated_Source\PSoC6\pdl\drivers\peripheral\scb/cy_scb_uart.c **** 
 102:Generated_Source\PSoC6\pdl\drivers\peripheral\scb/cy_scb_uart.c ****     SCB_UART_CTRL(base) = _VAL2FLD(SCB_UART_CTRL_MODE, (uint32_t) config->uartMode);
  99              		.loc 1 102 0
 100 004e C024     		movs	r4, #192
 101 0050 1D06     		lsls	r5, r3, #24
 102 0052 A404     		lsls	r4, r4, #18
 103 0054 2C40     		ands	r4, r5
 104 0056 0464     		str	r4, [r0, #64]
 103:Generated_Source\PSoC6\pdl\drivers\peripheral\scb/cy_scb_uart.c **** 
 104:Generated_Source\PSoC6\pdl\drivers\peripheral\scb/cy_scb_uart.c ****     /* Configure the RX direction */
 105:Generated_Source\PSoC6\pdl\drivers\peripheral\scb/cy_scb_uart.c ****     SCB_UART_RX_CTRL(base) = _BOOL2FLD(SCB_UART_RX_CTRL_POLARITY, config->irdaInvertRx)            
 105              		.loc 1 105 0
 106 0058 4D7F     		ldrb	r5, [r1, #29]
 107 005a 6C1E     		subs	r4, r5, #1
 108 005c A541     		sbcs	r5, r5, r4
 106:Generated_Source\PSoC6\pdl\drivers\peripheral\scb/cy_scb_uart.c ****                          _BOOL2FLD(SCB_UART_RX_CTRL_MP_MODE, config->enableMutliProcessorMode)     
 109              		.loc 1 106 0
 110 005e 8C7C     		ldrb	r4, [r1, #18]
 105:Generated_Source\PSoC6\pdl\drivers\peripheral\scb/cy_scb_uart.c ****                          _BOOL2FLD(SCB_UART_RX_CTRL_MP_MODE, config->enableMutliProcessorMode)     
 111              		.loc 1 105 0
 112 0060 AD01     		lsls	r5, r5, #6
 113              		.loc 1 106 0
 114 0062 661E     		subs	r6, r4, #1
 115 0064 B441     		sbcs	r4, r4, r6
 107:Generated_Source\PSoC6\pdl\drivers\peripheral\scb/cy_scb_uart.c ****                          _BOOL2FLD(SCB_UART_RX_CTRL_DROP_ON_PARITY_ERROR, config->dropOnParityError
 116              		.loc 1 107 0
ARM GAS  C:\Users\pearlstl\AppData\Local\Temp\ccAUXqAU.s 			page 5


 117 0066 0E7C     		ldrb	r6, [r1, #16]
 106:Generated_Source\PSoC6\pdl\drivers\peripheral\scb/cy_scb_uart.c ****                          _BOOL2FLD(SCB_UART_RX_CTRL_MP_MODE, config->enableMutliProcessorMode)     
 118              		.loc 1 106 0
 119 0068 A402     		lsls	r4, r4, #10
 120              		.loc 1 107 0
 121 006a 771E     		subs	r7, r6, #1
 122 006c BE41     		sbcs	r6, r6, r7
 123 006e 3602     		lsls	r6, r6, #8
 124 0070 0296     		str	r6, [sp, #8]
 108:Generated_Source\PSoC6\pdl\drivers\peripheral\scb/cy_scb_uart.c ****                          _BOOL2FLD(SCB_UART_RX_CTRL_DROP_ON_FRAME_ERROR, config->dropOnFrameError) 
 125              		.loc 1 108 0
 126 0072 4F7C     		ldrb	r7, [r1, #17]
 127 0074 7E1E     		subs	r6, r7, #1
 128 0076 B741     		sbcs	r7, r7, r6
 129 0078 7E02     		lsls	r6, r7, #9
 109:Generated_Source\PSoC6\pdl\drivers\peripheral\scb/cy_scb_uart.c ****                          _VAL2FLD(SCB_UART_RX_CTRL_BREAK_WIDTH, (config->breakWidth - 1UL))        
 110:Generated_Source\PSoC6\pdl\drivers\peripheral\scb/cy_scb_uart.c ****                          _VAL2FLD(SCB_UART_RX_CTRL_STOP_BITS,   ((uint32_t) config->stopBits) - 1UL
 130              		.loc 1 110 0
 131 007a 0727     		movs	r7, #7
 108:Generated_Source\PSoC6\pdl\drivers\peripheral\scb/cy_scb_uart.c ****                          _BOOL2FLD(SCB_UART_RX_CTRL_DROP_ON_FRAME_ERROR, config->dropOnFrameError) 
 132              		.loc 1 108 0
 133 007c 0396     		str	r6, [sp, #12]
 134              		.loc 1 110 0
 135 007e 4E7B     		ldrb	r6, [r1, #13]
 136 0080 013E     		subs	r6, r6, #1
 137 0082 3E40     		ands	r6, r7
 138 0084 0096     		str	r6, [sp]
 111:Generated_Source\PSoC6\pdl\drivers\peripheral\scb/cy_scb_uart.c ****                          _VAL2FLD(CY_SCB_UART_RX_CTRL_SET_PARITY, (uint32_t) config->parity);
 139              		.loc 1 111 0
 140 0086 8E7B     		ldrb	r6, [r1, #14]
 141 0088 2937     		adds	r7, r7, #41
 142 008a 3601     		lsls	r6, r6, #4
 143 008c 3E40     		ands	r6, r7
 144 008e 0196     		str	r6, [sp, #4]
 110:Generated_Source\PSoC6\pdl\drivers\peripheral\scb/cy_scb_uart.c ****                          _VAL2FLD(CY_SCB_UART_RX_CTRL_SET_PARITY, (uint32_t) config->parity);
 145              		.loc 1 110 0
 146 0090 CE6A     		ldr	r6, [r1, #44]
 147 0092 771E     		subs	r7, r6, #1
 148 0094 F026     		movs	r6, #240
 149 0096 3F04     		lsls	r7, r7, #16
 150 0098 3603     		lsls	r6, r6, #12
 151 009a 3E40     		ands	r6, r7
 152 009c 009F     		ldr	r7, [sp]
 153 009e 3E43     		orrs	r6, r7
 154 00a0 019F     		ldr	r7, [sp, #4]
 155 00a2 3E43     		orrs	r6, r7
 156 00a4 3543     		orrs	r5, r6
 157 00a6 2543     		orrs	r5, r4
 158 00a8 029C     		ldr	r4, [sp, #8]
 159 00aa 2543     		orrs	r5, r4
 160 00ac 039C     		ldr	r4, [sp, #12]
 161 00ae 2543     		orrs	r5, r4
 105:Generated_Source\PSoC6\pdl\drivers\peripheral\scb/cy_scb_uart.c ****                          _BOOL2FLD(SCB_UART_RX_CTRL_MP_MODE, config->enableMutliProcessorMode)     
 162              		.loc 1 105 0
 163 00b0 8564     		str	r5, [r0, #72]
 112:Generated_Source\PSoC6\pdl\drivers\peripheral\scb/cy_scb_uart.c **** 
 113:Generated_Source\PSoC6\pdl\drivers\peripheral\scb/cy_scb_uart.c ****     SCB_RX_CTRL(base) = _BOOL2FLD(SCB_RX_CTRL_MSB_FIRST, config->enableMsbFirst)          |
ARM GAS  C:\Users\pearlstl\AppData\Local\Temp\ccAUXqAU.s 			page 6


 164              		.loc 1 113 0
 165 00b2 0F7B     		ldrb	r7, [r1, #12]
 166 00b4 3D00     		movs	r5, r7
 167 00b6 6C1E     		subs	r4, r5, #1
 168 00b8 A541     		sbcs	r5, r5, r4
 169 00ba 2C02     		lsls	r4, r5, #8
 170 00bc 0294     		str	r4, [sp, #8]
 114:Generated_Source\PSoC6\pdl\drivers\peripheral\scb/cy_scb_uart.c ****                     _BOOL2FLD(SCB_RX_CTRL_MEDIAN, ((config->enableInputFilter) || \
 171              		.loc 1 114 0
 172 00be CC7B     		ldrb	r4, [r1, #15]
 173 00c0 002C     		cmp	r4, #0
 174 00c2 04D1     		bne	.L29
 175              		.loc 1 114 0 is_stmt 0 discriminator 2
 176 00c4 9E1E     		subs	r6, r3, #2
 177 00c6 7542     		rsbs	r5, r6, #0
 178 00c8 7541     		adcs	r5, r5, r6
 179 00ca 6E02     		lsls	r6, r5, #9
 180 00cc 01E0     		b	.L12
 181              	.L29:
 182              		.loc 1 114 0
 183 00ce 8026     		movs	r6, #128
 184 00d0 B600     		lsls	r6, r6, #2
 185              	.L12:
 115:Generated_Source\PSoC6\pdl\drivers\peripheral\scb/cy_scb_uart.c ****                                              (config->uartMode == CY_SCB_UART_IRDA))) |
 116:Generated_Source\PSoC6\pdl\drivers\peripheral\scb/cy_scb_uart.c ****                     _VAL2FLD(SCB_RX_CTRL_DATA_WIDTH, (config->dataWidth - 1UL));
 186              		.loc 1 116 0 is_stmt 1
 187 00d2 0124     		movs	r4, #1
 188 00d4 6442     		rsbs	r4, r4, #0
 189 00d6 A444     		add	ip, ip, r4
 190 00d8 6546     		mov	r5, ip
 191 00da 1034     		adds	r4, r4, #16
 192 00dc 2540     		ands	r5, r4
 193 00de AC46     		mov	ip, r5
 115:Generated_Source\PSoC6\pdl\drivers\peripheral\scb/cy_scb_uart.c ****                                              (config->uartMode == CY_SCB_UART_IRDA))) |
 194              		.loc 1 115 0
 195 00e0 6446     		mov	r4, ip
 196 00e2 029D     		ldr	r5, [sp, #8]
 197 00e4 2543     		orrs	r5, r4
 198 00e6 2E43     		orrs	r6, r5
 113:Generated_Source\PSoC6\pdl\drivers\peripheral\scb/cy_scb_uart.c ****                     _BOOL2FLD(SCB_RX_CTRL_MEDIAN, ((config->enableInputFilter) || \
 199              		.loc 1 113 0
 200 00e8 C025     		movs	r5, #192
 201 00ea AD00     		lsls	r5, r5, #2
 202 00ec 4651     		str	r6, [r0, r5]
 117:Generated_Source\PSoC6\pdl\drivers\peripheral\scb/cy_scb_uart.c **** 
 118:Generated_Source\PSoC6\pdl\drivers\peripheral\scb/cy_scb_uart.c ****     SCB_RX_MATCH(base) = _VAL2FLD(SCB_RX_MATCH_ADDR, config->receiverAddress) |
 203              		.loc 1 118 0
 204 00ee 8D69     		ldr	r5, [r1, #24]
 205 00f0 2E04     		lsls	r6, r5, #16
 206 00f2 FF25     		movs	r5, #255
 207 00f4 2D04     		lsls	r5, r5, #16
 208 00f6 3540     		ands	r5, r6
 209 00f8 0E7D     		ldrb	r6, [r1, #20]
 210 00fa 3543     		orrs	r5, r6
 211 00fc C426     		movs	r6, #196
 212 00fe B600     		lsls	r6, r6, #2
 213 0100 8551     		str	r5, [r0, r6]
ARM GAS  C:\Users\pearlstl\AppData\Local\Temp\ccAUXqAU.s 			page 7


 119:Generated_Source\PSoC6\pdl\drivers\peripheral\scb/cy_scb_uart.c ****                      _VAL2FLD(SCB_RX_MATCH_MASK, config->receiverAddressMask);
 120:Generated_Source\PSoC6\pdl\drivers\peripheral\scb/cy_scb_uart.c **** 
 121:Generated_Source\PSoC6\pdl\drivers\peripheral\scb/cy_scb_uart.c ****     /* Configure SCB_CTRL.RX_CTRL then verify break width */
 122:Generated_Source\PSoC6\pdl\drivers\peripheral\scb/cy_scb_uart.c ****     CY_ASSERT_L2(CY_SCB_UART_IS_RX_BREAK_WIDTH_VALID(base, config->breakWidth));
 123:Generated_Source\PSoC6\pdl\drivers\peripheral\scb/cy_scb_uart.c **** 
 124:Generated_Source\PSoC6\pdl\drivers\peripheral\scb/cy_scb_uart.c ****     /* Configure the TX direction */
 125:Generated_Source\PSoC6\pdl\drivers\peripheral\scb/cy_scb_uart.c ****     SCB_UART_TX_CTRL(base) = _BOOL2FLD(SCB_UART_TX_CTRL_RETRY_ON_NACK, ((config->smartCardRetryOnNa
 214              		.loc 1 125 0
 215 0102 0025     		movs	r5, #0
 216 0104 CE7F     		ldrb	r6, [r1, #31]
 217 0106 AE42     		cmp	r6, r5
 218 0108 03D0     		beq	.L13
 219              		.loc 1 125 0 is_stmt 0 discriminator 1
 220 010a 5D1E     		subs	r5, r3, #1
 221 010c 6C42     		rsbs	r4, r5, #0
 222 010e 6C41     		adcs	r4, r4, r5
 223 0110 2502     		lsls	r5, r4, #8
 224              	.L13:
 126:Generated_Source\PSoC6\pdl\drivers\peripheral\scb/cy_scb_uart.c ****                                                               (config->uartMode == CY_SCB_UART_SMAR
 127:Generated_Source\PSoC6\pdl\drivers\peripheral\scb/cy_scb_uart.c ****                          _VAL2FLD(SCB_UART_TX_CTRL_STOP_BITS, ((uint32_t) config->stopBits) - 1UL) 
 225              		.loc 1 127 0 is_stmt 1
 226 0112 009E     		ldr	r6, [sp]
 227 0114 019C     		ldr	r4, [sp, #4]
 128:Generated_Source\PSoC6\pdl\drivers\peripheral\scb/cy_scb_uart.c ****                          _VAL2FLD(CY_SCB_UART_TX_CTRL_SET_PARITY, (uint32_t) config->parity);
 129:Generated_Source\PSoC6\pdl\drivers\peripheral\scb/cy_scb_uart.c **** 
 130:Generated_Source\PSoC6\pdl\drivers\peripheral\scb/cy_scb_uart.c ****     SCB_TX_CTRL(base)  = _BOOL2FLD(SCB_TX_CTRL_MSB_FIRST,  config->enableMsbFirst)    |
 131:Generated_Source\PSoC6\pdl\drivers\peripheral\scb/cy_scb_uart.c ****                      _VAL2FLD(SCB_TX_CTRL_DATA_WIDTH,  (config->dataWidth - 1UL)) |
 132:Generated_Source\PSoC6\pdl\drivers\peripheral\scb/cy_scb_uart.c ****                      _BOOL2FLD(SCB_TX_CTRL_OPEN_DRAIN, (config->uartMode == CY_SCB_UART_SMARTCARD))
 228              		.loc 1 132 0
 229 0116 013B     		subs	r3, r3, #1
 127:Generated_Source\PSoC6\pdl\drivers\peripheral\scb/cy_scb_uart.c ****                          _VAL2FLD(CY_SCB_UART_TX_CTRL_SET_PARITY, (uint32_t) config->parity);
 230              		.loc 1 127 0
 231 0118 2643     		orrs	r6, r4
 232 011a 3543     		orrs	r5, r6
 125:Generated_Source\PSoC6\pdl\drivers\peripheral\scb/cy_scb_uart.c ****                                                               (config->uartMode == CY_SCB_UART_SMAR
 233              		.loc 1 125 0
 234 011c 4564     		str	r5, [r0, #68]
 130:Generated_Source\PSoC6\pdl\drivers\peripheral\scb/cy_scb_uart.c ****                      _VAL2FLD(SCB_TX_CTRL_DATA_WIDTH,  (config->dataWidth - 1UL)) |
 235              		.loc 1 130 0
 236 011e 7D1E     		subs	r5, r7, #1
 237 0120 AF41     		sbcs	r7, r7, r5
 238              		.loc 1 132 0
 239 0122 5E42     		rsbs	r6, r3, #0
 240 0124 5E41     		adcs	r6, r6, r3
 130:Generated_Source\PSoC6\pdl\drivers\peripheral\scb/cy_scb_uart.c ****                      _VAL2FLD(SCB_TX_CTRL_DATA_WIDTH,  (config->dataWidth - 1UL)) |
 241              		.loc 1 130 0
 242 0126 6446     		mov	r4, ip
 243 0128 3F02     		lsls	r7, r7, #8
 244 012a 3C43     		orrs	r4, r7
 245              		.loc 1 132 0
 246 012c 3304     		lsls	r3, r6, #16
 131:Generated_Source\PSoC6\pdl\drivers\peripheral\scb/cy_scb_uart.c ****                      _BOOL2FLD(SCB_TX_CTRL_OPEN_DRAIN, (config->uartMode == CY_SCB_UART_SMARTCARD))
 247              		.loc 1 131 0
 248 012e 2343     		orrs	r3, r4
 130:Generated_Source\PSoC6\pdl\drivers\peripheral\scb/cy_scb_uart.c ****                      _VAL2FLD(SCB_TX_CTRL_DATA_WIDTH,  (config->dataWidth - 1UL)) |
 249              		.loc 1 130 0
 250 0130 8024     		movs	r4, #128
ARM GAS  C:\Users\pearlstl\AppData\Local\Temp\ccAUXqAU.s 			page 8


 251 0132 A400     		lsls	r4, r4, #2
 252 0134 0351     		str	r3, [r0, r4]
 133:Generated_Source\PSoC6\pdl\drivers\peripheral\scb/cy_scb_uart.c **** 
 134:Generated_Source\PSoC6\pdl\drivers\peripheral\scb/cy_scb_uart.c ****     SCB_RX_FIFO_CTRL(base) = _VAL2FLD(SCB_RX_FIFO_CTRL_TRIGGER_LEVEL, config->rxFifoTriggerLevel);
 253              		.loc 1 134 0
 254 0136 C125     		movs	r5, #193
 255 0138 FF23     		movs	r3, #255
 256 013a 0C6B     		ldr	r4, [r1, #48]
 257 013c AD00     		lsls	r5, r5, #2
 258 013e 1C40     		ands	r4, r3
 259 0140 4451     		str	r4, [r0, r5]
 135:Generated_Source\PSoC6\pdl\drivers\peripheral\scb/cy_scb_uart.c **** 
 136:Generated_Source\PSoC6\pdl\drivers\peripheral\scb/cy_scb_uart.c ****     /* Configure the flow control */
 137:Generated_Source\PSoC6\pdl\drivers\peripheral\scb/cy_scb_uart.c ****     SCB_UART_FLOW_CTRL(base) = _BOOL2FLD(SCB_UART_FLOW_CTRL_CTS_ENABLED, config->enableCts) |
 260              		.loc 1 137 0
 261 0142 4C1C     		adds	r4, r1, #1
 262 0144 E57F     		ldrb	r5, [r4, #31]
 263 0146 6C1E     		subs	r4, r5, #1
 264 0148 A541     		sbcs	r5, r5, r4
 265 014a 6C06     		lsls	r4, r5, #25
 266 014c 0094     		str	r4, [sp]
 138:Generated_Source\PSoC6\pdl\drivers\peripheral\scb/cy_scb_uart.c ****                            _BOOL2FLD(SCB_UART_FLOW_CTRL_CTS_POLARITY, (CY_SCB_UART_ACTIVE_HIGH == c
 267              		.loc 1 138 0
 268 014e 8C1C     		adds	r4, r1, #2
 269 0150 E47F     		ldrb	r4, [r4, #31]
 270 0152 013C     		subs	r4, r4, #1
 271 0154 6742     		rsbs	r7, r4, #0
 272 0156 6741     		adcs	r7, r7, r4
 139:Generated_Source\PSoC6\pdl\drivers\peripheral\scb/cy_scb_uart.c ****                            _BOOL2FLD(SCB_UART_FLOW_CTRL_RTS_POLARITY, (CY_SCB_UART_ACTIVE_HIGH == c
 273              		.loc 1 139 0
 274 0158 0C00     		movs	r4, r1
 275 015a 2834     		adds	r4, r4, #40
 276 015c 2478     		ldrb	r4, [r4]
 138:Generated_Source\PSoC6\pdl\drivers\peripheral\scb/cy_scb_uart.c ****                            _BOOL2FLD(SCB_UART_FLOW_CTRL_CTS_POLARITY, (CY_SCB_UART_ACTIVE_HIGH == c
 277              		.loc 1 138 0
 278 015e 3E06     		lsls	r6, r7, #24
 279              		.loc 1 139 0
 280 0160 013C     		subs	r4, r4, #1
 281 0162 6542     		rsbs	r5, r4, #0
 282 0164 6541     		adcs	r5, r5, r4
 283 0166 4C6A     		ldr	r4, [r1, #36]
 284 0168 2F04     		lsls	r7, r5, #16
 285 016a 009D     		ldr	r5, [sp]
 286 016c 1C40     		ands	r4, r3
 287 016e 2C43     		orrs	r4, r5
 288 0170 3443     		orrs	r4, r6
 289 0172 3C43     		orrs	r4, r7
 137:Generated_Source\PSoC6\pdl\drivers\peripheral\scb/cy_scb_uart.c ****                            _BOOL2FLD(SCB_UART_FLOW_CTRL_CTS_POLARITY, (CY_SCB_UART_ACTIVE_HIGH == c
 290              		.loc 1 137 0
 291 0174 0465     		str	r4, [r0, #80]
 140:Generated_Source\PSoC6\pdl\drivers\peripheral\scb/cy_scb_uart.c ****                            _VAL2FLD(SCB_UART_FLOW_CTRL_TRIGGER_LEVEL, config->rtsRxFifoLevel);
 141:Generated_Source\PSoC6\pdl\drivers\peripheral\scb/cy_scb_uart.c **** 
 142:Generated_Source\PSoC6\pdl\drivers\peripheral\scb/cy_scb_uart.c ****     SCB_TX_FIFO_CTRL(base) = _VAL2FLD(SCB_TX_FIFO_CTRL_TRIGGER_LEVEL, config->txFifoTriggerLevel);
 292              		.loc 1 142 0
 293 0176 8C6B     		ldr	r4, [r1, #56]
 294 0178 2340     		ands	r3, r4
 295 017a 8124     		movs	r4, #129
ARM GAS  C:\Users\pearlstl\AppData\Local\Temp\ccAUXqAU.s 			page 9


 296 017c A400     		lsls	r4, r4, #2
 297 017e 0351     		str	r3, [r0, r4]
 143:Generated_Source\PSoC6\pdl\drivers\peripheral\scb/cy_scb_uart.c **** 
 144:Generated_Source\PSoC6\pdl\drivers\peripheral\scb/cy_scb_uart.c ****     /* Set up interrupt sources */
 145:Generated_Source\PSoC6\pdl\drivers\peripheral\scb/cy_scb_uart.c ****     SCB_INTR_RX_MASK(base) = (config->rxFifoIntEnableMask & CY_SCB_UART_RX_INTR_MASK);
 298              		.loc 1 145 0
 299 0180 4C6B     		ldr	r4, [r1, #52]
 300 0182 0C4B     		ldr	r3, .L42
 146:Generated_Source\PSoC6\pdl\drivers\peripheral\scb/cy_scb_uart.c ****     SCB_INTR_TX_MASK(base) = (config->txFifoIntEnableMask & CY_SCB_UART_TX_INTR_MASK);
 301              		.loc 1 146 0
 302 0184 C96B     		ldr	r1, [r1, #60]
 303              	.LVL3:
 145:Generated_Source\PSoC6\pdl\drivers\peripheral\scb/cy_scb_uart.c ****     SCB_INTR_TX_MASK(base) = (config->txFifoIntEnableMask & CY_SCB_UART_TX_INTR_MASK);
 304              		.loc 1 145 0
 305 0186 2340     		ands	r3, r4
 306 0188 0B4C     		ldr	r4, .L42+4
 307 018a 0351     		str	r3, [r0, r4]
 308              		.loc 1 146 0
 309 018c 0B4B     		ldr	r3, .L42+8
 310 018e 0B40     		ands	r3, r1
 311 0190 0B49     		ldr	r1, .L42+12
 312 0192 4350     		str	r3, [r0, r1]
 313 0194 0023     		movs	r3, #0
 147:Generated_Source\PSoC6\pdl\drivers\peripheral\scb/cy_scb_uart.c **** 
 148:Generated_Source\PSoC6\pdl\drivers\peripheral\scb/cy_scb_uart.c ****     /* Initialize context */
 149:Generated_Source\PSoC6\pdl\drivers\peripheral\scb/cy_scb_uart.c ****     if (NULL != context)
 150:Generated_Source\PSoC6\pdl\drivers\peripheral\scb/cy_scb_uart.c ****     {
 151:Generated_Source\PSoC6\pdl\drivers\peripheral\scb/cy_scb_uart.c ****         context->rxStatus  = 0UL;
 152:Generated_Source\PSoC6\pdl\drivers\peripheral\scb/cy_scb_uart.c ****         context->txStatus  = 0UL;
 153:Generated_Source\PSoC6\pdl\drivers\peripheral\scb/cy_scb_uart.c **** 
 154:Generated_Source\PSoC6\pdl\drivers\peripheral\scb/cy_scb_uart.c ****         context->rxRingBuf = NULL;
 155:Generated_Source\PSoC6\pdl\drivers\peripheral\scb/cy_scb_uart.c ****         context->rxRingBufSize = 0UL;
 156:Generated_Source\PSoC6\pdl\drivers\peripheral\scb/cy_scb_uart.c **** 
 157:Generated_Source\PSoC6\pdl\drivers\peripheral\scb/cy_scb_uart.c ****         context->rxBufIdx  = 0UL;
 158:Generated_Source\PSoC6\pdl\drivers\peripheral\scb/cy_scb_uart.c ****         context->txLeftToTransmit = 0UL;
 159:Generated_Source\PSoC6\pdl\drivers\peripheral\scb/cy_scb_uart.c **** 
 160:Generated_Source\PSoC6\pdl\drivers\peripheral\scb/cy_scb_uart.c ****         context->cbEvents = NULL;
 161:Generated_Source\PSoC6\pdl\drivers\peripheral\scb/cy_scb_uart.c **** 
 162:Generated_Source\PSoC6\pdl\drivers\peripheral\scb/cy_scb_uart.c ****     #if !defined(NDEBUG)
 163:Generated_Source\PSoC6\pdl\drivers\peripheral\scb/cy_scb_uart.c ****         /* Put an initialization key into the initKey variable to verify
 164:Generated_Source\PSoC6\pdl\drivers\peripheral\scb/cy_scb_uart.c ****         * context initialization in the transfer API.
 165:Generated_Source\PSoC6\pdl\drivers\peripheral\scb/cy_scb_uart.c ****         */
 166:Generated_Source\PSoC6\pdl\drivers\peripheral\scb/cy_scb_uart.c ****         context->initKey = CY_SCB_UART_INIT_KEY;
 167:Generated_Source\PSoC6\pdl\drivers\peripheral\scb/cy_scb_uart.c ****     #endif /* !(NDEBUG) */
 168:Generated_Source\PSoC6\pdl\drivers\peripheral\scb/cy_scb_uart.c ****     }
 169:Generated_Source\PSoC6\pdl\drivers\peripheral\scb/cy_scb_uart.c **** 
 170:Generated_Source\PSoC6\pdl\drivers\peripheral\scb/cy_scb_uart.c ****     return CY_SCB_UART_SUCCESS;
 314              		.loc 1 170 0
 315 0196 1000     		movs	r0, r2
 316              	.LVL4:
 149:Generated_Source\PSoC6\pdl\drivers\peripheral\scb/cy_scb_uart.c ****     {
 317              		.loc 1 149 0
 318 0198 9A42     		cmp	r2, r3
 319 019a 09D0     		beq	.L2
 320              	.LVL5:
 151:Generated_Source\PSoC6\pdl\drivers\peripheral\scb/cy_scb_uart.c ****         context->txStatus  = 0UL;
 321              		.loc 1 151 0
ARM GAS  C:\Users\pearlstl\AppData\Local\Temp\ccAUXqAU.s 			page 10


 322 019c 5360     		str	r3, [r2, #4]
 154:Generated_Source\PSoC6\pdl\drivers\peripheral\scb/cy_scb_uart.c ****         context->rxRingBufSize = 0UL;
 323              		.loc 1 154 0
 324 019e 9360     		str	r3, [r2, #8]
 152:Generated_Source\PSoC6\pdl\drivers\peripheral\scb/cy_scb_uart.c **** 
 325              		.loc 1 152 0
 326 01a0 1360     		str	r3, [r2]
 155:Generated_Source\PSoC6\pdl\drivers\peripheral\scb/cy_scb_uart.c **** 
 327              		.loc 1 155 0
 328 01a2 D360     		str	r3, [r2, #12]
 157:Generated_Source\PSoC6\pdl\drivers\peripheral\scb/cy_scb_uart.c ****         context->txLeftToTransmit = 0UL;
 329              		.loc 1 157 0
 330 01a4 1362     		str	r3, [r2, #32]
 160:Generated_Source\PSoC6\pdl\drivers\peripheral\scb/cy_scb_uart.c **** 
 331              		.loc 1 160 0
 332 01a6 1363     		str	r3, [r2, #48]
 158:Generated_Source\PSoC6\pdl\drivers\peripheral\scb/cy_scb_uart.c **** 
 333              		.loc 1 158 0
 334 01a8 D362     		str	r3, [r2, #44]
 335              		.loc 1 170 0
 336 01aa 1800     		movs	r0, r3
 337              	.LVL6:
 338 01ac 00E0     		b	.L2
 339              	.LVL7:
 340              	.L20:
  60:Generated_Source\PSoC6\pdl\drivers\peripheral\scb/cy_scb_uart.c ****     }
 341              		.loc 1 60 0
 342 01ae 0548     		ldr	r0, .L42+16
 343              	.LVL8:
 344              	.L2:
 171:Generated_Source\PSoC6\pdl\drivers\peripheral\scb/cy_scb_uart.c **** }
 345              		.loc 1 171 0
 346 01b0 05B0     		add	sp, sp, #20
 347              		@ sp needed
 348 01b2 F0BD     		pop	{r4, r5, r6, r7, pc}
 349              	.L43:
 350              		.align	2
 351              	.L42:
 352 01b4 6D0B0000 		.word	2925
 353 01b8 C80F0000 		.word	4040
 354 01bc 73070000 		.word	1907
 355 01c0 880F0000 		.word	3976
 356 01c4 0160AA00 		.word	11165697
 357              		.cfi_endproc
 358              	.LFE155:
 359              		.size	Cy_SCB_UART_Init, .-Cy_SCB_UART_Init
 360              		.section	.text.Cy_SCB_UART_DeInit,"ax",%progbits
 361              		.align	1
 362              		.global	Cy_SCB_UART_DeInit
 363              		.code	16
 364              		.thumb_func
 365              		.type	Cy_SCB_UART_DeInit, %function
 366              	Cy_SCB_UART_DeInit:
 367              	.LFB156:
 172:Generated_Source\PSoC6\pdl\drivers\peripheral\scb/cy_scb_uart.c **** 
 173:Generated_Source\PSoC6\pdl\drivers\peripheral\scb/cy_scb_uart.c **** 
 174:Generated_Source\PSoC6\pdl\drivers\peripheral\scb/cy_scb_uart.c **** /*******************************************************************************
ARM GAS  C:\Users\pearlstl\AppData\Local\Temp\ccAUXqAU.s 			page 11


 175:Generated_Source\PSoC6\pdl\drivers\peripheral\scb/cy_scb_uart.c **** * Function Name: Cy_SCB_UART_DeInit
 176:Generated_Source\PSoC6\pdl\drivers\peripheral\scb/cy_scb_uart.c **** ****************************************************************************//**
 177:Generated_Source\PSoC6\pdl\drivers\peripheral\scb/cy_scb_uart.c **** *
 178:Generated_Source\PSoC6\pdl\drivers\peripheral\scb/cy_scb_uart.c **** * De-initializes the SCB block. Returns the register values to default.
 179:Generated_Source\PSoC6\pdl\drivers\peripheral\scb/cy_scb_uart.c **** *
 180:Generated_Source\PSoC6\pdl\drivers\peripheral\scb/cy_scb_uart.c **** * \param base
 181:Generated_Source\PSoC6\pdl\drivers\peripheral\scb/cy_scb_uart.c **** * The pointer to the UART SCB instance.
 182:Generated_Source\PSoC6\pdl\drivers\peripheral\scb/cy_scb_uart.c **** *
 183:Generated_Source\PSoC6\pdl\drivers\peripheral\scb/cy_scb_uart.c **** * \note
 184:Generated_Source\PSoC6\pdl\drivers\peripheral\scb/cy_scb_uart.c **** * Ensure that the SCB block is disabled before calling this function.
 185:Generated_Source\PSoC6\pdl\drivers\peripheral\scb/cy_scb_uart.c **** *
 186:Generated_Source\PSoC6\pdl\drivers\peripheral\scb/cy_scb_uart.c **** *******************************************************************************/
 187:Generated_Source\PSoC6\pdl\drivers\peripheral\scb/cy_scb_uart.c **** void Cy_SCB_UART_DeInit(CySCB_Type *base)
 188:Generated_Source\PSoC6\pdl\drivers\peripheral\scb/cy_scb_uart.c **** {
 368              		.loc 1 188 0
 369              		.cfi_startproc
 370              		@ args = 0, pretend = 0, frame = 0
 371              		@ frame_needed = 0, uses_anonymous_args = 0
 372              		@ link register save eliminated.
 373              	.LVL9:
 189:Generated_Source\PSoC6\pdl\drivers\peripheral\scb/cy_scb_uart.c ****     /* De-initialize the UART interface */
 190:Generated_Source\PSoC6\pdl\drivers\peripheral\scb/cy_scb_uart.c ****     SCB_CTRL(base)      = CY_SCB_CTRL_DEF_VAL;
 374              		.loc 1 190 0
 375 0000 114B     		ldr	r3, .L45
 191:Generated_Source\PSoC6\pdl\drivers\peripheral\scb/cy_scb_uart.c ****     SCB_UART_CTRL(base) = CY_SCB_UART_CTRL_DEF_VAL;
 192:Generated_Source\PSoC6\pdl\drivers\peripheral\scb/cy_scb_uart.c **** 
 193:Generated_Source\PSoC6\pdl\drivers\peripheral\scb/cy_scb_uart.c ****     /* De-initialize the RX direction */
 194:Generated_Source\PSoC6\pdl\drivers\peripheral\scb/cy_scb_uart.c ****     SCB_UART_RX_CTRL(base) = 0UL;
 195:Generated_Source\PSoC6\pdl\drivers\peripheral\scb/cy_scb_uart.c ****     SCB_RX_CTRL(base)      = CY_SCB_RX_CTRL_DEF_VAL;
 376              		.loc 1 195 0
 377 0002 0822     		movs	r2, #8
 190:Generated_Source\PSoC6\pdl\drivers\peripheral\scb/cy_scb_uart.c ****     SCB_UART_CTRL(base) = CY_SCB_UART_CTRL_DEF_VAL;
 378              		.loc 1 190 0
 379 0004 0360     		str	r3, [r0]
 380              		.loc 1 195 0
 381 0006 C021     		movs	r1, #192
 191:Generated_Source\PSoC6\pdl\drivers\peripheral\scb/cy_scb_uart.c ****     SCB_UART_CTRL(base) = CY_SCB_UART_CTRL_DEF_VAL;
 382              		.loc 1 191 0
 383 0008 0F3B     		subs	r3, r3, #15
 384 000a 0364     		str	r3, [r0, #64]
 194:Generated_Source\PSoC6\pdl\drivers\peripheral\scb/cy_scb_uart.c ****     SCB_RX_CTRL(base)      = CY_SCB_RX_CTRL_DEF_VAL;
 385              		.loc 1 194 0
 386 000c 0023     		movs	r3, #0
 387              		.loc 1 195 0
 388 000e FF32     		adds	r2, r2, #255
 389 0010 8900     		lsls	r1, r1, #2
 194:Generated_Source\PSoC6\pdl\drivers\peripheral\scb/cy_scb_uart.c ****     SCB_RX_CTRL(base)      = CY_SCB_RX_CTRL_DEF_VAL;
 390              		.loc 1 194 0
 391 0012 8364     		str	r3, [r0, #72]
 392              		.loc 1 195 0
 393 0014 4250     		str	r2, [r0, r1]
 196:Generated_Source\PSoC6\pdl\drivers\peripheral\scb/cy_scb_uart.c ****     SCB_RX_FIFO_CTRL(base) = 0UL;
 394              		.loc 1 196 0
 395 0016 0431     		adds	r1, r1, #4
 396 0018 4350     		str	r3, [r0, r1]
 197:Generated_Source\PSoC6\pdl\drivers\peripheral\scb/cy_scb_uart.c ****     SCB_RX_MATCH(base)     = 0UL;
 397              		.loc 1 197 0
ARM GAS  C:\Users\pearlstl\AppData\Local\Temp\ccAUXqAU.s 			page 12


 398 001a 0C31     		adds	r1, r1, #12
 399 001c 4350     		str	r3, [r0, r1]
 198:Generated_Source\PSoC6\pdl\drivers\peripheral\scb/cy_scb_uart.c **** 
 199:Generated_Source\PSoC6\pdl\drivers\peripheral\scb/cy_scb_uart.c ****     /* De-initialize the TX direction */
 200:Generated_Source\PSoC6\pdl\drivers\peripheral\scb/cy_scb_uart.c ****     SCB_UART_TX_CTRL(base) = 0UL;
 201:Generated_Source\PSoC6\pdl\drivers\peripheral\scb/cy_scb_uart.c ****     SCB_TX_CTRL(base)      = CY_SCB_TX_CTRL_DEF_VAL;
 400              		.loc 1 201 0
 401 001e 1139     		subs	r1, r1, #17
 402 0020 FF39     		subs	r1, r1, #255
 200:Generated_Source\PSoC6\pdl\drivers\peripheral\scb/cy_scb_uart.c ****     SCB_TX_CTRL(base)      = CY_SCB_TX_CTRL_DEF_VAL;
 403              		.loc 1 200 0
 404 0022 4364     		str	r3, [r0, #68]
 405              		.loc 1 201 0
 406 0024 4250     		str	r2, [r0, r1]
 202:Generated_Source\PSoC6\pdl\drivers\peripheral\scb/cy_scb_uart.c ****     SCB_TX_FIFO_CTRL(base) = 0UL;
 407              		.loc 1 202 0
 408 0026 FD32     		adds	r2, r2, #253
 409 0028 8350     		str	r3, [r0, r2]
 203:Generated_Source\PSoC6\pdl\drivers\peripheral\scb/cy_scb_uart.c **** 
 204:Generated_Source\PSoC6\pdl\drivers\peripheral\scb/cy_scb_uart.c ****     /* De-initialize the flow control */
 205:Generated_Source\PSoC6\pdl\drivers\peripheral\scb/cy_scb_uart.c ****     SCB_UART_FLOW_CTRL(base) = 0UL;
 206:Generated_Source\PSoC6\pdl\drivers\peripheral\scb/cy_scb_uart.c **** 
 207:Generated_Source\PSoC6\pdl\drivers\peripheral\scb/cy_scb_uart.c ****     /* De-initialize the interrupt sources */
 208:Generated_Source\PSoC6\pdl\drivers\peripheral\scb/cy_scb_uart.c ****     SCB_INTR_SPI_EC_MASK(base) = 0UL;
 410              		.loc 1 208 0
 411 002a 084A     		ldr	r2, .L45+4
 205:Generated_Source\PSoC6\pdl\drivers\peripheral\scb/cy_scb_uart.c **** 
 412              		.loc 1 205 0
 413 002c 0365     		str	r3, [r0, #80]
 414              		.loc 1 208 0
 415 002e 8350     		str	r3, [r0, r2]
 209:Generated_Source\PSoC6\pdl\drivers\peripheral\scb/cy_scb_uart.c ****     SCB_INTR_I2C_EC_MASK(base) = 0UL;
 416              		.loc 1 209 0
 417 0030 074A     		ldr	r2, .L45+8
 210:Generated_Source\PSoC6\pdl\drivers\peripheral\scb/cy_scb_uart.c ****     SCB_INTR_RX_MASK(base)     = 0UL;
 211:Generated_Source\PSoC6\pdl\drivers\peripheral\scb/cy_scb_uart.c ****     SCB_INTR_TX_MASK(base)     = 0UL;
 212:Generated_Source\PSoC6\pdl\drivers\peripheral\scb/cy_scb_uart.c ****     SCB_INTR_M_MASK(base)      = 0UL;
 213:Generated_Source\PSoC6\pdl\drivers\peripheral\scb/cy_scb_uart.c ****     SCB_INTR_S_MASK(base)      = 0UL;
 214:Generated_Source\PSoC6\pdl\drivers\peripheral\scb/cy_scb_uart.c **** }
 418              		.loc 1 214 0
 419              		@ sp needed
 209:Generated_Source\PSoC6\pdl\drivers\peripheral\scb/cy_scb_uart.c ****     SCB_INTR_I2C_EC_MASK(base) = 0UL;
 420              		.loc 1 209 0
 421 0032 8350     		str	r3, [r0, r2]
 210:Generated_Source\PSoC6\pdl\drivers\peripheral\scb/cy_scb_uart.c ****     SCB_INTR_RX_MASK(base)     = 0UL;
 422              		.loc 1 210 0
 423 0034 074A     		ldr	r2, .L45+12
 424 0036 8350     		str	r3, [r0, r2]
 211:Generated_Source\PSoC6\pdl\drivers\peripheral\scb/cy_scb_uart.c ****     SCB_INTR_M_MASK(base)      = 0UL;
 425              		.loc 1 211 0
 426 0038 074A     		ldr	r2, .L45+16
 427 003a 8350     		str	r3, [r0, r2]
 212:Generated_Source\PSoC6\pdl\drivers\peripheral\scb/cy_scb_uart.c ****     SCB_INTR_S_MASK(base)      = 0UL;
 428              		.loc 1 212 0
 429 003c 074A     		ldr	r2, .L45+20
 430 003e 8350     		str	r3, [r0, r2]
 213:Generated_Source\PSoC6\pdl\drivers\peripheral\scb/cy_scb_uart.c **** }
ARM GAS  C:\Users\pearlstl\AppData\Local\Temp\ccAUXqAU.s 			page 13


 431              		.loc 1 213 0
 432 0040 074A     		ldr	r2, .L45+24
 433 0042 8350     		str	r3, [r0, r2]
 434              		.loc 1 214 0
 435 0044 7047     		bx	lr
 436              	.L46:
 437 0046 C046     		.align	2
 438              	.L45:
 439 0048 0F000003 		.word	50331663
 440 004c C80E0000 		.word	3784
 441 0050 880E0000 		.word	3720
 442 0054 C80F0000 		.word	4040
 443 0058 880F0000 		.word	3976
 444 005c 080F0000 		.word	3848
 445 0060 480F0000 		.word	3912
 446              		.cfi_endproc
 447              	.LFE156:
 448              		.size	Cy_SCB_UART_DeInit, .-Cy_SCB_UART_DeInit
 449              		.section	.text.Cy_SCB_UART_Disable,"ax",%progbits
 450              		.align	1
 451              		.global	Cy_SCB_UART_Disable
 452              		.code	16
 453              		.thumb_func
 454              		.type	Cy_SCB_UART_Disable, %function
 455              	Cy_SCB_UART_Disable:
 456              	.LFB157:
 215:Generated_Source\PSoC6\pdl\drivers\peripheral\scb/cy_scb_uart.c **** 
 216:Generated_Source\PSoC6\pdl\drivers\peripheral\scb/cy_scb_uart.c **** 
 217:Generated_Source\PSoC6\pdl\drivers\peripheral\scb/cy_scb_uart.c **** /*******************************************************************************
 218:Generated_Source\PSoC6\pdl\drivers\peripheral\scb/cy_scb_uart.c **** * Function Name: Cy_SCB_UART_Disable
 219:Generated_Source\PSoC6\pdl\drivers\peripheral\scb/cy_scb_uart.c **** ****************************************************************************//**
 220:Generated_Source\PSoC6\pdl\drivers\peripheral\scb/cy_scb_uart.c **** *
 221:Generated_Source\PSoC6\pdl\drivers\peripheral\scb/cy_scb_uart.c **** * Disables the SCB block and clears context statuses.
 222:Generated_Source\PSoC6\pdl\drivers\peripheral\scb/cy_scb_uart.c **** * Note that after the block is disabled, the TX and RX FIFOs and
 223:Generated_Source\PSoC6\pdl\drivers\peripheral\scb/cy_scb_uart.c **** * hardware statuses are cleared. Also, the hardware stops driving the
 224:Generated_Source\PSoC6\pdl\drivers\peripheral\scb/cy_scb_uart.c **** * output and ignores the input. Refer to section \ref group_scb_uart_lp for more 
 225:Generated_Source\PSoC6\pdl\drivers\peripheral\scb/cy_scb_uart.c **** * information about UART pins when SCB disabled.
 226:Generated_Source\PSoC6\pdl\drivers\peripheral\scb/cy_scb_uart.c **** 
 227:Generated_Source\PSoC6\pdl\drivers\peripheral\scb/cy_scb_uart.c **** * \param base
 228:Generated_Source\PSoC6\pdl\drivers\peripheral\scb/cy_scb_uart.c **** * The pointer to the UART SCB instance.
 229:Generated_Source\PSoC6\pdl\drivers\peripheral\scb/cy_scb_uart.c **** *
 230:Generated_Source\PSoC6\pdl\drivers\peripheral\scb/cy_scb_uart.c **** * \param context
 231:Generated_Source\PSoC6\pdl\drivers\peripheral\scb/cy_scb_uart.c **** * The pointer to the context structure \ref cy_stc_scb_uart_context_t allocated
 232:Generated_Source\PSoC6\pdl\drivers\peripheral\scb/cy_scb_uart.c **** * by the user. The structure is used during the UART operation for internal
 233:Generated_Source\PSoC6\pdl\drivers\peripheral\scb/cy_scb_uart.c **** * configuration and data retention. The user must not modify anything
 234:Generated_Source\PSoC6\pdl\drivers\peripheral\scb/cy_scb_uart.c **** * in this structure.
 235:Generated_Source\PSoC6\pdl\drivers\peripheral\scb/cy_scb_uart.c **** * If only UART functions that do not require context will be used to pass NULL
 236:Generated_Source\PSoC6\pdl\drivers\peripheral\scb/cy_scb_uart.c **** * as pointer to context.
 237:Generated_Source\PSoC6\pdl\drivers\peripheral\scb/cy_scb_uart.c **** *
 238:Generated_Source\PSoC6\pdl\drivers\peripheral\scb/cy_scb_uart.c **** * \note
 239:Generated_Source\PSoC6\pdl\drivers\peripheral\scb/cy_scb_uart.c **** * Calling this function when the UART is busy (transmitter preforms data
 240:Generated_Source\PSoC6\pdl\drivers\peripheral\scb/cy_scb_uart.c **** * transfer or receiver is in the middle of data reception) may result transfer
 241:Generated_Source\PSoC6\pdl\drivers\peripheral\scb/cy_scb_uart.c **** * corruption because the hardware stops driving the outputs and ignores
 242:Generated_Source\PSoC6\pdl\drivers\peripheral\scb/cy_scb_uart.c **** * the inputs.
 243:Generated_Source\PSoC6\pdl\drivers\peripheral\scb/cy_scb_uart.c **** * Ensure that the UART is not busy before calling this function.
 244:Generated_Source\PSoC6\pdl\drivers\peripheral\scb/cy_scb_uart.c **** *
 245:Generated_Source\PSoC6\pdl\drivers\peripheral\scb/cy_scb_uart.c **** *******************************************************************************/
ARM GAS  C:\Users\pearlstl\AppData\Local\Temp\ccAUXqAU.s 			page 14


 246:Generated_Source\PSoC6\pdl\drivers\peripheral\scb/cy_scb_uart.c **** void Cy_SCB_UART_Disable(CySCB_Type *base, cy_stc_scb_uart_context_t *context)
 247:Generated_Source\PSoC6\pdl\drivers\peripheral\scb/cy_scb_uart.c **** {
 457              		.loc 1 247 0
 458              		.cfi_startproc
 459              		@ args = 0, pretend = 0, frame = 0
 460              		@ frame_needed = 0, uses_anonymous_args = 0
 461              		@ link register save eliminated.
 462              	.LVL10:
 248:Generated_Source\PSoC6\pdl\drivers\peripheral\scb/cy_scb_uart.c ****     SCB_CTRL(base) &= (uint32_t) ~SCB_CTRL_ENABLED_Msk;
 463              		.loc 1 248 0
 464 0000 0368     		ldr	r3, [r0]
 465 0002 5B00     		lsls	r3, r3, #1
 466 0004 5B08     		lsrs	r3, r3, #1
 467 0006 0360     		str	r3, [r0]
 249:Generated_Source\PSoC6\pdl\drivers\peripheral\scb/cy_scb_uart.c **** 
 250:Generated_Source\PSoC6\pdl\drivers\peripheral\scb/cy_scb_uart.c ****     if (NULL != context)
 468              		.loc 1 250 0
 469 0008 0029     		cmp	r1, #0
 470 000a 04D0     		beq	.L47
 251:Generated_Source\PSoC6\pdl\drivers\peripheral\scb/cy_scb_uart.c ****     {
 252:Generated_Source\PSoC6\pdl\drivers\peripheral\scb/cy_scb_uart.c ****         context->rxStatus  = 0UL;
 471              		.loc 1 252 0
 472 000c 0023     		movs	r3, #0
 473 000e 4B60     		str	r3, [r1, #4]
 253:Generated_Source\PSoC6\pdl\drivers\peripheral\scb/cy_scb_uart.c ****         context->txStatus  = 0UL;
 474              		.loc 1 253 0
 475 0010 0B60     		str	r3, [r1]
 254:Generated_Source\PSoC6\pdl\drivers\peripheral\scb/cy_scb_uart.c **** 
 255:Generated_Source\PSoC6\pdl\drivers\peripheral\scb/cy_scb_uart.c ****         context->rxBufIdx  = 0UL;
 476              		.loc 1 255 0
 477 0012 0B62     		str	r3, [r1, #32]
 256:Generated_Source\PSoC6\pdl\drivers\peripheral\scb/cy_scb_uart.c ****         context->txLeftToTransmit = 0UL;
 478              		.loc 1 256 0
 479 0014 CB62     		str	r3, [r1, #44]
 480              	.L47:
 257:Generated_Source\PSoC6\pdl\drivers\peripheral\scb/cy_scb_uart.c ****     }
 258:Generated_Source\PSoC6\pdl\drivers\peripheral\scb/cy_scb_uart.c **** }
 481              		.loc 1 258 0
 482              		@ sp needed
 483 0016 7047     		bx	lr
 484              		.cfi_endproc
 485              	.LFE157:
 486              		.size	Cy_SCB_UART_Disable, .-Cy_SCB_UART_Disable
 487              		.section	.text.Cy_SCB_UART_DeepSleepCallback,"ax",%progbits
 488              		.align	1
 489              		.global	Cy_SCB_UART_DeepSleepCallback
 490              		.code	16
 491              		.thumb_func
 492              		.type	Cy_SCB_UART_DeepSleepCallback, %function
 493              	Cy_SCB_UART_DeepSleepCallback:
 494              	.LFB158:
 259:Generated_Source\PSoC6\pdl\drivers\peripheral\scb/cy_scb_uart.c **** 
 260:Generated_Source\PSoC6\pdl\drivers\peripheral\scb/cy_scb_uart.c **** 
 261:Generated_Source\PSoC6\pdl\drivers\peripheral\scb/cy_scb_uart.c **** /*******************************************************************************
 262:Generated_Source\PSoC6\pdl\drivers\peripheral\scb/cy_scb_uart.c **** * Function Name: Cy_SCB_UART_DeepSleepCallback
 263:Generated_Source\PSoC6\pdl\drivers\peripheral\scb/cy_scb_uart.c **** ****************************************************************************//**
 264:Generated_Source\PSoC6\pdl\drivers\peripheral\scb/cy_scb_uart.c **** *
ARM GAS  C:\Users\pearlstl\AppData\Local\Temp\ccAUXqAU.s 			page 15


 265:Generated_Source\PSoC6\pdl\drivers\peripheral\scb/cy_scb_uart.c **** * This function handles the transition of the SCB UART into and out of
 266:Generated_Source\PSoC6\pdl\drivers\peripheral\scb/cy_scb_uart.c **** * Deep Sleep mode. It prevents the device from entering Deep Sleep 
 267:Generated_Source\PSoC6\pdl\drivers\peripheral\scb/cy_scb_uart.c **** * mode if the UART is transmitting data or has any data in the RX FIFO. If the
 268:Generated_Source\PSoC6\pdl\drivers\peripheral\scb/cy_scb_uart.c **** * UART is ready to enter Deep Sleep mode, it is disabled. The UART is enabled
 269:Generated_Source\PSoC6\pdl\drivers\peripheral\scb/cy_scb_uart.c **** * when the device fails to enter Deep Sleep mode or it is awakened from
 270:Generated_Source\PSoC6\pdl\drivers\peripheral\scb/cy_scb_uart.c **** * Deep Sleep mode. While the UART is disabled, it stops driving the outputs
 271:Generated_Source\PSoC6\pdl\drivers\peripheral\scb/cy_scb_uart.c **** * and ignores the inputs. Any incoming data is ignored. Refer to section 
 272:Generated_Source\PSoC6\pdl\drivers\peripheral\scb/cy_scb_uart.c **** * \ref group_scb_uart_lp for more information about UART pins when SCB disabled.
 273:Generated_Source\PSoC6\pdl\drivers\peripheral\scb/cy_scb_uart.c **** *
 274:Generated_Source\PSoC6\pdl\drivers\peripheral\scb/cy_scb_uart.c **** * This function must be called during execution of \ref Cy_SysPm_CpuEnterDeepSleep,
 275:Generated_Source\PSoC6\pdl\drivers\peripheral\scb/cy_scb_uart.c **** * to do it, register this function as a callback before calling
 276:Generated_Source\PSoC6\pdl\drivers\peripheral\scb/cy_scb_uart.c **** * \ref Cy_SysPm_CpuEnterDeepSleep : specify \ref CY_SYSPM_DEEPSLEEP as the callback
 277:Generated_Source\PSoC6\pdl\drivers\peripheral\scb/cy_scb_uart.c **** * type and call \ref Cy_SysPm_RegisterCallback.
 278:Generated_Source\PSoC6\pdl\drivers\peripheral\scb/cy_scb_uart.c **** *
 279:Generated_Source\PSoC6\pdl\drivers\peripheral\scb/cy_scb_uart.c **** * \param callbackParams
 280:Generated_Source\PSoC6\pdl\drivers\peripheral\scb/cy_scb_uart.c **** * The pointer to the callback parameters structure
 281:Generated_Source\PSoC6\pdl\drivers\peripheral\scb/cy_scb_uart.c **** * \ref cy_stc_syspm_callback_params_t.
 282:Generated_Source\PSoC6\pdl\drivers\peripheral\scb/cy_scb_uart.c **** *
 283:Generated_Source\PSoC6\pdl\drivers\peripheral\scb/cy_scb_uart.c **** * \param mode
 284:Generated_Source\PSoC6\pdl\drivers\peripheral\scb/cy_scb_uart.c **** * Callback mode, see \ref cy_en_syspm_callback_mode_t
 285:Generated_Source\PSoC6\pdl\drivers\peripheral\scb/cy_scb_uart.c **** *
 286:Generated_Source\PSoC6\pdl\drivers\peripheral\scb/cy_scb_uart.c **** * \return
 287:Generated_Source\PSoC6\pdl\drivers\peripheral\scb/cy_scb_uart.c **** * \ref cy_en_syspm_status_t
 288:Generated_Source\PSoC6\pdl\drivers\peripheral\scb/cy_scb_uart.c **** *
 289:Generated_Source\PSoC6\pdl\drivers\peripheral\scb/cy_scb_uart.c **** *******************************************************************************/
 290:Generated_Source\PSoC6\pdl\drivers\peripheral\scb/cy_scb_uart.c **** cy_en_syspm_status_t Cy_SCB_UART_DeepSleepCallback(cy_stc_syspm_callback_params_t *callbackParams, 
 291:Generated_Source\PSoC6\pdl\drivers\peripheral\scb/cy_scb_uart.c **** {
 495              		.loc 1 291 0
 496              		.cfi_startproc
 497              		@ args = 0, pretend = 0, frame = 0
 498              		@ frame_needed = 0, uses_anonymous_args = 0
 499              	.LVL11:
 500 0000 10B5     		push	{r4, lr}
 501              		.cfi_def_cfa_offset 8
 502              		.cfi_offset 4, -8
 503              		.cfi_offset 14, -4
 504              		.loc 1 291 0
 505 0002 0A00     		movs	r2, r1
 292:Generated_Source\PSoC6\pdl\drivers\peripheral\scb/cy_scb_uart.c ****     cy_en_syspm_status_t retStatus = CY_SYSPM_FAIL;
 293:Generated_Source\PSoC6\pdl\drivers\peripheral\scb/cy_scb_uart.c **** 
 294:Generated_Source\PSoC6\pdl\drivers\peripheral\scb/cy_scb_uart.c ****     CySCB_Type *locBase = (CySCB_Type *) callbackParams->base;
 506              		.loc 1 294 0
 507 0004 0368     		ldr	r3, [r0]
 508              	.LVL12:
 295:Generated_Source\PSoC6\pdl\drivers\peripheral\scb/cy_scb_uart.c ****     cy_stc_scb_uart_context_t *locContext = (cy_stc_scb_uart_context_t *) callbackParams->context;
 296:Generated_Source\PSoC6\pdl\drivers\peripheral\scb/cy_scb_uart.c **** 
 297:Generated_Source\PSoC6\pdl\drivers\peripheral\scb/cy_scb_uart.c ****     switch(mode)
 509              		.loc 1 297 0
 510 0006 0229     		cmp	r1, #2
 511 0008 1FD0     		beq	.L54
 512 000a 0829     		cmp	r1, #8
 513 000c 1DD0     		beq	.L54
 514 000e 0129     		cmp	r1, #1
 515 0010 22D1     		bne	.L61
 295:Generated_Source\PSoC6\pdl\drivers\peripheral\scb/cy_scb_uart.c ****     cy_stc_scb_uart_context_t *locContext = (cy_stc_scb_uart_context_t *) callbackParams->context;
 516              		.loc 1 295 0
 517 0012 4168     		ldr	r1, [r0, #4]
ARM GAS  C:\Users\pearlstl\AppData\Local\Temp\ccAUXqAU.s 			page 16


 518              	.LVL13:
 519              	.LBB151:
 520              	.LBB152:
 298:Generated_Source\PSoC6\pdl\drivers\peripheral\scb/cy_scb_uart.c ****     {
 299:Generated_Source\PSoC6\pdl\drivers\peripheral\scb/cy_scb_uart.c ****         case CY_SYSPM_CHECK_READY:
 300:Generated_Source\PSoC6\pdl\drivers\peripheral\scb/cy_scb_uart.c ****         {
 301:Generated_Source\PSoC6\pdl\drivers\peripheral\scb/cy_scb_uart.c ****             /* Check whether the High-level API is not busy executing the transmit
 302:Generated_Source\PSoC6\pdl\drivers\peripheral\scb/cy_scb_uart.c ****             * or receive operation.
 303:Generated_Source\PSoC6\pdl\drivers\peripheral\scb/cy_scb_uart.c ****             */
 304:Generated_Source\PSoC6\pdl\drivers\peripheral\scb/cy_scb_uart.c ****             if ((0UL == (CY_SCB_UART_TRANSMIT_ACTIVE & Cy_SCB_UART_GetTransmitStatus(locBase, locCo
 305:Generated_Source\PSoC6\pdl\drivers\peripheral\scb/cy_scb_uart.c ****                 (0UL == (CY_SCB_UART_RECEIVE_ACTIVE  & Cy_SCB_UART_GetReceiveStatus (locBase, locCo
 306:Generated_Source\PSoC6\pdl\drivers\peripheral\scb/cy_scb_uart.c ****             {
 307:Generated_Source\PSoC6\pdl\drivers\peripheral\scb/cy_scb_uart.c ****                 /* If all data elements are transmitted from the TX FIFO and
 308:Generated_Source\PSoC6\pdl\drivers\peripheral\scb/cy_scb_uart.c ****                 * shifter and the RX FIFO is empty: the UART is ready to enter
 309:Generated_Source\PSoC6\pdl\drivers\peripheral\scb/cy_scb_uart.c ****                 * Deep Sleep mode.
 310:Generated_Source\PSoC6\pdl\drivers\peripheral\scb/cy_scb_uart.c ****                 */
 311:Generated_Source\PSoC6\pdl\drivers\peripheral\scb/cy_scb_uart.c ****                 if (Cy_SCB_UART_IsTxComplete(locBase))
 312:Generated_Source\PSoC6\pdl\drivers\peripheral\scb/cy_scb_uart.c ****                 {
 313:Generated_Source\PSoC6\pdl\drivers\peripheral\scb/cy_scb_uart.c ****                     if (0UL == Cy_SCB_UART_GetNumInRxFifo(locBase))
 314:Generated_Source\PSoC6\pdl\drivers\peripheral\scb/cy_scb_uart.c ****                     {
 315:Generated_Source\PSoC6\pdl\drivers\peripheral\scb/cy_scb_uart.c ****                         /* Disable the UART. The transmitter stops driving the
 316:Generated_Source\PSoC6\pdl\drivers\peripheral\scb/cy_scb_uart.c ****                         * lines and the receiver stops receiving data until
 317:Generated_Source\PSoC6\pdl\drivers\peripheral\scb/cy_scb_uart.c ****                         * the UART is enabled.
 318:Generated_Source\PSoC6\pdl\drivers\peripheral\scb/cy_scb_uart.c ****                         * This happens when the device failed to enter Deep
 319:Generated_Source\PSoC6\pdl\drivers\peripheral\scb/cy_scb_uart.c ****                         * Sleep or it is awaken from Deep Sleep mode.
 320:Generated_Source\PSoC6\pdl\drivers\peripheral\scb/cy_scb_uart.c ****                         */
 321:Generated_Source\PSoC6\pdl\drivers\peripheral\scb/cy_scb_uart.c ****                         Cy_SCB_UART_Disable(locBase, locContext);
 322:Generated_Source\PSoC6\pdl\drivers\peripheral\scb/cy_scb_uart.c **** 
 323:Generated_Source\PSoC6\pdl\drivers\peripheral\scb/cy_scb_uart.c ****                         retStatus = CY_SYSPM_SUCCESS;
 324:Generated_Source\PSoC6\pdl\drivers\peripheral\scb/cy_scb_uart.c ****                     }
 325:Generated_Source\PSoC6\pdl\drivers\peripheral\scb/cy_scb_uart.c ****                 }
 326:Generated_Source\PSoC6\pdl\drivers\peripheral\scb/cy_scb_uart.c ****             }
 327:Generated_Source\PSoC6\pdl\drivers\peripheral\scb/cy_scb_uart.c ****         }
 328:Generated_Source\PSoC6\pdl\drivers\peripheral\scb/cy_scb_uart.c ****         break;
 329:Generated_Source\PSoC6\pdl\drivers\peripheral\scb/cy_scb_uart.c **** 
 330:Generated_Source\PSoC6\pdl\drivers\peripheral\scb/cy_scb_uart.c ****         case CY_SYSPM_CHECK_FAIL:
 331:Generated_Source\PSoC6\pdl\drivers\peripheral\scb/cy_scb_uart.c ****         {
 332:Generated_Source\PSoC6\pdl\drivers\peripheral\scb/cy_scb_uart.c ****             /* The other driver is not ready for Deep Sleep mode. Restore the
 333:Generated_Source\PSoC6\pdl\drivers\peripheral\scb/cy_scb_uart.c ****             * Active mode configuration.
 334:Generated_Source\PSoC6\pdl\drivers\peripheral\scb/cy_scb_uart.c ****             */
 335:Generated_Source\PSoC6\pdl\drivers\peripheral\scb/cy_scb_uart.c **** 
 336:Generated_Source\PSoC6\pdl\drivers\peripheral\scb/cy_scb_uart.c ****             /* Enable the UART to operate */
 337:Generated_Source\PSoC6\pdl\drivers\peripheral\scb/cy_scb_uart.c ****             Cy_SCB_UART_Enable(locBase);
 338:Generated_Source\PSoC6\pdl\drivers\peripheral\scb/cy_scb_uart.c **** 
 339:Generated_Source\PSoC6\pdl\drivers\peripheral\scb/cy_scb_uart.c ****             retStatus = CY_SYSPM_SUCCESS;
 340:Generated_Source\PSoC6\pdl\drivers\peripheral\scb/cy_scb_uart.c ****         }
 341:Generated_Source\PSoC6\pdl\drivers\peripheral\scb/cy_scb_uart.c ****         break;
 342:Generated_Source\PSoC6\pdl\drivers\peripheral\scb/cy_scb_uart.c **** 
 343:Generated_Source\PSoC6\pdl\drivers\peripheral\scb/cy_scb_uart.c ****         case CY_SYSPM_BEFORE_TRANSITION:
 344:Generated_Source\PSoC6\pdl\drivers\peripheral\scb/cy_scb_uart.c ****             /* Do noting: the UART is not capable of waking up from
 345:Generated_Source\PSoC6\pdl\drivers\peripheral\scb/cy_scb_uart.c ****             * Deep Sleep mode.
 346:Generated_Source\PSoC6\pdl\drivers\peripheral\scb/cy_scb_uart.c ****             */
 347:Generated_Source\PSoC6\pdl\drivers\peripheral\scb/cy_scb_uart.c ****         break;
 348:Generated_Source\PSoC6\pdl\drivers\peripheral\scb/cy_scb_uart.c **** 
 349:Generated_Source\PSoC6\pdl\drivers\peripheral\scb/cy_scb_uart.c ****         case CY_SYSPM_AFTER_TRANSITION:
 350:Generated_Source\PSoC6\pdl\drivers\peripheral\scb/cy_scb_uart.c ****         {
 351:Generated_Source\PSoC6\pdl\drivers\peripheral\scb/cy_scb_uart.c ****             /* Enable the UART to operate */
ARM GAS  C:\Users\pearlstl\AppData\Local\Temp\ccAUXqAU.s 			page 17


 352:Generated_Source\PSoC6\pdl\drivers\peripheral\scb/cy_scb_uart.c ****             Cy_SCB_UART_Enable(locBase);
 353:Generated_Source\PSoC6\pdl\drivers\peripheral\scb/cy_scb_uart.c **** 
 354:Generated_Source\PSoC6\pdl\drivers\peripheral\scb/cy_scb_uart.c ****             retStatus = CY_SYSPM_SUCCESS;
 355:Generated_Source\PSoC6\pdl\drivers\peripheral\scb/cy_scb_uart.c ****         }
 356:Generated_Source\PSoC6\pdl\drivers\peripheral\scb/cy_scb_uart.c ****         break;
 357:Generated_Source\PSoC6\pdl\drivers\peripheral\scb/cy_scb_uart.c **** 
 358:Generated_Source\PSoC6\pdl\drivers\peripheral\scb/cy_scb_uart.c ****         default:
 359:Generated_Source\PSoC6\pdl\drivers\peripheral\scb/cy_scb_uart.c ****             break;
 360:Generated_Source\PSoC6\pdl\drivers\peripheral\scb/cy_scb_uart.c ****     }
 361:Generated_Source\PSoC6\pdl\drivers\peripheral\scb/cy_scb_uart.c **** 
 362:Generated_Source\PSoC6\pdl\drivers\peripheral\scb/cy_scb_uart.c ****     return (retStatus);
 363:Generated_Source\PSoC6\pdl\drivers\peripheral\scb/cy_scb_uart.c **** }
 364:Generated_Source\PSoC6\pdl\drivers\peripheral\scb/cy_scb_uart.c **** 
 365:Generated_Source\PSoC6\pdl\drivers\peripheral\scb/cy_scb_uart.c **** 
 366:Generated_Source\PSoC6\pdl\drivers\peripheral\scb/cy_scb_uart.c **** /*******************************************************************************
 367:Generated_Source\PSoC6\pdl\drivers\peripheral\scb/cy_scb_uart.c **** * Function Name: Cy_SCB_UART_HibernateCallback
 368:Generated_Source\PSoC6\pdl\drivers\peripheral\scb/cy_scb_uart.c **** ****************************************************************************//**
 369:Generated_Source\PSoC6\pdl\drivers\peripheral\scb/cy_scb_uart.c **** *
 370:Generated_Source\PSoC6\pdl\drivers\peripheral\scb/cy_scb_uart.c **** * This function handles the transition of the SCB UART into Hibernate mode. 
 371:Generated_Source\PSoC6\pdl\drivers\peripheral\scb/cy_scb_uart.c **** * It prevents the device from entering Hibernate mode if the UART is
 372:Generated_Source\PSoC6\pdl\drivers\peripheral\scb/cy_scb_uart.c **** * transmitting data or has any data in the RX FIFO. If the UART is ready
 373:Generated_Source\PSoC6\pdl\drivers\peripheral\scb/cy_scb_uart.c **** * to enter Hibernate mode, it is disabled. If the device fails to enter
 374:Generated_Source\PSoC6\pdl\drivers\peripheral\scb/cy_scb_uart.c **** * Hibernate mode, the UART is enabled. While the UART is disabled, it stops
 375:Generated_Source\PSoC6\pdl\drivers\peripheral\scb/cy_scb_uart.c **** * driving the outputs and ignores the inputs. Any incoming data is ignored.
 376:Generated_Source\PSoC6\pdl\drivers\peripheral\scb/cy_scb_uart.c **** * Refer to section \ref group_scb_uart_lp for more information about UART pins 
 377:Generated_Source\PSoC6\pdl\drivers\peripheral\scb/cy_scb_uart.c **** * when SCB disabled.
 378:Generated_Source\PSoC6\pdl\drivers\peripheral\scb/cy_scb_uart.c **** *
 379:Generated_Source\PSoC6\pdl\drivers\peripheral\scb/cy_scb_uart.c **** * This function must be called during execution of \ref Cy_SysPm_SystemEnterHibernate.
 380:Generated_Source\PSoC6\pdl\drivers\peripheral\scb/cy_scb_uart.c **** * To do it, register this function as a callback before calling
 381:Generated_Source\PSoC6\pdl\drivers\peripheral\scb/cy_scb_uart.c **** * \ref Cy_SysPm_SystemEnterHibernate : specify \ref CY_SYSPM_HIBERNATE as the callback type
 382:Generated_Source\PSoC6\pdl\drivers\peripheral\scb/cy_scb_uart.c **** * and call \ref Cy_SysPm_RegisterCallback.
 383:Generated_Source\PSoC6\pdl\drivers\peripheral\scb/cy_scb_uart.c **** *
 384:Generated_Source\PSoC6\pdl\drivers\peripheral\scb/cy_scb_uart.c **** * \param callbackParams
 385:Generated_Source\PSoC6\pdl\drivers\peripheral\scb/cy_scb_uart.c **** * The pointer to the callback parameters structure
 386:Generated_Source\PSoC6\pdl\drivers\peripheral\scb/cy_scb_uart.c **** * \ref cy_stc_syspm_callback_params_t.
 387:Generated_Source\PSoC6\pdl\drivers\peripheral\scb/cy_scb_uart.c **** *
 388:Generated_Source\PSoC6\pdl\drivers\peripheral\scb/cy_scb_uart.c **** * \param mode
 389:Generated_Source\PSoC6\pdl\drivers\peripheral\scb/cy_scb_uart.c **** * Callback mode, see \ref cy_en_syspm_callback_mode_t
 390:Generated_Source\PSoC6\pdl\drivers\peripheral\scb/cy_scb_uart.c **** *
 391:Generated_Source\PSoC6\pdl\drivers\peripheral\scb/cy_scb_uart.c **** * \return
 392:Generated_Source\PSoC6\pdl\drivers\peripheral\scb/cy_scb_uart.c **** * \ref cy_en_syspm_status_t
 393:Generated_Source\PSoC6\pdl\drivers\peripheral\scb/cy_scb_uart.c **** *
 394:Generated_Source\PSoC6\pdl\drivers\peripheral\scb/cy_scb_uart.c **** *******************************************************************************/
 395:Generated_Source\PSoC6\pdl\drivers\peripheral\scb/cy_scb_uart.c **** cy_en_syspm_status_t Cy_SCB_UART_HibernateCallback(cy_stc_syspm_callback_params_t *callbackParams, 
 396:Generated_Source\PSoC6\pdl\drivers\peripheral\scb/cy_scb_uart.c **** {
 397:Generated_Source\PSoC6\pdl\drivers\peripheral\scb/cy_scb_uart.c ****     return Cy_SCB_UART_DeepSleepCallback(callbackParams, mode);
 398:Generated_Source\PSoC6\pdl\drivers\peripheral\scb/cy_scb_uart.c **** }
 399:Generated_Source\PSoC6\pdl\drivers\peripheral\scb/cy_scb_uart.c **** 
 400:Generated_Source\PSoC6\pdl\drivers\peripheral\scb/cy_scb_uart.c **** 
 401:Generated_Source\PSoC6\pdl\drivers\peripheral\scb/cy_scb_uart.c **** /************************* High-Level Functions ********************************
 402:Generated_Source\PSoC6\pdl\drivers\peripheral\scb/cy_scb_uart.c **** * The following functions are considered high-level. They provide the layer of
 403:Generated_Source\PSoC6\pdl\drivers\peripheral\scb/cy_scb_uart.c **** * intelligence to the SCB. These functions require interrupts.
 404:Generated_Source\PSoC6\pdl\drivers\peripheral\scb/cy_scb_uart.c **** * Low-level and high-level functions must not be mixed because low-level API
 405:Generated_Source\PSoC6\pdl\drivers\peripheral\scb/cy_scb_uart.c **** * can adversely affect the operation of high-level functions.
 406:Generated_Source\PSoC6\pdl\drivers\peripheral\scb/cy_scb_uart.c **** *******************************************************************************/
 407:Generated_Source\PSoC6\pdl\drivers\peripheral\scb/cy_scb_uart.c **** 
 408:Generated_Source\PSoC6\pdl\drivers\peripheral\scb/cy_scb_uart.c **** 
ARM GAS  C:\Users\pearlstl\AppData\Local\Temp\ccAUXqAU.s 			page 18


 409:Generated_Source\PSoC6\pdl\drivers\peripheral\scb/cy_scb_uart.c **** /*******************************************************************************
 410:Generated_Source\PSoC6\pdl\drivers\peripheral\scb/cy_scb_uart.c **** * Function Name: Cy_SCB_UART_StartRingBuffer
 411:Generated_Source\PSoC6\pdl\drivers\peripheral\scb/cy_scb_uart.c **** ****************************************************************************//**
 412:Generated_Source\PSoC6\pdl\drivers\peripheral\scb/cy_scb_uart.c **** *
 413:Generated_Source\PSoC6\pdl\drivers\peripheral\scb/cy_scb_uart.c **** * Starts the receive ring buffer operation.
 414:Generated_Source\PSoC6\pdl\drivers\peripheral\scb/cy_scb_uart.c **** * The RX interrupt source is configured to get data from the RX
 415:Generated_Source\PSoC6\pdl\drivers\peripheral\scb/cy_scb_uart.c **** * FIFO and put into the ring buffer. 
 416:Generated_Source\PSoC6\pdl\drivers\peripheral\scb/cy_scb_uart.c **** *
 417:Generated_Source\PSoC6\pdl\drivers\peripheral\scb/cy_scb_uart.c **** * \param base
 418:Generated_Source\PSoC6\pdl\drivers\peripheral\scb/cy_scb_uart.c **** * The pointer to the UART SCB instance.
 419:Generated_Source\PSoC6\pdl\drivers\peripheral\scb/cy_scb_uart.c **** *
 420:Generated_Source\PSoC6\pdl\drivers\peripheral\scb/cy_scb_uart.c **** * \param buffer
 421:Generated_Source\PSoC6\pdl\drivers\peripheral\scb/cy_scb_uart.c **** * Pointer to the user defined ring buffer.
 422:Generated_Source\PSoC6\pdl\drivers\peripheral\scb/cy_scb_uart.c **** * The element size is defined by the data type, which depends on the configured
 423:Generated_Source\PSoC6\pdl\drivers\peripheral\scb/cy_scb_uart.c **** * data width.
 424:Generated_Source\PSoC6\pdl\drivers\peripheral\scb/cy_scb_uart.c **** *
 425:Generated_Source\PSoC6\pdl\drivers\peripheral\scb/cy_scb_uart.c **** * \param size
 426:Generated_Source\PSoC6\pdl\drivers\peripheral\scb/cy_scb_uart.c **** * The size of the receive ring buffer.
 427:Generated_Source\PSoC6\pdl\drivers\peripheral\scb/cy_scb_uart.c **** * Note that one data element is used for internal use, so if the size is 32,
 428:Generated_Source\PSoC6\pdl\drivers\peripheral\scb/cy_scb_uart.c **** * then only 31 data elements are used for data storage.
 429:Generated_Source\PSoC6\pdl\drivers\peripheral\scb/cy_scb_uart.c **** *
 430:Generated_Source\PSoC6\pdl\drivers\peripheral\scb/cy_scb_uart.c **** * \param context
 431:Generated_Source\PSoC6\pdl\drivers\peripheral\scb/cy_scb_uart.c **** * The pointer to the context structure \ref cy_stc_scb_uart_context_t allocated
 432:Generated_Source\PSoC6\pdl\drivers\peripheral\scb/cy_scb_uart.c **** * by the user. The structure is used during the UART operation for internal
 433:Generated_Source\PSoC6\pdl\drivers\peripheral\scb/cy_scb_uart.c **** * configuration and data retention. The user must not modify anything
 434:Generated_Source\PSoC6\pdl\drivers\peripheral\scb/cy_scb_uart.c **** * in this structure.
 435:Generated_Source\PSoC6\pdl\drivers\peripheral\scb/cy_scb_uart.c **** *
 436:Generated_Source\PSoC6\pdl\drivers\peripheral\scb/cy_scb_uart.c **** * \note
 437:Generated_Source\PSoC6\pdl\drivers\peripheral\scb/cy_scb_uart.c **** * * The buffer must not be modified and stay allocated while the ring buffer
 438:Generated_Source\PSoC6\pdl\drivers\peripheral\scb/cy_scb_uart.c **** *   operates.
 439:Generated_Source\PSoC6\pdl\drivers\peripheral\scb/cy_scb_uart.c **** * * This function overrides the RX interrupt sources and changes the
 440:Generated_Source\PSoC6\pdl\drivers\peripheral\scb/cy_scb_uart.c **** *   RX FIFO level.
 441:Generated_Source\PSoC6\pdl\drivers\peripheral\scb/cy_scb_uart.c **** *
 442:Generated_Source\PSoC6\pdl\drivers\peripheral\scb/cy_scb_uart.c **** *******************************************************************************/
 443:Generated_Source\PSoC6\pdl\drivers\peripheral\scb/cy_scb_uart.c **** void Cy_SCB_UART_StartRingBuffer(CySCB_Type *base, void *buffer, uint32_t size, cy_stc_scb_uart_con
 444:Generated_Source\PSoC6\pdl\drivers\peripheral\scb/cy_scb_uart.c **** {
 445:Generated_Source\PSoC6\pdl\drivers\peripheral\scb/cy_scb_uart.c ****     CY_ASSERT_L1(NULL != context);
 446:Generated_Source\PSoC6\pdl\drivers\peripheral\scb/cy_scb_uart.c ****     CY_ASSERT_L1(CY_SCB_UART_INIT_KEY == context->initKey);
 447:Generated_Source\PSoC6\pdl\drivers\peripheral\scb/cy_scb_uart.c ****     CY_ASSERT_L1(CY_SCB_IS_BUFFER_VALID(buffer, size));
 448:Generated_Source\PSoC6\pdl\drivers\peripheral\scb/cy_scb_uart.c **** 
 449:Generated_Source\PSoC6\pdl\drivers\peripheral\scb/cy_scb_uart.c ****     if ((NULL != buffer) && (size > 0UL))
 450:Generated_Source\PSoC6\pdl\drivers\peripheral\scb/cy_scb_uart.c ****     {
 451:Generated_Source\PSoC6\pdl\drivers\peripheral\scb/cy_scb_uart.c ****         uint32_t halfFifoSize =  (Cy_SCB_GetFifoSize(base) / 2UL);
 452:Generated_Source\PSoC6\pdl\drivers\peripheral\scb/cy_scb_uart.c **** 
 453:Generated_Source\PSoC6\pdl\drivers\peripheral\scb/cy_scb_uart.c ****         context->rxRingBuf     = buffer;
 454:Generated_Source\PSoC6\pdl\drivers\peripheral\scb/cy_scb_uart.c ****         context->rxRingBufSize = size;
 455:Generated_Source\PSoC6\pdl\drivers\peripheral\scb/cy_scb_uart.c ****         context->rxRingBufHead = 0UL;
 456:Generated_Source\PSoC6\pdl\drivers\peripheral\scb/cy_scb_uart.c ****         context->rxRingBufTail = 0UL;
 457:Generated_Source\PSoC6\pdl\drivers\peripheral\scb/cy_scb_uart.c **** 
 458:Generated_Source\PSoC6\pdl\drivers\peripheral\scb/cy_scb_uart.c ****         /* Set up an RX interrupt to handle the ring buffer */
 459:Generated_Source\PSoC6\pdl\drivers\peripheral\scb/cy_scb_uart.c ****         Cy_SCB_SetRxFifoLevel(base, (size >= halfFifoSize) ? (halfFifoSize - 1UL) : (size - 1UL));
 460:Generated_Source\PSoC6\pdl\drivers\peripheral\scb/cy_scb_uart.c **** 
 461:Generated_Source\PSoC6\pdl\drivers\peripheral\scb/cy_scb_uart.c ****         Cy_SCB_SetRxInterruptMask(base, CY_SCB_RX_INTR_LEVEL);
 462:Generated_Source\PSoC6\pdl\drivers\peripheral\scb/cy_scb_uart.c ****     }
 463:Generated_Source\PSoC6\pdl\drivers\peripheral\scb/cy_scb_uart.c **** }
 464:Generated_Source\PSoC6\pdl\drivers\peripheral\scb/cy_scb_uart.c **** 
 465:Generated_Source\PSoC6\pdl\drivers\peripheral\scb/cy_scb_uart.c **** 
ARM GAS  C:\Users\pearlstl\AppData\Local\Temp\ccAUXqAU.s 			page 19


 466:Generated_Source\PSoC6\pdl\drivers\peripheral\scb/cy_scb_uart.c **** /*******************************************************************************
 467:Generated_Source\PSoC6\pdl\drivers\peripheral\scb/cy_scb_uart.c **** * Function Name: Cy_SCB_UART_StopRingBuffer
 468:Generated_Source\PSoC6\pdl\drivers\peripheral\scb/cy_scb_uart.c **** ****************************************************************************//**
 469:Generated_Source\PSoC6\pdl\drivers\peripheral\scb/cy_scb_uart.c **** *
 470:Generated_Source\PSoC6\pdl\drivers\peripheral\scb/cy_scb_uart.c **** * Stops receiving data into the ring buffer and clears the ring buffer.
 471:Generated_Source\PSoC6\pdl\drivers\peripheral\scb/cy_scb_uart.c **** *
 472:Generated_Source\PSoC6\pdl\drivers\peripheral\scb/cy_scb_uart.c **** * \param base
 473:Generated_Source\PSoC6\pdl\drivers\peripheral\scb/cy_scb_uart.c **** * The pointer to the UART SCB instance.
 474:Generated_Source\PSoC6\pdl\drivers\peripheral\scb/cy_scb_uart.c **** *
 475:Generated_Source\PSoC6\pdl\drivers\peripheral\scb/cy_scb_uart.c **** * \param context
 476:Generated_Source\PSoC6\pdl\drivers\peripheral\scb/cy_scb_uart.c **** * The pointer to the context structure \ref cy_stc_scb_uart_context_t allocated
 477:Generated_Source\PSoC6\pdl\drivers\peripheral\scb/cy_scb_uart.c **** * by the user. The structure is used during the UART operation for internal
 478:Generated_Source\PSoC6\pdl\drivers\peripheral\scb/cy_scb_uart.c **** * configuration and data retention. The user must not modify anything
 479:Generated_Source\PSoC6\pdl\drivers\peripheral\scb/cy_scb_uart.c **** * in this structure.
 480:Generated_Source\PSoC6\pdl\drivers\peripheral\scb/cy_scb_uart.c **** *
 481:Generated_Source\PSoC6\pdl\drivers\peripheral\scb/cy_scb_uart.c **** *******************************************************************************/
 482:Generated_Source\PSoC6\pdl\drivers\peripheral\scb/cy_scb_uart.c **** void Cy_SCB_UART_StopRingBuffer(CySCB_Type *base, cy_stc_scb_uart_context_t *context)
 483:Generated_Source\PSoC6\pdl\drivers\peripheral\scb/cy_scb_uart.c **** {
 484:Generated_Source\PSoC6\pdl\drivers\peripheral\scb/cy_scb_uart.c ****     Cy_SCB_SetRxInterruptMask  (base, CY_SCB_CLEAR_ALL_INTR_SRC);
 485:Generated_Source\PSoC6\pdl\drivers\peripheral\scb/cy_scb_uart.c ****     Cy_SCB_UART_ClearRingBuffer(base, context);
 486:Generated_Source\PSoC6\pdl\drivers\peripheral\scb/cy_scb_uart.c **** 
 487:Generated_Source\PSoC6\pdl\drivers\peripheral\scb/cy_scb_uart.c ****     context->rxRingBuf     = NULL;
 488:Generated_Source\PSoC6\pdl\drivers\peripheral\scb/cy_scb_uart.c ****     context->rxRingBufSize = 0UL;
 489:Generated_Source\PSoC6\pdl\drivers\peripheral\scb/cy_scb_uart.c **** }
 490:Generated_Source\PSoC6\pdl\drivers\peripheral\scb/cy_scb_uart.c **** 
 491:Generated_Source\PSoC6\pdl\drivers\peripheral\scb/cy_scb_uart.c **** 
 492:Generated_Source\PSoC6\pdl\drivers\peripheral\scb/cy_scb_uart.c **** /*******************************************************************************
 493:Generated_Source\PSoC6\pdl\drivers\peripheral\scb/cy_scb_uart.c **** * Function Name: Cy_SCB_UART_GetNumInRingBuffer
 494:Generated_Source\PSoC6\pdl\drivers\peripheral\scb/cy_scb_uart.c **** ****************************************************************************//**
 495:Generated_Source\PSoC6\pdl\drivers\peripheral\scb/cy_scb_uart.c **** *
 496:Generated_Source\PSoC6\pdl\drivers\peripheral\scb/cy_scb_uart.c **** * Returns the number of data elements in the ring buffer.
 497:Generated_Source\PSoC6\pdl\drivers\peripheral\scb/cy_scb_uart.c **** *
 498:Generated_Source\PSoC6\pdl\drivers\peripheral\scb/cy_scb_uart.c **** * \param base
 499:Generated_Source\PSoC6\pdl\drivers\peripheral\scb/cy_scb_uart.c **** * The pointer to the UART SCB instance.
 500:Generated_Source\PSoC6\pdl\drivers\peripheral\scb/cy_scb_uart.c **** *
 501:Generated_Source\PSoC6\pdl\drivers\peripheral\scb/cy_scb_uart.c **** * \param context
 502:Generated_Source\PSoC6\pdl\drivers\peripheral\scb/cy_scb_uart.c **** * The pointer to the context structure \ref cy_stc_scb_uart_context_t allocated
 503:Generated_Source\PSoC6\pdl\drivers\peripheral\scb/cy_scb_uart.c **** * by the user. The structure is used during the UART operation for internal
 504:Generated_Source\PSoC6\pdl\drivers\peripheral\scb/cy_scb_uart.c **** * configuration and data retention. The user must not modify anything
 505:Generated_Source\PSoC6\pdl\drivers\peripheral\scb/cy_scb_uart.c **** * in this structure.
 506:Generated_Source\PSoC6\pdl\drivers\peripheral\scb/cy_scb_uart.c **** *
 507:Generated_Source\PSoC6\pdl\drivers\peripheral\scb/cy_scb_uart.c **** * \return
 508:Generated_Source\PSoC6\pdl\drivers\peripheral\scb/cy_scb_uart.c **** * The number of data elements in the receive ring buffer.
 509:Generated_Source\PSoC6\pdl\drivers\peripheral\scb/cy_scb_uart.c **** *
 510:Generated_Source\PSoC6\pdl\drivers\peripheral\scb/cy_scb_uart.c **** * \note
 511:Generated_Source\PSoC6\pdl\drivers\peripheral\scb/cy_scb_uart.c **** * One data element is used for internal use, so when the buffer is full,
 512:Generated_Source\PSoC6\pdl\drivers\peripheral\scb/cy_scb_uart.c **** * this function returns (Ring Buffer size - 1).
 513:Generated_Source\PSoC6\pdl\drivers\peripheral\scb/cy_scb_uart.c **** *
 514:Generated_Source\PSoC6\pdl\drivers\peripheral\scb/cy_scb_uart.c **** *******************************************************************************/
 515:Generated_Source\PSoC6\pdl\drivers\peripheral\scb/cy_scb_uart.c **** uint32_t Cy_SCB_UART_GetNumInRingBuffer(CySCB_Type const *base, cy_stc_scb_uart_context_t const *co
 516:Generated_Source\PSoC6\pdl\drivers\peripheral\scb/cy_scb_uart.c **** {
 517:Generated_Source\PSoC6\pdl\drivers\peripheral\scb/cy_scb_uart.c ****     uint32_t size;
 518:Generated_Source\PSoC6\pdl\drivers\peripheral\scb/cy_scb_uart.c ****     uint32_t locHead = context->rxRingBufHead;
 519:Generated_Source\PSoC6\pdl\drivers\peripheral\scb/cy_scb_uart.c **** 
 520:Generated_Source\PSoC6\pdl\drivers\peripheral\scb/cy_scb_uart.c ****     /* Suppress a compiler warning about unused variables */
 521:Generated_Source\PSoC6\pdl\drivers\peripheral\scb/cy_scb_uart.c ****     (void) base;
 522:Generated_Source\PSoC6\pdl\drivers\peripheral\scb/cy_scb_uart.c **** 
ARM GAS  C:\Users\pearlstl\AppData\Local\Temp\ccAUXqAU.s 			page 20


 523:Generated_Source\PSoC6\pdl\drivers\peripheral\scb/cy_scb_uart.c ****     if (locHead >= context->rxRingBufTail)
 524:Generated_Source\PSoC6\pdl\drivers\peripheral\scb/cy_scb_uart.c ****     {
 525:Generated_Source\PSoC6\pdl\drivers\peripheral\scb/cy_scb_uart.c ****         size = (locHead - context->rxRingBufTail);
 526:Generated_Source\PSoC6\pdl\drivers\peripheral\scb/cy_scb_uart.c ****     }
 527:Generated_Source\PSoC6\pdl\drivers\peripheral\scb/cy_scb_uart.c ****     else
 528:Generated_Source\PSoC6\pdl\drivers\peripheral\scb/cy_scb_uart.c ****     {
 529:Generated_Source\PSoC6\pdl\drivers\peripheral\scb/cy_scb_uart.c ****         size = (locHead + (context->rxBufSize - context->rxRingBufTail));
 530:Generated_Source\PSoC6\pdl\drivers\peripheral\scb/cy_scb_uart.c ****     }
 531:Generated_Source\PSoC6\pdl\drivers\peripheral\scb/cy_scb_uart.c **** 
 532:Generated_Source\PSoC6\pdl\drivers\peripheral\scb/cy_scb_uart.c ****     return (size);
 533:Generated_Source\PSoC6\pdl\drivers\peripheral\scb/cy_scb_uart.c **** }
 534:Generated_Source\PSoC6\pdl\drivers\peripheral\scb/cy_scb_uart.c **** 
 535:Generated_Source\PSoC6\pdl\drivers\peripheral\scb/cy_scb_uart.c **** 
 536:Generated_Source\PSoC6\pdl\drivers\peripheral\scb/cy_scb_uart.c **** /*******************************************************************************
 537:Generated_Source\PSoC6\pdl\drivers\peripheral\scb/cy_scb_uart.c **** * Function Name: Cy_SCB_UART_ClearRingBuffer
 538:Generated_Source\PSoC6\pdl\drivers\peripheral\scb/cy_scb_uart.c **** ****************************************************************************//**
 539:Generated_Source\PSoC6\pdl\drivers\peripheral\scb/cy_scb_uart.c **** *
 540:Generated_Source\PSoC6\pdl\drivers\peripheral\scb/cy_scb_uart.c **** * Clears the ring buffer.
 541:Generated_Source\PSoC6\pdl\drivers\peripheral\scb/cy_scb_uart.c **** *
 542:Generated_Source\PSoC6\pdl\drivers\peripheral\scb/cy_scb_uart.c **** * \param base
 543:Generated_Source\PSoC6\pdl\drivers\peripheral\scb/cy_scb_uart.c **** * The pointer to the UART SCB instance.
 544:Generated_Source\PSoC6\pdl\drivers\peripheral\scb/cy_scb_uart.c **** *
 545:Generated_Source\PSoC6\pdl\drivers\peripheral\scb/cy_scb_uart.c **** * \param context
 546:Generated_Source\PSoC6\pdl\drivers\peripheral\scb/cy_scb_uart.c **** * The pointer to the context structure \ref cy_stc_scb_uart_context_t allocated
 547:Generated_Source\PSoC6\pdl\drivers\peripheral\scb/cy_scb_uart.c **** * by the user. The structure is used during the UART operation for internal
 548:Generated_Source\PSoC6\pdl\drivers\peripheral\scb/cy_scb_uart.c **** * configuration and data retention. The user must not modify anything
 549:Generated_Source\PSoC6\pdl\drivers\peripheral\scb/cy_scb_uart.c **** * in this structure.
 550:Generated_Source\PSoC6\pdl\drivers\peripheral\scb/cy_scb_uart.c **** *
 551:Generated_Source\PSoC6\pdl\drivers\peripheral\scb/cy_scb_uart.c **** *******************************************************************************/
 552:Generated_Source\PSoC6\pdl\drivers\peripheral\scb/cy_scb_uart.c **** void Cy_SCB_UART_ClearRingBuffer(CySCB_Type const *base, cy_stc_scb_uart_context_t *context)
 553:Generated_Source\PSoC6\pdl\drivers\peripheral\scb/cy_scb_uart.c **** {
 554:Generated_Source\PSoC6\pdl\drivers\peripheral\scb/cy_scb_uart.c ****     /* Suppress a compiler warning about unused variables */
 555:Generated_Source\PSoC6\pdl\drivers\peripheral\scb/cy_scb_uart.c ****     (void) base;
 556:Generated_Source\PSoC6\pdl\drivers\peripheral\scb/cy_scb_uart.c **** 
 557:Generated_Source\PSoC6\pdl\drivers\peripheral\scb/cy_scb_uart.c ****     context->rxRingBufHead = context->rxRingBufTail;
 558:Generated_Source\PSoC6\pdl\drivers\peripheral\scb/cy_scb_uart.c **** }
 559:Generated_Source\PSoC6\pdl\drivers\peripheral\scb/cy_scb_uart.c **** 
 560:Generated_Source\PSoC6\pdl\drivers\peripheral\scb/cy_scb_uart.c **** 
 561:Generated_Source\PSoC6\pdl\drivers\peripheral\scb/cy_scb_uart.c **** /*******************************************************************************
 562:Generated_Source\PSoC6\pdl\drivers\peripheral\scb/cy_scb_uart.c **** * Function Name: Cy_SCB_UART_Receive
 563:Generated_Source\PSoC6\pdl\drivers\peripheral\scb/cy_scb_uart.c **** ****************************************************************************//**
 564:Generated_Source\PSoC6\pdl\drivers\peripheral\scb/cy_scb_uart.c **** *
 565:Generated_Source\PSoC6\pdl\drivers\peripheral\scb/cy_scb_uart.c **** * This function starts a UART receive operation.
 566:Generated_Source\PSoC6\pdl\drivers\peripheral\scb/cy_scb_uart.c **** * It configures the receive interrupt sources to get data available in the
 567:Generated_Source\PSoC6\pdl\drivers\peripheral\scb/cy_scb_uart.c **** * receive FIFO and returns. The \ref Cy_SCB_UART_Interrupt manages the further
 568:Generated_Source\PSoC6\pdl\drivers\peripheral\scb/cy_scb_uart.c **** * data transfer.
 569:Generated_Source\PSoC6\pdl\drivers\peripheral\scb/cy_scb_uart.c **** *
 570:Generated_Source\PSoC6\pdl\drivers\peripheral\scb/cy_scb_uart.c **** * If the ring buffer is enabled, this function first reads data from the ring
 571:Generated_Source\PSoC6\pdl\drivers\peripheral\scb/cy_scb_uart.c **** * buffer. If there is more data to receive, it configures the receive interrupt
 572:Generated_Source\PSoC6\pdl\drivers\peripheral\scb/cy_scb_uart.c **** * sources to copy the remaining bytes from the RX FIFO when they arrive.
 573:Generated_Source\PSoC6\pdl\drivers\peripheral\scb/cy_scb_uart.c **** *
 574:Generated_Source\PSoC6\pdl\drivers\peripheral\scb/cy_scb_uart.c **** * When the receive operation is completed (requested number of data elements
 575:Generated_Source\PSoC6\pdl\drivers\peripheral\scb/cy_scb_uart.c **** * received) the \ref CY_SCB_UART_RECEIVE_ACTIVE status is cleared and
 576:Generated_Source\PSoC6\pdl\drivers\peripheral\scb/cy_scb_uart.c **** * the \ref CY_SCB_UART_RECEIVE_DONE_EVENT event is generated.
 577:Generated_Source\PSoC6\pdl\drivers\peripheral\scb/cy_scb_uart.c **** *
 578:Generated_Source\PSoC6\pdl\drivers\peripheral\scb/cy_scb_uart.c **** * \param base
 579:Generated_Source\PSoC6\pdl\drivers\peripheral\scb/cy_scb_uart.c **** * The pointer to the UART SCB instance.
ARM GAS  C:\Users\pearlstl\AppData\Local\Temp\ccAUXqAU.s 			page 21


 580:Generated_Source\PSoC6\pdl\drivers\peripheral\scb/cy_scb_uart.c **** *
 581:Generated_Source\PSoC6\pdl\drivers\peripheral\scb/cy_scb_uart.c **** * \param buffer
 582:Generated_Source\PSoC6\pdl\drivers\peripheral\scb/cy_scb_uart.c **** * Pointer to buffer to store received data.
 583:Generated_Source\PSoC6\pdl\drivers\peripheral\scb/cy_scb_uart.c **** * The element size is defined by the data type, which depends on the configured
 584:Generated_Source\PSoC6\pdl\drivers\peripheral\scb/cy_scb_uart.c **** * data width.
 585:Generated_Source\PSoC6\pdl\drivers\peripheral\scb/cy_scb_uart.c **** *
 586:Generated_Source\PSoC6\pdl\drivers\peripheral\scb/cy_scb_uart.c **** * \param size
 587:Generated_Source\PSoC6\pdl\drivers\peripheral\scb/cy_scb_uart.c **** * The number of data elements to receive.
 588:Generated_Source\PSoC6\pdl\drivers\peripheral\scb/cy_scb_uart.c **** *
 589:Generated_Source\PSoC6\pdl\drivers\peripheral\scb/cy_scb_uart.c **** * \param context
 590:Generated_Source\PSoC6\pdl\drivers\peripheral\scb/cy_scb_uart.c **** * The pointer to the context structure \ref cy_stc_scb_uart_context_t allocated
 591:Generated_Source\PSoC6\pdl\drivers\peripheral\scb/cy_scb_uart.c **** * by the user. The structure is used during the UART operation for internal
 592:Generated_Source\PSoC6\pdl\drivers\peripheral\scb/cy_scb_uart.c **** * configuration and data retention. The user must not modify anything
 593:Generated_Source\PSoC6\pdl\drivers\peripheral\scb/cy_scb_uart.c **** * in this structure.
 594:Generated_Source\PSoC6\pdl\drivers\peripheral\scb/cy_scb_uart.c **** *
 595:Generated_Source\PSoC6\pdl\drivers\peripheral\scb/cy_scb_uart.c **** * \return
 596:Generated_Source\PSoC6\pdl\drivers\peripheral\scb/cy_scb_uart.c **** * \ref cy_en_scb_uart_status_t
 597:Generated_Source\PSoC6\pdl\drivers\peripheral\scb/cy_scb_uart.c **** *
 598:Generated_Source\PSoC6\pdl\drivers\peripheral\scb/cy_scb_uart.c **** * \note
 599:Generated_Source\PSoC6\pdl\drivers\peripheral\scb/cy_scb_uart.c **** * * The buffer must not be modified and stay allocated until end of the
 600:Generated_Source\PSoC6\pdl\drivers\peripheral\scb/cy_scb_uart.c **** *   receive operation.
 601:Generated_Source\PSoC6\pdl\drivers\peripheral\scb/cy_scb_uart.c **** * * This function overrides the RX interrupt sources and changes the
 602:Generated_Source\PSoC6\pdl\drivers\peripheral\scb/cy_scb_uart.c **** *   RX FIFO level.
 603:Generated_Source\PSoC6\pdl\drivers\peripheral\scb/cy_scb_uart.c **** *
 604:Generated_Source\PSoC6\pdl\drivers\peripheral\scb/cy_scb_uart.c **** *******************************************************************************/
 605:Generated_Source\PSoC6\pdl\drivers\peripheral\scb/cy_scb_uart.c **** cy_en_scb_uart_status_t Cy_SCB_UART_Receive(CySCB_Type *base, void *buffer, uint32_t size, cy_stc_s
 606:Generated_Source\PSoC6\pdl\drivers\peripheral\scb/cy_scb_uart.c **** {
 607:Generated_Source\PSoC6\pdl\drivers\peripheral\scb/cy_scb_uart.c ****     CY_ASSERT_L1(NULL != context);
 608:Generated_Source\PSoC6\pdl\drivers\peripheral\scb/cy_scb_uart.c ****     CY_ASSERT_L1(CY_SCB_UART_INIT_KEY == context->initKey);
 609:Generated_Source\PSoC6\pdl\drivers\peripheral\scb/cy_scb_uart.c ****     CY_ASSERT_L1(CY_SCB_IS_BUFFER_VALID(buffer, size));
 610:Generated_Source\PSoC6\pdl\drivers\peripheral\scb/cy_scb_uart.c **** 
 611:Generated_Source\PSoC6\pdl\drivers\peripheral\scb/cy_scb_uart.c ****     cy_en_scb_uart_status_t retStatus = CY_SCB_UART_RECEIVE_BUSY;
 612:Generated_Source\PSoC6\pdl\drivers\peripheral\scb/cy_scb_uart.c **** 
 613:Generated_Source\PSoC6\pdl\drivers\peripheral\scb/cy_scb_uart.c ****     /* check whether there are no active transfer requests */
 614:Generated_Source\PSoC6\pdl\drivers\peripheral\scb/cy_scb_uart.c ****     if (0UL == (context->rxStatus & CY_SCB_UART_RECEIVE_ACTIVE))
 615:Generated_Source\PSoC6\pdl\drivers\peripheral\scb/cy_scb_uart.c ****     {
 616:Generated_Source\PSoC6\pdl\drivers\peripheral\scb/cy_scb_uart.c ****         uint8_t  *tmpBuf = (uint8_t *) buffer;
 617:Generated_Source\PSoC6\pdl\drivers\peripheral\scb/cy_scb_uart.c ****         uint32_t numToCopy = 0UL;
 618:Generated_Source\PSoC6\pdl\drivers\peripheral\scb/cy_scb_uart.c **** 
 619:Generated_Source\PSoC6\pdl\drivers\peripheral\scb/cy_scb_uart.c ****         /* Disable the RX interrupt source to stop the ring buffer update */
 620:Generated_Source\PSoC6\pdl\drivers\peripheral\scb/cy_scb_uart.c ****         Cy_SCB_SetRxInterruptMask(base, CY_SCB_CLEAR_ALL_INTR_SRC);
 621:Generated_Source\PSoC6\pdl\drivers\peripheral\scb/cy_scb_uart.c **** 
 622:Generated_Source\PSoC6\pdl\drivers\peripheral\scb/cy_scb_uart.c ****         if (NULL != context->rxRingBuf)
 623:Generated_Source\PSoC6\pdl\drivers\peripheral\scb/cy_scb_uart.c ****         {
 624:Generated_Source\PSoC6\pdl\drivers\peripheral\scb/cy_scb_uart.c ****             /* Get the items available in the ring buffer */
 625:Generated_Source\PSoC6\pdl\drivers\peripheral\scb/cy_scb_uart.c ****             numToCopy = Cy_SCB_UART_GetNumInRingBuffer(base, context);
 626:Generated_Source\PSoC6\pdl\drivers\peripheral\scb/cy_scb_uart.c **** 
 627:Generated_Source\PSoC6\pdl\drivers\peripheral\scb/cy_scb_uart.c ****             if (numToCopy > 0UL)
 628:Generated_Source\PSoC6\pdl\drivers\peripheral\scb/cy_scb_uart.c ****             {
 629:Generated_Source\PSoC6\pdl\drivers\peripheral\scb/cy_scb_uart.c ****                 uint32_t idx;
 630:Generated_Source\PSoC6\pdl\drivers\peripheral\scb/cy_scb_uart.c ****                 uint32_t locTail = context->rxRingBufTail;
 631:Generated_Source\PSoC6\pdl\drivers\peripheral\scb/cy_scb_uart.c ****                 bool     byteMode = Cy_SCB_IsRxDataWidthByte(base);
 632:Generated_Source\PSoC6\pdl\drivers\peripheral\scb/cy_scb_uart.c **** 
 633:Generated_Source\PSoC6\pdl\drivers\peripheral\scb/cy_scb_uart.c ****                 /* Adjust the number of items to be read */
 634:Generated_Source\PSoC6\pdl\drivers\peripheral\scb/cy_scb_uart.c ****                 if (numToCopy > size)
 635:Generated_Source\PSoC6\pdl\drivers\peripheral\scb/cy_scb_uart.c ****                 {
 636:Generated_Source\PSoC6\pdl\drivers\peripheral\scb/cy_scb_uart.c ****                     numToCopy = size;
ARM GAS  C:\Users\pearlstl\AppData\Local\Temp\ccAUXqAU.s 			page 22


 637:Generated_Source\PSoC6\pdl\drivers\peripheral\scb/cy_scb_uart.c ****                 }
 638:Generated_Source\PSoC6\pdl\drivers\peripheral\scb/cy_scb_uart.c **** 
 639:Generated_Source\PSoC6\pdl\drivers\peripheral\scb/cy_scb_uart.c ****                 /* Copy the data elements from the ring buffer */
 640:Generated_Source\PSoC6\pdl\drivers\peripheral\scb/cy_scb_uart.c ****                 for (idx = 0UL; idx < numToCopy; ++idx)
 641:Generated_Source\PSoC6\pdl\drivers\peripheral\scb/cy_scb_uart.c ****                 {
 642:Generated_Source\PSoC6\pdl\drivers\peripheral\scb/cy_scb_uart.c ****                     ++locTail;
 643:Generated_Source\PSoC6\pdl\drivers\peripheral\scb/cy_scb_uart.c **** 
 644:Generated_Source\PSoC6\pdl\drivers\peripheral\scb/cy_scb_uart.c ****                     if (locTail == context->rxRingBufSize)
 645:Generated_Source\PSoC6\pdl\drivers\peripheral\scb/cy_scb_uart.c ****                     {
 646:Generated_Source\PSoC6\pdl\drivers\peripheral\scb/cy_scb_uart.c ****                         locTail = 0UL;
 647:Generated_Source\PSoC6\pdl\drivers\peripheral\scb/cy_scb_uart.c ****                     }
 648:Generated_Source\PSoC6\pdl\drivers\peripheral\scb/cy_scb_uart.c **** 
 649:Generated_Source\PSoC6\pdl\drivers\peripheral\scb/cy_scb_uart.c ****                     if (byteMode)
 650:Generated_Source\PSoC6\pdl\drivers\peripheral\scb/cy_scb_uart.c ****                     {
 651:Generated_Source\PSoC6\pdl\drivers\peripheral\scb/cy_scb_uart.c ****                         uint8_t *buf = (uint8_t *) buffer;
 652:Generated_Source\PSoC6\pdl\drivers\peripheral\scb/cy_scb_uart.c ****                         buf[idx] = ((uint8_t *) context->rxRingBuf)[locTail];
 653:Generated_Source\PSoC6\pdl\drivers\peripheral\scb/cy_scb_uart.c ****                     }
 654:Generated_Source\PSoC6\pdl\drivers\peripheral\scb/cy_scb_uart.c ****                     else
 655:Generated_Source\PSoC6\pdl\drivers\peripheral\scb/cy_scb_uart.c ****                     {
 656:Generated_Source\PSoC6\pdl\drivers\peripheral\scb/cy_scb_uart.c ****                         uint16_t *buf = (uint16_t *) buffer;
 657:Generated_Source\PSoC6\pdl\drivers\peripheral\scb/cy_scb_uart.c ****                         buf[idx] = ((uint16_t *) context->rxRingBuf)[locTail];
 658:Generated_Source\PSoC6\pdl\drivers\peripheral\scb/cy_scb_uart.c ****                     }
 659:Generated_Source\PSoC6\pdl\drivers\peripheral\scb/cy_scb_uart.c ****                 }
 660:Generated_Source\PSoC6\pdl\drivers\peripheral\scb/cy_scb_uart.c **** 
 661:Generated_Source\PSoC6\pdl\drivers\peripheral\scb/cy_scb_uart.c ****                 /* Update the ring buffer tail after data has been copied */
 662:Generated_Source\PSoC6\pdl\drivers\peripheral\scb/cy_scb_uart.c ****                 context->rxRingBufTail = locTail;
 663:Generated_Source\PSoC6\pdl\drivers\peripheral\scb/cy_scb_uart.c **** 
 664:Generated_Source\PSoC6\pdl\drivers\peripheral\scb/cy_scb_uart.c ****                 /* Update with the copied bytes */
 665:Generated_Source\PSoC6\pdl\drivers\peripheral\scb/cy_scb_uart.c ****                 size -= numToCopy;
 666:Generated_Source\PSoC6\pdl\drivers\peripheral\scb/cy_scb_uart.c ****                 context->rxBufIdx = numToCopy;
 667:Generated_Source\PSoC6\pdl\drivers\peripheral\scb/cy_scb_uart.c **** 
 668:Generated_Source\PSoC6\pdl\drivers\peripheral\scb/cy_scb_uart.c ****                 /* Check whether all requested data has been read from the ring buffer */
 669:Generated_Source\PSoC6\pdl\drivers\peripheral\scb/cy_scb_uart.c ****                 if (0UL == size)
 670:Generated_Source\PSoC6\pdl\drivers\peripheral\scb/cy_scb_uart.c ****                 {
 671:Generated_Source\PSoC6\pdl\drivers\peripheral\scb/cy_scb_uart.c ****                     /* Enable the RX-error interrupt sources to update the error status */
 672:Generated_Source\PSoC6\pdl\drivers\peripheral\scb/cy_scb_uart.c ****                     Cy_SCB_SetRxInterruptMask(base, CY_SCB_UART_RECEIVE_ERR);
 673:Generated_Source\PSoC6\pdl\drivers\peripheral\scb/cy_scb_uart.c **** 
 674:Generated_Source\PSoC6\pdl\drivers\peripheral\scb/cy_scb_uart.c ****                     /* Call a completion callback if there was no abort receive called
 675:Generated_Source\PSoC6\pdl\drivers\peripheral\scb/cy_scb_uart.c ****                     * in the interrupt. The abort clears the number of the received bytes.
 676:Generated_Source\PSoC6\pdl\drivers\peripheral\scb/cy_scb_uart.c ****                     */
 677:Generated_Source\PSoC6\pdl\drivers\peripheral\scb/cy_scb_uart.c ****                     if (context->rxBufIdx > 0UL)
 678:Generated_Source\PSoC6\pdl\drivers\peripheral\scb/cy_scb_uart.c ****                     {
 679:Generated_Source\PSoC6\pdl\drivers\peripheral\scb/cy_scb_uart.c ****                         if (NULL != context->cbEvents)
 680:Generated_Source\PSoC6\pdl\drivers\peripheral\scb/cy_scb_uart.c ****                         {
 681:Generated_Source\PSoC6\pdl\drivers\peripheral\scb/cy_scb_uart.c ****                             context->cbEvents(CY_SCB_UART_RECEIVE_DONE_EVENT);
 682:Generated_Source\PSoC6\pdl\drivers\peripheral\scb/cy_scb_uart.c ****                         }
 683:Generated_Source\PSoC6\pdl\drivers\peripheral\scb/cy_scb_uart.c ****                     }
 684:Generated_Source\PSoC6\pdl\drivers\peripheral\scb/cy_scb_uart.c **** 
 685:Generated_Source\PSoC6\pdl\drivers\peripheral\scb/cy_scb_uart.c ****                     /* Continue receiving data in the ring buffer */
 686:Generated_Source\PSoC6\pdl\drivers\peripheral\scb/cy_scb_uart.c ****                     Cy_SCB_SetRxInterruptMask(base, CY_SCB_RX_INTR_LEVEL);
 687:Generated_Source\PSoC6\pdl\drivers\peripheral\scb/cy_scb_uart.c ****                 }
 688:Generated_Source\PSoC6\pdl\drivers\peripheral\scb/cy_scb_uart.c ****                 else
 689:Generated_Source\PSoC6\pdl\drivers\peripheral\scb/cy_scb_uart.c ****                 {
 690:Generated_Source\PSoC6\pdl\drivers\peripheral\scb/cy_scb_uart.c ****                     tmpBuf = &tmpBuf[(byteMode) ? (numToCopy) : (2UL * numToCopy)];
 691:Generated_Source\PSoC6\pdl\drivers\peripheral\scb/cy_scb_uart.c ****                 }
 692:Generated_Source\PSoC6\pdl\drivers\peripheral\scb/cy_scb_uart.c ****             }
 693:Generated_Source\PSoC6\pdl\drivers\peripheral\scb/cy_scb_uart.c ****         }
ARM GAS  C:\Users\pearlstl\AppData\Local\Temp\ccAUXqAU.s 			page 23


 694:Generated_Source\PSoC6\pdl\drivers\peripheral\scb/cy_scb_uart.c **** 
 695:Generated_Source\PSoC6\pdl\drivers\peripheral\scb/cy_scb_uart.c ****         /* Set up a direct RX FIFO receive */
 696:Generated_Source\PSoC6\pdl\drivers\peripheral\scb/cy_scb_uart.c ****         if (size > 0UL)
 697:Generated_Source\PSoC6\pdl\drivers\peripheral\scb/cy_scb_uart.c ****         {
 698:Generated_Source\PSoC6\pdl\drivers\peripheral\scb/cy_scb_uart.c ****             uint32_t halfFifoSize = Cy_SCB_GetFifoSize(base) / 2UL;
 699:Generated_Source\PSoC6\pdl\drivers\peripheral\scb/cy_scb_uart.c **** 
 700:Generated_Source\PSoC6\pdl\drivers\peripheral\scb/cy_scb_uart.c ****             /* Set up context */
 701:Generated_Source\PSoC6\pdl\drivers\peripheral\scb/cy_scb_uart.c ****             context->rxStatus  = CY_SCB_UART_RECEIVE_ACTIVE;
 702:Generated_Source\PSoC6\pdl\drivers\peripheral\scb/cy_scb_uart.c **** 
 703:Generated_Source\PSoC6\pdl\drivers\peripheral\scb/cy_scb_uart.c ****             context->rxBuf     = (void *) tmpBuf;
 704:Generated_Source\PSoC6\pdl\drivers\peripheral\scb/cy_scb_uart.c ****             context->rxBufSize = size;
 705:Generated_Source\PSoC6\pdl\drivers\peripheral\scb/cy_scb_uart.c ****             context->rxBufIdx =  numToCopy;
 706:Generated_Source\PSoC6\pdl\drivers\peripheral\scb/cy_scb_uart.c **** 
 707:Generated_Source\PSoC6\pdl\drivers\peripheral\scb/cy_scb_uart.c ****             /* Set the RX FIFO level to the trigger interrupt */
 708:Generated_Source\PSoC6\pdl\drivers\peripheral\scb/cy_scb_uart.c ****             Cy_SCB_SetRxFifoLevel(base, (size > halfFifoSize) ? (halfFifoSize - 1UL) : (size - 1UL)
 709:Generated_Source\PSoC6\pdl\drivers\peripheral\scb/cy_scb_uart.c **** 
 710:Generated_Source\PSoC6\pdl\drivers\peripheral\scb/cy_scb_uart.c ****             /* Enable the RX interrupt sources to continue data reading */
 711:Generated_Source\PSoC6\pdl\drivers\peripheral\scb/cy_scb_uart.c ****             Cy_SCB_SetRxInterruptMask(base, CY_SCB_UART_RX_INTR);
 712:Generated_Source\PSoC6\pdl\drivers\peripheral\scb/cy_scb_uart.c ****         }
 713:Generated_Source\PSoC6\pdl\drivers\peripheral\scb/cy_scb_uart.c **** 
 714:Generated_Source\PSoC6\pdl\drivers\peripheral\scb/cy_scb_uart.c ****         retStatus = CY_SCB_UART_SUCCESS;
 715:Generated_Source\PSoC6\pdl\drivers\peripheral\scb/cy_scb_uart.c ****     }
 716:Generated_Source\PSoC6\pdl\drivers\peripheral\scb/cy_scb_uart.c **** 
 717:Generated_Source\PSoC6\pdl\drivers\peripheral\scb/cy_scb_uart.c ****     return (retStatus);
 718:Generated_Source\PSoC6\pdl\drivers\peripheral\scb/cy_scb_uart.c **** }
 719:Generated_Source\PSoC6\pdl\drivers\peripheral\scb/cy_scb_uart.c **** 
 720:Generated_Source\PSoC6\pdl\drivers\peripheral\scb/cy_scb_uart.c **** 
 721:Generated_Source\PSoC6\pdl\drivers\peripheral\scb/cy_scb_uart.c **** /*******************************************************************************
 722:Generated_Source\PSoC6\pdl\drivers\peripheral\scb/cy_scb_uart.c **** * Function Name: Cy_SCB_UART_AbortReceive
 723:Generated_Source\PSoC6\pdl\drivers\peripheral\scb/cy_scb_uart.c **** ****************************************************************************//**
 724:Generated_Source\PSoC6\pdl\drivers\peripheral\scb/cy_scb_uart.c **** *
 725:Generated_Source\PSoC6\pdl\drivers\peripheral\scb/cy_scb_uart.c **** * Abort the current receive operation by clearing the receive status.
 726:Generated_Source\PSoC6\pdl\drivers\peripheral\scb/cy_scb_uart.c **** * * If the ring buffer is disabled, the receive interrupt sources are disabled.
 727:Generated_Source\PSoC6\pdl\drivers\peripheral\scb/cy_scb_uart.c **** * * If the ring buffer is enabled, the receive interrupt source is configured
 728:Generated_Source\PSoC6\pdl\drivers\peripheral\scb/cy_scb_uart.c **** *   to get data from the receive FIFO and put it into the ring buffer.
 729:Generated_Source\PSoC6\pdl\drivers\peripheral\scb/cy_scb_uart.c **** *
 730:Generated_Source\PSoC6\pdl\drivers\peripheral\scb/cy_scb_uart.c **** * \param base
 731:Generated_Source\PSoC6\pdl\drivers\peripheral\scb/cy_scb_uart.c **** * The pointer to the UART SCB instance.
 732:Generated_Source\PSoC6\pdl\drivers\peripheral\scb/cy_scb_uart.c **** *
 733:Generated_Source\PSoC6\pdl\drivers\peripheral\scb/cy_scb_uart.c **** * \param context
 734:Generated_Source\PSoC6\pdl\drivers\peripheral\scb/cy_scb_uart.c **** * The pointer to the context structure \ref cy_stc_scb_uart_context_t allocated
 735:Generated_Source\PSoC6\pdl\drivers\peripheral\scb/cy_scb_uart.c **** * by the user. The structure is used during the UART operation for internal
 736:Generated_Source\PSoC6\pdl\drivers\peripheral\scb/cy_scb_uart.c **** * configuration and data retention. The user must not modify anything
 737:Generated_Source\PSoC6\pdl\drivers\peripheral\scb/cy_scb_uart.c **** * in this structure.
 738:Generated_Source\PSoC6\pdl\drivers\peripheral\scb/cy_scb_uart.c **** *
 739:Generated_Source\PSoC6\pdl\drivers\peripheral\scb/cy_scb_uart.c **** * \note
 740:Generated_Source\PSoC6\pdl\drivers\peripheral\scb/cy_scb_uart.c **** * * The RX FIFO and ring buffer are not cleared after abort of receive
 741:Generated_Source\PSoC6\pdl\drivers\peripheral\scb/cy_scb_uart.c **** *   operation.
 742:Generated_Source\PSoC6\pdl\drivers\peripheral\scb/cy_scb_uart.c **** * * If after the abort of the receive operation the transmitter continues
 743:Generated_Source\PSoC6\pdl\drivers\peripheral\scb/cy_scb_uart.c **** *   sending data, it gets into the RX FIFO. To drop this data, the RX FIFO
 744:Generated_Source\PSoC6\pdl\drivers\peripheral\scb/cy_scb_uart.c **** *   and ring buffer (if enabled) must be cleared when the transmitter
 745:Generated_Source\PSoC6\pdl\drivers\peripheral\scb/cy_scb_uart.c **** *   stops sending data. Otherwise, received data will be kept and copied
 746:Generated_Source\PSoC6\pdl\drivers\peripheral\scb/cy_scb_uart.c **** *   to the buffer when \ref Cy_SCB_UART_Receive is called.
 747:Generated_Source\PSoC6\pdl\drivers\peripheral\scb/cy_scb_uart.c **** *
 748:Generated_Source\PSoC6\pdl\drivers\peripheral\scb/cy_scb_uart.c **** *******************************************************************************/
 749:Generated_Source\PSoC6\pdl\drivers\peripheral\scb/cy_scb_uart.c **** void Cy_SCB_UART_AbortReceive(CySCB_Type *base, cy_stc_scb_uart_context_t *context)
 750:Generated_Source\PSoC6\pdl\drivers\peripheral\scb/cy_scb_uart.c **** {
ARM GAS  C:\Users\pearlstl\AppData\Local\Temp\ccAUXqAU.s 			page 24


 751:Generated_Source\PSoC6\pdl\drivers\peripheral\scb/cy_scb_uart.c ****     if (NULL == context->rxRingBuf)
 752:Generated_Source\PSoC6\pdl\drivers\peripheral\scb/cy_scb_uart.c ****     {
 753:Generated_Source\PSoC6\pdl\drivers\peripheral\scb/cy_scb_uart.c ****         Cy_SCB_SetRxInterruptMask(base, CY_SCB_CLEAR_ALL_INTR_SRC);
 754:Generated_Source\PSoC6\pdl\drivers\peripheral\scb/cy_scb_uart.c ****     }
 755:Generated_Source\PSoC6\pdl\drivers\peripheral\scb/cy_scb_uart.c **** 
 756:Generated_Source\PSoC6\pdl\drivers\peripheral\scb/cy_scb_uart.c ****     context->rxBufSize = 0UL;
 757:Generated_Source\PSoC6\pdl\drivers\peripheral\scb/cy_scb_uart.c ****     context->rxBufIdx  = 0UL;
 758:Generated_Source\PSoC6\pdl\drivers\peripheral\scb/cy_scb_uart.c **** 
 759:Generated_Source\PSoC6\pdl\drivers\peripheral\scb/cy_scb_uart.c ****     context->rxStatus  = 0UL;
 760:Generated_Source\PSoC6\pdl\drivers\peripheral\scb/cy_scb_uart.c **** }
 761:Generated_Source\PSoC6\pdl\drivers\peripheral\scb/cy_scb_uart.c **** 
 762:Generated_Source\PSoC6\pdl\drivers\peripheral\scb/cy_scb_uart.c **** 
 763:Generated_Source\PSoC6\pdl\drivers\peripheral\scb/cy_scb_uart.c **** /*******************************************************************************
 764:Generated_Source\PSoC6\pdl\drivers\peripheral\scb/cy_scb_uart.c **** * Function Name: Cy_SCB_UART_GetNumReceived
 765:Generated_Source\PSoC6\pdl\drivers\peripheral\scb/cy_scb_uart.c **** ****************************************************************************//**
 766:Generated_Source\PSoC6\pdl\drivers\peripheral\scb/cy_scb_uart.c **** *
 767:Generated_Source\PSoC6\pdl\drivers\peripheral\scb/cy_scb_uart.c **** * Returns the number of data elements received since the last call to \ref
 768:Generated_Source\PSoC6\pdl\drivers\peripheral\scb/cy_scb_uart.c **** * Cy_SCB_UART_Receive.
 769:Generated_Source\PSoC6\pdl\drivers\peripheral\scb/cy_scb_uart.c **** *
 770:Generated_Source\PSoC6\pdl\drivers\peripheral\scb/cy_scb_uart.c **** * \param base
 771:Generated_Source\PSoC6\pdl\drivers\peripheral\scb/cy_scb_uart.c **** * The pointer to the UART SCB instance.
 772:Generated_Source\PSoC6\pdl\drivers\peripheral\scb/cy_scb_uart.c **** *
 773:Generated_Source\PSoC6\pdl\drivers\peripheral\scb/cy_scb_uart.c **** * \param context
 774:Generated_Source\PSoC6\pdl\drivers\peripheral\scb/cy_scb_uart.c **** * The pointer to the context structure \ref cy_stc_scb_uart_context_t allocated
 775:Generated_Source\PSoC6\pdl\drivers\peripheral\scb/cy_scb_uart.c **** * by the user. The structure is used during the UART operation for internal
 776:Generated_Source\PSoC6\pdl\drivers\peripheral\scb/cy_scb_uart.c **** * configuration and data retention. The user must not modify anything
 777:Generated_Source\PSoC6\pdl\drivers\peripheral\scb/cy_scb_uart.c **** * in this structure.
 778:Generated_Source\PSoC6\pdl\drivers\peripheral\scb/cy_scb_uart.c **** *
 779:Generated_Source\PSoC6\pdl\drivers\peripheral\scb/cy_scb_uart.c **** * \return
 780:Generated_Source\PSoC6\pdl\drivers\peripheral\scb/cy_scb_uart.c **** * The number of data elements received.
 781:Generated_Source\PSoC6\pdl\drivers\peripheral\scb/cy_scb_uart.c **** *
 782:Generated_Source\PSoC6\pdl\drivers\peripheral\scb/cy_scb_uart.c **** *******************************************************************************/
 783:Generated_Source\PSoC6\pdl\drivers\peripheral\scb/cy_scb_uart.c **** uint32_t Cy_SCB_UART_GetNumReceived(CySCB_Type const *base, cy_stc_scb_uart_context_t const *contex
 784:Generated_Source\PSoC6\pdl\drivers\peripheral\scb/cy_scb_uart.c **** {
 785:Generated_Source\PSoC6\pdl\drivers\peripheral\scb/cy_scb_uart.c ****     /* Suppress a compiler warning about unused variables */
 786:Generated_Source\PSoC6\pdl\drivers\peripheral\scb/cy_scb_uart.c ****     (void) base;
 787:Generated_Source\PSoC6\pdl\drivers\peripheral\scb/cy_scb_uart.c **** 
 788:Generated_Source\PSoC6\pdl\drivers\peripheral\scb/cy_scb_uart.c ****     return (context->rxBufIdx);
 789:Generated_Source\PSoC6\pdl\drivers\peripheral\scb/cy_scb_uart.c **** }
 790:Generated_Source\PSoC6\pdl\drivers\peripheral\scb/cy_scb_uart.c **** 
 791:Generated_Source\PSoC6\pdl\drivers\peripheral\scb/cy_scb_uart.c **** 
 792:Generated_Source\PSoC6\pdl\drivers\peripheral\scb/cy_scb_uart.c **** /*******************************************************************************
 793:Generated_Source\PSoC6\pdl\drivers\peripheral\scb/cy_scb_uart.c **** * Function Name: Cy_SCB_UART_GetReceiveStatus
 794:Generated_Source\PSoC6\pdl\drivers\peripheral\scb/cy_scb_uart.c **** ****************************************************************************//**
 795:Generated_Source\PSoC6\pdl\drivers\peripheral\scb/cy_scb_uart.c **** *
 796:Generated_Source\PSoC6\pdl\drivers\peripheral\scb/cy_scb_uart.c **** * Returns the status of the receive operation.
 797:Generated_Source\PSoC6\pdl\drivers\peripheral\scb/cy_scb_uart.c **** * This status is a bit mask and the value returned may have multiple bits set.
 798:Generated_Source\PSoC6\pdl\drivers\peripheral\scb/cy_scb_uart.c **** *
 799:Generated_Source\PSoC6\pdl\drivers\peripheral\scb/cy_scb_uart.c **** * \param base
 800:Generated_Source\PSoC6\pdl\drivers\peripheral\scb/cy_scb_uart.c **** * The pointer to the UART SCB instance.
 801:Generated_Source\PSoC6\pdl\drivers\peripheral\scb/cy_scb_uart.c **** *
 802:Generated_Source\PSoC6\pdl\drivers\peripheral\scb/cy_scb_uart.c **** * \param context
 803:Generated_Source\PSoC6\pdl\drivers\peripheral\scb/cy_scb_uart.c **** * The pointer to the context structure \ref cy_stc_scb_uart_context_t allocated
 804:Generated_Source\PSoC6\pdl\drivers\peripheral\scb/cy_scb_uart.c **** * by the user. The structure is used during the UART operation for internal
 805:Generated_Source\PSoC6\pdl\drivers\peripheral\scb/cy_scb_uart.c **** * configuration and data retention. The user must not modify anything
 806:Generated_Source\PSoC6\pdl\drivers\peripheral\scb/cy_scb_uart.c **** * in this structure.
 807:Generated_Source\PSoC6\pdl\drivers\peripheral\scb/cy_scb_uart.c **** *
ARM GAS  C:\Users\pearlstl\AppData\Local\Temp\ccAUXqAU.s 			page 25


 808:Generated_Source\PSoC6\pdl\drivers\peripheral\scb/cy_scb_uart.c **** * \return
 809:Generated_Source\PSoC6\pdl\drivers\peripheral\scb/cy_scb_uart.c **** * \ref group_scb_uart_macros_receive_status.
 810:Generated_Source\PSoC6\pdl\drivers\peripheral\scb/cy_scb_uart.c **** *
 811:Generated_Source\PSoC6\pdl\drivers\peripheral\scb/cy_scb_uart.c **** * \note
 812:Generated_Source\PSoC6\pdl\drivers\peripheral\scb/cy_scb_uart.c **** * The status is only cleared by calling \ref Cy_SCB_UART_Receive again.
 813:Generated_Source\PSoC6\pdl\drivers\peripheral\scb/cy_scb_uart.c **** *
 814:Generated_Source\PSoC6\pdl\drivers\peripheral\scb/cy_scb_uart.c **** *******************************************************************************/
 815:Generated_Source\PSoC6\pdl\drivers\peripheral\scb/cy_scb_uart.c **** uint32_t Cy_SCB_UART_GetReceiveStatus(CySCB_Type const *base, cy_stc_scb_uart_context_t const *cont
 816:Generated_Source\PSoC6\pdl\drivers\peripheral\scb/cy_scb_uart.c **** {
 817:Generated_Source\PSoC6\pdl\drivers\peripheral\scb/cy_scb_uart.c ****     /* Suppress a compiler warning about unused variables */
 818:Generated_Source\PSoC6\pdl\drivers\peripheral\scb/cy_scb_uart.c ****     (void) base;
 819:Generated_Source\PSoC6\pdl\drivers\peripheral\scb/cy_scb_uart.c **** 
 820:Generated_Source\PSoC6\pdl\drivers\peripheral\scb/cy_scb_uart.c ****     return (context->rxStatus);
 821:Generated_Source\PSoC6\pdl\drivers\peripheral\scb/cy_scb_uart.c **** }
 822:Generated_Source\PSoC6\pdl\drivers\peripheral\scb/cy_scb_uart.c **** 
 823:Generated_Source\PSoC6\pdl\drivers\peripheral\scb/cy_scb_uart.c **** 
 824:Generated_Source\PSoC6\pdl\drivers\peripheral\scb/cy_scb_uart.c **** /*******************************************************************************
 825:Generated_Source\PSoC6\pdl\drivers\peripheral\scb/cy_scb_uart.c **** * Function Name: Cy_SCB_UART_Transmit
 826:Generated_Source\PSoC6\pdl\drivers\peripheral\scb/cy_scb_uart.c **** ****************************************************************************//**
 827:Generated_Source\PSoC6\pdl\drivers\peripheral\scb/cy_scb_uart.c **** *
 828:Generated_Source\PSoC6\pdl\drivers\peripheral\scb/cy_scb_uart.c **** * This function starts a UART transmit operation.
 829:Generated_Source\PSoC6\pdl\drivers\peripheral\scb/cy_scb_uart.c **** * It configures the transmit interrupt sources and returns.
 830:Generated_Source\PSoC6\pdl\drivers\peripheral\scb/cy_scb_uart.c **** * The \ref Cy_SCB_UART_Interrupt manages the further data transfer.
 831:Generated_Source\PSoC6\pdl\drivers\peripheral\scb/cy_scb_uart.c **** *
 832:Generated_Source\PSoC6\pdl\drivers\peripheral\scb/cy_scb_uart.c **** * When the transmit operation is completed (requested number of data elements
 833:Generated_Source\PSoC6\pdl\drivers\peripheral\scb/cy_scb_uart.c **** * sent on the bus), the \ref CY_SCB_UART_TRANSMIT_ACTIVE status is cleared and
 834:Generated_Source\PSoC6\pdl\drivers\peripheral\scb/cy_scb_uart.c **** * the \ref CY_SCB_UART_TRANSMIT_DONE_EVENT event is generated.
 835:Generated_Source\PSoC6\pdl\drivers\peripheral\scb/cy_scb_uart.c **** *
 836:Generated_Source\PSoC6\pdl\drivers\peripheral\scb/cy_scb_uart.c **** * \param base
 837:Generated_Source\PSoC6\pdl\drivers\peripheral\scb/cy_scb_uart.c **** * The pointer to the UART SCB instance.
 838:Generated_Source\PSoC6\pdl\drivers\peripheral\scb/cy_scb_uart.c **** *
 839:Generated_Source\PSoC6\pdl\drivers\peripheral\scb/cy_scb_uart.c **** * \param buffer
 840:Generated_Source\PSoC6\pdl\drivers\peripheral\scb/cy_scb_uart.c **** * Pointer to user data to place in transmit buffer.
 841:Generated_Source\PSoC6\pdl\drivers\peripheral\scb/cy_scb_uart.c **** * The element size is defined by the data type, which depends on the configured
 842:Generated_Source\PSoC6\pdl\drivers\peripheral\scb/cy_scb_uart.c **** * data width.
 843:Generated_Source\PSoC6\pdl\drivers\peripheral\scb/cy_scb_uart.c **** *
 844:Generated_Source\PSoC6\pdl\drivers\peripheral\scb/cy_scb_uart.c **** * \param size
 845:Generated_Source\PSoC6\pdl\drivers\peripheral\scb/cy_scb_uart.c **** * The number of data elements to transmit.
 846:Generated_Source\PSoC6\pdl\drivers\peripheral\scb/cy_scb_uart.c **** *
 847:Generated_Source\PSoC6\pdl\drivers\peripheral\scb/cy_scb_uart.c **** * \param context
 848:Generated_Source\PSoC6\pdl\drivers\peripheral\scb/cy_scb_uart.c **** * The pointer to the context structure \ref cy_stc_scb_uart_context_t allocated
 849:Generated_Source\PSoC6\pdl\drivers\peripheral\scb/cy_scb_uart.c **** * by the user. The structure is used during the UART operation for internal
 850:Generated_Source\PSoC6\pdl\drivers\peripheral\scb/cy_scb_uart.c **** * configuration and data retention. The user must not modify anything
 851:Generated_Source\PSoC6\pdl\drivers\peripheral\scb/cy_scb_uart.c **** * in this structure.
 852:Generated_Source\PSoC6\pdl\drivers\peripheral\scb/cy_scb_uart.c **** *
 853:Generated_Source\PSoC6\pdl\drivers\peripheral\scb/cy_scb_uart.c **** * \return
 854:Generated_Source\PSoC6\pdl\drivers\peripheral\scb/cy_scb_uart.c **** * \ref cy_en_scb_uart_status_t
 855:Generated_Source\PSoC6\pdl\drivers\peripheral\scb/cy_scb_uart.c **** *
 856:Generated_Source\PSoC6\pdl\drivers\peripheral\scb/cy_scb_uart.c **** * \note
 857:Generated_Source\PSoC6\pdl\drivers\peripheral\scb/cy_scb_uart.c **** * * The buffer must not be modified and must stay allocated until its content is
 858:Generated_Source\PSoC6\pdl\drivers\peripheral\scb/cy_scb_uart.c **** *   copied into the TX FIFO.
 859:Generated_Source\PSoC6\pdl\drivers\peripheral\scb/cy_scb_uart.c **** * * This function overrides the TX FIFO interrupt sources and changes the
 860:Generated_Source\PSoC6\pdl\drivers\peripheral\scb/cy_scb_uart.c **** *   TX FIFO level.
 861:Generated_Source\PSoC6\pdl\drivers\peripheral\scb/cy_scb_uart.c **** *
 862:Generated_Source\PSoC6\pdl\drivers\peripheral\scb/cy_scb_uart.c **** *******************************************************************************/
 863:Generated_Source\PSoC6\pdl\drivers\peripheral\scb/cy_scb_uart.c **** cy_en_scb_uart_status_t Cy_SCB_UART_Transmit(CySCB_Type *base, void *buffer, uint32_t size, cy_stc_
 864:Generated_Source\PSoC6\pdl\drivers\peripheral\scb/cy_scb_uart.c **** {
ARM GAS  C:\Users\pearlstl\AppData\Local\Temp\ccAUXqAU.s 			page 26


 865:Generated_Source\PSoC6\pdl\drivers\peripheral\scb/cy_scb_uart.c ****     CY_ASSERT_L1(NULL != context);
 866:Generated_Source\PSoC6\pdl\drivers\peripheral\scb/cy_scb_uart.c ****     CY_ASSERT_L1(CY_SCB_UART_INIT_KEY == context->initKey);
 867:Generated_Source\PSoC6\pdl\drivers\peripheral\scb/cy_scb_uart.c ****     CY_ASSERT_L1(CY_SCB_IS_BUFFER_VALID(buffer, size));
 868:Generated_Source\PSoC6\pdl\drivers\peripheral\scb/cy_scb_uart.c **** 
 869:Generated_Source\PSoC6\pdl\drivers\peripheral\scb/cy_scb_uart.c ****     cy_en_scb_uart_status_t retStatus = CY_SCB_UART_TRANSMIT_BUSY;
 870:Generated_Source\PSoC6\pdl\drivers\peripheral\scb/cy_scb_uart.c **** 
 871:Generated_Source\PSoC6\pdl\drivers\peripheral\scb/cy_scb_uart.c ****     /* Check whether there are no active transfer requests */
 872:Generated_Source\PSoC6\pdl\drivers\peripheral\scb/cy_scb_uart.c ****     if (0UL == (CY_SCB_UART_TRANSMIT_ACTIVE & context->txStatus))
 873:Generated_Source\PSoC6\pdl\drivers\peripheral\scb/cy_scb_uart.c ****     {
 874:Generated_Source\PSoC6\pdl\drivers\peripheral\scb/cy_scb_uart.c ****         /* Set up context */
 875:Generated_Source\PSoC6\pdl\drivers\peripheral\scb/cy_scb_uart.c ****         context->txStatus  = CY_SCB_UART_TRANSMIT_ACTIVE;
 876:Generated_Source\PSoC6\pdl\drivers\peripheral\scb/cy_scb_uart.c **** 
 877:Generated_Source\PSoC6\pdl\drivers\peripheral\scb/cy_scb_uart.c ****         context->txBuf     = buffer;
 878:Generated_Source\PSoC6\pdl\drivers\peripheral\scb/cy_scb_uart.c ****         context->txBufSize = size;
 879:Generated_Source\PSoC6\pdl\drivers\peripheral\scb/cy_scb_uart.c **** 
 880:Generated_Source\PSoC6\pdl\drivers\peripheral\scb/cy_scb_uart.c ****         /* Set the level in TX FIFO to start a transfer */
 881:Generated_Source\PSoC6\pdl\drivers\peripheral\scb/cy_scb_uart.c ****         Cy_SCB_SetTxFifoLevel(base, (Cy_SCB_GetFifoSize(base) / 2UL));
 882:Generated_Source\PSoC6\pdl\drivers\peripheral\scb/cy_scb_uart.c **** 
 883:Generated_Source\PSoC6\pdl\drivers\peripheral\scb/cy_scb_uart.c ****         /* Enable the interrupt sources */
 884:Generated_Source\PSoC6\pdl\drivers\peripheral\scb/cy_scb_uart.c ****         if (((uint32_t) CY_SCB_UART_SMARTCARD) == _FLD2VAL(SCB_UART_CTRL_MODE, SCB_UART_CTRL(base))
 885:Generated_Source\PSoC6\pdl\drivers\peripheral\scb/cy_scb_uart.c ****         {
 886:Generated_Source\PSoC6\pdl\drivers\peripheral\scb/cy_scb_uart.c ****             /* Transfer data into TX FIFO and track SmartCard-specific errors */
 887:Generated_Source\PSoC6\pdl\drivers\peripheral\scb/cy_scb_uart.c ****             Cy_SCB_SetTxInterruptMask(base, CY_SCB_UART_TX_INTR);
 888:Generated_Source\PSoC6\pdl\drivers\peripheral\scb/cy_scb_uart.c ****         }
 889:Generated_Source\PSoC6\pdl\drivers\peripheral\scb/cy_scb_uart.c ****         else
 890:Generated_Source\PSoC6\pdl\drivers\peripheral\scb/cy_scb_uart.c ****         {
 891:Generated_Source\PSoC6\pdl\drivers\peripheral\scb/cy_scb_uart.c ****             /* Transfer data into TX FIFO */
 892:Generated_Source\PSoC6\pdl\drivers\peripheral\scb/cy_scb_uart.c ****             Cy_SCB_SetTxInterruptMask(base, CY_SCB_TX_INTR_LEVEL);
 893:Generated_Source\PSoC6\pdl\drivers\peripheral\scb/cy_scb_uart.c ****         }
 894:Generated_Source\PSoC6\pdl\drivers\peripheral\scb/cy_scb_uart.c **** 
 895:Generated_Source\PSoC6\pdl\drivers\peripheral\scb/cy_scb_uart.c ****         retStatus = CY_SCB_UART_SUCCESS;
 896:Generated_Source\PSoC6\pdl\drivers\peripheral\scb/cy_scb_uart.c ****     }
 897:Generated_Source\PSoC6\pdl\drivers\peripheral\scb/cy_scb_uart.c **** 
 898:Generated_Source\PSoC6\pdl\drivers\peripheral\scb/cy_scb_uart.c ****     return (retStatus);
 899:Generated_Source\PSoC6\pdl\drivers\peripheral\scb/cy_scb_uart.c **** }
 900:Generated_Source\PSoC6\pdl\drivers\peripheral\scb/cy_scb_uart.c **** 
 901:Generated_Source\PSoC6\pdl\drivers\peripheral\scb/cy_scb_uart.c **** 
 902:Generated_Source\PSoC6\pdl\drivers\peripheral\scb/cy_scb_uart.c **** /*******************************************************************************
 903:Generated_Source\PSoC6\pdl\drivers\peripheral\scb/cy_scb_uart.c **** * Function Name: Cy_SCB_UART_AbortTransmit
 904:Generated_Source\PSoC6\pdl\drivers\peripheral\scb/cy_scb_uart.c **** ****************************************************************************//**
 905:Generated_Source\PSoC6\pdl\drivers\peripheral\scb/cy_scb_uart.c **** *
 906:Generated_Source\PSoC6\pdl\drivers\peripheral\scb/cy_scb_uart.c **** * Aborts the current transmit operation.
 907:Generated_Source\PSoC6\pdl\drivers\peripheral\scb/cy_scb_uart.c **** * It disables the transmit interrupt sources and clears the transmit FIFO
 908:Generated_Source\PSoC6\pdl\drivers\peripheral\scb/cy_scb_uart.c **** * and status.
 909:Generated_Source\PSoC6\pdl\drivers\peripheral\scb/cy_scb_uart.c **** *
 910:Generated_Source\PSoC6\pdl\drivers\peripheral\scb/cy_scb_uart.c **** * \param base
 911:Generated_Source\PSoC6\pdl\drivers\peripheral\scb/cy_scb_uart.c **** * The pointer to the UART SCB instance.
 912:Generated_Source\PSoC6\pdl\drivers\peripheral\scb/cy_scb_uart.c **** *
 913:Generated_Source\PSoC6\pdl\drivers\peripheral\scb/cy_scb_uart.c **** * \param context
 914:Generated_Source\PSoC6\pdl\drivers\peripheral\scb/cy_scb_uart.c **** * The pointer to the context structure \ref cy_stc_scb_uart_context_t allocated
 915:Generated_Source\PSoC6\pdl\drivers\peripheral\scb/cy_scb_uart.c **** * by the user. The structure is used during the UART operation for internal
 916:Generated_Source\PSoC6\pdl\drivers\peripheral\scb/cy_scb_uart.c **** * configuration and data retention. The user must not modify anything
 917:Generated_Source\PSoC6\pdl\drivers\peripheral\scb/cy_scb_uart.c **** * in this structure.
 918:Generated_Source\PSoC6\pdl\drivers\peripheral\scb/cy_scb_uart.c **** *
 919:Generated_Source\PSoC6\pdl\drivers\peripheral\scb/cy_scb_uart.c **** * \sideeffect
 920:Generated_Source\PSoC6\pdl\drivers\peripheral\scb/cy_scb_uart.c **** * The transmit FIFO clear operation also clears the shift register, so that
 921:Generated_Source\PSoC6\pdl\drivers\peripheral\scb/cy_scb_uart.c **** * the shifter can be cleared in the middle of a data element transfer,
ARM GAS  C:\Users\pearlstl\AppData\Local\Temp\ccAUXqAU.s 			page 27


 922:Generated_Source\PSoC6\pdl\drivers\peripheral\scb/cy_scb_uart.c **** * corrupting it. The data element corruption means that all bits that have
 923:Generated_Source\PSoC6\pdl\drivers\peripheral\scb/cy_scb_uart.c **** * not been transmitted are transmitted as "ones" on the bus.
 924:Generated_Source\PSoC6\pdl\drivers\peripheral\scb/cy_scb_uart.c **** *
 925:Generated_Source\PSoC6\pdl\drivers\peripheral\scb/cy_scb_uart.c **** *******************************************************************************/
 926:Generated_Source\PSoC6\pdl\drivers\peripheral\scb/cy_scb_uart.c **** void Cy_SCB_UART_AbortTransmit(CySCB_Type *base, cy_stc_scb_uart_context_t *context)
 927:Generated_Source\PSoC6\pdl\drivers\peripheral\scb/cy_scb_uart.c **** {
 928:Generated_Source\PSoC6\pdl\drivers\peripheral\scb/cy_scb_uart.c ****     Cy_SCB_SetTxInterruptMask(base, CY_SCB_CLEAR_ALL_INTR_SRC);
 929:Generated_Source\PSoC6\pdl\drivers\peripheral\scb/cy_scb_uart.c **** 
 930:Generated_Source\PSoC6\pdl\drivers\peripheral\scb/cy_scb_uart.c ****     Cy_SCB_UART_ClearTxFifo(base);
 931:Generated_Source\PSoC6\pdl\drivers\peripheral\scb/cy_scb_uart.c **** 
 932:Generated_Source\PSoC6\pdl\drivers\peripheral\scb/cy_scb_uart.c ****     context->txBufSize = 0UL;
 933:Generated_Source\PSoC6\pdl\drivers\peripheral\scb/cy_scb_uart.c ****     context->txLeftToTransmit = 0UL;
 934:Generated_Source\PSoC6\pdl\drivers\peripheral\scb/cy_scb_uart.c **** 
 935:Generated_Source\PSoC6\pdl\drivers\peripheral\scb/cy_scb_uart.c ****     context->txStatus  = 0UL;
 936:Generated_Source\PSoC6\pdl\drivers\peripheral\scb/cy_scb_uart.c **** }
 937:Generated_Source\PSoC6\pdl\drivers\peripheral\scb/cy_scb_uart.c **** 
 938:Generated_Source\PSoC6\pdl\drivers\peripheral\scb/cy_scb_uart.c **** 
 939:Generated_Source\PSoC6\pdl\drivers\peripheral\scb/cy_scb_uart.c **** /*******************************************************************************
 940:Generated_Source\PSoC6\pdl\drivers\peripheral\scb/cy_scb_uart.c **** * Function Name: Cy_SCB_UART_GetNumLeftToTransmit
 941:Generated_Source\PSoC6\pdl\drivers\peripheral\scb/cy_scb_uart.c **** ****************************************************************************//**
 942:Generated_Source\PSoC6\pdl\drivers\peripheral\scb/cy_scb_uart.c **** *
 943:Generated_Source\PSoC6\pdl\drivers\peripheral\scb/cy_scb_uart.c **** * Returns the number of data elements left to transmit since the last call to
 944:Generated_Source\PSoC6\pdl\drivers\peripheral\scb/cy_scb_uart.c **** * \ref Cy_SCB_UART_Transmit.
 945:Generated_Source\PSoC6\pdl\drivers\peripheral\scb/cy_scb_uart.c **** *
 946:Generated_Source\PSoC6\pdl\drivers\peripheral\scb/cy_scb_uart.c **** * \param base
 947:Generated_Source\PSoC6\pdl\drivers\peripheral\scb/cy_scb_uart.c **** * The pointer to the UART SCB instance.
 948:Generated_Source\PSoC6\pdl\drivers\peripheral\scb/cy_scb_uart.c **** *
 949:Generated_Source\PSoC6\pdl\drivers\peripheral\scb/cy_scb_uart.c **** * \param context
 950:Generated_Source\PSoC6\pdl\drivers\peripheral\scb/cy_scb_uart.c **** * The pointer to the context structure \ref cy_stc_scb_uart_context_t allocated
 951:Generated_Source\PSoC6\pdl\drivers\peripheral\scb/cy_scb_uart.c **** * by the user. The structure is used during the UART operation for internal
 952:Generated_Source\PSoC6\pdl\drivers\peripheral\scb/cy_scb_uart.c **** * configuration and data retention. The user must not modify anything
 953:Generated_Source\PSoC6\pdl\drivers\peripheral\scb/cy_scb_uart.c **** * in this structure.
 954:Generated_Source\PSoC6\pdl\drivers\peripheral\scb/cy_scb_uart.c **** *
 955:Generated_Source\PSoC6\pdl\drivers\peripheral\scb/cy_scb_uart.c **** * \return
 956:Generated_Source\PSoC6\pdl\drivers\peripheral\scb/cy_scb_uart.c **** * The number of data elements left to transmit.
 957:Generated_Source\PSoC6\pdl\drivers\peripheral\scb/cy_scb_uart.c **** *
 958:Generated_Source\PSoC6\pdl\drivers\peripheral\scb/cy_scb_uart.c **** *******************************************************************************/
 959:Generated_Source\PSoC6\pdl\drivers\peripheral\scb/cy_scb_uart.c **** uint32_t Cy_SCB_UART_GetNumLeftToTransmit(CySCB_Type const *base, cy_stc_scb_uart_context_t const *
 960:Generated_Source\PSoC6\pdl\drivers\peripheral\scb/cy_scb_uart.c **** {
 961:Generated_Source\PSoC6\pdl\drivers\peripheral\scb/cy_scb_uart.c ****     /* Suppress a compiler warning about unused variables */
 962:Generated_Source\PSoC6\pdl\drivers\peripheral\scb/cy_scb_uart.c ****     (void) base;
 963:Generated_Source\PSoC6\pdl\drivers\peripheral\scb/cy_scb_uart.c **** 
 964:Generated_Source\PSoC6\pdl\drivers\peripheral\scb/cy_scb_uart.c ****     return (context->txLeftToTransmit);
 965:Generated_Source\PSoC6\pdl\drivers\peripheral\scb/cy_scb_uart.c **** }
 966:Generated_Source\PSoC6\pdl\drivers\peripheral\scb/cy_scb_uart.c **** 
 967:Generated_Source\PSoC6\pdl\drivers\peripheral\scb/cy_scb_uart.c **** 
 968:Generated_Source\PSoC6\pdl\drivers\peripheral\scb/cy_scb_uart.c **** /*******************************************************************************
 969:Generated_Source\PSoC6\pdl\drivers\peripheral\scb/cy_scb_uart.c **** * Function Name: Cy_SCB_UART_GetTransmitStatus
 970:Generated_Source\PSoC6\pdl\drivers\peripheral\scb/cy_scb_uart.c **** ****************************************************************************//**
 971:Generated_Source\PSoC6\pdl\drivers\peripheral\scb/cy_scb_uart.c **** *
 972:Generated_Source\PSoC6\pdl\drivers\peripheral\scb/cy_scb_uart.c **** * Returns the status of the transmit operation.
 973:Generated_Source\PSoC6\pdl\drivers\peripheral\scb/cy_scb_uart.c **** * This status is a bit mask and the value returned may have multiple bits set.
 974:Generated_Source\PSoC6\pdl\drivers\peripheral\scb/cy_scb_uart.c **** *
 975:Generated_Source\PSoC6\pdl\drivers\peripheral\scb/cy_scb_uart.c **** * \param base
 976:Generated_Source\PSoC6\pdl\drivers\peripheral\scb/cy_scb_uart.c **** * The pointer to the UART SCB instance.
 977:Generated_Source\PSoC6\pdl\drivers\peripheral\scb/cy_scb_uart.c **** *
 978:Generated_Source\PSoC6\pdl\drivers\peripheral\scb/cy_scb_uart.c **** * \param context
ARM GAS  C:\Users\pearlstl\AppData\Local\Temp\ccAUXqAU.s 			page 28


 979:Generated_Source\PSoC6\pdl\drivers\peripheral\scb/cy_scb_uart.c **** * The pointer to the context structure \ref cy_stc_scb_uart_context_t allocated
 980:Generated_Source\PSoC6\pdl\drivers\peripheral\scb/cy_scb_uart.c **** * by the user. The structure is used during the UART operation for internal
 981:Generated_Source\PSoC6\pdl\drivers\peripheral\scb/cy_scb_uart.c **** * configuration and data retention. The user must not modify anything
 982:Generated_Source\PSoC6\pdl\drivers\peripheral\scb/cy_scb_uart.c **** * in this structure.
 983:Generated_Source\PSoC6\pdl\drivers\peripheral\scb/cy_scb_uart.c **** *
 984:Generated_Source\PSoC6\pdl\drivers\peripheral\scb/cy_scb_uart.c **** * \return
 985:Generated_Source\PSoC6\pdl\drivers\peripheral\scb/cy_scb_uart.c **** * \ref group_scb_uart_macros_transmit_status.
 986:Generated_Source\PSoC6\pdl\drivers\peripheral\scb/cy_scb_uart.c **** *
 987:Generated_Source\PSoC6\pdl\drivers\peripheral\scb/cy_scb_uart.c **** * \note
 988:Generated_Source\PSoC6\pdl\drivers\peripheral\scb/cy_scb_uart.c **** * The status is only cleared by calling \ref Cy_SCB_UART_Transmit or
 989:Generated_Source\PSoC6\pdl\drivers\peripheral\scb/cy_scb_uart.c **** * \ref Cy_SCB_UART_AbortTransmit.
 990:Generated_Source\PSoC6\pdl\drivers\peripheral\scb/cy_scb_uart.c **** *
 991:Generated_Source\PSoC6\pdl\drivers\peripheral\scb/cy_scb_uart.c **** *******************************************************************************/
 992:Generated_Source\PSoC6\pdl\drivers\peripheral\scb/cy_scb_uart.c **** uint32_t Cy_SCB_UART_GetTransmitStatus(CySCB_Type const *base, cy_stc_scb_uart_context_t const *con
 993:Generated_Source\PSoC6\pdl\drivers\peripheral\scb/cy_scb_uart.c **** {
 994:Generated_Source\PSoC6\pdl\drivers\peripheral\scb/cy_scb_uart.c ****     /* Suppress a compiler warning about unused variables */
 995:Generated_Source\PSoC6\pdl\drivers\peripheral\scb/cy_scb_uart.c ****     (void) base;
 996:Generated_Source\PSoC6\pdl\drivers\peripheral\scb/cy_scb_uart.c **** 
 997:Generated_Source\PSoC6\pdl\drivers\peripheral\scb/cy_scb_uart.c ****     return (context->txStatus);
 521              		.loc 1 997 0
 522 0014 0868     		ldr	r0, [r1]
 523              	.LVL14:
 524              	.LBE152:
 525              	.LBE151:
 304:Generated_Source\PSoC6\pdl\drivers\peripheral\scb/cy_scb_uart.c ****                 (0UL == (CY_SCB_UART_RECEIVE_ACTIVE  & Cy_SCB_UART_GetReceiveStatus (locBase, locCo
 526              		.loc 1 304 0
 527 0016 1042     		tst	r0, r2
 528 0018 1ED1     		bne	.L61
 529              	.LVL15:
 530              	.LBB153:
 531              	.LBB154:
 820:Generated_Source\PSoC6\pdl\drivers\peripheral\scb/cy_scb_uart.c **** }
 532              		.loc 1 820 0
 533 001a 4868     		ldr	r0, [r1, #4]
 534              	.LVL16:
 535              	.LBE154:
 536              	.LBE153:
 304:Generated_Source\PSoC6\pdl\drivers\peripheral\scb/cy_scb_uart.c ****                 (0UL == (CY_SCB_UART_RECEIVE_ACTIVE  & Cy_SCB_UART_GetReceiveStatus (locBase, locCo
 537              		.loc 1 304 0
 538 001c 1042     		tst	r0, r2
 539 001e 1BD1     		bne	.L61
 540              	.LVL17:
 541              	.LBB155:
 542              	.LBB156:
 543              	.LBB157:
 544              	.LBB158:
 545              	.LBB159:
 546              		.file 2 "Generated_Source\\PSoC6\\pdl\\drivers\\peripheral\\scb\\cy_scb_common.h"
   1:Generated_Source\PSoC6\pdl\drivers\peripheral\scb/cy_scb_common.h **** /***************************************************************************//**
   2:Generated_Source\PSoC6\pdl\drivers\peripheral\scb/cy_scb_common.h **** * \file cy_scb_common.h
   3:Generated_Source\PSoC6\pdl\drivers\peripheral\scb/cy_scb_common.h **** * \version 2.20
   4:Generated_Source\PSoC6\pdl\drivers\peripheral\scb/cy_scb_common.h **** *
   5:Generated_Source\PSoC6\pdl\drivers\peripheral\scb/cy_scb_common.h **** * Provides common API declarations of the SCB driver.
   6:Generated_Source\PSoC6\pdl\drivers\peripheral\scb/cy_scb_common.h **** *
   7:Generated_Source\PSoC6\pdl\drivers\peripheral\scb/cy_scb_common.h **** ********************************************************************************
   8:Generated_Source\PSoC6\pdl\drivers\peripheral\scb/cy_scb_common.h **** * \copyright
   9:Generated_Source\PSoC6\pdl\drivers\peripheral\scb/cy_scb_common.h **** * Copyright 2016-2018, Cypress Semiconductor Corporation.  All rights reserved.
ARM GAS  C:\Users\pearlstl\AppData\Local\Temp\ccAUXqAU.s 			page 29


  10:Generated_Source\PSoC6\pdl\drivers\peripheral\scb/cy_scb_common.h **** * You may use this file only in accordance with the license, terms, conditions,
  11:Generated_Source\PSoC6\pdl\drivers\peripheral\scb/cy_scb_common.h **** * disclaimers, and limitations in the end user license agreement accompanying
  12:Generated_Source\PSoC6\pdl\drivers\peripheral\scb/cy_scb_common.h **** * the software package with which this file was provided.
  13:Generated_Source\PSoC6\pdl\drivers\peripheral\scb/cy_scb_common.h **** *******************************************************************************/
  14:Generated_Source\PSoC6\pdl\drivers\peripheral\scb/cy_scb_common.h **** 
  15:Generated_Source\PSoC6\pdl\drivers\peripheral\scb/cy_scb_common.h **** /**
  16:Generated_Source\PSoC6\pdl\drivers\peripheral\scb/cy_scb_common.h **** * \addtogroup group_scb
  17:Generated_Source\PSoC6\pdl\drivers\peripheral\scb/cy_scb_common.h **** * \{
  18:Generated_Source\PSoC6\pdl\drivers\peripheral\scb/cy_scb_common.h **** * The Serial Communications Block (SCB) supports three serial communication 
  19:Generated_Source\PSoC6\pdl\drivers\peripheral\scb/cy_scb_common.h **** * protocols: Serial Peripheral Interface (SPI), Universal Asynchronous Receiver 
  20:Generated_Source\PSoC6\pdl\drivers\peripheral\scb/cy_scb_common.h **** * Transmitter (UART), and Inter Integrated Circuit (I2C or IIC). Only one of 
  21:Generated_Source\PSoC6\pdl\drivers\peripheral\scb/cy_scb_common.h **** * the protocols is supported by an SCB at any given time.
  22:Generated_Source\PSoC6\pdl\drivers\peripheral\scb/cy_scb_common.h **** *
  23:Generated_Source\PSoC6\pdl\drivers\peripheral\scb/cy_scb_common.h **** * The functions and other declarations used in this driver are in cy_scb_spi.h, 
  24:Generated_Source\PSoC6\pdl\drivers\peripheral\scb/cy_scb_common.h **** * cy_scb_uart.h, cy_scb_ezi2c.h, cy_scb_i2c.h respectively. Include cy_pdl.h 
  25:Generated_Source\PSoC6\pdl\drivers\peripheral\scb/cy_scb_common.h **** * (ModusToolbox only) to get access to all functions and declarations in the PDL.
  26:Generated_Source\PSoC6\pdl\drivers\peripheral\scb/cy_scb_common.h **** 
  27:Generated_Source\PSoC6\pdl\drivers\peripheral\scb/cy_scb_common.h **** * \defgroup group_scb_common Common
  28:Generated_Source\PSoC6\pdl\drivers\peripheral\scb/cy_scb_common.h **** * \defgroup group_scb_ezi2c  EZI2C (SCB)
  29:Generated_Source\PSoC6\pdl\drivers\peripheral\scb/cy_scb_common.h **** * \defgroup group_scb_i2c    I2C (SCB)
  30:Generated_Source\PSoC6\pdl\drivers\peripheral\scb/cy_scb_common.h **** * \defgroup group_scb_spi    SPI (SCB)
  31:Generated_Source\PSoC6\pdl\drivers\peripheral\scb/cy_scb_common.h **** * \defgroup group_scb_uart   UART (SCB)
  32:Generated_Source\PSoC6\pdl\drivers\peripheral\scb/cy_scb_common.h **** * \} */
  33:Generated_Source\PSoC6\pdl\drivers\peripheral\scb/cy_scb_common.h **** 
  34:Generated_Source\PSoC6\pdl\drivers\peripheral\scb/cy_scb_common.h **** /**
  35:Generated_Source\PSoC6\pdl\drivers\peripheral\scb/cy_scb_common.h **** * \addtogroup group_scb_common
  36:Generated_Source\PSoC6\pdl\drivers\peripheral\scb/cy_scb_common.h **** * \{
  37:Generated_Source\PSoC6\pdl\drivers\peripheral\scb/cy_scb_common.h **** *
  38:Generated_Source\PSoC6\pdl\drivers\peripheral\scb/cy_scb_common.h **** * Common API for the Serial Communication Block.
  39:Generated_Source\PSoC6\pdl\drivers\peripheral\scb/cy_scb_common.h **** *
  40:Generated_Source\PSoC6\pdl\drivers\peripheral\scb/cy_scb_common.h **** * This is the common API that provides an interface to the SCB hardware.
  41:Generated_Source\PSoC6\pdl\drivers\peripheral\scb/cy_scb_common.h **** * The I2C, SPI, and UART drivers use this common API.
  42:Generated_Source\PSoC6\pdl\drivers\peripheral\scb/cy_scb_common.h **** * Most users will use individual drivers and do not need to use the common
  43:Generated_Source\PSoC6\pdl\drivers\peripheral\scb/cy_scb_common.h **** * API for the SCB. However, you can use the common SCB API to implement
  44:Generated_Source\PSoC6\pdl\drivers\peripheral\scb/cy_scb_common.h **** * a custom driver based on the SCB hardware.
  45:Generated_Source\PSoC6\pdl\drivers\peripheral\scb/cy_scb_common.h **** *
  46:Generated_Source\PSoC6\pdl\drivers\peripheral\scb/cy_scb_common.h **** * The functions and other declarations used in this part of the driver are in 
  47:Generated_Source\PSoC6\pdl\drivers\peripheral\scb/cy_scb_common.h **** * cy_scb_common.h. You can include either of cy_scb_spi.h, cy_scb_uart.h, 
  48:Generated_Source\PSoC6\pdl\drivers\peripheral\scb/cy_scb_common.h **** * cy_scb_ezi2c.h, cy_scb_i2c.h depending on the desired functionality. 
  49:Generated_Source\PSoC6\pdl\drivers\peripheral\scb/cy_scb_common.h **** * You can also include cy_pdl.h to get access to all functions and declarations 
  50:Generated_Source\PSoC6\pdl\drivers\peripheral\scb/cy_scb_common.h **** * in the PDL.
  51:Generated_Source\PSoC6\pdl\drivers\peripheral\scb/cy_scb_common.h **** *
  52:Generated_Source\PSoC6\pdl\drivers\peripheral\scb/cy_scb_common.h **** *******************************************************************************
  53:Generated_Source\PSoC6\pdl\drivers\peripheral\scb/cy_scb_common.h **** * \section group_scb_common_configuration Configuration Considerations
  54:Generated_Source\PSoC6\pdl\drivers\peripheral\scb/cy_scb_common.h **** ********************************************************************************
  55:Generated_Source\PSoC6\pdl\drivers\peripheral\scb/cy_scb_common.h **** * This is not a driver and it does not require configuration.
  56:Generated_Source\PSoC6\pdl\drivers\peripheral\scb/cy_scb_common.h **** *
  57:Generated_Source\PSoC6\pdl\drivers\peripheral\scb/cy_scb_common.h **** *******************************************************************************
  58:Generated_Source\PSoC6\pdl\drivers\peripheral\scb/cy_scb_common.h **** * \section group_scb_common_more_information More Information
  59:Generated_Source\PSoC6\pdl\drivers\peripheral\scb/cy_scb_common.h **** *******************************************************************************
  60:Generated_Source\PSoC6\pdl\drivers\peripheral\scb/cy_scb_common.h **** * Refer to the SCB chapter of the technical reference manual (TRM).
  61:Generated_Source\PSoC6\pdl\drivers\peripheral\scb/cy_scb_common.h **** *
  62:Generated_Source\PSoC6\pdl\drivers\peripheral\scb/cy_scb_common.h **** *******************************************************************************
  63:Generated_Source\PSoC6\pdl\drivers\peripheral\scb/cy_scb_common.h **** * \section group_scb_common_MISRA MISRA-C Compliance
  64:Generated_Source\PSoC6\pdl\drivers\peripheral\scb/cy_scb_common.h **** *******************************************************************************
  65:Generated_Source\PSoC6\pdl\drivers\peripheral\scb/cy_scb_common.h **** * <table class="doxtable">
  66:Generated_Source\PSoC6\pdl\drivers\peripheral\scb/cy_scb_common.h **** *   <tr>
ARM GAS  C:\Users\pearlstl\AppData\Local\Temp\ccAUXqAU.s 			page 30


  67:Generated_Source\PSoC6\pdl\drivers\peripheral\scb/cy_scb_common.h **** *     <th>MISRA rule</th>
  68:Generated_Source\PSoC6\pdl\drivers\peripheral\scb/cy_scb_common.h **** *     <th>Rule Class (Required/Advisory)</th>
  69:Generated_Source\PSoC6\pdl\drivers\peripheral\scb/cy_scb_common.h **** *     <th>Rule Description</th>
  70:Generated_Source\PSoC6\pdl\drivers\peripheral\scb/cy_scb_common.h **** *     <th>Description of Deviation(s)</th>
  71:Generated_Source\PSoC6\pdl\drivers\peripheral\scb/cy_scb_common.h **** *   </tr>
  72:Generated_Source\PSoC6\pdl\drivers\peripheral\scb/cy_scb_common.h **** *   <tr>
  73:Generated_Source\PSoC6\pdl\drivers\peripheral\scb/cy_scb_common.h **** *     <td>11.4</td>
  74:Generated_Source\PSoC6\pdl\drivers\peripheral\scb/cy_scb_common.h **** *     <td>A</td>
  75:Generated_Source\PSoC6\pdl\drivers\peripheral\scb/cy_scb_common.h **** *     <td>A cast should not be performed between a pointer to object type and
  76:Generated_Source\PSoC6\pdl\drivers\peripheral\scb/cy_scb_common.h **** *         a different pointer to object type.</td>
  77:Generated_Source\PSoC6\pdl\drivers\peripheral\scb/cy_scb_common.h **** *     <td>The pointer to the buffer memory is void to allow handling of
  78:Generated_Source\PSoC6\pdl\drivers\peripheral\scb/cy_scb_common.h **** *         different data types: uint8_t (4-8 bits) or uint16_t (9-16 bits).
  79:Generated_Source\PSoC6\pdl\drivers\peripheral\scb/cy_scb_common.h **** *         The cast operation is safe because the configuration is verified
  80:Generated_Source\PSoC6\pdl\drivers\peripheral\scb/cy_scb_common.h **** *         before operation is performed.
  81:Generated_Source\PSoC6\pdl\drivers\peripheral\scb/cy_scb_common.h **** *         </td>
  82:Generated_Source\PSoC6\pdl\drivers\peripheral\scb/cy_scb_common.h **** *   </tr>
  83:Generated_Source\PSoC6\pdl\drivers\peripheral\scb/cy_scb_common.h **** * </table>
  84:Generated_Source\PSoC6\pdl\drivers\peripheral\scb/cy_scb_common.h **** *
  85:Generated_Source\PSoC6\pdl\drivers\peripheral\scb/cy_scb_common.h **** *******************************************************************************
  86:Generated_Source\PSoC6\pdl\drivers\peripheral\scb/cy_scb_common.h **** * \section group_scb_common_changelog Changelog
  87:Generated_Source\PSoC6\pdl\drivers\peripheral\scb/cy_scb_common.h **** *******************************************************************************
  88:Generated_Source\PSoC6\pdl\drivers\peripheral\scb/cy_scb_common.h **** * <table class="doxtable">
  89:Generated_Source\PSoC6\pdl\drivers\peripheral\scb/cy_scb_common.h **** *   <tr><th>Version</th><th>Changes</th><th>Reason for Change</th></tr>
  90:Generated_Source\PSoC6\pdl\drivers\peripheral\scb/cy_scb_common.h **** *   <tr>
  91:Generated_Source\PSoC6\pdl\drivers\peripheral\scb/cy_scb_common.h **** *     <td rowspan="2">2.20</td>
  92:Generated_Source\PSoC6\pdl\drivers\peripheral\scb/cy_scb_common.h **** *     <td>Flattened the organization of the driver source code into the single 
  93:Generated_Source\PSoC6\pdl\drivers\peripheral\scb/cy_scb_common.h **** *         source directory and the single include directory.
  94:Generated_Source\PSoC6\pdl\drivers\peripheral\scb/cy_scb_common.h **** *     </td>
  95:Generated_Source\PSoC6\pdl\drivers\peripheral\scb/cy_scb_common.h **** *     <td>Driver library directory-structure simplification.</td>
  96:Generated_Source\PSoC6\pdl\drivers\peripheral\scb/cy_scb_common.h **** *   </tr>
  97:Generated_Source\PSoC6\pdl\drivers\peripheral\scb/cy_scb_common.h **** *   <tr>
  98:Generated_Source\PSoC6\pdl\drivers\peripheral\scb/cy_scb_common.h **** *     <td>Added register access layer. Use register access macros instead
  99:Generated_Source\PSoC6\pdl\drivers\peripheral\scb/cy_scb_common.h **** *         of direct register access using dereferenced pointers.</td>
 100:Generated_Source\PSoC6\pdl\drivers\peripheral\scb/cy_scb_common.h **** *     <td>Makes register access device-independent, so that the PDL does 
 101:Generated_Source\PSoC6\pdl\drivers\peripheral\scb/cy_scb_common.h **** *         not need to be recompiled for each supported part number.</td>
 102:Generated_Source\PSoC6\pdl\drivers\peripheral\scb/cy_scb_common.h **** *   </tr>
 103:Generated_Source\PSoC6\pdl\drivers\peripheral\scb/cy_scb_common.h **** *   <tr>
 104:Generated_Source\PSoC6\pdl\drivers\peripheral\scb/cy_scb_common.h **** *     <td>2.10</td>
 105:Generated_Source\PSoC6\pdl\drivers\peripheral\scb/cy_scb_common.h **** *     <td>None.</td>
 106:Generated_Source\PSoC6\pdl\drivers\peripheral\scb/cy_scb_common.h **** *     <td>SCB I2C driver updated.</td>
 107:Generated_Source\PSoC6\pdl\drivers\peripheral\scb/cy_scb_common.h **** *   </tr>
 108:Generated_Source\PSoC6\pdl\drivers\peripheral\scb/cy_scb_common.h **** *   <tr>
 109:Generated_Source\PSoC6\pdl\drivers\peripheral\scb/cy_scb_common.h **** *     <td rowspan="2"> 2.0</td>
 110:Generated_Source\PSoC6\pdl\drivers\peripheral\scb/cy_scb_common.h **** *     <td>Added parameters validation for public API.
 111:Generated_Source\PSoC6\pdl\drivers\peripheral\scb/cy_scb_common.h **** *     <td></td>
 112:Generated_Source\PSoC6\pdl\drivers\peripheral\scb/cy_scb_common.h **** *   </tr>
 113:Generated_Source\PSoC6\pdl\drivers\peripheral\scb/cy_scb_common.h **** *   <tr>
 114:Generated_Source\PSoC6\pdl\drivers\peripheral\scb/cy_scb_common.h **** *     <td>Fixed functions which return interrupt status to return only defined
 115:Generated_Source\PSoC6\pdl\drivers\peripheral\scb/cy_scb_common.h **** *         set of interrupt statuses.</td>
 116:Generated_Source\PSoC6\pdl\drivers\peripheral\scb/cy_scb_common.h **** *     <td></td>
 117:Generated_Source\PSoC6\pdl\drivers\peripheral\scb/cy_scb_common.h **** *   </tr>
 118:Generated_Source\PSoC6\pdl\drivers\peripheral\scb/cy_scb_common.h **** *   <tr>
 119:Generated_Source\PSoC6\pdl\drivers\peripheral\scb/cy_scb_common.h **** *     <td>1.0</td>
 120:Generated_Source\PSoC6\pdl\drivers\peripheral\scb/cy_scb_common.h **** *     <td>Initial version.</td>
 121:Generated_Source\PSoC6\pdl\drivers\peripheral\scb/cy_scb_common.h **** *     <td></td>
 122:Generated_Source\PSoC6\pdl\drivers\peripheral\scb/cy_scb_common.h **** *   </tr>
 123:Generated_Source\PSoC6\pdl\drivers\peripheral\scb/cy_scb_common.h **** * </table>
ARM GAS  C:\Users\pearlstl\AppData\Local\Temp\ccAUXqAU.s 			page 31


 124:Generated_Source\PSoC6\pdl\drivers\peripheral\scb/cy_scb_common.h **** *
 125:Generated_Source\PSoC6\pdl\drivers\peripheral\scb/cy_scb_common.h **** * \defgroup group_scb_common_macros Macros
 126:Generated_Source\PSoC6\pdl\drivers\peripheral\scb/cy_scb_common.h **** * \defgroup group_scb_common_functions Functions
 127:Generated_Source\PSoC6\pdl\drivers\peripheral\scb/cy_scb_common.h **** * \defgroup group_scb_common_data_structures Data Structures
 128:Generated_Source\PSoC6\pdl\drivers\peripheral\scb/cy_scb_common.h **** *
 129:Generated_Source\PSoC6\pdl\drivers\peripheral\scb/cy_scb_common.h **** */
 130:Generated_Source\PSoC6\pdl\drivers\peripheral\scb/cy_scb_common.h **** 
 131:Generated_Source\PSoC6\pdl\drivers\peripheral\scb/cy_scb_common.h **** #if !defined(CY_SCB_COMMON_H)
 132:Generated_Source\PSoC6\pdl\drivers\peripheral\scb/cy_scb_common.h **** #define CY_SCB_COMMON_H
 133:Generated_Source\PSoC6\pdl\drivers\peripheral\scb/cy_scb_common.h **** 
 134:Generated_Source\PSoC6\pdl\drivers\peripheral\scb/cy_scb_common.h **** #include <stdint.h>
 135:Generated_Source\PSoC6\pdl\drivers\peripheral\scb/cy_scb_common.h **** #include <stddef.h>
 136:Generated_Source\PSoC6\pdl\drivers\peripheral\scb/cy_scb_common.h **** #include <stdbool.h>
 137:Generated_Source\PSoC6\pdl\drivers\peripheral\scb/cy_scb_common.h **** #include "cy_device.h"
 138:Generated_Source\PSoC6\pdl\drivers\peripheral\scb/cy_scb_common.h **** #include "cy_device_headers.h"
 139:Generated_Source\PSoC6\pdl\drivers\peripheral\scb/cy_scb_common.h **** #include "cy_syslib.h"
 140:Generated_Source\PSoC6\pdl\drivers\peripheral\scb/cy_scb_common.h **** #include "cy_syspm.h"
 141:Generated_Source\PSoC6\pdl\drivers\peripheral\scb/cy_scb_common.h **** 
 142:Generated_Source\PSoC6\pdl\drivers\peripheral\scb/cy_scb_common.h **** #ifdef CY_IP_MXSCB
 143:Generated_Source\PSoC6\pdl\drivers\peripheral\scb/cy_scb_common.h **** 
 144:Generated_Source\PSoC6\pdl\drivers\peripheral\scb/cy_scb_common.h **** #if defined(__cplusplus)
 145:Generated_Source\PSoC6\pdl\drivers\peripheral\scb/cy_scb_common.h **** extern "C" {
 146:Generated_Source\PSoC6\pdl\drivers\peripheral\scb/cy_scb_common.h **** #endif
 147:Generated_Source\PSoC6\pdl\drivers\peripheral\scb/cy_scb_common.h **** 
 148:Generated_Source\PSoC6\pdl\drivers\peripheral\scb/cy_scb_common.h **** 
 149:Generated_Source\PSoC6\pdl\drivers\peripheral\scb/cy_scb_common.h **** /*******************************************************************************
 150:Generated_Source\PSoC6\pdl\drivers\peripheral\scb/cy_scb_common.h **** *                            Function Prototypes
 151:Generated_Source\PSoC6\pdl\drivers\peripheral\scb/cy_scb_common.h **** *******************************************************************************/
 152:Generated_Source\PSoC6\pdl\drivers\peripheral\scb/cy_scb_common.h **** 
 153:Generated_Source\PSoC6\pdl\drivers\peripheral\scb/cy_scb_common.h **** /**
 154:Generated_Source\PSoC6\pdl\drivers\peripheral\scb/cy_scb_common.h **** * \addtogroup group_scb_common_functions
 155:Generated_Source\PSoC6\pdl\drivers\peripheral\scb/cy_scb_common.h **** * \{
 156:Generated_Source\PSoC6\pdl\drivers\peripheral\scb/cy_scb_common.h **** */
 157:Generated_Source\PSoC6\pdl\drivers\peripheral\scb/cy_scb_common.h **** __STATIC_INLINE uint32_t Cy_SCB_ReadRxFifo    (CySCB_Type const *base);
 158:Generated_Source\PSoC6\pdl\drivers\peripheral\scb/cy_scb_common.h **** __STATIC_INLINE void     Cy_SCB_SetRxFifoLevel(CySCB_Type *base, uint32_t level);
 159:Generated_Source\PSoC6\pdl\drivers\peripheral\scb/cy_scb_common.h **** __STATIC_INLINE uint32_t Cy_SCB_GetNumInRxFifo(CySCB_Type const *base);
 160:Generated_Source\PSoC6\pdl\drivers\peripheral\scb/cy_scb_common.h **** __STATIC_INLINE uint32_t Cy_SCB_GetRxSrValid  (CySCB_Type const *base);
 161:Generated_Source\PSoC6\pdl\drivers\peripheral\scb/cy_scb_common.h **** __STATIC_INLINE void     Cy_SCB_ClearRxFifo   (CySCB_Type *base);
 162:Generated_Source\PSoC6\pdl\drivers\peripheral\scb/cy_scb_common.h **** 
 163:Generated_Source\PSoC6\pdl\drivers\peripheral\scb/cy_scb_common.h **** __STATIC_INLINE void     Cy_SCB_WriteTxFifo   (CySCB_Type *base, uint32_t data);
 164:Generated_Source\PSoC6\pdl\drivers\peripheral\scb/cy_scb_common.h **** __STATIC_INLINE void     Cy_SCB_SetTxFifoLevel(CySCB_Type *base, uint32_t level);
 165:Generated_Source\PSoC6\pdl\drivers\peripheral\scb/cy_scb_common.h **** __STATIC_INLINE uint32_t Cy_SCB_GetNumInTxFifo(CySCB_Type const *base);
 166:Generated_Source\PSoC6\pdl\drivers\peripheral\scb/cy_scb_common.h **** __STATIC_INLINE uint32_t Cy_SCB_GetTxSrValid  (CySCB_Type const *base);
 167:Generated_Source\PSoC6\pdl\drivers\peripheral\scb/cy_scb_common.h **** __STATIC_INLINE bool     Cy_SCB_IsTxComplete  (CySCB_Type const *base);
 168:Generated_Source\PSoC6\pdl\drivers\peripheral\scb/cy_scb_common.h **** __STATIC_INLINE void     Cy_SCB_ClearTxFifo   (CySCB_Type *base);
 169:Generated_Source\PSoC6\pdl\drivers\peripheral\scb/cy_scb_common.h **** 
 170:Generated_Source\PSoC6\pdl\drivers\peripheral\scb/cy_scb_common.h **** __STATIC_INLINE void     Cy_SCB_SetByteMode(CySCB_Type *base, bool byteMode);
 171:Generated_Source\PSoC6\pdl\drivers\peripheral\scb/cy_scb_common.h **** 
 172:Generated_Source\PSoC6\pdl\drivers\peripheral\scb/cy_scb_common.h **** __STATIC_INLINE uint32_t Cy_SCB_GetInterruptCause(CySCB_Type const *base);
 173:Generated_Source\PSoC6\pdl\drivers\peripheral\scb/cy_scb_common.h **** 
 174:Generated_Source\PSoC6\pdl\drivers\peripheral\scb/cy_scb_common.h **** __STATIC_INLINE uint32_t Cy_SCB_GetRxInterruptStatus(CySCB_Type const *base);
 175:Generated_Source\PSoC6\pdl\drivers\peripheral\scb/cy_scb_common.h **** __STATIC_INLINE void     Cy_SCB_SetRxInterruptMask  (CySCB_Type *base, uint32_t interruptMask);
 176:Generated_Source\PSoC6\pdl\drivers\peripheral\scb/cy_scb_common.h **** __STATIC_INLINE uint32_t Cy_SCB_GetRxInterruptMask  (CySCB_Type const *base);
 177:Generated_Source\PSoC6\pdl\drivers\peripheral\scb/cy_scb_common.h **** __STATIC_INLINE uint32_t Cy_SCB_GetRxInterruptStatusMasked(CySCB_Type const *base);
 178:Generated_Source\PSoC6\pdl\drivers\peripheral\scb/cy_scb_common.h **** __STATIC_INLINE void     Cy_SCB_ClearRxInterrupt    (CySCB_Type *base, uint32_t interruptMask);
 179:Generated_Source\PSoC6\pdl\drivers\peripheral\scb/cy_scb_common.h **** __STATIC_INLINE void     Cy_SCB_SetRxInterrupt      (CySCB_Type *base, uint32_t interruptMask);
 180:Generated_Source\PSoC6\pdl\drivers\peripheral\scb/cy_scb_common.h **** 
ARM GAS  C:\Users\pearlstl\AppData\Local\Temp\ccAUXqAU.s 			page 32


 181:Generated_Source\PSoC6\pdl\drivers\peripheral\scb/cy_scb_common.h **** __STATIC_INLINE uint32_t Cy_SCB_GetTxInterruptStatus(CySCB_Type const *base);
 182:Generated_Source\PSoC6\pdl\drivers\peripheral\scb/cy_scb_common.h **** __STATIC_INLINE void     Cy_SCB_SetTxInterruptMask  (CySCB_Type *base, uint32_t interruptMask);
 183:Generated_Source\PSoC6\pdl\drivers\peripheral\scb/cy_scb_common.h **** __STATIC_INLINE uint32_t Cy_SCB_GetTxInterruptMask  (CySCB_Type const *base);
 184:Generated_Source\PSoC6\pdl\drivers\peripheral\scb/cy_scb_common.h **** __STATIC_INLINE uint32_t Cy_SCB_GetTxInterruptStatusMasked(CySCB_Type const *base);
 185:Generated_Source\PSoC6\pdl\drivers\peripheral\scb/cy_scb_common.h **** __STATIC_INLINE void     Cy_SCB_ClearTxInterrupt    (CySCB_Type *base, uint32_t interruptMask);
 186:Generated_Source\PSoC6\pdl\drivers\peripheral\scb/cy_scb_common.h **** __STATIC_INLINE void     Cy_SCB_SetTxInterrupt      (CySCB_Type *base, uint32_t interruptMask);
 187:Generated_Source\PSoC6\pdl\drivers\peripheral\scb/cy_scb_common.h **** 
 188:Generated_Source\PSoC6\pdl\drivers\peripheral\scb/cy_scb_common.h **** __STATIC_INLINE uint32_t Cy_SCB_GetMasterInterruptStatus(CySCB_Type const *base);
 189:Generated_Source\PSoC6\pdl\drivers\peripheral\scb/cy_scb_common.h **** __STATIC_INLINE void     Cy_SCB_SetMasterInterruptMask  (CySCB_Type *base, uint32_t interruptMask);
 190:Generated_Source\PSoC6\pdl\drivers\peripheral\scb/cy_scb_common.h **** __STATIC_INLINE uint32_t Cy_SCB_GetMasterInterruptMask  (CySCB_Type const *base);
 191:Generated_Source\PSoC6\pdl\drivers\peripheral\scb/cy_scb_common.h **** __STATIC_INLINE uint32_t Cy_SCB_GetMasterInterruptStatusMasked(CySCB_Type const *base);
 192:Generated_Source\PSoC6\pdl\drivers\peripheral\scb/cy_scb_common.h **** __STATIC_INLINE void     Cy_SCB_ClearMasterInterrupt    (CySCB_Type *base, uint32_t interruptMask);
 193:Generated_Source\PSoC6\pdl\drivers\peripheral\scb/cy_scb_common.h **** __STATIC_INLINE void     Cy_SCB_SetMasterInterrupt      (CySCB_Type *base, uint32_t interruptMask);
 194:Generated_Source\PSoC6\pdl\drivers\peripheral\scb/cy_scb_common.h **** 
 195:Generated_Source\PSoC6\pdl\drivers\peripheral\scb/cy_scb_common.h **** __STATIC_INLINE uint32_t Cy_SCB_GetSlaveInterruptStatus(CySCB_Type const *base);
 196:Generated_Source\PSoC6\pdl\drivers\peripheral\scb/cy_scb_common.h **** __STATIC_INLINE void     Cy_SCB_SetSlaveInterruptMask  (CySCB_Type *base, uint32_t interruptMask);
 197:Generated_Source\PSoC6\pdl\drivers\peripheral\scb/cy_scb_common.h **** __STATIC_INLINE uint32_t Cy_SCB_GetSlaveInterruptMask  (CySCB_Type const *base);
 198:Generated_Source\PSoC6\pdl\drivers\peripheral\scb/cy_scb_common.h **** __STATIC_INLINE uint32_t Cy_SCB_GetSlaveInterruptStatusMasked(CySCB_Type const *base);
 199:Generated_Source\PSoC6\pdl\drivers\peripheral\scb/cy_scb_common.h **** __STATIC_INLINE void     Cy_SCB_ClearSlaveInterrupt    (CySCB_Type *base, uint32_t interruptMask);
 200:Generated_Source\PSoC6\pdl\drivers\peripheral\scb/cy_scb_common.h **** __STATIC_INLINE void     Cy_SCB_SetSlaveInterrupt      (CySCB_Type *base, uint32_t interruptMask);
 201:Generated_Source\PSoC6\pdl\drivers\peripheral\scb/cy_scb_common.h **** 
 202:Generated_Source\PSoC6\pdl\drivers\peripheral\scb/cy_scb_common.h **** __STATIC_INLINE uint32_t Cy_SCB_GetI2CInterruptStatus(CySCB_Type const *base);
 203:Generated_Source\PSoC6\pdl\drivers\peripheral\scb/cy_scb_common.h **** __STATIC_INLINE void     Cy_SCB_SetI2CInterruptMask  (CySCB_Type *base, uint32_t interruptMask);
 204:Generated_Source\PSoC6\pdl\drivers\peripheral\scb/cy_scb_common.h **** __STATIC_INLINE uint32_t Cy_SCB_GetI2CInterruptMask  (CySCB_Type const *base);
 205:Generated_Source\PSoC6\pdl\drivers\peripheral\scb/cy_scb_common.h **** __STATIC_INLINE uint32_t Cy_SCB_GetI2CInterruptStatusMasked(CySCB_Type const *base);
 206:Generated_Source\PSoC6\pdl\drivers\peripheral\scb/cy_scb_common.h **** __STATIC_INLINE void     Cy_SCB_ClearI2CInterrupt    (CySCB_Type *base, uint32_t interruptMask);
 207:Generated_Source\PSoC6\pdl\drivers\peripheral\scb/cy_scb_common.h **** 
 208:Generated_Source\PSoC6\pdl\drivers\peripheral\scb/cy_scb_common.h **** __STATIC_INLINE uint32_t Cy_SCB_GetSpiInterruptStatus(CySCB_Type const *base);
 209:Generated_Source\PSoC6\pdl\drivers\peripheral\scb/cy_scb_common.h **** __STATIC_INLINE void     Cy_SCB_SetSpiInterruptMask  (CySCB_Type *base, uint32_t interruptMask);
 210:Generated_Source\PSoC6\pdl\drivers\peripheral\scb/cy_scb_common.h **** __STATIC_INLINE uint32_t Cy_SCB_GetSpiInterruptMask  (CySCB_Type const *base);
 211:Generated_Source\PSoC6\pdl\drivers\peripheral\scb/cy_scb_common.h **** __STATIC_INLINE uint32_t Cy_SCB_GetSpiInterruptStatusMasked(CySCB_Type const *base);
 212:Generated_Source\PSoC6\pdl\drivers\peripheral\scb/cy_scb_common.h **** __STATIC_INLINE void     Cy_SCB_ClearSpiInterrupt    (CySCB_Type *base, uint32_t interruptMask);
 213:Generated_Source\PSoC6\pdl\drivers\peripheral\scb/cy_scb_common.h **** 
 214:Generated_Source\PSoC6\pdl\drivers\peripheral\scb/cy_scb_common.h **** 
 215:Generated_Source\PSoC6\pdl\drivers\peripheral\scb/cy_scb_common.h **** /*******************************************************************************
 216:Generated_Source\PSoC6\pdl\drivers\peripheral\scb/cy_scb_common.h **** *                         Internal Function Prototypes
 217:Generated_Source\PSoC6\pdl\drivers\peripheral\scb/cy_scb_common.h **** *******************************************************************************/
 218:Generated_Source\PSoC6\pdl\drivers\peripheral\scb/cy_scb_common.h **** 
 219:Generated_Source\PSoC6\pdl\drivers\peripheral\scb/cy_scb_common.h **** /** \cond INTERNAL */
 220:Generated_Source\PSoC6\pdl\drivers\peripheral\scb/cy_scb_common.h **** void     Cy_SCB_ReadArrayNoCheck  (CySCB_Type const *base, void *buffer, uint32_t size);
 221:Generated_Source\PSoC6\pdl\drivers\peripheral\scb/cy_scb_common.h **** uint32_t Cy_SCB_ReadArray         (CySCB_Type const *base, void *buffer, uint32_t size);
 222:Generated_Source\PSoC6\pdl\drivers\peripheral\scb/cy_scb_common.h **** void     Cy_SCB_ReadArrayBlocking (CySCB_Type const *base, void *buffer, uint32_t size);
 223:Generated_Source\PSoC6\pdl\drivers\peripheral\scb/cy_scb_common.h **** uint32_t Cy_SCB_Write             (CySCB_Type *base, uint32_t data);
 224:Generated_Source\PSoC6\pdl\drivers\peripheral\scb/cy_scb_common.h **** void     Cy_SCB_WriteArrayNoCheck (CySCB_Type *base, void *buffer, uint32_t size);
 225:Generated_Source\PSoC6\pdl\drivers\peripheral\scb/cy_scb_common.h **** uint32_t Cy_SCB_WriteArray        (CySCB_Type *base, void *buffer, uint32_t size);
 226:Generated_Source\PSoC6\pdl\drivers\peripheral\scb/cy_scb_common.h **** void     Cy_SCB_WriteArrayBlocking(CySCB_Type *base, void *buffer, uint32_t size);
 227:Generated_Source\PSoC6\pdl\drivers\peripheral\scb/cy_scb_common.h **** void     Cy_SCB_WriteString       (CySCB_Type *base, char_t const string[]);
 228:Generated_Source\PSoC6\pdl\drivers\peripheral\scb/cy_scb_common.h **** void     Cy_SCB_WriteDefaultArrayNoCheck(CySCB_Type *base, uint32_t txData, uint32_t size);
 229:Generated_Source\PSoC6\pdl\drivers\peripheral\scb/cy_scb_common.h **** uint32_t Cy_SCB_WriteDefaultArray (CySCB_Type *base, uint32_t txData, uint32_t size);
 230:Generated_Source\PSoC6\pdl\drivers\peripheral\scb/cy_scb_common.h **** 
 231:Generated_Source\PSoC6\pdl\drivers\peripheral\scb/cy_scb_common.h **** __STATIC_INLINE uint32_t Cy_SCB_GetFifoSize (CySCB_Type const *base);
 232:Generated_Source\PSoC6\pdl\drivers\peripheral\scb/cy_scb_common.h **** __STATIC_INLINE void     Cy_SCB_FwBlockReset(CySCB_Type *base);
 233:Generated_Source\PSoC6\pdl\drivers\peripheral\scb/cy_scb_common.h **** __STATIC_INLINE bool     Cy_SCB_IsRxDataWidthByte(CySCB_Type const *base);
 234:Generated_Source\PSoC6\pdl\drivers\peripheral\scb/cy_scb_common.h **** __STATIC_INLINE bool     Cy_SCB_IsTxDataWidthByte(CySCB_Type const *base);
 235:Generated_Source\PSoC6\pdl\drivers\peripheral\scb/cy_scb_common.h **** __STATIC_INLINE uint32_t Cy_SCB_GetRxFifoLevel   (CySCB_Type const *base);
 236:Generated_Source\PSoC6\pdl\drivers\peripheral\scb/cy_scb_common.h **** /** \endcond */
 237:Generated_Source\PSoC6\pdl\drivers\peripheral\scb/cy_scb_common.h **** 
ARM GAS  C:\Users\pearlstl\AppData\Local\Temp\ccAUXqAU.s 			page 33


 238:Generated_Source\PSoC6\pdl\drivers\peripheral\scb/cy_scb_common.h **** /** \} group_scb_common_functions */
 239:Generated_Source\PSoC6\pdl\drivers\peripheral\scb/cy_scb_common.h **** 
 240:Generated_Source\PSoC6\pdl\drivers\peripheral\scb/cy_scb_common.h **** 
 241:Generated_Source\PSoC6\pdl\drivers\peripheral\scb/cy_scb_common.h **** /*******************************************************************************
 242:Generated_Source\PSoC6\pdl\drivers\peripheral\scb/cy_scb_common.h **** *                        API Constants
 243:Generated_Source\PSoC6\pdl\drivers\peripheral\scb/cy_scb_common.h **** *******************************************************************************/
 244:Generated_Source\PSoC6\pdl\drivers\peripheral\scb/cy_scb_common.h **** 
 245:Generated_Source\PSoC6\pdl\drivers\peripheral\scb/cy_scb_common.h **** /**
 246:Generated_Source\PSoC6\pdl\drivers\peripheral\scb/cy_scb_common.h **** * \addtogroup group_scb_common_macros
 247:Generated_Source\PSoC6\pdl\drivers\peripheral\scb/cy_scb_common.h **** * \{
 248:Generated_Source\PSoC6\pdl\drivers\peripheral\scb/cy_scb_common.h **** */
 249:Generated_Source\PSoC6\pdl\drivers\peripheral\scb/cy_scb_common.h **** 
 250:Generated_Source\PSoC6\pdl\drivers\peripheral\scb/cy_scb_common.h **** /** Driver major version */
 251:Generated_Source\PSoC6\pdl\drivers\peripheral\scb/cy_scb_common.h **** #define CY_SCB_DRV_VERSION_MAJOR    (2)
 252:Generated_Source\PSoC6\pdl\drivers\peripheral\scb/cy_scb_common.h **** 
 253:Generated_Source\PSoC6\pdl\drivers\peripheral\scb/cy_scb_common.h **** /** Driver minor version */
 254:Generated_Source\PSoC6\pdl\drivers\peripheral\scb/cy_scb_common.h **** #define CY_SCB_DRV_VERSION_MINOR    (20)
 255:Generated_Source\PSoC6\pdl\drivers\peripheral\scb/cy_scb_common.h **** 
 256:Generated_Source\PSoC6\pdl\drivers\peripheral\scb/cy_scb_common.h **** /** SCB driver identifier */
 257:Generated_Source\PSoC6\pdl\drivers\peripheral\scb/cy_scb_common.h **** #define CY_SCB_ID           CY_PDL_DRV_ID(0x2AU)
 258:Generated_Source\PSoC6\pdl\drivers\peripheral\scb/cy_scb_common.h **** 
 259:Generated_Source\PSoC6\pdl\drivers\peripheral\scb/cy_scb_common.h **** /** Position for SCB driver sub mode */
 260:Generated_Source\PSoC6\pdl\drivers\peripheral\scb/cy_scb_common.h **** #define CY_SCB_SUB_MODE_Pos (13UL)
 261:Generated_Source\PSoC6\pdl\drivers\peripheral\scb/cy_scb_common.h **** 
 262:Generated_Source\PSoC6\pdl\drivers\peripheral\scb/cy_scb_common.h **** /** EZI2C mode identifier */
 263:Generated_Source\PSoC6\pdl\drivers\peripheral\scb/cy_scb_common.h **** #define CY_SCB_EZI2C_ID     (0x0UL << CY_SCB_SUB_MODE_Pos)
 264:Generated_Source\PSoC6\pdl\drivers\peripheral\scb/cy_scb_common.h **** 
 265:Generated_Source\PSoC6\pdl\drivers\peripheral\scb/cy_scb_common.h **** /** EZI2C mode identifier */
 266:Generated_Source\PSoC6\pdl\drivers\peripheral\scb/cy_scb_common.h **** #define CY_SCB_I2C_ID       (0x1UL << CY_SCB_SUB_MODE_Pos)
 267:Generated_Source\PSoC6\pdl\drivers\peripheral\scb/cy_scb_common.h **** 
 268:Generated_Source\PSoC6\pdl\drivers\peripheral\scb/cy_scb_common.h **** /** EZI2C mode identifier */
 269:Generated_Source\PSoC6\pdl\drivers\peripheral\scb/cy_scb_common.h **** #define CY_SCB_SPI_ID       (0x2UL << CY_SCB_SUB_MODE_Pos)
 270:Generated_Source\PSoC6\pdl\drivers\peripheral\scb/cy_scb_common.h **** 
 271:Generated_Source\PSoC6\pdl\drivers\peripheral\scb/cy_scb_common.h **** /** EZI2C mode identifier */
 272:Generated_Source\PSoC6\pdl\drivers\peripheral\scb/cy_scb_common.h **** #define CY_SCB_UART_ID      (0x3UL << CY_SCB_SUB_MODE_Pos)
 273:Generated_Source\PSoC6\pdl\drivers\peripheral\scb/cy_scb_common.h **** 
 274:Generated_Source\PSoC6\pdl\drivers\peripheral\scb/cy_scb_common.h **** /**
 275:Generated_Source\PSoC6\pdl\drivers\peripheral\scb/cy_scb_common.h **** * \defgroup group_scb_common_macros_intr_cause SCB Interrupt Causes
 276:Generated_Source\PSoC6\pdl\drivers\peripheral\scb/cy_scb_common.h **** * \{
 277:Generated_Source\PSoC6\pdl\drivers\peripheral\scb/cy_scb_common.h **** */
 278:Generated_Source\PSoC6\pdl\drivers\peripheral\scb/cy_scb_common.h **** /** Interrupt from Master interrupt sources */
 279:Generated_Source\PSoC6\pdl\drivers\peripheral\scb/cy_scb_common.h **** #define CY_SCB_MASTER_INTR SCB_INTR_CAUSE_M_Msk
 280:Generated_Source\PSoC6\pdl\drivers\peripheral\scb/cy_scb_common.h **** 
 281:Generated_Source\PSoC6\pdl\drivers\peripheral\scb/cy_scb_common.h **** /** Interrupt from Slave interrupt sources  */
 282:Generated_Source\PSoC6\pdl\drivers\peripheral\scb/cy_scb_common.h **** #define CY_SCB_SLAVE_INTR  SCB_INTR_CAUSE_S_Msk
 283:Generated_Source\PSoC6\pdl\drivers\peripheral\scb/cy_scb_common.h **** 
 284:Generated_Source\PSoC6\pdl\drivers\peripheral\scb/cy_scb_common.h **** /** Interrupt from TX interrupt sources */
 285:Generated_Source\PSoC6\pdl\drivers\peripheral\scb/cy_scb_common.h **** #define CY_SCB_TX_INTR     SCB_INTR_CAUSE_TX_Msk
 286:Generated_Source\PSoC6\pdl\drivers\peripheral\scb/cy_scb_common.h **** 
 287:Generated_Source\PSoC6\pdl\drivers\peripheral\scb/cy_scb_common.h **** /** Interrupt from RX interrupt sources */
 288:Generated_Source\PSoC6\pdl\drivers\peripheral\scb/cy_scb_common.h **** #define CY_SCB_RX_INTR     SCB_INTR_CAUSE_RX_Msk
 289:Generated_Source\PSoC6\pdl\drivers\peripheral\scb/cy_scb_common.h **** 
 290:Generated_Source\PSoC6\pdl\drivers\peripheral\scb/cy_scb_common.h **** /** Interrupt from I2C externally clocked interrupt sources */
 291:Generated_Source\PSoC6\pdl\drivers\peripheral\scb/cy_scb_common.h **** #define CY_SCB_I2C_INTR    SCB_INTR_CAUSE_I2C_EC_Msk
 292:Generated_Source\PSoC6\pdl\drivers\peripheral\scb/cy_scb_common.h **** 
 293:Generated_Source\PSoC6\pdl\drivers\peripheral\scb/cy_scb_common.h **** /** Interrupt from SPI externally clocked interrupt sources */
 294:Generated_Source\PSoC6\pdl\drivers\peripheral\scb/cy_scb_common.h **** #define CY_SCB_SPI_INTR    SCB_INTR_CAUSE_SPI_EC_Msk
ARM GAS  C:\Users\pearlstl\AppData\Local\Temp\ccAUXqAU.s 			page 34


 295:Generated_Source\PSoC6\pdl\drivers\peripheral\scb/cy_scb_common.h **** /** \} group_scb_common_macros_intr_cause */
 296:Generated_Source\PSoC6\pdl\drivers\peripheral\scb/cy_scb_common.h **** 
 297:Generated_Source\PSoC6\pdl\drivers\peripheral\scb/cy_scb_common.h **** /**
 298:Generated_Source\PSoC6\pdl\drivers\peripheral\scb/cy_scb_common.h **** * \defgroup group_scb_common_macros_tx_intr TX Interrupt Statuses
 299:Generated_Source\PSoC6\pdl\drivers\peripheral\scb/cy_scb_common.h **** * \{
 300:Generated_Source\PSoC6\pdl\drivers\peripheral\scb/cy_scb_common.h **** */
 301:Generated_Source\PSoC6\pdl\drivers\peripheral\scb/cy_scb_common.h **** /**
 302:Generated_Source\PSoC6\pdl\drivers\peripheral\scb/cy_scb_common.h **** * The number of data elements in the TX FIFO is less than the value
 303:Generated_Source\PSoC6\pdl\drivers\peripheral\scb/cy_scb_common.h **** * of the TX FIFO level
 304:Generated_Source\PSoC6\pdl\drivers\peripheral\scb/cy_scb_common.h **** */
 305:Generated_Source\PSoC6\pdl\drivers\peripheral\scb/cy_scb_common.h **** #define CY_SCB_TX_INTR_LEVEL           SCB_INTR_TX_TRIGGER_Msk
 306:Generated_Source\PSoC6\pdl\drivers\peripheral\scb/cy_scb_common.h **** 
 307:Generated_Source\PSoC6\pdl\drivers\peripheral\scb/cy_scb_common.h **** /** The TX FIFO is not full */
 308:Generated_Source\PSoC6\pdl\drivers\peripheral\scb/cy_scb_common.h **** #define CY_SCB_TX_INTR_NOT_FULL        SCB_INTR_TX_NOT_FULL_Msk
 309:Generated_Source\PSoC6\pdl\drivers\peripheral\scb/cy_scb_common.h **** 
 310:Generated_Source\PSoC6\pdl\drivers\peripheral\scb/cy_scb_common.h **** /** The TX FIFO is empty */
 311:Generated_Source\PSoC6\pdl\drivers\peripheral\scb/cy_scb_common.h **** #define CY_SCB_TX_INTR_EMPTY           SCB_INTR_TX_EMPTY_Msk
 312:Generated_Source\PSoC6\pdl\drivers\peripheral\scb/cy_scb_common.h **** 
 313:Generated_Source\PSoC6\pdl\drivers\peripheral\scb/cy_scb_common.h **** /** An attempt to write to a full TX FIFO */
 314:Generated_Source\PSoC6\pdl\drivers\peripheral\scb/cy_scb_common.h **** #define CY_SCB_TX_INTR_OVERFLOW        SCB_INTR_TX_OVERFLOW_Msk
 315:Generated_Source\PSoC6\pdl\drivers\peripheral\scb/cy_scb_common.h **** 
 316:Generated_Source\PSoC6\pdl\drivers\peripheral\scb/cy_scb_common.h **** /** An attempt to read from an empty TX FIFO */
 317:Generated_Source\PSoC6\pdl\drivers\peripheral\scb/cy_scb_common.h **** #define CY_SCB_TX_INTR_UNDERFLOW       SCB_INTR_TX_UNDERFLOW_Msk
 318:Generated_Source\PSoC6\pdl\drivers\peripheral\scb/cy_scb_common.h **** 
 319:Generated_Source\PSoC6\pdl\drivers\peripheral\scb/cy_scb_common.h **** /** The UART transfer is complete: all data elements from the TX FIFO are sent
 320:Generated_Source\PSoC6\pdl\drivers\peripheral\scb/cy_scb_common.h **** */
 321:Generated_Source\PSoC6\pdl\drivers\peripheral\scb/cy_scb_common.h **** #define CY_SCB_TX_INTR_UART_DONE       SCB_INTR_TX_UART_DONE_Msk
 322:Generated_Source\PSoC6\pdl\drivers\peripheral\scb/cy_scb_common.h **** 
 323:Generated_Source\PSoC6\pdl\drivers\peripheral\scb/cy_scb_common.h **** /** SmartCard only: UART received a NACK */
 324:Generated_Source\PSoC6\pdl\drivers\peripheral\scb/cy_scb_common.h **** #define CY_SCB_TX_INTR_UART_NACK       SCB_INTR_TX_UART_NACK_Msk
 325:Generated_Source\PSoC6\pdl\drivers\peripheral\scb/cy_scb_common.h **** 
 326:Generated_Source\PSoC6\pdl\drivers\peripheral\scb/cy_scb_common.h **** /**
 327:Generated_Source\PSoC6\pdl\drivers\peripheral\scb/cy_scb_common.h **** * SmartCard only: the value on the TX line of the UART does not match the
 328:Generated_Source\PSoC6\pdl\drivers\peripheral\scb/cy_scb_common.h **** * value on the RX line
 329:Generated_Source\PSoC6\pdl\drivers\peripheral\scb/cy_scb_common.h **** */
 330:Generated_Source\PSoC6\pdl\drivers\peripheral\scb/cy_scb_common.h **** #define CY_SCB_TX_INTR_UART_ARB_LOST   SCB_INTR_TX_UART_ARB_LOST_Msk
 331:Generated_Source\PSoC6\pdl\drivers\peripheral\scb/cy_scb_common.h **** /** \} group_scb_common_macros_tx_intr */
 332:Generated_Source\PSoC6\pdl\drivers\peripheral\scb/cy_scb_common.h **** 
 333:Generated_Source\PSoC6\pdl\drivers\peripheral\scb/cy_scb_common.h **** /**
 334:Generated_Source\PSoC6\pdl\drivers\peripheral\scb/cy_scb_common.h **** * \defgroup group_scb_common_macros_rx_intr RX Interrupt Statuses
 335:Generated_Source\PSoC6\pdl\drivers\peripheral\scb/cy_scb_common.h **** * \{
 336:Generated_Source\PSoC6\pdl\drivers\peripheral\scb/cy_scb_common.h **** */
 337:Generated_Source\PSoC6\pdl\drivers\peripheral\scb/cy_scb_common.h **** /**
 338:Generated_Source\PSoC6\pdl\drivers\peripheral\scb/cy_scb_common.h **** * The number of data elements in the RX FIFO is greater than the value of the
 339:Generated_Source\PSoC6\pdl\drivers\peripheral\scb/cy_scb_common.h **** * RX FIFO level
 340:Generated_Source\PSoC6\pdl\drivers\peripheral\scb/cy_scb_common.h **** */
 341:Generated_Source\PSoC6\pdl\drivers\peripheral\scb/cy_scb_common.h **** #define CY_SCB_RX_INTR_LEVEL             SCB_INTR_RX_TRIGGER_Msk
 342:Generated_Source\PSoC6\pdl\drivers\peripheral\scb/cy_scb_common.h **** 
 343:Generated_Source\PSoC6\pdl\drivers\peripheral\scb/cy_scb_common.h **** /** The RX FIFO is not empty */
 344:Generated_Source\PSoC6\pdl\drivers\peripheral\scb/cy_scb_common.h **** #define CY_SCB_RX_INTR_NOT_EMPTY         SCB_INTR_RX_NOT_EMPTY_Msk
 345:Generated_Source\PSoC6\pdl\drivers\peripheral\scb/cy_scb_common.h **** 
 346:Generated_Source\PSoC6\pdl\drivers\peripheral\scb/cy_scb_common.h **** /** The RX FIFO is full */
 347:Generated_Source\PSoC6\pdl\drivers\peripheral\scb/cy_scb_common.h **** #define CY_SCB_RX_INTR_FULL              SCB_INTR_RX_FULL_Msk
 348:Generated_Source\PSoC6\pdl\drivers\peripheral\scb/cy_scb_common.h **** 
 349:Generated_Source\PSoC6\pdl\drivers\peripheral\scb/cy_scb_common.h **** /** An attempt to write to a full RX FIFO */
 350:Generated_Source\PSoC6\pdl\drivers\peripheral\scb/cy_scb_common.h **** #define CY_SCB_RX_INTR_OVERFLOW          SCB_INTR_RX_OVERFLOW_Msk
 351:Generated_Source\PSoC6\pdl\drivers\peripheral\scb/cy_scb_common.h **** 
ARM GAS  C:\Users\pearlstl\AppData\Local\Temp\ccAUXqAU.s 			page 35


 352:Generated_Source\PSoC6\pdl\drivers\peripheral\scb/cy_scb_common.h **** /** An attempt to read from an empty RX FIFO */
 353:Generated_Source\PSoC6\pdl\drivers\peripheral\scb/cy_scb_common.h **** #define CY_SCB_RX_INTR_UNDERFLOW         SCB_INTR_RX_UNDERFLOW_Msk
 354:Generated_Source\PSoC6\pdl\drivers\peripheral\scb/cy_scb_common.h **** 
 355:Generated_Source\PSoC6\pdl\drivers\peripheral\scb/cy_scb_common.h **** /** A UART framing error detected */
 356:Generated_Source\PSoC6\pdl\drivers\peripheral\scb/cy_scb_common.h **** #define CY_SCB_RX_INTR_UART_FRAME_ERROR  SCB_INTR_RX_FRAME_ERROR_Msk
 357:Generated_Source\PSoC6\pdl\drivers\peripheral\scb/cy_scb_common.h **** 
 358:Generated_Source\PSoC6\pdl\drivers\peripheral\scb/cy_scb_common.h **** /** A UART parity error detected  */
 359:Generated_Source\PSoC6\pdl\drivers\peripheral\scb/cy_scb_common.h **** #define CY_SCB_RX_INTR_UART_PARITY_ERROR SCB_INTR_RX_PARITY_ERROR_Msk
 360:Generated_Source\PSoC6\pdl\drivers\peripheral\scb/cy_scb_common.h **** 
 361:Generated_Source\PSoC6\pdl\drivers\peripheral\scb/cy_scb_common.h **** /** A UART break detected */
 362:Generated_Source\PSoC6\pdl\drivers\peripheral\scb/cy_scb_common.h **** #define CY_SCB_RX_INTR_UART_BREAK_DETECT SCB_INTR_RX_BREAK_DETECT_Msk
 363:Generated_Source\PSoC6\pdl\drivers\peripheral\scb/cy_scb_common.h **** /** \} group_scb_common_macros_rx_intr */
 364:Generated_Source\PSoC6\pdl\drivers\peripheral\scb/cy_scb_common.h **** 
 365:Generated_Source\PSoC6\pdl\drivers\peripheral\scb/cy_scb_common.h **** /**
 366:Generated_Source\PSoC6\pdl\drivers\peripheral\scb/cy_scb_common.h **** * \defgroup group_scb_common_macros_slave_intr Slave Interrupt Statuses
 367:Generated_Source\PSoC6\pdl\drivers\peripheral\scb/cy_scb_common.h **** * \{
 368:Generated_Source\PSoC6\pdl\drivers\peripheral\scb/cy_scb_common.h **** */
 369:Generated_Source\PSoC6\pdl\drivers\peripheral\scb/cy_scb_common.h **** /**
 370:Generated_Source\PSoC6\pdl\drivers\peripheral\scb/cy_scb_common.h **** * I2C slave lost arbitration: the value driven on the SDA line is not the same
 371:Generated_Source\PSoC6\pdl\drivers\peripheral\scb/cy_scb_common.h **** * as the value observed on the SDA line
 372:Generated_Source\PSoC6\pdl\drivers\peripheral\scb/cy_scb_common.h **** */
 373:Generated_Source\PSoC6\pdl\drivers\peripheral\scb/cy_scb_common.h **** #define CY_SCB_SLAVE_INTR_I2C_ARB_LOST      SCB_INTR_S_I2C_ARB_LOST_Msk
 374:Generated_Source\PSoC6\pdl\drivers\peripheral\scb/cy_scb_common.h **** 
 375:Generated_Source\PSoC6\pdl\drivers\peripheral\scb/cy_scb_common.h **** /** The I2C slave received a NAK */
 376:Generated_Source\PSoC6\pdl\drivers\peripheral\scb/cy_scb_common.h **** #define CY_SCB_SLAVE_INTR_I2C_NACK          SCB_INTR_S_I2C_NACK_Msk
 377:Generated_Source\PSoC6\pdl\drivers\peripheral\scb/cy_scb_common.h **** 
 378:Generated_Source\PSoC6\pdl\drivers\peripheral\scb/cy_scb_common.h **** /** The I2C slave received  an ACK */
 379:Generated_Source\PSoC6\pdl\drivers\peripheral\scb/cy_scb_common.h **** #define CY_SCB_SLAVE_INTR_I2C_ACK           SCB_INTR_S_I2C_ACK_Msk
 380:Generated_Source\PSoC6\pdl\drivers\peripheral\scb/cy_scb_common.h **** 
 381:Generated_Source\PSoC6\pdl\drivers\peripheral\scb/cy_scb_common.h **** /**
 382:Generated_Source\PSoC6\pdl\drivers\peripheral\scb/cy_scb_common.h **** * A Stop or Repeated Start event for a write transfer intended for this slave
 383:Generated_Source\PSoC6\pdl\drivers\peripheral\scb/cy_scb_common.h **** * was detected.
 384:Generated_Source\PSoC6\pdl\drivers\peripheral\scb/cy_scb_common.h **** */
 385:Generated_Source\PSoC6\pdl\drivers\peripheral\scb/cy_scb_common.h **** #define CY_SCB_SLAVE_INTR_I2C_WRITE_STOP    SCB_INTR_S_I2C_WRITE_STOP_Msk
 386:Generated_Source\PSoC6\pdl\drivers\peripheral\scb/cy_scb_common.h **** 
 387:Generated_Source\PSoC6\pdl\drivers\peripheral\scb/cy_scb_common.h **** /** A Stop or Repeated Start event intended for this slave was detected */
 388:Generated_Source\PSoC6\pdl\drivers\peripheral\scb/cy_scb_common.h **** #define CY_SCB_SLAVE_INTR_I2C_STOP          SCB_INTR_S_I2C_STOP_Msk
 389:Generated_Source\PSoC6\pdl\drivers\peripheral\scb/cy_scb_common.h **** 
 390:Generated_Source\PSoC6\pdl\drivers\peripheral\scb/cy_scb_common.h **** /** The I2C slave received a Start condition */
 391:Generated_Source\PSoC6\pdl\drivers\peripheral\scb/cy_scb_common.h **** #define CY_SCB_SLAVE_INTR_I2C_START         SCB_INTR_S_I2C_START_Msk
 392:Generated_Source\PSoC6\pdl\drivers\peripheral\scb/cy_scb_common.h **** 
 393:Generated_Source\PSoC6\pdl\drivers\peripheral\scb/cy_scb_common.h **** /** The I2C slave received the matching address */
 394:Generated_Source\PSoC6\pdl\drivers\peripheral\scb/cy_scb_common.h **** #define CY_SCB_SLAVE_INTR_I2C_ADDR_MATCH    SCB_INTR_S_I2C_ADDR_MATCH_Msk
 395:Generated_Source\PSoC6\pdl\drivers\peripheral\scb/cy_scb_common.h **** 
 396:Generated_Source\PSoC6\pdl\drivers\peripheral\scb/cy_scb_common.h **** /** The I2C Slave received the general call address */
 397:Generated_Source\PSoC6\pdl\drivers\peripheral\scb/cy_scb_common.h **** #define CY_SCB_SLAVE_INTR_I2C_GENERAL_ADDR  SCB_INTR_S_I2C_GENERAL_Msk
 398:Generated_Source\PSoC6\pdl\drivers\peripheral\scb/cy_scb_common.h **** 
 399:Generated_Source\PSoC6\pdl\drivers\peripheral\scb/cy_scb_common.h **** /** The I2C slave bus error (detection of unexpected Start or Stop condition) */
 400:Generated_Source\PSoC6\pdl\drivers\peripheral\scb/cy_scb_common.h **** #define CY_SCB_SLAVE_INTR_I2C_BUS_ERROR     SCB_INTR_S_I2C_BUS_ERROR_Msk
 401:Generated_Source\PSoC6\pdl\drivers\peripheral\scb/cy_scb_common.h **** 
 402:Generated_Source\PSoC6\pdl\drivers\peripheral\scb/cy_scb_common.h **** /**
 403:Generated_Source\PSoC6\pdl\drivers\peripheral\scb/cy_scb_common.h **** * The SPI slave select line is deselected at an expected time during an
 404:Generated_Source\PSoC6\pdl\drivers\peripheral\scb/cy_scb_common.h **** * SPI transfer.
 405:Generated_Source\PSoC6\pdl\drivers\peripheral\scb/cy_scb_common.h **** */
 406:Generated_Source\PSoC6\pdl\drivers\peripheral\scb/cy_scb_common.h **** #define CY_SCB_SLAVE_INTR_SPI_BUS_ERROR     SCB_INTR_S_SPI_BUS_ERROR_Msk
 407:Generated_Source\PSoC6\pdl\drivers\peripheral\scb/cy_scb_common.h **** /** \} group_scb_common_macros_slave_intr */
 408:Generated_Source\PSoC6\pdl\drivers\peripheral\scb/cy_scb_common.h **** 
ARM GAS  C:\Users\pearlstl\AppData\Local\Temp\ccAUXqAU.s 			page 36


 409:Generated_Source\PSoC6\pdl\drivers\peripheral\scb/cy_scb_common.h **** /**
 410:Generated_Source\PSoC6\pdl\drivers\peripheral\scb/cy_scb_common.h **** * \defgroup group_scb_common_macros_master_intr Master Interrupt Statuses
 411:Generated_Source\PSoC6\pdl\drivers\peripheral\scb/cy_scb_common.h **** * \{
 412:Generated_Source\PSoC6\pdl\drivers\peripheral\scb/cy_scb_common.h **** */
 413:Generated_Source\PSoC6\pdl\drivers\peripheral\scb/cy_scb_common.h **** /** The I2C master lost arbitration */
 414:Generated_Source\PSoC6\pdl\drivers\peripheral\scb/cy_scb_common.h **** #define CY_SCB_MASTER_INTR_I2C_ARB_LOST    SCB_INTR_M_I2C_ARB_LOST_Msk
 415:Generated_Source\PSoC6\pdl\drivers\peripheral\scb/cy_scb_common.h **** 
 416:Generated_Source\PSoC6\pdl\drivers\peripheral\scb/cy_scb_common.h **** /** The I2C master received a NACK */
 417:Generated_Source\PSoC6\pdl\drivers\peripheral\scb/cy_scb_common.h **** #define CY_SCB_MASTER_INTR_I2C_NACK        SCB_INTR_M_I2C_NACK_Msk
 418:Generated_Source\PSoC6\pdl\drivers\peripheral\scb/cy_scb_common.h **** 
 419:Generated_Source\PSoC6\pdl\drivers\peripheral\scb/cy_scb_common.h **** /** The I2C master received an ACK */
 420:Generated_Source\PSoC6\pdl\drivers\peripheral\scb/cy_scb_common.h **** #define CY_SCB_MASTER_INTR_I2C_ACK         SCB_INTR_M_I2C_ACK_Msk
 421:Generated_Source\PSoC6\pdl\drivers\peripheral\scb/cy_scb_common.h **** 
 422:Generated_Source\PSoC6\pdl\drivers\peripheral\scb/cy_scb_common.h **** /** The I2C master generated a Stop */
 423:Generated_Source\PSoC6\pdl\drivers\peripheral\scb/cy_scb_common.h **** #define CY_SCB_MASTER_INTR_I2C_STOP        SCB_INTR_M_I2C_STOP_Msk
 424:Generated_Source\PSoC6\pdl\drivers\peripheral\scb/cy_scb_common.h **** 
 425:Generated_Source\PSoC6\pdl\drivers\peripheral\scb/cy_scb_common.h **** /** The I2C master bus error (detection of unexpected START or STOP condition)
 426:Generated_Source\PSoC6\pdl\drivers\peripheral\scb/cy_scb_common.h **** */
 427:Generated_Source\PSoC6\pdl\drivers\peripheral\scb/cy_scb_common.h **** #define CY_SCB_MASTER_INTR_I2C_BUS_ERROR   SCB_INTR_M_I2C_BUS_ERROR_Msk
 428:Generated_Source\PSoC6\pdl\drivers\peripheral\scb/cy_scb_common.h **** 
 429:Generated_Source\PSoC6\pdl\drivers\peripheral\scb/cy_scb_common.h **** /**
 430:Generated_Source\PSoC6\pdl\drivers\peripheral\scb/cy_scb_common.h **** * The SPI master transfer is complete: all data elements transferred from the
 431:Generated_Source\PSoC6\pdl\drivers\peripheral\scb/cy_scb_common.h **** * TX FIFO and TX shift register.
 432:Generated_Source\PSoC6\pdl\drivers\peripheral\scb/cy_scb_common.h **** */
 433:Generated_Source\PSoC6\pdl\drivers\peripheral\scb/cy_scb_common.h **** #define CY_SCB_MASTER_INTR_SPI_DONE        SCB_INTR_M_SPI_DONE_Msk
 434:Generated_Source\PSoC6\pdl\drivers\peripheral\scb/cy_scb_common.h **** /** \} group_scb_common_macros_master_intr */
 435:Generated_Source\PSoC6\pdl\drivers\peripheral\scb/cy_scb_common.h **** 
 436:Generated_Source\PSoC6\pdl\drivers\peripheral\scb/cy_scb_common.h **** /**
 437:Generated_Source\PSoC6\pdl\drivers\peripheral\scb/cy_scb_common.h **** * \defgroup group_scb_common_macros_i2c_intr I2C Interrupt Statuses
 438:Generated_Source\PSoC6\pdl\drivers\peripheral\scb/cy_scb_common.h **** * \{
 439:Generated_Source\PSoC6\pdl\drivers\peripheral\scb/cy_scb_common.h **** */
 440:Generated_Source\PSoC6\pdl\drivers\peripheral\scb/cy_scb_common.h **** /**
 441:Generated_Source\PSoC6\pdl\drivers\peripheral\scb/cy_scb_common.h **** * Wake up request: the I2C slave received the matching address.
 442:Generated_Source\PSoC6\pdl\drivers\peripheral\scb/cy_scb_common.h **** * Note that this interrupt source triggers in active mode.
 443:Generated_Source\PSoC6\pdl\drivers\peripheral\scb/cy_scb_common.h **** */
 444:Generated_Source\PSoC6\pdl\drivers\peripheral\scb/cy_scb_common.h **** #define CY_SCB_I2C_INTR_WAKEUP     SCB_INTR_I2C_EC_WAKE_UP_Msk
 445:Generated_Source\PSoC6\pdl\drivers\peripheral\scb/cy_scb_common.h **** /** \} group_scb_common_macros_i2c_intr */
 446:Generated_Source\PSoC6\pdl\drivers\peripheral\scb/cy_scb_common.h **** 
 447:Generated_Source\PSoC6\pdl\drivers\peripheral\scb/cy_scb_common.h **** /**
 448:Generated_Source\PSoC6\pdl\drivers\peripheral\scb/cy_scb_common.h **** * \defgroup group_scb_common_macros_SpiIntrStatuses SPI Interrupt Statuses
 449:Generated_Source\PSoC6\pdl\drivers\peripheral\scb/cy_scb_common.h **** * \{
 450:Generated_Source\PSoC6\pdl\drivers\peripheral\scb/cy_scb_common.h **** */
 451:Generated_Source\PSoC6\pdl\drivers\peripheral\scb/cy_scb_common.h **** /**
 452:Generated_Source\PSoC6\pdl\drivers\peripheral\scb/cy_scb_common.h **** * Wake up request: the SPI slave detects an active edge of the slave select
 453:Generated_Source\PSoC6\pdl\drivers\peripheral\scb/cy_scb_common.h **** * signal. Note that this interrupt source triggers in active mode.
 454:Generated_Source\PSoC6\pdl\drivers\peripheral\scb/cy_scb_common.h **** */
 455:Generated_Source\PSoC6\pdl\drivers\peripheral\scb/cy_scb_common.h **** #define CY_SCB_SPI_INTR_WAKEUP     SCB_INTR_SPI_EC_WAKE_UP_Msk
 456:Generated_Source\PSoC6\pdl\drivers\peripheral\scb/cy_scb_common.h **** /** \} group_scb_common_macros_SpiIntrStatuses */
 457:Generated_Source\PSoC6\pdl\drivers\peripheral\scb/cy_scb_common.h **** 
 458:Generated_Source\PSoC6\pdl\drivers\peripheral\scb/cy_scb_common.h **** 
 459:Generated_Source\PSoC6\pdl\drivers\peripheral\scb/cy_scb_common.h **** /*******************************************************************************
 460:Generated_Source\PSoC6\pdl\drivers\peripheral\scb/cy_scb_common.h **** *                           Internal Constants
 461:Generated_Source\PSoC6\pdl\drivers\peripheral\scb/cy_scb_common.h **** *******************************************************************************/
 462:Generated_Source\PSoC6\pdl\drivers\peripheral\scb/cy_scb_common.h **** 
 463:Generated_Source\PSoC6\pdl\drivers\peripheral\scb/cy_scb_common.h **** /** \cond INTERNAL */
 464:Generated_Source\PSoC6\pdl\drivers\peripheral\scb/cy_scb_common.h **** 
 465:Generated_Source\PSoC6\pdl\drivers\peripheral\scb/cy_scb_common.h **** /* Default registers values */
ARM GAS  C:\Users\pearlstl\AppData\Local\Temp\ccAUXqAU.s 			page 37


 466:Generated_Source\PSoC6\pdl\drivers\peripheral\scb/cy_scb_common.h **** #define CY_SCB_CTRL_DEF_VAL         (_VAL2FLD(SCB_CTRL_OVS, 15UL) | \
 467:Generated_Source\PSoC6\pdl\drivers\peripheral\scb/cy_scb_common.h ****                                      _VAL2FLD(SCB_CTRL_MODE, 3UL))
 468:Generated_Source\PSoC6\pdl\drivers\peripheral\scb/cy_scb_common.h **** 
 469:Generated_Source\PSoC6\pdl\drivers\peripheral\scb/cy_scb_common.h **** #define CY_SCB_I2C_CTRL_DEF_VAL     (_VAL2FLD(SCB_I2C_CTRL_HIGH_PHASE_OVS, 8UL)        | \
 470:Generated_Source\PSoC6\pdl\drivers\peripheral\scb/cy_scb_common.h ****                                      _VAL2FLD(SCB_I2C_CTRL_HIGH_PHASE_OVS, 8UL)        | \
 471:Generated_Source\PSoC6\pdl\drivers\peripheral\scb/cy_scb_common.h ****                                      _VAL2FLD(SCB_I2C_CTRL_M_READY_DATA_ACK, 1UL)      | \
 472:Generated_Source\PSoC6\pdl\drivers\peripheral\scb/cy_scb_common.h ****                                      _VAL2FLD(SCB_I2C_CTRL_M_NOT_READY_DATA_NACK, 1UL) | \
 473:Generated_Source\PSoC6\pdl\drivers\peripheral\scb/cy_scb_common.h ****                                      _VAL2FLD(SCB_I2C_CTRL_S_GENERAL_IGNORE, 1UL)      | \
 474:Generated_Source\PSoC6\pdl\drivers\peripheral\scb/cy_scb_common.h ****                                      _VAL2FLD(SCB_I2C_CTRL_S_READY_ADDR_ACK, 1UL)      | \
 475:Generated_Source\PSoC6\pdl\drivers\peripheral\scb/cy_scb_common.h ****                                      _VAL2FLD(SCB_I2C_CTRL_S_READY_DATA_ACK, 1UL)      | \
 476:Generated_Source\PSoC6\pdl\drivers\peripheral\scb/cy_scb_common.h ****                                      _VAL2FLD(SCB_I2C_CTRL_S_NOT_READY_ADDR_NACK, 1UL) | \
 477:Generated_Source\PSoC6\pdl\drivers\peripheral\scb/cy_scb_common.h ****                                      _VAL2FLD(SCB_I2C_CTRL_S_NOT_READY_DATA_NACK, 1UL))
 478:Generated_Source\PSoC6\pdl\drivers\peripheral\scb/cy_scb_common.h **** 
 479:Generated_Source\PSoC6\pdl\drivers\peripheral\scb/cy_scb_common.h **** #define CY_SCB_I2C_CFG_DEF_VAL      (_VAL2FLD(SCB_I2C_CFG_SDA_IN_FILT_TRIM, 3UL)   | \
 480:Generated_Source\PSoC6\pdl\drivers\peripheral\scb/cy_scb_common.h ****                                      _VAL2FLD(SCB_I2C_CFG_SDA_IN_FILT_SEL, 1UL)    | \
 481:Generated_Source\PSoC6\pdl\drivers\peripheral\scb/cy_scb_common.h ****                                      _VAL2FLD(SCB_I2C_CFG_SCL_IN_FILT_SEL, 1UL)    | \
 482:Generated_Source\PSoC6\pdl\drivers\peripheral\scb/cy_scb_common.h ****                                      _VAL2FLD(SCB_I2C_CFG_SDA_OUT_FILT0_TRIM, 2UL) | \
 483:Generated_Source\PSoC6\pdl\drivers\peripheral\scb/cy_scb_common.h ****                                      _VAL2FLD(SCB_I2C_CFG_SDA_OUT_FILT1_TRIM, 2UL) | \
 484:Generated_Source\PSoC6\pdl\drivers\peripheral\scb/cy_scb_common.h ****                                      _VAL2FLD(SCB_I2C_CFG_SDA_OUT_FILT2_TRIM, 2UL))
 485:Generated_Source\PSoC6\pdl\drivers\peripheral\scb/cy_scb_common.h **** 
 486:Generated_Source\PSoC6\pdl\drivers\peripheral\scb/cy_scb_common.h **** #define CY_SCB_SPI_CTRL_DEF_VAL     _VAL2FLD(SCB_SPI_CTRL_MODE, 3UL)
 487:Generated_Source\PSoC6\pdl\drivers\peripheral\scb/cy_scb_common.h **** #define CY_SCB_UART_CTRL_DEF_VAL    _VAL2FLD(SCB_UART_CTRL_MODE, 3UL)
 488:Generated_Source\PSoC6\pdl\drivers\peripheral\scb/cy_scb_common.h **** 
 489:Generated_Source\PSoC6\pdl\drivers\peripheral\scb/cy_scb_common.h **** #define CY_SCB_UART_RX_CTRL_DEF_VAL (_VAL2FLD(SCB_UART_RX_CTRL_STOP_BITS, 2UL) | \
 490:Generated_Source\PSoC6\pdl\drivers\peripheral\scb/cy_scb_common.h ****                                      _VAL2FLD(SCB_UART_RX_CTRL_BREAK_WIDTH, 10UL))
 491:Generated_Source\PSoC6\pdl\drivers\peripheral\scb/cy_scb_common.h **** 
 492:Generated_Source\PSoC6\pdl\drivers\peripheral\scb/cy_scb_common.h **** #define CY_SCB_UART_TX_CTRL_DEF_VAL _VAL2FLD(SCB_UART_TX_CTRL_STOP_BITS, 2UL)
 493:Generated_Source\PSoC6\pdl\drivers\peripheral\scb/cy_scb_common.h **** 
 494:Generated_Source\PSoC6\pdl\drivers\peripheral\scb/cy_scb_common.h **** #define CY_SCB_RX_CTRL_DEF_VAL      (_VAL2FLD(SCB_RX_CTRL_DATA_WIDTH, 7UL) | \
 495:Generated_Source\PSoC6\pdl\drivers\peripheral\scb/cy_scb_common.h ****                                      _VAL2FLD(SCB_RX_CTRL_MSB_FIRST,  1UL))
 496:Generated_Source\PSoC6\pdl\drivers\peripheral\scb/cy_scb_common.h **** 
 497:Generated_Source\PSoC6\pdl\drivers\peripheral\scb/cy_scb_common.h **** #define CY_SCB_TX_CTRL_DEF_VAL      (_VAL2FLD(SCB_TX_CTRL_DATA_WIDTH, 7UL) | \
 498:Generated_Source\PSoC6\pdl\drivers\peripheral\scb/cy_scb_common.h ****                                      _VAL2FLD(SCB_TX_CTRL_MSB_FIRST,  1UL))
 499:Generated_Source\PSoC6\pdl\drivers\peripheral\scb/cy_scb_common.h **** 
 500:Generated_Source\PSoC6\pdl\drivers\peripheral\scb/cy_scb_common.h **** /* SCB CTRL modes */
 501:Generated_Source\PSoC6\pdl\drivers\peripheral\scb/cy_scb_common.h **** #define CY_SCB_CTRL_MODE_I2C   (0UL)
 502:Generated_Source\PSoC6\pdl\drivers\peripheral\scb/cy_scb_common.h **** #define CY_SCB_CTRL_MODE_SPI   (1UL)
 503:Generated_Source\PSoC6\pdl\drivers\peripheral\scb/cy_scb_common.h **** #define CY_SCB_CTRL_MODE_UART  (2UL)
 504:Generated_Source\PSoC6\pdl\drivers\peripheral\scb/cy_scb_common.h **** 
 505:Generated_Source\PSoC6\pdl\drivers\peripheral\scb/cy_scb_common.h **** /* The position and mask to set the I2C mode */
 506:Generated_Source\PSoC6\pdl\drivers\peripheral\scb/cy_scb_common.h **** #define CY_SCB_I2C_CTRL_MODE_Pos    SCB_I2C_CTRL_SLAVE_MODE_Pos
 507:Generated_Source\PSoC6\pdl\drivers\peripheral\scb/cy_scb_common.h **** #define CY_SCB_I2C_CTRL_MODE_Msk    (SCB_I2C_CTRL_SLAVE_MODE_Msk | \
 508:Generated_Source\PSoC6\pdl\drivers\peripheral\scb/cy_scb_common.h ****                                      SCB_I2C_CTRL_MASTER_MODE_Msk)
 509:Generated_Source\PSoC6\pdl\drivers\peripheral\scb/cy_scb_common.h **** 
 510:Generated_Source\PSoC6\pdl\drivers\peripheral\scb/cy_scb_common.h **** /* Cypress ID #282226:
 511:Generated_Source\PSoC6\pdl\drivers\peripheral\scb/cy_scb_common.h **** * SCB_I2C_CFG_SDA_IN_FILT_TRIM[1]: SCB clock enable (1), clock disable (0).
 512:Generated_Source\PSoC6\pdl\drivers\peripheral\scb/cy_scb_common.h **** */
 513:Generated_Source\PSoC6\pdl\drivers\peripheral\scb/cy_scb_common.h **** #define CY_SCB_I2C_CFG_CLK_ENABLE_Msk  (_VAL2FLD(SCB_I2C_CFG_SDA_IN_FILT_TRIM, 2UL))
 514:Generated_Source\PSoC6\pdl\drivers\peripheral\scb/cy_scb_common.h **** 
 515:Generated_Source\PSoC6\pdl\drivers\peripheral\scb/cy_scb_common.h **** /* I2C has fixed data width */
 516:Generated_Source\PSoC6\pdl\drivers\peripheral\scb/cy_scb_common.h **** #define CY_SCB_I2C_DATA_WIDTH   (7UL)
 517:Generated_Source\PSoC6\pdl\drivers\peripheral\scb/cy_scb_common.h **** 
 518:Generated_Source\PSoC6\pdl\drivers\peripheral\scb/cy_scb_common.h **** /* RX and TX control register values */
 519:Generated_Source\PSoC6\pdl\drivers\peripheral\scb/cy_scb_common.h **** #define CY_SCB_I2C_RX_CTRL      (_VAL2FLD(SCB_RX_CTRL_DATA_WIDTH, CY_SCB_I2C_DATA_WIDTH) | \
 520:Generated_Source\PSoC6\pdl\drivers\peripheral\scb/cy_scb_common.h ****                                  SCB_RX_CTRL_MSB_FIRST_Msk)
 521:Generated_Source\PSoC6\pdl\drivers\peripheral\scb/cy_scb_common.h **** #define CY_SCB_I2C_TX_CTRL      (_VAL2FLD(SCB_TX_CTRL_DATA_WIDTH, CY_SCB_I2C_DATA_WIDTH) | \
 522:Generated_Source\PSoC6\pdl\drivers\peripheral\scb/cy_scb_common.h ****                                  SCB_TX_CTRL_MSB_FIRST_Msk | SCB_TX_CTRL_OPEN_DRAIN_Msk)
ARM GAS  C:\Users\pearlstl\AppData\Local\Temp\ccAUXqAU.s 			page 38


 523:Generated_Source\PSoC6\pdl\drivers\peripheral\scb/cy_scb_common.h **** 
 524:Generated_Source\PSoC6\pdl\drivers\peripheral\scb/cy_scb_common.h **** /* The position and mask to make an address byte */
 525:Generated_Source\PSoC6\pdl\drivers\peripheral\scb/cy_scb_common.h **** #define CY_SCB_I2C_ADDRESS_Pos  (1UL)
 526:Generated_Source\PSoC6\pdl\drivers\peripheral\scb/cy_scb_common.h **** #define CY_SCB_I2C_ADDRESS_Msk  (0xFEUL)
 527:Generated_Source\PSoC6\pdl\drivers\peripheral\scb/cy_scb_common.h **** 
 528:Generated_Source\PSoC6\pdl\drivers\peripheral\scb/cy_scb_common.h **** /* SPI slave select polarity */
 529:Generated_Source\PSoC6\pdl\drivers\peripheral\scb/cy_scb_common.h **** #define CY_SCB_SPI_CTRL_SSEL_POLARITY_Pos   SCB_SPI_CTRL_SSEL_POLARITY0_Pos
 530:Generated_Source\PSoC6\pdl\drivers\peripheral\scb/cy_scb_common.h **** #define CY_SCB_SPI_CTRL_SSEL_POLARITY_Msk   (SCB_SPI_CTRL_SSEL_POLARITY0_Msk | \
 531:Generated_Source\PSoC6\pdl\drivers\peripheral\scb/cy_scb_common.h ****                                              SCB_SPI_CTRL_SSEL_POLARITY1_Msk | \
 532:Generated_Source\PSoC6\pdl\drivers\peripheral\scb/cy_scb_common.h ****                                              SCB_SPI_CTRL_SSEL_POLARITY2_Msk | \
 533:Generated_Source\PSoC6\pdl\drivers\peripheral\scb/cy_scb_common.h ****                                              SCB_SPI_CTRL_SSEL_POLARITY3_Msk)
 534:Generated_Source\PSoC6\pdl\drivers\peripheral\scb/cy_scb_common.h **** 
 535:Generated_Source\PSoC6\pdl\drivers\peripheral\scb/cy_scb_common.h **** /* SPI clock modes: CPHA and CPOL */
 536:Generated_Source\PSoC6\pdl\drivers\peripheral\scb/cy_scb_common.h **** #define CY_SCB_SPI_CTRL_CLK_MODE_Pos    SCB_SPI_CTRL_CPHA_Pos
 537:Generated_Source\PSoC6\pdl\drivers\peripheral\scb/cy_scb_common.h **** #define CY_SCB_SPI_CTRL_CLK_MODE_Msk    (SCB_SPI_CTRL_CPHA_Msk | SCB_SPI_CTRL_CPOL_Msk)
 538:Generated_Source\PSoC6\pdl\drivers\peripheral\scb/cy_scb_common.h **** 
 539:Generated_Source\PSoC6\pdl\drivers\peripheral\scb/cy_scb_common.h **** /* UART parity and parity enable combination */
 540:Generated_Source\PSoC6\pdl\drivers\peripheral\scb/cy_scb_common.h **** #define CY_SCB_UART_RX_CTRL_SET_PARITY_Msk      (SCB_UART_RX_CTRL_PARITY_ENABLED_Msk | \
 541:Generated_Source\PSoC6\pdl\drivers\peripheral\scb/cy_scb_common.h ****                                                  SCB_UART_RX_CTRL_PARITY_Msk)
 542:Generated_Source\PSoC6\pdl\drivers\peripheral\scb/cy_scb_common.h **** #define CY_SCB_UART_RX_CTRL_SET_PARITY_Pos      SCB_UART_RX_CTRL_PARITY_Pos
 543:Generated_Source\PSoC6\pdl\drivers\peripheral\scb/cy_scb_common.h **** 
 544:Generated_Source\PSoC6\pdl\drivers\peripheral\scb/cy_scb_common.h **** #define CY_SCB_UART_TX_CTRL_SET_PARITY_Msk      (SCB_UART_TX_CTRL_PARITY_ENABLED_Msk | \
 545:Generated_Source\PSoC6\pdl\drivers\peripheral\scb/cy_scb_common.h ****                                                  SCB_UART_TX_CTRL_PARITY_Msk)
 546:Generated_Source\PSoC6\pdl\drivers\peripheral\scb/cy_scb_common.h **** #define CY_SCB_UART_TX_CTRL_SET_PARITY_Pos      SCB_UART_TX_CTRL_PARITY_Pos
 547:Generated_Source\PSoC6\pdl\drivers\peripheral\scb/cy_scb_common.h **** 
 548:Generated_Source\PSoC6\pdl\drivers\peripheral\scb/cy_scb_common.h **** /* Max number of bits for byte mode */
 549:Generated_Source\PSoC6\pdl\drivers\peripheral\scb/cy_scb_common.h **** #define CY_SCB_BYTE_WIDTH   (8UL)
 550:Generated_Source\PSoC6\pdl\drivers\peripheral\scb/cy_scb_common.h **** 
 551:Generated_Source\PSoC6\pdl\drivers\peripheral\scb/cy_scb_common.h **** /* Single unit to wait */
 552:Generated_Source\PSoC6\pdl\drivers\peripheral\scb/cy_scb_common.h **** #define CY_SCB_WAIT_1_UNIT  (1U)
 553:Generated_Source\PSoC6\pdl\drivers\peripheral\scb/cy_scb_common.h **** 
 554:Generated_Source\PSoC6\pdl\drivers\peripheral\scb/cy_scb_common.h **** /* Clear interrupt sources */
 555:Generated_Source\PSoC6\pdl\drivers\peripheral\scb/cy_scb_common.h **** #define CY_SCB_CLEAR_ALL_INTR_SRC   (0UL)
 556:Generated_Source\PSoC6\pdl\drivers\peripheral\scb/cy_scb_common.h **** 
 557:Generated_Source\PSoC6\pdl\drivers\peripheral\scb/cy_scb_common.h **** /* Hardware FIFO size: EZ_DATA_NR / 4 = (512 / 4) = 128 */
 558:Generated_Source\PSoC6\pdl\drivers\peripheral\scb/cy_scb_common.h **** #define CY_SCB_FIFO_SIZE            (128UL)
 559:Generated_Source\PSoC6\pdl\drivers\peripheral\scb/cy_scb_common.h **** 
 560:Generated_Source\PSoC6\pdl\drivers\peripheral\scb/cy_scb_common.h **** /* Provides a list of allowed sources */
 561:Generated_Source\PSoC6\pdl\drivers\peripheral\scb/cy_scb_common.h **** #define CY_SCB_TX_INTR_MASK     (CY_SCB_TX_INTR_LEVEL     | CY_SCB_TX_INTR_NOT_FULL  | CY_SCB_TX_IN
 562:Generated_Source\PSoC6\pdl\drivers\peripheral\scb/cy_scb_common.h ****                                  CY_SCB_TX_INTR_OVERFLOW  | CY_SCB_TX_INTR_UNDERFLOW | CY_SCB_TX_IN
 563:Generated_Source\PSoC6\pdl\drivers\peripheral\scb/cy_scb_common.h ****                                  CY_SCB_TX_INTR_UART_NACK | CY_SCB_TX_INTR_UART_ARB_LOST)
 564:Generated_Source\PSoC6\pdl\drivers\peripheral\scb/cy_scb_common.h **** 
 565:Generated_Source\PSoC6\pdl\drivers\peripheral\scb/cy_scb_common.h **** #define CY_SCB_RX_INTR_MASK     (CY_SCB_RX_INTR_LEVEL             | CY_SCB_RX_INTR_NOT_EMPTY | CY_S
 566:Generated_Source\PSoC6\pdl\drivers\peripheral\scb/cy_scb_common.h ****                                  CY_SCB_RX_INTR_OVERFLOW          | CY_SCB_RX_INTR_UNDERFLOW       
 567:Generated_Source\PSoC6\pdl\drivers\peripheral\scb/cy_scb_common.h ****                                  CY_SCB_RX_INTR_UART_FRAME_ERROR  | CY_SCB_RX_INTR_UART_PARITY_ERRO
 568:Generated_Source\PSoC6\pdl\drivers\peripheral\scb/cy_scb_common.h ****                                  CY_SCB_RX_INTR_UART_BREAK_DETECT)
 569:Generated_Source\PSoC6\pdl\drivers\peripheral\scb/cy_scb_common.h **** 
 570:Generated_Source\PSoC6\pdl\drivers\peripheral\scb/cy_scb_common.h **** 
 571:Generated_Source\PSoC6\pdl\drivers\peripheral\scb/cy_scb_common.h **** #define CY_SCB_SLAVE_INTR_MASK  (CY_SCB_SLAVE_INTR_I2C_ARB_LOST   | CY_SCB_SLAVE_INTR_I2C_NACK | CY
 572:Generated_Source\PSoC6\pdl\drivers\peripheral\scb/cy_scb_common.h ****                                  CY_SCB_SLAVE_INTR_I2C_WRITE_STOP | CY_SCB_SLAVE_INTR_I2C_STOP | CY
 573:Generated_Source\PSoC6\pdl\drivers\peripheral\scb/cy_scb_common.h ****                                  CY_SCB_SLAVE_INTR_I2C_ADDR_MATCH | CY_SCB_SLAVE_INTR_I2C_GENERAL_A
 574:Generated_Source\PSoC6\pdl\drivers\peripheral\scb/cy_scb_common.h ****                                  CY_SCB_SLAVE_INTR_I2C_BUS_ERROR  | CY_SCB_SLAVE_INTR_SPI_BUS_ERROR
 575:Generated_Source\PSoC6\pdl\drivers\peripheral\scb/cy_scb_common.h **** 
 576:Generated_Source\PSoC6\pdl\drivers\peripheral\scb/cy_scb_common.h **** #define CY_SCB_MASTER_INTR_MASK (CY_SCB_MASTER_INTR_I2C_ARB_LOST  | CY_SCB_MASTER_INTR_I2C_NACK | \
 577:Generated_Source\PSoC6\pdl\drivers\peripheral\scb/cy_scb_common.h ****                                  CY_SCB_MASTER_INTR_I2C_ACK       | CY_SCB_MASTER_INTR_I2C_STOP | \
 578:Generated_Source\PSoC6\pdl\drivers\peripheral\scb/cy_scb_common.h ****                                  CY_SCB_MASTER_INTR_I2C_BUS_ERROR | CY_SCB_MASTER_INTR_SPI_DONE)
 579:Generated_Source\PSoC6\pdl\drivers\peripheral\scb/cy_scb_common.h **** 
ARM GAS  C:\Users\pearlstl\AppData\Local\Temp\ccAUXqAU.s 			page 39


 580:Generated_Source\PSoC6\pdl\drivers\peripheral\scb/cy_scb_common.h **** #define CY_SCB_I2C_INTR_MASK    CY_SCB_I2C_INTR_WAKEUP
 581:Generated_Source\PSoC6\pdl\drivers\peripheral\scb/cy_scb_common.h **** 
 582:Generated_Source\PSoC6\pdl\drivers\peripheral\scb/cy_scb_common.h **** #define CY_SCB_SPI_INTR_MASK    CY_SCB_SPI_INTR_WAKEUP
 583:Generated_Source\PSoC6\pdl\drivers\peripheral\scb/cy_scb_common.h **** 
 584:Generated_Source\PSoC6\pdl\drivers\peripheral\scb/cy_scb_common.h **** #define CY_SCB_IS_INTR_VALID(intr, mask)            ( 0UL == ((intr) & ((uint32_t) ~(mask))) )
 585:Generated_Source\PSoC6\pdl\drivers\peripheral\scb/cy_scb_common.h **** #define CY_SCB_IS_TRIGGER_LEVEL_VALID(base, level)  ((level) < Cy_SCB_GetFifoSize(base))
 586:Generated_Source\PSoC6\pdl\drivers\peripheral\scb/cy_scb_common.h **** 
 587:Generated_Source\PSoC6\pdl\drivers\peripheral\scb/cy_scb_common.h **** #define CY_SCB_IS_I2C_ADDR_VALID(addr)              ( (0U == ((addr) & 0x80U)) )
 588:Generated_Source\PSoC6\pdl\drivers\peripheral\scb/cy_scb_common.h **** #define CY_SCB_IS_BUFFER_VALID(buffer, size)        ( (NULL != (buffer)) && ((size) > 0UL) )
 589:Generated_Source\PSoC6\pdl\drivers\peripheral\scb/cy_scb_common.h **** #define CY_SCB_IS_I2C_BUFFER_VALID(buffer, size)    ( (0UL == (size)) ? true : (NULL != (buffer)) )
 590:Generated_Source\PSoC6\pdl\drivers\peripheral\scb/cy_scb_common.h **** /** \endcond */
 591:Generated_Source\PSoC6\pdl\drivers\peripheral\scb/cy_scb_common.h **** 
 592:Generated_Source\PSoC6\pdl\drivers\peripheral\scb/cy_scb_common.h **** /** \} group_scb_common_macros */
 593:Generated_Source\PSoC6\pdl\drivers\peripheral\scb/cy_scb_common.h **** 
 594:Generated_Source\PSoC6\pdl\drivers\peripheral\scb/cy_scb_common.h **** 
 595:Generated_Source\PSoC6\pdl\drivers\peripheral\scb/cy_scb_common.h **** /*******************************************************************************
 596:Generated_Source\PSoC6\pdl\drivers\peripheral\scb/cy_scb_common.h **** *                       In-line Function Implementation
 597:Generated_Source\PSoC6\pdl\drivers\peripheral\scb/cy_scb_common.h **** *******************************************************************************/
 598:Generated_Source\PSoC6\pdl\drivers\peripheral\scb/cy_scb_common.h **** 
 599:Generated_Source\PSoC6\pdl\drivers\peripheral\scb/cy_scb_common.h **** /**
 600:Generated_Source\PSoC6\pdl\drivers\peripheral\scb/cy_scb_common.h **** * \addtogroup group_scb_common_functions
 601:Generated_Source\PSoC6\pdl\drivers\peripheral\scb/cy_scb_common.h **** * \{
 602:Generated_Source\PSoC6\pdl\drivers\peripheral\scb/cy_scb_common.h **** */
 603:Generated_Source\PSoC6\pdl\drivers\peripheral\scb/cy_scb_common.h **** 
 604:Generated_Source\PSoC6\pdl\drivers\peripheral\scb/cy_scb_common.h **** /*******************************************************************************
 605:Generated_Source\PSoC6\pdl\drivers\peripheral\scb/cy_scb_common.h **** * Function Name: Cy_SCB_ReadRxFifo
 606:Generated_Source\PSoC6\pdl\drivers\peripheral\scb/cy_scb_common.h **** ****************************************************************************//**
 607:Generated_Source\PSoC6\pdl\drivers\peripheral\scb/cy_scb_common.h **** *
 608:Generated_Source\PSoC6\pdl\drivers\peripheral\scb/cy_scb_common.h **** * Reads a data element directly out of the RX FIFO.
 609:Generated_Source\PSoC6\pdl\drivers\peripheral\scb/cy_scb_common.h **** * This function does not check whether the RX FIFO has data before reading it.
 610:Generated_Source\PSoC6\pdl\drivers\peripheral\scb/cy_scb_common.h **** *
 611:Generated_Source\PSoC6\pdl\drivers\peripheral\scb/cy_scb_common.h **** * \param base
 612:Generated_Source\PSoC6\pdl\drivers\peripheral\scb/cy_scb_common.h **** * The pointer to the SCB instance.
 613:Generated_Source\PSoC6\pdl\drivers\peripheral\scb/cy_scb_common.h **** *
 614:Generated_Source\PSoC6\pdl\drivers\peripheral\scb/cy_scb_common.h **** * \return
 615:Generated_Source\PSoC6\pdl\drivers\peripheral\scb/cy_scb_common.h **** * Data from RX FIFO.
 616:Generated_Source\PSoC6\pdl\drivers\peripheral\scb/cy_scb_common.h **** *
 617:Generated_Source\PSoC6\pdl\drivers\peripheral\scb/cy_scb_common.h **** *******************************************************************************/
 618:Generated_Source\PSoC6\pdl\drivers\peripheral\scb/cy_scb_common.h **** __STATIC_INLINE uint32_t Cy_SCB_ReadRxFifo(CySCB_Type const *base)
 619:Generated_Source\PSoC6\pdl\drivers\peripheral\scb/cy_scb_common.h **** {
 620:Generated_Source\PSoC6\pdl\drivers\peripheral\scb/cy_scb_common.h ****     return (SCB_RX_FIFO_RD(base));
 621:Generated_Source\PSoC6\pdl\drivers\peripheral\scb/cy_scb_common.h **** }
 622:Generated_Source\PSoC6\pdl\drivers\peripheral\scb/cy_scb_common.h **** 
 623:Generated_Source\PSoC6\pdl\drivers\peripheral\scb/cy_scb_common.h **** /*******************************************************************************
 624:Generated_Source\PSoC6\pdl\drivers\peripheral\scb/cy_scb_common.h **** * Function Name: Cy_SCB_SetRxFifoLevel
 625:Generated_Source\PSoC6\pdl\drivers\peripheral\scb/cy_scb_common.h **** ****************************************************************************//**
 626:Generated_Source\PSoC6\pdl\drivers\peripheral\scb/cy_scb_common.h **** *
 627:Generated_Source\PSoC6\pdl\drivers\peripheral\scb/cy_scb_common.h **** * Sets the RX FIFO level. When there are more data elements in the RX FIFO than
 628:Generated_Source\PSoC6\pdl\drivers\peripheral\scb/cy_scb_common.h **** * this level, the RX FIFO level interrupt is triggered.
 629:Generated_Source\PSoC6\pdl\drivers\peripheral\scb/cy_scb_common.h **** *
 630:Generated_Source\PSoC6\pdl\drivers\peripheral\scb/cy_scb_common.h **** * \param base
 631:Generated_Source\PSoC6\pdl\drivers\peripheral\scb/cy_scb_common.h **** * The pointer to the SCB instance.
 632:Generated_Source\PSoC6\pdl\drivers\peripheral\scb/cy_scb_common.h **** *
 633:Generated_Source\PSoC6\pdl\drivers\peripheral\scb/cy_scb_common.h **** * \param level
 634:Generated_Source\PSoC6\pdl\drivers\peripheral\scb/cy_scb_common.h **** * When there are more data elements in the FIFO than this level, the RX level
 635:Generated_Source\PSoC6\pdl\drivers\peripheral\scb/cy_scb_common.h **** * interrupt is triggered.
 636:Generated_Source\PSoC6\pdl\drivers\peripheral\scb/cy_scb_common.h **** *
ARM GAS  C:\Users\pearlstl\AppData\Local\Temp\ccAUXqAU.s 			page 40


 637:Generated_Source\PSoC6\pdl\drivers\peripheral\scb/cy_scb_common.h **** *******************************************************************************/
 638:Generated_Source\PSoC6\pdl\drivers\peripheral\scb/cy_scb_common.h **** __STATIC_INLINE void Cy_SCB_SetRxFifoLevel(CySCB_Type *base, uint32_t level)
 639:Generated_Source\PSoC6\pdl\drivers\peripheral\scb/cy_scb_common.h **** {
 640:Generated_Source\PSoC6\pdl\drivers\peripheral\scb/cy_scb_common.h ****     CY_ASSERT_L2(CY_SCB_IS_TRIGGER_LEVEL_VALID(base, level));
 641:Generated_Source\PSoC6\pdl\drivers\peripheral\scb/cy_scb_common.h **** 
 642:Generated_Source\PSoC6\pdl\drivers\peripheral\scb/cy_scb_common.h ****     CY_REG32_CLR_SET(SCB_RX_FIFO_CTRL(base), SCB_RX_FIFO_CTRL_TRIGGER_LEVEL, level);
 643:Generated_Source\PSoC6\pdl\drivers\peripheral\scb/cy_scb_common.h **** }
 644:Generated_Source\PSoC6\pdl\drivers\peripheral\scb/cy_scb_common.h **** 
 645:Generated_Source\PSoC6\pdl\drivers\peripheral\scb/cy_scb_common.h **** 
 646:Generated_Source\PSoC6\pdl\drivers\peripheral\scb/cy_scb_common.h **** /*******************************************************************************
 647:Generated_Source\PSoC6\pdl\drivers\peripheral\scb/cy_scb_common.h **** * Function Name: Cy_SCB_GetNumInRxFifo
 648:Generated_Source\PSoC6\pdl\drivers\peripheral\scb/cy_scb_common.h **** ****************************************************************************//**
 649:Generated_Source\PSoC6\pdl\drivers\peripheral\scb/cy_scb_common.h **** *
 650:Generated_Source\PSoC6\pdl\drivers\peripheral\scb/cy_scb_common.h **** * Returns the number of data elements currently in the RX FIFO.
 651:Generated_Source\PSoC6\pdl\drivers\peripheral\scb/cy_scb_common.h **** *
 652:Generated_Source\PSoC6\pdl\drivers\peripheral\scb/cy_scb_common.h **** * \param base
 653:Generated_Source\PSoC6\pdl\drivers\peripheral\scb/cy_scb_common.h **** * The pointer to the SCB instance.
 654:Generated_Source\PSoC6\pdl\drivers\peripheral\scb/cy_scb_common.h **** *
 655:Generated_Source\PSoC6\pdl\drivers\peripheral\scb/cy_scb_common.h **** * \return
 656:Generated_Source\PSoC6\pdl\drivers\peripheral\scb/cy_scb_common.h **** * The number or data elements in RX FIFO.
 657:Generated_Source\PSoC6\pdl\drivers\peripheral\scb/cy_scb_common.h **** *
 658:Generated_Source\PSoC6\pdl\drivers\peripheral\scb/cy_scb_common.h **** *******************************************************************************/
 659:Generated_Source\PSoC6\pdl\drivers\peripheral\scb/cy_scb_common.h **** __STATIC_INLINE uint32_t Cy_SCB_GetNumInRxFifo(CySCB_Type const *base)
 660:Generated_Source\PSoC6\pdl\drivers\peripheral\scb/cy_scb_common.h **** {
 661:Generated_Source\PSoC6\pdl\drivers\peripheral\scb/cy_scb_common.h ****     return _FLD2VAL(SCB_RX_FIFO_STATUS_USED, SCB_RX_FIFO_STATUS(base));
 662:Generated_Source\PSoC6\pdl\drivers\peripheral\scb/cy_scb_common.h **** }
 663:Generated_Source\PSoC6\pdl\drivers\peripheral\scb/cy_scb_common.h **** 
 664:Generated_Source\PSoC6\pdl\drivers\peripheral\scb/cy_scb_common.h **** 
 665:Generated_Source\PSoC6\pdl\drivers\peripheral\scb/cy_scb_common.h **** /*******************************************************************************
 666:Generated_Source\PSoC6\pdl\drivers\peripheral\scb/cy_scb_common.h **** * Function Name: Cy_SCB_GetRxSrValid
 667:Generated_Source\PSoC6\pdl\drivers\peripheral\scb/cy_scb_common.h **** ****************************************************************************//**
 668:Generated_Source\PSoC6\pdl\drivers\peripheral\scb/cy_scb_common.h **** *
 669:Generated_Source\PSoC6\pdl\drivers\peripheral\scb/cy_scb_common.h **** * Returns the status of the RX FIFO Shift Register valid bit.
 670:Generated_Source\PSoC6\pdl\drivers\peripheral\scb/cy_scb_common.h **** *
 671:Generated_Source\PSoC6\pdl\drivers\peripheral\scb/cy_scb_common.h **** * \param base
 672:Generated_Source\PSoC6\pdl\drivers\peripheral\scb/cy_scb_common.h **** * The pointer to the SCB instance.
 673:Generated_Source\PSoC6\pdl\drivers\peripheral\scb/cy_scb_common.h **** *
 674:Generated_Source\PSoC6\pdl\drivers\peripheral\scb/cy_scb_common.h **** * \return
 675:Generated_Source\PSoC6\pdl\drivers\peripheral\scb/cy_scb_common.h **** * 1 - RX shift register valid; 0 - RX shift register not valid.
 676:Generated_Source\PSoC6\pdl\drivers\peripheral\scb/cy_scb_common.h **** *
 677:Generated_Source\PSoC6\pdl\drivers\peripheral\scb/cy_scb_common.h **** *******************************************************************************/
 678:Generated_Source\PSoC6\pdl\drivers\peripheral\scb/cy_scb_common.h **** __STATIC_INLINE uint32_t Cy_SCB_GetRxSrValid(CySCB_Type const *base)
 679:Generated_Source\PSoC6\pdl\drivers\peripheral\scb/cy_scb_common.h **** {
 680:Generated_Source\PSoC6\pdl\drivers\peripheral\scb/cy_scb_common.h ****     return _FLD2VAL(SCB_RX_FIFO_STATUS_SR_VALID, SCB_RX_FIFO_STATUS(base));
 681:Generated_Source\PSoC6\pdl\drivers\peripheral\scb/cy_scb_common.h **** }
 682:Generated_Source\PSoC6\pdl\drivers\peripheral\scb/cy_scb_common.h **** 
 683:Generated_Source\PSoC6\pdl\drivers\peripheral\scb/cy_scb_common.h **** 
 684:Generated_Source\PSoC6\pdl\drivers\peripheral\scb/cy_scb_common.h **** /*******************************************************************************
 685:Generated_Source\PSoC6\pdl\drivers\peripheral\scb/cy_scb_common.h **** * Function Name: Cy_SCB_ClearRxFifo
 686:Generated_Source\PSoC6\pdl\drivers\peripheral\scb/cy_scb_common.h **** ****************************************************************************//**
 687:Generated_Source\PSoC6\pdl\drivers\peripheral\scb/cy_scb_common.h **** *
 688:Generated_Source\PSoC6\pdl\drivers\peripheral\scb/cy_scb_common.h **** * Clears the RX FIFO and shifter.
 689:Generated_Source\PSoC6\pdl\drivers\peripheral\scb/cy_scb_common.h **** *
 690:Generated_Source\PSoC6\pdl\drivers\peripheral\scb/cy_scb_common.h **** * \param base
 691:Generated_Source\PSoC6\pdl\drivers\peripheral\scb/cy_scb_common.h **** * The pointer to the SCB instance.
 692:Generated_Source\PSoC6\pdl\drivers\peripheral\scb/cy_scb_common.h **** *
 693:Generated_Source\PSoC6\pdl\drivers\peripheral\scb/cy_scb_common.h **** * \note
ARM GAS  C:\Users\pearlstl\AppData\Local\Temp\ccAUXqAU.s 			page 41


 694:Generated_Source\PSoC6\pdl\drivers\peripheral\scb/cy_scb_common.h **** * If there is partial data in the shifter, it is cleared and lost.
 695:Generated_Source\PSoC6\pdl\drivers\peripheral\scb/cy_scb_common.h **** *
 696:Generated_Source\PSoC6\pdl\drivers\peripheral\scb/cy_scb_common.h **** *******************************************************************************/
 697:Generated_Source\PSoC6\pdl\drivers\peripheral\scb/cy_scb_common.h **** __STATIC_INLINE void Cy_SCB_ClearRxFifo(CySCB_Type* base)
 698:Generated_Source\PSoC6\pdl\drivers\peripheral\scb/cy_scb_common.h **** {
 699:Generated_Source\PSoC6\pdl\drivers\peripheral\scb/cy_scb_common.h ****     SCB_RX_FIFO_CTRL(base) |= (uint32_t)  SCB_RX_FIFO_CTRL_CLEAR_Msk;
 700:Generated_Source\PSoC6\pdl\drivers\peripheral\scb/cy_scb_common.h ****     SCB_RX_FIFO_CTRL(base) &= (uint32_t) ~SCB_RX_FIFO_CTRL_CLEAR_Msk;
 701:Generated_Source\PSoC6\pdl\drivers\peripheral\scb/cy_scb_common.h **** 
 702:Generated_Source\PSoC6\pdl\drivers\peripheral\scb/cy_scb_common.h ****     (void) SCB_RX_FIFO_CTRL(base);
 703:Generated_Source\PSoC6\pdl\drivers\peripheral\scb/cy_scb_common.h **** }
 704:Generated_Source\PSoC6\pdl\drivers\peripheral\scb/cy_scb_common.h **** 
 705:Generated_Source\PSoC6\pdl\drivers\peripheral\scb/cy_scb_common.h **** 
 706:Generated_Source\PSoC6\pdl\drivers\peripheral\scb/cy_scb_common.h **** /*******************************************************************************
 707:Generated_Source\PSoC6\pdl\drivers\peripheral\scb/cy_scb_common.h **** * Function Name: Cy_SCB_WriteTxFifo
 708:Generated_Source\PSoC6\pdl\drivers\peripheral\scb/cy_scb_common.h **** ****************************************************************************//**
 709:Generated_Source\PSoC6\pdl\drivers\peripheral\scb/cy_scb_common.h **** *
 710:Generated_Source\PSoC6\pdl\drivers\peripheral\scb/cy_scb_common.h **** * Writes data directly into the TX FIFO.
 711:Generated_Source\PSoC6\pdl\drivers\peripheral\scb/cy_scb_common.h **** * This function does not check whether the TX FIFO is not full before writing
 712:Generated_Source\PSoC6\pdl\drivers\peripheral\scb/cy_scb_common.h **** * into it.
 713:Generated_Source\PSoC6\pdl\drivers\peripheral\scb/cy_scb_common.h **** *
 714:Generated_Source\PSoC6\pdl\drivers\peripheral\scb/cy_scb_common.h **** * \param base
 715:Generated_Source\PSoC6\pdl\drivers\peripheral\scb/cy_scb_common.h **** * The pointer to the SCB instance.
 716:Generated_Source\PSoC6\pdl\drivers\peripheral\scb/cy_scb_common.h **** *
 717:Generated_Source\PSoC6\pdl\drivers\peripheral\scb/cy_scb_common.h **** * \param data
 718:Generated_Source\PSoC6\pdl\drivers\peripheral\scb/cy_scb_common.h **** * Data to write to the TX FIFO.
 719:Generated_Source\PSoC6\pdl\drivers\peripheral\scb/cy_scb_common.h **** *
 720:Generated_Source\PSoC6\pdl\drivers\peripheral\scb/cy_scb_common.h **** *******************************************************************************/
 721:Generated_Source\PSoC6\pdl\drivers\peripheral\scb/cy_scb_common.h **** __STATIC_INLINE void Cy_SCB_WriteTxFifo(CySCB_Type* base, uint32_t data)
 722:Generated_Source\PSoC6\pdl\drivers\peripheral\scb/cy_scb_common.h **** {
 723:Generated_Source\PSoC6\pdl\drivers\peripheral\scb/cy_scb_common.h ****     SCB_TX_FIFO_WR(base) = data;
 724:Generated_Source\PSoC6\pdl\drivers\peripheral\scb/cy_scb_common.h **** }
 725:Generated_Source\PSoC6\pdl\drivers\peripheral\scb/cy_scb_common.h **** 
 726:Generated_Source\PSoC6\pdl\drivers\peripheral\scb/cy_scb_common.h **** 
 727:Generated_Source\PSoC6\pdl\drivers\peripheral\scb/cy_scb_common.h **** /*******************************************************************************
 728:Generated_Source\PSoC6\pdl\drivers\peripheral\scb/cy_scb_common.h **** * Function Name: Cy_SCB_SetTxFifoLevel
 729:Generated_Source\PSoC6\pdl\drivers\peripheral\scb/cy_scb_common.h **** ****************************************************************************//**
 730:Generated_Source\PSoC6\pdl\drivers\peripheral\scb/cy_scb_common.h **** *
 731:Generated_Source\PSoC6\pdl\drivers\peripheral\scb/cy_scb_common.h **** * Sets the TX FIFO level. When there are fewer data elements in the TX FIFO than
 732:Generated_Source\PSoC6\pdl\drivers\peripheral\scb/cy_scb_common.h **** * this level, the TX FIFO level interrupt is triggered.
 733:Generated_Source\PSoC6\pdl\drivers\peripheral\scb/cy_scb_common.h **** *
 734:Generated_Source\PSoC6\pdl\drivers\peripheral\scb/cy_scb_common.h **** * \param base
 735:Generated_Source\PSoC6\pdl\drivers\peripheral\scb/cy_scb_common.h **** * The pointer to the SCB instance.
 736:Generated_Source\PSoC6\pdl\drivers\peripheral\scb/cy_scb_common.h **** *
 737:Generated_Source\PSoC6\pdl\drivers\peripheral\scb/cy_scb_common.h **** * \param level
 738:Generated_Source\PSoC6\pdl\drivers\peripheral\scb/cy_scb_common.h **** * When there are fewer data elements in the FIFO than this level, the TX level
 739:Generated_Source\PSoC6\pdl\drivers\peripheral\scb/cy_scb_common.h **** * interrupt is triggered.
 740:Generated_Source\PSoC6\pdl\drivers\peripheral\scb/cy_scb_common.h **** *
 741:Generated_Source\PSoC6\pdl\drivers\peripheral\scb/cy_scb_common.h **** *******************************************************************************/
 742:Generated_Source\PSoC6\pdl\drivers\peripheral\scb/cy_scb_common.h **** __STATIC_INLINE void Cy_SCB_SetTxFifoLevel(CySCB_Type *base, uint32_t level)
 743:Generated_Source\PSoC6\pdl\drivers\peripheral\scb/cy_scb_common.h **** {
 744:Generated_Source\PSoC6\pdl\drivers\peripheral\scb/cy_scb_common.h ****     CY_ASSERT_L2(CY_SCB_IS_TRIGGER_LEVEL_VALID(base, level));
 745:Generated_Source\PSoC6\pdl\drivers\peripheral\scb/cy_scb_common.h **** 
 746:Generated_Source\PSoC6\pdl\drivers\peripheral\scb/cy_scb_common.h ****     CY_REG32_CLR_SET(SCB_TX_FIFO_CTRL(base), SCB_TX_FIFO_CTRL_TRIGGER_LEVEL, level);
 747:Generated_Source\PSoC6\pdl\drivers\peripheral\scb/cy_scb_common.h **** }
 748:Generated_Source\PSoC6\pdl\drivers\peripheral\scb/cy_scb_common.h **** 
 749:Generated_Source\PSoC6\pdl\drivers\peripheral\scb/cy_scb_common.h **** 
 750:Generated_Source\PSoC6\pdl\drivers\peripheral\scb/cy_scb_common.h **** /*******************************************************************************
ARM GAS  C:\Users\pearlstl\AppData\Local\Temp\ccAUXqAU.s 			page 42


 751:Generated_Source\PSoC6\pdl\drivers\peripheral\scb/cy_scb_common.h **** * Function Name: Cy_SCB_GetNumInTxFifo
 752:Generated_Source\PSoC6\pdl\drivers\peripheral\scb/cy_scb_common.h **** ****************************************************************************//**
 753:Generated_Source\PSoC6\pdl\drivers\peripheral\scb/cy_scb_common.h **** *
 754:Generated_Source\PSoC6\pdl\drivers\peripheral\scb/cy_scb_common.h **** * Returns the number of data elements currently in the TX FIFO.
 755:Generated_Source\PSoC6\pdl\drivers\peripheral\scb/cy_scb_common.h **** *
 756:Generated_Source\PSoC6\pdl\drivers\peripheral\scb/cy_scb_common.h **** * \param base
 757:Generated_Source\PSoC6\pdl\drivers\peripheral\scb/cy_scb_common.h **** * The pointer to the SCB instance.
 758:Generated_Source\PSoC6\pdl\drivers\peripheral\scb/cy_scb_common.h **** *
 759:Generated_Source\PSoC6\pdl\drivers\peripheral\scb/cy_scb_common.h **** * \return
 760:Generated_Source\PSoC6\pdl\drivers\peripheral\scb/cy_scb_common.h **** * The number or data elements in the TX FIFO.
 761:Generated_Source\PSoC6\pdl\drivers\peripheral\scb/cy_scb_common.h **** *
 762:Generated_Source\PSoC6\pdl\drivers\peripheral\scb/cy_scb_common.h **** *******************************************************************************/
 763:Generated_Source\PSoC6\pdl\drivers\peripheral\scb/cy_scb_common.h **** __STATIC_INLINE uint32_t Cy_SCB_GetNumInTxFifo(CySCB_Type const *base)
 764:Generated_Source\PSoC6\pdl\drivers\peripheral\scb/cy_scb_common.h **** {
 765:Generated_Source\PSoC6\pdl\drivers\peripheral\scb/cy_scb_common.h ****     return _FLD2VAL(SCB_TX_FIFO_STATUS_USED, SCB_TX_FIFO_STATUS(base));
 547              		.loc 2 765 0
 548 0020 8224     		movs	r4, #130
 549 0022 A400     		lsls	r4, r4, #2
 550 0024 1859     		ldr	r0, [r3, r4]
 551              	.LVL18:
 552              	.LBE159:
 553              	.LBE158:
 554              	.LBB160:
 555              	.LBB161:
 766:Generated_Source\PSoC6\pdl\drivers\peripheral\scb/cy_scb_common.h **** }
 767:Generated_Source\PSoC6\pdl\drivers\peripheral\scb/cy_scb_common.h **** 
 768:Generated_Source\PSoC6\pdl\drivers\peripheral\scb/cy_scb_common.h **** 
 769:Generated_Source\PSoC6\pdl\drivers\peripheral\scb/cy_scb_common.h **** /*******************************************************************************
 770:Generated_Source\PSoC6\pdl\drivers\peripheral\scb/cy_scb_common.h **** * Function Name: Cy_SCB_GetTxSrValid
 771:Generated_Source\PSoC6\pdl\drivers\peripheral\scb/cy_scb_common.h **** ****************************************************************************//**
 772:Generated_Source\PSoC6\pdl\drivers\peripheral\scb/cy_scb_common.h **** *
 773:Generated_Source\PSoC6\pdl\drivers\peripheral\scb/cy_scb_common.h **** * Returns the status of the TX FIFO Shift Register valid bit.
 774:Generated_Source\PSoC6\pdl\drivers\peripheral\scb/cy_scb_common.h **** *
 775:Generated_Source\PSoC6\pdl\drivers\peripheral\scb/cy_scb_common.h **** * \param base
 776:Generated_Source\PSoC6\pdl\drivers\peripheral\scb/cy_scb_common.h **** * The pointer to the SCB instance.
 777:Generated_Source\PSoC6\pdl\drivers\peripheral\scb/cy_scb_common.h **** *
 778:Generated_Source\PSoC6\pdl\drivers\peripheral\scb/cy_scb_common.h **** * \return
 779:Generated_Source\PSoC6\pdl\drivers\peripheral\scb/cy_scb_common.h **** * 1 - TX shift register valid; 0 - TX shift register not valid.
 780:Generated_Source\PSoC6\pdl\drivers\peripheral\scb/cy_scb_common.h **** *
 781:Generated_Source\PSoC6\pdl\drivers\peripheral\scb/cy_scb_common.h **** *******************************************************************************/
 782:Generated_Source\PSoC6\pdl\drivers\peripheral\scb/cy_scb_common.h **** __STATIC_INLINE uint32_t Cy_SCB_GetTxSrValid(CySCB_Type const *base)
 783:Generated_Source\PSoC6\pdl\drivers\peripheral\scb/cy_scb_common.h **** {
 784:Generated_Source\PSoC6\pdl\drivers\peripheral\scb/cy_scb_common.h ****     return _FLD2VAL(SCB_TX_FIFO_STATUS_SR_VALID, SCB_TX_FIFO_STATUS(base));
 556              		.loc 2 784 0
 557 0026 1C59     		ldr	r4, [r3, r4]
 558              	.LVL19:
 559              	.LBE161:
 560              	.LBE160:
 561              	.LBE157:
 562              	.LBE156:
 563              	.LBE155:
 311:Generated_Source\PSoC6\pdl\drivers\peripheral\scb/cy_scb_uart.c ****                 {
 564              		.loc 1 311 0
 565 0028 C005     		lsls	r0, r0, #23
 566 002a E40B     		lsrs	r4, r4, #15
 567 002c 2240     		ands	r2, r4
 568 002e C00D     		lsrs	r0, r0, #23
ARM GAS  C:\Users\pearlstl\AppData\Local\Temp\ccAUXqAU.s 			page 43


 569 0030 1218     		adds	r2, r2, r0
 570 0032 002A     		cmp	r2, #0
 571 0034 10D1     		bne	.L61
 572              	.LVL20:
 573              	.LBB162:
 574              	.LBB163:
 575              	.LBB164:
 661:Generated_Source\PSoC6\pdl\drivers\peripheral\scb/cy_scb_common.h **** }
 576              		.loc 2 661 0
 577 0036 C222     		movs	r2, #194
 578 0038 9200     		lsls	r2, r2, #2
 579 003a 9C58     		ldr	r4, [r3, r2]
 580              	.LVL21:
 581              	.LBE164:
 582              	.LBE163:
 583              	.LBE162:
 313:Generated_Source\PSoC6\pdl\drivers\peripheral\scb/cy_scb_uart.c ****                     {
 584              		.loc 1 313 0
 585 003c E405     		lsls	r4, r4, #23
 586 003e E40D     		lsrs	r4, r4, #23
 587 0040 0AD1     		bne	.L61
 321:Generated_Source\PSoC6\pdl\drivers\peripheral\scb/cy_scb_uart.c **** 
 588              		.loc 1 321 0
 589 0042 1800     		movs	r0, r3
 590 0044 FFF7FEFF 		bl	Cy_SCB_UART_Disable
 591              	.LVL22:
 592 0048 04E0     		b	.L63
 593              	.LVL23:
 594              	.L54:
 595              	.LBB165:
 596              	.LBB166:
 597              		.file 3 "Generated_Source\\PSoC6\\pdl\\drivers\\peripheral\\scb\\cy_scb_uart.h"
   1:Generated_Source\PSoC6\pdl\drivers\peripheral\scb/cy_scb_uart.h **** /***************************************************************************//**
   2:Generated_Source\PSoC6\pdl\drivers\peripheral\scb/cy_scb_uart.h **** * \file cy_scb_uart.h
   3:Generated_Source\PSoC6\pdl\drivers\peripheral\scb/cy_scb_uart.h **** * \version 2.20
   4:Generated_Source\PSoC6\pdl\drivers\peripheral\scb/cy_scb_uart.h **** *
   5:Generated_Source\PSoC6\pdl\drivers\peripheral\scb/cy_scb_uart.h **** * Provides UART API declarations of the SCB driver.
   6:Generated_Source\PSoC6\pdl\drivers\peripheral\scb/cy_scb_uart.h **** *
   7:Generated_Source\PSoC6\pdl\drivers\peripheral\scb/cy_scb_uart.h **** ********************************************************************************
   8:Generated_Source\PSoC6\pdl\drivers\peripheral\scb/cy_scb_uart.h **** * \copyright
   9:Generated_Source\PSoC6\pdl\drivers\peripheral\scb/cy_scb_uart.h **** * Copyright 2016-2018, Cypress Semiconductor Corporation.  All rights reserved.
  10:Generated_Source\PSoC6\pdl\drivers\peripheral\scb/cy_scb_uart.h **** * You may use this file only in accordance with the license, terms, conditions,
  11:Generated_Source\PSoC6\pdl\drivers\peripheral\scb/cy_scb_uart.h **** * disclaimers, and limitations in the end user license agreement accompanying
  12:Generated_Source\PSoC6\pdl\drivers\peripheral\scb/cy_scb_uart.h **** * the software package with which this file was provided.
  13:Generated_Source\PSoC6\pdl\drivers\peripheral\scb/cy_scb_uart.h **** *******************************************************************************/
  14:Generated_Source\PSoC6\pdl\drivers\peripheral\scb/cy_scb_uart.h **** 
  15:Generated_Source\PSoC6\pdl\drivers\peripheral\scb/cy_scb_uart.h **** /**
  16:Generated_Source\PSoC6\pdl\drivers\peripheral\scb/cy_scb_uart.h **** * \addtogroup group_scb_uart
  17:Generated_Source\PSoC6\pdl\drivers\peripheral\scb/cy_scb_uart.h **** * \{
  18:Generated_Source\PSoC6\pdl\drivers\peripheral\scb/cy_scb_uart.h **** * Driver API for UART
  19:Generated_Source\PSoC6\pdl\drivers\peripheral\scb/cy_scb_uart.h **** *
  20:Generated_Source\PSoC6\pdl\drivers\peripheral\scb/cy_scb_uart.h **** * The functions and other declarations used in this part of the driver are in 
  21:Generated_Source\PSoC6\pdl\drivers\peripheral\scb/cy_scb_uart.h **** * cy_scb_uart.h. You can also include cy_pdl.h (ModusToolbox only) to get access 
  22:Generated_Source\PSoC6\pdl\drivers\peripheral\scb/cy_scb_uart.h **** * to all functions and declarations in the PDL.
  23:Generated_Source\PSoC6\pdl\drivers\peripheral\scb/cy_scb_uart.h **** *
  24:Generated_Source\PSoC6\pdl\drivers\peripheral\scb/cy_scb_uart.h **** * The Universal Asynchronous Receiver/Transmitter (UART) protocol is an 
  25:Generated_Source\PSoC6\pdl\drivers\peripheral\scb/cy_scb_uart.h **** * asynchronous serial interface protocol. UART communication is typically 
ARM GAS  C:\Users\pearlstl\AppData\Local\Temp\ccAUXqAU.s 			page 44


  26:Generated_Source\PSoC6\pdl\drivers\peripheral\scb/cy_scb_uart.h **** * point-to-point. The UART interface consists of two signals:
  27:Generated_Source\PSoC6\pdl\drivers\peripheral\scb/cy_scb_uart.h **** * * TX: Transmitter output
  28:Generated_Source\PSoC6\pdl\drivers\peripheral\scb/cy_scb_uart.h **** * * RX: Receiver input
  29:Generated_Source\PSoC6\pdl\drivers\peripheral\scb/cy_scb_uart.h **** *
  30:Generated_Source\PSoC6\pdl\drivers\peripheral\scb/cy_scb_uart.h **** * Additionally, two side-band signals are used to implement flow control in 
  31:Generated_Source\PSoC6\pdl\drivers\peripheral\scb/cy_scb_uart.h **** * UART. Note that the flow control applies only to TX functionality.
  32:Generated_Source\PSoC6\pdl\drivers\peripheral\scb/cy_scb_uart.h **** * * Clear to Send (CTS): This is an input signal to the transmitter. 
  33:Generated_Source\PSoC6\pdl\drivers\peripheral\scb/cy_scb_uart.h **** *   When active, it indicates that the slave is ready for the master to 
  34:Generated_Source\PSoC6\pdl\drivers\peripheral\scb/cy_scb_uart.h **** *   transmit data.
  35:Generated_Source\PSoC6\pdl\drivers\peripheral\scb/cy_scb_uart.h **** * * Ready to Send (RTS): This is an output signal from the receiver. When 
  36:Generated_Source\PSoC6\pdl\drivers\peripheral\scb/cy_scb_uart.h **** *   active, it indicates that the receiver is ready to receive data
  37:Generated_Source\PSoC6\pdl\drivers\peripheral\scb/cy_scb_uart.h **** *
  38:Generated_Source\PSoC6\pdl\drivers\peripheral\scb/cy_scb_uart.h **** * Features:
  39:Generated_Source\PSoC6\pdl\drivers\peripheral\scb/cy_scb_uart.h **** * * Supports UART protocol
  40:Generated_Source\PSoC6\pdl\drivers\peripheral\scb/cy_scb_uart.h **** *   * Standard UART
  41:Generated_Source\PSoC6\pdl\drivers\peripheral\scb/cy_scb_uart.h **** *   * Multi-processor mode
  42:Generated_Source\PSoC6\pdl\drivers\peripheral\scb/cy_scb_uart.h **** * * SmartCard (ISO7816) reader
  43:Generated_Source\PSoC6\pdl\drivers\peripheral\scb/cy_scb_uart.h **** * * IrDA
  44:Generated_Source\PSoC6\pdl\drivers\peripheral\scb/cy_scb_uart.h **** * * Data frame size programmable from 4 to 16 bits
  45:Generated_Source\PSoC6\pdl\drivers\peripheral\scb/cy_scb_uart.h **** * * Programmable number of STOP bits, which can be set in terms of half bit 
  46:Generated_Source\PSoC6\pdl\drivers\peripheral\scb/cy_scb_uart.h **** *   periods between 1 and 4
  47:Generated_Source\PSoC6\pdl\drivers\peripheral\scb/cy_scb_uart.h **** * * Parity support (odd and even parity)
  48:Generated_Source\PSoC6\pdl\drivers\peripheral\scb/cy_scb_uart.h **** * * Median filter on Rx input
  49:Generated_Source\PSoC6\pdl\drivers\peripheral\scb/cy_scb_uart.h **** * * Programmable oversampling
  50:Generated_Source\PSoC6\pdl\drivers\peripheral\scb/cy_scb_uart.h **** * * Start skipping
  51:Generated_Source\PSoC6\pdl\drivers\peripheral\scb/cy_scb_uart.h **** *
  52:Generated_Source\PSoC6\pdl\drivers\peripheral\scb/cy_scb_uart.h **** ********************************************************************************
  53:Generated_Source\PSoC6\pdl\drivers\peripheral\scb/cy_scb_uart.h **** * \section group_scb_uart_configuration Configuration Considerations
  54:Generated_Source\PSoC6\pdl\drivers\peripheral\scb/cy_scb_uart.h **** ********************************************************************************
  55:Generated_Source\PSoC6\pdl\drivers\peripheral\scb/cy_scb_uart.h **** * The UART driver configuration can be divided to number of sequential
  56:Generated_Source\PSoC6\pdl\drivers\peripheral\scb/cy_scb_uart.h **** * steps listed below:
  57:Generated_Source\PSoC6\pdl\drivers\peripheral\scb/cy_scb_uart.h **** * * \ref group_scb_uart_config
  58:Generated_Source\PSoC6\pdl\drivers\peripheral\scb/cy_scb_uart.h **** * * \ref group_scb_uart_pins
  59:Generated_Source\PSoC6\pdl\drivers\peripheral\scb/cy_scb_uart.h **** * * \ref group_scb_uart_clock
  60:Generated_Source\PSoC6\pdl\drivers\peripheral\scb/cy_scb_uart.h **** * * \ref group_scb_uart_data_rate
  61:Generated_Source\PSoC6\pdl\drivers\peripheral\scb/cy_scb_uart.h **** * * \ref group_scb_uart_intr
  62:Generated_Source\PSoC6\pdl\drivers\peripheral\scb/cy_scb_uart.h **** * * \ref group_scb_uart_enable
  63:Generated_Source\PSoC6\pdl\drivers\peripheral\scb/cy_scb_uart.h **** *
  64:Generated_Source\PSoC6\pdl\drivers\peripheral\scb/cy_scb_uart.h **** * \note
  65:Generated_Source\PSoC6\pdl\drivers\peripheral\scb/cy_scb_uart.h **** * UART driver is built on top of the SCB hardware block. The SCB5 instance is
  66:Generated_Source\PSoC6\pdl\drivers\peripheral\scb/cy_scb_uart.h **** * used as an example for all code snippets. Modify the code to match your
  67:Generated_Source\PSoC6\pdl\drivers\peripheral\scb/cy_scb_uart.h **** * design.
  68:Generated_Source\PSoC6\pdl\drivers\peripheral\scb/cy_scb_uart.h **** *
  69:Generated_Source\PSoC6\pdl\drivers\peripheral\scb/cy_scb_uart.h **** ********************************************************************************
  70:Generated_Source\PSoC6\pdl\drivers\peripheral\scb/cy_scb_uart.h **** * \subsection group_scb_uart_config Configure UART
  71:Generated_Source\PSoC6\pdl\drivers\peripheral\scb/cy_scb_uart.h **** ********************************************************************************
  72:Generated_Source\PSoC6\pdl\drivers\peripheral\scb/cy_scb_uart.h **** * To set up the UART driver, provide the configuration parameters in the
  73:Generated_Source\PSoC6\pdl\drivers\peripheral\scb/cy_scb_uart.h **** * \ref cy_stc_scb_uart_config_t structure. For example: provide uartMode,
  74:Generated_Source\PSoC6\pdl\drivers\peripheral\scb/cy_scb_uart.h **** * oversample, dataWidth, enableMsbFirst, parity, and stopBits. The other
  75:Generated_Source\PSoC6\pdl\drivers\peripheral\scb/cy_scb_uart.h **** * parameters are optional. To initialize the driver, call \ref Cy_SCB_UART_Init 
  76:Generated_Source\PSoC6\pdl\drivers\peripheral\scb/cy_scb_uart.h **** * function providing a pointer to the populated \ref cy_stc_scb_uart_config_t 
  77:Generated_Source\PSoC6\pdl\drivers\peripheral\scb/cy_scb_uart.h **** * structure and the allocated \ref cy_stc_scb_uart_context_t structure.
  78:Generated_Source\PSoC6\pdl\drivers\peripheral\scb/cy_scb_uart.h **** *
  79:Generated_Source\PSoC6\pdl\drivers\peripheral\scb/cy_scb_uart.h **** * \snippet SCB_CompDatasheet_sut_01_revA.cydsn\uart_snippets.c UART_CFG
  80:Generated_Source\PSoC6\pdl\drivers\peripheral\scb/cy_scb_uart.h **** *
  81:Generated_Source\PSoC6\pdl\drivers\peripheral\scb/cy_scb_uart.h **** ********************************************************************************
  82:Generated_Source\PSoC6\pdl\drivers\peripheral\scb/cy_scb_uart.h **** * \subsection group_scb_uart_pins Assign and Configure Pins
ARM GAS  C:\Users\pearlstl\AppData\Local\Temp\ccAUXqAU.s 			page 45


  83:Generated_Source\PSoC6\pdl\drivers\peripheral\scb/cy_scb_uart.h **** ********************************************************************************
  84:Generated_Source\PSoC6\pdl\drivers\peripheral\scb/cy_scb_uart.h **** * Only dedicated SCB pins can be used for UART operation. The HSIOM
  85:Generated_Source\PSoC6\pdl\drivers\peripheral\scb/cy_scb_uart.h **** * register must be configured to connect dedicated SCB UART pins to the 
  86:Generated_Source\PSoC6\pdl\drivers\peripheral\scb/cy_scb_uart.h **** * SCB block. Also, the UART output pins must be configured in Strong Drive 
  87:Generated_Source\PSoC6\pdl\drivers\peripheral\scb/cy_scb_uart.h **** * Input Off mode and UART input pins in Digital High-Z:
  88:Generated_Source\PSoC6\pdl\drivers\peripheral\scb/cy_scb_uart.h **** *
  89:Generated_Source\PSoC6\pdl\drivers\peripheral\scb/cy_scb_uart.h **** * \snippet SCB_CompDatasheet_sut_01_revA.cydsn\uart_snippets.c UART_CFG_PINS
  90:Generated_Source\PSoC6\pdl\drivers\peripheral\scb/cy_scb_uart.h **** *
  91:Generated_Source\PSoC6\pdl\drivers\peripheral\scb/cy_scb_uart.h **** ********************************************************************************
  92:Generated_Source\PSoC6\pdl\drivers\peripheral\scb/cy_scb_uart.h **** * \subsection group_scb_uart_clock Assign Clock Divider
  93:Generated_Source\PSoC6\pdl\drivers\peripheral\scb/cy_scb_uart.h **** ********************************************************************************
  94:Generated_Source\PSoC6\pdl\drivers\peripheral\scb/cy_scb_uart.h **** * A clock source must be connected to the SCB block to oversample input and
  95:Generated_Source\PSoC6\pdl\drivers\peripheral\scb/cy_scb_uart.h **** * output signals, in this document this clock will be referred as clk_scb.
  96:Generated_Source\PSoC6\pdl\drivers\peripheral\scb/cy_scb_uart.h **** * You must use one of available integer or fractional dividers. Use the 
  97:Generated_Source\PSoC6\pdl\drivers\peripheral\scb/cy_scb_uart.h **** * \ref group_sysclk driver API to do this.
  98:Generated_Source\PSoC6\pdl\drivers\peripheral\scb/cy_scb_uart.h **** *
  99:Generated_Source\PSoC6\pdl\drivers\peripheral\scb/cy_scb_uart.h **** * \snippet SCB_CompDatasheet_sut_01_revA.cydsn\uart_snippets.c UART_CFG_ASSIGN_CLOCK
 100:Generated_Source\PSoC6\pdl\drivers\peripheral\scb/cy_scb_uart.h **** *
 101:Generated_Source\PSoC6\pdl\drivers\peripheral\scb/cy_scb_uart.h **** ********************************************************************************
 102:Generated_Source\PSoC6\pdl\drivers\peripheral\scb/cy_scb_uart.h **** * \subsection group_scb_uart_data_rate Configure Baud Rate
 103:Generated_Source\PSoC6\pdl\drivers\peripheral\scb/cy_scb_uart.h **** ********************************************************************************
 104:Generated_Source\PSoC6\pdl\drivers\peripheral\scb/cy_scb_uart.h **** * To get the UART to operate with the desired baud rate, the clk_scb frequency
 105:Generated_Source\PSoC6\pdl\drivers\peripheral\scb/cy_scb_uart.h **** * and the oversample must be configured. Use the \ref group_sysclk driver API
 106:Generated_Source\PSoC6\pdl\drivers\peripheral\scb/cy_scb_uart.h **** * to configure clk_scb frequency. Set the <em><b>oversample parameter
 107:Generated_Source\PSoC6\pdl\drivers\peripheral\scb/cy_scb_uart.h **** * in configuration structure</b></em> to define the number of the SCB clocks
 108:Generated_Source\PSoC6\pdl\drivers\peripheral\scb/cy_scb_uart.h **** * within one UART bit-time.
 109:Generated_Source\PSoC6\pdl\drivers\peripheral\scb/cy_scb_uart.h **** *
 110:Generated_Source\PSoC6\pdl\drivers\peripheral\scb/cy_scb_uart.h **** * \snippet SCB_CompDatasheet_sut_01_revA.cydsn\uart_snippets.c UART_CFG_DATA_RATE
 111:Generated_Source\PSoC6\pdl\drivers\peripheral\scb/cy_scb_uart.h **** *
 112:Generated_Source\PSoC6\pdl\drivers\peripheral\scb/cy_scb_uart.h **** * <b>Refer to the technical reference manual (TRM) section UART sub-section
 113:Generated_Source\PSoC6\pdl\drivers\peripheral\scb/cy_scb_uart.h **** * Clocking and Oversampling to get information about how to configure the UART to run with
 114:Generated_Source\PSoC6\pdl\drivers\peripheral\scb/cy_scb_uart.h **** * desired baud rate.</b>
 115:Generated_Source\PSoC6\pdl\drivers\peripheral\scb/cy_scb_uart.h **** *
 116:Generated_Source\PSoC6\pdl\drivers\peripheral\scb/cy_scb_uart.h **** ********************************************************************************
 117:Generated_Source\PSoC6\pdl\drivers\peripheral\scb/cy_scb_uart.h **** * \subsection group_scb_uart_intr Configure Interrupt
 118:Generated_Source\PSoC6\pdl\drivers\peripheral\scb/cy_scb_uart.h **** ********************************************************************************
 119:Generated_Source\PSoC6\pdl\drivers\peripheral\scb/cy_scb_uart.h **** * The interrupt is optional for the UART operation. To configure interrupt
 120:Generated_Source\PSoC6\pdl\drivers\peripheral\scb/cy_scb_uart.h **** * the \ref Cy_SCB_UART_Interrupt function must be called in the interrupt
 121:Generated_Source\PSoC6\pdl\drivers\peripheral\scb/cy_scb_uart.h **** * handler for the selected SCB instance. Also, this interrupt must be enabled
 122:Generated_Source\PSoC6\pdl\drivers\peripheral\scb/cy_scb_uart.h **** * in the NVIC.
 123:Generated_Source\PSoC6\pdl\drivers\peripheral\scb/cy_scb_uart.h **** * The interrupt must be configured when \ref group_scb_uart_hl will be used.
 124:Generated_Source\PSoC6\pdl\drivers\peripheral\scb/cy_scb_uart.h **** *
 125:Generated_Source\PSoC6\pdl\drivers\peripheral\scb/cy_scb_uart.h **** * \snippet SCB_CompDatasheet_sut_01_revA.cydsn\uart_snippets.c UART_INTR_A
 126:Generated_Source\PSoC6\pdl\drivers\peripheral\scb/cy_scb_uart.h **** * \snippet SCB_CompDatasheet_sut_01_revA.cydsn\uart_snippets.c UART_INTR_B
 127:Generated_Source\PSoC6\pdl\drivers\peripheral\scb/cy_scb_uart.h **** *
 128:Generated_Source\PSoC6\pdl\drivers\peripheral\scb/cy_scb_uart.h **** ********************************************************************************
 129:Generated_Source\PSoC6\pdl\drivers\peripheral\scb/cy_scb_uart.h **** * \subsection group_scb_uart_enable Enable UART
 130:Generated_Source\PSoC6\pdl\drivers\peripheral\scb/cy_scb_uart.h **** ********************************************************************************
 131:Generated_Source\PSoC6\pdl\drivers\peripheral\scb/cy_scb_uart.h **** * Finally, enable the UART operation by calling \ref Cy_SCB_UART_Enable.
 132:Generated_Source\PSoC6\pdl\drivers\peripheral\scb/cy_scb_uart.h **** *
 133:Generated_Source\PSoC6\pdl\drivers\peripheral\scb/cy_scb_uart.h **** * \snippet SCB_CompDatasheet_sut_01_revA.cydsn\uart_snippets.c UART_ENABLE
 134:Generated_Source\PSoC6\pdl\drivers\peripheral\scb/cy_scb_uart.h **** *
 135:Generated_Source\PSoC6\pdl\drivers\peripheral\scb/cy_scb_uart.h **** ********************************************************************************
 136:Generated_Source\PSoC6\pdl\drivers\peripheral\scb/cy_scb_uart.h **** * \section group_scb_uart_use_cases Common Use Cases
 137:Generated_Source\PSoC6\pdl\drivers\peripheral\scb/cy_scb_uart.h **** ********************************************************************************
 138:Generated_Source\PSoC6\pdl\drivers\peripheral\scb/cy_scb_uart.h **** * The UART API is divided into two categories: \ref group_scb_uart_low_level_functions
 139:Generated_Source\PSoC6\pdl\drivers\peripheral\scb/cy_scb_uart.h **** * and \ref group_scb_uart_high_level_functions. \n
ARM GAS  C:\Users\pearlstl\AppData\Local\Temp\ccAUXqAU.s 			page 46


 140:Generated_Source\PSoC6\pdl\drivers\peripheral\scb/cy_scb_uart.h **** * <em>Do not mix <b>High-Level</b> and <b>Low-Level</b> API because a Low-Level
 141:Generated_Source\PSoC6\pdl\drivers\peripheral\scb/cy_scb_uart.h **** * API can adversely affect the operation of a High-Level API.</em>
 142:Generated_Source\PSoC6\pdl\drivers\peripheral\scb/cy_scb_uart.h **** *
 143:Generated_Source\PSoC6\pdl\drivers\peripheral\scb/cy_scb_uart.h **** ********************************************************************************
 144:Generated_Source\PSoC6\pdl\drivers\peripheral\scb/cy_scb_uart.h **** * \subsection group_scb_uart_ll Low-Level API
 145:Generated_Source\PSoC6\pdl\drivers\peripheral\scb/cy_scb_uart.h **** ********************************************************************************
 146:Generated_Source\PSoC6\pdl\drivers\peripheral\scb/cy_scb_uart.h **** * The \ref group_scb_uart_low_level_functions functions allow
 147:Generated_Source\PSoC6\pdl\drivers\peripheral\scb/cy_scb_uart.h **** * interacting directly with the hardware and do not use \ref Cy_SCB_UART_Interrupt.
 148:Generated_Source\PSoC6\pdl\drivers\peripheral\scb/cy_scb_uart.h **** * These functions do not require context for operation. Thus, NULL can be
 149:Generated_Source\PSoC6\pdl\drivers\peripheral\scb/cy_scb_uart.h **** * passed for context parameter in \ref Cy_SCB_UART_Init and \ref Cy_SCB_UART_Disable 
 150:Generated_Source\PSoC6\pdl\drivers\peripheral\scb/cy_scb_uart.h **** * instead of a pointer to the context structure.
 151:Generated_Source\PSoC6\pdl\drivers\peripheral\scb/cy_scb_uart.h **** *
 152:Generated_Source\PSoC6\pdl\drivers\peripheral\scb/cy_scb_uart.h **** * * To write data into the TX FIFO, use one of the provided functions:
 153:Generated_Source\PSoC6\pdl\drivers\peripheral\scb/cy_scb_uart.h **** *   \ref Cy_SCB_UART_Put, \ref Cy_SCB_UART_PutArray,
 154:Generated_Source\PSoC6\pdl\drivers\peripheral\scb/cy_scb_uart.h **** *   \ref Cy_SCB_UART_PutArrayBlocking or \ref Cy_SCB_UART_PutString.
 155:Generated_Source\PSoC6\pdl\drivers\peripheral\scb/cy_scb_uart.h **** *   Note that putting data into the TX FIFO starts data transfer.
 156:Generated_Source\PSoC6\pdl\drivers\peripheral\scb/cy_scb_uart.h **** *
 157:Generated_Source\PSoC6\pdl\drivers\peripheral\scb/cy_scb_uart.h **** * * To read data from the RX FIFO, use one of the provided functions:
 158:Generated_Source\PSoC6\pdl\drivers\peripheral\scb/cy_scb_uart.h **** *   \ref Cy_SCB_UART_Get, \ref Cy_SCB_UART_GetArray or
 159:Generated_Source\PSoC6\pdl\drivers\peripheral\scb/cy_scb_uart.h **** *   \ref Cy_SCB_UART_GetArrayBlocking.
 160:Generated_Source\PSoC6\pdl\drivers\peripheral\scb/cy_scb_uart.h **** *
 161:Generated_Source\PSoC6\pdl\drivers\peripheral\scb/cy_scb_uart.h **** * * The statuses can be polled using: \ref Cy_SCB_UART_GetRxFifoStatus and
 162:Generated_Source\PSoC6\pdl\drivers\peripheral\scb/cy_scb_uart.h **** *   \ref Cy_SCB_UART_GetTxFifoStatus.
 163:Generated_Source\PSoC6\pdl\drivers\peripheral\scb/cy_scb_uart.h **** *   <em>The statuses are <b>W1C (Write 1 to Clear)</b> and after a status
 164:Generated_Source\PSoC6\pdl\drivers\peripheral\scb/cy_scb_uart.h **** *   is set, it must be cleared.</em> Note that there are statuses evaluated as level.
 165:Generated_Source\PSoC6\pdl\drivers\peripheral\scb/cy_scb_uart.h **** *   These statuses remain set until an event is true. Therefore, after the clear
 166:Generated_Source\PSoC6\pdl\drivers\peripheral\scb/cy_scb_uart.h **** *   operation, the status is cleared but then it is restored (if event is still
 167:Generated_Source\PSoC6\pdl\drivers\peripheral\scb/cy_scb_uart.h **** *   true).
 168:Generated_Source\PSoC6\pdl\drivers\peripheral\scb/cy_scb_uart.h **** *   Also, the following functions can be used for polling as well
 169:Generated_Source\PSoC6\pdl\drivers\peripheral\scb/cy_scb_uart.h **** *   \ref Cy_SCB_UART_IsTxComplete, \ref Cy_SCB_UART_GetNumInRxFifo and
 170:Generated_Source\PSoC6\pdl\drivers\peripheral\scb/cy_scb_uart.h **** *   \ref Cy_SCB_UART_GetNumInTxFifo.
 171:Generated_Source\PSoC6\pdl\drivers\peripheral\scb/cy_scb_uart.h **** *
 172:Generated_Source\PSoC6\pdl\drivers\peripheral\scb/cy_scb_uart.h **** * \snippet SCB_CompDatasheet_sut_01_revA.cydsn\uart_snippets.c UART_TRANSMIT_DATA_LL
 173:Generated_Source\PSoC6\pdl\drivers\peripheral\scb/cy_scb_uart.h **** *
 174:Generated_Source\PSoC6\pdl\drivers\peripheral\scb/cy_scb_uart.h **** ********************************************************************************
 175:Generated_Source\PSoC6\pdl\drivers\peripheral\scb/cy_scb_uart.h **** * \subsection group_scb_uart_hl High-Level API
 176:Generated_Source\PSoC6\pdl\drivers\peripheral\scb/cy_scb_uart.h **** ********************************************************************************
 177:Generated_Source\PSoC6\pdl\drivers\peripheral\scb/cy_scb_uart.h **** * The \ref group_scb_uart_high_level_functions API use \ref Cy_SCB_UART_Interrupt
 178:Generated_Source\PSoC6\pdl\drivers\peripheral\scb/cy_scb_uart.h **** * to execute the transfer. Call \ref Cy_SCB_UART_Transmit to start transmission.
 179:Generated_Source\PSoC6\pdl\drivers\peripheral\scb/cy_scb_uart.h **** * Call \ref Cy_SCB_UART_Receive to start receive operation. After the
 180:Generated_Source\PSoC6\pdl\drivers\peripheral\scb/cy_scb_uart.h **** * operation is started the \ref Cy_SCB_UART_Interrupt handles the data
 181:Generated_Source\PSoC6\pdl\drivers\peripheral\scb/cy_scb_uart.h **** * transfer until its completion.
 182:Generated_Source\PSoC6\pdl\drivers\peripheral\scb/cy_scb_uart.h **** * Therefore \ref Cy_SCB_UART_Interrupt must be called inside the user 
 183:Generated_Source\PSoC6\pdl\drivers\peripheral\scb/cy_scb_uart.h **** * interrupt handler to make the High-Level API work. To monitor status
 184:Generated_Source\PSoC6\pdl\drivers\peripheral\scb/cy_scb_uart.h **** * of transmit operation, use \ref Cy_SCB_UART_GetTransmitStatus and
 185:Generated_Source\PSoC6\pdl\drivers\peripheral\scb/cy_scb_uart.h **** * \ref Cy_SCB_UART_GetReceiveStatus to monitor receive status appropriately.
 186:Generated_Source\PSoC6\pdl\drivers\peripheral\scb/cy_scb_uart.h **** * Alternatively use \ref Cy_SCB_UART_RegisterCallback to register callback
 187:Generated_Source\PSoC6\pdl\drivers\peripheral\scb/cy_scb_uart.h **** * function to be notified about \ref group_scb_uart_macros_callback_events.
 188:Generated_Source\PSoC6\pdl\drivers\peripheral\scb/cy_scb_uart.h **** *
 189:Generated_Source\PSoC6\pdl\drivers\peripheral\scb/cy_scb_uart.h **** * <b>Receive Operation</b>
 190:Generated_Source\PSoC6\pdl\drivers\peripheral\scb/cy_scb_uart.h **** * \snippet SCB_CompDatasheet_sut_01_revA.cydsn\uart_snippets.c UART_RECEIVE_DATA_HL
 191:Generated_Source\PSoC6\pdl\drivers\peripheral\scb/cy_scb_uart.h **** *
 192:Generated_Source\PSoC6\pdl\drivers\peripheral\scb/cy_scb_uart.h **** * <b>Transmit Operation</b>
 193:Generated_Source\PSoC6\pdl\drivers\peripheral\scb/cy_scb_uart.h **** * \snippet SCB_CompDatasheet_sut_01_revA.cydsn\uart_snippets.c UART_TRANSMIT_DATA_HL
 194:Generated_Source\PSoC6\pdl\drivers\peripheral\scb/cy_scb_uart.h **** *
 195:Generated_Source\PSoC6\pdl\drivers\peripheral\scb/cy_scb_uart.h **** * There is also capability to insert a receive ring buffer that operates between
 196:Generated_Source\PSoC6\pdl\drivers\peripheral\scb/cy_scb_uart.h **** * the RX FIFO and the user buffer. The received data is copied into the ring
ARM GAS  C:\Users\pearlstl\AppData\Local\Temp\ccAUXqAU.s 			page 47


 197:Generated_Source\PSoC6\pdl\drivers\peripheral\scb/cy_scb_uart.h **** * buffer from the RX FIFO. This process runs in the background after the ring
 198:Generated_Source\PSoC6\pdl\drivers\peripheral\scb/cy_scb_uart.h **** * buffer operation is started by \ref Cy_SCB_UART_StartRingBuffer.
 199:Generated_Source\PSoC6\pdl\drivers\peripheral\scb/cy_scb_uart.h **** * When \ref Cy_SCB_UART_Receive is called, it first reads data from the ring
 200:Generated_Source\PSoC6\pdl\drivers\peripheral\scb/cy_scb_uart.h **** * buffer and then sets up an interrupt to receive more data if the required
 201:Generated_Source\PSoC6\pdl\drivers\peripheral\scb/cy_scb_uart.h **** * amount has not yet been read.
 202:Generated_Source\PSoC6\pdl\drivers\peripheral\scb/cy_scb_uart.h **** *
 203:Generated_Source\PSoC6\pdl\drivers\peripheral\scb/cy_scb_uart.h **** ********************************************************************************
 204:Generated_Source\PSoC6\pdl\drivers\peripheral\scb/cy_scb_uart.h **** * \section group_scb_uart_dma_trig DMA Trigger
 205:Generated_Source\PSoC6\pdl\drivers\peripheral\scb/cy_scb_uart.h **** ********************************************************************************
 206:Generated_Source\PSoC6\pdl\drivers\peripheral\scb/cy_scb_uart.h **** * The SCB provides TX and RX output trigger signals that can be routed to the
 207:Generated_Source\PSoC6\pdl\drivers\peripheral\scb/cy_scb_uart.h **** * DMA controller inputs. These signals are assigned based on the data availability
 208:Generated_Source\PSoC6\pdl\drivers\peripheral\scb/cy_scb_uart.h **** * in the TX and RX FIFOs appropriately.
 209:Generated_Source\PSoC6\pdl\drivers\peripheral\scb/cy_scb_uart.h **** *
 210:Generated_Source\PSoC6\pdl\drivers\peripheral\scb/cy_scb_uart.h **** * * The RX trigger signal is active while the number of data
 211:Generated_Source\PSoC6\pdl\drivers\peripheral\scb/cy_scb_uart.h **** *   elements in the RX FIFO is greater than the value of RX FIFO level. Use
 212:Generated_Source\PSoC6\pdl\drivers\peripheral\scb/cy_scb_uart.h **** *   function \ref Cy_SCB_SetRxFifoLevel or set configuration structure
 213:Generated_Source\PSoC6\pdl\drivers\peripheral\scb/cy_scb_uart.h **** *   rxFifoTriggerLevel parameter to configure RX FIFO level value. \n
 214:Generated_Source\PSoC6\pdl\drivers\peripheral\scb/cy_scb_uart.h **** *   <em>For example, the RX FIFO has 8 data elements and the RX FIFO level is 0.
 215:Generated_Source\PSoC6\pdl\drivers\peripheral\scb/cy_scb_uart.h **** *   The RX trigger signal is active until DMA reads all data from
 216:Generated_Source\PSoC6\pdl\drivers\peripheral\scb/cy_scb_uart.h **** *   the RX FIFO.</em>
 217:Generated_Source\PSoC6\pdl\drivers\peripheral\scb/cy_scb_uart.h **** *
 218:Generated_Source\PSoC6\pdl\drivers\peripheral\scb/cy_scb_uart.h **** * * The TX trigger signal is active while the number of data elements
 219:Generated_Source\PSoC6\pdl\drivers\peripheral\scb/cy_scb_uart.h **** *   in the TX FIFO is less than the value of TX FIFO level. Use function
 220:Generated_Source\PSoC6\pdl\drivers\peripheral\scb/cy_scb_uart.h **** *   \ref Cy_SCB_SetTxFifoLevel or set configuration structure txFifoTriggerLevel
 221:Generated_Source\PSoC6\pdl\drivers\peripheral\scb/cy_scb_uart.h **** *   parameter to configure TX FIFO level value. \n
 222:Generated_Source\PSoC6\pdl\drivers\peripheral\scb/cy_scb_uart.h **** *   <em>For example, the TX FIFO has 0 data elements (empty) and the TX FIFO level
 223:Generated_Source\PSoC6\pdl\drivers\peripheral\scb/cy_scb_uart.h **** *   is 7. The TX trigger signal is active until DMA loads TX FIFO
 224:Generated_Source\PSoC6\pdl\drivers\peripheral\scb/cy_scb_uart.h **** *   with 8 data elements (note that after the first TX load operation, the data 
 225:Generated_Source\PSoC6\pdl\drivers\peripheral\scb/cy_scb_uart.h **** *   element goes to the shift register and TX FIFO is empty).</em>
 226:Generated_Source\PSoC6\pdl\drivers\peripheral\scb/cy_scb_uart.h **** *
 227:Generated_Source\PSoC6\pdl\drivers\peripheral\scb/cy_scb_uart.h **** * To route SCB TX or RX trigger signals to DMA controller use \ref group_trigmux
 228:Generated_Source\PSoC6\pdl\drivers\peripheral\scb/cy_scb_uart.h **** * driver API.
 229:Generated_Source\PSoC6\pdl\drivers\peripheral\scb/cy_scb_uart.h **** *
 230:Generated_Source\PSoC6\pdl\drivers\peripheral\scb/cy_scb_uart.h **** * \note
 231:Generated_Source\PSoC6\pdl\drivers\peripheral\scb/cy_scb_uart.h **** * To properly handle DMA level request signal activation and de-activation from the SCB
 232:Generated_Source\PSoC6\pdl\drivers\peripheral\scb/cy_scb_uart.h **** * peripheral block the DMA Descriptor typically must be configured to re-trigger
 233:Generated_Source\PSoC6\pdl\drivers\peripheral\scb/cy_scb_uart.h **** * after 16 Clk_Slow cycles.
 234:Generated_Source\PSoC6\pdl\drivers\peripheral\scb/cy_scb_uart.h **** *
 235:Generated_Source\PSoC6\pdl\drivers\peripheral\scb/cy_scb_uart.h **** ********************************************************************************
 236:Generated_Source\PSoC6\pdl\drivers\peripheral\scb/cy_scb_uart.h **** * \section group_scb_uart_lp Low Power Support
 237:Generated_Source\PSoC6\pdl\drivers\peripheral\scb/cy_scb_uart.h **** ********************************************************************************
 238:Generated_Source\PSoC6\pdl\drivers\peripheral\scb/cy_scb_uart.h **** * The UART driver provides callback functions to handle power mode
 239:Generated_Source\PSoC6\pdl\drivers\peripheral\scb/cy_scb_uart.h **** * transition. The callback \ref Cy_SCB_UART_DeepSleepCallback must be called
 240:Generated_Source\PSoC6\pdl\drivers\peripheral\scb/cy_scb_uart.h **** * during execution of \ref Cy_SysPm_CpuEnterDeepSleep \ref Cy_SCB_UART_HibernateCallback
 241:Generated_Source\PSoC6\pdl\drivers\peripheral\scb/cy_scb_uart.h **** * must be called during execution of \ref Cy_SysPm_SystemEnterHibernate. To trigger the
 242:Generated_Source\PSoC6\pdl\drivers\peripheral\scb/cy_scb_uart.h **** * callback execution, the callback must be registered before calling the
 243:Generated_Source\PSoC6\pdl\drivers\peripheral\scb/cy_scb_uart.h **** * power mode transition function. Refer to \ref group_syspm driver for more
 244:Generated_Source\PSoC6\pdl\drivers\peripheral\scb/cy_scb_uart.h **** * information about power mode transitions and callback registration.
 245:Generated_Source\PSoC6\pdl\drivers\peripheral\scb/cy_scb_uart.h **** *
 246:Generated_Source\PSoC6\pdl\drivers\peripheral\scb/cy_scb_uart.h **** * The UART is disabled during Deep Sleep and Hibernate and stops driving 
 247:Generated_Source\PSoC6\pdl\drivers\peripheral\scb/cy_scb_uart.h **** * the output pins. The state of the UART output pins TX and RTS is High-Z, 
 248:Generated_Source\PSoC6\pdl\drivers\peripheral\scb/cy_scb_uart.h **** * which can cause unexpected behavior of the UART receiver due to possible
 249:Generated_Source\PSoC6\pdl\drivers\peripheral\scb/cy_scb_uart.h **** * glitches on these lines. These pins must be set to the inactive state before 
 250:Generated_Source\PSoC6\pdl\drivers\peripheral\scb/cy_scb_uart.h **** * entering Deep Sleep or Hibernate mode.
 251:Generated_Source\PSoC6\pdl\drivers\peripheral\scb/cy_scb_uart.h **** * These pins must keep the inactive level (the same state 
 252:Generated_Source\PSoC6\pdl\drivers\peripheral\scb/cy_scb_uart.h **** * when UART TX is enabled and does not transfer data) before entering Deep 
 253:Generated_Source\PSoC6\pdl\drivers\peripheral\scb/cy_scb_uart.h **** * Sleep or Hibernate mode. To do that, write the GPIO data register of each pin 
ARM GAS  C:\Users\pearlstl\AppData\Local\Temp\ccAUXqAU.s 			page 48


 254:Generated_Source\PSoC6\pdl\drivers\peripheral\scb/cy_scb_uart.h **** * to the inactive level for each output pin. Then configure High-Speed Input 
 255:Generated_Source\PSoC6\pdl\drivers\peripheral\scb/cy_scb_uart.h **** * Output Multiplexer (HSIOM) of each pin to be controlled by the GPIO (use 
 256:Generated_Source\PSoC6\pdl\drivers\peripheral\scb/cy_scb_uart.h **** * \ref group_gpio driver API). After exiting Deep Sleep mode the UART 
 257:Generated_Source\PSoC6\pdl\drivers\peripheral\scb/cy_scb_uart.h **** * must be enabled and the pins configuration restored to return the 
 258:Generated_Source\PSoC6\pdl\drivers\peripheral\scb/cy_scb_uart.h **** * UART control of the pins (after exiting Hibernate mode, the 
 259:Generated_Source\PSoC6\pdl\drivers\peripheral\scb/cy_scb_uart.h **** * system initialization code does the same). Copy either or 
 260:Generated_Source\PSoC6\pdl\drivers\peripheral\scb/cy_scb_uart.h **** * both \ref Cy_SCB_UART_DeepSleepCallback and \ref Cy_SCB_UART_HibernateCallback 
 261:Generated_Source\PSoC6\pdl\drivers\peripheral\scb/cy_scb_uart.h **** * as appropriate, and make the changes described above inside the function.
 262:Generated_Source\PSoC6\pdl\drivers\peripheral\scb/cy_scb_uart.h **** * Alternately, external pull-up or pull-down resistors can be connected 
 263:Generated_Source\PSoC6\pdl\drivers\peripheral\scb/cy_scb_uart.h **** * to the appropriate UART lines to keep them inactive during Deep-Sleep or 
 264:Generated_Source\PSoC6\pdl\drivers\peripheral\scb/cy_scb_uart.h **** * Hibernate.
 265:Generated_Source\PSoC6\pdl\drivers\peripheral\scb/cy_scb_uart.h **** *
 266:Generated_Source\PSoC6\pdl\drivers\peripheral\scb/cy_scb_uart.h **** ********************************************************************************
 267:Generated_Source\PSoC6\pdl\drivers\peripheral\scb/cy_scb_uart.h **** * \section group_scb_uart_more_information More Information
 268:Generated_Source\PSoC6\pdl\drivers\peripheral\scb/cy_scb_uart.h **** ********************************************************************************
 269:Generated_Source\PSoC6\pdl\drivers\peripheral\scb/cy_scb_uart.h **** * For more information on the SCB peripheral, refer to the technical reference
 270:Generated_Source\PSoC6\pdl\drivers\peripheral\scb/cy_scb_uart.h **** * manual (TRM).
 271:Generated_Source\PSoC6\pdl\drivers\peripheral\scb/cy_scb_uart.h **** *
 272:Generated_Source\PSoC6\pdl\drivers\peripheral\scb/cy_scb_uart.h **** ********************************************************************************
 273:Generated_Source\PSoC6\pdl\drivers\peripheral\scb/cy_scb_uart.h **** * \section group_scb_uart_MISRA MISRA-C Compliance
 274:Generated_Source\PSoC6\pdl\drivers\peripheral\scb/cy_scb_uart.h **** ********************************************************************************
 275:Generated_Source\PSoC6\pdl\drivers\peripheral\scb/cy_scb_uart.h **** * <table class="doxtable">
 276:Generated_Source\PSoC6\pdl\drivers\peripheral\scb/cy_scb_uart.h **** *   <tr>
 277:Generated_Source\PSoC6\pdl\drivers\peripheral\scb/cy_scb_uart.h **** *     <th>MISRA Rule</th>
 278:Generated_Source\PSoC6\pdl\drivers\peripheral\scb/cy_scb_uart.h **** *     <th>Rule Class (Required/Advisory)</th>
 279:Generated_Source\PSoC6\pdl\drivers\peripheral\scb/cy_scb_uart.h **** *     <th>Rule Description</th>
 280:Generated_Source\PSoC6\pdl\drivers\peripheral\scb/cy_scb_uart.h **** *     <th>Description of Deviation(s)</th>
 281:Generated_Source\PSoC6\pdl\drivers\peripheral\scb/cy_scb_uart.h **** *   </tr>
 282:Generated_Source\PSoC6\pdl\drivers\peripheral\scb/cy_scb_uart.h **** *   <tr>
 283:Generated_Source\PSoC6\pdl\drivers\peripheral\scb/cy_scb_uart.h **** *     <td>11.4</td>
 284:Generated_Source\PSoC6\pdl\drivers\peripheral\scb/cy_scb_uart.h **** *     <td>A</td>
 285:Generated_Source\PSoC6\pdl\drivers\peripheral\scb/cy_scb_uart.h **** *     <td>A cast should not be performed between a pointer to object type and
 286:Generated_Source\PSoC6\pdl\drivers\peripheral\scb/cy_scb_uart.h **** *         a different pointer to object type.</td>
 287:Generated_Source\PSoC6\pdl\drivers\peripheral\scb/cy_scb_uart.h **** *     <td>
 288:Generated_Source\PSoC6\pdl\drivers\peripheral\scb/cy_scb_uart.h **** *         * The pointer to the buffer memory is void to allow handling different
 289:Generated_Source\PSoC6\pdl\drivers\peripheral\scb/cy_scb_uart.h **** *         different data types: uint8_t (4-8 bits) or uint16_t (9-16 bits).
 290:Generated_Source\PSoC6\pdl\drivers\peripheral\scb/cy_scb_uart.h **** *         The cast operation is safe because the configuration is verified
 291:Generated_Source\PSoC6\pdl\drivers\peripheral\scb/cy_scb_uart.h **** *         before operation is performed.
 292:Generated_Source\PSoC6\pdl\drivers\peripheral\scb/cy_scb_uart.h **** *         * The functions \ref Cy_SCB_UART_DeepSleepCallback and
 293:Generated_Source\PSoC6\pdl\drivers\peripheral\scb/cy_scb_uart.h **** *         \ref Cy_SCB_UART_HibernateCallback are callback of
 294:Generated_Source\PSoC6\pdl\drivers\peripheral\scb/cy_scb_uart.h **** *         \ref cy_en_syspm_status_t type. The cast operation safety in these
 295:Generated_Source\PSoC6\pdl\drivers\peripheral\scb/cy_scb_uart.h **** *         functions becomes the user's responsibility because pointers are
 296:Generated_Source\PSoC6\pdl\drivers\peripheral\scb/cy_scb_uart.h **** *         initialized when callback is registered in SysPm driver.</td>
 297:Generated_Source\PSoC6\pdl\drivers\peripheral\scb/cy_scb_uart.h **** *   </tr>
 298:Generated_Source\PSoC6\pdl\drivers\peripheral\scb/cy_scb_uart.h **** *   <tr>
 299:Generated_Source\PSoC6\pdl\drivers\peripheral\scb/cy_scb_uart.h **** *     <td>14.2</td>
 300:Generated_Source\PSoC6\pdl\drivers\peripheral\scb/cy_scb_uart.h **** *     <td>R</td>
 301:Generated_Source\PSoC6\pdl\drivers\peripheral\scb/cy_scb_uart.h **** *     <td>All non-null statements shall either: a) have at least one side-effect
 302:Generated_Source\PSoC6\pdl\drivers\peripheral\scb/cy_scb_uart.h **** *         however executed, or b) cause control flow to change.</td>
 303:Generated_Source\PSoC6\pdl\drivers\peripheral\scb/cy_scb_uart.h **** *     <td>The unused function parameters are cast to void. This statement
 304:Generated_Source\PSoC6\pdl\drivers\peripheral\scb/cy_scb_uart.h **** *         has no side-effect and is used to suppress a compiler warning.</td>
 305:Generated_Source\PSoC6\pdl\drivers\peripheral\scb/cy_scb_uart.h **** *   </tr>
 306:Generated_Source\PSoC6\pdl\drivers\peripheral\scb/cy_scb_uart.h **** *   <tr>
 307:Generated_Source\PSoC6\pdl\drivers\peripheral\scb/cy_scb_uart.h **** *     <td>14.7</td>
 308:Generated_Source\PSoC6\pdl\drivers\peripheral\scb/cy_scb_uart.h **** *     <td>R</td>
 309:Generated_Source\PSoC6\pdl\drivers\peripheral\scb/cy_scb_uart.h **** *     <td>A function shall have a single point of exit at the end of the
 310:Generated_Source\PSoC6\pdl\drivers\peripheral\scb/cy_scb_uart.h **** *         function.</td>
ARM GAS  C:\Users\pearlstl\AppData\Local\Temp\ccAUXqAU.s 			page 49


 311:Generated_Source\PSoC6\pdl\drivers\peripheral\scb/cy_scb_uart.h **** *     <td>The functions can return from several points. This is done to improve
 312:Generated_Source\PSoC6\pdl\drivers\peripheral\scb/cy_scb_uart.h **** *         code clarity when returning error status code if input parameters
 313:Generated_Source\PSoC6\pdl\drivers\peripheral\scb/cy_scb_uart.h **** *         validation fails.</td>
 314:Generated_Source\PSoC6\pdl\drivers\peripheral\scb/cy_scb_uart.h **** *   </tr>
 315:Generated_Source\PSoC6\pdl\drivers\peripheral\scb/cy_scb_uart.h **** * </table>
 316:Generated_Source\PSoC6\pdl\drivers\peripheral\scb/cy_scb_uart.h **** *
 317:Generated_Source\PSoC6\pdl\drivers\peripheral\scb/cy_scb_uart.h **** * \section group_scb_uart_changelog Changelog
 318:Generated_Source\PSoC6\pdl\drivers\peripheral\scb/cy_scb_uart.h **** * <table class="doxtable">
 319:Generated_Source\PSoC6\pdl\drivers\peripheral\scb/cy_scb_uart.h **** *   <tr><th>Version</th><th>Changes</th><th>Reason for Change</th></tr>
 320:Generated_Source\PSoC6\pdl\drivers\peripheral\scb/cy_scb_uart.h **** *   <tr>
 321:Generated_Source\PSoC6\pdl\drivers\peripheral\scb/cy_scb_uart.h **** *     <td rowspan="2">2.20</td>
 322:Generated_Source\PSoC6\pdl\drivers\peripheral\scb/cy_scb_uart.h **** *     <td>Flattened the organization of the driver source code into the single 
 323:Generated_Source\PSoC6\pdl\drivers\peripheral\scb/cy_scb_uart.h **** *         source directory and the single include directory.
 324:Generated_Source\PSoC6\pdl\drivers\peripheral\scb/cy_scb_uart.h **** *     </td>
 325:Generated_Source\PSoC6\pdl\drivers\peripheral\scb/cy_scb_uart.h **** *     <td>Driver library directory-structure simplification.</td>
 326:Generated_Source\PSoC6\pdl\drivers\peripheral\scb/cy_scb_uart.h **** *   </tr>
 327:Generated_Source\PSoC6\pdl\drivers\peripheral\scb/cy_scb_uart.h **** *   <tr>
 328:Generated_Source\PSoC6\pdl\drivers\peripheral\scb/cy_scb_uart.h **** *     <td>Added register access layer. Use register access macros instead
 329:Generated_Source\PSoC6\pdl\drivers\peripheral\scb/cy_scb_uart.h **** *         of direct register access using dereferenced pointers.</td>
 330:Generated_Source\PSoC6\pdl\drivers\peripheral\scb/cy_scb_uart.h **** *     <td>Makes register access device-independent, so that the PDL does 
 331:Generated_Source\PSoC6\pdl\drivers\peripheral\scb/cy_scb_uart.h **** *         not need to be recompiled for each supported part number.</td>
 332:Generated_Source\PSoC6\pdl\drivers\peripheral\scb/cy_scb_uart.h **** *   </tr>
 333:Generated_Source\PSoC6\pdl\drivers\peripheral\scb/cy_scb_uart.h **** *   <tr>
 334:Generated_Source\PSoC6\pdl\drivers\peripheral\scb/cy_scb_uart.h **** *     <td>2.10</td>
 335:Generated_Source\PSoC6\pdl\drivers\peripheral\scb/cy_scb_uart.h **** *     <td>None.</td>
 336:Generated_Source\PSoC6\pdl\drivers\peripheral\scb/cy_scb_uart.h **** *     <td>SCB I2C driver updated.</td>
 337:Generated_Source\PSoC6\pdl\drivers\peripheral\scb/cy_scb_uart.h **** *   </tr>
 338:Generated_Source\PSoC6\pdl\drivers\peripheral\scb/cy_scb_uart.h **** *   <tr>
 339:Generated_Source\PSoC6\pdl\drivers\peripheral\scb/cy_scb_uart.h **** *     <td rowspan="5">2.0</td>
 340:Generated_Source\PSoC6\pdl\drivers\peripheral\scb/cy_scb_uart.h **** *     <td>Added parameters validation for public API.</td>
 341:Generated_Source\PSoC6\pdl\drivers\peripheral\scb/cy_scb_uart.h **** *     <td></td>
 342:Generated_Source\PSoC6\pdl\drivers\peripheral\scb/cy_scb_uart.h **** *   </tr>
 343:Generated_Source\PSoC6\pdl\drivers\peripheral\scb/cy_scb_uart.h **** *   <tr>
 344:Generated_Source\PSoC6\pdl\drivers\peripheral\scb/cy_scb_uart.h **** *     <td>Replaced variables that have limited range of values with enumerated
 345:Generated_Source\PSoC6\pdl\drivers\peripheral\scb/cy_scb_uart.h **** *         types.</td>
 346:Generated_Source\PSoC6\pdl\drivers\peripheral\scb/cy_scb_uart.h **** *     <td></td>
 347:Generated_Source\PSoC6\pdl\drivers\peripheral\scb/cy_scb_uart.h **** *   </tr>
 348:Generated_Source\PSoC6\pdl\drivers\peripheral\scb/cy_scb_uart.h **** *   <tr>
 349:Generated_Source\PSoC6\pdl\drivers\peripheral\scb/cy_scb_uart.h **** *     <td>Added missing "cy_cb_" to the callback function type names.</td>
 350:Generated_Source\PSoC6\pdl\drivers\peripheral\scb/cy_scb_uart.h **** *     <td></td>
 351:Generated_Source\PSoC6\pdl\drivers\peripheral\scb/cy_scb_uart.h **** *   </tr>
 352:Generated_Source\PSoC6\pdl\drivers\peripheral\scb/cy_scb_uart.h **** *   <tr>
 353:Generated_Source\PSoC6\pdl\drivers\peripheral\scb/cy_scb_uart.h **** *     <td>Added function \ref Cy_SCB_UART_SendBreakBlocking for break condition
 354:Generated_Source\PSoC6\pdl\drivers\peripheral\scb/cy_scb_uart.h **** *         generation.</td>
 355:Generated_Source\PSoC6\pdl\drivers\peripheral\scb/cy_scb_uart.h **** *     <td></td>
 356:Generated_Source\PSoC6\pdl\drivers\peripheral\scb/cy_scb_uart.h **** *   </tr>
 357:Generated_Source\PSoC6\pdl\drivers\peripheral\scb/cy_scb_uart.h **** *   <tr>
 358:Generated_Source\PSoC6\pdl\drivers\peripheral\scb/cy_scb_uart.h **** *     <td>Fixed low power callbacks \ref Cy_SCB_UART_DeepSleepCallback and
 359:Generated_Source\PSoC6\pdl\drivers\peripheral\scb/cy_scb_uart.h **** *         \ref Cy_SCB_UART_HibernateCallback to prevent the device from entering
 360:Generated_Source\PSoC6\pdl\drivers\peripheral\scb/cy_scb_uart.h **** *         low power mode when RX FIFO is not empty.</td>
 361:Generated_Source\PSoC6\pdl\drivers\peripheral\scb/cy_scb_uart.h **** *     <td>The callbacks allowed entering device into low power mode when RX FIFO
 362:Generated_Source\PSoC6\pdl\drivers\peripheral\scb/cy_scb_uart.h **** *         had data.</td>
 363:Generated_Source\PSoC6\pdl\drivers\peripheral\scb/cy_scb_uart.h **** *   </tr>
 364:Generated_Source\PSoC6\pdl\drivers\peripheral\scb/cy_scb_uart.h **** *   <tr>
 365:Generated_Source\PSoC6\pdl\drivers\peripheral\scb/cy_scb_uart.h **** *     <td>1.0</td>
 366:Generated_Source\PSoC6\pdl\drivers\peripheral\scb/cy_scb_uart.h **** *     <td>Initial version.</td>
 367:Generated_Source\PSoC6\pdl\drivers\peripheral\scb/cy_scb_uart.h **** *     <td></td>
ARM GAS  C:\Users\pearlstl\AppData\Local\Temp\ccAUXqAU.s 			page 50


 368:Generated_Source\PSoC6\pdl\drivers\peripheral\scb/cy_scb_uart.h **** *   </tr>
 369:Generated_Source\PSoC6\pdl\drivers\peripheral\scb/cy_scb_uart.h **** * </table>
 370:Generated_Source\PSoC6\pdl\drivers\peripheral\scb/cy_scb_uart.h **** *
 371:Generated_Source\PSoC6\pdl\drivers\peripheral\scb/cy_scb_uart.h **** * \defgroup group_scb_uart_macros Macros
 372:Generated_Source\PSoC6\pdl\drivers\peripheral\scb/cy_scb_uart.h **** * \defgroup group_scb_uart_functions Functions
 373:Generated_Source\PSoC6\pdl\drivers\peripheral\scb/cy_scb_uart.h **** * \{
 374:Generated_Source\PSoC6\pdl\drivers\peripheral\scb/cy_scb_uart.h **** * \defgroup group_scb_uart_general_functions General
 375:Generated_Source\PSoC6\pdl\drivers\peripheral\scb/cy_scb_uart.h **** * \defgroup group_scb_uart_high_level_functions High-Level
 376:Generated_Source\PSoC6\pdl\drivers\peripheral\scb/cy_scb_uart.h **** * \defgroup group_scb_uart_low_level_functions Low-Level
 377:Generated_Source\PSoC6\pdl\drivers\peripheral\scb/cy_scb_uart.h **** * \defgroup group_scb_uart_interrupt_functions Interrupt
 378:Generated_Source\PSoC6\pdl\drivers\peripheral\scb/cy_scb_uart.h **** * \defgroup group_scb_uart_low_power_functions Low Power Callbacks
 379:Generated_Source\PSoC6\pdl\drivers\peripheral\scb/cy_scb_uart.h **** * \}
 380:Generated_Source\PSoC6\pdl\drivers\peripheral\scb/cy_scb_uart.h **** * \defgroup group_scb_uart_data_structures Data Structures
 381:Generated_Source\PSoC6\pdl\drivers\peripheral\scb/cy_scb_uart.h **** * \defgroup group_scb_uart_enums Enumerated Types
 382:Generated_Source\PSoC6\pdl\drivers\peripheral\scb/cy_scb_uart.h **** */
 383:Generated_Source\PSoC6\pdl\drivers\peripheral\scb/cy_scb_uart.h **** 
 384:Generated_Source\PSoC6\pdl\drivers\peripheral\scb/cy_scb_uart.h **** #if !defined(CY_SCB_UART_H)
 385:Generated_Source\PSoC6\pdl\drivers\peripheral\scb/cy_scb_uart.h **** #define CY_SCB_UART_H
 386:Generated_Source\PSoC6\pdl\drivers\peripheral\scb/cy_scb_uart.h **** 
 387:Generated_Source\PSoC6\pdl\drivers\peripheral\scb/cy_scb_uart.h **** #include "cy_scb_common.h"
 388:Generated_Source\PSoC6\pdl\drivers\peripheral\scb/cy_scb_uart.h **** 
 389:Generated_Source\PSoC6\pdl\drivers\peripheral\scb/cy_scb_uart.h **** #if defined(__cplusplus)
 390:Generated_Source\PSoC6\pdl\drivers\peripheral\scb/cy_scb_uart.h **** extern "C" {
 391:Generated_Source\PSoC6\pdl\drivers\peripheral\scb/cy_scb_uart.h **** #endif
 392:Generated_Source\PSoC6\pdl\drivers\peripheral\scb/cy_scb_uart.h **** 
 393:Generated_Source\PSoC6\pdl\drivers\peripheral\scb/cy_scb_uart.h **** /***************************************
 394:Generated_Source\PSoC6\pdl\drivers\peripheral\scb/cy_scb_uart.h **** *          Enumerated Types
 395:Generated_Source\PSoC6\pdl\drivers\peripheral\scb/cy_scb_uart.h **** ***************************************/
 396:Generated_Source\PSoC6\pdl\drivers\peripheral\scb/cy_scb_uart.h **** 
 397:Generated_Source\PSoC6\pdl\drivers\peripheral\scb/cy_scb_uart.h **** /**
 398:Generated_Source\PSoC6\pdl\drivers\peripheral\scb/cy_scb_uart.h **** * \addtogroup group_scb_uart_enums
 399:Generated_Source\PSoC6\pdl\drivers\peripheral\scb/cy_scb_uart.h **** * \{
 400:Generated_Source\PSoC6\pdl\drivers\peripheral\scb/cy_scb_uart.h **** */
 401:Generated_Source\PSoC6\pdl\drivers\peripheral\scb/cy_scb_uart.h **** 
 402:Generated_Source\PSoC6\pdl\drivers\peripheral\scb/cy_scb_uart.h **** /** UART status codes */
 403:Generated_Source\PSoC6\pdl\drivers\peripheral\scb/cy_scb_uart.h **** typedef enum
 404:Generated_Source\PSoC6\pdl\drivers\peripheral\scb/cy_scb_uart.h **** {
 405:Generated_Source\PSoC6\pdl\drivers\peripheral\scb/cy_scb_uart.h ****     /** Operation completed successfully */
 406:Generated_Source\PSoC6\pdl\drivers\peripheral\scb/cy_scb_uart.h ****     CY_SCB_UART_SUCCESS = 0U,
 407:Generated_Source\PSoC6\pdl\drivers\peripheral\scb/cy_scb_uart.h **** 
 408:Generated_Source\PSoC6\pdl\drivers\peripheral\scb/cy_scb_uart.h ****     /** One or more of input parameters are invalid */
 409:Generated_Source\PSoC6\pdl\drivers\peripheral\scb/cy_scb_uart.h ****     CY_SCB_UART_BAD_PARAM = (CY_SCB_ID | CY_PDL_STATUS_ERROR | CY_SCB_UART_ID | 1U),
 410:Generated_Source\PSoC6\pdl\drivers\peripheral\scb/cy_scb_uart.h **** 
 411:Generated_Source\PSoC6\pdl\drivers\peripheral\scb/cy_scb_uart.h ****     /**
 412:Generated_Source\PSoC6\pdl\drivers\peripheral\scb/cy_scb_uart.h ****     * The UART is busy processing a receive operation.
 413:Generated_Source\PSoC6\pdl\drivers\peripheral\scb/cy_scb_uart.h ****     */
 414:Generated_Source\PSoC6\pdl\drivers\peripheral\scb/cy_scb_uart.h ****     CY_SCB_UART_RECEIVE_BUSY = (CY_SCB_ID | CY_PDL_STATUS_ERROR | CY_SCB_UART_ID | 2U),
 415:Generated_Source\PSoC6\pdl\drivers\peripheral\scb/cy_scb_uart.h **** 
 416:Generated_Source\PSoC6\pdl\drivers\peripheral\scb/cy_scb_uart.h ****     /**
 417:Generated_Source\PSoC6\pdl\drivers\peripheral\scb/cy_scb_uart.h ****     * The UART is busy processing a transmit operation.
 418:Generated_Source\PSoC6\pdl\drivers\peripheral\scb/cy_scb_uart.h ****     */
 419:Generated_Source\PSoC6\pdl\drivers\peripheral\scb/cy_scb_uart.h ****     CY_SCB_UART_TRANSMIT_BUSY = (CY_SCB_ID | CY_PDL_STATUS_ERROR | CY_SCB_UART_ID | 3U)
 420:Generated_Source\PSoC6\pdl\drivers\peripheral\scb/cy_scb_uart.h **** } cy_en_scb_uart_status_t;
 421:Generated_Source\PSoC6\pdl\drivers\peripheral\scb/cy_scb_uart.h **** 
 422:Generated_Source\PSoC6\pdl\drivers\peripheral\scb/cy_scb_uart.h **** /** UART Mode */
 423:Generated_Source\PSoC6\pdl\drivers\peripheral\scb/cy_scb_uart.h **** typedef enum
 424:Generated_Source\PSoC6\pdl\drivers\peripheral\scb/cy_scb_uart.h **** {
ARM GAS  C:\Users\pearlstl\AppData\Local\Temp\ccAUXqAU.s 			page 51


 425:Generated_Source\PSoC6\pdl\drivers\peripheral\scb/cy_scb_uart.h ****     CY_SCB_UART_STANDARD  = 0U, /**< Configures the SCB for Standard UART operation */
 426:Generated_Source\PSoC6\pdl\drivers\peripheral\scb/cy_scb_uart.h ****     CY_SCB_UART_SMARTCARD = 1U, /**< Configures the SCB for SmartCard operation */
 427:Generated_Source\PSoC6\pdl\drivers\peripheral\scb/cy_scb_uart.h ****     CY_SCB_UART_IRDA      = 2U, /**< Configures the SCB for IrDA operation */
 428:Generated_Source\PSoC6\pdl\drivers\peripheral\scb/cy_scb_uart.h **** } cy_en_scb_uart_mode_t;
 429:Generated_Source\PSoC6\pdl\drivers\peripheral\scb/cy_scb_uart.h **** 
 430:Generated_Source\PSoC6\pdl\drivers\peripheral\scb/cy_scb_uart.h **** /** UART Stop Bits */
 431:Generated_Source\PSoC6\pdl\drivers\peripheral\scb/cy_scb_uart.h **** typedef enum
 432:Generated_Source\PSoC6\pdl\drivers\peripheral\scb/cy_scb_uart.h **** {
 433:Generated_Source\PSoC6\pdl\drivers\peripheral\scb/cy_scb_uart.h ****     CY_SCB_UART_STOP_BITS_1   = 2U,  /**< UART looks for 1 Stop Bit    */
 434:Generated_Source\PSoC6\pdl\drivers\peripheral\scb/cy_scb_uart.h ****     CY_SCB_UART_STOP_BITS_1_5 = 3U,  /**< UART looks for 1.5 Stop Bits */
 435:Generated_Source\PSoC6\pdl\drivers\peripheral\scb/cy_scb_uart.h ****     CY_SCB_UART_STOP_BITS_2   = 4U,  /**< UART looks for 2 Stop Bits   */
 436:Generated_Source\PSoC6\pdl\drivers\peripheral\scb/cy_scb_uart.h ****     CY_SCB_UART_STOP_BITS_2_5 = 5U,  /**< UART looks for 2.5 Stop Bits */
 437:Generated_Source\PSoC6\pdl\drivers\peripheral\scb/cy_scb_uart.h ****     CY_SCB_UART_STOP_BITS_3   = 6U,  /**< UART looks for 3 Stop Bits   */
 438:Generated_Source\PSoC6\pdl\drivers\peripheral\scb/cy_scb_uart.h ****     CY_SCB_UART_STOP_BITS_3_5 = 7U,  /**< UART looks for 3.5 Stop Bits */
 439:Generated_Source\PSoC6\pdl\drivers\peripheral\scb/cy_scb_uart.h ****     CY_SCB_UART_STOP_BITS_4   = 8U,  /**< UART looks for 4 Stop Bits   */
 440:Generated_Source\PSoC6\pdl\drivers\peripheral\scb/cy_scb_uart.h **** } cy_en_scb_uart_stop_bits_t;
 441:Generated_Source\PSoC6\pdl\drivers\peripheral\scb/cy_scb_uart.h **** 
 442:Generated_Source\PSoC6\pdl\drivers\peripheral\scb/cy_scb_uart.h **** /** UART Parity */
 443:Generated_Source\PSoC6\pdl\drivers\peripheral\scb/cy_scb_uart.h **** typedef enum
 444:Generated_Source\PSoC6\pdl\drivers\peripheral\scb/cy_scb_uart.h **** {
 445:Generated_Source\PSoC6\pdl\drivers\peripheral\scb/cy_scb_uart.h ****     CY_SCB_UART_PARITY_NONE = 0U,    /**< UART has no parity check   */
 446:Generated_Source\PSoC6\pdl\drivers\peripheral\scb/cy_scb_uart.h ****     CY_SCB_UART_PARITY_EVEN = 2U,    /**< UART has even parity check */
 447:Generated_Source\PSoC6\pdl\drivers\peripheral\scb/cy_scb_uart.h ****     CY_SCB_UART_PARITY_ODD  = 3U,    /**< UART has odd parity check  */
 448:Generated_Source\PSoC6\pdl\drivers\peripheral\scb/cy_scb_uart.h **** } cy_en_scb_uart_parity_t;
 449:Generated_Source\PSoC6\pdl\drivers\peripheral\scb/cy_scb_uart.h **** 
 450:Generated_Source\PSoC6\pdl\drivers\peripheral\scb/cy_scb_uart.h **** /** UART Polarity */
 451:Generated_Source\PSoC6\pdl\drivers\peripheral\scb/cy_scb_uart.h **** typedef enum
 452:Generated_Source\PSoC6\pdl\drivers\peripheral\scb/cy_scb_uart.h **** {
 453:Generated_Source\PSoC6\pdl\drivers\peripheral\scb/cy_scb_uart.h ****     CY_SCB_UART_ACTIVE_LOW  = 0U,   /**< Signal is active low */
 454:Generated_Source\PSoC6\pdl\drivers\peripheral\scb/cy_scb_uart.h ****     CY_SCB_UART_ACTIVE_HIGH = 1U,   /**< Signal is active high */
 455:Generated_Source\PSoC6\pdl\drivers\peripheral\scb/cy_scb_uart.h **** } cy_en_scb_uart_polarity_t;
 456:Generated_Source\PSoC6\pdl\drivers\peripheral\scb/cy_scb_uart.h **** /** \} group_scb_uart_enums */
 457:Generated_Source\PSoC6\pdl\drivers\peripheral\scb/cy_scb_uart.h **** 
 458:Generated_Source\PSoC6\pdl\drivers\peripheral\scb/cy_scb_uart.h **** 
 459:Generated_Source\PSoC6\pdl\drivers\peripheral\scb/cy_scb_uart.h **** /*******************************************************************************
 460:Generated_Source\PSoC6\pdl\drivers\peripheral\scb/cy_scb_uart.h **** *                           Type Definitions
 461:Generated_Source\PSoC6\pdl\drivers\peripheral\scb/cy_scb_uart.h **** *******************************************************************************/
 462:Generated_Source\PSoC6\pdl\drivers\peripheral\scb/cy_scb_uart.h **** 
 463:Generated_Source\PSoC6\pdl\drivers\peripheral\scb/cy_scb_uart.h **** /**
 464:Generated_Source\PSoC6\pdl\drivers\peripheral\scb/cy_scb_uart.h **** * \addtogroup group_scb_uart_data_structures
 465:Generated_Source\PSoC6\pdl\drivers\peripheral\scb/cy_scb_uart.h **** * \{
 466:Generated_Source\PSoC6\pdl\drivers\peripheral\scb/cy_scb_uart.h **** */
 467:Generated_Source\PSoC6\pdl\drivers\peripheral\scb/cy_scb_uart.h **** 
 468:Generated_Source\PSoC6\pdl\drivers\peripheral\scb/cy_scb_uart.h **** /**
 469:Generated_Source\PSoC6\pdl\drivers\peripheral\scb/cy_scb_uart.h **** * Provides the typedef for the callback function called in the
 470:Generated_Source\PSoC6\pdl\drivers\peripheral\scb/cy_scb_uart.h **** * \ref Cy_SCB_UART_Interrupt to notify the user about occurrences of
 471:Generated_Source\PSoC6\pdl\drivers\peripheral\scb/cy_scb_uart.h **** * \ref group_scb_uart_macros_callback_events.
 472:Generated_Source\PSoC6\pdl\drivers\peripheral\scb/cy_scb_uart.h **** */
 473:Generated_Source\PSoC6\pdl\drivers\peripheral\scb/cy_scb_uart.h **** typedef void (* cy_cb_scb_uart_handle_events_t)(uint32_t event);
 474:Generated_Source\PSoC6\pdl\drivers\peripheral\scb/cy_scb_uart.h **** 
 475:Generated_Source\PSoC6\pdl\drivers\peripheral\scb/cy_scb_uart.h **** /** UART configuration structure */
 476:Generated_Source\PSoC6\pdl\drivers\peripheral\scb/cy_scb_uart.h **** typedef struct stc_scb_uart_config
 477:Generated_Source\PSoC6\pdl\drivers\peripheral\scb/cy_scb_uart.h **** {
 478:Generated_Source\PSoC6\pdl\drivers\peripheral\scb/cy_scb_uart.h ****     /** Specifies the UART's mode of operation */
 479:Generated_Source\PSoC6\pdl\drivers\peripheral\scb/cy_scb_uart.h ****     cy_en_scb_uart_mode_t    uartMode;
 480:Generated_Source\PSoC6\pdl\drivers\peripheral\scb/cy_scb_uart.h **** 
 481:Generated_Source\PSoC6\pdl\drivers\peripheral\scb/cy_scb_uart.h ****     /**
ARM GAS  C:\Users\pearlstl\AppData\Local\Temp\ccAUXqAU.s 			page 52


 482:Generated_Source\PSoC6\pdl\drivers\peripheral\scb/cy_scb_uart.h ****     * Oversample factor for UART.
 483:Generated_Source\PSoC6\pdl\drivers\peripheral\scb/cy_scb_uart.h ****     * * The UART baud rate is the SCB Clock frequency / oversample
 484:Generated_Source\PSoC6\pdl\drivers\peripheral\scb/cy_scb_uart.h ****     *  (valid range is 8-16).
 485:Generated_Source\PSoC6\pdl\drivers\peripheral\scb/cy_scb_uart.h ****     * * For IrDA, the oversample is always 16, unless
 486:Generated_Source\PSoC6\pdl\drivers\peripheral\scb/cy_scb_uart.h ****     * \ref irdaEnableLowPowerReceiver is enabled. Then the oversample is
 487:Generated_Source\PSoC6\pdl\drivers\peripheral\scb/cy_scb_uart.h ****     * reduced to the \ref group_scb_uart_macros_irda_lp_ovs set.
 488:Generated_Source\PSoC6\pdl\drivers\peripheral\scb/cy_scb_uart.h ****     */
 489:Generated_Source\PSoC6\pdl\drivers\peripheral\scb/cy_scb_uart.h ****     uint32_t    oversample;
 490:Generated_Source\PSoC6\pdl\drivers\peripheral\scb/cy_scb_uart.h **** 
 491:Generated_Source\PSoC6\pdl\drivers\peripheral\scb/cy_scb_uart.h ****     /** The width of UART data (valid range is 5 to 9) */
 492:Generated_Source\PSoC6\pdl\drivers\peripheral\scb/cy_scb_uart.h ****     uint32_t    dataWidth;
 493:Generated_Source\PSoC6\pdl\drivers\peripheral\scb/cy_scb_uart.h **** 
 494:Generated_Source\PSoC6\pdl\drivers\peripheral\scb/cy_scb_uart.h ****     /**
 495:Generated_Source\PSoC6\pdl\drivers\peripheral\scb/cy_scb_uart.h ****     * Enables the hardware to shift out data element MSB first; otherwise,
 496:Generated_Source\PSoC6\pdl\drivers\peripheral\scb/cy_scb_uart.h ****     * LSB first
 497:Generated_Source\PSoC6\pdl\drivers\peripheral\scb/cy_scb_uart.h ****     */
 498:Generated_Source\PSoC6\pdl\drivers\peripheral\scb/cy_scb_uart.h ****     bool        enableMsbFirst;
 499:Generated_Source\PSoC6\pdl\drivers\peripheral\scb/cy_scb_uart.h **** 
 500:Generated_Source\PSoC6\pdl\drivers\peripheral\scb/cy_scb_uart.h ****     /**
 501:Generated_Source\PSoC6\pdl\drivers\peripheral\scb/cy_scb_uart.h ****     * Specifies the number of stop bits in the UART transaction, in half-bit
 502:Generated_Source\PSoC6\pdl\drivers\peripheral\scb/cy_scb_uart.h ****     * increments
 503:Generated_Source\PSoC6\pdl\drivers\peripheral\scb/cy_scb_uart.h ****     */
 504:Generated_Source\PSoC6\pdl\drivers\peripheral\scb/cy_scb_uart.h ****     cy_en_scb_uart_stop_bits_t    stopBits;
 505:Generated_Source\PSoC6\pdl\drivers\peripheral\scb/cy_scb_uart.h **** 
 506:Generated_Source\PSoC6\pdl\drivers\peripheral\scb/cy_scb_uart.h ****     /** Configures the UART parity */
 507:Generated_Source\PSoC6\pdl\drivers\peripheral\scb/cy_scb_uart.h ****     cy_en_scb_uart_parity_t    parity;
 508:Generated_Source\PSoC6\pdl\drivers\peripheral\scb/cy_scb_uart.h **** 
 509:Generated_Source\PSoC6\pdl\drivers\peripheral\scb/cy_scb_uart.h ****     /**
 510:Generated_Source\PSoC6\pdl\drivers\peripheral\scb/cy_scb_uart.h ****     * Enables a digital 3-tap median filter (2 out of 3 voting) to be applied 
 511:Generated_Source\PSoC6\pdl\drivers\peripheral\scb/cy_scb_uart.h ****     * to the input of the RX FIFO to filter glitches on the line (for IrDA, 
 512:Generated_Source\PSoC6\pdl\drivers\peripheral\scb/cy_scb_uart.h ****     * this parameter is ignored)
 513:Generated_Source\PSoC6\pdl\drivers\peripheral\scb/cy_scb_uart.h ****     *
 514:Generated_Source\PSoC6\pdl\drivers\peripheral\scb/cy_scb_uart.h ****     */
 515:Generated_Source\PSoC6\pdl\drivers\peripheral\scb/cy_scb_uart.h ****     bool        enableInputFilter;
 516:Generated_Source\PSoC6\pdl\drivers\peripheral\scb/cy_scb_uart.h **** 
 517:Generated_Source\PSoC6\pdl\drivers\peripheral\scb/cy_scb_uart.h ****     /**
 518:Generated_Source\PSoC6\pdl\drivers\peripheral\scb/cy_scb_uart.h ****     * Enables the hardware to drop data in the RX FIFO when a parity error is
 519:Generated_Source\PSoC6\pdl\drivers\peripheral\scb/cy_scb_uart.h ****     * detected
 520:Generated_Source\PSoC6\pdl\drivers\peripheral\scb/cy_scb_uart.h ****     */
 521:Generated_Source\PSoC6\pdl\drivers\peripheral\scb/cy_scb_uart.h ****     bool        dropOnParityError;
 522:Generated_Source\PSoC6\pdl\drivers\peripheral\scb/cy_scb_uart.h **** 
 523:Generated_Source\PSoC6\pdl\drivers\peripheral\scb/cy_scb_uart.h ****     /**
 524:Generated_Source\PSoC6\pdl\drivers\peripheral\scb/cy_scb_uart.h ****     * Enables the hardware to drop data in the RX FIFO when a frame error is
 525:Generated_Source\PSoC6\pdl\drivers\peripheral\scb/cy_scb_uart.h ****     * detected
 526:Generated_Source\PSoC6\pdl\drivers\peripheral\scb/cy_scb_uart.h ****     */
 527:Generated_Source\PSoC6\pdl\drivers\peripheral\scb/cy_scb_uart.h ****     bool        dropOnFrameError;
 528:Generated_Source\PSoC6\pdl\drivers\peripheral\scb/cy_scb_uart.h **** 
 529:Generated_Source\PSoC6\pdl\drivers\peripheral\scb/cy_scb_uart.h ****     /**
 530:Generated_Source\PSoC6\pdl\drivers\peripheral\scb/cy_scb_uart.h ****     * Enables the UART operation in Multi-Processor mode which requires
 531:Generated_Source\PSoC6\pdl\drivers\peripheral\scb/cy_scb_uart.h ****     * dataWidth to be 9 bits (the 9th bit is used to indicate address byte)
 532:Generated_Source\PSoC6\pdl\drivers\peripheral\scb/cy_scb_uart.h ****     */
 533:Generated_Source\PSoC6\pdl\drivers\peripheral\scb/cy_scb_uart.h ****     bool        enableMutliProcessorMode;
 534:Generated_Source\PSoC6\pdl\drivers\peripheral\scb/cy_scb_uart.h **** 
 535:Generated_Source\PSoC6\pdl\drivers\peripheral\scb/cy_scb_uart.h ****     /**
 536:Generated_Source\PSoC6\pdl\drivers\peripheral\scb/cy_scb_uart.h ****     * If Multi Processor mode is enabled, this is the address of the RX
 537:Generated_Source\PSoC6\pdl\drivers\peripheral\scb/cy_scb_uart.h ****     * FIFO. If the address matches, data is accepted into the FIFO. If
 538:Generated_Source\PSoC6\pdl\drivers\peripheral\scb/cy_scb_uart.h ****     * it does not match, the data is ignored.
ARM GAS  C:\Users\pearlstl\AppData\Local\Temp\ccAUXqAU.s 			page 53


 539:Generated_Source\PSoC6\pdl\drivers\peripheral\scb/cy_scb_uart.h ****     */
 540:Generated_Source\PSoC6\pdl\drivers\peripheral\scb/cy_scb_uart.h ****     uint32_t    receiverAddress;
 541:Generated_Source\PSoC6\pdl\drivers\peripheral\scb/cy_scb_uart.h **** 
 542:Generated_Source\PSoC6\pdl\drivers\peripheral\scb/cy_scb_uart.h ****     /**
 543:Generated_Source\PSoC6\pdl\drivers\peripheral\scb/cy_scb_uart.h ****     * This is the address mask for the Multi Processor address. 1 indicates
 544:Generated_Source\PSoC6\pdl\drivers\peripheral\scb/cy_scb_uart.h ****     * that the incoming address must match the corresponding bit in the slave
 545:Generated_Source\PSoC6\pdl\drivers\peripheral\scb/cy_scb_uart.h ****     * address. A 0 in the mask indicates that the incoming address does
 546:Generated_Source\PSoC6\pdl\drivers\peripheral\scb/cy_scb_uart.h ****     * not need to match.
 547:Generated_Source\PSoC6\pdl\drivers\peripheral\scb/cy_scb_uart.h ****     */
 548:Generated_Source\PSoC6\pdl\drivers\peripheral\scb/cy_scb_uart.h ****     uint32_t    receiverAddressMask;
 549:Generated_Source\PSoC6\pdl\drivers\peripheral\scb/cy_scb_uart.h **** 
 550:Generated_Source\PSoC6\pdl\drivers\peripheral\scb/cy_scb_uart.h ****     /**
 551:Generated_Source\PSoC6\pdl\drivers\peripheral\scb/cy_scb_uart.h ****     * Enables the hardware to accept the matching address in the RX FIFO.
 552:Generated_Source\PSoC6\pdl\drivers\peripheral\scb/cy_scb_uart.h ****     * This is useful when the device supports more than one address.
 553:Generated_Source\PSoC6\pdl\drivers\peripheral\scb/cy_scb_uart.h ****     */
 554:Generated_Source\PSoC6\pdl\drivers\peripheral\scb/cy_scb_uart.h ****     bool        acceptAddrInFifo;
 555:Generated_Source\PSoC6\pdl\drivers\peripheral\scb/cy_scb_uart.h **** 
 556:Generated_Source\PSoC6\pdl\drivers\peripheral\scb/cy_scb_uart.h ****     /** Inverts the IrDA RX input */
 557:Generated_Source\PSoC6\pdl\drivers\peripheral\scb/cy_scb_uart.h ****     bool        irdaInvertRx;
 558:Generated_Source\PSoC6\pdl\drivers\peripheral\scb/cy_scb_uart.h **** 
 559:Generated_Source\PSoC6\pdl\drivers\peripheral\scb/cy_scb_uart.h ****     /**
 560:Generated_Source\PSoC6\pdl\drivers\peripheral\scb/cy_scb_uart.h ****     * Enables the low-power receive for IrDA mode.
 561:Generated_Source\PSoC6\pdl\drivers\peripheral\scb/cy_scb_uart.h ****     * Note that the transmission must be disabled if this mode is enabled.
 562:Generated_Source\PSoC6\pdl\drivers\peripheral\scb/cy_scb_uart.h ****     */
 563:Generated_Source\PSoC6\pdl\drivers\peripheral\scb/cy_scb_uart.h ****     bool        irdaEnableLowPowerReceiver;
 564:Generated_Source\PSoC6\pdl\drivers\peripheral\scb/cy_scb_uart.h **** 
 565:Generated_Source\PSoC6\pdl\drivers\peripheral\scb/cy_scb_uart.h ****     /**
 566:Generated_Source\PSoC6\pdl\drivers\peripheral\scb/cy_scb_uart.h ****     * Enables retransmission of the frame placed in the TX FIFO when
 567:Generated_Source\PSoC6\pdl\drivers\peripheral\scb/cy_scb_uart.h ****     * NACK is received in SmartCard mode (for Standard and IrDA , this parameter
 568:Generated_Source\PSoC6\pdl\drivers\peripheral\scb/cy_scb_uart.h ****     * is ignored)
 569:Generated_Source\PSoC6\pdl\drivers\peripheral\scb/cy_scb_uart.h ****     */
 570:Generated_Source\PSoC6\pdl\drivers\peripheral\scb/cy_scb_uart.h ****     bool        smartCardRetryOnNack;
 571:Generated_Source\PSoC6\pdl\drivers\peripheral\scb/cy_scb_uart.h **** 
 572:Generated_Source\PSoC6\pdl\drivers\peripheral\scb/cy_scb_uart.h ****     /**
 573:Generated_Source\PSoC6\pdl\drivers\peripheral\scb/cy_scb_uart.h ****     * Enables the usage of the CTS input signal for the transmitter. The
 574:Generated_Source\PSoC6\pdl\drivers\peripheral\scb/cy_scb_uart.h ****     * transmitter waits for CTS to be active before sending data
 575:Generated_Source\PSoC6\pdl\drivers\peripheral\scb/cy_scb_uart.h ****     */
 576:Generated_Source\PSoC6\pdl\drivers\peripheral\scb/cy_scb_uart.h ****     bool        enableCts;
 577:Generated_Source\PSoC6\pdl\drivers\peripheral\scb/cy_scb_uart.h **** 
 578:Generated_Source\PSoC6\pdl\drivers\peripheral\scb/cy_scb_uart.h ****     /** Sets the CTS Polarity */
 579:Generated_Source\PSoC6\pdl\drivers\peripheral\scb/cy_scb_uart.h ****     cy_en_scb_uart_polarity_t    ctsPolarity;
 580:Generated_Source\PSoC6\pdl\drivers\peripheral\scb/cy_scb_uart.h **** 
 581:Generated_Source\PSoC6\pdl\drivers\peripheral\scb/cy_scb_uart.h ****     /**
 582:Generated_Source\PSoC6\pdl\drivers\peripheral\scb/cy_scb_uart.h ****     * When the RX FIFO has fewer entries than rtsRxFifoLevel, the
 583:Generated_Source\PSoC6\pdl\drivers\peripheral\scb/cy_scb_uart.h ****     * RTS signal is active (note to disable RTS, set this field to zero)
 584:Generated_Source\PSoC6\pdl\drivers\peripheral\scb/cy_scb_uart.h ****     */
 585:Generated_Source\PSoC6\pdl\drivers\peripheral\scb/cy_scb_uart.h ****     uint32_t    rtsRxFifoLevel;
 586:Generated_Source\PSoC6\pdl\drivers\peripheral\scb/cy_scb_uart.h **** 
 587:Generated_Source\PSoC6\pdl\drivers\peripheral\scb/cy_scb_uart.h ****     /** Sets the RTS Polarity */
 588:Generated_Source\PSoC6\pdl\drivers\peripheral\scb/cy_scb_uart.h ****     cy_en_scb_uart_polarity_t    rtsPolarity;
 589:Generated_Source\PSoC6\pdl\drivers\peripheral\scb/cy_scb_uart.h **** 
 590:Generated_Source\PSoC6\pdl\drivers\peripheral\scb/cy_scb_uart.h ****     /** Specifies the number of bits to detect a break condition */
 591:Generated_Source\PSoC6\pdl\drivers\peripheral\scb/cy_scb_uart.h ****     uint32_t    breakWidth;
 592:Generated_Source\PSoC6\pdl\drivers\peripheral\scb/cy_scb_uart.h **** 
 593:Generated_Source\PSoC6\pdl\drivers\peripheral\scb/cy_scb_uart.h ****     /**
 594:Generated_Source\PSoC6\pdl\drivers\peripheral\scb/cy_scb_uart.h ****     * When there are more entries in the RX FIFO than this level
 595:Generated_Source\PSoC6\pdl\drivers\peripheral\scb/cy_scb_uart.h ****     * the RX trigger output goes high. This output can be connected
ARM GAS  C:\Users\pearlstl\AppData\Local\Temp\ccAUXqAU.s 			page 54


 596:Generated_Source\PSoC6\pdl\drivers\peripheral\scb/cy_scb_uart.h ****     * to a DMA channel through a trigger mux.
 597:Generated_Source\PSoC6\pdl\drivers\peripheral\scb/cy_scb_uart.h ****     * Also, it controls the \ref CY_SCB_UART_RX_TRIGGER interrupt source.
 598:Generated_Source\PSoC6\pdl\drivers\peripheral\scb/cy_scb_uart.h ****     */
 599:Generated_Source\PSoC6\pdl\drivers\peripheral\scb/cy_scb_uart.h ****     uint32_t    rxFifoTriggerLevel;
 600:Generated_Source\PSoC6\pdl\drivers\peripheral\scb/cy_scb_uart.h **** 
 601:Generated_Source\PSoC6\pdl\drivers\peripheral\scb/cy_scb_uart.h ****     /**
 602:Generated_Source\PSoC6\pdl\drivers\peripheral\scb/cy_scb_uart.h ****     * The bits set in this mask allow the event to cause an interrupt
 603:Generated_Source\PSoC6\pdl\drivers\peripheral\scb/cy_scb_uart.h ****     * (See \ref group_scb_uart_macros_rx_fifo_status for the set of constants)
 604:Generated_Source\PSoC6\pdl\drivers\peripheral\scb/cy_scb_uart.h ****     */
 605:Generated_Source\PSoC6\pdl\drivers\peripheral\scb/cy_scb_uart.h ****     uint32_t    rxFifoIntEnableMask;
 606:Generated_Source\PSoC6\pdl\drivers\peripheral\scb/cy_scb_uart.h **** 
 607:Generated_Source\PSoC6\pdl\drivers\peripheral\scb/cy_scb_uart.h ****     /**
 608:Generated_Source\PSoC6\pdl\drivers\peripheral\scb/cy_scb_uart.h ****     * When there are fewer entries in the TX FIFO then this level
 609:Generated_Source\PSoC6\pdl\drivers\peripheral\scb/cy_scb_uart.h ****     * the TX trigger output goes high. This output can be connected
 610:Generated_Source\PSoC6\pdl\drivers\peripheral\scb/cy_scb_uart.h ****     * to a DMA channel through a trigger mux.
 611:Generated_Source\PSoC6\pdl\drivers\peripheral\scb/cy_scb_uart.h ****     * Also, it controls \ref CY_SCB_UART_TX_TRIGGER interrupt source.
 612:Generated_Source\PSoC6\pdl\drivers\peripheral\scb/cy_scb_uart.h ****     */
 613:Generated_Source\PSoC6\pdl\drivers\peripheral\scb/cy_scb_uart.h ****     uint32_t    txFifoTriggerLevel;
 614:Generated_Source\PSoC6\pdl\drivers\peripheral\scb/cy_scb_uart.h **** 
 615:Generated_Source\PSoC6\pdl\drivers\peripheral\scb/cy_scb_uart.h ****     /**
 616:Generated_Source\PSoC6\pdl\drivers\peripheral\scb/cy_scb_uart.h ****     * Bits set in this mask allows the event to cause an interrupt
 617:Generated_Source\PSoC6\pdl\drivers\peripheral\scb/cy_scb_uart.h ****     * (See \ref group_scb_uart_macros_tx_fifo_status for the set of constants)
 618:Generated_Source\PSoC6\pdl\drivers\peripheral\scb/cy_scb_uart.h ****     */
 619:Generated_Source\PSoC6\pdl\drivers\peripheral\scb/cy_scb_uart.h ****     uint32_t    txFifoIntEnableMask;
 620:Generated_Source\PSoC6\pdl\drivers\peripheral\scb/cy_scb_uart.h **** } cy_stc_scb_uart_config_t;
 621:Generated_Source\PSoC6\pdl\drivers\peripheral\scb/cy_scb_uart.h **** 
 622:Generated_Source\PSoC6\pdl\drivers\peripheral\scb/cy_scb_uart.h **** /** UART context structure.
 623:Generated_Source\PSoC6\pdl\drivers\peripheral\scb/cy_scb_uart.h **** * All fields for the context structure are internal. Firmware never reads or
 624:Generated_Source\PSoC6\pdl\drivers\peripheral\scb/cy_scb_uart.h **** * writes these values. Firmware allocates the structure and provides the
 625:Generated_Source\PSoC6\pdl\drivers\peripheral\scb/cy_scb_uart.h **** * address of the structure to the driver in function calls. Firmware must
 626:Generated_Source\PSoC6\pdl\drivers\peripheral\scb/cy_scb_uart.h **** * ensure that the defined instance of this structure remains in scope
 627:Generated_Source\PSoC6\pdl\drivers\peripheral\scb/cy_scb_uart.h **** * while the drive is in use.
 628:Generated_Source\PSoC6\pdl\drivers\peripheral\scb/cy_scb_uart.h **** */
 629:Generated_Source\PSoC6\pdl\drivers\peripheral\scb/cy_scb_uart.h **** typedef struct cy_stc_scb_uart_context
 630:Generated_Source\PSoC6\pdl\drivers\peripheral\scb/cy_scb_uart.h **** {
 631:Generated_Source\PSoC6\pdl\drivers\peripheral\scb/cy_scb_uart.h ****     /** \cond INTERNAL */
 632:Generated_Source\PSoC6\pdl\drivers\peripheral\scb/cy_scb_uart.h ****     uint32_t volatile txStatus;         /**< The transmit status */
 633:Generated_Source\PSoC6\pdl\drivers\peripheral\scb/cy_scb_uart.h ****     uint32_t volatile rxStatus;         /**< The receive status */
 634:Generated_Source\PSoC6\pdl\drivers\peripheral\scb/cy_scb_uart.h **** 
 635:Generated_Source\PSoC6\pdl\drivers\peripheral\scb/cy_scb_uart.h ****     void     *rxRingBuf;                /**< The pointer to the ring buffer */
 636:Generated_Source\PSoC6\pdl\drivers\peripheral\scb/cy_scb_uart.h ****     uint32_t  rxRingBufSize;            /**< The ring buffer size */
 637:Generated_Source\PSoC6\pdl\drivers\peripheral\scb/cy_scb_uart.h ****     uint32_t volatile rxRingBufHead;    /**< The ring buffer head index */
 638:Generated_Source\PSoC6\pdl\drivers\peripheral\scb/cy_scb_uart.h ****     uint32_t volatile rxRingBufTail;    /**< The ring buffer tail index */
 639:Generated_Source\PSoC6\pdl\drivers\peripheral\scb/cy_scb_uart.h **** 
 640:Generated_Source\PSoC6\pdl\drivers\peripheral\scb/cy_scb_uart.h ****     void     *rxBuf;                    /**< The pointer to the receive buffer */
 641:Generated_Source\PSoC6\pdl\drivers\peripheral\scb/cy_scb_uart.h ****     uint32_t  rxBufSize;                /**< The receive buffer size */
 642:Generated_Source\PSoC6\pdl\drivers\peripheral\scb/cy_scb_uart.h ****     uint32_t volatile rxBufIdx;         /**< The current location in the receive buffer */
 643:Generated_Source\PSoC6\pdl\drivers\peripheral\scb/cy_scb_uart.h **** 
 644:Generated_Source\PSoC6\pdl\drivers\peripheral\scb/cy_scb_uart.h ****     void     *txBuf;                    /**< The pointer to the transmit buffer */
 645:Generated_Source\PSoC6\pdl\drivers\peripheral\scb/cy_scb_uart.h ****     uint32_t  txBufSize;                /**< The transmit buffer size */
 646:Generated_Source\PSoC6\pdl\drivers\peripheral\scb/cy_scb_uart.h ****     uint32_t volatile txLeftToTransmit; /**< The number of data elements left to be transmitted */
 647:Generated_Source\PSoC6\pdl\drivers\peripheral\scb/cy_scb_uart.h **** 
 648:Generated_Source\PSoC6\pdl\drivers\peripheral\scb/cy_scb_uart.h ****     /** The pointer to an event callback that is called when any of
 649:Generated_Source\PSoC6\pdl\drivers\peripheral\scb/cy_scb_uart.h ****     * \ref group_scb_uart_macros_callback_events occurs
 650:Generated_Source\PSoC6\pdl\drivers\peripheral\scb/cy_scb_uart.h ****     */
 651:Generated_Source\PSoC6\pdl\drivers\peripheral\scb/cy_scb_uart.h ****     cy_cb_scb_uart_handle_events_t cbEvents;
 652:Generated_Source\PSoC6\pdl\drivers\peripheral\scb/cy_scb_uart.h **** 
ARM GAS  C:\Users\pearlstl\AppData\Local\Temp\ccAUXqAU.s 			page 55


 653:Generated_Source\PSoC6\pdl\drivers\peripheral\scb/cy_scb_uart.h **** #if !defined(NDEBUG)
 654:Generated_Source\PSoC6\pdl\drivers\peripheral\scb/cy_scb_uart.h ****     uint32_t initKey;               /**< Tracks the context initialization */
 655:Generated_Source\PSoC6\pdl\drivers\peripheral\scb/cy_scb_uart.h **** #endif /* !(NDEBUG) */
 656:Generated_Source\PSoC6\pdl\drivers\peripheral\scb/cy_scb_uart.h ****     /** \endcond */
 657:Generated_Source\PSoC6\pdl\drivers\peripheral\scb/cy_scb_uart.h **** } cy_stc_scb_uart_context_t;
 658:Generated_Source\PSoC6\pdl\drivers\peripheral\scb/cy_scb_uart.h **** /** \} group_scb_uart_data_structures */
 659:Generated_Source\PSoC6\pdl\drivers\peripheral\scb/cy_scb_uart.h **** 
 660:Generated_Source\PSoC6\pdl\drivers\peripheral\scb/cy_scb_uart.h **** 
 661:Generated_Source\PSoC6\pdl\drivers\peripheral\scb/cy_scb_uart.h **** /*******************************************************************************
 662:Generated_Source\PSoC6\pdl\drivers\peripheral\scb/cy_scb_uart.h **** *                           Function Prototypes
 663:Generated_Source\PSoC6\pdl\drivers\peripheral\scb/cy_scb_uart.h **** *******************************************************************************/
 664:Generated_Source\PSoC6\pdl\drivers\peripheral\scb/cy_scb_uart.h **** 
 665:Generated_Source\PSoC6\pdl\drivers\peripheral\scb/cy_scb_uart.h **** /**
 666:Generated_Source\PSoC6\pdl\drivers\peripheral\scb/cy_scb_uart.h **** * \addtogroup group_scb_uart_general_functions
 667:Generated_Source\PSoC6\pdl\drivers\peripheral\scb/cy_scb_uart.h **** * \{
 668:Generated_Source\PSoC6\pdl\drivers\peripheral\scb/cy_scb_uart.h **** */
 669:Generated_Source\PSoC6\pdl\drivers\peripheral\scb/cy_scb_uart.h **** cy_en_scb_uart_status_t Cy_SCB_UART_Init(CySCB_Type *base, cy_stc_scb_uart_config_t const *config,
 670:Generated_Source\PSoC6\pdl\drivers\peripheral\scb/cy_scb_uart.h ****                                          cy_stc_scb_uart_context_t *context);
 671:Generated_Source\PSoC6\pdl\drivers\peripheral\scb/cy_scb_uart.h **** void Cy_SCB_UART_DeInit (CySCB_Type *base);
 672:Generated_Source\PSoC6\pdl\drivers\peripheral\scb/cy_scb_uart.h **** __STATIC_INLINE void Cy_SCB_UART_Enable(CySCB_Type *base);
 673:Generated_Source\PSoC6\pdl\drivers\peripheral\scb/cy_scb_uart.h **** void Cy_SCB_UART_Disable(CySCB_Type *base, cy_stc_scb_uart_context_t *context);
 674:Generated_Source\PSoC6\pdl\drivers\peripheral\scb/cy_scb_uart.h **** 
 675:Generated_Source\PSoC6\pdl\drivers\peripheral\scb/cy_scb_uart.h **** __STATIC_INLINE void     Cy_SCB_UART_EnableCts      (CySCB_Type *base);
 676:Generated_Source\PSoC6\pdl\drivers\peripheral\scb/cy_scb_uart.h **** __STATIC_INLINE void     Cy_SCB_UART_DisableCts     (CySCB_Type *base);
 677:Generated_Source\PSoC6\pdl\drivers\peripheral\scb/cy_scb_uart.h **** __STATIC_INLINE void     Cy_SCB_UART_SetRtsFifoLevel(CySCB_Type *base, uint32_t level);
 678:Generated_Source\PSoC6\pdl\drivers\peripheral\scb/cy_scb_uart.h **** __STATIC_INLINE uint32_t Cy_SCB_UART_GetRtsFifoLevel(CySCB_Type const *base);
 679:Generated_Source\PSoC6\pdl\drivers\peripheral\scb/cy_scb_uart.h **** 
 680:Generated_Source\PSoC6\pdl\drivers\peripheral\scb/cy_scb_uart.h **** __STATIC_INLINE void Cy_SCB_UART_EnableSkipStart (CySCB_Type *base);
 681:Generated_Source\PSoC6\pdl\drivers\peripheral\scb/cy_scb_uart.h **** __STATIC_INLINE void Cy_SCB_UART_DisableSkipStart(CySCB_Type *base);
 682:Generated_Source\PSoC6\pdl\drivers\peripheral\scb/cy_scb_uart.h **** /** \} group_scb_uart_general_functions */
 683:Generated_Source\PSoC6\pdl\drivers\peripheral\scb/cy_scb_uart.h **** 
 684:Generated_Source\PSoC6\pdl\drivers\peripheral\scb/cy_scb_uart.h **** /**
 685:Generated_Source\PSoC6\pdl\drivers\peripheral\scb/cy_scb_uart.h **** * \addtogroup group_scb_uart_high_level_functions
 686:Generated_Source\PSoC6\pdl\drivers\peripheral\scb/cy_scb_uart.h **** * \{
 687:Generated_Source\PSoC6\pdl\drivers\peripheral\scb/cy_scb_uart.h **** */
 688:Generated_Source\PSoC6\pdl\drivers\peripheral\scb/cy_scb_uart.h **** void     Cy_SCB_UART_StartRingBuffer   (CySCB_Type *base, void *buffer, uint32_t size,
 689:Generated_Source\PSoC6\pdl\drivers\peripheral\scb/cy_scb_uart.h ****                                         cy_stc_scb_uart_context_t *context);
 690:Generated_Source\PSoC6\pdl\drivers\peripheral\scb/cy_scb_uart.h **** void     Cy_SCB_UART_StopRingBuffer    (CySCB_Type *base, cy_stc_scb_uart_context_t *context);
 691:Generated_Source\PSoC6\pdl\drivers\peripheral\scb/cy_scb_uart.h **** uint32_t Cy_SCB_UART_GetNumInRingBuffer(CySCB_Type const *base, cy_stc_scb_uart_context_t const *co
 692:Generated_Source\PSoC6\pdl\drivers\peripheral\scb/cy_scb_uart.h **** void     Cy_SCB_UART_ClearRingBuffer   (CySCB_Type const *base, cy_stc_scb_uart_context_t *context)
 693:Generated_Source\PSoC6\pdl\drivers\peripheral\scb/cy_scb_uart.h **** 
 694:Generated_Source\PSoC6\pdl\drivers\peripheral\scb/cy_scb_uart.h **** cy_en_scb_uart_status_t Cy_SCB_UART_Receive(CySCB_Type *base, void *buffer, uint32_t size,
 695:Generated_Source\PSoC6\pdl\drivers\peripheral\scb/cy_scb_uart.h ****                                             cy_stc_scb_uart_context_t *context);
 696:Generated_Source\PSoC6\pdl\drivers\peripheral\scb/cy_scb_uart.h **** void     Cy_SCB_UART_AbortReceive    (CySCB_Type *base, cy_stc_scb_uart_context_t *context);
 697:Generated_Source\PSoC6\pdl\drivers\peripheral\scb/cy_scb_uart.h **** uint32_t Cy_SCB_UART_GetReceiveStatus(CySCB_Type const *base, cy_stc_scb_uart_context_t const *cont
 698:Generated_Source\PSoC6\pdl\drivers\peripheral\scb/cy_scb_uart.h **** uint32_t Cy_SCB_UART_GetNumReceived  (CySCB_Type const *base, cy_stc_scb_uart_context_t const *cont
 699:Generated_Source\PSoC6\pdl\drivers\peripheral\scb/cy_scb_uart.h **** 
 700:Generated_Source\PSoC6\pdl\drivers\peripheral\scb/cy_scb_uart.h **** cy_en_scb_uart_status_t Cy_SCB_UART_Transmit(CySCB_Type *base, void *buffer, uint32_t size,
 701:Generated_Source\PSoC6\pdl\drivers\peripheral\scb/cy_scb_uart.h ****                                              cy_stc_scb_uart_context_t *context);
 702:Generated_Source\PSoC6\pdl\drivers\peripheral\scb/cy_scb_uart.h **** void     Cy_SCB_UART_AbortTransmit       (CySCB_Type *base, cy_stc_scb_uart_context_t *context);
 703:Generated_Source\PSoC6\pdl\drivers\peripheral\scb/cy_scb_uart.h **** uint32_t Cy_SCB_UART_GetTransmitStatus   (CySCB_Type const *base, cy_stc_scb_uart_context_t const *
 704:Generated_Source\PSoC6\pdl\drivers\peripheral\scb/cy_scb_uart.h **** uint32_t Cy_SCB_UART_GetNumLeftToTransmit(CySCB_Type const *base, cy_stc_scb_uart_context_t const *
 705:Generated_Source\PSoC6\pdl\drivers\peripheral\scb/cy_scb_uart.h **** /** \} group_scb_uart_high_level_functions */
 706:Generated_Source\PSoC6\pdl\drivers\peripheral\scb/cy_scb_uart.h **** 
 707:Generated_Source\PSoC6\pdl\drivers\peripheral\scb/cy_scb_uart.h **** /**
 708:Generated_Source\PSoC6\pdl\drivers\peripheral\scb/cy_scb_uart.h **** * \addtogroup group_scb_uart_low_level_functions
 709:Generated_Source\PSoC6\pdl\drivers\peripheral\scb/cy_scb_uart.h **** * \{
ARM GAS  C:\Users\pearlstl\AppData\Local\Temp\ccAUXqAU.s 			page 56


 710:Generated_Source\PSoC6\pdl\drivers\peripheral\scb/cy_scb_uart.h **** */
 711:Generated_Source\PSoC6\pdl\drivers\peripheral\scb/cy_scb_uart.h **** __STATIC_INLINE uint32_t Cy_SCB_UART_Put             (CySCB_Type *base, uint32_t data);
 712:Generated_Source\PSoC6\pdl\drivers\peripheral\scb/cy_scb_uart.h **** __STATIC_INLINE uint32_t Cy_SCB_UART_PutArray        (CySCB_Type *base, void *buffer, uint32_t size
 713:Generated_Source\PSoC6\pdl\drivers\peripheral\scb/cy_scb_uart.h **** __STATIC_INLINE void     Cy_SCB_UART_PutArrayBlocking(CySCB_Type *base, void *buffer, uint32_t size
 714:Generated_Source\PSoC6\pdl\drivers\peripheral\scb/cy_scb_uart.h **** __STATIC_INLINE void     Cy_SCB_UART_PutString       (CySCB_Type *base, char_t const string[]);
 715:Generated_Source\PSoC6\pdl\drivers\peripheral\scb/cy_scb_uart.h **** void Cy_SCB_UART_SendBreakBlocking(CySCB_Type *base, uint32_t breakWidth);
 716:Generated_Source\PSoC6\pdl\drivers\peripheral\scb/cy_scb_uart.h **** 
 717:Generated_Source\PSoC6\pdl\drivers\peripheral\scb/cy_scb_uart.h **** __STATIC_INLINE uint32_t Cy_SCB_UART_Get             (CySCB_Type const *base);
 718:Generated_Source\PSoC6\pdl\drivers\peripheral\scb/cy_scb_uart.h **** __STATIC_INLINE uint32_t Cy_SCB_UART_GetArray        (CySCB_Type const *base, void *buffer, uint32_
 719:Generated_Source\PSoC6\pdl\drivers\peripheral\scb/cy_scb_uart.h **** __STATIC_INLINE void     Cy_SCB_UART_GetArrayBlocking(CySCB_Type const *base, void *buffer, uint32_
 720:Generated_Source\PSoC6\pdl\drivers\peripheral\scb/cy_scb_uart.h **** 
 721:Generated_Source\PSoC6\pdl\drivers\peripheral\scb/cy_scb_uart.h **** __STATIC_INLINE uint32_t Cy_SCB_UART_GetTxFifoStatus  (CySCB_Type const *base);
 722:Generated_Source\PSoC6\pdl\drivers\peripheral\scb/cy_scb_uart.h **** __STATIC_INLINE void     Cy_SCB_UART_ClearTxFifoStatus(CySCB_Type *base, uint32_t clearMask);
 723:Generated_Source\PSoC6\pdl\drivers\peripheral\scb/cy_scb_uart.h **** 
 724:Generated_Source\PSoC6\pdl\drivers\peripheral\scb/cy_scb_uart.h **** __STATIC_INLINE uint32_t Cy_SCB_UART_GetRxFifoStatus  (CySCB_Type const *base);
 725:Generated_Source\PSoC6\pdl\drivers\peripheral\scb/cy_scb_uart.h **** __STATIC_INLINE void     Cy_SCB_UART_ClearRxFifoStatus(CySCB_Type *base, uint32_t clearMask);
 726:Generated_Source\PSoC6\pdl\drivers\peripheral\scb/cy_scb_uart.h **** 
 727:Generated_Source\PSoC6\pdl\drivers\peripheral\scb/cy_scb_uart.h **** __STATIC_INLINE uint32_t Cy_SCB_UART_GetNumInTxFifo   (CySCB_Type const *base);
 728:Generated_Source\PSoC6\pdl\drivers\peripheral\scb/cy_scb_uart.h **** __STATIC_INLINE bool     Cy_SCB_UART_IsTxComplete     (CySCB_Type const *base);
 729:Generated_Source\PSoC6\pdl\drivers\peripheral\scb/cy_scb_uart.h **** 
 730:Generated_Source\PSoC6\pdl\drivers\peripheral\scb/cy_scb_uart.h **** __STATIC_INLINE uint32_t Cy_SCB_UART_GetNumInRxFifo   (CySCB_Type const *base);
 731:Generated_Source\PSoC6\pdl\drivers\peripheral\scb/cy_scb_uart.h **** 
 732:Generated_Source\PSoC6\pdl\drivers\peripheral\scb/cy_scb_uart.h **** __STATIC_INLINE void     Cy_SCB_UART_ClearRxFifo      (CySCB_Type *base);
 733:Generated_Source\PSoC6\pdl\drivers\peripheral\scb/cy_scb_uart.h **** __STATIC_INLINE void     Cy_SCB_UART_ClearTxFifo      (CySCB_Type *base);
 734:Generated_Source\PSoC6\pdl\drivers\peripheral\scb/cy_scb_uart.h **** /** \} group_scb_uart_low_level_functions */
 735:Generated_Source\PSoC6\pdl\drivers\peripheral\scb/cy_scb_uart.h **** 
 736:Generated_Source\PSoC6\pdl\drivers\peripheral\scb/cy_scb_uart.h **** /**
 737:Generated_Source\PSoC6\pdl\drivers\peripheral\scb/cy_scb_uart.h **** * \addtogroup group_scb_uart_interrupt_functions
 738:Generated_Source\PSoC6\pdl\drivers\peripheral\scb/cy_scb_uart.h **** * \{
 739:Generated_Source\PSoC6\pdl\drivers\peripheral\scb/cy_scb_uart.h **** */
 740:Generated_Source\PSoC6\pdl\drivers\peripheral\scb/cy_scb_uart.h **** void Cy_SCB_UART_Interrupt(CySCB_Type *base, cy_stc_scb_uart_context_t *context);
 741:Generated_Source\PSoC6\pdl\drivers\peripheral\scb/cy_scb_uart.h **** 
 742:Generated_Source\PSoC6\pdl\drivers\peripheral\scb/cy_scb_uart.h **** __STATIC_INLINE void Cy_SCB_UART_RegisterCallback(CySCB_Type const *base, cy_cb_scb_uart_handle_eve
 743:Generated_Source\PSoC6\pdl\drivers\peripheral\scb/cy_scb_uart.h ****                                                   cy_stc_scb_uart_context_t *context);
 744:Generated_Source\PSoC6\pdl\drivers\peripheral\scb/cy_scb_uart.h **** /** \} group_scb_uart_interrupt_functions */
 745:Generated_Source\PSoC6\pdl\drivers\peripheral\scb/cy_scb_uart.h **** 
 746:Generated_Source\PSoC6\pdl\drivers\peripheral\scb/cy_scb_uart.h **** /**
 747:Generated_Source\PSoC6\pdl\drivers\peripheral\scb/cy_scb_uart.h **** * \addtogroup group_scb_uart_low_power_functions
 748:Generated_Source\PSoC6\pdl\drivers\peripheral\scb/cy_scb_uart.h **** * \{
 749:Generated_Source\PSoC6\pdl\drivers\peripheral\scb/cy_scb_uart.h **** */
 750:Generated_Source\PSoC6\pdl\drivers\peripheral\scb/cy_scb_uart.h **** cy_en_syspm_status_t Cy_SCB_UART_DeepSleepCallback(cy_stc_syspm_callback_params_t *callbackParams, 
 751:Generated_Source\PSoC6\pdl\drivers\peripheral\scb/cy_scb_uart.h **** cy_en_syspm_status_t Cy_SCB_UART_HibernateCallback(cy_stc_syspm_callback_params_t *callbackParams, 
 752:Generated_Source\PSoC6\pdl\drivers\peripheral\scb/cy_scb_uart.h **** /** \} group_scb_uart_low_power_functions */
 753:Generated_Source\PSoC6\pdl\drivers\peripheral\scb/cy_scb_uart.h **** 
 754:Generated_Source\PSoC6\pdl\drivers\peripheral\scb/cy_scb_uart.h **** 
 755:Generated_Source\PSoC6\pdl\drivers\peripheral\scb/cy_scb_uart.h **** /*******************************************************************************
 756:Generated_Source\PSoC6\pdl\drivers\peripheral\scb/cy_scb_uart.h **** *                               API Constants
 757:Generated_Source\PSoC6\pdl\drivers\peripheral\scb/cy_scb_uart.h **** *******************************************************************************/
 758:Generated_Source\PSoC6\pdl\drivers\peripheral\scb/cy_scb_uart.h **** 
 759:Generated_Source\PSoC6\pdl\drivers\peripheral\scb/cy_scb_uart.h **** /**
 760:Generated_Source\PSoC6\pdl\drivers\peripheral\scb/cy_scb_uart.h **** * \addtogroup group_scb_uart_macros
 761:Generated_Source\PSoC6\pdl\drivers\peripheral\scb/cy_scb_uart.h **** * \{
 762:Generated_Source\PSoC6\pdl\drivers\peripheral\scb/cy_scb_uart.h **** */
 763:Generated_Source\PSoC6\pdl\drivers\peripheral\scb/cy_scb_uart.h **** 
 764:Generated_Source\PSoC6\pdl\drivers\peripheral\scb/cy_scb_uart.h **** /**
 765:Generated_Source\PSoC6\pdl\drivers\peripheral\scb/cy_scb_uart.h **** * \defgroup group_scb_uart_macros_irda_lp_ovs UART IRDA Low Power Oversample factors
 766:Generated_Source\PSoC6\pdl\drivers\peripheral\scb/cy_scb_uart.h **** * \{
ARM GAS  C:\Users\pearlstl\AppData\Local\Temp\ccAUXqAU.s 			page 57


 767:Generated_Source\PSoC6\pdl\drivers\peripheral\scb/cy_scb_uart.h **** */
 768:Generated_Source\PSoC6\pdl\drivers\peripheral\scb/cy_scb_uart.h **** #define CY_SCB_UART_IRDA_LP_OVS16      (1UL)   /**< IrDA in low-power mode oversampled by 16   */
 769:Generated_Source\PSoC6\pdl\drivers\peripheral\scb/cy_scb_uart.h **** #define CY_SCB_UART_IRDA_LP_OVS32      (2UL)   /**< IrDA in low-power mode oversampled by 32   */
 770:Generated_Source\PSoC6\pdl\drivers\peripheral\scb/cy_scb_uart.h **** #define CY_SCB_UART_IRDA_LP_OVS48      (3UL)   /**< IrDA in low-power mode oversampled by 48   */
 771:Generated_Source\PSoC6\pdl\drivers\peripheral\scb/cy_scb_uart.h **** #define CY_SCB_UART_IRDA_LP_OVS96      (4UL)   /**< IrDA in low-power mode oversampled by 96   */
 772:Generated_Source\PSoC6\pdl\drivers\peripheral\scb/cy_scb_uart.h **** #define CY_SCB_UART_IRDA_LP_OVS192     (5UL)   /**< IrDA in low-power mode oversampled by 192  */
 773:Generated_Source\PSoC6\pdl\drivers\peripheral\scb/cy_scb_uart.h **** #define CY_SCB_UART_IRDA_LP_OVS768     (6UL)   /**< IrDA in low-power mode oversampled by 768  */
 774:Generated_Source\PSoC6\pdl\drivers\peripheral\scb/cy_scb_uart.h **** #define CY_SCB_UART_IRDA_LP_OVS1536    (7UL)   /**< IrDA in low-power mode oversampled by 1536 */
 775:Generated_Source\PSoC6\pdl\drivers\peripheral\scb/cy_scb_uart.h **** /** \} group_scb_uart_macros_irda_lp_ovs */
 776:Generated_Source\PSoC6\pdl\drivers\peripheral\scb/cy_scb_uart.h **** 
 777:Generated_Source\PSoC6\pdl\drivers\peripheral\scb/cy_scb_uart.h **** /**
 778:Generated_Source\PSoC6\pdl\drivers\peripheral\scb/cy_scb_uart.h **** * \defgroup group_scb_uart_macros_rx_fifo_status UART RX FIFO status.
 779:Generated_Source\PSoC6\pdl\drivers\peripheral\scb/cy_scb_uart.h **** * \{
 780:Generated_Source\PSoC6\pdl\drivers\peripheral\scb/cy_scb_uart.h **** * Macros to check UART RX FIFO status returned by \ref Cy_SCB_UART_GetRxFifoStatus
 781:Generated_Source\PSoC6\pdl\drivers\peripheral\scb/cy_scb_uart.h **** * function or assign mask for \ref Cy_SCB_UART_ClearRxFifoStatus function.
 782:Generated_Source\PSoC6\pdl\drivers\peripheral\scb/cy_scb_uart.h **** * Each UART RX FIFO status is encoded in a separate bit, therefore multiple
 783:Generated_Source\PSoC6\pdl\drivers\peripheral\scb/cy_scb_uart.h **** * bits may be set to indicate the current status.
 784:Generated_Source\PSoC6\pdl\drivers\peripheral\scb/cy_scb_uart.h **** */
 785:Generated_Source\PSoC6\pdl\drivers\peripheral\scb/cy_scb_uart.h **** 
 786:Generated_Source\PSoC6\pdl\drivers\peripheral\scb/cy_scb_uart.h **** /** The number of entries in the RX FIFO is more than the RX FIFO trigger level
 787:Generated_Source\PSoC6\pdl\drivers\peripheral\scb/cy_scb_uart.h **** * value
 788:Generated_Source\PSoC6\pdl\drivers\peripheral\scb/cy_scb_uart.h **** */
 789:Generated_Source\PSoC6\pdl\drivers\peripheral\scb/cy_scb_uart.h **** #define CY_SCB_UART_RX_TRIGGER         (SCB_INTR_RX_TRIGGER_Msk)
 790:Generated_Source\PSoC6\pdl\drivers\peripheral\scb/cy_scb_uart.h **** 
 791:Generated_Source\PSoC6\pdl\drivers\peripheral\scb/cy_scb_uart.h **** /** The RX FIFO is not empty, there is data to read */
 792:Generated_Source\PSoC6\pdl\drivers\peripheral\scb/cy_scb_uart.h **** #define CY_SCB_UART_RX_NOT_EMPTY       (SCB_INTR_RX_NOT_EMPTY_Msk)
 793:Generated_Source\PSoC6\pdl\drivers\peripheral\scb/cy_scb_uart.h **** 
 794:Generated_Source\PSoC6\pdl\drivers\peripheral\scb/cy_scb_uart.h **** /**
 795:Generated_Source\PSoC6\pdl\drivers\peripheral\scb/cy_scb_uart.h **** * The RX FIFO is full, there is no more space for additional data, and
 796:Generated_Source\PSoC6\pdl\drivers\peripheral\scb/cy_scb_uart.h **** * any additional data will be dropped
 797:Generated_Source\PSoC6\pdl\drivers\peripheral\scb/cy_scb_uart.h **** */
 798:Generated_Source\PSoC6\pdl\drivers\peripheral\scb/cy_scb_uart.h **** #define CY_SCB_UART_RX_FULL            (SCB_INTR_RX_FULL_Msk)
 799:Generated_Source\PSoC6\pdl\drivers\peripheral\scb/cy_scb_uart.h **** 
 800:Generated_Source\PSoC6\pdl\drivers\peripheral\scb/cy_scb_uart.h **** /**
 801:Generated_Source\PSoC6\pdl\drivers\peripheral\scb/cy_scb_uart.h **** * The RX FIFO was full and there was an attempt to write to it.
 802:Generated_Source\PSoC6\pdl\drivers\peripheral\scb/cy_scb_uart.h **** * That additional data was dropped.
 803:Generated_Source\PSoC6\pdl\drivers\peripheral\scb/cy_scb_uart.h **** */
 804:Generated_Source\PSoC6\pdl\drivers\peripheral\scb/cy_scb_uart.h **** #define CY_SCB_UART_RX_OVERFLOW        (SCB_INTR_RX_OVERFLOW_Msk)
 805:Generated_Source\PSoC6\pdl\drivers\peripheral\scb/cy_scb_uart.h **** 
 806:Generated_Source\PSoC6\pdl\drivers\peripheral\scb/cy_scb_uart.h **** /** An attempt to read from an empty RX FIFO */
 807:Generated_Source\PSoC6\pdl\drivers\peripheral\scb/cy_scb_uart.h **** #define CY_SCB_UART_RX_UNDERFLOW       (SCB_INTR_RX_UNDERFLOW_Msk)
 808:Generated_Source\PSoC6\pdl\drivers\peripheral\scb/cy_scb_uart.h **** 
 809:Generated_Source\PSoC6\pdl\drivers\peripheral\scb/cy_scb_uart.h **** /** The RX FIFO detected a frame error, either a stop or stop-bit error */
 810:Generated_Source\PSoC6\pdl\drivers\peripheral\scb/cy_scb_uart.h **** #define CY_SCB_UART_RX_ERR_FRAME       (SCB_INTR_RX_FRAME_ERROR_Msk)
 811:Generated_Source\PSoC6\pdl\drivers\peripheral\scb/cy_scb_uart.h **** 
 812:Generated_Source\PSoC6\pdl\drivers\peripheral\scb/cy_scb_uart.h **** /** The RX FIFO detected a parity error */
 813:Generated_Source\PSoC6\pdl\drivers\peripheral\scb/cy_scb_uart.h **** #define CY_SCB_UART_RX_ERR_PARITY      (SCB_INTR_RX_PARITY_ERROR_Msk)
 814:Generated_Source\PSoC6\pdl\drivers\peripheral\scb/cy_scb_uart.h **** 
 815:Generated_Source\PSoC6\pdl\drivers\peripheral\scb/cy_scb_uart.h **** /** The RX FIFO detected a break transmission from the transmitter */
 816:Generated_Source\PSoC6\pdl\drivers\peripheral\scb/cy_scb_uart.h **** #define CY_SCB_UART_RX_BREAK_DETECT    (SCB_INTR_RX_BREAK_DETECT_Msk)
 817:Generated_Source\PSoC6\pdl\drivers\peripheral\scb/cy_scb_uart.h **** /** \} group_scb_uart_macros_rx_fifo_status */
 818:Generated_Source\PSoC6\pdl\drivers\peripheral\scb/cy_scb_uart.h **** 
 819:Generated_Source\PSoC6\pdl\drivers\peripheral\scb/cy_scb_uart.h **** /**
 820:Generated_Source\PSoC6\pdl\drivers\peripheral\scb/cy_scb_uart.h **** * \defgroup group_scb_uart_macros_tx_fifo_status UART TX FIFO Statuses
 821:Generated_Source\PSoC6\pdl\drivers\peripheral\scb/cy_scb_uart.h **** * \{
 822:Generated_Source\PSoC6\pdl\drivers\peripheral\scb/cy_scb_uart.h **** * Macros to check UART TX FIFO status returned by \ref Cy_SCB_UART_GetTxFifoStatus
 823:Generated_Source\PSoC6\pdl\drivers\peripheral\scb/cy_scb_uart.h **** * function or assign mask for \ref Cy_SCB_UART_ClearTxFifoStatus function.
ARM GAS  C:\Users\pearlstl\AppData\Local\Temp\ccAUXqAU.s 			page 58


 824:Generated_Source\PSoC6\pdl\drivers\peripheral\scb/cy_scb_uart.h **** * Each UART TX FIFO status is encoded in a separate bit, therefore multiple bits
 825:Generated_Source\PSoC6\pdl\drivers\peripheral\scb/cy_scb_uart.h **** * may be set to indicate the current status.
 826:Generated_Source\PSoC6\pdl\drivers\peripheral\scb/cy_scb_uart.h **** */
 827:Generated_Source\PSoC6\pdl\drivers\peripheral\scb/cy_scb_uart.h **** 
 828:Generated_Source\PSoC6\pdl\drivers\peripheral\scb/cy_scb_uart.h **** /** The number of entries in the TX FIFO is less than the TX FIFO trigger level
 829:Generated_Source\PSoC6\pdl\drivers\peripheral\scb/cy_scb_uart.h **** * value
 830:Generated_Source\PSoC6\pdl\drivers\peripheral\scb/cy_scb_uart.h **** */
 831:Generated_Source\PSoC6\pdl\drivers\peripheral\scb/cy_scb_uart.h **** #define CY_SCB_UART_TX_TRIGGER     (SCB_INTR_TX_TRIGGER_Msk)
 832:Generated_Source\PSoC6\pdl\drivers\peripheral\scb/cy_scb_uart.h **** 
 833:Generated_Source\PSoC6\pdl\drivers\peripheral\scb/cy_scb_uart.h **** /** The TX FIFO is not full, there is a space for more data */
 834:Generated_Source\PSoC6\pdl\drivers\peripheral\scb/cy_scb_uart.h **** #define CY_SCB_UART_TX_NOT_FULL    (SCB_INTR_TX_NOT_FULL_Msk)
 835:Generated_Source\PSoC6\pdl\drivers\peripheral\scb/cy_scb_uart.h **** 
 836:Generated_Source\PSoC6\pdl\drivers\peripheral\scb/cy_scb_uart.h **** /** The TX FIFO is empty, note there may still be data in the shift register.*/
 837:Generated_Source\PSoC6\pdl\drivers\peripheral\scb/cy_scb_uart.h **** #define CY_SCB_UART_TX_EMPTY       (SCB_INTR_TX_EMPTY_Msk)
 838:Generated_Source\PSoC6\pdl\drivers\peripheral\scb/cy_scb_uart.h **** 
 839:Generated_Source\PSoC6\pdl\drivers\peripheral\scb/cy_scb_uart.h **** /** An attempt to write to the full TX FIFO */
 840:Generated_Source\PSoC6\pdl\drivers\peripheral\scb/cy_scb_uart.h **** #define CY_SCB_UART_TX_OVERFLOW    (SCB_INTR_TX_OVERFLOW_Msk)
 841:Generated_Source\PSoC6\pdl\drivers\peripheral\scb/cy_scb_uart.h **** 
 842:Generated_Source\PSoC6\pdl\drivers\peripheral\scb/cy_scb_uart.h **** /** An attempt to read from an empty transmitter FIFO (hardware reads). */
 843:Generated_Source\PSoC6\pdl\drivers\peripheral\scb/cy_scb_uart.h **** #define CY_SCB_UART_TX_UNDERFLOW (SCB_INTR_TX_UNDERFLOW_Msk)
 844:Generated_Source\PSoC6\pdl\drivers\peripheral\scb/cy_scb_uart.h **** 
 845:Generated_Source\PSoC6\pdl\drivers\peripheral\scb/cy_scb_uart.h **** /** All data has been transmitted out of the FIFO, including shifter */
 846:Generated_Source\PSoC6\pdl\drivers\peripheral\scb/cy_scb_uart.h **** #define CY_SCB_UART_TX_DONE        (SCB_INTR_TX_UART_DONE_Msk)
 847:Generated_Source\PSoC6\pdl\drivers\peripheral\scb/cy_scb_uart.h **** 
 848:Generated_Source\PSoC6\pdl\drivers\peripheral\scb/cy_scb_uart.h **** /** SmartCard only: the transmitter received a NACK */
 849:Generated_Source\PSoC6\pdl\drivers\peripheral\scb/cy_scb_uart.h **** #define CY_SCB_UART_TX_NACK        (SCB_INTR_TX_UART_NACK_Msk)
 850:Generated_Source\PSoC6\pdl\drivers\peripheral\scb/cy_scb_uart.h **** 
 851:Generated_Source\PSoC6\pdl\drivers\peripheral\scb/cy_scb_uart.h **** /** SmartCard only: the transmitter lost arbitration */
 852:Generated_Source\PSoC6\pdl\drivers\peripheral\scb/cy_scb_uart.h **** #define CY_SCB_UART_TX_ARB_LOST    (SCB_INTR_TX_UART_ARB_LOST_Msk)
 853:Generated_Source\PSoC6\pdl\drivers\peripheral\scb/cy_scb_uart.h **** /** \} group_scb_uart_macros_tx_fifo_status */
 854:Generated_Source\PSoC6\pdl\drivers\peripheral\scb/cy_scb_uart.h **** 
 855:Generated_Source\PSoC6\pdl\drivers\peripheral\scb/cy_scb_uart.h **** /**
 856:Generated_Source\PSoC6\pdl\drivers\peripheral\scb/cy_scb_uart.h **** * \defgroup group_scb_uart_macros_receive_status UART Receive Statuses
 857:Generated_Source\PSoC6\pdl\drivers\peripheral\scb/cy_scb_uart.h **** * \{
 858:Generated_Source\PSoC6\pdl\drivers\peripheral\scb/cy_scb_uart.h **** * Macros to check current UART receive status returned by 
 859:Generated_Source\PSoC6\pdl\drivers\peripheral\scb/cy_scb_uart.h **** * \ref Cy_SCB_UART_GetReceiveStatus function. 
 860:Generated_Source\PSoC6\pdl\drivers\peripheral\scb/cy_scb_uart.h **** * Each UART receive status is encoded in a separate bit, therefore multiple bits
 861:Generated_Source\PSoC6\pdl\drivers\peripheral\scb/cy_scb_uart.h **** * may be set to indicate the current status.
 862:Generated_Source\PSoC6\pdl\drivers\peripheral\scb/cy_scb_uart.h **** */
 863:Generated_Source\PSoC6\pdl\drivers\peripheral\scb/cy_scb_uart.h **** /** The receive operation started by \ref Cy_SCB_UART_Receive is in progress */
 864:Generated_Source\PSoC6\pdl\drivers\peripheral\scb/cy_scb_uart.h **** #define CY_SCB_UART_RECEIVE_ACTIVE         (0x01UL)
 865:Generated_Source\PSoC6\pdl\drivers\peripheral\scb/cy_scb_uart.h **** 
 866:Generated_Source\PSoC6\pdl\drivers\peripheral\scb/cy_scb_uart.h **** /**
 867:Generated_Source\PSoC6\pdl\drivers\peripheral\scb/cy_scb_uart.h **** * The hardware RX FIFO was full and there was an attempt to write to it.
 868:Generated_Source\PSoC6\pdl\drivers\peripheral\scb/cy_scb_uart.h **** * That additional data was dropped.
 869:Generated_Source\PSoC6\pdl\drivers\peripheral\scb/cy_scb_uart.h **** */
 870:Generated_Source\PSoC6\pdl\drivers\peripheral\scb/cy_scb_uart.h **** #define CY_SCB_UART_RECEIVE_OVERFLOW       (SCB_INTR_RX_OVERFLOW_Msk)
 871:Generated_Source\PSoC6\pdl\drivers\peripheral\scb/cy_scb_uart.h **** 
 872:Generated_Source\PSoC6\pdl\drivers\peripheral\scb/cy_scb_uart.h **** /** The receive hardware detected a frame error, either a start or
 873:Generated_Source\PSoC6\pdl\drivers\peripheral\scb/cy_scb_uart.h **** * stop bit error
 874:Generated_Source\PSoC6\pdl\drivers\peripheral\scb/cy_scb_uart.h **** */
 875:Generated_Source\PSoC6\pdl\drivers\peripheral\scb/cy_scb_uart.h **** #define CY_SCB_UART_RECEIVE_ERR_FRAME      (SCB_INTR_RX_FRAME_ERROR_Msk)
 876:Generated_Source\PSoC6\pdl\drivers\peripheral\scb/cy_scb_uart.h **** 
 877:Generated_Source\PSoC6\pdl\drivers\peripheral\scb/cy_scb_uart.h **** /** The receive hardware detected a parity error */
 878:Generated_Source\PSoC6\pdl\drivers\peripheral\scb/cy_scb_uart.h **** #define CY_SCB_UART_RECEIVE_ERR_PARITY     (SCB_INTR_RX_PARITY_ERROR_Msk)
 879:Generated_Source\PSoC6\pdl\drivers\peripheral\scb/cy_scb_uart.h **** 
 880:Generated_Source\PSoC6\pdl\drivers\peripheral\scb/cy_scb_uart.h **** /** The receive hardware detected a break transmission from transmitter */
ARM GAS  C:\Users\pearlstl\AppData\Local\Temp\ccAUXqAU.s 			page 59


 881:Generated_Source\PSoC6\pdl\drivers\peripheral\scb/cy_scb_uart.h **** #define CY_SCB_UART_RECEIVE_BREAK_DETECT   (SCB_INTR_RX_BREAK_DETECT_Msk)
 882:Generated_Source\PSoC6\pdl\drivers\peripheral\scb/cy_scb_uart.h **** /** \} group_scb_uart_macros_receive_status */
 883:Generated_Source\PSoC6\pdl\drivers\peripheral\scb/cy_scb_uart.h **** 
 884:Generated_Source\PSoC6\pdl\drivers\peripheral\scb/cy_scb_uart.h **** /**
 885:Generated_Source\PSoC6\pdl\drivers\peripheral\scb/cy_scb_uart.h **** * \defgroup group_scb_uart_macros_transmit_status UART Transmit Status
 886:Generated_Source\PSoC6\pdl\drivers\peripheral\scb/cy_scb_uart.h **** * \{
 887:Generated_Source\PSoC6\pdl\drivers\peripheral\scb/cy_scb_uart.h **** * Macros to check current UART transmit status returned by 
 888:Generated_Source\PSoC6\pdl\drivers\peripheral\scb/cy_scb_uart.h **** * \ref Cy_SCB_UART_GetTransmitStatus function. 
 889:Generated_Source\PSoC6\pdl\drivers\peripheral\scb/cy_scb_uart.h **** * Each UART transmit status is encoded in a separate bit, therefore multiple bits
 890:Generated_Source\PSoC6\pdl\drivers\peripheral\scb/cy_scb_uart.h **** * may be set to indicate the current status.
 891:Generated_Source\PSoC6\pdl\drivers\peripheral\scb/cy_scb_uart.h **** */
 892:Generated_Source\PSoC6\pdl\drivers\peripheral\scb/cy_scb_uart.h **** 
 893:Generated_Source\PSoC6\pdl\drivers\peripheral\scb/cy_scb_uart.h **** /** The transmit operation started by \ref Cy_SCB_UART_Transmit is in progress */
 894:Generated_Source\PSoC6\pdl\drivers\peripheral\scb/cy_scb_uart.h **** #define CY_SCB_UART_TRANSMIT_ACTIVE    (0x01UL)
 895:Generated_Source\PSoC6\pdl\drivers\peripheral\scb/cy_scb_uart.h **** 
 896:Generated_Source\PSoC6\pdl\drivers\peripheral\scb/cy_scb_uart.h **** /**
 897:Generated_Source\PSoC6\pdl\drivers\peripheral\scb/cy_scb_uart.h **** * All data elements specified by \ref Cy_SCB_UART_Transmit have been loaded
 898:Generated_Source\PSoC6\pdl\drivers\peripheral\scb/cy_scb_uart.h **** * into the TX FIFO
 899:Generated_Source\PSoC6\pdl\drivers\peripheral\scb/cy_scb_uart.h **** */
 900:Generated_Source\PSoC6\pdl\drivers\peripheral\scb/cy_scb_uart.h **** #define CY_SCB_UART_TRANSMIT_IN_FIFO   (0x02UL)
 901:Generated_Source\PSoC6\pdl\drivers\peripheral\scb/cy_scb_uart.h **** 
 902:Generated_Source\PSoC6\pdl\drivers\peripheral\scb/cy_scb_uart.h **** /** SmartCard only: the transmitter received a NACK */
 903:Generated_Source\PSoC6\pdl\drivers\peripheral\scb/cy_scb_uart.h **** #define CY_SCB_UART_TRANSMIT_NACK      (SCB_INTR_TX_UART_NACK_Msk)
 904:Generated_Source\PSoC6\pdl\drivers\peripheral\scb/cy_scb_uart.h **** 
 905:Generated_Source\PSoC6\pdl\drivers\peripheral\scb/cy_scb_uart.h **** /** SmartCard only: the transmitter lost arbitration */
 906:Generated_Source\PSoC6\pdl\drivers\peripheral\scb/cy_scb_uart.h **** #define CY_SCB_UART_TRANSMIT_ARB_LOST  (SCB_INTR_TX_UART_ARB_LOST_Msk)
 907:Generated_Source\PSoC6\pdl\drivers\peripheral\scb/cy_scb_uart.h **** /** \} group_scb_uart_macros_transmit_status */
 908:Generated_Source\PSoC6\pdl\drivers\peripheral\scb/cy_scb_uart.h **** 
 909:Generated_Source\PSoC6\pdl\drivers\peripheral\scb/cy_scb_uart.h **** /**
 910:Generated_Source\PSoC6\pdl\drivers\peripheral\scb/cy_scb_uart.h **** * \defgroup group_scb_uart_macros_callback_events UART Callback Events
 911:Generated_Source\PSoC6\pdl\drivers\peripheral\scb/cy_scb_uart.h **** * \{
 912:Generated_Source\PSoC6\pdl\drivers\peripheral\scb/cy_scb_uart.h **** * Macros to check UART events passed by \ref cy_cb_scb_uart_handle_events_t callback.
 913:Generated_Source\PSoC6\pdl\drivers\peripheral\scb/cy_scb_uart.h **** * Note that only single event is notified by the callback when it is called.
 914:Generated_Source\PSoC6\pdl\drivers\peripheral\scb/cy_scb_uart.h **** */
 915:Generated_Source\PSoC6\pdl\drivers\peripheral\scb/cy_scb_uart.h **** 
 916:Generated_Source\PSoC6\pdl\drivers\peripheral\scb/cy_scb_uart.h **** /**
 917:Generated_Source\PSoC6\pdl\drivers\peripheral\scb/cy_scb_uart.h **** * All data elements specified by \ref Cy_SCB_UART_Transmit have been loaded
 918:Generated_Source\PSoC6\pdl\drivers\peripheral\scb/cy_scb_uart.h **** * into the TX FIFO
 919:Generated_Source\PSoC6\pdl\drivers\peripheral\scb/cy_scb_uart.h **** */
 920:Generated_Source\PSoC6\pdl\drivers\peripheral\scb/cy_scb_uart.h **** #define CY_SCB_UART_TRANSMIT_IN_FIFO_EVENT (0x01UL)
 921:Generated_Source\PSoC6\pdl\drivers\peripheral\scb/cy_scb_uart.h **** 
 922:Generated_Source\PSoC6\pdl\drivers\peripheral\scb/cy_scb_uart.h **** /** The transmit operation started by \ref Cy_SCB_UART_Transmit is complete */
 923:Generated_Source\PSoC6\pdl\drivers\peripheral\scb/cy_scb_uart.h **** #define CY_SCB_UART_TRANSMIT_DONE_EVENT    (0x02UL)
 924:Generated_Source\PSoC6\pdl\drivers\peripheral\scb/cy_scb_uart.h **** 
 925:Generated_Source\PSoC6\pdl\drivers\peripheral\scb/cy_scb_uart.h **** /** The receive operation started by \ref Cy_SCB_UART_Receive is complete */
 926:Generated_Source\PSoC6\pdl\drivers\peripheral\scb/cy_scb_uart.h **** #define CY_SCB_UART_RECEIVE_DONE_EVENT     (0x04UL)
 927:Generated_Source\PSoC6\pdl\drivers\peripheral\scb/cy_scb_uart.h **** 
 928:Generated_Source\PSoC6\pdl\drivers\peripheral\scb/cy_scb_uart.h **** /**
 929:Generated_Source\PSoC6\pdl\drivers\peripheral\scb/cy_scb_uart.h **** * The ring buffer is full, there is no more space for additional data.
 930:Generated_Source\PSoC6\pdl\drivers\peripheral\scb/cy_scb_uart.h **** * Additional data is stored in the RX FIFO until it becomes full, at which
 931:Generated_Source\PSoC6\pdl\drivers\peripheral\scb/cy_scb_uart.h **** * point data is dropped.
 932:Generated_Source\PSoC6\pdl\drivers\peripheral\scb/cy_scb_uart.h **** */
 933:Generated_Source\PSoC6\pdl\drivers\peripheral\scb/cy_scb_uart.h **** #define CY_SCB_UART_RB_FULL_EVENT          (0x08UL)
 934:Generated_Source\PSoC6\pdl\drivers\peripheral\scb/cy_scb_uart.h **** 
 935:Generated_Source\PSoC6\pdl\drivers\peripheral\scb/cy_scb_uart.h **** /**
 936:Generated_Source\PSoC6\pdl\drivers\peripheral\scb/cy_scb_uart.h **** * An error was detected during the receive operation. This includes overflow,
 937:Generated_Source\PSoC6\pdl\drivers\peripheral\scb/cy_scb_uart.h **** * frame error, or parity error. Check \ref Cy_SCB_UART_GetReceiveStatus to
ARM GAS  C:\Users\pearlstl\AppData\Local\Temp\ccAUXqAU.s 			page 60


 938:Generated_Source\PSoC6\pdl\drivers\peripheral\scb/cy_scb_uart.h **** * determine the source of the error.
 939:Generated_Source\PSoC6\pdl\drivers\peripheral\scb/cy_scb_uart.h **** */
 940:Generated_Source\PSoC6\pdl\drivers\peripheral\scb/cy_scb_uart.h **** #define CY_SCB_UART_RECEIVE_ERR_EVENT      (0x10UL)
 941:Generated_Source\PSoC6\pdl\drivers\peripheral\scb/cy_scb_uart.h **** 
 942:Generated_Source\PSoC6\pdl\drivers\peripheral\scb/cy_scb_uart.h **** /**
 943:Generated_Source\PSoC6\pdl\drivers\peripheral\scb/cy_scb_uart.h **** * An error was detected during the transmit operation. This includes a NACK
 944:Generated_Source\PSoC6\pdl\drivers\peripheral\scb/cy_scb_uart.h **** * or lost arbitration. Check \ref Cy_SCB_UART_GetTransmitStatus to determine
 945:Generated_Source\PSoC6\pdl\drivers\peripheral\scb/cy_scb_uart.h **** * the source of the error
 946:Generated_Source\PSoC6\pdl\drivers\peripheral\scb/cy_scb_uart.h **** */
 947:Generated_Source\PSoC6\pdl\drivers\peripheral\scb/cy_scb_uart.h **** #define CY_SCB_UART_TRANSMIT_ERR_EVENT     (0x20UL)
 948:Generated_Source\PSoC6\pdl\drivers\peripheral\scb/cy_scb_uart.h **** /** \} group_scb_uart_macros_callback_events */
 949:Generated_Source\PSoC6\pdl\drivers\peripheral\scb/cy_scb_uart.h **** 
 950:Generated_Source\PSoC6\pdl\drivers\peripheral\scb/cy_scb_uart.h **** /** Data returned by the hardware when an empty RX FIFO is read */
 951:Generated_Source\PSoC6\pdl\drivers\peripheral\scb/cy_scb_uart.h **** #define CY_SCB_UART_RX_NO_DATA         (0xFFFFFFFFUL)
 952:Generated_Source\PSoC6\pdl\drivers\peripheral\scb/cy_scb_uart.h **** 
 953:Generated_Source\PSoC6\pdl\drivers\peripheral\scb/cy_scb_uart.h **** 
 954:Generated_Source\PSoC6\pdl\drivers\peripheral\scb/cy_scb_uart.h **** /*******************************************************************************
 955:Generated_Source\PSoC6\pdl\drivers\peripheral\scb/cy_scb_uart.h **** *                            Internal Constants
 956:Generated_Source\PSoC6\pdl\drivers\peripheral\scb/cy_scb_uart.h **** *******************************************************************************/
 957:Generated_Source\PSoC6\pdl\drivers\peripheral\scb/cy_scb_uart.h **** 
 958:Generated_Source\PSoC6\pdl\drivers\peripheral\scb/cy_scb_uart.h **** /** \cond INTERNAL */
 959:Generated_Source\PSoC6\pdl\drivers\peripheral\scb/cy_scb_uart.h **** #define CY_SCB_UART_TX_INTR_MASK    (CY_SCB_UART_TX_TRIGGER  | CY_SCB_UART_TX_NOT_FULL  | CY_SCB_UA
 960:Generated_Source\PSoC6\pdl\drivers\peripheral\scb/cy_scb_uart.h ****                                      CY_SCB_UART_TX_OVERFLOW | CY_SCB_UART_TX_UNDERFLOW | CY_SCB_UA
 961:Generated_Source\PSoC6\pdl\drivers\peripheral\scb/cy_scb_uart.h ****                                      CY_SCB_UART_TX_NACK     | CY_SCB_UART_TX_ARB_LOST)
 962:Generated_Source\PSoC6\pdl\drivers\peripheral\scb/cy_scb_uart.h **** 
 963:Generated_Source\PSoC6\pdl\drivers\peripheral\scb/cy_scb_uart.h **** #define CY_SCB_UART_RX_INTR_MASK    (CY_SCB_UART_RX_TRIGGER    | CY_SCB_UART_RX_NOT_EMPTY | CY_SCB_
 964:Generated_Source\PSoC6\pdl\drivers\peripheral\scb/cy_scb_uart.h ****                                      CY_SCB_UART_RX_OVERFLOW   | CY_SCB_UART_RX_UNDERFLOW | CY_SCB_
 965:Generated_Source\PSoC6\pdl\drivers\peripheral\scb/cy_scb_uart.h ****                                      CY_SCB_UART_RX_ERR_PARITY | CY_SCB_UART_RX_BREAK_DETECT)
 966:Generated_Source\PSoC6\pdl\drivers\peripheral\scb/cy_scb_uart.h **** 
 967:Generated_Source\PSoC6\pdl\drivers\peripheral\scb/cy_scb_uart.h **** #define CY_SCB_UART_TX_INTR        (CY_SCB_TX_INTR_LEVEL | CY_SCB_TX_INTR_UART_NACK | CY_SCB_TX_INT
 968:Generated_Source\PSoC6\pdl\drivers\peripheral\scb/cy_scb_uart.h **** 
 969:Generated_Source\PSoC6\pdl\drivers\peripheral\scb/cy_scb_uart.h **** #define CY_SCB_UART_RX_INTR        (CY_SCB_RX_INTR_LEVEL | CY_SCB_RX_INTR_OVERFLOW | CY_SCB_RX_INTR
 970:Generated_Source\PSoC6\pdl\drivers\peripheral\scb/cy_scb_uart.h ****                                     CY_SCB_RX_INTR_UART_PARITY_ERROR | CY_SCB_RX_INTR_UART_BREAK_DE
 971:Generated_Source\PSoC6\pdl\drivers\peripheral\scb/cy_scb_uart.h **** 
 972:Generated_Source\PSoC6\pdl\drivers\peripheral\scb/cy_scb_uart.h **** #define CY_SCB_UART_RECEIVE_ERR    (CY_SCB_RX_INTR_OVERFLOW | CY_SCB_RX_INTR_UART_FRAME_ERROR | \
 973:Generated_Source\PSoC6\pdl\drivers\peripheral\scb/cy_scb_uart.h ****                                     CY_SCB_RX_INTR_UART_PARITY_ERROR)
 974:Generated_Source\PSoC6\pdl\drivers\peripheral\scb/cy_scb_uart.h **** 
 975:Generated_Source\PSoC6\pdl\drivers\peripheral\scb/cy_scb_uart.h **** #define CY_SCB_UART_TRANSMIT_ERR   (CY_SCB_TX_INTR_UART_NACK | CY_SCB_TX_INTR_UART_ARB_LOST)
 976:Generated_Source\PSoC6\pdl\drivers\peripheral\scb/cy_scb_uart.h **** 
 977:Generated_Source\PSoC6\pdl\drivers\peripheral\scb/cy_scb_uart.h **** #define CY_SCB_UART_INIT_KEY       (0x00ABCDEFUL)
 978:Generated_Source\PSoC6\pdl\drivers\peripheral\scb/cy_scb_uart.h **** 
 979:Generated_Source\PSoC6\pdl\drivers\peripheral\scb/cy_scb_uart.h **** #define CY_SCB_UART_IS_MODE_VALID(mode)     ( (CY_SCB_UART_STANDARD  == (mode)) || \
 980:Generated_Source\PSoC6\pdl\drivers\peripheral\scb/cy_scb_uart.h ****                                               (CY_SCB_UART_SMARTCARD == (mode)) || \
 981:Generated_Source\PSoC6\pdl\drivers\peripheral\scb/cy_scb_uart.h ****                                               (CY_SCB_UART_IRDA      == (mode)) )
 982:Generated_Source\PSoC6\pdl\drivers\peripheral\scb/cy_scb_uart.h **** 
 983:Generated_Source\PSoC6\pdl\drivers\peripheral\scb/cy_scb_uart.h **** #define CY_SCB_UART_IS_STOP_BITS_VALID(stopBits)    ( (CY_SCB_UART_STOP_BITS_1   == (stopBits)) || 
 984:Generated_Source\PSoC6\pdl\drivers\peripheral\scb/cy_scb_uart.h ****                                                       (CY_SCB_UART_STOP_BITS_1_5 == (stopBits)) || 
 985:Generated_Source\PSoC6\pdl\drivers\peripheral\scb/cy_scb_uart.h ****                                                       (CY_SCB_UART_STOP_BITS_2   == (stopBits)) || 
 986:Generated_Source\PSoC6\pdl\drivers\peripheral\scb/cy_scb_uart.h ****                                                       (CY_SCB_UART_STOP_BITS_2_5 == (stopBits)) || 
 987:Generated_Source\PSoC6\pdl\drivers\peripheral\scb/cy_scb_uart.h ****                                                       (CY_SCB_UART_STOP_BITS_3   == (stopBits)) || 
 988:Generated_Source\PSoC6\pdl\drivers\peripheral\scb/cy_scb_uart.h ****                                                       (CY_SCB_UART_STOP_BITS_3_5 == (stopBits)) || 
 989:Generated_Source\PSoC6\pdl\drivers\peripheral\scb/cy_scb_uart.h ****                                                       (CY_SCB_UART_STOP_BITS_4   == (stopBits)) )
 990:Generated_Source\PSoC6\pdl\drivers\peripheral\scb/cy_scb_uart.h **** 
 991:Generated_Source\PSoC6\pdl\drivers\peripheral\scb/cy_scb_uart.h **** #define CY_SCB_UART_IS_PARITY_VALID(parity)         ( (CY_SCB_UART_PARITY_NONE == (parity)) || \
 992:Generated_Source\PSoC6\pdl\drivers\peripheral\scb/cy_scb_uart.h ****                                                       (CY_SCB_UART_PARITY_EVEN == (parity)) || \
 993:Generated_Source\PSoC6\pdl\drivers\peripheral\scb/cy_scb_uart.h ****                                                       (CY_SCB_UART_PARITY_ODD  == (parity)) )
 994:Generated_Source\PSoC6\pdl\drivers\peripheral\scb/cy_scb_uart.h **** 
ARM GAS  C:\Users\pearlstl\AppData\Local\Temp\ccAUXqAU.s 			page 61


 995:Generated_Source\PSoC6\pdl\drivers\peripheral\scb/cy_scb_uart.h **** #define CY_SCB_UART_IS_POLARITY_VALID(polarity)     ( (CY_SCB_UART_ACTIVE_LOW  == (polarity)) || \
 996:Generated_Source\PSoC6\pdl\drivers\peripheral\scb/cy_scb_uart.h ****                                                       (CY_SCB_UART_ACTIVE_HIGH == (polarity)) )
 997:Generated_Source\PSoC6\pdl\drivers\peripheral\scb/cy_scb_uart.h **** 
 998:Generated_Source\PSoC6\pdl\drivers\peripheral\scb/cy_scb_uart.h **** #define CY_SCB_UART_IS_IRDA_LP_OVS_VALID(ovs)       ( (CY_SCB_UART_IRDA_LP_OVS16   == (ovs)) || \
 999:Generated_Source\PSoC6\pdl\drivers\peripheral\scb/cy_scb_uart.h ****                                                       (CY_SCB_UART_IRDA_LP_OVS32   == (ovs)) || \
1000:Generated_Source\PSoC6\pdl\drivers\peripheral\scb/cy_scb_uart.h ****                                                       (CY_SCB_UART_IRDA_LP_OVS48   == (ovs)) || \
1001:Generated_Source\PSoC6\pdl\drivers\peripheral\scb/cy_scb_uart.h ****                                                       (CY_SCB_UART_IRDA_LP_OVS96   == (ovs)) || \
1002:Generated_Source\PSoC6\pdl\drivers\peripheral\scb/cy_scb_uart.h ****                                                       (CY_SCB_UART_IRDA_LP_OVS192  == (ovs)) || \
1003:Generated_Source\PSoC6\pdl\drivers\peripheral\scb/cy_scb_uart.h ****                                                       (CY_SCB_UART_IRDA_LP_OVS768  == (ovs)) || \
1004:Generated_Source\PSoC6\pdl\drivers\peripheral\scb/cy_scb_uart.h ****                                                       (CY_SCB_UART_IRDA_LP_OVS1536 == (ovs)) )
1005:Generated_Source\PSoC6\pdl\drivers\peripheral\scb/cy_scb_uart.h **** 
1006:Generated_Source\PSoC6\pdl\drivers\peripheral\scb/cy_scb_uart.h **** #define CY_SCB_UART_IS_ADDRESS_VALID(addr)          ((addr) <= 0xFFUL)
1007:Generated_Source\PSoC6\pdl\drivers\peripheral\scb/cy_scb_uart.h **** #define CY_SCB_UART_IS_ADDRESS_MASK_VALID(mask)     ((mask) <= 0xFFUL)
1008:Generated_Source\PSoC6\pdl\drivers\peripheral\scb/cy_scb_uart.h **** #define CY_SCB_UART_IS_DATA_WIDTH_VALID(width)      ( ((width) >= 5UL) && ((width) <= 9UL) )
1009:Generated_Source\PSoC6\pdl\drivers\peripheral\scb/cy_scb_uart.h **** #define CY_SCB_UART_IS_OVERSAMPLE_VALID(ovs, mode, lpRx)    ( ((CY_SCB_UART_STANDARD  == (mode)) ||
1010:Generated_Source\PSoC6\pdl\drivers\peripheral\scb/cy_scb_uart.h ****                                                               (((ovs) >= 8UL) && ((ovs) <= 16UL)) :
1011:Generated_Source\PSoC6\pdl\drivers\peripheral\scb/cy_scb_uart.h ****                                                               ((lpRx) ? CY_SCB_UART_IS_IRDA_LP_OVS_
1012:Generated_Source\PSoC6\pdl\drivers\peripheral\scb/cy_scb_uart.h **** 
1013:Generated_Source\PSoC6\pdl\drivers\peripheral\scb/cy_scb_uart.h **** #define CY_SCB_UART_IS_RX_BREAK_WIDTH_VALID(base, width)    ( ((width) >= (_FLD2VAL(SCB_RX_CTRL_DAT
1014:Generated_Source\PSoC6\pdl\drivers\peripheral\scb/cy_scb_uart.h ****                                                               ((width) <= 16UL) )
1015:Generated_Source\PSoC6\pdl\drivers\peripheral\scb/cy_scb_uart.h **** #define CY_SCB_UART_IS_TX_BREAK_WIDTH_VALID(width)          ( ((width) >= 4UL) && ((width) <= 16UL)
1016:Generated_Source\PSoC6\pdl\drivers\peripheral\scb/cy_scb_uart.h **** 
1017:Generated_Source\PSoC6\pdl\drivers\peripheral\scb/cy_scb_uart.h **** #define CY_SCB_UART_IS_MUTLI_PROC_VALID(mp, mode, width, parity)    ( (mp) ? ((CY_SCB_UART_STANDARD
1018:Generated_Source\PSoC6\pdl\drivers\peripheral\scb/cy_scb_uart.h ****                                                                               (CY_SCB_UART_PARITY_N
1019:Generated_Source\PSoC6\pdl\drivers\peripheral\scb/cy_scb_uart.h **** /** \endcond */
1020:Generated_Source\PSoC6\pdl\drivers\peripheral\scb/cy_scb_uart.h **** 
1021:Generated_Source\PSoC6\pdl\drivers\peripheral\scb/cy_scb_uart.h **** /** \} group_scb_uart_macros */
1022:Generated_Source\PSoC6\pdl\drivers\peripheral\scb/cy_scb_uart.h **** 
1023:Generated_Source\PSoC6\pdl\drivers\peripheral\scb/cy_scb_uart.h **** 
1024:Generated_Source\PSoC6\pdl\drivers\peripheral\scb/cy_scb_uart.h **** /*******************************************************************************
1025:Generated_Source\PSoC6\pdl\drivers\peripheral\scb/cy_scb_uart.h **** *                    In-line Function Implementation
1026:Generated_Source\PSoC6\pdl\drivers\peripheral\scb/cy_scb_uart.h **** *******************************************************************************/
1027:Generated_Source\PSoC6\pdl\drivers\peripheral\scb/cy_scb_uart.h **** 
1028:Generated_Source\PSoC6\pdl\drivers\peripheral\scb/cy_scb_uart.h **** /**
1029:Generated_Source\PSoC6\pdl\drivers\peripheral\scb/cy_scb_uart.h **** * \addtogroup group_scb_uart_general_functions
1030:Generated_Source\PSoC6\pdl\drivers\peripheral\scb/cy_scb_uart.h **** * \{
1031:Generated_Source\PSoC6\pdl\drivers\peripheral\scb/cy_scb_uart.h **** */
1032:Generated_Source\PSoC6\pdl\drivers\peripheral\scb/cy_scb_uart.h **** 
1033:Generated_Source\PSoC6\pdl\drivers\peripheral\scb/cy_scb_uart.h **** /*******************************************************************************
1034:Generated_Source\PSoC6\pdl\drivers\peripheral\scb/cy_scb_uart.h **** * Function Name: Cy_SCB_UART_Enable
1035:Generated_Source\PSoC6\pdl\drivers\peripheral\scb/cy_scb_uart.h **** ****************************************************************************//**
1036:Generated_Source\PSoC6\pdl\drivers\peripheral\scb/cy_scb_uart.h **** *
1037:Generated_Source\PSoC6\pdl\drivers\peripheral\scb/cy_scb_uart.h **** * Enables the SCB block for the UART operation.
1038:Generated_Source\PSoC6\pdl\drivers\peripheral\scb/cy_scb_uart.h **** *
1039:Generated_Source\PSoC6\pdl\drivers\peripheral\scb/cy_scb_uart.h **** * \param base
1040:Generated_Source\PSoC6\pdl\drivers\peripheral\scb/cy_scb_uart.h **** * The pointer to the UART SCB instance.
1041:Generated_Source\PSoC6\pdl\drivers\peripheral\scb/cy_scb_uart.h **** *
1042:Generated_Source\PSoC6\pdl\drivers\peripheral\scb/cy_scb_uart.h **** *******************************************************************************/
1043:Generated_Source\PSoC6\pdl\drivers\peripheral\scb/cy_scb_uart.h **** __STATIC_INLINE void Cy_SCB_UART_Enable(CySCB_Type *base)
1044:Generated_Source\PSoC6\pdl\drivers\peripheral\scb/cy_scb_uart.h **** {
1045:Generated_Source\PSoC6\pdl\drivers\peripheral\scb/cy_scb_uart.h ****     SCB_CTRL(base) |= SCB_CTRL_ENABLED_Msk;
 598              		.loc 3 1045 0
 599 004a 8021     		movs	r1, #128
 600              	.LVL24:
 601 004c 1A68     		ldr	r2, [r3]
 602 004e 0906     		lsls	r1, r1, #24
 603 0050 0A43     		orrs	r2, r1
ARM GAS  C:\Users\pearlstl\AppData\Local\Temp\ccAUXqAU.s 			page 62


 604 0052 1A60     		str	r2, [r3]
 605              	.LVL25:
 606              	.L63:
 607              	.LBE166:
 608              	.LBE165:
 339:Generated_Source\PSoC6\pdl\drivers\peripheral\scb/cy_scb_uart.c ****         }
 609              		.loc 1 339 0
 610 0054 0020     		movs	r0, #0
 341:Generated_Source\PSoC6\pdl\drivers\peripheral\scb/cy_scb_uart.c **** 
 611              		.loc 1 341 0
 612 0056 00E0     		b	.L53
 613              	.LVL26:
 614              	.L61:
 292:Generated_Source\PSoC6\pdl\drivers\peripheral\scb/cy_scb_uart.c **** 
 615              		.loc 1 292 0
 616 0058 0048     		ldr	r0, .L64
 617              	.LVL27:
 618              	.L53:
 363:Generated_Source\PSoC6\pdl\drivers\peripheral\scb/cy_scb_uart.c **** 
 619              		.loc 1 363 0
 620              		@ sp needed
 621 005a 10BD     		pop	{r4, pc}
 622              	.L65:
 623              		.align	2
 624              	.L64:
 625 005c FF004200 		.word	4325631
 626              		.cfi_endproc
 627              	.LFE158:
 628              		.size	Cy_SCB_UART_DeepSleepCallback, .-Cy_SCB_UART_DeepSleepCallback
 629              		.section	.text.Cy_SCB_UART_HibernateCallback,"ax",%progbits
 630              		.align	1
 631              		.global	Cy_SCB_UART_HibernateCallback
 632              		.code	16
 633              		.thumb_func
 634              		.type	Cy_SCB_UART_HibernateCallback, %function
 635              	Cy_SCB_UART_HibernateCallback:
 636              	.LFB159:
 396:Generated_Source\PSoC6\pdl\drivers\peripheral\scb/cy_scb_uart.c ****     return Cy_SCB_UART_DeepSleepCallback(callbackParams, mode);
 637              		.loc 1 396 0
 638              		.cfi_startproc
 639              		@ args = 0, pretend = 0, frame = 0
 640              		@ frame_needed = 0, uses_anonymous_args = 0
 641              	.LVL28:
 642 0000 10B5     		push	{r4, lr}
 643              		.cfi_def_cfa_offset 8
 644              		.cfi_offset 4, -8
 645              		.cfi_offset 14, -4
 397:Generated_Source\PSoC6\pdl\drivers\peripheral\scb/cy_scb_uart.c **** }
 646              		.loc 1 397 0
 647 0002 FFF7FEFF 		bl	Cy_SCB_UART_DeepSleepCallback
 648              	.LVL29:
 398:Generated_Source\PSoC6\pdl\drivers\peripheral\scb/cy_scb_uart.c **** 
 649              		.loc 1 398 0
 650              		@ sp needed
 651 0006 10BD     		pop	{r4, pc}
 652              		.cfi_endproc
 653              	.LFE159:
ARM GAS  C:\Users\pearlstl\AppData\Local\Temp\ccAUXqAU.s 			page 63


 654              		.size	Cy_SCB_UART_HibernateCallback, .-Cy_SCB_UART_HibernateCallback
 655              		.section	.text.Cy_SCB_UART_StartRingBuffer,"ax",%progbits
 656              		.align	1
 657              		.global	Cy_SCB_UART_StartRingBuffer
 658              		.code	16
 659              		.thumb_func
 660              		.type	Cy_SCB_UART_StartRingBuffer, %function
 661              	Cy_SCB_UART_StartRingBuffer:
 662              	.LFB160:
 444:Generated_Source\PSoC6\pdl\drivers\peripheral\scb/cy_scb_uart.c ****     CY_ASSERT_L1(NULL != context);
 663              		.loc 1 444 0
 664              		.cfi_startproc
 665              		@ args = 0, pretend = 0, frame = 0
 666              		@ frame_needed = 0, uses_anonymous_args = 0
 667              	.LVL30:
 668 0000 30B5     		push	{r4, r5, lr}
 669              		.cfi_def_cfa_offset 12
 670              		.cfi_offset 4, -12
 671              		.cfi_offset 5, -8
 672              		.cfi_offset 14, -4
 449:Generated_Source\PSoC6\pdl\drivers\peripheral\scb/cy_scb_uart.c ****     {
 673              		.loc 1 449 0
 674 0002 0029     		cmp	r1, #0
 675 0004 1BD0     		beq	.L67
 449:Generated_Source\PSoC6\pdl\drivers\peripheral\scb/cy_scb_uart.c ****     {
 676              		.loc 1 449 0 is_stmt 0 discriminator 1
 677 0006 002A     		cmp	r2, #0
 678 0008 19D0     		beq	.L67
 679              	.LVL31:
 680              	.LBB174:
 681              	.LBB175:
 682              	.LBB176:
 785:Generated_Source\PSoC6\pdl\drivers\peripheral\scb/cy_scb_common.h **** }
 786:Generated_Source\PSoC6\pdl\drivers\peripheral\scb/cy_scb_common.h **** 
 787:Generated_Source\PSoC6\pdl\drivers\peripheral\scb/cy_scb_common.h **** 
 788:Generated_Source\PSoC6\pdl\drivers\peripheral\scb/cy_scb_common.h **** /*******************************************************************************
 789:Generated_Source\PSoC6\pdl\drivers\peripheral\scb/cy_scb_common.h **** * Function Name: Cy_SCB_IsTxComplete
 790:Generated_Source\PSoC6\pdl\drivers\peripheral\scb/cy_scb_common.h **** ****************************************************************************//**
 791:Generated_Source\PSoC6\pdl\drivers\peripheral\scb/cy_scb_common.h **** *
 792:Generated_Source\PSoC6\pdl\drivers\peripheral\scb/cy_scb_common.h **** * Checks whether the TX FIFO and Shifter are empty and there is no more data to send.
 793:Generated_Source\PSoC6\pdl\drivers\peripheral\scb/cy_scb_common.h **** *
 794:Generated_Source\PSoC6\pdl\drivers\peripheral\scb/cy_scb_common.h **** * \param base
 795:Generated_Source\PSoC6\pdl\drivers\peripheral\scb/cy_scb_common.h **** * Pointer to SPI the SCB instance.
 796:Generated_Source\PSoC6\pdl\drivers\peripheral\scb/cy_scb_common.h **** *
 797:Generated_Source\PSoC6\pdl\drivers\peripheral\scb/cy_scb_common.h **** * \return
 798:Generated_Source\PSoC6\pdl\drivers\peripheral\scb/cy_scb_common.h **** * If true, transmission complete. If false, transmission is not complete.
 799:Generated_Source\PSoC6\pdl\drivers\peripheral\scb/cy_scb_common.h **** *
 800:Generated_Source\PSoC6\pdl\drivers\peripheral\scb/cy_scb_common.h **** *******************************************************************************/
 801:Generated_Source\PSoC6\pdl\drivers\peripheral\scb/cy_scb_common.h **** __STATIC_INLINE bool Cy_SCB_IsTxComplete(CySCB_Type const *base)
 802:Generated_Source\PSoC6\pdl\drivers\peripheral\scb/cy_scb_common.h **** {
 803:Generated_Source\PSoC6\pdl\drivers\peripheral\scb/cy_scb_common.h ****      return (0UL == (Cy_SCB_GetNumInTxFifo(base) + Cy_SCB_GetTxSrValid(base)));
 804:Generated_Source\PSoC6\pdl\drivers\peripheral\scb/cy_scb_common.h **** }
 805:Generated_Source\PSoC6\pdl\drivers\peripheral\scb/cy_scb_common.h **** 
 806:Generated_Source\PSoC6\pdl\drivers\peripheral\scb/cy_scb_common.h **** 
 807:Generated_Source\PSoC6\pdl\drivers\peripheral\scb/cy_scb_common.h **** /*******************************************************************************
 808:Generated_Source\PSoC6\pdl\drivers\peripheral\scb/cy_scb_common.h **** * Function Name: Cy_SCB_ClearTxFifo
 809:Generated_Source\PSoC6\pdl\drivers\peripheral\scb/cy_scb_common.h **** ****************************************************************************//**
ARM GAS  C:\Users\pearlstl\AppData\Local\Temp\ccAUXqAU.s 			page 64


 810:Generated_Source\PSoC6\pdl\drivers\peripheral\scb/cy_scb_common.h **** *
 811:Generated_Source\PSoC6\pdl\drivers\peripheral\scb/cy_scb_common.h **** * Clears the TX FIFO.
 812:Generated_Source\PSoC6\pdl\drivers\peripheral\scb/cy_scb_common.h **** *
 813:Generated_Source\PSoC6\pdl\drivers\peripheral\scb/cy_scb_common.h **** * \param base
 814:Generated_Source\PSoC6\pdl\drivers\peripheral\scb/cy_scb_common.h **** * The pointer to the SCB instance.
 815:Generated_Source\PSoC6\pdl\drivers\peripheral\scb/cy_scb_common.h **** *
 816:Generated_Source\PSoC6\pdl\drivers\peripheral\scb/cy_scb_common.h **** * \note
 817:Generated_Source\PSoC6\pdl\drivers\peripheral\scb/cy_scb_common.h **** * The TX FIFO clear operation also clears the shift register. Thus the shifter
 818:Generated_Source\PSoC6\pdl\drivers\peripheral\scb/cy_scb_common.h **** * could be cleared in the middle of a data element transfer. Thia results in
 819:Generated_Source\PSoC6\pdl\drivers\peripheral\scb/cy_scb_common.h **** * "ones" being sent on the bus for the remainder of the transfer.
 820:Generated_Source\PSoC6\pdl\drivers\peripheral\scb/cy_scb_common.h **** *
 821:Generated_Source\PSoC6\pdl\drivers\peripheral\scb/cy_scb_common.h **** *******************************************************************************/
 822:Generated_Source\PSoC6\pdl\drivers\peripheral\scb/cy_scb_common.h **** __STATIC_INLINE void Cy_SCB_ClearTxFifo(CySCB_Type *base)
 823:Generated_Source\PSoC6\pdl\drivers\peripheral\scb/cy_scb_common.h **** {
 824:Generated_Source\PSoC6\pdl\drivers\peripheral\scb/cy_scb_common.h ****     SCB_TX_FIFO_CTRL(base) |= (uint32_t)  SCB_TX_FIFO_CTRL_CLEAR_Msk;
 825:Generated_Source\PSoC6\pdl\drivers\peripheral\scb/cy_scb_common.h ****     SCB_TX_FIFO_CTRL(base) &= (uint32_t) ~SCB_TX_FIFO_CTRL_CLEAR_Msk;
 826:Generated_Source\PSoC6\pdl\drivers\peripheral\scb/cy_scb_common.h **** 
 827:Generated_Source\PSoC6\pdl\drivers\peripheral\scb/cy_scb_common.h ****     (void) SCB_TX_FIFO_CTRL(base);
 828:Generated_Source\PSoC6\pdl\drivers\peripheral\scb/cy_scb_common.h **** }
 829:Generated_Source\PSoC6\pdl\drivers\peripheral\scb/cy_scb_common.h **** 
 830:Generated_Source\PSoC6\pdl\drivers\peripheral\scb/cy_scb_common.h **** 
 831:Generated_Source\PSoC6\pdl\drivers\peripheral\scb/cy_scb_common.h **** /*******************************************************************************
 832:Generated_Source\PSoC6\pdl\drivers\peripheral\scb/cy_scb_common.h **** * Function Name: Cy_SCB_SetByteMode
 833:Generated_Source\PSoC6\pdl\drivers\peripheral\scb/cy_scb_common.h **** ****************************************************************************//**
 834:Generated_Source\PSoC6\pdl\drivers\peripheral\scb/cy_scb_common.h **** *
 835:Generated_Source\PSoC6\pdl\drivers\peripheral\scb/cy_scb_common.h **** * Sets whether the RX and TX FIFOs are in byte mode.
 836:Generated_Source\PSoC6\pdl\drivers\peripheral\scb/cy_scb_common.h **** * The FIFOs are either 16-bit wide or 8-bit wide (byte mode).
 837:Generated_Source\PSoC6\pdl\drivers\peripheral\scb/cy_scb_common.h **** * When the FIFO is in byte mode it is twice as deep. See the device datasheet
 838:Generated_Source\PSoC6\pdl\drivers\peripheral\scb/cy_scb_common.h **** * for FIFO depths.
 839:Generated_Source\PSoC6\pdl\drivers\peripheral\scb/cy_scb_common.h **** *
 840:Generated_Source\PSoC6\pdl\drivers\peripheral\scb/cy_scb_common.h **** * \param base
 841:Generated_Source\PSoC6\pdl\drivers\peripheral\scb/cy_scb_common.h **** * The pointer to the SCB instance.
 842:Generated_Source\PSoC6\pdl\drivers\peripheral\scb/cy_scb_common.h **** *
 843:Generated_Source\PSoC6\pdl\drivers\peripheral\scb/cy_scb_common.h **** * \param byteMode
 844:Generated_Source\PSoC6\pdl\drivers\peripheral\scb/cy_scb_common.h **** * If true, TX and RX FIFOs are 8-bit wide. If false, the FIFOs are 16-bit wide.
 845:Generated_Source\PSoC6\pdl\drivers\peripheral\scb/cy_scb_common.h **** *
 846:Generated_Source\PSoC6\pdl\drivers\peripheral\scb/cy_scb_common.h **** *******************************************************************************/
 847:Generated_Source\PSoC6\pdl\drivers\peripheral\scb/cy_scb_common.h **** __STATIC_INLINE void Cy_SCB_SetByteMode(CySCB_Type *base, bool byteMode)
 848:Generated_Source\PSoC6\pdl\drivers\peripheral\scb/cy_scb_common.h **** {
 849:Generated_Source\PSoC6\pdl\drivers\peripheral\scb/cy_scb_common.h ****     if (byteMode)
 850:Generated_Source\PSoC6\pdl\drivers\peripheral\scb/cy_scb_common.h ****     {
 851:Generated_Source\PSoC6\pdl\drivers\peripheral\scb/cy_scb_common.h ****         SCB_CTRL(base) |=  SCB_CTRL_BYTE_MODE_Msk;
 852:Generated_Source\PSoC6\pdl\drivers\peripheral\scb/cy_scb_common.h ****     }
 853:Generated_Source\PSoC6\pdl\drivers\peripheral\scb/cy_scb_common.h ****     else
 854:Generated_Source\PSoC6\pdl\drivers\peripheral\scb/cy_scb_common.h ****     {
 855:Generated_Source\PSoC6\pdl\drivers\peripheral\scb/cy_scb_common.h ****         SCB_CTRL(base) &= ~SCB_CTRL_BYTE_MODE_Msk;
 856:Generated_Source\PSoC6\pdl\drivers\peripheral\scb/cy_scb_common.h ****     }
 857:Generated_Source\PSoC6\pdl\drivers\peripheral\scb/cy_scb_common.h **** }
 858:Generated_Source\PSoC6\pdl\drivers\peripheral\scb/cy_scb_common.h **** 
 859:Generated_Source\PSoC6\pdl\drivers\peripheral\scb/cy_scb_common.h **** 
 860:Generated_Source\PSoC6\pdl\drivers\peripheral\scb/cy_scb_common.h **** /*******************************************************************************
 861:Generated_Source\PSoC6\pdl\drivers\peripheral\scb/cy_scb_common.h **** * Function Name: Cy_SCB_GetInterruptCause
 862:Generated_Source\PSoC6\pdl\drivers\peripheral\scb/cy_scb_common.h **** ****************************************************************************//**
 863:Generated_Source\PSoC6\pdl\drivers\peripheral\scb/cy_scb_common.h **** *
 864:Generated_Source\PSoC6\pdl\drivers\peripheral\scb/cy_scb_common.h **** * Returns the mask of bits showing the source of the current triggered
 865:Generated_Source\PSoC6\pdl\drivers\peripheral\scb/cy_scb_common.h **** * interrupt. This is useful for modes of operation where an interrupt can
 866:Generated_Source\PSoC6\pdl\drivers\peripheral\scb/cy_scb_common.h **** * be generated by conditions in multiple interrupt source registers.
ARM GAS  C:\Users\pearlstl\AppData\Local\Temp\ccAUXqAU.s 			page 65


 867:Generated_Source\PSoC6\pdl\drivers\peripheral\scb/cy_scb_common.h **** *
 868:Generated_Source\PSoC6\pdl\drivers\peripheral\scb/cy_scb_common.h **** * \param base
 869:Generated_Source\PSoC6\pdl\drivers\peripheral\scb/cy_scb_common.h **** * The pointer to the SCB instance.
 870:Generated_Source\PSoC6\pdl\drivers\peripheral\scb/cy_scb_common.h **** *
 871:Generated_Source\PSoC6\pdl\drivers\peripheral\scb/cy_scb_common.h **** * \return
 872:Generated_Source\PSoC6\pdl\drivers\peripheral\scb/cy_scb_common.h **** * The mask with the OR of the following conditions that have been triggered.
 873:Generated_Source\PSoC6\pdl\drivers\peripheral\scb/cy_scb_common.h **** * See \ref group_scb_common_macros_intr_cause for the set of constants.
 874:Generated_Source\PSoC6\pdl\drivers\peripheral\scb/cy_scb_common.h **** *
 875:Generated_Source\PSoC6\pdl\drivers\peripheral\scb/cy_scb_common.h **** *******************************************************************************/
 876:Generated_Source\PSoC6\pdl\drivers\peripheral\scb/cy_scb_common.h **** __STATIC_INLINE uint32_t Cy_SCB_GetInterruptCause(CySCB_Type const *base)
 877:Generated_Source\PSoC6\pdl\drivers\peripheral\scb/cy_scb_common.h **** {
 878:Generated_Source\PSoC6\pdl\drivers\peripheral\scb/cy_scb_common.h ****     return (SCB_INTR_CAUSE(base));
 879:Generated_Source\PSoC6\pdl\drivers\peripheral\scb/cy_scb_common.h **** }
 880:Generated_Source\PSoC6\pdl\drivers\peripheral\scb/cy_scb_common.h **** 
 881:Generated_Source\PSoC6\pdl\drivers\peripheral\scb/cy_scb_common.h **** 
 882:Generated_Source\PSoC6\pdl\drivers\peripheral\scb/cy_scb_common.h **** /*******************************************************************************
 883:Generated_Source\PSoC6\pdl\drivers\peripheral\scb/cy_scb_common.h **** * Function Name: Cy_SCB_GetRxInterruptStatus
 884:Generated_Source\PSoC6\pdl\drivers\peripheral\scb/cy_scb_common.h **** ****************************************************************************//**
 885:Generated_Source\PSoC6\pdl\drivers\peripheral\scb/cy_scb_common.h **** *
 886:Generated_Source\PSoC6\pdl\drivers\peripheral\scb/cy_scb_common.h **** * Returns the RX interrupt request register. This register contains the current
 887:Generated_Source\PSoC6\pdl\drivers\peripheral\scb/cy_scb_common.h **** * status of the RX interrupt sources.
 888:Generated_Source\PSoC6\pdl\drivers\peripheral\scb/cy_scb_common.h **** *
 889:Generated_Source\PSoC6\pdl\drivers\peripheral\scb/cy_scb_common.h **** * \param base
 890:Generated_Source\PSoC6\pdl\drivers\peripheral\scb/cy_scb_common.h **** * The pointer to the SCB instance.
 891:Generated_Source\PSoC6\pdl\drivers\peripheral\scb/cy_scb_common.h **** *
 892:Generated_Source\PSoC6\pdl\drivers\peripheral\scb/cy_scb_common.h **** * \return
 893:Generated_Source\PSoC6\pdl\drivers\peripheral\scb/cy_scb_common.h **** * The current status of the RX interrupt sources. Each constant is a bit field
 894:Generated_Source\PSoC6\pdl\drivers\peripheral\scb/cy_scb_common.h **** * value. The value returned may have multiple bits set to indicate the
 895:Generated_Source\PSoC6\pdl\drivers\peripheral\scb/cy_scb_common.h **** * current status.
 896:Generated_Source\PSoC6\pdl\drivers\peripheral\scb/cy_scb_common.h **** * See \ref group_scb_common_macros_rx_intr for the set of constants.
 897:Generated_Source\PSoC6\pdl\drivers\peripheral\scb/cy_scb_common.h **** *
 898:Generated_Source\PSoC6\pdl\drivers\peripheral\scb/cy_scb_common.h **** *******************************************************************************/
 899:Generated_Source\PSoC6\pdl\drivers\peripheral\scb/cy_scb_common.h **** __STATIC_INLINE uint32_t Cy_SCB_GetRxInterruptStatus(CySCB_Type const *base)
 900:Generated_Source\PSoC6\pdl\drivers\peripheral\scb/cy_scb_common.h **** {
 901:Generated_Source\PSoC6\pdl\drivers\peripheral\scb/cy_scb_common.h ****     return (SCB_INTR_RX(base) & CY_SCB_RX_INTR_MASK);
 902:Generated_Source\PSoC6\pdl\drivers\peripheral\scb/cy_scb_common.h **** }
 903:Generated_Source\PSoC6\pdl\drivers\peripheral\scb/cy_scb_common.h **** 
 904:Generated_Source\PSoC6\pdl\drivers\peripheral\scb/cy_scb_common.h **** 
 905:Generated_Source\PSoC6\pdl\drivers\peripheral\scb/cy_scb_common.h **** /*******************************************************************************
 906:Generated_Source\PSoC6\pdl\drivers\peripheral\scb/cy_scb_common.h **** * Function Name: Cy_SCB_SetRxInterruptMask
 907:Generated_Source\PSoC6\pdl\drivers\peripheral\scb/cy_scb_common.h **** ****************************************************************************//**
 908:Generated_Source\PSoC6\pdl\drivers\peripheral\scb/cy_scb_common.h **** *
 909:Generated_Source\PSoC6\pdl\drivers\peripheral\scb/cy_scb_common.h **** * Writes the RX interrupt mask register. This register configures which bits
 910:Generated_Source\PSoC6\pdl\drivers\peripheral\scb/cy_scb_common.h **** * from the RX interrupt request register can trigger an interrupt event.
 911:Generated_Source\PSoC6\pdl\drivers\peripheral\scb/cy_scb_common.h **** *
 912:Generated_Source\PSoC6\pdl\drivers\peripheral\scb/cy_scb_common.h **** * \param base
 913:Generated_Source\PSoC6\pdl\drivers\peripheral\scb/cy_scb_common.h **** * The pointer to the SCB instance.
 914:Generated_Source\PSoC6\pdl\drivers\peripheral\scb/cy_scb_common.h **** *
 915:Generated_Source\PSoC6\pdl\drivers\peripheral\scb/cy_scb_common.h **** * \param interruptMask
 916:Generated_Source\PSoC6\pdl\drivers\peripheral\scb/cy_scb_common.h **** * Enabled RX interrupt sources.
 917:Generated_Source\PSoC6\pdl\drivers\peripheral\scb/cy_scb_common.h **** * See \ref group_scb_common_macros_rx_intr.
 918:Generated_Source\PSoC6\pdl\drivers\peripheral\scb/cy_scb_common.h **** *
 919:Generated_Source\PSoC6\pdl\drivers\peripheral\scb/cy_scb_common.h **** *******************************************************************************/
 920:Generated_Source\PSoC6\pdl\drivers\peripheral\scb/cy_scb_common.h **** __STATIC_INLINE void Cy_SCB_SetRxInterruptMask(CySCB_Type *base, uint32_t interruptMask)
 921:Generated_Source\PSoC6\pdl\drivers\peripheral\scb/cy_scb_common.h **** {
 922:Generated_Source\PSoC6\pdl\drivers\peripheral\scb/cy_scb_common.h ****     CY_ASSERT_L2(CY_SCB_IS_INTR_VALID(interruptMask, CY_SCB_RX_INTR_MASK));
 923:Generated_Source\PSoC6\pdl\drivers\peripheral\scb/cy_scb_common.h **** 
ARM GAS  C:\Users\pearlstl\AppData\Local\Temp\ccAUXqAU.s 			page 66


 924:Generated_Source\PSoC6\pdl\drivers\peripheral\scb/cy_scb_common.h ****     SCB_INTR_RX_MASK(base) = interruptMask;
 925:Generated_Source\PSoC6\pdl\drivers\peripheral\scb/cy_scb_common.h **** }
 926:Generated_Source\PSoC6\pdl\drivers\peripheral\scb/cy_scb_common.h **** 
 927:Generated_Source\PSoC6\pdl\drivers\peripheral\scb/cy_scb_common.h **** 
 928:Generated_Source\PSoC6\pdl\drivers\peripheral\scb/cy_scb_common.h **** /*******************************************************************************
 929:Generated_Source\PSoC6\pdl\drivers\peripheral\scb/cy_scb_common.h **** * Function Name: Cy_SCB_GetRxInterruptMask
 930:Generated_Source\PSoC6\pdl\drivers\peripheral\scb/cy_scb_common.h **** ****************************************************************************//**
 931:Generated_Source\PSoC6\pdl\drivers\peripheral\scb/cy_scb_common.h **** *
 932:Generated_Source\PSoC6\pdl\drivers\peripheral\scb/cy_scb_common.h **** * Returns the RX interrupt mask register. This register specifies which bits
 933:Generated_Source\PSoC6\pdl\drivers\peripheral\scb/cy_scb_common.h **** * from the RX interrupt request register trigger can an interrupt event.
 934:Generated_Source\PSoC6\pdl\drivers\peripheral\scb/cy_scb_common.h **** *
 935:Generated_Source\PSoC6\pdl\drivers\peripheral\scb/cy_scb_common.h **** * \param base
 936:Generated_Source\PSoC6\pdl\drivers\peripheral\scb/cy_scb_common.h **** * The pointer to the SCB instance.
 937:Generated_Source\PSoC6\pdl\drivers\peripheral\scb/cy_scb_common.h **** *
 938:Generated_Source\PSoC6\pdl\drivers\peripheral\scb/cy_scb_common.h **** * \return
 939:Generated_Source\PSoC6\pdl\drivers\peripheral\scb/cy_scb_common.h **** * Enabled RX interrupt sources.
 940:Generated_Source\PSoC6\pdl\drivers\peripheral\scb/cy_scb_common.h **** * See \ref group_scb_common_macros_rx_intr for the set of constants.
 941:Generated_Source\PSoC6\pdl\drivers\peripheral\scb/cy_scb_common.h **** *
 942:Generated_Source\PSoC6\pdl\drivers\peripheral\scb/cy_scb_common.h **** *******************************************************************************/
 943:Generated_Source\PSoC6\pdl\drivers\peripheral\scb/cy_scb_common.h **** __STATIC_INLINE uint32_t Cy_SCB_GetRxInterruptMask(CySCB_Type const *base)
 944:Generated_Source\PSoC6\pdl\drivers\peripheral\scb/cy_scb_common.h **** {
 945:Generated_Source\PSoC6\pdl\drivers\peripheral\scb/cy_scb_common.h ****     return (SCB_INTR_RX_MASK(base));
 946:Generated_Source\PSoC6\pdl\drivers\peripheral\scb/cy_scb_common.h **** }
 947:Generated_Source\PSoC6\pdl\drivers\peripheral\scb/cy_scb_common.h **** 
 948:Generated_Source\PSoC6\pdl\drivers\peripheral\scb/cy_scb_common.h **** 
 949:Generated_Source\PSoC6\pdl\drivers\peripheral\scb/cy_scb_common.h **** /*******************************************************************************
 950:Generated_Source\PSoC6\pdl\drivers\peripheral\scb/cy_scb_common.h **** * Function Name: Cy_SCB_GetRxInterruptStatusMasked
 951:Generated_Source\PSoC6\pdl\drivers\peripheral\scb/cy_scb_common.h **** ****************************************************************************//**
 952:Generated_Source\PSoC6\pdl\drivers\peripheral\scb/cy_scb_common.h **** *
 953:Generated_Source\PSoC6\pdl\drivers\peripheral\scb/cy_scb_common.h **** * Returns the RX interrupt masked request register. This register contains
 954:Generated_Source\PSoC6\pdl\drivers\peripheral\scb/cy_scb_common.h **** * a logical AND of corresponding bits from the RX interrupt request and
 955:Generated_Source\PSoC6\pdl\drivers\peripheral\scb/cy_scb_common.h **** * mask registers.
 956:Generated_Source\PSoC6\pdl\drivers\peripheral\scb/cy_scb_common.h **** * This function is intended to be used in the interrupt service routine to
 957:Generated_Source\PSoC6\pdl\drivers\peripheral\scb/cy_scb_common.h **** * identify which of the enabled RX interrupt sources caused the interrupt event.
 958:Generated_Source\PSoC6\pdl\drivers\peripheral\scb/cy_scb_common.h **** *
 959:Generated_Source\PSoC6\pdl\drivers\peripheral\scb/cy_scb_common.h **** * \param base
 960:Generated_Source\PSoC6\pdl\drivers\peripheral\scb/cy_scb_common.h **** * The pointer to the SCB instance.
 961:Generated_Source\PSoC6\pdl\drivers\peripheral\scb/cy_scb_common.h **** *
 962:Generated_Source\PSoC6\pdl\drivers\peripheral\scb/cy_scb_common.h **** * \return
 963:Generated_Source\PSoC6\pdl\drivers\peripheral\scb/cy_scb_common.h **** * The current status of enabled RX interrupt sources.
 964:Generated_Source\PSoC6\pdl\drivers\peripheral\scb/cy_scb_common.h **** * See \ref group_scb_common_macros_rx_intr for the set of constants.
 965:Generated_Source\PSoC6\pdl\drivers\peripheral\scb/cy_scb_common.h **** *
 966:Generated_Source\PSoC6\pdl\drivers\peripheral\scb/cy_scb_common.h **** *******************************************************************************/
 967:Generated_Source\PSoC6\pdl\drivers\peripheral\scb/cy_scb_common.h **** __STATIC_INLINE uint32_t Cy_SCB_GetRxInterruptStatusMasked(CySCB_Type const *base)
 968:Generated_Source\PSoC6\pdl\drivers\peripheral\scb/cy_scb_common.h **** {
 969:Generated_Source\PSoC6\pdl\drivers\peripheral\scb/cy_scb_common.h ****     return (SCB_INTR_RX_MASKED(base));
 970:Generated_Source\PSoC6\pdl\drivers\peripheral\scb/cy_scb_common.h **** }
 971:Generated_Source\PSoC6\pdl\drivers\peripheral\scb/cy_scb_common.h **** 
 972:Generated_Source\PSoC6\pdl\drivers\peripheral\scb/cy_scb_common.h **** 
 973:Generated_Source\PSoC6\pdl\drivers\peripheral\scb/cy_scb_common.h **** /*******************************************************************************
 974:Generated_Source\PSoC6\pdl\drivers\peripheral\scb/cy_scb_common.h **** * Function Name: Cy_SCB_ClearRxInterrupt
 975:Generated_Source\PSoC6\pdl\drivers\peripheral\scb/cy_scb_common.h **** ****************************************************************************//**
 976:Generated_Source\PSoC6\pdl\drivers\peripheral\scb/cy_scb_common.h **** *
 977:Generated_Source\PSoC6\pdl\drivers\peripheral\scb/cy_scb_common.h **** * Clears the RX interrupt sources in the interrupt request register.
 978:Generated_Source\PSoC6\pdl\drivers\peripheral\scb/cy_scb_common.h **** *
 979:Generated_Source\PSoC6\pdl\drivers\peripheral\scb/cy_scb_common.h **** * \param base
 980:Generated_Source\PSoC6\pdl\drivers\peripheral\scb/cy_scb_common.h **** * The pointer to the SCB instance.
ARM GAS  C:\Users\pearlstl\AppData\Local\Temp\ccAUXqAU.s 			page 67


 981:Generated_Source\PSoC6\pdl\drivers\peripheral\scb/cy_scb_common.h **** *
 982:Generated_Source\PSoC6\pdl\drivers\peripheral\scb/cy_scb_common.h **** * \param interruptMask
 983:Generated_Source\PSoC6\pdl\drivers\peripheral\scb/cy_scb_common.h **** * The RX interrupt sources to be cleared.
 984:Generated_Source\PSoC6\pdl\drivers\peripheral\scb/cy_scb_common.h **** * See \ref group_scb_common_macros_rx_intr for the set of constants.
 985:Generated_Source\PSoC6\pdl\drivers\peripheral\scb/cy_scb_common.h **** *
 986:Generated_Source\PSoC6\pdl\drivers\peripheral\scb/cy_scb_common.h **** * \note
 987:Generated_Source\PSoC6\pdl\drivers\peripheral\scb/cy_scb_common.h **** *  - CY_SCB_INTR_RX_FIFO_LEVEL interrupt source is not cleared when
 988:Generated_Source\PSoC6\pdl\drivers\peripheral\scb/cy_scb_common.h **** *    the RX FIFO has more entries than the level.
 989:Generated_Source\PSoC6\pdl\drivers\peripheral\scb/cy_scb_common.h **** *  - CY_SCB_INTR_RX_NOT_EMPTY interrupt source is not cleared when the
 990:Generated_Source\PSoC6\pdl\drivers\peripheral\scb/cy_scb_common.h **** *    RX FIFO is not empty.
 991:Generated_Source\PSoC6\pdl\drivers\peripheral\scb/cy_scb_common.h **** *  - CY_SCB_INTR_RX_FULL interrupt source is not cleared when the
 992:Generated_Source\PSoC6\pdl\drivers\peripheral\scb/cy_scb_common.h **** *    RX FIFO is full.
 993:Generated_Source\PSoC6\pdl\drivers\peripheral\scb/cy_scb_common.h **** *
 994:Generated_Source\PSoC6\pdl\drivers\peripheral\scb/cy_scb_common.h **** *******************************************************************************/
 995:Generated_Source\PSoC6\pdl\drivers\peripheral\scb/cy_scb_common.h **** __STATIC_INLINE void Cy_SCB_ClearRxInterrupt(CySCB_Type *base, uint32_t interruptMask)
 996:Generated_Source\PSoC6\pdl\drivers\peripheral\scb/cy_scb_common.h **** {
 997:Generated_Source\PSoC6\pdl\drivers\peripheral\scb/cy_scb_common.h ****     CY_ASSERT_L2(CY_SCB_IS_INTR_VALID(interruptMask, CY_SCB_RX_INTR_MASK));
 998:Generated_Source\PSoC6\pdl\drivers\peripheral\scb/cy_scb_common.h **** 
 999:Generated_Source\PSoC6\pdl\drivers\peripheral\scb/cy_scb_common.h ****     SCB_INTR_RX(base) = interruptMask;
1000:Generated_Source\PSoC6\pdl\drivers\peripheral\scb/cy_scb_common.h ****     (void) SCB_INTR_RX(base);
1001:Generated_Source\PSoC6\pdl\drivers\peripheral\scb/cy_scb_common.h **** }
1002:Generated_Source\PSoC6\pdl\drivers\peripheral\scb/cy_scb_common.h **** 
1003:Generated_Source\PSoC6\pdl\drivers\peripheral\scb/cy_scb_common.h **** 
1004:Generated_Source\PSoC6\pdl\drivers\peripheral\scb/cy_scb_common.h **** /*******************************************************************************
1005:Generated_Source\PSoC6\pdl\drivers\peripheral\scb/cy_scb_common.h **** * Function Name: Cy_SCB_SetRxInterrupt
1006:Generated_Source\PSoC6\pdl\drivers\peripheral\scb/cy_scb_common.h **** ****************************************************************************//**
1007:Generated_Source\PSoC6\pdl\drivers\peripheral\scb/cy_scb_common.h **** *
1008:Generated_Source\PSoC6\pdl\drivers\peripheral\scb/cy_scb_common.h **** * Sets the RX interrupt sources in the interrupt request register.
1009:Generated_Source\PSoC6\pdl\drivers\peripheral\scb/cy_scb_common.h **** *
1010:Generated_Source\PSoC6\pdl\drivers\peripheral\scb/cy_scb_common.h **** * \param base
1011:Generated_Source\PSoC6\pdl\drivers\peripheral\scb/cy_scb_common.h **** * The pointer to the SCB instance.
1012:Generated_Source\PSoC6\pdl\drivers\peripheral\scb/cy_scb_common.h **** *
1013:Generated_Source\PSoC6\pdl\drivers\peripheral\scb/cy_scb_common.h **** * \param interruptMask
1014:Generated_Source\PSoC6\pdl\drivers\peripheral\scb/cy_scb_common.h **** * The RX interrupt sources to set in the RX interrupt request register.
1015:Generated_Source\PSoC6\pdl\drivers\peripheral\scb/cy_scb_common.h **** * See \ref group_scb_common_macros_rx_intr for the set of constants.
1016:Generated_Source\PSoC6\pdl\drivers\peripheral\scb/cy_scb_common.h **** *
1017:Generated_Source\PSoC6\pdl\drivers\peripheral\scb/cy_scb_common.h **** *******************************************************************************/
1018:Generated_Source\PSoC6\pdl\drivers\peripheral\scb/cy_scb_common.h **** __STATIC_INLINE void Cy_SCB_SetRxInterrupt(CySCB_Type *base, uint32_t interruptMask)
1019:Generated_Source\PSoC6\pdl\drivers\peripheral\scb/cy_scb_common.h **** {
1020:Generated_Source\PSoC6\pdl\drivers\peripheral\scb/cy_scb_common.h ****     CY_ASSERT_L2(CY_SCB_IS_INTR_VALID(interruptMask, CY_SCB_RX_INTR_MASK));
1021:Generated_Source\PSoC6\pdl\drivers\peripheral\scb/cy_scb_common.h **** 
1022:Generated_Source\PSoC6\pdl\drivers\peripheral\scb/cy_scb_common.h ****     SCB_INTR_RX_SET(base) = interruptMask;
1023:Generated_Source\PSoC6\pdl\drivers\peripheral\scb/cy_scb_common.h **** }
1024:Generated_Source\PSoC6\pdl\drivers\peripheral\scb/cy_scb_common.h **** 
1025:Generated_Source\PSoC6\pdl\drivers\peripheral\scb/cy_scb_common.h **** 
1026:Generated_Source\PSoC6\pdl\drivers\peripheral\scb/cy_scb_common.h **** /*******************************************************************************
1027:Generated_Source\PSoC6\pdl\drivers\peripheral\scb/cy_scb_common.h **** * Function Name: Cy_SCB_GetTxInterruptStatus
1028:Generated_Source\PSoC6\pdl\drivers\peripheral\scb/cy_scb_common.h **** ****************************************************************************//**
1029:Generated_Source\PSoC6\pdl\drivers\peripheral\scb/cy_scb_common.h **** *
1030:Generated_Source\PSoC6\pdl\drivers\peripheral\scb/cy_scb_common.h **** * Returns the TX interrupt request register. This register contains the current
1031:Generated_Source\PSoC6\pdl\drivers\peripheral\scb/cy_scb_common.h **** * status of the TX interrupt sources.
1032:Generated_Source\PSoC6\pdl\drivers\peripheral\scb/cy_scb_common.h **** *
1033:Generated_Source\PSoC6\pdl\drivers\peripheral\scb/cy_scb_common.h **** * \param base
1034:Generated_Source\PSoC6\pdl\drivers\peripheral\scb/cy_scb_common.h **** * The pointer to the SCB instance.
1035:Generated_Source\PSoC6\pdl\drivers\peripheral\scb/cy_scb_common.h **** *
1036:Generated_Source\PSoC6\pdl\drivers\peripheral\scb/cy_scb_common.h **** * \return
1037:Generated_Source\PSoC6\pdl\drivers\peripheral\scb/cy_scb_common.h **** * The current status of TX interrupt sources.
ARM GAS  C:\Users\pearlstl\AppData\Local\Temp\ccAUXqAU.s 			page 68


1038:Generated_Source\PSoC6\pdl\drivers\peripheral\scb/cy_scb_common.h **** * Each constant is a bit field value. The value returned may have multiple
1039:Generated_Source\PSoC6\pdl\drivers\peripheral\scb/cy_scb_common.h **** * bits set to indicate the current status.
1040:Generated_Source\PSoC6\pdl\drivers\peripheral\scb/cy_scb_common.h **** * See \ref group_scb_common_macros_tx_intr for the set of constants.
1041:Generated_Source\PSoC6\pdl\drivers\peripheral\scb/cy_scb_common.h **** *
1042:Generated_Source\PSoC6\pdl\drivers\peripheral\scb/cy_scb_common.h **** *******************************************************************************/
1043:Generated_Source\PSoC6\pdl\drivers\peripheral\scb/cy_scb_common.h **** __STATIC_INLINE uint32_t Cy_SCB_GetTxInterruptStatus(CySCB_Type const *base)
1044:Generated_Source\PSoC6\pdl\drivers\peripheral\scb/cy_scb_common.h **** {
1045:Generated_Source\PSoC6\pdl\drivers\peripheral\scb/cy_scb_common.h ****     return (SCB_INTR_TX(base) & CY_SCB_TX_INTR_MASK);
1046:Generated_Source\PSoC6\pdl\drivers\peripheral\scb/cy_scb_common.h **** }
1047:Generated_Source\PSoC6\pdl\drivers\peripheral\scb/cy_scb_common.h **** 
1048:Generated_Source\PSoC6\pdl\drivers\peripheral\scb/cy_scb_common.h **** 
1049:Generated_Source\PSoC6\pdl\drivers\peripheral\scb/cy_scb_common.h **** /*******************************************************************************
1050:Generated_Source\PSoC6\pdl\drivers\peripheral\scb/cy_scb_common.h **** * Function Name: Cy_SCB_SetTxInterruptMask
1051:Generated_Source\PSoC6\pdl\drivers\peripheral\scb/cy_scb_common.h **** ****************************************************************************//**
1052:Generated_Source\PSoC6\pdl\drivers\peripheral\scb/cy_scb_common.h **** *
1053:Generated_Source\PSoC6\pdl\drivers\peripheral\scb/cy_scb_common.h **** * Writes the TX interrupt mask register. This register configures which bits
1054:Generated_Source\PSoC6\pdl\drivers\peripheral\scb/cy_scb_common.h **** * from the TX interrupt request register can trigger an interrupt event.
1055:Generated_Source\PSoC6\pdl\drivers\peripheral\scb/cy_scb_common.h **** *
1056:Generated_Source\PSoC6\pdl\drivers\peripheral\scb/cy_scb_common.h **** * \param base
1057:Generated_Source\PSoC6\pdl\drivers\peripheral\scb/cy_scb_common.h **** * The pointer to the SCB instance.
1058:Generated_Source\PSoC6\pdl\drivers\peripheral\scb/cy_scb_common.h **** *
1059:Generated_Source\PSoC6\pdl\drivers\peripheral\scb/cy_scb_common.h **** * \param interruptMask
1060:Generated_Source\PSoC6\pdl\drivers\peripheral\scb/cy_scb_common.h **** * Enabled TX interrupt sources.
1061:Generated_Source\PSoC6\pdl\drivers\peripheral\scb/cy_scb_common.h **** * See \ref group_scb_common_macros_tx_intr for the set of constants.
1062:Generated_Source\PSoC6\pdl\drivers\peripheral\scb/cy_scb_common.h **** *
1063:Generated_Source\PSoC6\pdl\drivers\peripheral\scb/cy_scb_common.h **** *******************************************************************************/
1064:Generated_Source\PSoC6\pdl\drivers\peripheral\scb/cy_scb_common.h **** __STATIC_INLINE void Cy_SCB_SetTxInterruptMask(CySCB_Type *base, uint32_t interruptMask)
1065:Generated_Source\PSoC6\pdl\drivers\peripheral\scb/cy_scb_common.h **** {
1066:Generated_Source\PSoC6\pdl\drivers\peripheral\scb/cy_scb_common.h ****     CY_ASSERT_L2(CY_SCB_IS_INTR_VALID(interruptMask, CY_SCB_TX_INTR_MASK));
1067:Generated_Source\PSoC6\pdl\drivers\peripheral\scb/cy_scb_common.h **** 
1068:Generated_Source\PSoC6\pdl\drivers\peripheral\scb/cy_scb_common.h ****     SCB_INTR_TX_MASK(base) = interruptMask;
1069:Generated_Source\PSoC6\pdl\drivers\peripheral\scb/cy_scb_common.h **** }
1070:Generated_Source\PSoC6\pdl\drivers\peripheral\scb/cy_scb_common.h **** 
1071:Generated_Source\PSoC6\pdl\drivers\peripheral\scb/cy_scb_common.h **** 
1072:Generated_Source\PSoC6\pdl\drivers\peripheral\scb/cy_scb_common.h **** /*******************************************************************************
1073:Generated_Source\PSoC6\pdl\drivers\peripheral\scb/cy_scb_common.h **** * Function Name: Cy_SCB_GetTxInterruptMask
1074:Generated_Source\PSoC6\pdl\drivers\peripheral\scb/cy_scb_common.h **** ****************************************************************************//**
1075:Generated_Source\PSoC6\pdl\drivers\peripheral\scb/cy_scb_common.h **** *
1076:Generated_Source\PSoC6\pdl\drivers\peripheral\scb/cy_scb_common.h **** * Returns the TX interrupt mask register. This register specifies which
1077:Generated_Source\PSoC6\pdl\drivers\peripheral\scb/cy_scb_common.h **** * bits from the TX interrupt request register can trigger an interrupt event.
1078:Generated_Source\PSoC6\pdl\drivers\peripheral\scb/cy_scb_common.h **** *
1079:Generated_Source\PSoC6\pdl\drivers\peripheral\scb/cy_scb_common.h **** * \param base
1080:Generated_Source\PSoC6\pdl\drivers\peripheral\scb/cy_scb_common.h **** * The pointer to the SCB instance.
1081:Generated_Source\PSoC6\pdl\drivers\peripheral\scb/cy_scb_common.h **** *
1082:Generated_Source\PSoC6\pdl\drivers\peripheral\scb/cy_scb_common.h **** * \return
1083:Generated_Source\PSoC6\pdl\drivers\peripheral\scb/cy_scb_common.h **** * Enabled TX interrupt sources.
1084:Generated_Source\PSoC6\pdl\drivers\peripheral\scb/cy_scb_common.h **** * See \ref group_scb_common_macros_tx_intr for the set of constants.
1085:Generated_Source\PSoC6\pdl\drivers\peripheral\scb/cy_scb_common.h **** *
1086:Generated_Source\PSoC6\pdl\drivers\peripheral\scb/cy_scb_common.h **** *******************************************************************************/
1087:Generated_Source\PSoC6\pdl\drivers\peripheral\scb/cy_scb_common.h **** __STATIC_INLINE uint32_t Cy_SCB_GetTxInterruptMask(CySCB_Type const *base)
1088:Generated_Source\PSoC6\pdl\drivers\peripheral\scb/cy_scb_common.h **** {
1089:Generated_Source\PSoC6\pdl\drivers\peripheral\scb/cy_scb_common.h ****     return (SCB_INTR_TX_MASK(base));
1090:Generated_Source\PSoC6\pdl\drivers\peripheral\scb/cy_scb_common.h **** }
1091:Generated_Source\PSoC6\pdl\drivers\peripheral\scb/cy_scb_common.h **** 
1092:Generated_Source\PSoC6\pdl\drivers\peripheral\scb/cy_scb_common.h **** 
1093:Generated_Source\PSoC6\pdl\drivers\peripheral\scb/cy_scb_common.h **** /*******************************************************************************
1094:Generated_Source\PSoC6\pdl\drivers\peripheral\scb/cy_scb_common.h **** * Function Name: Cy_SCB_GetTxInterruptStatusMasked
ARM GAS  C:\Users\pearlstl\AppData\Local\Temp\ccAUXqAU.s 			page 69


1095:Generated_Source\PSoC6\pdl\drivers\peripheral\scb/cy_scb_common.h **** ****************************************************************************//**
1096:Generated_Source\PSoC6\pdl\drivers\peripheral\scb/cy_scb_common.h **** *
1097:Generated_Source\PSoC6\pdl\drivers\peripheral\scb/cy_scb_common.h **** * Returns the TX interrupt masked request register. This register contains
1098:Generated_Source\PSoC6\pdl\drivers\peripheral\scb/cy_scb_common.h **** * a logical AND of corresponding bits from the TX interrupt request and
1099:Generated_Source\PSoC6\pdl\drivers\peripheral\scb/cy_scb_common.h **** * mask registers.
1100:Generated_Source\PSoC6\pdl\drivers\peripheral\scb/cy_scb_common.h **** * This function is intended to be used in the interrupt service routine to
1101:Generated_Source\PSoC6\pdl\drivers\peripheral\scb/cy_scb_common.h **** * identify which of enabled TX interrupt sources caused the interrupt event.
1102:Generated_Source\PSoC6\pdl\drivers\peripheral\scb/cy_scb_common.h **** *
1103:Generated_Source\PSoC6\pdl\drivers\peripheral\scb/cy_scb_common.h **** * \param base
1104:Generated_Source\PSoC6\pdl\drivers\peripheral\scb/cy_scb_common.h **** * The pointer to the SCB instance.
1105:Generated_Source\PSoC6\pdl\drivers\peripheral\scb/cy_scb_common.h **** *
1106:Generated_Source\PSoC6\pdl\drivers\peripheral\scb/cy_scb_common.h **** * \return
1107:Generated_Source\PSoC6\pdl\drivers\peripheral\scb/cy_scb_common.h **** * The current status of enabled TX interrupt sources.
1108:Generated_Source\PSoC6\pdl\drivers\peripheral\scb/cy_scb_common.h **** * See \ref group_scb_common_macros_tx_intr for the set of constants.
1109:Generated_Source\PSoC6\pdl\drivers\peripheral\scb/cy_scb_common.h **** *
1110:Generated_Source\PSoC6\pdl\drivers\peripheral\scb/cy_scb_common.h **** *******************************************************************************/
1111:Generated_Source\PSoC6\pdl\drivers\peripheral\scb/cy_scb_common.h **** __STATIC_INLINE uint32_t Cy_SCB_GetTxInterruptStatusMasked(CySCB_Type const *base)
1112:Generated_Source\PSoC6\pdl\drivers\peripheral\scb/cy_scb_common.h **** {
1113:Generated_Source\PSoC6\pdl\drivers\peripheral\scb/cy_scb_common.h ****     return (SCB_INTR_TX_MASKED(base));
1114:Generated_Source\PSoC6\pdl\drivers\peripheral\scb/cy_scb_common.h **** }
1115:Generated_Source\PSoC6\pdl\drivers\peripheral\scb/cy_scb_common.h **** 
1116:Generated_Source\PSoC6\pdl\drivers\peripheral\scb/cy_scb_common.h **** 
1117:Generated_Source\PSoC6\pdl\drivers\peripheral\scb/cy_scb_common.h **** /*******************************************************************************
1118:Generated_Source\PSoC6\pdl\drivers\peripheral\scb/cy_scb_common.h **** * Function Name: Cy_SCB_ClearTxInterrupt
1119:Generated_Source\PSoC6\pdl\drivers\peripheral\scb/cy_scb_common.h **** ****************************************************************************//**
1120:Generated_Source\PSoC6\pdl\drivers\peripheral\scb/cy_scb_common.h **** *
1121:Generated_Source\PSoC6\pdl\drivers\peripheral\scb/cy_scb_common.h **** * Clears the TX interrupt sources in the interrupt request register.
1122:Generated_Source\PSoC6\pdl\drivers\peripheral\scb/cy_scb_common.h **** *
1123:Generated_Source\PSoC6\pdl\drivers\peripheral\scb/cy_scb_common.h **** * \param base
1124:Generated_Source\PSoC6\pdl\drivers\peripheral\scb/cy_scb_common.h **** * The pointer to the SCB instance.
1125:Generated_Source\PSoC6\pdl\drivers\peripheral\scb/cy_scb_common.h **** *
1126:Generated_Source\PSoC6\pdl\drivers\peripheral\scb/cy_scb_common.h **** * \param interruptMask
1127:Generated_Source\PSoC6\pdl\drivers\peripheral\scb/cy_scb_common.h **** * The TX interrupt sources to be cleared.
1128:Generated_Source\PSoC6\pdl\drivers\peripheral\scb/cy_scb_common.h **** * See \ref group_scb_common_macros_tx_intr for the set of constants.
1129:Generated_Source\PSoC6\pdl\drivers\peripheral\scb/cy_scb_common.h **** *
1130:Generated_Source\PSoC6\pdl\drivers\peripheral\scb/cy_scb_common.h **** * \note
1131:Generated_Source\PSoC6\pdl\drivers\peripheral\scb/cy_scb_common.h **** *  - CY_SCB_INTR_TX_FIFO_LEVEL interrupt source is not cleared when the
1132:Generated_Source\PSoC6\pdl\drivers\peripheral\scb/cy_scb_common.h **** *    TX FIFO has fewer entries than the TX level.
1133:Generated_Source\PSoC6\pdl\drivers\peripheral\scb/cy_scb_common.h **** *  - CY_SCB_INTR_TX_NOT_FULL interrupt source is not cleared when the
1134:Generated_Source\PSoC6\pdl\drivers\peripheral\scb/cy_scb_common.h **** *    TX FIFO has empty entries in the TX FIFO.
1135:Generated_Source\PSoC6\pdl\drivers\peripheral\scb/cy_scb_common.h **** *  - CY_SCB_INTR_TX_EMPTY interrupt source is not cleared when the
1136:Generated_Source\PSoC6\pdl\drivers\peripheral\scb/cy_scb_common.h **** *    TX FIFO is empty.
1137:Generated_Source\PSoC6\pdl\drivers\peripheral\scb/cy_scb_common.h **** *  - CY_SCB_INTR_TX_UNDERFLOW interrupt source is not cleared when the
1138:Generated_Source\PSoC6\pdl\drivers\peripheral\scb/cy_scb_common.h **** *    TX FIFO is empty. Put data into the TX FIFO before clearing it.
1139:Generated_Source\PSoC6\pdl\drivers\peripheral\scb/cy_scb_common.h **** *
1140:Generated_Source\PSoC6\pdl\drivers\peripheral\scb/cy_scb_common.h **** *******************************************************************************/
1141:Generated_Source\PSoC6\pdl\drivers\peripheral\scb/cy_scb_common.h **** __STATIC_INLINE void Cy_SCB_ClearTxInterrupt(CySCB_Type *base, uint32_t interruptMask)
1142:Generated_Source\PSoC6\pdl\drivers\peripheral\scb/cy_scb_common.h **** {
1143:Generated_Source\PSoC6\pdl\drivers\peripheral\scb/cy_scb_common.h ****     CY_ASSERT_L2(CY_SCB_IS_INTR_VALID(interruptMask, CY_SCB_TX_INTR_MASK));
1144:Generated_Source\PSoC6\pdl\drivers\peripheral\scb/cy_scb_common.h **** 
1145:Generated_Source\PSoC6\pdl\drivers\peripheral\scb/cy_scb_common.h ****     SCB_INTR_TX(base) = interruptMask;
1146:Generated_Source\PSoC6\pdl\drivers\peripheral\scb/cy_scb_common.h ****     (void) SCB_INTR_TX(base);
1147:Generated_Source\PSoC6\pdl\drivers\peripheral\scb/cy_scb_common.h **** }
1148:Generated_Source\PSoC6\pdl\drivers\peripheral\scb/cy_scb_common.h **** 
1149:Generated_Source\PSoC6\pdl\drivers\peripheral\scb/cy_scb_common.h **** 
1150:Generated_Source\PSoC6\pdl\drivers\peripheral\scb/cy_scb_common.h **** /*******************************************************************************
1151:Generated_Source\PSoC6\pdl\drivers\peripheral\scb/cy_scb_common.h **** * Function Name: Cy_SCB_SetTxInterrupt
ARM GAS  C:\Users\pearlstl\AppData\Local\Temp\ccAUXqAU.s 			page 70


1152:Generated_Source\PSoC6\pdl\drivers\peripheral\scb/cy_scb_common.h **** ****************************************************************************//**
1153:Generated_Source\PSoC6\pdl\drivers\peripheral\scb/cy_scb_common.h **** *
1154:Generated_Source\PSoC6\pdl\drivers\peripheral\scb/cy_scb_common.h **** * Sets TX interrupt sources in the interrupt request register.
1155:Generated_Source\PSoC6\pdl\drivers\peripheral\scb/cy_scb_common.h **** *
1156:Generated_Source\PSoC6\pdl\drivers\peripheral\scb/cy_scb_common.h **** * \param base
1157:Generated_Source\PSoC6\pdl\drivers\peripheral\scb/cy_scb_common.h **** * The pointer to the SCB instance.
1158:Generated_Source\PSoC6\pdl\drivers\peripheral\scb/cy_scb_common.h **** *
1159:Generated_Source\PSoC6\pdl\drivers\peripheral\scb/cy_scb_common.h **** * \param interruptMask
1160:Generated_Source\PSoC6\pdl\drivers\peripheral\scb/cy_scb_common.h **** * The TX interrupt sources to set in the TX interrupt request register.
1161:Generated_Source\PSoC6\pdl\drivers\peripheral\scb/cy_scb_common.h **** * See \ref group_scb_common_macros_tx_intr for the set of constants.
1162:Generated_Source\PSoC6\pdl\drivers\peripheral\scb/cy_scb_common.h **** *
1163:Generated_Source\PSoC6\pdl\drivers\peripheral\scb/cy_scb_common.h **** *******************************************************************************/
1164:Generated_Source\PSoC6\pdl\drivers\peripheral\scb/cy_scb_common.h **** __STATIC_INLINE void Cy_SCB_SetTxInterrupt(CySCB_Type *base, uint32_t interruptMask)
1165:Generated_Source\PSoC6\pdl\drivers\peripheral\scb/cy_scb_common.h **** {
1166:Generated_Source\PSoC6\pdl\drivers\peripheral\scb/cy_scb_common.h ****     CY_ASSERT_L2(CY_SCB_IS_INTR_VALID(interruptMask, CY_SCB_TX_INTR_MASK));
1167:Generated_Source\PSoC6\pdl\drivers\peripheral\scb/cy_scb_common.h **** 
1168:Generated_Source\PSoC6\pdl\drivers\peripheral\scb/cy_scb_common.h ****     SCB_INTR_TX_SET(base) = interruptMask;
1169:Generated_Source\PSoC6\pdl\drivers\peripheral\scb/cy_scb_common.h **** }
1170:Generated_Source\PSoC6\pdl\drivers\peripheral\scb/cy_scb_common.h **** 
1171:Generated_Source\PSoC6\pdl\drivers\peripheral\scb/cy_scb_common.h **** 
1172:Generated_Source\PSoC6\pdl\drivers\peripheral\scb/cy_scb_common.h **** /*******************************************************************************
1173:Generated_Source\PSoC6\pdl\drivers\peripheral\scb/cy_scb_common.h **** * Function Name: Cy_SCB_GetMasterInterruptStatus
1174:Generated_Source\PSoC6\pdl\drivers\peripheral\scb/cy_scb_common.h **** ****************************************************************************//**
1175:Generated_Source\PSoC6\pdl\drivers\peripheral\scb/cy_scb_common.h **** *
1176:Generated_Source\PSoC6\pdl\drivers\peripheral\scb/cy_scb_common.h **** * Returns the master interrupt request register. This register contains the current
1177:Generated_Source\PSoC6\pdl\drivers\peripheral\scb/cy_scb_common.h **** * status of the master interrupt sources.
1178:Generated_Source\PSoC6\pdl\drivers\peripheral\scb/cy_scb_common.h **** *
1179:Generated_Source\PSoC6\pdl\drivers\peripheral\scb/cy_scb_common.h **** * \param base
1180:Generated_Source\PSoC6\pdl\drivers\peripheral\scb/cy_scb_common.h **** * The pointer to the SCB instance.
1181:Generated_Source\PSoC6\pdl\drivers\peripheral\scb/cy_scb_common.h **** *
1182:Generated_Source\PSoC6\pdl\drivers\peripheral\scb/cy_scb_common.h **** * \return
1183:Generated_Source\PSoC6\pdl\drivers\peripheral\scb/cy_scb_common.h **** * The current status of the master interrupt sources.
1184:Generated_Source\PSoC6\pdl\drivers\peripheral\scb/cy_scb_common.h **** * Each constant is a bit field value. The value returned may have multiple
1185:Generated_Source\PSoC6\pdl\drivers\peripheral\scb/cy_scb_common.h **** * bits set to indicate the current status.
1186:Generated_Source\PSoC6\pdl\drivers\peripheral\scb/cy_scb_common.h **** * See \ref group_scb_common_macros_master_intr for the set of constants.
1187:Generated_Source\PSoC6\pdl\drivers\peripheral\scb/cy_scb_common.h **** *
1188:Generated_Source\PSoC6\pdl\drivers\peripheral\scb/cy_scb_common.h **** *******************************************************************************/
1189:Generated_Source\PSoC6\pdl\drivers\peripheral\scb/cy_scb_common.h **** __STATIC_INLINE uint32_t Cy_SCB_GetMasterInterruptStatus(CySCB_Type const *base)
1190:Generated_Source\PSoC6\pdl\drivers\peripheral\scb/cy_scb_common.h **** {
1191:Generated_Source\PSoC6\pdl\drivers\peripheral\scb/cy_scb_common.h ****     return (SCB_INTR_M(base) & CY_SCB_MASTER_INTR_MASK);
1192:Generated_Source\PSoC6\pdl\drivers\peripheral\scb/cy_scb_common.h **** }
1193:Generated_Source\PSoC6\pdl\drivers\peripheral\scb/cy_scb_common.h **** 
1194:Generated_Source\PSoC6\pdl\drivers\peripheral\scb/cy_scb_common.h **** 
1195:Generated_Source\PSoC6\pdl\drivers\peripheral\scb/cy_scb_common.h **** /*******************************************************************************
1196:Generated_Source\PSoC6\pdl\drivers\peripheral\scb/cy_scb_common.h **** * Function Name: Cy_SCB_SetMasterInterruptMask
1197:Generated_Source\PSoC6\pdl\drivers\peripheral\scb/cy_scb_common.h **** ****************************************************************************//**
1198:Generated_Source\PSoC6\pdl\drivers\peripheral\scb/cy_scb_common.h **** *
1199:Generated_Source\PSoC6\pdl\drivers\peripheral\scb/cy_scb_common.h **** * Writes the master interrupt mask register. This register specifies which bits
1200:Generated_Source\PSoC6\pdl\drivers\peripheral\scb/cy_scb_common.h **** * from the master interrupt request register can trigger an interrupt event.
1201:Generated_Source\PSoC6\pdl\drivers\peripheral\scb/cy_scb_common.h **** *
1202:Generated_Source\PSoC6\pdl\drivers\peripheral\scb/cy_scb_common.h **** * \param base
1203:Generated_Source\PSoC6\pdl\drivers\peripheral\scb/cy_scb_common.h **** * The pointer to the SCB instance.
1204:Generated_Source\PSoC6\pdl\drivers\peripheral\scb/cy_scb_common.h **** *
1205:Generated_Source\PSoC6\pdl\drivers\peripheral\scb/cy_scb_common.h **** * \param interruptMask
1206:Generated_Source\PSoC6\pdl\drivers\peripheral\scb/cy_scb_common.h **** * The master interrupt sources to be enable.
1207:Generated_Source\PSoC6\pdl\drivers\peripheral\scb/cy_scb_common.h **** * See \ref group_scb_common_macros_master_intr for the set of constants.
1208:Generated_Source\PSoC6\pdl\drivers\peripheral\scb/cy_scb_common.h **** *
ARM GAS  C:\Users\pearlstl\AppData\Local\Temp\ccAUXqAU.s 			page 71


1209:Generated_Source\PSoC6\pdl\drivers\peripheral\scb/cy_scb_common.h **** *******************************************************************************/
1210:Generated_Source\PSoC6\pdl\drivers\peripheral\scb/cy_scb_common.h **** __STATIC_INLINE void Cy_SCB_SetMasterInterruptMask(CySCB_Type *base, uint32_t interruptMask)
1211:Generated_Source\PSoC6\pdl\drivers\peripheral\scb/cy_scb_common.h **** {
1212:Generated_Source\PSoC6\pdl\drivers\peripheral\scb/cy_scb_common.h ****     CY_ASSERT_L2(CY_SCB_IS_INTR_VALID(interruptMask, CY_SCB_MASTER_INTR_MASK));
1213:Generated_Source\PSoC6\pdl\drivers\peripheral\scb/cy_scb_common.h **** 
1214:Generated_Source\PSoC6\pdl\drivers\peripheral\scb/cy_scb_common.h ****     SCB_INTR_M_MASK(base) = interruptMask;
1215:Generated_Source\PSoC6\pdl\drivers\peripheral\scb/cy_scb_common.h **** }
1216:Generated_Source\PSoC6\pdl\drivers\peripheral\scb/cy_scb_common.h **** 
1217:Generated_Source\PSoC6\pdl\drivers\peripheral\scb/cy_scb_common.h **** 
1218:Generated_Source\PSoC6\pdl\drivers\peripheral\scb/cy_scb_common.h **** /*******************************************************************************
1219:Generated_Source\PSoC6\pdl\drivers\peripheral\scb/cy_scb_common.h **** * Function Name: Cy_SCB_GetMasterInterruptMask
1220:Generated_Source\PSoC6\pdl\drivers\peripheral\scb/cy_scb_common.h **** ****************************************************************************//**
1221:Generated_Source\PSoC6\pdl\drivers\peripheral\scb/cy_scb_common.h **** *
1222:Generated_Source\PSoC6\pdl\drivers\peripheral\scb/cy_scb_common.h **** * Returns the master interrupt mask register. This register specifies which bits
1223:Generated_Source\PSoC6\pdl\drivers\peripheral\scb/cy_scb_common.h **** * from the master interrupt request register can trigger an interrupt event.
1224:Generated_Source\PSoC6\pdl\drivers\peripheral\scb/cy_scb_common.h **** *
1225:Generated_Source\PSoC6\pdl\drivers\peripheral\scb/cy_scb_common.h **** * \param base
1226:Generated_Source\PSoC6\pdl\drivers\peripheral\scb/cy_scb_common.h **** * The pointer to the SCB instance.
1227:Generated_Source\PSoC6\pdl\drivers\peripheral\scb/cy_scb_common.h **** *
1228:Generated_Source\PSoC6\pdl\drivers\peripheral\scb/cy_scb_common.h **** * \return
1229:Generated_Source\PSoC6\pdl\drivers\peripheral\scb/cy_scb_common.h **** * Enabled master interrupt sources.
1230:Generated_Source\PSoC6\pdl\drivers\peripheral\scb/cy_scb_common.h **** * See \ref group_scb_common_macros_master_intr for the set of constants.
1231:Generated_Source\PSoC6\pdl\drivers\peripheral\scb/cy_scb_common.h **** *
1232:Generated_Source\PSoC6\pdl\drivers\peripheral\scb/cy_scb_common.h **** *******************************************************************************/
1233:Generated_Source\PSoC6\pdl\drivers\peripheral\scb/cy_scb_common.h **** __STATIC_INLINE uint32_t Cy_SCB_GetMasterInterruptMask(CySCB_Type const *base)
1234:Generated_Source\PSoC6\pdl\drivers\peripheral\scb/cy_scb_common.h **** {
1235:Generated_Source\PSoC6\pdl\drivers\peripheral\scb/cy_scb_common.h ****     return (SCB_INTR_M_MASK(base));
1236:Generated_Source\PSoC6\pdl\drivers\peripheral\scb/cy_scb_common.h **** }
1237:Generated_Source\PSoC6\pdl\drivers\peripheral\scb/cy_scb_common.h **** 
1238:Generated_Source\PSoC6\pdl\drivers\peripheral\scb/cy_scb_common.h **** 
1239:Generated_Source\PSoC6\pdl\drivers\peripheral\scb/cy_scb_common.h **** /*******************************************************************************
1240:Generated_Source\PSoC6\pdl\drivers\peripheral\scb/cy_scb_common.h **** * Function Name: Cy_SCB_GetMasterInterruptStatusMasked
1241:Generated_Source\PSoC6\pdl\drivers\peripheral\scb/cy_scb_common.h **** ****************************************************************************//**
1242:Generated_Source\PSoC6\pdl\drivers\peripheral\scb/cy_scb_common.h **** *
1243:Generated_Source\PSoC6\pdl\drivers\peripheral\scb/cy_scb_common.h **** * Returns the master interrupt masked request register. This register contains a
1244:Generated_Source\PSoC6\pdl\drivers\peripheral\scb/cy_scb_common.h **** * logical AND of corresponding bits from the master interrupt request and mask
1245:Generated_Source\PSoC6\pdl\drivers\peripheral\scb/cy_scb_common.h **** * registers.
1246:Generated_Source\PSoC6\pdl\drivers\peripheral\scb/cy_scb_common.h **** * This function is intended to be used in the interrupt service routine to
1247:Generated_Source\PSoC6\pdl\drivers\peripheral\scb/cy_scb_common.h **** * identify which of the enabled master interrupt sources caused the interrupt
1248:Generated_Source\PSoC6\pdl\drivers\peripheral\scb/cy_scb_common.h **** * event.
1249:Generated_Source\PSoC6\pdl\drivers\peripheral\scb/cy_scb_common.h **** *
1250:Generated_Source\PSoC6\pdl\drivers\peripheral\scb/cy_scb_common.h **** * \param base
1251:Generated_Source\PSoC6\pdl\drivers\peripheral\scb/cy_scb_common.h **** * The pointer to the SCB instance.
1252:Generated_Source\PSoC6\pdl\drivers\peripheral\scb/cy_scb_common.h **** *
1253:Generated_Source\PSoC6\pdl\drivers\peripheral\scb/cy_scb_common.h **** * \return
1254:Generated_Source\PSoC6\pdl\drivers\peripheral\scb/cy_scb_common.h **** * The current status of enabled master interrupt sources.
1255:Generated_Source\PSoC6\pdl\drivers\peripheral\scb/cy_scb_common.h **** * See \ref group_scb_common_macros_master_intr for the set of constants.
1256:Generated_Source\PSoC6\pdl\drivers\peripheral\scb/cy_scb_common.h **** *
1257:Generated_Source\PSoC6\pdl\drivers\peripheral\scb/cy_scb_common.h **** *******************************************************************************/
1258:Generated_Source\PSoC6\pdl\drivers\peripheral\scb/cy_scb_common.h **** __STATIC_INLINE uint32_t Cy_SCB_GetMasterInterruptStatusMasked(CySCB_Type const *base)
1259:Generated_Source\PSoC6\pdl\drivers\peripheral\scb/cy_scb_common.h **** {
1260:Generated_Source\PSoC6\pdl\drivers\peripheral\scb/cy_scb_common.h ****     return (SCB_INTR_M_MASKED(base));
1261:Generated_Source\PSoC6\pdl\drivers\peripheral\scb/cy_scb_common.h **** }
1262:Generated_Source\PSoC6\pdl\drivers\peripheral\scb/cy_scb_common.h **** 
1263:Generated_Source\PSoC6\pdl\drivers\peripheral\scb/cy_scb_common.h **** 
1264:Generated_Source\PSoC6\pdl\drivers\peripheral\scb/cy_scb_common.h **** /*******************************************************************************
1265:Generated_Source\PSoC6\pdl\drivers\peripheral\scb/cy_scb_common.h **** * Function Name: Cy_SCB_ClearMasterInterrupt
ARM GAS  C:\Users\pearlstl\AppData\Local\Temp\ccAUXqAU.s 			page 72


1266:Generated_Source\PSoC6\pdl\drivers\peripheral\scb/cy_scb_common.h **** ****************************************************************************//**
1267:Generated_Source\PSoC6\pdl\drivers\peripheral\scb/cy_scb_common.h **** *
1268:Generated_Source\PSoC6\pdl\drivers\peripheral\scb/cy_scb_common.h **** * Clears master interrupt sources in the interrupt request register.
1269:Generated_Source\PSoC6\pdl\drivers\peripheral\scb/cy_scb_common.h **** *
1270:Generated_Source\PSoC6\pdl\drivers\peripheral\scb/cy_scb_common.h **** * \param base
1271:Generated_Source\PSoC6\pdl\drivers\peripheral\scb/cy_scb_common.h **** * The pointer to the SCB instance.
1272:Generated_Source\PSoC6\pdl\drivers\peripheral\scb/cy_scb_common.h **** *
1273:Generated_Source\PSoC6\pdl\drivers\peripheral\scb/cy_scb_common.h **** * \param interruptMask
1274:Generated_Source\PSoC6\pdl\drivers\peripheral\scb/cy_scb_common.h **** * The master interrupt sources to be cleared.
1275:Generated_Source\PSoC6\pdl\drivers\peripheral\scb/cy_scb_common.h **** * See \ref group_scb_common_macros_master_intr for the set of constants.
1276:Generated_Source\PSoC6\pdl\drivers\peripheral\scb/cy_scb_common.h **** *
1277:Generated_Source\PSoC6\pdl\drivers\peripheral\scb/cy_scb_common.h **** *******************************************************************************/
1278:Generated_Source\PSoC6\pdl\drivers\peripheral\scb/cy_scb_common.h **** __STATIC_INLINE void Cy_SCB_ClearMasterInterrupt(CySCB_Type *base, uint32_t interruptMask)
1279:Generated_Source\PSoC6\pdl\drivers\peripheral\scb/cy_scb_common.h **** {
1280:Generated_Source\PSoC6\pdl\drivers\peripheral\scb/cy_scb_common.h ****     CY_ASSERT_L2(CY_SCB_IS_INTR_VALID(interruptMask, CY_SCB_MASTER_INTR_MASK));
1281:Generated_Source\PSoC6\pdl\drivers\peripheral\scb/cy_scb_common.h **** 
1282:Generated_Source\PSoC6\pdl\drivers\peripheral\scb/cy_scb_common.h ****     SCB_INTR_M(base) = interruptMask;
1283:Generated_Source\PSoC6\pdl\drivers\peripheral\scb/cy_scb_common.h ****     (void) SCB_INTR_M(base);
1284:Generated_Source\PSoC6\pdl\drivers\peripheral\scb/cy_scb_common.h **** }
1285:Generated_Source\PSoC6\pdl\drivers\peripheral\scb/cy_scb_common.h **** 
1286:Generated_Source\PSoC6\pdl\drivers\peripheral\scb/cy_scb_common.h **** 
1287:Generated_Source\PSoC6\pdl\drivers\peripheral\scb/cy_scb_common.h **** /*******************************************************************************
1288:Generated_Source\PSoC6\pdl\drivers\peripheral\scb/cy_scb_common.h **** * Function Name: Cy_SCB_SetMasterInterrupt
1289:Generated_Source\PSoC6\pdl\drivers\peripheral\scb/cy_scb_common.h **** ****************************************************************************//**
1290:Generated_Source\PSoC6\pdl\drivers\peripheral\scb/cy_scb_common.h **** *
1291:Generated_Source\PSoC6\pdl\drivers\peripheral\scb/cy_scb_common.h **** * Sets master interrupt sources in the interrupt request register.
1292:Generated_Source\PSoC6\pdl\drivers\peripheral\scb/cy_scb_common.h **** *
1293:Generated_Source\PSoC6\pdl\drivers\peripheral\scb/cy_scb_common.h **** * \param base
1294:Generated_Source\PSoC6\pdl\drivers\peripheral\scb/cy_scb_common.h **** * The pointer to the SCB instance.
1295:Generated_Source\PSoC6\pdl\drivers\peripheral\scb/cy_scb_common.h **** *
1296:Generated_Source\PSoC6\pdl\drivers\peripheral\scb/cy_scb_common.h **** * \param interruptMask
1297:Generated_Source\PSoC6\pdl\drivers\peripheral\scb/cy_scb_common.h **** * The master interrupt sources to set in the master interrupt request register.
1298:Generated_Source\PSoC6\pdl\drivers\peripheral\scb/cy_scb_common.h **** * See \ref group_scb_common_macros_master_intr for the set of constants.
1299:Generated_Source\PSoC6\pdl\drivers\peripheral\scb/cy_scb_common.h **** *
1300:Generated_Source\PSoC6\pdl\drivers\peripheral\scb/cy_scb_common.h **** *******************************************************************************/
1301:Generated_Source\PSoC6\pdl\drivers\peripheral\scb/cy_scb_common.h **** __STATIC_INLINE void Cy_SCB_SetMasterInterrupt(CySCB_Type *base, uint32_t interruptMask)
1302:Generated_Source\PSoC6\pdl\drivers\peripheral\scb/cy_scb_common.h **** {
1303:Generated_Source\PSoC6\pdl\drivers\peripheral\scb/cy_scb_common.h ****     CY_ASSERT_L2(CY_SCB_IS_INTR_VALID(interruptMask, CY_SCB_MASTER_INTR_MASK));
1304:Generated_Source\PSoC6\pdl\drivers\peripheral\scb/cy_scb_common.h **** 
1305:Generated_Source\PSoC6\pdl\drivers\peripheral\scb/cy_scb_common.h ****     SCB_INTR_M_SET(base) = interruptMask;
1306:Generated_Source\PSoC6\pdl\drivers\peripheral\scb/cy_scb_common.h **** }
1307:Generated_Source\PSoC6\pdl\drivers\peripheral\scb/cy_scb_common.h **** 
1308:Generated_Source\PSoC6\pdl\drivers\peripheral\scb/cy_scb_common.h **** 
1309:Generated_Source\PSoC6\pdl\drivers\peripheral\scb/cy_scb_common.h **** /*******************************************************************************
1310:Generated_Source\PSoC6\pdl\drivers\peripheral\scb/cy_scb_common.h **** * Function Name: Cy_SCB_GetSlaveInterruptStatus
1311:Generated_Source\PSoC6\pdl\drivers\peripheral\scb/cy_scb_common.h **** ****************************************************************************//**
1312:Generated_Source\PSoC6\pdl\drivers\peripheral\scb/cy_scb_common.h **** *
1313:Generated_Source\PSoC6\pdl\drivers\peripheral\scb/cy_scb_common.h **** * Returns the slave interrupt request register. This register contains the current
1314:Generated_Source\PSoC6\pdl\drivers\peripheral\scb/cy_scb_common.h **** * status of the slave interrupt sources.
1315:Generated_Source\PSoC6\pdl\drivers\peripheral\scb/cy_scb_common.h **** *
1316:Generated_Source\PSoC6\pdl\drivers\peripheral\scb/cy_scb_common.h **** * \param base
1317:Generated_Source\PSoC6\pdl\drivers\peripheral\scb/cy_scb_common.h **** * The pointer to the SCB instance.
1318:Generated_Source\PSoC6\pdl\drivers\peripheral\scb/cy_scb_common.h **** *
1319:Generated_Source\PSoC6\pdl\drivers\peripheral\scb/cy_scb_common.h **** * \return
1320:Generated_Source\PSoC6\pdl\drivers\peripheral\scb/cy_scb_common.h **** * The current status of the slave interrupt sources.
1321:Generated_Source\PSoC6\pdl\drivers\peripheral\scb/cy_scb_common.h **** * Each constant is a bit field value. The value returned may have multiple
1322:Generated_Source\PSoC6\pdl\drivers\peripheral\scb/cy_scb_common.h **** * bits set to indicate the current status.
ARM GAS  C:\Users\pearlstl\AppData\Local\Temp\ccAUXqAU.s 			page 73


1323:Generated_Source\PSoC6\pdl\drivers\peripheral\scb/cy_scb_common.h **** * See \ref group_scb_common_macros_slave_intr for the set of constants.
1324:Generated_Source\PSoC6\pdl\drivers\peripheral\scb/cy_scb_common.h **** *
1325:Generated_Source\PSoC6\pdl\drivers\peripheral\scb/cy_scb_common.h **** *******************************************************************************/
1326:Generated_Source\PSoC6\pdl\drivers\peripheral\scb/cy_scb_common.h **** __STATIC_INLINE uint32_t Cy_SCB_GetSlaveInterruptStatus(CySCB_Type const *base)
1327:Generated_Source\PSoC6\pdl\drivers\peripheral\scb/cy_scb_common.h **** {
1328:Generated_Source\PSoC6\pdl\drivers\peripheral\scb/cy_scb_common.h ****     return (SCB_INTR_S(base) & CY_SCB_SLAVE_INTR_MASK);
1329:Generated_Source\PSoC6\pdl\drivers\peripheral\scb/cy_scb_common.h **** }
1330:Generated_Source\PSoC6\pdl\drivers\peripheral\scb/cy_scb_common.h **** 
1331:Generated_Source\PSoC6\pdl\drivers\peripheral\scb/cy_scb_common.h **** 
1332:Generated_Source\PSoC6\pdl\drivers\peripheral\scb/cy_scb_common.h **** /*******************************************************************************
1333:Generated_Source\PSoC6\pdl\drivers\peripheral\scb/cy_scb_common.h **** * Function Name: Cy_SCB_SetSlaveInterruptMask
1334:Generated_Source\PSoC6\pdl\drivers\peripheral\scb/cy_scb_common.h **** ****************************************************************************//**
1335:Generated_Source\PSoC6\pdl\drivers\peripheral\scb/cy_scb_common.h **** *
1336:Generated_Source\PSoC6\pdl\drivers\peripheral\scb/cy_scb_common.h **** * Writes slave interrupt mask register.
1337:Generated_Source\PSoC6\pdl\drivers\peripheral\scb/cy_scb_common.h **** * This register specifies which bits from the slave interrupt request register
1338:Generated_Source\PSoC6\pdl\drivers\peripheral\scb/cy_scb_common.h **** * can trigger an interrupt event.
1339:Generated_Source\PSoC6\pdl\drivers\peripheral\scb/cy_scb_common.h **** *
1340:Generated_Source\PSoC6\pdl\drivers\peripheral\scb/cy_scb_common.h **** * \param base
1341:Generated_Source\PSoC6\pdl\drivers\peripheral\scb/cy_scb_common.h **** * The pointer to the SCB instance.
1342:Generated_Source\PSoC6\pdl\drivers\peripheral\scb/cy_scb_common.h **** *
1343:Generated_Source\PSoC6\pdl\drivers\peripheral\scb/cy_scb_common.h **** * \param interruptMask
1344:Generated_Source\PSoC6\pdl\drivers\peripheral\scb/cy_scb_common.h **** * Enabled slave interrupt sources.
1345:Generated_Source\PSoC6\pdl\drivers\peripheral\scb/cy_scb_common.h **** * See \ref group_scb_common_macros_slave_intr for the set of constants.
1346:Generated_Source\PSoC6\pdl\drivers\peripheral\scb/cy_scb_common.h **** *
1347:Generated_Source\PSoC6\pdl\drivers\peripheral\scb/cy_scb_common.h **** *******************************************************************************/
1348:Generated_Source\PSoC6\pdl\drivers\peripheral\scb/cy_scb_common.h **** __STATIC_INLINE void Cy_SCB_SetSlaveInterruptMask(CySCB_Type *base, uint32_t interruptMask)
1349:Generated_Source\PSoC6\pdl\drivers\peripheral\scb/cy_scb_common.h **** {
1350:Generated_Source\PSoC6\pdl\drivers\peripheral\scb/cy_scb_common.h ****     CY_ASSERT_L2(CY_SCB_IS_INTR_VALID(interruptMask, CY_SCB_SLAVE_INTR_MASK));
1351:Generated_Source\PSoC6\pdl\drivers\peripheral\scb/cy_scb_common.h **** 
1352:Generated_Source\PSoC6\pdl\drivers\peripheral\scb/cy_scb_common.h ****     SCB_INTR_S_MASK(base) = interruptMask;
1353:Generated_Source\PSoC6\pdl\drivers\peripheral\scb/cy_scb_common.h **** }
1354:Generated_Source\PSoC6\pdl\drivers\peripheral\scb/cy_scb_common.h **** 
1355:Generated_Source\PSoC6\pdl\drivers\peripheral\scb/cy_scb_common.h **** 
1356:Generated_Source\PSoC6\pdl\drivers\peripheral\scb/cy_scb_common.h **** /*******************************************************************************
1357:Generated_Source\PSoC6\pdl\drivers\peripheral\scb/cy_scb_common.h **** * Function Name: Cy_SCB_GetSlaveInterruptMask
1358:Generated_Source\PSoC6\pdl\drivers\peripheral\scb/cy_scb_common.h **** ****************************************************************************//**
1359:Generated_Source\PSoC6\pdl\drivers\peripheral\scb/cy_scb_common.h **** *
1360:Generated_Source\PSoC6\pdl\drivers\peripheral\scb/cy_scb_common.h **** * Returns the slave interrupt mask register.
1361:Generated_Source\PSoC6\pdl\drivers\peripheral\scb/cy_scb_common.h **** * This register specifies which bits from the slave interrupt request register
1362:Generated_Source\PSoC6\pdl\drivers\peripheral\scb/cy_scb_common.h **** * can trigger an interrupt event.
1363:Generated_Source\PSoC6\pdl\drivers\peripheral\scb/cy_scb_common.h **** *
1364:Generated_Source\PSoC6\pdl\drivers\peripheral\scb/cy_scb_common.h **** * \param base
1365:Generated_Source\PSoC6\pdl\drivers\peripheral\scb/cy_scb_common.h **** * The pointer to the SCB instance.
1366:Generated_Source\PSoC6\pdl\drivers\peripheral\scb/cy_scb_common.h **** *
1367:Generated_Source\PSoC6\pdl\drivers\peripheral\scb/cy_scb_common.h **** * \return
1368:Generated_Source\PSoC6\pdl\drivers\peripheral\scb/cy_scb_common.h **** * Enabled slave interrupt sources.
1369:Generated_Source\PSoC6\pdl\drivers\peripheral\scb/cy_scb_common.h **** * See \ref group_scb_common_macros_slave_intr for the set of constants.
1370:Generated_Source\PSoC6\pdl\drivers\peripheral\scb/cy_scb_common.h **** *
1371:Generated_Source\PSoC6\pdl\drivers\peripheral\scb/cy_scb_common.h **** *******************************************************************************/
1372:Generated_Source\PSoC6\pdl\drivers\peripheral\scb/cy_scb_common.h **** __STATIC_INLINE uint32_t Cy_SCB_GetSlaveInterruptMask(CySCB_Type const *base)
1373:Generated_Source\PSoC6\pdl\drivers\peripheral\scb/cy_scb_common.h **** {
1374:Generated_Source\PSoC6\pdl\drivers\peripheral\scb/cy_scb_common.h ****     return (SCB_INTR_S_MASK(base));
1375:Generated_Source\PSoC6\pdl\drivers\peripheral\scb/cy_scb_common.h **** }
1376:Generated_Source\PSoC6\pdl\drivers\peripheral\scb/cy_scb_common.h **** 
1377:Generated_Source\PSoC6\pdl\drivers\peripheral\scb/cy_scb_common.h **** 
1378:Generated_Source\PSoC6\pdl\drivers\peripheral\scb/cy_scb_common.h **** /*******************************************************************************
1379:Generated_Source\PSoC6\pdl\drivers\peripheral\scb/cy_scb_common.h **** * Function Name: Cy_SCB_GetSlaveInterruptStatusMasked
ARM GAS  C:\Users\pearlstl\AppData\Local\Temp\ccAUXqAU.s 			page 74


1380:Generated_Source\PSoC6\pdl\drivers\peripheral\scb/cy_scb_common.h **** ****************************************************************************//**
1381:Generated_Source\PSoC6\pdl\drivers\peripheral\scb/cy_scb_common.h **** *
1382:Generated_Source\PSoC6\pdl\drivers\peripheral\scb/cy_scb_common.h **** * Returns the slave interrupt masked request register. This register contains a
1383:Generated_Source\PSoC6\pdl\drivers\peripheral\scb/cy_scb_common.h **** * logical AND of corresponding bits from the slave interrupt request and mask
1384:Generated_Source\PSoC6\pdl\drivers\peripheral\scb/cy_scb_common.h **** * registers.
1385:Generated_Source\PSoC6\pdl\drivers\peripheral\scb/cy_scb_common.h **** * This function is intended to be used in the interrupt service routine to
1386:Generated_Source\PSoC6\pdl\drivers\peripheral\scb/cy_scb_common.h **** * identify which of enabled slave interrupt sources caused the interrupt
1387:Generated_Source\PSoC6\pdl\drivers\peripheral\scb/cy_scb_common.h **** * event.
1388:Generated_Source\PSoC6\pdl\drivers\peripheral\scb/cy_scb_common.h **** *
1389:Generated_Source\PSoC6\pdl\drivers\peripheral\scb/cy_scb_common.h **** * \param base
1390:Generated_Source\PSoC6\pdl\drivers\peripheral\scb/cy_scb_common.h **** * The pointer to the SCB instance.
1391:Generated_Source\PSoC6\pdl\drivers\peripheral\scb/cy_scb_common.h **** *
1392:Generated_Source\PSoC6\pdl\drivers\peripheral\scb/cy_scb_common.h **** * \return
1393:Generated_Source\PSoC6\pdl\drivers\peripheral\scb/cy_scb_common.h **** * The current status of enabled slave interrupt sources.
1394:Generated_Source\PSoC6\pdl\drivers\peripheral\scb/cy_scb_common.h **** * See \ref group_scb_common_macros_slave_intr for the set of constants.
1395:Generated_Source\PSoC6\pdl\drivers\peripheral\scb/cy_scb_common.h **** *
1396:Generated_Source\PSoC6\pdl\drivers\peripheral\scb/cy_scb_common.h **** *******************************************************************************/
1397:Generated_Source\PSoC6\pdl\drivers\peripheral\scb/cy_scb_common.h **** __STATIC_INLINE uint32_t Cy_SCB_GetSlaveInterruptStatusMasked(CySCB_Type const *base)
1398:Generated_Source\PSoC6\pdl\drivers\peripheral\scb/cy_scb_common.h **** {
1399:Generated_Source\PSoC6\pdl\drivers\peripheral\scb/cy_scb_common.h ****     return (SCB_INTR_S_MASKED(base));
1400:Generated_Source\PSoC6\pdl\drivers\peripheral\scb/cy_scb_common.h **** }
1401:Generated_Source\PSoC6\pdl\drivers\peripheral\scb/cy_scb_common.h **** 
1402:Generated_Source\PSoC6\pdl\drivers\peripheral\scb/cy_scb_common.h **** 
1403:Generated_Source\PSoC6\pdl\drivers\peripheral\scb/cy_scb_common.h **** /*******************************************************************************
1404:Generated_Source\PSoC6\pdl\drivers\peripheral\scb/cy_scb_common.h **** * Function Name: Cy_SCB_ClearSlaveInterrupt
1405:Generated_Source\PSoC6\pdl\drivers\peripheral\scb/cy_scb_common.h **** ****************************************************************************//**
1406:Generated_Source\PSoC6\pdl\drivers\peripheral\scb/cy_scb_common.h **** *
1407:Generated_Source\PSoC6\pdl\drivers\peripheral\scb/cy_scb_common.h **** * Clears the slave interrupt sources in the interrupt request register.
1408:Generated_Source\PSoC6\pdl\drivers\peripheral\scb/cy_scb_common.h **** *
1409:Generated_Source\PSoC6\pdl\drivers\peripheral\scb/cy_scb_common.h **** * \param base
1410:Generated_Source\PSoC6\pdl\drivers\peripheral\scb/cy_scb_common.h **** * The pointer to the SCB instance.
1411:Generated_Source\PSoC6\pdl\drivers\peripheral\scb/cy_scb_common.h **** *
1412:Generated_Source\PSoC6\pdl\drivers\peripheral\scb/cy_scb_common.h **** * \param interruptMask
1413:Generated_Source\PSoC6\pdl\drivers\peripheral\scb/cy_scb_common.h **** * Slave interrupt sources to be cleared.
1414:Generated_Source\PSoC6\pdl\drivers\peripheral\scb/cy_scb_common.h **** * See \ref group_scb_common_macros_slave_intr for the set of constants.
1415:Generated_Source\PSoC6\pdl\drivers\peripheral\scb/cy_scb_common.h **** *
1416:Generated_Source\PSoC6\pdl\drivers\peripheral\scb/cy_scb_common.h **** *******************************************************************************/
1417:Generated_Source\PSoC6\pdl\drivers\peripheral\scb/cy_scb_common.h **** __STATIC_INLINE void Cy_SCB_ClearSlaveInterrupt(CySCB_Type *base, uint32_t interruptMask)
1418:Generated_Source\PSoC6\pdl\drivers\peripheral\scb/cy_scb_common.h **** {
1419:Generated_Source\PSoC6\pdl\drivers\peripheral\scb/cy_scb_common.h ****     CY_ASSERT_L2(CY_SCB_IS_INTR_VALID(interruptMask, CY_SCB_SLAVE_INTR_MASK));
1420:Generated_Source\PSoC6\pdl\drivers\peripheral\scb/cy_scb_common.h **** 
1421:Generated_Source\PSoC6\pdl\drivers\peripheral\scb/cy_scb_common.h ****     SCB_INTR_S(base) = interruptMask;
1422:Generated_Source\PSoC6\pdl\drivers\peripheral\scb/cy_scb_common.h ****     (void) SCB_INTR_S(base);
1423:Generated_Source\PSoC6\pdl\drivers\peripheral\scb/cy_scb_common.h **** }
1424:Generated_Source\PSoC6\pdl\drivers\peripheral\scb/cy_scb_common.h **** 
1425:Generated_Source\PSoC6\pdl\drivers\peripheral\scb/cy_scb_common.h **** 
1426:Generated_Source\PSoC6\pdl\drivers\peripheral\scb/cy_scb_common.h **** /*******************************************************************************
1427:Generated_Source\PSoC6\pdl\drivers\peripheral\scb/cy_scb_common.h **** * Function Name: Cy_SCB_SetSlaveInterrupt
1428:Generated_Source\PSoC6\pdl\drivers\peripheral\scb/cy_scb_common.h **** ****************************************************************************//**
1429:Generated_Source\PSoC6\pdl\drivers\peripheral\scb/cy_scb_common.h **** *
1430:Generated_Source\PSoC6\pdl\drivers\peripheral\scb/cy_scb_common.h **** * Sets slave interrupt sources in the interrupt request register.
1431:Generated_Source\PSoC6\pdl\drivers\peripheral\scb/cy_scb_common.h **** *
1432:Generated_Source\PSoC6\pdl\drivers\peripheral\scb/cy_scb_common.h **** * \param base
1433:Generated_Source\PSoC6\pdl\drivers\peripheral\scb/cy_scb_common.h **** * The pointer to the SCB instance.
1434:Generated_Source\PSoC6\pdl\drivers\peripheral\scb/cy_scb_common.h **** *
1435:Generated_Source\PSoC6\pdl\drivers\peripheral\scb/cy_scb_common.h **** * \param interruptMask
1436:Generated_Source\PSoC6\pdl\drivers\peripheral\scb/cy_scb_common.h **** * The slave interrupt sources to set in the slave interrupt request register
ARM GAS  C:\Users\pearlstl\AppData\Local\Temp\ccAUXqAU.s 			page 75


1437:Generated_Source\PSoC6\pdl\drivers\peripheral\scb/cy_scb_common.h **** * See \ref group_scb_common_macros_slave_intr for the set of constants.
1438:Generated_Source\PSoC6\pdl\drivers\peripheral\scb/cy_scb_common.h **** *
1439:Generated_Source\PSoC6\pdl\drivers\peripheral\scb/cy_scb_common.h **** *******************************************************************************/
1440:Generated_Source\PSoC6\pdl\drivers\peripheral\scb/cy_scb_common.h **** __STATIC_INLINE void Cy_SCB_SetSlaveInterrupt(CySCB_Type *base, uint32_t interruptMask)
1441:Generated_Source\PSoC6\pdl\drivers\peripheral\scb/cy_scb_common.h **** {
1442:Generated_Source\PSoC6\pdl\drivers\peripheral\scb/cy_scb_common.h ****     CY_ASSERT_L2(CY_SCB_IS_INTR_VALID(interruptMask, CY_SCB_SLAVE_INTR_MASK));
1443:Generated_Source\PSoC6\pdl\drivers\peripheral\scb/cy_scb_common.h **** 
1444:Generated_Source\PSoC6\pdl\drivers\peripheral\scb/cy_scb_common.h ****     SCB_INTR_S_SET(base) = interruptMask;
1445:Generated_Source\PSoC6\pdl\drivers\peripheral\scb/cy_scb_common.h **** }
1446:Generated_Source\PSoC6\pdl\drivers\peripheral\scb/cy_scb_common.h **** 
1447:Generated_Source\PSoC6\pdl\drivers\peripheral\scb/cy_scb_common.h **** 
1448:Generated_Source\PSoC6\pdl\drivers\peripheral\scb/cy_scb_common.h **** /*******************************************************************************
1449:Generated_Source\PSoC6\pdl\drivers\peripheral\scb/cy_scb_common.h **** * Function Name: Cy_SCB_GetI2CInterruptStatus
1450:Generated_Source\PSoC6\pdl\drivers\peripheral\scb/cy_scb_common.h **** ****************************************************************************//**
1451:Generated_Source\PSoC6\pdl\drivers\peripheral\scb/cy_scb_common.h **** *
1452:Generated_Source\PSoC6\pdl\drivers\peripheral\scb/cy_scb_common.h **** * Returns the I2C interrupt request register. This register contains the
1453:Generated_Source\PSoC6\pdl\drivers\peripheral\scb/cy_scb_common.h **** * current status of the I2C interrupt sources.
1454:Generated_Source\PSoC6\pdl\drivers\peripheral\scb/cy_scb_common.h **** *
1455:Generated_Source\PSoC6\pdl\drivers\peripheral\scb/cy_scb_common.h **** * \param base
1456:Generated_Source\PSoC6\pdl\drivers\peripheral\scb/cy_scb_common.h **** * The pointer to the SCB instance.
1457:Generated_Source\PSoC6\pdl\drivers\peripheral\scb/cy_scb_common.h **** *
1458:Generated_Source\PSoC6\pdl\drivers\peripheral\scb/cy_scb_common.h **** * \return
1459:Generated_Source\PSoC6\pdl\drivers\peripheral\scb/cy_scb_common.h **** * The current status of the I2C interrupt sources. Each constant is a bit
1460:Generated_Source\PSoC6\pdl\drivers\peripheral\scb/cy_scb_common.h **** * field value.
1461:Generated_Source\PSoC6\pdl\drivers\peripheral\scb/cy_scb_common.h **** * The value returned may have multiple bits set to indicate the current status.
1462:Generated_Source\PSoC6\pdl\drivers\peripheral\scb/cy_scb_common.h **** * See \ref group_scb_common_macros_slave_intr for the set of constants.
1463:Generated_Source\PSoC6\pdl\drivers\peripheral\scb/cy_scb_common.h **** *
1464:Generated_Source\PSoC6\pdl\drivers\peripheral\scb/cy_scb_common.h **** *******************************************************************************/
1465:Generated_Source\PSoC6\pdl\drivers\peripheral\scb/cy_scb_common.h **** __STATIC_INLINE uint32_t Cy_SCB_GetI2CInterruptStatus(CySCB_Type const *base)
1466:Generated_Source\PSoC6\pdl\drivers\peripheral\scb/cy_scb_common.h **** {
1467:Generated_Source\PSoC6\pdl\drivers\peripheral\scb/cy_scb_common.h ****     return (SCB_INTR_I2C_EC(base) & CY_SCB_I2C_INTR_MASK);
1468:Generated_Source\PSoC6\pdl\drivers\peripheral\scb/cy_scb_common.h **** }
1469:Generated_Source\PSoC6\pdl\drivers\peripheral\scb/cy_scb_common.h **** 
1470:Generated_Source\PSoC6\pdl\drivers\peripheral\scb/cy_scb_common.h **** 
1471:Generated_Source\PSoC6\pdl\drivers\peripheral\scb/cy_scb_common.h **** /*******************************************************************************
1472:Generated_Source\PSoC6\pdl\drivers\peripheral\scb/cy_scb_common.h **** * Function Name: Cy_SCB_SetI2CInterruptMask
1473:Generated_Source\PSoC6\pdl\drivers\peripheral\scb/cy_scb_common.h **** ****************************************************************************//**
1474:Generated_Source\PSoC6\pdl\drivers\peripheral\scb/cy_scb_common.h **** *
1475:Generated_Source\PSoC6\pdl\drivers\peripheral\scb/cy_scb_common.h **** * Writes the I2C interrupt mask register. This register specifies which bits
1476:Generated_Source\PSoC6\pdl\drivers\peripheral\scb/cy_scb_common.h **** * from the I2C interrupt request register can trigger an interrupt event.
1477:Generated_Source\PSoC6\pdl\drivers\peripheral\scb/cy_scb_common.h **** *
1478:Generated_Source\PSoC6\pdl\drivers\peripheral\scb/cy_scb_common.h **** * \param base
1479:Generated_Source\PSoC6\pdl\drivers\peripheral\scb/cy_scb_common.h **** * The pointer to the SCB instance.
1480:Generated_Source\PSoC6\pdl\drivers\peripheral\scb/cy_scb_common.h **** *
1481:Generated_Source\PSoC6\pdl\drivers\peripheral\scb/cy_scb_common.h **** * \param interruptMask
1482:Generated_Source\PSoC6\pdl\drivers\peripheral\scb/cy_scb_common.h **** * Enabled I2C interrupt sources.
1483:Generated_Source\PSoC6\pdl\drivers\peripheral\scb/cy_scb_common.h **** * See \ref group_scb_common_macros_i2c_intr for the set of constants.
1484:Generated_Source\PSoC6\pdl\drivers\peripheral\scb/cy_scb_common.h **** *
1485:Generated_Source\PSoC6\pdl\drivers\peripheral\scb/cy_scb_common.h **** *******************************************************************************/
1486:Generated_Source\PSoC6\pdl\drivers\peripheral\scb/cy_scb_common.h **** __STATIC_INLINE void Cy_SCB_SetI2CInterruptMask(CySCB_Type *base, uint32_t interruptMask)
1487:Generated_Source\PSoC6\pdl\drivers\peripheral\scb/cy_scb_common.h **** {
1488:Generated_Source\PSoC6\pdl\drivers\peripheral\scb/cy_scb_common.h ****     CY_ASSERT_L2(CY_SCB_IS_INTR_VALID(interruptMask, CY_SCB_I2C_INTR_MASK));
1489:Generated_Source\PSoC6\pdl\drivers\peripheral\scb/cy_scb_common.h **** 
1490:Generated_Source\PSoC6\pdl\drivers\peripheral\scb/cy_scb_common.h ****     SCB_INTR_I2C_EC_MASK(base) = interruptMask;
1491:Generated_Source\PSoC6\pdl\drivers\peripheral\scb/cy_scb_common.h **** }
1492:Generated_Source\PSoC6\pdl\drivers\peripheral\scb/cy_scb_common.h **** 
1493:Generated_Source\PSoC6\pdl\drivers\peripheral\scb/cy_scb_common.h **** 
ARM GAS  C:\Users\pearlstl\AppData\Local\Temp\ccAUXqAU.s 			page 76


1494:Generated_Source\PSoC6\pdl\drivers\peripheral\scb/cy_scb_common.h **** /*******************************************************************************
1495:Generated_Source\PSoC6\pdl\drivers\peripheral\scb/cy_scb_common.h **** * Function Name: Cy_SCB_GetI2CInterruptMask
1496:Generated_Source\PSoC6\pdl\drivers\peripheral\scb/cy_scb_common.h **** ****************************************************************************//**
1497:Generated_Source\PSoC6\pdl\drivers\peripheral\scb/cy_scb_common.h **** *
1498:Generated_Source\PSoC6\pdl\drivers\peripheral\scb/cy_scb_common.h **** * Returns the I2C interrupt mask register. This register specifies which bits
1499:Generated_Source\PSoC6\pdl\drivers\peripheral\scb/cy_scb_common.h **** * from the I2C interrupt request register can trigger an interrupt event.
1500:Generated_Source\PSoC6\pdl\drivers\peripheral\scb/cy_scb_common.h **** *
1501:Generated_Source\PSoC6\pdl\drivers\peripheral\scb/cy_scb_common.h **** * \param base
1502:Generated_Source\PSoC6\pdl\drivers\peripheral\scb/cy_scb_common.h **** * The pointer to the SCB instance.
1503:Generated_Source\PSoC6\pdl\drivers\peripheral\scb/cy_scb_common.h **** *
1504:Generated_Source\PSoC6\pdl\drivers\peripheral\scb/cy_scb_common.h **** * \return
1505:Generated_Source\PSoC6\pdl\drivers\peripheral\scb/cy_scb_common.h **** * Enabled I2C interrupt sources.
1506:Generated_Source\PSoC6\pdl\drivers\peripheral\scb/cy_scb_common.h **** * See \ref group_scb_common_macros_i2c_intr.
1507:Generated_Source\PSoC6\pdl\drivers\peripheral\scb/cy_scb_common.h **** *
1508:Generated_Source\PSoC6\pdl\drivers\peripheral\scb/cy_scb_common.h **** *******************************************************************************/
1509:Generated_Source\PSoC6\pdl\drivers\peripheral\scb/cy_scb_common.h **** __STATIC_INLINE uint32_t Cy_SCB_GetI2CInterruptMask(CySCB_Type const *base)
1510:Generated_Source\PSoC6\pdl\drivers\peripheral\scb/cy_scb_common.h **** {
1511:Generated_Source\PSoC6\pdl\drivers\peripheral\scb/cy_scb_common.h ****     return (SCB_INTR_I2C_EC_MASK(base));
1512:Generated_Source\PSoC6\pdl\drivers\peripheral\scb/cy_scb_common.h **** }
1513:Generated_Source\PSoC6\pdl\drivers\peripheral\scb/cy_scb_common.h **** 
1514:Generated_Source\PSoC6\pdl\drivers\peripheral\scb/cy_scb_common.h **** 
1515:Generated_Source\PSoC6\pdl\drivers\peripheral\scb/cy_scb_common.h **** /*******************************************************************************
1516:Generated_Source\PSoC6\pdl\drivers\peripheral\scb/cy_scb_common.h **** * Function Name: Cy_SCB_GetI2CInterruptStatusMasked
1517:Generated_Source\PSoC6\pdl\drivers\peripheral\scb/cy_scb_common.h **** ****************************************************************************//**
1518:Generated_Source\PSoC6\pdl\drivers\peripheral\scb/cy_scb_common.h **** *
1519:Generated_Source\PSoC6\pdl\drivers\peripheral\scb/cy_scb_common.h **** * Returns the I2C interrupt masked request register. This register contains
1520:Generated_Source\PSoC6\pdl\drivers\peripheral\scb/cy_scb_common.h **** * a logical AND of corresponding bits from I2C interrupt request and mask
1521:Generated_Source\PSoC6\pdl\drivers\peripheral\scb/cy_scb_common.h **** * registers.
1522:Generated_Source\PSoC6\pdl\drivers\peripheral\scb/cy_scb_common.h **** * This function is intended to be used in the interrupt service routine to
1523:Generated_Source\PSoC6\pdl\drivers\peripheral\scb/cy_scb_common.h **** * identify which of enabled I2C interrupt sources caused the interrupt event.
1524:Generated_Source\PSoC6\pdl\drivers\peripheral\scb/cy_scb_common.h **** *
1525:Generated_Source\PSoC6\pdl\drivers\peripheral\scb/cy_scb_common.h **** * \param base
1526:Generated_Source\PSoC6\pdl\drivers\peripheral\scb/cy_scb_common.h **** * The pointer to the SCB instance.
1527:Generated_Source\PSoC6\pdl\drivers\peripheral\scb/cy_scb_common.h **** *
1528:Generated_Source\PSoC6\pdl\drivers\peripheral\scb/cy_scb_common.h **** * \return
1529:Generated_Source\PSoC6\pdl\drivers\peripheral\scb/cy_scb_common.h **** * The current status of enabled I2C interrupt sources.
1530:Generated_Source\PSoC6\pdl\drivers\peripheral\scb/cy_scb_common.h **** * See \ref group_scb_common_macros_i2c_intr for the set of constants.
1531:Generated_Source\PSoC6\pdl\drivers\peripheral\scb/cy_scb_common.h **** *
1532:Generated_Source\PSoC6\pdl\drivers\peripheral\scb/cy_scb_common.h **** *******************************************************************************/
1533:Generated_Source\PSoC6\pdl\drivers\peripheral\scb/cy_scb_common.h **** __STATIC_INLINE uint32_t Cy_SCB_GetI2CInterruptStatusMasked(CySCB_Type const *base)
1534:Generated_Source\PSoC6\pdl\drivers\peripheral\scb/cy_scb_common.h **** {
1535:Generated_Source\PSoC6\pdl\drivers\peripheral\scb/cy_scb_common.h ****     return (SCB_INTR_I2C_EC_MASKED(base));
1536:Generated_Source\PSoC6\pdl\drivers\peripheral\scb/cy_scb_common.h **** }
1537:Generated_Source\PSoC6\pdl\drivers\peripheral\scb/cy_scb_common.h **** 
1538:Generated_Source\PSoC6\pdl\drivers\peripheral\scb/cy_scb_common.h **** 
1539:Generated_Source\PSoC6\pdl\drivers\peripheral\scb/cy_scb_common.h **** /*******************************************************************************
1540:Generated_Source\PSoC6\pdl\drivers\peripheral\scb/cy_scb_common.h **** * Function Name: Cy_SCB_ClearI2CInterrupt
1541:Generated_Source\PSoC6\pdl\drivers\peripheral\scb/cy_scb_common.h **** ****************************************************************************//**
1542:Generated_Source\PSoC6\pdl\drivers\peripheral\scb/cy_scb_common.h **** *
1543:Generated_Source\PSoC6\pdl\drivers\peripheral\scb/cy_scb_common.h **** * Clears I2C interrupt sources in the interrupt request register.
1544:Generated_Source\PSoC6\pdl\drivers\peripheral\scb/cy_scb_common.h **** *
1545:Generated_Source\PSoC6\pdl\drivers\peripheral\scb/cy_scb_common.h **** * \param base
1546:Generated_Source\PSoC6\pdl\drivers\peripheral\scb/cy_scb_common.h **** * The pointer to the SCB instance.
1547:Generated_Source\PSoC6\pdl\drivers\peripheral\scb/cy_scb_common.h **** *
1548:Generated_Source\PSoC6\pdl\drivers\peripheral\scb/cy_scb_common.h **** * \param interruptMask
1549:Generated_Source\PSoC6\pdl\drivers\peripheral\scb/cy_scb_common.h **** * The I2C interrupt sources to be cleared.
1550:Generated_Source\PSoC6\pdl\drivers\peripheral\scb/cy_scb_common.h **** * See \ref group_scb_common_macros_i2c_intr for the set of constants.
ARM GAS  C:\Users\pearlstl\AppData\Local\Temp\ccAUXqAU.s 			page 77


1551:Generated_Source\PSoC6\pdl\drivers\peripheral\scb/cy_scb_common.h **** *
1552:Generated_Source\PSoC6\pdl\drivers\peripheral\scb/cy_scb_common.h **** *******************************************************************************/
1553:Generated_Source\PSoC6\pdl\drivers\peripheral\scb/cy_scb_common.h **** __STATIC_INLINE void Cy_SCB_ClearI2CInterrupt(CySCB_Type *base, uint32_t interruptMask)
1554:Generated_Source\PSoC6\pdl\drivers\peripheral\scb/cy_scb_common.h **** {
1555:Generated_Source\PSoC6\pdl\drivers\peripheral\scb/cy_scb_common.h ****     CY_ASSERT_L2(CY_SCB_IS_INTR_VALID(interruptMask, CY_SCB_I2C_INTR_MASK));
1556:Generated_Source\PSoC6\pdl\drivers\peripheral\scb/cy_scb_common.h **** 
1557:Generated_Source\PSoC6\pdl\drivers\peripheral\scb/cy_scb_common.h ****     SCB_INTR_I2C_EC(base) = interruptMask;
1558:Generated_Source\PSoC6\pdl\drivers\peripheral\scb/cy_scb_common.h ****     (void) SCB_INTR_I2C_EC(base);
1559:Generated_Source\PSoC6\pdl\drivers\peripheral\scb/cy_scb_common.h **** }
1560:Generated_Source\PSoC6\pdl\drivers\peripheral\scb/cy_scb_common.h **** 
1561:Generated_Source\PSoC6\pdl\drivers\peripheral\scb/cy_scb_common.h **** 
1562:Generated_Source\PSoC6\pdl\drivers\peripheral\scb/cy_scb_common.h **** /*******************************************************************************
1563:Generated_Source\PSoC6\pdl\drivers\peripheral\scb/cy_scb_common.h **** * Function Name: Cy_SCB_GetSpiInterruptStatus
1564:Generated_Source\PSoC6\pdl\drivers\peripheral\scb/cy_scb_common.h **** ****************************************************************************//**
1565:Generated_Source\PSoC6\pdl\drivers\peripheral\scb/cy_scb_common.h **** *
1566:Generated_Source\PSoC6\pdl\drivers\peripheral\scb/cy_scb_common.h **** * Returns the SPI interrupt request register. This register contains the current
1567:Generated_Source\PSoC6\pdl\drivers\peripheral\scb/cy_scb_common.h **** * status of the SPI interrupt sources.
1568:Generated_Source\PSoC6\pdl\drivers\peripheral\scb/cy_scb_common.h **** *
1569:Generated_Source\PSoC6\pdl\drivers\peripheral\scb/cy_scb_common.h **** * \param base
1570:Generated_Source\PSoC6\pdl\drivers\peripheral\scb/cy_scb_common.h **** * The pointer to the SCB instance.
1571:Generated_Source\PSoC6\pdl\drivers\peripheral\scb/cy_scb_common.h **** *
1572:Generated_Source\PSoC6\pdl\drivers\peripheral\scb/cy_scb_common.h **** * \return
1573:Generated_Source\PSoC6\pdl\drivers\peripheral\scb/cy_scb_common.h **** * The current status of SPI interrupt sources. Each constant is a bit field value.
1574:Generated_Source\PSoC6\pdl\drivers\peripheral\scb/cy_scb_common.h **** * The value returned may have multiple bits set to indicate the current status
1575:Generated_Source\PSoC6\pdl\drivers\peripheral\scb/cy_scb_common.h **** * See \ref group_scb_common_macros_SpiIntrStatuses for the set of constants.
1576:Generated_Source\PSoC6\pdl\drivers\peripheral\scb/cy_scb_common.h **** *
1577:Generated_Source\PSoC6\pdl\drivers\peripheral\scb/cy_scb_common.h **** *******************************************************************************/
1578:Generated_Source\PSoC6\pdl\drivers\peripheral\scb/cy_scb_common.h **** __STATIC_INLINE uint32_t Cy_SCB_GetSpiInterruptStatus(CySCB_Type const *base)
1579:Generated_Source\PSoC6\pdl\drivers\peripheral\scb/cy_scb_common.h **** {
1580:Generated_Source\PSoC6\pdl\drivers\peripheral\scb/cy_scb_common.h ****     return (SCB_INTR_SPI_EC(base) & CY_SCB_SPI_INTR_MASK);
1581:Generated_Source\PSoC6\pdl\drivers\peripheral\scb/cy_scb_common.h **** }
1582:Generated_Source\PSoC6\pdl\drivers\peripheral\scb/cy_scb_common.h **** 
1583:Generated_Source\PSoC6\pdl\drivers\peripheral\scb/cy_scb_common.h **** 
1584:Generated_Source\PSoC6\pdl\drivers\peripheral\scb/cy_scb_common.h **** /*******************************************************************************
1585:Generated_Source\PSoC6\pdl\drivers\peripheral\scb/cy_scb_common.h **** * Function Name: Cy_SCB_SetSpiInterruptMask
1586:Generated_Source\PSoC6\pdl\drivers\peripheral\scb/cy_scb_common.h **** ****************************************************************************//**
1587:Generated_Source\PSoC6\pdl\drivers\peripheral\scb/cy_scb_common.h **** *
1588:Generated_Source\PSoC6\pdl\drivers\peripheral\scb/cy_scb_common.h **** * Writes the SPI interrupt mask register. This register specifies which
1589:Generated_Source\PSoC6\pdl\drivers\peripheral\scb/cy_scb_common.h **** * bits from the SPI interrupt request register can trigger an interrupt event.
1590:Generated_Source\PSoC6\pdl\drivers\peripheral\scb/cy_scb_common.h **** *
1591:Generated_Source\PSoC6\pdl\drivers\peripheral\scb/cy_scb_common.h **** * \param base
1592:Generated_Source\PSoC6\pdl\drivers\peripheral\scb/cy_scb_common.h **** * The pointer to the SCB instance.
1593:Generated_Source\PSoC6\pdl\drivers\peripheral\scb/cy_scb_common.h **** *
1594:Generated_Source\PSoC6\pdl\drivers\peripheral\scb/cy_scb_common.h **** * \param interruptMask
1595:Generated_Source\PSoC6\pdl\drivers\peripheral\scb/cy_scb_common.h **** * Enabled SPI interrupt sources.
1596:Generated_Source\PSoC6\pdl\drivers\peripheral\scb/cy_scb_common.h **** * See \ref group_scb_common_macros_SpiIntrStatuses for the set of constants.
1597:Generated_Source\PSoC6\pdl\drivers\peripheral\scb/cy_scb_common.h **** *
1598:Generated_Source\PSoC6\pdl\drivers\peripheral\scb/cy_scb_common.h **** *******************************************************************************/
1599:Generated_Source\PSoC6\pdl\drivers\peripheral\scb/cy_scb_common.h **** __STATIC_INLINE void Cy_SCB_SetSpiInterruptMask(CySCB_Type *base, uint32_t interruptMask)
1600:Generated_Source\PSoC6\pdl\drivers\peripheral\scb/cy_scb_common.h **** {
1601:Generated_Source\PSoC6\pdl\drivers\peripheral\scb/cy_scb_common.h ****     CY_ASSERT_L2(CY_SCB_IS_INTR_VALID(interruptMask, CY_SCB_SPI_INTR_MASK));
1602:Generated_Source\PSoC6\pdl\drivers\peripheral\scb/cy_scb_common.h **** 
1603:Generated_Source\PSoC6\pdl\drivers\peripheral\scb/cy_scb_common.h ****     SCB_INTR_SPI_EC_MASK(base) = interruptMask;
1604:Generated_Source\PSoC6\pdl\drivers\peripheral\scb/cy_scb_common.h **** }
1605:Generated_Source\PSoC6\pdl\drivers\peripheral\scb/cy_scb_common.h **** 
1606:Generated_Source\PSoC6\pdl\drivers\peripheral\scb/cy_scb_common.h **** 
1607:Generated_Source\PSoC6\pdl\drivers\peripheral\scb/cy_scb_common.h **** /*******************************************************************************
ARM GAS  C:\Users\pearlstl\AppData\Local\Temp\ccAUXqAU.s 			page 78


1608:Generated_Source\PSoC6\pdl\drivers\peripheral\scb/cy_scb_common.h **** * Function Name: Cy_SCB_GetSpiInterruptMask
1609:Generated_Source\PSoC6\pdl\drivers\peripheral\scb/cy_scb_common.h **** ****************************************************************************//**
1610:Generated_Source\PSoC6\pdl\drivers\peripheral\scb/cy_scb_common.h **** *
1611:Generated_Source\PSoC6\pdl\drivers\peripheral\scb/cy_scb_common.h **** * Returns the SPI interrupt mask register. This register specifies which bits
1612:Generated_Source\PSoC6\pdl\drivers\peripheral\scb/cy_scb_common.h **** * from the SPI interrupt request register can trigger an interrupt event.
1613:Generated_Source\PSoC6\pdl\drivers\peripheral\scb/cy_scb_common.h **** *
1614:Generated_Source\PSoC6\pdl\drivers\peripheral\scb/cy_scb_common.h **** * \param base
1615:Generated_Source\PSoC6\pdl\drivers\peripheral\scb/cy_scb_common.h **** * The pointer to the SCB instance.
1616:Generated_Source\PSoC6\pdl\drivers\peripheral\scb/cy_scb_common.h **** *
1617:Generated_Source\PSoC6\pdl\drivers\peripheral\scb/cy_scb_common.h **** * \return
1618:Generated_Source\PSoC6\pdl\drivers\peripheral\scb/cy_scb_common.h **** * Enabled SPI interrupt sources.
1619:Generated_Source\PSoC6\pdl\drivers\peripheral\scb/cy_scb_common.h **** * See \ref group_scb_common_macros_SpiIntrStatuses for the set of constants.
1620:Generated_Source\PSoC6\pdl\drivers\peripheral\scb/cy_scb_common.h **** *
1621:Generated_Source\PSoC6\pdl\drivers\peripheral\scb/cy_scb_common.h **** *******************************************************************************/
1622:Generated_Source\PSoC6\pdl\drivers\peripheral\scb/cy_scb_common.h **** __STATIC_INLINE uint32_t Cy_SCB_GetSpiInterruptMask(CySCB_Type const *base)
1623:Generated_Source\PSoC6\pdl\drivers\peripheral\scb/cy_scb_common.h **** {
1624:Generated_Source\PSoC6\pdl\drivers\peripheral\scb/cy_scb_common.h ****     return (SCB_INTR_SPI_EC_MASK(base));
1625:Generated_Source\PSoC6\pdl\drivers\peripheral\scb/cy_scb_common.h **** }
1626:Generated_Source\PSoC6\pdl\drivers\peripheral\scb/cy_scb_common.h **** 
1627:Generated_Source\PSoC6\pdl\drivers\peripheral\scb/cy_scb_common.h **** 
1628:Generated_Source\PSoC6\pdl\drivers\peripheral\scb/cy_scb_common.h **** /*******************************************************************************
1629:Generated_Source\PSoC6\pdl\drivers\peripheral\scb/cy_scb_common.h **** * Function Name: Cy_SCB_GetSpiInterruptStatusMasked
1630:Generated_Source\PSoC6\pdl\drivers\peripheral\scb/cy_scb_common.h **** ****************************************************************************//**
1631:Generated_Source\PSoC6\pdl\drivers\peripheral\scb/cy_scb_common.h **** *
1632:Generated_Source\PSoC6\pdl\drivers\peripheral\scb/cy_scb_common.h **** * Returns the SPI interrupt masked request register. This register contains
1633:Generated_Source\PSoC6\pdl\drivers\peripheral\scb/cy_scb_common.h **** * a logical AND of corresponding bits from the SPI interrupt request and
1634:Generated_Source\PSoC6\pdl\drivers\peripheral\scb/cy_scb_common.h **** * mask registers.
1635:Generated_Source\PSoC6\pdl\drivers\peripheral\scb/cy_scb_common.h **** * This function is intended to be used in the interrupt service routine to
1636:Generated_Source\PSoC6\pdl\drivers\peripheral\scb/cy_scb_common.h **** * identify which of enabled SPI interrupt sources caused the interrupt event.
1637:Generated_Source\PSoC6\pdl\drivers\peripheral\scb/cy_scb_common.h **** *
1638:Generated_Source\PSoC6\pdl\drivers\peripheral\scb/cy_scb_common.h **** * \param base
1639:Generated_Source\PSoC6\pdl\drivers\peripheral\scb/cy_scb_common.h **** * The pointer to the SCB instance.
1640:Generated_Source\PSoC6\pdl\drivers\peripheral\scb/cy_scb_common.h **** *
1641:Generated_Source\PSoC6\pdl\drivers\peripheral\scb/cy_scb_common.h **** * \return
1642:Generated_Source\PSoC6\pdl\drivers\peripheral\scb/cy_scb_common.h **** * The current status of enabled SPI interrupt sources.
1643:Generated_Source\PSoC6\pdl\drivers\peripheral\scb/cy_scb_common.h **** * See \ref group_scb_common_macros_SpiIntrStatuses for the set of constants.
1644:Generated_Source\PSoC6\pdl\drivers\peripheral\scb/cy_scb_common.h **** *
1645:Generated_Source\PSoC6\pdl\drivers\peripheral\scb/cy_scb_common.h **** *******************************************************************************/
1646:Generated_Source\PSoC6\pdl\drivers\peripheral\scb/cy_scb_common.h **** __STATIC_INLINE uint32_t Cy_SCB_GetSpiInterruptStatusMasked(CySCB_Type const *base)
1647:Generated_Source\PSoC6\pdl\drivers\peripheral\scb/cy_scb_common.h **** {
1648:Generated_Source\PSoC6\pdl\drivers\peripheral\scb/cy_scb_common.h ****     return (SCB_INTR_SPI_EC_MASKED(base));
1649:Generated_Source\PSoC6\pdl\drivers\peripheral\scb/cy_scb_common.h **** }
1650:Generated_Source\PSoC6\pdl\drivers\peripheral\scb/cy_scb_common.h **** 
1651:Generated_Source\PSoC6\pdl\drivers\peripheral\scb/cy_scb_common.h **** 
1652:Generated_Source\PSoC6\pdl\drivers\peripheral\scb/cy_scb_common.h **** /*******************************************************************************
1653:Generated_Source\PSoC6\pdl\drivers\peripheral\scb/cy_scb_common.h **** * Function Name: Cy_SCB_ClearSpiInterrupt
1654:Generated_Source\PSoC6\pdl\drivers\peripheral\scb/cy_scb_common.h **** ****************************************************************************//**
1655:Generated_Source\PSoC6\pdl\drivers\peripheral\scb/cy_scb_common.h **** *
1656:Generated_Source\PSoC6\pdl\drivers\peripheral\scb/cy_scb_common.h **** * Clears SPI interrupt sources in the interrupt request register.
1657:Generated_Source\PSoC6\pdl\drivers\peripheral\scb/cy_scb_common.h **** *
1658:Generated_Source\PSoC6\pdl\drivers\peripheral\scb/cy_scb_common.h **** * \param base
1659:Generated_Source\PSoC6\pdl\drivers\peripheral\scb/cy_scb_common.h **** * The pointer to the SCB instance.
1660:Generated_Source\PSoC6\pdl\drivers\peripheral\scb/cy_scb_common.h **** *
1661:Generated_Source\PSoC6\pdl\drivers\peripheral\scb/cy_scb_common.h **** * \param interruptMask
1662:Generated_Source\PSoC6\pdl\drivers\peripheral\scb/cy_scb_common.h **** * The SPI interrupt sources to be cleared.
1663:Generated_Source\PSoC6\pdl\drivers\peripheral\scb/cy_scb_common.h **** * See \ref group_scb_common_macros_SpiIntrStatuses for the set of constants.
1664:Generated_Source\PSoC6\pdl\drivers\peripheral\scb/cy_scb_common.h **** *
ARM GAS  C:\Users\pearlstl\AppData\Local\Temp\ccAUXqAU.s 			page 79


1665:Generated_Source\PSoC6\pdl\drivers\peripheral\scb/cy_scb_common.h **** *******************************************************************************/
1666:Generated_Source\PSoC6\pdl\drivers\peripheral\scb/cy_scb_common.h **** __STATIC_INLINE void Cy_SCB_ClearSpiInterrupt(CySCB_Type *base, uint32_t interruptMask)
1667:Generated_Source\PSoC6\pdl\drivers\peripheral\scb/cy_scb_common.h **** {
1668:Generated_Source\PSoC6\pdl\drivers\peripheral\scb/cy_scb_common.h ****     CY_ASSERT_L2(CY_SCB_IS_INTR_VALID(interruptMask, CY_SCB_SPI_INTR_MASK));
1669:Generated_Source\PSoC6\pdl\drivers\peripheral\scb/cy_scb_common.h **** 
1670:Generated_Source\PSoC6\pdl\drivers\peripheral\scb/cy_scb_common.h ****     SCB_INTR_SPI_EC(base) = interruptMask;
1671:Generated_Source\PSoC6\pdl\drivers\peripheral\scb/cy_scb_common.h ****     (void) SCB_INTR_SPI_EC(base);
1672:Generated_Source\PSoC6\pdl\drivers\peripheral\scb/cy_scb_common.h **** }
1673:Generated_Source\PSoC6\pdl\drivers\peripheral\scb/cy_scb_common.h **** 
1674:Generated_Source\PSoC6\pdl\drivers\peripheral\scb/cy_scb_common.h **** /** \cond INTERNAL */
1675:Generated_Source\PSoC6\pdl\drivers\peripheral\scb/cy_scb_common.h **** /*******************************************************************************
1676:Generated_Source\PSoC6\pdl\drivers\peripheral\scb/cy_scb_common.h **** * Function Name: Cy_SCB_GetFifoSize
1677:Generated_Source\PSoC6\pdl\drivers\peripheral\scb/cy_scb_common.h **** ****************************************************************************//**
1678:Generated_Source\PSoC6\pdl\drivers\peripheral\scb/cy_scb_common.h **** *
1679:Generated_Source\PSoC6\pdl\drivers\peripheral\scb/cy_scb_common.h **** * Returns the RX and TX FIFO depth.
1680:Generated_Source\PSoC6\pdl\drivers\peripheral\scb/cy_scb_common.h **** *
1681:Generated_Source\PSoC6\pdl\drivers\peripheral\scb/cy_scb_common.h **** * \param base
1682:Generated_Source\PSoC6\pdl\drivers\peripheral\scb/cy_scb_common.h **** * The pointer to the SCB instance.
1683:Generated_Source\PSoC6\pdl\drivers\peripheral\scb/cy_scb_common.h **** *
1684:Generated_Source\PSoC6\pdl\drivers\peripheral\scb/cy_scb_common.h **** * \return
1685:Generated_Source\PSoC6\pdl\drivers\peripheral\scb/cy_scb_common.h **** * FIFO depth.
1686:Generated_Source\PSoC6\pdl\drivers\peripheral\scb/cy_scb_common.h **** *
1687:Generated_Source\PSoC6\pdl\drivers\peripheral\scb/cy_scb_common.h **** *******************************************************************************/
1688:Generated_Source\PSoC6\pdl\drivers\peripheral\scb/cy_scb_common.h **** __STATIC_INLINE uint32_t Cy_SCB_GetFifoSize(CySCB_Type const *base)
1689:Generated_Source\PSoC6\pdl\drivers\peripheral\scb/cy_scb_common.h **** {
1690:Generated_Source\PSoC6\pdl\drivers\peripheral\scb/cy_scb_common.h ****     return (_FLD2BOOL(SCB_CTRL_BYTE_MODE, SCB_CTRL(base)) ?
 683              		.loc 2 1690 0 is_stmt 1
 684 000a 0568     		ldr	r5, [r0]
1691:Generated_Source\PSoC6\pdl\drivers\peripheral\scb/cy_scb_common.h ****                 (CY_SCB_FIFO_SIZE) : (CY_SCB_FIFO_SIZE / 2UL));
 685              		.loc 2 1691 0
 686 000c 8024     		movs	r4, #128
 687 000e 2D05     		lsls	r5, r5, #20
 688 0010 00D4     		bmi	.L69
 689 0012 403C     		subs	r4, r4, #64
 690              	.L69:
 691              	.LVL32:
 692              	.LBE176:
 693              	.LBE175:
 453:Generated_Source\PSoC6\pdl\drivers\peripheral\scb/cy_scb_uart.c ****         context->rxRingBufSize = size;
 694              		.loc 1 453 0
 695 0014 9960     		str	r1, [r3, #8]
 455:Generated_Source\PSoC6\pdl\drivers\peripheral\scb/cy_scb_uart.c ****         context->rxRingBufTail = 0UL;
 696              		.loc 1 455 0
 697 0016 0021     		movs	r1, #0
 698              	.LVL33:
 451:Generated_Source\PSoC6\pdl\drivers\peripheral\scb/cy_scb_uart.c **** 
 699              		.loc 1 451 0
 700 0018 6408     		lsrs	r4, r4, #1
 701              	.LVL34:
 455:Generated_Source\PSoC6\pdl\drivers\peripheral\scb/cy_scb_uart.c ****         context->rxRingBufTail = 0UL;
 702              		.loc 1 455 0
 703 001a 1961     		str	r1, [r3, #16]
 454:Generated_Source\PSoC6\pdl\drivers\peripheral\scb/cy_scb_uart.c ****         context->rxRingBufHead = 0UL;
 704              		.loc 1 454 0
 705 001c DA60     		str	r2, [r3, #12]
 456:Generated_Source\PSoC6\pdl\drivers\peripheral\scb/cy_scb_uart.c **** 
 706              		.loc 1 456 0
ARM GAS  C:\Users\pearlstl\AppData\Local\Temp\ccAUXqAU.s 			page 80


 707 001e 5961     		str	r1, [r3, #20]
 459:Generated_Source\PSoC6\pdl\drivers\peripheral\scb/cy_scb_uart.c **** 
 708              		.loc 1 459 0
 709 0020 551E     		subs	r5, r2, #1
 710 0022 A242     		cmp	r2, r4
 711 0024 00D3     		bcc	.L71
 459:Generated_Source\PSoC6\pdl\drivers\peripheral\scb/cy_scb_uart.c **** 
 712              		.loc 1 459 0 is_stmt 0 discriminator 1
 713 0026 651E     		subs	r5, r4, #1
 714              	.L71:
 715              	.LVL35:
 716              	.LBB177:
 717              	.LBB178:
 642:Generated_Source\PSoC6\pdl\drivers\peripheral\scb/cy_scb_common.h **** }
 718              		.loc 2 642 0 is_stmt 1 discriminator 4
 719 0028 C121     		movs	r1, #193
 720 002a FF23     		movs	r3, #255
 721              	.LVL36:
 722 002c 8900     		lsls	r1, r1, #2
 723 002e 4258     		ldr	r2, [r0, r1]
 724              	.LVL37:
 725 0030 9A43     		bics	r2, r3
 726 0032 2B40     		ands	r3, r5
 727 0034 1343     		orrs	r3, r2
 728              	.LBE178:
 729              	.LBE177:
 730              	.LBB180:
 731              	.LBB181:
 924:Generated_Source\PSoC6\pdl\drivers\peripheral\scb/cy_scb_common.h **** }
 732              		.loc 2 924 0 discriminator 4
 733 0036 0122     		movs	r2, #1
 734              	.LBE181:
 735              	.LBE180:
 736              	.LBB183:
 737              	.LBB179:
 642:Generated_Source\PSoC6\pdl\drivers\peripheral\scb/cy_scb_common.h **** }
 738              		.loc 2 642 0 discriminator 4
 739 0038 4350     		str	r3, [r0, r1]
 740              	.LVL38:
 741              	.LBE179:
 742              	.LBE183:
 743              	.LBB184:
 744              	.LBB182:
 924:Generated_Source\PSoC6\pdl\drivers\peripheral\scb/cy_scb_common.h **** }
 745              		.loc 2 924 0 discriminator 4
 746 003a 014B     		ldr	r3, .L79
 747 003c C250     		str	r2, [r0, r3]
 748              	.LVL39:
 749              	.L67:
 750              	.LBE182:
 751              	.LBE184:
 752              	.LBE174:
 463:Generated_Source\PSoC6\pdl\drivers\peripheral\scb/cy_scb_uart.c **** 
 753              		.loc 1 463 0
 754              		@ sp needed
 755 003e 30BD     		pop	{r4, r5, pc}
 756              	.L80:
ARM GAS  C:\Users\pearlstl\AppData\Local\Temp\ccAUXqAU.s 			page 81


 757              		.align	2
 758              	.L79:
 759 0040 C80F0000 		.word	4040
 760              		.cfi_endproc
 761              	.LFE160:
 762              		.size	Cy_SCB_UART_StartRingBuffer, .-Cy_SCB_UART_StartRingBuffer
 763              		.section	.text.Cy_SCB_UART_StopRingBuffer,"ax",%progbits
 764              		.align	1
 765              		.global	Cy_SCB_UART_StopRingBuffer
 766              		.code	16
 767              		.thumb_func
 768              		.type	Cy_SCB_UART_StopRingBuffer, %function
 769              	Cy_SCB_UART_StopRingBuffer:
 770              	.LFB161:
 483:Generated_Source\PSoC6\pdl\drivers\peripheral\scb/cy_scb_uart.c ****     Cy_SCB_SetRxInterruptMask  (base, CY_SCB_CLEAR_ALL_INTR_SRC);
 771              		.loc 1 483 0
 772              		.cfi_startproc
 773              		@ args = 0, pretend = 0, frame = 0
 774              		@ frame_needed = 0, uses_anonymous_args = 0
 775              		@ link register save eliminated.
 776              	.LVL40:
 777              	.LBB185:
 778              	.LBB186:
 924:Generated_Source\PSoC6\pdl\drivers\peripheral\scb/cy_scb_common.h **** }
 779              		.loc 2 924 0
 780 0000 0023     		movs	r3, #0
 781 0002 034A     		ldr	r2, .L82
 782              	.LBE186:
 783              	.LBE185:
 489:Generated_Source\PSoC6\pdl\drivers\peripheral\scb/cy_scb_uart.c **** 
 784              		.loc 1 489 0
 785              		@ sp needed
 786              	.LBB188:
 787              	.LBB187:
 924:Generated_Source\PSoC6\pdl\drivers\peripheral\scb/cy_scb_common.h **** }
 788              		.loc 2 924 0
 789 0004 8350     		str	r3, [r0, r2]
 790              	.LVL41:
 791              	.LBE187:
 792              	.LBE188:
 793              	.LBB189:
 794              	.LBB190:
 557:Generated_Source\PSoC6\pdl\drivers\peripheral\scb/cy_scb_uart.c **** }
 795              		.loc 1 557 0
 796 0006 4A69     		ldr	r2, [r1, #20]
 797              	.LBE190:
 798              	.LBE189:
 487:Generated_Source\PSoC6\pdl\drivers\peripheral\scb/cy_scb_uart.c ****     context->rxRingBufSize = 0UL;
 799              		.loc 1 487 0
 800 0008 8B60     		str	r3, [r1, #8]
 801              	.LBB192:
 802              	.LBB191:
 557:Generated_Source\PSoC6\pdl\drivers\peripheral\scb/cy_scb_uart.c **** }
 803              		.loc 1 557 0
 804 000a 0A61     		str	r2, [r1, #16]
 805              	.LVL42:
 806              	.LBE191:
ARM GAS  C:\Users\pearlstl\AppData\Local\Temp\ccAUXqAU.s 			page 82


 807              	.LBE192:
 488:Generated_Source\PSoC6\pdl\drivers\peripheral\scb/cy_scb_uart.c **** }
 808              		.loc 1 488 0
 809 000c CB60     		str	r3, [r1, #12]
 489:Generated_Source\PSoC6\pdl\drivers\peripheral\scb/cy_scb_uart.c **** 
 810              		.loc 1 489 0
 811 000e 7047     		bx	lr
 812              	.L83:
 813              		.align	2
 814              	.L82:
 815 0010 C80F0000 		.word	4040
 816              		.cfi_endproc
 817              	.LFE161:
 818              		.size	Cy_SCB_UART_StopRingBuffer, .-Cy_SCB_UART_StopRingBuffer
 819              		.section	.text.Cy_SCB_UART_GetNumInRingBuffer,"ax",%progbits
 820              		.align	1
 821              		.global	Cy_SCB_UART_GetNumInRingBuffer
 822              		.code	16
 823              		.thumb_func
 824              		.type	Cy_SCB_UART_GetNumInRingBuffer, %function
 825              	Cy_SCB_UART_GetNumInRingBuffer:
 826              	.LFB162:
 516:Generated_Source\PSoC6\pdl\drivers\peripheral\scb/cy_scb_uart.c ****     uint32_t size;
 827              		.loc 1 516 0
 828              		.cfi_startproc
 829              		@ args = 0, pretend = 0, frame = 0
 830              		@ frame_needed = 0, uses_anonymous_args = 0
 831              		@ link register save eliminated.
 832              	.LVL43:
 518:Generated_Source\PSoC6\pdl\drivers\peripheral\scb/cy_scb_uart.c **** 
 833              		.loc 1 518 0
 834 0000 0869     		ldr	r0, [r1, #16]
 835              	.LVL44:
 523:Generated_Source\PSoC6\pdl\drivers\peripheral\scb/cy_scb_uart.c ****     {
 836              		.loc 1 523 0
 837 0002 4B69     		ldr	r3, [r1, #20]
 838 0004 9842     		cmp	r0, r3
 839 0006 02D3     		bcc	.L85
 525:Generated_Source\PSoC6\pdl\drivers\peripheral\scb/cy_scb_uart.c ****     }
 840              		.loc 1 525 0
 841 0008 4B69     		ldr	r3, [r1, #20]
 842 000a C01A     		subs	r0, r0, r3
 843              	.LVL45:
 844 000c 03E0     		b	.L86
 845              	.LVL46:
 846              	.L85:
 529:Generated_Source\PSoC6\pdl\drivers\peripheral\scb/cy_scb_uart.c ****     }
 847              		.loc 1 529 0
 848 000e CB69     		ldr	r3, [r1, #28]
 849 0010 4A69     		ldr	r2, [r1, #20]
 850 0012 C018     		adds	r0, r0, r3
 851              	.LVL47:
 852 0014 801A     		subs	r0, r0, r2
 853              	.LVL48:
 854              	.L86:
 533:Generated_Source\PSoC6\pdl\drivers\peripheral\scb/cy_scb_uart.c **** 
 855              		.loc 1 533 0
ARM GAS  C:\Users\pearlstl\AppData\Local\Temp\ccAUXqAU.s 			page 83


 856              		@ sp needed
 857 0016 7047     		bx	lr
 858              		.cfi_endproc
 859              	.LFE162:
 860              		.size	Cy_SCB_UART_GetNumInRingBuffer, .-Cy_SCB_UART_GetNumInRingBuffer
 861              		.section	.text.Cy_SCB_UART_ClearRingBuffer,"ax",%progbits
 862              		.align	1
 863              		.global	Cy_SCB_UART_ClearRingBuffer
 864              		.code	16
 865              		.thumb_func
 866              		.type	Cy_SCB_UART_ClearRingBuffer, %function
 867              	Cy_SCB_UART_ClearRingBuffer:
 868              	.LFB163:
 553:Generated_Source\PSoC6\pdl\drivers\peripheral\scb/cy_scb_uart.c ****     /* Suppress a compiler warning about unused variables */
 869              		.loc 1 553 0
 870              		.cfi_startproc
 871              		@ args = 0, pretend = 0, frame = 0
 872              		@ frame_needed = 0, uses_anonymous_args = 0
 873              		@ link register save eliminated.
 874              	.LVL49:
 557:Generated_Source\PSoC6\pdl\drivers\peripheral\scb/cy_scb_uart.c **** }
 875              		.loc 1 557 0
 876 0000 4B69     		ldr	r3, [r1, #20]
 558:Generated_Source\PSoC6\pdl\drivers\peripheral\scb/cy_scb_uart.c **** 
 877              		.loc 1 558 0
 878              		@ sp needed
 557:Generated_Source\PSoC6\pdl\drivers\peripheral\scb/cy_scb_uart.c **** }
 879              		.loc 1 557 0
 880 0002 0B61     		str	r3, [r1, #16]
 558:Generated_Source\PSoC6\pdl\drivers\peripheral\scb/cy_scb_uart.c **** 
 881              		.loc 1 558 0
 882 0004 7047     		bx	lr
 883              		.cfi_endproc
 884              	.LFE163:
 885              		.size	Cy_SCB_UART_ClearRingBuffer, .-Cy_SCB_UART_ClearRingBuffer
 886              		.section	.text.Cy_SCB_UART_Receive,"ax",%progbits
 887              		.align	1
 888              		.global	Cy_SCB_UART_Receive
 889              		.code	16
 890              		.thumb_func
 891              		.type	Cy_SCB_UART_Receive, %function
 892              	Cy_SCB_UART_Receive:
 893              	.LFB164:
 606:Generated_Source\PSoC6\pdl\drivers\peripheral\scb/cy_scb_uart.c ****     CY_ASSERT_L1(NULL != context);
 894              		.loc 1 606 0
 895              		.cfi_startproc
 896              		@ args = 0, pretend = 0, frame = 16
 897              		@ frame_needed = 0, uses_anonymous_args = 0
 898              	.LVL50:
 899 0000 F0B5     		push	{r4, r5, r6, r7, lr}
 900              		.cfi_def_cfa_offset 20
 901              		.cfi_offset 4, -20
 902              		.cfi_offset 5, -16
 903              		.cfi_offset 6, -12
 904              		.cfi_offset 7, -8
 905              		.cfi_offset 14, -4
 906 0002 1600     		movs	r6, r2
ARM GAS  C:\Users\pearlstl\AppData\Local\Temp\ccAUXqAU.s 			page 84


 907 0004 1C00     		movs	r4, r3
 614:Generated_Source\PSoC6\pdl\drivers\peripheral\scb/cy_scb_uart.c ****     {
 908              		.loc 1 614 0
 909 0006 5A68     		ldr	r2, [r3, #4]
 910              	.LVL51:
 911 0008 0123     		movs	r3, #1
 912              	.LVL52:
 606:Generated_Source\PSoC6\pdl\drivers\peripheral\scb/cy_scb_uart.c ****     CY_ASSERT_L1(NULL != context);
 913              		.loc 1 606 0
 914 000a 85B0     		sub	sp, sp, #20
 915              		.cfi_def_cfa_offset 40
 606:Generated_Source\PSoC6\pdl\drivers\peripheral\scb/cy_scb_uart.c ****     CY_ASSERT_L1(NULL != context);
 916              		.loc 1 606 0
 917 000c 0500     		movs	r5, r0
 918              	.LVL53:
 919 000e 0F00     		movs	r7, r1
 614:Generated_Source\PSoC6\pdl\drivers\peripheral\scb/cy_scb_uart.c ****     {
 920              		.loc 1 614 0
 921 0010 1340     		ands	r3, r2
 922 0012 67D1     		bne	.L104
 923              	.LVL54:
 924              	.LBB212:
 925              	.LBB213:
 926              	.LBB214:
 924:Generated_Source\PSoC6\pdl\drivers\peripheral\scb/cy_scb_common.h **** }
 927              		.loc 2 924 0
 928 0014 354A     		ldr	r2, .L123
 929 0016 8350     		str	r3, [r0, r2]
 930              	.LVL55:
 931              	.LBE214:
 932              	.LBE213:
 622:Generated_Source\PSoC6\pdl\drivers\peripheral\scb/cy_scb_uart.c ****         {
 933              		.loc 1 622 0
 934 0018 A368     		ldr	r3, [r4, #8]
 935 001a 0292     		str	r2, [sp, #8]
 936 001c 002B     		cmp	r3, #0
 937 001e 40D0     		beq	.L90
 625:Generated_Source\PSoC6\pdl\drivers\peripheral\scb/cy_scb_uart.c **** 
 938              		.loc 1 625 0
 939 0020 2100     		movs	r1, r4
 940              	.LVL56:
 941 0022 FFF7FEFF 		bl	Cy_SCB_UART_GetNumInRingBuffer
 942              	.LVL57:
 627:Generated_Source\PSoC6\pdl\drivers\peripheral\scb/cy_scb_uart.c ****             {
 943              		.loc 1 627 0
 944 0026 0028     		cmp	r0, #0
 945 0028 3BD0     		beq	.L90
 946              	.LBB215:
 947              	.LBB216:
 948              	.LBB217:
1692:Generated_Source\PSoC6\pdl\drivers\peripheral\scb/cy_scb_common.h **** }
1693:Generated_Source\PSoC6\pdl\drivers\peripheral\scb/cy_scb_common.h **** 
1694:Generated_Source\PSoC6\pdl\drivers\peripheral\scb/cy_scb_common.h **** 
1695:Generated_Source\PSoC6\pdl\drivers\peripheral\scb/cy_scb_common.h **** /*******************************************************************************
1696:Generated_Source\PSoC6\pdl\drivers\peripheral\scb/cy_scb_common.h **** * Function Name: Cy_SCB_IsRxDataWidthByte
1697:Generated_Source\PSoC6\pdl\drivers\peripheral\scb/cy_scb_common.h **** ****************************************************************************//**
1698:Generated_Source\PSoC6\pdl\drivers\peripheral\scb/cy_scb_common.h **** *
ARM GAS  C:\Users\pearlstl\AppData\Local\Temp\ccAUXqAU.s 			page 85


1699:Generated_Source\PSoC6\pdl\drivers\peripheral\scb/cy_scb_common.h **** * Returns true if the RX data width is a byte (8 bits).
1700:Generated_Source\PSoC6\pdl\drivers\peripheral\scb/cy_scb_common.h **** *
1701:Generated_Source\PSoC6\pdl\drivers\peripheral\scb/cy_scb_common.h **** * \param base
1702:Generated_Source\PSoC6\pdl\drivers\peripheral\scb/cy_scb_common.h **** * The pointer to the SCB instance.
1703:Generated_Source\PSoC6\pdl\drivers\peripheral\scb/cy_scb_common.h **** *
1704:Generated_Source\PSoC6\pdl\drivers\peripheral\scb/cy_scb_common.h **** * \return
1705:Generated_Source\PSoC6\pdl\drivers\peripheral\scb/cy_scb_common.h **** * True if the RX data width is a byte (8 bits).
1706:Generated_Source\PSoC6\pdl\drivers\peripheral\scb/cy_scb_common.h **** *
1707:Generated_Source\PSoC6\pdl\drivers\peripheral\scb/cy_scb_common.h **** *******************************************************************************/
1708:Generated_Source\PSoC6\pdl\drivers\peripheral\scb/cy_scb_common.h **** __STATIC_INLINE bool Cy_SCB_IsRxDataWidthByte(CySCB_Type const *base)
1709:Generated_Source\PSoC6\pdl\drivers\peripheral\scb/cy_scb_common.h **** {
1710:Generated_Source\PSoC6\pdl\drivers\peripheral\scb/cy_scb_common.h ****     return (_FLD2VAL(SCB_RX_CTRL_DATA_WIDTH, SCB_RX_CTRL(base)) < CY_SCB_BYTE_WIDTH);
 949              		.loc 2 1710 0
 950 002a C023     		movs	r3, #192
 951 002c 9B00     		lsls	r3, r3, #2
 952              	.LBE217:
 953              	.LBE216:
 630:Generated_Source\PSoC6\pdl\drivers\peripheral\scb/cy_scb_uart.c ****                 bool     byteMode = Cy_SCB_IsRxDataWidthByte(base);
 954              		.loc 1 630 0
 955 002e 6169     		ldr	r1, [r4, #20]
 956              	.LVL58:
 957              	.LBB219:
 958              	.LBB218:
 959              		.loc 2 1710 0
 960 0030 EA58     		ldr	r2, [r5, r3]
 961 0032 0F23     		movs	r3, #15
 962 0034 1A40     		ands	r2, r3
 963 0036 0392     		str	r2, [sp, #12]
 964              	.LVL59:
 965 0038 0196     		str	r6, [sp, #4]
 966 003a 8642     		cmp	r6, r0
 967 003c 00D9     		bls	.L91
 968 003e 0190     		str	r0, [sp, #4]
 969              	.L91:
 970              	.LVL60:
 971              	.LBE218:
 972              	.LBE219:
 640:Generated_Source\PSoC6\pdl\drivers\peripheral\scb/cy_scb_uart.c ****                 {
 973              		.loc 1 640 0
 974 0040 0022     		movs	r2, #0
 975              	.LVL61:
 976              	.L92:
 640:Generated_Source\PSoC6\pdl\drivers\peripheral\scb/cy_scb_uart.c ****                 {
 977              		.loc 1 640 0 is_stmt 0 discriminator 1
 978 0042 019B     		ldr	r3, [sp, #4]
 979 0044 9A42     		cmp	r2, r3
 980 0046 13D0     		beq	.L122
 644:Generated_Source\PSoC6\pdl\drivers\peripheral\scb/cy_scb_uart.c ****                     {
 981              		.loc 1 644 0 is_stmt 1
 982 0048 E068     		ldr	r0, [r4, #12]
 642:Generated_Source\PSoC6\pdl\drivers\peripheral\scb/cy_scb_uart.c **** 
 983              		.loc 1 642 0
 984 004a 0131     		adds	r1, r1, #1
 985              	.LVL62:
 644:Generated_Source\PSoC6\pdl\drivers\peripheral\scb/cy_scb_uart.c ****                     {
 986              		.loc 1 644 0
 987 004c 8142     		cmp	r1, r0
ARM GAS  C:\Users\pearlstl\AppData\Local\Temp\ccAUXqAU.s 			page 86


 988 004e 00D1     		bne	.L93
 646:Generated_Source\PSoC6\pdl\drivers\peripheral\scb/cy_scb_uart.c ****                     }
 989              		.loc 1 646 0
 990 0050 0021     		movs	r1, #0
 991              	.LVL63:
 992              	.L93:
 649:Generated_Source\PSoC6\pdl\drivers\peripheral\scb/cy_scb_uart.c ****                     {
 993              		.loc 1 649 0
 994 0052 0398     		ldr	r0, [sp, #12]
 995 0054 A368     		ldr	r3, [r4, #8]
 996 0056 0728     		cmp	r0, #7
 997 0058 02D8     		bhi	.L94
 998              	.LVL64:
 999              	.LBB220:
 652:Generated_Source\PSoC6\pdl\drivers\peripheral\scb/cy_scb_uart.c ****                     }
 1000              		.loc 1 652 0
 1001 005a 585C     		ldrb	r0, [r3, r1]
 1002 005c B854     		strb	r0, [r7, r2]
 1003              	.LBE220:
 1004 005e 05E0     		b	.L95
 1005              	.LVL65:
 1006              	.L94:
 1007              	.LBB221:
 657:Generated_Source\PSoC6\pdl\drivers\peripheral\scb/cy_scb_uart.c ****                     }
 1008              		.loc 1 657 0
 1009 0060 4800     		lsls	r0, r1, #1
 1010 0062 185A     		ldrh	r0, [r3, r0]
 1011 0064 8446     		mov	ip, r0
 1012 0066 6346     		mov	r3, ip
 1013 0068 5000     		lsls	r0, r2, #1
 1014 006a 3B52     		strh	r3, [r7, r0]
 1015              	.LVL66:
 1016              	.L95:
 1017              	.LBE221:
 640:Generated_Source\PSoC6\pdl\drivers\peripheral\scb/cy_scb_uart.c ****                 {
 1018              		.loc 1 640 0 discriminator 2
 1019 006c 0132     		adds	r2, r2, #1
 1020              	.LVL67:
 1021 006e E8E7     		b	.L92
 1022              	.L122:
 662:Generated_Source\PSoC6\pdl\drivers\peripheral\scb/cy_scb_uart.c **** 
 1023              		.loc 1 662 0
 1024 0070 6161     		str	r1, [r4, #20]
 665:Generated_Source\PSoC6\pdl\drivers\peripheral\scb/cy_scb_uart.c ****                 context->rxBufIdx = numToCopy;
 1025              		.loc 1 665 0
 1026 0072 B61A     		subs	r6, r6, r2
 1027              	.LVL68:
 666:Generated_Source\PSoC6\pdl\drivers\peripheral\scb/cy_scb_uart.c **** 
 1028              		.loc 1 666 0
 1029 0074 2262     		str	r2, [r4, #32]
 669:Generated_Source\PSoC6\pdl\drivers\peripheral\scb/cy_scb_uart.c ****                 {
 1030              		.loc 1 669 0
 1031 0076 0DD1     		bne	.L97
 1032              	.LVL69:
 1033              	.LBB222:
 1034              	.LBB223:
 924:Generated_Source\PSoC6\pdl\drivers\peripheral\scb/cy_scb_common.h **** }
ARM GAS  C:\Users\pearlstl\AppData\Local\Temp\ccAUXqAU.s 			page 87


 1035              		.loc 2 924 0
 1036 0078 C823     		movs	r3, #200
 1037 007a 029A     		ldr	r2, [sp, #8]
 1038              	.LVL70:
 1039 007c 9B00     		lsls	r3, r3, #2
 1040 007e AB50     		str	r3, [r5, r2]
 1041              	.LVL71:
 1042              	.LBE223:
 1043              	.LBE222:
 677:Generated_Source\PSoC6\pdl\drivers\peripheral\scb/cy_scb_uart.c ****                     {
 1044              		.loc 1 677 0
 1045 0080 236A     		ldr	r3, [r4, #32]
 1046 0082 002B     		cmp	r3, #0
 1047 0084 04D0     		beq	.L98
 679:Generated_Source\PSoC6\pdl\drivers\peripheral\scb/cy_scb_uart.c ****                         {
 1048              		.loc 1 679 0
 1049 0086 236B     		ldr	r3, [r4, #48]
 1050 0088 002B     		cmp	r3, #0
 1051 008a 01D0     		beq	.L98
 681:Generated_Source\PSoC6\pdl\drivers\peripheral\scb/cy_scb_uart.c ****                         }
 1052              		.loc 1 681 0
 1053 008c 0420     		movs	r0, #4
 1054 008e 9847     		blx	r3
 1055              	.LVL72:
 1056              	.L98:
 1057              	.LBB224:
 1058              	.LBB225:
 924:Generated_Source\PSoC6\pdl\drivers\peripheral\scb/cy_scb_common.h **** }
 1059              		.loc 2 924 0
 1060 0090 0123     		movs	r3, #1
 1061 0092 23E0     		b	.L121
 1062              	.LVL73:
 1063              	.L97:
 1064              	.LBE225:
 1065              	.LBE224:
 690:Generated_Source\PSoC6\pdl\drivers\peripheral\scb/cy_scb_uart.c ****                 }
 1066              		.loc 1 690 0
 1067 0094 039B     		ldr	r3, [sp, #12]
 1068 0096 019A     		ldr	r2, [sp, #4]
 1069              	.LVL74:
 1070 0098 072B     		cmp	r3, #7
 1071 009a 00D9     		bls	.L99
 690:Generated_Source\PSoC6\pdl\drivers\peripheral\scb/cy_scb_uart.c ****                 }
 1072              		.loc 1 690 0 is_stmt 0 discriminator 2
 1073 009c 5200     		lsls	r2, r2, #1
 1074              	.L99:
 1075              	.LVL75:
 690:Generated_Source\PSoC6\pdl\drivers\peripheral\scb/cy_scb_uart.c ****                 }
 1076              		.loc 1 690 0 discriminator 4
 1077 009e BF18     		adds	r7, r7, r2
 1078              	.LVL76:
 1079 00a0 03E0     		b	.L100
 1080              	.LVL77:
 1081              	.L90:
 1082              	.LBE215:
 714:Generated_Source\PSoC6\pdl\drivers\peripheral\scb/cy_scb_uart.c ****     }
 1083              		.loc 1 714 0 is_stmt 1
ARM GAS  C:\Users\pearlstl\AppData\Local\Temp\ccAUXqAU.s 			page 88


 1084 00a2 0020     		movs	r0, #0
 696:Generated_Source\PSoC6\pdl\drivers\peripheral\scb/cy_scb_uart.c ****         {
 1085              		.loc 1 696 0
 1086 00a4 8642     		cmp	r6, r0
 1087 00a6 1ED0     		beq	.L89
 1088 00a8 0190     		str	r0, [sp, #4]
 1089              	.LVL78:
 1090              	.L100:
 1091              	.LBB226:
 1092              	.LBB227:
 1093              	.LBB228:
1690:Generated_Source\PSoC6\pdl\drivers\peripheral\scb/cy_scb_common.h ****                 (CY_SCB_FIFO_SIZE) : (CY_SCB_FIFO_SIZE / 2UL));
 1094              		.loc 2 1690 0
 1095 00aa 2968     		ldr	r1, [r5]
1691:Generated_Source\PSoC6\pdl\drivers\peripheral\scb/cy_scb_common.h **** }
 1096              		.loc 2 1691 0
 1097 00ac 8022     		movs	r2, #128
 1098 00ae 0B05     		lsls	r3, r1, #20
 1099 00b0 00D4     		bmi	.L101
 1100 00b2 403A     		subs	r2, r2, #64
 1101              	.L101:
 1102              	.LVL79:
 1103              	.LBE228:
 1104              	.LBE227:
 701:Generated_Source\PSoC6\pdl\drivers\peripheral\scb/cy_scb_uart.c **** 
 1105              		.loc 1 701 0
 1106 00b4 0121     		movs	r1, #1
 705:Generated_Source\PSoC6\pdl\drivers\peripheral\scb/cy_scb_uart.c **** 
 1107              		.loc 1 705 0
 1108 00b6 019B     		ldr	r3, [sp, #4]
 701:Generated_Source\PSoC6\pdl\drivers\peripheral\scb/cy_scb_uart.c **** 
 1109              		.loc 1 701 0
 1110 00b8 6160     		str	r1, [r4, #4]
 698:Generated_Source\PSoC6\pdl\drivers\peripheral\scb/cy_scb_uart.c **** 
 1111              		.loc 1 698 0
 1112 00ba 5208     		lsrs	r2, r2, #1
 1113              	.LVL80:
 703:Generated_Source\PSoC6\pdl\drivers\peripheral\scb/cy_scb_uart.c ****             context->rxBufSize = size;
 1114              		.loc 1 703 0
 1115 00bc A761     		str	r7, [r4, #24]
 704:Generated_Source\PSoC6\pdl\drivers\peripheral\scb/cy_scb_uart.c ****             context->rxBufIdx =  numToCopy;
 1116              		.loc 1 704 0
 1117 00be E661     		str	r6, [r4, #28]
 705:Generated_Source\PSoC6\pdl\drivers\peripheral\scb/cy_scb_uart.c **** 
 1118              		.loc 1 705 0
 1119 00c0 2362     		str	r3, [r4, #32]
 708:Generated_Source\PSoC6\pdl\drivers\peripheral\scb/cy_scb_uart.c **** 
 1120              		.loc 1 708 0
 1121 00c2 701E     		subs	r0, r6, #1
 1122 00c4 B242     		cmp	r2, r6
 1123 00c6 00D2     		bcs	.L103
 708:Generated_Source\PSoC6\pdl\drivers\peripheral\scb/cy_scb_uart.c **** 
 1124              		.loc 1 708 0 is_stmt 0 discriminator 1
 1125 00c8 501E     		subs	r0, r2, #1
 1126              	.L103:
 1127              	.LVL81:
 1128              	.LBB229:
ARM GAS  C:\Users\pearlstl\AppData\Local\Temp\ccAUXqAU.s 			page 89


 1129              	.LBB230:
 642:Generated_Source\PSoC6\pdl\drivers\peripheral\scb/cy_scb_common.h **** }
 1130              		.loc 2 642 0 is_stmt 1 discriminator 4
 1131 00ca C121     		movs	r1, #193
 1132 00cc FF23     		movs	r3, #255
 1133 00ce 8900     		lsls	r1, r1, #2
 1134 00d0 6A58     		ldr	r2, [r5, r1]
 1135              	.LVL82:
 1136 00d2 9A43     		bics	r2, r3
 1137 00d4 0340     		ands	r3, r0
 1138 00d6 1343     		orrs	r3, r2
 1139 00d8 6B50     		str	r3, [r5, r1]
 1140              	.LVL83:
 1141              	.LBE230:
 1142              	.LBE229:
 1143              	.LBB231:
 1144              	.LBB232:
 924:Generated_Source\PSoC6\pdl\drivers\peripheral\scb/cy_scb_common.h **** }
 1145              		.loc 2 924 0 discriminator 4
 1146 00da 054B     		ldr	r3, .L123+4
 1147              	.LVL84:
 1148              	.L121:
 1149 00dc 029A     		ldr	r2, [sp, #8]
 1150              	.LBE232:
 1151              	.LBE231:
 1152              	.LBE226:
 714:Generated_Source\PSoC6\pdl\drivers\peripheral\scb/cy_scb_uart.c ****     }
 1153              		.loc 1 714 0 discriminator 4
 1154 00de 0020     		movs	r0, #0
 1155              	.LBB235:
 1156              	.LBB234:
 1157              	.LBB233:
 924:Generated_Source\PSoC6\pdl\drivers\peripheral\scb/cy_scb_common.h **** }
 1158              		.loc 2 924 0 discriminator 4
 1159 00e0 AB50     		str	r3, [r5, r2]
 1160 00e2 00E0     		b	.L89
 1161              	.LVL85:
 1162              	.L104:
 1163              	.LBE233:
 1164              	.LBE234:
 1165              	.LBE235:
 1166              	.LBE212:
 611:Generated_Source\PSoC6\pdl\drivers\peripheral\scb/cy_scb_uart.c **** 
 1167              		.loc 1 611 0
 1168 00e4 0348     		ldr	r0, .L123+8
 1169              	.LVL86:
 1170              	.L89:
 718:Generated_Source\PSoC6\pdl\drivers\peripheral\scb/cy_scb_uart.c **** 
 1171              		.loc 1 718 0
 1172 00e6 05B0     		add	sp, sp, #20
 1173              		@ sp needed
 1174              	.LVL87:
 1175              	.LVL88:
 1176              	.LVL89:
 1177 00e8 F0BD     		pop	{r4, r5, r6, r7, pc}
 1178              	.L124:
 1179 00ea C046     		.align	2
ARM GAS  C:\Users\pearlstl\AppData\Local\Temp\ccAUXqAU.s 			page 90


 1180              	.L123:
 1181 00ec C80F0000 		.word	4040
 1182 00f0 210B0000 		.word	2849
 1183 00f4 0260AA00 		.word	11165698
 1184              		.cfi_endproc
 1185              	.LFE164:
 1186              		.size	Cy_SCB_UART_Receive, .-Cy_SCB_UART_Receive
 1187              		.section	.text.Cy_SCB_UART_AbortReceive,"ax",%progbits
 1188              		.align	1
 1189              		.global	Cy_SCB_UART_AbortReceive
 1190              		.code	16
 1191              		.thumb_func
 1192              		.type	Cy_SCB_UART_AbortReceive, %function
 1193              	Cy_SCB_UART_AbortReceive:
 1194              	.LFB165:
 750:Generated_Source\PSoC6\pdl\drivers\peripheral\scb/cy_scb_uart.c ****     if (NULL == context->rxRingBuf)
 1195              		.loc 1 750 0
 1196              		.cfi_startproc
 1197              		@ args = 0, pretend = 0, frame = 0
 1198              		@ frame_needed = 0, uses_anonymous_args = 0
 1199              		@ link register save eliminated.
 1200              	.LVL90:
 751:Generated_Source\PSoC6\pdl\drivers\peripheral\scb/cy_scb_uart.c ****     {
 1201              		.loc 1 751 0
 1202 0000 8B68     		ldr	r3, [r1, #8]
 1203 0002 002B     		cmp	r3, #0
 1204 0004 01D1     		bne	.L126
 1205              	.LVL91:
 1206              	.LBB236:
 1207              	.LBB237:
 924:Generated_Source\PSoC6\pdl\drivers\peripheral\scb/cy_scb_common.h **** }
 1208              		.loc 2 924 0
 1209 0006 034A     		ldr	r2, .L127
 1210 0008 8350     		str	r3, [r0, r2]
 1211              	.LVL92:
 1212              	.L126:
 1213              	.LBE237:
 1214              	.LBE236:
 756:Generated_Source\PSoC6\pdl\drivers\peripheral\scb/cy_scb_uart.c ****     context->rxBufIdx  = 0UL;
 1215              		.loc 1 756 0
 1216 000a 0023     		movs	r3, #0
 760:Generated_Source\PSoC6\pdl\drivers\peripheral\scb/cy_scb_uart.c **** 
 1217              		.loc 1 760 0
 1218              		@ sp needed
 757:Generated_Source\PSoC6\pdl\drivers\peripheral\scb/cy_scb_uart.c **** 
 1219              		.loc 1 757 0
 1220 000c 0B62     		str	r3, [r1, #32]
 756:Generated_Source\PSoC6\pdl\drivers\peripheral\scb/cy_scb_uart.c ****     context->rxBufIdx  = 0UL;
 1221              		.loc 1 756 0
 1222 000e CB61     		str	r3, [r1, #28]
 759:Generated_Source\PSoC6\pdl\drivers\peripheral\scb/cy_scb_uart.c **** }
 1223              		.loc 1 759 0
 1224 0010 4B60     		str	r3, [r1, #4]
 760:Generated_Source\PSoC6\pdl\drivers\peripheral\scb/cy_scb_uart.c **** 
 1225              		.loc 1 760 0
 1226 0012 7047     		bx	lr
 1227              	.L128:
ARM GAS  C:\Users\pearlstl\AppData\Local\Temp\ccAUXqAU.s 			page 91


 1228              		.align	2
 1229              	.L127:
 1230 0014 C80F0000 		.word	4040
 1231              		.cfi_endproc
 1232              	.LFE165:
 1233              		.size	Cy_SCB_UART_AbortReceive, .-Cy_SCB_UART_AbortReceive
 1234              		.section	.text.Cy_SCB_UART_GetNumReceived,"ax",%progbits
 1235              		.align	1
 1236              		.global	Cy_SCB_UART_GetNumReceived
 1237              		.code	16
 1238              		.thumb_func
 1239              		.type	Cy_SCB_UART_GetNumReceived, %function
 1240              	Cy_SCB_UART_GetNumReceived:
 1241              	.LFB166:
 784:Generated_Source\PSoC6\pdl\drivers\peripheral\scb/cy_scb_uart.c ****     /* Suppress a compiler warning about unused variables */
 1242              		.loc 1 784 0
 1243              		.cfi_startproc
 1244              		@ args = 0, pretend = 0, frame = 0
 1245              		@ frame_needed = 0, uses_anonymous_args = 0
 1246              		@ link register save eliminated.
 1247              	.LVL93:
 788:Generated_Source\PSoC6\pdl\drivers\peripheral\scb/cy_scb_uart.c **** }
 1248              		.loc 1 788 0
 1249 0000 086A     		ldr	r0, [r1, #32]
 1250              	.LVL94:
 789:Generated_Source\PSoC6\pdl\drivers\peripheral\scb/cy_scb_uart.c **** 
 1251              		.loc 1 789 0
 1252              		@ sp needed
 1253 0002 7047     		bx	lr
 1254              		.cfi_endproc
 1255              	.LFE166:
 1256              		.size	Cy_SCB_UART_GetNumReceived, .-Cy_SCB_UART_GetNumReceived
 1257              		.section	.text.Cy_SCB_UART_GetReceiveStatus,"ax",%progbits
 1258              		.align	1
 1259              		.global	Cy_SCB_UART_GetReceiveStatus
 1260              		.code	16
 1261              		.thumb_func
 1262              		.type	Cy_SCB_UART_GetReceiveStatus, %function
 1263              	Cy_SCB_UART_GetReceiveStatus:
 1264              	.LFB167:
 816:Generated_Source\PSoC6\pdl\drivers\peripheral\scb/cy_scb_uart.c ****     /* Suppress a compiler warning about unused variables */
 1265              		.loc 1 816 0
 1266              		.cfi_startproc
 1267              		@ args = 0, pretend = 0, frame = 0
 1268              		@ frame_needed = 0, uses_anonymous_args = 0
 1269              		@ link register save eliminated.
 1270              	.LVL95:
 820:Generated_Source\PSoC6\pdl\drivers\peripheral\scb/cy_scb_uart.c **** }
 1271              		.loc 1 820 0
 1272 0000 4868     		ldr	r0, [r1, #4]
 1273              	.LVL96:
 821:Generated_Source\PSoC6\pdl\drivers\peripheral\scb/cy_scb_uart.c **** 
 1274              		.loc 1 821 0
 1275              		@ sp needed
 1276 0002 7047     		bx	lr
 1277              		.cfi_endproc
 1278              	.LFE167:
ARM GAS  C:\Users\pearlstl\AppData\Local\Temp\ccAUXqAU.s 			page 92


 1279              		.size	Cy_SCB_UART_GetReceiveStatus, .-Cy_SCB_UART_GetReceiveStatus
 1280              		.section	.text.Cy_SCB_UART_Transmit,"ax",%progbits
 1281              		.align	1
 1282              		.global	Cy_SCB_UART_Transmit
 1283              		.code	16
 1284              		.thumb_func
 1285              		.type	Cy_SCB_UART_Transmit, %function
 1286              	Cy_SCB_UART_Transmit:
 1287              	.LFB168:
 864:Generated_Source\PSoC6\pdl\drivers\peripheral\scb/cy_scb_uart.c ****     CY_ASSERT_L1(NULL != context);
 1288              		.loc 1 864 0
 1289              		.cfi_startproc
 1290              		@ args = 0, pretend = 0, frame = 0
 1291              		@ frame_needed = 0, uses_anonymous_args = 0
 1292              	.LVL97:
 1293 0000 30B5     		push	{r4, r5, lr}
 1294              		.cfi_def_cfa_offset 12
 1295              		.cfi_offset 4, -12
 1296              		.cfi_offset 5, -8
 1297              		.cfi_offset 14, -4
 872:Generated_Source\PSoC6\pdl\drivers\peripheral\scb/cy_scb_uart.c ****     {
 1298              		.loc 1 872 0
 1299 0002 0124     		movs	r4, #1
 1300 0004 1D68     		ldr	r5, [r3]
 1301 0006 2542     		tst	r5, r4
 1302 0008 1BD1     		bne	.L135
 875:Generated_Source\PSoC6\pdl\drivers\peripheral\scb/cy_scb_uart.c **** 
 1303              		.loc 1 875 0
 1304 000a 1C60     		str	r4, [r3]
 878:Generated_Source\PSoC6\pdl\drivers\peripheral\scb/cy_scb_uart.c **** 
 1305              		.loc 1 878 0
 1306 000c 9A62     		str	r2, [r3, #40]
 1307              	.LVL98:
 877:Generated_Source\PSoC6\pdl\drivers\peripheral\scb/cy_scb_uart.c ****         context->txBufSize = size;
 1308              		.loc 1 877 0
 1309 000e 5962     		str	r1, [r3, #36]
 1310              	.LBB246:
 1311              	.LBB247:
1690:Generated_Source\PSoC6\pdl\drivers\peripheral\scb/cy_scb_common.h ****                 (CY_SCB_FIFO_SIZE) : (CY_SCB_FIFO_SIZE / 2UL));
 1312              		.loc 2 1690 0
 1313 0010 0368     		ldr	r3, [r0]
 1314              	.LVL99:
1691:Generated_Source\PSoC6\pdl\drivers\peripheral\scb/cy_scb_common.h **** }
 1315              		.loc 2 1691 0
 1316 0012 8022     		movs	r2, #128
 1317              	.LVL100:
 1318 0014 1B05     		lsls	r3, r3, #20
 1319 0016 00D4     		bmi	.L133
 1320 0018 403A     		subs	r2, r2, #64
 1321              	.L133:
 1322              	.LVL101:
 1323              	.LBE247:
 1324              	.LBE246:
 1325              	.LBB248:
 1326              	.LBB249:
 746:Generated_Source\PSoC6\pdl\drivers\peripheral\scb/cy_scb_common.h **** }
 1327              		.loc 2 746 0
ARM GAS  C:\Users\pearlstl\AppData\Local\Temp\ccAUXqAU.s 			page 93


 1328 001a 8121     		movs	r1, #129
 1329              	.LVL102:
 1330 001c FF24     		movs	r4, #255
 1331 001e 8900     		lsls	r1, r1, #2
 1332 0020 4358     		ldr	r3, [r0, r1]
 1333 0022 5208     		lsrs	r2, r2, #1
 1334              	.LVL103:
 1335 0024 A343     		bics	r3, r4
 1336 0026 1343     		orrs	r3, r2
 1337 0028 4350     		str	r3, [r0, r1]
 1338              	.LVL104:
 1339              	.LBE249:
 1340              	.LBE248:
 884:Generated_Source\PSoC6\pdl\drivers\peripheral\scb/cy_scb_uart.c ****         {
 1341              		.loc 1 884 0
 1342 002a 036C     		ldr	r3, [r0, #64]
 1343 002c 064A     		ldr	r2, .L138
 1344 002e 9B01     		lsls	r3, r3, #6
 1345 0030 9B0F     		lsrs	r3, r3, #30
 1346 0032 012B     		cmp	r3, #1
 1347 0034 01D1     		bne	.L134
 1348              	.LVL105:
 1349              	.LBB250:
 1350              	.LBB251:
1068:Generated_Source\PSoC6\pdl\drivers\peripheral\scb/cy_scb_common.h **** }
 1351              		.loc 2 1068 0
 1352 0036 054B     		ldr	r3, .L138+4
 1353 0038 00E0     		b	.L137
 1354              	.LVL106:
 1355              	.L134:
 1356              	.LBE251:
 1357              	.LBE250:
 1358              	.LBB252:
 1359              	.LBB253:
 1360 003a 0123     		movs	r3, #1
 1361              	.LVL107:
 1362              	.L137:
 1363 003c 8350     		str	r3, [r0, r2]
 1364              	.LVL108:
 1365              	.LBE253:
 1366              	.LBE252:
 895:Generated_Source\PSoC6\pdl\drivers\peripheral\scb/cy_scb_uart.c ****     }
 1367              		.loc 1 895 0
 1368 003e 0020     		movs	r0, #0
 1369              	.LVL109:
 1370 0040 00E0     		b	.L132
 1371              	.LVL110:
 1372              	.L135:
 869:Generated_Source\PSoC6\pdl\drivers\peripheral\scb/cy_scb_uart.c **** 
 1373              		.loc 1 869 0
 1374 0042 0348     		ldr	r0, .L138+8
 1375              	.LVL111:
 1376              	.L132:
 899:Generated_Source\PSoC6\pdl\drivers\peripheral\scb/cy_scb_uart.c **** 
 1377              		.loc 1 899 0
 1378              		@ sp needed
 1379 0044 30BD     		pop	{r4, r5, pc}
ARM GAS  C:\Users\pearlstl\AppData\Local\Temp\ccAUXqAU.s 			page 94


 1380              	.L139:
 1381 0046 C046     		.align	2
 1382              	.L138:
 1383 0048 880F0000 		.word	3976
 1384 004c 01050000 		.word	1281
 1385 0050 0360AA00 		.word	11165699
 1386              		.cfi_endproc
 1387              	.LFE168:
 1388              		.size	Cy_SCB_UART_Transmit, .-Cy_SCB_UART_Transmit
 1389              		.section	.text.Cy_SCB_UART_AbortTransmit,"ax",%progbits
 1390              		.align	1
 1391              		.global	Cy_SCB_UART_AbortTransmit
 1392              		.code	16
 1393              		.thumb_func
 1394              		.type	Cy_SCB_UART_AbortTransmit, %function
 1395              	Cy_SCB_UART_AbortTransmit:
 1396              	.LFB169:
 927:Generated_Source\PSoC6\pdl\drivers\peripheral\scb/cy_scb_uart.c ****     Cy_SCB_SetTxInterruptMask(base, CY_SCB_CLEAR_ALL_INTR_SRC);
 1397              		.loc 1 927 0
 1398              		.cfi_startproc
 1399              		@ args = 0, pretend = 0, frame = 0
 1400              		@ frame_needed = 0, uses_anonymous_args = 0
 1401              	.LVL112:
 1402              	.LBB260:
 1403              	.LBB261:
1068:Generated_Source\PSoC6\pdl\drivers\peripheral\scb/cy_scb_common.h **** }
 1404              		.loc 2 1068 0
 1405 0000 0022     		movs	r2, #0
 1406 0002 094B     		ldr	r3, .L141
 1407              	.LBE261:
 1408              	.LBE260:
 927:Generated_Source\PSoC6\pdl\drivers\peripheral\scb/cy_scb_uart.c ****     Cy_SCB_SetTxInterruptMask(base, CY_SCB_CLEAR_ALL_INTR_SRC);
 1409              		.loc 1 927 0
 1410 0004 30B5     		push	{r4, r5, lr}
 1411              		.cfi_def_cfa_offset 12
 1412              		.cfi_offset 4, -12
 1413              		.cfi_offset 5, -8
 1414              		.cfi_offset 14, -4
 1415              	.LBB263:
 1416              	.LBB262:
1068:Generated_Source\PSoC6\pdl\drivers\peripheral\scb/cy_scb_common.h **** }
 1417              		.loc 2 1068 0
 1418 0006 C250     		str	r2, [r0, r3]
 1419              	.LVL113:
 1420              	.LBE262:
 1421              	.LBE263:
 1422              	.LBB264:
 1423              	.LBB265:
 1424              	.LBB266:
 824:Generated_Source\PSoC6\pdl\drivers\peripheral\scb/cy_scb_common.h ****     SCB_TX_FIFO_CTRL(base) &= (uint32_t) ~SCB_TX_FIFO_CTRL_CLEAR_Msk;
 1425              		.loc 2 824 0
 1426 0008 8123     		movs	r3, #129
 1427 000a 8025     		movs	r5, #128
 1428 000c 9B00     		lsls	r3, r3, #2
 1429 000e C458     		ldr	r4, [r0, r3]
 1430 0010 6D02     		lsls	r5, r5, #9
 1431 0012 2C43     		orrs	r4, r5
ARM GAS  C:\Users\pearlstl\AppData\Local\Temp\ccAUXqAU.s 			page 95


 1432 0014 C450     		str	r4, [r0, r3]
 825:Generated_Source\PSoC6\pdl\drivers\peripheral\scb/cy_scb_common.h **** 
 1433              		.loc 2 825 0
 1434 0016 C558     		ldr	r5, [r0, r3]
 1435 0018 044C     		ldr	r4, .L141+4
 1436              	.LBE266:
 1437              	.LBE265:
 1438              	.LBE264:
 936:Generated_Source\PSoC6\pdl\drivers\peripheral\scb/cy_scb_uart.c **** 
 1439              		.loc 1 936 0
 1440              		@ sp needed
 1441              	.LBB269:
 1442              	.LBB268:
 1443              	.LBB267:
 825:Generated_Source\PSoC6\pdl\drivers\peripheral\scb/cy_scb_common.h **** 
 1444              		.loc 2 825 0
 1445 001a 2C40     		ands	r4, r5
 1446 001c C450     		str	r4, [r0, r3]
 827:Generated_Source\PSoC6\pdl\drivers\peripheral\scb/cy_scb_common.h **** }
 1447              		.loc 2 827 0
 1448 001e C358     		ldr	r3, [r0, r3]
 1449              	.LVL114:
 1450              	.LBE267:
 1451              	.LBE268:
 1452              	.LBE269:
 933:Generated_Source\PSoC6\pdl\drivers\peripheral\scb/cy_scb_uart.c **** 
 1453              		.loc 1 933 0
 1454 0020 CA62     		str	r2, [r1, #44]
 932:Generated_Source\PSoC6\pdl\drivers\peripheral\scb/cy_scb_uart.c ****     context->txLeftToTransmit = 0UL;
 1455              		.loc 1 932 0
 1456 0022 8A62     		str	r2, [r1, #40]
 935:Generated_Source\PSoC6\pdl\drivers\peripheral\scb/cy_scb_uart.c **** }
 1457              		.loc 1 935 0
 1458 0024 0A60     		str	r2, [r1]
 936:Generated_Source\PSoC6\pdl\drivers\peripheral\scb/cy_scb_uart.c **** 
 1459              		.loc 1 936 0
 1460 0026 30BD     		pop	{r4, r5, pc}
 1461              	.L142:
 1462              		.align	2
 1463              	.L141:
 1464 0028 880F0000 		.word	3976
 1465 002c FFFFFEFF 		.word	-65537
 1466              		.cfi_endproc
 1467              	.LFE169:
 1468              		.size	Cy_SCB_UART_AbortTransmit, .-Cy_SCB_UART_AbortTransmit
 1469              		.section	.text.Cy_SCB_UART_GetNumLeftToTransmit,"ax",%progbits
 1470              		.align	1
 1471              		.global	Cy_SCB_UART_GetNumLeftToTransmit
 1472              		.code	16
 1473              		.thumb_func
 1474              		.type	Cy_SCB_UART_GetNumLeftToTransmit, %function
 1475              	Cy_SCB_UART_GetNumLeftToTransmit:
 1476              	.LFB170:
 960:Generated_Source\PSoC6\pdl\drivers\peripheral\scb/cy_scb_uart.c ****     /* Suppress a compiler warning about unused variables */
 1477              		.loc 1 960 0
 1478              		.cfi_startproc
 1479              		@ args = 0, pretend = 0, frame = 0
ARM GAS  C:\Users\pearlstl\AppData\Local\Temp\ccAUXqAU.s 			page 96


 1480              		@ frame_needed = 0, uses_anonymous_args = 0
 1481              		@ link register save eliminated.
 1482              	.LVL115:
 964:Generated_Source\PSoC6\pdl\drivers\peripheral\scb/cy_scb_uart.c **** }
 1483              		.loc 1 964 0
 1484 0000 C86A     		ldr	r0, [r1, #44]
 1485              	.LVL116:
 965:Generated_Source\PSoC6\pdl\drivers\peripheral\scb/cy_scb_uart.c **** 
 1486              		.loc 1 965 0
 1487              		@ sp needed
 1488 0002 7047     		bx	lr
 1489              		.cfi_endproc
 1490              	.LFE170:
 1491              		.size	Cy_SCB_UART_GetNumLeftToTransmit, .-Cy_SCB_UART_GetNumLeftToTransmit
 1492              		.section	.text.Cy_SCB_UART_GetTransmitStatus,"ax",%progbits
 1493              		.align	1
 1494              		.global	Cy_SCB_UART_GetTransmitStatus
 1495              		.code	16
 1496              		.thumb_func
 1497              		.type	Cy_SCB_UART_GetTransmitStatus, %function
 1498              	Cy_SCB_UART_GetTransmitStatus:
 1499              	.LFB171:
 993:Generated_Source\PSoC6\pdl\drivers\peripheral\scb/cy_scb_uart.c ****     /* Suppress a compiler warning about unused variables */
 1500              		.loc 1 993 0
 1501              		.cfi_startproc
 1502              		@ args = 0, pretend = 0, frame = 0
 1503              		@ frame_needed = 0, uses_anonymous_args = 0
 1504              		@ link register save eliminated.
 1505              	.LVL117:
 1506              		.loc 1 997 0
 1507 0000 0868     		ldr	r0, [r1]
 1508              	.LVL118:
 998:Generated_Source\PSoC6\pdl\drivers\peripheral\scb/cy_scb_uart.c **** }
 1509              		.loc 1 998 0
 1510              		@ sp needed
 1511 0002 7047     		bx	lr
 1512              		.cfi_endproc
 1513              	.LFE171:
 1514              		.size	Cy_SCB_UART_GetTransmitStatus, .-Cy_SCB_UART_GetTransmitStatus
 1515              		.section	.text.Cy_SCB_UART_SendBreakBlocking,"ax",%progbits
 1516              		.align	1
 1517              		.global	Cy_SCB_UART_SendBreakBlocking
 1518              		.code	16
 1519              		.thumb_func
 1520              		.type	Cy_SCB_UART_SendBreakBlocking, %function
 1521              	Cy_SCB_UART_SendBreakBlocking:
 1522              	.LFB172:
 999:Generated_Source\PSoC6\pdl\drivers\peripheral\scb/cy_scb_uart.c **** 
1000:Generated_Source\PSoC6\pdl\drivers\peripheral\scb/cy_scb_uart.c **** 
1001:Generated_Source\PSoC6\pdl\drivers\peripheral\scb/cy_scb_uart.c **** /*******************************************************************************
1002:Generated_Source\PSoC6\pdl\drivers\peripheral\scb/cy_scb_uart.c **** * Function Name: Cy_SCB_UART_SendBreakBlocking
1003:Generated_Source\PSoC6\pdl\drivers\peripheral\scb/cy_scb_uart.c **** ****************************************************************************//**
1004:Generated_Source\PSoC6\pdl\drivers\peripheral\scb/cy_scb_uart.c **** *
1005:Generated_Source\PSoC6\pdl\drivers\peripheral\scb/cy_scb_uart.c **** * Sends a break condition (logic low) of specified width on UART TX line.
1006:Generated_Source\PSoC6\pdl\drivers\peripheral\scb/cy_scb_uart.c **** * Blocks until break is completed. Only call this function when UART TX FIFO
1007:Generated_Source\PSoC6\pdl\drivers\peripheral\scb/cy_scb_uart.c **** * and shifter are empty.
1008:Generated_Source\PSoC6\pdl\drivers\peripheral\scb/cy_scb_uart.c **** *
ARM GAS  C:\Users\pearlstl\AppData\Local\Temp\ccAUXqAU.s 			page 97


1009:Generated_Source\PSoC6\pdl\drivers\peripheral\scb/cy_scb_uart.c **** * \param base
1010:Generated_Source\PSoC6\pdl\drivers\peripheral\scb/cy_scb_uart.c **** * The pointer to the UART SCB instance.
1011:Generated_Source\PSoC6\pdl\drivers\peripheral\scb/cy_scb_uart.c **** *
1012:Generated_Source\PSoC6\pdl\drivers\peripheral\scb/cy_scb_uart.c **** * \param breakWidth
1013:Generated_Source\PSoC6\pdl\drivers\peripheral\scb/cy_scb_uart.c **** * Width of break condition. Valid range is the TX data width (4 to 16 bits)
1014:Generated_Source\PSoC6\pdl\drivers\peripheral\scb/cy_scb_uart.c **** *
1015:Generated_Source\PSoC6\pdl\drivers\peripheral\scb/cy_scb_uart.c **** * \note
1016:Generated_Source\PSoC6\pdl\drivers\peripheral\scb/cy_scb_uart.c **** * Before sending break all UART TX interrupt sources are disabled. The state
1017:Generated_Source\PSoC6\pdl\drivers\peripheral\scb/cy_scb_uart.c **** * of UART TX interrupt sources is restored before function returns.
1018:Generated_Source\PSoC6\pdl\drivers\peripheral\scb/cy_scb_uart.c **** *
1019:Generated_Source\PSoC6\pdl\drivers\peripheral\scb/cy_scb_uart.c **** * \sideeffect
1020:Generated_Source\PSoC6\pdl\drivers\peripheral\scb/cy_scb_uart.c **** * If this function is called while there is data in the TX FIFO or shifter that
1021:Generated_Source\PSoC6\pdl\drivers\peripheral\scb/cy_scb_uart.c **** * data will be shifted out in packets the size of breakWidth.
1022:Generated_Source\PSoC6\pdl\drivers\peripheral\scb/cy_scb_uart.c **** *
1023:Generated_Source\PSoC6\pdl\drivers\peripheral\scb/cy_scb_uart.c **** *******************************************************************************/
1024:Generated_Source\PSoC6\pdl\drivers\peripheral\scb/cy_scb_uart.c **** void Cy_SCB_UART_SendBreakBlocking(CySCB_Type *base, uint32_t breakWidth)
1025:Generated_Source\PSoC6\pdl\drivers\peripheral\scb/cy_scb_uart.c **** {
 1523              		.loc 1 1025 0
 1524              		.cfi_startproc
 1525              		@ args = 0, pretend = 0, frame = 8
 1526              		@ frame_needed = 0, uses_anonymous_args = 0
 1527              	.LVL119:
 1528 0000 F7B5     		push	{r0, r1, r2, r4, r5, r6, r7, lr}
 1529              		.cfi_def_cfa_offset 32
 1530              		.cfi_offset 0, -32
 1531              		.cfi_offset 1, -28
 1532              		.cfi_offset 2, -24
 1533              		.cfi_offset 4, -20
 1534              		.cfi_offset 5, -16
 1535              		.cfi_offset 6, -12
 1536              		.cfi_offset 7, -8
 1537              		.cfi_offset 14, -4
 1538              	.LBB270:
 1539              	.LBB271:
1089:Generated_Source\PSoC6\pdl\drivers\peripheral\scb/cy_scb_common.h **** }
 1540              		.loc 2 1089 0
 1541 0002 134A     		ldr	r2, .L149
 1542              	.LBE271:
 1543              	.LBE270:
 1544              	.LBB274:
 1545              	.LBB275:
1145:Generated_Source\PSoC6\pdl\drivers\peripheral\scb/cy_scb_common.h ****     (void) SCB_INTR_TX(base);
 1546              		.loc 2 1145 0
 1547 0004 F824     		movs	r4, #248
 1548              	.LBE275:
 1549              	.LBE274:
 1550              	.LBB279:
 1551              	.LBB272:
1089:Generated_Source\PSoC6\pdl\drivers\peripheral\scb/cy_scb_common.h **** }
 1552              		.loc 2 1089 0
 1553 0006 8358     		ldr	r3, [r0, r2]
 1554              	.LBE272:
 1555              	.LBE279:
 1556              	.LBB280:
 1557              	.LBB281:
1068:Generated_Source\PSoC6\pdl\drivers\peripheral\scb/cy_scb_common.h **** }
 1558              		.loc 2 1068 0
ARM GAS  C:\Users\pearlstl\AppData\Local\Temp\ccAUXqAU.s 			page 98


 1559 0008 0026     		movs	r6, #0
 1560              	.LBE281:
 1561              	.LBE280:
 1562              	.LBB283:
 1563              	.LBB273:
1089:Generated_Source\PSoC6\pdl\drivers\peripheral\scb/cy_scb_common.h **** }
 1564              		.loc 2 1089 0
 1565 000a 0193     		str	r3, [sp, #4]
 1566              	.LVL120:
 1567              	.LBE273:
 1568              	.LBE283:
 1569              	.LBB284:
 1570              	.LBB276:
1145:Generated_Source\PSoC6\pdl\drivers\peripheral\scb/cy_scb_common.h ****     (void) SCB_INTR_TX(base);
 1571              		.loc 2 1145 0
 1572 000c 8023     		movs	r3, #128
 1573              	.LBE276:
 1574              	.LBE284:
1026:Generated_Source\PSoC6\pdl\drivers\peripheral\scb/cy_scb_uart.c ****     uint32_t txCtrlReg;
1027:Generated_Source\PSoC6\pdl\drivers\peripheral\scb/cy_scb_uart.c ****     uint32_t txIntrReg;
1028:Generated_Source\PSoC6\pdl\drivers\peripheral\scb/cy_scb_uart.c **** 
1029:Generated_Source\PSoC6\pdl\drivers\peripheral\scb/cy_scb_uart.c ****     CY_ASSERT_L2(CY_SCB_UART_IS_TX_BREAK_WIDTH_VALID(breakWidth));
1030:Generated_Source\PSoC6\pdl\drivers\peripheral\scb/cy_scb_uart.c **** 
1031:Generated_Source\PSoC6\pdl\drivers\peripheral\scb/cy_scb_uart.c ****     /* Disable all UART TX interrupt sources and clear UART TX Done history */
1032:Generated_Source\PSoC6\pdl\drivers\peripheral\scb/cy_scb_uart.c ****     txIntrReg = Cy_SCB_GetTxInterruptMask(base);
1033:Generated_Source\PSoC6\pdl\drivers\peripheral\scb/cy_scb_uart.c ****     Cy_SCB_SetTxInterruptMask(base, 0UL);
1034:Generated_Source\PSoC6\pdl\drivers\peripheral\scb/cy_scb_uart.c ****     Cy_SCB_ClearTxInterrupt(base, CY_SCB_TX_INTR_UART_DONE);
1035:Generated_Source\PSoC6\pdl\drivers\peripheral\scb/cy_scb_uart.c **** 
1036:Generated_Source\PSoC6\pdl\drivers\peripheral\scb/cy_scb_uart.c ****     /* Store TX_CTRL configuration */
1037:Generated_Source\PSoC6\pdl\drivers\peripheral\scb/cy_scb_uart.c ****     txCtrlReg = SCB_TX_CTRL(base);
1038:Generated_Source\PSoC6\pdl\drivers\peripheral\scb/cy_scb_uart.c **** 
1039:Generated_Source\PSoC6\pdl\drivers\peripheral\scb/cy_scb_uart.c ****     /* Set break width: start bit adds one 0 bit */
1040:Generated_Source\PSoC6\pdl\drivers\peripheral\scb/cy_scb_uart.c ****     CY_REG32_CLR_SET(SCB_TX_CTRL(base), SCB_TX_CTRL_DATA_WIDTH, (breakWidth - 1UL));
 1575              		.loc 1 1040 0
 1576 000e 0F27     		movs	r7, #15
 1577              	.LBB285:
 1578              	.LBB277:
1145:Generated_Source\PSoC6\pdl\drivers\peripheral\scb/cy_scb_common.h ****     (void) SCB_INTR_TX(base);
 1579              		.loc 2 1145 0
 1580 0010 9B00     		lsls	r3, r3, #2
 1581 0012 2401     		lsls	r4, r4, #4
 1582              	.LBE277:
 1583              	.LBE285:
 1584              	.LBB286:
 1585              	.LBB282:
1068:Generated_Source\PSoC6\pdl\drivers\peripheral\scb/cy_scb_common.h **** }
 1586              		.loc 2 1068 0
 1587 0014 8650     		str	r6, [r0, r2]
 1588              	.LVL121:
 1589              	.LBE282:
 1590              	.LBE286:
 1591              	.LBB287:
 1592              	.LBB278:
1145:Generated_Source\PSoC6\pdl\drivers\peripheral\scb/cy_scb_common.h ****     (void) SCB_INTR_TX(base);
 1593              		.loc 2 1145 0
 1594 0016 0351     		str	r3, [r0, r4]
1146:Generated_Source\PSoC6\pdl\drivers\peripheral\scb/cy_scb_common.h **** }
ARM GAS  C:\Users\pearlstl\AppData\Local\Temp\ccAUXqAU.s 			page 99


 1595              		.loc 2 1146 0
 1596 0018 0559     		ldr	r5, [r0, r4]
 1597              	.LVL122:
 1598              	.LBE278:
 1599              	.LBE287:
1037:Generated_Source\PSoC6\pdl\drivers\peripheral\scb/cy_scb_uart.c **** 
 1600              		.loc 1 1037 0
 1601 001a C558     		ldr	r5, [r0, r3]
 1602              		.loc 1 1040 0
 1603 001c 0139     		subs	r1, r1, #1
 1604              	.LVL123:
1037:Generated_Source\PSoC6\pdl\drivers\peripheral\scb/cy_scb_uart.c **** 
 1605              		.loc 1 1037 0
 1606 001e AC46     		mov	ip, r5
 1607              	.LVL124:
 1608              		.loc 1 1040 0
 1609 0020 C558     		ldr	r5, [r0, r3]
 1610              	.LVL125:
 1611 0022 3940     		ands	r1, r7
 1612              	.LVL126:
 1613 0024 BD43     		bics	r5, r7
 1614 0026 2943     		orrs	r1, r5
 1615 0028 C150     		str	r1, [r0, r3]
 1616              	.LVL127:
 1617              	.LBB288:
 1618              	.LBB289:
 723:Generated_Source\PSoC6\pdl\drivers\peripheral\scb/cy_scb_common.h **** }
 1619              		.loc 2 723 0
 1620 002a 9021     		movs	r1, #144
 1621 002c 8900     		lsls	r1, r1, #2
 1622 002e 4650     		str	r6, [r0, r1]
 1623              	.L146:
 1624              	.LVL128:
 1625              	.LBE289:
 1626              	.LBE288:
 1627              	.LBB290:
 1628              	.LBB291:
1045:Generated_Source\PSoC6\pdl\drivers\peripheral\scb/cy_scb_common.h **** }
 1629              		.loc 2 1045 0 discriminator 1
 1630 0030 F821     		movs	r1, #248
 1631 0032 0559     		ldr	r5, [r0, r4]
 1632              	.LVL129:
 1633 0034 0901     		lsls	r1, r1, #4
 1634              	.LBE291:
 1635              	.LBE290:
1041:Generated_Source\PSoC6\pdl\drivers\peripheral\scb/cy_scb_uart.c **** 
1042:Generated_Source\PSoC6\pdl\drivers\peripheral\scb/cy_scb_uart.c ****     /* Generate break */
1043:Generated_Source\PSoC6\pdl\drivers\peripheral\scb/cy_scb_uart.c ****     Cy_SCB_WriteTxFifo(base, 0UL);
1044:Generated_Source\PSoC6\pdl\drivers\peripheral\scb/cy_scb_uart.c **** 
1045:Generated_Source\PSoC6\pdl\drivers\peripheral\scb/cy_scb_uart.c ****     /* Wait for break completion */
1046:Generated_Source\PSoC6\pdl\drivers\peripheral\scb/cy_scb_uart.c ****     while (0UL == (Cy_SCB_GetTxInterruptStatus(base) & CY_SCB_TX_INTR_UART_DONE))
 1636              		.loc 1 1046 0 discriminator 1
 1637 0036 1D42     		tst	r5, r3
 1638 0038 FAD0     		beq	.L146
 1639              	.LVL130:
 1640              	.LBB292:
 1641              	.LBB293:
ARM GAS  C:\Users\pearlstl\AppData\Local\Temp\ccAUXqAU.s 			page 100


1145:Generated_Source\PSoC6\pdl\drivers\peripheral\scb/cy_scb_common.h ****     (void) SCB_INTR_TX(base);
 1642              		.loc 2 1145 0
 1643 003a 064B     		ldr	r3, .L149+4
 1644              	.LBE293:
 1645              	.LBE292:
1047:Generated_Source\PSoC6\pdl\drivers\peripheral\scb/cy_scb_uart.c ****     {
1048:Generated_Source\PSoC6\pdl\drivers\peripheral\scb/cy_scb_uart.c ****     }
1049:Generated_Source\PSoC6\pdl\drivers\peripheral\scb/cy_scb_uart.c **** 
1050:Generated_Source\PSoC6\pdl\drivers\peripheral\scb/cy_scb_uart.c ****     /* Clear all UART TX interrupt sources */
1051:Generated_Source\PSoC6\pdl\drivers\peripheral\scb/cy_scb_uart.c ****     Cy_SCB_ClearTxInterrupt(base, CY_SCB_TX_INTR_MASK);
1052:Generated_Source\PSoC6\pdl\drivers\peripheral\scb/cy_scb_uart.c **** 
1053:Generated_Source\PSoC6\pdl\drivers\peripheral\scb/cy_scb_uart.c ****     /* Restore TX data width and interrupt sources */
1054:Generated_Source\PSoC6\pdl\drivers\peripheral\scb/cy_scb_uart.c ****     SCB_TX_CTRL(base) = txCtrlReg;
1055:Generated_Source\PSoC6\pdl\drivers\peripheral\scb/cy_scb_uart.c ****     Cy_SCB_SetTxInterruptMask(base, txIntrReg);
1056:Generated_Source\PSoC6\pdl\drivers\peripheral\scb/cy_scb_uart.c **** }
 1646              		.loc 1 1056 0
 1647              		@ sp needed
 1648              	.LBB295:
 1649              	.LBB294:
1145:Generated_Source\PSoC6\pdl\drivers\peripheral\scb/cy_scb_common.h ****     (void) SCB_INTR_TX(base);
 1650              		.loc 2 1145 0
 1651 003c 4350     		str	r3, [r0, r1]
1146:Generated_Source\PSoC6\pdl\drivers\peripheral\scb/cy_scb_common.h **** }
 1652              		.loc 2 1146 0
 1653 003e 4358     		ldr	r3, [r0, r1]
 1654              	.LVL131:
 1655              	.LBE294:
 1656              	.LBE295:
1054:Generated_Source\PSoC6\pdl\drivers\peripheral\scb/cy_scb_uart.c ****     Cy_SCB_SetTxInterruptMask(base, txIntrReg);
 1657              		.loc 1 1054 0
 1658 0040 8023     		movs	r3, #128
 1659 0042 6146     		mov	r1, ip
 1660 0044 9B00     		lsls	r3, r3, #2
 1661 0046 C150     		str	r1, [r0, r3]
 1662              	.LVL132:
 1663              	.LBB296:
 1664              	.LBB297:
1068:Generated_Source\PSoC6\pdl\drivers\peripheral\scb/cy_scb_common.h **** }
 1665              		.loc 2 1068 0
 1666 0048 019B     		ldr	r3, [sp, #4]
 1667 004a 8350     		str	r3, [r0, r2]
 1668              	.LVL133:
 1669              	.LBE297:
 1670              	.LBE296:
 1671              		.loc 1 1056 0
 1672 004c F7BD     		pop	{r0, r1, r2, r4, r5, r6, r7, pc}
 1673              	.L150:
 1674 004e C046     		.align	2
 1675              	.L149:
 1676 0050 880F0000 		.word	3976
 1677 0054 73070000 		.word	1907
 1678              		.cfi_endproc
 1679              	.LFE172:
 1680              		.size	Cy_SCB_UART_SendBreakBlocking, .-Cy_SCB_UART_SendBreakBlocking
 1681              		.section	.text.Cy_SCB_UART_Interrupt,"ax",%progbits
 1682              		.align	1
 1683              		.global	Cy_SCB_UART_Interrupt
ARM GAS  C:\Users\pearlstl\AppData\Local\Temp\ccAUXqAU.s 			page 101


 1684              		.code	16
 1685              		.thumb_func
 1686              		.type	Cy_SCB_UART_Interrupt, %function
 1687              	Cy_SCB_UART_Interrupt:
 1688              	.LFB173:
1057:Generated_Source\PSoC6\pdl\drivers\peripheral\scb/cy_scb_uart.c **** 
1058:Generated_Source\PSoC6\pdl\drivers\peripheral\scb/cy_scb_uart.c **** 
1059:Generated_Source\PSoC6\pdl\drivers\peripheral\scb/cy_scb_uart.c **** /*******************************************************************************
1060:Generated_Source\PSoC6\pdl\drivers\peripheral\scb/cy_scb_uart.c **** * Function Name: Cy_SCB_UART_Interrupt
1061:Generated_Source\PSoC6\pdl\drivers\peripheral\scb/cy_scb_uart.c **** ****************************************************************************//**
1062:Generated_Source\PSoC6\pdl\drivers\peripheral\scb/cy_scb_uart.c **** *
1063:Generated_Source\PSoC6\pdl\drivers\peripheral\scb/cy_scb_uart.c **** * This is the interrupt function for the SCB configured in the UART mode.
1064:Generated_Source\PSoC6\pdl\drivers\peripheral\scb/cy_scb_uart.c **** * This function must be called inside a user-defined interrupt service
1065:Generated_Source\PSoC6\pdl\drivers\peripheral\scb/cy_scb_uart.c **** * routine to make \ref Cy_SCB_UART_Transmit and \ref Cy_SCB_UART_Receive
1066:Generated_Source\PSoC6\pdl\drivers\peripheral\scb/cy_scb_uart.c **** * work. The ring buffer operation that enabled by calling \ref Cy_SCB_UART_StartRingBuffer 
1067:Generated_Source\PSoC6\pdl\drivers\peripheral\scb/cy_scb_uart.c **** * also requires interrupt processing.
1068:Generated_Source\PSoC6\pdl\drivers\peripheral\scb/cy_scb_uart.c **** *
1069:Generated_Source\PSoC6\pdl\drivers\peripheral\scb/cy_scb_uart.c **** * \param base
1070:Generated_Source\PSoC6\pdl\drivers\peripheral\scb/cy_scb_uart.c **** * The pointer to the UART SCB instance.
1071:Generated_Source\PSoC6\pdl\drivers\peripheral\scb/cy_scb_uart.c **** *
1072:Generated_Source\PSoC6\pdl\drivers\peripheral\scb/cy_scb_uart.c **** * \param context
1073:Generated_Source\PSoC6\pdl\drivers\peripheral\scb/cy_scb_uart.c **** * The pointer to the context structure \ref cy_stc_scb_uart_context_t allocated
1074:Generated_Source\PSoC6\pdl\drivers\peripheral\scb/cy_scb_uart.c **** * by the user. The structure is used during the UART operation for internal
1075:Generated_Source\PSoC6\pdl\drivers\peripheral\scb/cy_scb_uart.c **** * configuration and data retention. The user must not modify anything
1076:Generated_Source\PSoC6\pdl\drivers\peripheral\scb/cy_scb_uart.c **** * in this structure.
1077:Generated_Source\PSoC6\pdl\drivers\peripheral\scb/cy_scb_uart.c **** *
1078:Generated_Source\PSoC6\pdl\drivers\peripheral\scb/cy_scb_uart.c **** *******************************************************************************/
1079:Generated_Source\PSoC6\pdl\drivers\peripheral\scb/cy_scb_uart.c **** void Cy_SCB_UART_Interrupt(CySCB_Type *base, cy_stc_scb_uart_context_t *context)
1080:Generated_Source\PSoC6\pdl\drivers\peripheral\scb/cy_scb_uart.c **** {
 1689              		.loc 1 1080 0
 1690              		.cfi_startproc
 1691              		@ args = 0, pretend = 0, frame = 8
 1692              		@ frame_needed = 0, uses_anonymous_args = 0
 1693              	.LVL134:
 1694              	.LBB380:
 1695              	.LBB381:
 878:Generated_Source\PSoC6\pdl\drivers\peripheral\scb/cy_scb_common.h **** }
 1696              		.loc 2 878 0
 1697 0000 E023     		movs	r3, #224
 1698 0002 1B01     		lsls	r3, r3, #4
 1699 0004 C358     		ldr	r3, [r0, r3]
 1700              	.LVL135:
 1701              	.LBE381:
 1702              	.LBE380:
 1703              		.loc 1 1080 0
 1704 0006 F7B5     		push	{r0, r1, r2, r4, r5, r6, r7, lr}
 1705              		.cfi_def_cfa_offset 32
 1706              		.cfi_offset 0, -32
 1707              		.cfi_offset 1, -28
 1708              		.cfi_offset 2, -24
 1709              		.cfi_offset 4, -20
 1710              		.cfi_offset 5, -16
 1711              		.cfi_offset 6, -12
 1712              		.cfi_offset 7, -8
 1713              		.cfi_offset 14, -4
 1714              		.loc 1 1080 0
 1715 0008 0500     		movs	r5, r0
ARM GAS  C:\Users\pearlstl\AppData\Local\Temp\ccAUXqAU.s 			page 102


 1716 000a 0C00     		movs	r4, r1
1081:Generated_Source\PSoC6\pdl\drivers\peripheral\scb/cy_scb_uart.c ****     if (0UL != (CY_SCB_RX_INTR & Cy_SCB_GetInterruptCause(base)))
 1717              		.loc 1 1081 0
 1718 000c 1B07     		lsls	r3, r3, #28
 1719 000e 00D4     		bmi	.LCB1594
 1720 0010 BDE0     		b	.L153	@long jump
 1721              	.LCB1594:
 1722              	.LVL136:
 1723              	.LBB382:
1082:Generated_Source\PSoC6\pdl\drivers\peripheral\scb/cy_scb_uart.c ****     {
1083:Generated_Source\PSoC6\pdl\drivers\peripheral\scb/cy_scb_uart.c ****         /* Get RX error events: a frame error, parity error, and overflow */
1084:Generated_Source\PSoC6\pdl\drivers\peripheral\scb/cy_scb_uart.c ****         uint32_t locRxErr = (CY_SCB_UART_RECEIVE_ERR & Cy_SCB_GetRxInterruptStatusMasked(base));
 1724              		.loc 1 1084 0
 1725 0012 C823     		movs	r3, #200
 1726              	.LBB383:
 1727              	.LBB384:
 969:Generated_Source\PSoC6\pdl\drivers\peripheral\scb/cy_scb_common.h **** }
 1728              		.loc 2 969 0
 1729 0014 9E4E     		ldr	r6, .L234
 1730              	.LBE384:
 1731              	.LBE383:
 1732              		.loc 1 1084 0
 1733 0016 9B00     		lsls	r3, r3, #2
 1734              	.LBB386:
 1735              	.LBB385:
 969:Generated_Source\PSoC6\pdl\drivers\peripheral\scb/cy_scb_common.h **** }
 1736              		.loc 2 969 0
 1737 0018 8259     		ldr	r2, [r0, r6]
 1738              	.LVL137:
 1739              	.LBE385:
 1740              	.LBE386:
 1741              		.loc 1 1084 0
 1742 001a 1340     		ands	r3, r2
 1743              	.LVL138:
1085:Generated_Source\PSoC6\pdl\drivers\peripheral\scb/cy_scb_uart.c **** 
1086:Generated_Source\PSoC6\pdl\drivers\peripheral\scb/cy_scb_uart.c ****         /* Handle the error conditions */
1087:Generated_Source\PSoC6\pdl\drivers\peripheral\scb/cy_scb_uart.c ****         if (0UL != locRxErr)
 1744              		.loc 1 1087 0
 1745 001c 0BD0     		beq	.L155
1088:Generated_Source\PSoC6\pdl\drivers\peripheral\scb/cy_scb_uart.c ****         {
1089:Generated_Source\PSoC6\pdl\drivers\peripheral\scb/cy_scb_uart.c ****             context->rxStatus |= locRxErr;
 1746              		.loc 1 1089 0
 1747 001e 4A68     		ldr	r2, [r1, #4]
 1748 0020 1A43     		orrs	r2, r3
 1749 0022 4A60     		str	r2, [r1, #4]
 1750              	.LVL139:
 1751              	.LBB387:
 1752              	.LBB388:
 999:Generated_Source\PSoC6\pdl\drivers\peripheral\scb/cy_scb_common.h ****     (void) SCB_INTR_RX(base);
 1753              		.loc 2 999 0
 1754 0024 FC22     		movs	r2, #252
 1755 0026 1201     		lsls	r2, r2, #4
 1756 0028 8350     		str	r3, [r0, r2]
1000:Generated_Source\PSoC6\pdl\drivers\peripheral\scb/cy_scb_common.h **** }
 1757              		.loc 2 1000 0
 1758 002a 8358     		ldr	r3, [r0, r2]
 1759              	.LVL140:
ARM GAS  C:\Users\pearlstl\AppData\Local\Temp\ccAUXqAU.s 			page 103


 1760              	.LBE388:
 1761              	.LBE387:
1090:Generated_Source\PSoC6\pdl\drivers\peripheral\scb/cy_scb_uart.c **** 
1091:Generated_Source\PSoC6\pdl\drivers\peripheral\scb/cy_scb_uart.c ****             Cy_SCB_ClearRxInterrupt(base, locRxErr);
1092:Generated_Source\PSoC6\pdl\drivers\peripheral\scb/cy_scb_uart.c **** 
1093:Generated_Source\PSoC6\pdl\drivers\peripheral\scb/cy_scb_uart.c ****             if (NULL != context->cbEvents)
 1762              		.loc 1 1093 0
 1763 002c 0B6B     		ldr	r3, [r1, #48]
 1764 002e 002B     		cmp	r3, #0
 1765 0030 01D0     		beq	.L155
1094:Generated_Source\PSoC6\pdl\drivers\peripheral\scb/cy_scb_uart.c ****             {
1095:Generated_Source\PSoC6\pdl\drivers\peripheral\scb/cy_scb_uart.c ****                 context->cbEvents(CY_SCB_UART_RECEIVE_ERR_EVENT);
 1766              		.loc 1 1095 0
 1767 0032 1020     		movs	r0, #16
 1768              	.LVL141:
 1769 0034 9847     		blx	r3
 1770              	.LVL142:
 1771              	.L155:
1096:Generated_Source\PSoC6\pdl\drivers\peripheral\scb/cy_scb_uart.c ****             }
1097:Generated_Source\PSoC6\pdl\drivers\peripheral\scb/cy_scb_uart.c ****         }
1098:Generated_Source\PSoC6\pdl\drivers\peripheral\scb/cy_scb_uart.c **** 
1099:Generated_Source\PSoC6\pdl\drivers\peripheral\scb/cy_scb_uart.c ****         /* Break the detect */
1100:Generated_Source\PSoC6\pdl\drivers\peripheral\scb/cy_scb_uart.c ****         if (0UL != (CY_SCB_RX_INTR_UART_BREAK_DETECT & Cy_SCB_GetRxInterruptStatusMasked(base)))
 1772              		.loc 1 1100 0
 1773 0036 8023     		movs	r3, #128
 1774              	.LBB389:
 1775              	.LBB390:
 969:Generated_Source\PSoC6\pdl\drivers\peripheral\scb/cy_scb_common.h **** }
 1776              		.loc 2 969 0
 1777 0038 AA59     		ldr	r2, [r5, r6]
 1778              	.LVL143:
 1779              	.LBE390:
 1780              	.LBE389:
 1781              		.loc 1 1100 0
 1782 003a 1B01     		lsls	r3, r3, #4
 1783 003c 1A42     		tst	r2, r3
 1784 003e 06D0     		beq	.L157
1101:Generated_Source\PSoC6\pdl\drivers\peripheral\scb/cy_scb_uart.c ****         {
1102:Generated_Source\PSoC6\pdl\drivers\peripheral\scb/cy_scb_uart.c ****             context->rxStatus |= CY_SCB_UART_RECEIVE_BREAK_DETECT;
 1785              		.loc 1 1102 0
 1786 0040 6268     		ldr	r2, [r4, #4]
 1787 0042 1A43     		orrs	r2, r3
 1788 0044 6260     		str	r2, [r4, #4]
 1789              	.LVL144:
 1790              	.LBB391:
 1791              	.LBB392:
 999:Generated_Source\PSoC6\pdl\drivers\peripheral\scb/cy_scb_common.h ****     (void) SCB_INTR_RX(base);
 1792              		.loc 2 999 0
 1793 0046 FC22     		movs	r2, #252
 1794 0048 1201     		lsls	r2, r2, #4
 1795 004a AB50     		str	r3, [r5, r2]
1000:Generated_Source\PSoC6\pdl\drivers\peripheral\scb/cy_scb_common.h **** }
 1796              		.loc 2 1000 0
 1797 004c AB58     		ldr	r3, [r5, r2]
 1798              	.LVL145:
 1799              	.L157:
 1800              	.LBE392:
ARM GAS  C:\Users\pearlstl\AppData\Local\Temp\ccAUXqAU.s 			page 104


 1801              	.LBE391:
 1802              	.LBB393:
 1803              	.LBB394:
 969:Generated_Source\PSoC6\pdl\drivers\peripheral\scb/cy_scb_common.h **** }
 1804              		.loc 2 969 0
 1805 004e AB59     		ldr	r3, [r5, r6]
 1806              	.LVL146:
 1807              	.LBE394:
 1808              	.LBE393:
1103:Generated_Source\PSoC6\pdl\drivers\peripheral\scb/cy_scb_uart.c **** 
1104:Generated_Source\PSoC6\pdl\drivers\peripheral\scb/cy_scb_uart.c ****             Cy_SCB_ClearRxInterrupt(base, CY_SCB_RX_INTR_UART_BREAK_DETECT);
1105:Generated_Source\PSoC6\pdl\drivers\peripheral\scb/cy_scb_uart.c ****         }
1106:Generated_Source\PSoC6\pdl\drivers\peripheral\scb/cy_scb_uart.c **** 
1107:Generated_Source\PSoC6\pdl\drivers\peripheral\scb/cy_scb_uart.c ****         /* Copy the received data */
1108:Generated_Source\PSoC6\pdl\drivers\peripheral\scb/cy_scb_uart.c ****         if (0UL != (CY_SCB_RX_INTR_LEVEL & Cy_SCB_GetRxInterruptStatusMasked(base)))
 1809              		.loc 1 1108 0
 1810 0050 DB07     		lsls	r3, r3, #31
 1811 0052 00D4     		bmi	.LCB1683
 1812 0054 9BE0     		b	.L153	@long jump
 1813              	.LCB1683:
1109:Generated_Source\PSoC6\pdl\drivers\peripheral\scb/cy_scb_uart.c ****         {
1110:Generated_Source\PSoC6\pdl\drivers\peripheral\scb/cy_scb_uart.c ****             if (context->rxBufSize > 0UL)
 1814              		.loc 1 1110 0
 1815 0056 E269     		ldr	r2, [r4, #28]
 1816 0058 002A     		cmp	r2, #0
 1817 005a 3FD0     		beq	.L159
 1818              	.LVL147:
 1819              	.LBB395:
 1820              	.LBB396:
 1821              	.LBB397:
 1822              	.LBB398:
1690:Generated_Source\PSoC6\pdl\drivers\peripheral\scb/cy_scb_common.h ****                 (CY_SCB_FIFO_SIZE) : (CY_SCB_FIFO_SIZE / 2UL));
 1823              		.loc 2 1690 0
 1824 005c 2B68     		ldr	r3, [r5]
1691:Generated_Source\PSoC6\pdl\drivers\peripheral\scb/cy_scb_common.h **** }
 1825              		.loc 2 1691 0
 1826 005e 8026     		movs	r6, #128
 1827 0060 1B05     		lsls	r3, r3, #20
 1828 0062 00D4     		bmi	.L160
 1829 0064 403E     		subs	r6, r6, #64
 1830              	.L160:
 1831              	.LVL148:
 1832              	.LBE398:
 1833              	.LBE397:
 1834              	.LBB399:
 1835              	.LBB400:
1046:Generated_Source\PSoC6\pdl\drivers\peripheral\scb/cy_scb_uart.h **** }
1047:Generated_Source\PSoC6\pdl\drivers\peripheral\scb/cy_scb_uart.h **** 
1048:Generated_Source\PSoC6\pdl\drivers\peripheral\scb/cy_scb_uart.h **** 
1049:Generated_Source\PSoC6\pdl\drivers\peripheral\scb/cy_scb_uart.h **** /*******************************************************************************
1050:Generated_Source\PSoC6\pdl\drivers\peripheral\scb/cy_scb_uart.h **** * Function Name: Cy_SCB_UART_EnableCts
1051:Generated_Source\PSoC6\pdl\drivers\peripheral\scb/cy_scb_uart.h **** ****************************************************************************//**
1052:Generated_Source\PSoC6\pdl\drivers\peripheral\scb/cy_scb_uart.h **** *
1053:Generated_Source\PSoC6\pdl\drivers\peripheral\scb/cy_scb_uart.h **** * Enables the Clear to Send (CTS) input for the UART. The UART will not transmit
1054:Generated_Source\PSoC6\pdl\drivers\peripheral\scb/cy_scb_uart.h **** * data while this signal is inactive.
1055:Generated_Source\PSoC6\pdl\drivers\peripheral\scb/cy_scb_uart.h **** *
1056:Generated_Source\PSoC6\pdl\drivers\peripheral\scb/cy_scb_uart.h **** * \param base
ARM GAS  C:\Users\pearlstl\AppData\Local\Temp\ccAUXqAU.s 			page 105


1057:Generated_Source\PSoC6\pdl\drivers\peripheral\scb/cy_scb_uart.h **** * The pointer to the UART SCB instance.
1058:Generated_Source\PSoC6\pdl\drivers\peripheral\scb/cy_scb_uart.h **** *
1059:Generated_Source\PSoC6\pdl\drivers\peripheral\scb/cy_scb_uart.h **** *******************************************************************************/
1060:Generated_Source\PSoC6\pdl\drivers\peripheral\scb/cy_scb_uart.h **** __STATIC_INLINE void Cy_SCB_UART_EnableCts(CySCB_Type *base)
1061:Generated_Source\PSoC6\pdl\drivers\peripheral\scb/cy_scb_uart.h **** {
1062:Generated_Source\PSoC6\pdl\drivers\peripheral\scb/cy_scb_uart.h ****     SCB_UART_FLOW_CTRL(base) |= SCB_UART_FLOW_CTRL_CTS_ENABLED_Msk;
1063:Generated_Source\PSoC6\pdl\drivers\peripheral\scb/cy_scb_uart.h **** }
1064:Generated_Source\PSoC6\pdl\drivers\peripheral\scb/cy_scb_uart.h **** 
1065:Generated_Source\PSoC6\pdl\drivers\peripheral\scb/cy_scb_uart.h **** 
1066:Generated_Source\PSoC6\pdl\drivers\peripheral\scb/cy_scb_uart.h **** /*******************************************************************************
1067:Generated_Source\PSoC6\pdl\drivers\peripheral\scb/cy_scb_uart.h **** * Function Name: Cy_SCB_UART_DisableCts
1068:Generated_Source\PSoC6\pdl\drivers\peripheral\scb/cy_scb_uart.h **** ****************************************************************************//**
1069:Generated_Source\PSoC6\pdl\drivers\peripheral\scb/cy_scb_uart.h **** *
1070:Generated_Source\PSoC6\pdl\drivers\peripheral\scb/cy_scb_uart.h **** * Disables the Clear to Send (CTS) input for the UART.
1071:Generated_Source\PSoC6\pdl\drivers\peripheral\scb/cy_scb_uart.h **** * See \ref Cy_SCB_UART_EnableCts for the details.
1072:Generated_Source\PSoC6\pdl\drivers\peripheral\scb/cy_scb_uart.h **** *
1073:Generated_Source\PSoC6\pdl\drivers\peripheral\scb/cy_scb_uart.h **** * \param base
1074:Generated_Source\PSoC6\pdl\drivers\peripheral\scb/cy_scb_uart.h **** * The pointer to the UART SCB instance.
1075:Generated_Source\PSoC6\pdl\drivers\peripheral\scb/cy_scb_uart.h **** *
1076:Generated_Source\PSoC6\pdl\drivers\peripheral\scb/cy_scb_uart.h **** *******************************************************************************/
1077:Generated_Source\PSoC6\pdl\drivers\peripheral\scb/cy_scb_uart.h **** __STATIC_INLINE void Cy_SCB_UART_DisableCts(CySCB_Type *base)
1078:Generated_Source\PSoC6\pdl\drivers\peripheral\scb/cy_scb_uart.h **** {
1079:Generated_Source\PSoC6\pdl\drivers\peripheral\scb/cy_scb_uart.h ****     SCB_UART_FLOW_CTRL(base) &= (uint32_t) ~SCB_UART_FLOW_CTRL_CTS_ENABLED_Msk;
1080:Generated_Source\PSoC6\pdl\drivers\peripheral\scb/cy_scb_uart.h **** }
1081:Generated_Source\PSoC6\pdl\drivers\peripheral\scb/cy_scb_uart.h **** 
1082:Generated_Source\PSoC6\pdl\drivers\peripheral\scb/cy_scb_uart.h **** 
1083:Generated_Source\PSoC6\pdl\drivers\peripheral\scb/cy_scb_uart.h **** /*******************************************************************************
1084:Generated_Source\PSoC6\pdl\drivers\peripheral\scb/cy_scb_uart.h **** * Function Name: Cy_SCB_UART_SetRtsFifoLevel
1085:Generated_Source\PSoC6\pdl\drivers\peripheral\scb/cy_scb_uart.h **** ****************************************************************************//**
1086:Generated_Source\PSoC6\pdl\drivers\peripheral\scb/cy_scb_uart.h **** *
1087:Generated_Source\PSoC6\pdl\drivers\peripheral\scb/cy_scb_uart.h **** * Sets a level for the Ready To Send (RTS) signal activation.
1088:Generated_Source\PSoC6\pdl\drivers\peripheral\scb/cy_scb_uart.h **** * When the number of data elements in the receive FIFO is below this level,
1089:Generated_Source\PSoC6\pdl\drivers\peripheral\scb/cy_scb_uart.h **** * then the RTS output is active. Otherwise, the RTS signal is inactive.
1090:Generated_Source\PSoC6\pdl\drivers\peripheral\scb/cy_scb_uart.h **** * To disable the RTS signal generation, set this level to zero.
1091:Generated_Source\PSoC6\pdl\drivers\peripheral\scb/cy_scb_uart.h **** *
1092:Generated_Source\PSoC6\pdl\drivers\peripheral\scb/cy_scb_uart.h **** * \param base
1093:Generated_Source\PSoC6\pdl\drivers\peripheral\scb/cy_scb_uart.h **** * The pointer to the UART SCB instance.
1094:Generated_Source\PSoC6\pdl\drivers\peripheral\scb/cy_scb_uart.h **** *
1095:Generated_Source\PSoC6\pdl\drivers\peripheral\scb/cy_scb_uart.h **** * \param level
1096:Generated_Source\PSoC6\pdl\drivers\peripheral\scb/cy_scb_uart.h **** * The level in the RX FIFO for RTS signal activation.
1097:Generated_Source\PSoC6\pdl\drivers\peripheral\scb/cy_scb_uart.h **** *
1098:Generated_Source\PSoC6\pdl\drivers\peripheral\scb/cy_scb_uart.h **** *******************************************************************************/
1099:Generated_Source\PSoC6\pdl\drivers\peripheral\scb/cy_scb_uart.h **** __STATIC_INLINE void Cy_SCB_UART_SetRtsFifoLevel(CySCB_Type *base, uint32_t level)
1100:Generated_Source\PSoC6\pdl\drivers\peripheral\scb/cy_scb_uart.h **** {
1101:Generated_Source\PSoC6\pdl\drivers\peripheral\scb/cy_scb_uart.h ****     CY_ASSERT_L2(CY_SCB_IS_TRIGGER_LEVEL_VALID(base, level));
1102:Generated_Source\PSoC6\pdl\drivers\peripheral\scb/cy_scb_uart.h **** 
1103:Generated_Source\PSoC6\pdl\drivers\peripheral\scb/cy_scb_uart.h ****     CY_REG32_CLR_SET(SCB_UART_FLOW_CTRL(base), SCB_UART_FLOW_CTRL_TRIGGER_LEVEL, level);
1104:Generated_Source\PSoC6\pdl\drivers\peripheral\scb/cy_scb_uart.h **** }
1105:Generated_Source\PSoC6\pdl\drivers\peripheral\scb/cy_scb_uart.h **** 
1106:Generated_Source\PSoC6\pdl\drivers\peripheral\scb/cy_scb_uart.h **** 
1107:Generated_Source\PSoC6\pdl\drivers\peripheral\scb/cy_scb_uart.h **** /*******************************************************************************
1108:Generated_Source\PSoC6\pdl\drivers\peripheral\scb/cy_scb_uart.h **** * Function Name: Cy_SCB_UART_GetRtsFifoLevel
1109:Generated_Source\PSoC6\pdl\drivers\peripheral\scb/cy_scb_uart.h **** ****************************************************************************//**
1110:Generated_Source\PSoC6\pdl\drivers\peripheral\scb/cy_scb_uart.h **** *
1111:Generated_Source\PSoC6\pdl\drivers\peripheral\scb/cy_scb_uart.h **** * Returns the level in the RX FIFO for the RTS signal activation.
1112:Generated_Source\PSoC6\pdl\drivers\peripheral\scb/cy_scb_uart.h **** *
1113:Generated_Source\PSoC6\pdl\drivers\peripheral\scb/cy_scb_uart.h **** * \param base
ARM GAS  C:\Users\pearlstl\AppData\Local\Temp\ccAUXqAU.s 			page 106


1114:Generated_Source\PSoC6\pdl\drivers\peripheral\scb/cy_scb_uart.h **** * The pointer to the UART SCB instance.
1115:Generated_Source\PSoC6\pdl\drivers\peripheral\scb/cy_scb_uart.h **** *
1116:Generated_Source\PSoC6\pdl\drivers\peripheral\scb/cy_scb_uart.h **** * \return
1117:Generated_Source\PSoC6\pdl\drivers\peripheral\scb/cy_scb_uart.h **** * The level in the RX FIFO for RTS signal activation.
1118:Generated_Source\PSoC6\pdl\drivers\peripheral\scb/cy_scb_uart.h **** *
1119:Generated_Source\PSoC6\pdl\drivers\peripheral\scb/cy_scb_uart.h **** *******************************************************************************/
1120:Generated_Source\PSoC6\pdl\drivers\peripheral\scb/cy_scb_uart.h **** __STATIC_INLINE uint32_t Cy_SCB_UART_GetRtsFifoLevel(CySCB_Type const *base)
1121:Generated_Source\PSoC6\pdl\drivers\peripheral\scb/cy_scb_uart.h **** {
1122:Generated_Source\PSoC6\pdl\drivers\peripheral\scb/cy_scb_uart.h ****     return _FLD2VAL(SCB_UART_FLOW_CTRL_TRIGGER_LEVEL, SCB_UART_FLOW_CTRL(base));
1123:Generated_Source\PSoC6\pdl\drivers\peripheral\scb/cy_scb_uart.h **** }
1124:Generated_Source\PSoC6\pdl\drivers\peripheral\scb/cy_scb_uart.h **** 
1125:Generated_Source\PSoC6\pdl\drivers\peripheral\scb/cy_scb_uart.h **** 
1126:Generated_Source\PSoC6\pdl\drivers\peripheral\scb/cy_scb_uart.h **** /*******************************************************************************
1127:Generated_Source\PSoC6\pdl\drivers\peripheral\scb/cy_scb_uart.h **** * Function Name: Cy_SCB_UART_EnableSkipStart
1128:Generated_Source\PSoC6\pdl\drivers\peripheral\scb/cy_scb_uart.h **** ****************************************************************************//**
1129:Generated_Source\PSoC6\pdl\drivers\peripheral\scb/cy_scb_uart.h **** *
1130:Generated_Source\PSoC6\pdl\drivers\peripheral\scb/cy_scb_uart.h **** * Enables the skip start-bit functionality.
1131:Generated_Source\PSoC6\pdl\drivers\peripheral\scb/cy_scb_uart.h **** * When skip start is enabled the UART hardware does not synchronize to a 
1132:Generated_Source\PSoC6\pdl\drivers\peripheral\scb/cy_scb_uart.h **** * start bit but synchronizes to the first rising edge. To create a rising edge, 
1133:Generated_Source\PSoC6\pdl\drivers\peripheral\scb/cy_scb_uart.h **** * the first data bit must be a 1. This feature is useful when the start bit 
1134:Generated_Source\PSoC6\pdl\drivers\peripheral\scb/cy_scb_uart.h **** * falling edge is used to wake the device through a GPIO interrupt.
1135:Generated_Source\PSoC6\pdl\drivers\peripheral\scb/cy_scb_uart.h **** *
1136:Generated_Source\PSoC6\pdl\drivers\peripheral\scb/cy_scb_uart.h **** * \param base
1137:Generated_Source\PSoC6\pdl\drivers\peripheral\scb/cy_scb_uart.h **** * The pointer to the UART SCB instance.
1138:Generated_Source\PSoC6\pdl\drivers\peripheral\scb/cy_scb_uart.h **** *
1139:Generated_Source\PSoC6\pdl\drivers\peripheral\scb/cy_scb_uart.h **** * \note
1140:Generated_Source\PSoC6\pdl\drivers\peripheral\scb/cy_scb_uart.h **** * When skip start-bit feature is enabled, it is applied (UART synchronizes 
1141:Generated_Source\PSoC6\pdl\drivers\peripheral\scb/cy_scb_uart.h **** * to the first rising edge after start bit) whenever the SCB is enabled. 
1142:Generated_Source\PSoC6\pdl\drivers\peripheral\scb/cy_scb_uart.h **** * This can cause incorrect UART synchronization and data reception when 
1143:Generated_Source\PSoC6\pdl\drivers\peripheral\scb/cy_scb_uart.h **** * the first data bit is not a 1. Therefore, disable the skip start-bit 
1144:Generated_Source\PSoC6\pdl\drivers\peripheral\scb/cy_scb_uart.h **** * when it should not be applied.
1145:Generated_Source\PSoC6\pdl\drivers\peripheral\scb/cy_scb_uart.h **** * Note that SCB is disabled before enter Deep Sleep mode or after calling 
1146:Generated_Source\PSoC6\pdl\drivers\peripheral\scb/cy_scb_uart.h **** * \ref Cy_SCB_UART_Disable.
1147:Generated_Source\PSoC6\pdl\drivers\peripheral\scb/cy_scb_uart.h **** *
1148:Generated_Source\PSoC6\pdl\drivers\peripheral\scb/cy_scb_uart.h **** *******************************************************************************/
1149:Generated_Source\PSoC6\pdl\drivers\peripheral\scb/cy_scb_uart.h **** __STATIC_INLINE void Cy_SCB_UART_EnableSkipStart(CySCB_Type *base)
1150:Generated_Source\PSoC6\pdl\drivers\peripheral\scb/cy_scb_uart.h **** {
1151:Generated_Source\PSoC6\pdl\drivers\peripheral\scb/cy_scb_uart.h ****     SCB_UART_RX_CTRL(base) |= SCB_UART_RX_CTRL_SKIP_START_Msk;
1152:Generated_Source\PSoC6\pdl\drivers\peripheral\scb/cy_scb_uart.h **** }
1153:Generated_Source\PSoC6\pdl\drivers\peripheral\scb/cy_scb_uart.h **** 
1154:Generated_Source\PSoC6\pdl\drivers\peripheral\scb/cy_scb_uart.h **** 
1155:Generated_Source\PSoC6\pdl\drivers\peripheral\scb/cy_scb_uart.h **** /*******************************************************************************
1156:Generated_Source\PSoC6\pdl\drivers\peripheral\scb/cy_scb_uart.h **** * Function Name: Cy_SCB_UART_DisableSkipStart
1157:Generated_Source\PSoC6\pdl\drivers\peripheral\scb/cy_scb_uart.h **** ****************************************************************************//**
1158:Generated_Source\PSoC6\pdl\drivers\peripheral\scb/cy_scb_uart.h **** *
1159:Generated_Source\PSoC6\pdl\drivers\peripheral\scb/cy_scb_uart.h **** * Disable the skip start-bit functionality.
1160:Generated_Source\PSoC6\pdl\drivers\peripheral\scb/cy_scb_uart.h **** * See \ref Cy_SCB_UART_EnableSkipStart for the details.
1161:Generated_Source\PSoC6\pdl\drivers\peripheral\scb/cy_scb_uart.h **** *
1162:Generated_Source\PSoC6\pdl\drivers\peripheral\scb/cy_scb_uart.h **** * \param base
1163:Generated_Source\PSoC6\pdl\drivers\peripheral\scb/cy_scb_uart.h **** * The pointer to the UART SCB instance.
1164:Generated_Source\PSoC6\pdl\drivers\peripheral\scb/cy_scb_uart.h **** *
1165:Generated_Source\PSoC6\pdl\drivers\peripheral\scb/cy_scb_uart.h **** *******************************************************************************/
1166:Generated_Source\PSoC6\pdl\drivers\peripheral\scb/cy_scb_uart.h **** __STATIC_INLINE void Cy_SCB_UART_DisableSkipStart(CySCB_Type *base)
1167:Generated_Source\PSoC6\pdl\drivers\peripheral\scb/cy_scb_uart.h **** {
1168:Generated_Source\PSoC6\pdl\drivers\peripheral\scb/cy_scb_uart.h ****     SCB_UART_RX_CTRL(base) &= (uint32_t) ~SCB_UART_RX_CTRL_SKIP_START_Msk;
1169:Generated_Source\PSoC6\pdl\drivers\peripheral\scb/cy_scb_uart.h **** }
1170:Generated_Source\PSoC6\pdl\drivers\peripheral\scb/cy_scb_uart.h **** /** \} group_scb_uart_general_functions */
ARM GAS  C:\Users\pearlstl\AppData\Local\Temp\ccAUXqAU.s 			page 107


1171:Generated_Source\PSoC6\pdl\drivers\peripheral\scb/cy_scb_uart.h **** 
1172:Generated_Source\PSoC6\pdl\drivers\peripheral\scb/cy_scb_uart.h **** 
1173:Generated_Source\PSoC6\pdl\drivers\peripheral\scb/cy_scb_uart.h **** /**
1174:Generated_Source\PSoC6\pdl\drivers\peripheral\scb/cy_scb_uart.h **** * \addtogroup group_scb_uart_low_level_functions
1175:Generated_Source\PSoC6\pdl\drivers\peripheral\scb/cy_scb_uart.h **** * \{
1176:Generated_Source\PSoC6\pdl\drivers\peripheral\scb/cy_scb_uart.h **** */
1177:Generated_Source\PSoC6\pdl\drivers\peripheral\scb/cy_scb_uart.h **** /*******************************************************************************
1178:Generated_Source\PSoC6\pdl\drivers\peripheral\scb/cy_scb_uart.h **** * Function Name: Cy_SCB_UART_Get
1179:Generated_Source\PSoC6\pdl\drivers\peripheral\scb/cy_scb_uart.h **** ****************************************************************************//**
1180:Generated_Source\PSoC6\pdl\drivers\peripheral\scb/cy_scb_uart.h **** *
1181:Generated_Source\PSoC6\pdl\drivers\peripheral\scb/cy_scb_uart.h **** * Reads a single data element from the UART RX FIFO.
1182:Generated_Source\PSoC6\pdl\drivers\peripheral\scb/cy_scb_uart.h **** * This function does not check whether the RX FIFO has data before reading it.
1183:Generated_Source\PSoC6\pdl\drivers\peripheral\scb/cy_scb_uart.h **** * If the RX FIFO is empty, the function returns \ref CY_SCB_UART_RX_NO_DATA.
1184:Generated_Source\PSoC6\pdl\drivers\peripheral\scb/cy_scb_uart.h **** *
1185:Generated_Source\PSoC6\pdl\drivers\peripheral\scb/cy_scb_uart.h **** * \param base
1186:Generated_Source\PSoC6\pdl\drivers\peripheral\scb/cy_scb_uart.h **** * The pointer to the UART SCB instance.
1187:Generated_Source\PSoC6\pdl\drivers\peripheral\scb/cy_scb_uart.h **** *
1188:Generated_Source\PSoC6\pdl\drivers\peripheral\scb/cy_scb_uart.h **** * \return
1189:Generated_Source\PSoC6\pdl\drivers\peripheral\scb/cy_scb_uart.h **** * Data from the RX FIFO.
1190:Generated_Source\PSoC6\pdl\drivers\peripheral\scb/cy_scb_uart.h **** * The data element size is defined by the configured data width.
1191:Generated_Source\PSoC6\pdl\drivers\peripheral\scb/cy_scb_uart.h **** *
1192:Generated_Source\PSoC6\pdl\drivers\peripheral\scb/cy_scb_uart.h **** *******************************************************************************/
1193:Generated_Source\PSoC6\pdl\drivers\peripheral\scb/cy_scb_uart.h **** __STATIC_INLINE uint32_t Cy_SCB_UART_Get(CySCB_Type const *base)
1194:Generated_Source\PSoC6\pdl\drivers\peripheral\scb/cy_scb_uart.h **** {
1195:Generated_Source\PSoC6\pdl\drivers\peripheral\scb/cy_scb_uart.h ****     return Cy_SCB_ReadRxFifo(base);
1196:Generated_Source\PSoC6\pdl\drivers\peripheral\scb/cy_scb_uart.h **** }
1197:Generated_Source\PSoC6\pdl\drivers\peripheral\scb/cy_scb_uart.h **** 
1198:Generated_Source\PSoC6\pdl\drivers\peripheral\scb/cy_scb_uart.h **** 
1199:Generated_Source\PSoC6\pdl\drivers\peripheral\scb/cy_scb_uart.h **** /*******************************************************************************
1200:Generated_Source\PSoC6\pdl\drivers\peripheral\scb/cy_scb_uart.h **** * Function Name: Cy_SCB_UART_GetArray
1201:Generated_Source\PSoC6\pdl\drivers\peripheral\scb/cy_scb_uart.h **** ****************************************************************************//**
1202:Generated_Source\PSoC6\pdl\drivers\peripheral\scb/cy_scb_uart.h **** *
1203:Generated_Source\PSoC6\pdl\drivers\peripheral\scb/cy_scb_uart.h **** * Reads an array of data out of the UART RX FIFO.
1204:Generated_Source\PSoC6\pdl\drivers\peripheral\scb/cy_scb_uart.h **** * This function does not block. It returns how many data elements were read
1205:Generated_Source\PSoC6\pdl\drivers\peripheral\scb/cy_scb_uart.h **** * from the RX FIFO.
1206:Generated_Source\PSoC6\pdl\drivers\peripheral\scb/cy_scb_uart.h **** *
1207:Generated_Source\PSoC6\pdl\drivers\peripheral\scb/cy_scb_uart.h **** * \param base
1208:Generated_Source\PSoC6\pdl\drivers\peripheral\scb/cy_scb_uart.h **** * The pointer to the UART SCB instance.
1209:Generated_Source\PSoC6\pdl\drivers\peripheral\scb/cy_scb_uart.h **** *
1210:Generated_Source\PSoC6\pdl\drivers\peripheral\scb/cy_scb_uart.h **** * \param buffer
1211:Generated_Source\PSoC6\pdl\drivers\peripheral\scb/cy_scb_uart.h **** * The pointer to the location to place the data read from the RX FIFO.
1212:Generated_Source\PSoC6\pdl\drivers\peripheral\scb/cy_scb_uart.h **** * The element size is defined by the data type, which depends on the configured
1213:Generated_Source\PSoC6\pdl\drivers\peripheral\scb/cy_scb_uart.h **** * data width.
1214:Generated_Source\PSoC6\pdl\drivers\peripheral\scb/cy_scb_uart.h **** *
1215:Generated_Source\PSoC6\pdl\drivers\peripheral\scb/cy_scb_uart.h **** * \param size
1216:Generated_Source\PSoC6\pdl\drivers\peripheral\scb/cy_scb_uart.h **** * The number of data elements to read from the RX FIFO.
1217:Generated_Source\PSoC6\pdl\drivers\peripheral\scb/cy_scb_uart.h **** *
1218:Generated_Source\PSoC6\pdl\drivers\peripheral\scb/cy_scb_uart.h **** * \return
1219:Generated_Source\PSoC6\pdl\drivers\peripheral\scb/cy_scb_uart.h **** * The number of data elements read from the RX FIFO.
1220:Generated_Source\PSoC6\pdl\drivers\peripheral\scb/cy_scb_uart.h **** *
1221:Generated_Source\PSoC6\pdl\drivers\peripheral\scb/cy_scb_uart.h **** *******************************************************************************/
1222:Generated_Source\PSoC6\pdl\drivers\peripheral\scb/cy_scb_uart.h **** __STATIC_INLINE uint32_t Cy_SCB_UART_GetArray(CySCB_Type const *base, void *buffer, uint32_t size)
1223:Generated_Source\PSoC6\pdl\drivers\peripheral\scb/cy_scb_uart.h **** {
1224:Generated_Source\PSoC6\pdl\drivers\peripheral\scb/cy_scb_uart.h ****     CY_ASSERT_L1(CY_SCB_IS_BUFFER_VALID(buffer, size));
1225:Generated_Source\PSoC6\pdl\drivers\peripheral\scb/cy_scb_uart.h **** 
1226:Generated_Source\PSoC6\pdl\drivers\peripheral\scb/cy_scb_uart.h ****     return Cy_SCB_ReadArray(base, buffer, size);
 1836              		.loc 3 1226 0
ARM GAS  C:\Users\pearlstl\AppData\Local\Temp\ccAUXqAU.s 			page 108


 1837 0066 A169     		ldr	r1, [r4, #24]
 1838 0068 2800     		movs	r0, r5
 1839 006a FFF7FEFF 		bl	Cy_SCB_ReadArray
 1840              	.LVL149:
 1841              	.LBE400:
 1842              	.LBE399:
1111:Generated_Source\PSoC6\pdl\drivers\peripheral\scb/cy_scb_uart.c ****             {
1112:Generated_Source\PSoC6\pdl\drivers\peripheral\scb/cy_scb_uart.c ****                 HandleDataReceive(base, context);
1113:Generated_Source\PSoC6\pdl\drivers\peripheral\scb/cy_scb_uart.c ****             }
1114:Generated_Source\PSoC6\pdl\drivers\peripheral\scb/cy_scb_uart.c ****             else
1115:Generated_Source\PSoC6\pdl\drivers\peripheral\scb/cy_scb_uart.c ****             {
1116:Generated_Source\PSoC6\pdl\drivers\peripheral\scb/cy_scb_uart.c ****                 if (NULL != context->rxRingBuf)
1117:Generated_Source\PSoC6\pdl\drivers\peripheral\scb/cy_scb_uart.c ****                 {
1118:Generated_Source\PSoC6\pdl\drivers\peripheral\scb/cy_scb_uart.c ****                     HandleRingBuffer(base, context);
1119:Generated_Source\PSoC6\pdl\drivers\peripheral\scb/cy_scb_uart.c ****                 }
1120:Generated_Source\PSoC6\pdl\drivers\peripheral\scb/cy_scb_uart.c ****             }
1121:Generated_Source\PSoC6\pdl\drivers\peripheral\scb/cy_scb_uart.c **** 
1122:Generated_Source\PSoC6\pdl\drivers\peripheral\scb/cy_scb_uart.c ****             Cy_SCB_ClearRxInterrupt(base, CY_SCB_RX_INTR_LEVEL);
1123:Generated_Source\PSoC6\pdl\drivers\peripheral\scb/cy_scb_uart.c ****         }
1124:Generated_Source\PSoC6\pdl\drivers\peripheral\scb/cy_scb_uart.c ****     }
1125:Generated_Source\PSoC6\pdl\drivers\peripheral\scb/cy_scb_uart.c **** 
1126:Generated_Source\PSoC6\pdl\drivers\peripheral\scb/cy_scb_uart.c ****     if (0UL != (CY_SCB_TX_INTR & Cy_SCB_GetInterruptCause(base)))
1127:Generated_Source\PSoC6\pdl\drivers\peripheral\scb/cy_scb_uart.c ****     {
1128:Generated_Source\PSoC6\pdl\drivers\peripheral\scb/cy_scb_uart.c ****         uint32_t locTxErr = (CY_SCB_UART_TRANSMIT_ERR & Cy_SCB_GetTxInterruptStatusMasked(base));
1129:Generated_Source\PSoC6\pdl\drivers\peripheral\scb/cy_scb_uart.c **** 
1130:Generated_Source\PSoC6\pdl\drivers\peripheral\scb/cy_scb_uart.c ****         /* Handle the TX error conditions */
1131:Generated_Source\PSoC6\pdl\drivers\peripheral\scb/cy_scb_uart.c ****         if (0UL != locTxErr)
1132:Generated_Source\PSoC6\pdl\drivers\peripheral\scb/cy_scb_uart.c ****         {
1133:Generated_Source\PSoC6\pdl\drivers\peripheral\scb/cy_scb_uart.c ****             context->txStatus |= locTxErr;
1134:Generated_Source\PSoC6\pdl\drivers\peripheral\scb/cy_scb_uart.c ****             Cy_SCB_ClearTxInterrupt(base, locTxErr);
1135:Generated_Source\PSoC6\pdl\drivers\peripheral\scb/cy_scb_uart.c **** 
1136:Generated_Source\PSoC6\pdl\drivers\peripheral\scb/cy_scb_uart.c ****             if (NULL != context->cbEvents)
1137:Generated_Source\PSoC6\pdl\drivers\peripheral\scb/cy_scb_uart.c ****             {
1138:Generated_Source\PSoC6\pdl\drivers\peripheral\scb/cy_scb_uart.c ****                 context->cbEvents(CY_SCB_UART_TRANSMIT_ERR_EVENT);
1139:Generated_Source\PSoC6\pdl\drivers\peripheral\scb/cy_scb_uart.c ****             }
1140:Generated_Source\PSoC6\pdl\drivers\peripheral\scb/cy_scb_uart.c ****         }
1141:Generated_Source\PSoC6\pdl\drivers\peripheral\scb/cy_scb_uart.c **** 
1142:Generated_Source\PSoC6\pdl\drivers\peripheral\scb/cy_scb_uart.c ****         /* Load data to transmit */
1143:Generated_Source\PSoC6\pdl\drivers\peripheral\scb/cy_scb_uart.c ****         if (0UL != (CY_SCB_TX_INTR_LEVEL & Cy_SCB_GetTxInterruptStatusMasked(base)))
1144:Generated_Source\PSoC6\pdl\drivers\peripheral\scb/cy_scb_uart.c ****         {
1145:Generated_Source\PSoC6\pdl\drivers\peripheral\scb/cy_scb_uart.c ****             HandleDataTransmit(base, context);
1146:Generated_Source\PSoC6\pdl\drivers\peripheral\scb/cy_scb_uart.c **** 
1147:Generated_Source\PSoC6\pdl\drivers\peripheral\scb/cy_scb_uart.c ****             Cy_SCB_ClearTxInterrupt(base, CY_SCB_TX_INTR_LEVEL);
1148:Generated_Source\PSoC6\pdl\drivers\peripheral\scb/cy_scb_uart.c ****         }
1149:Generated_Source\PSoC6\pdl\drivers\peripheral\scb/cy_scb_uart.c **** 
1150:Generated_Source\PSoC6\pdl\drivers\peripheral\scb/cy_scb_uart.c ****         /* Handle the TX complete */
1151:Generated_Source\PSoC6\pdl\drivers\peripheral\scb/cy_scb_uart.c ****         if (0UL != (CY_SCB_TX_INTR_UART_DONE & Cy_SCB_GetTxInterruptStatusMasked(base)))
1152:Generated_Source\PSoC6\pdl\drivers\peripheral\scb/cy_scb_uart.c ****         {
1153:Generated_Source\PSoC6\pdl\drivers\peripheral\scb/cy_scb_uart.c ****             /* Disable all TX interrupt sources */
1154:Generated_Source\PSoC6\pdl\drivers\peripheral\scb/cy_scb_uart.c ****             Cy_SCB_SetTxInterruptMask(base, CY_SCB_CLEAR_ALL_INTR_SRC);
1155:Generated_Source\PSoC6\pdl\drivers\peripheral\scb/cy_scb_uart.c **** 
1156:Generated_Source\PSoC6\pdl\drivers\peripheral\scb/cy_scb_uart.c ****             context->txStatus &= (uint32_t) ~CY_SCB_UART_TRANSMIT_ACTIVE;
1157:Generated_Source\PSoC6\pdl\drivers\peripheral\scb/cy_scb_uart.c ****             context->txLeftToTransmit = 0UL;
1158:Generated_Source\PSoC6\pdl\drivers\peripheral\scb/cy_scb_uart.c **** 
1159:Generated_Source\PSoC6\pdl\drivers\peripheral\scb/cy_scb_uart.c ****             if (NULL != context->cbEvents)
1160:Generated_Source\PSoC6\pdl\drivers\peripheral\scb/cy_scb_uart.c ****             {
1161:Generated_Source\PSoC6\pdl\drivers\peripheral\scb/cy_scb_uart.c ****                 context->cbEvents(CY_SCB_UART_TRANSMIT_DONE_EVENT);
ARM GAS  C:\Users\pearlstl\AppData\Local\Temp\ccAUXqAU.s 			page 109


1162:Generated_Source\PSoC6\pdl\drivers\peripheral\scb/cy_scb_uart.c ****             }
1163:Generated_Source\PSoC6\pdl\drivers\peripheral\scb/cy_scb_uart.c ****         }
1164:Generated_Source\PSoC6\pdl\drivers\peripheral\scb/cy_scb_uart.c ****     }
1165:Generated_Source\PSoC6\pdl\drivers\peripheral\scb/cy_scb_uart.c **** }
1166:Generated_Source\PSoC6\pdl\drivers\peripheral\scb/cy_scb_uart.c **** 
1167:Generated_Source\PSoC6\pdl\drivers\peripheral\scb/cy_scb_uart.c **** 
1168:Generated_Source\PSoC6\pdl\drivers\peripheral\scb/cy_scb_uart.c **** 
1169:Generated_Source\PSoC6\pdl\drivers\peripheral\scb/cy_scb_uart.c **** /*******************************************************************************
1170:Generated_Source\PSoC6\pdl\drivers\peripheral\scb/cy_scb_uart.c **** * Function Name: HandleDataReceive
1171:Generated_Source\PSoC6\pdl\drivers\peripheral\scb/cy_scb_uart.c **** ****************************************************************************//**
1172:Generated_Source\PSoC6\pdl\drivers\peripheral\scb/cy_scb_uart.c **** *
1173:Generated_Source\PSoC6\pdl\drivers\peripheral\scb/cy_scb_uart.c **** * Reads data from the receive FIFO into the buffer provided by
1174:Generated_Source\PSoC6\pdl\drivers\peripheral\scb/cy_scb_uart.c **** * \ref Cy_SCB_UART_Receive.
1175:Generated_Source\PSoC6\pdl\drivers\peripheral\scb/cy_scb_uart.c **** *
1176:Generated_Source\PSoC6\pdl\drivers\peripheral\scb/cy_scb_uart.c **** * \param base
1177:Generated_Source\PSoC6\pdl\drivers\peripheral\scb/cy_scb_uart.c **** * The pointer to the UART SCB instance.
1178:Generated_Source\PSoC6\pdl\drivers\peripheral\scb/cy_scb_uart.c **** *
1179:Generated_Source\PSoC6\pdl\drivers\peripheral\scb/cy_scb_uart.c **** * \param context
1180:Generated_Source\PSoC6\pdl\drivers\peripheral\scb/cy_scb_uart.c **** * The pointer to the context structure \ref cy_stc_scb_uart_context_t allocated
1181:Generated_Source\PSoC6\pdl\drivers\peripheral\scb/cy_scb_uart.c **** * by the user. The structure is used during the UART operation for internal
1182:Generated_Source\PSoC6\pdl\drivers\peripheral\scb/cy_scb_uart.c **** * configuration and data retention. The user must not modify anything
1183:Generated_Source\PSoC6\pdl\drivers\peripheral\scb/cy_scb_uart.c **** * in this structure.
1184:Generated_Source\PSoC6\pdl\drivers\peripheral\scb/cy_scb_uart.c **** *
1185:Generated_Source\PSoC6\pdl\drivers\peripheral\scb/cy_scb_uart.c **** *******************************************************************************/
1186:Generated_Source\PSoC6\pdl\drivers\peripheral\scb/cy_scb_uart.c **** static void HandleDataReceive(CySCB_Type *base, cy_stc_scb_uart_context_t *context)
1187:Generated_Source\PSoC6\pdl\drivers\peripheral\scb/cy_scb_uart.c **** {
1188:Generated_Source\PSoC6\pdl\drivers\peripheral\scb/cy_scb_uart.c ****     uint32_t numCopied;
1189:Generated_Source\PSoC6\pdl\drivers\peripheral\scb/cy_scb_uart.c ****     uint32_t halfFifoSize = Cy_SCB_GetFifoSize(base) / 2UL;
1190:Generated_Source\PSoC6\pdl\drivers\peripheral\scb/cy_scb_uart.c **** 
1191:Generated_Source\PSoC6\pdl\drivers\peripheral\scb/cy_scb_uart.c ****     /* Get data from RX FIFO */
1192:Generated_Source\PSoC6\pdl\drivers\peripheral\scb/cy_scb_uart.c ****     numCopied = Cy_SCB_UART_GetArray(base, context->rxBuf, context->rxBufSize);
1193:Generated_Source\PSoC6\pdl\drivers\peripheral\scb/cy_scb_uart.c **** 
1194:Generated_Source\PSoC6\pdl\drivers\peripheral\scb/cy_scb_uart.c ****     /* Move the buffer */
1195:Generated_Source\PSoC6\pdl\drivers\peripheral\scb/cy_scb_uart.c ****     context->rxBufIdx  += numCopied;
 1843              		.loc 1 1195 0
 1844 006e 236A     		ldr	r3, [r4, #32]
1189:Generated_Source\PSoC6\pdl\drivers\peripheral\scb/cy_scb_uart.c **** 
 1845              		.loc 1 1189 0
 1846 0070 7608     		lsrs	r6, r6, #1
 1847              	.LVL150:
 1848              		.loc 1 1195 0
 1849 0072 C318     		adds	r3, r0, r3
 1850 0074 2362     		str	r3, [r4, #32]
1196:Generated_Source\PSoC6\pdl\drivers\peripheral\scb/cy_scb_uart.c ****     context->rxBufSize -= numCopied;
 1851              		.loc 1 1196 0
 1852 0076 E369     		ldr	r3, [r4, #28]
 1853 0078 1B1A     		subs	r3, r3, r0
 1854 007a E361     		str	r3, [r4, #28]
1197:Generated_Source\PSoC6\pdl\drivers\peripheral\scb/cy_scb_uart.c **** 
1198:Generated_Source\PSoC6\pdl\drivers\peripheral\scb/cy_scb_uart.c ****     if (0UL == context->rxBufSize)
 1855              		.loc 1 1198 0
 1856 007c 1CD1     		bne	.L161
1199:Generated_Source\PSoC6\pdl\drivers\peripheral\scb/cy_scb_uart.c ****     {
1200:Generated_Source\PSoC6\pdl\drivers\peripheral\scb/cy_scb_uart.c ****         if (NULL != context->rxRingBuf)
 1857              		.loc 1 1200 0
 1858 007e A368     		ldr	r3, [r4, #8]
 1859 0080 8449     		ldr	r1, .L234+4
ARM GAS  C:\Users\pearlstl\AppData\Local\Temp\ccAUXqAU.s 			page 110


 1860 0082 002B     		cmp	r3, #0
 1861 0084 0DD0     		beq	.L162
1201:Generated_Source\PSoC6\pdl\drivers\peripheral\scb/cy_scb_uart.c ****         {
1202:Generated_Source\PSoC6\pdl\drivers\peripheral\scb/cy_scb_uart.c ****             /* Adjust the level to proceed with the ring buffer */
1203:Generated_Source\PSoC6\pdl\drivers\peripheral\scb/cy_scb_uart.c ****             Cy_SCB_SetRxFifoLevel(base, (context->rxRingBufSize >= halfFifoSize) ?
 1862              		.loc 1 1203 0
 1863 0086 E368     		ldr	r3, [r4, #12]
 1864 0088 5F1E     		subs	r7, r3, #1
 1865 008a 9E42     		cmp	r6, r3
 1866 008c 00D8     		bhi	.L164
 1867 008e 771E     		subs	r7, r6, #1
 1868              	.L164:
 1869              	.LVL151:
 1870              	.LBB401:
 1871              	.LBB402:
 642:Generated_Source\PSoC6\pdl\drivers\peripheral\scb/cy_scb_common.h **** }
 1872              		.loc 2 642 0
 1873 0090 C120     		movs	r0, #193
 1874 0092 FF23     		movs	r3, #255
 1875 0094 8000     		lsls	r0, r0, #2
 1876 0096 2A58     		ldr	r2, [r5, r0]
 1877 0098 9A43     		bics	r2, r3
 1878 009a 3B40     		ands	r3, r7
 1879 009c 1343     		orrs	r3, r2
 1880 009e 2B50     		str	r3, [r5, r0]
 1881              	.LVL152:
 1882              	.LBE402:
 1883              	.LBE401:
 1884              	.LBB403:
 1885              	.LBB404:
 924:Generated_Source\PSoC6\pdl\drivers\peripheral\scb/cy_scb_common.h **** }
 1886              		.loc 2 924 0
 1887 00a0 0123     		movs	r3, #1
 1888              	.LVL153:
 1889              	.L162:
 1890              	.LBE404:
 1891              	.LBE403:
1204:Generated_Source\PSoC6\pdl\drivers\peripheral\scb/cy_scb_uart.c ****                                             (halfFifoSize - 1UL) : (context->rxRingBufSize - 1UL));
1205:Generated_Source\PSoC6\pdl\drivers\peripheral\scb/cy_scb_uart.c **** 
1206:Generated_Source\PSoC6\pdl\drivers\peripheral\scb/cy_scb_uart.c ****             Cy_SCB_SetRxInterruptMask(base, CY_SCB_RX_INTR_LEVEL);
1207:Generated_Source\PSoC6\pdl\drivers\peripheral\scb/cy_scb_uart.c ****         }
1208:Generated_Source\PSoC6\pdl\drivers\peripheral\scb/cy_scb_uart.c ****         else
1209:Generated_Source\PSoC6\pdl\drivers\peripheral\scb/cy_scb_uart.c ****         {
1210:Generated_Source\PSoC6\pdl\drivers\peripheral\scb/cy_scb_uart.c ****             Cy_SCB_SetRxInterruptMask(base, CY_SCB_CLEAR_ALL_INTR_SRC);
1211:Generated_Source\PSoC6\pdl\drivers\peripheral\scb/cy_scb_uart.c ****         }
1212:Generated_Source\PSoC6\pdl\drivers\peripheral\scb/cy_scb_uart.c **** 
1213:Generated_Source\PSoC6\pdl\drivers\peripheral\scb/cy_scb_uart.c ****         /* Update the status */
1214:Generated_Source\PSoC6\pdl\drivers\peripheral\scb/cy_scb_uart.c ****         context->rxStatus &= (uint32_t) ~CY_SCB_UART_RECEIVE_ACTIVE;
 1892              		.loc 1 1214 0
 1893 00a2 0122     		movs	r2, #1
 1894              	.LBB405:
 1895              	.LBB406:
 924:Generated_Source\PSoC6\pdl\drivers\peripheral\scb/cy_scb_common.h **** }
 1896              		.loc 2 924 0
 1897 00a4 6B50     		str	r3, [r5, r1]
 1898              	.LBE406:
 1899              	.LBE405:
ARM GAS  C:\Users\pearlstl\AppData\Local\Temp\ccAUXqAU.s 			page 111


 1900              		.loc 1 1214 0
 1901 00a6 6368     		ldr	r3, [r4, #4]
 1902 00a8 9343     		bics	r3, r2
 1903 00aa 6360     		str	r3, [r4, #4]
1215:Generated_Source\PSoC6\pdl\drivers\peripheral\scb/cy_scb_uart.c **** 
1216:Generated_Source\PSoC6\pdl\drivers\peripheral\scb/cy_scb_uart.c ****         /* Notify that receive is done in a callback */
1217:Generated_Source\PSoC6\pdl\drivers\peripheral\scb/cy_scb_uart.c ****         if (NULL != context->cbEvents)
 1904              		.loc 1 1217 0
 1905 00ac 236B     		ldr	r3, [r4, #48]
 1906 00ae 002B     		cmp	r3, #0
 1907 00b0 68D0     		beq	.L167
1218:Generated_Source\PSoC6\pdl\drivers\peripheral\scb/cy_scb_uart.c ****         {
1219:Generated_Source\PSoC6\pdl\drivers\peripheral\scb/cy_scb_uart.c ****             context->cbEvents(CY_SCB_UART_RECEIVE_DONE_EVENT);
 1908              		.loc 1 1219 0
 1909 00b2 0420     		movs	r0, #4
 1910 00b4 9847     		blx	r3
 1911              	.LVL154:
 1912 00b6 65E0     		b	.L167
 1913              	.LVL155:
 1914              	.L161:
 1915              	.LBB407:
 1916              	.LBB408:
 1917              	.LBB409:
 1918              		.loc 2 1710 0
 1919 00b8 C022     		movs	r2, #192
 1920 00ba 9200     		lsls	r2, r2, #2
 1921 00bc AF58     		ldr	r7, [r5, r2]
 1922              	.LBE409:
 1923              	.LBE408:
1220:Generated_Source\PSoC6\pdl\drivers\peripheral\scb/cy_scb_uart.c ****         }
1221:Generated_Source\PSoC6\pdl\drivers\peripheral\scb/cy_scb_uart.c ****     }
1222:Generated_Source\PSoC6\pdl\drivers\peripheral\scb/cy_scb_uart.c ****     else
1223:Generated_Source\PSoC6\pdl\drivers\peripheral\scb/cy_scb_uart.c ****     {
1224:Generated_Source\PSoC6\pdl\drivers\peripheral\scb/cy_scb_uart.c ****         uint8_t *buf = (uint8_t *) context->rxBuf;
1225:Generated_Source\PSoC6\pdl\drivers\peripheral\scb/cy_scb_uart.c **** 
1226:Generated_Source\PSoC6\pdl\drivers\peripheral\scb/cy_scb_uart.c ****         buf = &buf[(Cy_SCB_IsRxDataWidthByte(base) ? (numCopied) : (2UL * numCopied))];
 1924              		.loc 1 1226 0
 1925 00be 0F22     		movs	r2, #15
1224:Generated_Source\PSoC6\pdl\drivers\peripheral\scb/cy_scb_uart.c **** 
 1926              		.loc 1 1224 0
 1927 00c0 A169     		ldr	r1, [r4, #24]
 1928              	.LVL156:
 1929              		.loc 1 1226 0
 1930 00c2 3A40     		ands	r2, r7
 1931 00c4 072A     		cmp	r2, #7
 1932 00c6 00D9     		bls	.L168
 1933 00c8 4000     		lsls	r0, r0, #1
 1934              	.L168:
 1935              	.LVL157:
1227:Generated_Source\PSoC6\pdl\drivers\peripheral\scb/cy_scb_uart.c ****         context->rxBuf = (void *) buf;
 1936              		.loc 1 1227 0
 1937 00ca 0818     		adds	r0, r1, r0
 1938              	.LVL158:
 1939 00cc A061     		str	r0, [r4, #24]
1228:Generated_Source\PSoC6\pdl\drivers\peripheral\scb/cy_scb_uart.c **** 
1229:Generated_Source\PSoC6\pdl\drivers\peripheral\scb/cy_scb_uart.c ****         if (context->rxBufSize < halfFifoSize)
 1940              		.loc 1 1229 0
ARM GAS  C:\Users\pearlstl\AppData\Local\Temp\ccAUXqAU.s 			page 112


 1941 00ce 9E42     		cmp	r6, r3
 1942 00d0 58D9     		bls	.L167
 1943              	.LVL159:
 1944              	.LBB410:
 1945              	.LBB411:
 642:Generated_Source\PSoC6\pdl\drivers\peripheral\scb/cy_scb_common.h **** }
 1946              		.loc 2 642 0
 1947 00d2 C121     		movs	r1, #193
 1948 00d4 8900     		lsls	r1, r1, #2
 1949 00d6 6A58     		ldr	r2, [r5, r1]
 1950 00d8 013B     		subs	r3, r3, #1
 1951              	.LVL160:
 1952 00da 4FE0     		b	.L233
 1953              	.LVL161:
 1954              	.L159:
 1955              	.LBE411:
 1956              	.LBE410:
 1957              	.LBE407:
 1958              	.LBE396:
 1959              	.LBE395:
1116:Generated_Source\PSoC6\pdl\drivers\peripheral\scb/cy_scb_uart.c ****                 {
 1960              		.loc 1 1116 0
 1961 00dc A368     		ldr	r3, [r4, #8]
 1962 00de 002B     		cmp	r3, #0
 1963 00e0 50D0     		beq	.L167
 1964              	.LVL162:
 1965              	.LBB412:
 1966              	.LBB413:
 1967              	.LBB414:
 1968              	.LBB415:
1690:Generated_Source\PSoC6\pdl\drivers\peripheral\scb/cy_scb_common.h ****                 (CY_SCB_FIFO_SIZE) : (CY_SCB_FIFO_SIZE / 2UL));
 1969              		.loc 2 1690 0
 1970 00e2 2A68     		ldr	r2, [r5]
1691:Generated_Source\PSoC6\pdl\drivers\peripheral\scb/cy_scb_common.h **** }
 1971              		.loc 2 1691 0
 1972 00e4 8023     		movs	r3, #128
 1973 00e6 1205     		lsls	r2, r2, #20
 1974 00e8 00D4     		bmi	.L170
 1975 00ea 403B     		subs	r3, r3, #64
 1976              	.L170:
 1977              	.LVL163:
 1978              	.LBE415:
 1979              	.LBE414:
1230:Generated_Source\PSoC6\pdl\drivers\peripheral\scb/cy_scb_uart.c ****         {
1231:Generated_Source\PSoC6\pdl\drivers\peripheral\scb/cy_scb_uart.c ****             /* Set the RX FIFO level to trigger an interrupt */
1232:Generated_Source\PSoC6\pdl\drivers\peripheral\scb/cy_scb_uart.c ****             Cy_SCB_SetRxFifoLevel(base, (context->rxBufSize - 1UL));
1233:Generated_Source\PSoC6\pdl\drivers\peripheral\scb/cy_scb_uart.c ****         }
1234:Generated_Source\PSoC6\pdl\drivers\peripheral\scb/cy_scb_uart.c ****     }
1235:Generated_Source\PSoC6\pdl\drivers\peripheral\scb/cy_scb_uart.c **** }
1236:Generated_Source\PSoC6\pdl\drivers\peripheral\scb/cy_scb_uart.c **** 
1237:Generated_Source\PSoC6\pdl\drivers\peripheral\scb/cy_scb_uart.c **** 
1238:Generated_Source\PSoC6\pdl\drivers\peripheral\scb/cy_scb_uart.c **** /*******************************************************************************
1239:Generated_Source\PSoC6\pdl\drivers\peripheral\scb/cy_scb_uart.c **** * Function Name: HandleRingBuffer
1240:Generated_Source\PSoC6\pdl\drivers\peripheral\scb/cy_scb_uart.c **** ****************************************************************************//**
1241:Generated_Source\PSoC6\pdl\drivers\peripheral\scb/cy_scb_uart.c **** *
1242:Generated_Source\PSoC6\pdl\drivers\peripheral\scb/cy_scb_uart.c **** * Reads data from the receive FIFO into the receive ring buffer.
1243:Generated_Source\PSoC6\pdl\drivers\peripheral\scb/cy_scb_uart.c **** *
ARM GAS  C:\Users\pearlstl\AppData\Local\Temp\ccAUXqAU.s 			page 113


1244:Generated_Source\PSoC6\pdl\drivers\peripheral\scb/cy_scb_uart.c **** * \param base
1245:Generated_Source\PSoC6\pdl\drivers\peripheral\scb/cy_scb_uart.c **** * The pointer to the UART SCB instance.
1246:Generated_Source\PSoC6\pdl\drivers\peripheral\scb/cy_scb_uart.c **** *
1247:Generated_Source\PSoC6\pdl\drivers\peripheral\scb/cy_scb_uart.c **** * \param context
1248:Generated_Source\PSoC6\pdl\drivers\peripheral\scb/cy_scb_uart.c **** * The pointer to the context structure \ref cy_stc_scb_uart_context_t allocated
1249:Generated_Source\PSoC6\pdl\drivers\peripheral\scb/cy_scb_uart.c **** * by the user. The structure is used during the UART operation for internal
1250:Generated_Source\PSoC6\pdl\drivers\peripheral\scb/cy_scb_uart.c **** * configuration and data retention. The user must not modify anything
1251:Generated_Source\PSoC6\pdl\drivers\peripheral\scb/cy_scb_uart.c **** * in this structure.
1252:Generated_Source\PSoC6\pdl\drivers\peripheral\scb/cy_scb_uart.c **** *
1253:Generated_Source\PSoC6\pdl\drivers\peripheral\scb/cy_scb_uart.c **** *******************************************************************************/
1254:Generated_Source\PSoC6\pdl\drivers\peripheral\scb/cy_scb_uart.c **** static void HandleRingBuffer(CySCB_Type *base, cy_stc_scb_uart_context_t *context)
1255:Generated_Source\PSoC6\pdl\drivers\peripheral\scb/cy_scb_uart.c **** {
1256:Generated_Source\PSoC6\pdl\drivers\peripheral\scb/cy_scb_uart.c ****     uint32_t halfFifoSize = Cy_SCB_GetFifoSize(base) / 2UL;
 1980              		.loc 1 1256 0
 1981 00ec 5B08     		lsrs	r3, r3, #1
 1982 00ee 0193     		str	r3, [sp, #4]
 1983              	.LVL164:
 1984              	.LBB416:
 1985              	.LBB417:
 661:Generated_Source\PSoC6\pdl\drivers\peripheral\scb/cy_scb_common.h **** }
 1986              		.loc 2 661 0
 1987 00f0 C223     		movs	r3, #194
 1988              	.LVL165:
 1989 00f2 9B00     		lsls	r3, r3, #2
 1990 00f4 EB58     		ldr	r3, [r5, r3]
 1991              	.LBE417:
 1992              	.LBE416:
1257:Generated_Source\PSoC6\pdl\drivers\peripheral\scb/cy_scb_uart.c ****     uint32_t numToCopy = Cy_SCB_GetNumInRxFifo(base);
1258:Generated_Source\PSoC6\pdl\drivers\peripheral\scb/cy_scb_uart.c ****     uint32_t locHead = context->rxRingBufHead;
 1993              		.loc 1 1258 0
 1994 00f6 2669     		ldr	r6, [r4, #16]
 1995              	.LBB419:
 1996              	.LBB418:
 661:Generated_Source\PSoC6\pdl\drivers\peripheral\scb/cy_scb_common.h **** }
 1997              		.loc 2 661 0
 1998 00f8 DB05     		lsls	r3, r3, #23
 1999 00fa DB0D     		lsrs	r3, r3, #23
 2000 00fc 0093     		str	r3, [sp]
 2001              	.LVL166:
 2002              	.L171:
 2003              	.LBE418:
 2004              	.LBE419:
1259:Generated_Source\PSoC6\pdl\drivers\peripheral\scb/cy_scb_uart.c ****     uint32_t rxData;
1260:Generated_Source\PSoC6\pdl\drivers\peripheral\scb/cy_scb_uart.c **** 
1261:Generated_Source\PSoC6\pdl\drivers\peripheral\scb/cy_scb_uart.c ****     /* Get data into the ring buffer */
1262:Generated_Source\PSoC6\pdl\drivers\peripheral\scb/cy_scb_uart.c ****     while (numToCopy > 0UL)
 2005              		.loc 1 1262 0
 2006 00fe 009B     		ldr	r3, [sp]
 2007 0100 002B     		cmp	r3, #0
 2008 0102 2AD0     		beq	.L176
1263:Generated_Source\PSoC6\pdl\drivers\peripheral\scb/cy_scb_uart.c ****     {
1264:Generated_Source\PSoC6\pdl\drivers\peripheral\scb/cy_scb_uart.c ****         ++locHead;
1265:Generated_Source\PSoC6\pdl\drivers\peripheral\scb/cy_scb_uart.c **** 
1266:Generated_Source\PSoC6\pdl\drivers\peripheral\scb/cy_scb_uart.c ****         if (locHead == context->rxRingBufSize)
 2009              		.loc 1 1266 0
 2010 0104 E368     		ldr	r3, [r4, #12]
1264:Generated_Source\PSoC6\pdl\drivers\peripheral\scb/cy_scb_uart.c **** 
ARM GAS  C:\Users\pearlstl\AppData\Local\Temp\ccAUXqAU.s 			page 114


 2011              		.loc 1 1264 0
 2012 0106 0136     		adds	r6, r6, #1
 2013              	.LVL167:
 2014              		.loc 1 1266 0
 2015 0108 9E42     		cmp	r6, r3
 2016 010a 00D1     		bne	.L172
1267:Generated_Source\PSoC6\pdl\drivers\peripheral\scb/cy_scb_uart.c ****         {
1268:Generated_Source\PSoC6\pdl\drivers\peripheral\scb/cy_scb_uart.c ****             locHead = 0UL;
 2017              		.loc 1 1268 0
 2018 010c 0026     		movs	r6, #0
 2019              	.LVL168:
 2020              	.L172:
1269:Generated_Source\PSoC6\pdl\drivers\peripheral\scb/cy_scb_uart.c ****         }
1270:Generated_Source\PSoC6\pdl\drivers\peripheral\scb/cy_scb_uart.c **** 
1271:Generated_Source\PSoC6\pdl\drivers\peripheral\scb/cy_scb_uart.c ****         if (locHead == context->rxRingBufTail)
 2021              		.loc 1 1271 0
 2022 010e 6769     		ldr	r7, [r4, #20]
 2023 0110 B742     		cmp	r7, r6
 2024 0112 10D1     		bne	.L173
1272:Generated_Source\PSoC6\pdl\drivers\peripheral\scb/cy_scb_uart.c ****         {
1273:Generated_Source\PSoC6\pdl\drivers\peripheral\scb/cy_scb_uart.c ****             /* The ring buffer is full, trigger a callback */
1274:Generated_Source\PSoC6\pdl\drivers\peripheral\scb/cy_scb_uart.c ****             if (NULL != context->cbEvents)
 2025              		.loc 1 1274 0
 2026 0114 236B     		ldr	r3, [r4, #48]
 2027 0116 002B     		cmp	r3, #0
 2028 0118 01D0     		beq	.L174
1275:Generated_Source\PSoC6\pdl\drivers\peripheral\scb/cy_scb_uart.c ****             {
1276:Generated_Source\PSoC6\pdl\drivers\peripheral\scb/cy_scb_uart.c ****                 context->cbEvents(CY_SCB_UART_RB_FULL_EVENT);
 2029              		.loc 1 1276 0
 2030 011a 0820     		movs	r0, #8
 2031 011c 9847     		blx	r3
 2032              	.LVL169:
 2033              	.L174:
1277:Generated_Source\PSoC6\pdl\drivers\peripheral\scb/cy_scb_uart.c ****             }
1278:Generated_Source\PSoC6\pdl\drivers\peripheral\scb/cy_scb_uart.c **** 
1279:Generated_Source\PSoC6\pdl\drivers\peripheral\scb/cy_scb_uart.c ****             /* The ring buffer is still full. Disable the RX interrupt not to put data into the rin
1280:Generated_Source\PSoC6\pdl\drivers\peripheral\scb/cy_scb_uart.c ****             * The data is stored in the RX FIFO until it overflows. Revert the head index.
1281:Generated_Source\PSoC6\pdl\drivers\peripheral\scb/cy_scb_uart.c ****             */
1282:Generated_Source\PSoC6\pdl\drivers\peripheral\scb/cy_scb_uart.c ****             if (locHead == context->rxRingBufTail)
 2034              		.loc 1 1282 0
 2035 011e 6369     		ldr	r3, [r4, #20]
 2036 0120 9F42     		cmp	r7, r3
 2037 0122 08D1     		bne	.L173
 2038              	.LVL170:
 2039              	.LBB420:
 2040              	.LBB421:
 924:Generated_Source\PSoC6\pdl\drivers\peripheral\scb/cy_scb_common.h **** }
 2041              		.loc 2 924 0
 2042 0124 0022     		movs	r2, #0
 2043 0126 5B4B     		ldr	r3, .L234+4
 2044              	.LBE421:
 2045              	.LBE420:
1283:Generated_Source\PSoC6\pdl\drivers\peripheral\scb/cy_scb_uart.c ****             {
1284:Generated_Source\PSoC6\pdl\drivers\peripheral\scb/cy_scb_uart.c ****                 Cy_SCB_SetRxInterruptMask(base, CY_SCB_CLEAR_ALL_INTR_SRC);
1285:Generated_Source\PSoC6\pdl\drivers\peripheral\scb/cy_scb_uart.c **** 
1286:Generated_Source\PSoC6\pdl\drivers\peripheral\scb/cy_scb_uart.c ****                 locHead = (locHead > 0UL) ? (locHead - 1UL) : (context->rxRingBufSize - 1UL);
 2046              		.loc 1 1286 0
ARM GAS  C:\Users\pearlstl\AppData\Local\Temp\ccAUXqAU.s 			page 115


 2047 0128 7E1E     		subs	r6, r7, #1
 2048              	.LVL171:
 2049              	.LBB423:
 2050              	.LBB422:
 924:Generated_Source\PSoC6\pdl\drivers\peripheral\scb/cy_scb_common.h **** }
 2051              		.loc 2 924 0
 2052 012a EA50     		str	r2, [r5, r3]
 2053              	.LVL172:
 2054              	.LBE422:
 2055              	.LBE423:
 2056              		.loc 1 1286 0
 2057 012c 9742     		cmp	r7, r2
 2058 012e 14D1     		bne	.L176
 2059 0130 E368     		ldr	r3, [r4, #12]
 2060 0132 5E1E     		subs	r6, r3, #1
 2061 0134 11E0     		b	.L176
 2062              	.LVL173:
 2063              	.L173:
 2064              	.LBB424:
 2065              	.LBB425:
 620:Generated_Source\PSoC6\pdl\drivers\peripheral\scb/cy_scb_common.h **** }
 2066              		.loc 2 620 0
 2067 0136 D023     		movs	r3, #208
 2068 0138 9B00     		lsls	r3, r3, #2
 2069 013a E958     		ldr	r1, [r5, r3]
 2070              	.LVL174:
 2071              	.LBE425:
 2072              	.LBE424:
 2073              	.LBB426:
 2074              	.LBB427:
 2075              		.loc 2 1710 0
 2076 013c 403B     		subs	r3, r3, #64
 2077 013e EA58     		ldr	r2, [r5, r3]
 2078              	.LVL175:
 2079              	.LBE427:
 2080              	.LBE426:
1287:Generated_Source\PSoC6\pdl\drivers\peripheral\scb/cy_scb_uart.c ****                 break;
1288:Generated_Source\PSoC6\pdl\drivers\peripheral\scb/cy_scb_uart.c ****             }
1289:Generated_Source\PSoC6\pdl\drivers\peripheral\scb/cy_scb_uart.c ****         }
1290:Generated_Source\PSoC6\pdl\drivers\peripheral\scb/cy_scb_uart.c **** 
1291:Generated_Source\PSoC6\pdl\drivers\peripheral\scb/cy_scb_uart.c ****         /* Get data from RX FIFO. */
1292:Generated_Source\PSoC6\pdl\drivers\peripheral\scb/cy_scb_uart.c ****         rxData = Cy_SCB_ReadRxFifo(base);
1293:Generated_Source\PSoC6\pdl\drivers\peripheral\scb/cy_scb_uart.c **** 
1294:Generated_Source\PSoC6\pdl\drivers\peripheral\scb/cy_scb_uart.c ****         /* Put a data item in the ring buffer */
1295:Generated_Source\PSoC6\pdl\drivers\peripheral\scb/cy_scb_uart.c ****         if (Cy_SCB_IsRxDataWidthByte(base))
 2081              		.loc 1 1295 0
 2082 0140 0F23     		movs	r3, #15
 2083 0142 1340     		ands	r3, r2
 2084 0144 A268     		ldr	r2, [r4, #8]
 2085 0146 072B     		cmp	r3, #7
 2086 0148 01D8     		bhi	.L177
1296:Generated_Source\PSoC6\pdl\drivers\peripheral\scb/cy_scb_uart.c ****         {
1297:Generated_Source\PSoC6\pdl\drivers\peripheral\scb/cy_scb_uart.c ****             ((uint8_t *) context->rxRingBuf)[locHead] = (uint8_t) rxData;
 2087              		.loc 1 1297 0
 2088 014a 9155     		strb	r1, [r2, r6]
 2089 014c 01E0     		b	.L178
 2090              	.L177:
ARM GAS  C:\Users\pearlstl\AppData\Local\Temp\ccAUXqAU.s 			page 116


1298:Generated_Source\PSoC6\pdl\drivers\peripheral\scb/cy_scb_uart.c ****         }
1299:Generated_Source\PSoC6\pdl\drivers\peripheral\scb/cy_scb_uart.c ****         else
1300:Generated_Source\PSoC6\pdl\drivers\peripheral\scb/cy_scb_uart.c ****         {
1301:Generated_Source\PSoC6\pdl\drivers\peripheral\scb/cy_scb_uart.c ****             ((uint16_t *) context->rxRingBuf)[locHead] = (uint16_t) rxData;
 2091              		.loc 1 1301 0
 2092 014e 7300     		lsls	r3, r6, #1
 2093 0150 D152     		strh	r1, [r2, r3]
 2094              	.L178:
1302:Generated_Source\PSoC6\pdl\drivers\peripheral\scb/cy_scb_uart.c ****         }
1303:Generated_Source\PSoC6\pdl\drivers\peripheral\scb/cy_scb_uart.c **** 
1304:Generated_Source\PSoC6\pdl\drivers\peripheral\scb/cy_scb_uart.c ****         --numToCopy;
 2095              		.loc 1 1304 0
 2096 0152 009B     		ldr	r3, [sp]
 2097 0154 013B     		subs	r3, r3, #1
 2098 0156 0093     		str	r3, [sp]
 2099              	.LVL176:
 2100 0158 D1E7     		b	.L171
 2101              	.LVL177:
 2102              	.L176:
1305:Generated_Source\PSoC6\pdl\drivers\peripheral\scb/cy_scb_uart.c ****     }
1306:Generated_Source\PSoC6\pdl\drivers\peripheral\scb/cy_scb_uart.c **** 
1307:Generated_Source\PSoC6\pdl\drivers\peripheral\scb/cy_scb_uart.c ****     /* Update the head index */
1308:Generated_Source\PSoC6\pdl\drivers\peripheral\scb/cy_scb_uart.c ****     context->rxRingBufHead = locHead;
 2103              		.loc 1 1308 0
 2104 015a 2661     		str	r6, [r4, #16]
1309:Generated_Source\PSoC6\pdl\drivers\peripheral\scb/cy_scb_uart.c **** 
1310:Generated_Source\PSoC6\pdl\drivers\peripheral\scb/cy_scb_uart.c ****     /* Get free entries in the ring buffer */
1311:Generated_Source\PSoC6\pdl\drivers\peripheral\scb/cy_scb_uart.c ****     numToCopy = context->rxRingBufSize - Cy_SCB_UART_GetNumInRingBuffer(base, context);
 2105              		.loc 1 1311 0
 2106 015c 2100     		movs	r1, r4
 2107 015e 2800     		movs	r0, r5
 2108 0160 E668     		ldr	r6, [r4, #12]
 2109              	.LVL178:
 2110 0162 FFF7FEFF 		bl	Cy_SCB_UART_GetNumInRingBuffer
 2111              	.LVL179:
1312:Generated_Source\PSoC6\pdl\drivers\peripheral\scb/cy_scb_uart.c **** 
1313:Generated_Source\PSoC6\pdl\drivers\peripheral\scb/cy_scb_uart.c ****     if (numToCopy < halfFifoSize)
 2112              		.loc 1 1313 0
 2113 0166 019B     		ldr	r3, [sp, #4]
1311:Generated_Source\PSoC6\pdl\drivers\peripheral\scb/cy_scb_uart.c **** 
 2114              		.loc 1 1311 0
 2115 0168 301A     		subs	r0, r6, r0
 2116              	.LVL180:
 2117              		.loc 1 1313 0
 2118 016a 8342     		cmp	r3, r0
 2119 016c 0AD9     		bls	.L167
 2120              	.LBB428:
1314:Generated_Source\PSoC6\pdl\drivers\peripheral\scb/cy_scb_uart.c ****     {
1315:Generated_Source\PSoC6\pdl\drivers\peripheral\scb/cy_scb_uart.c ****         /* Adjust the level to copy to the ring buffer */
1316:Generated_Source\PSoC6\pdl\drivers\peripheral\scb/cy_scb_uart.c ****         uint32_t level = (numToCopy > 0UL) ? (numToCopy - 1UL) : 0UL;
 2121              		.loc 1 1316 0
 2122 016e 0023     		movs	r3, #0
 2123 0170 9842     		cmp	r0, r3
 2124 0172 00D0     		beq	.L180
 2125 0174 431E     		subs	r3, r0, #1
 2126              	.L180:
 2127              	.LVL181:
ARM GAS  C:\Users\pearlstl\AppData\Local\Temp\ccAUXqAU.s 			page 117


 2128              	.LBB429:
 2129              	.LBB430:
 642:Generated_Source\PSoC6\pdl\drivers\peripheral\scb/cy_scb_common.h **** }
 2130              		.loc 2 642 0
 2131 0176 C121     		movs	r1, #193
 2132 0178 8900     		lsls	r1, r1, #2
 2133 017a 6A58     		ldr	r2, [r5, r1]
 2134              	.LVL182:
 2135              	.L233:
 2136 017c FF20     		movs	r0, #255
 2137 017e 8243     		bics	r2, r0
 2138 0180 1343     		orrs	r3, r2
 2139 0182 6B50     		str	r3, [r5, r1]
 2140              	.L167:
 2141              	.LVL183:
 2142              	.LBE430:
 2143              	.LBE429:
 2144              	.LBE428:
 2145              	.LBE413:
 2146              	.LBE412:
 2147              	.LBB431:
 2148              	.LBB432:
 999:Generated_Source\PSoC6\pdl\drivers\peripheral\scb/cy_scb_common.h ****     (void) SCB_INTR_RX(base);
 2149              		.loc 2 999 0
 2150 0184 FC23     		movs	r3, #252
 2151 0186 0122     		movs	r2, #1
 2152 0188 1B01     		lsls	r3, r3, #4
 2153 018a EA50     		str	r2, [r5, r3]
1000:Generated_Source\PSoC6\pdl\drivers\peripheral\scb/cy_scb_common.h **** }
 2154              		.loc 2 1000 0
 2155 018c EB58     		ldr	r3, [r5, r3]
 2156              	.LVL184:
 2157              	.L153:
 2158              	.LBE432:
 2159              	.LBE431:
 2160              	.LBE382:
 2161              	.LBB433:
 2162              	.LBB434:
 878:Generated_Source\PSoC6\pdl\drivers\peripheral\scb/cy_scb_common.h **** }
 2163              		.loc 2 878 0
 2164 018e E023     		movs	r3, #224
 2165 0190 1B01     		lsls	r3, r3, #4
 2166 0192 EB58     		ldr	r3, [r5, r3]
 2167              	.LVL185:
 2168              	.LBE434:
 2169              	.LBE433:
1126:Generated_Source\PSoC6\pdl\drivers\peripheral\scb/cy_scb_uart.c ****     {
 2170              		.loc 1 1126 0
 2171 0194 5B07     		lsls	r3, r3, #29
 2172 0196 7AD5     		bpl	.L151
 2173              	.LVL186:
 2174              	.LBB435:
1128:Generated_Source\PSoC6\pdl\drivers\peripheral\scb/cy_scb_uart.c **** 
 2175              		.loc 1 1128 0
 2176 0198 A023     		movs	r3, #160
 2177              	.LBB436:
 2178              	.LBB437:
ARM GAS  C:\Users\pearlstl\AppData\Local\Temp\ccAUXqAU.s 			page 118


1113:Generated_Source\PSoC6\pdl\drivers\peripheral\scb/cy_scb_common.h **** }
 2179              		.loc 2 1113 0
 2180 019a 3F4A     		ldr	r2, .L234+8
 2181              	.LBE437:
 2182              	.LBE436:
1128:Generated_Source\PSoC6\pdl\drivers\peripheral\scb/cy_scb_uart.c **** 
 2183              		.loc 1 1128 0
 2184 019c DB00     		lsls	r3, r3, #3
 2185              	.LBB439:
 2186              	.LBB438:
1113:Generated_Source\PSoC6\pdl\drivers\peripheral\scb/cy_scb_common.h **** }
 2187              		.loc 2 1113 0
 2188 019e A958     		ldr	r1, [r5, r2]
 2189              	.LVL187:
 2190 01a0 0192     		str	r2, [sp, #4]
 2191              	.LBE438:
 2192              	.LBE439:
1128:Generated_Source\PSoC6\pdl\drivers\peripheral\scb/cy_scb_uart.c **** 
 2193              		.loc 1 1128 0
 2194 01a2 0B40     		ands	r3, r1
 2195              	.LVL188:
1131:Generated_Source\PSoC6\pdl\drivers\peripheral\scb/cy_scb_uart.c ****         {
 2196              		.loc 1 1131 0
 2197 01a4 0BD0     		beq	.L184
1133:Generated_Source\PSoC6\pdl\drivers\peripheral\scb/cy_scb_uart.c ****             Cy_SCB_ClearTxInterrupt(base, locTxErr);
 2198              		.loc 1 1133 0
 2199 01a6 2268     		ldr	r2, [r4]
 2200 01a8 1A43     		orrs	r2, r3
 2201 01aa 2260     		str	r2, [r4]
 2202              	.LVL189:
 2203              	.LBB440:
 2204              	.LBB441:
1145:Generated_Source\PSoC6\pdl\drivers\peripheral\scb/cy_scb_common.h ****     (void) SCB_INTR_TX(base);
 2205              		.loc 2 1145 0
 2206 01ac F822     		movs	r2, #248
 2207 01ae 1201     		lsls	r2, r2, #4
 2208 01b0 AB50     		str	r3, [r5, r2]
1146:Generated_Source\PSoC6\pdl\drivers\peripheral\scb/cy_scb_common.h **** }
 2209              		.loc 2 1146 0
 2210 01b2 AB58     		ldr	r3, [r5, r2]
 2211              	.LVL190:
 2212              	.LBE441:
 2213              	.LBE440:
1136:Generated_Source\PSoC6\pdl\drivers\peripheral\scb/cy_scb_uart.c ****             {
 2214              		.loc 1 1136 0
 2215 01b4 236B     		ldr	r3, [r4, #48]
 2216 01b6 002B     		cmp	r3, #0
 2217 01b8 01D0     		beq	.L184
1138:Generated_Source\PSoC6\pdl\drivers\peripheral\scb/cy_scb_uart.c ****             }
 2218              		.loc 1 1138 0
 2219 01ba 2020     		movs	r0, #32
 2220 01bc 9847     		blx	r3
 2221              	.LVL191:
 2222              	.L184:
 2223              	.LBB442:
 2224              	.LBB443:
1113:Generated_Source\PSoC6\pdl\drivers\peripheral\scb/cy_scb_common.h **** }
ARM GAS  C:\Users\pearlstl\AppData\Local\Temp\ccAUXqAU.s 			page 119


 2225              		.loc 2 1113 0
 2226 01be 019B     		ldr	r3, [sp, #4]
 2227 01c0 EB58     		ldr	r3, [r5, r3]
 2228              	.LVL192:
 2229              	.LBE443:
 2230              	.LBE442:
1143:Generated_Source\PSoC6\pdl\drivers\peripheral\scb/cy_scb_uart.c ****         {
 2231              		.loc 1 1143 0
 2232 01c2 DB07     		lsls	r3, r3, #31
 2233 01c4 52D5     		bpl	.L186
 2234              	.LVL193:
 2235              	.LBB444:
 2236              	.LBB445:
 2237              	.LBB446:
 2238              	.LBB447:
1690:Generated_Source\PSoC6\pdl\drivers\peripheral\scb/cy_scb_common.h ****                 (CY_SCB_FIFO_SIZE) : (CY_SCB_FIFO_SIZE / 2UL));
 2239              		.loc 2 1690 0
 2240 01c6 2B68     		ldr	r3, [r5]
1691:Generated_Source\PSoC6\pdl\drivers\peripheral\scb/cy_scb_common.h **** }
 2241              		.loc 2 1691 0
 2242 01c8 8026     		movs	r6, #128
 2243 01ca 1B05     		lsls	r3, r3, #20
 2244 01cc 00D4     		bmi	.L187
 2245 01ce 403E     		subs	r6, r6, #64
 2246              	.L187:
 2247              	.LVL194:
 2248              	.LBE447:
 2249              	.LBE446:
 2250              	.LBB448:
 2251              	.LBB449:
1711:Generated_Source\PSoC6\pdl\drivers\peripheral\scb/cy_scb_common.h **** }
1712:Generated_Source\PSoC6\pdl\drivers\peripheral\scb/cy_scb_common.h **** 
1713:Generated_Source\PSoC6\pdl\drivers\peripheral\scb/cy_scb_common.h **** 
1714:Generated_Source\PSoC6\pdl\drivers\peripheral\scb/cy_scb_common.h **** /*******************************************************************************
1715:Generated_Source\PSoC6\pdl\drivers\peripheral\scb/cy_scb_common.h **** * Function Name: Cy_SCB_IsTxDataWidthByte
1716:Generated_Source\PSoC6\pdl\drivers\peripheral\scb/cy_scb_common.h **** ****************************************************************************//**
1717:Generated_Source\PSoC6\pdl\drivers\peripheral\scb/cy_scb_common.h **** *
1718:Generated_Source\PSoC6\pdl\drivers\peripheral\scb/cy_scb_common.h **** * Returns true if the TX data width is a byte (8 bits).
1719:Generated_Source\PSoC6\pdl\drivers\peripheral\scb/cy_scb_common.h **** *
1720:Generated_Source\PSoC6\pdl\drivers\peripheral\scb/cy_scb_common.h **** * \param base
1721:Generated_Source\PSoC6\pdl\drivers\peripheral\scb/cy_scb_common.h **** * The pointer to the SCB instance.
1722:Generated_Source\PSoC6\pdl\drivers\peripheral\scb/cy_scb_common.h **** *
1723:Generated_Source\PSoC6\pdl\drivers\peripheral\scb/cy_scb_common.h **** * \return
1724:Generated_Source\PSoC6\pdl\drivers\peripheral\scb/cy_scb_common.h **** * If true, the TX data width is a byte (8 bits). Otherwise, false.
1725:Generated_Source\PSoC6\pdl\drivers\peripheral\scb/cy_scb_common.h **** *
1726:Generated_Source\PSoC6\pdl\drivers\peripheral\scb/cy_scb_common.h **** *******************************************************************************/
1727:Generated_Source\PSoC6\pdl\drivers\peripheral\scb/cy_scb_common.h **** __STATIC_INLINE bool Cy_SCB_IsTxDataWidthByte(CySCB_Type const *base)
1728:Generated_Source\PSoC6\pdl\drivers\peripheral\scb/cy_scb_common.h **** {
1729:Generated_Source\PSoC6\pdl\drivers\peripheral\scb/cy_scb_common.h ****     return (_FLD2VAL(SCB_TX_CTRL_DATA_WIDTH, SCB_TX_CTRL(base)) < CY_SCB_BYTE_WIDTH);
 2252              		.loc 2 1729 0
 2253 01d0 8023     		movs	r3, #128
 2254 01d2 9B00     		lsls	r3, r3, #2
 2255 01d4 EA58     		ldr	r2, [r5, r3]
 2256 01d6 F23B     		subs	r3, r3, #242
 2257 01d8 FF3B     		subs	r3, r3, #255
 2258 01da 1A40     		ands	r2, r3
 2259 01dc 0092     		str	r2, [sp]
ARM GAS  C:\Users\pearlstl\AppData\Local\Temp\ccAUXqAU.s 			page 120


 2260              	.LVL195:
 2261              	.LBE449:
 2262              	.LBE448:
1317:Generated_Source\PSoC6\pdl\drivers\peripheral\scb/cy_scb_uart.c ****         Cy_SCB_SetRxFifoLevel(base, level);
1318:Generated_Source\PSoC6\pdl\drivers\peripheral\scb/cy_scb_uart.c ****     }
1319:Generated_Source\PSoC6\pdl\drivers\peripheral\scb/cy_scb_uart.c **** }
1320:Generated_Source\PSoC6\pdl\drivers\peripheral\scb/cy_scb_uart.c **** 
1321:Generated_Source\PSoC6\pdl\drivers\peripheral\scb/cy_scb_uart.c **** 
1322:Generated_Source\PSoC6\pdl\drivers\peripheral\scb/cy_scb_uart.c **** /*******************************************************************************
1323:Generated_Source\PSoC6\pdl\drivers\peripheral\scb/cy_scb_uart.c **** * Function Name: HandleDataTransmit
1324:Generated_Source\PSoC6\pdl\drivers\peripheral\scb/cy_scb_uart.c **** ****************************************************************************//**
1325:Generated_Source\PSoC6\pdl\drivers\peripheral\scb/cy_scb_uart.c **** *
1326:Generated_Source\PSoC6\pdl\drivers\peripheral\scb/cy_scb_uart.c **** * Loads the transmit FIFO with data provided by \ref Cy_SCB_UART_Transmit.
1327:Generated_Source\PSoC6\pdl\drivers\peripheral\scb/cy_scb_uart.c **** *
1328:Generated_Source\PSoC6\pdl\drivers\peripheral\scb/cy_scb_uart.c **** * \param base
1329:Generated_Source\PSoC6\pdl\drivers\peripheral\scb/cy_scb_uart.c **** * The pointer to the UART SCB instance.
1330:Generated_Source\PSoC6\pdl\drivers\peripheral\scb/cy_scb_uart.c **** *
1331:Generated_Source\PSoC6\pdl\drivers\peripheral\scb/cy_scb_uart.c **** * \param context
1332:Generated_Source\PSoC6\pdl\drivers\peripheral\scb/cy_scb_uart.c **** * The pointer to the context structure \ref cy_stc_scb_uart_context_t allocated
1333:Generated_Source\PSoC6\pdl\drivers\peripheral\scb/cy_scb_uart.c **** * by the user. The structure is used during the UART operation for internal
1334:Generated_Source\PSoC6\pdl\drivers\peripheral\scb/cy_scb_uart.c **** * configuration and data retention. The user must not modify anything
1335:Generated_Source\PSoC6\pdl\drivers\peripheral\scb/cy_scb_uart.c **** * in this structure.
1336:Generated_Source\PSoC6\pdl\drivers\peripheral\scb/cy_scb_uart.c **** *
1337:Generated_Source\PSoC6\pdl\drivers\peripheral\scb/cy_scb_uart.c **** *******************************************************************************/
1338:Generated_Source\PSoC6\pdl\drivers\peripheral\scb/cy_scb_uart.c **** static void HandleDataTransmit(CySCB_Type *base, cy_stc_scb_uart_context_t *context)
1339:Generated_Source\PSoC6\pdl\drivers\peripheral\scb/cy_scb_uart.c **** {
1340:Generated_Source\PSoC6\pdl\drivers\peripheral\scb/cy_scb_uart.c ****     uint32_t numToCopy;
1341:Generated_Source\PSoC6\pdl\drivers\peripheral\scb/cy_scb_uart.c ****     uint32_t fifoSize = Cy_SCB_GetFifoSize(base);
1342:Generated_Source\PSoC6\pdl\drivers\peripheral\scb/cy_scb_uart.c ****     bool     byteMode = Cy_SCB_IsTxDataWidthByte(base);
1343:Generated_Source\PSoC6\pdl\drivers\peripheral\scb/cy_scb_uart.c **** 
1344:Generated_Source\PSoC6\pdl\drivers\peripheral\scb/cy_scb_uart.c ****     if (context->txBufSize > 1UL)
 2263              		.loc 1 1344 0
 2264 01de A26A     		ldr	r2, [r4, #40]
 2265 01e0 012A     		cmp	r2, #1
 2266 01e2 0FD9     		bls	.L188
 2267              	.LBB450:
1345:Generated_Source\PSoC6\pdl\drivers\peripheral\scb/cy_scb_uart.c ****     {
1346:Generated_Source\PSoC6\pdl\drivers\peripheral\scb/cy_scb_uart.c ****         uint8_t *buf = (uint8_t *) context->txBuf;
 2268              		.loc 1 1346 0
 2269 01e4 676A     		ldr	r7, [r4, #36]
 2270              	.LVL196:
1347:Generated_Source\PSoC6\pdl\drivers\peripheral\scb/cy_scb_uart.c **** 
1348:Generated_Source\PSoC6\pdl\drivers\peripheral\scb/cy_scb_uart.c ****         /* Get the number of items left for transmission */
1349:Generated_Source\PSoC6\pdl\drivers\peripheral\scb/cy_scb_uart.c ****         context->txLeftToTransmit = context->txBufSize;
 2271              		.loc 1 1349 0
 2272 01e6 E262     		str	r2, [r4, #44]
 2273              	.LVL197:
 2274              	.LBB451:
 2275              	.LBB452:
1227:Generated_Source\PSoC6\pdl\drivers\peripheral\scb/cy_scb_uart.h **** }
1228:Generated_Source\PSoC6\pdl\drivers\peripheral\scb/cy_scb_uart.h **** 
1229:Generated_Source\PSoC6\pdl\drivers\peripheral\scb/cy_scb_uart.h **** 
1230:Generated_Source\PSoC6\pdl\drivers\peripheral\scb/cy_scb_uart.h **** /*******************************************************************************
1231:Generated_Source\PSoC6\pdl\drivers\peripheral\scb/cy_scb_uart.h **** * Function Name: Cy_SCB_UART_GetArrayBlocking
1232:Generated_Source\PSoC6\pdl\drivers\peripheral\scb/cy_scb_uart.h **** ****************************************************************************//**
1233:Generated_Source\PSoC6\pdl\drivers\peripheral\scb/cy_scb_uart.h **** *
1234:Generated_Source\PSoC6\pdl\drivers\peripheral\scb/cy_scb_uart.h **** * Reads an array of data out of the UART RX FIFO.
ARM GAS  C:\Users\pearlstl\AppData\Local\Temp\ccAUXqAU.s 			page 121


1235:Generated_Source\PSoC6\pdl\drivers\peripheral\scb/cy_scb_uart.h **** * This function blocks until the number of data elements specified by the
1236:Generated_Source\PSoC6\pdl\drivers\peripheral\scb/cy_scb_uart.h **** * size has been read from the RX FIFO.
1237:Generated_Source\PSoC6\pdl\drivers\peripheral\scb/cy_scb_uart.h **** *
1238:Generated_Source\PSoC6\pdl\drivers\peripheral\scb/cy_scb_uart.h **** * \param base
1239:Generated_Source\PSoC6\pdl\drivers\peripheral\scb/cy_scb_uart.h **** * The pointer to the UART SCB instance.
1240:Generated_Source\PSoC6\pdl\drivers\peripheral\scb/cy_scb_uart.h **** *
1241:Generated_Source\PSoC6\pdl\drivers\peripheral\scb/cy_scb_uart.h **** * \param buffer
1242:Generated_Source\PSoC6\pdl\drivers\peripheral\scb/cy_scb_uart.h **** * The pointer to the location to place the data read from the RX FIFO.
1243:Generated_Source\PSoC6\pdl\drivers\peripheral\scb/cy_scb_uart.h **** * The element size is defined by the data type, which depends on the configured
1244:Generated_Source\PSoC6\pdl\drivers\peripheral\scb/cy_scb_uart.h **** * data width.
1245:Generated_Source\PSoC6\pdl\drivers\peripheral\scb/cy_scb_uart.h **** *
1246:Generated_Source\PSoC6\pdl\drivers\peripheral\scb/cy_scb_uart.h **** * \param size
1247:Generated_Source\PSoC6\pdl\drivers\peripheral\scb/cy_scb_uart.h **** * The number of data elements to read from the RX FIFO.
1248:Generated_Source\PSoC6\pdl\drivers\peripheral\scb/cy_scb_uart.h **** *
1249:Generated_Source\PSoC6\pdl\drivers\peripheral\scb/cy_scb_uart.h **** *******************************************************************************/
1250:Generated_Source\PSoC6\pdl\drivers\peripheral\scb/cy_scb_uart.h **** __STATIC_INLINE void Cy_SCB_UART_GetArrayBlocking(CySCB_Type const *base, void *buffer, uint32_t si
1251:Generated_Source\PSoC6\pdl\drivers\peripheral\scb/cy_scb_uart.h **** {
1252:Generated_Source\PSoC6\pdl\drivers\peripheral\scb/cy_scb_uart.h ****     CY_ASSERT_L1(CY_SCB_IS_BUFFER_VALID(buffer, size));
1253:Generated_Source\PSoC6\pdl\drivers\peripheral\scb/cy_scb_uart.h **** 
1254:Generated_Source\PSoC6\pdl\drivers\peripheral\scb/cy_scb_uart.h ****     Cy_SCB_ReadArrayBlocking(base, buffer, size);
1255:Generated_Source\PSoC6\pdl\drivers\peripheral\scb/cy_scb_uart.h **** }
1256:Generated_Source\PSoC6\pdl\drivers\peripheral\scb/cy_scb_uart.h **** 
1257:Generated_Source\PSoC6\pdl\drivers\peripheral\scb/cy_scb_uart.h **** 
1258:Generated_Source\PSoC6\pdl\drivers\peripheral\scb/cy_scb_uart.h **** /*******************************************************************************
1259:Generated_Source\PSoC6\pdl\drivers\peripheral\scb/cy_scb_uart.h **** * Function Name: Cy_SCB_UART_GetRxFifoStatus
1260:Generated_Source\PSoC6\pdl\drivers\peripheral\scb/cy_scb_uart.h **** ****************************************************************************//**
1261:Generated_Source\PSoC6\pdl\drivers\peripheral\scb/cy_scb_uart.h **** *
1262:Generated_Source\PSoC6\pdl\drivers\peripheral\scb/cy_scb_uart.h **** * Returns the current status of the RX FIFO.
1263:Generated_Source\PSoC6\pdl\drivers\peripheral\scb/cy_scb_uart.h **** *
1264:Generated_Source\PSoC6\pdl\drivers\peripheral\scb/cy_scb_uart.h **** * \param base
1265:Generated_Source\PSoC6\pdl\drivers\peripheral\scb/cy_scb_uart.h **** * The pointer to the UART SCB instance.
1266:Generated_Source\PSoC6\pdl\drivers\peripheral\scb/cy_scb_uart.h **** *
1267:Generated_Source\PSoC6\pdl\drivers\peripheral\scb/cy_scb_uart.h **** * \return
1268:Generated_Source\PSoC6\pdl\drivers\peripheral\scb/cy_scb_uart.h **** * \ref group_scb_uart_macros_rx_fifo_status
1269:Generated_Source\PSoC6\pdl\drivers\peripheral\scb/cy_scb_uart.h **** *
1270:Generated_Source\PSoC6\pdl\drivers\peripheral\scb/cy_scb_uart.h **** *******************************************************************************/
1271:Generated_Source\PSoC6\pdl\drivers\peripheral\scb/cy_scb_uart.h **** __STATIC_INLINE uint32_t Cy_SCB_UART_GetRxFifoStatus(CySCB_Type const *base)
1272:Generated_Source\PSoC6\pdl\drivers\peripheral\scb/cy_scb_uart.h **** {
1273:Generated_Source\PSoC6\pdl\drivers\peripheral\scb/cy_scb_uart.h ****     return (Cy_SCB_GetRxInterruptStatus(base) & CY_SCB_UART_RX_INTR_MASK);
1274:Generated_Source\PSoC6\pdl\drivers\peripheral\scb/cy_scb_uart.h **** }
1275:Generated_Source\PSoC6\pdl\drivers\peripheral\scb/cy_scb_uart.h **** 
1276:Generated_Source\PSoC6\pdl\drivers\peripheral\scb/cy_scb_uart.h **** 
1277:Generated_Source\PSoC6\pdl\drivers\peripheral\scb/cy_scb_uart.h **** /*******************************************************************************
1278:Generated_Source\PSoC6\pdl\drivers\peripheral\scb/cy_scb_uart.h **** * Function Name: Cy_SCB_UART_ClearRxFifoStatus
1279:Generated_Source\PSoC6\pdl\drivers\peripheral\scb/cy_scb_uart.h **** ****************************************************************************//**
1280:Generated_Source\PSoC6\pdl\drivers\peripheral\scb/cy_scb_uart.h **** *
1281:Generated_Source\PSoC6\pdl\drivers\peripheral\scb/cy_scb_uart.h **** * Clears the selected statuses of the RX FIFO.
1282:Generated_Source\PSoC6\pdl\drivers\peripheral\scb/cy_scb_uart.h **** *
1283:Generated_Source\PSoC6\pdl\drivers\peripheral\scb/cy_scb_uart.h **** * \param base
1284:Generated_Source\PSoC6\pdl\drivers\peripheral\scb/cy_scb_uart.h **** * The pointer to the UART SCB instance.
1285:Generated_Source\PSoC6\pdl\drivers\peripheral\scb/cy_scb_uart.h **** *
1286:Generated_Source\PSoC6\pdl\drivers\peripheral\scb/cy_scb_uart.h **** * \param clearMask
1287:Generated_Source\PSoC6\pdl\drivers\peripheral\scb/cy_scb_uart.h **** * The mask whose statuses to clear.
1288:Generated_Source\PSoC6\pdl\drivers\peripheral\scb/cy_scb_uart.h **** * See \ref group_scb_uart_macros_rx_fifo_status for the set of constants.
1289:Generated_Source\PSoC6\pdl\drivers\peripheral\scb/cy_scb_uart.h **** *
1290:Generated_Source\PSoC6\pdl\drivers\peripheral\scb/cy_scb_uart.h **** * \note
1291:Generated_Source\PSoC6\pdl\drivers\peripheral\scb/cy_scb_uart.h **** * * This status is also used for interrupt generation, so clearing it also
ARM GAS  C:\Users\pearlstl\AppData\Local\Temp\ccAUXqAU.s 			page 122


1292:Generated_Source\PSoC6\pdl\drivers\peripheral\scb/cy_scb_uart.h **** *   clears the interrupt sources.
1293:Generated_Source\PSoC6\pdl\drivers\peripheral\scb/cy_scb_uart.h **** * * Level-sensitive statuses such as \ref CY_SCB_UART_RX_TRIGGER,
1294:Generated_Source\PSoC6\pdl\drivers\peripheral\scb/cy_scb_uart.h **** *   \ref CY_SCB_UART_RX_NOT_EMPTY and \ref CY_SCB_UART_RX_FULL are set high again after
1295:Generated_Source\PSoC6\pdl\drivers\peripheral\scb/cy_scb_uart.h **** *   being cleared if the condition remains true.
1296:Generated_Source\PSoC6\pdl\drivers\peripheral\scb/cy_scb_uart.h **** *
1297:Generated_Source\PSoC6\pdl\drivers\peripheral\scb/cy_scb_uart.h **** *******************************************************************************/
1298:Generated_Source\PSoC6\pdl\drivers\peripheral\scb/cy_scb_uart.h **** __STATIC_INLINE void Cy_SCB_UART_ClearRxFifoStatus(CySCB_Type *base, uint32_t clearMask)
1299:Generated_Source\PSoC6\pdl\drivers\peripheral\scb/cy_scb_uart.h **** {
1300:Generated_Source\PSoC6\pdl\drivers\peripheral\scb/cy_scb_uart.h ****     CY_ASSERT_L2(CY_SCB_IS_INTR_VALID(clearMask, CY_SCB_UART_RX_INTR_MASK));
1301:Generated_Source\PSoC6\pdl\drivers\peripheral\scb/cy_scb_uart.h **** 
1302:Generated_Source\PSoC6\pdl\drivers\peripheral\scb/cy_scb_uart.h ****     Cy_SCB_ClearRxInterrupt(base, clearMask);
1303:Generated_Source\PSoC6\pdl\drivers\peripheral\scb/cy_scb_uart.h **** }
1304:Generated_Source\PSoC6\pdl\drivers\peripheral\scb/cy_scb_uart.h **** 
1305:Generated_Source\PSoC6\pdl\drivers\peripheral\scb/cy_scb_uart.h **** 
1306:Generated_Source\PSoC6\pdl\drivers\peripheral\scb/cy_scb_uart.h **** /*******************************************************************************
1307:Generated_Source\PSoC6\pdl\drivers\peripheral\scb/cy_scb_uart.h **** * Function Name: Cy_SCB_UART_GetNumInRxFifo
1308:Generated_Source\PSoC6\pdl\drivers\peripheral\scb/cy_scb_uart.h **** ****************************************************************************//**
1309:Generated_Source\PSoC6\pdl\drivers\peripheral\scb/cy_scb_uart.h **** *
1310:Generated_Source\PSoC6\pdl\drivers\peripheral\scb/cy_scb_uart.h **** * Returns the number of data elements in the UART RX FIFO.
1311:Generated_Source\PSoC6\pdl\drivers\peripheral\scb/cy_scb_uart.h **** *
1312:Generated_Source\PSoC6\pdl\drivers\peripheral\scb/cy_scb_uart.h **** * \param base
1313:Generated_Source\PSoC6\pdl\drivers\peripheral\scb/cy_scb_uart.h **** * The pointer to the UART SCB instance.
1314:Generated_Source\PSoC6\pdl\drivers\peripheral\scb/cy_scb_uart.h **** *
1315:Generated_Source\PSoC6\pdl\drivers\peripheral\scb/cy_scb_uart.h **** * \return
1316:Generated_Source\PSoC6\pdl\drivers\peripheral\scb/cy_scb_uart.h **** * The number of data elements in the RX FIFO.
1317:Generated_Source\PSoC6\pdl\drivers\peripheral\scb/cy_scb_uart.h **** * The size of date element defined by the configured data width.
1318:Generated_Source\PSoC6\pdl\drivers\peripheral\scb/cy_scb_uart.h **** *
1319:Generated_Source\PSoC6\pdl\drivers\peripheral\scb/cy_scb_uart.h **** *******************************************************************************/
1320:Generated_Source\PSoC6\pdl\drivers\peripheral\scb/cy_scb_uart.h **** __STATIC_INLINE uint32_t Cy_SCB_UART_GetNumInRxFifo(CySCB_Type const *base)
1321:Generated_Source\PSoC6\pdl\drivers\peripheral\scb/cy_scb_uart.h **** {
1322:Generated_Source\PSoC6\pdl\drivers\peripheral\scb/cy_scb_uart.h ****     return Cy_SCB_GetNumInRxFifo(base);
1323:Generated_Source\PSoC6\pdl\drivers\peripheral\scb/cy_scb_uart.h **** }
1324:Generated_Source\PSoC6\pdl\drivers\peripheral\scb/cy_scb_uart.h **** 
1325:Generated_Source\PSoC6\pdl\drivers\peripheral\scb/cy_scb_uart.h **** /*******************************************************************************
1326:Generated_Source\PSoC6\pdl\drivers\peripheral\scb/cy_scb_uart.h **** * Function Name: Cy_SCB_UART_ClearRxFifo
1327:Generated_Source\PSoC6\pdl\drivers\peripheral\scb/cy_scb_uart.h **** ****************************************************************************//**
1328:Generated_Source\PSoC6\pdl\drivers\peripheral\scb/cy_scb_uart.h **** *
1329:Generated_Source\PSoC6\pdl\drivers\peripheral\scb/cy_scb_uart.h **** * Clears all data out of the UART RX FIFO.
1330:Generated_Source\PSoC6\pdl\drivers\peripheral\scb/cy_scb_uart.h **** *
1331:Generated_Source\PSoC6\pdl\drivers\peripheral\scb/cy_scb_uart.h **** * \param base
1332:Generated_Source\PSoC6\pdl\drivers\peripheral\scb/cy_scb_uart.h **** * The pointer to the UART SCB instance.
1333:Generated_Source\PSoC6\pdl\drivers\peripheral\scb/cy_scb_uart.h **** *
1334:Generated_Source\PSoC6\pdl\drivers\peripheral\scb/cy_scb_uart.h **** * \sideeffect
1335:Generated_Source\PSoC6\pdl\drivers\peripheral\scb/cy_scb_uart.h **** * Any data currently in the shifter is cleared and lost.
1336:Generated_Source\PSoC6\pdl\drivers\peripheral\scb/cy_scb_uart.h **** *
1337:Generated_Source\PSoC6\pdl\drivers\peripheral\scb/cy_scb_uart.h **** *******************************************************************************/
1338:Generated_Source\PSoC6\pdl\drivers\peripheral\scb/cy_scb_uart.h **** __STATIC_INLINE void Cy_SCB_UART_ClearRxFifo(CySCB_Type *base)
1339:Generated_Source\PSoC6\pdl\drivers\peripheral\scb/cy_scb_uart.h **** {
1340:Generated_Source\PSoC6\pdl\drivers\peripheral\scb/cy_scb_uart.h ****     Cy_SCB_ClearRxFifo(base);
1341:Generated_Source\PSoC6\pdl\drivers\peripheral\scb/cy_scb_uart.h **** }
1342:Generated_Source\PSoC6\pdl\drivers\peripheral\scb/cy_scb_uart.h **** 
1343:Generated_Source\PSoC6\pdl\drivers\peripheral\scb/cy_scb_uart.h **** 
1344:Generated_Source\PSoC6\pdl\drivers\peripheral\scb/cy_scb_uart.h **** /*******************************************************************************
1345:Generated_Source\PSoC6\pdl\drivers\peripheral\scb/cy_scb_uart.h **** * Function Name: Cy_SCB_UART_Put
1346:Generated_Source\PSoC6\pdl\drivers\peripheral\scb/cy_scb_uart.h **** ****************************************************************************//**
1347:Generated_Source\PSoC6\pdl\drivers\peripheral\scb/cy_scb_uart.h **** *
1348:Generated_Source\PSoC6\pdl\drivers\peripheral\scb/cy_scb_uart.h **** * Places a single data element in the UART TX FIFO.
ARM GAS  C:\Users\pearlstl\AppData\Local\Temp\ccAUXqAU.s 			page 123


1349:Generated_Source\PSoC6\pdl\drivers\peripheral\scb/cy_scb_uart.h **** * This function does not block and returns how many data elements were placed
1350:Generated_Source\PSoC6\pdl\drivers\peripheral\scb/cy_scb_uart.h **** * in the TX FIFO.
1351:Generated_Source\PSoC6\pdl\drivers\peripheral\scb/cy_scb_uart.h **** *
1352:Generated_Source\PSoC6\pdl\drivers\peripheral\scb/cy_scb_uart.h **** * \param base
1353:Generated_Source\PSoC6\pdl\drivers\peripheral\scb/cy_scb_uart.h **** * The pointer to the UART SCB instance.
1354:Generated_Source\PSoC6\pdl\drivers\peripheral\scb/cy_scb_uart.h **** *
1355:Generated_Source\PSoC6\pdl\drivers\peripheral\scb/cy_scb_uart.h **** * \param data
1356:Generated_Source\PSoC6\pdl\drivers\peripheral\scb/cy_scb_uart.h **** * Data to put in the TX FIFO.
1357:Generated_Source\PSoC6\pdl\drivers\peripheral\scb/cy_scb_uart.h **** * The element size is defined by the data type, which depends on the configured
1358:Generated_Source\PSoC6\pdl\drivers\peripheral\scb/cy_scb_uart.h **** * data width.
1359:Generated_Source\PSoC6\pdl\drivers\peripheral\scb/cy_scb_uart.h **** *
1360:Generated_Source\PSoC6\pdl\drivers\peripheral\scb/cy_scb_uart.h **** * \return
1361:Generated_Source\PSoC6\pdl\drivers\peripheral\scb/cy_scb_uart.h **** * The number of data elements placed in the TX FIFO: 0 or 1.
1362:Generated_Source\PSoC6\pdl\drivers\peripheral\scb/cy_scb_uart.h **** *
1363:Generated_Source\PSoC6\pdl\drivers\peripheral\scb/cy_scb_uart.h **** *******************************************************************************/
1364:Generated_Source\PSoC6\pdl\drivers\peripheral\scb/cy_scb_uart.h **** __STATIC_INLINE uint32_t Cy_SCB_UART_Put(CySCB_Type *base, uint32_t data)
1365:Generated_Source\PSoC6\pdl\drivers\peripheral\scb/cy_scb_uart.h **** {
1366:Generated_Source\PSoC6\pdl\drivers\peripheral\scb/cy_scb_uart.h ****     return Cy_SCB_Write(base, data);
1367:Generated_Source\PSoC6\pdl\drivers\peripheral\scb/cy_scb_uart.h **** }
1368:Generated_Source\PSoC6\pdl\drivers\peripheral\scb/cy_scb_uart.h **** 
1369:Generated_Source\PSoC6\pdl\drivers\peripheral\scb/cy_scb_uart.h **** 
1370:Generated_Source\PSoC6\pdl\drivers\peripheral\scb/cy_scb_uart.h **** /*******************************************************************************
1371:Generated_Source\PSoC6\pdl\drivers\peripheral\scb/cy_scb_uart.h **** * Function Name: Cy_SCB_UART_PutArray
1372:Generated_Source\PSoC6\pdl\drivers\peripheral\scb/cy_scb_uart.h **** ****************************************************************************//**
1373:Generated_Source\PSoC6\pdl\drivers\peripheral\scb/cy_scb_uart.h **** *
1374:Generated_Source\PSoC6\pdl\drivers\peripheral\scb/cy_scb_uart.h **** * Places an array of data in the UART TX FIFO.
1375:Generated_Source\PSoC6\pdl\drivers\peripheral\scb/cy_scb_uart.h **** * This function does not block. It returns how many data elements were
1376:Generated_Source\PSoC6\pdl\drivers\peripheral\scb/cy_scb_uart.h **** * placed in the TX FIFO.
1377:Generated_Source\PSoC6\pdl\drivers\peripheral\scb/cy_scb_uart.h **** *
1378:Generated_Source\PSoC6\pdl\drivers\peripheral\scb/cy_scb_uart.h **** * \param base
1379:Generated_Source\PSoC6\pdl\drivers\peripheral\scb/cy_scb_uart.h **** * The pointer to the UART SCB instance.
1380:Generated_Source\PSoC6\pdl\drivers\peripheral\scb/cy_scb_uart.h **** *
1381:Generated_Source\PSoC6\pdl\drivers\peripheral\scb/cy_scb_uart.h **** * \param buffer
1382:Generated_Source\PSoC6\pdl\drivers\peripheral\scb/cy_scb_uart.h **** * The pointer to data to place in the TX FIFO.
1383:Generated_Source\PSoC6\pdl\drivers\peripheral\scb/cy_scb_uart.h **** * The element size is defined by the data type, which depends on the configured
1384:Generated_Source\PSoC6\pdl\drivers\peripheral\scb/cy_scb_uart.h **** * TX data width.
1385:Generated_Source\PSoC6\pdl\drivers\peripheral\scb/cy_scb_uart.h **** *
1386:Generated_Source\PSoC6\pdl\drivers\peripheral\scb/cy_scb_uart.h **** * \param size
1387:Generated_Source\PSoC6\pdl\drivers\peripheral\scb/cy_scb_uart.h **** * The number of data elements to TX.
1388:Generated_Source\PSoC6\pdl\drivers\peripheral\scb/cy_scb_uart.h **** *
1389:Generated_Source\PSoC6\pdl\drivers\peripheral\scb/cy_scb_uart.h **** * \return
1390:Generated_Source\PSoC6\pdl\drivers\peripheral\scb/cy_scb_uart.h **** * The number of data elements placed in the TX FIFO.
1391:Generated_Source\PSoC6\pdl\drivers\peripheral\scb/cy_scb_uart.h **** *
1392:Generated_Source\PSoC6\pdl\drivers\peripheral\scb/cy_scb_uart.h **** *******************************************************************************/
1393:Generated_Source\PSoC6\pdl\drivers\peripheral\scb/cy_scb_uart.h **** __STATIC_INLINE uint32_t Cy_SCB_UART_PutArray(CySCB_Type *base, void *buffer, uint32_t size)
1394:Generated_Source\PSoC6\pdl\drivers\peripheral\scb/cy_scb_uart.h **** {
1395:Generated_Source\PSoC6\pdl\drivers\peripheral\scb/cy_scb_uart.h ****     CY_ASSERT_L1(CY_SCB_IS_BUFFER_VALID(buffer, size));
1396:Generated_Source\PSoC6\pdl\drivers\peripheral\scb/cy_scb_uart.h **** 
1397:Generated_Source\PSoC6\pdl\drivers\peripheral\scb/cy_scb_uart.h ****     return Cy_SCB_WriteArray(base, buffer, size);
 2276              		.loc 3 1397 0
 2277 01e8 3900     		movs	r1, r7
 2278 01ea 013A     		subs	r2, r2, #1
 2279              	.LVL198:
 2280 01ec 2800     		movs	r0, r5
 2281 01ee FFF7FEFF 		bl	Cy_SCB_WriteArray
 2282              	.LVL199:
 2283              	.LBE452:
ARM GAS  C:\Users\pearlstl\AppData\Local\Temp\ccAUXqAU.s 			page 124


 2284              	.LBE451:
1350:Generated_Source\PSoC6\pdl\drivers\peripheral\scb/cy_scb_uart.c **** 
1351:Generated_Source\PSoC6\pdl\drivers\peripheral\scb/cy_scb_uart.c ****         /* Put data into TX FIFO */
1352:Generated_Source\PSoC6\pdl\drivers\peripheral\scb/cy_scb_uart.c ****         numToCopy = Cy_SCB_UART_PutArray(base, context->txBuf, (context->txBufSize - 1UL));
1353:Generated_Source\PSoC6\pdl\drivers\peripheral\scb/cy_scb_uart.c **** 
1354:Generated_Source\PSoC6\pdl\drivers\peripheral\scb/cy_scb_uart.c ****         /* Move the buffer */
1355:Generated_Source\PSoC6\pdl\drivers\peripheral\scb/cy_scb_uart.c ****         context->txBufSize -= numToCopy;
 2285              		.loc 1 1355 0
 2286 01f2 A36A     		ldr	r3, [r4, #40]
 2287 01f4 1B1A     		subs	r3, r3, r0
 2288 01f6 A362     		str	r3, [r4, #40]
1356:Generated_Source\PSoC6\pdl\drivers\peripheral\scb/cy_scb_uart.c **** 
1357:Generated_Source\PSoC6\pdl\drivers\peripheral\scb/cy_scb_uart.c ****         buf = &buf[(byteMode) ? (numToCopy) : (2UL * numToCopy)];
 2289              		.loc 1 1357 0
 2290 01f8 009B     		ldr	r3, [sp]
 2291 01fa 072B     		cmp	r3, #7
 2292 01fc 00D9     		bls	.L189
 2293 01fe 4000     		lsls	r0, r0, #1
 2294              	.L189:
 2295              	.LVL200:
1358:Generated_Source\PSoC6\pdl\drivers\peripheral\scb/cy_scb_uart.c ****         context->txBuf = (void *) buf;
 2296              		.loc 1 1358 0
 2297 0200 3818     		adds	r0, r7, r0
 2298              	.LVL201:
 2299 0202 6062     		str	r0, [r4, #36]
 2300              	.LVL202:
 2301              	.L188:
 2302              	.LBE450:
 2303              	.LBB453:
 2304              	.LBB454:
 765:Generated_Source\PSoC6\pdl\drivers\peripheral\scb/cy_scb_common.h **** }
 2305              		.loc 2 765 0
 2306 0204 8223     		movs	r3, #130
 2307 0206 9B00     		lsls	r3, r3, #2
 2308 0208 EB58     		ldr	r3, [r5, r3]
 2309              	.LVL203:
 2310              	.LBE454:
 2311              	.LBE453:
1359:Generated_Source\PSoC6\pdl\drivers\peripheral\scb/cy_scb_uart.c ****     }
1360:Generated_Source\PSoC6\pdl\drivers\peripheral\scb/cy_scb_uart.c **** 
1361:Generated_Source\PSoC6\pdl\drivers\peripheral\scb/cy_scb_uart.c ****     /* Put the last data item into TX FIFO */
1362:Generated_Source\PSoC6\pdl\drivers\peripheral\scb/cy_scb_uart.c ****     if ((fifoSize != Cy_SCB_GetNumInTxFifo(base)) && (1UL == context->txBufSize))
 2312              		.loc 1 1362 0
 2313 020a DB05     		lsls	r3, r3, #23
 2314 020c DB0D     		lsrs	r3, r3, #23
 2315 020e B342     		cmp	r3, r6
 2316 0210 27D0     		beq	.L191
 2317 0212 A36A     		ldr	r3, [r4, #40]
 2318 0214 012B     		cmp	r3, #1
 2319 0216 24D1     		bne	.L191
 2320              	.LBB455:
1363:Generated_Source\PSoC6\pdl\drivers\peripheral\scb/cy_scb_uart.c ****     {
1364:Generated_Source\PSoC6\pdl\drivers\peripheral\scb/cy_scb_uart.c ****         uint32_t txData;
1365:Generated_Source\PSoC6\pdl\drivers\peripheral\scb/cy_scb_uart.c ****         uint32_t intrStatus;
1366:Generated_Source\PSoC6\pdl\drivers\peripheral\scb/cy_scb_uart.c **** 
1367:Generated_Source\PSoC6\pdl\drivers\peripheral\scb/cy_scb_uart.c ****         context->txBufSize = 0UL;
 2321              		.loc 1 1367 0
ARM GAS  C:\Users\pearlstl\AppData\Local\Temp\ccAUXqAU.s 			page 125


 2322 0218 0023     		movs	r3, #0
1368:Generated_Source\PSoC6\pdl\drivers\peripheral\scb/cy_scb_uart.c **** 
1369:Generated_Source\PSoC6\pdl\drivers\peripheral\scb/cy_scb_uart.c ****         /* Get the last item from the buffer */
1370:Generated_Source\PSoC6\pdl\drivers\peripheral\scb/cy_scb_uart.c ****         txData = (uint32_t) ((byteMode) ? ((uint8_t *)  context->txBuf)[0UL] :
 2323              		.loc 1 1370 0
 2324 021a 009A     		ldr	r2, [sp]
1367:Generated_Source\PSoC6\pdl\drivers\peripheral\scb/cy_scb_uart.c **** 
 2325              		.loc 1 1367 0
 2326 021c A362     		str	r3, [r4, #40]
 2327 021e 636A     		ldr	r3, [r4, #36]
 2328              		.loc 1 1370 0
 2329 0220 072A     		cmp	r2, #7
 2330 0222 01D8     		bhi	.L193
 2331 0224 1E78     		ldrb	r6, [r3]
 2332 0226 00E0     		b	.L194
 2333              	.L193:
 2334 0228 1E88     		ldrh	r6, [r3]
 2335              	.L194:
 2336              	.LVL204:
1371:Generated_Source\PSoC6\pdl\drivers\peripheral\scb/cy_scb_uart.c ****                                           ((uint16_t *) context->txBuf)[0UL]);
1372:Generated_Source\PSoC6\pdl\drivers\peripheral\scb/cy_scb_uart.c **** 
1373:Generated_Source\PSoC6\pdl\drivers\peripheral\scb/cy_scb_uart.c ****         /* Put the last data element and make sure that "TX done" will happen for it */
1374:Generated_Source\PSoC6\pdl\drivers\peripheral\scb/cy_scb_uart.c ****         intrStatus = Cy_SysLib_EnterCriticalSection();
 2337              		.loc 1 1374 0
 2338 022a FFF7FEFF 		bl	Cy_SysLib_EnterCriticalSection
 2339              	.LVL205:
 2340              	.LBB456:
 2341              	.LBB457:
 723:Generated_Source\PSoC6\pdl\drivers\peripheral\scb/cy_scb_common.h **** }
 2342              		.loc 2 723 0
 2343 022e 9023     		movs	r3, #144
 2344 0230 9B00     		lsls	r3, r3, #2
 2345 0232 EE50     		str	r6, [r5, r3]
 2346              	.LVL206:
 2347              	.LBE457:
 2348              	.LBE456:
 2349              	.LBB458:
 2350              	.LBB459:
1145:Generated_Source\PSoC6\pdl\drivers\peripheral\scb/cy_scb_common.h ****     (void) SCB_INTR_TX(base);
 2351              		.loc 2 1145 0
 2352 0234 F823     		movs	r3, #248
 2353 0236 8026     		movs	r6, #128
 2354              	.LVL207:
 2355 0238 1B01     		lsls	r3, r3, #4
 2356 023a B600     		lsls	r6, r6, #2
 2357 023c EE50     		str	r6, [r5, r3]
 2358              	.LVL208:
1146:Generated_Source\PSoC6\pdl\drivers\peripheral\scb/cy_scb_common.h **** }
 2359              		.loc 2 1146 0
 2360 023e EB58     		ldr	r3, [r5, r3]
 2361              	.LVL209:
 2362              	.LBE459:
 2363              	.LBE458:
1375:Generated_Source\PSoC6\pdl\drivers\peripheral\scb/cy_scb_uart.c **** 
1376:Generated_Source\PSoC6\pdl\drivers\peripheral\scb/cy_scb_uart.c ****         Cy_SCB_WriteTxFifo(base, txData);
1377:Generated_Source\PSoC6\pdl\drivers\peripheral\scb/cy_scb_uart.c ****         Cy_SCB_ClearTxInterrupt(base, CY_SCB_TX_INTR_UART_DONE);
1378:Generated_Source\PSoC6\pdl\drivers\peripheral\scb/cy_scb_uart.c **** 
ARM GAS  C:\Users\pearlstl\AppData\Local\Temp\ccAUXqAU.s 			page 126


1379:Generated_Source\PSoC6\pdl\drivers\peripheral\scb/cy_scb_uart.c ****         Cy_SysLib_ExitCriticalSection(intrStatus);
 2364              		.loc 1 1379 0
 2365 0240 FFF7FEFF 		bl	Cy_SysLib_ExitCriticalSection
 2366              	.LVL210:
 2367              	.LBB460:
 2368              	.LBB461:
1089:Generated_Source\PSoC6\pdl\drivers\peripheral\scb/cy_scb_common.h **** }
 2369              		.loc 2 1089 0
 2370 0244 154A     		ldr	r2, .L234+12
 2371              	.LBE461:
 2372              	.LBE460:
1380:Generated_Source\PSoC6\pdl\drivers\peripheral\scb/cy_scb_uart.c **** 
1381:Generated_Source\PSoC6\pdl\drivers\peripheral\scb/cy_scb_uart.c ****         /* Disable the level interrupt source and enable "transfer done" */
1382:Generated_Source\PSoC6\pdl\drivers\peripheral\scb/cy_scb_uart.c ****         Cy_SCB_SetTxInterruptMask(base, (CY_SCB_TX_INTR_UART_DONE |
 2373              		.loc 1 1382 0
 2374 0246 164B     		ldr	r3, .L234+16
 2375              	.LBB463:
 2376              	.LBB462:
1089:Generated_Source\PSoC6\pdl\drivers\peripheral\scb/cy_scb_common.h **** }
 2377              		.loc 2 1089 0
 2378 0248 A958     		ldr	r1, [r5, r2]
 2379              	.LVL211:
 2380              	.LBE462:
 2381              	.LBE463:
 2382              		.loc 1 1382 0
 2383 024a 0B40     		ands	r3, r1
 2384 024c 3343     		orrs	r3, r6
 2385              	.LVL212:
 2386              	.LBB464:
 2387              	.LBB465:
1068:Generated_Source\PSoC6\pdl\drivers\peripheral\scb/cy_scb_common.h **** }
 2388              		.loc 2 1068 0
 2389 024e AB50     		str	r3, [r5, r2]
 2390              	.LVL213:
 2391              	.LBE465:
 2392              	.LBE464:
1383:Generated_Source\PSoC6\pdl\drivers\peripheral\scb/cy_scb_uart.c ****                     (Cy_SCB_GetTxInterruptMask(base) & (uint32_t) ~CY_SCB_TX_INTR_LEVEL)));
1384:Generated_Source\PSoC6\pdl\drivers\peripheral\scb/cy_scb_uart.c **** 
1385:Generated_Source\PSoC6\pdl\drivers\peripheral\scb/cy_scb_uart.c ****         /* Data is copied into TX FIFO */
1386:Generated_Source\PSoC6\pdl\drivers\peripheral\scb/cy_scb_uart.c ****         context->txStatus |= CY_SCB_UART_TRANSMIT_IN_FIFO;
 2393              		.loc 1 1386 0
 2394 0250 0222     		movs	r2, #2
 2395 0252 2368     		ldr	r3, [r4]
 2396 0254 1343     		orrs	r3, r2
 2397 0256 2360     		str	r3, [r4]
1387:Generated_Source\PSoC6\pdl\drivers\peripheral\scb/cy_scb_uart.c **** 
1388:Generated_Source\PSoC6\pdl\drivers\peripheral\scb/cy_scb_uart.c ****         if (NULL != context->cbEvents)
 2398              		.loc 1 1388 0
 2399 0258 236B     		ldr	r3, [r4, #48]
 2400 025a 002B     		cmp	r3, #0
 2401 025c 01D0     		beq	.L191
1389:Generated_Source\PSoC6\pdl\drivers\peripheral\scb/cy_scb_uart.c ****         {
1390:Generated_Source\PSoC6\pdl\drivers\peripheral\scb/cy_scb_uart.c ****             context->cbEvents(CY_SCB_UART_TRANSMIT_IN_FIFO_EVENT);
 2402              		.loc 1 1390 0
 2403 025e 0120     		movs	r0, #1
 2404 0260 9847     		blx	r3
 2405              	.LVL214:
ARM GAS  C:\Users\pearlstl\AppData\Local\Temp\ccAUXqAU.s 			page 127


 2406              	.L191:
 2407              	.LBE455:
 2408              	.LBE445:
 2409              	.LBE444:
 2410              	.LBB466:
 2411              	.LBB467:
1145:Generated_Source\PSoC6\pdl\drivers\peripheral\scb/cy_scb_common.h ****     (void) SCB_INTR_TX(base);
 2412              		.loc 2 1145 0
 2413 0262 F823     		movs	r3, #248
 2414 0264 0122     		movs	r2, #1
 2415 0266 1B01     		lsls	r3, r3, #4
 2416 0268 EA50     		str	r2, [r5, r3]
1146:Generated_Source\PSoC6\pdl\drivers\peripheral\scb/cy_scb_common.h **** }
 2417              		.loc 2 1146 0
 2418 026a EB58     		ldr	r3, [r5, r3]
 2419              	.LVL215:
 2420              	.L186:
 2421              	.LBE467:
 2422              	.LBE466:
 2423              	.LBB468:
 2424              	.LBB469:
1113:Generated_Source\PSoC6\pdl\drivers\peripheral\scb/cy_scb_common.h **** }
 2425              		.loc 2 1113 0
 2426 026c 019B     		ldr	r3, [sp, #4]
 2427 026e EB58     		ldr	r3, [r5, r3]
 2428              	.LVL216:
 2429              	.LBE469:
 2430              	.LBE468:
1151:Generated_Source\PSoC6\pdl\drivers\peripheral\scb/cy_scb_uart.c ****         {
 2431              		.loc 1 1151 0
 2432 0270 9B05     		lsls	r3, r3, #22
 2433 0272 0CD5     		bpl	.L151
 2434              	.LVL217:
 2435              	.LBB470:
 2436              	.LBB471:
1068:Generated_Source\PSoC6\pdl\drivers\peripheral\scb/cy_scb_common.h **** }
 2437              		.loc 2 1068 0
 2438 0274 0022     		movs	r2, #0
 2439              	.LBE471:
 2440              	.LBE470:
1156:Generated_Source\PSoC6\pdl\drivers\peripheral\scb/cy_scb_uart.c ****             context->txLeftToTransmit = 0UL;
 2441              		.loc 1 1156 0
 2442 0276 0121     		movs	r1, #1
 2443              	.LBB473:
 2444              	.LBB472:
1068:Generated_Source\PSoC6\pdl\drivers\peripheral\scb/cy_scb_common.h **** }
 2445              		.loc 2 1068 0
 2446 0278 084B     		ldr	r3, .L234+12
 2447 027a EA50     		str	r2, [r5, r3]
 2448              	.LVL218:
 2449              	.LBE472:
 2450              	.LBE473:
1156:Generated_Source\PSoC6\pdl\drivers\peripheral\scb/cy_scb_uart.c ****             context->txLeftToTransmit = 0UL;
 2451              		.loc 1 1156 0
 2452 027c 2368     		ldr	r3, [r4]
 2453 027e 8B43     		bics	r3, r1
 2454 0280 2360     		str	r3, [r4]
ARM GAS  C:\Users\pearlstl\AppData\Local\Temp\ccAUXqAU.s 			page 128


1159:Generated_Source\PSoC6\pdl\drivers\peripheral\scb/cy_scb_uart.c ****             {
 2455              		.loc 1 1159 0
 2456 0282 236B     		ldr	r3, [r4, #48]
1157:Generated_Source\PSoC6\pdl\drivers\peripheral\scb/cy_scb_uart.c **** 
 2457              		.loc 1 1157 0
 2458 0284 E262     		str	r2, [r4, #44]
1159:Generated_Source\PSoC6\pdl\drivers\peripheral\scb/cy_scb_uart.c ****             {
 2459              		.loc 1 1159 0
 2460 0286 9342     		cmp	r3, r2
 2461 0288 01D0     		beq	.L151
1161:Generated_Source\PSoC6\pdl\drivers\peripheral\scb/cy_scb_uart.c ****             }
 2462              		.loc 1 1161 0
 2463 028a 0220     		movs	r0, #2
 2464 028c 9847     		blx	r3
 2465              	.LVL219:
 2466              	.L151:
 2467              	.LBE435:
1165:Generated_Source\PSoC6\pdl\drivers\peripheral\scb/cy_scb_uart.c **** 
 2468              		.loc 1 1165 0
 2469              		@ sp needed
 2470              	.LVL220:
 2471              	.LVL221:
 2472 028e F7BD     		pop	{r0, r1, r2, r4, r5, r6, r7, pc}
 2473              	.L235:
 2474              		.align	2
 2475              	.L234:
 2476 0290 CC0F0000 		.word	4044
 2477 0294 C80F0000 		.word	4040
 2478 0298 8C0F0000 		.word	3980
 2479 029c 880F0000 		.word	3976
 2480 02a0 FEFDFFFF 		.word	-514
 2481              		.cfi_endproc
 2482              	.LFE173:
 2483              		.size	Cy_SCB_UART_Interrupt, .-Cy_SCB_UART_Interrupt
 2484              		.text
 2485              	.Letext0:
 2486              		.file 4 "c:\\program files (x86)\\cypress\\psoc creator\\4.2\\psoc creator\\import\\gnu\\arm\\5.4.
 2487              		.file 5 "c:\\program files (x86)\\cypress\\psoc creator\\4.2\\psoc creator\\import\\gnu\\arm\\5.4.
 2488              		.file 6 "Generated_Source\\PSoC6\\pdl\\drivers/peripheral/device/cy_device.h"
 2489              		.file 7 "Generated_Source\\PSoC6\\pdl\\devices/psoc6/include/ip/cyip_scb.h"
 2490              		.file 8 "Generated_Source\\PSoC6\\pdl\\devices/psoc6/include/psoc6_01_config.h"
 2491              		.file 9 "Generated_Source\\PSoC6\\pdl\\drivers/peripheral/syspm/cy_syspm.h"
 2492              		.file 10 "Generated_Source\\PSoC6\\pdl\\drivers/peripheral/syslib/cy_syslib.h"
 2493              		.section	.debug_info,"",%progbits
 2494              	.Ldebug_info0:
 2495 0000 05250000 		.4byte	0x2505
 2496 0004 0400     		.2byte	0x4
 2497 0006 00000000 		.4byte	.Ldebug_abbrev0
 2498 000a 04       		.byte	0x4
 2499 000b 01       		.uleb128 0x1
 2500 000c C7100000 		.4byte	.LASF342
 2501 0010 0C       		.byte	0xc
 2502 0011 E8070000 		.4byte	.LASF343
 2503 0015 3E150000 		.4byte	.LASF344
 2504 0019 E0010000 		.4byte	.Ldebug_ranges0+0x1e0
 2505 001d 00000000 		.4byte	0
 2506 0021 00000000 		.4byte	.Ldebug_line0
ARM GAS  C:\Users\pearlstl\AppData\Local\Temp\ccAUXqAU.s 			page 129


 2507 0025 02       		.uleb128 0x2
 2508 0026 01       		.byte	0x1
 2509 0027 06       		.byte	0x6
 2510 0028 05140000 		.4byte	.LASF0
 2511 002c 03       		.uleb128 0x3
 2512 002d 14100000 		.4byte	.LASF2
 2513 0031 04       		.byte	0x4
 2514 0032 1D       		.byte	0x1d
 2515 0033 37000000 		.4byte	0x37
 2516 0037 02       		.uleb128 0x2
 2517 0038 01       		.byte	0x1
 2518 0039 08       		.byte	0x8
 2519 003a 7C120000 		.4byte	.LASF1
 2520 003e 03       		.uleb128 0x3
 2521 003f C20B0000 		.4byte	.LASF3
 2522 0043 04       		.byte	0x4
 2523 0044 29       		.byte	0x29
 2524 0045 49000000 		.4byte	0x49
 2525 0049 02       		.uleb128 0x2
 2526 004a 02       		.byte	0x2
 2527 004b 05       		.byte	0x5
 2528 004c 0C0A0000 		.4byte	.LASF4
 2529 0050 03       		.uleb128 0x3
 2530 0051 E5050000 		.4byte	.LASF5
 2531 0055 04       		.byte	0x4
 2532 0056 2B       		.byte	0x2b
 2533 0057 5B000000 		.4byte	0x5b
 2534 005b 02       		.uleb128 0x2
 2535 005c 02       		.byte	0x2
 2536 005d 07       		.byte	0x7
 2537 005e 540D0000 		.4byte	.LASF6
 2538 0062 02       		.uleb128 0x2
 2539 0063 04       		.byte	0x4
 2540 0064 05       		.byte	0x5
 2541 0065 150F0000 		.4byte	.LASF7
 2542 0069 03       		.uleb128 0x3
 2543 006a B8120000 		.4byte	.LASF8
 2544 006e 04       		.byte	0x4
 2545 006f 41       		.byte	0x41
 2546 0070 74000000 		.4byte	0x74
 2547 0074 02       		.uleb128 0x2
 2548 0075 04       		.byte	0x4
 2549 0076 07       		.byte	0x7
 2550 0077 84110000 		.4byte	.LASF9
 2551 007b 02       		.uleb128 0x2
 2552 007c 08       		.byte	0x8
 2553 007d 05       		.byte	0x5
 2554 007e AF0A0000 		.4byte	.LASF10
 2555 0082 02       		.uleb128 0x2
 2556 0083 08       		.byte	0x8
 2557 0084 07       		.byte	0x7
 2558 0085 5E050000 		.4byte	.LASF11
 2559 0089 04       		.uleb128 0x4
 2560 008a 04       		.byte	0x4
 2561 008b 05       		.byte	0x5
 2562 008c 696E7400 		.ascii	"int\000"
 2563 0090 02       		.uleb128 0x2
ARM GAS  C:\Users\pearlstl\AppData\Local\Temp\ccAUXqAU.s 			page 130


 2564 0091 04       		.byte	0x4
 2565 0092 07       		.byte	0x7
 2566 0093 91010000 		.4byte	.LASF12
 2567 0097 03       		.uleb128 0x3
 2568 0098 D2090000 		.4byte	.LASF13
 2569 009c 05       		.byte	0x5
 2570 009d 18       		.byte	0x18
 2571 009e 2C000000 		.4byte	0x2c
 2572 00a2 03       		.uleb128 0x3
 2573 00a3 1E050000 		.4byte	.LASF14
 2574 00a7 05       		.byte	0x5
 2575 00a8 20       		.byte	0x20
 2576 00a9 3E000000 		.4byte	0x3e
 2577 00ad 03       		.uleb128 0x3
 2578 00ae 950D0000 		.4byte	.LASF15
 2579 00b2 05       		.byte	0x5
 2580 00b3 24       		.byte	0x24
 2581 00b4 50000000 		.4byte	0x50
 2582 00b8 03       		.uleb128 0x3
 2583 00b9 28040000 		.4byte	.LASF16
 2584 00bd 05       		.byte	0x5
 2585 00be 30       		.byte	0x30
 2586 00bf 69000000 		.4byte	0x69
 2587 00c3 02       		.uleb128 0x2
 2588 00c4 08       		.byte	0x8
 2589 00c5 04       		.byte	0x4
 2590 00c6 890D0000 		.4byte	.LASF17
 2591 00ca 05       		.uleb128 0x5
 2592 00cb B8000000 		.4byte	0xb8
 2593 00cf 06       		.uleb128 0x6
 2594 00d0 CA000000 		.4byte	0xca
 2595 00d4 07       		.uleb128 0x7
 2596 00d5 CF000000 		.4byte	0xcf
 2597 00d9 E4000000 		.4byte	0xe4
 2598 00dd 08       		.uleb128 0x8
 2599 00de E4000000 		.4byte	0xe4
 2600 00e2 02       		.byte	0x2
 2601 00e3 00       		.byte	0
 2602 00e4 02       		.uleb128 0x2
 2603 00e5 04       		.byte	0x4
 2604 00e6 07       		.byte	0x7
 2605 00e7 490E0000 		.4byte	.LASF18
 2606 00eb 07       		.uleb128 0x7
 2607 00ec CF000000 		.4byte	0xcf
 2608 00f0 FB000000 		.4byte	0xfb
 2609 00f4 08       		.uleb128 0x8
 2610 00f5 E4000000 		.4byte	0xe4
 2611 00f9 03       		.byte	0x3
 2612 00fa 00       		.byte	0
 2613 00fb 07       		.uleb128 0x7
 2614 00fc CF000000 		.4byte	0xcf
 2615 0100 0B010000 		.4byte	0x10b
 2616 0104 08       		.uleb128 0x8
 2617 0105 E4000000 		.4byte	0xe4
 2618 0109 3E       		.byte	0x3e
 2619 010a 00       		.byte	0
 2620 010b 07       		.uleb128 0x7
ARM GAS  C:\Users\pearlstl\AppData\Local\Temp\ccAUXqAU.s 			page 131


 2621 010c CF000000 		.4byte	0xcf
 2622 0110 1B010000 		.4byte	0x11b
 2623 0114 08       		.uleb128 0x8
 2624 0115 E4000000 		.4byte	0xe4
 2625 0119 1E       		.byte	0x1e
 2626 011a 00       		.byte	0
 2627 011b 07       		.uleb128 0x7
 2628 011c CF000000 		.4byte	0xcf
 2629 0120 2B010000 		.4byte	0x12b
 2630 0124 08       		.uleb128 0x8
 2631 0125 E4000000 		.4byte	0xe4
 2632 0129 0C       		.byte	0xc
 2633 012a 00       		.byte	0
 2634 012b 07       		.uleb128 0x7
 2635 012c CF000000 		.4byte	0xcf
 2636 0130 3B010000 		.4byte	0x13b
 2637 0134 08       		.uleb128 0x8
 2638 0135 E4000000 		.4byte	0xe4
 2639 0139 0B       		.byte	0xb
 2640 013a 00       		.byte	0
 2641 013b 07       		.uleb128 0x7
 2642 013c CF000000 		.4byte	0xcf
 2643 0140 4B010000 		.4byte	0x14b
 2644 0144 08       		.uleb128 0x8
 2645 0145 E4000000 		.4byte	0xe4
 2646 0149 05       		.byte	0x5
 2647 014a 00       		.byte	0
 2648 014b 07       		.uleb128 0x7
 2649 014c CF000000 		.4byte	0xcf
 2650 0150 5B010000 		.4byte	0x15b
 2651 0154 08       		.uleb128 0x8
 2652 0155 E4000000 		.4byte	0xe4
 2653 0159 7F       		.byte	0x7f
 2654 015a 00       		.byte	0
 2655 015b 09       		.uleb128 0x9
 2656 015c B8       		.byte	0xb8
 2657 015d 06       		.byte	0x6
 2658 015e 34       		.byte	0x34
 2659 015f 6C050000 		.4byte	0x56c
 2660 0163 0A       		.uleb128 0xa
 2661 0164 35020000 		.4byte	.LASF19
 2662 0168 06       		.byte	0x6
 2663 0169 37       		.byte	0x37
 2664 016a B8000000 		.4byte	0xb8
 2665 016e 00       		.byte	0
 2666 016f 0A       		.uleb128 0xa
 2667 0170 AA080000 		.4byte	.LASF20
 2668 0174 06       		.byte	0x6
 2669 0175 38       		.byte	0x38
 2670 0176 B8000000 		.4byte	0xb8
 2671 017a 04       		.byte	0x4
 2672 017b 0A       		.uleb128 0xa
 2673 017c 12010000 		.4byte	.LASF21
 2674 0180 06       		.byte	0x6
 2675 0181 39       		.byte	0x39
 2676 0182 B8000000 		.4byte	0xb8
 2677 0186 08       		.byte	0x8
ARM GAS  C:\Users\pearlstl\AppData\Local\Temp\ccAUXqAU.s 			page 132


 2678 0187 0A       		.uleb128 0xa
 2679 0188 D8000000 		.4byte	.LASF22
 2680 018c 06       		.byte	0x6
 2681 018d 3A       		.byte	0x3a
 2682 018e B8000000 		.4byte	0xb8
 2683 0192 0C       		.byte	0xc
 2684 0193 0A       		.uleb128 0xa
 2685 0194 AF0D0000 		.4byte	.LASF23
 2686 0198 06       		.byte	0x6
 2687 0199 3B       		.byte	0x3b
 2688 019a B8000000 		.4byte	0xb8
 2689 019e 10       		.byte	0x10
 2690 019f 0A       		.uleb128 0xa
 2691 01a0 FD0B0000 		.4byte	.LASF24
 2692 01a4 06       		.byte	0x6
 2693 01a5 3C       		.byte	0x3c
 2694 01a6 B8000000 		.4byte	0xb8
 2695 01aa 14       		.byte	0x14
 2696 01ab 0A       		.uleb128 0xa
 2697 01ac 76070000 		.4byte	.LASF25
 2698 01b0 06       		.byte	0x6
 2699 01b1 3D       		.byte	0x3d
 2700 01b2 B8000000 		.4byte	0xb8
 2701 01b6 18       		.byte	0x18
 2702 01b7 0A       		.uleb128 0xa
 2703 01b8 B7140000 		.4byte	.LASF26
 2704 01bc 06       		.byte	0x6
 2705 01bd 3E       		.byte	0x3e
 2706 01be B8000000 		.4byte	0xb8
 2707 01c2 1C       		.byte	0x1c
 2708 01c3 0A       		.uleb128 0xa
 2709 01c4 BD0A0000 		.4byte	.LASF27
 2710 01c8 06       		.byte	0x6
 2711 01c9 3F       		.byte	0x3f
 2712 01ca B8000000 		.4byte	0xb8
 2713 01ce 20       		.byte	0x20
 2714 01cf 0A       		.uleb128 0xa
 2715 01d0 D40A0000 		.4byte	.LASF28
 2716 01d4 06       		.byte	0x6
 2717 01d5 40       		.byte	0x40
 2718 01d6 B8000000 		.4byte	0xb8
 2719 01da 24       		.byte	0x24
 2720 01db 0A       		.uleb128 0xa
 2721 01dc 1E0F0000 		.4byte	.LASF29
 2722 01e0 06       		.byte	0x6
 2723 01e1 43       		.byte	0x43
 2724 01e2 97000000 		.4byte	0x97
 2725 01e6 28       		.byte	0x28
 2726 01e7 0A       		.uleb128 0xa
 2727 01e8 BD040000 		.4byte	.LASF30
 2728 01ec 06       		.byte	0x6
 2729 01ed 44       		.byte	0x44
 2730 01ee 97000000 		.4byte	0x97
 2731 01f2 29       		.byte	0x29
 2732 01f3 0A       		.uleb128 0xa
 2733 01f4 0B0E0000 		.4byte	.LASF31
 2734 01f8 06       		.byte	0x6
ARM GAS  C:\Users\pearlstl\AppData\Local\Temp\ccAUXqAU.s 			page 133


 2735 01f9 45       		.byte	0x45
 2736 01fa 97000000 		.4byte	0x97
 2737 01fe 2A       		.byte	0x2a
 2738 01ff 0A       		.uleb128 0xa
 2739 0200 510F0000 		.4byte	.LASF32
 2740 0204 06       		.byte	0x6
 2741 0205 46       		.byte	0x46
 2742 0206 97000000 		.4byte	0x97
 2743 020a 2B       		.byte	0x2b
 2744 020b 0A       		.uleb128 0xa
 2745 020c 360F0000 		.4byte	.LASF33
 2746 0210 06       		.byte	0x6
 2747 0211 47       		.byte	0x47
 2748 0212 97000000 		.4byte	0x97
 2749 0216 2C       		.byte	0x2c
 2750 0217 0A       		.uleb128 0xa
 2751 0218 77110000 		.4byte	.LASF34
 2752 021c 06       		.byte	0x6
 2753 021d 48       		.byte	0x48
 2754 021e 97000000 		.4byte	0x97
 2755 0222 2D       		.byte	0x2d
 2756 0223 0A       		.uleb128 0xa
 2757 0224 3F160000 		.4byte	.LASF35
 2758 0228 06       		.byte	0x6
 2759 0229 49       		.byte	0x49
 2760 022a 97000000 		.4byte	0x97
 2761 022e 2E       		.byte	0x2e
 2762 022f 0A       		.uleb128 0xa
 2763 0230 A4140000 		.4byte	.LASF36
 2764 0234 06       		.byte	0x6
 2765 0235 4A       		.byte	0x4a
 2766 0236 97000000 		.4byte	0x97
 2767 023a 2F       		.byte	0x2f
 2768 023b 0A       		.uleb128 0xa
 2769 023c 63030000 		.4byte	.LASF37
 2770 0240 06       		.byte	0x6
 2771 0241 4B       		.byte	0x4b
 2772 0242 97000000 		.4byte	0x97
 2773 0246 30       		.byte	0x30
 2774 0247 0A       		.uleb128 0xa
 2775 0248 720C0000 		.4byte	.LASF38
 2776 024c 06       		.byte	0x6
 2777 024d 4E       		.byte	0x4e
 2778 024e 97000000 		.4byte	0x97
 2779 0252 31       		.byte	0x31
 2780 0253 0A       		.uleb128 0xa
 2781 0254 26140000 		.4byte	.LASF39
 2782 0258 06       		.byte	0x6
 2783 0259 4F       		.byte	0x4f
 2784 025a 97000000 		.4byte	0x97
 2785 025e 32       		.byte	0x32
 2786 025f 0A       		.uleb128 0xa
 2787 0260 500C0000 		.4byte	.LASF40
 2788 0264 06       		.byte	0x6
 2789 0265 50       		.byte	0x50
 2790 0266 97000000 		.4byte	0x97
 2791 026a 33       		.byte	0x33
ARM GAS  C:\Users\pearlstl\AppData\Local\Temp\ccAUXqAU.s 			page 134


 2792 026b 0A       		.uleb128 0xa
 2793 026c FD010000 		.4byte	.LASF41
 2794 0270 06       		.byte	0x6
 2795 0271 51       		.byte	0x51
 2796 0272 97000000 		.4byte	0x97
 2797 0276 34       		.byte	0x34
 2798 0277 0A       		.uleb128 0xa
 2799 0278 B7050000 		.4byte	.LASF42
 2800 027c 06       		.byte	0x6
 2801 027d 52       		.byte	0x52
 2802 027e A2000000 		.4byte	0xa2
 2803 0282 36       		.byte	0x36
 2804 0283 0A       		.uleb128 0xa
 2805 0284 B4020000 		.4byte	.LASF43
 2806 0288 06       		.byte	0x6
 2807 0289 53       		.byte	0x53
 2808 028a A2000000 		.4byte	0xa2
 2809 028e 38       		.byte	0x38
 2810 028f 0A       		.uleb128 0xa
 2811 0290 2D0C0000 		.4byte	.LASF44
 2812 0294 06       		.byte	0x6
 2813 0295 54       		.byte	0x54
 2814 0296 A2000000 		.4byte	0xa2
 2815 029a 3A       		.byte	0x3a
 2816 029b 0A       		.uleb128 0xa
 2817 029c F1140000 		.4byte	.LASF45
 2818 02a0 06       		.byte	0x6
 2819 02a1 55       		.byte	0x55
 2820 02a2 97000000 		.4byte	0x97
 2821 02a6 3C       		.byte	0x3c
 2822 02a7 0A       		.uleb128 0xa
 2823 02a8 9C060000 		.4byte	.LASF46
 2824 02ac 06       		.byte	0x6
 2825 02ad 56       		.byte	0x56
 2826 02ae 97000000 		.4byte	0x97
 2827 02b2 3D       		.byte	0x3d
 2828 02b3 0A       		.uleb128 0xa
 2829 02b4 DE0D0000 		.4byte	.LASF47
 2830 02b8 06       		.byte	0x6
 2831 02b9 57       		.byte	0x57
 2832 02ba 97000000 		.4byte	0x97
 2833 02be 3E       		.byte	0x3e
 2834 02bf 0A       		.uleb128 0xa
 2835 02c0 F0050000 		.4byte	.LASF48
 2836 02c4 06       		.byte	0x6
 2837 02c5 58       		.byte	0x58
 2838 02c6 97000000 		.4byte	0x97
 2839 02ca 3F       		.byte	0x3f
 2840 02cb 0A       		.uleb128 0xa
 2841 02cc A9010000 		.4byte	.LASF49
 2842 02d0 06       		.byte	0x6
 2843 02d1 59       		.byte	0x59
 2844 02d2 97000000 		.4byte	0x97
 2845 02d6 40       		.byte	0x40
 2846 02d7 0A       		.uleb128 0xa
 2847 02d8 C70C0000 		.4byte	.LASF50
 2848 02dc 06       		.byte	0x6
ARM GAS  C:\Users\pearlstl\AppData\Local\Temp\ccAUXqAU.s 			page 135


 2849 02dd 5A       		.byte	0x5a
 2850 02de 97000000 		.4byte	0x97
 2851 02e2 41       		.byte	0x41
 2852 02e3 0A       		.uleb128 0xa
 2853 02e4 D3130000 		.4byte	.LASF51
 2854 02e8 06       		.byte	0x6
 2855 02e9 5B       		.byte	0x5b
 2856 02ea 97000000 		.4byte	0x97
 2857 02ee 42       		.byte	0x42
 2858 02ef 0A       		.uleb128 0xa
 2859 02f0 DD070000 		.4byte	.LASF52
 2860 02f4 06       		.byte	0x6
 2861 02f5 5C       		.byte	0x5c
 2862 02f6 97000000 		.4byte	0x97
 2863 02fa 43       		.byte	0x43
 2864 02fb 0A       		.uleb128 0xa
 2865 02fc 07090000 		.4byte	.LASF53
 2866 0300 06       		.byte	0x6
 2867 0301 5D       		.byte	0x5d
 2868 0302 97000000 		.4byte	0x97
 2869 0306 44       		.byte	0x44
 2870 0307 0A       		.uleb128 0xa
 2871 0308 5F0F0000 		.4byte	.LASF54
 2872 030c 06       		.byte	0x6
 2873 030d 5E       		.byte	0x5e
 2874 030e B8000000 		.4byte	0xb8
 2875 0312 48       		.byte	0x48
 2876 0313 0A       		.uleb128 0xa
 2877 0314 00030000 		.4byte	.LASF55
 2878 0318 06       		.byte	0x6
 2879 0319 5F       		.byte	0x5f
 2880 031a B8000000 		.4byte	0xb8
 2881 031e 4C       		.byte	0x4c
 2882 031f 0A       		.uleb128 0xa
 2883 0320 430D0000 		.4byte	.LASF56
 2884 0324 06       		.byte	0x6
 2885 0325 60       		.byte	0x60
 2886 0326 97000000 		.4byte	0x97
 2887 032a 50       		.byte	0x50
 2888 032b 0A       		.uleb128 0xa
 2889 032c E7060000 		.4byte	.LASF57
 2890 0330 06       		.byte	0x6
 2891 0331 61       		.byte	0x61
 2892 0332 97000000 		.4byte	0x97
 2893 0336 51       		.byte	0x51
 2894 0337 0A       		.uleb128 0xa
 2895 0338 F50A0000 		.4byte	.LASF58
 2896 033c 06       		.byte	0x6
 2897 033d 62       		.byte	0x62
 2898 033e 97000000 		.4byte	0x97
 2899 0342 52       		.byte	0x52
 2900 0343 0A       		.uleb128 0xa
 2901 0344 D9040000 		.4byte	.LASF59
 2902 0348 06       		.byte	0x6
 2903 0349 63       		.byte	0x63
 2904 034a 97000000 		.4byte	0x97
 2905 034e 53       		.byte	0x53
ARM GAS  C:\Users\pearlstl\AppData\Local\Temp\ccAUXqAU.s 			page 136


 2906 034f 0A       		.uleb128 0xa
 2907 0350 2B060000 		.4byte	.LASF60
 2908 0354 06       		.byte	0x6
 2909 0355 64       		.byte	0x64
 2910 0356 97000000 		.4byte	0x97
 2911 035a 54       		.byte	0x54
 2912 035b 0A       		.uleb128 0xa
 2913 035c 62070000 		.4byte	.LASF61
 2914 0360 06       		.byte	0x6
 2915 0361 65       		.byte	0x65
 2916 0362 97000000 		.4byte	0x97
 2917 0366 55       		.byte	0x55
 2918 0367 0A       		.uleb128 0xa
 2919 0368 00000000 		.4byte	.LASF62
 2920 036c 06       		.byte	0x6
 2921 036d 66       		.byte	0x66
 2922 036e 97000000 		.4byte	0x97
 2923 0372 56       		.byte	0x56
 2924 0373 0A       		.uleb128 0xa
 2925 0374 C0140000 		.4byte	.LASF63
 2926 0378 06       		.byte	0x6
 2927 0379 67       		.byte	0x67
 2928 037a 97000000 		.4byte	0x97
 2929 037e 57       		.byte	0x57
 2930 037f 0A       		.uleb128 0xa
 2931 0380 88060000 		.4byte	.LASF64
 2932 0384 06       		.byte	0x6
 2933 0385 68       		.byte	0x68
 2934 0386 97000000 		.4byte	0x97
 2935 038a 58       		.byte	0x58
 2936 038b 0A       		.uleb128 0xa
 2937 038c 07150000 		.4byte	.LASF65
 2938 0390 06       		.byte	0x6
 2939 0391 69       		.byte	0x69
 2940 0392 97000000 		.4byte	0x97
 2941 0396 59       		.byte	0x59
 2942 0397 0A       		.uleb128 0xa
 2943 0398 11140000 		.4byte	.LASF66
 2944 039c 06       		.byte	0x6
 2945 039d 6E       		.byte	0x6e
 2946 039e AD000000 		.4byte	0xad
 2947 03a2 5A       		.byte	0x5a
 2948 03a3 0A       		.uleb128 0xa
 2949 03a4 50010000 		.4byte	.LASF67
 2950 03a8 06       		.byte	0x6
 2951 03a9 6F       		.byte	0x6f
 2952 03aa AD000000 		.4byte	0xad
 2953 03ae 5C       		.byte	0x5c
 2954 03af 0A       		.uleb128 0xa
 2955 03b0 C50A0000 		.4byte	.LASF68
 2956 03b4 06       		.byte	0x6
 2957 03b5 70       		.byte	0x70
 2958 03b6 97000000 		.4byte	0x97
 2959 03ba 5E       		.byte	0x5e
 2960 03bb 0A       		.uleb128 0xa
 2961 03bc 41140000 		.4byte	.LASF69
 2962 03c0 06       		.byte	0x6
ARM GAS  C:\Users\pearlstl\AppData\Local\Temp\ccAUXqAU.s 			page 137


 2963 03c1 71       		.byte	0x71
 2964 03c2 97000000 		.4byte	0x97
 2965 03c6 5F       		.byte	0x5f
 2966 03c7 0A       		.uleb128 0xa
 2967 03c8 28080000 		.4byte	.LASF70
 2968 03cc 06       		.byte	0x6
 2969 03cd 72       		.byte	0x72
 2970 03ce 97000000 		.4byte	0x97
 2971 03d2 60       		.byte	0x60
 2972 03d3 0A       		.uleb128 0xa
 2973 03d4 C1090000 		.4byte	.LASF71
 2974 03d8 06       		.byte	0x6
 2975 03d9 73       		.byte	0x73
 2976 03da B8000000 		.4byte	0xb8
 2977 03de 64       		.byte	0x64
 2978 03df 0A       		.uleb128 0xa
 2979 03e0 65160000 		.4byte	.LASF72
 2980 03e4 06       		.byte	0x6
 2981 03e5 76       		.byte	0x76
 2982 03e6 AD000000 		.4byte	0xad
 2983 03ea 68       		.byte	0x68
 2984 03eb 0A       		.uleb128 0xa
 2985 03ec B80D0000 		.4byte	.LASF73
 2986 03f0 06       		.byte	0x6
 2987 03f1 77       		.byte	0x77
 2988 03f2 AD000000 		.4byte	0xad
 2989 03f6 6A       		.byte	0x6a
 2990 03f7 0A       		.uleb128 0xa
 2991 03f8 1E0C0000 		.4byte	.LASF74
 2992 03fc 06       		.byte	0x6
 2993 03fd 78       		.byte	0x78
 2994 03fe AD000000 		.4byte	0xad
 2995 0402 6C       		.byte	0x6c
 2996 0403 0A       		.uleb128 0xa
 2997 0404 BF020000 		.4byte	.LASF75
 2998 0408 06       		.byte	0x6
 2999 0409 79       		.byte	0x79
 3000 040a AD000000 		.4byte	0xad
 3001 040e 6E       		.byte	0x6e
 3002 040f 0A       		.uleb128 0xa
 3003 0410 F8090000 		.4byte	.LASF76
 3004 0414 06       		.byte	0x6
 3005 0415 7B       		.byte	0x7b
 3006 0416 97000000 		.4byte	0x97
 3007 041a 70       		.byte	0x70
 3008 041b 0A       		.uleb128 0xa
 3009 041c 7C030000 		.4byte	.LASF77
 3010 0420 06       		.byte	0x6
 3011 0421 7C       		.byte	0x7c
 3012 0422 97000000 		.4byte	0x97
 3013 0426 71       		.byte	0x71
 3014 0427 0A       		.uleb128 0xa
 3015 0428 CC020000 		.4byte	.LASF78
 3016 042c 06       		.byte	0x6
 3017 042d 7D       		.byte	0x7d
 3018 042e 97000000 		.4byte	0x97
 3019 0432 72       		.byte	0x72
ARM GAS  C:\Users\pearlstl\AppData\Local\Temp\ccAUXqAU.s 			page 138


 3020 0433 0A       		.uleb128 0xa
 3021 0434 CD010000 		.4byte	.LASF79
 3022 0438 06       		.byte	0x6
 3023 0439 7E       		.byte	0x7e
 3024 043a 97000000 		.4byte	0x97
 3025 043e 73       		.byte	0x73
 3026 043f 0A       		.uleb128 0xa
 3027 0440 840E0000 		.4byte	.LASF80
 3028 0444 06       		.byte	0x6
 3029 0445 80       		.byte	0x80
 3030 0446 AD000000 		.4byte	0xad
 3031 044a 74       		.byte	0x74
 3032 044b 0A       		.uleb128 0xa
 3033 044c 300D0000 		.4byte	.LASF81
 3034 0450 06       		.byte	0x6
 3035 0451 81       		.byte	0x81
 3036 0452 AD000000 		.4byte	0xad
 3037 0456 76       		.byte	0x76
 3038 0457 0A       		.uleb128 0xa
 3039 0458 160A0000 		.4byte	.LASF82
 3040 045c 06       		.byte	0x6
 3041 045d 82       		.byte	0x82
 3042 045e AD000000 		.4byte	0xad
 3043 0462 78       		.byte	0x78
 3044 0463 0A       		.uleb128 0xa
 3045 0464 75050000 		.4byte	.LASF83
 3046 0468 06       		.byte	0x6
 3047 0469 83       		.byte	0x83
 3048 046a AD000000 		.4byte	0xad
 3049 046e 7A       		.byte	0x7a
 3050 046f 0A       		.uleb128 0xa
 3051 0470 6C100000 		.4byte	.LASF84
 3052 0474 06       		.byte	0x6
 3053 0475 86       		.byte	0x86
 3054 0476 97000000 		.4byte	0x97
 3055 047a 7C       		.byte	0x7c
 3056 047b 0A       		.uleb128 0xa
 3057 047c 3A130000 		.4byte	.LASF85
 3058 0480 06       		.byte	0x6
 3059 0481 87       		.byte	0x87
 3060 0482 97000000 		.4byte	0x97
 3061 0486 7D       		.byte	0x7d
 3062 0487 0A       		.uleb128 0xa
 3063 0488 AF0B0000 		.4byte	.LASF86
 3064 048c 06       		.byte	0x6
 3065 048d 88       		.byte	0x88
 3066 048e 97000000 		.4byte	0x97
 3067 0492 7E       		.byte	0x7e
 3068 0493 0A       		.uleb128 0xa
 3069 0494 83040000 		.4byte	.LASF87
 3070 0498 06       		.byte	0x6
 3071 0499 89       		.byte	0x89
 3072 049a 97000000 		.4byte	0x97
 3073 049e 7F       		.byte	0x7f
 3074 049f 0A       		.uleb128 0xa
 3075 04a0 8A050000 		.4byte	.LASF88
 3076 04a4 06       		.byte	0x6
ARM GAS  C:\Users\pearlstl\AppData\Local\Temp\ccAUXqAU.s 			page 139


 3077 04a5 8A       		.byte	0x8a
 3078 04a6 97000000 		.4byte	0x97
 3079 04aa 80       		.byte	0x80
 3080 04ab 0A       		.uleb128 0xa
 3081 04ac 65000000 		.4byte	.LASF89
 3082 04b0 06       		.byte	0x6
 3083 04b1 8D       		.byte	0x8d
 3084 04b2 B8000000 		.4byte	0xb8
 3085 04b6 84       		.byte	0x84
 3086 04b7 0A       		.uleb128 0xa
 3087 04b8 070C0000 		.4byte	.LASF90
 3088 04bc 06       		.byte	0x6
 3089 04bd 8E       		.byte	0x8e
 3090 04be B8000000 		.4byte	0xb8
 3091 04c2 88       		.byte	0x88
 3092 04c3 0A       		.uleb128 0xa
 3093 04c4 9B0C0000 		.4byte	.LASF91
 3094 04c8 06       		.byte	0x6
 3095 04c9 8F       		.byte	0x8f
 3096 04ca B8000000 		.4byte	0xb8
 3097 04ce 8C       		.byte	0x8c
 3098 04cf 0A       		.uleb128 0xa
 3099 04d0 44120000 		.4byte	.LASF92
 3100 04d4 06       		.byte	0x6
 3101 04d5 90       		.byte	0x90
 3102 04d6 B8000000 		.4byte	0xb8
 3103 04da 90       		.byte	0x90
 3104 04db 0A       		.uleb128 0xa
 3105 04dc F40C0000 		.4byte	.LASF93
 3106 04e0 06       		.byte	0x6
 3107 04e1 91       		.byte	0x91
 3108 04e2 B8000000 		.4byte	0xb8
 3109 04e6 94       		.byte	0x94
 3110 04e7 0A       		.uleb128 0xa
 3111 04e8 91030000 		.4byte	.LASF94
 3112 04ec 06       		.byte	0x6
 3113 04ed 92       		.byte	0x92
 3114 04ee B8000000 		.4byte	0xb8
 3115 04f2 98       		.byte	0x98
 3116 04f3 0A       		.uleb128 0xa
 3117 04f4 B1100000 		.4byte	.LASF95
 3118 04f8 06       		.byte	0x6
 3119 04f9 93       		.byte	0x93
 3120 04fa B8000000 		.4byte	0xb8
 3121 04fe 9C       		.byte	0x9c
 3122 04ff 0A       		.uleb128 0xa
 3123 0500 C7070000 		.4byte	.LASF96
 3124 0504 06       		.byte	0x6
 3125 0505 94       		.byte	0x94
 3126 0506 B8000000 		.4byte	0xb8
 3127 050a A0       		.byte	0xa0
 3128 050b 0A       		.uleb128 0xa
 3129 050c 3B010000 		.4byte	.LASF97
 3130 0510 06       		.byte	0x6
 3131 0511 95       		.byte	0x95
 3132 0512 AD000000 		.4byte	0xad
 3133 0516 A4       		.byte	0xa4
ARM GAS  C:\Users\pearlstl\AppData\Local\Temp\ccAUXqAU.s 			page 140


 3134 0517 0A       		.uleb128 0xa
 3135 0518 660E0000 		.4byte	.LASF98
 3136 051c 06       		.byte	0x6
 3137 051d 96       		.byte	0x96
 3138 051e AD000000 		.4byte	0xad
 3139 0522 A6       		.byte	0xa6
 3140 0523 0A       		.uleb128 0xa
 3141 0524 9D110000 		.4byte	.LASF99
 3142 0528 06       		.byte	0x6
 3143 0529 97       		.byte	0x97
 3144 052a AD000000 		.4byte	0xad
 3145 052e A8       		.byte	0xa8
 3146 052f 0A       		.uleb128 0xa
 3147 0530 A10A0000 		.4byte	.LASF100
 3148 0534 06       		.byte	0x6
 3149 0535 98       		.byte	0x98
 3150 0536 AD000000 		.4byte	0xad
 3151 053a AA       		.byte	0xaa
 3152 053b 0A       		.uleb128 0xa
 3153 053c 13030000 		.4byte	.LASF101
 3154 0540 06       		.byte	0x6
 3155 0541 99       		.byte	0x99
 3156 0542 AD000000 		.4byte	0xad
 3157 0546 AC       		.byte	0xac
 3158 0547 0A       		.uleb128 0xa
 3159 0548 D70C0000 		.4byte	.LASF102
 3160 054c 06       		.byte	0x6
 3161 054d 9A       		.byte	0x9a
 3162 054e AD000000 		.4byte	0xad
 3163 0552 AE       		.byte	0xae
 3164 0553 0A       		.uleb128 0xa
 3165 0554 39030000 		.4byte	.LASF103
 3166 0558 06       		.byte	0x6
 3167 0559 9D       		.byte	0x9d
 3168 055a AD000000 		.4byte	0xad
 3169 055e B0       		.byte	0xb0
 3170 055f 0A       		.uleb128 0xa
 3171 0560 C3120000 		.4byte	.LASF104
 3172 0564 06       		.byte	0x6
 3173 0565 9E       		.byte	0x9e
 3174 0566 B8000000 		.4byte	0xb8
 3175 056a B4       		.byte	0xb4
 3176 056b 00       		.byte	0
 3177 056c 03       		.uleb128 0x3
 3178 056d 65140000 		.4byte	.LASF105
 3179 0571 06       		.byte	0x6
 3180 0572 9F       		.byte	0x9f
 3181 0573 5B010000 		.4byte	0x15b
 3182 0577 07       		.uleb128 0x7
 3183 0578 CF000000 		.4byte	0xcf
 3184 057c 87050000 		.4byte	0x587
 3185 0580 08       		.uleb128 0x8
 3186 0581 E4000000 		.4byte	0xe4
 3187 0585 0A       		.byte	0xa
 3188 0586 00       		.byte	0
 3189 0587 07       		.uleb128 0x7
 3190 0588 CF000000 		.4byte	0xcf
ARM GAS  C:\Users\pearlstl\AppData\Local\Temp\ccAUXqAU.s 			page 141


 3191 058c 97050000 		.4byte	0x597
 3192 0590 08       		.uleb128 0x8
 3193 0591 E4000000 		.4byte	0xe4
 3194 0595 2E       		.byte	0x2e
 3195 0596 00       		.byte	0
 3196 0597 07       		.uleb128 0x7
 3197 0598 CF000000 		.4byte	0xcf
 3198 059c A7050000 		.4byte	0x5a7
 3199 05a0 08       		.uleb128 0x8
 3200 05a1 E4000000 		.4byte	0xe4
 3201 05a5 2D       		.byte	0x2d
 3202 05a6 00       		.byte	0
 3203 05a7 07       		.uleb128 0x7
 3204 05a8 CA000000 		.4byte	0xca
 3205 05ac B8050000 		.4byte	0x5b8
 3206 05b0 0B       		.uleb128 0xb
 3207 05b1 E4000000 		.4byte	0xe4
 3208 05b5 FF01     		.2byte	0x1ff
 3209 05b7 00       		.byte	0
 3210 05b8 0C       		.uleb128 0xc
 3211 05b9 D00F     		.2byte	0xfd0
 3212 05bb 07       		.byte	0x7
 3213 05bc 21       		.byte	0x21
 3214 05bd 3C090000 		.4byte	0x93c
 3215 05c1 0A       		.uleb128 0xa
 3216 05c2 7F160000 		.4byte	.LASF106
 3217 05c6 07       		.byte	0x7
 3218 05c7 22       		.byte	0x22
 3219 05c8 CA000000 		.4byte	0xca
 3220 05cc 00       		.byte	0
 3221 05cd 0A       		.uleb128 0xa
 3222 05ce 00150000 		.4byte	.LASF107
 3223 05d2 07       		.byte	0x7
 3224 05d3 23       		.byte	0x23
 3225 05d4 CF000000 		.4byte	0xcf
 3226 05d8 04       		.byte	0x4
 3227 05d9 0A       		.uleb128 0xa
 3228 05da 57140000 		.4byte	.LASF108
 3229 05de 07       		.byte	0x7
 3230 05df 24       		.byte	0x24
 3231 05e0 CA000000 		.4byte	0xca
 3232 05e4 08       		.byte	0x8
 3233 05e5 0A       		.uleb128 0xa
 3234 05e6 E0000000 		.4byte	.LASF109
 3235 05ea 07       		.byte	0x7
 3236 05eb 25       		.byte	0x25
 3237 05ec CF000000 		.4byte	0xcf
 3238 05f0 0C       		.byte	0xc
 3239 05f1 0A       		.uleb128 0xa
 3240 05f2 27000000 		.4byte	.LASF110
 3241 05f6 07       		.byte	0x7
 3242 05f7 26       		.byte	0x26
 3243 05f8 41090000 		.4byte	0x941
 3244 05fc 10       		.byte	0x10
 3245 05fd 0A       		.uleb128 0xa
 3246 05fe 81100000 		.4byte	.LASF111
 3247 0602 07       		.byte	0x7
ARM GAS  C:\Users\pearlstl\AppData\Local\Temp\ccAUXqAU.s 			page 142


 3248 0603 27       		.byte	0x27
 3249 0604 CA000000 		.4byte	0xca
 3250 0608 20       		.byte	0x20
 3251 0609 0A       		.uleb128 0xa
 3252 060a 63120000 		.4byte	.LASF112
 3253 060e 07       		.byte	0x7
 3254 060f 28       		.byte	0x28
 3255 0610 CF000000 		.4byte	0xcf
 3256 0614 24       		.byte	0x24
 3257 0615 0A       		.uleb128 0xa
 3258 0616 E7140000 		.4byte	.LASF113
 3259 061a 07       		.byte	0x7
 3260 061b 29       		.byte	0x29
 3261 061c 4B090000 		.4byte	0x94b
 3262 0620 28       		.byte	0x28
 3263 0621 0A       		.uleb128 0xa
 3264 0622 1C140000 		.4byte	.LASF114
 3265 0626 07       		.byte	0x7
 3266 0627 2A       		.byte	0x2a
 3267 0628 CA000000 		.4byte	0xca
 3268 062c 40       		.byte	0x40
 3269 062d 0A       		.uleb128 0xa
 3270 062e 04060000 		.4byte	.LASF115
 3271 0632 07       		.byte	0x7
 3272 0633 2B       		.byte	0x2b
 3273 0634 CA000000 		.4byte	0xca
 3274 0638 44       		.byte	0x44
 3275 0639 0A       		.uleb128 0xa
 3276 063a 6F030000 		.4byte	.LASF116
 3277 063e 07       		.byte	0x7
 3278 063f 2C       		.byte	0x2c
 3279 0640 CA000000 		.4byte	0xca
 3280 0644 48       		.byte	0x48
 3281 0645 0A       		.uleb128 0xa
 3282 0646 E10F0000 		.4byte	.LASF117
 3283 064a 07       		.byte	0x7
 3284 064b 2D       		.byte	0x2d
 3285 064c CF000000 		.4byte	0xcf
 3286 0650 4C       		.byte	0x4c
 3287 0651 0A       		.uleb128 0xa
 3288 0652 CC0B0000 		.4byte	.LASF118
 3289 0656 07       		.byte	0x7
 3290 0657 2E       		.byte	0x2e
 3291 0658 CA000000 		.4byte	0xca
 3292 065c 50       		.byte	0x50
 3293 065d 0A       		.uleb128 0xa
 3294 065e 960E0000 		.4byte	.LASF119
 3295 0662 07       		.byte	0x7
 3296 0663 2F       		.byte	0x2f
 3297 0664 55090000 		.4byte	0x955
 3298 0668 54       		.byte	0x54
 3299 0669 0A       		.uleb128 0xa
 3300 066a 6E110000 		.4byte	.LASF120
 3301 066e 07       		.byte	0x7
 3302 066f 30       		.byte	0x30
 3303 0670 CA000000 		.4byte	0xca
 3304 0674 60       		.byte	0x60
ARM GAS  C:\Users\pearlstl\AppData\Local\Temp\ccAUXqAU.s 			page 143


 3305 0675 0A       		.uleb128 0xa
 3306 0676 2B0F0000 		.4byte	.LASF121
 3307 067a 07       		.byte	0x7
 3308 067b 31       		.byte	0x31
 3309 067c CF000000 		.4byte	0xcf
 3310 0680 64       		.byte	0x64
 3311 0681 0A       		.uleb128 0xa
 3312 0682 45100000 		.4byte	.LASF122
 3313 0686 07       		.byte	0x7
 3314 0687 32       		.byte	0x32
 3315 0688 CA000000 		.4byte	0xca
 3316 068c 68       		.byte	0x68
 3317 068d 0A       		.uleb128 0xa
 3318 068e 5C0E0000 		.4byte	.LASF123
 3319 0692 07       		.byte	0x7
 3320 0693 33       		.byte	0x33
 3321 0694 CA000000 		.4byte	0xca
 3322 0698 6C       		.byte	0x6c
 3323 0699 0A       		.uleb128 0xa
 3324 069a E7030000 		.4byte	.LASF124
 3325 069e 07       		.byte	0x7
 3326 069f 34       		.byte	0x34
 3327 06a0 CA000000 		.4byte	0xca
 3328 06a4 70       		.byte	0x70
 3329 06a5 0A       		.uleb128 0xa
 3330 06a6 A00E0000 		.4byte	.LASF125
 3331 06aa 07       		.byte	0x7
 3332 06ab 35       		.byte	0x35
 3333 06ac 6F090000 		.4byte	0x96f
 3334 06b0 74       		.byte	0x74
 3335 06b1 0D       		.uleb128 0xd
 3336 06b2 BA080000 		.4byte	.LASF126
 3337 06b6 07       		.byte	0x7
 3338 06b7 36       		.byte	0x36
 3339 06b8 CA000000 		.4byte	0xca
 3340 06bc 0001     		.2byte	0x100
 3341 06be 0D       		.uleb128 0xd
 3342 06bf AA0E0000 		.4byte	.LASF127
 3343 06c3 07       		.byte	0x7
 3344 06c4 37       		.byte	0x37
 3345 06c5 79090000 		.4byte	0x979
 3346 06c9 0401     		.2byte	0x104
 3347 06cb 0D       		.uleb128 0xd
 3348 06cc FC050000 		.4byte	.LASF128
 3349 06d0 07       		.byte	0x7
 3350 06d1 38       		.byte	0x38
 3351 06d2 CA000000 		.4byte	0xca
 3352 06d6 0002     		.2byte	0x200
 3353 06d8 0D       		.uleb128 0xd
 3354 06d9 1E100000 		.4byte	.LASF129
 3355 06dd 07       		.byte	0x7
 3356 06de 39       		.byte	0x39
 3357 06df CA000000 		.4byte	0xca
 3358 06e3 0402     		.2byte	0x204
 3359 06e5 0D       		.uleb128 0xd
 3360 06e6 7B010000 		.4byte	.LASF130
 3361 06ea 07       		.byte	0x7
ARM GAS  C:\Users\pearlstl\AppData\Local\Temp\ccAUXqAU.s 			page 144


 3362 06eb 3A       		.byte	0x3a
 3363 06ec CF000000 		.4byte	0xcf
 3364 06f0 0802     		.2byte	0x208
 3365 06f2 0D       		.uleb128 0xd
 3366 06f3 B40E0000 		.4byte	.LASF131
 3367 06f7 07       		.byte	0x7
 3368 06f8 3B       		.byte	0x3b
 3369 06f9 83090000 		.4byte	0x983
 3370 06fd 0C02     		.2byte	0x20c
 3371 06ff 0D       		.uleb128 0xd
 3372 0700 4B130000 		.4byte	.LASF132
 3373 0704 07       		.byte	0x7
 3374 0705 3C       		.byte	0x3c
 3375 0706 CA000000 		.4byte	0xca
 3376 070a 4002     		.2byte	0x240
 3377 070c 0D       		.uleb128 0xd
 3378 070d BE0E0000 		.4byte	.LASF133
 3379 0711 07       		.byte	0x7
 3380 0712 3D       		.byte	0x3d
 3381 0713 8D090000 		.4byte	0x98d
 3382 0717 4402     		.2byte	0x244
 3383 0719 0D       		.uleb128 0xd
 3384 071a A9100000 		.4byte	.LASF134
 3385 071e 07       		.byte	0x7
 3386 071f 3E       		.byte	0x3e
 3387 0720 CA000000 		.4byte	0xca
 3388 0724 0003     		.2byte	0x300
 3389 0726 0D       		.uleb128 0xd
 3390 0727 0E020000 		.4byte	.LASF135
 3391 072b 07       		.byte	0x7
 3392 072c 3F       		.byte	0x3f
 3393 072d CA000000 		.4byte	0xca
 3394 0731 0403     		.2byte	0x304
 3395 0733 0D       		.uleb128 0xd
 3396 0734 E50C0000 		.4byte	.LASF136
 3397 0738 07       		.byte	0x7
 3398 0739 40       		.byte	0x40
 3399 073a CF000000 		.4byte	0xcf
 3400 073e 0803     		.2byte	0x308
 3401 0740 0D       		.uleb128 0xd
 3402 0741 C80E0000 		.4byte	.LASF137
 3403 0745 07       		.byte	0x7
 3404 0746 41       		.byte	0x41
 3405 0747 CF000000 		.4byte	0xcf
 3406 074b 0C03     		.2byte	0x30c
 3407 074d 0D       		.uleb128 0xd
 3408 074e C10F0000 		.4byte	.LASF138
 3409 0752 07       		.byte	0x7
 3410 0753 42       		.byte	0x42
 3411 0754 CA000000 		.4byte	0xca
 3412 0758 1003     		.2byte	0x310
 3413 075a 0D       		.uleb128 0xd
 3414 075b D20E0000 		.4byte	.LASF139
 3415 075f 07       		.byte	0x7
 3416 0760 43       		.byte	0x43
 3417 0761 97090000 		.4byte	0x997
 3418 0765 1403     		.2byte	0x314
ARM GAS  C:\Users\pearlstl\AppData\Local\Temp\ccAUXqAU.s 			page 145


 3419 0767 0D       		.uleb128 0xd
 3420 0768 960A0000 		.4byte	.LASF140
 3421 076c 07       		.byte	0x7
 3422 076d 44       		.byte	0x44
 3423 076e CF000000 		.4byte	0xcf
 3424 0772 4003     		.2byte	0x340
 3425 0774 0D       		.uleb128 0xd
 3426 0775 EF030000 		.4byte	.LASF141
 3427 0779 07       		.byte	0x7
 3428 077a 45       		.byte	0x45
 3429 077b CF000000 		.4byte	0xcf
 3430 077f 4403     		.2byte	0x344
 3431 0781 0D       		.uleb128 0xd
 3432 0782 DC0E0000 		.4byte	.LASF142
 3433 0786 07       		.byte	0x7
 3434 0787 46       		.byte	0x46
 3435 0788 A1090000 		.4byte	0x9a1
 3436 078c 4803     		.2byte	0x348
 3437 078e 0D       		.uleb128 0xd
 3438 078f 2C160000 		.4byte	.LASF143
 3439 0793 07       		.byte	0x7
 3440 0794 47       		.byte	0x47
 3441 0795 A6090000 		.4byte	0x9a6
 3442 0799 0004     		.2byte	0x400
 3443 079b 0D       		.uleb128 0xd
 3444 079c D7120000 		.4byte	.LASF144
 3445 07a0 07       		.byte	0x7
 3446 07a1 48       		.byte	0x48
 3447 07a2 B0090000 		.4byte	0x9b0
 3448 07a6 000C     		.2byte	0xc00
 3449 07a8 0D       		.uleb128 0xd
 3450 07a9 9E010000 		.4byte	.LASF145
 3451 07ad 07       		.byte	0x7
 3452 07ae 49       		.byte	0x49
 3453 07af CF000000 		.4byte	0xcf
 3454 07b3 000E     		.2byte	0xe00
 3455 07b5 0D       		.uleb128 0xd
 3456 07b6 E2120000 		.4byte	.LASF146
 3457 07ba 07       		.byte	0x7
 3458 07bb 4A       		.byte	0x4a
 3459 07bc BA090000 		.4byte	0x9ba
 3460 07c0 040E     		.2byte	0xe04
 3461 07c2 0D       		.uleb128 0xd
 3462 07c3 7F070000 		.4byte	.LASF147
 3463 07c7 07       		.byte	0x7
 3464 07c8 4B       		.byte	0x4b
 3465 07c9 CA000000 		.4byte	0xca
 3466 07cd 800E     		.2byte	0xe80
 3467 07cf 0D       		.uleb128 0xd
 3468 07d0 ED120000 		.4byte	.LASF148
 3469 07d4 07       		.byte	0x7
 3470 07d5 4C       		.byte	0x4c
 3471 07d6 CF000000 		.4byte	0xcf
 3472 07da 840E     		.2byte	0xe84
 3473 07dc 0D       		.uleb128 0xd
 3474 07dd 9E0D0000 		.4byte	.LASF149
 3475 07e1 07       		.byte	0x7
ARM GAS  C:\Users\pearlstl\AppData\Local\Temp\ccAUXqAU.s 			page 146


 3476 07e2 4D       		.byte	0x4d
 3477 07e3 CA000000 		.4byte	0xca
 3478 07e7 880E     		.2byte	0xe88
 3479 07e9 0D       		.uleb128 0xd
 3480 07ea 37090000 		.4byte	.LASF150
 3481 07ee 07       		.byte	0x7
 3482 07ef 4E       		.byte	0x4e
 3483 07f0 CF000000 		.4byte	0xcf
 3484 07f4 8C0E     		.2byte	0xe8c
 3485 07f6 0D       		.uleb128 0xd
 3486 07f7 F8120000 		.4byte	.LASF151
 3487 07fb 07       		.byte	0x7
 3488 07fc 4F       		.byte	0x4f
 3489 07fd C4090000 		.4byte	0x9c4
 3490 0801 900E     		.2byte	0xe90
 3491 0803 0D       		.uleb128 0xd
 3492 0804 C1060000 		.4byte	.LASF152
 3493 0808 07       		.byte	0x7
 3494 0809 50       		.byte	0x50
 3495 080a CA000000 		.4byte	0xca
 3496 080e C00E     		.2byte	0xec0
 3497 0810 0D       		.uleb128 0xd
 3498 0811 03130000 		.4byte	.LASF153
 3499 0815 07       		.byte	0x7
 3500 0816 51       		.byte	0x51
 3501 0817 CF000000 		.4byte	0xcf
 3502 081b C40E     		.2byte	0xec4
 3503 081d 0D       		.uleb128 0xd
 3504 081e 150E0000 		.4byte	.LASF154
 3505 0822 07       		.byte	0x7
 3506 0823 52       		.byte	0x52
 3507 0824 CA000000 		.4byte	0xca
 3508 0828 C80E     		.2byte	0xec8
 3509 082a 0D       		.uleb128 0xd
 3510 082b 4F100000 		.4byte	.LASF155
 3511 082f 07       		.byte	0x7
 3512 0830 53       		.byte	0x53
 3513 0831 CF000000 		.4byte	0xcf
 3514 0835 CC0E     		.2byte	0xecc
 3515 0837 0D       		.uleb128 0xd
 3516 0838 0E130000 		.4byte	.LASF156
 3517 083c 07       		.byte	0x7
 3518 083d 54       		.byte	0x54
 3519 083e CE090000 		.4byte	0x9ce
 3520 0842 D00E     		.2byte	0xed0
 3521 0844 0D       		.uleb128 0xd
 3522 0845 96110000 		.4byte	.LASF157
 3523 0849 07       		.byte	0x7
 3524 084a 55       		.byte	0x55
 3525 084b CA000000 		.4byte	0xca
 3526 084f 000F     		.2byte	0xf00
 3527 0851 0D       		.uleb128 0xd
 3528 0852 5D040000 		.4byte	.LASF158
 3529 0856 07       		.byte	0x7
 3530 0857 56       		.byte	0x56
 3531 0858 CA000000 		.4byte	0xca
 3532 085c 040F     		.2byte	0xf04
ARM GAS  C:\Users\pearlstl\AppData\Local\Temp\ccAUXqAU.s 			page 147


 3533 085e 0D       		.uleb128 0xd
 3534 085f EA110000 		.4byte	.LASF159
 3535 0863 07       		.byte	0x7
 3536 0864 57       		.byte	0x57
 3537 0865 CA000000 		.4byte	0xca
 3538 0869 080F     		.2byte	0xf08
 3539 086b 0D       		.uleb128 0xd
 3540 086c CB040000 		.4byte	.LASF160
 3541 0870 07       		.byte	0x7
 3542 0871 58       		.byte	0x58
 3543 0872 CF000000 		.4byte	0xcf
 3544 0876 0C0F     		.2byte	0xf0c
 3545 0878 0D       		.uleb128 0xd
 3546 0879 19130000 		.4byte	.LASF161
 3547 087d 07       		.byte	0x7
 3548 087e 59       		.byte	0x59
 3549 087f D8090000 		.4byte	0x9d8
 3550 0883 100F     		.2byte	0xf10
 3551 0885 0D       		.uleb128 0xd
 3552 0886 AF110000 		.4byte	.LASF162
 3553 088a 07       		.byte	0x7
 3554 088b 5A       		.byte	0x5a
 3555 088c CA000000 		.4byte	0xca
 3556 0890 400F     		.2byte	0xf40
 3557 0892 0D       		.uleb128 0xd
 3558 0893 52020000 		.4byte	.LASF163
 3559 0897 07       		.byte	0x7
 3560 0898 5B       		.byte	0x5b
 3561 0899 CA000000 		.4byte	0xca
 3562 089d 440F     		.2byte	0xf44
 3563 089f 0D       		.uleb128 0xd
 3564 08a0 FB080000 		.4byte	.LASF164
 3565 08a4 07       		.byte	0x7
 3566 08a5 5C       		.byte	0x5c
 3567 08a6 CA000000 		.4byte	0xca
 3568 08aa 480F     		.2byte	0xf48
 3569 08ac 0D       		.uleb128 0xd
 3570 08ad A1070000 		.4byte	.LASF165
 3571 08b1 07       		.byte	0x7
 3572 08b2 5D       		.byte	0x5d
 3573 08b3 CF000000 		.4byte	0xcf
 3574 08b7 4C0F     		.2byte	0xf4c
 3575 08b9 0D       		.uleb128 0xd
 3576 08ba 24130000 		.4byte	.LASF166
 3577 08be 07       		.byte	0x7
 3578 08bf 5E       		.byte	0x5e
 3579 08c0 E2090000 		.4byte	0x9e2
 3580 08c4 500F     		.2byte	0xf50
 3581 08c6 0D       		.uleb128 0xd
 3582 08c7 D90F0000 		.4byte	.LASF167
 3583 08cb 07       		.byte	0x7
 3584 08cc 5F       		.byte	0x5f
 3585 08cd CA000000 		.4byte	0xca
 3586 08d1 800F     		.2byte	0xf80
 3587 08d3 0D       		.uleb128 0xd
 3588 08d4 63020000 		.4byte	.LASF168
 3589 08d8 07       		.byte	0x7
ARM GAS  C:\Users\pearlstl\AppData\Local\Temp\ccAUXqAU.s 			page 148


 3590 08d9 60       		.byte	0x60
 3591 08da CA000000 		.4byte	0xca
 3592 08de 840F     		.2byte	0xf84
 3593 08e0 0D       		.uleb128 0xd
 3594 08e1 05010000 		.4byte	.LASF169
 3595 08e5 07       		.byte	0x7
 3596 08e6 61       		.byte	0x61
 3597 08e7 CA000000 		.4byte	0xca
 3598 08eb 880F     		.2byte	0xf88
 3599 08ed 0D       		.uleb128 0xd
 3600 08ee 420F0000 		.4byte	.LASF170
 3601 08f2 07       		.byte	0x7
 3602 08f3 62       		.byte	0x62
 3603 08f4 CF000000 		.4byte	0xcf
 3604 08f8 8C0F     		.2byte	0xf8c
 3605 08fa 0D       		.uleb128 0xd
 3606 08fb 2F130000 		.4byte	.LASF171
 3607 08ff 07       		.byte	0x7
 3608 0900 63       		.byte	0x63
 3609 0901 EC090000 		.4byte	0x9ec
 3610 0905 900F     		.2byte	0xf90
 3611 0907 0D       		.uleb128 0xd
 3612 0908 090D0000 		.4byte	.LASF172
 3613 090c 07       		.byte	0x7
 3614 090d 64       		.byte	0x64
 3615 090e CA000000 		.4byte	0xca
 3616 0912 C00F     		.2byte	0xfc0
 3617 0914 0D       		.uleb128 0xd
 3618 0915 DB140000 		.4byte	.LASF173
 3619 0919 07       		.byte	0x7
 3620 091a 65       		.byte	0x65
 3621 091b CA000000 		.4byte	0xca
 3622 091f C40F     		.2byte	0xfc4
 3623 0921 0D       		.uleb128 0xd
 3624 0922 34140000 		.4byte	.LASF174
 3625 0926 07       		.byte	0x7
 3626 0927 66       		.byte	0x66
 3627 0928 CA000000 		.4byte	0xca
 3628 092c C80F     		.2byte	0xfc8
 3629 092e 0D       		.uleb128 0xd
 3630 092f 6F020000 		.4byte	.LASF175
 3631 0933 07       		.byte	0x7
 3632 0934 67       		.byte	0x67
 3633 0935 CF000000 		.4byte	0xcf
 3634 0939 CC0F     		.2byte	0xfcc
 3635 093b 00       		.byte	0
 3636 093c 05       		.uleb128 0x5
 3637 093d EB000000 		.4byte	0xeb
 3638 0941 06       		.uleb128 0x6
 3639 0942 3C090000 		.4byte	0x93c
 3640 0946 05       		.uleb128 0x5
 3641 0947 3B010000 		.4byte	0x13b
 3642 094b 06       		.uleb128 0x6
 3643 094c 46090000 		.4byte	0x946
 3644 0950 05       		.uleb128 0x5
 3645 0951 D4000000 		.4byte	0xd4
 3646 0955 06       		.uleb128 0x6
ARM GAS  C:\Users\pearlstl\AppData\Local\Temp\ccAUXqAU.s 			page 149


 3647 0956 50090000 		.4byte	0x950
 3648 095a 07       		.uleb128 0x7
 3649 095b CF000000 		.4byte	0xcf
 3650 095f 6A090000 		.4byte	0x96a
 3651 0963 08       		.uleb128 0x8
 3652 0964 E4000000 		.4byte	0xe4
 3653 0968 22       		.byte	0x22
 3654 0969 00       		.byte	0
 3655 096a 05       		.uleb128 0x5
 3656 096b 5A090000 		.4byte	0x95a
 3657 096f 06       		.uleb128 0x6
 3658 0970 6A090000 		.4byte	0x96a
 3659 0974 05       		.uleb128 0x5
 3660 0975 FB000000 		.4byte	0xfb
 3661 0979 06       		.uleb128 0x6
 3662 097a 74090000 		.4byte	0x974
 3663 097e 05       		.uleb128 0x5
 3664 097f 1B010000 		.4byte	0x11b
 3665 0983 06       		.uleb128 0x6
 3666 0984 7E090000 		.4byte	0x97e
 3667 0988 05       		.uleb128 0x5
 3668 0989 87050000 		.4byte	0x587
 3669 098d 06       		.uleb128 0x6
 3670 098e 88090000 		.4byte	0x988
 3671 0992 05       		.uleb128 0x5
 3672 0993 77050000 		.4byte	0x577
 3673 0997 06       		.uleb128 0x6
 3674 0998 92090000 		.4byte	0x992
 3675 099c 05       		.uleb128 0x5
 3676 099d 97050000 		.4byte	0x597
 3677 09a1 06       		.uleb128 0x6
 3678 09a2 9C090000 		.4byte	0x99c
 3679 09a6 05       		.uleb128 0x5
 3680 09a7 A7050000 		.4byte	0x5a7
 3681 09ab 05       		.uleb128 0x5
 3682 09ac 4B010000 		.4byte	0x14b
 3683 09b0 06       		.uleb128 0x6
 3684 09b1 AB090000 		.4byte	0x9ab
 3685 09b5 05       		.uleb128 0x5
 3686 09b6 0B010000 		.4byte	0x10b
 3687 09ba 06       		.uleb128 0x6
 3688 09bb B5090000 		.4byte	0x9b5
 3689 09bf 05       		.uleb128 0x5
 3690 09c0 2B010000 		.4byte	0x12b
 3691 09c4 06       		.uleb128 0x6
 3692 09c5 BF090000 		.4byte	0x9bf
 3693 09c9 05       		.uleb128 0x5
 3694 09ca 2B010000 		.4byte	0x12b
 3695 09ce 06       		.uleb128 0x6
 3696 09cf C9090000 		.4byte	0x9c9
 3697 09d3 05       		.uleb128 0x5
 3698 09d4 2B010000 		.4byte	0x12b
 3699 09d8 06       		.uleb128 0x6
 3700 09d9 D3090000 		.4byte	0x9d3
 3701 09dd 05       		.uleb128 0x5
 3702 09de 2B010000 		.4byte	0x12b
 3703 09e2 06       		.uleb128 0x6
ARM GAS  C:\Users\pearlstl\AppData\Local\Temp\ccAUXqAU.s 			page 150


 3704 09e3 DD090000 		.4byte	0x9dd
 3705 09e7 05       		.uleb128 0x5
 3706 09e8 2B010000 		.4byte	0x12b
 3707 09ec 06       		.uleb128 0x6
 3708 09ed E7090000 		.4byte	0x9e7
 3709 09f1 03       		.uleb128 0x3
 3710 09f2 C4080000 		.4byte	.LASF176
 3711 09f6 07       		.byte	0x7
 3712 09f7 68       		.byte	0x68
 3713 09f8 B8050000 		.4byte	0x5b8
 3714 09fc 0E       		.uleb128 0xe
 3715 09fd A7030000 		.4byte	.LASF177
 3716 0a01 08       		.byte	0x8
 3717 0a02 4F06     		.2byte	0x64f
 3718 0a04 F1090000 		.4byte	0x9f1
 3719 0a08 02       		.uleb128 0x2
 3720 0a09 01       		.byte	0x1
 3721 0a0a 08       		.byte	0x8
 3722 0a0b B5080000 		.4byte	.LASF178
 3723 0a0f 02       		.uleb128 0x2
 3724 0a10 04       		.byte	0x4
 3725 0a11 04       		.byte	0x4
 3726 0a12 A9110000 		.4byte	.LASF179
 3727 0a16 02       		.uleb128 0x2
 3728 0a17 08       		.byte	0x8
 3729 0a18 04       		.byte	0x4
 3730 0a19 B0140000 		.4byte	.LASF180
 3731 0a1d 0F       		.uleb128 0xf
 3732 0a1e 04       		.byte	0x4
 3733 0a1f 90000000 		.4byte	0x90
 3734 0a23 09       		.byte	0x9
 3735 0a24 1405     		.2byte	0x514
 3736 0a26 5E0A0000 		.4byte	0xa5e
 3737 0a2a 10       		.uleb128 0x10
 3738 0a2b 63060000 		.4byte	.LASF181
 3739 0a2f 00       		.byte	0
 3740 0a30 11       		.uleb128 0x11
 3741 0a31 DF130000 		.4byte	.LASF182
 3742 0a35 01004200 		.4byte	0x420001
 3743 0a39 11       		.uleb128 0x11
 3744 0a3a 52080000 		.4byte	.LASF183
 3745 0a3e 02004200 		.4byte	0x420002
 3746 0a42 11       		.uleb128 0x11
 3747 0a43 63080000 		.4byte	.LASF184
 3748 0a47 03004200 		.4byte	0x420003
 3749 0a4b 11       		.uleb128 0x11
 3750 0a4c 98080000 		.4byte	.LASF185
 3751 0a50 04004200 		.4byte	0x420004
 3752 0a54 11       		.uleb128 0x11
 3753 0a55 6E120000 		.4byte	.LASF186
 3754 0a59 FF004200 		.4byte	0x4200ff
 3755 0a5d 00       		.byte	0
 3756 0a5e 0E       		.uleb128 0xe
 3757 0a5f F0000000 		.4byte	.LASF187
 3758 0a63 09       		.byte	0x9
 3759 0a64 1C05     		.2byte	0x51c
 3760 0a66 1D0A0000 		.4byte	0xa1d
ARM GAS  C:\Users\pearlstl\AppData\Local\Temp\ccAUXqAU.s 			page 151


 3761 0a6a 0F       		.uleb128 0xf
 3762 0a6b 01       		.byte	0x1
 3763 0a6c 37000000 		.4byte	0x37
 3764 0a70 09       		.byte	0x9
 3765 0a71 BC05     		.2byte	0x5bc
 3766 0a73 900A0000 		.4byte	0xa90
 3767 0a77 10       		.uleb128 0x10
 3768 0a78 B9160000 		.4byte	.LASF188
 3769 0a7c 01       		.byte	0x1
 3770 0a7d 10       		.uleb128 0x10
 3771 0a7e B2030000 		.4byte	.LASF189
 3772 0a82 02       		.byte	0x2
 3773 0a83 10       		.uleb128 0x10
 3774 0a84 84160000 		.4byte	.LASF190
 3775 0a88 04       		.byte	0x4
 3776 0a89 10       		.uleb128 0x10
 3777 0a8a 9F160000 		.4byte	.LASF191
 3778 0a8e 08       		.byte	0x8
 3779 0a8f 00       		.byte	0
 3780 0a90 0E       		.uleb128 0xe
 3781 0a91 F90E0000 		.4byte	.LASF192
 3782 0a95 09       		.byte	0x9
 3783 0a96 CB05     		.2byte	0x5cb
 3784 0a98 6A0A0000 		.4byte	0xa6a
 3785 0a9c 12       		.uleb128 0x12
 3786 0a9d 08       		.byte	0x8
 3787 0a9e 09       		.byte	0x9
 3788 0a9f E705     		.2byte	0x5e7
 3789 0aa1 C00A0000 		.4byte	0xac0
 3790 0aa5 13       		.uleb128 0x13
 3791 0aa6 60000000 		.4byte	.LASF193
 3792 0aaa 09       		.byte	0x9
 3793 0aab E905     		.2byte	0x5e9
 3794 0aad C00A0000 		.4byte	0xac0
 3795 0ab1 00       		.byte	0
 3796 0ab2 13       		.uleb128 0x13
 3797 0ab3 050B0000 		.4byte	.LASF194
 3798 0ab7 09       		.byte	0x9
 3799 0ab8 EC05     		.2byte	0x5ec
 3800 0aba C00A0000 		.4byte	0xac0
 3801 0abe 04       		.byte	0x4
 3802 0abf 00       		.byte	0
 3803 0ac0 14       		.uleb128 0x14
 3804 0ac1 04       		.byte	0x4
 3805 0ac2 0E       		.uleb128 0xe
 3806 0ac3 37000000 		.4byte	.LASF195
 3807 0ac7 09       		.byte	0x9
 3808 0ac8 EF05     		.2byte	0x5ef
 3809 0aca 9C0A0000 		.4byte	0xa9c
 3810 0ace 15       		.uleb128 0x15
 3811 0acf 04       		.byte	0x4
 3812 0ad0 C20A0000 		.4byte	0xac2
 3813 0ad4 0F       		.uleb128 0xf
 3814 0ad5 04       		.byte	0x4
 3815 0ad6 90000000 		.4byte	0x90
 3816 0ada 03       		.byte	0x3
 3817 0adb 9401     		.2byte	0x194
ARM GAS  C:\Users\pearlstl\AppData\Local\Temp\ccAUXqAU.s 			page 152


 3818 0add 030B0000 		.4byte	0xb03
 3819 0ae1 10       		.uleb128 0x10
 3820 0ae2 C4000000 		.4byte	.LASF196
 3821 0ae6 00       		.byte	0
 3822 0ae7 11       		.uleb128 0x11
 3823 0ae8 DF0A0000 		.4byte	.LASF197
 3824 0aec 0160AA00 		.4byte	0xaa6001
 3825 0af0 11       		.uleb128 0x11
 3826 0af1 DB0B0000 		.4byte	.LASF198
 3827 0af5 0260AA00 		.4byte	0xaa6002
 3828 0af9 11       		.uleb128 0x11
 3829 0afa 44050000 		.4byte	.LASF199
 3830 0afe 0360AA00 		.4byte	0xaa6003
 3831 0b02 00       		.byte	0
 3832 0b03 0E       		.uleb128 0xe
 3833 0b04 21030000 		.4byte	.LASF200
 3834 0b08 03       		.byte	0x3
 3835 0b09 A401     		.2byte	0x1a4
 3836 0b0b D40A0000 		.4byte	0xad4
 3837 0b0f 0F       		.uleb128 0xf
 3838 0b10 01       		.byte	0x1
 3839 0b11 37000000 		.4byte	0x37
 3840 0b15 03       		.byte	0x3
 3841 0b16 A801     		.2byte	0x1a8
 3842 0b18 2F0B0000 		.4byte	0xb2f
 3843 0b1c 10       		.uleb128 0x10
 3844 0b1d 24120000 		.4byte	.LASF201
 3845 0b21 00       		.byte	0
 3846 0b22 10       		.uleb128 0x10
 3847 0b23 F9060000 		.4byte	.LASF202
 3848 0b27 01       		.byte	0x1
 3849 0b28 10       		.uleb128 0x10
 3850 0b29 17040000 		.4byte	.LASF203
 3851 0b2d 02       		.byte	0x2
 3852 0b2e 00       		.byte	0
 3853 0b2f 0E       		.uleb128 0xe
 3854 0b30 8A100000 		.4byte	.LASF204
 3855 0b34 03       		.byte	0x3
 3856 0b35 AC01     		.2byte	0x1ac
 3857 0b37 0F0B0000 		.4byte	0xb0f
 3858 0b3b 0F       		.uleb128 0xf
 3859 0b3c 01       		.byte	0x1
 3860 0b3d 37000000 		.4byte	0x37
 3861 0b41 03       		.byte	0x3
 3862 0b42 B001     		.2byte	0x1b0
 3863 0b44 730B0000 		.4byte	0xb73
 3864 0b48 10       		.uleb128 0x10
 3865 0b49 300B0000 		.4byte	.LASF205
 3866 0b4d 02       		.byte	0x2
 3867 0b4e 10       		.uleb128 0x10
 3868 0b4f 48070000 		.4byte	.LASF206
 3869 0b53 03       		.byte	0x3
 3870 0b54 10       		.uleb128 0x10
 3871 0b55 480B0000 		.4byte	.LASF207
 3872 0b59 04       		.byte	0x4
 3873 0b5a 10       		.uleb128 0x10
 3874 0b5b CD060000 		.4byte	.LASF208
ARM GAS  C:\Users\pearlstl\AppData\Local\Temp\ccAUXqAU.s 			page 153


 3875 0b5f 05       		.byte	0x5
 3876 0b60 10       		.uleb128 0x10
 3877 0b61 600B0000 		.4byte	.LASF209
 3878 0b65 06       		.byte	0x6
 3879 0b66 10       		.uleb128 0x10
 3880 0b67 90020000 		.4byte	.LASF210
 3881 0b6b 07       		.byte	0x7
 3882 0b6c 10       		.uleb128 0x10
 3883 0b6d 8A120000 		.4byte	.LASF211
 3884 0b71 08       		.byte	0x8
 3885 0b72 00       		.byte	0
 3886 0b73 0E       		.uleb128 0xe
 3887 0b74 4A160000 		.4byte	.LASF212
 3888 0b78 03       		.byte	0x3
 3889 0b79 B801     		.2byte	0x1b8
 3890 0b7b 3B0B0000 		.4byte	0xb3b
 3891 0b7f 0F       		.uleb128 0xf
 3892 0b80 01       		.byte	0x1
 3893 0b81 37000000 		.4byte	0x37
 3894 0b85 03       		.byte	0x3
 3895 0b86 BC01     		.2byte	0x1bc
 3896 0b88 9F0B0000 		.4byte	0xb9f
 3897 0b8c 10       		.uleb128 0x10
 3898 0b8d A0130000 		.4byte	.LASF213
 3899 0b91 00       		.byte	0
 3900 0b92 10       		.uleb128 0x10
 3901 0b93 C6030000 		.4byte	.LASF214
 3902 0b97 02       		.byte	0x2
 3903 0b98 10       		.uleb128 0x10
 3904 0b99 B00C0000 		.4byte	.LASF215
 3905 0b9d 03       		.byte	0x3
 3906 0b9e 00       		.byte	0
 3907 0b9f 0E       		.uleb128 0xe
 3908 0ba0 AF070000 		.4byte	.LASF216
 3909 0ba4 03       		.byte	0x3
 3910 0ba5 C001     		.2byte	0x1c0
 3911 0ba7 7F0B0000 		.4byte	0xb7f
 3912 0bab 0F       		.uleb128 0xf
 3913 0bac 01       		.byte	0x1
 3914 0bad 37000000 		.4byte	0x37
 3915 0bb1 03       		.byte	0x3
 3916 0bb2 C401     		.2byte	0x1c4
 3917 0bb4 C50B0000 		.4byte	0xbc5
 3918 0bb8 10       		.uleb128 0x10
 3919 0bb9 B6010000 		.4byte	.LASF217
 3920 0bbd 00       		.byte	0
 3921 0bbe 10       		.uleb128 0x10
 3922 0bbf CD050000 		.4byte	.LASF218
 3923 0bc3 01       		.byte	0x1
 3924 0bc4 00       		.byte	0
 3925 0bc5 0E       		.uleb128 0xe
 3926 0bc6 A7060000 		.4byte	.LASF219
 3927 0bca 03       		.byte	0x3
 3928 0bcb C701     		.2byte	0x1c7
 3929 0bcd AB0B0000 		.4byte	0xbab
 3930 0bd1 0E       		.uleb128 0xe
 3931 0bd2 620A0000 		.4byte	.LASF220
ARM GAS  C:\Users\pearlstl\AppData\Local\Temp\ccAUXqAU.s 			page 154


 3932 0bd6 03       		.byte	0x3
 3933 0bd7 D901     		.2byte	0x1d9
 3934 0bd9 DD0B0000 		.4byte	0xbdd
 3935 0bdd 15       		.uleb128 0x15
 3936 0bde 04       		.byte	0x4
 3937 0bdf E30B0000 		.4byte	0xbe3
 3938 0be3 16       		.uleb128 0x16
 3939 0be4 EE0B0000 		.4byte	0xbee
 3940 0be8 17       		.uleb128 0x17
 3941 0be9 B8000000 		.4byte	0xb8
 3942 0bed 00       		.byte	0
 3943 0bee 18       		.uleb128 0x18
 3944 0bef A9040000 		.4byte	.LASF248
 3945 0bf3 40       		.byte	0x40
 3946 0bf4 03       		.byte	0x3
 3947 0bf5 DC01     		.2byte	0x1dc
 3948 0bf7 410D0000 		.4byte	0xd41
 3949 0bfb 13       		.uleb128 0x13
 3950 0bfc 0B100000 		.4byte	.LASF221
 3951 0c00 03       		.byte	0x3
 3952 0c01 DF01     		.2byte	0x1df
 3953 0c03 2F0B0000 		.4byte	0xb2f
 3954 0c07 00       		.byte	0
 3955 0c08 13       		.uleb128 0x13
 3956 0c09 33150000 		.4byte	.LASF222
 3957 0c0d 03       		.byte	0x3
 3958 0c0e E901     		.2byte	0x1e9
 3959 0c10 B8000000 		.4byte	0xb8
 3960 0c14 04       		.byte	0x4
 3961 0c15 13       		.uleb128 0x13
 3962 0c16 C1150000 		.4byte	.LASF223
 3963 0c1a 03       		.byte	0x3
 3964 0c1b EC01     		.2byte	0x1ec
 3965 0c1d B8000000 		.4byte	0xb8
 3966 0c21 08       		.byte	0x8
 3967 0c22 13       		.uleb128 0x13
 3968 0c23 AC000000 		.4byte	.LASF224
 3969 0c27 03       		.byte	0x3
 3970 0c28 F201     		.2byte	0x1f2
 3971 0c2a 410D0000 		.4byte	0xd41
 3972 0c2e 0C       		.byte	0xc
 3973 0c2f 13       		.uleb128 0x13
 3974 0c30 F40B0000 		.4byte	.LASF225
 3975 0c34 03       		.byte	0x3
 3976 0c35 F801     		.2byte	0x1f8
 3977 0c37 730B0000 		.4byte	0xb73
 3978 0c3b 0D       		.byte	0xd
 3979 0c3c 13       		.uleb128 0x13
 3980 0c3d 30000000 		.4byte	.LASF226
 3981 0c41 03       		.byte	0x3
 3982 0c42 FB01     		.2byte	0x1fb
 3983 0c44 9F0B0000 		.4byte	0xb9f
 3984 0c48 0E       		.byte	0xe
 3985 0c49 13       		.uleb128 0x13
 3986 0c4a 7E020000 		.4byte	.LASF227
 3987 0c4e 03       		.byte	0x3
 3988 0c4f 0302     		.2byte	0x203
ARM GAS  C:\Users\pearlstl\AppData\Local\Temp\ccAUXqAU.s 			page 155


 3989 0c51 410D0000 		.4byte	0xd41
 3990 0c55 0F       		.byte	0xf
 3991 0c56 13       		.uleb128 0x13
 3992 0c57 74090000 		.4byte	.LASF228
 3993 0c5b 03       		.byte	0x3
 3994 0c5c 0902     		.2byte	0x209
 3995 0c5e 410D0000 		.4byte	0xd41
 3996 0c62 10       		.byte	0x10
 3997 0c63 13       		.uleb128 0x13
 3998 0c64 07160000 		.4byte	.LASF229
 3999 0c68 03       		.byte	0x3
 4000 0c69 0F02     		.2byte	0x20f
 4001 0c6b 410D0000 		.4byte	0xd41
 4002 0c6f 11       		.byte	0x11
 4003 0c70 13       		.uleb128 0x13
 4004 0c71 E4010000 		.4byte	.LASF230
 4005 0c75 03       		.byte	0x3
 4006 0c76 1502     		.2byte	0x215
 4007 0c78 410D0000 		.4byte	0xd41
 4008 0c7c 12       		.byte	0x12
 4009 0c7d 13       		.uleb128 0x13
 4010 0c7e E0080000 		.4byte	.LASF231
 4011 0c82 03       		.byte	0x3
 4012 0c83 1C02     		.2byte	0x21c
 4013 0c85 B8000000 		.4byte	0xb8
 4014 0c89 14       		.byte	0x14
 4015 0c8a 13       		.uleb128 0x13
 4016 0c8b 350E0000 		.4byte	.LASF232
 4017 0c8f 03       		.byte	0x3
 4018 0c90 2402     		.2byte	0x224
 4019 0c92 B8000000 		.4byte	0xb8
 4020 0c96 18       		.byte	0x18
 4021 0c97 13       		.uleb128 0x13
 4022 0c98 39080000 		.4byte	.LASF233
 4023 0c9c 03       		.byte	0x3
 4024 0c9d 2A02     		.2byte	0x22a
 4025 0c9f 410D0000 		.4byte	0xd41
 4026 0ca3 1C       		.byte	0x1c
 4027 0ca4 13       		.uleb128 0x13
 4028 0ca5 68040000 		.4byte	.LASF234
 4029 0ca9 03       		.byte	0x3
 4030 0caa 2D02     		.2byte	0x22d
 4031 0cac 410D0000 		.4byte	0xd41
 4032 0cb0 1D       		.byte	0x1d
 4033 0cb1 13       		.uleb128 0x13
 4034 0cb2 0D0B0000 		.4byte	.LASF235
 4035 0cb6 03       		.byte	0x3
 4036 0cb7 3302     		.2byte	0x233
 4037 0cb9 410D0000 		.4byte	0xd41
 4038 0cbd 1E       		.byte	0x1e
 4039 0cbe 13       		.uleb128 0x13
 4040 0cbf 810A0000 		.4byte	.LASF236
 4041 0cc3 03       		.byte	0x3
 4042 0cc4 3A02     		.2byte	0x23a
 4043 0cc6 410D0000 		.4byte	0xd41
 4044 0cca 1F       		.byte	0x1f
 4045 0ccb 13       		.uleb128 0x13
ARM GAS  C:\Users\pearlstl\AppData\Local\Temp\ccAUXqAU.s 			page 156


 4046 0ccc 59120000 		.4byte	.LASF237
 4047 0cd0 03       		.byte	0x3
 4048 0cd1 4002     		.2byte	0x240
 4049 0cd3 410D0000 		.4byte	0xd41
 4050 0cd7 20       		.byte	0x20
 4051 0cd8 13       		.uleb128 0x13
 4052 0cd9 56130000 		.4byte	.LASF238
 4053 0cdd 03       		.byte	0x3
 4054 0cde 4302     		.2byte	0x243
 4055 0ce0 C50B0000 		.4byte	0xbc5
 4056 0ce4 21       		.byte	0x21
 4057 0ce5 13       		.uleb128 0x13
 4058 0ce6 91130000 		.4byte	.LASF239
 4059 0cea 03       		.byte	0x3
 4060 0ceb 4902     		.2byte	0x249
 4061 0ced B8000000 		.4byte	0xb8
 4062 0cf1 24       		.byte	0x24
 4063 0cf2 13       		.uleb128 0x13
 4064 0cf3 26050000 		.4byte	.LASF240
 4065 0cf7 03       		.byte	0x3
 4066 0cf8 4C02     		.2byte	0x24c
 4067 0cfa C50B0000 		.4byte	0xbc5
 4068 0cfe 28       		.byte	0x28
 4069 0cff 13       		.uleb128 0x13
 4070 0d00 F0080000 		.4byte	.LASF241
 4071 0d04 03       		.byte	0x3
 4072 0d05 4F02     		.2byte	0x24f
 4073 0d07 B8000000 		.4byte	0xb8
 4074 0d0b 2C       		.byte	0x2c
 4075 0d0c 13       		.uleb128 0x13
 4076 0d0d 4A040000 		.4byte	.LASF242
 4077 0d11 03       		.byte	0x3
 4078 0d12 5702     		.2byte	0x257
 4079 0d14 B8000000 		.4byte	0xb8
 4080 0d18 30       		.byte	0x30
 4081 0d19 13       		.uleb128 0x13
 4082 0d1a 18160000 		.4byte	.LASF243
 4083 0d1e 03       		.byte	0x3
 4084 0d1f 5D02     		.2byte	0x25d
 4085 0d21 B8000000 		.4byte	0xb8
 4086 0d25 34       		.byte	0x34
 4087 0d26 13       		.uleb128 0x13
 4088 0d27 11120000 		.4byte	.LASF244
 4089 0d2b 03       		.byte	0x3
 4090 0d2c 6502     		.2byte	0x265
 4091 0d2e B8000000 		.4byte	0xb8
 4092 0d32 38       		.byte	0x38
 4093 0d33 13       		.uleb128 0x13
 4094 0d34 B8130000 		.4byte	.LASF245
 4095 0d38 03       		.byte	0x3
 4096 0d39 6B02     		.2byte	0x26b
 4097 0d3b B8000000 		.4byte	0xb8
 4098 0d3f 3C       		.byte	0x3c
 4099 0d40 00       		.byte	0
 4100 0d41 02       		.uleb128 0x2
 4101 0d42 01       		.byte	0x1
 4102 0d43 02       		.byte	0x2
ARM GAS  C:\Users\pearlstl\AppData\Local\Temp\ccAUXqAU.s 			page 157


 4103 0d44 2A070000 		.4byte	.LASF246
 4104 0d48 0E       		.uleb128 0xe
 4105 0d49 62130000 		.4byte	.LASF247
 4106 0d4d 03       		.byte	0x3
 4107 0d4e 6C02     		.2byte	0x26c
 4108 0d50 EE0B0000 		.4byte	0xbee
 4109 0d54 18       		.uleb128 0x18
 4110 0d55 06050000 		.4byte	.LASF249
 4111 0d59 34       		.byte	0x34
 4112 0d5a 03       		.byte	0x3
 4113 0d5b 7502     		.2byte	0x275
 4114 0d5d 0B0E0000 		.4byte	0xe0b
 4115 0d61 13       		.uleb128 0x13
 4116 0d62 BB000000 		.4byte	.LASF250
 4117 0d66 03       		.byte	0x3
 4118 0d67 7802     		.2byte	0x278
 4119 0d69 CA000000 		.4byte	0xca
 4120 0d6d 00       		.byte	0
 4121 0d6e 13       		.uleb128 0x13
 4122 0d6f DE030000 		.4byte	.LASF251
 4123 0d73 03       		.byte	0x3
 4124 0d74 7902     		.2byte	0x279
 4125 0d76 CA000000 		.4byte	0xca
 4126 0d7a 04       		.byte	0x4
 4127 0d7b 13       		.uleb128 0x13
 4128 0d7c 7F0D0000 		.4byte	.LASF252
 4129 0d80 03       		.byte	0x3
 4130 0d81 7B02     		.2byte	0x27b
 4131 0d83 C00A0000 		.4byte	0xac0
 4132 0d87 08       		.byte	0x8
 4133 0d88 13       		.uleb128 0x13
 4134 0d89 75040000 		.4byte	.LASF253
 4135 0d8d 03       		.byte	0x3
 4136 0d8e 7C02     		.2byte	0x27c
 4137 0d90 B8000000 		.4byte	0xb8
 4138 0d94 0C       		.byte	0xc
 4139 0d95 13       		.uleb128 0x13
 4140 0d96 420C0000 		.4byte	.LASF254
 4141 0d9a 03       		.byte	0x3
 4142 0d9b 7D02     		.2byte	0x27d
 4143 0d9d CA000000 		.4byte	0xca
 4144 0da1 10       		.byte	0x10
 4145 0da2 13       		.uleb128 0x13
 4146 0da3 D2080000 		.4byte	.LASF255
 4147 0da7 03       		.byte	0x3
 4148 0da8 7E02     		.2byte	0x27e
 4149 0daa CA000000 		.4byte	0xca
 4150 0dae 14       		.byte	0x14
 4151 0daf 13       		.uleb128 0x13
 4152 0db0 5D060000 		.4byte	.LASF256
 4153 0db4 03       		.byte	0x3
 4154 0db5 8002     		.2byte	0x280
 4155 0db7 C00A0000 		.4byte	0xac0
 4156 0dbb 18       		.byte	0x18
 4157 0dbc 13       		.uleb128 0x13
 4158 0dbd 75160000 		.4byte	.LASF257
 4159 0dc1 03       		.byte	0x3
ARM GAS  C:\Users\pearlstl\AppData\Local\Temp\ccAUXqAU.s 			page 158


 4160 0dc2 8102     		.2byte	0x281
 4161 0dc4 B8000000 		.4byte	0xb8
 4162 0dc8 1C       		.byte	0x1c
 4163 0dc9 13       		.uleb128 0x13
 4164 0dca 86090000 		.4byte	.LASF258
 4165 0dce 03       		.byte	0x3
 4166 0dcf 8202     		.2byte	0x282
 4167 0dd1 CA000000 		.4byte	0xca
 4168 0dd5 20       		.byte	0x20
 4169 0dd6 13       		.uleb128 0x13
 4170 0dd7 1B010000 		.4byte	.LASF259
 4171 0ddb 03       		.byte	0x3
 4172 0ddc 8402     		.2byte	0x284
 4173 0dde C00A0000 		.4byte	0xac0
 4174 0de2 24       		.byte	0x24
 4175 0de3 13       		.uleb128 0x13
 4176 0de4 680C0000 		.4byte	.LASF260
 4177 0de8 03       		.byte	0x3
 4178 0de9 8502     		.2byte	0x285
 4179 0deb B8000000 		.4byte	0xb8
 4180 0def 28       		.byte	0x28
 4181 0df0 13       		.uleb128 0x13
 4182 0df1 F00F0000 		.4byte	.LASF261
 4183 0df5 03       		.byte	0x3
 4184 0df6 8602     		.2byte	0x286
 4185 0df8 CA000000 		.4byte	0xca
 4186 0dfc 2C       		.byte	0x2c
 4187 0dfd 13       		.uleb128 0x13
 4188 0dfe 0F070000 		.4byte	.LASF262
 4189 0e02 03       		.byte	0x3
 4190 0e03 8B02     		.2byte	0x28b
 4191 0e05 D10B0000 		.4byte	0xbd1
 4192 0e09 30       		.byte	0x30
 4193 0e0a 00       		.byte	0
 4194 0e0b 0E       		.uleb128 0xe
 4195 0e0c 1B020000 		.4byte	.LASF263
 4196 0e10 03       		.byte	0x3
 4197 0e11 9102     		.2byte	0x291
 4198 0e13 540D0000 		.4byte	0xd54
 4199 0e17 19       		.uleb128 0x19
 4200 0e18 CA0D0000 		.4byte	.LASF264
 4201 0e1c 02       		.byte	0x2
 4202 0e1d 0E03     		.2byte	0x30e
 4203 0e1f B8000000 		.4byte	0xb8
 4204 0e23 03       		.byte	0x3
 4205 0e24 350E0000 		.4byte	0xe35
 4206 0e28 1A       		.uleb128 0x1a
 4207 0e29 60000000 		.4byte	.LASF193
 4208 0e2d 02       		.byte	0x2
 4209 0e2e 0E03     		.2byte	0x30e
 4210 0e30 350E0000 		.4byte	0xe35
 4211 0e34 00       		.byte	0
 4212 0e35 15       		.uleb128 0x15
 4213 0e36 04       		.byte	0x4
 4214 0e37 3B0E0000 		.4byte	0xe3b
 4215 0e3b 06       		.uleb128 0x6
 4216 0e3c FC090000 		.4byte	0x9fc
ARM GAS  C:\Users\pearlstl\AppData\Local\Temp\ccAUXqAU.s 			page 159


 4217 0e40 19       		.uleb128 0x19
 4218 0e41 8B070000 		.4byte	.LASF265
 4219 0e45 02       		.byte	0x2
 4220 0e46 FB02     		.2byte	0x2fb
 4221 0e48 B8000000 		.4byte	0xb8
 4222 0e4c 03       		.byte	0x3
 4223 0e4d 5E0E0000 		.4byte	0xe5e
 4224 0e51 1A       		.uleb128 0x1a
 4225 0e52 60000000 		.4byte	.LASF193
 4226 0e56 02       		.byte	0x2
 4227 0e57 FB02     		.2byte	0x2fb
 4228 0e59 350E0000 		.4byte	0xe35
 4229 0e5d 00       		.byte	0
 4230 0e5e 19       		.uleb128 0x19
 4231 0e5f 01040000 		.4byte	.LASF266
 4232 0e63 02       		.byte	0x2
 4233 0e64 9302     		.2byte	0x293
 4234 0e66 B8000000 		.4byte	0xb8
 4235 0e6a 03       		.byte	0x3
 4236 0e6b 7C0E0000 		.4byte	0xe7c
 4237 0e6f 1A       		.uleb128 0x1a
 4238 0e70 60000000 		.4byte	.LASF193
 4239 0e74 02       		.byte	0x2
 4240 0e75 9302     		.2byte	0x293
 4241 0e77 350E0000 		.4byte	0xe35
 4242 0e7b 00       		.byte	0
 4243 0e7c 19       		.uleb128 0x19
 4244 0e7d 59110000 		.4byte	.LASF267
 4245 0e81 03       		.byte	0x3
 4246 0e82 C604     		.2byte	0x4c6
 4247 0e84 B8000000 		.4byte	0xb8
 4248 0e88 03       		.byte	0x3
 4249 0e89 B20E0000 		.4byte	0xeb2
 4250 0e8d 1A       		.uleb128 0x1a
 4251 0e8e 60000000 		.4byte	.LASF193
 4252 0e92 03       		.byte	0x3
 4253 0e93 C604     		.2byte	0x4c6
 4254 0e95 350E0000 		.4byte	0xe35
 4255 0e99 1A       		.uleb128 0x1a
 4256 0e9a 5C0C0000 		.4byte	.LASF268
 4257 0e9e 03       		.byte	0x3
 4258 0e9f C604     		.2byte	0x4c6
 4259 0ea1 C00A0000 		.4byte	0xac0
 4260 0ea5 1A       		.uleb128 0x1a
 4261 0ea6 630C0000 		.4byte	.LASF269
 4262 0eaa 03       		.byte	0x3
 4263 0eab C604     		.2byte	0x4c6
 4264 0ead B8000000 		.4byte	0xb8
 4265 0eb1 00       		.byte	0
 4266 0eb2 1B       		.uleb128 0x1b
 4267 0eb3 2B100000 		.4byte	.LASF274
 4268 0eb7 02       		.byte	0x2
 4269 0eb8 9803     		.2byte	0x398
 4270 0eba 03       		.byte	0x3
 4271 0ebb D80E0000 		.4byte	0xed8
 4272 0ebf 1A       		.uleb128 0x1a
 4273 0ec0 60000000 		.4byte	.LASF193
ARM GAS  C:\Users\pearlstl\AppData\Local\Temp\ccAUXqAU.s 			page 160


 4274 0ec4 02       		.byte	0x2
 4275 0ec5 9803     		.2byte	0x398
 4276 0ec7 D80E0000 		.4byte	0xed8
 4277 0ecb 1A       		.uleb128 0x1a
 4278 0ecc F9150000 		.4byte	.LASF270
 4279 0ed0 02       		.byte	0x2
 4280 0ed1 9803     		.2byte	0x398
 4281 0ed3 B8000000 		.4byte	0xb8
 4282 0ed7 00       		.byte	0
 4283 0ed8 15       		.uleb128 0x15
 4284 0ed9 04       		.byte	0x4
 4285 0eda FC090000 		.4byte	0x9fc
 4286 0ede 19       		.uleb128 0x19
 4287 0edf 710F0000 		.4byte	.LASF271
 4288 0ee3 02       		.byte	0x2
 4289 0ee4 AC06     		.2byte	0x6ac
 4290 0ee6 410D0000 		.4byte	0xd41
 4291 0eea 03       		.byte	0x3
 4292 0eeb FC0E0000 		.4byte	0xefc
 4293 0eef 1A       		.uleb128 0x1a
 4294 0ef0 60000000 		.4byte	.LASF193
 4295 0ef4 02       		.byte	0x2
 4296 0ef5 AC06     		.2byte	0x6ac
 4297 0ef7 350E0000 		.4byte	0xe35
 4298 0efb 00       		.byte	0
 4299 0efc 19       		.uleb128 0x19
 4300 0efd 31040000 		.4byte	.LASF272
 4301 0f01 02       		.byte	0x2
 4302 0f02 BF06     		.2byte	0x6bf
 4303 0f04 410D0000 		.4byte	0xd41
 4304 0f08 03       		.byte	0x3
 4305 0f09 1A0F0000 		.4byte	0xf1a
 4306 0f0d 1A       		.uleb128 0x1a
 4307 0f0e 60000000 		.4byte	.LASF193
 4308 0f12 02       		.byte	0x2
 4309 0f13 BF06     		.2byte	0x6bf
 4310 0f15 350E0000 		.4byte	0xe35
 4311 0f19 00       		.byte	0
 4312 0f1a 19       		.uleb128 0x19
 4313 0f1b CB150000 		.4byte	.LASF273
 4314 0f1f 03       		.byte	0x3
 4315 0f20 7105     		.2byte	0x571
 4316 0f22 B8000000 		.4byte	0xb8
 4317 0f26 03       		.byte	0x3
 4318 0f27 500F0000 		.4byte	0xf50
 4319 0f2b 1A       		.uleb128 0x1a
 4320 0f2c 60000000 		.4byte	.LASF193
 4321 0f30 03       		.byte	0x3
 4322 0f31 7105     		.2byte	0x571
 4323 0f33 D80E0000 		.4byte	0xed8
 4324 0f37 1A       		.uleb128 0x1a
 4325 0f38 5C0C0000 		.4byte	.LASF268
 4326 0f3c 03       		.byte	0x3
 4327 0f3d 7105     		.2byte	0x571
 4328 0f3f C00A0000 		.4byte	0xac0
 4329 0f43 1A       		.uleb128 0x1a
 4330 0f44 630C0000 		.4byte	.LASF269
ARM GAS  C:\Users\pearlstl\AppData\Local\Temp\ccAUXqAU.s 			page 161


 4331 0f48 03       		.byte	0x3
 4332 0f49 7105     		.2byte	0x571
 4333 0f4b B8000000 		.4byte	0xb8
 4334 0f4f 00       		.byte	0
 4335 0f50 1B       		.uleb128 0x1b
 4336 0f51 8A0F0000 		.4byte	.LASF275
 4337 0f55 02       		.byte	0x2
 4338 0f56 2804     		.2byte	0x428
 4339 0f58 03       		.byte	0x3
 4340 0f59 760F0000 		.4byte	0xf76
 4341 0f5d 1A       		.uleb128 0x1a
 4342 0f5e 60000000 		.4byte	.LASF193
 4343 0f62 02       		.byte	0x2
 4344 0f63 2804     		.2byte	0x428
 4345 0f65 D80E0000 		.4byte	0xed8
 4346 0f69 1A       		.uleb128 0x1a
 4347 0f6a F9150000 		.4byte	.LASF270
 4348 0f6e 02       		.byte	0x2
 4349 0f6f 2804     		.2byte	0x428
 4350 0f71 B8000000 		.4byte	0xb8
 4351 0f75 00       		.byte	0
 4352 0f76 19       		.uleb128 0x19
 4353 0f77 21010000 		.4byte	.LASF276
 4354 0f7b 02       		.byte	0x2
 4355 0f7c 3F04     		.2byte	0x43f
 4356 0f7e B8000000 		.4byte	0xb8
 4357 0f82 03       		.byte	0x3
 4358 0f83 940F0000 		.4byte	0xf94
 4359 0f87 1A       		.uleb128 0x1a
 4360 0f88 60000000 		.4byte	.LASF193
 4361 0f8c 02       		.byte	0x2
 4362 0f8d 3F04     		.2byte	0x43f
 4363 0f8f 350E0000 		.4byte	0xe35
 4364 0f93 00       		.byte	0
 4365 0f94 1B       		.uleb128 0x1b
 4366 0f95 30070000 		.4byte	.LASF277
 4367 0f99 02       		.byte	0x2
 4368 0f9a 7504     		.2byte	0x475
 4369 0f9c 03       		.byte	0x3
 4370 0f9d BA0F0000 		.4byte	0xfba
 4371 0fa1 1A       		.uleb128 0x1a
 4372 0fa2 60000000 		.4byte	.LASF193
 4373 0fa6 02       		.byte	0x2
 4374 0fa7 7504     		.2byte	0x475
 4375 0fa9 D80E0000 		.4byte	0xed8
 4376 0fad 1A       		.uleb128 0x1a
 4377 0fae F9150000 		.4byte	.LASF270
 4378 0fb2 02       		.byte	0x2
 4379 0fb3 7504     		.2byte	0x475
 4380 0fb5 B8000000 		.4byte	0xb8
 4381 0fb9 00       		.byte	0
 4382 0fba 1B       		.uleb128 0x1b
 4383 0fbb 14000000 		.4byte	.LASF278
 4384 0fbf 02       		.byte	0x2
 4385 0fc0 D102     		.2byte	0x2d1
 4386 0fc2 03       		.byte	0x3
 4387 0fc3 E00F0000 		.4byte	0xfe0
ARM GAS  C:\Users\pearlstl\AppData\Local\Temp\ccAUXqAU.s 			page 162


 4388 0fc7 1A       		.uleb128 0x1a
 4389 0fc8 60000000 		.4byte	.LASF193
 4390 0fcc 02       		.byte	0x2
 4391 0fcd D102     		.2byte	0x2d1
 4392 0fcf D80E0000 		.4byte	0xed8
 4393 0fd3 1A       		.uleb128 0x1a
 4394 0fd4 5E090000 		.4byte	.LASF279
 4395 0fd8 02       		.byte	0x2
 4396 0fd9 D102     		.2byte	0x2d1
 4397 0fdb B8000000 		.4byte	0xb8
 4398 0fdf 00       		.byte	0
 4399 0fe0 19       		.uleb128 0x19
 4400 0fe1 32050000 		.4byte	.LASF280
 4401 0fe5 02       		.byte	0x2
 4402 0fe6 6A02     		.2byte	0x26a
 4403 0fe8 B8000000 		.4byte	0xb8
 4404 0fec 03       		.byte	0x3
 4405 0fed FE0F0000 		.4byte	0xffe
 4406 0ff1 1A       		.uleb128 0x1a
 4407 0ff2 60000000 		.4byte	.LASF193
 4408 0ff6 02       		.byte	0x2
 4409 0ff7 6A02     		.2byte	0x26a
 4410 0ff9 350E0000 		.4byte	0xe35
 4411 0ffd 00       		.byte	0
 4412 0ffe 1C       		.uleb128 0x1c
 4413 0fff A5090000 		.4byte	.LASF345
 4414 1003 01       		.byte	0x1
 4415 1004 2802     		.2byte	0x228
 4416 1006 01       		.byte	0x1
 4417 1007 24100000 		.4byte	0x1024
 4418 100b 1A       		.uleb128 0x1a
 4419 100c 60000000 		.4byte	.LASF193
 4420 1010 01       		.byte	0x1
 4421 1011 2802     		.2byte	0x228
 4422 1013 350E0000 		.4byte	0xe35
 4423 1017 1A       		.uleb128 0x1a
 4424 1018 050B0000 		.4byte	.LASF194
 4425 101c 01       		.byte	0x1
 4426 101d 2802     		.2byte	0x228
 4427 101f 24100000 		.4byte	0x1024
 4428 1023 00       		.byte	0
 4429 1024 15       		.uleb128 0x15
 4430 1025 04       		.byte	0x4
 4431 1026 0B0E0000 		.4byte	0xe0b
 4432 102a 1B       		.uleb128 0x1b
 4433 102b 1B150000 		.4byte	.LASF281
 4434 102f 03       		.byte	0x3
 4435 1030 1506     		.2byte	0x615
 4436 1032 03       		.byte	0x3
 4437 1033 44100000 		.4byte	0x1044
 4438 1037 1A       		.uleb128 0x1a
 4439 1038 60000000 		.4byte	.LASF193
 4440 103c 03       		.byte	0x3
 4441 103d 1506     		.2byte	0x615
 4442 103f D80E0000 		.4byte	0xed8
 4443 1043 00       		.byte	0
 4444 1044 1D       		.uleb128 0x1d
ARM GAS  C:\Users\pearlstl\AppData\Local\Temp\ccAUXqAU.s 			page 163


 4445 1045 DA090000 		.4byte	.LASF282
 4446 1049 01       		.byte	0x1
 4447 104a E003     		.2byte	0x3e0
 4448 104c B8000000 		.4byte	0xb8
 4449 1050 01       		.byte	0x1
 4450 1051 6E100000 		.4byte	0x106e
 4451 1055 1A       		.uleb128 0x1a
 4452 1056 60000000 		.4byte	.LASF193
 4453 105a 01       		.byte	0x1
 4454 105b E003     		.2byte	0x3e0
 4455 105d 350E0000 		.4byte	0xe35
 4456 1061 1A       		.uleb128 0x1a
 4457 1062 050B0000 		.4byte	.LASF194
 4458 1066 01       		.byte	0x1
 4459 1067 E003     		.2byte	0x3e0
 4460 1069 6E100000 		.4byte	0x106e
 4461 106d 00       		.byte	0
 4462 106e 15       		.uleb128 0x15
 4463 106f 04       		.byte	0x4
 4464 1070 74100000 		.4byte	0x1074
 4465 1074 06       		.uleb128 0x6
 4466 1075 0B0E0000 		.4byte	0xe0b
 4467 1079 1D       		.uleb128 0x1d
 4468 107a A40F0000 		.4byte	.LASF283
 4469 107e 01       		.byte	0x1
 4470 107f 2F03     		.2byte	0x32f
 4471 1081 B8000000 		.4byte	0xb8
 4472 1085 01       		.byte	0x1
 4473 1086 A3100000 		.4byte	0x10a3
 4474 108a 1A       		.uleb128 0x1a
 4475 108b 60000000 		.4byte	.LASF193
 4476 108f 01       		.byte	0x1
 4477 1090 2F03     		.2byte	0x32f
 4478 1092 350E0000 		.4byte	0xe35
 4479 1096 1A       		.uleb128 0x1a
 4480 1097 050B0000 		.4byte	.LASF194
 4481 109b 01       		.byte	0x1
 4482 109c 2F03     		.2byte	0x32f
 4483 109e 6E100000 		.4byte	0x106e
 4484 10a2 00       		.byte	0
 4485 10a3 19       		.uleb128 0x19
 4486 10a4 9E050000 		.4byte	.LASF284
 4487 10a8 03       		.byte	0x3
 4488 10a9 FF05     		.2byte	0x5ff
 4489 10ab 410D0000 		.4byte	0xd41
 4490 10af 03       		.byte	0x3
 4491 10b0 C1100000 		.4byte	0x10c1
 4492 10b4 1A       		.uleb128 0x1a
 4493 10b5 60000000 		.4byte	.LASF193
 4494 10b9 03       		.byte	0x3
 4495 10ba FF05     		.2byte	0x5ff
 4496 10bc 350E0000 		.4byte	0xe35
 4497 10c0 00       		.byte	0
 4498 10c1 19       		.uleb128 0x19
 4499 10c2 F6110000 		.4byte	.LASF285
 4500 10c6 03       		.byte	0x3
 4501 10c7 2805     		.2byte	0x528
ARM GAS  C:\Users\pearlstl\AppData\Local\Temp\ccAUXqAU.s 			page 164


 4502 10c9 B8000000 		.4byte	0xb8
 4503 10cd 03       		.byte	0x3
 4504 10ce DF100000 		.4byte	0x10df
 4505 10d2 1A       		.uleb128 0x1a
 4506 10d3 60000000 		.4byte	.LASF193
 4507 10d7 03       		.byte	0x3
 4508 10d8 2805     		.2byte	0x528
 4509 10da 350E0000 		.4byte	0xe35
 4510 10de 00       		.byte	0
 4511 10df 1B       		.uleb128 0x1b
 4512 10e0 E60E0000 		.4byte	.LASF286
 4513 10e4 03       		.byte	0x3
 4514 10e5 1304     		.2byte	0x413
 4515 10e7 03       		.byte	0x3
 4516 10e8 F9100000 		.4byte	0x10f9
 4517 10ec 1A       		.uleb128 0x1a
 4518 10ed 60000000 		.4byte	.LASF193
 4519 10f1 03       		.byte	0x3
 4520 10f2 1304     		.2byte	0x413
 4521 10f4 D80E0000 		.4byte	0xed8
 4522 10f8 00       		.byte	0
 4523 10f9 19       		.uleb128 0x19
 4524 10fa 2B0A0000 		.4byte	.LASF287
 4525 10fe 02       		.byte	0x2
 4526 10ff 1304     		.2byte	0x413
 4527 1101 B8000000 		.4byte	0xb8
 4528 1105 03       		.byte	0x3
 4529 1106 17110000 		.4byte	0x1117
 4530 110a 1A       		.uleb128 0x1a
 4531 110b 60000000 		.4byte	.LASF193
 4532 110f 02       		.byte	0x2
 4533 1110 1304     		.2byte	0x413
 4534 1112 350E0000 		.4byte	0xe35
 4535 1116 00       		.byte	0
 4536 1117 19       		.uleb128 0x19
 4537 1118 780B0000 		.4byte	.LASF288
 4538 111c 02       		.byte	0x2
 4539 111d 6C03     		.2byte	0x36c
 4540 111f B8000000 		.4byte	0xb8
 4541 1123 03       		.byte	0x3
 4542 1124 35110000 		.4byte	0x1135
 4543 1128 1A       		.uleb128 0x1a
 4544 1129 60000000 		.4byte	.LASF193
 4545 112d 02       		.byte	0x2
 4546 112e 6C03     		.2byte	0x36c
 4547 1130 350E0000 		.4byte	0xe35
 4548 1134 00       		.byte	0
 4549 1135 19       		.uleb128 0x19
 4550 1136 3B060000 		.4byte	.LASF289
 4551 113a 02       		.byte	0x2
 4552 113b C703     		.2byte	0x3c7
 4553 113d B8000000 		.4byte	0xb8
 4554 1141 03       		.byte	0x3
 4555 1142 53110000 		.4byte	0x1153
 4556 1146 1A       		.uleb128 0x1a
 4557 1147 60000000 		.4byte	.LASF193
 4558 114b 02       		.byte	0x2
ARM GAS  C:\Users\pearlstl\AppData\Local\Temp\ccAUXqAU.s 			page 165


 4559 114c C703     		.2byte	0x3c7
 4560 114e 350E0000 		.4byte	0xe35
 4561 1152 00       		.byte	0
 4562 1153 1B       		.uleb128 0x1b
 4563 1154 670D0000 		.4byte	.LASF290
 4564 1158 02       		.byte	0x2
 4565 1159 E303     		.2byte	0x3e3
 4566 115b 03       		.byte	0x3
 4567 115c 79110000 		.4byte	0x1179
 4568 1160 1A       		.uleb128 0x1a
 4569 1161 60000000 		.4byte	.LASF193
 4570 1165 02       		.byte	0x2
 4571 1166 E303     		.2byte	0x3e3
 4572 1168 D80E0000 		.4byte	0xed8
 4573 116c 1A       		.uleb128 0x1a
 4574 116d F9150000 		.4byte	.LASF270
 4575 1171 02       		.byte	0x2
 4576 1172 E303     		.2byte	0x3e3
 4577 1174 B8000000 		.4byte	0xb8
 4578 1178 00       		.byte	0
 4579 1179 19       		.uleb128 0x19
 4580 117a 59010000 		.4byte	.LASF291
 4581 117e 02       		.byte	0x2
 4582 117f 5704     		.2byte	0x457
 4583 1181 B8000000 		.4byte	0xb8
 4584 1185 03       		.byte	0x3
 4585 1186 97110000 		.4byte	0x1197
 4586 118a 1A       		.uleb128 0x1a
 4587 118b 60000000 		.4byte	.LASF193
 4588 118f 02       		.byte	0x2
 4589 1190 5704     		.2byte	0x457
 4590 1192 350E0000 		.4byte	0xe35
 4591 1196 00       		.byte	0
 4592 1197 1E       		.uleb128 0x1e
 4593 1198 93140000 		.4byte	.LASF296
 4594 119c 01       		.byte	0x1
 4595 119d 38       		.byte	0x38
 4596 119e 030B0000 		.4byte	0xb03
 4597 11a2 00000000 		.4byte	.LFB155
 4598 11a6 C8010000 		.4byte	.LFE155-.LFB155
 4599 11aa 01       		.uleb128 0x1
 4600 11ab 9C       		.byte	0x9c
 4601 11ac ED110000 		.4byte	0x11ed
 4602 11b0 1F       		.uleb128 0x1f
 4603 11b1 60000000 		.4byte	.LASF193
 4604 11b5 01       		.byte	0x1
 4605 11b6 38       		.byte	0x38
 4606 11b7 D80E0000 		.4byte	0xed8
 4607 11bb 00000000 		.4byte	.LLST0
 4608 11bf 1F       		.uleb128 0x1f
 4609 11c0 2E0E0000 		.4byte	.LASF292
 4610 11c4 01       		.byte	0x1
 4611 11c5 38       		.byte	0x38
 4612 11c6 ED110000 		.4byte	0x11ed
 4613 11ca 3A000000 		.4byte	.LLST1
 4614 11ce 1F       		.uleb128 0x1f
 4615 11cf 050B0000 		.4byte	.LASF194
ARM GAS  C:\Users\pearlstl\AppData\Local\Temp\ccAUXqAU.s 			page 166


 4616 11d3 01       		.byte	0x1
 4617 11d4 38       		.byte	0x38
 4618 11d5 24100000 		.4byte	0x1024
 4619 11d9 74000000 		.4byte	.LLST2
 4620 11dd 20       		.uleb128 0x20
 4621 11de 6F767300 		.ascii	"ovs\000"
 4622 11e2 01       		.byte	0x1
 4623 11e3 4F       		.byte	0x4f
 4624 11e4 B8000000 		.4byte	0xb8
 4625 11e8 9D000000 		.4byte	.LLST3
 4626 11ec 00       		.byte	0
 4627 11ed 15       		.uleb128 0x15
 4628 11ee 04       		.byte	0x4
 4629 11ef F3110000 		.4byte	0x11f3
 4630 11f3 06       		.uleb128 0x6
 4631 11f4 480D0000 		.4byte	0xd48
 4632 11f8 21       		.uleb128 0x21
 4633 11f9 F2130000 		.4byte	.LASF293
 4634 11fd 01       		.byte	0x1
 4635 11fe BB       		.byte	0xbb
 4636 11ff 00000000 		.4byte	.LFB156
 4637 1203 64000000 		.4byte	.LFE156-.LFB156
 4638 1207 01       		.uleb128 0x1
 4639 1208 9C       		.byte	0x9c
 4640 1209 1B120000 		.4byte	0x121b
 4641 120d 22       		.uleb128 0x22
 4642 120e 60000000 		.4byte	.LASF193
 4643 1212 01       		.byte	0x1
 4644 1213 BB       		.byte	0xbb
 4645 1214 D80E0000 		.4byte	0xed8
 4646 1218 01       		.uleb128 0x1
 4647 1219 50       		.byte	0x50
 4648 121a 00       		.byte	0
 4649 121b 21       		.uleb128 0x21
 4650 121c 74060000 		.4byte	.LASF294
 4651 1220 01       		.byte	0x1
 4652 1221 F6       		.byte	0xf6
 4653 1222 00000000 		.4byte	.LFB157
 4654 1226 18000000 		.4byte	.LFE157-.LFB157
 4655 122a 01       		.uleb128 0x1
 4656 122b 9C       		.byte	0x9c
 4657 122c 4B120000 		.4byte	0x124b
 4658 1230 22       		.uleb128 0x22
 4659 1231 60000000 		.4byte	.LASF193
 4660 1235 01       		.byte	0x1
 4661 1236 F6       		.byte	0xf6
 4662 1237 D80E0000 		.4byte	0xed8
 4663 123b 01       		.uleb128 0x1
 4664 123c 50       		.byte	0x50
 4665 123d 22       		.uleb128 0x22
 4666 123e 050B0000 		.4byte	.LASF194
 4667 1242 01       		.byte	0x1
 4668 1243 F6       		.byte	0xf6
 4669 1244 24100000 		.4byte	0x1024
 4670 1248 01       		.uleb128 0x1
 4671 1249 51       		.byte	0x51
 4672 124a 00       		.byte	0
ARM GAS  C:\Users\pearlstl\AppData\Local\Temp\ccAUXqAU.s 			page 167


 4673 124b 19       		.uleb128 0x19
 4674 124c 4A090000 		.4byte	.LASF295
 4675 1250 02       		.byte	0x2
 4676 1251 2103     		.2byte	0x321
 4677 1253 410D0000 		.4byte	0xd41
 4678 1257 03       		.byte	0x3
 4679 1258 69120000 		.4byte	0x1269
 4680 125c 1A       		.uleb128 0x1a
 4681 125d 60000000 		.4byte	.LASF193
 4682 1261 02       		.byte	0x2
 4683 1262 2103     		.2byte	0x321
 4684 1264 350E0000 		.4byte	0xe35
 4685 1268 00       		.byte	0
 4686 1269 23       		.uleb128 0x23
 4687 126a 910B0000 		.4byte	.LASF297
 4688 126e 01       		.byte	0x1
 4689 126f 2201     		.2byte	0x122
 4690 1271 5E0A0000 		.4byte	0xa5e
 4691 1275 00000000 		.4byte	.LFB158
 4692 1279 60000000 		.4byte	.LFE158-.LFB158
 4693 127d 01       		.uleb128 0x1
 4694 127e 9C       		.byte	0x9c
 4695 127f F1130000 		.4byte	0x13f1
 4696 1283 24       		.uleb128 0x24
 4697 1284 CA0F0000 		.4byte	.LASF298
 4698 1288 01       		.byte	0x1
 4699 1289 2201     		.2byte	0x122
 4700 128b CE0A0000 		.4byte	0xace
 4701 128f B0000000 		.4byte	.LLST4
 4702 1293 24       		.uleb128 0x24
 4703 1294 0E030000 		.4byte	.LASF299
 4704 1298 01       		.byte	0x1
 4705 1299 2201     		.2byte	0x122
 4706 129b 900A0000 		.4byte	0xa90
 4707 129f EA000000 		.4byte	.LLST5
 4708 12a3 25       		.uleb128 0x25
 4709 12a4 520E0000 		.4byte	.LASF300
 4710 12a8 01       		.byte	0x1
 4711 12a9 2401     		.2byte	0x124
 4712 12ab 5E0A0000 		.4byte	0xa5e
 4713 12af 24010000 		.4byte	.LLST6
 4714 12b3 25       		.uleb128 0x25
 4715 12b4 260E0000 		.4byte	.LASF301
 4716 12b8 01       		.byte	0x1
 4717 12b9 2601     		.2byte	0x126
 4718 12bb D80E0000 		.4byte	0xed8
 4719 12bf 7F010000 		.4byte	.LLST7
 4720 12c3 25       		.uleb128 0x25
 4721 12c4 39120000 		.4byte	.LASF302
 4722 12c8 01       		.byte	0x1
 4723 12c9 2701     		.2byte	0x127
 4724 12cb 24100000 		.4byte	0x1024
 4725 12cf A8010000 		.4byte	.LLST8
 4726 12d3 26       		.uleb128 0x26
 4727 12d4 44100000 		.4byte	0x1044
 4728 12d8 14000000 		.4byte	.LBB151
 4729 12dc 02000000 		.4byte	.LBE151-.LBB151
ARM GAS  C:\Users\pearlstl\AppData\Local\Temp\ccAUXqAU.s 			page 168


 4730 12e0 01       		.byte	0x1
 4731 12e1 3001     		.2byte	0x130
 4732 12e3 FA120000 		.4byte	0x12fa
 4733 12e7 27       		.uleb128 0x27
 4734 12e8 61100000 		.4byte	0x1061
 4735 12ec E2010000 		.4byte	.LLST9
 4736 12f0 27       		.uleb128 0x27
 4737 12f1 55100000 		.4byte	0x1055
 4738 12f5 F6010000 		.4byte	.LLST10
 4739 12f9 00       		.byte	0
 4740 12fa 26       		.uleb128 0x26
 4741 12fb 79100000 		.4byte	0x1079
 4742 12ff 1A000000 		.4byte	.LBB153
 4743 1303 02000000 		.4byte	.LBE153-.LBB153
 4744 1307 01       		.byte	0x1
 4745 1308 3101     		.2byte	0x131
 4746 130a 21130000 		.4byte	0x1321
 4747 130e 27       		.uleb128 0x27
 4748 130f 96100000 		.4byte	0x1096
 4749 1313 09020000 		.4byte	.LLST11
 4750 1317 27       		.uleb128 0x27
 4751 1318 8A100000 		.4byte	0x108a
 4752 131c 1C020000 		.4byte	.LLST12
 4753 1320 00       		.byte	0
 4754 1321 26       		.uleb128 0x26
 4755 1322 A3100000 		.4byte	0x10a3
 4756 1326 20000000 		.4byte	.LBB155
 4757 132a 08000000 		.4byte	.LBE155-.LBB155
 4758 132e 01       		.byte	0x1
 4759 132f 3701     		.2byte	0x137
 4760 1331 91130000 		.4byte	0x1391
 4761 1335 27       		.uleb128 0x27
 4762 1336 B4100000 		.4byte	0x10b4
 4763 133a 2F020000 		.4byte	.LLST13
 4764 133e 28       		.uleb128 0x28
 4765 133f 4B120000 		.4byte	0x124b
 4766 1343 20000000 		.4byte	.LBB156
 4767 1347 08000000 		.4byte	.LBE156-.LBB156
 4768 134b 03       		.byte	0x3
 4769 134c 0106     		.2byte	0x601
 4770 134e 27       		.uleb128 0x27
 4771 134f 5C120000 		.4byte	0x125c
 4772 1353 2F020000 		.4byte	.LLST13
 4773 1357 26       		.uleb128 0x26
 4774 1358 400E0000 		.4byte	0xe40
 4775 135c 20000000 		.4byte	.LBB158
 4776 1360 06000000 		.4byte	.LBE158-.LBB158
 4777 1364 02       		.byte	0x2
 4778 1365 2303     		.2byte	0x323
 4779 1367 75130000 		.4byte	0x1375
 4780 136b 27       		.uleb128 0x27
 4781 136c 510E0000 		.4byte	0xe51
 4782 1370 42020000 		.4byte	.LLST15
 4783 1374 00       		.byte	0
 4784 1375 28       		.uleb128 0x28
 4785 1376 170E0000 		.4byte	0xe17
 4786 137a 26000000 		.4byte	.LBB160
ARM GAS  C:\Users\pearlstl\AppData\Local\Temp\ccAUXqAU.s 			page 169


 4787 137e 02000000 		.4byte	.LBE160-.LBB160
 4788 1382 02       		.byte	0x2
 4789 1383 2303     		.2byte	0x323
 4790 1385 27       		.uleb128 0x27
 4791 1386 280E0000 		.4byte	0xe28
 4792 138a 55020000 		.4byte	.LLST16
 4793 138e 00       		.byte	0
 4794 138f 00       		.byte	0
 4795 1390 00       		.byte	0
 4796 1391 26       		.uleb128 0x26
 4797 1392 C1100000 		.4byte	0x10c1
 4798 1396 36000000 		.4byte	.LBB162
 4799 139a 06000000 		.4byte	.LBE162-.LBB162
 4800 139e 01       		.byte	0x1
 4801 139f 3901     		.2byte	0x139
 4802 13a1 C9130000 		.4byte	0x13c9
 4803 13a5 27       		.uleb128 0x27
 4804 13a6 D2100000 		.4byte	0x10d2
 4805 13aa 68020000 		.4byte	.LLST17
 4806 13ae 28       		.uleb128 0x28
 4807 13af 5E0E0000 		.4byte	0xe5e
 4808 13b3 36000000 		.4byte	.LBB163
 4809 13b7 06000000 		.4byte	.LBE163-.LBB163
 4810 13bb 03       		.byte	0x3
 4811 13bc 2A05     		.2byte	0x52a
 4812 13be 27       		.uleb128 0x27
 4813 13bf 6F0E0000 		.4byte	0xe6f
 4814 13c3 68020000 		.4byte	.LLST17
 4815 13c7 00       		.byte	0
 4816 13c8 00       		.byte	0
 4817 13c9 26       		.uleb128 0x26
 4818 13ca DF100000 		.4byte	0x10df
 4819 13ce 4A000000 		.4byte	.LBB165
 4820 13d2 0A000000 		.4byte	.LBE165-.LBB165
 4821 13d6 01       		.byte	0x1
 4822 13d7 5101     		.2byte	0x151
 4823 13d9 E7130000 		.4byte	0x13e7
 4824 13dd 27       		.uleb128 0x27
 4825 13de EC100000 		.4byte	0x10ec
 4826 13e2 7B020000 		.4byte	.LLST19
 4827 13e6 00       		.byte	0
 4828 13e7 29       		.uleb128 0x29
 4829 13e8 48000000 		.4byte	.LVL22
 4830 13ec 1B120000 		.4byte	0x121b
 4831 13f0 00       		.byte	0
 4832 13f1 23       		.uleb128 0x23
 4833 13f2 75140000 		.4byte	.LASF303
 4834 13f6 01       		.byte	0x1
 4835 13f7 8B01     		.2byte	0x18b
 4836 13f9 5E0A0000 		.4byte	0xa5e
 4837 13fd 00000000 		.4byte	.LFB159
 4838 1401 08000000 		.4byte	.LFE159-.LFB159
 4839 1405 01       		.uleb128 0x1
 4840 1406 9C       		.byte	0x9c
 4841 1407 3D140000 		.4byte	0x143d
 4842 140b 24       		.uleb128 0x24
 4843 140c CA0F0000 		.4byte	.LASF298
ARM GAS  C:\Users\pearlstl\AppData\Local\Temp\ccAUXqAU.s 			page 170


 4844 1410 01       		.byte	0x1
 4845 1411 8B01     		.2byte	0x18b
 4846 1413 CE0A0000 		.4byte	0xace
 4847 1417 8E020000 		.4byte	.LLST20
 4848 141b 24       		.uleb128 0x24
 4849 141c 0E030000 		.4byte	.LASF299
 4850 1420 01       		.byte	0x1
 4851 1421 8B01     		.2byte	0x18b
 4852 1423 900A0000 		.4byte	0xa90
 4853 1427 AF020000 		.4byte	.LLST21
 4854 142b 2A       		.uleb128 0x2a
 4855 142c 06000000 		.4byte	.LVL29
 4856 1430 69120000 		.4byte	0x1269
 4857 1434 2B       		.uleb128 0x2b
 4858 1435 01       		.uleb128 0x1
 4859 1436 50       		.byte	0x50
 4860 1437 03       		.uleb128 0x3
 4861 1438 F3       		.byte	0xf3
 4862 1439 01       		.uleb128 0x1
 4863 143a 50       		.byte	0x50
 4864 143b 00       		.byte	0
 4865 143c 00       		.byte	0
 4866 143d 19       		.uleb128 0x19
 4867 143e 3F020000 		.4byte	.LASF304
 4868 1442 02       		.byte	0x2
 4869 1443 9806     		.2byte	0x698
 4870 1445 B8000000 		.4byte	0xb8
 4871 1449 03       		.byte	0x3
 4872 144a 5B140000 		.4byte	0x145b
 4873 144e 1A       		.uleb128 0x1a
 4874 144f 60000000 		.4byte	.LASF193
 4875 1453 02       		.byte	0x2
 4876 1454 9806     		.2byte	0x698
 4877 1456 350E0000 		.4byte	0xe35
 4878 145a 00       		.byte	0
 4879 145b 1B       		.uleb128 0x1b
 4880 145c A2120000 		.4byte	.LASF305
 4881 1460 02       		.byte	0x2
 4882 1461 7E02     		.2byte	0x27e
 4883 1463 03       		.byte	0x3
 4884 1464 81140000 		.4byte	0x1481
 4885 1468 1A       		.uleb128 0x1a
 4886 1469 60000000 		.4byte	.LASF193
 4887 146d 02       		.byte	0x2
 4888 146e 7E02     		.2byte	0x27e
 4889 1470 D80E0000 		.4byte	0xed8
 4890 1474 1A       		.uleb128 0x1a
 4891 1475 5D020000 		.4byte	.LASF306
 4892 1479 02       		.byte	0x2
 4893 147a 7E02     		.2byte	0x27e
 4894 147c B8000000 		.4byte	0xb8
 4895 1480 00       		.byte	0
 4896 1481 2C       		.uleb128 0x2c
 4897 1482 90000000 		.4byte	.LASF307
 4898 1486 01       		.byte	0x1
 4899 1487 BB01     		.2byte	0x1bb
 4900 1489 00000000 		.4byte	.LFB160
ARM GAS  C:\Users\pearlstl\AppData\Local\Temp\ccAUXqAU.s 			page 171


 4901 148d 44000000 		.4byte	.LFE160-.LFB160
 4902 1491 01       		.uleb128 0x1
 4903 1492 9C       		.byte	0x9c
 4904 1493 58150000 		.4byte	0x1558
 4905 1497 2D       		.uleb128 0x2d
 4906 1498 60000000 		.4byte	.LASF193
 4907 149c 01       		.byte	0x1
 4908 149d BB01     		.2byte	0x1bb
 4909 149f D80E0000 		.4byte	0xed8
 4910 14a3 01       		.uleb128 0x1
 4911 14a4 50       		.byte	0x50
 4912 14a5 24       		.uleb128 0x24
 4913 14a6 5C0C0000 		.4byte	.LASF268
 4914 14aa 01       		.byte	0x1
 4915 14ab BB01     		.2byte	0x1bb
 4916 14ad C00A0000 		.4byte	0xac0
 4917 14b1 D0020000 		.4byte	.LLST22
 4918 14b5 24       		.uleb128 0x24
 4919 14b6 630C0000 		.4byte	.LASF269
 4920 14ba 01       		.byte	0x1
 4921 14bb BB01     		.2byte	0x1bb
 4922 14bd B8000000 		.4byte	0xb8
 4923 14c1 0C030000 		.4byte	.LLST23
 4924 14c5 24       		.uleb128 0x24
 4925 14c6 050B0000 		.4byte	.LASF194
 4926 14ca 01       		.byte	0x1
 4927 14cb BB01     		.2byte	0x1bb
 4928 14cd 24100000 		.4byte	0x1024
 4929 14d1 3C030000 		.4byte	.LLST24
 4930 14d5 2E       		.uleb128 0x2e
 4931 14d6 0A000000 		.4byte	.LBB174
 4932 14da 34000000 		.4byte	.LBE174-.LBB174
 4933 14de 25       		.uleb128 0x25
 4934 14df 7A080000 		.4byte	.LASF308
 4935 14e3 01       		.byte	0x1
 4936 14e4 C301     		.2byte	0x1c3
 4937 14e6 B8000000 		.4byte	0xb8
 4938 14ea 5D030000 		.4byte	.LLST25
 4939 14ee 26       		.uleb128 0x26
 4940 14ef 3D140000 		.4byte	0x143d
 4941 14f3 0A000000 		.4byte	.LBB175
 4942 14f7 0A000000 		.4byte	.LBE175-.LBB175
 4943 14fb 01       		.byte	0x1
 4944 14fc C301     		.2byte	0x1c3
 4945 14fe 0C150000 		.4byte	0x150c
 4946 1502 27       		.uleb128 0x27
 4947 1503 4E140000 		.4byte	0x144e
 4948 1507 70030000 		.4byte	.LLST26
 4949 150b 00       		.byte	0
 4950 150c 2F       		.uleb128 0x2f
 4951 150d 5B140000 		.4byte	0x145b
 4952 1511 28000000 		.4byte	.LBB177
 4953 1515 00000000 		.4byte	.Ldebug_ranges0+0
 4954 1519 01       		.byte	0x1
 4955 151a CB01     		.2byte	0x1cb
 4956 151c 33150000 		.4byte	0x1533
 4957 1520 27       		.uleb128 0x27
ARM GAS  C:\Users\pearlstl\AppData\Local\Temp\ccAUXqAU.s 			page 172


 4958 1521 74140000 		.4byte	0x1474
 4959 1525 83030000 		.4byte	.LLST27
 4960 1529 27       		.uleb128 0x27
 4961 152a 68140000 		.4byte	0x1468
 4962 152e 96030000 		.4byte	.LLST28
 4963 1532 00       		.byte	0
 4964 1533 30       		.uleb128 0x30
 4965 1534 B20E0000 		.4byte	0xeb2
 4966 1538 36000000 		.4byte	.LBB180
 4967 153c 18000000 		.4byte	.Ldebug_ranges0+0x18
 4968 1540 01       		.byte	0x1
 4969 1541 CD01     		.2byte	0x1cd
 4970 1543 27       		.uleb128 0x27
 4971 1544 CB0E0000 		.4byte	0xecb
 4972 1548 A9030000 		.4byte	.LLST29
 4973 154c 27       		.uleb128 0x27
 4974 154d BF0E0000 		.4byte	0xebf
 4975 1551 BD030000 		.4byte	.LLST30
 4976 1555 00       		.byte	0
 4977 1556 00       		.byte	0
 4978 1557 00       		.byte	0
 4979 1558 2C       		.uleb128 0x2c
 4980 1559 470A0000 		.4byte	.LASF309
 4981 155d 01       		.byte	0x1
 4982 155e E201     		.2byte	0x1e2
 4983 1560 00000000 		.4byte	.LFB161
 4984 1564 14000000 		.4byte	.LFE161-.LFB161
 4985 1568 01       		.uleb128 0x1
 4986 1569 9C       		.byte	0x9c
 4987 156a D5150000 		.4byte	0x15d5
 4988 156e 2D       		.uleb128 0x2d
 4989 156f 60000000 		.4byte	.LASF193
 4990 1573 01       		.byte	0x1
 4991 1574 E201     		.2byte	0x1e2
 4992 1576 D80E0000 		.4byte	0xed8
 4993 157a 01       		.uleb128 0x1
 4994 157b 50       		.byte	0x50
 4995 157c 2D       		.uleb128 0x2d
 4996 157d 050B0000 		.4byte	.LASF194
 4997 1581 01       		.byte	0x1
 4998 1582 E201     		.2byte	0x1e2
 4999 1584 24100000 		.4byte	0x1024
 5000 1588 01       		.uleb128 0x1
 5001 1589 51       		.byte	0x51
 5002 158a 2F       		.uleb128 0x2f
 5003 158b B20E0000 		.4byte	0xeb2
 5004 158f 00000000 		.4byte	.LBB185
 5005 1593 30000000 		.4byte	.Ldebug_ranges0+0x30
 5006 1597 01       		.byte	0x1
 5007 1598 E401     		.2byte	0x1e4
 5008 159a B1150000 		.4byte	0x15b1
 5009 159e 27       		.uleb128 0x27
 5010 159f CB0E0000 		.4byte	0xecb
 5011 15a3 D0030000 		.4byte	.LLST31
 5012 15a7 27       		.uleb128 0x27
 5013 15a8 BF0E0000 		.4byte	0xebf
 5014 15ac E4030000 		.4byte	.LLST32
ARM GAS  C:\Users\pearlstl\AppData\Local\Temp\ccAUXqAU.s 			page 173


 5015 15b0 00       		.byte	0
 5016 15b1 30       		.uleb128 0x30
 5017 15b2 FE0F0000 		.4byte	0xffe
 5018 15b6 06000000 		.4byte	.LBB189
 5019 15ba 48000000 		.4byte	.Ldebug_ranges0+0x48
 5020 15be 01       		.byte	0x1
 5021 15bf E501     		.2byte	0x1e5
 5022 15c1 27       		.uleb128 0x27
 5023 15c2 17100000 		.4byte	0x1017
 5024 15c6 F7030000 		.4byte	.LLST33
 5025 15ca 27       		.uleb128 0x27
 5026 15cb 0B100000 		.4byte	0x100b
 5027 15cf 0A040000 		.4byte	.LLST34
 5028 15d3 00       		.byte	0
 5029 15d4 00       		.byte	0
 5030 15d5 23       		.uleb128 0x23
 5031 15d6 EC0D0000 		.4byte	.LASF310
 5032 15da 01       		.byte	0x1
 5033 15db 0302     		.2byte	0x203
 5034 15dd B8000000 		.4byte	0xb8
 5035 15e1 00000000 		.4byte	.LFB162
 5036 15e5 18000000 		.4byte	.LFE162-.LFB162
 5037 15e9 01       		.uleb128 0x1
 5038 15ea 9C       		.byte	0x9c
 5039 15eb 2E160000 		.4byte	0x162e
 5040 15ef 24       		.uleb128 0x24
 5041 15f0 60000000 		.4byte	.LASF193
 5042 15f4 01       		.byte	0x1
 5043 15f5 0302     		.2byte	0x203
 5044 15f7 350E0000 		.4byte	0xe35
 5045 15fb 1D040000 		.4byte	.LLST35
 5046 15ff 2D       		.uleb128 0x2d
 5047 1600 050B0000 		.4byte	.LASF194
 5048 1604 01       		.byte	0x1
 5049 1605 0302     		.2byte	0x203
 5050 1607 6E100000 		.4byte	0x106e
 5051 160b 01       		.uleb128 0x1
 5052 160c 51       		.byte	0x51
 5053 160d 25       		.uleb128 0x25
 5054 160e 630C0000 		.4byte	.LASF269
 5055 1612 01       		.byte	0x1
 5056 1613 0502     		.2byte	0x205
 5057 1615 B8000000 		.4byte	0xb8
 5058 1619 3E040000 		.4byte	.LLST36
 5059 161d 25       		.uleb128 0x25
 5060 161e 280B0000 		.4byte	.LASF311
 5061 1622 01       		.byte	0x1
 5062 1623 0602     		.2byte	0x206
 5063 1625 B8000000 		.4byte	0xb8
 5064 1629 5C040000 		.4byte	.LLST37
 5065 162d 00       		.byte	0
 5066 162e 31       		.uleb128 0x31
 5067 162f FE0F0000 		.4byte	0xffe
 5068 1633 00000000 		.4byte	.LFB163
 5069 1637 06000000 		.4byte	.LFE163-.LFB163
 5070 163b 01       		.uleb128 0x1
 5071 163c 9C       		.byte	0x9c
ARM GAS  C:\Users\pearlstl\AppData\Local\Temp\ccAUXqAU.s 			page 174


 5072 163d 50160000 		.4byte	0x1650
 5073 1641 32       		.uleb128 0x32
 5074 1642 0B100000 		.4byte	0x100b
 5075 1646 01       		.uleb128 0x1
 5076 1647 50       		.byte	0x50
 5077 1648 32       		.uleb128 0x32
 5078 1649 17100000 		.4byte	0x1017
 5079 164d 01       		.uleb128 0x1
 5080 164e 51       		.byte	0x51
 5081 164f 00       		.byte	0
 5082 1650 23       		.uleb128 0x23
 5083 1651 7C000000 		.4byte	.LASF312
 5084 1655 01       		.byte	0x1
 5085 1656 5D02     		.2byte	0x25d
 5086 1658 030B0000 		.4byte	0xb03
 5087 165c 00000000 		.4byte	.LFB164
 5088 1660 F8000000 		.4byte	.LFE164-.LFB164
 5089 1664 01       		.uleb128 0x1
 5090 1665 9C       		.byte	0x9c
 5091 1666 91180000 		.4byte	0x1891
 5092 166a 24       		.uleb128 0x24
 5093 166b 60000000 		.4byte	.LASF193
 5094 166f 01       		.byte	0x1
 5095 1670 5D02     		.2byte	0x25d
 5096 1672 D80E0000 		.4byte	0xed8
 5097 1676 7A040000 		.4byte	.LLST38
 5098 167a 24       		.uleb128 0x24
 5099 167b 5C0C0000 		.4byte	.LASF268
 5100 167f 01       		.byte	0x1
 5101 1680 5D02     		.2byte	0x25d
 5102 1682 C00A0000 		.4byte	0xac0
 5103 1686 BC040000 		.4byte	.LLST39
 5104 168a 24       		.uleb128 0x24
 5105 168b 630C0000 		.4byte	.LASF269
 5106 168f 01       		.byte	0x1
 5107 1690 5D02     		.2byte	0x25d
 5108 1692 B8000000 		.4byte	0xb8
 5109 1696 1A050000 		.4byte	.LLST40
 5110 169a 24       		.uleb128 0x24
 5111 169b 050B0000 		.4byte	.LASF194
 5112 169f 01       		.byte	0x1
 5113 16a0 5D02     		.2byte	0x25d
 5114 16a2 24100000 		.4byte	0x1024
 5115 16a6 38050000 		.4byte	.LLST41
 5116 16aa 25       		.uleb128 0x25
 5117 16ab 520E0000 		.4byte	.LASF300
 5118 16af 01       		.byte	0x1
 5119 16b0 6302     		.2byte	0x263
 5120 16b2 030B0000 		.4byte	0xb03
 5121 16b6 64050000 		.4byte	.LLST42
 5122 16ba 2E       		.uleb128 0x2e
 5123 16bb 14000000 		.4byte	.LBB212
 5124 16bf D0000000 		.4byte	.LBE212-.LBB212
 5125 16c3 25       		.uleb128 0x25
 5126 16c4 D4140000 		.4byte	.LASF313
 5127 16c8 01       		.byte	0x1
 5128 16c9 6802     		.2byte	0x268
ARM GAS  C:\Users\pearlstl\AppData\Local\Temp\ccAUXqAU.s 			page 175


 5129 16cb 91180000 		.4byte	0x1891
 5130 16cf 87050000 		.4byte	.LLST43
 5131 16d3 25       		.uleb128 0x25
 5132 16d4 AA020000 		.4byte	.LASF314
 5133 16d8 01       		.byte	0x1
 5134 16d9 6902     		.2byte	0x269
 5135 16db B8000000 		.4byte	0xb8
 5136 16df C0050000 		.4byte	.LLST44
 5137 16e3 26       		.uleb128 0x26
 5138 16e4 B20E0000 		.4byte	0xeb2
 5139 16e8 14000000 		.4byte	.LBB213
 5140 16ec 04000000 		.4byte	.LBE213-.LBB213
 5141 16f0 01       		.byte	0x1
 5142 16f1 6C02     		.2byte	0x26c
 5143 16f3 0A170000 		.4byte	0x170a
 5144 16f7 27       		.uleb128 0x27
 5145 16f8 CB0E0000 		.4byte	0xecb
 5146 16fc F7050000 		.4byte	.LLST45
 5147 1700 27       		.uleb128 0x27
 5148 1701 BF0E0000 		.4byte	0xebf
 5149 1705 0B060000 		.4byte	.LLST46
 5150 1709 00       		.byte	0
 5151 170a 33       		.uleb128 0x33
 5152 170b 2A000000 		.4byte	.LBB215
 5153 170f 78000000 		.4byte	.LBE215-.LBB215
 5154 1713 F7170000 		.4byte	0x17f7
 5155 1717 34       		.uleb128 0x34
 5156 1718 69647800 		.ascii	"idx\000"
 5157 171c 01       		.byte	0x1
 5158 171d 7502     		.2byte	0x275
 5159 171f B8000000 		.4byte	0xb8
 5160 1723 1E060000 		.4byte	.LLST47
 5161 1727 25       		.uleb128 0x25
 5162 1728 4A080000 		.4byte	.LASF315
 5163 172c 01       		.byte	0x1
 5164 172d 7602     		.2byte	0x276
 5165 172f B8000000 		.4byte	0xb8
 5166 1733 60060000 		.4byte	.LLST48
 5167 1737 35       		.uleb128 0x35
 5168 1738 7B0E0000 		.4byte	.LASF325
 5169 173c 01       		.byte	0x1
 5170 173d 7702     		.2byte	0x277
 5171 173f 410D0000 		.4byte	0xd41
 5172 1743 2F       		.uleb128 0x2f
 5173 1744 DE0E0000 		.4byte	0xede
 5174 1748 2A000000 		.4byte	.LBB216
 5175 174c 60000000 		.4byte	.Ldebug_ranges0+0x60
 5176 1750 01       		.byte	0x1
 5177 1751 7702     		.2byte	0x277
 5178 1753 61170000 		.4byte	0x1761
 5179 1757 27       		.uleb128 0x27
 5180 1758 EF0E0000 		.4byte	0xeef
 5181 175c 7E060000 		.4byte	.LLST49
 5182 1760 00       		.byte	0
 5183 1761 33       		.uleb128 0x33
 5184 1762 5A000000 		.4byte	.LBB220
 5185 1766 04000000 		.4byte	.LBE220-.LBB220
ARM GAS  C:\Users\pearlstl\AppData\Local\Temp\ccAUXqAU.s 			page 176


 5186 176a 7F170000 		.4byte	0x177f
 5187 176e 34       		.uleb128 0x34
 5188 176f 62756600 		.ascii	"buf\000"
 5189 1773 01       		.byte	0x1
 5190 1774 8B02     		.2byte	0x28b
 5191 1776 91180000 		.4byte	0x1891
 5192 177a 91060000 		.4byte	.LLST50
 5193 177e 00       		.byte	0
 5194 177f 33       		.uleb128 0x33
 5195 1780 60000000 		.4byte	.LBB221
 5196 1784 0C000000 		.4byte	.LBE221-.LBB221
 5197 1788 9D170000 		.4byte	0x179d
 5198 178c 34       		.uleb128 0x34
 5199 178d 62756600 		.ascii	"buf\000"
 5200 1791 01       		.byte	0x1
 5201 1792 9002     		.2byte	0x290
 5202 1794 97180000 		.4byte	0x1897
 5203 1798 A4060000 		.4byte	.LLST51
 5204 179c 00       		.byte	0
 5205 179d 26       		.uleb128 0x26
 5206 179e B20E0000 		.4byte	0xeb2
 5207 17a2 78000000 		.4byte	.LBB222
 5208 17a6 08000000 		.4byte	.LBE222-.LBB222
 5209 17aa 01       		.byte	0x1
 5210 17ab A002     		.2byte	0x2a0
 5211 17ad C4170000 		.4byte	0x17c4
 5212 17b1 27       		.uleb128 0x27
 5213 17b2 CB0E0000 		.4byte	0xecb
 5214 17b6 B7060000 		.4byte	.LLST52
 5215 17ba 27       		.uleb128 0x27
 5216 17bb BF0E0000 		.4byte	0xebf
 5217 17bf CD060000 		.4byte	.LLST53
 5218 17c3 00       		.byte	0
 5219 17c4 26       		.uleb128 0x26
 5220 17c5 B20E0000 		.4byte	0xeb2
 5221 17c9 90000000 		.4byte	.LBB224
 5222 17cd 04000000 		.4byte	.LBE224-.LBB224
 5223 17d1 01       		.byte	0x1
 5224 17d2 AE02     		.2byte	0x2ae
 5225 17d4 EB170000 		.4byte	0x17eb
 5226 17d8 27       		.uleb128 0x27
 5227 17d9 CB0E0000 		.4byte	0xecb
 5228 17dd E0060000 		.4byte	.LLST54
 5229 17e1 27       		.uleb128 0x27
 5230 17e2 BF0E0000 		.4byte	0xebf
 5231 17e6 F4060000 		.4byte	.LLST55
 5232 17ea 00       		.byte	0
 5233 17eb 36       		.uleb128 0x36
 5234 17ec 90000000 		.4byte	.LVL72
 5235 17f0 2B       		.uleb128 0x2b
 5236 17f1 01       		.uleb128 0x1
 5237 17f2 50       		.byte	0x50
 5238 17f3 01       		.uleb128 0x1
 5239 17f4 34       		.byte	0x34
 5240 17f5 00       		.byte	0
 5241 17f6 00       		.byte	0
 5242 17f7 37       		.uleb128 0x37
ARM GAS  C:\Users\pearlstl\AppData\Local\Temp\ccAUXqAU.s 			page 177


 5243 17f8 78000000 		.4byte	.Ldebug_ranges0+0x78
 5244 17fc 79180000 		.4byte	0x1879
 5245 1800 25       		.uleb128 0x25
 5246 1801 7A080000 		.4byte	.LASF308
 5247 1805 01       		.byte	0x1
 5248 1806 BA02     		.2byte	0x2ba
 5249 1808 B8000000 		.4byte	0xb8
 5250 180c 07070000 		.4byte	.LLST56
 5251 1810 26       		.uleb128 0x26
 5252 1811 3D140000 		.4byte	0x143d
 5253 1815 AA000000 		.4byte	.LBB227
 5254 1819 0A000000 		.4byte	.LBE227-.LBB227
 5255 181d 01       		.byte	0x1
 5256 181e BA02     		.2byte	0x2ba
 5257 1820 2E180000 		.4byte	0x182e
 5258 1824 27       		.uleb128 0x27
 5259 1825 4E140000 		.4byte	0x144e
 5260 1829 1A070000 		.4byte	.LLST57
 5261 182d 00       		.byte	0
 5262 182e 26       		.uleb128 0x26
 5263 182f 5B140000 		.4byte	0x145b
 5264 1833 CA000000 		.4byte	.LBB229
 5265 1837 10000000 		.4byte	.LBE229-.LBB229
 5266 183b 01       		.byte	0x1
 5267 183c C402     		.2byte	0x2c4
 5268 183e 55180000 		.4byte	0x1855
 5269 1842 27       		.uleb128 0x27
 5270 1843 74140000 		.4byte	0x1474
 5271 1847 2D070000 		.4byte	.LLST58
 5272 184b 27       		.uleb128 0x27
 5273 184c 68140000 		.4byte	0x1468
 5274 1850 40070000 		.4byte	.LLST59
 5275 1854 00       		.byte	0
 5276 1855 30       		.uleb128 0x30
 5277 1856 B20E0000 		.4byte	0xeb2
 5278 185a DA000000 		.4byte	.LBB231
 5279 185e 90000000 		.4byte	.Ldebug_ranges0+0x90
 5280 1862 01       		.byte	0x1
 5281 1863 C702     		.2byte	0x2c7
 5282 1865 27       		.uleb128 0x27
 5283 1866 CB0E0000 		.4byte	0xecb
 5284 186a 53070000 		.4byte	.LLST60
 5285 186e 27       		.uleb128 0x27
 5286 186f BF0E0000 		.4byte	0xebf
 5287 1873 69070000 		.4byte	.LLST61
 5288 1877 00       		.byte	0
 5289 1878 00       		.byte	0
 5290 1879 2A       		.uleb128 0x2a
 5291 187a 26000000 		.4byte	.LVL57
 5292 187e D5150000 		.4byte	0x15d5
 5293 1882 2B       		.uleb128 0x2b
 5294 1883 01       		.uleb128 0x1
 5295 1884 50       		.byte	0x50
 5296 1885 02       		.uleb128 0x2
 5297 1886 75       		.byte	0x75
 5298 1887 00       		.sleb128 0
 5299 1888 2B       		.uleb128 0x2b
ARM GAS  C:\Users\pearlstl\AppData\Local\Temp\ccAUXqAU.s 			page 178


 5300 1889 01       		.uleb128 0x1
 5301 188a 51       		.byte	0x51
 5302 188b 02       		.uleb128 0x2
 5303 188c 74       		.byte	0x74
 5304 188d 00       		.sleb128 0
 5305 188e 00       		.byte	0
 5306 188f 00       		.byte	0
 5307 1890 00       		.byte	0
 5308 1891 15       		.uleb128 0x15
 5309 1892 04       		.byte	0x4
 5310 1893 97000000 		.4byte	0x97
 5311 1897 15       		.uleb128 0x15
 5312 1898 04       		.byte	0x4
 5313 1899 AD000000 		.4byte	0xad
 5314 189d 2C       		.uleb128 0x2c
 5315 189e E0150000 		.4byte	.LASF316
 5316 18a2 01       		.byte	0x1
 5317 18a3 ED02     		.2byte	0x2ed
 5318 18a5 00000000 		.4byte	.LFB165
 5319 18a9 18000000 		.4byte	.LFE165-.LFB165
 5320 18ad 01       		.uleb128 0x1
 5321 18ae 9C       		.byte	0x9c
 5322 18af F3180000 		.4byte	0x18f3
 5323 18b3 2D       		.uleb128 0x2d
 5324 18b4 60000000 		.4byte	.LASF193
 5325 18b8 01       		.byte	0x1
 5326 18b9 ED02     		.2byte	0x2ed
 5327 18bb D80E0000 		.4byte	0xed8
 5328 18bf 01       		.uleb128 0x1
 5329 18c0 50       		.byte	0x50
 5330 18c1 2D       		.uleb128 0x2d
 5331 18c2 050B0000 		.4byte	.LASF194
 5332 18c6 01       		.byte	0x1
 5333 18c7 ED02     		.2byte	0x2ed
 5334 18c9 24100000 		.4byte	0x1024
 5335 18cd 01       		.uleb128 0x1
 5336 18ce 51       		.byte	0x51
 5337 18cf 28       		.uleb128 0x28
 5338 18d0 B20E0000 		.4byte	0xeb2
 5339 18d4 06000000 		.4byte	.LBB236
 5340 18d8 04000000 		.4byte	.LBE236-.LBB236
 5341 18dc 01       		.byte	0x1
 5342 18dd F102     		.2byte	0x2f1
 5343 18df 27       		.uleb128 0x27
 5344 18e0 CB0E0000 		.4byte	0xecb
 5345 18e4 7C070000 		.4byte	.LLST62
 5346 18e8 27       		.uleb128 0x27
 5347 18e9 BF0E0000 		.4byte	0xebf
 5348 18ed 90070000 		.4byte	.LLST63
 5349 18f1 00       		.byte	0
 5350 18f2 00       		.byte	0
 5351 18f3 23       		.uleb128 0x23
 5352 18f4 EB040000 		.4byte	.LASF317
 5353 18f8 01       		.byte	0x1
 5354 18f9 0F03     		.2byte	0x30f
 5355 18fb B8000000 		.4byte	0xb8
 5356 18ff 00000000 		.4byte	.LFB166
ARM GAS  C:\Users\pearlstl\AppData\Local\Temp\ccAUXqAU.s 			page 179


 5357 1903 04000000 		.4byte	.LFE166-.LFB166
 5358 1907 01       		.uleb128 0x1
 5359 1908 9C       		.byte	0x9c
 5360 1909 2C190000 		.4byte	0x192c
 5361 190d 24       		.uleb128 0x24
 5362 190e 60000000 		.4byte	.LASF193
 5363 1912 01       		.byte	0x1
 5364 1913 0F03     		.2byte	0x30f
 5365 1915 350E0000 		.4byte	0xe35
 5366 1919 A3070000 		.4byte	.LLST64
 5367 191d 2D       		.uleb128 0x2d
 5368 191e 050B0000 		.4byte	.LASF194
 5369 1922 01       		.byte	0x1
 5370 1923 0F03     		.2byte	0x30f
 5371 1925 6E100000 		.4byte	0x106e
 5372 1929 01       		.uleb128 0x1
 5373 192a 51       		.byte	0x51
 5374 192b 00       		.byte	0
 5375 192c 31       		.uleb128 0x31
 5376 192d 79100000 		.4byte	0x1079
 5377 1931 00000000 		.4byte	.LFB167
 5378 1935 04000000 		.4byte	.LFE167-.LFB167
 5379 1939 01       		.uleb128 0x1
 5380 193a 9C       		.byte	0x9c
 5381 193b 50190000 		.4byte	0x1950
 5382 193f 27       		.uleb128 0x27
 5383 1940 8A100000 		.4byte	0x108a
 5384 1944 C4070000 		.4byte	.LLST65
 5385 1948 32       		.uleb128 0x32
 5386 1949 96100000 		.4byte	0x1096
 5387 194d 01       		.uleb128 0x1
 5388 194e 51       		.byte	0x51
 5389 194f 00       		.byte	0
 5390 1950 1B       		.uleb128 0x1b
 5391 1951 8F090000 		.4byte	.LASF318
 5392 1955 02       		.byte	0x2
 5393 1956 E602     		.2byte	0x2e6
 5394 1958 03       		.byte	0x3
 5395 1959 76190000 		.4byte	0x1976
 5396 195d 1A       		.uleb128 0x1a
 5397 195e 60000000 		.4byte	.LASF193
 5398 1962 02       		.byte	0x2
 5399 1963 E602     		.2byte	0x2e6
 5400 1965 D80E0000 		.4byte	0xed8
 5401 1969 1A       		.uleb128 0x1a
 5402 196a 5D020000 		.4byte	.LASF306
 5403 196e 02       		.byte	0x2
 5404 196f E602     		.2byte	0x2e6
 5405 1971 B8000000 		.4byte	0xb8
 5406 1975 00       		.byte	0
 5407 1976 23       		.uleb128 0x23
 5408 1977 110D0000 		.4byte	.LASF319
 5409 197b 01       		.byte	0x1
 5410 197c 5F03     		.2byte	0x35f
 5411 197e 030B0000 		.4byte	0xb03
 5412 1982 00000000 		.4byte	.LFB168
 5413 1986 54000000 		.4byte	.LFE168-.LFB168
ARM GAS  C:\Users\pearlstl\AppData\Local\Temp\ccAUXqAU.s 			page 180


 5414 198a 01       		.uleb128 0x1
 5415 198b 9C       		.byte	0x9c
 5416 198c 701A0000 		.4byte	0x1a70
 5417 1990 24       		.uleb128 0x24
 5418 1991 60000000 		.4byte	.LASF193
 5419 1995 01       		.byte	0x1
 5420 1996 5F03     		.2byte	0x35f
 5421 1998 D80E0000 		.4byte	0xed8
 5422 199c E5070000 		.4byte	.LLST66
 5423 19a0 24       		.uleb128 0x24
 5424 19a1 5C0C0000 		.4byte	.LASF268
 5425 19a5 01       		.byte	0x1
 5426 19a6 5F03     		.2byte	0x35f
 5427 19a8 C00A0000 		.4byte	0xac0
 5428 19ac 1F080000 		.4byte	.LLST67
 5429 19b0 24       		.uleb128 0x24
 5430 19b1 630C0000 		.4byte	.LASF269
 5431 19b5 01       		.byte	0x1
 5432 19b6 5F03     		.2byte	0x35f
 5433 19b8 B8000000 		.4byte	0xb8
 5434 19bc 5A080000 		.4byte	.LLST68
 5435 19c0 24       		.uleb128 0x24
 5436 19c1 050B0000 		.4byte	.LASF194
 5437 19c5 01       		.byte	0x1
 5438 19c6 5F03     		.2byte	0x35f
 5439 19c8 24100000 		.4byte	0x1024
 5440 19cc A3080000 		.4byte	.LLST69
 5441 19d0 25       		.uleb128 0x25
 5442 19d1 520E0000 		.4byte	.LASF300
 5443 19d5 01       		.byte	0x1
 5444 19d6 6503     		.2byte	0x365
 5445 19d8 030B0000 		.4byte	0xb03
 5446 19dc DD080000 		.4byte	.LLST70
 5447 19e0 26       		.uleb128 0x26
 5448 19e1 3D140000 		.4byte	0x143d
 5449 19e5 10000000 		.4byte	.LBB246
 5450 19e9 0A000000 		.4byte	.LBE246-.LBB246
 5451 19ed 01       		.byte	0x1
 5452 19ee 7103     		.2byte	0x371
 5453 19f0 FE190000 		.4byte	0x19fe
 5454 19f4 27       		.uleb128 0x27
 5455 19f5 4E140000 		.4byte	0x144e
 5456 19f9 00090000 		.4byte	.LLST71
 5457 19fd 00       		.byte	0
 5458 19fe 26       		.uleb128 0x26
 5459 19ff 50190000 		.4byte	0x1950
 5460 1a03 1A000000 		.4byte	.LBB248
 5461 1a07 10000000 		.4byte	.LBE248-.LBB248
 5462 1a0b 01       		.byte	0x1
 5463 1a0c 7103     		.2byte	0x371
 5464 1a0e 251A0000 		.4byte	0x1a25
 5465 1a12 27       		.uleb128 0x27
 5466 1a13 69190000 		.4byte	0x1969
 5467 1a17 13090000 		.4byte	.LLST72
 5468 1a1b 27       		.uleb128 0x27
 5469 1a1c 5D190000 		.4byte	0x195d
 5470 1a20 35090000 		.4byte	.LLST73
ARM GAS  C:\Users\pearlstl\AppData\Local\Temp\ccAUXqAU.s 			page 181


 5471 1a24 00       		.byte	0
 5472 1a25 26       		.uleb128 0x26
 5473 1a26 500F0000 		.4byte	0xf50
 5474 1a2a 36000000 		.4byte	.LBB250
 5475 1a2e 04000000 		.4byte	.LBE250-.LBB250
 5476 1a32 01       		.byte	0x1
 5477 1a33 7703     		.2byte	0x377
 5478 1a35 4C1A0000 		.4byte	0x1a4c
 5479 1a39 27       		.uleb128 0x27
 5480 1a3a 690F0000 		.4byte	0xf69
 5481 1a3e 48090000 		.4byte	.LLST74
 5482 1a42 27       		.uleb128 0x27
 5483 1a43 5D0F0000 		.4byte	0xf5d
 5484 1a47 5E090000 		.4byte	.LLST75
 5485 1a4b 00       		.byte	0
 5486 1a4c 28       		.uleb128 0x28
 5487 1a4d 500F0000 		.4byte	0xf50
 5488 1a51 3A000000 		.4byte	.LBB252
 5489 1a55 04000000 		.4byte	.LBE252-.LBB252
 5490 1a59 01       		.byte	0x1
 5491 1a5a 7C03     		.2byte	0x37c
 5492 1a5c 27       		.uleb128 0x27
 5493 1a5d 690F0000 		.4byte	0xf69
 5494 1a61 71090000 		.4byte	.LLST76
 5495 1a65 27       		.uleb128 0x27
 5496 1a66 5D0F0000 		.4byte	0xf5d
 5497 1a6a 85090000 		.4byte	.LLST77
 5498 1a6e 00       		.byte	0
 5499 1a6f 00       		.byte	0
 5500 1a70 1B       		.uleb128 0x1b
 5501 1a71 50030000 		.4byte	.LASF320
 5502 1a75 02       		.byte	0x2
 5503 1a76 3603     		.2byte	0x336
 5504 1a78 03       		.byte	0x3
 5505 1a79 8A1A0000 		.4byte	0x1a8a
 5506 1a7d 1A       		.uleb128 0x1a
 5507 1a7e 60000000 		.4byte	.LASF193
 5508 1a82 02       		.byte	0x2
 5509 1a83 3603     		.2byte	0x336
 5510 1a85 D80E0000 		.4byte	0xed8
 5511 1a89 00       		.byte	0
 5512 1a8a 2C       		.uleb128 0x2c
 5513 1a8b 11060000 		.4byte	.LASF321
 5514 1a8f 01       		.byte	0x1
 5515 1a90 9E03     		.2byte	0x39e
 5516 1a92 00000000 		.4byte	.LFB169
 5517 1a96 30000000 		.4byte	.LFE169-.LFB169
 5518 1a9a 01       		.uleb128 0x1
 5519 1a9b 9C       		.byte	0x9c
 5520 1a9c 181B0000 		.4byte	0x1b18
 5521 1aa0 2D       		.uleb128 0x2d
 5522 1aa1 60000000 		.4byte	.LASF193
 5523 1aa5 01       		.byte	0x1
 5524 1aa6 9E03     		.2byte	0x39e
 5525 1aa8 D80E0000 		.4byte	0xed8
 5526 1aac 01       		.uleb128 0x1
 5527 1aad 50       		.byte	0x50
ARM GAS  C:\Users\pearlstl\AppData\Local\Temp\ccAUXqAU.s 			page 182


 5528 1aae 2D       		.uleb128 0x2d
 5529 1aaf 050B0000 		.4byte	.LASF194
 5530 1ab3 01       		.byte	0x1
 5531 1ab4 9E03     		.2byte	0x39e
 5532 1ab6 24100000 		.4byte	0x1024
 5533 1aba 01       		.uleb128 0x1
 5534 1abb 51       		.byte	0x51
 5535 1abc 2F       		.uleb128 0x2f
 5536 1abd 500F0000 		.4byte	0xf50
 5537 1ac1 00000000 		.4byte	.LBB260
 5538 1ac5 A8000000 		.4byte	.Ldebug_ranges0+0xa8
 5539 1ac9 01       		.byte	0x1
 5540 1aca A003     		.2byte	0x3a0
 5541 1acc E31A0000 		.4byte	0x1ae3
 5542 1ad0 27       		.uleb128 0x27
 5543 1ad1 690F0000 		.4byte	0xf69
 5544 1ad5 98090000 		.4byte	.LLST78
 5545 1ad9 27       		.uleb128 0x27
 5546 1ada 5D0F0000 		.4byte	0xf5d
 5547 1ade AC090000 		.4byte	.LLST79
 5548 1ae2 00       		.byte	0
 5549 1ae3 30       		.uleb128 0x30
 5550 1ae4 2A100000 		.4byte	0x102a
 5551 1ae8 08000000 		.4byte	.LBB264
 5552 1aec C0000000 		.4byte	.Ldebug_ranges0+0xc0
 5553 1af0 01       		.byte	0x1
 5554 1af1 A203     		.2byte	0x3a2
 5555 1af3 27       		.uleb128 0x27
 5556 1af4 37100000 		.4byte	0x1037
 5557 1af8 BF090000 		.4byte	.LLST80
 5558 1afc 30       		.uleb128 0x30
 5559 1afd 701A0000 		.4byte	0x1a70
 5560 1b01 08000000 		.4byte	.LBB265
 5561 1b05 C0000000 		.4byte	.Ldebug_ranges0+0xc0
 5562 1b09 03       		.byte	0x3
 5563 1b0a 1706     		.2byte	0x617
 5564 1b0c 27       		.uleb128 0x27
 5565 1b0d 7D1A0000 		.4byte	0x1a7d
 5566 1b11 BF090000 		.4byte	.LLST80
 5567 1b15 00       		.byte	0
 5568 1b16 00       		.byte	0
 5569 1b17 00       		.byte	0
 5570 1b18 23       		.uleb128 0x23
 5571 1b19 B6110000 		.4byte	.LASF322
 5572 1b1d 01       		.byte	0x1
 5573 1b1e BF03     		.2byte	0x3bf
 5574 1b20 B8000000 		.4byte	0xb8
 5575 1b24 00000000 		.4byte	.LFB170
 5576 1b28 04000000 		.4byte	.LFE170-.LFB170
 5577 1b2c 01       		.uleb128 0x1
 5578 1b2d 9C       		.byte	0x9c
 5579 1b2e 511B0000 		.4byte	0x1b51
 5580 1b32 24       		.uleb128 0x24
 5581 1b33 60000000 		.4byte	.LASF193
 5582 1b37 01       		.byte	0x1
 5583 1b38 BF03     		.2byte	0x3bf
 5584 1b3a 350E0000 		.4byte	0xe35
ARM GAS  C:\Users\pearlstl\AppData\Local\Temp\ccAUXqAU.s 			page 183


 5585 1b3e D2090000 		.4byte	.LLST82
 5586 1b42 2D       		.uleb128 0x2d
 5587 1b43 050B0000 		.4byte	.LASF194
 5588 1b47 01       		.byte	0x1
 5589 1b48 BF03     		.2byte	0x3bf
 5590 1b4a 6E100000 		.4byte	0x106e
 5591 1b4e 01       		.uleb128 0x1
 5592 1b4f 51       		.byte	0x51
 5593 1b50 00       		.byte	0
 5594 1b51 31       		.uleb128 0x31
 5595 1b52 44100000 		.4byte	0x1044
 5596 1b56 00000000 		.4byte	.LFB171
 5597 1b5a 04000000 		.4byte	.LFE171-.LFB171
 5598 1b5e 01       		.uleb128 0x1
 5599 1b5f 9C       		.byte	0x9c
 5600 1b60 751B0000 		.4byte	0x1b75
 5601 1b64 27       		.uleb128 0x27
 5602 1b65 55100000 		.4byte	0x1055
 5603 1b69 F3090000 		.4byte	.LLST83
 5604 1b6d 32       		.uleb128 0x32
 5605 1b6e 61100000 		.4byte	0x1061
 5606 1b72 01       		.uleb128 0x1
 5607 1b73 51       		.byte	0x51
 5608 1b74 00       		.byte	0
 5609 1b75 2C       		.uleb128 0x2c
 5610 1b76 E2020000 		.4byte	.LASF323
 5611 1b7a 01       		.byte	0x1
 5612 1b7b 0004     		.2byte	0x400
 5613 1b7d 00000000 		.4byte	.LFB172
 5614 1b81 58000000 		.4byte	.LFE172-.LFB172
 5615 1b85 01       		.uleb128 0x1
 5616 1b86 9C       		.byte	0x9c
 5617 1b87 BC1C0000 		.4byte	0x1cbc
 5618 1b8b 2D       		.uleb128 0x2d
 5619 1b8c 60000000 		.4byte	.LASF193
 5620 1b90 01       		.byte	0x1
 5621 1b91 0004     		.2byte	0x400
 5622 1b93 D80E0000 		.4byte	0xed8
 5623 1b97 01       		.uleb128 0x1
 5624 1b98 50       		.byte	0x50
 5625 1b99 24       		.uleb128 0x24
 5626 1b9a F0080000 		.4byte	.LASF241
 5627 1b9e 01       		.byte	0x1
 5628 1b9f 0004     		.2byte	0x400
 5629 1ba1 B8000000 		.4byte	0xb8
 5630 1ba5 140A0000 		.4byte	.LLST84
 5631 1ba9 25       		.uleb128 0x25
 5632 1baa 260D0000 		.4byte	.LASF324
 5633 1bae 01       		.byte	0x1
 5634 1baf 0204     		.2byte	0x402
 5635 1bb1 B8000000 		.4byte	0xb8
 5636 1bb5 420A0000 		.4byte	.LLST85
 5637 1bb9 35       		.uleb128 0x35
 5638 1bba 62100000 		.4byte	.LASF326
 5639 1bbe 01       		.byte	0x1
 5640 1bbf 0304     		.2byte	0x403
 5641 1bc1 B8000000 		.4byte	0xb8
ARM GAS  C:\Users\pearlstl\AppData\Local\Temp\ccAUXqAU.s 			page 184


 5642 1bc5 2F       		.uleb128 0x2f
 5643 1bc6 760F0000 		.4byte	0xf76
 5644 1bca 02000000 		.4byte	.LBB270
 5645 1bce D8000000 		.4byte	.Ldebug_ranges0+0xd8
 5646 1bd2 01       		.byte	0x1
 5647 1bd3 0804     		.2byte	0x408
 5648 1bd5 E31B0000 		.4byte	0x1be3
 5649 1bd9 27       		.uleb128 0x27
 5650 1bda 870F0000 		.4byte	0xf87
 5651 1bde 600A0000 		.4byte	.LLST86
 5652 1be2 00       		.byte	0
 5653 1be3 2F       		.uleb128 0x2f
 5654 1be4 940F0000 		.4byte	0xf94
 5655 1be8 04000000 		.4byte	.LBB274
 5656 1bec F8000000 		.4byte	.Ldebug_ranges0+0xf8
 5657 1bf0 01       		.byte	0x1
 5658 1bf1 0A04     		.2byte	0x40a
 5659 1bf3 0A1C0000 		.4byte	0x1c0a
 5660 1bf7 27       		.uleb128 0x27
 5661 1bf8 AD0F0000 		.4byte	0xfad
 5662 1bfc 730A0000 		.4byte	.LLST87
 5663 1c00 27       		.uleb128 0x27
 5664 1c01 A10F0000 		.4byte	0xfa1
 5665 1c05 890A0000 		.4byte	.LLST88
 5666 1c09 00       		.byte	0
 5667 1c0a 2F       		.uleb128 0x2f
 5668 1c0b 500F0000 		.4byte	0xf50
 5669 1c0f 08000000 		.4byte	.LBB280
 5670 1c13 20010000 		.4byte	.Ldebug_ranges0+0x120
 5671 1c17 01       		.byte	0x1
 5672 1c18 0904     		.2byte	0x409
 5673 1c1a 311C0000 		.4byte	0x1c31
 5674 1c1e 27       		.uleb128 0x27
 5675 1c1f 690F0000 		.4byte	0xf69
 5676 1c23 9C0A0000 		.4byte	.LLST89
 5677 1c27 27       		.uleb128 0x27
 5678 1c28 5D0F0000 		.4byte	0xf5d
 5679 1c2c B00A0000 		.4byte	.LLST90
 5680 1c30 00       		.byte	0
 5681 1c31 26       		.uleb128 0x26
 5682 1c32 BA0F0000 		.4byte	0xfba
 5683 1c36 2A000000 		.4byte	.LBB288
 5684 1c3a 06000000 		.4byte	.LBE288-.LBB288
 5685 1c3e 01       		.byte	0x1
 5686 1c3f 1304     		.2byte	0x413
 5687 1c41 531C0000 		.4byte	0x1c53
 5688 1c45 38       		.uleb128 0x38
 5689 1c46 D30F0000 		.4byte	0xfd3
 5690 1c4a 00       		.byte	0
 5691 1c4b 32       		.uleb128 0x32
 5692 1c4c C70F0000 		.4byte	0xfc7
 5693 1c50 01       		.uleb128 0x1
 5694 1c51 50       		.byte	0x50
 5695 1c52 00       		.byte	0
 5696 1c53 26       		.uleb128 0x26
 5697 1c54 F9100000 		.4byte	0x10f9
 5698 1c58 30000000 		.4byte	.LBB290
ARM GAS  C:\Users\pearlstl\AppData\Local\Temp\ccAUXqAU.s 			page 185


 5699 1c5c 06000000 		.4byte	.LBE290-.LBB290
 5700 1c60 01       		.byte	0x1
 5701 1c61 1604     		.2byte	0x416
 5702 1c63 711C0000 		.4byte	0x1c71
 5703 1c67 27       		.uleb128 0x27
 5704 1c68 0A110000 		.4byte	0x110a
 5705 1c6c C30A0000 		.4byte	.LLST91
 5706 1c70 00       		.byte	0
 5707 1c71 2F       		.uleb128 0x2f
 5708 1c72 940F0000 		.4byte	0xf94
 5709 1c76 3A000000 		.4byte	.LBB292
 5710 1c7a 38010000 		.4byte	.Ldebug_ranges0+0x138
 5711 1c7e 01       		.byte	0x1
 5712 1c7f 1B04     		.2byte	0x41b
 5713 1c81 981C0000 		.4byte	0x1c98
 5714 1c85 27       		.uleb128 0x27
 5715 1c86 AD0F0000 		.4byte	0xfad
 5716 1c8a D60A0000 		.4byte	.LLST92
 5717 1c8e 27       		.uleb128 0x27
 5718 1c8f A10F0000 		.4byte	0xfa1
 5719 1c93 EC0A0000 		.4byte	.LLST93
 5720 1c97 00       		.byte	0
 5721 1c98 28       		.uleb128 0x28
 5722 1c99 500F0000 		.4byte	0xf50
 5723 1c9d 48000000 		.4byte	.LBB296
 5724 1ca1 04000000 		.4byte	.LBE296-.LBB296
 5725 1ca5 01       		.byte	0x1
 5726 1ca6 1F04     		.2byte	0x41f
 5727 1ca8 27       		.uleb128 0x27
 5728 1ca9 690F0000 		.4byte	0xf69
 5729 1cad FF0A0000 		.4byte	.LLST94
 5730 1cb1 27       		.uleb128 0x27
 5731 1cb2 5D0F0000 		.4byte	0xf5d
 5732 1cb6 130B0000 		.4byte	.LLST95
 5733 1cba 00       		.byte	0
 5734 1cbb 00       		.byte	0
 5735 1cbc 1B       		.uleb128 0x1b
 5736 1cbd 97040000 		.4byte	.LASF327
 5737 1cc1 01       		.byte	0x1
 5738 1cc2 A204     		.2byte	0x4a2
 5739 1cc4 01       		.byte	0x1
 5740 1cc5 081D0000 		.4byte	0x1d08
 5741 1cc9 1A       		.uleb128 0x1a
 5742 1cca 60000000 		.4byte	.LASF193
 5743 1cce 01       		.byte	0x1
 5744 1ccf A204     		.2byte	0x4a2
 5745 1cd1 D80E0000 		.4byte	0xed8
 5746 1cd5 1A       		.uleb128 0x1a
 5747 1cd6 050B0000 		.4byte	.LASF194
 5748 1cda 01       		.byte	0x1
 5749 1cdb A204     		.2byte	0x4a2
 5750 1cdd 24100000 		.4byte	0x1024
 5751 1ce1 35       		.uleb128 0x35
 5752 1ce2 01100000 		.4byte	.LASF328
 5753 1ce6 01       		.byte	0x1
 5754 1ce7 A404     		.2byte	0x4a4
 5755 1ce9 B8000000 		.4byte	0xb8
ARM GAS  C:\Users\pearlstl\AppData\Local\Temp\ccAUXqAU.s 			page 186


 5756 1ced 35       		.uleb128 0x35
 5757 1cee 7A080000 		.4byte	.LASF308
 5758 1cf2 01       		.byte	0x1
 5759 1cf3 A504     		.2byte	0x4a5
 5760 1cf5 B8000000 		.4byte	0xb8
 5761 1cf9 39       		.uleb128 0x39
 5762 1cfa 3A       		.uleb128 0x3a
 5763 1cfb 62756600 		.ascii	"buf\000"
 5764 1cff 01       		.byte	0x1
 5765 1d00 C804     		.2byte	0x4c8
 5766 1d02 91180000 		.4byte	0x1891
 5767 1d06 00       		.byte	0
 5768 1d07 00       		.byte	0
 5769 1d08 1B       		.uleb128 0x1b
 5770 1d09 87080000 		.4byte	.LASF329
 5771 1d0d 01       		.byte	0x1
 5772 1d0e E604     		.2byte	0x4e6
 5773 1d10 01       		.byte	0x1
 5774 1d11 6C1D0000 		.4byte	0x1d6c
 5775 1d15 1A       		.uleb128 0x1a
 5776 1d16 60000000 		.4byte	.LASF193
 5777 1d1a 01       		.byte	0x1
 5778 1d1b E604     		.2byte	0x4e6
 5779 1d1d D80E0000 		.4byte	0xed8
 5780 1d21 1A       		.uleb128 0x1a
 5781 1d22 050B0000 		.4byte	.LASF194
 5782 1d26 01       		.byte	0x1
 5783 1d27 E604     		.2byte	0x4e6
 5784 1d29 24100000 		.4byte	0x1024
 5785 1d2d 35       		.uleb128 0x35
 5786 1d2e 7A080000 		.4byte	.LASF308
 5787 1d32 01       		.byte	0x1
 5788 1d33 E804     		.2byte	0x4e8
 5789 1d35 B8000000 		.4byte	0xb8
 5790 1d39 35       		.uleb128 0x35
 5791 1d3a AA020000 		.4byte	.LASF314
 5792 1d3e 01       		.byte	0x1
 5793 1d3f E904     		.2byte	0x4e9
 5794 1d41 B8000000 		.4byte	0xb8
 5795 1d45 35       		.uleb128 0x35
 5796 1d46 280B0000 		.4byte	.LASF311
 5797 1d4a 01       		.byte	0x1
 5798 1d4b EA04     		.2byte	0x4ea
 5799 1d4d B8000000 		.4byte	0xb8
 5800 1d51 35       		.uleb128 0x35
 5801 1d52 8A010000 		.4byte	.LASF330
 5802 1d56 01       		.byte	0x1
 5803 1d57 EB04     		.2byte	0x4eb
 5804 1d59 B8000000 		.4byte	0xb8
 5805 1d5d 39       		.uleb128 0x39
 5806 1d5e 35       		.uleb128 0x35
 5807 1d5f 5D020000 		.4byte	.LASF306
 5808 1d63 01       		.byte	0x1
 5809 1d64 2405     		.2byte	0x524
 5810 1d66 B8000000 		.4byte	0xb8
 5811 1d6a 00       		.byte	0
 5812 1d6b 00       		.byte	0
ARM GAS  C:\Users\pearlstl\AppData\Local\Temp\ccAUXqAU.s 			page 187


 5813 1d6c 1B       		.uleb128 0x1b
 5814 1d6d D7110000 		.4byte	.LASF331
 5815 1d71 01       		.byte	0x1
 5816 1d72 3A05     		.2byte	0x53a
 5817 1d74 01       		.byte	0x1
 5818 1d75 E21D0000 		.4byte	0x1de2
 5819 1d79 1A       		.uleb128 0x1a
 5820 1d7a 60000000 		.4byte	.LASF193
 5821 1d7e 01       		.byte	0x1
 5822 1d7f 3A05     		.2byte	0x53a
 5823 1d81 D80E0000 		.4byte	0xed8
 5824 1d85 1A       		.uleb128 0x1a
 5825 1d86 050B0000 		.4byte	.LASF194
 5826 1d8a 01       		.byte	0x1
 5827 1d8b 3A05     		.2byte	0x53a
 5828 1d8d 24100000 		.4byte	0x1024
 5829 1d91 35       		.uleb128 0x35
 5830 1d92 AA020000 		.4byte	.LASF314
 5831 1d96 01       		.byte	0x1
 5832 1d97 3C05     		.2byte	0x53c
 5833 1d99 B8000000 		.4byte	0xb8
 5834 1d9d 35       		.uleb128 0x35
 5835 1d9e A0100000 		.4byte	.LASF332
 5836 1da2 01       		.byte	0x1
 5837 1da3 3D05     		.2byte	0x53d
 5838 1da5 B8000000 		.4byte	0xb8
 5839 1da9 35       		.uleb128 0x35
 5840 1daa 7B0E0000 		.4byte	.LASF325
 5841 1dae 01       		.byte	0x1
 5842 1daf 3E05     		.2byte	0x53e
 5843 1db1 410D0000 		.4byte	0xd41
 5844 1db5 3B       		.uleb128 0x3b
 5845 1db6 C71D0000 		.4byte	0x1dc7
 5846 1dba 3A       		.uleb128 0x3a
 5847 1dbb 62756600 		.ascii	"buf\000"
 5848 1dbf 01       		.byte	0x1
 5849 1dc0 4205     		.2byte	0x542
 5850 1dc2 91180000 		.4byte	0x1891
 5851 1dc6 00       		.byte	0
 5852 1dc7 39       		.uleb128 0x39
 5853 1dc8 35       		.uleb128 0x35
 5854 1dc9 CC130000 		.4byte	.LASF333
 5855 1dcd 01       		.byte	0x1
 5856 1dce 5405     		.2byte	0x554
 5857 1dd0 B8000000 		.4byte	0xb8
 5858 1dd4 35       		.uleb128 0x35
 5859 1dd5 34160000 		.4byte	.LASF334
 5860 1dd9 01       		.byte	0x1
 5861 1dda 5505     		.2byte	0x555
 5862 1ddc B8000000 		.4byte	0xb8
 5863 1de0 00       		.byte	0
 5864 1de1 00       		.byte	0
 5865 1de2 2C       		.uleb128 0x2c
 5866 1de3 7B130000 		.4byte	.LASF335
 5867 1de7 01       		.byte	0x1
 5868 1de8 3704     		.2byte	0x437
 5869 1dea 00000000 		.4byte	.LFB173
ARM GAS  C:\Users\pearlstl\AppData\Local\Temp\ccAUXqAU.s 			page 188


 5870 1dee A4020000 		.4byte	.LFE173-.LFB173
 5871 1df2 01       		.uleb128 0x1
 5872 1df3 9C       		.byte	0x9c
 5873 1df4 C4240000 		.4byte	0x24c4
 5874 1df8 24       		.uleb128 0x24
 5875 1df9 60000000 		.4byte	.LASF193
 5876 1dfd 01       		.byte	0x1
 5877 1dfe 3704     		.2byte	0x437
 5878 1e00 D80E0000 		.4byte	0xed8
 5879 1e04 260B0000 		.4byte	.LLST96
 5880 1e08 24       		.uleb128 0x24
 5881 1e09 050B0000 		.4byte	.LASF194
 5882 1e0d 01       		.byte	0x1
 5883 1e0e 3704     		.2byte	0x437
 5884 1e10 24100000 		.4byte	0x1024
 5885 1e14 520B0000 		.4byte	.LLST97
 5886 1e18 26       		.uleb128 0x26
 5887 1e19 17110000 		.4byte	0x1117
 5888 1e1d 00000000 		.4byte	.LBB380
 5889 1e21 06000000 		.4byte	.LBE380-.LBB380
 5890 1e25 01       		.byte	0x1
 5891 1e26 3904     		.2byte	0x439
 5892 1e28 361E0000 		.4byte	0x1e36
 5893 1e2c 27       		.uleb128 0x27
 5894 1e2d 28110000 		.4byte	0x1128
 5895 1e31 7E0B0000 		.4byte	.LLST98
 5896 1e35 00       		.byte	0
 5897 1e36 33       		.uleb128 0x33
 5898 1e37 12000000 		.4byte	.LBB382
 5899 1e3b 7C010000 		.4byte	.LBE382-.LBB382
 5900 1e3f E2210000 		.4byte	0x21e2
 5901 1e43 25       		.uleb128 0x25
 5902 1e44 47030000 		.4byte	.LASF336
 5903 1e48 01       		.byte	0x1
 5904 1e49 3C04     		.2byte	0x43c
 5905 1e4b B8000000 		.4byte	0xb8
 5906 1e4f 910B0000 		.4byte	.LLST99
 5907 1e53 2F       		.uleb128 0x2f
 5908 1e54 35110000 		.4byte	0x1135
 5909 1e58 14000000 		.4byte	.LBB383
 5910 1e5c 50010000 		.4byte	.Ldebug_ranges0+0x150
 5911 1e60 01       		.byte	0x1
 5912 1e61 3C04     		.2byte	0x43c
 5913 1e63 711E0000 		.4byte	0x1e71
 5914 1e67 27       		.uleb128 0x27
 5915 1e68 46110000 		.4byte	0x1146
 5916 1e6c C20B0000 		.4byte	.LLST100
 5917 1e70 00       		.byte	0
 5918 1e71 26       		.uleb128 0x26
 5919 1e72 53110000 		.4byte	0x1153
 5920 1e76 24000000 		.4byte	.LBB387
 5921 1e7a 08000000 		.4byte	.LBE387-.LBB387
 5922 1e7e 01       		.byte	0x1
 5923 1e7f 4304     		.2byte	0x443
 5924 1e81 981E0000 		.4byte	0x1e98
 5925 1e85 27       		.uleb128 0x27
 5926 1e86 6C110000 		.4byte	0x116c
ARM GAS  C:\Users\pearlstl\AppData\Local\Temp\ccAUXqAU.s 			page 189


 5927 1e8a D50B0000 		.4byte	.LLST101
 5928 1e8e 27       		.uleb128 0x27
 5929 1e8f 60110000 		.4byte	0x1160
 5930 1e93 E80B0000 		.4byte	.LLST102
 5931 1e97 00       		.byte	0
 5932 1e98 26       		.uleb128 0x26
 5933 1e99 35110000 		.4byte	0x1135
 5934 1e9d 38000000 		.4byte	.LBB389
 5935 1ea1 02000000 		.4byte	.LBE389-.LBB389
 5936 1ea5 01       		.byte	0x1
 5937 1ea6 4C04     		.2byte	0x44c
 5938 1ea8 B61E0000 		.4byte	0x1eb6
 5939 1eac 27       		.uleb128 0x27
 5940 1ead 46110000 		.4byte	0x1146
 5941 1eb1 FB0B0000 		.4byte	.LLST103
 5942 1eb5 00       		.byte	0
 5943 1eb6 26       		.uleb128 0x26
 5944 1eb7 53110000 		.4byte	0x1153
 5945 1ebb 46000000 		.4byte	.LBB391
 5946 1ebf 08000000 		.4byte	.LBE391-.LBB391
 5947 1ec3 01       		.byte	0x1
 5948 1ec4 5004     		.2byte	0x450
 5949 1ec6 DD1E0000 		.4byte	0x1edd
 5950 1eca 27       		.uleb128 0x27
 5951 1ecb 6C110000 		.4byte	0x116c
 5952 1ecf 0E0C0000 		.4byte	.LLST104
 5953 1ed3 27       		.uleb128 0x27
 5954 1ed4 60110000 		.4byte	0x1160
 5955 1ed8 240C0000 		.4byte	.LLST105
 5956 1edc 00       		.byte	0
 5957 1edd 26       		.uleb128 0x26
 5958 1ede 35110000 		.4byte	0x1135
 5959 1ee2 4E000000 		.4byte	.LBB393
 5960 1ee6 02000000 		.4byte	.LBE393-.LBB393
 5961 1eea 01       		.byte	0x1
 5962 1eeb 5404     		.2byte	0x454
 5963 1eed FB1E0000 		.4byte	0x1efb
 5964 1ef1 27       		.uleb128 0x27
 5965 1ef2 46110000 		.4byte	0x1146
 5966 1ef6 370C0000 		.4byte	.LLST106
 5967 1efa 00       		.byte	0
 5968 1efb 26       		.uleb128 0x26
 5969 1efc BC1C0000 		.4byte	0x1cbc
 5970 1f00 5C000000 		.4byte	.LBB395
 5971 1f04 80000000 		.4byte	.LBE395-.LBB395
 5972 1f08 01       		.byte	0x1
 5973 1f09 5804     		.2byte	0x458
 5974 1f0b 60200000 		.4byte	0x2060
 5975 1f0f 27       		.uleb128 0x27
 5976 1f10 D51C0000 		.4byte	0x1cd5
 5977 1f14 4A0C0000 		.4byte	.LLST107
 5978 1f18 27       		.uleb128 0x27
 5979 1f19 C91C0000 		.4byte	0x1cc9
 5980 1f1d 5D0C0000 		.4byte	.LLST108
 5981 1f21 2E       		.uleb128 0x2e
 5982 1f22 5C000000 		.4byte	.LBB396
 5983 1f26 80000000 		.4byte	.LBE396-.LBB396
ARM GAS  C:\Users\pearlstl\AppData\Local\Temp\ccAUXqAU.s 			page 190


 5984 1f2a 3C       		.uleb128 0x3c
 5985 1f2b E11C0000 		.4byte	0x1ce1
 5986 1f2f 3D       		.uleb128 0x3d
 5987 1f30 ED1C0000 		.4byte	0x1ced
 5988 1f34 700C0000 		.4byte	.LLST109
 5989 1f38 26       		.uleb128 0x26
 5990 1f39 3D140000 		.4byte	0x143d
 5991 1f3d 5C000000 		.4byte	.LBB397
 5992 1f41 0A000000 		.4byte	.LBE397-.LBB397
 5993 1f45 01       		.byte	0x1
 5994 1f46 A504     		.2byte	0x4a5
 5995 1f48 561F0000 		.4byte	0x1f56
 5996 1f4c 27       		.uleb128 0x27
 5997 1f4d 4E140000 		.4byte	0x144e
 5998 1f51 830C0000 		.4byte	.LLST110
 5999 1f55 00       		.byte	0
 6000 1f56 26       		.uleb128 0x26
 6001 1f57 7C0E0000 		.4byte	0xe7c
 6002 1f5b 66000000 		.4byte	.LBB399
 6003 1f5f 08000000 		.4byte	.LBE399-.LBB399
 6004 1f63 01       		.byte	0x1
 6005 1f64 A804     		.2byte	0x4a8
 6006 1f66 8A1F0000 		.4byte	0x1f8a
 6007 1f6a 3E       		.uleb128 0x3e
 6008 1f6b A50E0000 		.4byte	0xea5
 6009 1f6f 3E       		.uleb128 0x3e
 6010 1f70 990E0000 		.4byte	0xe99
 6011 1f74 3E       		.uleb128 0x3e
 6012 1f75 8D0E0000 		.4byte	0xe8d
 6013 1f79 2A       		.uleb128 0x2a
 6014 1f7a 6E000000 		.4byte	.LVL149
 6015 1f7e DA240000 		.4byte	0x24da
 6016 1f82 2B       		.uleb128 0x2b
 6017 1f83 01       		.uleb128 0x1
 6018 1f84 50       		.byte	0x50
 6019 1f85 02       		.uleb128 0x2
 6020 1f86 75       		.byte	0x75
 6021 1f87 00       		.sleb128 0
 6022 1f88 00       		.byte	0
 6023 1f89 00       		.byte	0
 6024 1f8a 26       		.uleb128 0x26
 6025 1f8b 5B140000 		.4byte	0x145b
 6026 1f8f 90000000 		.4byte	.LBB401
 6027 1f93 10000000 		.4byte	.LBE401-.LBB401
 6028 1f97 01       		.byte	0x1
 6029 1f98 B304     		.2byte	0x4b3
 6030 1f9a B11F0000 		.4byte	0x1fb1
 6031 1f9e 27       		.uleb128 0x27
 6032 1f9f 74140000 		.4byte	0x1474
 6033 1fa3 960C0000 		.4byte	.LLST111
 6034 1fa7 27       		.uleb128 0x27
 6035 1fa8 68140000 		.4byte	0x1468
 6036 1fac A90C0000 		.4byte	.LLST112
 6037 1fb0 00       		.byte	0
 6038 1fb1 26       		.uleb128 0x26
 6039 1fb2 B20E0000 		.4byte	0xeb2
 6040 1fb6 A0000000 		.4byte	.LBB403
ARM GAS  C:\Users\pearlstl\AppData\Local\Temp\ccAUXqAU.s 			page 191


 6041 1fba 02000000 		.4byte	.LBE403-.LBB403
 6042 1fbe 01       		.byte	0x1
 6043 1fbf B604     		.2byte	0x4b6
 6044 1fc1 D81F0000 		.4byte	0x1fd8
 6045 1fc5 27       		.uleb128 0x27
 6046 1fc6 CB0E0000 		.4byte	0xecb
 6047 1fca BC0C0000 		.4byte	.LLST113
 6048 1fce 27       		.uleb128 0x27
 6049 1fcf BF0E0000 		.4byte	0xebf
 6050 1fd3 D00C0000 		.4byte	.LLST114
 6051 1fd7 00       		.byte	0
 6052 1fd8 26       		.uleb128 0x26
 6053 1fd9 B20E0000 		.4byte	0xeb2
 6054 1fdd A4000000 		.4byte	.LBB405
 6055 1fe1 02000000 		.4byte	.LBE405-.LBB405
 6056 1fe5 01       		.byte	0x1
 6057 1fe6 BA04     		.2byte	0x4ba
 6058 1fe8 FF1F0000 		.4byte	0x1fff
 6059 1fec 27       		.uleb128 0x27
 6060 1fed CB0E0000 		.4byte	0xecb
 6061 1ff1 E30C0000 		.4byte	.LLST115
 6062 1ff5 27       		.uleb128 0x27
 6063 1ff6 BF0E0000 		.4byte	0xebf
 6064 1ffa F70C0000 		.4byte	.LLST116
 6065 1ffe 00       		.byte	0
 6066 1fff 33       		.uleb128 0x33
 6067 2000 B8000000 		.4byte	.LBB407
 6068 2004 24000000 		.4byte	.LBE407-.LBB407
 6069 2008 53200000 		.4byte	0x2053
 6070 200c 3D       		.uleb128 0x3d
 6071 200d FA1C0000 		.4byte	0x1cfa
 6072 2011 0A0D0000 		.4byte	.LLST117
 6073 2015 26       		.uleb128 0x26
 6074 2016 DE0E0000 		.4byte	0xede
 6075 201a B8000000 		.4byte	.LBB408
 6076 201e 06000000 		.4byte	.LBE408-.LBB408
 6077 2022 01       		.byte	0x1
 6078 2023 CA04     		.2byte	0x4ca
 6079 2025 2F200000 		.4byte	0x202f
 6080 2029 3E       		.uleb128 0x3e
 6081 202a EF0E0000 		.4byte	0xeef
 6082 202e 00       		.byte	0
 6083 202f 28       		.uleb128 0x28
 6084 2030 5B140000 		.4byte	0x145b
 6085 2034 D2000000 		.4byte	.LBB410
 6086 2038 0A000000 		.4byte	.LBE410-.LBB410
 6087 203c 01       		.byte	0x1
 6088 203d D004     		.2byte	0x4d0
 6089 203f 27       		.uleb128 0x27
 6090 2040 74140000 		.4byte	0x1474
 6091 2044 380D0000 		.4byte	.LLST118
 6092 2048 27       		.uleb128 0x27
 6093 2049 68140000 		.4byte	0x1468
 6094 204d 580D0000 		.4byte	.LLST119
 6095 2051 00       		.byte	0
 6096 2052 00       		.byte	0
 6097 2053 36       		.uleb128 0x36
ARM GAS  C:\Users\pearlstl\AppData\Local\Temp\ccAUXqAU.s 			page 192


 6098 2054 B6000000 		.4byte	.LVL154
 6099 2058 2B       		.uleb128 0x2b
 6100 2059 01       		.uleb128 0x1
 6101 205a 50       		.byte	0x50
 6102 205b 01       		.uleb128 0x1
 6103 205c 34       		.byte	0x34
 6104 205d 00       		.byte	0
 6105 205e 00       		.byte	0
 6106 205f 00       		.byte	0
 6107 2060 26       		.uleb128 0x26
 6108 2061 081D0000 		.4byte	0x1d08
 6109 2065 E2000000 		.4byte	.LBB412
 6110 2069 A2000000 		.4byte	.LBE412-.LBB412
 6111 206d 01       		.byte	0x1
 6112 206e 5E04     		.2byte	0x45e
 6113 2070 AF210000 		.4byte	0x21af
 6114 2074 27       		.uleb128 0x27
 6115 2075 211D0000 		.4byte	0x1d21
 6116 2079 6B0D0000 		.4byte	.LLST120
 6117 207d 27       		.uleb128 0x27
 6118 207e 151D0000 		.4byte	0x1d15
 6119 2082 7E0D0000 		.4byte	.LLST121
 6120 2086 2E       		.uleb128 0x2e
 6121 2087 E2000000 		.4byte	.LBB413
 6122 208b A2000000 		.4byte	.LBE413-.LBB413
 6123 208f 3D       		.uleb128 0x3d
 6124 2090 2D1D0000 		.4byte	0x1d2d
 6125 2094 910D0000 		.4byte	.LLST122
 6126 2098 3D       		.uleb128 0x3d
 6127 2099 391D0000 		.4byte	0x1d39
 6128 209d B00D0000 		.4byte	.LLST123
 6129 20a1 3D       		.uleb128 0x3d
 6130 20a2 451D0000 		.4byte	0x1d45
 6131 20a6 E60D0000 		.4byte	.LLST124
 6132 20aa 3C       		.uleb128 0x3c
 6133 20ab 511D0000 		.4byte	0x1d51
 6134 20af 26       		.uleb128 0x26
 6135 20b0 3D140000 		.4byte	0x143d
 6136 20b4 E2000000 		.4byte	.LBB414
 6137 20b8 0A000000 		.4byte	.LBE414-.LBB414
 6138 20bc 01       		.byte	0x1
 6139 20bd E804     		.2byte	0x4e8
 6140 20bf CD200000 		.4byte	0x20cd
 6141 20c3 27       		.uleb128 0x27
 6142 20c4 4E140000 		.4byte	0x144e
 6143 20c8 100E0000 		.4byte	.LLST125
 6144 20cc 00       		.byte	0
 6145 20cd 2F       		.uleb128 0x2f
 6146 20ce 5E0E0000 		.4byte	0xe5e
 6147 20d2 F0000000 		.4byte	.LBB416
 6148 20d6 68010000 		.4byte	.Ldebug_ranges0+0x168
 6149 20da 01       		.byte	0x1
 6150 20db E904     		.2byte	0x4e9
 6151 20dd EB200000 		.4byte	0x20eb
 6152 20e1 27       		.uleb128 0x27
 6153 20e2 6F0E0000 		.4byte	0xe6f
 6154 20e6 230E0000 		.4byte	.LLST126
ARM GAS  C:\Users\pearlstl\AppData\Local\Temp\ccAUXqAU.s 			page 193


 6155 20ea 00       		.byte	0
 6156 20eb 2F       		.uleb128 0x2f
 6157 20ec B20E0000 		.4byte	0xeb2
 6158 20f0 24010000 		.4byte	.LBB420
 6159 20f4 80010000 		.4byte	.Ldebug_ranges0+0x180
 6160 20f8 01       		.byte	0x1
 6161 20f9 0405     		.2byte	0x504
 6162 20fb 12210000 		.4byte	0x2112
 6163 20ff 27       		.uleb128 0x27
 6164 2100 CB0E0000 		.4byte	0xecb
 6165 2104 360E0000 		.4byte	.LLST127
 6166 2108 27       		.uleb128 0x27
 6167 2109 BF0E0000 		.4byte	0xebf
 6168 210d 4A0E0000 		.4byte	.LLST128
 6169 2111 00       		.byte	0
 6170 2112 26       		.uleb128 0x26
 6171 2113 E00F0000 		.4byte	0xfe0
 6172 2117 36010000 		.4byte	.LBB424
 6173 211b 06000000 		.4byte	.LBE424-.LBB424
 6174 211f 01       		.byte	0x1
 6175 2120 0C05     		.2byte	0x50c
 6176 2122 30210000 		.4byte	0x2130
 6177 2126 27       		.uleb128 0x27
 6178 2127 F10F0000 		.4byte	0xff1
 6179 212b 5D0E0000 		.4byte	.LLST129
 6180 212f 00       		.byte	0
 6181 2130 26       		.uleb128 0x26
 6182 2131 DE0E0000 		.4byte	0xede
 6183 2135 3C010000 		.4byte	.LBB426
 6184 2139 04000000 		.4byte	.LBE426-.LBB426
 6185 213d 01       		.byte	0x1
 6186 213e 0F05     		.2byte	0x50f
 6187 2140 4E210000 		.4byte	0x214e
 6188 2144 27       		.uleb128 0x27
 6189 2145 EF0E0000 		.4byte	0xeef
 6190 2149 700E0000 		.4byte	.LLST130
 6191 214d 00       		.byte	0
 6192 214e 33       		.uleb128 0x33
 6193 214f 6E010000 		.4byte	.LBB428
 6194 2153 16000000 		.4byte	.LBE428-.LBB428
 6195 2157 88210000 		.4byte	0x2188
 6196 215b 3D       		.uleb128 0x3d
 6197 215c 5E1D0000 		.4byte	0x1d5e
 6198 2160 830E0000 		.4byte	.LLST131
 6199 2164 28       		.uleb128 0x28
 6200 2165 5B140000 		.4byte	0x145b
 6201 2169 76010000 		.4byte	.LBB429
 6202 216d 0E000000 		.4byte	.LBE429-.LBB429
 6203 2171 01       		.byte	0x1
 6204 2172 2505     		.2byte	0x525
 6205 2174 27       		.uleb128 0x27
 6206 2175 74140000 		.4byte	0x1474
 6207 2179 830E0000 		.4byte	.LLST131
 6208 217d 27       		.uleb128 0x27
 6209 217e 68140000 		.4byte	0x1468
 6210 2182 960E0000 		.4byte	.LLST133
 6211 2186 00       		.byte	0
ARM GAS  C:\Users\pearlstl\AppData\Local\Temp\ccAUXqAU.s 			page 194


 6212 2187 00       		.byte	0
 6213 2188 3F       		.uleb128 0x3f
 6214 2189 1E010000 		.4byte	.LVL169
 6215 218d 97210000 		.4byte	0x2197
 6216 2191 2B       		.uleb128 0x2b
 6217 2192 01       		.uleb128 0x1
 6218 2193 50       		.byte	0x50
 6219 2194 01       		.uleb128 0x1
 6220 2195 38       		.byte	0x38
 6221 2196 00       		.byte	0
 6222 2197 2A       		.uleb128 0x2a
 6223 2198 66010000 		.4byte	.LVL179
 6224 219c D5150000 		.4byte	0x15d5
 6225 21a0 2B       		.uleb128 0x2b
 6226 21a1 01       		.uleb128 0x1
 6227 21a2 50       		.byte	0x50
 6228 21a3 02       		.uleb128 0x2
 6229 21a4 75       		.byte	0x75
 6230 21a5 00       		.sleb128 0
 6231 21a6 2B       		.uleb128 0x2b
 6232 21a7 01       		.uleb128 0x1
 6233 21a8 51       		.byte	0x51
 6234 21a9 02       		.uleb128 0x2
 6235 21aa 74       		.byte	0x74
 6236 21ab 00       		.sleb128 0
 6237 21ac 00       		.byte	0
 6238 21ad 00       		.byte	0
 6239 21ae 00       		.byte	0
 6240 21af 26       		.uleb128 0x26
 6241 21b0 53110000 		.4byte	0x1153
 6242 21b4 84010000 		.4byte	.LBB431
 6243 21b8 0A000000 		.4byte	.LBE431-.LBB431
 6244 21bc 01       		.byte	0x1
 6245 21bd 6204     		.2byte	0x462
 6246 21bf D6210000 		.4byte	0x21d6
 6247 21c3 27       		.uleb128 0x27
 6248 21c4 6C110000 		.4byte	0x116c
 6249 21c8 A90E0000 		.4byte	.LLST134
 6250 21cc 27       		.uleb128 0x27
 6251 21cd 60110000 		.4byte	0x1160
 6252 21d1 BD0E0000 		.4byte	.LLST135
 6253 21d5 00       		.byte	0
 6254 21d6 36       		.uleb128 0x36
 6255 21d7 36000000 		.4byte	.LVL142
 6256 21db 2B       		.uleb128 0x2b
 6257 21dc 01       		.uleb128 0x1
 6258 21dd 50       		.byte	0x50
 6259 21de 01       		.uleb128 0x1
 6260 21df 40       		.byte	0x40
 6261 21e0 00       		.byte	0
 6262 21e1 00       		.byte	0
 6263 21e2 26       		.uleb128 0x26
 6264 21e3 17110000 		.4byte	0x1117
 6265 21e7 8E010000 		.4byte	.LBB433
 6266 21eb 06000000 		.4byte	.LBE433-.LBB433
 6267 21ef 01       		.byte	0x1
 6268 21f0 6604     		.2byte	0x466
ARM GAS  C:\Users\pearlstl\AppData\Local\Temp\ccAUXqAU.s 			page 195


 6269 21f2 00220000 		.4byte	0x2200
 6270 21f6 27       		.uleb128 0x27
 6271 21f7 28110000 		.4byte	0x1128
 6272 21fb D00E0000 		.4byte	.LLST136
 6273 21ff 00       		.byte	0
 6274 2200 2E       		.uleb128 0x2e
 6275 2201 98010000 		.4byte	.LBB435
 6276 2205 F6000000 		.4byte	.LBE435-.LBB435
 6277 2209 25       		.uleb128 0x25
 6278 220a C4050000 		.4byte	.LASF337
 6279 220e 01       		.byte	0x1
 6280 220f 6804     		.2byte	0x468
 6281 2211 B8000000 		.4byte	0xb8
 6282 2215 E30E0000 		.4byte	.LLST137
 6283 2219 2F       		.uleb128 0x2f
 6284 221a 79110000 		.4byte	0x1179
 6285 221e 9A010000 		.4byte	.LBB436
 6286 2222 98010000 		.4byte	.Ldebug_ranges0+0x198
 6287 2226 01       		.byte	0x1
 6288 2227 6804     		.2byte	0x468
 6289 2229 37220000 		.4byte	0x2237
 6290 222d 27       		.uleb128 0x27
 6291 222e 8A110000 		.4byte	0x118a
 6292 2232 050F0000 		.4byte	.LLST138
 6293 2236 00       		.byte	0
 6294 2237 26       		.uleb128 0x26
 6295 2238 940F0000 		.4byte	0xf94
 6296 223c AC010000 		.4byte	.LBB440
 6297 2240 08000000 		.4byte	.LBE440-.LBB440
 6298 2244 01       		.byte	0x1
 6299 2245 6E04     		.2byte	0x46e
 6300 2247 5E220000 		.4byte	0x225e
 6301 224b 27       		.uleb128 0x27
 6302 224c AD0F0000 		.4byte	0xfad
 6303 2250 180F0000 		.4byte	.LLST139
 6304 2254 27       		.uleb128 0x27
 6305 2255 A10F0000 		.4byte	0xfa1
 6306 2259 2B0F0000 		.4byte	.LLST140
 6307 225d 00       		.byte	0
 6308 225e 26       		.uleb128 0x26
 6309 225f 79110000 		.4byte	0x1179
 6310 2263 BE010000 		.4byte	.LBB442
 6311 2267 04000000 		.4byte	.LBE442-.LBB442
 6312 226b 01       		.byte	0x1
 6313 226c 7704     		.2byte	0x477
 6314 226e 7C220000 		.4byte	0x227c
 6315 2272 27       		.uleb128 0x27
 6316 2273 8A110000 		.4byte	0x118a
 6317 2277 3E0F0000 		.4byte	.LLST141
 6318 227b 00       		.byte	0
 6319 227c 26       		.uleb128 0x26
 6320 227d 6C1D0000 		.4byte	0x1d6c
 6321 2281 C6010000 		.4byte	.LBB444
 6322 2285 9C000000 		.4byte	.LBE444-.LBB444
 6323 2289 01       		.byte	0x1
 6324 228a 7904     		.2byte	0x479
 6325 228c 3B240000 		.4byte	0x243b
ARM GAS  C:\Users\pearlstl\AppData\Local\Temp\ccAUXqAU.s 			page 196


 6326 2290 27       		.uleb128 0x27
 6327 2291 851D0000 		.4byte	0x1d85
 6328 2295 510F0000 		.4byte	.LLST142
 6329 2299 27       		.uleb128 0x27
 6330 229a 791D0000 		.4byte	0x1d79
 6331 229e 640F0000 		.4byte	.LLST143
 6332 22a2 2E       		.uleb128 0x2e
 6333 22a3 C6010000 		.4byte	.LBB445
 6334 22a7 9C000000 		.4byte	.LBE445-.LBB445
 6335 22ab 3C       		.uleb128 0x3c
 6336 22ac 911D0000 		.4byte	0x1d91
 6337 22b0 3C       		.uleb128 0x3c
 6338 22b1 9D1D0000 		.4byte	0x1d9d
 6339 22b5 3C       		.uleb128 0x3c
 6340 22b6 A91D0000 		.4byte	0x1da9
 6341 22ba 26       		.uleb128 0x26
 6342 22bb 3D140000 		.4byte	0x143d
 6343 22bf C6010000 		.4byte	.LBB446
 6344 22c3 0A000000 		.4byte	.LBE446-.LBB446
 6345 22c7 01       		.byte	0x1
 6346 22c8 3D05     		.2byte	0x53d
 6347 22ca D8220000 		.4byte	0x22d8
 6348 22ce 27       		.uleb128 0x27
 6349 22cf 4E140000 		.4byte	0x144e
 6350 22d3 770F0000 		.4byte	.LLST144
 6351 22d7 00       		.byte	0
 6352 22d8 26       		.uleb128 0x26
 6353 22d9 FC0E0000 		.4byte	0xefc
 6354 22dd D0010000 		.4byte	.LBB448
 6355 22e1 0E000000 		.4byte	.LBE448-.LBB448
 6356 22e5 01       		.byte	0x1
 6357 22e6 3E05     		.2byte	0x53e
 6358 22e8 F6220000 		.4byte	0x22f6
 6359 22ec 27       		.uleb128 0x27
 6360 22ed 0D0F0000 		.4byte	0xf0d
 6361 22f1 8A0F0000 		.4byte	.LLST145
 6362 22f5 00       		.byte	0
 6363 22f6 33       		.uleb128 0x33
 6364 22f7 E4010000 		.4byte	.LBB450
 6365 22fb 20000000 		.4byte	.LBE450-.LBB450
 6366 22ff 4F230000 		.4byte	0x234f
 6367 2303 3D       		.uleb128 0x3d
 6368 2304 BA1D0000 		.4byte	0x1dba
 6369 2308 9D0F0000 		.4byte	.LLST146
 6370 230c 28       		.uleb128 0x28
 6371 230d 1A0F0000 		.4byte	0xf1a
 6372 2311 E8010000 		.4byte	.LBB451
 6373 2315 0A000000 		.4byte	.LBE451-.LBB451
 6374 2319 01       		.byte	0x1
 6375 231a 4805     		.2byte	0x548
 6376 231c 27       		.uleb128 0x27
 6377 231d 430F0000 		.4byte	0xf43
 6378 2321 CB0F0000 		.4byte	.LLST147
 6379 2325 27       		.uleb128 0x27
 6380 2326 370F0000 		.4byte	0xf37
 6381 232a EB0F0000 		.4byte	.LLST148
 6382 232e 27       		.uleb128 0x27
ARM GAS  C:\Users\pearlstl\AppData\Local\Temp\ccAUXqAU.s 			page 197


 6383 232f 2B0F0000 		.4byte	0xf2b
 6384 2333 FE0F0000 		.4byte	.LLST149
 6385 2337 2A       		.uleb128 0x2a
 6386 2338 F2010000 		.4byte	.LVL199
 6387 233c E5240000 		.4byte	0x24e5
 6388 2340 2B       		.uleb128 0x2b
 6389 2341 01       		.uleb128 0x1
 6390 2342 50       		.byte	0x50
 6391 2343 02       		.uleb128 0x2
 6392 2344 75       		.byte	0x75
 6393 2345 00       		.sleb128 0
 6394 2346 2B       		.uleb128 0x2b
 6395 2347 01       		.uleb128 0x1
 6396 2348 51       		.byte	0x51
 6397 2349 02       		.uleb128 0x2
 6398 234a 77       		.byte	0x77
 6399 234b 00       		.sleb128 0
 6400 234c 00       		.byte	0
 6401 234d 00       		.byte	0
 6402 234e 00       		.byte	0
 6403 234f 26       		.uleb128 0x26
 6404 2350 400E0000 		.4byte	0xe40
 6405 2354 04020000 		.4byte	.LBB453
 6406 2358 06000000 		.4byte	.LBE453-.LBB453
 6407 235c 01       		.byte	0x1
 6408 235d 5205     		.2byte	0x552
 6409 235f 6D230000 		.4byte	0x236d
 6410 2363 27       		.uleb128 0x27
 6411 2364 510E0000 		.4byte	0xe51
 6412 2368 11100000 		.4byte	.LLST150
 6413 236c 00       		.byte	0
 6414 236d 2E       		.uleb128 0x2e
 6415 236e 18020000 		.4byte	.LBB455
 6416 2372 4A000000 		.4byte	.LBE455-.LBB455
 6417 2376 3D       		.uleb128 0x3d
 6418 2377 C81D0000 		.4byte	0x1dc8
 6419 237b 24100000 		.4byte	.LLST151
 6420 237f 3D       		.uleb128 0x3d
 6421 2380 D41D0000 		.4byte	0x1dd4
 6422 2384 44100000 		.4byte	.LLST152
 6423 2388 26       		.uleb128 0x26
 6424 2389 BA0F0000 		.4byte	0xfba
 6425 238d 2E020000 		.4byte	.LBB456
 6426 2391 06000000 		.4byte	.LBE456-.LBB456
 6427 2395 01       		.byte	0x1
 6428 2396 6005     		.2byte	0x560
 6429 2398 AF230000 		.4byte	0x23af
 6430 239c 27       		.uleb128 0x27
 6431 239d D30F0000 		.4byte	0xfd3
 6432 23a1 57100000 		.4byte	.LLST153
 6433 23a5 27       		.uleb128 0x27
 6434 23a6 C70F0000 		.4byte	0xfc7
 6435 23aa 6A100000 		.4byte	.LLST154
 6436 23ae 00       		.byte	0
 6437 23af 26       		.uleb128 0x26
 6438 23b0 940F0000 		.4byte	0xf94
 6439 23b4 34020000 		.4byte	.LBB458
ARM GAS  C:\Users\pearlstl\AppData\Local\Temp\ccAUXqAU.s 			page 198


 6440 23b8 0C000000 		.4byte	.LBE458-.LBB458
 6441 23bc 01       		.byte	0x1
 6442 23bd 6105     		.2byte	0x561
 6443 23bf D6230000 		.4byte	0x23d6
 6444 23c3 27       		.uleb128 0x27
 6445 23c4 AD0F0000 		.4byte	0xfad
 6446 23c8 7D100000 		.4byte	.LLST155
 6447 23cc 27       		.uleb128 0x27
 6448 23cd A10F0000 		.4byte	0xfa1
 6449 23d1 93100000 		.4byte	.LLST156
 6450 23d5 00       		.byte	0
 6451 23d6 2F       		.uleb128 0x2f
 6452 23d7 760F0000 		.4byte	0xf76
 6453 23db 44020000 		.4byte	.LBB460
 6454 23df B0010000 		.4byte	.Ldebug_ranges0+0x1b0
 6455 23e3 01       		.byte	0x1
 6456 23e4 6705     		.2byte	0x567
 6457 23e6 F4230000 		.4byte	0x23f4
 6458 23ea 27       		.uleb128 0x27
 6459 23eb 870F0000 		.4byte	0xf87
 6460 23ef A6100000 		.4byte	.LLST157
 6461 23f3 00       		.byte	0
 6462 23f4 26       		.uleb128 0x26
 6463 23f5 500F0000 		.4byte	0xf50
 6464 23f9 4E020000 		.4byte	.LBB464
 6465 23fd 02000000 		.4byte	.LBE464-.LBB464
 6466 2401 01       		.byte	0x1
 6467 2402 6605     		.2byte	0x566
 6468 2404 1B240000 		.4byte	0x241b
 6469 2408 27       		.uleb128 0x27
 6470 2409 690F0000 		.4byte	0xf69
 6471 240d B9100000 		.4byte	.LLST158
 6472 2411 27       		.uleb128 0x27
 6473 2412 5D0F0000 		.4byte	0xf5d
 6474 2416 CC100000 		.4byte	.LLST159
 6475 241a 00       		.byte	0
 6476 241b 29       		.uleb128 0x29
 6477 241c 2E020000 		.4byte	.LVL205
 6478 2420 F0240000 		.4byte	0x24f0
 6479 2424 29       		.uleb128 0x29
 6480 2425 44020000 		.4byte	.LVL210
 6481 2429 FC240000 		.4byte	0x24fc
 6482 242d 36       		.uleb128 0x36
 6483 242e 62020000 		.4byte	.LVL214
 6484 2432 2B       		.uleb128 0x2b
 6485 2433 01       		.uleb128 0x1
 6486 2434 50       		.byte	0x50
 6487 2435 01       		.uleb128 0x1
 6488 2436 31       		.byte	0x31
 6489 2437 00       		.byte	0
 6490 2438 00       		.byte	0
 6491 2439 00       		.byte	0
 6492 243a 00       		.byte	0
 6493 243b 26       		.uleb128 0x26
 6494 243c 940F0000 		.4byte	0xf94
 6495 2440 62020000 		.4byte	.LBB466
 6496 2444 0A000000 		.4byte	.LBE466-.LBB466
ARM GAS  C:\Users\pearlstl\AppData\Local\Temp\ccAUXqAU.s 			page 199


 6497 2448 01       		.byte	0x1
 6498 2449 7B04     		.2byte	0x47b
 6499 244b 62240000 		.4byte	0x2462
 6500 244f 27       		.uleb128 0x27
 6501 2450 AD0F0000 		.4byte	0xfad
 6502 2454 DF100000 		.4byte	.LLST160
 6503 2458 27       		.uleb128 0x27
 6504 2459 A10F0000 		.4byte	0xfa1
 6505 245d F3100000 		.4byte	.LLST161
 6506 2461 00       		.byte	0
 6507 2462 26       		.uleb128 0x26
 6508 2463 79110000 		.4byte	0x1179
 6509 2467 6C020000 		.4byte	.LBB468
 6510 246b 04000000 		.4byte	.LBE468-.LBB468
 6511 246f 01       		.byte	0x1
 6512 2470 7F04     		.2byte	0x47f
 6513 2472 80240000 		.4byte	0x2480
 6514 2476 27       		.uleb128 0x27
 6515 2477 8A110000 		.4byte	0x118a
 6516 247b 06110000 		.4byte	.LLST162
 6517 247f 00       		.byte	0
 6518 2480 2F       		.uleb128 0x2f
 6519 2481 500F0000 		.4byte	0xf50
 6520 2485 74020000 		.4byte	.LBB470
 6521 2489 C8010000 		.4byte	.Ldebug_ranges0+0x1c8
 6522 248d 01       		.byte	0x1
 6523 248e 8204     		.2byte	0x482
 6524 2490 A7240000 		.4byte	0x24a7
 6525 2494 27       		.uleb128 0x27
 6526 2495 690F0000 		.4byte	0xf69
 6527 2499 19110000 		.4byte	.LLST163
 6528 249d 27       		.uleb128 0x27
 6529 249e 5D0F0000 		.4byte	0xf5d
 6530 24a2 2D110000 		.4byte	.LLST164
 6531 24a6 00       		.byte	0
 6532 24a7 3F       		.uleb128 0x3f
 6533 24a8 BE010000 		.4byte	.LVL191
 6534 24ac B7240000 		.4byte	0x24b7
 6535 24b0 2B       		.uleb128 0x2b
 6536 24b1 01       		.uleb128 0x1
 6537 24b2 50       		.byte	0x50
 6538 24b3 02       		.uleb128 0x2
 6539 24b4 08       		.byte	0x8
 6540 24b5 20       		.byte	0x20
 6541 24b6 00       		.byte	0
 6542 24b7 36       		.uleb128 0x36
 6543 24b8 8E020000 		.4byte	.LVL219
 6544 24bc 2B       		.uleb128 0x2b
 6545 24bd 01       		.uleb128 0x1
 6546 24be 50       		.byte	0x50
 6547 24bf 01       		.uleb128 0x1
 6548 24c0 32       		.byte	0x32
 6549 24c1 00       		.byte	0
 6550 24c2 00       		.byte	0
 6551 24c3 00       		.byte	0
 6552 24c4 40       		.uleb128 0x40
 6553 24c5 56000000 		.4byte	.LASF346
ARM GAS  C:\Users\pearlstl\AppData\Local\Temp\ccAUXqAU.s 			page 200


 6554 24c9 06       		.byte	0x6
 6555 24ca A7       		.byte	0xa7
 6556 24cb CF240000 		.4byte	0x24cf
 6557 24cf 15       		.uleb128 0x15
 6558 24d0 04       		.byte	0x4
 6559 24d1 D5240000 		.4byte	0x24d5
 6560 24d5 06       		.uleb128 0x6
 6561 24d6 6C050000 		.4byte	0x56c
 6562 24da 41       		.uleb128 0x41
 6563 24db 63090000 		.4byte	.LASF338
 6564 24df 63090000 		.4byte	.LASF338
 6565 24e3 02       		.byte	0x2
 6566 24e4 DD       		.byte	0xdd
 6567 24e5 41       		.uleb128 0x41
 6568 24e6 18070000 		.4byte	.LASF339
 6569 24ea 18070000 		.4byte	.LASF339
 6570 24ee 02       		.byte	0x2
 6571 24ef E1       		.byte	0xe1
 6572 24f0 42       		.uleb128 0x42
 6573 24f1 18090000 		.4byte	.LASF340
 6574 24f5 18090000 		.4byte	.LASF340
 6575 24f9 0A       		.byte	0xa
 6576 24fa B203     		.2byte	0x3b2
 6577 24fc 42       		.uleb128 0x42
 6578 24fd 7D0C0000 		.4byte	.LASF341
 6579 2501 7D0C0000 		.4byte	.LASF341
 6580 2505 0A       		.byte	0xa
 6581 2506 C103     		.2byte	0x3c1
 6582 2508 00       		.byte	0
 6583              		.section	.debug_abbrev,"",%progbits
 6584              	.Ldebug_abbrev0:
 6585 0000 01       		.uleb128 0x1
 6586 0001 11       		.uleb128 0x11
 6587 0002 01       		.byte	0x1
 6588 0003 25       		.uleb128 0x25
 6589 0004 0E       		.uleb128 0xe
 6590 0005 13       		.uleb128 0x13
 6591 0006 0B       		.uleb128 0xb
 6592 0007 03       		.uleb128 0x3
 6593 0008 0E       		.uleb128 0xe
 6594 0009 1B       		.uleb128 0x1b
 6595 000a 0E       		.uleb128 0xe
 6596 000b 55       		.uleb128 0x55
 6597 000c 17       		.uleb128 0x17
 6598 000d 11       		.uleb128 0x11
 6599 000e 01       		.uleb128 0x1
 6600 000f 10       		.uleb128 0x10
 6601 0010 17       		.uleb128 0x17
 6602 0011 00       		.byte	0
 6603 0012 00       		.byte	0
 6604 0013 02       		.uleb128 0x2
 6605 0014 24       		.uleb128 0x24
 6606 0015 00       		.byte	0
 6607 0016 0B       		.uleb128 0xb
 6608 0017 0B       		.uleb128 0xb
 6609 0018 3E       		.uleb128 0x3e
 6610 0019 0B       		.uleb128 0xb
ARM GAS  C:\Users\pearlstl\AppData\Local\Temp\ccAUXqAU.s 			page 201


 6611 001a 03       		.uleb128 0x3
 6612 001b 0E       		.uleb128 0xe
 6613 001c 00       		.byte	0
 6614 001d 00       		.byte	0
 6615 001e 03       		.uleb128 0x3
 6616 001f 16       		.uleb128 0x16
 6617 0020 00       		.byte	0
 6618 0021 03       		.uleb128 0x3
 6619 0022 0E       		.uleb128 0xe
 6620 0023 3A       		.uleb128 0x3a
 6621 0024 0B       		.uleb128 0xb
 6622 0025 3B       		.uleb128 0x3b
 6623 0026 0B       		.uleb128 0xb
 6624 0027 49       		.uleb128 0x49
 6625 0028 13       		.uleb128 0x13
 6626 0029 00       		.byte	0
 6627 002a 00       		.byte	0
 6628 002b 04       		.uleb128 0x4
 6629 002c 24       		.uleb128 0x24
 6630 002d 00       		.byte	0
 6631 002e 0B       		.uleb128 0xb
 6632 002f 0B       		.uleb128 0xb
 6633 0030 3E       		.uleb128 0x3e
 6634 0031 0B       		.uleb128 0xb
 6635 0032 03       		.uleb128 0x3
 6636 0033 08       		.uleb128 0x8
 6637 0034 00       		.byte	0
 6638 0035 00       		.byte	0
 6639 0036 05       		.uleb128 0x5
 6640 0037 35       		.uleb128 0x35
 6641 0038 00       		.byte	0
 6642 0039 49       		.uleb128 0x49
 6643 003a 13       		.uleb128 0x13
 6644 003b 00       		.byte	0
 6645 003c 00       		.byte	0
 6646 003d 06       		.uleb128 0x6
 6647 003e 26       		.uleb128 0x26
 6648 003f 00       		.byte	0
 6649 0040 49       		.uleb128 0x49
 6650 0041 13       		.uleb128 0x13
 6651 0042 00       		.byte	0
 6652 0043 00       		.byte	0
 6653 0044 07       		.uleb128 0x7
 6654 0045 01       		.uleb128 0x1
 6655 0046 01       		.byte	0x1
 6656 0047 49       		.uleb128 0x49
 6657 0048 13       		.uleb128 0x13
 6658 0049 01       		.uleb128 0x1
 6659 004a 13       		.uleb128 0x13
 6660 004b 00       		.byte	0
 6661 004c 00       		.byte	0
 6662 004d 08       		.uleb128 0x8
 6663 004e 21       		.uleb128 0x21
 6664 004f 00       		.byte	0
 6665 0050 49       		.uleb128 0x49
 6666 0051 13       		.uleb128 0x13
 6667 0052 2F       		.uleb128 0x2f
ARM GAS  C:\Users\pearlstl\AppData\Local\Temp\ccAUXqAU.s 			page 202


 6668 0053 0B       		.uleb128 0xb
 6669 0054 00       		.byte	0
 6670 0055 00       		.byte	0
 6671 0056 09       		.uleb128 0x9
 6672 0057 13       		.uleb128 0x13
 6673 0058 01       		.byte	0x1
 6674 0059 0B       		.uleb128 0xb
 6675 005a 0B       		.uleb128 0xb
 6676 005b 3A       		.uleb128 0x3a
 6677 005c 0B       		.uleb128 0xb
 6678 005d 3B       		.uleb128 0x3b
 6679 005e 0B       		.uleb128 0xb
 6680 005f 01       		.uleb128 0x1
 6681 0060 13       		.uleb128 0x13
 6682 0061 00       		.byte	0
 6683 0062 00       		.byte	0
 6684 0063 0A       		.uleb128 0xa
 6685 0064 0D       		.uleb128 0xd
 6686 0065 00       		.byte	0
 6687 0066 03       		.uleb128 0x3
 6688 0067 0E       		.uleb128 0xe
 6689 0068 3A       		.uleb128 0x3a
 6690 0069 0B       		.uleb128 0xb
 6691 006a 3B       		.uleb128 0x3b
 6692 006b 0B       		.uleb128 0xb
 6693 006c 49       		.uleb128 0x49
 6694 006d 13       		.uleb128 0x13
 6695 006e 38       		.uleb128 0x38
 6696 006f 0B       		.uleb128 0xb
 6697 0070 00       		.byte	0
 6698 0071 00       		.byte	0
 6699 0072 0B       		.uleb128 0xb
 6700 0073 21       		.uleb128 0x21
 6701 0074 00       		.byte	0
 6702 0075 49       		.uleb128 0x49
 6703 0076 13       		.uleb128 0x13
 6704 0077 2F       		.uleb128 0x2f
 6705 0078 05       		.uleb128 0x5
 6706 0079 00       		.byte	0
 6707 007a 00       		.byte	0
 6708 007b 0C       		.uleb128 0xc
 6709 007c 13       		.uleb128 0x13
 6710 007d 01       		.byte	0x1
 6711 007e 0B       		.uleb128 0xb
 6712 007f 05       		.uleb128 0x5
 6713 0080 3A       		.uleb128 0x3a
 6714 0081 0B       		.uleb128 0xb
 6715 0082 3B       		.uleb128 0x3b
 6716 0083 0B       		.uleb128 0xb
 6717 0084 01       		.uleb128 0x1
 6718 0085 13       		.uleb128 0x13
 6719 0086 00       		.byte	0
 6720 0087 00       		.byte	0
 6721 0088 0D       		.uleb128 0xd
 6722 0089 0D       		.uleb128 0xd
 6723 008a 00       		.byte	0
 6724 008b 03       		.uleb128 0x3
ARM GAS  C:\Users\pearlstl\AppData\Local\Temp\ccAUXqAU.s 			page 203


 6725 008c 0E       		.uleb128 0xe
 6726 008d 3A       		.uleb128 0x3a
 6727 008e 0B       		.uleb128 0xb
 6728 008f 3B       		.uleb128 0x3b
 6729 0090 0B       		.uleb128 0xb
 6730 0091 49       		.uleb128 0x49
 6731 0092 13       		.uleb128 0x13
 6732 0093 38       		.uleb128 0x38
 6733 0094 05       		.uleb128 0x5
 6734 0095 00       		.byte	0
 6735 0096 00       		.byte	0
 6736 0097 0E       		.uleb128 0xe
 6737 0098 16       		.uleb128 0x16
 6738 0099 00       		.byte	0
 6739 009a 03       		.uleb128 0x3
 6740 009b 0E       		.uleb128 0xe
 6741 009c 3A       		.uleb128 0x3a
 6742 009d 0B       		.uleb128 0xb
 6743 009e 3B       		.uleb128 0x3b
 6744 009f 05       		.uleb128 0x5
 6745 00a0 49       		.uleb128 0x49
 6746 00a1 13       		.uleb128 0x13
 6747 00a2 00       		.byte	0
 6748 00a3 00       		.byte	0
 6749 00a4 0F       		.uleb128 0xf
 6750 00a5 04       		.uleb128 0x4
 6751 00a6 01       		.byte	0x1
 6752 00a7 0B       		.uleb128 0xb
 6753 00a8 0B       		.uleb128 0xb
 6754 00a9 49       		.uleb128 0x49
 6755 00aa 13       		.uleb128 0x13
 6756 00ab 3A       		.uleb128 0x3a
 6757 00ac 0B       		.uleb128 0xb
 6758 00ad 3B       		.uleb128 0x3b
 6759 00ae 05       		.uleb128 0x5
 6760 00af 01       		.uleb128 0x1
 6761 00b0 13       		.uleb128 0x13
 6762 00b1 00       		.byte	0
 6763 00b2 00       		.byte	0
 6764 00b3 10       		.uleb128 0x10
 6765 00b4 28       		.uleb128 0x28
 6766 00b5 00       		.byte	0
 6767 00b6 03       		.uleb128 0x3
 6768 00b7 0E       		.uleb128 0xe
 6769 00b8 1C       		.uleb128 0x1c
 6770 00b9 0B       		.uleb128 0xb
 6771 00ba 00       		.byte	0
 6772 00bb 00       		.byte	0
 6773 00bc 11       		.uleb128 0x11
 6774 00bd 28       		.uleb128 0x28
 6775 00be 00       		.byte	0
 6776 00bf 03       		.uleb128 0x3
 6777 00c0 0E       		.uleb128 0xe
 6778 00c1 1C       		.uleb128 0x1c
 6779 00c2 06       		.uleb128 0x6
 6780 00c3 00       		.byte	0
 6781 00c4 00       		.byte	0
ARM GAS  C:\Users\pearlstl\AppData\Local\Temp\ccAUXqAU.s 			page 204


 6782 00c5 12       		.uleb128 0x12
 6783 00c6 13       		.uleb128 0x13
 6784 00c7 01       		.byte	0x1
 6785 00c8 0B       		.uleb128 0xb
 6786 00c9 0B       		.uleb128 0xb
 6787 00ca 3A       		.uleb128 0x3a
 6788 00cb 0B       		.uleb128 0xb
 6789 00cc 3B       		.uleb128 0x3b
 6790 00cd 05       		.uleb128 0x5
 6791 00ce 01       		.uleb128 0x1
 6792 00cf 13       		.uleb128 0x13
 6793 00d0 00       		.byte	0
 6794 00d1 00       		.byte	0
 6795 00d2 13       		.uleb128 0x13
 6796 00d3 0D       		.uleb128 0xd
 6797 00d4 00       		.byte	0
 6798 00d5 03       		.uleb128 0x3
 6799 00d6 0E       		.uleb128 0xe
 6800 00d7 3A       		.uleb128 0x3a
 6801 00d8 0B       		.uleb128 0xb
 6802 00d9 3B       		.uleb128 0x3b
 6803 00da 05       		.uleb128 0x5
 6804 00db 49       		.uleb128 0x49
 6805 00dc 13       		.uleb128 0x13
 6806 00dd 38       		.uleb128 0x38
 6807 00de 0B       		.uleb128 0xb
 6808 00df 00       		.byte	0
 6809 00e0 00       		.byte	0
 6810 00e1 14       		.uleb128 0x14
 6811 00e2 0F       		.uleb128 0xf
 6812 00e3 00       		.byte	0
 6813 00e4 0B       		.uleb128 0xb
 6814 00e5 0B       		.uleb128 0xb
 6815 00e6 00       		.byte	0
 6816 00e7 00       		.byte	0
 6817 00e8 15       		.uleb128 0x15
 6818 00e9 0F       		.uleb128 0xf
 6819 00ea 00       		.byte	0
 6820 00eb 0B       		.uleb128 0xb
 6821 00ec 0B       		.uleb128 0xb
 6822 00ed 49       		.uleb128 0x49
 6823 00ee 13       		.uleb128 0x13
 6824 00ef 00       		.byte	0
 6825 00f0 00       		.byte	0
 6826 00f1 16       		.uleb128 0x16
 6827 00f2 15       		.uleb128 0x15
 6828 00f3 01       		.byte	0x1
 6829 00f4 27       		.uleb128 0x27
 6830 00f5 19       		.uleb128 0x19
 6831 00f6 01       		.uleb128 0x1
 6832 00f7 13       		.uleb128 0x13
 6833 00f8 00       		.byte	0
 6834 00f9 00       		.byte	0
 6835 00fa 17       		.uleb128 0x17
 6836 00fb 05       		.uleb128 0x5
 6837 00fc 00       		.byte	0
 6838 00fd 49       		.uleb128 0x49
ARM GAS  C:\Users\pearlstl\AppData\Local\Temp\ccAUXqAU.s 			page 205


 6839 00fe 13       		.uleb128 0x13
 6840 00ff 00       		.byte	0
 6841 0100 00       		.byte	0
 6842 0101 18       		.uleb128 0x18
 6843 0102 13       		.uleb128 0x13
 6844 0103 01       		.byte	0x1
 6845 0104 03       		.uleb128 0x3
 6846 0105 0E       		.uleb128 0xe
 6847 0106 0B       		.uleb128 0xb
 6848 0107 0B       		.uleb128 0xb
 6849 0108 3A       		.uleb128 0x3a
 6850 0109 0B       		.uleb128 0xb
 6851 010a 3B       		.uleb128 0x3b
 6852 010b 05       		.uleb128 0x5
 6853 010c 01       		.uleb128 0x1
 6854 010d 13       		.uleb128 0x13
 6855 010e 00       		.byte	0
 6856 010f 00       		.byte	0
 6857 0110 19       		.uleb128 0x19
 6858 0111 2E       		.uleb128 0x2e
 6859 0112 01       		.byte	0x1
 6860 0113 03       		.uleb128 0x3
 6861 0114 0E       		.uleb128 0xe
 6862 0115 3A       		.uleb128 0x3a
 6863 0116 0B       		.uleb128 0xb
 6864 0117 3B       		.uleb128 0x3b
 6865 0118 05       		.uleb128 0x5
 6866 0119 27       		.uleb128 0x27
 6867 011a 19       		.uleb128 0x19
 6868 011b 49       		.uleb128 0x49
 6869 011c 13       		.uleb128 0x13
 6870 011d 20       		.uleb128 0x20
 6871 011e 0B       		.uleb128 0xb
 6872 011f 01       		.uleb128 0x1
 6873 0120 13       		.uleb128 0x13
 6874 0121 00       		.byte	0
 6875 0122 00       		.byte	0
 6876 0123 1A       		.uleb128 0x1a
 6877 0124 05       		.uleb128 0x5
 6878 0125 00       		.byte	0
 6879 0126 03       		.uleb128 0x3
 6880 0127 0E       		.uleb128 0xe
 6881 0128 3A       		.uleb128 0x3a
 6882 0129 0B       		.uleb128 0xb
 6883 012a 3B       		.uleb128 0x3b
 6884 012b 05       		.uleb128 0x5
 6885 012c 49       		.uleb128 0x49
 6886 012d 13       		.uleb128 0x13
 6887 012e 00       		.byte	0
 6888 012f 00       		.byte	0
 6889 0130 1B       		.uleb128 0x1b
 6890 0131 2E       		.uleb128 0x2e
 6891 0132 01       		.byte	0x1
 6892 0133 03       		.uleb128 0x3
 6893 0134 0E       		.uleb128 0xe
 6894 0135 3A       		.uleb128 0x3a
 6895 0136 0B       		.uleb128 0xb
ARM GAS  C:\Users\pearlstl\AppData\Local\Temp\ccAUXqAU.s 			page 206


 6896 0137 3B       		.uleb128 0x3b
 6897 0138 05       		.uleb128 0x5
 6898 0139 27       		.uleb128 0x27
 6899 013a 19       		.uleb128 0x19
 6900 013b 20       		.uleb128 0x20
 6901 013c 0B       		.uleb128 0xb
 6902 013d 01       		.uleb128 0x1
 6903 013e 13       		.uleb128 0x13
 6904 013f 00       		.byte	0
 6905 0140 00       		.byte	0
 6906 0141 1C       		.uleb128 0x1c
 6907 0142 2E       		.uleb128 0x2e
 6908 0143 01       		.byte	0x1
 6909 0144 3F       		.uleb128 0x3f
 6910 0145 19       		.uleb128 0x19
 6911 0146 03       		.uleb128 0x3
 6912 0147 0E       		.uleb128 0xe
 6913 0148 3A       		.uleb128 0x3a
 6914 0149 0B       		.uleb128 0xb
 6915 014a 3B       		.uleb128 0x3b
 6916 014b 05       		.uleb128 0x5
 6917 014c 27       		.uleb128 0x27
 6918 014d 19       		.uleb128 0x19
 6919 014e 20       		.uleb128 0x20
 6920 014f 0B       		.uleb128 0xb
 6921 0150 01       		.uleb128 0x1
 6922 0151 13       		.uleb128 0x13
 6923 0152 00       		.byte	0
 6924 0153 00       		.byte	0
 6925 0154 1D       		.uleb128 0x1d
 6926 0155 2E       		.uleb128 0x2e
 6927 0156 01       		.byte	0x1
 6928 0157 3F       		.uleb128 0x3f
 6929 0158 19       		.uleb128 0x19
 6930 0159 03       		.uleb128 0x3
 6931 015a 0E       		.uleb128 0xe
 6932 015b 3A       		.uleb128 0x3a
 6933 015c 0B       		.uleb128 0xb
 6934 015d 3B       		.uleb128 0x3b
 6935 015e 05       		.uleb128 0x5
 6936 015f 27       		.uleb128 0x27
 6937 0160 19       		.uleb128 0x19
 6938 0161 49       		.uleb128 0x49
 6939 0162 13       		.uleb128 0x13
 6940 0163 20       		.uleb128 0x20
 6941 0164 0B       		.uleb128 0xb
 6942 0165 01       		.uleb128 0x1
 6943 0166 13       		.uleb128 0x13
 6944 0167 00       		.byte	0
 6945 0168 00       		.byte	0
 6946 0169 1E       		.uleb128 0x1e
 6947 016a 2E       		.uleb128 0x2e
 6948 016b 01       		.byte	0x1
 6949 016c 3F       		.uleb128 0x3f
 6950 016d 19       		.uleb128 0x19
 6951 016e 03       		.uleb128 0x3
 6952 016f 0E       		.uleb128 0xe
ARM GAS  C:\Users\pearlstl\AppData\Local\Temp\ccAUXqAU.s 			page 207


 6953 0170 3A       		.uleb128 0x3a
 6954 0171 0B       		.uleb128 0xb
 6955 0172 3B       		.uleb128 0x3b
 6956 0173 0B       		.uleb128 0xb
 6957 0174 27       		.uleb128 0x27
 6958 0175 19       		.uleb128 0x19
 6959 0176 49       		.uleb128 0x49
 6960 0177 13       		.uleb128 0x13
 6961 0178 11       		.uleb128 0x11
 6962 0179 01       		.uleb128 0x1
 6963 017a 12       		.uleb128 0x12
 6964 017b 06       		.uleb128 0x6
 6965 017c 40       		.uleb128 0x40
 6966 017d 18       		.uleb128 0x18
 6967 017e 9742     		.uleb128 0x2117
 6968 0180 19       		.uleb128 0x19
 6969 0181 01       		.uleb128 0x1
 6970 0182 13       		.uleb128 0x13
 6971 0183 00       		.byte	0
 6972 0184 00       		.byte	0
 6973 0185 1F       		.uleb128 0x1f
 6974 0186 05       		.uleb128 0x5
 6975 0187 00       		.byte	0
 6976 0188 03       		.uleb128 0x3
 6977 0189 0E       		.uleb128 0xe
 6978 018a 3A       		.uleb128 0x3a
 6979 018b 0B       		.uleb128 0xb
 6980 018c 3B       		.uleb128 0x3b
 6981 018d 0B       		.uleb128 0xb
 6982 018e 49       		.uleb128 0x49
 6983 018f 13       		.uleb128 0x13
 6984 0190 02       		.uleb128 0x2
 6985 0191 17       		.uleb128 0x17
 6986 0192 00       		.byte	0
 6987 0193 00       		.byte	0
 6988 0194 20       		.uleb128 0x20
 6989 0195 34       		.uleb128 0x34
 6990 0196 00       		.byte	0
 6991 0197 03       		.uleb128 0x3
 6992 0198 08       		.uleb128 0x8
 6993 0199 3A       		.uleb128 0x3a
 6994 019a 0B       		.uleb128 0xb
 6995 019b 3B       		.uleb128 0x3b
 6996 019c 0B       		.uleb128 0xb
 6997 019d 49       		.uleb128 0x49
 6998 019e 13       		.uleb128 0x13
 6999 019f 02       		.uleb128 0x2
 7000 01a0 17       		.uleb128 0x17
 7001 01a1 00       		.byte	0
 7002 01a2 00       		.byte	0
 7003 01a3 21       		.uleb128 0x21
 7004 01a4 2E       		.uleb128 0x2e
 7005 01a5 01       		.byte	0x1
 7006 01a6 3F       		.uleb128 0x3f
 7007 01a7 19       		.uleb128 0x19
 7008 01a8 03       		.uleb128 0x3
 7009 01a9 0E       		.uleb128 0xe
ARM GAS  C:\Users\pearlstl\AppData\Local\Temp\ccAUXqAU.s 			page 208


 7010 01aa 3A       		.uleb128 0x3a
 7011 01ab 0B       		.uleb128 0xb
 7012 01ac 3B       		.uleb128 0x3b
 7013 01ad 0B       		.uleb128 0xb
 7014 01ae 27       		.uleb128 0x27
 7015 01af 19       		.uleb128 0x19
 7016 01b0 11       		.uleb128 0x11
 7017 01b1 01       		.uleb128 0x1
 7018 01b2 12       		.uleb128 0x12
 7019 01b3 06       		.uleb128 0x6
 7020 01b4 40       		.uleb128 0x40
 7021 01b5 18       		.uleb128 0x18
 7022 01b6 9742     		.uleb128 0x2117
 7023 01b8 19       		.uleb128 0x19
 7024 01b9 01       		.uleb128 0x1
 7025 01ba 13       		.uleb128 0x13
 7026 01bb 00       		.byte	0
 7027 01bc 00       		.byte	0
 7028 01bd 22       		.uleb128 0x22
 7029 01be 05       		.uleb128 0x5
 7030 01bf 00       		.byte	0
 7031 01c0 03       		.uleb128 0x3
 7032 01c1 0E       		.uleb128 0xe
 7033 01c2 3A       		.uleb128 0x3a
 7034 01c3 0B       		.uleb128 0xb
 7035 01c4 3B       		.uleb128 0x3b
 7036 01c5 0B       		.uleb128 0xb
 7037 01c6 49       		.uleb128 0x49
 7038 01c7 13       		.uleb128 0x13
 7039 01c8 02       		.uleb128 0x2
 7040 01c9 18       		.uleb128 0x18
 7041 01ca 00       		.byte	0
 7042 01cb 00       		.byte	0
 7043 01cc 23       		.uleb128 0x23
 7044 01cd 2E       		.uleb128 0x2e
 7045 01ce 01       		.byte	0x1
 7046 01cf 3F       		.uleb128 0x3f
 7047 01d0 19       		.uleb128 0x19
 7048 01d1 03       		.uleb128 0x3
 7049 01d2 0E       		.uleb128 0xe
 7050 01d3 3A       		.uleb128 0x3a
 7051 01d4 0B       		.uleb128 0xb
 7052 01d5 3B       		.uleb128 0x3b
 7053 01d6 05       		.uleb128 0x5
 7054 01d7 27       		.uleb128 0x27
 7055 01d8 19       		.uleb128 0x19
 7056 01d9 49       		.uleb128 0x49
 7057 01da 13       		.uleb128 0x13
 7058 01db 11       		.uleb128 0x11
 7059 01dc 01       		.uleb128 0x1
 7060 01dd 12       		.uleb128 0x12
 7061 01de 06       		.uleb128 0x6
 7062 01df 40       		.uleb128 0x40
 7063 01e0 18       		.uleb128 0x18
 7064 01e1 9742     		.uleb128 0x2117
 7065 01e3 19       		.uleb128 0x19
 7066 01e4 01       		.uleb128 0x1
ARM GAS  C:\Users\pearlstl\AppData\Local\Temp\ccAUXqAU.s 			page 209


 7067 01e5 13       		.uleb128 0x13
 7068 01e6 00       		.byte	0
 7069 01e7 00       		.byte	0
 7070 01e8 24       		.uleb128 0x24
 7071 01e9 05       		.uleb128 0x5
 7072 01ea 00       		.byte	0
 7073 01eb 03       		.uleb128 0x3
 7074 01ec 0E       		.uleb128 0xe
 7075 01ed 3A       		.uleb128 0x3a
 7076 01ee 0B       		.uleb128 0xb
 7077 01ef 3B       		.uleb128 0x3b
 7078 01f0 05       		.uleb128 0x5
 7079 01f1 49       		.uleb128 0x49
 7080 01f2 13       		.uleb128 0x13
 7081 01f3 02       		.uleb128 0x2
 7082 01f4 17       		.uleb128 0x17
 7083 01f5 00       		.byte	0
 7084 01f6 00       		.byte	0
 7085 01f7 25       		.uleb128 0x25
 7086 01f8 34       		.uleb128 0x34
 7087 01f9 00       		.byte	0
 7088 01fa 03       		.uleb128 0x3
 7089 01fb 0E       		.uleb128 0xe
 7090 01fc 3A       		.uleb128 0x3a
 7091 01fd 0B       		.uleb128 0xb
 7092 01fe 3B       		.uleb128 0x3b
 7093 01ff 05       		.uleb128 0x5
 7094 0200 49       		.uleb128 0x49
 7095 0201 13       		.uleb128 0x13
 7096 0202 02       		.uleb128 0x2
 7097 0203 17       		.uleb128 0x17
 7098 0204 00       		.byte	0
 7099 0205 00       		.byte	0
 7100 0206 26       		.uleb128 0x26
 7101 0207 1D       		.uleb128 0x1d
 7102 0208 01       		.byte	0x1
 7103 0209 31       		.uleb128 0x31
 7104 020a 13       		.uleb128 0x13
 7105 020b 11       		.uleb128 0x11
 7106 020c 01       		.uleb128 0x1
 7107 020d 12       		.uleb128 0x12
 7108 020e 06       		.uleb128 0x6
 7109 020f 58       		.uleb128 0x58
 7110 0210 0B       		.uleb128 0xb
 7111 0211 59       		.uleb128 0x59
 7112 0212 05       		.uleb128 0x5
 7113 0213 01       		.uleb128 0x1
 7114 0214 13       		.uleb128 0x13
 7115 0215 00       		.byte	0
 7116 0216 00       		.byte	0
 7117 0217 27       		.uleb128 0x27
 7118 0218 05       		.uleb128 0x5
 7119 0219 00       		.byte	0
 7120 021a 31       		.uleb128 0x31
 7121 021b 13       		.uleb128 0x13
 7122 021c 02       		.uleb128 0x2
 7123 021d 17       		.uleb128 0x17
ARM GAS  C:\Users\pearlstl\AppData\Local\Temp\ccAUXqAU.s 			page 210


 7124 021e 00       		.byte	0
 7125 021f 00       		.byte	0
 7126 0220 28       		.uleb128 0x28
 7127 0221 1D       		.uleb128 0x1d
 7128 0222 01       		.byte	0x1
 7129 0223 31       		.uleb128 0x31
 7130 0224 13       		.uleb128 0x13
 7131 0225 11       		.uleb128 0x11
 7132 0226 01       		.uleb128 0x1
 7133 0227 12       		.uleb128 0x12
 7134 0228 06       		.uleb128 0x6
 7135 0229 58       		.uleb128 0x58
 7136 022a 0B       		.uleb128 0xb
 7137 022b 59       		.uleb128 0x59
 7138 022c 05       		.uleb128 0x5
 7139 022d 00       		.byte	0
 7140 022e 00       		.byte	0
 7141 022f 29       		.uleb128 0x29
 7142 0230 898201   		.uleb128 0x4109
 7143 0233 00       		.byte	0
 7144 0234 11       		.uleb128 0x11
 7145 0235 01       		.uleb128 0x1
 7146 0236 31       		.uleb128 0x31
 7147 0237 13       		.uleb128 0x13
 7148 0238 00       		.byte	0
 7149 0239 00       		.byte	0
 7150 023a 2A       		.uleb128 0x2a
 7151 023b 898201   		.uleb128 0x4109
 7152 023e 01       		.byte	0x1
 7153 023f 11       		.uleb128 0x11
 7154 0240 01       		.uleb128 0x1
 7155 0241 31       		.uleb128 0x31
 7156 0242 13       		.uleb128 0x13
 7157 0243 00       		.byte	0
 7158 0244 00       		.byte	0
 7159 0245 2B       		.uleb128 0x2b
 7160 0246 8A8201   		.uleb128 0x410a
 7161 0249 00       		.byte	0
 7162 024a 02       		.uleb128 0x2
 7163 024b 18       		.uleb128 0x18
 7164 024c 9142     		.uleb128 0x2111
 7165 024e 18       		.uleb128 0x18
 7166 024f 00       		.byte	0
 7167 0250 00       		.byte	0
 7168 0251 2C       		.uleb128 0x2c
 7169 0252 2E       		.uleb128 0x2e
 7170 0253 01       		.byte	0x1
 7171 0254 3F       		.uleb128 0x3f
 7172 0255 19       		.uleb128 0x19
 7173 0256 03       		.uleb128 0x3
 7174 0257 0E       		.uleb128 0xe
 7175 0258 3A       		.uleb128 0x3a
 7176 0259 0B       		.uleb128 0xb
 7177 025a 3B       		.uleb128 0x3b
 7178 025b 05       		.uleb128 0x5
 7179 025c 27       		.uleb128 0x27
 7180 025d 19       		.uleb128 0x19
ARM GAS  C:\Users\pearlstl\AppData\Local\Temp\ccAUXqAU.s 			page 211


 7181 025e 11       		.uleb128 0x11
 7182 025f 01       		.uleb128 0x1
 7183 0260 12       		.uleb128 0x12
 7184 0261 06       		.uleb128 0x6
 7185 0262 40       		.uleb128 0x40
 7186 0263 18       		.uleb128 0x18
 7187 0264 9742     		.uleb128 0x2117
 7188 0266 19       		.uleb128 0x19
 7189 0267 01       		.uleb128 0x1
 7190 0268 13       		.uleb128 0x13
 7191 0269 00       		.byte	0
 7192 026a 00       		.byte	0
 7193 026b 2D       		.uleb128 0x2d
 7194 026c 05       		.uleb128 0x5
 7195 026d 00       		.byte	0
 7196 026e 03       		.uleb128 0x3
 7197 026f 0E       		.uleb128 0xe
 7198 0270 3A       		.uleb128 0x3a
 7199 0271 0B       		.uleb128 0xb
 7200 0272 3B       		.uleb128 0x3b
 7201 0273 05       		.uleb128 0x5
 7202 0274 49       		.uleb128 0x49
 7203 0275 13       		.uleb128 0x13
 7204 0276 02       		.uleb128 0x2
 7205 0277 18       		.uleb128 0x18
 7206 0278 00       		.byte	0
 7207 0279 00       		.byte	0
 7208 027a 2E       		.uleb128 0x2e
 7209 027b 0B       		.uleb128 0xb
 7210 027c 01       		.byte	0x1
 7211 027d 11       		.uleb128 0x11
 7212 027e 01       		.uleb128 0x1
 7213 027f 12       		.uleb128 0x12
 7214 0280 06       		.uleb128 0x6
 7215 0281 00       		.byte	0
 7216 0282 00       		.byte	0
 7217 0283 2F       		.uleb128 0x2f
 7218 0284 1D       		.uleb128 0x1d
 7219 0285 01       		.byte	0x1
 7220 0286 31       		.uleb128 0x31
 7221 0287 13       		.uleb128 0x13
 7222 0288 52       		.uleb128 0x52
 7223 0289 01       		.uleb128 0x1
 7224 028a 55       		.uleb128 0x55
 7225 028b 17       		.uleb128 0x17
 7226 028c 58       		.uleb128 0x58
 7227 028d 0B       		.uleb128 0xb
 7228 028e 59       		.uleb128 0x59
 7229 028f 05       		.uleb128 0x5
 7230 0290 01       		.uleb128 0x1
 7231 0291 13       		.uleb128 0x13
 7232 0292 00       		.byte	0
 7233 0293 00       		.byte	0
 7234 0294 30       		.uleb128 0x30
 7235 0295 1D       		.uleb128 0x1d
 7236 0296 01       		.byte	0x1
 7237 0297 31       		.uleb128 0x31
ARM GAS  C:\Users\pearlstl\AppData\Local\Temp\ccAUXqAU.s 			page 212


 7238 0298 13       		.uleb128 0x13
 7239 0299 52       		.uleb128 0x52
 7240 029a 01       		.uleb128 0x1
 7241 029b 55       		.uleb128 0x55
 7242 029c 17       		.uleb128 0x17
 7243 029d 58       		.uleb128 0x58
 7244 029e 0B       		.uleb128 0xb
 7245 029f 59       		.uleb128 0x59
 7246 02a0 05       		.uleb128 0x5
 7247 02a1 00       		.byte	0
 7248 02a2 00       		.byte	0
 7249 02a3 31       		.uleb128 0x31
 7250 02a4 2E       		.uleb128 0x2e
 7251 02a5 01       		.byte	0x1
 7252 02a6 31       		.uleb128 0x31
 7253 02a7 13       		.uleb128 0x13
 7254 02a8 11       		.uleb128 0x11
 7255 02a9 01       		.uleb128 0x1
 7256 02aa 12       		.uleb128 0x12
 7257 02ab 06       		.uleb128 0x6
 7258 02ac 40       		.uleb128 0x40
 7259 02ad 18       		.uleb128 0x18
 7260 02ae 9742     		.uleb128 0x2117
 7261 02b0 19       		.uleb128 0x19
 7262 02b1 01       		.uleb128 0x1
 7263 02b2 13       		.uleb128 0x13
 7264 02b3 00       		.byte	0
 7265 02b4 00       		.byte	0
 7266 02b5 32       		.uleb128 0x32
 7267 02b6 05       		.uleb128 0x5
 7268 02b7 00       		.byte	0
 7269 02b8 31       		.uleb128 0x31
 7270 02b9 13       		.uleb128 0x13
 7271 02ba 02       		.uleb128 0x2
 7272 02bb 18       		.uleb128 0x18
 7273 02bc 00       		.byte	0
 7274 02bd 00       		.byte	0
 7275 02be 33       		.uleb128 0x33
 7276 02bf 0B       		.uleb128 0xb
 7277 02c0 01       		.byte	0x1
 7278 02c1 11       		.uleb128 0x11
 7279 02c2 01       		.uleb128 0x1
 7280 02c3 12       		.uleb128 0x12
 7281 02c4 06       		.uleb128 0x6
 7282 02c5 01       		.uleb128 0x1
 7283 02c6 13       		.uleb128 0x13
 7284 02c7 00       		.byte	0
 7285 02c8 00       		.byte	0
 7286 02c9 34       		.uleb128 0x34
 7287 02ca 34       		.uleb128 0x34
 7288 02cb 00       		.byte	0
 7289 02cc 03       		.uleb128 0x3
 7290 02cd 08       		.uleb128 0x8
 7291 02ce 3A       		.uleb128 0x3a
 7292 02cf 0B       		.uleb128 0xb
 7293 02d0 3B       		.uleb128 0x3b
 7294 02d1 05       		.uleb128 0x5
ARM GAS  C:\Users\pearlstl\AppData\Local\Temp\ccAUXqAU.s 			page 213


 7295 02d2 49       		.uleb128 0x49
 7296 02d3 13       		.uleb128 0x13
 7297 02d4 02       		.uleb128 0x2
 7298 02d5 17       		.uleb128 0x17
 7299 02d6 00       		.byte	0
 7300 02d7 00       		.byte	0
 7301 02d8 35       		.uleb128 0x35
 7302 02d9 34       		.uleb128 0x34
 7303 02da 00       		.byte	0
 7304 02db 03       		.uleb128 0x3
 7305 02dc 0E       		.uleb128 0xe
 7306 02dd 3A       		.uleb128 0x3a
 7307 02de 0B       		.uleb128 0xb
 7308 02df 3B       		.uleb128 0x3b
 7309 02e0 05       		.uleb128 0x5
 7310 02e1 49       		.uleb128 0x49
 7311 02e2 13       		.uleb128 0x13
 7312 02e3 00       		.byte	0
 7313 02e4 00       		.byte	0
 7314 02e5 36       		.uleb128 0x36
 7315 02e6 898201   		.uleb128 0x4109
 7316 02e9 01       		.byte	0x1
 7317 02ea 11       		.uleb128 0x11
 7318 02eb 01       		.uleb128 0x1
 7319 02ec 00       		.byte	0
 7320 02ed 00       		.byte	0
 7321 02ee 37       		.uleb128 0x37
 7322 02ef 0B       		.uleb128 0xb
 7323 02f0 01       		.byte	0x1
 7324 02f1 55       		.uleb128 0x55
 7325 02f2 17       		.uleb128 0x17
 7326 02f3 01       		.uleb128 0x1
 7327 02f4 13       		.uleb128 0x13
 7328 02f5 00       		.byte	0
 7329 02f6 00       		.byte	0
 7330 02f7 38       		.uleb128 0x38
 7331 02f8 05       		.uleb128 0x5
 7332 02f9 00       		.byte	0
 7333 02fa 31       		.uleb128 0x31
 7334 02fb 13       		.uleb128 0x13
 7335 02fc 1C       		.uleb128 0x1c
 7336 02fd 0B       		.uleb128 0xb
 7337 02fe 00       		.byte	0
 7338 02ff 00       		.byte	0
 7339 0300 39       		.uleb128 0x39
 7340 0301 0B       		.uleb128 0xb
 7341 0302 01       		.byte	0x1
 7342 0303 00       		.byte	0
 7343 0304 00       		.byte	0
 7344 0305 3A       		.uleb128 0x3a
 7345 0306 34       		.uleb128 0x34
 7346 0307 00       		.byte	0
 7347 0308 03       		.uleb128 0x3
 7348 0309 08       		.uleb128 0x8
 7349 030a 3A       		.uleb128 0x3a
 7350 030b 0B       		.uleb128 0xb
 7351 030c 3B       		.uleb128 0x3b
ARM GAS  C:\Users\pearlstl\AppData\Local\Temp\ccAUXqAU.s 			page 214


 7352 030d 05       		.uleb128 0x5
 7353 030e 49       		.uleb128 0x49
 7354 030f 13       		.uleb128 0x13
 7355 0310 00       		.byte	0
 7356 0311 00       		.byte	0
 7357 0312 3B       		.uleb128 0x3b
 7358 0313 0B       		.uleb128 0xb
 7359 0314 01       		.byte	0x1
 7360 0315 01       		.uleb128 0x1
 7361 0316 13       		.uleb128 0x13
 7362 0317 00       		.byte	0
 7363 0318 00       		.byte	0
 7364 0319 3C       		.uleb128 0x3c
 7365 031a 34       		.uleb128 0x34
 7366 031b 00       		.byte	0
 7367 031c 31       		.uleb128 0x31
 7368 031d 13       		.uleb128 0x13
 7369 031e 00       		.byte	0
 7370 031f 00       		.byte	0
 7371 0320 3D       		.uleb128 0x3d
 7372 0321 34       		.uleb128 0x34
 7373 0322 00       		.byte	0
 7374 0323 31       		.uleb128 0x31
 7375 0324 13       		.uleb128 0x13
 7376 0325 02       		.uleb128 0x2
 7377 0326 17       		.uleb128 0x17
 7378 0327 00       		.byte	0
 7379 0328 00       		.byte	0
 7380 0329 3E       		.uleb128 0x3e
 7381 032a 05       		.uleb128 0x5
 7382 032b 00       		.byte	0
 7383 032c 31       		.uleb128 0x31
 7384 032d 13       		.uleb128 0x13
 7385 032e 00       		.byte	0
 7386 032f 00       		.byte	0
 7387 0330 3F       		.uleb128 0x3f
 7388 0331 898201   		.uleb128 0x4109
 7389 0334 01       		.byte	0x1
 7390 0335 11       		.uleb128 0x11
 7391 0336 01       		.uleb128 0x1
 7392 0337 01       		.uleb128 0x1
 7393 0338 13       		.uleb128 0x13
 7394 0339 00       		.byte	0
 7395 033a 00       		.byte	0
 7396 033b 40       		.uleb128 0x40
 7397 033c 34       		.uleb128 0x34
 7398 033d 00       		.byte	0
 7399 033e 03       		.uleb128 0x3
 7400 033f 0E       		.uleb128 0xe
 7401 0340 3A       		.uleb128 0x3a
 7402 0341 0B       		.uleb128 0xb
 7403 0342 3B       		.uleb128 0x3b
 7404 0343 0B       		.uleb128 0xb
 7405 0344 49       		.uleb128 0x49
 7406 0345 13       		.uleb128 0x13
 7407 0346 3F       		.uleb128 0x3f
 7408 0347 19       		.uleb128 0x19
ARM GAS  C:\Users\pearlstl\AppData\Local\Temp\ccAUXqAU.s 			page 215


 7409 0348 3C       		.uleb128 0x3c
 7410 0349 19       		.uleb128 0x19
 7411 034a 00       		.byte	0
 7412 034b 00       		.byte	0
 7413 034c 41       		.uleb128 0x41
 7414 034d 2E       		.uleb128 0x2e
 7415 034e 00       		.byte	0
 7416 034f 3F       		.uleb128 0x3f
 7417 0350 19       		.uleb128 0x19
 7418 0351 3C       		.uleb128 0x3c
 7419 0352 19       		.uleb128 0x19
 7420 0353 6E       		.uleb128 0x6e
 7421 0354 0E       		.uleb128 0xe
 7422 0355 03       		.uleb128 0x3
 7423 0356 0E       		.uleb128 0xe
 7424 0357 3A       		.uleb128 0x3a
 7425 0358 0B       		.uleb128 0xb
 7426 0359 3B       		.uleb128 0x3b
 7427 035a 0B       		.uleb128 0xb
 7428 035b 00       		.byte	0
 7429 035c 00       		.byte	0
 7430 035d 42       		.uleb128 0x42
 7431 035e 2E       		.uleb128 0x2e
 7432 035f 00       		.byte	0
 7433 0360 3F       		.uleb128 0x3f
 7434 0361 19       		.uleb128 0x19
 7435 0362 3C       		.uleb128 0x3c
 7436 0363 19       		.uleb128 0x19
 7437 0364 6E       		.uleb128 0x6e
 7438 0365 0E       		.uleb128 0xe
 7439 0366 03       		.uleb128 0x3
 7440 0367 0E       		.uleb128 0xe
 7441 0368 3A       		.uleb128 0x3a
 7442 0369 0B       		.uleb128 0xb
 7443 036a 3B       		.uleb128 0x3b
 7444 036b 05       		.uleb128 0x5
 7445 036c 00       		.byte	0
 7446 036d 00       		.byte	0
 7447 036e 00       		.byte	0
 7448              		.section	.debug_loc,"",%progbits
 7449              	.Ldebug_loc0:
 7450              	.LLST0:
 7451 0000 00000000 		.4byte	.LVL0
 7452 0004 98010000 		.4byte	.LVL4
 7453 0008 0100     		.2byte	0x1
 7454 000a 50       		.byte	0x50
 7455 000b 98010000 		.4byte	.LVL4
 7456 000f AE010000 		.4byte	.LVL7
 7457 0013 0400     		.2byte	0x4
 7458 0015 F3       		.byte	0xf3
 7459 0016 01       		.uleb128 0x1
 7460 0017 50       		.byte	0x50
 7461 0018 9F       		.byte	0x9f
 7462 0019 AE010000 		.4byte	.LVL7
 7463 001d B0010000 		.4byte	.LVL8
 7464 0021 0100     		.2byte	0x1
 7465 0023 50       		.byte	0x50
ARM GAS  C:\Users\pearlstl\AppData\Local\Temp\ccAUXqAU.s 			page 216


 7466 0024 B0010000 		.4byte	.LVL8
 7467 0028 C8010000 		.4byte	.LFE155
 7468 002c 0400     		.2byte	0x4
 7469 002e F3       		.byte	0xf3
 7470 002f 01       		.uleb128 0x1
 7471 0030 50       		.byte	0x50
 7472 0031 9F       		.byte	0x9f
 7473 0032 00000000 		.4byte	0
 7474 0036 00000000 		.4byte	0
 7475              	.LLST1:
 7476 003a 00000000 		.4byte	.LVL0
 7477 003e 86010000 		.4byte	.LVL3
 7478 0042 0100     		.2byte	0x1
 7479 0044 51       		.byte	0x51
 7480 0045 86010000 		.4byte	.LVL3
 7481 0049 AE010000 		.4byte	.LVL7
 7482 004d 0400     		.2byte	0x4
 7483 004f F3       		.byte	0xf3
 7484 0050 01       		.uleb128 0x1
 7485 0051 51       		.byte	0x51
 7486 0052 9F       		.byte	0x9f
 7487 0053 AE010000 		.4byte	.LVL7
 7488 0057 B0010000 		.4byte	.LVL8
 7489 005b 0100     		.2byte	0x1
 7490 005d 51       		.byte	0x51
 7491 005e B0010000 		.4byte	.LVL8
 7492 0062 C8010000 		.4byte	.LFE155
 7493 0066 0400     		.2byte	0x4
 7494 0068 F3       		.byte	0xf3
 7495 0069 01       		.uleb128 0x1
 7496 006a 51       		.byte	0x51
 7497 006b 9F       		.byte	0x9f
 7498 006c 00000000 		.4byte	0
 7499 0070 00000000 		.4byte	0
 7500              	.LLST2:
 7501 0074 00000000 		.4byte	.LVL0
 7502 0078 9C010000 		.4byte	.LVL5
 7503 007c 0100     		.2byte	0x1
 7504 007e 52       		.byte	0x52
 7505 007f 9C010000 		.4byte	.LVL5
 7506 0083 AC010000 		.4byte	.LVL6
 7507 0087 0100     		.2byte	0x1
 7508 0089 50       		.byte	0x50
 7509 008a AC010000 		.4byte	.LVL6
 7510 008e C8010000 		.4byte	.LFE155
 7511 0092 0100     		.2byte	0x1
 7512 0094 52       		.byte	0x52
 7513 0095 00000000 		.4byte	0
 7514 0099 00000000 		.4byte	0
 7515              	.LLST3:
 7516 009d 22000000 		.4byte	.LVL1
 7517 00a1 40000000 		.4byte	.LVL2
 7518 00a5 0100     		.2byte	0x1
 7519 00a7 57       		.byte	0x57
 7520 00a8 00000000 		.4byte	0
 7521 00ac 00000000 		.4byte	0
 7522              	.LLST4:
ARM GAS  C:\Users\pearlstl\AppData\Local\Temp\ccAUXqAU.s 			page 217


 7523 00b0 00000000 		.4byte	.LVL11
 7524 00b4 16000000 		.4byte	.LVL14
 7525 00b8 0100     		.2byte	0x1
 7526 00ba 50       		.byte	0x50
 7527 00bb 16000000 		.4byte	.LVL14
 7528 00bf 4A000000 		.4byte	.LVL23
 7529 00c3 0400     		.2byte	0x4
 7530 00c5 F3       		.byte	0xf3
 7531 00c6 01       		.uleb128 0x1
 7532 00c7 50       		.byte	0x50
 7533 00c8 9F       		.byte	0x9f
 7534 00c9 4A000000 		.4byte	.LVL23
 7535 00cd 54000000 		.4byte	.LVL25
 7536 00d1 0100     		.2byte	0x1
 7537 00d3 50       		.byte	0x50
 7538 00d4 54000000 		.4byte	.LVL25
 7539 00d8 60000000 		.4byte	.LFE158
 7540 00dc 0400     		.2byte	0x4
 7541 00de F3       		.byte	0xf3
 7542 00df 01       		.uleb128 0x1
 7543 00e0 50       		.byte	0x50
 7544 00e1 9F       		.byte	0x9f
 7545 00e2 00000000 		.4byte	0
 7546 00e6 00000000 		.4byte	0
 7547              	.LLST5:
 7548 00ea 00000000 		.4byte	.LVL11
 7549 00ee 14000000 		.4byte	.LVL13
 7550 00f2 0100     		.2byte	0x1
 7551 00f4 51       		.byte	0x51
 7552 00f5 14000000 		.4byte	.LVL13
 7553 00f9 4A000000 		.4byte	.LVL23
 7554 00fd 0400     		.2byte	0x4
 7555 00ff F3       		.byte	0xf3
 7556 0100 01       		.uleb128 0x1
 7557 0101 51       		.byte	0x51
 7558 0102 9F       		.byte	0x9f
 7559 0103 4A000000 		.4byte	.LVL23
 7560 0107 4C000000 		.4byte	.LVL24
 7561 010b 0100     		.2byte	0x1
 7562 010d 51       		.byte	0x51
 7563 010e 4C000000 		.4byte	.LVL24
 7564 0112 60000000 		.4byte	.LFE158
 7565 0116 0400     		.2byte	0x4
 7566 0118 F3       		.byte	0xf3
 7567 0119 01       		.uleb128 0x1
 7568 011a 51       		.byte	0x51
 7569 011b 9F       		.byte	0x9f
 7570 011c 00000000 		.4byte	0
 7571 0120 00000000 		.4byte	0
 7572              	.LLST6:
 7573 0124 00000000 		.4byte	.LVL11
 7574 0128 48000000 		.4byte	.LVL22
 7575 012c 0600     		.2byte	0x6
 7576 012e 0C       		.byte	0xc
 7577 012f FF004200 		.4byte	0x4200ff
 7578 0133 9F       		.byte	0x9f
 7579 0134 48000000 		.4byte	.LVL22
ARM GAS  C:\Users\pearlstl\AppData\Local\Temp\ccAUXqAU.s 			page 218


 7580 0138 4A000000 		.4byte	.LVL23
 7581 013c 0200     		.2byte	0x2
 7582 013e 30       		.byte	0x30
 7583 013f 9F       		.byte	0x9f
 7584 0140 4A000000 		.4byte	.LVL23
 7585 0144 54000000 		.4byte	.LVL25
 7586 0148 0600     		.2byte	0x6
 7587 014a 0C       		.byte	0xc
 7588 014b FF004200 		.4byte	0x4200ff
 7589 014f 9F       		.byte	0x9f
 7590 0150 54000000 		.4byte	.LVL25
 7591 0154 58000000 		.4byte	.LVL26
 7592 0158 0200     		.2byte	0x2
 7593 015a 30       		.byte	0x30
 7594 015b 9F       		.byte	0x9f
 7595 015c 58000000 		.4byte	.LVL26
 7596 0160 5A000000 		.4byte	.LVL27
 7597 0164 0600     		.2byte	0x6
 7598 0166 0C       		.byte	0xc
 7599 0167 FF004200 		.4byte	0x4200ff
 7600 016b 9F       		.byte	0x9f
 7601 016c 5A000000 		.4byte	.LVL27
 7602 0170 60000000 		.4byte	.LFE158
 7603 0174 0100     		.2byte	0x1
 7604 0176 50       		.byte	0x50
 7605 0177 00000000 		.4byte	0
 7606 017b 00000000 		.4byte	0
 7607              	.LLST7:
 7608 017f 06000000 		.4byte	.LVL12
 7609 0183 47000000 		.4byte	.LVL22-1
 7610 0187 0100     		.2byte	0x1
 7611 0189 53       		.byte	0x53
 7612 018a 4A000000 		.4byte	.LVL23
 7613 018e 54000000 		.4byte	.LVL25
 7614 0192 0100     		.2byte	0x1
 7615 0194 53       		.byte	0x53
 7616 0195 58000000 		.4byte	.LVL26
 7617 0199 5A000000 		.4byte	.LVL27
 7618 019d 0100     		.2byte	0x1
 7619 019f 53       		.byte	0x53
 7620 01a0 00000000 		.4byte	0
 7621 01a4 00000000 		.4byte	0
 7622              	.LLST8:
 7623 01a8 06000000 		.4byte	.LVL12
 7624 01ac 16000000 		.4byte	.LVL14
 7625 01b0 0200     		.2byte	0x2
 7626 01b2 70       		.byte	0x70
 7627 01b3 04       		.sleb128 4
 7628 01b4 16000000 		.4byte	.LVL14
 7629 01b8 47000000 		.4byte	.LVL22-1
 7630 01bc 0100     		.2byte	0x1
 7631 01be 51       		.byte	0x51
 7632 01bf 4A000000 		.4byte	.LVL23
 7633 01c3 54000000 		.4byte	.LVL25
 7634 01c7 0200     		.2byte	0x2
 7635 01c9 70       		.byte	0x70
 7636 01ca 04       		.sleb128 4
ARM GAS  C:\Users\pearlstl\AppData\Local\Temp\ccAUXqAU.s 			page 219


 7637 01cb 58000000 		.4byte	.LVL26
 7638 01cf 5A000000 		.4byte	.LVL27
 7639 01d3 0500     		.2byte	0x5
 7640 01d5 F3       		.byte	0xf3
 7641 01d6 01       		.uleb128 0x1
 7642 01d7 50       		.byte	0x50
 7643 01d8 23       		.byte	0x23
 7644 01d9 04       		.uleb128 0x4
 7645 01da 00000000 		.4byte	0
 7646 01de 00000000 		.4byte	0
 7647              	.LLST9:
 7648 01e2 14000000 		.4byte	.LVL13
 7649 01e6 16000000 		.4byte	.LVL14
 7650 01ea 0200     		.2byte	0x2
 7651 01ec 70       		.byte	0x70
 7652 01ed 04       		.sleb128 4
 7653 01ee 00000000 		.4byte	0
 7654 01f2 00000000 		.4byte	0
 7655              	.LLST10:
 7656 01f6 14000000 		.4byte	.LVL13
 7657 01fa 16000000 		.4byte	.LVL14
 7658 01fe 0100     		.2byte	0x1
 7659 0200 53       		.byte	0x53
 7660 0201 00000000 		.4byte	0
 7661 0205 00000000 		.4byte	0
 7662              	.LLST11:
 7663 0209 1A000000 		.4byte	.LVL15
 7664 020d 1C000000 		.4byte	.LVL16
 7665 0211 0100     		.2byte	0x1
 7666 0213 51       		.byte	0x51
 7667 0214 00000000 		.4byte	0
 7668 0218 00000000 		.4byte	0
 7669              	.LLST12:
 7670 021c 1A000000 		.4byte	.LVL15
 7671 0220 1C000000 		.4byte	.LVL16
 7672 0224 0100     		.2byte	0x1
 7673 0226 53       		.byte	0x53
 7674 0227 00000000 		.4byte	0
 7675 022b 00000000 		.4byte	0
 7676              	.LLST13:
 7677 022f 20000000 		.4byte	.LVL17
 7678 0233 28000000 		.4byte	.LVL19
 7679 0237 0100     		.2byte	0x1
 7680 0239 53       		.byte	0x53
 7681 023a 00000000 		.4byte	0
 7682 023e 00000000 		.4byte	0
 7683              	.LLST15:
 7684 0242 20000000 		.4byte	.LVL17
 7685 0246 26000000 		.4byte	.LVL18
 7686 024a 0100     		.2byte	0x1
 7687 024c 53       		.byte	0x53
 7688 024d 00000000 		.4byte	0
 7689 0251 00000000 		.4byte	0
 7690              	.LLST16:
 7691 0255 26000000 		.4byte	.LVL18
 7692 0259 28000000 		.4byte	.LVL19
 7693 025d 0100     		.2byte	0x1
ARM GAS  C:\Users\pearlstl\AppData\Local\Temp\ccAUXqAU.s 			page 220


 7694 025f 53       		.byte	0x53
 7695 0260 00000000 		.4byte	0
 7696 0264 00000000 		.4byte	0
 7697              	.LLST17:
 7698 0268 36000000 		.4byte	.LVL20
 7699 026c 3C000000 		.4byte	.LVL21
 7700 0270 0100     		.2byte	0x1
 7701 0272 53       		.byte	0x53
 7702 0273 00000000 		.4byte	0
 7703 0277 00000000 		.4byte	0
 7704              	.LLST19:
 7705 027b 4A000000 		.4byte	.LVL23
 7706 027f 54000000 		.4byte	.LVL25
 7707 0283 0100     		.2byte	0x1
 7708 0285 53       		.byte	0x53
 7709 0286 00000000 		.4byte	0
 7710 028a 00000000 		.4byte	0
 7711              	.LLST20:
 7712 028e 00000000 		.4byte	.LVL28
 7713 0292 05000000 		.4byte	.LVL29-1
 7714 0296 0100     		.2byte	0x1
 7715 0298 50       		.byte	0x50
 7716 0299 05000000 		.4byte	.LVL29-1
 7717 029d 08000000 		.4byte	.LFE159
 7718 02a1 0400     		.2byte	0x4
 7719 02a3 F3       		.byte	0xf3
 7720 02a4 01       		.uleb128 0x1
 7721 02a5 50       		.byte	0x50
 7722 02a6 9F       		.byte	0x9f
 7723 02a7 00000000 		.4byte	0
 7724 02ab 00000000 		.4byte	0
 7725              	.LLST21:
 7726 02af 00000000 		.4byte	.LVL28
 7727 02b3 05000000 		.4byte	.LVL29-1
 7728 02b7 0100     		.2byte	0x1
 7729 02b9 51       		.byte	0x51
 7730 02ba 05000000 		.4byte	.LVL29-1
 7731 02be 08000000 		.4byte	.LFE159
 7732 02c2 0400     		.2byte	0x4
 7733 02c4 F3       		.byte	0xf3
 7734 02c5 01       		.uleb128 0x1
 7735 02c6 51       		.byte	0x51
 7736 02c7 9F       		.byte	0x9f
 7737 02c8 00000000 		.4byte	0
 7738 02cc 00000000 		.4byte	0
 7739              	.LLST22:
 7740 02d0 00000000 		.4byte	.LVL30
 7741 02d4 18000000 		.4byte	.LVL33
 7742 02d8 0100     		.2byte	0x1
 7743 02da 51       		.byte	0x51
 7744 02db 18000000 		.4byte	.LVL33
 7745 02df 2C000000 		.4byte	.LVL36
 7746 02e3 0200     		.2byte	0x2
 7747 02e5 73       		.byte	0x73
 7748 02e6 08       		.sleb128 8
 7749 02e7 2C000000 		.4byte	.LVL36
 7750 02eb 3E000000 		.4byte	.LVL39
ARM GAS  C:\Users\pearlstl\AppData\Local\Temp\ccAUXqAU.s 			page 221


 7751 02ef 0500     		.2byte	0x5
 7752 02f1 F3       		.byte	0xf3
 7753 02f2 01       		.uleb128 0x1
 7754 02f3 53       		.byte	0x53
 7755 02f4 23       		.byte	0x23
 7756 02f5 08       		.uleb128 0x8
 7757 02f6 3E000000 		.4byte	.LVL39
 7758 02fa 44000000 		.4byte	.LFE160
 7759 02fe 0400     		.2byte	0x4
 7760 0300 F3       		.byte	0xf3
 7761 0301 01       		.uleb128 0x1
 7762 0302 51       		.byte	0x51
 7763 0303 9F       		.byte	0x9f
 7764 0304 00000000 		.4byte	0
 7765 0308 00000000 		.4byte	0
 7766              	.LLST23:
 7767 030c 00000000 		.4byte	.LVL30
 7768 0310 30000000 		.4byte	.LVL37
 7769 0314 0100     		.2byte	0x1
 7770 0316 52       		.byte	0x52
 7771 0317 30000000 		.4byte	.LVL37
 7772 031b 3E000000 		.4byte	.LVL39
 7773 031f 0500     		.2byte	0x5
 7774 0321 F3       		.byte	0xf3
 7775 0322 01       		.uleb128 0x1
 7776 0323 53       		.byte	0x53
 7777 0324 23       		.byte	0x23
 7778 0325 0C       		.uleb128 0xc
 7779 0326 3E000000 		.4byte	.LVL39
 7780 032a 44000000 		.4byte	.LFE160
 7781 032e 0400     		.2byte	0x4
 7782 0330 F3       		.byte	0xf3
 7783 0331 01       		.uleb128 0x1
 7784 0332 52       		.byte	0x52
 7785 0333 9F       		.byte	0x9f
 7786 0334 00000000 		.4byte	0
 7787 0338 00000000 		.4byte	0
 7788              	.LLST24:
 7789 033c 00000000 		.4byte	.LVL30
 7790 0340 2C000000 		.4byte	.LVL36
 7791 0344 0100     		.2byte	0x1
 7792 0346 53       		.byte	0x53
 7793 0347 2C000000 		.4byte	.LVL36
 7794 034b 44000000 		.4byte	.LFE160
 7795 034f 0400     		.2byte	0x4
 7796 0351 F3       		.byte	0xf3
 7797 0352 01       		.uleb128 0x1
 7798 0353 53       		.byte	0x53
 7799 0354 9F       		.byte	0x9f
 7800 0355 00000000 		.4byte	0
 7801 0359 00000000 		.4byte	0
 7802              	.LLST25:
 7803 035d 1A000000 		.4byte	.LVL34
 7804 0361 3E000000 		.4byte	.LVL39
 7805 0365 0100     		.2byte	0x1
 7806 0367 54       		.byte	0x54
 7807 0368 00000000 		.4byte	0
ARM GAS  C:\Users\pearlstl\AppData\Local\Temp\ccAUXqAU.s 			page 222


 7808 036c 00000000 		.4byte	0
 7809              	.LLST26:
 7810 0370 0A000000 		.4byte	.LVL31
 7811 0374 14000000 		.4byte	.LVL32
 7812 0378 0100     		.2byte	0x1
 7813 037a 50       		.byte	0x50
 7814 037b 00000000 		.4byte	0
 7815 037f 00000000 		.4byte	0
 7816              	.LLST27:
 7817 0383 28000000 		.4byte	.LVL35
 7818 0387 3A000000 		.4byte	.LVL38
 7819 038b 0100     		.2byte	0x1
 7820 038d 55       		.byte	0x55
 7821 038e 00000000 		.4byte	0
 7822 0392 00000000 		.4byte	0
 7823              	.LLST28:
 7824 0396 28000000 		.4byte	.LVL35
 7825 039a 3A000000 		.4byte	.LVL38
 7826 039e 0100     		.2byte	0x1
 7827 03a0 50       		.byte	0x50
 7828 03a1 00000000 		.4byte	0
 7829 03a5 00000000 		.4byte	0
 7830              	.LLST29:
 7831 03a9 3A000000 		.4byte	.LVL38
 7832 03ad 3E000000 		.4byte	.LVL39
 7833 03b1 0200     		.2byte	0x2
 7834 03b3 31       		.byte	0x31
 7835 03b4 9F       		.byte	0x9f
 7836 03b5 00000000 		.4byte	0
 7837 03b9 00000000 		.4byte	0
 7838              	.LLST30:
 7839 03bd 3A000000 		.4byte	.LVL38
 7840 03c1 3E000000 		.4byte	.LVL39
 7841 03c5 0100     		.2byte	0x1
 7842 03c7 50       		.byte	0x50
 7843 03c8 00000000 		.4byte	0
 7844 03cc 00000000 		.4byte	0
 7845              	.LLST31:
 7846 03d0 00000000 		.4byte	.LVL40
 7847 03d4 06000000 		.4byte	.LVL41
 7848 03d8 0200     		.2byte	0x2
 7849 03da 30       		.byte	0x30
 7850 03db 9F       		.byte	0x9f
 7851 03dc 00000000 		.4byte	0
 7852 03e0 00000000 		.4byte	0
 7853              	.LLST32:
 7854 03e4 00000000 		.4byte	.LVL40
 7855 03e8 06000000 		.4byte	.LVL41
 7856 03ec 0100     		.2byte	0x1
 7857 03ee 50       		.byte	0x50
 7858 03ef 00000000 		.4byte	0
 7859 03f3 00000000 		.4byte	0
 7860              	.LLST33:
 7861 03f7 06000000 		.4byte	.LVL41
 7862 03fb 0C000000 		.4byte	.LVL42
 7863 03ff 0100     		.2byte	0x1
 7864 0401 51       		.byte	0x51
ARM GAS  C:\Users\pearlstl\AppData\Local\Temp\ccAUXqAU.s 			page 223


 7865 0402 00000000 		.4byte	0
 7866 0406 00000000 		.4byte	0
 7867              	.LLST34:
 7868 040a 06000000 		.4byte	.LVL41
 7869 040e 0C000000 		.4byte	.LVL42
 7870 0412 0100     		.2byte	0x1
 7871 0414 50       		.byte	0x50
 7872 0415 00000000 		.4byte	0
 7873 0419 00000000 		.4byte	0
 7874              	.LLST35:
 7875 041d 00000000 		.4byte	.LVL43
 7876 0421 02000000 		.4byte	.LVL44
 7877 0425 0100     		.2byte	0x1
 7878 0427 50       		.byte	0x50
 7879 0428 02000000 		.4byte	.LVL44
 7880 042c 18000000 		.4byte	.LFE162
 7881 0430 0400     		.2byte	0x4
 7882 0432 F3       		.byte	0xf3
 7883 0433 01       		.uleb128 0x1
 7884 0434 50       		.byte	0x50
 7885 0435 9F       		.byte	0x9f
 7886 0436 00000000 		.4byte	0
 7887 043a 00000000 		.4byte	0
 7888              	.LLST36:
 7889 043e 0C000000 		.4byte	.LVL45
 7890 0442 0E000000 		.4byte	.LVL46
 7891 0446 0100     		.2byte	0x1
 7892 0448 50       		.byte	0x50
 7893 0449 16000000 		.4byte	.LVL48
 7894 044d 18000000 		.4byte	.LFE162
 7895 0451 0100     		.2byte	0x1
 7896 0453 50       		.byte	0x50
 7897 0454 00000000 		.4byte	0
 7898 0458 00000000 		.4byte	0
 7899              	.LLST37:
 7900 045c 02000000 		.4byte	.LVL44
 7901 0460 0C000000 		.4byte	.LVL45
 7902 0464 0100     		.2byte	0x1
 7903 0466 50       		.byte	0x50
 7904 0467 0E000000 		.4byte	.LVL46
 7905 046b 14000000 		.4byte	.LVL47
 7906 046f 0100     		.2byte	0x1
 7907 0471 50       		.byte	0x50
 7908 0472 00000000 		.4byte	0
 7909 0476 00000000 		.4byte	0
 7910              	.LLST38:
 7911 047a 00000000 		.4byte	.LVL50
 7912 047e 25000000 		.4byte	.LVL57-1
 7913 0482 0100     		.2byte	0x1
 7914 0484 50       		.byte	0x50
 7915 0485 25000000 		.4byte	.LVL57-1
 7916 0489 E4000000 		.4byte	.LVL85
 7917 048d 0100     		.2byte	0x1
 7918 048f 55       		.byte	0x55
 7919 0490 E4000000 		.4byte	.LVL85
 7920 0494 E6000000 		.4byte	.LVL86
 7921 0498 0100     		.2byte	0x1
ARM GAS  C:\Users\pearlstl\AppData\Local\Temp\ccAUXqAU.s 			page 224


 7922 049a 50       		.byte	0x50
 7923 049b E6000000 		.4byte	.LVL86
 7924 049f E8000000 		.4byte	.LVL88
 7925 04a3 0100     		.2byte	0x1
 7926 04a5 55       		.byte	0x55
 7927 04a6 E8000000 		.4byte	.LVL88
 7928 04aa F8000000 		.4byte	.LFE164
 7929 04ae 0400     		.2byte	0x4
 7930 04b0 F3       		.byte	0xf3
 7931 04b1 01       		.uleb128 0x1
 7932 04b2 50       		.byte	0x50
 7933 04b3 9F       		.byte	0x9f
 7934 04b4 00000000 		.4byte	0
 7935 04b8 00000000 		.4byte	0
 7936              	.LLST39:
 7937 04bc 00000000 		.4byte	.LVL50
 7938 04c0 22000000 		.4byte	.LVL56
 7939 04c4 0100     		.2byte	0x1
 7940 04c6 51       		.byte	0x51
 7941 04c7 22000000 		.4byte	.LVL56
 7942 04cb A0000000 		.4byte	.LVL76
 7943 04cf 0100     		.2byte	0x1
 7944 04d1 57       		.byte	0x57
 7945 04d2 A0000000 		.4byte	.LVL76
 7946 04d6 A2000000 		.4byte	.LVL77
 7947 04da 0400     		.2byte	0x4
 7948 04dc F3       		.byte	0xf3
 7949 04dd 01       		.uleb128 0x1
 7950 04de 51       		.byte	0x51
 7951 04df 9F       		.byte	0x9f
 7952 04e0 A2000000 		.4byte	.LVL77
 7953 04e4 AA000000 		.4byte	.LVL78
 7954 04e8 0100     		.2byte	0x1
 7955 04ea 57       		.byte	0x57
 7956 04eb AA000000 		.4byte	.LVL78
 7957 04ef E4000000 		.4byte	.LVL85
 7958 04f3 0400     		.2byte	0x4
 7959 04f5 F3       		.byte	0xf3
 7960 04f6 01       		.uleb128 0x1
 7961 04f7 51       		.byte	0x51
 7962 04f8 9F       		.byte	0x9f
 7963 04f9 E4000000 		.4byte	.LVL85
 7964 04fd E6000000 		.4byte	.LVL86
 7965 0501 0100     		.2byte	0x1
 7966 0503 51       		.byte	0x51
 7967 0504 E6000000 		.4byte	.LVL86
 7968 0508 F8000000 		.4byte	.LFE164
 7969 050c 0400     		.2byte	0x4
 7970 050e F3       		.byte	0xf3
 7971 050f 01       		.uleb128 0x1
 7972 0510 51       		.byte	0x51
 7973 0511 9F       		.byte	0x9f
 7974 0512 00000000 		.4byte	0
 7975 0516 00000000 		.4byte	0
 7976              	.LLST40:
 7977 051a 00000000 		.4byte	.LVL50
 7978 051e 08000000 		.4byte	.LVL51
ARM GAS  C:\Users\pearlstl\AppData\Local\Temp\ccAUXqAU.s 			page 225


 7979 0522 0100     		.2byte	0x1
 7980 0524 52       		.byte	0x52
 7981 0525 08000000 		.4byte	.LVL51
 7982 0529 E8000000 		.4byte	.LVL89
 7983 052d 0100     		.2byte	0x1
 7984 052f 56       		.byte	0x56
 7985 0530 00000000 		.4byte	0
 7986 0534 00000000 		.4byte	0
 7987              	.LLST41:
 7988 0538 00000000 		.4byte	.LVL50
 7989 053c 0A000000 		.4byte	.LVL52
 7990 0540 0100     		.2byte	0x1
 7991 0542 53       		.byte	0x53
 7992 0543 0A000000 		.4byte	.LVL52
 7993 0547 E8000000 		.4byte	.LVL87
 7994 054b 0100     		.2byte	0x1
 7995 054d 54       		.byte	0x54
 7996 054e E8000000 		.4byte	.LVL87
 7997 0552 F8000000 		.4byte	.LFE164
 7998 0556 0400     		.2byte	0x4
 7999 0558 F3       		.byte	0xf3
 8000 0559 01       		.uleb128 0x1
 8001 055a 53       		.byte	0x53
 8002 055b 9F       		.byte	0x9f
 8003 055c 00000000 		.4byte	0
 8004 0560 00000000 		.4byte	0
 8005              	.LLST42:
 8006 0564 0E000000 		.4byte	.LVL53
 8007 0568 E6000000 		.4byte	.LVL86
 8008 056c 0600     		.2byte	0x6
 8009 056e 0C       		.byte	0xc
 8010 056f 0260AA00 		.4byte	0xaa6002
 8011 0573 9F       		.byte	0x9f
 8012 0574 E6000000 		.4byte	.LVL86
 8013 0578 F8000000 		.4byte	.LFE164
 8014 057c 0100     		.2byte	0x1
 8015 057e 50       		.byte	0x50
 8016 057f 00000000 		.4byte	0
 8017 0583 00000000 		.4byte	0
 8018              	.LLST43:
 8019 0587 14000000 		.4byte	.LVL54
 8020 058b 22000000 		.4byte	.LVL56
 8021 058f 0100     		.2byte	0x1
 8022 0591 51       		.byte	0x51
 8023 0592 22000000 		.4byte	.LVL56
 8024 0596 9E000000 		.4byte	.LVL75
 8025 059a 0100     		.2byte	0x1
 8026 059c 57       		.byte	0x57
 8027 059d 9E000000 		.4byte	.LVL75
 8028 05a1 A0000000 		.4byte	.LVL76
 8029 05a5 0600     		.2byte	0x6
 8030 05a7 77       		.byte	0x77
 8031 05a8 00       		.sleb128 0
 8032 05a9 72       		.byte	0x72
 8033 05aa 00       		.sleb128 0
 8034 05ab 22       		.byte	0x22
 8035 05ac 9F       		.byte	0x9f
ARM GAS  C:\Users\pearlstl\AppData\Local\Temp\ccAUXqAU.s 			page 226


 8036 05ad A0000000 		.4byte	.LVL76
 8037 05b1 E4000000 		.4byte	.LVL85
 8038 05b5 0100     		.2byte	0x1
 8039 05b7 57       		.byte	0x57
 8040 05b8 00000000 		.4byte	0
 8041 05bc 00000000 		.4byte	0
 8042              	.LLST44:
 8043 05c0 14000000 		.4byte	.LVL54
 8044 05c4 26000000 		.4byte	.LVL57
 8045 05c8 0200     		.2byte	0x2
 8046 05ca 30       		.byte	0x30
 8047 05cb 9F       		.byte	0x9f
 8048 05cc 26000000 		.4byte	.LVL57
 8049 05d0 40000000 		.4byte	.LVL60
 8050 05d4 0100     		.2byte	0x1
 8051 05d6 50       		.byte	0x50
 8052 05d7 40000000 		.4byte	.LVL60
 8053 05db A2000000 		.4byte	.LVL77
 8054 05df 0200     		.2byte	0x2
 8055 05e1 91       		.byte	0x91
 8056 05e2 5C       		.sleb128 -36
 8057 05e3 A2000000 		.4byte	.LVL77
 8058 05e7 AA000000 		.4byte	.LVL78
 8059 05eb 0200     		.2byte	0x2
 8060 05ed 30       		.byte	0x30
 8061 05ee 9F       		.byte	0x9f
 8062 05ef 00000000 		.4byte	0
 8063 05f3 00000000 		.4byte	0
 8064              	.LLST45:
 8065 05f7 14000000 		.4byte	.LVL54
 8066 05fb 18000000 		.4byte	.LVL55
 8067 05ff 0200     		.2byte	0x2
 8068 0601 30       		.byte	0x30
 8069 0602 9F       		.byte	0x9f
 8070 0603 00000000 		.4byte	0
 8071 0607 00000000 		.4byte	0
 8072              	.LLST46:
 8073 060b 14000000 		.4byte	.LVL54
 8074 060f 18000000 		.4byte	.LVL55
 8075 0613 0100     		.2byte	0x1
 8076 0615 50       		.byte	0x50
 8077 0616 00000000 		.4byte	0
 8078 061a 00000000 		.4byte	0
 8079              	.LLST47:
 8080 061e 40000000 		.4byte	.LVL60
 8081 0622 42000000 		.4byte	.LVL61
 8082 0626 0200     		.2byte	0x2
 8083 0628 30       		.byte	0x30
 8084 0629 9F       		.byte	0x9f
 8085 062a 42000000 		.4byte	.LVL61
 8086 062e 7C000000 		.4byte	.LVL70
 8087 0632 0100     		.2byte	0x1
 8088 0634 52       		.byte	0x52
 8089 0635 7C000000 		.4byte	.LVL70
 8090 0639 80000000 		.4byte	.LVL71
 8091 063d 0200     		.2byte	0x2
 8092 063f 74       		.byte	0x74
ARM GAS  C:\Users\pearlstl\AppData\Local\Temp\ccAUXqAU.s 			page 227


 8093 0640 20       		.sleb128 32
 8094 0641 94000000 		.4byte	.LVL73
 8095 0645 98000000 		.4byte	.LVL74
 8096 0649 0100     		.2byte	0x1
 8097 064b 52       		.byte	0x52
 8098 064c 98000000 		.4byte	.LVL74
 8099 0650 A2000000 		.4byte	.LVL77
 8100 0654 0200     		.2byte	0x2
 8101 0656 74       		.byte	0x74
 8102 0657 20       		.sleb128 32
 8103 0658 00000000 		.4byte	0
 8104 065c 00000000 		.4byte	0
 8105              	.LLST48:
 8106 0660 30000000 		.4byte	.LVL58
 8107 0664 8F000000 		.4byte	.LVL72-1
 8108 0668 0100     		.2byte	0x1
 8109 066a 51       		.byte	0x51
 8110 066b 94000000 		.4byte	.LVL73
 8111 066f A2000000 		.4byte	.LVL77
 8112 0673 0100     		.2byte	0x1
 8113 0675 51       		.byte	0x51
 8114 0676 00000000 		.4byte	0
 8115 067a 00000000 		.4byte	0
 8116              	.LLST49:
 8117 067e 30000000 		.4byte	.LVL58
 8118 0682 38000000 		.4byte	.LVL59
 8119 0686 0100     		.2byte	0x1
 8120 0688 55       		.byte	0x55
 8121 0689 00000000 		.4byte	0
 8122 068d 00000000 		.4byte	0
 8123              	.LLST50:
 8124 0691 5A000000 		.4byte	.LVL64
 8125 0695 60000000 		.4byte	.LVL65
 8126 0699 0100     		.2byte	0x1
 8127 069b 57       		.byte	0x57
 8128 069c 00000000 		.4byte	0
 8129 06a0 00000000 		.4byte	0
 8130              	.LLST51:
 8131 06a4 60000000 		.4byte	.LVL65
 8132 06a8 6C000000 		.4byte	.LVL66
 8133 06ac 0100     		.2byte	0x1
 8134 06ae 57       		.byte	0x57
 8135 06af 00000000 		.4byte	0
 8136 06b3 00000000 		.4byte	0
 8137              	.LLST52:
 8138 06b7 78000000 		.4byte	.LVL69
 8139 06bb 80000000 		.4byte	.LVL71
 8140 06bf 0400     		.2byte	0x4
 8141 06c1 0A       		.byte	0xa
 8142 06c2 2003     		.2byte	0x320
 8143 06c4 9F       		.byte	0x9f
 8144 06c5 00000000 		.4byte	0
 8145 06c9 00000000 		.4byte	0
 8146              	.LLST53:
 8147 06cd 78000000 		.4byte	.LVL69
 8148 06d1 80000000 		.4byte	.LVL71
 8149 06d5 0100     		.2byte	0x1
ARM GAS  C:\Users\pearlstl\AppData\Local\Temp\ccAUXqAU.s 			page 228


 8150 06d7 55       		.byte	0x55
 8151 06d8 00000000 		.4byte	0
 8152 06dc 00000000 		.4byte	0
 8153              	.LLST54:
 8154 06e0 90000000 		.4byte	.LVL72
 8155 06e4 94000000 		.4byte	.LVL73
 8156 06e8 0200     		.2byte	0x2
 8157 06ea 31       		.byte	0x31
 8158 06eb 9F       		.byte	0x9f
 8159 06ec 00000000 		.4byte	0
 8160 06f0 00000000 		.4byte	0
 8161              	.LLST55:
 8162 06f4 90000000 		.4byte	.LVL72
 8163 06f8 94000000 		.4byte	.LVL73
 8164 06fc 0100     		.2byte	0x1
 8165 06fe 55       		.byte	0x55
 8166 06ff 00000000 		.4byte	0
 8167 0703 00000000 		.4byte	0
 8168              	.LLST56:
 8169 0707 BC000000 		.4byte	.LVL80
 8170 070b D2000000 		.4byte	.LVL82
 8171 070f 0100     		.2byte	0x1
 8172 0711 52       		.byte	0x52
 8173 0712 00000000 		.4byte	0
 8174 0716 00000000 		.4byte	0
 8175              	.LLST57:
 8176 071a AA000000 		.4byte	.LVL78
 8177 071e B4000000 		.4byte	.LVL79
 8178 0722 0100     		.2byte	0x1
 8179 0724 55       		.byte	0x55
 8180 0725 00000000 		.4byte	0
 8181 0729 00000000 		.4byte	0
 8182              	.LLST58:
 8183 072d CA000000 		.4byte	.LVL81
 8184 0731 DA000000 		.4byte	.LVL83
 8185 0735 0100     		.2byte	0x1
 8186 0737 50       		.byte	0x50
 8187 0738 00000000 		.4byte	0
 8188 073c 00000000 		.4byte	0
 8189              	.LLST59:
 8190 0740 CA000000 		.4byte	.LVL81
 8191 0744 DA000000 		.4byte	.LVL83
 8192 0748 0100     		.2byte	0x1
 8193 074a 55       		.byte	0x55
 8194 074b 00000000 		.4byte	0
 8195 074f 00000000 		.4byte	0
 8196              	.LLST60:
 8197 0753 DA000000 		.4byte	.LVL83
 8198 0757 DC000000 		.4byte	.LVL84
 8199 075b 0400     		.2byte	0x4
 8200 075d 0A       		.byte	0xa
 8201 075e 210B     		.2byte	0xb21
 8202 0760 9F       		.byte	0x9f
 8203 0761 00000000 		.4byte	0
 8204 0765 00000000 		.4byte	0
 8205              	.LLST61:
 8206 0769 DA000000 		.4byte	.LVL83
ARM GAS  C:\Users\pearlstl\AppData\Local\Temp\ccAUXqAU.s 			page 229


 8207 076d DC000000 		.4byte	.LVL84
 8208 0771 0100     		.2byte	0x1
 8209 0773 55       		.byte	0x55
 8210 0774 00000000 		.4byte	0
 8211 0778 00000000 		.4byte	0
 8212              	.LLST62:
 8213 077c 06000000 		.4byte	.LVL91
 8214 0780 0A000000 		.4byte	.LVL92
 8215 0784 0200     		.2byte	0x2
 8216 0786 30       		.byte	0x30
 8217 0787 9F       		.byte	0x9f
 8218 0788 00000000 		.4byte	0
 8219 078c 00000000 		.4byte	0
 8220              	.LLST63:
 8221 0790 06000000 		.4byte	.LVL91
 8222 0794 0A000000 		.4byte	.LVL92
 8223 0798 0100     		.2byte	0x1
 8224 079a 50       		.byte	0x50
 8225 079b 00000000 		.4byte	0
 8226 079f 00000000 		.4byte	0
 8227              	.LLST64:
 8228 07a3 00000000 		.4byte	.LVL93
 8229 07a7 02000000 		.4byte	.LVL94
 8230 07ab 0100     		.2byte	0x1
 8231 07ad 50       		.byte	0x50
 8232 07ae 02000000 		.4byte	.LVL94
 8233 07b2 04000000 		.4byte	.LFE166
 8234 07b6 0400     		.2byte	0x4
 8235 07b8 F3       		.byte	0xf3
 8236 07b9 01       		.uleb128 0x1
 8237 07ba 50       		.byte	0x50
 8238 07bb 9F       		.byte	0x9f
 8239 07bc 00000000 		.4byte	0
 8240 07c0 00000000 		.4byte	0
 8241              	.LLST65:
 8242 07c4 00000000 		.4byte	.LVL95
 8243 07c8 02000000 		.4byte	.LVL96
 8244 07cc 0100     		.2byte	0x1
 8245 07ce 50       		.byte	0x50
 8246 07cf 02000000 		.4byte	.LVL96
 8247 07d3 04000000 		.4byte	.LFE167
 8248 07d7 0400     		.2byte	0x4
 8249 07d9 F3       		.byte	0xf3
 8250 07da 01       		.uleb128 0x1
 8251 07db 50       		.byte	0x50
 8252 07dc 9F       		.byte	0x9f
 8253 07dd 00000000 		.4byte	0
 8254 07e1 00000000 		.4byte	0
 8255              	.LLST66:
 8256 07e5 00000000 		.4byte	.LVL97
 8257 07e9 40000000 		.4byte	.LVL109
 8258 07ed 0100     		.2byte	0x1
 8259 07ef 50       		.byte	0x50
 8260 07f0 40000000 		.4byte	.LVL109
 8261 07f4 42000000 		.4byte	.LVL110
 8262 07f8 0400     		.2byte	0x4
 8263 07fa F3       		.byte	0xf3
ARM GAS  C:\Users\pearlstl\AppData\Local\Temp\ccAUXqAU.s 			page 230


 8264 07fb 01       		.uleb128 0x1
 8265 07fc 50       		.byte	0x50
 8266 07fd 9F       		.byte	0x9f
 8267 07fe 42000000 		.4byte	.LVL110
 8268 0802 44000000 		.4byte	.LVL111
 8269 0806 0100     		.2byte	0x1
 8270 0808 50       		.byte	0x50
 8271 0809 44000000 		.4byte	.LVL111
 8272 080d 54000000 		.4byte	.LFE168
 8273 0811 0400     		.2byte	0x4
 8274 0813 F3       		.byte	0xf3
 8275 0814 01       		.uleb128 0x1
 8276 0815 50       		.byte	0x50
 8277 0816 9F       		.byte	0x9f
 8278 0817 00000000 		.4byte	0
 8279 081b 00000000 		.4byte	0
 8280              	.LLST67:
 8281 081f 00000000 		.4byte	.LVL97
 8282 0823 1C000000 		.4byte	.LVL102
 8283 0827 0100     		.2byte	0x1
 8284 0829 51       		.byte	0x51
 8285 082a 1C000000 		.4byte	.LVL102
 8286 082e 42000000 		.4byte	.LVL110
 8287 0832 0500     		.2byte	0x5
 8288 0834 F3       		.byte	0xf3
 8289 0835 01       		.uleb128 0x1
 8290 0836 53       		.byte	0x53
 8291 0837 23       		.byte	0x23
 8292 0838 24       		.uleb128 0x24
 8293 0839 42000000 		.4byte	.LVL110
 8294 083d 44000000 		.4byte	.LVL111
 8295 0841 0100     		.2byte	0x1
 8296 0843 51       		.byte	0x51
 8297 0844 44000000 		.4byte	.LVL111
 8298 0848 54000000 		.4byte	.LFE168
 8299 084c 0400     		.2byte	0x4
 8300 084e F3       		.byte	0xf3
 8301 084f 01       		.uleb128 0x1
 8302 0850 51       		.byte	0x51
 8303 0851 9F       		.byte	0x9f
 8304 0852 00000000 		.4byte	0
 8305 0856 00000000 		.4byte	0
 8306              	.LLST68:
 8307 085a 00000000 		.4byte	.LVL97
 8308 085e 14000000 		.4byte	.LVL100
 8309 0862 0100     		.2byte	0x1
 8310 0864 52       		.byte	0x52
 8311 0865 14000000 		.4byte	.LVL100
 8312 0869 3E000000 		.4byte	.LVL108
 8313 086d 0500     		.2byte	0x5
 8314 086f F3       		.byte	0xf3
 8315 0870 01       		.uleb128 0x1
 8316 0871 53       		.byte	0x53
 8317 0872 23       		.byte	0x23
 8318 0873 28       		.uleb128 0x28
 8319 0874 3E000000 		.4byte	.LVL108
 8320 0878 42000000 		.4byte	.LVL110
ARM GAS  C:\Users\pearlstl\AppData\Local\Temp\ccAUXqAU.s 			page 231


 8321 087c 0400     		.2byte	0x4
 8322 087e F3       		.byte	0xf3
 8323 087f 01       		.uleb128 0x1
 8324 0880 52       		.byte	0x52
 8325 0881 9F       		.byte	0x9f
 8326 0882 42000000 		.4byte	.LVL110
 8327 0886 44000000 		.4byte	.LVL111
 8328 088a 0100     		.2byte	0x1
 8329 088c 52       		.byte	0x52
 8330 088d 44000000 		.4byte	.LVL111
 8331 0891 54000000 		.4byte	.LFE168
 8332 0895 0400     		.2byte	0x4
 8333 0897 F3       		.byte	0xf3
 8334 0898 01       		.uleb128 0x1
 8335 0899 52       		.byte	0x52
 8336 089a 9F       		.byte	0x9f
 8337 089b 00000000 		.4byte	0
 8338 089f 00000000 		.4byte	0
 8339              	.LLST69:
 8340 08a3 00000000 		.4byte	.LVL97
 8341 08a7 12000000 		.4byte	.LVL99
 8342 08ab 0100     		.2byte	0x1
 8343 08ad 53       		.byte	0x53
 8344 08ae 12000000 		.4byte	.LVL99
 8345 08b2 42000000 		.4byte	.LVL110
 8346 08b6 0400     		.2byte	0x4
 8347 08b8 F3       		.byte	0xf3
 8348 08b9 01       		.uleb128 0x1
 8349 08ba 53       		.byte	0x53
 8350 08bb 9F       		.byte	0x9f
 8351 08bc 42000000 		.4byte	.LVL110
 8352 08c0 44000000 		.4byte	.LVL111
 8353 08c4 0100     		.2byte	0x1
 8354 08c6 53       		.byte	0x53
 8355 08c7 44000000 		.4byte	.LVL111
 8356 08cb 54000000 		.4byte	.LFE168
 8357 08cf 0400     		.2byte	0x4
 8358 08d1 F3       		.byte	0xf3
 8359 08d2 01       		.uleb128 0x1
 8360 08d3 53       		.byte	0x53
 8361 08d4 9F       		.byte	0x9f
 8362 08d5 00000000 		.4byte	0
 8363 08d9 00000000 		.4byte	0
 8364              	.LLST70:
 8365 08dd 00000000 		.4byte	.LVL97
 8366 08e1 44000000 		.4byte	.LVL111
 8367 08e5 0600     		.2byte	0x6
 8368 08e7 0C       		.byte	0xc
 8369 08e8 0360AA00 		.4byte	0xaa6003
 8370 08ec 9F       		.byte	0x9f
 8371 08ed 44000000 		.4byte	.LVL111
 8372 08f1 54000000 		.4byte	.LFE168
 8373 08f5 0100     		.2byte	0x1
 8374 08f7 50       		.byte	0x50
 8375 08f8 00000000 		.4byte	0
 8376 08fc 00000000 		.4byte	0
 8377              	.LLST71:
ARM GAS  C:\Users\pearlstl\AppData\Local\Temp\ccAUXqAU.s 			page 232


 8378 0900 0E000000 		.4byte	.LVL98
 8379 0904 1A000000 		.4byte	.LVL101
 8380 0908 0100     		.2byte	0x1
 8381 090a 50       		.byte	0x50
 8382 090b 00000000 		.4byte	0
 8383 090f 00000000 		.4byte	0
 8384              	.LLST72:
 8385 0913 1A000000 		.4byte	.LVL101
 8386 0917 24000000 		.4byte	.LVL103
 8387 091b 0500     		.2byte	0x5
 8388 091d 72       		.byte	0x72
 8389 091e 00       		.sleb128 0
 8390 091f 31       		.byte	0x31
 8391 0920 25       		.byte	0x25
 8392 0921 9F       		.byte	0x9f
 8393 0922 24000000 		.4byte	.LVL103
 8394 0926 2A000000 		.4byte	.LVL104
 8395 092a 0100     		.2byte	0x1
 8396 092c 52       		.byte	0x52
 8397 092d 00000000 		.4byte	0
 8398 0931 00000000 		.4byte	0
 8399              	.LLST73:
 8400 0935 1A000000 		.4byte	.LVL101
 8401 0939 2A000000 		.4byte	.LVL104
 8402 093d 0100     		.2byte	0x1
 8403 093f 50       		.byte	0x50
 8404 0940 00000000 		.4byte	0
 8405 0944 00000000 		.4byte	0
 8406              	.LLST74:
 8407 0948 36000000 		.4byte	.LVL105
 8408 094c 3A000000 		.4byte	.LVL106
 8409 0950 0400     		.2byte	0x4
 8410 0952 0A       		.byte	0xa
 8411 0953 0105     		.2byte	0x501
 8412 0955 9F       		.byte	0x9f
 8413 0956 00000000 		.4byte	0
 8414 095a 00000000 		.4byte	0
 8415              	.LLST75:
 8416 095e 36000000 		.4byte	.LVL105
 8417 0962 3A000000 		.4byte	.LVL106
 8418 0966 0100     		.2byte	0x1
 8419 0968 50       		.byte	0x50
 8420 0969 00000000 		.4byte	0
 8421 096d 00000000 		.4byte	0
 8422              	.LLST76:
 8423 0971 3A000000 		.4byte	.LVL106
 8424 0975 3C000000 		.4byte	.LVL107
 8425 0979 0200     		.2byte	0x2
 8426 097b 31       		.byte	0x31
 8427 097c 9F       		.byte	0x9f
 8428 097d 00000000 		.4byte	0
 8429 0981 00000000 		.4byte	0
 8430              	.LLST77:
 8431 0985 3A000000 		.4byte	.LVL106
 8432 0989 3C000000 		.4byte	.LVL107
 8433 098d 0100     		.2byte	0x1
 8434 098f 50       		.byte	0x50
ARM GAS  C:\Users\pearlstl\AppData\Local\Temp\ccAUXqAU.s 			page 233


 8435 0990 00000000 		.4byte	0
 8436 0994 00000000 		.4byte	0
 8437              	.LLST78:
 8438 0998 00000000 		.4byte	.LVL112
 8439 099c 08000000 		.4byte	.LVL113
 8440 09a0 0200     		.2byte	0x2
 8441 09a2 30       		.byte	0x30
 8442 09a3 9F       		.byte	0x9f
 8443 09a4 00000000 		.4byte	0
 8444 09a8 00000000 		.4byte	0
 8445              	.LLST79:
 8446 09ac 00000000 		.4byte	.LVL112
 8447 09b0 08000000 		.4byte	.LVL113
 8448 09b4 0100     		.2byte	0x1
 8449 09b6 50       		.byte	0x50
 8450 09b7 00000000 		.4byte	0
 8451 09bb 00000000 		.4byte	0
 8452              	.LLST80:
 8453 09bf 08000000 		.4byte	.LVL113
 8454 09c3 20000000 		.4byte	.LVL114
 8455 09c7 0100     		.2byte	0x1
 8456 09c9 50       		.byte	0x50
 8457 09ca 00000000 		.4byte	0
 8458 09ce 00000000 		.4byte	0
 8459              	.LLST82:
 8460 09d2 00000000 		.4byte	.LVL115
 8461 09d6 02000000 		.4byte	.LVL116
 8462 09da 0100     		.2byte	0x1
 8463 09dc 50       		.byte	0x50
 8464 09dd 02000000 		.4byte	.LVL116
 8465 09e1 04000000 		.4byte	.LFE170
 8466 09e5 0400     		.2byte	0x4
 8467 09e7 F3       		.byte	0xf3
 8468 09e8 01       		.uleb128 0x1
 8469 09e9 50       		.byte	0x50
 8470 09ea 9F       		.byte	0x9f
 8471 09eb 00000000 		.4byte	0
 8472 09ef 00000000 		.4byte	0
 8473              	.LLST83:
 8474 09f3 00000000 		.4byte	.LVL117
 8475 09f7 02000000 		.4byte	.LVL118
 8476 09fb 0100     		.2byte	0x1
 8477 09fd 50       		.byte	0x50
 8478 09fe 02000000 		.4byte	.LVL118
 8479 0a02 04000000 		.4byte	.LFE171
 8480 0a06 0400     		.2byte	0x4
 8481 0a08 F3       		.byte	0xf3
 8482 0a09 01       		.uleb128 0x1
 8483 0a0a 50       		.byte	0x50
 8484 0a0b 9F       		.byte	0x9f
 8485 0a0c 00000000 		.4byte	0
 8486 0a10 00000000 		.4byte	0
 8487              	.LLST84:
 8488 0a14 00000000 		.4byte	.LVL119
 8489 0a18 1E000000 		.4byte	.LVL123
 8490 0a1c 0100     		.2byte	0x1
 8491 0a1e 51       		.byte	0x51
ARM GAS  C:\Users\pearlstl\AppData\Local\Temp\ccAUXqAU.s 			page 234


 8492 0a1f 1E000000 		.4byte	.LVL123
 8493 0a23 24000000 		.4byte	.LVL126
 8494 0a27 0300     		.2byte	0x3
 8495 0a29 71       		.byte	0x71
 8496 0a2a 01       		.sleb128 1
 8497 0a2b 9F       		.byte	0x9f
 8498 0a2c 24000000 		.4byte	.LVL126
 8499 0a30 58000000 		.4byte	.LFE172
 8500 0a34 0400     		.2byte	0x4
 8501 0a36 F3       		.byte	0xf3
 8502 0a37 01       		.uleb128 0x1
 8503 0a38 51       		.byte	0x51
 8504 0a39 9F       		.byte	0x9f
 8505 0a3a 00000000 		.4byte	0
 8506 0a3e 00000000 		.4byte	0
 8507              	.LLST85:
 8508 0a42 20000000 		.4byte	.LVL124
 8509 0a46 22000000 		.4byte	.LVL125
 8510 0a4a 0100     		.2byte	0x1
 8511 0a4c 55       		.byte	0x55
 8512 0a4d 22000000 		.4byte	.LVL125
 8513 0a51 58000000 		.4byte	.LFE172
 8514 0a55 0100     		.2byte	0x1
 8515 0a57 5C       		.byte	0x5c
 8516 0a58 00000000 		.4byte	0
 8517 0a5c 00000000 		.4byte	0
 8518              	.LLST86:
 8519 0a60 00000000 		.4byte	.LVL119
 8520 0a64 0C000000 		.4byte	.LVL120
 8521 0a68 0100     		.2byte	0x1
 8522 0a6a 50       		.byte	0x50
 8523 0a6b 00000000 		.4byte	0
 8524 0a6f 00000000 		.4byte	0
 8525              	.LLST87:
 8526 0a73 16000000 		.4byte	.LVL121
 8527 0a77 1A000000 		.4byte	.LVL122
 8528 0a7b 0400     		.2byte	0x4
 8529 0a7d 0A       		.byte	0xa
 8530 0a7e 0002     		.2byte	0x200
 8531 0a80 9F       		.byte	0x9f
 8532 0a81 00000000 		.4byte	0
 8533 0a85 00000000 		.4byte	0
 8534              	.LLST88:
 8535 0a89 16000000 		.4byte	.LVL121
 8536 0a8d 1A000000 		.4byte	.LVL122
 8537 0a91 0100     		.2byte	0x1
 8538 0a93 50       		.byte	0x50
 8539 0a94 00000000 		.4byte	0
 8540 0a98 00000000 		.4byte	0
 8541              	.LLST89:
 8542 0a9c 0C000000 		.4byte	.LVL120
 8543 0aa0 16000000 		.4byte	.LVL121
 8544 0aa4 0200     		.2byte	0x2
 8545 0aa6 30       		.byte	0x30
 8546 0aa7 9F       		.byte	0x9f
 8547 0aa8 00000000 		.4byte	0
 8548 0aac 00000000 		.4byte	0
ARM GAS  C:\Users\pearlstl\AppData\Local\Temp\ccAUXqAU.s 			page 235


 8549              	.LLST90:
 8550 0ab0 0C000000 		.4byte	.LVL120
 8551 0ab4 16000000 		.4byte	.LVL121
 8552 0ab8 0100     		.2byte	0x1
 8553 0aba 50       		.byte	0x50
 8554 0abb 00000000 		.4byte	0
 8555 0abf 00000000 		.4byte	0
 8556              	.LLST91:
 8557 0ac3 30000000 		.4byte	.LVL128
 8558 0ac7 34000000 		.4byte	.LVL129
 8559 0acb 0100     		.2byte	0x1
 8560 0acd 50       		.byte	0x50
 8561 0ace 00000000 		.4byte	0
 8562 0ad2 00000000 		.4byte	0
 8563              	.LLST92:
 8564 0ad6 3A000000 		.4byte	.LVL130
 8565 0ada 40000000 		.4byte	.LVL131
 8566 0ade 0400     		.2byte	0x4
 8567 0ae0 0A       		.byte	0xa
 8568 0ae1 7307     		.2byte	0x773
 8569 0ae3 9F       		.byte	0x9f
 8570 0ae4 00000000 		.4byte	0
 8571 0ae8 00000000 		.4byte	0
 8572              	.LLST93:
 8573 0aec 3A000000 		.4byte	.LVL130
 8574 0af0 40000000 		.4byte	.LVL131
 8575 0af4 0100     		.2byte	0x1
 8576 0af6 50       		.byte	0x50
 8577 0af7 00000000 		.4byte	0
 8578 0afb 00000000 		.4byte	0
 8579              	.LLST94:
 8580 0aff 48000000 		.4byte	.LVL132
 8581 0b03 4C000000 		.4byte	.LVL133
 8582 0b07 0200     		.2byte	0x2
 8583 0b09 91       		.byte	0x91
 8584 0b0a 64       		.sleb128 -28
 8585 0b0b 00000000 		.4byte	0
 8586 0b0f 00000000 		.4byte	0
 8587              	.LLST95:
 8588 0b13 48000000 		.4byte	.LVL132
 8589 0b17 4C000000 		.4byte	.LVL133
 8590 0b1b 0100     		.2byte	0x1
 8591 0b1d 50       		.byte	0x50
 8592 0b1e 00000000 		.4byte	0
 8593 0b22 00000000 		.4byte	0
 8594              	.LLST96:
 8595 0b26 00000000 		.4byte	.LVL134
 8596 0b2a 34000000 		.4byte	.LVL141
 8597 0b2e 0100     		.2byte	0x1
 8598 0b30 50       		.byte	0x50
 8599 0b31 34000000 		.4byte	.LVL141
 8600 0b35 8E020000 		.4byte	.LVL221
 8601 0b39 0100     		.2byte	0x1
 8602 0b3b 55       		.byte	0x55
 8603 0b3c 8E020000 		.4byte	.LVL221
 8604 0b40 A4020000 		.4byte	.LFE173
 8605 0b44 0400     		.2byte	0x4
ARM GAS  C:\Users\pearlstl\AppData\Local\Temp\ccAUXqAU.s 			page 236


 8606 0b46 F3       		.byte	0xf3
 8607 0b47 01       		.uleb128 0x1
 8608 0b48 50       		.byte	0x50
 8609 0b49 9F       		.byte	0x9f
 8610 0b4a 00000000 		.4byte	0
 8611 0b4e 00000000 		.4byte	0
 8612              	.LLST97:
 8613 0b52 00000000 		.4byte	.LVL134
 8614 0b56 35000000 		.4byte	.LVL142-1
 8615 0b5a 0100     		.2byte	0x1
 8616 0b5c 51       		.byte	0x51
 8617 0b5d 35000000 		.4byte	.LVL142-1
 8618 0b61 8E020000 		.4byte	.LVL220
 8619 0b65 0100     		.2byte	0x1
 8620 0b67 54       		.byte	0x54
 8621 0b68 8E020000 		.4byte	.LVL220
 8622 0b6c A4020000 		.4byte	.LFE173
 8623 0b70 0400     		.2byte	0x4
 8624 0b72 F3       		.byte	0xf3
 8625 0b73 01       		.uleb128 0x1
 8626 0b74 51       		.byte	0x51
 8627 0b75 9F       		.byte	0x9f
 8628 0b76 00000000 		.4byte	0
 8629 0b7a 00000000 		.4byte	0
 8630              	.LLST98:
 8631 0b7e 00000000 		.4byte	.LVL134
 8632 0b82 06000000 		.4byte	.LVL135
 8633 0b86 0100     		.2byte	0x1
 8634 0b88 50       		.byte	0x50
 8635 0b89 00000000 		.4byte	0
 8636 0b8d 00000000 		.4byte	0
 8637              	.LLST99:
 8638 0b91 1C000000 		.4byte	.LVL138
 8639 0b95 2C000000 		.4byte	.LVL140
 8640 0b99 0100     		.2byte	0x1
 8641 0b9b 53       		.byte	0x53
 8642 0b9c 2C000000 		.4byte	.LVL140
 8643 0ba0 34000000 		.4byte	.LVL141
 8644 0ba4 0500     		.2byte	0x5
 8645 0ba6 70       		.byte	0x70
 8646 0ba7 00       		.sleb128 0
 8647 0ba8 72       		.byte	0x72
 8648 0ba9 00       		.sleb128 0
 8649 0baa 22       		.byte	0x22
 8650 0bab 34000000 		.4byte	.LVL141
 8651 0baf 35000000 		.4byte	.LVL142-1
 8652 0bb3 0500     		.2byte	0x5
 8653 0bb5 75       		.byte	0x75
 8654 0bb6 00       		.sleb128 0
 8655 0bb7 72       		.byte	0x72
 8656 0bb8 00       		.sleb128 0
 8657 0bb9 22       		.byte	0x22
 8658 0bba 00000000 		.4byte	0
 8659 0bbe 00000000 		.4byte	0
 8660              	.LLST100:
 8661 0bc2 12000000 		.4byte	.LVL136
 8662 0bc6 1A000000 		.4byte	.LVL137
ARM GAS  C:\Users\pearlstl\AppData\Local\Temp\ccAUXqAU.s 			page 237


 8663 0bca 0100     		.2byte	0x1
 8664 0bcc 50       		.byte	0x50
 8665 0bcd 00000000 		.4byte	0
 8666 0bd1 00000000 		.4byte	0
 8667              	.LLST101:
 8668 0bd5 24000000 		.4byte	.LVL139
 8669 0bd9 2C000000 		.4byte	.LVL140
 8670 0bdd 0100     		.2byte	0x1
 8671 0bdf 53       		.byte	0x53
 8672 0be0 00000000 		.4byte	0
 8673 0be4 00000000 		.4byte	0
 8674              	.LLST102:
 8675 0be8 24000000 		.4byte	.LVL139
 8676 0bec 2C000000 		.4byte	.LVL140
 8677 0bf0 0100     		.2byte	0x1
 8678 0bf2 50       		.byte	0x50
 8679 0bf3 00000000 		.4byte	0
 8680 0bf7 00000000 		.4byte	0
 8681              	.LLST103:
 8682 0bfb 36000000 		.4byte	.LVL142
 8683 0bff 3A000000 		.4byte	.LVL143
 8684 0c03 0100     		.2byte	0x1
 8685 0c05 55       		.byte	0x55
 8686 0c06 00000000 		.4byte	0
 8687 0c0a 00000000 		.4byte	0
 8688              	.LLST104:
 8689 0c0e 46000000 		.4byte	.LVL144
 8690 0c12 4E000000 		.4byte	.LVL145
 8691 0c16 0400     		.2byte	0x4
 8692 0c18 0A       		.byte	0xa
 8693 0c19 0008     		.2byte	0x800
 8694 0c1b 9F       		.byte	0x9f
 8695 0c1c 00000000 		.4byte	0
 8696 0c20 00000000 		.4byte	0
 8697              	.LLST105:
 8698 0c24 46000000 		.4byte	.LVL144
 8699 0c28 4E000000 		.4byte	.LVL145
 8700 0c2c 0100     		.2byte	0x1
 8701 0c2e 55       		.byte	0x55
 8702 0c2f 00000000 		.4byte	0
 8703 0c33 00000000 		.4byte	0
 8704              	.LLST106:
 8705 0c37 4E000000 		.4byte	.LVL145
 8706 0c3b 50000000 		.4byte	.LVL146
 8707 0c3f 0100     		.2byte	0x1
 8708 0c41 55       		.byte	0x55
 8709 0c42 00000000 		.4byte	0
 8710 0c46 00000000 		.4byte	0
 8711              	.LLST107:
 8712 0c4a 5C000000 		.4byte	.LVL147
 8713 0c4e DC000000 		.4byte	.LVL161
 8714 0c52 0100     		.2byte	0x1
 8715 0c54 54       		.byte	0x54
 8716 0c55 00000000 		.4byte	0
 8717 0c59 00000000 		.4byte	0
 8718              	.LLST108:
 8719 0c5d 5C000000 		.4byte	.LVL147
ARM GAS  C:\Users\pearlstl\AppData\Local\Temp\ccAUXqAU.s 			page 238


 8720 0c61 DC000000 		.4byte	.LVL161
 8721 0c65 0100     		.2byte	0x1
 8722 0c67 55       		.byte	0x55
 8723 0c68 00000000 		.4byte	0
 8724 0c6c 00000000 		.4byte	0
 8725              	.LLST109:
 8726 0c70 72000000 		.4byte	.LVL150
 8727 0c74 DC000000 		.4byte	.LVL161
 8728 0c78 0100     		.2byte	0x1
 8729 0c7a 56       		.byte	0x56
 8730 0c7b 00000000 		.4byte	0
 8731 0c7f 00000000 		.4byte	0
 8732              	.LLST110:
 8733 0c83 5C000000 		.4byte	.LVL147
 8734 0c87 66000000 		.4byte	.LVL148
 8735 0c8b 0100     		.2byte	0x1
 8736 0c8d 55       		.byte	0x55
 8737 0c8e 00000000 		.4byte	0
 8738 0c92 00000000 		.4byte	0
 8739              	.LLST111:
 8740 0c96 90000000 		.4byte	.LVL151
 8741 0c9a A0000000 		.4byte	.LVL152
 8742 0c9e 0100     		.2byte	0x1
 8743 0ca0 57       		.byte	0x57
 8744 0ca1 00000000 		.4byte	0
 8745 0ca5 00000000 		.4byte	0
 8746              	.LLST112:
 8747 0ca9 90000000 		.4byte	.LVL151
 8748 0cad A0000000 		.4byte	.LVL152
 8749 0cb1 0100     		.2byte	0x1
 8750 0cb3 55       		.byte	0x55
 8751 0cb4 00000000 		.4byte	0
 8752 0cb8 00000000 		.4byte	0
 8753              	.LLST113:
 8754 0cbc A0000000 		.4byte	.LVL152
 8755 0cc0 A2000000 		.4byte	.LVL153
 8756 0cc4 0200     		.2byte	0x2
 8757 0cc6 31       		.byte	0x31
 8758 0cc7 9F       		.byte	0x9f
 8759 0cc8 00000000 		.4byte	0
 8760 0ccc 00000000 		.4byte	0
 8761              	.LLST114:
 8762 0cd0 A0000000 		.4byte	.LVL152
 8763 0cd4 A2000000 		.4byte	.LVL153
 8764 0cd8 0100     		.2byte	0x1
 8765 0cda 55       		.byte	0x55
 8766 0cdb 00000000 		.4byte	0
 8767 0cdf 00000000 		.4byte	0
 8768              	.LLST115:
 8769 0ce3 A2000000 		.4byte	.LVL153
 8770 0ce7 B8000000 		.4byte	.LVL155
 8771 0ceb 0200     		.2byte	0x2
 8772 0ced 30       		.byte	0x30
 8773 0cee 9F       		.byte	0x9f
 8774 0cef 00000000 		.4byte	0
 8775 0cf3 00000000 		.4byte	0
 8776              	.LLST116:
ARM GAS  C:\Users\pearlstl\AppData\Local\Temp\ccAUXqAU.s 			page 239


 8777 0cf7 A2000000 		.4byte	.LVL153
 8778 0cfb B8000000 		.4byte	.LVL155
 8779 0cff 0100     		.2byte	0x1
 8780 0d01 55       		.byte	0x55
 8781 0d02 00000000 		.4byte	0
 8782 0d06 00000000 		.4byte	0
 8783              	.LLST117:
 8784 0d0a C2000000 		.4byte	.LVL156
 8785 0d0e CA000000 		.4byte	.LVL157
 8786 0d12 0100     		.2byte	0x1
 8787 0d14 51       		.byte	0x51
 8788 0d15 CA000000 		.4byte	.LVL157
 8789 0d19 CC000000 		.4byte	.LVL158
 8790 0d1d 0600     		.2byte	0x6
 8791 0d1f 71       		.byte	0x71
 8792 0d20 00       		.sleb128 0
 8793 0d21 70       		.byte	0x70
 8794 0d22 00       		.sleb128 0
 8795 0d23 22       		.byte	0x22
 8796 0d24 9F       		.byte	0x9f
 8797 0d25 CC000000 		.4byte	.LVL158
 8798 0d29 DC000000 		.4byte	.LVL161
 8799 0d2d 0100     		.2byte	0x1
 8800 0d2f 50       		.byte	0x50
 8801 0d30 00000000 		.4byte	0
 8802 0d34 00000000 		.4byte	0
 8803              	.LLST118:
 8804 0d38 D2000000 		.4byte	.LVL159
 8805 0d3c DA000000 		.4byte	.LVL160
 8806 0d40 0300     		.2byte	0x3
 8807 0d42 73       		.byte	0x73
 8808 0d43 7F       		.sleb128 -1
 8809 0d44 9F       		.byte	0x9f
 8810 0d45 DA000000 		.4byte	.LVL160
 8811 0d49 DC000000 		.4byte	.LVL161
 8812 0d4d 0100     		.2byte	0x1
 8813 0d4f 53       		.byte	0x53
 8814 0d50 00000000 		.4byte	0
 8815 0d54 00000000 		.4byte	0
 8816              	.LLST119:
 8817 0d58 D2000000 		.4byte	.LVL159
 8818 0d5c DC000000 		.4byte	.LVL161
 8819 0d60 0100     		.2byte	0x1
 8820 0d62 55       		.byte	0x55
 8821 0d63 00000000 		.4byte	0
 8822 0d67 00000000 		.4byte	0
 8823              	.LLST120:
 8824 0d6b E2000000 		.4byte	.LVL162
 8825 0d6f 7C010000 		.4byte	.LVL182
 8826 0d73 0100     		.2byte	0x1
 8827 0d75 54       		.byte	0x54
 8828 0d76 00000000 		.4byte	0
 8829 0d7a 00000000 		.4byte	0
 8830              	.LLST121:
 8831 0d7e E2000000 		.4byte	.LVL162
 8832 0d82 7C010000 		.4byte	.LVL182
 8833 0d86 0100     		.2byte	0x1
ARM GAS  C:\Users\pearlstl\AppData\Local\Temp\ccAUXqAU.s 			page 240


 8834 0d88 55       		.byte	0x55
 8835 0d89 00000000 		.4byte	0
 8836 0d8d 00000000 		.4byte	0
 8837              	.LLST122:
 8838 0d91 F0000000 		.4byte	.LVL164
 8839 0d95 F2000000 		.4byte	.LVL165
 8840 0d99 0100     		.2byte	0x1
 8841 0d9b 53       		.byte	0x53
 8842 0d9c F2000000 		.4byte	.LVL165
 8843 0da0 7C010000 		.4byte	.LVL182
 8844 0da4 0200     		.2byte	0x2
 8845 0da6 91       		.byte	0x91
 8846 0da7 64       		.sleb128 -28
 8847 0da8 00000000 		.4byte	0
 8848 0dac 00000000 		.4byte	0
 8849              	.LLST123:
 8850 0db0 FE000000 		.4byte	.LVL166
 8851 0db4 58010000 		.4byte	.LVL176
 8852 0db8 0200     		.2byte	0x2
 8853 0dba 7D       		.byte	0x7d
 8854 0dbb 00       		.sleb128 0
 8855 0dbc 58010000 		.4byte	.LVL176
 8856 0dc0 5A010000 		.4byte	.LVL177
 8857 0dc4 0100     		.2byte	0x1
 8858 0dc6 53       		.byte	0x53
 8859 0dc7 5A010000 		.4byte	.LVL177
 8860 0dcb 6A010000 		.4byte	.LVL180
 8861 0dcf 0200     		.2byte	0x2
 8862 0dd1 7D       		.byte	0x7d
 8863 0dd2 00       		.sleb128 0
 8864 0dd3 6A010000 		.4byte	.LVL180
 8865 0dd7 7C010000 		.4byte	.LVL182
 8866 0ddb 0100     		.2byte	0x1
 8867 0ddd 50       		.byte	0x50
 8868 0dde 00000000 		.4byte	0
 8869 0de2 00000000 		.4byte	0
 8870              	.LLST124:
 8871 0de6 FE000000 		.4byte	.LVL166
 8872 0dea 2A010000 		.4byte	.LVL171
 8873 0dee 0100     		.2byte	0x1
 8874 0df0 56       		.byte	0x56
 8875 0df1 36010000 		.4byte	.LVL173
 8876 0df5 62010000 		.4byte	.LVL178
 8877 0df9 0100     		.2byte	0x1
 8878 0dfb 56       		.byte	0x56
 8879 0dfc 62010000 		.4byte	.LVL178
 8880 0e00 65010000 		.4byte	.LVL179-1
 8881 0e04 0200     		.2byte	0x2
 8882 0e06 71       		.byte	0x71
 8883 0e07 10       		.sleb128 16
 8884 0e08 00000000 		.4byte	0
 8885 0e0c 00000000 		.4byte	0
 8886              	.LLST125:
 8887 0e10 E2000000 		.4byte	.LVL162
 8888 0e14 EC000000 		.4byte	.LVL163
 8889 0e18 0100     		.2byte	0x1
 8890 0e1a 55       		.byte	0x55
ARM GAS  C:\Users\pearlstl\AppData\Local\Temp\ccAUXqAU.s 			page 241


 8891 0e1b 00000000 		.4byte	0
 8892 0e1f 00000000 		.4byte	0
 8893              	.LLST126:
 8894 0e23 F0000000 		.4byte	.LVL164
 8895 0e27 FE000000 		.4byte	.LVL166
 8896 0e2b 0100     		.2byte	0x1
 8897 0e2d 55       		.byte	0x55
 8898 0e2e 00000000 		.4byte	0
 8899 0e32 00000000 		.4byte	0
 8900              	.LLST127:
 8901 0e36 24010000 		.4byte	.LVL170
 8902 0e3a 2C010000 		.4byte	.LVL172
 8903 0e3e 0200     		.2byte	0x2
 8904 0e40 30       		.byte	0x30
 8905 0e41 9F       		.byte	0x9f
 8906 0e42 00000000 		.4byte	0
 8907 0e46 00000000 		.4byte	0
 8908              	.LLST128:
 8909 0e4a 24010000 		.4byte	.LVL170
 8910 0e4e 2C010000 		.4byte	.LVL172
 8911 0e52 0100     		.2byte	0x1
 8912 0e54 55       		.byte	0x55
 8913 0e55 00000000 		.4byte	0
 8914 0e59 00000000 		.4byte	0
 8915              	.LLST129:
 8916 0e5d 36010000 		.4byte	.LVL173
 8917 0e61 3C010000 		.4byte	.LVL174
 8918 0e65 0100     		.2byte	0x1
 8919 0e67 55       		.byte	0x55
 8920 0e68 00000000 		.4byte	0
 8921 0e6c 00000000 		.4byte	0
 8922              	.LLST130:
 8923 0e70 3C010000 		.4byte	.LVL174
 8924 0e74 40010000 		.4byte	.LVL175
 8925 0e78 0100     		.2byte	0x1
 8926 0e7a 55       		.byte	0x55
 8927 0e7b 00000000 		.4byte	0
 8928 0e7f 00000000 		.4byte	0
 8929              	.LLST131:
 8930 0e83 76010000 		.4byte	.LVL181
 8931 0e87 7C010000 		.4byte	.LVL182
 8932 0e8b 0100     		.2byte	0x1
 8933 0e8d 53       		.byte	0x53
 8934 0e8e 00000000 		.4byte	0
 8935 0e92 00000000 		.4byte	0
 8936              	.LLST133:
 8937 0e96 76010000 		.4byte	.LVL181
 8938 0e9a 7C010000 		.4byte	.LVL182
 8939 0e9e 0100     		.2byte	0x1
 8940 0ea0 55       		.byte	0x55
 8941 0ea1 00000000 		.4byte	0
 8942 0ea5 00000000 		.4byte	0
 8943              	.LLST134:
 8944 0ea9 84010000 		.4byte	.LVL183
 8945 0ead 8E010000 		.4byte	.LVL184
 8946 0eb1 0200     		.2byte	0x2
 8947 0eb3 31       		.byte	0x31
ARM GAS  C:\Users\pearlstl\AppData\Local\Temp\ccAUXqAU.s 			page 242


 8948 0eb4 9F       		.byte	0x9f
 8949 0eb5 00000000 		.4byte	0
 8950 0eb9 00000000 		.4byte	0
 8951              	.LLST135:
 8952 0ebd 84010000 		.4byte	.LVL183
 8953 0ec1 8E010000 		.4byte	.LVL184
 8954 0ec5 0100     		.2byte	0x1
 8955 0ec7 55       		.byte	0x55
 8956 0ec8 00000000 		.4byte	0
 8957 0ecc 00000000 		.4byte	0
 8958              	.LLST136:
 8959 0ed0 8E010000 		.4byte	.LVL184
 8960 0ed4 94010000 		.4byte	.LVL185
 8961 0ed8 0100     		.2byte	0x1
 8962 0eda 55       		.byte	0x55
 8963 0edb 00000000 		.4byte	0
 8964 0edf 00000000 		.4byte	0
 8965              	.LLST137:
 8966 0ee3 A4010000 		.4byte	.LVL188
 8967 0ee7 B4010000 		.4byte	.LVL190
 8968 0eeb 0100     		.2byte	0x1
 8969 0eed 53       		.byte	0x53
 8970 0eee B4010000 		.4byte	.LVL190
 8971 0ef2 BD010000 		.4byte	.LVL191-1
 8972 0ef6 0500     		.2byte	0x5
 8973 0ef8 75       		.byte	0x75
 8974 0ef9 00       		.sleb128 0
 8975 0efa 72       		.byte	0x72
 8976 0efb 00       		.sleb128 0
 8977 0efc 22       		.byte	0x22
 8978 0efd 00000000 		.4byte	0
 8979 0f01 00000000 		.4byte	0
 8980              	.LLST138:
 8981 0f05 98010000 		.4byte	.LVL186
 8982 0f09 A0010000 		.4byte	.LVL187
 8983 0f0d 0100     		.2byte	0x1
 8984 0f0f 55       		.byte	0x55
 8985 0f10 00000000 		.4byte	0
 8986 0f14 00000000 		.4byte	0
 8987              	.LLST139:
 8988 0f18 AC010000 		.4byte	.LVL189
 8989 0f1c B4010000 		.4byte	.LVL190
 8990 0f20 0100     		.2byte	0x1
 8991 0f22 53       		.byte	0x53
 8992 0f23 00000000 		.4byte	0
 8993 0f27 00000000 		.4byte	0
 8994              	.LLST140:
 8995 0f2b AC010000 		.4byte	.LVL189
 8996 0f2f B4010000 		.4byte	.LVL190
 8997 0f33 0100     		.2byte	0x1
 8998 0f35 55       		.byte	0x55
 8999 0f36 00000000 		.4byte	0
 9000 0f3a 00000000 		.4byte	0
 9001              	.LLST141:
 9002 0f3e BE010000 		.4byte	.LVL191
 9003 0f42 C2010000 		.4byte	.LVL192
 9004 0f46 0100     		.2byte	0x1
ARM GAS  C:\Users\pearlstl\AppData\Local\Temp\ccAUXqAU.s 			page 243


 9005 0f48 55       		.byte	0x55
 9006 0f49 00000000 		.4byte	0
 9007 0f4d 00000000 		.4byte	0
 9008              	.LLST142:
 9009 0f51 C6010000 		.4byte	.LVL193
 9010 0f55 62020000 		.4byte	.LVL214
 9011 0f59 0100     		.2byte	0x1
 9012 0f5b 54       		.byte	0x54
 9013 0f5c 00000000 		.4byte	0
 9014 0f60 00000000 		.4byte	0
 9015              	.LLST143:
 9016 0f64 C6010000 		.4byte	.LVL193
 9017 0f68 62020000 		.4byte	.LVL214
 9018 0f6c 0100     		.2byte	0x1
 9019 0f6e 55       		.byte	0x55
 9020 0f6f 00000000 		.4byte	0
 9021 0f73 00000000 		.4byte	0
 9022              	.LLST144:
 9023 0f77 C6010000 		.4byte	.LVL193
 9024 0f7b D0010000 		.4byte	.LVL194
 9025 0f7f 0100     		.2byte	0x1
 9026 0f81 55       		.byte	0x55
 9027 0f82 00000000 		.4byte	0
 9028 0f86 00000000 		.4byte	0
 9029              	.LLST145:
 9030 0f8a D0010000 		.4byte	.LVL194
 9031 0f8e DE010000 		.4byte	.LVL195
 9032 0f92 0100     		.2byte	0x1
 9033 0f94 55       		.byte	0x55
 9034 0f95 00000000 		.4byte	0
 9035 0f99 00000000 		.4byte	0
 9036              	.LLST146:
 9037 0f9d E6010000 		.4byte	.LVL196
 9038 0fa1 00020000 		.4byte	.LVL200
 9039 0fa5 0100     		.2byte	0x1
 9040 0fa7 57       		.byte	0x57
 9041 0fa8 00020000 		.4byte	.LVL200
 9042 0fac 02020000 		.4byte	.LVL201
 9043 0fb0 0600     		.2byte	0x6
 9044 0fb2 77       		.byte	0x77
 9045 0fb3 00       		.sleb128 0
 9046 0fb4 70       		.byte	0x70
 9047 0fb5 00       		.sleb128 0
 9048 0fb6 22       		.byte	0x22
 9049 0fb7 9F       		.byte	0x9f
 9050 0fb8 02020000 		.4byte	.LVL201
 9051 0fbc 04020000 		.4byte	.LVL202
 9052 0fc0 0100     		.2byte	0x1
 9053 0fc2 50       		.byte	0x50
 9054 0fc3 00000000 		.4byte	0
 9055 0fc7 00000000 		.4byte	0
 9056              	.LLST147:
 9057 0fcb E8010000 		.4byte	.LVL197
 9058 0fcf EC010000 		.4byte	.LVL198
 9059 0fd3 0300     		.2byte	0x3
 9060 0fd5 72       		.byte	0x72
 9061 0fd6 7F       		.sleb128 -1
ARM GAS  C:\Users\pearlstl\AppData\Local\Temp\ccAUXqAU.s 			page 244


 9062 0fd7 9F       		.byte	0x9f
 9063 0fd8 EC010000 		.4byte	.LVL198
 9064 0fdc F1010000 		.4byte	.LVL199-1
 9065 0fe0 0100     		.2byte	0x1
 9066 0fe2 52       		.byte	0x52
 9067 0fe3 00000000 		.4byte	0
 9068 0fe7 00000000 		.4byte	0
 9069              	.LLST148:
 9070 0feb E8010000 		.4byte	.LVL197
 9071 0fef F2010000 		.4byte	.LVL199
 9072 0ff3 0100     		.2byte	0x1
 9073 0ff5 57       		.byte	0x57
 9074 0ff6 00000000 		.4byte	0
 9075 0ffa 00000000 		.4byte	0
 9076              	.LLST149:
 9077 0ffe E8010000 		.4byte	.LVL197
 9078 1002 F2010000 		.4byte	.LVL199
 9079 1006 0100     		.2byte	0x1
 9080 1008 55       		.byte	0x55
 9081 1009 00000000 		.4byte	0
 9082 100d 00000000 		.4byte	0
 9083              	.LLST150:
 9084 1011 04020000 		.4byte	.LVL202
 9085 1015 0A020000 		.4byte	.LVL203
 9086 1019 0100     		.2byte	0x1
 9087 101b 55       		.byte	0x55
 9088 101c 00000000 		.4byte	0
 9089 1020 00000000 		.4byte	0
 9090              	.LLST151:
 9091 1024 2A020000 		.4byte	.LVL204
 9092 1028 38020000 		.4byte	.LVL207
 9093 102c 0100     		.2byte	0x1
 9094 102e 56       		.byte	0x56
 9095 102f 38020000 		.4byte	.LVL207
 9096 1033 3E020000 		.4byte	.LVL208
 9097 1037 0300     		.2byte	0x3
 9098 1039 75       		.byte	0x75
 9099 103a C004     		.sleb128 576
 9100 103c 00000000 		.4byte	0
 9101 1040 00000000 		.4byte	0
 9102              	.LLST152:
 9103 1044 2E020000 		.4byte	.LVL205
 9104 1048 43020000 		.4byte	.LVL210-1
 9105 104c 0100     		.2byte	0x1
 9106 104e 50       		.byte	0x50
 9107 104f 00000000 		.4byte	0
 9108 1053 00000000 		.4byte	0
 9109              	.LLST153:
 9110 1057 2E020000 		.4byte	.LVL205
 9111 105b 34020000 		.4byte	.LVL206
 9112 105f 0100     		.2byte	0x1
 9113 1061 56       		.byte	0x56
 9114 1062 00000000 		.4byte	0
 9115 1066 00000000 		.4byte	0
 9116              	.LLST154:
 9117 106a 2E020000 		.4byte	.LVL205
 9118 106e 34020000 		.4byte	.LVL206
ARM GAS  C:\Users\pearlstl\AppData\Local\Temp\ccAUXqAU.s 			page 245


 9119 1072 0100     		.2byte	0x1
 9120 1074 55       		.byte	0x55
 9121 1075 00000000 		.4byte	0
 9122 1079 00000000 		.4byte	0
 9123              	.LLST155:
 9124 107d 34020000 		.4byte	.LVL206
 9125 1081 40020000 		.4byte	.LVL209
 9126 1085 0400     		.2byte	0x4
 9127 1087 0A       		.byte	0xa
 9128 1088 0002     		.2byte	0x200
 9129 108a 9F       		.byte	0x9f
 9130 108b 00000000 		.4byte	0
 9131 108f 00000000 		.4byte	0
 9132              	.LLST156:
 9133 1093 34020000 		.4byte	.LVL206
 9134 1097 40020000 		.4byte	.LVL209
 9135 109b 0100     		.2byte	0x1
 9136 109d 55       		.byte	0x55
 9137 109e 00000000 		.4byte	0
 9138 10a2 00000000 		.4byte	0
 9139              	.LLST157:
 9140 10a6 44020000 		.4byte	.LVL210
 9141 10aa 4A020000 		.4byte	.LVL211
 9142 10ae 0100     		.2byte	0x1
 9143 10b0 55       		.byte	0x55
 9144 10b1 00000000 		.4byte	0
 9145 10b5 00000000 		.4byte	0
 9146              	.LLST158:
 9147 10b9 4E020000 		.4byte	.LVL212
 9148 10bd 50020000 		.4byte	.LVL213
 9149 10c1 0100     		.2byte	0x1
 9150 10c3 53       		.byte	0x53
 9151 10c4 00000000 		.4byte	0
 9152 10c8 00000000 		.4byte	0
 9153              	.LLST159:
 9154 10cc 4E020000 		.4byte	.LVL212
 9155 10d0 50020000 		.4byte	.LVL213
 9156 10d4 0100     		.2byte	0x1
 9157 10d6 55       		.byte	0x55
 9158 10d7 00000000 		.4byte	0
 9159 10db 00000000 		.4byte	0
 9160              	.LLST160:
 9161 10df 62020000 		.4byte	.LVL214
 9162 10e3 6C020000 		.4byte	.LVL215
 9163 10e7 0200     		.2byte	0x2
 9164 10e9 31       		.byte	0x31
 9165 10ea 9F       		.byte	0x9f
 9166 10eb 00000000 		.4byte	0
 9167 10ef 00000000 		.4byte	0
 9168              	.LLST161:
 9169 10f3 62020000 		.4byte	.LVL214
 9170 10f7 6C020000 		.4byte	.LVL215
 9171 10fb 0100     		.2byte	0x1
 9172 10fd 55       		.byte	0x55
 9173 10fe 00000000 		.4byte	0
 9174 1102 00000000 		.4byte	0
 9175              	.LLST162:
ARM GAS  C:\Users\pearlstl\AppData\Local\Temp\ccAUXqAU.s 			page 246


 9176 1106 6C020000 		.4byte	.LVL215
 9177 110a 70020000 		.4byte	.LVL216
 9178 110e 0100     		.2byte	0x1
 9179 1110 55       		.byte	0x55
 9180 1111 00000000 		.4byte	0
 9181 1115 00000000 		.4byte	0
 9182              	.LLST163:
 9183 1119 74020000 		.4byte	.LVL217
 9184 111d 7C020000 		.4byte	.LVL218
 9185 1121 0200     		.2byte	0x2
 9186 1123 30       		.byte	0x30
 9187 1124 9F       		.byte	0x9f
 9188 1125 00000000 		.4byte	0
 9189 1129 00000000 		.4byte	0
 9190              	.LLST164:
 9191 112d 74020000 		.4byte	.LVL217
 9192 1131 7C020000 		.4byte	.LVL218
 9193 1135 0100     		.2byte	0x1
 9194 1137 55       		.byte	0x55
 9195 1138 00000000 		.4byte	0
 9196 113c 00000000 		.4byte	0
 9197              		.section	.debug_aranges,"",%progbits
 9198 0000 AC000000 		.4byte	0xac
 9199 0004 0200     		.2byte	0x2
 9200 0006 00000000 		.4byte	.Ldebug_info0
 9201 000a 04       		.byte	0x4
 9202 000b 00       		.byte	0
 9203 000c 0000     		.2byte	0
 9204 000e 0000     		.2byte	0
 9205 0010 00000000 		.4byte	.LFB155
 9206 0014 C8010000 		.4byte	.LFE155-.LFB155
 9207 0018 00000000 		.4byte	.LFB156
 9208 001c 64000000 		.4byte	.LFE156-.LFB156
 9209 0020 00000000 		.4byte	.LFB157
 9210 0024 18000000 		.4byte	.LFE157-.LFB157
 9211 0028 00000000 		.4byte	.LFB158
 9212 002c 60000000 		.4byte	.LFE158-.LFB158
 9213 0030 00000000 		.4byte	.LFB159
 9214 0034 08000000 		.4byte	.LFE159-.LFB159
 9215 0038 00000000 		.4byte	.LFB160
 9216 003c 44000000 		.4byte	.LFE160-.LFB160
 9217 0040 00000000 		.4byte	.LFB161
 9218 0044 14000000 		.4byte	.LFE161-.LFB161
 9219 0048 00000000 		.4byte	.LFB162
 9220 004c 18000000 		.4byte	.LFE162-.LFB162
 9221 0050 00000000 		.4byte	.LFB163
 9222 0054 06000000 		.4byte	.LFE163-.LFB163
 9223 0058 00000000 		.4byte	.LFB164
 9224 005c F8000000 		.4byte	.LFE164-.LFB164
 9225 0060 00000000 		.4byte	.LFB165
 9226 0064 18000000 		.4byte	.LFE165-.LFB165
 9227 0068 00000000 		.4byte	.LFB166
 9228 006c 04000000 		.4byte	.LFE166-.LFB166
 9229 0070 00000000 		.4byte	.LFB167
 9230 0074 04000000 		.4byte	.LFE167-.LFB167
 9231 0078 00000000 		.4byte	.LFB168
 9232 007c 54000000 		.4byte	.LFE168-.LFB168
ARM GAS  C:\Users\pearlstl\AppData\Local\Temp\ccAUXqAU.s 			page 247


 9233 0080 00000000 		.4byte	.LFB169
 9234 0084 30000000 		.4byte	.LFE169-.LFB169
 9235 0088 00000000 		.4byte	.LFB170
 9236 008c 04000000 		.4byte	.LFE170-.LFB170
 9237 0090 00000000 		.4byte	.LFB171
 9238 0094 04000000 		.4byte	.LFE171-.LFB171
 9239 0098 00000000 		.4byte	.LFB172
 9240 009c 58000000 		.4byte	.LFE172-.LFB172
 9241 00a0 00000000 		.4byte	.LFB173
 9242 00a4 A4020000 		.4byte	.LFE173-.LFB173
 9243 00a8 00000000 		.4byte	0
 9244 00ac 00000000 		.4byte	0
 9245              		.section	.debug_ranges,"",%progbits
 9246              	.Ldebug_ranges0:
 9247 0000 28000000 		.4byte	.LBB177
 9248 0004 36000000 		.4byte	.LBE177
 9249 0008 38000000 		.4byte	.LBB183
 9250 000c 3A000000 		.4byte	.LBE183
 9251 0010 00000000 		.4byte	0
 9252 0014 00000000 		.4byte	0
 9253 0018 36000000 		.4byte	.LBB180
 9254 001c 38000000 		.4byte	.LBE180
 9255 0020 3A000000 		.4byte	.LBB184
 9256 0024 3E000000 		.4byte	.LBE184
 9257 0028 00000000 		.4byte	0
 9258 002c 00000000 		.4byte	0
 9259 0030 00000000 		.4byte	.LBB185
 9260 0034 04000000 		.4byte	.LBE185
 9261 0038 04000000 		.4byte	.LBB188
 9262 003c 06000000 		.4byte	.LBE188
 9263 0040 00000000 		.4byte	0
 9264 0044 00000000 		.4byte	0
 9265 0048 06000000 		.4byte	.LBB189
 9266 004c 08000000 		.4byte	.LBE189
 9267 0050 0A000000 		.4byte	.LBB192
 9268 0054 0C000000 		.4byte	.LBE192
 9269 0058 00000000 		.4byte	0
 9270 005c 00000000 		.4byte	0
 9271 0060 2A000000 		.4byte	.LBB216
 9272 0064 2E000000 		.4byte	.LBE216
 9273 0068 30000000 		.4byte	.LBB219
 9274 006c 40000000 		.4byte	.LBE219
 9275 0070 00000000 		.4byte	0
 9276 0074 00000000 		.4byte	0
 9277 0078 AA000000 		.4byte	.LBB226
 9278 007c DE000000 		.4byte	.LBE226
 9279 0080 E0000000 		.4byte	.LBB235
 9280 0084 E4000000 		.4byte	.LBE235
 9281 0088 00000000 		.4byte	0
 9282 008c 00000000 		.4byte	0
 9283 0090 DA000000 		.4byte	.LBB231
 9284 0094 DE000000 		.4byte	.LBE231
 9285 0098 E0000000 		.4byte	.LBB234
 9286 009c E4000000 		.4byte	.LBE234
 9287 00a0 00000000 		.4byte	0
 9288 00a4 00000000 		.4byte	0
 9289 00a8 00000000 		.4byte	.LBB260
ARM GAS  C:\Users\pearlstl\AppData\Local\Temp\ccAUXqAU.s 			page 248


 9290 00ac 04000000 		.4byte	.LBE260
 9291 00b0 06000000 		.4byte	.LBB263
 9292 00b4 08000000 		.4byte	.LBE263
 9293 00b8 00000000 		.4byte	0
 9294 00bc 00000000 		.4byte	0
 9295 00c0 08000000 		.4byte	.LBB264
 9296 00c4 1A000000 		.4byte	.LBE264
 9297 00c8 1A000000 		.4byte	.LBB269
 9298 00cc 20000000 		.4byte	.LBE269
 9299 00d0 00000000 		.4byte	0
 9300 00d4 00000000 		.4byte	0
 9301 00d8 02000000 		.4byte	.LBB270
 9302 00dc 04000000 		.4byte	.LBE270
 9303 00e0 06000000 		.4byte	.LBB279
 9304 00e4 08000000 		.4byte	.LBE279
 9305 00e8 0A000000 		.4byte	.LBB283
 9306 00ec 0C000000 		.4byte	.LBE283
 9307 00f0 00000000 		.4byte	0
 9308 00f4 00000000 		.4byte	0
 9309 00f8 04000000 		.4byte	.LBB274
 9310 00fc 06000000 		.4byte	.LBE274
 9311 0100 0C000000 		.4byte	.LBB284
 9312 0104 0E000000 		.4byte	.LBE284
 9313 0108 10000000 		.4byte	.LBB285
 9314 010c 14000000 		.4byte	.LBE285
 9315 0110 16000000 		.4byte	.LBB287
 9316 0114 1A000000 		.4byte	.LBE287
 9317 0118 00000000 		.4byte	0
 9318 011c 00000000 		.4byte	0
 9319 0120 08000000 		.4byte	.LBB280
 9320 0124 0A000000 		.4byte	.LBE280
 9321 0128 14000000 		.4byte	.LBB286
 9322 012c 16000000 		.4byte	.LBE286
 9323 0130 00000000 		.4byte	0
 9324 0134 00000000 		.4byte	0
 9325 0138 3A000000 		.4byte	.LBB292
 9326 013c 3C000000 		.4byte	.LBE292
 9327 0140 3C000000 		.4byte	.LBB295
 9328 0144 40000000 		.4byte	.LBE295
 9329 0148 00000000 		.4byte	0
 9330 014c 00000000 		.4byte	0
 9331 0150 14000000 		.4byte	.LBB383
 9332 0154 16000000 		.4byte	.LBE383
 9333 0158 18000000 		.4byte	.LBB386
 9334 015c 1A000000 		.4byte	.LBE386
 9335 0160 00000000 		.4byte	0
 9336 0164 00000000 		.4byte	0
 9337 0168 F0000000 		.4byte	.LBB416
 9338 016c F6000000 		.4byte	.LBE416
 9339 0170 F8000000 		.4byte	.LBB419
 9340 0174 FE000000 		.4byte	.LBE419
 9341 0178 00000000 		.4byte	0
 9342 017c 00000000 		.4byte	0
 9343 0180 24010000 		.4byte	.LBB420
 9344 0184 28010000 		.4byte	.LBE420
 9345 0188 2A010000 		.4byte	.LBB423
 9346 018c 2C010000 		.4byte	.LBE423
ARM GAS  C:\Users\pearlstl\AppData\Local\Temp\ccAUXqAU.s 			page 249


 9347 0190 00000000 		.4byte	0
 9348 0194 00000000 		.4byte	0
 9349 0198 9A010000 		.4byte	.LBB436
 9350 019c 9C010000 		.4byte	.LBE436
 9351 01a0 9E010000 		.4byte	.LBB439
 9352 01a4 A2010000 		.4byte	.LBE439
 9353 01a8 00000000 		.4byte	0
 9354 01ac 00000000 		.4byte	0
 9355 01b0 44020000 		.4byte	.LBB460
 9356 01b4 46020000 		.4byte	.LBE460
 9357 01b8 48020000 		.4byte	.LBB463
 9358 01bc 4A020000 		.4byte	.LBE463
 9359 01c0 00000000 		.4byte	0
 9360 01c4 00000000 		.4byte	0
 9361 01c8 74020000 		.4byte	.LBB470
 9362 01cc 76020000 		.4byte	.LBE470
 9363 01d0 78020000 		.4byte	.LBB473
 9364 01d4 7C020000 		.4byte	.LBE473
 9365 01d8 00000000 		.4byte	0
 9366 01dc 00000000 		.4byte	0
 9367 01e0 00000000 		.4byte	.LFB155
 9368 01e4 C8010000 		.4byte	.LFE155
 9369 01e8 00000000 		.4byte	.LFB156
 9370 01ec 64000000 		.4byte	.LFE156
 9371 01f0 00000000 		.4byte	.LFB157
 9372 01f4 18000000 		.4byte	.LFE157
 9373 01f8 00000000 		.4byte	.LFB158
 9374 01fc 60000000 		.4byte	.LFE158
 9375 0200 00000000 		.4byte	.LFB159
 9376 0204 08000000 		.4byte	.LFE159
 9377 0208 00000000 		.4byte	.LFB160
 9378 020c 44000000 		.4byte	.LFE160
 9379 0210 00000000 		.4byte	.LFB161
 9380 0214 14000000 		.4byte	.LFE161
 9381 0218 00000000 		.4byte	.LFB162
 9382 021c 18000000 		.4byte	.LFE162
 9383 0220 00000000 		.4byte	.LFB163
 9384 0224 06000000 		.4byte	.LFE163
 9385 0228 00000000 		.4byte	.LFB164
 9386 022c F8000000 		.4byte	.LFE164
 9387 0230 00000000 		.4byte	.LFB165
 9388 0234 18000000 		.4byte	.LFE165
 9389 0238 00000000 		.4byte	.LFB166
 9390 023c 04000000 		.4byte	.LFE166
 9391 0240 00000000 		.4byte	.LFB167
 9392 0244 04000000 		.4byte	.LFE167
 9393 0248 00000000 		.4byte	.LFB168
 9394 024c 54000000 		.4byte	.LFE168
 9395 0250 00000000 		.4byte	.LFB169
 9396 0254 30000000 		.4byte	.LFE169
 9397 0258 00000000 		.4byte	.LFB170
 9398 025c 04000000 		.4byte	.LFE170
 9399 0260 00000000 		.4byte	.LFB171
 9400 0264 04000000 		.4byte	.LFE171
 9401 0268 00000000 		.4byte	.LFB172
 9402 026c 58000000 		.4byte	.LFE172
 9403 0270 00000000 		.4byte	.LFB173
ARM GAS  C:\Users\pearlstl\AppData\Local\Temp\ccAUXqAU.s 			page 250


 9404 0274 A4020000 		.4byte	.LFE173
 9405 0278 00000000 		.4byte	0
 9406 027c 00000000 		.4byte	0
 9407              		.section	.debug_line,"",%progbits
 9408              	.Ldebug_line0:
 9409 0000 C3080000 		.section	.debug_str,"MS",%progbits,1
 9409      0200C902 
 9409      00000201 
 9409      FB0E0D00 
 9409      01010101 
 9410              	.LASF62:
 9411 0000 666C6173 		.ascii	"flashCtlMainWs1Freq\000"
 9411      6843746C 
 9411      4D61696E 
 9411      57733146 
 9411      72657100 
 9412              	.LASF278:
 9413 0014 43795F53 		.ascii	"Cy_SCB_WriteTxFifo\000"
 9413      43425F57 
 9413      72697465 
 9413      54784669 
 9413      666F00
 9414              	.LASF110:
 9415 0027 52455345 		.ascii	"RESERVED\000"
 9415      52564544 
 9415      00
 9416              	.LASF226:
 9417 0030 70617269 		.ascii	"parity\000"
 9417      747900
 9418              	.LASF195:
 9419 0037 63795F73 		.ascii	"cy_stc_syspm_callback_params_t\000"
 9419      74635F73 
 9419      7973706D 
 9419      5F63616C 
 9419      6C626163 
 9420              	.LASF346:
 9421 0056 63795F64 		.ascii	"cy_device\000"
 9421      65766963 
 9421      6500
 9422              	.LASF193:
 9423 0060 62617365 		.ascii	"base\000"
 9423      00
 9424              	.LASF89:
 9425 0065 63707573 		.ascii	"cpussCm0ClockCtlOffset\000"
 9425      73436D30 
 9425      436C6F63 
 9425      6B43746C 
 9425      4F666673 
 9426              	.LASF312:
 9427 007c 43795F53 		.ascii	"Cy_SCB_UART_Receive\000"
 9427      43425F55 
 9427      4152545F 
 9427      52656365 
 9427      69766500 
 9428              	.LASF307:
 9429 0090 43795F53 		.ascii	"Cy_SCB_UART_StartRingBuffer\000"
 9429      43425F55 
ARM GAS  C:\Users\pearlstl\AppData\Local\Temp\ccAUXqAU.s 			page 251


 9429      4152545F 
 9429      53746172 
 9429      7452696E 
 9430              	.LASF224:
 9431 00ac 656E6162 		.ascii	"enableMsbFirst\000"
 9431      6C654D73 
 9431      62466972 
 9431      737400
 9432              	.LASF250:
 9433 00bb 74785374 		.ascii	"txStatus\000"
 9433      61747573 
 9433      00
 9434              	.LASF196:
 9435 00c4 43595F53 		.ascii	"CY_SCB_UART_SUCCESS\000"
 9435      43425F55 
 9435      4152545F 
 9435      53554343 
 9435      45535300 
 9436              	.LASF22:
 9437 00d8 75646242 		.ascii	"udbBase\000"
 9437      61736500 
 9438              	.LASF109:
 9439 00e0 434D445F 		.ascii	"CMD_RESP_STATUS\000"
 9439      52455350 
 9439      5F535441 
 9439      54555300 
 9440              	.LASF187:
 9441 00f0 63795F65 		.ascii	"cy_en_syspm_status_t\000"
 9441      6E5F7379 
 9441      73706D5F 
 9441      73746174 
 9441      75735F74 
 9442              	.LASF169:
 9443 0105 494E5452 		.ascii	"INTR_TX_MASK\000"
 9443      5F54585F 
 9443      4D41534B 
 9443      00
 9444              	.LASF21:
 9445 0112 70657269 		.ascii	"periBase\000"
 9445      42617365 
 9445      00
 9446              	.LASF259:
 9447 011b 74784275 		.ascii	"txBuf\000"
 9447      6600
 9448              	.LASF276:
 9449 0121 43795F53 		.ascii	"Cy_SCB_GetTxInterruptMask\000"
 9449      43425F47 
 9449      65745478 
 9449      496E7465 
 9449      72727570 
 9450              	.LASF97:
 9451 013b 63707573 		.ascii	"cpussCm0NmiCtlOffset\000"
 9451      73436D30 
 9451      4E6D6943 
 9451      746C4F66 
 9451      66736574 
 9452              	.LASF67:
ARM GAS  C:\Users\pearlstl\AppData\Local\Temp\ccAUXqAU.s 			page 252


 9453 0150 64774368 		.ascii	"dwChSize\000"
 9453      53697A65 
 9453      00
 9454              	.LASF291:
 9455 0159 43795F53 		.ascii	"Cy_SCB_GetTxInterruptStatusMasked\000"
 9455      43425F47 
 9455      65745478 
 9455      496E7465 
 9455      72727570 
 9456              	.LASF130:
 9457 017b 54585F46 		.ascii	"TX_FIFO_STATUS\000"
 9457      49464F5F 
 9457      53544154 
 9457      555300
 9458              	.LASF330:
 9459 018a 72784461 		.ascii	"rxData\000"
 9459      746100
 9460              	.LASF12:
 9461 0191 756E7369 		.ascii	"unsigned int\000"
 9461      676E6564 
 9461      20696E74 
 9461      00
 9462              	.LASF145:
 9463 019e 494E5452 		.ascii	"INTR_CAUSE\000"
 9463      5F434155 
 9463      534500
 9464              	.LASF49:
 9465 01a9 736D6966 		.ascii	"smifDeviceNr\000"
 9465      44657669 
 9465      63654E72 
 9465      00
 9466              	.LASF217:
 9467 01b6 43595F53 		.ascii	"CY_SCB_UART_ACTIVE_LOW\000"
 9467      43425F55 
 9467      4152545F 
 9467      41435449 
 9467      56455F4C 
 9468              	.LASF79:
 9469 01cd 70657269 		.ascii	"periDivCmdPaTypeSelPos\000"
 9469      44697643 
 9469      6D645061 
 9469      54797065 
 9469      53656C50 
 9470              	.LASF230:
 9471 01e4 656E6162 		.ascii	"enableMutliProcessorMode\000"
 9471      6C654D75 
 9471      746C6950 
 9471      726F6365 
 9471      73736F72 
 9472              	.LASF41:
 9473 01fd 63707573 		.ascii	"cpussFlashPaSize\000"
 9473      73466C61 
 9473      73685061 
 9473      53697A65 
 9473      00
 9474              	.LASF135:
 9475 020e 52585F46 		.ascii	"RX_FIFO_CTRL\000"
ARM GAS  C:\Users\pearlstl\AppData\Local\Temp\ccAUXqAU.s 			page 253


 9475      49464F5F 
 9475      4354524C 
 9475      00
 9476              	.LASF263:
 9477 021b 63795F73 		.ascii	"cy_stc_scb_uart_context_t\000"
 9477      74635F73 
 9477      63625F75 
 9477      6172745F 
 9477      636F6E74 
 9478              	.LASF19:
 9479 0235 63707573 		.ascii	"cpussBase\000"
 9479      73426173 
 9479      6500
 9480              	.LASF304:
 9481 023f 43795F53 		.ascii	"Cy_SCB_GetFifoSize\000"
 9481      43425F47 
 9481      65744669 
 9481      666F5369 
 9481      7A6500
 9482              	.LASF163:
 9483 0252 494E5452 		.ascii	"INTR_S_SET\000"
 9483      5F535F53 
 9483      455400
 9484              	.LASF306:
 9485 025d 6C657665 		.ascii	"level\000"
 9485      6C00
 9486              	.LASF168:
 9487 0263 494E5452 		.ascii	"INTR_TX_SET\000"
 9487      5F54585F 
 9487      53455400 
 9488              	.LASF175:
 9489 026f 494E5452 		.ascii	"INTR_RX_MASKED\000"
 9489      5F52585F 
 9489      4D41534B 
 9489      454400
 9490              	.LASF227:
 9491 027e 656E6162 		.ascii	"enableInputFilter\000"
 9491      6C65496E 
 9491      70757446 
 9491      696C7465 
 9491      7200
 9492              	.LASF210:
 9493 0290 43595F53 		.ascii	"CY_SCB_UART_STOP_BITS_3_5\000"
 9493      43425F55 
 9493      4152545F 
 9493      53544F50 
 9493      5F424954 
 9494              	.LASF314:
 9495 02aa 6E756D54 		.ascii	"numToCopy\000"
 9495      6F436F70 
 9495      7900
 9496              	.LASF43:
 9497 02b4 63707573 		.ascii	"cpussFmIrq\000"
 9497      73466D49 
 9497      727100
 9498              	.LASF75:
 9499 02bf 70657269 		.ascii	"periTrGrSize\000"
ARM GAS  C:\Users\pearlstl\AppData\Local\Temp\ccAUXqAU.s 			page 254


 9499      54724772 
 9499      53697A65 
 9499      00
 9500              	.LASF78:
 9501 02cc 70657269 		.ascii	"periDivCmdPaDivSelPos\000"
 9501      44697643 
 9501      6D645061 
 9501      44697653 
 9501      656C506F 
 9502              	.LASF323:
 9503 02e2 43795F53 		.ascii	"Cy_SCB_UART_SendBreakBlocking\000"
 9503      43425F55 
 9503      4152545F 
 9503      53656E64 
 9503      42726561 
 9504              	.LASF55:
 9505 0300 63727970 		.ascii	"cryptoMemSize\000"
 9505      746F4D65 
 9505      6D53697A 
 9505      6500
 9506              	.LASF299:
 9507 030e 6D6F6465 		.ascii	"mode\000"
 9507      00
 9508              	.LASF101:
 9509 0313 63707573 		.ascii	"cpussRam1Ctl0\000"
 9509      7352616D 
 9509      3143746C 
 9509      3000
 9510              	.LASF200:
 9511 0321 63795F65 		.ascii	"cy_en_scb_uart_status_t\000"
 9511      6E5F7363 
 9511      625F7561 
 9511      72745F73 
 9511      74617475 
 9512              	.LASF103:
 9513 0339 69706353 		.ascii	"ipcStructSize\000"
 9513      74727563 
 9513      7453697A 
 9513      6500
 9514              	.LASF336:
 9515 0347 6C6F6352 		.ascii	"locRxErr\000"
 9515      78457272 
 9515      00
 9516              	.LASF320:
 9517 0350 43795F53 		.ascii	"Cy_SCB_ClearTxFifo\000"
 9517      43425F43 
 9517      6C656172 
 9517      54784669 
 9517      666F00
 9518              	.LASF37:
 9519 0363 70726F74 		.ascii	"protVersion\000"
 9519      56657273 
 9519      696F6E00 
 9520              	.LASF116:
 9521 036f 55415254 		.ascii	"UART_RX_CTRL\000"
 9521      5F52585F 
 9521      4354524C 
ARM GAS  C:\Users\pearlstl\AppData\Local\Temp\ccAUXqAU.s 			page 255


 9521      00
 9522              	.LASF77:
 9523 037c 70657269 		.ascii	"periDivCmdTypeSelPos\000"
 9523      44697643 
 9523      6D645479 
 9523      70655365 
 9523      6C506F73 
 9524              	.LASF94:
 9525 0391 63707573 		.ascii	"cpussTrimRamCtlOffset\000"
 9525      73547269 
 9525      6D52616D 
 9525      43746C4F 
 9525      66667365 
 9526              	.LASF177:
 9527 03a7 43795343 		.ascii	"CySCB_Type\000"
 9527      425F5479 
 9527      706500
 9528              	.LASF189:
 9529 03b2 43595F53 		.ascii	"CY_SYSPM_CHECK_FAIL\000"
 9529      5953504D 
 9529      5F434845 
 9529      434B5F46 
 9529      41494C00 
 9530              	.LASF214:
 9531 03c6 43595F53 		.ascii	"CY_SCB_UART_PARITY_EVEN\000"
 9531      43425F55 
 9531      4152545F 
 9531      50415249 
 9531      54595F45 
 9532              	.LASF251:
 9533 03de 72785374 		.ascii	"rxStatus\000"
 9533      61747573 
 9533      00
 9534              	.LASF124:
 9535 03e7 4932435F 		.ascii	"I2C_CFG\000"
 9535      43464700 
 9536              	.LASF141:
 9537 03ef 52585F46 		.ascii	"RX_FIFO_RD_SILENT\000"
 9537      49464F5F 
 9537      52445F53 
 9537      494C454E 
 9537      5400
 9538              	.LASF266:
 9539 0401 43795F53 		.ascii	"Cy_SCB_GetNumInRxFifo\000"
 9539      43425F47 
 9539      65744E75 
 9539      6D496E52 
 9539      78466966 
 9540              	.LASF203:
 9541 0417 43595F53 		.ascii	"CY_SCB_UART_IRDA\000"
 9541      43425F55 
 9541      4152545F 
 9541      49524441 
 9541      00
 9542              	.LASF16:
 9543 0428 75696E74 		.ascii	"uint32_t\000"
 9543      33325F74 
ARM GAS  C:\Users\pearlstl\AppData\Local\Temp\ccAUXqAU.s 			page 256


 9543      00
 9544              	.LASF272:
 9545 0431 43795F53 		.ascii	"Cy_SCB_IsTxDataWidthByte\000"
 9545      43425F49 
 9545      73547844 
 9545      61746157 
 9545      69647468 
 9546              	.LASF242:
 9547 044a 72784669 		.ascii	"rxFifoTriggerLevel\000"
 9547      666F5472 
 9547      69676765 
 9547      724C6576 
 9547      656C00
 9548              	.LASF158:
 9549 045d 494E5452 		.ascii	"INTR_M_SET\000"
 9549      5F4D5F53 
 9549      455400
 9550              	.LASF234:
 9551 0468 69726461 		.ascii	"irdaInvertRx\000"
 9551      496E7665 
 9551      72745278 
 9551      00
 9552              	.LASF253:
 9553 0475 72785269 		.ascii	"rxRingBufSize\000"
 9553      6E674275 
 9553      6653697A 
 9553      6500
 9554              	.LASF87:
 9555 0483 6770696F 		.ascii	"gpioPrtCfgOutOffset\000"
 9555      50727443 
 9555      66674F75 
 9555      744F6666 
 9555      73657400 
 9556              	.LASF327:
 9557 0497 48616E64 		.ascii	"HandleDataReceive\000"
 9557      6C654461 
 9557      74615265 
 9557      63656976 
 9557      6500
 9558              	.LASF248:
 9559 04a9 7374635F 		.ascii	"stc_scb_uart_config\000"
 9559      7363625F 
 9559      75617274 
 9559      5F636F6E 
 9559      66696700 
 9560              	.LASF30:
 9561 04bd 63727970 		.ascii	"cryptoVersion\000"
 9561      746F5665 
 9561      7273696F 
 9561      6E00
 9562              	.LASF160:
 9563 04cb 494E5452 		.ascii	"INTR_M_MASKED\000"
 9563      5F4D5F4D 
 9563      41534B45 
 9563      4400
 9564              	.LASF59:
 9565 04d9 666C6173 		.ascii	"flashProgramDelay\000"
ARM GAS  C:\Users\pearlstl\AppData\Local\Temp\ccAUXqAU.s 			page 257


 9565      6850726F 
 9565      6772616D 
 9565      44656C61 
 9565      7900
 9566              	.LASF317:
 9567 04eb 43795F53 		.ascii	"Cy_SCB_UART_GetNumReceived\000"
 9567      43425F55 
 9567      4152545F 
 9567      4765744E 
 9567      756D5265 
 9568              	.LASF249:
 9569 0506 63795F73 		.ascii	"cy_stc_scb_uart_context\000"
 9569      74635F73 
 9569      63625F75 
 9569      6172745F 
 9569      636F6E74 
 9570              	.LASF14:
 9571 051e 696E7431 		.ascii	"int16_t\000"
 9571      365F7400 
 9572              	.LASF240:
 9573 0526 72747350 		.ascii	"rtsPolarity\000"
 9573      6F6C6172 
 9573      69747900 
 9574              	.LASF280:
 9575 0532 43795F53 		.ascii	"Cy_SCB_ReadRxFifo\000"
 9575      43425F52 
 9575      65616452 
 9575      78466966 
 9575      6F00
 9576              	.LASF199:
 9577 0544 43595F53 		.ascii	"CY_SCB_UART_TRANSMIT_BUSY\000"
 9577      43425F55 
 9577      4152545F 
 9577      5452414E 
 9577      534D4954 
 9578              	.LASF11:
 9579 055e 6C6F6E67 		.ascii	"long long unsigned int\000"
 9579      206C6F6E 
 9579      6720756E 
 9579      7369676E 
 9579      65642069 
 9580              	.LASF83:
 9581 0575 70657269 		.ascii	"periDiv24_5CtlOffset\000"
 9581      44697632 
 9581      345F3543 
 9581      746C4F66 
 9581      66736574 
 9582              	.LASF88:
 9583 058a 6770696F 		.ascii	"gpioPrtCfgSioOffset\000"
 9583      50727443 
 9583      66675369 
 9583      6F4F6666 
 9583      73657400 
 9584              	.LASF284:
 9585 059e 43795F53 		.ascii	"Cy_SCB_UART_IsTxComplete\000"
 9585      43425F55 
 9585      4152545F 
ARM GAS  C:\Users\pearlstl\AppData\Local\Temp\ccAUXqAU.s 			page 258


 9585      49735478 
 9585      436F6D70 
 9586              	.LASF42:
 9587 05b7 63707573 		.ascii	"cpussIpc0Irq\000"
 9587      73497063 
 9587      30497271 
 9587      00
 9588              	.LASF337:
 9589 05c4 6C6F6354 		.ascii	"locTxErr\000"
 9589      78457272 
 9589      00
 9590              	.LASF218:
 9591 05cd 43595F53 		.ascii	"CY_SCB_UART_ACTIVE_HIGH\000"
 9591      43425F55 
 9591      4152545F 
 9591      41435449 
 9591      56455F48 
 9592              	.LASF5:
 9593 05e5 5F5F7569 		.ascii	"__uint16_t\000"
 9593      6E743136 
 9593      5F7400
 9594              	.LASF48:
 9595 05f0 70657269 		.ascii	"periClockNr\000"
 9595      436C6F63 
 9595      6B4E7200 
 9596              	.LASF128:
 9597 05fc 54585F43 		.ascii	"TX_CTRL\000"
 9597      54524C00 
 9598              	.LASF115:
 9599 0604 55415254 		.ascii	"UART_TX_CTRL\000"
 9599      5F54585F 
 9599      4354524C 
 9599      00
 9600              	.LASF321:
 9601 0611 43795F53 		.ascii	"Cy_SCB_UART_AbortTransmit\000"
 9601      43425F55 
 9601      4152545F 
 9601      41626F72 
 9601      74547261 
 9602              	.LASF60:
 9603 062b 666C6173 		.ascii	"flashEraseDelay\000"
 9603      68457261 
 9603      73654465 
 9603      6C617900 
 9604              	.LASF289:
 9605 063b 43795F53 		.ascii	"Cy_SCB_GetRxInterruptStatusMasked\000"
 9605      43425F47 
 9605      65745278 
 9605      496E7465 
 9605      72727570 
 9606              	.LASF256:
 9607 065d 72784275 		.ascii	"rxBuf\000"
 9607      6600
 9608              	.LASF181:
 9609 0663 43595F53 		.ascii	"CY_SYSPM_SUCCESS\000"
 9609      5953504D 
 9609      5F535543 
ARM GAS  C:\Users\pearlstl\AppData\Local\Temp\ccAUXqAU.s 			page 259


 9609      43455353 
 9609      00
 9610              	.LASF294:
 9611 0674 43795F53 		.ascii	"Cy_SCB_UART_Disable\000"
 9611      43425F55 
 9611      4152545F 
 9611      44697361 
 9611      626C6500 
 9612              	.LASF64:
 9613 0688 666C6173 		.ascii	"flashCtlMainWs3Freq\000"
 9613      6843746C 
 9613      4D61696E 
 9613      57733346 
 9613      72657100 
 9614              	.LASF46:
 9615 069c 73727373 		.ascii	"srssNumPll\000"
 9615      4E756D50 
 9615      6C6C00
 9616              	.LASF219:
 9617 06a7 63795F65 		.ascii	"cy_en_scb_uart_polarity_t\000"
 9617      6E5F7363 
 9617      625F7561 
 9617      72745F70 
 9617      6F6C6172 
 9618              	.LASF152:
 9619 06c1 494E5452 		.ascii	"INTR_SPI_EC\000"
 9619      5F535049 
 9619      5F454300 
 9620              	.LASF208:
 9621 06cd 43595F53 		.ascii	"CY_SCB_UART_STOP_BITS_2_5\000"
 9621      43425F55 
 9621      4152545F 
 9621      53544F50 
 9621      5F424954 
 9622              	.LASF57:
 9623 06e7 666C6173 		.ascii	"flashPipeRequired\000"
 9623      68506970 
 9623      65526571 
 9623      75697265 
 9623      6400
 9624              	.LASF202:
 9625 06f9 43595F53 		.ascii	"CY_SCB_UART_SMARTCARD\000"
 9625      43425F55 
 9625      4152545F 
 9625      534D4152 
 9625      54434152 
 9626              	.LASF262:
 9627 070f 63624576 		.ascii	"cbEvents\000"
 9627      656E7473 
 9627      00
 9628              	.LASF339:
 9629 0718 43795F53 		.ascii	"Cy_SCB_WriteArray\000"
 9629      43425F57 
 9629      72697465 
 9629      41727261 
 9629      7900
 9630              	.LASF246:
ARM GAS  C:\Users\pearlstl\AppData\Local\Temp\ccAUXqAU.s 			page 260


 9631 072a 5F426F6F 		.ascii	"_Bool\000"
 9631      6C00
 9632              	.LASF277:
 9633 0730 43795F53 		.ascii	"Cy_SCB_ClearTxInterrupt\000"
 9633      43425F43 
 9633      6C656172 
 9633      5478496E 
 9633      74657272 
 9634              	.LASF206:
 9635 0748 43595F53 		.ascii	"CY_SCB_UART_STOP_BITS_1_5\000"
 9635      43425F55 
 9635      4152545F 
 9635      53544F50 
 9635      5F424954 
 9636              	.LASF61:
 9637 0762 666C6173 		.ascii	"flashCtlMainWs0Freq\000"
 9637      6843746C 
 9637      4D61696E 
 9637      57733046 
 9637      72657100 
 9638              	.LASF25:
 9639 0776 6770696F 		.ascii	"gpioBase\000"
 9639      42617365 
 9639      00
 9640              	.LASF147:
 9641 077f 494E5452 		.ascii	"INTR_I2C_EC\000"
 9641      5F493243 
 9641      5F454300 
 9642              	.LASF265:
 9643 078b 43795F53 		.ascii	"Cy_SCB_GetNumInTxFifo\000"
 9643      43425F47 
 9643      65744E75 
 9643      6D496E54 
 9643      78466966 
 9644              	.LASF165:
 9645 07a1 494E5452 		.ascii	"INTR_S_MASKED\000"
 9645      5F535F4D 
 9645      41534B45 
 9645      4400
 9646              	.LASF216:
 9647 07af 63795F65 		.ascii	"cy_en_scb_uart_parity_t\000"
 9647      6E5F7363 
 9647      625F7561 
 9647      72745F70 
 9647      61726974 
 9648              	.LASF96:
 9649 07c7 63707573 		.ascii	"cpussSysTickCtlOffset\000"
 9649      73537973 
 9649      5469636B 
 9649      43746C4F 
 9649      66667365 
 9650              	.LASF52:
 9651 07dd 75646250 		.ascii	"udbPresent\000"
 9651      72657365 
 9651      6E7400
 9652              	.LASF343:
 9653 07e8 47656E65 		.ascii	"Generated_Source\\PSoC6\\pdl\\drivers\\peripheral\\"
ARM GAS  C:\Users\pearlstl\AppData\Local\Temp\ccAUXqAU.s 			page 261


 9653      72617465 
 9653      645F536F 
 9653      75726365 
 9653      5C50536F 
 9654 0816 7363625C 		.ascii	"scb\\cy_scb_uart.c\000"
 9654      63795F73 
 9654      63625F75 
 9654      6172742E 
 9654      6300
 9655              	.LASF70:
 9656 0828 64775374 		.ascii	"dwStatusChIdxPos\000"
 9656      61747573 
 9656      43684964 
 9656      78506F73 
 9656      00
 9657              	.LASF233:
 9658 0839 61636365 		.ascii	"acceptAddrInFifo\000"
 9658      70744164 
 9658      6472496E 
 9658      4669666F 
 9658      00
 9659              	.LASF315:
 9660 084a 6C6F6354 		.ascii	"locTail\000"
 9660      61696C00 
 9661              	.LASF183:
 9662 0852 43595F53 		.ascii	"CY_SYSPM_TIMEOUT\000"
 9662      5953504D 
 9662      5F54494D 
 9662      454F5554 
 9662      00
 9663              	.LASF184:
 9664 0863 43595F53 		.ascii	"CY_SYSPM_INVALID_STATE\000"
 9664      5953504D 
 9664      5F494E56 
 9664      414C4944 
 9664      5F535441 
 9665              	.LASF308:
 9666 087a 68616C66 		.ascii	"halfFifoSize\000"
 9666      4669666F 
 9666      53697A65 
 9666      00
 9667              	.LASF329:
 9668 0887 48616E64 		.ascii	"HandleRingBuffer\000"
 9668      6C655269 
 9668      6E674275 
 9668      66666572 
 9668      00
 9669              	.LASF185:
 9670 0898 43595F53 		.ascii	"CY_SYSPM_CANCELED\000"
 9670      5953504D 
 9670      5F43414E 
 9670      43454C45 
 9670      4400
 9671              	.LASF20:
 9672 08aa 666C6173 		.ascii	"flashcBase\000"
 9672      68634261 
 9672      736500
ARM GAS  C:\Users\pearlstl\AppData\Local\Temp\ccAUXqAU.s 			page 262


 9673              	.LASF178:
 9674 08b5 63686172 		.ascii	"char\000"
 9674      00
 9675              	.LASF126:
 9676 08ba 44444654 		.ascii	"DDFT_CTRL\000"
 9676      5F435452 
 9676      4C00
 9677              	.LASF176:
 9678 08c4 43795343 		.ascii	"CySCB_V1_Type\000"
 9678      425F5631 
 9678      5F547970 
 9678      6500
 9679              	.LASF255:
 9680 08d2 72785269 		.ascii	"rxRingBufTail\000"
 9680      6E674275 
 9680      66546169 
 9680      6C00
 9681              	.LASF231:
 9682 08e0 72656365 		.ascii	"receiverAddress\000"
 9682      69766572 
 9682      41646472 
 9682      65737300 
 9683              	.LASF241:
 9684 08f0 62726561 		.ascii	"breakWidth\000"
 9684      6B576964 
 9684      746800
 9685              	.LASF164:
 9686 08fb 494E5452 		.ascii	"INTR_S_MASK\000"
 9686      5F535F4D 
 9686      41534B00 
 9687              	.LASF53:
 9688 0907 73797350 		.ascii	"sysPmSimoPresent\000"
 9688      6D53696D 
 9688      6F507265 
 9688      73656E74 
 9688      00
 9689              	.LASF340:
 9690 0918 43795F53 		.ascii	"Cy_SysLib_EnterCriticalSection\000"
 9690      79734C69 
 9690      625F456E 
 9690      74657243 
 9690      72697469 
 9691              	.LASF150:
 9692 0937 494E5452 		.ascii	"INTR_I2C_EC_MASKED\000"
 9692      5F493243 
 9692      5F45435F 
 9692      4D41534B 
 9692      454400
 9693              	.LASF295:
 9694 094a 43795F53 		.ascii	"Cy_SCB_IsTxComplete\000"
 9694      43425F49 
 9694      73547843 
 9694      6F6D706C 
 9694      65746500 
 9695              	.LASF279:
 9696 095e 64617461 		.ascii	"data\000"
 9696      00
ARM GAS  C:\Users\pearlstl\AppData\Local\Temp\ccAUXqAU.s 			page 263


 9697              	.LASF338:
 9698 0963 43795F53 		.ascii	"Cy_SCB_ReadArray\000"
 9698      43425F52 
 9698      65616441 
 9698      72726179 
 9698      00
 9699              	.LASF228:
 9700 0974 64726F70 		.ascii	"dropOnParityError\000"
 9700      4F6E5061 
 9700      72697479 
 9700      4572726F 
 9700      7200
 9701              	.LASF258:
 9702 0986 72784275 		.ascii	"rxBufIdx\000"
 9702      66496478 
 9702      00
 9703              	.LASF318:
 9704 098f 43795F53 		.ascii	"Cy_SCB_SetTxFifoLevel\000"
 9704      43425F53 
 9704      65745478 
 9704      4669666F 
 9704      4C657665 
 9705              	.LASF345:
 9706 09a5 43795F53 		.ascii	"Cy_SCB_UART_ClearRingBuffer\000"
 9706      43425F55 
 9706      4152545F 
 9706      436C6561 
 9706      7252696E 
 9707              	.LASF71:
 9708 09c1 64775374 		.ascii	"dwStatusChIdxMsk\000"
 9708      61747573 
 9708      43684964 
 9708      784D736B 
 9708      00
 9709              	.LASF13:
 9710 09d2 75696E74 		.ascii	"uint8_t\000"
 9710      385F7400 
 9711              	.LASF282:
 9712 09da 43795F53 		.ascii	"Cy_SCB_UART_GetTransmitStatus\000"
 9712      43425F55 
 9712      4152545F 
 9712      47657454 
 9712      72616E73 
 9713              	.LASF76:
 9714 09f8 70657269 		.ascii	"periDivCmdDivSelMsk\000"
 9714      44697643 
 9714      6D644469 
 9714      7653656C 
 9714      4D736B00 
 9715              	.LASF4:
 9716 0a0c 73686F72 		.ascii	"short int\000"
 9716      7420696E 
 9716      7400
 9717              	.LASF82:
 9718 0a16 70657269 		.ascii	"periDiv16_5CtlOffset\000"
 9718      44697631 
 9718      365F3543 
ARM GAS  C:\Users\pearlstl\AppData\Local\Temp\ccAUXqAU.s 			page 264


 9718      746C4F66 
 9718      66736574 
 9719              	.LASF287:
 9720 0a2b 43795F53 		.ascii	"Cy_SCB_GetTxInterruptStatus\000"
 9720      43425F47 
 9720      65745478 
 9720      496E7465 
 9720      72727570 
 9721              	.LASF309:
 9722 0a47 43795F53 		.ascii	"Cy_SCB_UART_StopRingBuffer\000"
 9722      43425F55 
 9722      4152545F 
 9722      53746F70 
 9722      52696E67 
 9723              	.LASF220:
 9724 0a62 63795F63 		.ascii	"cy_cb_scb_uart_handle_events_t\000"
 9724      625F7363 
 9724      625F7561 
 9724      72745F68 
 9724      616E646C 
 9725              	.LASF236:
 9726 0a81 736D6172 		.ascii	"smartCardRetryOnNack\000"
 9726      74436172 
 9726      64526574 
 9726      72794F6E 
 9726      4E61636B 
 9727              	.LASF140:
 9728 0a96 52585F46 		.ascii	"RX_FIFO_RD\000"
 9728      49464F5F 
 9728      524400
 9729              	.LASF100:
 9730 0aa1 63707573 		.ascii	"cpussRam0Ctl0\000"
 9730      7352616D 
 9730      3043746C 
 9730      3000
 9731              	.LASF10:
 9732 0aaf 6C6F6E67 		.ascii	"long long int\000"
 9732      206C6F6E 
 9732      6720696E 
 9732      7400
 9733              	.LASF27:
 9734 0abd 69706342 		.ascii	"ipcBase\000"
 9734      61736500 
 9735              	.LASF68:
 9736 0ac5 64774368 		.ascii	"dwChCtlPrioPos\000"
 9736      43746C50 
 9736      72696F50 
 9736      6F7300
 9737              	.LASF28:
 9738 0ad4 63727970 		.ascii	"cryptoBase\000"
 9738      746F4261 
 9738      736500
 9739              	.LASF197:
 9740 0adf 43595F53 		.ascii	"CY_SCB_UART_BAD_PARAM\000"
 9740      43425F55 
 9740      4152545F 
 9740      4241445F 
ARM GAS  C:\Users\pearlstl\AppData\Local\Temp\ccAUXqAU.s 			page 265


 9740      50415241 
 9741              	.LASF58:
 9742 0af5 666C6173 		.ascii	"flashWriteDelay\000"
 9742      68577269 
 9742      74654465 
 9742      6C617900 
 9743              	.LASF194:
 9744 0b05 636F6E74 		.ascii	"context\000"
 9744      65787400 
 9745              	.LASF235:
 9746 0b0d 69726461 		.ascii	"irdaEnableLowPowerReceiver\000"
 9746      456E6162 
 9746      6C654C6F 
 9746      77506F77 
 9746      65725265 
 9747              	.LASF311:
 9748 0b28 6C6F6348 		.ascii	"locHead\000"
 9748      65616400 
 9749              	.LASF205:
 9750 0b30 43595F53 		.ascii	"CY_SCB_UART_STOP_BITS_1\000"
 9750      43425F55 
 9750      4152545F 
 9750      53544F50 
 9750      5F424954 
 9751              	.LASF207:
 9752 0b48 43595F53 		.ascii	"CY_SCB_UART_STOP_BITS_2\000"
 9752      43425F55 
 9752      4152545F 
 9752      53544F50 
 9752      5F424954 
 9753              	.LASF209:
 9754 0b60 43595F53 		.ascii	"CY_SCB_UART_STOP_BITS_3\000"
 9754      43425F55 
 9754      4152545F 
 9754      53544F50 
 9754      5F424954 
 9755              	.LASF288:
 9756 0b78 43795F53 		.ascii	"Cy_SCB_GetInterruptCause\000"
 9756      43425F47 
 9756      6574496E 
 9756      74657272 
 9756      75707443 
 9757              	.LASF297:
 9758 0b91 43795F53 		.ascii	"Cy_SCB_UART_DeepSleepCallback\000"
 9758      43425F55 
 9758      4152545F 
 9758      44656570 
 9758      536C6565 
 9759              	.LASF86:
 9760 0baf 6770696F 		.ascii	"gpioPrtCfgInOffset\000"
 9760      50727443 
 9760      6667496E 
 9760      4F666673 
 9760      657400
 9761              	.LASF3:
 9762 0bc2 5F5F696E 		.ascii	"__int16_t\000"
 9762      7431365F 
ARM GAS  C:\Users\pearlstl\AppData\Local\Temp\ccAUXqAU.s 			page 266


 9762      7400
 9763              	.LASF118:
 9764 0bcc 55415254 		.ascii	"UART_FLOW_CTRL\000"
 9764      5F464C4F 
 9764      575F4354 
 9764      524C00
 9765              	.LASF198:
 9766 0bdb 43595F53 		.ascii	"CY_SCB_UART_RECEIVE_BUSY\000"
 9766      43425F55 
 9766      4152545F 
 9766      52454345 
 9766      4956455F 
 9767              	.LASF225:
 9768 0bf4 73746F70 		.ascii	"stopBits\000"
 9768      42697473 
 9768      00
 9769              	.LASF24:
 9770 0bfd 6873696F 		.ascii	"hsiomBase\000"
 9770      6D426173 
 9770      6500
 9771              	.LASF90:
 9772 0c07 63707573 		.ascii	"cpussCm4ClockCtlOffset\000"
 9772      73436D34 
 9772      436C6F63 
 9772      6B43746C 
 9772      4F666673 
 9773              	.LASF74:
 9774 0c1e 70657269 		.ascii	"periTrGrOffset\000"
 9774      54724772 
 9774      4F666673 
 9774      657400
 9775              	.LASF44:
 9776 0c2d 63707573 		.ascii	"cpussNotConnectedIrq\000"
 9776      734E6F74 
 9776      436F6E6E 
 9776      65637465 
 9776      64497271 
 9777              	.LASF254:
 9778 0c42 72785269 		.ascii	"rxRingBufHead\000"
 9778      6E674275 
 9778      66486561 
 9778      6400
 9779              	.LASF40:
 9780 0c50 63707573 		.ascii	"cpussDwChNr\000"
 9780      73447743 
 9780      684E7200 
 9781              	.LASF268:
 9782 0c5c 62756666 		.ascii	"buffer\000"
 9782      657200
 9783              	.LASF269:
 9784 0c63 73697A65 		.ascii	"size\000"
 9784      00
 9785              	.LASF260:
 9786 0c68 74784275 		.ascii	"txBufSize\000"
 9786      6653697A 
 9786      6500
 9787              	.LASF38:
ARM GAS  C:\Users\pearlstl\AppData\Local\Temp\ccAUXqAU.s 			page 267


 9788 0c72 63707573 		.ascii	"cpussIpcNr\000"
 9788      73497063 
 9788      4E7200
 9789              	.LASF341:
 9790 0c7d 43795F53 		.ascii	"Cy_SysLib_ExitCriticalSection\000"
 9790      79734C69 
 9790      625F4578 
 9790      69744372 
 9790      69746963 
 9791              	.LASF91:
 9792 0c9b 63707573 		.ascii	"cpussCm4StatusOffset\000"
 9792      73436D34 
 9792      53746174 
 9792      75734F66 
 9792      66736574 
 9793              	.LASF215:
 9794 0cb0 43595F53 		.ascii	"CY_SCB_UART_PARITY_ODD\000"
 9794      43425F55 
 9794      4152545F 
 9794      50415249 
 9794      54595F4F 
 9795              	.LASF50:
 9796 0cc7 70617373 		.ascii	"passSarChannels\000"
 9796      53617243 
 9796      68616E6E 
 9796      656C7300 
 9797              	.LASF102:
 9798 0cd7 63707573 		.ascii	"cpussRam2Ctl0\000"
 9798      7352616D 
 9798      3243746C 
 9798      3000
 9799              	.LASF136:
 9800 0ce5 52585F46 		.ascii	"RX_FIFO_STATUS\000"
 9800      49464F5F 
 9800      53544154 
 9800      555300
 9801              	.LASF93:
 9802 0cf4 63707573 		.ascii	"cpussCm4PwrCtlOffset\000"
 9802      73436D34 
 9802      50777243 
 9802      746C4F66 
 9802      66736574 
 9803              	.LASF172:
 9804 0d09 494E5452 		.ascii	"INTR_RX\000"
 9804      5F525800 
 9805              	.LASF319:
 9806 0d11 43795F53 		.ascii	"Cy_SCB_UART_Transmit\000"
 9806      43425F55 
 9806      4152545F 
 9806      5472616E 
 9806      736D6974 
 9807              	.LASF324:
 9808 0d26 74784374 		.ascii	"txCtrlReg\000"
 9808      726C5265 
 9808      6700
 9809              	.LASF81:
 9810 0d30 70657269 		.ascii	"periDiv16CtlOffset\000"
ARM GAS  C:\Users\pearlstl\AppData\Local\Temp\ccAUXqAU.s 			page 268


 9810      44697631 
 9810      3643746C 
 9810      4F666673 
 9810      657400
 9811              	.LASF56:
 9812 0d43 666C6173 		.ascii	"flashRwwRequired\000"
 9812      68527777 
 9812      52657175 
 9812      69726564 
 9812      00
 9813              	.LASF6:
 9814 0d54 73686F72 		.ascii	"short unsigned int\000"
 9814      7420756E 
 9814      7369676E 
 9814      65642069 
 9814      6E7400
 9815              	.LASF290:
 9816 0d67 43795F53 		.ascii	"Cy_SCB_ClearRxInterrupt\000"
 9816      43425F43 
 9816      6C656172 
 9816      5278496E 
 9816      74657272 
 9817              	.LASF252:
 9818 0d7f 72785269 		.ascii	"rxRingBuf\000"
 9818      6E674275 
 9818      6600
 9819              	.LASF17:
 9820 0d89 6C6F6E67 		.ascii	"long double\000"
 9820      20646F75 
 9820      626C6500 
 9821              	.LASF15:
 9822 0d95 75696E74 		.ascii	"uint16_t\000"
 9822      31365F74 
 9822      00
 9823              	.LASF149:
 9824 0d9e 494E5452 		.ascii	"INTR_I2C_EC_MASK\000"
 9824      5F493243 
 9824      5F45435F 
 9824      4D41534B 
 9824      00
 9825              	.LASF23:
 9826 0daf 70726F74 		.ascii	"protBase\000"
 9826      42617365 
 9826      00
 9827              	.LASF73:
 9828 0db8 70657269 		.ascii	"periTrCmdGrSelMsk\000"
 9828      5472436D 
 9828      64477253 
 9828      656C4D73 
 9828      6B00
 9829              	.LASF264:
 9830 0dca 43795F53 		.ascii	"Cy_SCB_GetTxSrValid\000"
 9830      43425F47 
 9830      65745478 
 9830      53725661 
 9830      6C696400 
 9831              	.LASF47:
ARM GAS  C:\Users\pearlstl\AppData\Local\Temp\ccAUXqAU.s 			page 269


 9832 0dde 73727373 		.ascii	"srssNumHfroot\000"
 9832      4E756D48 
 9832      66726F6F 
 9832      7400
 9833              	.LASF310:
 9834 0dec 43795F53 		.ascii	"Cy_SCB_UART_GetNumInRingBuffer\000"
 9834      43425F55 
 9834      4152545F 
 9834      4765744E 
 9834      756D496E 
 9835              	.LASF31:
 9836 0e0b 64775665 		.ascii	"dwVersion\000"
 9836      7273696F 
 9836      6E00
 9837              	.LASF154:
 9838 0e15 494E5452 		.ascii	"INTR_SPI_EC_MASK\000"
 9838      5F535049 
 9838      5F45435F 
 9838      4D41534B 
 9838      00
 9839              	.LASF301:
 9840 0e26 6C6F6342 		.ascii	"locBase\000"
 9840      61736500 
 9841              	.LASF292:
 9842 0e2e 636F6E66 		.ascii	"config\000"
 9842      696700
 9843              	.LASF232:
 9844 0e35 72656365 		.ascii	"receiverAddressMask\000"
 9844      69766572 
 9844      41646472 
 9844      6573734D 
 9844      61736B00 
 9845              	.LASF18:
 9846 0e49 73697A65 		.ascii	"sizetype\000"
 9846      74797065 
 9846      00
 9847              	.LASF300:
 9848 0e52 72657453 		.ascii	"retStatus\000"
 9848      74617475 
 9848      7300
 9849              	.LASF123:
 9850 0e5c 4932435F 		.ascii	"I2C_S_CMD\000"
 9850      535F434D 
 9850      4400
 9851              	.LASF98:
 9852 0e66 63707573 		.ascii	"cpussCm4NmiCtlOffset\000"
 9852      73436D34 
 9852      4E6D6943 
 9852      746C4F66 
 9852      66736574 
 9853              	.LASF325:
 9854 0e7b 62797465 		.ascii	"byteMode\000"
 9854      4D6F6465 
 9854      00
 9855              	.LASF80:
 9856 0e84 70657269 		.ascii	"periDiv8CtlOffset\000"
 9856      44697638 
ARM GAS  C:\Users\pearlstl\AppData\Local\Temp\ccAUXqAU.s 			page 270


 9856      43746C4F 
 9856      66667365 
 9856      7400
 9857              	.LASF119:
 9858 0e96 52455345 		.ascii	"RESERVED2\000"
 9858      52564544 
 9858      3200
 9859              	.LASF125:
 9860 0ea0 52455345 		.ascii	"RESERVED3\000"
 9860      52564544 
 9860      3300
 9861              	.LASF127:
 9862 0eaa 52455345 		.ascii	"RESERVED4\000"
 9862      52564544 
 9862      3400
 9863              	.LASF131:
 9864 0eb4 52455345 		.ascii	"RESERVED5\000"
 9864      52564544 
 9864      3500
 9865              	.LASF133:
 9866 0ebe 52455345 		.ascii	"RESERVED6\000"
 9866      52564544 
 9866      3600
 9867              	.LASF137:
 9868 0ec8 52455345 		.ascii	"RESERVED7\000"
 9868      52564544 
 9868      3700
 9869              	.LASF139:
 9870 0ed2 52455345 		.ascii	"RESERVED8\000"
 9870      52564544 
 9870      3800
 9871              	.LASF142:
 9872 0edc 52455345 		.ascii	"RESERVED9\000"
 9872      52564544 
 9872      3900
 9873              	.LASF286:
 9874 0ee6 43795F53 		.ascii	"Cy_SCB_UART_Enable\000"
 9874      43425F55 
 9874      4152545F 
 9874      456E6162 
 9874      6C6500
 9875              	.LASF192:
 9876 0ef9 63795F65 		.ascii	"cy_en_syspm_callback_mode_t\000"
 9876      6E5F7379 
 9876      73706D5F 
 9876      63616C6C 
 9876      6261636B 
 9877              	.LASF7:
 9878 0f15 6C6F6E67 		.ascii	"long int\000"
 9878      20696E74 
 9878      00
 9879              	.LASF29:
 9880 0f1e 63707573 		.ascii	"cpussVersion\000"
 9880      73566572 
 9880      73696F6E 
 9880      00
 9881              	.LASF121:
ARM GAS  C:\Users\pearlstl\AppData\Local\Temp\ccAUXqAU.s 			page 271


 9882 0f2b 4932435F 		.ascii	"I2C_STATUS\000"
 9882      53544154 
 9882      555300
 9883              	.LASF33:
 9884 0f36 6770696F 		.ascii	"gpioVersion\000"
 9884      56657273 
 9884      696F6E00 
 9885              	.LASF170:
 9886 0f42 494E5452 		.ascii	"INTR_TX_MASKED\000"
 9886      5F54585F 
 9886      4D41534B 
 9886      454400
 9887              	.LASF32:
 9888 0f51 666C6173 		.ascii	"flashcVersion\000"
 9888      68635665 
 9888      7273696F 
 9888      6E00
 9889              	.LASF54:
 9890 0f5f 70726F74 		.ascii	"protBusMasterMask\000"
 9890      4275734D 
 9890      61737465 
 9890      724D6173 
 9890      6B00
 9891              	.LASF271:
 9892 0f71 43795F53 		.ascii	"Cy_SCB_IsRxDataWidthByte\000"
 9892      43425F49 
 9892      73527844 
 9892      61746157 
 9892      69647468 
 9893              	.LASF275:
 9894 0f8a 43795F53 		.ascii	"Cy_SCB_SetTxInterruptMask\000"
 9894      43425F53 
 9894      65745478 
 9894      496E7465 
 9894      72727570 
 9895              	.LASF283:
 9896 0fa4 43795F53 		.ascii	"Cy_SCB_UART_GetReceiveStatus\000"
 9896      43425F55 
 9896      4152545F 
 9896      47657452 
 9896      65636569 
 9897              	.LASF138:
 9898 0fc1 52585F4D 		.ascii	"RX_MATCH\000"
 9898      41544348 
 9898      00
 9899              	.LASF298:
 9900 0fca 63616C6C 		.ascii	"callbackParams\000"
 9900      6261636B 
 9900      50617261 
 9900      6D7300
 9901              	.LASF167:
 9902 0fd9 494E5452 		.ascii	"INTR_TX\000"
 9902      5F545800 
 9903              	.LASF117:
 9904 0fe1 55415254 		.ascii	"UART_RX_STATUS\000"
 9904      5F52585F 
 9904      53544154 
ARM GAS  C:\Users\pearlstl\AppData\Local\Temp\ccAUXqAU.s 			page 272


 9904      555300
 9905              	.LASF261:
 9906 0ff0 74784C65 		.ascii	"txLeftToTransmit\000"
 9906      6674546F 
 9906      5472616E 
 9906      736D6974 
 9906      00
 9907              	.LASF328:
 9908 1001 6E756D43 		.ascii	"numCopied\000"
 9908      6F706965 
 9908      6400
 9909              	.LASF221:
 9910 100b 75617274 		.ascii	"uartMode\000"
 9910      4D6F6465 
 9910      00
 9911              	.LASF2:
 9912 1014 5F5F7569 		.ascii	"__uint8_t\000"
 9912      6E74385F 
 9912      7400
 9913              	.LASF129:
 9914 101e 54585F46 		.ascii	"TX_FIFO_CTRL\000"
 9914      49464F5F 
 9914      4354524C 
 9914      00
 9915              	.LASF274:
 9916 102b 43795F53 		.ascii	"Cy_SCB_SetRxInterruptMask\000"
 9916      43425F53 
 9916      65745278 
 9916      496E7465 
 9916      72727570 
 9917              	.LASF122:
 9918 1045 4932435F 		.ascii	"I2C_M_CMD\000"
 9918      4D5F434D 
 9918      4400
 9919              	.LASF155:
 9920 104f 494E5452 		.ascii	"INTR_SPI_EC_MASKED\000"
 9920      5F535049 
 9920      5F45435F 
 9920      4D41534B 
 9920      454400
 9921              	.LASF326:
 9922 1062 7478496E 		.ascii	"txIntrReg\000"
 9922      74725265 
 9922      6700
 9923              	.LASF84:
 9924 106c 6770696F 		.ascii	"gpioPrtIntrCfgOffset\000"
 9924      50727449 
 9924      6E747243 
 9924      66674F66 
 9924      66736574 
 9925              	.LASF111:
 9926 1081 5350495F 		.ascii	"SPI_CTRL\000"
 9926      4354524C 
 9926      00
 9927              	.LASF204:
 9928 108a 63795F65 		.ascii	"cy_en_scb_uart_mode_t\000"
 9928      6E5F7363 
ARM GAS  C:\Users\pearlstl\AppData\Local\Temp\ccAUXqAU.s 			page 273


 9928      625F7561 
 9928      72745F6D 
 9928      6F64655F 
 9929              	.LASF332:
 9930 10a0 6669666F 		.ascii	"fifoSize\000"
 9930      53697A65 
 9930      00
 9931              	.LASF134:
 9932 10a9 52585F43 		.ascii	"RX_CTRL\000"
 9932      54524C00 
 9933              	.LASF95:
 9934 10b1 63707573 		.ascii	"cpussTrimRomCtlOffset\000"
 9934      73547269 
 9934      6D526F6D 
 9934      43746C4F 
 9934      66667365 
 9935              	.LASF342:
 9936 10c7 474E5520 		.ascii	"GNU C11 5.4.1 20160609 (release) [ARM/embedded-5-br"
 9936      43313120 
 9936      352E342E 
 9936      31203230 
 9936      31363036 
 9937 10fa 616E6368 		.ascii	"anch revision 237715] -mcpu=cortex-m0plus -mthumb -"
 9937      20726576 
 9937      6973696F 
 9937      6E203233 
 9937      37373135 
 9938 112d 67202D4F 		.ascii	"g -Os -ffunction-sections -ffat-lto-objects\000"
 9938      73202D66 
 9938      66756E63 
 9938      74696F6E 
 9938      2D736563 
 9939              	.LASF267:
 9940 1159 43795F53 		.ascii	"Cy_SCB_UART_GetArray\000"
 9940      43425F55 
 9940      4152545F 
 9940      47657441 
 9940      72726179 
 9941              	.LASF120:
 9942 116e 4932435F 		.ascii	"I2C_CTRL\000"
 9942      4354524C 
 9942      00
 9943              	.LASF34:
 9944 1177 6873696F 		.ascii	"hsiomVersion\000"
 9944      6D566572 
 9944      73696F6E 
 9944      00
 9945              	.LASF9:
 9946 1184 6C6F6E67 		.ascii	"long unsigned int\000"
 9946      20756E73 
 9946      69676E65 
 9946      6420696E 
 9946      7400
 9947              	.LASF157:
 9948 1196 494E5452 		.ascii	"INTR_M\000"
 9948      5F4D00
 9949              	.LASF99:
ARM GAS  C:\Users\pearlstl\AppData\Local\Temp\ccAUXqAU.s 			page 274


 9950 119d 63707573 		.ascii	"cpussRomCtl\000"
 9950      73526F6D 
 9950      43746C00 
 9951              	.LASF179:
 9952 11a9 666C6F61 		.ascii	"float\000"
 9952      7400
 9953              	.LASF162:
 9954 11af 494E5452 		.ascii	"INTR_S\000"
 9954      5F5300
 9955              	.LASF322:
 9956 11b6 43795F53 		.ascii	"Cy_SCB_UART_GetNumLeftToTransmit\000"
 9956      43425F55 
 9956      4152545F 
 9956      4765744E 
 9956      756D4C65 
 9957              	.LASF331:
 9958 11d7 48616E64 		.ascii	"HandleDataTransmit\000"
 9958      6C654461 
 9958      74615472 
 9958      616E736D 
 9958      697400
 9959              	.LASF159:
 9960 11ea 494E5452 		.ascii	"INTR_M_MASK\000"
 9960      5F4D5F4D 
 9960      41534B00 
 9961              	.LASF285:
 9962 11f6 43795F53 		.ascii	"Cy_SCB_UART_GetNumInRxFifo\000"
 9962      43425F55 
 9962      4152545F 
 9962      4765744E 
 9962      756D496E 
 9963              	.LASF244:
 9964 1211 74784669 		.ascii	"txFifoTriggerLevel\000"
 9964      666F5472 
 9964      69676765 
 9964      724C6576 
 9964      656C00
 9965              	.LASF201:
 9966 1224 43595F53 		.ascii	"CY_SCB_UART_STANDARD\000"
 9966      43425F55 
 9966      4152545F 
 9966      5354414E 
 9966      44415244 
 9967              	.LASF302:
 9968 1239 6C6F6343 		.ascii	"locContext\000"
 9968      6F6E7465 
 9968      787400
 9969              	.LASF92:
 9970 1244 63707573 		.ascii	"cpussCm0StatusOffset\000"
 9970      73436D30 
 9970      53746174 
 9970      75734F66 
 9970      66736574 
 9971              	.LASF237:
 9972 1259 656E6162 		.ascii	"enableCts\000"
 9972      6C654374 
 9972      7300
ARM GAS  C:\Users\pearlstl\AppData\Local\Temp\ccAUXqAU.s 			page 275


 9973              	.LASF112:
 9974 1263 5350495F 		.ascii	"SPI_STATUS\000"
 9974      53544154 
 9974      555300
 9975              	.LASF186:
 9976 126e 43595F53 		.ascii	"CY_SYSPM_FAIL\000"
 9976      5953504D 
 9976      5F464149 
 9976      4C00
 9977              	.LASF1:
 9978 127c 756E7369 		.ascii	"unsigned char\000"
 9978      676E6564 
 9978      20636861 
 9978      7200
 9979              	.LASF211:
 9980 128a 43595F53 		.ascii	"CY_SCB_UART_STOP_BITS_4\000"
 9980      43425F55 
 9980      4152545F 
 9980      53544F50 
 9980      5F424954 
 9981              	.LASF305:
 9982 12a2 43795F53 		.ascii	"Cy_SCB_SetRxFifoLevel\000"
 9982      43425F53 
 9982      65745278 
 9982      4669666F 
 9982      4C657665 
 9983              	.LASF8:
 9984 12b8 5F5F7569 		.ascii	"__uint32_t\000"
 9984      6E743332 
 9984      5F7400
 9985              	.LASF104:
 9986 12c3 6970634C 		.ascii	"ipcLockStatusOffset\000"
 9986      6F636B53 
 9986      74617475 
 9986      734F6666 
 9986      73657400 
 9987              	.LASF144:
 9988 12d7 52455345 		.ascii	"RESERVED10\000"
 9988      52564544 
 9988      313000
 9989              	.LASF146:
 9990 12e2 52455345 		.ascii	"RESERVED11\000"
 9990      52564544 
 9990      313100
 9991              	.LASF148:
 9992 12ed 52455345 		.ascii	"RESERVED12\000"
 9992      52564544 
 9992      313200
 9993              	.LASF151:
 9994 12f8 52455345 		.ascii	"RESERVED13\000"
 9994      52564544 
 9994      313300
 9995              	.LASF153:
 9996 1303 52455345 		.ascii	"RESERVED14\000"
 9996      52564544 
 9996      313400
 9997              	.LASF156:
ARM GAS  C:\Users\pearlstl\AppData\Local\Temp\ccAUXqAU.s 			page 276


 9998 130e 52455345 		.ascii	"RESERVED15\000"
 9998      52564544 
 9998      313500
 9999              	.LASF161:
 10000 1319 52455345 		.ascii	"RESERVED16\000"
 10000      52564544 
 10000      313600
 10001              	.LASF166:
 10002 1324 52455345 		.ascii	"RESERVED17\000"
 10002      52564544 
 10002      313700
 10003              	.LASF171:
 10004 132f 52455345 		.ascii	"RESERVED18\000"
 10004      52564544 
 10004      313800
 10005              	.LASF85:
 10006 133a 6770696F 		.ascii	"gpioPrtCfgOffset\000"
 10006      50727443 
 10006      66674F66 
 10006      66736574 
 10006      00
 10007              	.LASF132:
 10008 134b 54585F46 		.ascii	"TX_FIFO_WR\000"
 10008      49464F5F 
 10008      575200
 10009              	.LASF238:
 10010 1356 63747350 		.ascii	"ctsPolarity\000"
 10010      6F6C6172 
 10010      69747900 
 10011              	.LASF247:
 10012 1362 63795F73 		.ascii	"cy_stc_scb_uart_config_t\000"
 10012      74635F73 
 10012      63625F75 
 10012      6172745F 
 10012      636F6E66 
 10013              	.LASF335:
 10014 137b 43795F53 		.ascii	"Cy_SCB_UART_Interrupt\000"
 10014      43425F55 
 10014      4152545F 
 10014      496E7465 
 10014      72727570 
 10015              	.LASF239:
 10016 1391 72747352 		.ascii	"rtsRxFifoLevel\000"
 10016      78466966 
 10016      6F4C6576 
 10016      656C00
 10017              	.LASF213:
 10018 13a0 43595F53 		.ascii	"CY_SCB_UART_PARITY_NONE\000"
 10018      43425F55 
 10018      4152545F 
 10018      50415249 
 10018      54595F4E 
 10019              	.LASF245:
 10020 13b8 74784669 		.ascii	"txFifoIntEnableMask\000"
 10020      666F496E 
 10020      74456E61 
 10020      626C654D 
ARM GAS  C:\Users\pearlstl\AppData\Local\Temp\ccAUXqAU.s 			page 277


 10020      61736B00 
 10021              	.LASF333:
 10022 13cc 74784461 		.ascii	"txData\000"
 10022      746100
 10023              	.LASF51:
 10024 13d3 65704D6F 		.ascii	"epMonitorNr\000"
 10024      6E69746F 
 10024      724E7200 
 10025              	.LASF182:
 10026 13df 43595F53 		.ascii	"CY_SYSPM_BAD_PARAM\000"
 10026      5953504D 
 10026      5F424144 
 10026      5F504152 
 10026      414D00
 10027              	.LASF293:
 10028 13f2 43795F53 		.ascii	"Cy_SCB_UART_DeInit\000"
 10028      43425F55 
 10028      4152545F 
 10028      4465496E 
 10028      697400
 10029              	.LASF0:
 10030 1405 7369676E 		.ascii	"signed char\000"
 10030      65642063 
 10030      68617200 
 10031              	.LASF66:
 10032 1411 64774368 		.ascii	"dwChOffset\000"
 10032      4F666673 
 10032      657400
 10033              	.LASF114:
 10034 141c 55415254 		.ascii	"UART_CTRL\000"
 10034      5F435452 
 10034      4C00
 10035              	.LASF39:
 10036 1426 63707573 		.ascii	"cpussIpcIrqNr\000"
 10036      73497063 
 10036      4972714E 
 10036      7200
 10037              	.LASF174:
 10038 1434 494E5452 		.ascii	"INTR_RX_MASK\000"
 10038      5F52585F 
 10038      4D41534B 
 10038      00
 10039              	.LASF69:
 10040 1441 64774368 		.ascii	"dwChCtlPreemptablePos\000"
 10040      43746C50 
 10040      7265656D 
 10040      70746162 
 10040      6C65506F 
 10041              	.LASF108:
 10042 1457 434D445F 		.ascii	"CMD_RESP_CTRL\000"
 10042      52455350 
 10042      5F435452 
 10042      4C00
 10043              	.LASF105:
 10044 1465 63795F73 		.ascii	"cy_stc_device_t\000"
 10044      74635F64 
 10044      65766963 
ARM GAS  C:\Users\pearlstl\AppData\Local\Temp\ccAUXqAU.s 			page 278


 10044      655F7400 
 10045              	.LASF303:
 10046 1475 43795F53 		.ascii	"Cy_SCB_UART_HibernateCallback\000"
 10046      43425F55 
 10046      4152545F 
 10046      48696265 
 10046      726E6174 
 10047              	.LASF296:
 10048 1493 43795F53 		.ascii	"Cy_SCB_UART_Init\000"
 10048      43425F55 
 10048      4152545F 
 10048      496E6974 
 10048      00
 10049              	.LASF36:
 10050 14a4 70657269 		.ascii	"periVersion\000"
 10050      56657273 
 10050      696F6E00 
 10051              	.LASF180:
 10052 14b0 646F7562 		.ascii	"double\000"
 10052      6C6500
 10053              	.LASF26:
 10054 14b7 70617373 		.ascii	"passBase\000"
 10054      42617365 
 10054      00
 10055              	.LASF63:
 10056 14c0 666C6173 		.ascii	"flashCtlMainWs2Freq\000"
 10056      6843746C 
 10056      4D61696E 
 10056      57733246 
 10056      72657100 
 10057              	.LASF313:
 10058 14d4 746D7042 		.ascii	"tmpBuf\000"
 10058      756600
 10059              	.LASF173:
 10060 14db 494E5452 		.ascii	"INTR_RX_SET\000"
 10060      5F52585F 
 10060      53455400 
 10061              	.LASF113:
 10062 14e7 52455345 		.ascii	"RESERVED1\000"
 10062      52564544 
 10062      3100
 10063              	.LASF45:
 10064 14f1 73727373 		.ascii	"srssNumClkpath\000"
 10064      4E756D43 
 10064      6C6B7061 
 10064      746800
 10065              	.LASF107:
 10066 1500 53544154 		.ascii	"STATUS\000"
 10066      555300
 10067              	.LASF65:
 10068 1507 666C6173 		.ascii	"flashCtlMainWs4Freq\000"
 10068      6843746C 
 10068      4D61696E 
 10068      57733446 
 10068      72657100 
 10069              	.LASF281:
 10070 151b 43795F53 		.ascii	"Cy_SCB_UART_ClearTxFifo\000"
ARM GAS  C:\Users\pearlstl\AppData\Local\Temp\ccAUXqAU.s 			page 279


 10070      43425F55 
 10070      4152545F 
 10070      436C6561 
 10070      72547846 
 10071              	.LASF222:
 10072 1533 6F766572 		.ascii	"oversample\000"
 10072      73616D70 
 10072      6C6500
 10073              	.LASF344:
 10074 153e 433A5C55 		.ascii	"C:\\Users\\pearlstl\\Documents\\_Research\\projects"
 10074      73657273 
 10074      5C706561 
 10074      726C7374 
 10074      6C5C446F 
 10075 156c 5C74636F 		.ascii	"\\tcom_engineering\\embed_sw\\tcom_app\\tcom_app_ps"
 10075      6D5F656E 
 10075      67696E65 
 10075      6572696E 
 10075      675C656D 
 10076 159b 6F63365F 		.ascii	"oc6_lvgl6\\tcom_displ_test_psoc6.cydsn\000"
 10076      6C76676C 
 10076      365C7463 
 10076      6F6D5F64 
 10076      6973706C 
 10077              	.LASF223:
 10078 15c1 64617461 		.ascii	"dataWidth\000"
 10078      57696474 
 10078      6800
 10079              	.LASF273:
 10080 15cb 43795F53 		.ascii	"Cy_SCB_UART_PutArray\000"
 10080      43425F55 
 10080      4152545F 
 10080      50757441 
 10080      72726179 
 10081              	.LASF316:
 10082 15e0 43795F53 		.ascii	"Cy_SCB_UART_AbortReceive\000"
 10082      43425F55 
 10082      4152545F 
 10082      41626F72 
 10082      74526563 
 10083              	.LASF270:
 10084 15f9 696E7465 		.ascii	"interruptMask\000"
 10084      72727570 
 10084      744D6173 
 10084      6B00
 10085              	.LASF229:
 10086 1607 64726F70 		.ascii	"dropOnFrameError\000"
 10086      4F6E4672 
 10086      616D6545 
 10086      72726F72 
 10086      00
 10087              	.LASF243:
 10088 1618 72784669 		.ascii	"rxFifoIntEnableMask\000"
 10088      666F496E 
 10088      74456E61 
 10088      626C654D 
 10088      61736B00 
ARM GAS  C:\Users\pearlstl\AppData\Local\Temp\ccAUXqAU.s 			page 280


 10089              	.LASF143:
 10090 162c 455A5F44 		.ascii	"EZ_DATA\000"
 10090      41544100 
 10091              	.LASF334:
 10092 1634 696E7472 		.ascii	"intrStatus\000"
 10092      53746174 
 10092      757300
 10093              	.LASF35:
 10094 163f 69706356 		.ascii	"ipcVersion\000"
 10094      65727369 
 10094      6F6E00
 10095              	.LASF212:
 10096 164a 63795F65 		.ascii	"cy_en_scb_uart_stop_bits_t\000"
 10096      6E5F7363 
 10096      625F7561 
 10096      72745F73 
 10096      746F705F 
 10097              	.LASF72:
 10098 1665 70657269 		.ascii	"periTrCmdOffset\000"
 10098      5472436D 
 10098      644F6666 
 10098      73657400 
 10099              	.LASF257:
 10100 1675 72784275 		.ascii	"rxBufSize\000"
 10100      6653697A 
 10100      6500
 10101              	.LASF106:
 10102 167f 4354524C 		.ascii	"CTRL\000"
 10102      00
 10103              	.LASF190:
 10104 1684 43595F53 		.ascii	"CY_SYSPM_BEFORE_TRANSITION\000"
 10104      5953504D 
 10104      5F424546 
 10104      4F52455F 
 10104      5452414E 
 10105              	.LASF191:
 10106 169f 43595F53 		.ascii	"CY_SYSPM_AFTER_TRANSITION\000"
 10106      5953504D 
 10106      5F414654 
 10106      45525F54 
 10106      52414E53 
 10107              	.LASF188:
 10108 16b9 43595F53 		.ascii	"CY_SYSPM_CHECK_READY\000"
 10108      5953504D 
 10108      5F434845 
 10108      434B5F52 
 10108      45414459 
 10109              		.ident	"GCC: (GNU Tools for ARM Embedded Processors) 5.4.1 20160609 (release) [ARM/embedded-5-bran
