ARM GAS  C:\Users\pearlstl\AppData\Local\Temp\ccAUXqAU.s 			page 1


   1              		.syntax unified
   2              		.cpu cortex-m0plus
   3              		.fpu softvfp
   4              		.eabi_attribute 20, 1
   5              		.eabi_attribute 21, 1
   6              		.eabi_attribute 23, 3
   7              		.eabi_attribute 24, 1
   8              		.eabi_attribute 25, 1
   9              		.eabi_attribute 26, 1
  10              		.eabi_attribute 30, 4
  11              		.eabi_attribute 34, 0
  12              		.eabi_attribute 18, 4
  13              		.thumb
  14              		.syntax unified
  15              		.file	"cy_scb_uart.c"
  16              		.text
  17              	.Ltext0:
  18              		.cfi_sections	.debug_frame
  19              		.section	.text.Cy_SCB_UART_Init,"ax",%progbits
  20              		.align	1
  21              		.global	Cy_SCB_UART_Init
  22              		.code	16
  23              		.thumb_func
  24              		.type	Cy_SCB_UART_Init, %function
  25              	Cy_SCB_UART_Init:
  26              	.LFB155:
  27              		.file 1 "Generated_Source\\PSoC6\\pdl\\drivers\\peripheral\\scb\\cy_scb_uart.c"
   1:Generated_Source\PSoC6\pdl\drivers\peripheral\scb/cy_scb_uart.c **** /***************************************************************************//**
   2:Generated_Source\PSoC6\pdl\drivers\peripheral\scb/cy_scb_uart.c **** * \file cy_scb_uart.c
   3:Generated_Source\PSoC6\pdl\drivers\peripheral\scb/cy_scb_uart.c **** * \version 2.20
   4:Generated_Source\PSoC6\pdl\drivers\peripheral\scb/cy_scb_uart.c **** *
   5:Generated_Source\PSoC6\pdl\drivers\peripheral\scb/cy_scb_uart.c **** * Provides UART API implementation of the SCB driver.
   6:Generated_Source\PSoC6\pdl\drivers\peripheral\scb/cy_scb_uart.c **** *
   7:Generated_Source\PSoC6\pdl\drivers\peripheral\scb/cy_scb_uart.c **** ********************************************************************************
   8:Generated_Source\PSoC6\pdl\drivers\peripheral\scb/cy_scb_uart.c **** * \copyright
   9:Generated_Source\PSoC6\pdl\drivers\peripheral\scb/cy_scb_uart.c **** * Copyright 2016-2018, Cypress Semiconductor Corporation. All rights reserved.
  10:Generated_Source\PSoC6\pdl\drivers\peripheral\scb/cy_scb_uart.c **** * You may use this file only in accordance with the license, terms, conditions,
  11:Generated_Source\PSoC6\pdl\drivers\peripheral\scb/cy_scb_uart.c **** * disclaimers, and limitations in the end user license agreement accompanying
  12:Generated_Source\PSoC6\pdl\drivers\peripheral\scb/cy_scb_uart.c **** * the software package with which this file was provided.
  13:Generated_Source\PSoC6\pdl\drivers\peripheral\scb/cy_scb_uart.c **** *******************************************************************************/
  14:Generated_Source\PSoC6\pdl\drivers\peripheral\scb/cy_scb_uart.c **** 
  15:Generated_Source\PSoC6\pdl\drivers\peripheral\scb/cy_scb_uart.c **** #include "cy_scb_uart.h"
  16:Generated_Source\PSoC6\pdl\drivers\peripheral\scb/cy_scb_uart.c **** 
  17:Generated_Source\PSoC6\pdl\drivers\peripheral\scb/cy_scb_uart.c **** #ifdef CY_IP_MXSCB
  18:Generated_Source\PSoC6\pdl\drivers\peripheral\scb/cy_scb_uart.c **** 
  19:Generated_Source\PSoC6\pdl\drivers\peripheral\scb/cy_scb_uart.c **** #if defined(__cplusplus)
  20:Generated_Source\PSoC6\pdl\drivers\peripheral\scb/cy_scb_uart.c **** extern "C" {
  21:Generated_Source\PSoC6\pdl\drivers\peripheral\scb/cy_scb_uart.c **** #endif
  22:Generated_Source\PSoC6\pdl\drivers\peripheral\scb/cy_scb_uart.c **** 
  23:Generated_Source\PSoC6\pdl\drivers\peripheral\scb/cy_scb_uart.c **** /* Static functions */
  24:Generated_Source\PSoC6\pdl\drivers\peripheral\scb/cy_scb_uart.c **** static void HandleDataReceive (CySCB_Type *base, cy_stc_scb_uart_context_t *context);
  25:Generated_Source\PSoC6\pdl\drivers\peripheral\scb/cy_scb_uart.c **** static void HandleRingBuffer  (CySCB_Type *base, cy_stc_scb_uart_context_t *context);
  26:Generated_Source\PSoC6\pdl\drivers\peripheral\scb/cy_scb_uart.c **** static void HandleDataTransmit(CySCB_Type *base, cy_stc_scb_uart_context_t *context);
  27:Generated_Source\PSoC6\pdl\drivers\peripheral\scb/cy_scb_uart.c **** 
  28:Generated_Source\PSoC6\pdl\drivers\peripheral\scb/cy_scb_uart.c **** 
  29:Generated_Source\PSoC6\pdl\drivers\peripheral\scb/cy_scb_uart.c **** /*******************************************************************************
  30:Generated_Source\PSoC6\pdl\drivers\peripheral\scb/cy_scb_uart.c **** * Function Name: Cy_SCB_UART_Init
ARM GAS  C:\Users\pearlstl\AppData\Local\Temp\ccAUXqAU.s 			page 2


  31:Generated_Source\PSoC6\pdl\drivers\peripheral\scb/cy_scb_uart.c **** ****************************************************************************//**
  32:Generated_Source\PSoC6\pdl\drivers\peripheral\scb/cy_scb_uart.c **** *
  33:Generated_Source\PSoC6\pdl\drivers\peripheral\scb/cy_scb_uart.c **** * Initializes the SCB for UART operation.
  34:Generated_Source\PSoC6\pdl\drivers\peripheral\scb/cy_scb_uart.c **** *
  35:Generated_Source\PSoC6\pdl\drivers\peripheral\scb/cy_scb_uart.c **** * \param base
  36:Generated_Source\PSoC6\pdl\drivers\peripheral\scb/cy_scb_uart.c **** * The pointer to the UART SCB instance.
  37:Generated_Source\PSoC6\pdl\drivers\peripheral\scb/cy_scb_uart.c **** *
  38:Generated_Source\PSoC6\pdl\drivers\peripheral\scb/cy_scb_uart.c **** * \param config
  39:Generated_Source\PSoC6\pdl\drivers\peripheral\scb/cy_scb_uart.c **** * The pointer to configuration structure \ref cy_stc_scb_uart_config_t.
  40:Generated_Source\PSoC6\pdl\drivers\peripheral\scb/cy_scb_uart.c **** *
  41:Generated_Source\PSoC6\pdl\drivers\peripheral\scb/cy_scb_uart.c **** * \param context
  42:Generated_Source\PSoC6\pdl\drivers\peripheral\scb/cy_scb_uart.c **** * The pointer to the context structure \ref cy_stc_scb_uart_context_t allocated
  43:Generated_Source\PSoC6\pdl\drivers\peripheral\scb/cy_scb_uart.c **** * by the user. The structure is used during the UART operation for internal
  44:Generated_Source\PSoC6\pdl\drivers\peripheral\scb/cy_scb_uart.c **** * configuration and data retention. The user must not modify anything
  45:Generated_Source\PSoC6\pdl\drivers\peripheral\scb/cy_scb_uart.c **** * in this structure.
  46:Generated_Source\PSoC6\pdl\drivers\peripheral\scb/cy_scb_uart.c **** * If only UART \ref group_scb_uart_ll will be used pass NULL as pointer to 
  47:Generated_Source\PSoC6\pdl\drivers\peripheral\scb/cy_scb_uart.c **** * context.
  48:Generated_Source\PSoC6\pdl\drivers\peripheral\scb/cy_scb_uart.c **** *
  49:Generated_Source\PSoC6\pdl\drivers\peripheral\scb/cy_scb_uart.c **** * \return
  50:Generated_Source\PSoC6\pdl\drivers\peripheral\scb/cy_scb_uart.c **** * \ref cy_en_scb_uart_status_t
  51:Generated_Source\PSoC6\pdl\drivers\peripheral\scb/cy_scb_uart.c **** *
  52:Generated_Source\PSoC6\pdl\drivers\peripheral\scb/cy_scb_uart.c **** * \note
  53:Generated_Source\PSoC6\pdl\drivers\peripheral\scb/cy_scb_uart.c **** * Ensure that the SCB block is disabled before calling this function.
  54:Generated_Source\PSoC6\pdl\drivers\peripheral\scb/cy_scb_uart.c **** *
  55:Generated_Source\PSoC6\pdl\drivers\peripheral\scb/cy_scb_uart.c **** *******************************************************************************/
  56:Generated_Source\PSoC6\pdl\drivers\peripheral\scb/cy_scb_uart.c **** cy_en_scb_uart_status_t Cy_SCB_UART_Init(CySCB_Type *base, cy_stc_scb_uart_config_t const *config, 
  57:Generated_Source\PSoC6\pdl\drivers\peripheral\scb/cy_scb_uart.c **** {
  28              		.loc 1 57 0
  29              		.cfi_startproc
  30              		@ args = 0, pretend = 0, frame = 16
  31              		@ frame_needed = 0, uses_anonymous_args = 0
  32              	.LVL0:
  33 0000 F0B5     		push	{r4, r5, r6, r7, lr}
  34              		.cfi_def_cfa_offset 20
  35              		.cfi_offset 4, -20
  36              		.cfi_offset 5, -16
  37              		.cfi_offset 6, -12
  38              		.cfi_offset 7, -8
  39              		.cfi_offset 14, -4
  40 0002 85B0     		sub	sp, sp, #20
  41              		.cfi_def_cfa_offset 40
  58:Generated_Source\PSoC6\pdl\drivers\peripheral\scb/cy_scb_uart.c ****     if ((NULL == base) || (NULL == config))
  42              		.loc 1 58 0
  43 0004 0028     		cmp	r0, #0
  44 0006 00D1     		bne	.LCB17
  45 0008 D1E0     		b	.L20	@long jump
  46              	.LCB17:
  47              		.loc 1 58 0 is_stmt 0 discriminator 1
  48 000a 0029     		cmp	r1, #0
  49 000c 00D1     		bne	.LCB19
  50 000e CEE0     		b	.L20	@long jump
  51              	.LCB19:
  59:Generated_Source\PSoC6\pdl\drivers\peripheral\scb/cy_scb_uart.c ****     {
  60:Generated_Source\PSoC6\pdl\drivers\peripheral\scb/cy_scb_uart.c ****         return CY_SCB_UART_BAD_PARAM;
  61:Generated_Source\PSoC6\pdl\drivers\peripheral\scb/cy_scb_uart.c ****     }
  62:Generated_Source\PSoC6\pdl\drivers\peripheral\scb/cy_scb_uart.c **** 
  63:Generated_Source\PSoC6\pdl\drivers\peripheral\scb/cy_scb_uart.c ****     CY_ASSERT_L3(CY_SCB_UART_IS_MODE_VALID     (config->uartMode));
ARM GAS  C:\Users\pearlstl\AppData\Local\Temp\ccAUXqAU.s 			page 3


  64:Generated_Source\PSoC6\pdl\drivers\peripheral\scb/cy_scb_uart.c ****     CY_ASSERT_L3(CY_SCB_UART_IS_STOP_BITS_VALID(config->stopBits));
  65:Generated_Source\PSoC6\pdl\drivers\peripheral\scb/cy_scb_uart.c ****     CY_ASSERT_L3(CY_SCB_UART_IS_PARITY_VALID   (config->parity));
  66:Generated_Source\PSoC6\pdl\drivers\peripheral\scb/cy_scb_uart.c ****     CY_ASSERT_L3(CY_SCB_UART_IS_POLARITY_VALID (config->ctsPolarity));
  67:Generated_Source\PSoC6\pdl\drivers\peripheral\scb/cy_scb_uart.c ****     CY_ASSERT_L3(CY_SCB_UART_IS_POLARITY_VALID (config->rtsPolarity));
  68:Generated_Source\PSoC6\pdl\drivers\peripheral\scb/cy_scb_uart.c **** 
  69:Generated_Source\PSoC6\pdl\drivers\peripheral\scb/cy_scb_uart.c ****     CY_ASSERT_L2(CY_SCB_UART_IS_OVERSAMPLE_VALID  (config->oversample, config->uartMode, config->ir
  70:Generated_Source\PSoC6\pdl\drivers\peripheral\scb/cy_scb_uart.c ****     CY_ASSERT_L2(CY_SCB_UART_IS_DATA_WIDTH_VALID  (config->dataWidth));
  71:Generated_Source\PSoC6\pdl\drivers\peripheral\scb/cy_scb_uart.c ****     CY_ASSERT_L2(CY_SCB_UART_IS_ADDRESS_VALID     (config->receiverAddress));
  72:Generated_Source\PSoC6\pdl\drivers\peripheral\scb/cy_scb_uart.c ****     CY_ASSERT_L2(CY_SCB_UART_IS_ADDRESS_MASK_VALID(config->receiverAddressMask));
  73:Generated_Source\PSoC6\pdl\drivers\peripheral\scb/cy_scb_uart.c ****     CY_ASSERT_L2(CY_SCB_UART_IS_MUTLI_PROC_VALID  (config->enableMutliProcessorMode, config->uartMo
  74:Generated_Source\PSoC6\pdl\drivers\peripheral\scb/cy_scb_uart.c ****                                                    config->parity));
  75:Generated_Source\PSoC6\pdl\drivers\peripheral\scb/cy_scb_uart.c **** 
  76:Generated_Source\PSoC6\pdl\drivers\peripheral\scb/cy_scb_uart.c ****     CY_ASSERT_L2(CY_SCB_IS_INTR_VALID(config->rxFifoIntEnableMask, CY_SCB_UART_RX_INTR_MASK));
  77:Generated_Source\PSoC6\pdl\drivers\peripheral\scb/cy_scb_uart.c ****     CY_ASSERT_L2(CY_SCB_IS_INTR_VALID(config->txFifoIntEnableMask, CY_SCB_UART_TX_INTR_MASK));
  78:Generated_Source\PSoC6\pdl\drivers\peripheral\scb/cy_scb_uart.c **** 
  79:Generated_Source\PSoC6\pdl\drivers\peripheral\scb/cy_scb_uart.c ****     uint32_t ovs;
  80:Generated_Source\PSoC6\pdl\drivers\peripheral\scb/cy_scb_uart.c **** 
  81:Generated_Source\PSoC6\pdl\drivers\peripheral\scb/cy_scb_uart.c ****     if ((CY_SCB_UART_IRDA == config->uartMode) && (!config->irdaEnableLowPowerReceiver))
  52              		.loc 1 81 0 is_stmt 1
  53 0010 0B78     		ldrb	r3, [r1]
  54 0012 022B     		cmp	r3, #2
  55 0014 03D1     		bne	.L3
  82:Generated_Source\PSoC6\pdl\drivers\peripheral\scb/cy_scb_uart.c ****     {
  83:Generated_Source\PSoC6\pdl\drivers\peripheral\scb/cy_scb_uart.c ****         /* For Normal IrDA mode oversampling is always zero */
  84:Generated_Source\PSoC6\pdl\drivers\peripheral\scb/cy_scb_uart.c ****         ovs = 0UL;
  56              		.loc 1 84 0 discriminator 1
  57 0016 0027     		movs	r7, #0
  81:Generated_Source\PSoC6\pdl\drivers\peripheral\scb/cy_scb_uart.c ****     {
  58              		.loc 1 81 0 discriminator 1
  59 0018 8C7F     		ldrb	r4, [r1, #30]
  60 001a BC42     		cmp	r4, r7
  61 001c 01D0     		beq	.L4
  62              	.L3:
  85:Generated_Source\PSoC6\pdl\drivers\peripheral\scb/cy_scb_uart.c ****     }
  86:Generated_Source\PSoC6\pdl\drivers\peripheral\scb/cy_scb_uart.c ****     else
  87:Generated_Source\PSoC6\pdl\drivers\peripheral\scb/cy_scb_uart.c ****     {
  88:Generated_Source\PSoC6\pdl\drivers\peripheral\scb/cy_scb_uart.c ****         ovs = (config->oversample - 1UL);
  63              		.loc 1 88 0
  64 001e 4C68     		ldr	r4, [r1, #4]
  65 0020 671E     		subs	r7, r4, #1
  66              	.LVL1:
  67              	.L4:
  89:Generated_Source\PSoC6\pdl\drivers\peripheral\scb/cy_scb_uart.c ****     }
  90:Generated_Source\PSoC6\pdl\drivers\peripheral\scb/cy_scb_uart.c **** 
  91:Generated_Source\PSoC6\pdl\drivers\peripheral\scb/cy_scb_uart.c ****     /* Configure the UART interface */
  92:Generated_Source\PSoC6\pdl\drivers\peripheral\scb/cy_scb_uart.c ****     SCB_CTRL(base) = _BOOL2FLD(SCB_CTRL_ADDR_ACCEPT, config->acceptAddrInFifo)               |
  68              		.loc 1 92 0
  69 0022 0D7F     		ldrb	r5, [r1, #28]
  93:Generated_Source\PSoC6\pdl\drivers\peripheral\scb/cy_scb_uart.c ****                  _BOOL2FLD(SCB_CTRL_BYTE_MODE, (config->dataWidth <= CY_SCB_BYTE_WIDTH)) |
  70              		.loc 1 93 0
  71 0024 0826     		movs	r6, #8
  92:Generated_Source\PSoC6\pdl\drivers\peripheral\scb/cy_scb_uart.c ****                  _BOOL2FLD(SCB_CTRL_BYTE_MODE, (config->dataWidth <= CY_SCB_BYTE_WIDTH)) |
  72              		.loc 1 92 0
  73 0026 6C1E     		subs	r4, r5, #1
  74 0028 A541     		sbcs	r5, r5, r4
  75 002a 2C04     		lsls	r4, r5, #16
  76 002c 0094     		str	r4, [sp]
ARM GAS  C:\Users\pearlstl\AppData\Local\Temp\ccAUXqAU.s 			page 4


  77              		.loc 1 93 0
  78 002e 8C68     		ldr	r4, [r1, #8]
  79 0030 A446     		mov	ip, r4
  80 0032 0024     		movs	r4, #0
  81 0034 6546     		mov	r5, ip
  82 0036 AE42     		cmp	r6, r5
  83 0038 6441     		adcs	r4, r4, r4
  94:Generated_Source\PSoC6\pdl\drivers\peripheral\scb/cy_scb_uart.c ****                  _VAL2FLD(SCB_CTRL_OVS, ovs)                                             |
  84              		.loc 1 94 0
  85 003a 0736     		adds	r6, r6, #7
  86 003c 3E40     		ands	r6, r7
  87 003e 8027     		movs	r7, #128
  88              	.LVL2:
  89 0040 009D     		ldr	r5, [sp]
  90 0042 BF04     		lsls	r7, r7, #18
  91 0044 3E43     		orrs	r6, r7
  92 0046 3543     		orrs	r5, r6
  93:Generated_Source\PSoC6\pdl\drivers\peripheral\scb/cy_scb_uart.c ****                  _BOOL2FLD(SCB_CTRL_BYTE_MODE, (config->dataWidth <= CY_SCB_BYTE_WIDTH)) |
  93              		.loc 1 93 0
  94 0048 E402     		lsls	r4, r4, #11
  95              		.loc 1 94 0
  96 004a 2C43     		orrs	r4, r5
  92:Generated_Source\PSoC6\pdl\drivers\peripheral\scb/cy_scb_uart.c ****                  _BOOL2FLD(SCB_CTRL_BYTE_MODE, (config->dataWidth <= CY_SCB_BYTE_WIDTH)) |
  97              		.loc 1 92 0
  98 004c 0460     		str	r4, [r0]
  95:Generated_Source\PSoC6\pdl\drivers\peripheral\scb/cy_scb_uart.c ****                  _VAL2FLD(SCB_CTRL_MODE, CY_SCB_CTRL_MODE_UART);
  96:Generated_Source\PSoC6\pdl\drivers\peripheral\scb/cy_scb_uart.c **** 
  97:Generated_Source\PSoC6\pdl\drivers\peripheral\scb/cy_scb_uart.c ****     /* Configure SCB_CTRL.BYTE_MODE then verify levels */
  98:Generated_Source\PSoC6\pdl\drivers\peripheral\scb/cy_scb_uart.c ****     CY_ASSERT_L2(CY_SCB_IS_TRIGGER_LEVEL_VALID(base, config->rxFifoTriggerLevel));
  99:Generated_Source\PSoC6\pdl\drivers\peripheral\scb/cy_scb_uart.c ****     CY_ASSERT_L2(CY_SCB_IS_TRIGGER_LEVEL_VALID(base, config->txFifoTriggerLevel));
 100:Generated_Source\PSoC6\pdl\drivers\peripheral\scb/cy_scb_uart.c ****     CY_ASSERT_L2(CY_SCB_IS_TRIGGER_LEVEL_VALID(base, config->rtsRxFifoLevel));
 101:Generated_Source\PSoC6\pdl\drivers\peripheral\scb/cy_scb_uart.c **** 
 102:Generated_Source\PSoC6\pdl\drivers\peripheral\scb/cy_scb_uart.c ****     SCB_UART_CTRL(base) = _VAL2FLD(SCB_UART_CTRL_MODE, (uint32_t) config->uartMode);
  99              		.loc 1 102 0
 100 004e C024     		movs	r4, #192
 101 0050 1D06     		lsls	r5, r3, #24
 102 0052 A404     		lsls	r4, r4, #18
 103 0054 2C40     		ands	r4, r5
 104 0056 0464     		str	r4, [r0, #64]
 103:Generated_Source\PSoC6\pdl\drivers\peripheral\scb/cy_scb_uart.c **** 
 104:Generated_Source\PSoC6\pdl\drivers\peripheral\scb/cy_scb_uart.c ****     /* Configure the RX direction */
 105:Generated_Source\PSoC6\pdl\drivers\peripheral\scb/cy_scb_uart.c ****     SCB_UART_RX_CTRL(base) = _BOOL2FLD(SCB_UART_RX_CTRL_POLARITY, config->irdaInvertRx)            
 105              		.loc 1 105 0
 106 0058 4D7F     		ldrb	r5, [r1, #29]
 107 005a 6C1E     		subs	r4, r5, #1
 108 005c A541     		sbcs	r5, r5, r4
 106:Generated_Source\PSoC6\pdl\drivers\peripheral\scb/cy_scb_uart.c ****                          _BOOL2FLD(SCB_UART_RX_CTRL_MP_MODE, config->enableMutliProcessorMode)     
 109              		.loc 1 106 0
 110 005e 8C7C     		ldrb	r4, [r1, #18]
 105:Generated_Source\PSoC6\pdl\drivers\peripheral\scb/cy_scb_uart.c ****                          _BOOL2FLD(SCB_UART_RX_CTRL_MP_MODE, config->enableMutliProcessorMode)     
 111              		.loc 1 105 0
 112 0060 AD01     		lsls	r5, r5, #6
 113              		.loc 1 106 0
 114 0062 661E     		subs	r6, r4, #1
 115 0064 B441     		sbcs	r4, r4, r6
 107:Generated_Source\PSoC6\pdl\drivers\peripheral\scb/cy_scb_uart.c ****                          _BOOL2FLD(SCB_UART_RX_CTRL_DROP_ON_PARITY_ERROR, config->dropOnParityError
 116              		.loc 1 107 0
ARM GAS  C:\Users\pearlstl\AppData\Local\Temp\ccAUXqAU.s 			page 5


 117 0066 0E7C     		ldrb	r6, [r1, #16]
 106:Generated_Source\PSoC6\pdl\drivers\peripheral\scb/cy_scb_uart.c ****                          _BOOL2FLD(SCB_UART_RX_CTRL_MP_MODE, config->enableMutliProcessorMode)     
 118              		.loc 1 106 0
 119 0068 A402     		lsls	r4, r4, #10
 120              		.loc 1 107 0
 121 006a 771E     		subs	r7, r6, #1
 122 006c BE41     		sbcs	r6, r6, r7
 123 006e 3602     		lsls	r6, r6, #8
 124 0070 0296     		str	r6, [sp, #8]
 108:Generated_Source\PSoC6\pdl\drivers\peripheral\scb/cy_scb_uart.c ****                          _BOOL2FLD(SCB_UART_RX_CTRL_DROP_ON_FRAME_ERROR, config->dropOnFrameError) 
 125              		.loc 1 108 0
 126 0072 4F7C     		ldrb	r7, [r1, #17]
 127 0074 7E1E     		subs	r6, r7, #1
 128 0076 B741     		sbcs	r7, r7, r6
 129 0078 7E02     		lsls	r6, r7, #9
 109:Generated_Source\PSoC6\pdl\drivers\peripheral\scb/cy_scb_uart.c ****                          _VAL2FLD(SCB_UART_RX_CTRL_BREAK_WIDTH, (config->breakWidth - 1UL))        
 110:Generated_Source\PSoC6\pdl\drivers\peripheral\scb/cy_scb_uart.c ****                          _VAL2FLD(SCB_UART_RX_CTRL_STOP_BITS,   ((uint32_t) config->stopBits) - 1UL
 130              		.loc 1 110 0
 131 007a 0727     		movs	r7, #7
 108:Generated_Source\PSoC6\pdl\drivers\peripheral\scb/cy_scb_uart.c ****                          _BOOL2FLD(SCB_UART_RX_CTRL_DROP_ON_FRAME_ERROR, config->dropOnFrameError) 
 132              		.loc 1 108 0
 133 007c 0396     		str	r6, [sp, #12]
 134              		.loc 1 110 0
 135 007e 4E7B     		ldrb	r6, [r1, #13]
 136 0080 013E     		subs	r6, r6, #1
 137 0082 3E40     		ands	r6, r7
 138 0084 0096     		str	r6, [sp]
 111:Generated_Source\PSoC6\pdl\drivers\peripheral\scb/cy_scb_uart.c ****                          _VAL2FLD(CY_SCB_UART_RX_CTRL_SET_PARITY, (uint32_t) config->parity);
 139              		.loc 1 111 0
 140 0086 8E7B     		ldrb	r6, [r1, #14]
 141 0088 2937     		adds	r7, r7, #41
 142 008a 3601     		lsls	r6, r6, #4
 143 008c 3E40     		ands	r6, r7
 144 008e 0196     		str	r6, [sp, #4]
 110:Generated_Source\PSoC6\pdl\drivers\peripheral\scb/cy_scb_uart.c ****                          _VAL2FLD(CY_SCB_UART_RX_CTRL_SET_PARITY, (uint32_t) config->parity);
 145              		.loc 1 110 0
 146 0090 CE6A     		ldr	r6, [r1, #44]
 147 0092 771E     		subs	r7, r6, #1
 148 0094 F026     		movs	r6, #240
 149 0096 3F04     		lsls	r7, r7, #16
 150 0098 3603     		lsls	r6, r6, #12
 151 009a 3E40     		ands	r6, r7
 152 009c 009F     		ldr	r7, [sp]
 153 009e 3E43     		orrs	r6, r7
 154 00a0 019F     		ldr	r7, [sp, #4]
 155 00a2 3E43     		orrs	r6, r7
 156 00a4 3543     		orrs	r5, r6
 157 00a6 2543     		orrs	r5, r4
 158 00a8 029C     		ldr	r4, [sp, #8]
 159 00aa 2543     		orrs	r5, r4
 160 00ac 039C     		ldr	r4, [sp, #12]
 161 00ae 2543     		orrs	r5, r4
 105:Generated_Source\PSoC6\pdl\drivers\peripheral\scb/cy_scb_uart.c ****                          _BOOL2FLD(SCB_UART_RX_CTRL_MP_MODE, config->enableMutliProcessorMode)     
 162              		.loc 1 105 0
 163 00b0 8564     		str	r5, [r0, #72]
 112:Generated_Source\PSoC6\pdl\drivers\peripheral\scb/cy_scb_uart.c **** 
 113:Generated_Source\PSoC6\pdl\drivers\peripheral\scb/cy_scb_uart.c ****     SCB_RX_CTRL(base) = _BOOL2FLD(SCB_RX_CTRL_MSB_FIRST, config->enableMsbFirst)          |
ARM GAS  C:\Users\pearlstl\AppData\Local\Temp\ccAUXqAU.s 			page 6


 164              		.loc 1 113 0
 165 00b2 0F7B     		ldrb	r7, [r1, #12]
 166 00b4 3D00     		movs	r5, r7
 167 00b6 6C1E     		subs	r4, r5, #1
 168 00b8 A541     		sbcs	r5, r5, r4
 169 00ba 2C02     		lsls	r4, r5, #8
 170 00bc 0294     		str	r4, [sp, #8]
 114:Generated_Source\PSoC6\pdl\drivers\peripheral\scb/cy_scb_uart.c ****                     _BOOL2FLD(SCB_RX_CTRL_MEDIAN, ((config->enableInputFilter) || \
 171              		.loc 1 114 0
 172 00be CC7B     		ldrb	r4, [r1, #15]
 173 00c0 002C     		cmp	r4, #0
 174 00c2 04D1     		bne	.L29
 175              		.loc 1 114 0 is_stmt 0 discriminator 2
 176 00c4 9E1E     		subs	r6, r3, #2
 177 00c6 7542     		rsbs	r5, r6, #0
 178 00c8 7541     		adcs	r5, r5, r6
 179 00ca 6E02     		lsls	r6, r5, #9
 180 00cc 01E0     		b	.L12
 181              	.L29:
 182              		.loc 1 114 0
 183 00ce 8026     		movs	r6, #128
 184 00d0 B600     		lsls	r6, r6, #2
 185              	.L12:
 115:Generated_Source\PSoC6\pdl\drivers\peripheral\scb/cy_scb_uart.c ****                                              (config->uartMode == CY_SCB_UART_IRDA))) |
 116:Generated_Source\PSoC6\pdl\drivers\peripheral\scb/cy_scb_uart.c ****                     _VAL2FLD(SCB_RX_CTRL_DATA_WIDTH, (config->dataWidth - 1UL));
 186              		.loc 1 116 0 is_stmt 1
 187 00d2 0124     		movs	r4, #1
 188 00d4 6442     		rsbs	r4, r4, #0
 189 00d6 A444     		add	ip, ip, r4
 190 00d8 6546     		mov	r5, ip
 191 00da 1034     		adds	r4, r4, #16
 192 00dc 2540     		ands	r5, r4
 193 00de AC46     		mov	ip, r5
 115:Generated_Source\PSoC6\pdl\drivers\peripheral\scb/cy_scb_uart.c ****                                              (config->uartMode == CY_SCB_UART_IRDA))) |
 194              		.loc 1 115 0
 195 00e0 6446     		mov	r4, ip
 196 00e2 029D     		ldr	r5, [sp, #8]
 197 00e4 2543     		orrs	r5, r4
 198 00e6 2E43     		orrs	r6, r5
 113:Generated_Source\PSoC6\pdl\drivers\peripheral\scb/cy_scb_uart.c ****                     _BOOL2FLD(SCB_RX_CTRL_MEDIAN, ((config->enableInputFilter) || \
 199              		.loc 1 113 0
 200 00e8 C025     		movs	r5, #192
 201 00ea AD00     		lsls	r5, r5, #2
 202 00ec 4651     		str	r6, [r0, r5]
 117:Generated_Source\PSoC6\pdl\drivers\peripheral\scb/cy_scb_uart.c **** 
 118:Generated_Source\PSoC6\pdl\drivers\peripheral\scb/cy_scb_uart.c ****     SCB_RX_MATCH(base) = _VAL2FLD(SCB_RX_MATCH_ADDR, config->receiverAddress) |
 203              		.loc 1 118 0
 204 00ee 8D69     		ldr	r5, [r1, #24]
 205 00f0 2E04     		lsls	r6, r5, #16
 206 00f2 FF25     		movs	r5, #255
 207 00f4 2D04     		lsls	r5, r5, #16
 208 00f6 3540     		ands	r5, r6
 209 00f8 0E7D     		ldrb	r6, [r1, #20]
 210 00fa 3543     		orrs	r5, r6
 211 00fc C426     		movs	r6, #196
 212 00fe B600     		lsls	r6, r6, #2
 213 0100 8551     		str	r5, [r0, r6]
ARM GAS  C:\Users\pearlstl\AppData\Local\Temp\ccAUXqAU.s 			page 7


 119:Generated_Source\PSoC6\pdl\drivers\peripheral\scb/cy_scb_uart.c ****                      _VAL2FLD(SCB_RX_MATCH_MASK, config->receiverAddressMask);
 120:Generated_Source\PSoC6\pdl\drivers\peripheral\scb/cy_scb_uart.c **** 
 121:Generated_Source\PSoC6\pdl\drivers\peripheral\scb/cy_scb_uart.c ****     /* Configure SCB_CTRL.RX_CTRL then verify break width */
 122:Generated_Source\PSoC6\pdl\drivers\peripheral\scb/cy_scb_uart.c ****     CY_ASSERT_L2(CY_SCB_UART_IS_RX_BREAK_WIDTH_VALID(base, config->breakWidth));
 123:Generated_Source\PSoC6\pdl\drivers\peripheral\scb/cy_scb_uart.c **** 
 124:Generated_Source\PSoC6\pdl\drivers\peripheral\scb/cy_scb_uart.c ****     /* Configure the TX direction */
 125:Generated_Source\PSoC6\pdl\drivers\peripheral\scb/cy_scb_uart.c ****     SCB_UART_TX_CTRL(base) = _BOOL2FLD(SCB_UART_TX_CTRL_RETRY_ON_NACK, ((config->smartCardRetryOnNa
 214              		.loc 1 125 0
 215 0102 0025     		movs	r5, #0
 216 0104 CE7F     		ldrb	r6, [r1, #31]
 217 0106 AE42     		cmp	r6, r5
 218 0108 03D0     		beq	.L13
 219              		.loc 1 125 0 is_stmt 0 discriminator 1
 220 010a 5D1E     		subs	r5, r3, #1
 221 010c 6C42     		rsbs	r4, r5, #0
 222 010e 6C41     		adcs	r4, r4, r5
 223 0110 2502     		lsls	r5, r4, #8
 224              	.L13:
 126:Generated_Source\PSoC6\pdl\drivers\peripheral\scb/cy_scb_uart.c ****                                                               (config->uartMode == CY_SCB_UART_SMAR
 127:Generated_Source\PSoC6\pdl\drivers\peripheral\scb/cy_scb_uart.c ****                          _VAL2FLD(SCB_UART_TX_CTRL_STOP_BITS, ((uint32_t) config->stopBits) - 1UL) 
 225              		.loc 1 127 0 is_stmt 1
 226 0112 009E     		ldr	r6, [sp]
 227 0114 019C     		ldr	r4, [sp, #4]
 128:Generated_Source\PSoC6\pdl\drivers\peripheral\scb/cy_scb_uart.c ****                          _VAL2FLD(CY_SCB_UART_TX_CTRL_SET_PARITY, (uint32_t) config->parity);
 129:Generated_Source\PSoC6\pdl\drivers\peripheral\scb/cy_scb_uart.c **** 
 130:Generated_Source\PSoC6\pdl\drivers\peripheral\scb/cy_scb_uart.c ****     SCB_TX_CTRL(base)  = _BOOL2FLD(SCB_TX_CTRL_MSB_FIRST,  config->enableMsbFirst)    |
 131:Generated_Source\PSoC6\pdl\drivers\peripheral\scb/cy_scb_uart.c ****                      _VAL2FLD(SCB_TX_CTRL_DATA_WIDTH,  (config->dataWidth - 1UL)) |
 132:Generated_Source\PSoC6\pdl\drivers\peripheral\scb/cy_scb_uart.c ****                      _BOOL2FLD(SCB_TX_CTRL_OPEN_DRAIN, (config->uartMode == CY_SCB_UART_SMARTCARD))
 228              		.loc 1 132 0
 229 0116 013B     		subs	r3, r3, #1
 127:Generated_Source\PSoC6\pdl\drivers\peripheral\scb/cy_scb_uart.c ****                          _VAL2FLD(CY_SCB_UART_TX_CTRL_SET_PARITY, (uint32_t) config->parity);
 230              		.loc 1 127 0
 231 0118 2643     		orrs	r6, r4
 232 011a 3543     		orrs	r5, r6
 125:Generated_Source\PSoC6\pdl\drivers\peripheral\scb/cy_scb_uart.c ****                                                               (config->uartMode == CY_SCB_UART_SMAR
 233              		.loc 1 125 0
 234 011c 4564     		str	r5, [r0, #68]
 130:Generated_Source\PSoC6\pdl\drivers\peripheral\scb/cy_scb_uart.c ****                      _VAL2FLD(SCB_TX_CTRL_DATA_WIDTH,  (config->dataWidth - 1UL)) |
 235              		.loc 1 130 0
 236 011e 7D1E     		subs	r5, r7, #1
 237 0120 AF41     		sbcs	r7, r7, r5
 238              		.loc 1 132 0
 239 0122 5E42     		rsbs	r6, r3, #0
 240 0124 5E41     		adcs	r6, r6, r3
 130:Generated_Source\PSoC6\pdl\drivers\peripheral\scb/cy_scb_uart.c ****                      _VAL2FLD(SCB_TX_CTRL_DATA_WIDTH,  (config->dataWidth - 1UL)) |
 241              		.loc 1 130 0
 242 0126 6446     		mov	r4, ip
 243 0128 3F02     		lsls	r7, r7, #8
 244 012a 3C43     		orrs	r4, r7
 245              		.loc 1 132 0
 246 012c 3304     		lsls	r3, r6, #16
 131:Generated_Source\PSoC6\pdl\drivers\peripheral\scb/cy_scb_uart.c ****                      _BOOL2FLD(SCB_TX_CTRL_OPEN_DRAIN, (config->uartMode == CY_SCB_UART_SMARTCARD))
 247              		.loc 1 131 0
 248 012e 2343     		orrs	r3, r4
 130:Generated_Source\PSoC6\pdl\drivers\peripheral\scb/cy_scb_uart.c ****                      _VAL2FLD(SCB_TX_CTRL_DATA_WIDTH,  (config->dataWidth - 1UL)) |
 249              		.loc 1 130 0
 250 0130 8024     		movs	r4, #128
ARM GAS  C:\Users\pearlstl\AppData\Local\Temp\ccAUXqAU.s 			page 8


 251 0132 A400     		lsls	r4, r4, #2
 252 0134 0351     		str	r3, [r0, r4]
 133:Generated_Source\PSoC6\pdl\drivers\peripheral\scb/cy_scb_uart.c **** 
 134:Generated_Source\PSoC6\pdl\drivers\peripheral\scb/cy_scb_uart.c ****     SCB_RX_FIFO_CTRL(base) = _VAL2FLD(SCB_RX_FIFO_CTRL_TRIGGER_LEVEL, config->rxFifoTriggerLevel);
 253              		.loc 1 134 0
 254 0136 C125     		movs	r5, #193
 255 0138 FF23     		movs	r3, #255
 256 013a 0C6B     		ldr	r4, [r1, #48]
 257 013c AD00     		lsls	r5, r5, #2
 258 013e 1C40     		ands	r4, r3
 259 0140 4451     		str	r4, [r0, r5]
 135:Generated_Source\PSoC6\pdl\drivers\peripheral\scb/cy_scb_uart.c **** 
 136:Generated_Source\PSoC6\pdl\drivers\peripheral\scb/cy_scb_uart.c ****     /* Configure the flow control */
 137:Generated_Source\PSoC6\pdl\drivers\peripheral\scb/cy_scb_uart.c ****     SCB_UART_FLOW_CTRL(base) = _BOOL2FLD(SCB_UART_FLOW_CTRL_CTS_ENABLED, config->enableCts) |
 260              		.loc 1 137 0
 261 0142 4C1C     		adds	r4, r1, #1
 262 0144 E57F     		ldrb	r5, [r4, #31]
 263 0146 6C1E     		subs	r4, r5, #1
 264 0148 A541     		sbcs	r5, r5, r4
 265 014a 6C06     		lsls	r4, r5, #25
 266 014c 0094     		str	r4, [sp]
 138:Generated_Source\PSoC6\pdl\drivers\peripheral\scb/cy_scb_uart.c ****                            _BOOL2FLD(SCB_UART_FLOW_CTRL_CTS_POLARITY, (CY_SCB_UART_ACTIVE_HIGH == c
 267              		.loc 1 138 0
 268 014e 8C1C     		adds	r4, r1, #2
 269 0150 E47F     		ldrb	r4, [r4, #31]
 270 0152 013C     		subs	r4, r4, #1
 271 0154 6742     		rsbs	r7, r4, #0
 272 0156 6741     		adcs	r7, r7, r4
 139:Generated_Source\PSoC6\pdl\drivers\peripheral\scb/cy_scb_uart.c ****                            _BOOL2FLD(SCB_UART_FLOW_CTRL_RTS_POLARITY, (CY_SCB_UART_ACTIVE_HIGH == c
 273              		.loc 1 139 0
 274 0158 0C00     		movs	r4, r1
 275 015a 2834     		adds	r4, r4, #40
 276 015c 2478     		ldrb	r4, [r4]
 138:Generated_Source\PSoC6\pdl\drivers\peripheral\scb/cy_scb_uart.c ****                            _BOOL2FLD(SCB_UART_FLOW_CTRL_CTS_POLARITY, (CY_SCB_UART_ACTIVE_HIGH == c
 277              		.loc 1 138 0
 278 015e 3E06     		lsls	r6, r7, #24
 279              		.loc 1 139 0
 280 0160 013C     		subs	r4, r4, #1
 281 0162 6542     		rsbs	r5, r4, #0
 282 0164 6541     		adcs	r5, r5, r4
 283 0166 4C6A     		ldr	r4, [r1, #36]
 284 0168 2F04     		lsls	r7, r5, #16
 285 016a 009D     		ldr	r5, [sp]
 286 016c 1C40     		ands	r4, r3
 287 016e 2C43     		orrs	r4, r5
 288 0170 3443     		orrs	r4, r6
 289 0172 3C43     		orrs	r4, r7
 137:Generated_Source\PSoC6\pdl\drivers\peripheral\scb/cy_scb_uart.c ****                            _BOOL2FLD(SCB_UART_FLOW_CTRL_CTS_POLARITY, (CY_SCB_UART_ACTIVE_HIGH == c
 290              		.loc 1 137 0
 291 0174 0465     		str	r4, [r0, #80]
 140:Generated_Source\PSoC6\pdl\drivers\peripheral\scb/cy_scb_uart.c ****                            _VAL2FLD(SCB_UART_FLOW_CTRL_TRIGGER_LEVEL, config->rtsRxFifoLevel);
 141:Generated_Source\PSoC6\pdl\drivers\peripheral\scb/cy_scb_uart.c **** 
 142:Generated_Source\PSoC6\pdl\drivers\peripheral\scb/cy_scb_uart.c ****     SCB_TX_FIFO_CTRL(base) = _VAL2FLD(SCB_TX_FIFO_CTRL_TRIGGER_LEVEL, config->txFifoTriggerLevel);
 292              		.loc 1 142 0
 293 0176 8C6B     		ldr	r4, [r1, #56]
 294 0178 2340     		ands	r3, r4
 295 017a 8124     		movs	r4, #129
ARM GAS  C:\Users\pearlstl\AppData\Local\Temp\ccAUXqAU.s 			page 9


 296 017c A400     		lsls	r4, r4, #2
 297 017e 0351     		str	r3, [r0, r4]
 143:Generated_Source\PSoC6\pdl\drivers\peripheral\scb/cy_scb_uart.c **** 
 144:Generated_Source\PSoC6\pdl\drivers\peripheral\scb/cy_scb_uart.c ****     /* Set up interrupt sources */
 145:Generated_Source\PSoC6\pdl\drivers\peripheral\scb/cy_scb_uart.c ****     SCB_INTR_RX_MASK(base) = (config->rxFifoIntEnableMask & CY_SCB_UART_RX_INTR_MASK);
 298              		.loc 1 145 0
 299 0180 4C6B     		ldr	r4, [r1, #52]
 300 0182 0C4B     		ldr	r3, .L42
 146:Generated_Source\PSoC6\pdl\drivers\peripheral\scb/cy_scb_uart.c ****     SCB_INTR_TX_MASK(base) = (config->txFifoIntEnableMask & CY_SCB_UART_TX_INTR_MASK);
 301              		.loc 1 146 0
 302 0184 C96B     		ldr	r1, [r1, #60]
 303              	.LVL3:
 145:Generated_Source\PSoC6\pdl\drivers\peripheral\scb/cy_scb_uart.c ****     SCB_INTR_TX_MASK(base) = (config->txFifoIntEnableMask & CY_SCB_UART_TX_INTR_MASK);
 304              		.loc 1 145 0
 305 0186 2340     		ands	r3, r4
 306 0188 0B4C     		ldr	r4, .L42+4
 307 018a 0351     		str	r3, [r0, r4]
 308              		.loc 1 146 0
 309 018c 0B4B     		ldr	r3, .L42+8
 310 018e 0B40     		ands	r3, r1
 311 0190 0B49     		ldr	r1, .L42+12
 312 0192 4350     		str	r3, [r0, r1]
 313 0194 0023     		movs	r3, #0
 147:Generated_Source\PSoC6\pdl\drivers\peripheral\scb/cy_scb_uart.c **** 
 148:Generated_Source\PSoC6\pdl\drivers\peripheral\scb/cy_scb_uart.c ****     /* Initialize context */
 149:Generated_Source\PSoC6\pdl\drivers\peripheral\scb/cy_scb_uart.c ****     if (NULL != context)
 150:Generated_Source\PSoC6\pdl\drivers\peripheral\scb/cy_scb_uart.c ****     {
 151:Generated_Source\PSoC6\pdl\drivers\peripheral\scb/cy_scb_uart.c ****         context->rxStatus  = 0UL;
 152:Generated_Source\PSoC6\pdl\drivers\peripheral\scb/cy_scb_uart.c ****         context->txStatus  = 0UL;
 153:Generated_Source\PSoC6\pdl\drivers\peripheral\scb/cy_scb_uart.c **** 
 154:Generated_Source\PSoC6\pdl\drivers\peripheral\scb/cy_scb_uart.c ****         context->rxRingBuf = NULL;
 155:Generated_Source\PSoC6\pdl\drivers\peripheral\scb/cy_scb_uart.c ****         context->rxRingBufSize = 0UL;
 156:Generated_Source\PSoC6\pdl\drivers\peripheral\scb/cy_scb_uart.c **** 
 157:Generated_Source\PSoC6\pdl\drivers\peripheral\scb/cy_scb_uart.c ****         context->rxBufIdx  = 0UL;
 158:Generated_Source\PSoC6\pdl\drivers\peripheral\scb/cy_scb_uart.c ****         context->txLeftToTransmit = 0UL;
 159:Generated_Source\PSoC6\pdl\drivers\peripheral\scb/cy_scb_uart.c **** 
 160:Generated_Source\PSoC6\pdl\drivers\peripheral\scb/cy_scb_uart.c ****         context->cbEvents = NULL;
 161:Generated_Source\PSoC6\pdl\drivers\peripheral\scb/cy_scb_uart.c **** 
 162:Generated_Source\PSoC6\pdl\drivers\peripheral\scb/cy_scb_uart.c ****     #if !defined(NDEBUG)
 163:Generated_Source\PSoC6\pdl\drivers\peripheral\scb/cy_scb_uart.c ****         /* Put an initialization key into the initKey variable to verify
 164:Generated_Source\PSoC6\pdl\drivers\peripheral\scb/cy_scb_uart.c ****         * context initialization in the transfer API.
 165:Generated_Source\PSoC6\pdl\drivers\peripheral\scb/cy_scb_uart.c ****         */
 166:Generated_Source\PSoC6\pdl\drivers\peripheral\scb/cy_scb_uart.c ****         context->initKey = CY_SCB_UART_INIT_KEY;
 167:Generated_Source\PSoC6\pdl\drivers\peripheral\scb/cy_scb_uart.c ****     #endif /* !(NDEBUG) */
 168:Generated_Source\PSoC6\pdl\drivers\peripheral\scb/cy_scb_uart.c ****     }
 169:Generated_Source\PSoC6\pdl\drivers\peripheral\scb/cy_scb_uart.c **** 
 170:Generated_Source\PSoC6\pdl\drivers\peripheral\scb/cy_scb_uart.c ****     return CY_SCB_UART_SUCCESS;
 314              		.loc 1 170 0
 315 0196 1000     		movs	r0, r2
 316              	.LVL4:
 149:Generated_Source\PSoC6\pdl\drivers\peripheral\scb/cy_scb_uart.c ****     {
 317              		.loc 1 149 0
 318 0198 9A42     		cmp	r2, r3
 319 019a 09D0     		beq	.L2
 320              	.LVL5:
 151:Generated_Source\PSoC6\pdl\drivers\peripheral\scb/cy_scb_uart.c ****         context->txStatus  = 0UL;
 321              		.loc 1 151 0
ARM GAS  C:\Users\pearlstl\AppData\Local\Temp\ccAUXqAU.s 			page 10


 322 019c 5360     		str	r3, [r2, #4]
 154:Generated_Source\PSoC6\pdl\drivers\peripheral\scb/cy_scb_uart.c ****         context->rxRingBufSize = 0UL;
 323              		.loc 1 154 0
 324 019e 9360     		str	r3, [r2, #8]
 152:Generated_Source\PSoC6\pdl\drivers\peripheral\scb/cy_scb_uart.c **** 
 325              		.loc 1 152 0
 326 01a0 1360     		str	r3, [r2]
 155:Generated_Source\PSoC6\pdl\drivers\peripheral\scb/cy_scb_uart.c **** 
 327              		.loc 1 155 0
 328 01a2 D360     		str	r3, [r2, #12]
 157:Generated_Source\PSoC6\pdl\drivers\peripheral\scb/cy_scb_uart.c ****         context->txLeftToTransmit = 0UL;
 329              		.loc 1 157 0
 330 01a4 1362     		str	r3, [r2, #32]
 160:Generated_Source\PSoC6\pdl\drivers\peripheral\scb/cy_scb_uart.c **** 
 331              		.loc 1 160 0
 332 01a6 1363     		str	r3, [r2, #48]
 158:Generated_Source\PSoC6\pdl\drivers\peripheral\scb/cy_scb_uart.c **** 
 333              		.loc 1 158 0
 334 01a8 D362     		str	r3, [r2, #44]
 335              		.loc 1 170 0
 336 01aa 1800     		movs	r0, r3
 337              	.LVL6:
 338 01ac 00E0     		b	.L2
 339              	.LVL7:
 340              	.L20:
  60:Generated_Source\PSoC6\pdl\drivers\peripheral\scb/cy_scb_uart.c ****     }
 341              		.loc 1 60 0
 342 01ae 0548     		ldr	r0, .L42+16
 343              	.LVL8:
 344              	.L2:
 171:Generated_Source\PSoC6\pdl\drivers\peripheral\scb/cy_scb_uart.c **** }
 345              		.loc 1 171 0
 346 01b0 05B0     		add	sp, sp, #20
 347              		@ sp needed
 348 01b2 F0BD     		pop	{r4, r5, r6, r7, pc}
 349              	.L43:
 350              		.align	2
 351              	.L42:
 352 01b4 6D0B0000 		.word	2925
 353 01b8 C80F0000 		.word	4040
 354 01bc 73070000 		.word	1907
 355 01c0 880F0000 		.word	3976
 356 01c4 0160AA00 		.word	11165697
 357              		.cfi_endproc
 358              	.LFE155:
 359              		.size	Cy_SCB_UART_Init, .-Cy_SCB_UART_Init
 360              		.section	.text.Cy_SCB_UART_DeInit,"ax",%progbits
 361              		.align	1
 362              		.global	Cy_SCB_UART_DeInit
 363              		.code	16
 364              		.thumb_func
 365              		.type	Cy_SCB_UART_DeInit, %function
 366              	Cy_SCB_UART_DeInit:
 367              	.LFB156:
 172:Generated_Source\PSoC6\pdl\drivers\peripheral\scb/cy_scb_uart.c **** 
 173:Generated_Source\PSoC6\pdl\drivers\peripheral\scb/cy_scb_uart.c **** 
 174:Generated_Source\PSoC6\pdl\drivers\peripheral\scb/cy_scb_uart.c **** /*******************************************************************************
ARM GAS  C:\Users\pearlstl\AppData\Local\Temp\ccAUXqAU.s 			page 11


 175:Generated_Source\PSoC6\pdl\drivers\peripheral\scb/cy_scb_uart.c **** * Function Name: Cy_SCB_UART_DeInit
 176:Generated_Source\PSoC6\pdl\drivers\peripheral\scb/cy_scb_uart.c **** ****************************************************************************//**
 177:Generated_Source\PSoC6\pdl\drivers\peripheral\scb/cy_scb_uart.c **** *
 178:Generated_Source\PSoC6\pdl\drivers\peripheral\scb/cy_scb_uart.c **** * De-initializes the SCB block. Returns the register values to default.
 179:Generated_Source\PSoC6\pdl\drivers\peripheral\scb/cy_scb_uart.c **** *
 180:Generated_Source\PSoC6\pdl\drivers\peripheral\scb/cy_scb_uart.c **** * \param base
 181:Generated_Source\PSoC6\pdl\drivers\peripheral\scb/cy_scb_uart.c **** * The pointer to the UART SCB instance.
 182:Generated_Source\PSoC6\pdl\drivers\peripheral\scb/cy_scb_uart.c **** *
 183:Generated_Source\PSoC6\pdl\drivers\peripheral\scb/cy_scb_uart.c **** * \note
 184:Generated_Source\PSoC6\pdl\drivers\peripheral\scb/cy_scb_uart.c **** * Ensure that the SCB block is disabled before calling this function.
 185:Generated_Source\PSoC6\pdl\drivers\peripheral\scb/cy_scb_uart.c **** *
 186:Generated_Source\PSoC6\pdl\drivers\peripheral\scb/cy_scb_uart.c **** *******************************************************************************/
 187:Generated_Source\PSoC6\pdl\drivers\peripheral\scb/cy_scb_uart.c **** void Cy_SCB_UART_DeInit(CySCB_Type *base)
 188:Generated_Source\PSoC6\pdl\drivers\peripheral\scb/cy_scb_uart.c **** {
 368              		.loc 1 188 0
 369              		.cfi_startproc
 370              		@ args = 0, pretend = 0, frame = 0
 371              		@ frame_needed = 0, uses_anonymous_args = 0
 372              		@ link register save eliminated.
 373              	.LVL9:
 189:Generated_Source\PSoC6\pdl\drivers\peripheral\scb/cy_scb_uart.c ****     /* De-initialize the UART interface */
 190:Generated_Source\PSoC6\pdl\drivers\peripheral\scb/cy_scb_uart.c ****     SCB_CTRL(base)      = CY_SCB_CTRL_DEF_VAL;
 374              		.loc 1 190 0
 375 0000 114B     		ldr	r3, .L45
 191:Generated_Source\PSoC6\pdl\drivers\peripheral\scb/cy_scb_uart.c ****     SCB_UART_CTRL(base) = CY_SCB_UART_CTRL_DEF_VAL;
 192:Generated_Source\PSoC6\pdl\drivers\peripheral\scb/cy_scb_uart.c **** 
 193:Generated_Source\PSoC6\pdl\drivers\peripheral\scb/cy_scb_uart.c ****     /* De-initialize the RX direction */
 194:Generated_Source\PSoC6\pdl\drivers\peripheral\scb/cy_scb_uart.c ****     SCB_UART_RX_CTRL(base) = 0UL;
 195:Generated_Source\PSoC6\pdl\drivers\peripheral\scb/cy_scb_uart.c ****     SCB_RX_CTRL(base)      = CY_SCB_RX_CTRL_DEF_VAL;
 376              		.loc 1 195 0
 377 0002 0822     		movs	r2, #8
 190:Generated_Source\PSoC6\pdl\drivers\peripheral\scb/cy_scb_uart.c ****     SCB_UART_CTRL(base) = CY_SCB_UART_CTRL_DEF_VAL;
 378              		.loc 1 190 0
 379 0004 0360     		str	r3, [r0]
 380              		.loc 1 195 0
 381 0006 C021     		movs	r1, #192
 191:Generated_Source\PSoC6\pdl\drivers\peripheral\scb/cy_scb_uart.c ****     SCB_UART_CTRL(base) = CY_SCB_UART_CTRL_DEF_VAL;
 382              		.loc 1 191 0
 383 0008 0F3B     		subs	r3, r3, #15
 384 000a 0364     		str	r3, [r0, #64]
 194:Generated_Source\PSoC6\pdl\drivers\peripheral\scb/cy_scb_uart.c ****     SCB_RX_CTRL(base)      = CY_SCB_RX_CTRL_DEF_VAL;
 385              		.loc 1 194 0
 386 000c 0023     		movs	r3, #0
 387              		.loc 1 195 0
 388 000e FF32     		adds	r2, r2, #255
 389 0010 8900     		lsls	r1, r1, #2
 194:Generated_Source\PSoC6\pdl\drivers\peripheral\scb/cy_scb_uart.c ****     SCB_RX_CTRL(base)      = CY_SCB_RX_CTRL_DEF_VAL;
 390              		.loc 1 194 0
 391 0012 8364     		str	r3, [r0, #72]
 392              		.loc 1 195 0
 393 0014 4250     		str	r2, [r0, r1]
 196:Generated_Source\PSoC6\pdl\drivers\peripheral\scb/cy_scb_uart.c ****     SCB_RX_FIFO_CTRL(base) = 0UL;
 394              		.loc 1 196 0
 395 0016 0431     		adds	r1, r1, #4
 396 0018 4350     		str	r3, [r0, r1]
 197:Generated_Source\PSoC6\pdl\drivers\peripheral\scb/cy_scb_uart.c ****     SCB_RX_MATCH(base)     = 0UL;
 397              		.loc 1 197 0
ARM GAS  C:\Users\pearlstl\AppData\Local\Temp\ccAUXqAU.s 			page 12


 398 001a 0C31     		adds	r1, r1, #12
 399 001c 4350     		str	r3, [r0, r1]
 198:Generated_Source\PSoC6\pdl\drivers\peripheral\scb/cy_scb_uart.c **** 
 199:Generated_Source\PSoC6\pdl\drivers\peripheral\scb/cy_scb_uart.c ****     /* De-initialize the TX direction */
 200:Generated_Source\PSoC6\pdl\drivers\peripheral\scb/cy_scb_uart.c ****     SCB_UART_TX_CTRL(base) = 0UL;
 201:Generated_Source\PSoC6\pdl\drivers\peripheral\scb/cy_scb_uart.c ****     SCB_TX_CTRL(base)      = CY_SCB_TX_CTRL_DEF_VAL;
 400              		.loc 1 201 0
 401 001e 1139     		subs	r1, r1, #17
 402 0020 FF39     		subs	r1, r1, #255
 200:Generated_Source\PSoC6\pdl\drivers\peripheral\scb/cy_scb_uart.c ****     SCB_TX_CTRL(base)      = CY_SCB_TX_CTRL_DEF_VAL;
 403              		.loc 1 200 0
 404 0022 4364     		str	r3, [r0, #68]
 405              		.loc 1 201 0
 406 0024 4250     		str	r2, [r0, r1]
 202:Generated_Source\PSoC6\pdl\drivers\peripheral\scb/cy_scb_uart.c ****     SCB_TX_FIFO_CTRL(base) = 0UL;
 407              		.loc 1 202 0
 408 0026 FD32     		adds	r2, r2, #253
 409 0028 8350     		str	r3, [r0, r2]
 203:Generated_Source\PSoC6\pdl\drivers\peripheral\scb/cy_scb_uart.c **** 
 204:Generated_Source\PSoC6\pdl\drivers\peripheral\scb/cy_scb_uart.c ****     /* De-initialize the flow control */
 205:Generated_Source\PSoC6\pdl\drivers\peripheral\scb/cy_scb_uart.c ****     SCB_UART_FLOW_CTRL(base) = 0UL;
 206:Generated_Source\PSoC6\pdl\drivers\peripheral\scb/cy_scb_uart.c **** 
 207:Generated_Source\PSoC6\pdl\drivers\peripheral\scb/cy_scb_uart.c ****     /* De-initialize the interrupt sources */
 208:Generated_Source\PSoC6\pdl\drivers\peripheral\scb/cy_scb_uart.c ****     SCB_INTR_SPI_EC_MASK(base) = 0UL;
 410              		.loc 1 208 0
 411 002a 084A     		ldr	r2, .L45+4
 205:Generated_Source\PSoC6\pdl\drivers\peripheral\scb/cy_scb_uart.c **** 
 412              		.loc 1 205 0
 413 002c 0365     		str	r3, [r0, #80]
 414              		.loc 1 208 0
 415 002e 8350     		str	r3, [r0, r2]
 209:Generated_Source\PSoC6\pdl\drivers\peripheral\scb/cy_scb_uart.c ****     SCB_INTR_I2C_EC_MASK(base) = 0UL;
 416              		.loc 1 209 0
 417 0030 074A     		ldr	r2, .L45+8
 210:Generated_Source\PSoC6\pdl\drivers\peripheral\scb/cy_scb_uart.c ****     SCB_INTR_RX_MASK(base)     = 0UL;
 211:Generated_Source\PSoC6\pdl\drivers\peripheral\scb/cy_scb_uart.c ****     SCB_INTR_TX_MASK(base)     = 0UL;
 212:Generated_Source\PSoC6\pdl\drivers\peripheral\scb/cy_scb_uart.c ****     SCB_INTR_M_MASK(base)      = 0UL;
 213:Generated_Source\PSoC6\pdl\drivers\peripheral\scb/cy_scb_uart.c ****     SCB_INTR_S_MASK(base)      = 0UL;
 214:Generated_Source\PSoC6\pdl\drivers\peripheral\scb/cy_scb_uart.c **** }
 418              		.loc 1 214 0
 419              		@ sp needed
 209:Generated_Source\PSoC6\pdl\drivers\peripheral\scb/cy_scb_uart.c ****     SCB_INTR_I2C_EC_MASK(base) = 0UL;
 420              		.loc 1 209 0
 421 0032 8350     		str	r3, [r0, r2]
 210:Generated_Source\PSoC6\pdl\drivers\peripheral\scb/cy_scb_uart.c ****     SCB_INTR_RX_MASK(base)     = 0UL;
 422              		.loc 1 210 0
 423 0034 074A     		ldr	r2, .L45+12
 424 0036 8350     		str	r3, [r0, r2]
 211:Generated_Source\PSoC6\pdl\drivers\peripheral\scb/cy_scb_uart.c ****     SCB_INTR_M_MASK(base)      = 0UL;
 425              		.loc 1 211 0
 426 0038 074A     		ldr	r2, .L45+16
 427 003a 8350     		str	r3, [r0, r2]
 212:Generated_Source\PSoC6\pdl\drivers\peripheral\scb/cy_scb_uart.c ****     SCB_INTR_S_MASK(base)      = 0UL;
 428              		.loc 1 212 0
 429 003c 074A     		ldr	r2, .L45+20
 430 003e 8350     		str	r3, [r0, r2]
 213:Generated_Source\PSoC6\pdl\drivers\peripheral\scb/cy_scb_uart.c **** }
ARM GAS  C:\Users\pearlstl\AppData\Local\Temp\ccAUXqAU.s 			page 13


 431              		.loc 1 213 0
 432 0040 074A     		ldr	r2, .L45+24
 433 0042 8350     		str	r3, [r0, r2]
 434              		.loc 1 214 0
 435 0044 7047     		bx	lr
 436              	.L46:
 437 0046 C046     		.align	2
 438              	.L45:
 439 0048 0F000003 		.word	50331663
 440 004c C80E0000 		.word	3784
 441 0050 880E0000 		.word	3720
 442 0054 C80F0000 		.word	4040
 443 0058 880F0000 		.word	3976
 444 005c 080F0000 		.word	3848
 445 0060 480F0000 		.word	3912
 446              		.cfi_endproc
 447              	.LFE156:
 448              		.size	Cy_SCB_UART_DeInit, .-Cy_SCB_UART_DeInit
 449              		.section	.text.Cy_SCB_UART_Disable,"ax",%progbits
 450              		.align	1
 451              		.global	Cy_SCB_UART_Disable
 452              		.code	16
 453              		.thumb_func
 454              		.type	Cy_SCB_UART_Disable, %function
 455              	Cy_SCB_UART_Disable:
 456              	.LFB157:
 215:Generated_Source\PSoC6\pdl\drivers\peripheral\scb/cy_scb_uart.c **** 
 216:Generated_Source\PSoC6\pdl\drivers\peripheral\scb/cy_scb_uart.c **** 
 217:Generated_Source\PSoC6\pdl\drivers\peripheral\scb/cy_scb_uart.c **** /*******************************************************************************
 218:Generated_Source\PSoC6\pdl\drivers\peripheral\scb/cy_scb_uart.c **** * Function Name: Cy_SCB_UART_Disable
 219:Generated_Source\PSoC6\pdl\drivers\peripheral\scb/cy_scb_uart.c **** ****************************************************************************//**
 220:Generated_Source\PSoC6\pdl\drivers\peripheral\scb/cy_scb_uart.c **** *
 221:Generated_Source\PSoC6\pdl\drivers\peripheral\scb/cy_scb_uart.c **** * Disables the SCB block and clears context statuses.
 222:Generated_Source\PSoC6\pdl\drivers\peripheral\scb/cy_scb_uart.c **** * Note that after the block is disabled, the TX and RX FIFOs and
 223:Generated_Source\PSoC6\pdl\drivers\peripheral\scb/cy_scb_uart.c **** * hardware statuses are cleared. Also, the hardware stops driving the
 224:Generated_Source\PSoC6\pdl\drivers\peripheral\scb/cy_scb_uart.c **** * output and ignores the input. Refer to section \ref group_scb_uart_lp for more 
 225:Generated_Source\PSoC6\pdl\drivers\peripheral\scb/cy_scb_uart.c **** * information about UART pins when SCB disabled.
 226:Generated_Source\PSoC6\pdl\drivers\peripheral\scb/cy_scb_uart.c **** 
 227:Generated_Source\PSoC6\pdl\drivers\peripheral\scb/cy_scb_uart.c **** * \param base
 228:Generated_Source\PSoC6\pdl\drivers\peripheral\scb/cy_scb_uart.c **** * The pointer to the UART SCB instance.
 229:Generated_Source\PSoC6\pdl\drivers\peripheral\scb/cy_scb_uart.c **** *
 230:Generated_Source\PSoC6\pdl\drivers\peripheral\scb/cy_scb_uart.c **** * \param context
 231:Generated_Source\PSoC6\pdl\drivers\peripheral\scb/cy_scb_uart.c **** * The pointer to the context structure \ref cy_stc_scb_uart_context_t allocated
 232:Generated_Source\PSoC6\pdl\drivers\peripheral\scb/cy_scb_uart.c **** * by the user. The structure is used during the UART operation for internal
 233:Generated_Source\PSoC6\pdl\drivers\peripheral\scb/cy_scb_uart.c **** * configuration and data retention. The user must not modify anything
 234:Generated_Source\PSoC6\pdl\drivers\peripheral\scb/cy_scb_uart.c **** * in this structure.
 235:Generated_Source\PSoC6\pdl\drivers\peripheral\scb/cy_scb_uart.c **** * If only UART functions that do not require context will be used to pass NULL
 236:Generated_Source\PSoC6\pdl\drivers\peripheral\scb/cy_scb_uart.c **** * as pointer to context.
 237:Generated_Source\PSoC6\pdl\drivers\peripheral\scb/cy_scb_uart.c **** *
 238:Generated_Source\PSoC6\pdl\drivers\peripheral\scb/cy_scb_uart.c **** * \note
 239:Generated_Source\PSoC6\pdl\drivers\peripheral\scb/cy_scb_uart.c **** * Calling this function when the UART is busy (transmitter preforms data
 240:Generated_Source\PSoC6\pdl\drivers\peripheral\scb/cy_scb_uart.c **** * transfer or receiver is in the middle of data reception) may result transfer
 241:Generated_Source\PSoC6\pdl\drivers\peripheral\scb/cy_scb_uart.c **** * corruption because the hardware stops driving the outputs and ignores
 242:Generated_Source\PSoC6\pdl\drivers\peripheral\scb/cy_scb_uart.c **** * the inputs.
 243:Generated_Source\PSoC6\pdl\drivers\peripheral\scb/cy_scb_uart.c **** * Ensure that the UART is not busy before calling this function.
 244:Generated_Source\PSoC6\pdl\drivers\peripheral\scb/cy_scb_uart.c **** *
 245:Generated_Source\PSoC6\pdl\drivers\peripheral\scb/cy_scb_uart.c **** *******************************************************************************/
ARM GAS  C:\Users\pearlstl\AppData\Local\Temp\ccAUXqAU.s 			page 14


 246:Generated_Source\PSoC6\pdl\drivers\peripheral\scb/cy_scb_uart.c **** void Cy_SCB_UART_Disable(CySCB_Type *base, cy_stc_scb_uart_context_t *context)
 247:Generated_Source\PSoC6\pdl\drivers\peripheral\scb/cy_scb_uart.c **** {
 457              		.loc 1 247 0
 458              		.cfi_startproc
 459              		@ args = 0, pretend = 0, frame = 0
 460              		@ frame_needed = 0, uses_anonymous_args = 0
 461              		@ link register save eliminated.
 462              	.LVL10:
 248:Generated_Source\PSoC6\pdl\drivers\peripheral\scb/cy_scb_uart.c ****     SCB_CTRL(base) &= (uint32_t) ~SCB_CTRL_ENABLED_Msk;
 463              		.loc 1 248 0
 464 0000 0368     		ldr	r3, [r0]
 465 0002 5B00     		lsls	r3, r3, #1
 466 0004 5B08     		lsrs	r3, r3, #1
 467 0006 0360     		str	r3, [r0]
 249:Generated_Source\PSoC6\pdl\drivers\peripheral\scb/cy_scb_uart.c **** 
 250:Generated_Source\PSoC6\pdl\drivers\peripheral\scb/cy_scb_uart.c ****     if (NULL != context)
 468              		.loc 1 250 0
 469 0008 0029     		cmp	r1, #0
 470 000a 04D0     		beq	.L47
 251:Generated_Source\PSoC6\pdl\drivers\peripheral\scb/cy_scb_uart.c ****     {
 252:Generated_Source\PSoC6\pdl\drivers\peripheral\scb/cy_scb_uart.c ****         context->rxStatus  = 0UL;
 471              		.loc 1 252 0
 472 000c 0023     		movs	r3, #0
 473 000e 4B60     		str	r3, [r1, #4]
 253:Generated_Source\PSoC6\pdl\drivers\peripheral\scb/cy_scb_uart.c ****         context->txStatus  = 0UL;
 474              		.loc 1 253 0
 475 0010 0B60     		str	r3, [r1]
 254:Generated_Source\PSoC6\pdl\drivers\peripheral\scb/cy_scb_uart.c **** 
 255:Generated_Source\PSoC6\pdl\drivers\peripheral\scb/cy_scb_uart.c ****         context->rxBufIdx  = 0UL;
 476              		.loc 1 255 0
 477 0012 0B62     		str	r3, [r1, #32]
 256:Generated_Source\PSoC6\pdl\drivers\peripheral\scb/cy_scb_uart.c ****         context->txLeftToTransmit = 0UL;
 478              		.loc 1 256 0
 479 0014 CB62     		str	r3, [r1, #44]
 480              	.L47:
 257:Generated_Source\PSoC6\pdl\drivers\peripheral\scb/cy_scb_uart.c ****     }
 258:Generated_Source\PSoC6\pdl\drivers\peripheral\scb/cy_scb_uart.c **** }
 481              		.loc 1 258 0
 482              		@ sp needed
 483 0016 7047     		bx	lr
 484              		.cfi_endproc
 485              	.LFE157:
 486              		.size	Cy_SCB_UART_Disable, .-Cy_SCB_UART_Disable
 487              		.section	.text.Cy_SCB_UART_DeepSleepCallback,"ax",%progbits
 488              		.align	1
 489              		.global	Cy_SCB_UART_DeepSleepCallback
 490              		.code	16
 491              		.thumb_func
 492              		.type	Cy_SCB_UART_DeepSleepCallback, %function
 493              	Cy_SCB_UART_DeepSleepCallback:
 494              	.LFB158:
 259:Generated_Source\PSoC6\pdl\drivers\peripheral\scb/cy_scb_uart.c **** 
 260:Generated_Source\PSoC6\pdl\drivers\peripheral\scb/cy_scb_uart.c **** 
 261:Generated_Source\PSoC6\pdl\drivers\peripheral\scb/cy_scb_uart.c **** /*******************************************************************************
 262:Generated_Source\PSoC6\pdl\drivers\peripheral\scb/cy_scb_uart.c **** * Function Name: Cy_SCB_UART_DeepSleepCallback
 263:Generated_Source\PSoC6\pdl\drivers\peripheral\scb/cy_scb_uart.c **** ****************************************************************************//**
 264:Generated_Source\PSoC6\pdl\drivers\peripheral\scb/cy_scb_uart.c **** *
ARM GAS  C:\Users\pearlstl\AppData\Local\Temp\ccAUXqAU.s 			page 15


 265:Generated_Source\PSoC6\pdl\drivers\peripheral\scb/cy_scb_uart.c **** * This function handles the transition of the SCB UART into and out of
 266:Generated_Source\PSoC6\pdl\drivers\peripheral\scb/cy_scb_uart.c **** * Deep Sleep mode. It prevents the device from entering Deep Sleep 
 267:Generated_Source\PSoC6\pdl\drivers\peripheral\scb/cy_scb_uart.c **** * mode if the UART is transmitting data or has any data in the RX FIFO. If the
 268:Generated_Source\PSoC6\pdl\drivers\peripheral\scb/cy_scb_uart.c **** * UART is ready to enter Deep Sleep mode, it is disabled. The UART is enabled
 269:Generated_Source\PSoC6\pdl\drivers\peripheral\scb/cy_scb_uart.c **** * when the device fails to enter Deep Sleep mode or it is awakened from
 270:Generated_Source\PSoC6\pdl\drivers\peripheral\scb/cy_scb_uart.c **** * Deep Sleep mode. While the UART is disabled, it stops driving the outputs
 271:Generated_Source\PSoC6\pdl\drivers\peripheral\scb/cy_scb_uart.c **** * and ignores the inputs. Any incoming data is ignored. Refer to section 
 272:Generated_Source\PSoC6\pdl\drivers\peripheral\scb/cy_scb_uart.c **** * \ref group_scb_uart_lp for more information about UART pins when SCB disabled.
 273:Generated_Source\PSoC6\pdl\drivers\peripheral\scb/cy_scb_uart.c **** *
 274:Generated_Source\PSoC6\pdl\drivers\peripheral\scb/cy_scb_uart.c **** * This function must be called during execution of \ref Cy_SysPm_CpuEnterDeepSleep,
 275:Generated_Source\PSoC6\pdl\drivers\peripheral\scb/cy_scb_uart.c **** * to do it, register this function as a callback before calling
 276:Generated_Source\PSoC6\pdl\drivers\peripheral\scb/cy_scb_uart.c **** * \ref Cy_SysPm_CpuEnterDeepSleep : specify \ref CY_SYSPM_DEEPSLEEP as the callback
 277:Generated_Source\PSoC6\pdl\drivers\peripheral\scb/cy_scb_uart.c **** * type and call \ref Cy_SysPm_RegisterCallback.
 278:Generated_Source\PSoC6\pdl\drivers\peripheral\scb/cy_scb_uart.c **** *
 279:Generated_Source\PSoC6\pdl\drivers\peripheral\scb/cy_scb_uart.c **** * \param callbackParams
 280:Generated_Source\PSoC6\pdl\drivers\peripheral\scb/cy_scb_uart.c **** * The pointer to the callback parameters structure
 281:Generated_Source\PSoC6\pdl\drivers\peripheral\scb/cy_scb_uart.c **** * \ref cy_stc_syspm_callback_params_t.
 282:Generated_Source\PSoC6\pdl\drivers\peripheral\scb/cy_scb_uart.c **** *
 283:Generated_Source\PSoC6\pdl\drivers\peripheral\scb/cy_scb_uart.c **** * \param mode
 284:Generated_Source\PSoC6\pdl\drivers\peripheral\scb/cy_scb_uart.c **** * Callback mode, see \ref cy_en_syspm_callback_mode_t
 285:Generated_Source\PSoC6\pdl\drivers\peripheral\scb/cy_scb_uart.c **** *
 286:Generated_Source\PSoC6\pdl\drivers\peripheral\scb/cy_scb_uart.c **** * \return
 287:Generated_Source\PSoC6\pdl\drivers\peripheral\scb/cy_scb_uart.c **** * \ref cy_en_syspm_status_t
 288:Generated_Source\PSoC6\pdl\drivers\peripheral\scb/cy_scb_uart.c **** *
 289:Generated_Source\PSoC6\pdl\drivers\peripheral\scb/cy_scb_uart.c **** *******************************************************************************/
 290:Generated_Source\PSoC6\pdl\drivers\peripheral\scb/cy_scb_uart.c **** cy_en_syspm_status_t Cy_SCB_UART_DeepSleepCallback(cy_stc_syspm_callback_params_t *callbackParams, 
 291:Generated_Source\PSoC6\pdl\drivers\peripheral\scb/cy_scb_uart.c **** {
 495              		.loc 1 291 0
 496              		.cfi_startproc
 497              		@ args = 0, pretend = 0, frame = 0
 498              		@ frame_needed = 0, uses_anonymous_args = 0
 499              	.LVL11:
 500 0000 10B5     		push	{r4, lr}
 501              		.cfi_def_cfa_offset 8
 502              		.cfi_offset 4, -8
 503              		.cfi_offset 14, -4
 504              		.loc 1 291 0
 505 0002 0A00     		movs	r2, r1
 292:Generated_Source\PSoC6\pdl\drivers\peripheral\scb/cy_scb_uart.c ****     cy_en_syspm_status_t retStatus = CY_SYSPM_FAIL;
 293:Generated_Source\PSoC6\pdl\drivers\peripheral\scb/cy_scb_uart.c **** 
 294:Generated_Source\PSoC6\pdl\drivers\peripheral\scb/cy_scb_uart.c ****     CySCB_Type *locBase = (CySCB_Type *) callbackParams->base;
 506              		.loc 1 294 0
 507 0004 0368     		ldr	r3, [r0]
 508              	.LVL12:
 295:Generated_Source\PSoC6\pdl\drivers\peripheral\scb/cy_scb_uart.c ****     cy_stc_scb_uart_context_t *locContext = (cy_stc_scb_uart_context_t *) callbackParams->context;
 296:Generated_Source\PSoC6\pdl\drivers\peripheral\scb/cy_scb_uart.c **** 
 297:Generated_Source\PSoC6\pdl\drivers\peripheral\scb/cy_scb_uart.c ****     switch(mode)
 509              		.loc 1 297 0
 510 0006 0229     		cmp	r1, #2
 511 0008 1FD0     		beq	.L54
 512 000a 0829     		cmp	r1, #8
 513 000c 1DD0     		beq	.L54
 514 000e 0129     		cmp	r1, #1
 515 0010 22D1     		bne	.L61
 295:Generated_Source\PSoC6\pdl\drivers\peripheral\scb/cy_scb_uart.c ****     cy_stc_scb_uart_context_t *locContext = (cy_stc_scb_uart_context_t *) callbackParams->context;
 516              		.loc 1 295 0
 517 0012 4168     		ldr	r1, [r0, #4]
ARM GAS  C:\Users\pearlstl\AppData\Local\Temp\ccAUXqAU.s 			page 16


 518              	.LVL13:
 519              	.LBB151:
 520              	.LBB152:
 298:Generated_Source\PSoC6\pdl\drivers\peripheral\scb/cy_scb_uart.c ****     {
 299:Generated_Source\PSoC6\pdl\drivers\peripheral\scb/cy_scb_uart.c ****         case CY_SYSPM_CHECK_READY:
 300:Generated_Source\PSoC6\pdl\drivers\peripheral\scb/cy_scb_uart.c ****         {
 301:Generated_Source\PSoC6\pdl\drivers\peripheral\scb/cy_scb_uart.c ****             /* Check whether the High-level API is not busy executing the transmit
 302:Generated_Source\PSoC6\pdl\drivers\peripheral\scb/cy_scb_uart.c ****             * or receive operation.
 303:Generated_Source\PSoC6\pdl\drivers\peripheral\scb/cy_scb_uart.c ****             */
 304:Generated_Source\PSoC6\pdl\drivers\peripheral\scb/cy_scb_uart.c ****             if ((0UL == (CY_SCB_UART_TRANSMIT_ACTIVE & Cy_SCB_UART_GetTransmitStatus(locBase, locCo
 305:Generated_Source\PSoC6\pdl\drivers\peripheral\scb/cy_scb_uart.c ****                 (0UL == (CY_SCB_UART_RECEIVE_ACTIVE  & Cy_SCB_UART_GetReceiveStatus (locBase, locCo
 306:Generated_Source\PSoC6\pdl\drivers\peripheral\scb/cy_scb_uart.c ****             {
 307:Generated_Source\PSoC6\pdl\drivers\peripheral\scb/cy_scb_uart.c ****                 /* If all data elements are transmitted from the TX FIFO and
 308:Generated_Source\PSoC6\pdl\drivers\peripheral\scb/cy_scb_uart.c ****                 * shifter and the RX FIFO is empty: the UART is ready to enter
 309:Generated_Source\PSoC6\pdl\drivers\peripheral\scb/cy_scb_uart.c ****                 * Deep Sleep mode.
 310:Generated_Source\PSoC6\pdl\drivers\peripheral\scb/cy_scb_uart.c ****                 */
 311:Generated_Source\PSoC6\pdl\drivers\peripheral\scb/cy_scb_uart.c ****                 if (Cy_SCB_UART_IsTxComplete(locBase))
 312:Generated_Source\PSoC6\pdl\drivers\peripheral\scb/cy_scb_uart.c ****                 {
 313:Generated_Source\PSoC6\pdl\drivers\peripheral\scb/cy_scb_uart.c ****                     if (0UL == Cy_SCB_UART_GetNumInRxFifo(locBase))
 314:Generated_Source\PSoC6\pdl\drivers\peripheral\scb/cy_scb_uart.c ****                     {
 315:Generated_Source\PSoC6\pdl\drivers\peripheral\scb/cy_scb_uart.c ****                         /* Disable the UART. The transmitter stops driving the
 316:Generated_Source\PSoC6\pdl\drivers\peripheral\scb/cy_scb_uart.c ****                         * lines and the receiver stops receiving data until
 317:Generated_Source\PSoC6\pdl\drivers\peripheral\scb/cy_scb_uart.c ****                         * the UART is enabled.
 318:Generated_Source\PSoC6\pdl\drivers\peripheral\scb/cy_scb_uart.c ****                         * This happens when the device failed to enter Deep
 319:Generated_Source\PSoC6\pdl\drivers\peripheral\scb/cy_scb_uart.c ****                         * Sleep or it is awaken from Deep Sleep mode.
 320:Generated_Source\PSoC6\pdl\drivers\peripheral\scb/cy_scb_uart.c ****                         */
 321:Generated_Source\PSoC6\pdl\drivers\peripheral\scb/cy_scb_uart.c ****                         Cy_SCB_UART_Disable(locBase, locContext);
 322:Generated_Source\PSoC6\pdl\drivers\peripheral\scb/cy_scb_uart.c **** 
 323:Generated_Source\PSoC6\pdl\drivers\peripheral\scb/cy_scb_uart.c ****                         retStatus = CY_SYSPM_SUCCESS;
 324:Generated_Source\PSoC6\pdl\drivers\peripheral\scb/cy_scb_uart.c ****                     }
 325:Generated_Source\PSoC6\pdl\drivers\peripheral\scb/cy_scb_uart.c ****                 }
 326:Generated_Source\PSoC6\pdl\drivers\peripheral\scb/cy_scb_uart.c ****             }
 327:Generated_Source\PSoC6\pdl\drivers\peripheral\scb/cy_scb_uart.c ****         }
 328:Generated_Source\PSoC6\pdl\drivers\peripheral\scb/cy_scb_uart.c ****         break;
 329:Generated_Source\PSoC6\pdl\drivers\peripheral\scb/cy_scb_uart.c **** 
 330:Generated_Source\PSoC6\pdl\drivers\peripheral\scb/cy_scb_uart.c ****         case CY_SYSPM_CHECK_FAIL:
 331:Generated_Source\PSoC6\pdl\drivers\peripheral\scb/cy_scb_uart.c ****         {
 332:Generated_Source\PSoC6\pdl\drivers\peripheral\scb/cy_scb_uart.c ****             /* The other driver is not ready for Deep Sleep mode. Restore the
 333:Generated_Source\PSoC6\pdl\drivers\peripheral\scb/cy_scb_uart.c ****             * Active mode configuration.
 334:Generated_Source\PSoC6\pdl\drivers\peripheral\scb/cy_scb_uart.c ****             */
 335:Generated_Source\PSoC6\pdl\drivers\peripheral\scb/cy_scb_uart.c **** 
 336:Generated_Source\PSoC6\pdl\drivers\peripheral\scb/cy_scb_uart.c ****             /* Enable the UART to operate */
 337:Generated_Source\PSoC6\pdl\drivers\peripheral\scb/cy_scb_uart.c ****             Cy_SCB_UART_Enable(locBase);
 338:Generated_Source\PSoC6\pdl\drivers\peripheral\scb/cy_scb_uart.c **** 
 339:Generated_Source\PSoC6\pdl\drivers\peripheral\scb/cy_scb_uart.c ****             retStatus = CY_SYSPM_SUCCESS;
 340:Generated_Source\PSoC6\pdl\drivers\peripheral\scb/cy_scb_uart.c ****         }
 341:Generated_Source\PSoC6\pdl\drivers\peripheral\scb/cy_scb_uart.c ****         break;
 342:Generated_Source\PSoC6\pdl\drivers\peripheral\scb/cy_scb_uart.c **** 
 343:Generated_Source\PSoC6\pdl\drivers\peripheral\scb/cy_scb_uart.c ****         case CY_SYSPM_BEFORE_TRANSITION:
 344:Generated_Source\PSoC6\pdl\drivers\peripheral\scb/cy_scb_uart.c ****             /* Do noting: the UART is not capable of waking up from
 345:Generated_Source\PSoC6\pdl\drivers\peripheral\scb/cy_scb_uart.c ****             * Deep Sleep mode.
 346:Generated_Source\PSoC6\pdl\drivers\peripheral\scb/cy_scb_uart.c ****             */
 347:Generated_Source\PSoC6\pdl\drivers\peripheral\scb/cy_scb_uart.c ****         break;
 348:Generated_Source\PSoC6\pdl\drivers\peripheral\scb/cy_scb_uart.c **** 
 349:Generated_Source\PSoC6\pdl\drivers\peripheral\scb/cy_scb_uart.c ****         case CY_SYSPM_AFTER_TRANSITION:
 350:Generated_Source\PSoC6\pdl\drivers\peripheral\scb/cy_scb_uart.c ****         {
 351:Generated_Source\PSoC6\pdl\drivers\peripheral\scb/cy_scb_uart.c ****             /* Enable the UART to operate */
ARM GAS  C:\Users\pearlstl\AppData\Local\Temp\ccAUXqAU.s 			page 17


 352:Generated_Source\PSoC6\pdl\drivers\peripheral\scb/cy_scb_uart.c ****             Cy_SCB_UART_Enable(locBase);
 353:Generated_Source\PSoC6\pdl\drivers\peripheral\scb/cy_scb_uart.c **** 
 354:Generated_Source\PSoC6\pdl\drivers\peripheral\scb/cy_scb_uart.c ****             retStatus = CY_SYSPM_SUCCESS;
 355:Generated_Source\PSoC6\pdl\drivers\peripheral\scb/cy_scb_uart.c ****         }
 356:Generated_Source\PSoC6\pdl\drivers\peripheral\scb/cy_scb_uart.c ****         break;
 357:Generated_Source\PSoC6\pdl\drivers\peripheral\scb/cy_scb_uart.c **** 
 358:Generated_Source\PSoC6\pdl\drivers\peripheral\scb/cy_scb_uart.c ****         default:
 359:Generated_Source\PSoC6\pdl\drivers\peripheral\scb/cy_scb_uart.c ****             break;
 360:Generated_Source\PSoC6\pdl\drivers\peripheral\scb/cy_scb_uart.c ****     }
 361:Generated_Source\PSoC6\pdl\drivers\peripheral\scb/cy_scb_uart.c **** 
 362:Generated_Source\PSoC6\pdl\drivers\peripheral\scb/cy_scb_uart.c ****     return (retStatus);
 363:Generated_Source\PSoC6\pdl\drivers\peripheral\scb/cy_scb_uart.c **** }
 364:Generated_Source\PSoC6\pdl\drivers\peripheral\scb/cy_scb_uart.c **** 
 365:Generated_Source\PSoC6\pdl\drivers\peripheral\scb/cy_scb_uart.c **** 
 366:Generated_Source\PSoC6\pdl\drivers\peripheral\scb/cy_scb_uart.c **** /*******************************************************************************
 367:Generated_Source\PSoC6\pdl\drivers\peripheral\scb/cy_scb_uart.c **** * Function Name: Cy_SCB_UART_HibernateCallback
 368:Generated_Source\PSoC6\pdl\drivers\peripheral\scb/cy_scb_uart.c **** ****************************************************************************//**
 369:Generated_Source\PSoC6\pdl\drivers\peripheral\scb/cy_scb_uart.c **** *
 370:Generated_Source\PSoC6\pdl\drivers\peripheral\scb/cy_scb_uart.c **** * This function handles the transition of the SCB UART into Hibernate mode. 
 371:Generated_Source\PSoC6\pdl\drivers\peripheral\scb/cy_scb_uart.c **** * It prevents the device from entering Hibernate mode if the UART is
 372:Generated_Source\PSoC6\pdl\drivers\peripheral\scb/cy_scb_uart.c **** * transmitting data or has any data in the RX FIFO. If the UART is ready
 373:Generated_Source\PSoC6\pdl\drivers\peripheral\scb/cy_scb_uart.c **** * to enter Hibernate mode, it is disabled. If the device fails to enter
 374:Generated_Source\PSoC6\pdl\drivers\peripheral\scb/cy_scb_uart.c **** * Hibernate mode, the UART is enabled. While the UART is disabled, it stops
 375:Generated_Source\PSoC6\pdl\drivers\peripheral\scb/cy_scb_uart.c **** * driving the outputs and ignores the inputs. Any incoming data is ignored.
 376:Generated_Source\PSoC6\pdl\drivers\peripheral\scb/cy_scb_uart.c **** * Refer to section \ref group_scb_uart_lp for more information about UART pins 
 377:Generated_Source\PSoC6\pdl\drivers\peripheral\scb/cy_scb_uart.c **** * when SCB disabled.
 378:Generated_Source\PSoC6\pdl\drivers\peripheral\scb/cy_scb_uart.c **** *
 379:Generated_Source\PSoC6\pdl\drivers\peripheral\scb/cy_scb_uart.c **** * This function must be called during execution of \ref Cy_SysPm_SystemEnterHibernate.
 380:Generated_Source\PSoC6\pdl\drivers\peripheral\scb/cy_scb_uart.c **** * To do it, register this function as a callback before calling
 381:Generated_Source\PSoC6\pdl\drivers\peripheral\scb/cy_scb_uart.c **** * \ref Cy_SysPm_SystemEnterHibernate : specify \ref CY_SYSPM_HIBERNATE as the callback type
 382:Generated_Source\PSoC6\pdl\drivers\peripheral\scb/cy_scb_uart.c **** * and call \ref Cy_SysPm_RegisterCallback.
 383:Generated_Source\PSoC6\pdl\drivers\peripheral\scb/cy_scb_uart.c **** *
 384:Generated_Source\PSoC6\pdl\drivers\peripheral\scb/cy_scb_uart.c **** * \param callbackParams
 385:Generated_Source\PSoC6\pdl\drivers\peripheral\scb/cy_scb_uart.c **** * The pointer to the callback parameters structure
 386:Generated_Source\PSoC6\pdl\drivers\peripheral\scb/cy_scb_uart.c **** * \ref cy_stc_syspm_callback_params_t.
 387:Generated_Source\PSoC6\pdl\drivers\peripheral\scb/cy_scb_uart.c **** *
 388:Generated_Source\PSoC6\pdl\drivers\peripheral\scb/cy_scb_uart.c **** * \param mode
 389:Generated_Source\PSoC6\pdl\drivers\peripheral\scb/cy_scb_uart.c **** * Callback mode, see \ref cy_en_syspm_callback_mode_t
 390:Generated_Source\PSoC6\pdl\drivers\peripheral\scb/cy_scb_uart.c **** *
 391:Generated_Source\PSoC6\pdl\drivers\peripheral\scb/cy_scb_uart.c **** * \return
 392:Generated_Source\PSoC6\pdl\drivers\peripheral\scb/cy_scb_uart.c **** * \ref cy_en_syspm_status_t
 393:Generated_Source\PSoC6\pdl\drivers\peripheral\scb/cy_scb_uart.c **** *
 394:Generated_Source\PSoC6\pdl\drivers\peripheral\scb/cy_scb_uart.c **** *******************************************************************************/
 395:Generated_Source\PSoC6\pdl\drivers\peripheral\scb/cy_scb_uart.c **** cy_en_syspm_status_t Cy_SCB_UART_HibernateCallback(cy_stc_syspm_callback_params_t *callbackParams, 
 396:Generated_Source\PSoC6\pdl\drivers\peripheral\scb/cy_scb_uart.c **** {
 397:Generated_Source\PSoC6\pdl\drivers\peripheral\scb/cy_scb_uart.c ****     return Cy_SCB_UART_DeepSleepCallback(callbackParams, mode);
 398:Generated_Source\PSoC6\pdl\drivers\peripheral\scb/cy_scb_uart.c **** }
 399:Generated_Source\PSoC6\pdl\drivers\peripheral\scb/cy_scb_uart.c **** 
 400:Generated_Source\PSoC6\pdl\drivers\peripheral\scb/cy_scb_uart.c **** 
 401:Generated_Source\PSoC6\pdl\drivers\peripheral\scb/cy_scb_uart.c **** /************************* High-Level Functions ********************************
 402:Generated_Source\PSoC6\pdl\drivers\peripheral\scb/cy_scb_uart.c **** * The following functions are considered high-level. They provide the layer of
 403:Generated_Source\PSoC6\pdl\drivers\peripheral\scb/cy_scb_uart.c **** * intelligence to the SCB. These functions require interrupts.
 404:Generated_Source\PSoC6\pdl\drivers\peripheral\scb/cy_scb_uart.c **** * Low-level and high-level functions must not be mixed because low-level API
 405:Generated_Source\PSoC6\pdl\drivers\peripheral\scb/cy_scb_uart.c **** * can adversely affect the operation of high-level functions.
 406:Generated_Source\PSoC6\pdl\drivers\peripheral\scb/cy_scb_uart.c **** *******************************************************************************/
 407:Generated_Source\PSoC6\pdl\drivers\peripheral\scb/cy_scb_uart.c **** 
 408:Generated_Source\PSoC6\pdl\drivers\peripheral\scb/cy_scb_uart.c **** 
ARM GAS  C:\Users\pearlstl\AppData\Local\Temp\ccAUXqAU.s 			page 18


 409:Generated_Source\PSoC6\pdl\drivers\peripheral\scb/cy_scb_uart.c **** /*******************************************************************************
 410:Generated_Source\PSoC6\pdl\drivers\peripheral\scb/cy_scb_uart.c **** * Function Name: Cy_SCB_UART_StartRingBuffer
 411:Generated_Source\PSoC6\pdl\drivers\peripheral\scb/cy_scb_uart.c **** ****************************************************************************//**
 412:Generated_Source\PSoC6\pdl\drivers\peripheral\scb/cy_scb_uart.c **** *
 413:Generated_Source\PSoC6\pdl\drivers\peripheral\scb/cy_scb_uart.c **** * Starts the receive ring buffer operation.
 414:Generated_Source\PSoC6\pdl\drivers\peripheral\scb/cy_scb_uart.c **** * The RX interrupt source is configured to get data from the RX
 415:Generated_Source\PSoC6\pdl\drivers\peripheral\scb/cy_scb_uart.c **** * FIFO and put into the ring buffer. 
 416:Generated_Source\PSoC6\pdl\drivers\peripheral\scb/cy_scb_uart.c **** *
 417:Generated_Source\PSoC6\pdl\drivers\peripheral\scb/cy_scb_uart.c **** * \param base
 418:Generated_Source\PSoC6\pdl\drivers\peripheral\scb/cy_scb_uart.c **** * The pointer to the UART SCB instance.
 419:Generated_Source\PSoC6\pdl\drivers\peripheral\scb/cy_scb_uart.c **** *
 420:Generated_Source\PSoC6\pdl\drivers\peripheral\scb/cy_scb_uart.c **** * \param buffer
 421:Generated_Source\PSoC6\pdl\drivers\peripheral\scb/cy_scb_uart.c **** * Pointer to the user defined ring buffer.
 422:Generated_Source\PSoC6\pdl\drivers\peripheral\scb/cy_scb_uart.c **** * The element size is defined by the data type, which depends on the configured
 423:Generated_Source\PSoC6\pdl\drivers\peripheral\scb/cy_scb_uart.c **** * data width.
 424:Generated_Source\PSoC6\pdl\drivers\peripheral\scb/cy_scb_uart.c **** *
 425:Generated_Source\PSoC6\pdl\drivers\peripheral\scb/cy_scb_uart.c **** * \param size
 426:Generated_Source\PSoC6\pdl\drivers\peripheral\scb/cy_scb_uart.c **** * The size of the receive ring buffer.
 427:Generated_Source\PSoC6\pdl\drivers\peripheral\scb/cy_scb_uart.c **** * Note that one data element is used for internal use, so if the size is 32,
 428:Generated_Source\PSoC6\pdl\drivers\peripheral\scb/cy_scb_uart.c **** * then only 31 data elements are used for data storage.
 429:Generated_Source\PSoC6\pdl\drivers\peripheral\scb/cy_scb_uart.c **** *
 430:Generated_Source\PSoC6\pdl\drivers\peripheral\scb/cy_scb_uart.c **** * \param context
 431:Generated_Source\PSoC6\pdl\drivers\peripheral\scb/cy_scb_uart.c **** * The pointer to the context structure \ref cy_stc_scb_uart_context_t allocated
 432:Generated_Source\PSoC6\pdl\drivers\peripheral\scb/cy_scb_uart.c **** * by the user. The structure is used during the UART operation for internal
 433:Generated_Source\PSoC6\pdl\drivers\peripheral\scb/cy_scb_uart.c **** * configuration and data retention. The user must not modify anything
 434:Generated_Source\PSoC6\pdl\drivers\peripheral\scb/cy_scb_uart.c **** * in this structure.
 435:Generated_Source\PSoC6\pdl\drivers\peripheral\scb/cy_scb_uart.c **** *
 436:Generated_Source\PSoC6\pdl\drivers\peripheral\scb/cy_scb_uart.c **** * \note
 437:Generated_Source\PSoC6\pdl\drivers\peripheral\scb/cy_scb_uart.c **** * * The buffer must not be modified and stay allocated while the ring buffer
 438:Generated_Source\PSoC6\pdl\drivers\peripheral\scb/cy_scb_uart.c **** *   operates.
 439:Generated_Source\PSoC6\pdl\drivers\peripheral\scb/cy_scb_uart.c **** * * This function overrides the RX interrupt sources and changes the
 440:Generated_Source\PSoC6\pdl\drivers\peripheral\scb/cy_scb_uart.c **** *   RX FIFO level.
 441:Generated_Source\PSoC6\pdl\drivers\peripheral\scb/cy_scb_uart.c **** *
 442:Generated_Source\PSoC6\pdl\drivers\peripheral\scb/cy_scb_uart.c **** *******************************************************************************/
 443:Generated_Source\PSoC6\pdl\drivers\peripheral\scb/cy_scb_uart.c **** void Cy_SCB_UART_StartRingBuffer(CySCB_Type *base, void *buffer, uint32_t size, cy_stc_scb_uart_con
 444:Generated_Source\PSoC6\pdl\drivers\peripheral\scb/cy_scb_uart.c **** {
 445:Generated_Source\PSoC6\pdl\drivers\peripheral\scb/cy_scb_uart.c ****     CY_ASSERT_L1(NULL != context);
 446:Generated_Source\PSoC6\pdl\drivers\peripheral\scb/cy_scb_uart.c ****     CY_ASSERT_L1(CY_SCB_UART_INIT_KEY == context->initKey);
 447:Generated_Source\PSoC6\pdl\drivers\peripheral\scb/cy_scb_uart.c ****     CY_ASSERT_L1(CY_SCB_IS_BUFFER_VALID(buffer, size));
 448:Generated_Source\PSoC6\pdl\drivers\peripheral\scb/cy_scb_uart.c **** 
 449:Generated_Source\PSoC6\pdl\drivers\peripheral\scb/cy_scb_uart.c ****     if ((NULL != buffer) && (size > 0UL))
 450:Generated_Source\PSoC6\pdl\drivers\peripheral\scb/cy_scb_uart.c ****     {
 451:Generated_Source\PSoC6\pdl\drivers\peripheral\scb/cy_scb_uart.c ****         uint32_t halfFifoSize =  (Cy_SCB_GetFifoSize(base) / 2UL);
 452:Generated_Source\PSoC6\pdl\drivers\peripheral\scb/cy_scb_uart.c **** 
 453:Generated_Source\PSoC6\pdl\drivers\peripheral\scb/cy_scb_uart.c ****         context->rxRingBuf     = buffer;
 454:Generated_Source\PSoC6\pdl\drivers\peripheral\scb/cy_scb_uart.c ****         context->rxRingBufSize = size;
 455:Generated_Source\PSoC6\pdl\drivers\peripheral\scb/cy_scb_uart.c ****         context->rxRingBufHead = 0UL;
 456:Generated_Source\PSoC6\pdl\drivers\peripheral\scb/cy_scb_uart.c ****         context->rxRingBufTail = 0UL;
 457:Generated_Source\PSoC6\pdl\drivers\peripheral\scb/cy_scb_uart.c **** 
 458:Generated_Source\PSoC6\pdl\drivers\peripheral\scb/cy_scb_uart.c ****         /* Set up an RX interrupt to handle the ring buffer */
 459:Generated_Source\PSoC6\pdl\drivers\peripheral\scb/cy_scb_uart.c ****         Cy_SCB_SetRxFifoLevel(base, (size >= halfFifoSize) ? (halfFifoSize - 1UL) : (size - 1UL));
 460:Generated_Source\PSoC6\pdl\drivers\peripheral\scb/cy_scb_uart.c **** 
 461:Generated_Source\PSoC6\pdl\drivers\peripheral\scb/cy_scb_uart.c ****         Cy_SCB_SetRxInterruptMask(base, CY_SCB_RX_INTR_LEVEL);
 462:Generated_Source\PSoC6\pdl\drivers\peripheral\scb/cy_scb_uart.c ****     }
 463:Generated_Source\PSoC6\pdl\drivers\peripheral\scb/cy_scb_uart.c **** }
 464:Generated_Source\PSoC6\pdl\drivers\peripheral\scb/cy_scb_uart.c **** 
 465:Generated_Source\PSoC6\pdl\drivers\peripheral\scb/cy_scb_uart.c **** 
ARM GAS  C:\Users\pearlstl\AppData\Local\Temp\ccAUXqAU.s 			page 19


 466:Generated_Source\PSoC6\pdl\drivers\peripheral\scb/cy_scb_uart.c **** /*******************************************************************************
 467:Generated_Source\PSoC6\pdl\drivers\peripheral\scb/cy_scb_uart.c **** * Function Name: Cy_SCB_UART_StopRingBuffer
 468:Generated_Source\PSoC6\pdl\drivers\peripheral\scb/cy_scb_uart.c **** ****************************************************************************//**
 469:Generated_Source\PSoC6\pdl\drivers\peripheral\scb/cy_scb_uart.c **** *
 470:Generated_Source\PSoC6\pdl\drivers\peripheral\scb/cy_scb_uart.c **** * Stops receiving data into the ring buffer and clears the ring buffer.
 471:Generated_Source\PSoC6\pdl\drivers\peripheral\scb/cy_scb_uart.c **** *
 472:Generated_Source\PSoC6\pdl\drivers\peripheral\scb/cy_scb_uart.c **** * \param base
 473:Generated_Source\PSoC6\pdl\drivers\peripheral\scb/cy_scb_uart.c **** * The pointer to the UART SCB instance.
 474:Generated_Source\PSoC6\pdl\drivers\peripheral\scb/cy_scb_uart.c **** *
 475:Generated_Source\PSoC6\pdl\drivers\peripheral\scb/cy_scb_uart.c **** * \param context
 476:Generated_Source\PSoC6\pdl\drivers\peripheral\scb/cy_scb_uart.c **** * The pointer to the context structure \ref cy_stc_scb_uart_context_t allocated
 477:Generated_Source\PSoC6\pdl\drivers\peripheral\scb/cy_scb_uart.c **** * by the user. The structure is used during the UART operation for internal
 478:Generated_Source\PSoC6\pdl\drivers\peripheral\scb/cy_scb_uart.c **** * configuration and data retention. The user must not modify anything
 479:Generated_Source\PSoC6\pdl\drivers\peripheral\scb/cy_scb_uart.c **** * in this structure.
 480:Generated_Source\PSoC6\pdl\drivers\peripheral\scb/cy_scb_uart.c **** *
 481:Generated_Source\PSoC6\pdl\drivers\peripheral\scb/cy_scb_uart.c **** *******************************************************************************/
 482:Generated_Source\PSoC6\pdl\drivers\peripheral\scb/cy_scb_uart.c **** void Cy_SCB_UART_StopRingBuffer(CySCB_Type *base, cy_stc_scb_uart_context_t *context)
 483:Generated_Source\PSoC6\pdl\drivers\peripheral\scb/cy_scb_uart.c **** {
 484:Generated_Source\PSoC6\pdl\drivers\peripheral\scb/cy_scb_uart.c ****     Cy_SCB_SetRxInterruptMask  (base, CY_SCB_CLEAR_ALL_INTR_SRC);
 485:Generated_Source\PSoC6\pdl\drivers\peripheral\scb/cy_scb_uart.c ****     Cy_SCB_UART_ClearRingBuffer(base, context);
 486:Generated_Source\PSoC6\pdl\drivers\peripheral\scb/cy_scb_uart.c **** 
 487:Generated_Source\PSoC6\pdl\drivers\peripheral\scb/cy_scb_uart.c ****     context->rxRingBuf     = NULL;
 488:Generated_Source\PSoC6\pdl\drivers\peripheral\scb/cy_scb_uart.c ****     context->rxRingBufSize = 0UL;
 489:Generated_Source\PSoC6\pdl\drivers\peripheral\scb/cy_scb_uart.c **** }
 490:Generated_Source\PSoC6\pdl\drivers\peripheral\scb/cy_scb_uart.c **** 
 491:Generated_Source\PSoC6\pdl\drivers\peripheral\scb/cy_scb_uart.c **** 
 492:Generated_Source\PSoC6\pdl\drivers\peripheral\scb/cy_scb_uart.c **** /*******************************************************************************
 493:Generated_Source\PSoC6\pdl\drivers\peripheral\scb/cy_scb_uart.c **** * Function Name: Cy_SCB_UART_GetNumInRingBuffer
 494:Generated_Source\PSoC6\pdl\drivers\peripheral\scb/cy_scb_uart.c **** ****************************************************************************//**
 495:Generated_Source\PSoC6\pdl\drivers\peripheral\scb/cy_scb_uart.c **** *
 496:Generated_Source\PSoC6\pdl\drivers\peripheral\scb/cy_scb_uart.c **** * Returns the number of data elements in the ring buffer.
 497:Generated_Source\PSoC6\pdl\drivers\peripheral\scb/cy_scb_uart.c **** *
 498:Generated_Source\PSoC6\pdl\drivers\peripheral\scb/cy_scb_uart.c **** * \param base
 499:Generated_Source\PSoC6\pdl\drivers\peripheral\scb/cy_scb_uart.c **** * The pointer to the UART SCB instance.
 500:Generated_Source\PSoC6\pdl\drivers\peripheral\scb/cy_scb_uart.c **** *
 501:Generated_Source\PSoC6\pdl\drivers\peripheral\scb/cy_scb_uart.c **** * \param context
 502:Generated_Source\PSoC6\pdl\drivers\peripheral\scb/cy_scb_uart.c **** * The pointer to the context structure \ref cy_stc_scb_uart_context_t allocated
 503:Generated_Source\PSoC6\pdl\drivers\peripheral\scb/cy_scb_uart.c **** * by the user. The structure is used during the UART operation for internal
 504:Generated_Source\PSoC6\pdl\drivers\peripheral\scb/cy_scb_uart.c **** * configuration and data retention. The user must not modify anything
 505:Generated_Source\PSoC6\pdl\drivers\peripheral\scb/cy_scb_uart.c **** * in this structure.
 506:Generated_Source\PSoC6\pdl\drivers\peripheral\scb/cy_scb_uart.c **** *
 507:Generated_Source\PSoC6\pdl\drivers\peripheral\scb/cy_scb_uart.c **** * \return
 508:Generated_Source\PSoC6\pdl\drivers\peripheral\scb/cy_scb_uart.c **** * The number of data elements in the receive ring buffer.
 509:Generated_Source\PSoC6\pdl\drivers\peripheral\scb/cy_scb_uart.c **** *
 510:Generated_Source\PSoC6\pdl\drivers\peripheral\scb/cy_scb_uart.c **** * \note
 511:Generated_Source\PSoC6\pdl\drivers\peripheral\scb/cy_scb_uart.c **** * One data element is used for internal use, so when the buffer is full,
 512:Generated_Source\PSoC6\pdl\drivers\peripheral\scb/cy_scb_uart.c **** * this function returns (Ring Buffer size - 1).
 513:Generated_Source\PSoC6\pdl\drivers\peripheral\scb/cy_scb_uart.c **** *
 514:Generated_Source\PSoC6\pdl\drivers\peripheral\scb/cy_scb_uart.c **** *******************************************************************************/
 515:Generated_Source\PSoC6\pdl\drivers\peripheral\scb/cy_scb_uart.c **** uint32_t Cy_SCB_UART_GetNumInRingBuffer(CySCB_Type const *base, cy_stc_scb_uart_context_t const *co
 516:Generated_Source\PSoC6\pdl\drivers\peripheral\scb/cy_scb_uart.c **** {
 517:Generated_Source\PSoC6\pdl\drivers\peripheral\scb/cy_scb_uart.c ****     uint32_t size;
 518:Generated_Source\PSoC6\pdl\drivers\peripheral\scb/cy_scb_uart.c ****     uint32_t locHead = context->rxRingBufHead;
 519:Generated_Source\PSoC6\pdl\drivers\peripheral\scb/cy_scb_uart.c **** 
 520:Generated_Source\PSoC6\pdl\drivers\peripheral\scb/cy_scb_uart.c ****     /* Suppress a compiler warning about unused variables */
 521:Generated_Source\PSoC6\pdl\drivers\peripheral\scb/cy_scb_uart.c ****     (void) base;
 522:Generated_Source\PSoC6\pdl\drivers\peripheral\scb/cy_scb_uart.c **** 
ARM GAS  C:\Users\pearlstl\AppData\Local\Temp\ccAUXqAU.s 			page 20


 523:Generated_Source\PSoC6\pdl\drivers\peripheral\scb/cy_scb_uart.c ****     if (locHead >= context->rxRingBufTail)
 524:Generated_Source\PSoC6\pdl\drivers\peripheral\scb/cy_scb_uart.c ****     {
 525:Generated_Source\PSoC6\pdl\drivers\peripheral\scb/cy_scb_uart.c ****         size = (locHead - context->rxRingBufTail);
 526:Generated_Source\PSoC6\pdl\drivers\peripheral\scb/cy_scb_uart.c ****     }
 527:Generated_Source\PSoC6\pdl\drivers\peripheral\scb/cy_scb_uart.c ****     else
 528:Generated_Source\PSoC6\pdl\drivers\peripheral\scb/cy_scb_uart.c ****     {
 529:Generated_Source\PSoC6\pdl\drivers\peripheral\scb/cy_scb_uart.c ****         size = (locHead + (context->rxBufSize - context->rxRingBufTail));
 530:Generated_Source\PSoC6\pdl\drivers\peripheral\scb/cy_scb_uart.c ****     }
 531:Generated_Source\PSoC6\pdl\drivers\peripheral\scb/cy_scb_uart.c **** 
 532:Generated_Source\PSoC6\pdl\drivers\peripheral\scb/cy_scb_uart.c ****     return (size);
 533:Generated_Source\PSoC6\pdl\drivers\peripheral\scb/cy_scb_uart.c **** }
 534:Generated_Source\PSoC6\pdl\drivers\peripheral\scb/cy_scb_uart.c **** 
 535:Generated_Source\PSoC6\pdl\drivers\peripheral\scb/cy_scb_uart.c **** 
 536:Generated_Source\PSoC6\pdl\drivers\peripheral\scb/cy_scb_uart.c **** /*******************************************************************************
 537:Generated_Source\PSoC6\pdl\drivers\peripheral\scb/cy_scb_uart.c **** * Function Name: Cy_SCB_UART_ClearRingBuffer
 538:Generated_Source\PSoC6\pdl\drivers\peripheral\scb/cy_scb_uart.c **** ****************************************************************************//**
 539:Generated_Source\PSoC6\pdl\drivers\peripheral\scb/cy_scb_uart.c **** *
 540:Generated_Source\PSoC6\pdl\drivers\peripheral\scb/cy_scb_uart.c **** * Clears the ring buffer.
 541:Generated_Source\PSoC6\pdl\drivers\peripheral\scb/cy_scb_uart.c **** *
 542:Generated_Source\PSoC6\pdl\drivers\peripheral\scb/cy_scb_uart.c **** * \param base
 543:Generated_Source\PSoC6\pdl\drivers\peripheral\scb/cy_scb_uart.c **** * The pointer to the UART SCB instance.
 544:Generated_Source\PSoC6\pdl\drivers\peripheral\scb/cy_scb_uart.c **** *
 545:Generated_Source\PSoC6\pdl\drivers\peripheral\scb/cy_scb_uart.c **** * \param context
 546:Generated_Source\PSoC6\pdl\drivers\peripheral\scb/cy_scb_uart.c **** * The pointer to the context structure \ref cy_stc_scb_uart_context_t allocated
 547:Generated_Source\PSoC6\pdl\drivers\peripheral\scb/cy_scb_uart.c **** * by the user. The structure is used during the UART operation for internal
 548:Generated_Source\PSoC6\pdl\drivers\peripheral\scb/cy_scb_uart.c **** * configuration and data retention. The user must not modify anything
 549:Generated_Source\PSoC6\pdl\drivers\peripheral\scb/cy_scb_uart.c **** * in this structure.
 550:Generated_Source\PSoC6\pdl\drivers\peripheral\scb/cy_scb_uart.c **** *
 551:Generated_Source\PSoC6\pdl\drivers\peripheral\scb/cy_scb_uart.c **** *******************************************************************************/
 552:Generated_Source\PSoC6\pdl\drivers\peripheral\scb/cy_scb_uart.c **** void Cy_SCB_UART_ClearRingBuffer(CySCB_Type const *base, cy_stc_scb_uart_context_t *context)
 553:Generated_Source\PSoC6\pdl\drivers\peripheral\scb/cy_scb_uart.c **** {
 554:Generated_Source\PSoC6\pdl\drivers\peripheral\scb/cy_scb_uart.c ****     /* Suppress a compiler warning about unused variables */
 555:Generated_Source\PSoC6\pdl\drivers\peripheral\scb/cy_scb_uart.c ****     (void) base;
 556:Generated_Source\PSoC6\pdl\drivers\peripheral\scb/cy_scb_uart.c **** 
 557:Generated_Source\PSoC6\pdl\drivers\peripheral\scb/cy_scb_uart.c ****     context->rxRingBufHead = context->rxRingBufTail;
 558:Generated_Source\PSoC6\pdl\drivers\peripheral\scb/cy_scb_uart.c **** }
 559:Generated_Source\PSoC6\pdl\drivers\peripheral\scb/cy_scb_uart.c **** 
 560:Generated_Source\PSoC6\pdl\drivers\peripheral\scb/cy_scb_uart.c **** 
 561:Generated_Source\PSoC6\pdl\drivers\peripheral\scb/cy_scb_uart.c **** /*******************************************************************************
 562:Generated_Source\PSoC6\pdl\drivers\peripheral\scb/cy_scb_uart.c **** * Function Name: Cy_SCB_UART_Receive
 563:Generated_Source\PSoC6\pdl\drivers\peripheral\scb/cy_scb_uart.c **** ****************************************************************************//**
 564:Generated_Source\PSoC6\pdl\drivers\peripheral\scb/cy_scb_uart.c **** *
 565:Generated_Source\PSoC6\pdl\drivers\peripheral\scb/cy_scb_uart.c **** * This function starts a UART receive operation.
 566:Generated_Source\PSoC6\pdl\drivers\peripheral\scb/cy_scb_uart.c **** * It configures the receive interrupt sources to get data available in the
 567:Generated_Source\PSoC6\pdl\drivers\peripheral\scb/cy_scb_uart.c **** * receive FIFO and returns. The \ref Cy_SCB_UART_Interrupt manages the further
 568:Generated_Source\PSoC6\pdl\drivers\peripheral\scb/cy_scb_uart.c **** * data transfer.
 569:Generated_Source\PSoC6\pdl\drivers\peripheral\scb/cy_scb_uart.c **** *
 570:Generated_Source\PSoC6\pdl\drivers\peripheral\scb/cy_scb_uart.c **** * If the ring buffer is enabled, this function first reads data from the ring
 571:Generated_Source\PSoC6\pdl\drivers\peripheral\scb/cy_scb_uart.c **** * buffer. If there is more data to receive, it configures the receive interrupt
 572:Generated_Source\PSoC6\pdl\drivers\peripheral\scb/cy_scb_uart.c **** * sources to copy the remaining bytes from the RX FIFO when they arrive.
 573:Generated_Source\PSoC6\pdl\drivers\peripheral\scb/cy_scb_uart.c **** *
 574:Generated_Source\PSoC6\pdl\drivers\peripheral\scb/cy_scb_uart.c **** * When the receive operation is completed (requested number of data elements
 575:Generated_Source\PSoC6\pdl\drivers\peripheral\scb/cy_scb_uart.c **** * received) the \ref CY_SCB_UART_RECEIVE_ACTIVE status is cleared and
 576:Generated_Source\PSoC6\pdl\drivers\peripheral\scb/cy_scb_uart.c **** * the \ref CY_SCB_UART_RECEIVE_DONE_EVENT event is generated.
 577:Generated_Source\PSoC6\pdl\drivers\peripheral\scb/cy_scb_uart.c **** *
 578:Generated_Source\PSoC6\pdl\drivers\peripheral\scb/cy_scb_uart.c **** * \param base
 579:Generated_Source\PSoC6\pdl\drivers\peripheral\scb/cy_scb_uart.c **** * The pointer to the UART SCB instance.
ARM GAS  C:\Users\pearlstl\AppData\Local\Temp\ccAUXqAU.s 			page 21


 580:Generated_Source\PSoC6\pdl\drivers\peripheral\scb/cy_scb_uart.c **** *
 581:Generated_Source\PSoC6\pdl\drivers\peripheral\scb/cy_scb_uart.c **** * \param buffer
 582:Generated_Source\PSoC6\pdl\drivers\peripheral\scb/cy_scb_uart.c **** * Pointer to buffer to store received data.
 583:Generated_Source\PSoC6\pdl\drivers\peripheral\scb/cy_scb_uart.c **** * The element size is defined by the data type, which depends on the configured
 584:Generated_Source\PSoC6\pdl\drivers\peripheral\scb/cy_scb_uart.c **** * data width.
 585:Generated_Source\PSoC6\pdl\drivers\peripheral\scb/cy_scb_uart.c **** *
 586:Generated_Source\PSoC6\pdl\drivers\peripheral\scb/cy_scb_uart.c **** * \param size
 587:Generated_Source\PSoC6\pdl\drivers\peripheral\scb/cy_scb_uart.c **** * The number of data elements to receive.
 588:Generated_Source\PSoC6\pdl\drivers\peripheral\scb/cy_scb_uart.c **** *
 589:Generated_Source\PSoC6\pdl\drivers\peripheral\scb/cy_scb_uart.c **** * \param context
 590:Generated_Source\PSoC6\pdl\drivers\peripheral\scb/cy_scb_uart.c **** * The pointer to the context structure \ref cy_stc_scb_uart_context_t allocated
 591:Generated_Source\PSoC6\pdl\drivers\peripheral\scb/cy_scb_uart.c **** * by the user. The structure is used during the UART operation for internal
 592:Generated_Source\PSoC6\pdl\drivers\peripheral\scb/cy_scb_uart.c **** * configuration and data retention. The user must not modify anything
 593:Generated_Source\PSoC6\pdl\drivers\peripheral\scb/cy_scb_uart.c **** * in this structure.
 594:Generated_Source\PSoC6\pdl\drivers\peripheral\scb/cy_scb_uart.c **** *
 595:Generated_Source\PSoC6\pdl\drivers\peripheral\scb/cy_scb_uart.c **** * \return
 596:Generated_Source\PSoC6\pdl\drivers\peripheral\scb/cy_scb_uart.c **** * \ref cy_en_scb_uart_status_t
 597:Generated_Source\PSoC6\pdl\drivers\peripheral\scb/cy_scb_uart.c **** *
 598:Generated_Source\PSoC6\pdl\drivers\peripheral\scb/cy_scb_uart.c **** * \note
 599:Generated_Source\PSoC6\pdl\drivers\peripheral\scb/cy_scb_uart.c **** * * The buffer must not be modified and stay allocated until end of the
 600:Generated_Source\PSoC6\pdl\drivers\peripheral\scb/cy_scb_uart.c **** *   receive operation.
 601:Generated_Source\PSoC6\pdl\drivers\peripheral\scb/cy_scb_uart.c **** * * This function overrides the RX interrupt sources and changes the
 602:Generated_Source\PSoC6\pdl\drivers\peripheral\scb/cy_scb_uart.c **** *   RX FIFO level.
 603:Generated_Source\PSoC6\pdl\drivers\peripheral\scb/cy_scb_uart.c **** *
 604:Generated_Source\PSoC6\pdl\drivers\peripheral\scb/cy_scb_uart.c **** *******************************************************************************/
 605:Generated_Source\PSoC6\pdl\drivers\peripheral\scb/cy_scb_uart.c **** cy_en_scb_uart_status_t Cy_SCB_UART_Receive(CySCB_Type *base, void *buffer, uint32_t size, cy_stc_s
 606:Generated_Source\PSoC6\pdl\drivers\peripheral\scb/cy_scb_uart.c **** {
 607:Generated_Source\PSoC6\pdl\drivers\peripheral\scb/cy_scb_uart.c ****     CY_ASSERT_L1(NULL != context);
 608:Generated_Source\PSoC6\pdl\drivers\peripheral\scb/cy_scb_uart.c ****     CY_ASSERT_L1(CY_SCB_UART_INIT_KEY == context->initKey);
 609:Generated_Source\PSoC6\pdl\drivers\peripheral\scb/cy_scb_uart.c ****     CY_ASSERT_L1(CY_SCB_IS_BUFFER_VALID(buffer, size));
 610:Generated_Source\PSoC6\pdl\drivers\peripheral\scb/cy_scb_uart.c **** 
 611:Generated_Source\PSoC6\pdl\drivers\peripheral\scb/cy_scb_uart.c ****     cy_en_scb_uart_status_t retStatus = CY_SCB_UART_RECEIVE_BUSY;
 612:Generated_Source\PSoC6\pdl\drivers\peripheral\scb/cy_scb_uart.c **** 
 613:Generated_Source\PSoC6\pdl\drivers\peripheral\scb/cy_scb_uart.c ****     /* check whether there are no active transfer requests */
 614:Generated_Source\PSoC6\pdl\drivers\peripheral\scb/cy_scb_uart.c ****     if (0UL == (context->rxStatus & CY_SCB_UART_RECEIVE_ACTIVE))
 615:Generated_Source\PSoC6\pdl\drivers\peripheral\scb/cy_scb_uart.c ****     {
 616:Generated_Source\PSoC6\pdl\drivers\peripheral\scb/cy_scb_uart.c ****         uint8_t  *tmpBuf = (uint8_t *) buffer;
 617:Generated_Source\PSoC6\pdl\drivers\peripheral\scb/cy_scb_uart.c ****         uint32_t numToCopy = 0UL;
 618:Generated_Source\PSoC6\pdl\drivers\peripheral\scb/cy_scb_uart.c **** 
 619:Generated_Source\PSoC6\pdl\drivers\peripheral\scb/cy_scb_uart.c ****         /* Disable the RX interrupt source to stop the ring buffer update */
 620:Generated_Source\PSoC6\pdl\drivers\peripheral\scb/cy_scb_uart.c ****         Cy_SCB_SetRxInterruptMask(base, CY_SCB_CLEAR_ALL_INTR_SRC);
 621:Generated_Source\PSoC6\pdl\drivers\peripheral\scb/cy_scb_uart.c **** 
 622:Generated_Source\PSoC6\pdl\drivers\peripheral\scb/cy_scb_uart.c ****         if (NULL != context->rxRingBuf)
 623:Generated_Source\PSoC6\pdl\drivers\peripheral\scb/cy_scb_uart.c ****         {
 624:Generated_Source\PSoC6\pdl\drivers\peripheral\scb/cy_scb_uart.c ****             /* Get the items available in the ring buffer */
 625:Generated_Source\PSoC6\pdl\drivers\peripheral\scb/cy_scb_uart.c ****             numToCopy = Cy_SCB_UART_GetNumInRingBuffer(base, context);
 626:Generated_Source\PSoC6\pdl\drivers\peripheral\scb/cy_scb_uart.c **** 
 627:Generated_Source\PSoC6\pdl\drivers\peripheral\scb/cy_scb_uart.c ****             if (numToCopy > 0UL)
 628:Generated_Source\PSoC6\pdl\drivers\peripheral\scb/cy_scb_uart.c ****             {
 629:Generated_Source\PSoC6\pdl\drivers\peripheral\scb/cy_scb_uart.c ****                 uint32_t idx;
 630:Generated_Source\PSoC6\pdl\drivers\peripheral\scb/cy_scb_uart.c ****                 uint32_t locTail = context->rxRingBufTail;
 631:Generated_Source\PSoC6\pdl\drivers\peripheral\scb/cy_scb_uart.c ****                 bool     byteMode = Cy_SCB_IsRxDataWidthByte(base);
 632:Generated_Source\PSoC6\pdl\drivers\peripheral\scb/cy_scb_uart.c **** 
 633:Generated_Source\PSoC6\pdl\drivers\peripheral\scb/cy_scb_uart.c ****                 /* Adjust the number of items to be read */
 634:Generated_Source\PSoC6\pdl\drivers\peripheral\scb/cy_scb_uart.c ****                 if (numToCopy > size)
 635:Generated_Source\PSoC6\pdl\drivers\peripheral\scb/cy_scb_uart.c ****                 {
 636:Generated_Source\PSoC6\pdl\drivers\peripheral\scb/cy_scb_uart.c ****                     numToCopy = size;
ARM GAS  C:\Users\pearlstl\AppData\Local\Temp\ccAUXqAU.s 			page 22


 637:Generated_Source\PSoC6\pdl\drivers\peripheral\scb/cy_scb_uart.c ****                 }
 638:Generated_Source\PSoC6\pdl\drivers\peripheral\scb/cy_scb_uart.c **** 
 639:Generated_Source\PSoC6\pdl\drivers\peripheral\scb/cy_scb_uart.c ****                 /* Copy the data elements from the ring buffer */
 640:Generated_Source\PSoC6\pdl\drivers\peripheral\scb/cy_scb_uart.c ****                 for (idx = 0UL; idx < numToCopy; ++idx)
 641:Generated_Source\PSoC6\pdl\drivers\peripheral\scb/cy_scb_uart.c ****                 {
 642:Generated_Source\PSoC6\pdl\drivers\peripheral\scb/cy_scb_uart.c ****                     ++locTail;
 643:Generated_Source\PSoC6\pdl\drivers\peripheral\scb/cy_scb_uart.c **** 
 644:Generated_Source\PSoC6\pdl\drivers\peripheral\scb/cy_scb_uart.c ****                     if (locTail == context->rxRingBufSize)
 645:Generated_Source\PSoC6\pdl\drivers\peripheral\scb/cy_scb_uart.c ****                     {
 646:Generated_Source\PSoC6\pdl\drivers\peripheral\scb/cy_scb_uart.c ****                         locTail = 0UL;
 647:Generated_Source\PSoC6\pdl\drivers\peripheral\scb/cy_scb_uart.c ****                     }
 648:Generated_Source\PSoC6\pdl\drivers\peripheral\scb/cy_scb_uart.c **** 
 649:Generated_Source\PSoC6\pdl\drivers\peripheral\scb/cy_scb_uart.c ****                     if (byteMode)
 650:Generated_Source\PSoC6\pdl\drivers\peripheral\scb/cy_scb_uart.c ****                     {
 651:Generated_Source\PSoC6\pdl\drivers\peripheral\scb/cy_scb_uart.c ****                         uint8_t *buf = (uint8_t *) buffer;
 652:Generated_Source\PSoC6\pdl\drivers\peripheral\scb/cy_scb_uart.c ****                         buf[idx] = ((uint8_t *) context->rxRingBuf)[locTail];
 653:Generated_Source\PSoC6\pdl\drivers\peripheral\scb/cy_scb_uart.c ****                     }
 654:Generated_Source\PSoC6\pdl\drivers\peripheral\scb/cy_scb_uart.c ****                     else
 655:Generated_Source\PSoC6\pdl\drivers\peripheral\scb/cy_scb_uart.c ****                     {
 656:Generated_Source\PSoC6\pdl\drivers\peripheral\scb/cy_scb_uart.c ****                         uint16_t *buf = (uint16_t *) buffer;
 657:Generated_Source\PSoC6\pdl\drivers\peripheral\scb/cy_scb_uart.c ****                         buf[idx] = ((uint16_t *) context->rxRingBuf)[locTail];
 658:Generated_Source\PSoC6\pdl\drivers\peripheral\scb/cy_scb_uart.c ****                     }
 659:Generated_Source\PSoC6\pdl\drivers\peripheral\scb/cy_scb_uart.c ****                 }
 660:Generated_Source\PSoC6\pdl\drivers\peripheral\scb/cy_scb_uart.c **** 
 661:Generated_Source\PSoC6\pdl\drivers\peripheral\scb/cy_scb_uart.c ****                 /* Update the ring buffer tail after data has been copied */
 662:Generated_Source\PSoC6\pdl\drivers\peripheral\scb/cy_scb_uart.c ****                 context->rxRingBufTail = locTail;
 663:Generated_Source\PSoC6\pdl\drivers\peripheral\scb/cy_scb_uart.c **** 
 664:Generated_Source\PSoC6\pdl\drivers\peripheral\scb/cy_scb_uart.c ****                 /* Update with the copied bytes */
 665:Generated_Source\PSoC6\pdl\drivers\peripheral\scb/cy_scb_uart.c ****                 size -= numToCopy;
 666:Generated_Source\PSoC6\pdl\drivers\peripheral\scb/cy_scb_uart.c ****                 context->rxBufIdx = numToCopy;
 667:Generated_Source\PSoC6\pdl\drivers\peripheral\scb/cy_scb_uart.c **** 
 668:Generated_Source\PSoC6\pdl\drivers\peripheral\scb/cy_scb_uart.c ****                 /* Check whether all requested data has been read from the ring buffer */
 669:Generated_Source\PSoC6\pdl\drivers\peripheral\scb/cy_scb_uart.c ****                 if (0UL == size)
 670:Generated_Source\PSoC6\pdl\drivers\peripheral\scb/cy_scb_uart.c ****                 {
 671:Generated_Source\PSoC6\pdl\drivers\peripheral\scb/cy_scb_uart.c ****                     /* Enable the RX-error interrupt sources to update the error status */
 672:Generated_Source\PSoC6\pdl\drivers\peripheral\scb/cy_scb_uart.c ****                     Cy_SCB_SetRxInterruptMask(base, CY_SCB_UART_RECEIVE_ERR);
 673:Generated_Source\PSoC6\pdl\drivers\peripheral\scb/cy_scb_uart.c **** 
 674:Generated_Source\PSoC6\pdl\drivers\peripheral\scb/cy_scb_uart.c ****                     /* Call a completion callback if there was no abort receive called
 675:Generated_Source\PSoC6\pdl\drivers\peripheral\scb/cy_scb_uart.c ****                     * in the interrupt. The abort clears the number of the received bytes.
 676:Generated_Source\PSoC6\pdl\drivers\peripheral\scb/cy_scb_uart.c ****                     */
 677:Generated_Source\PSoC6\pdl\drivers\peripheral\scb/cy_scb_uart.c ****                     if (context->rxBufIdx > 0UL)
 678:Generated_Source\PSoC6\pdl\drivers\peripheral\scb/cy_scb_uart.c ****                     {
 679:Generated_Source\PSoC6\pdl\drivers\peripheral\scb/cy_scb_uart.c ****                         if (NULL != context->cbEvents)
 680:Generated_Source\PSoC6\pdl\drivers\peripheral\scb/cy_scb_uart.c ****                         {
 681:Generated_Source\PSoC6\pdl\drivers\peripheral\scb/cy_scb_uart.c ****                             context->cbEvents(CY_SCB_UART_RECEIVE_DONE_EVENT);
 682:Generated_Source\PSoC6\pdl\drivers\peripheral\scb/cy_scb_uart.c ****                         }
 683:Generated_Source\PSoC6\pdl\drivers\peripheral\scb/cy_scb_uart.c ****                     }
 684:Generated_Source\PSoC6\pdl\drivers\peripheral\scb/cy_scb_uart.c **** 
 685:Generated_Source\PSoC6\pdl\drivers\peripheral\scb/cy_scb_uart.c ****                     /* Continue receiving data in the ring buffer */
 686:Generated_Source\PSoC6\pdl\drivers\peripheral\scb/cy_scb_uart.c ****                     Cy_SCB_SetRxInterruptMask(base, CY_SCB_RX_INTR_LEVEL);
 687:Generated_Source\PSoC6\pdl\drivers\peripheral\scb/cy_scb_uart.c ****                 }
 688:Generated_Source\PSoC6\pdl\drivers\peripheral\scb/cy_scb_uart.c ****                 else
 689:Generated_Source\PSoC6\pdl\drivers\peripheral\scb/cy_scb_uart.c ****                 {
 690:Generated_Source\PSoC6\pdl\drivers\peripheral\scb/cy_scb_uart.c ****                     tmpBuf = &tmpBuf[(byteMode) ? (numToCopy) : (2UL * numToCopy)];
 691:Generated_Source\PSoC6\pdl\drivers\peripheral\scb/cy_scb_uart.c ****                 }
 692:Generated_Source\PSoC6\pdl\drivers\peripheral\scb/cy_scb_uart.c ****             }
 693:Generated_Source\PSoC6\pdl\drivers\peripheral\scb/cy_scb_uart.c ****         }
ARM GAS  C:\Users\pearlstl\AppData\Local\Temp\ccAUXqAU.s 			page 23


 694:Generated_Source\PSoC6\pdl\drivers\peripheral\scb/cy_scb_uart.c **** 
 695:Generated_Source\PSoC6\pdl\drivers\peripheral\scb/cy_scb_uart.c ****         /* Set up a direct RX FIFO receive */
 696:Generated_Source\PSoC6\pdl\drivers\peripheral\scb/cy_scb_uart.c ****         if (size > 0UL)
 697:Generated_Source\PSoC6\pdl\drivers\peripheral\scb/cy_scb_uart.c ****         {
 698:Generated_Source\PSoC6\pdl\drivers\peripheral\scb/cy_scb_uart.c ****             uint32_t halfFifoSize = Cy_SCB_GetFifoSize(base) / 2UL;
 699:Generated_Source\PSoC6\pdl\drivers\peripheral\scb/cy_scb_uart.c **** 
 700:Generated_Source\PSoC6\pdl\drivers\peripheral\scb/cy_scb_uart.c ****             /* Set up context */
 701:Generated_Source\PSoC6\pdl\drivers\peripheral\scb/cy_scb_uart.c ****             context->rxStatus  = CY_SCB_UART_RECEIVE_ACTIVE;
 702:Generated_Source\PSoC6\pdl\drivers\peripheral\scb/cy_scb_uart.c **** 
 703:Generated_Source\PSoC6\pdl\drivers\peripheral\scb/cy_scb_uart.c ****             context->rxBuf     = (void *) tmpBuf;
 704:Generated_Source\PSoC6\pdl\drivers\peripheral\scb/cy_scb_uart.c ****             context->rxBufSize = size;
 705:Generated_Source\PSoC6\pdl\drivers\peripheral\scb/cy_scb_uart.c ****             context->rxBufIdx =  numToCopy;
 706:Generated_Source\PSoC6\pdl\drivers\peripheral\scb/cy_scb_uart.c **** 
 707:Generated_Source\PSoC6\pdl\drivers\peripheral\scb/cy_scb_uart.c ****             /* Set the RX FIFO level to the trigger interrupt */
 708:Generated_Source\PSoC6\pdl\drivers\peripheral\scb/cy_scb_uart.c ****             Cy_SCB_SetRxFifoLevel(base, (size > halfFifoSize) ? (halfFifoSize - 1UL) : (size - 1UL)
 709:Generated_Source\PSoC6\pdl\drivers\peripheral\scb/cy_scb_uart.c **** 
 710:Generated_Source\PSoC6\pdl\drivers\peripheral\scb/cy_scb_uart.c ****             /* Enable the RX interrupt sources to continue data reading */
 711:Generated_Source\PSoC6\pdl\drivers\peripheral\scb/cy_scb_uart.c ****             Cy_SCB_SetRxInterruptMask(base, CY_SCB_UART_RX_INTR);
 712:Generated_Source\PSoC6\pdl\drivers\peripheral\scb/cy_scb_uart.c ****         }
 713:Generated_Source\PSoC6\pdl\drivers\peripheral\scb/cy_scb_uart.c **** 
 714:Generated_Source\PSoC6\pdl\drivers\peripheral\scb/cy_scb_uart.c ****         retStatus = CY_SCB_UART_SUCCESS;
 715:Generated_Source\PSoC6\pdl\drivers\peripheral\scb/cy_scb_uart.c ****     }
 716:Generated_Source\PSoC6\pdl\drivers\peripheral\scb/cy_scb_uart.c **** 
 717:Generated_Source\PSoC6\pdl\drivers\peripheral\scb/cy_scb_uart.c ****     return (retStatus);
 718:Generated_Source\PSoC6\pdl\drivers\peripheral\scb/cy_scb_uart.c **** }
 719:Generated_Source\PSoC6\pdl\drivers\peripheral\scb/cy_scb_uart.c **** 
 720:Generated_Source\PSoC6\pdl\drivers\peripheral\scb/cy_scb_uart.c **** 
 721:Generated_Source\PSoC6\pdl\drivers\peripheral\scb/cy_scb_uart.c **** /*******************************************************************************
 722:Generated_Source\PSoC6\pdl\drivers\peripheral\scb/cy_scb_uart.c **** * Function Name: Cy_SCB_UART_AbortReceive
 723:Generated_Source\PSoC6\pdl\drivers\peripheral\scb/cy_scb_uart.c **** ****************************************************************************//**
 724:Generated_Source\PSoC6\pdl\drivers\peripheral\scb/cy_scb_uart.c **** *
 725:Generated_Source\PSoC6\pdl\drivers\peripheral\scb/cy_scb_uart.c **** * Abort the current receive operation by clearing the receive status.
 726:Generated_Source\PSoC6\pdl\drivers\peripheral\scb/cy_scb_uart.c **** * * If the ring buffer is disabled, the receive interrupt sources are disabled.
 727:Generated_Source\PSoC6\pdl\drivers\peripheral\scb/cy_scb_uart.c **** * * If the ring buffer is enabled, the receive interrupt source is configured
 728:Generated_Source\PSoC6\pdl\drivers\peripheral\scb/cy_scb_uart.c **** *   to get data from the receive FIFO and put it into the ring buffer.
 729:Generated_Source\PSoC6\pdl\drivers\peripheral\scb/cy_scb_uart.c **** *
 730:Generated_Source\PSoC6\pdl\drivers\peripheral\scb/cy_scb_uart.c **** * \param base
 731:Generated_Source\PSoC6\pdl\drivers\peripheral\scb/cy_scb_uart.c **** * The pointer to the UART SCB instance.
 732:Generated_Source\PSoC6\pdl\drivers\peripheral\scb/cy_scb_uart.c **** *
 733:Generated_Source\PSoC6\pdl\drivers\peripheral\scb/cy_scb_uart.c **** * \param context
 734:Generated_Source\PSoC6\pdl\drivers\peripheral\scb/cy_scb_uart.c **** * The pointer to the context structure \ref cy_stc_scb_uart_context_t allocated
 735:Generated_Source\PSoC6\pdl\drivers\peripheral\scb/cy_scb_uart.c **** * by the user. The structure is used during the UART operation for internal
 736:Generated_Source\PSoC6\pdl\drivers\peripheral\scb/cy_scb_uart.c **** * configuration and data retention. The user must not modify anything
 737:Generated_Source\PSoC6\pdl\drivers\peripheral\scb/cy_scb_uart.c **** * in this structure.
 738:Generated_Source\PSoC6\pdl\drivers\peripheral\scb/cy_scb_uart.c **** *
 739:Generated_Source\PSoC6\pdl\drivers\peripheral\scb/cy_scb_uart.c **** * \note
 740:Generated_Source\PSoC6\pdl\drivers\peripheral\scb/cy_scb_uart.c **** * * The RX FIFO and ring buffer are not cleared after abort of receive
 741:Generated_Source\PSoC6\pdl\drivers\peripheral\scb/cy_scb_uart.c **** *   operation.
 742:Generated_Source\PSoC6\pdl\drivers\peripheral\scb/cy_scb_uart.c **** * * If after the abort of the receive operation the transmitter continues
 743:Generated_Source\PSoC6\pdl\drivers\peripheral\scb/cy_scb_uart.c **** *   sending data, it gets into the RX FIFO. To drop this data, the RX FIFO
 744:Generated_Source\PSoC6\pdl\drivers\peripheral\scb/cy_scb_uart.c **** *   and ring buffer (if enabled) must be cleared when the transmitter
 745:Generated_Source\PSoC6\pdl\drivers\peripheral\scb/cy_scb_uart.c **** *   stops sending data. Otherwise, received data will be kept and copied
 746:Generated_Source\PSoC6\pdl\drivers\peripheral\scb/cy_scb_uart.c **** *   to the buffer when \ref Cy_SCB_UART_Receive is called.
 747:Generated_Source\PSoC6\pdl\drivers\peripheral\scb/cy_scb_uart.c **** *
 748:Generated_Source\PSoC6\pdl\drivers\peripheral\scb/cy_scb_uart.c **** *******************************************************************************/
 749:Generated_Source\PSoC6\pdl\drivers\peripheral\scb/cy_scb_uart.c **** void Cy_SCB_UART_AbortReceive(CySCB_Type *base, cy_stc_scb_uart_context_t *context)
 750:Generated_Source\PSoC6\pdl\drivers\peripheral\scb/cy_scb_uart.c **** {
ARM GAS  C:\Users\pearlstl\AppData\Local\Temp\ccAUXqAU.s 			page 24


 751:Generated_Source\PSoC6\pdl\drivers\peripheral\scb/cy_scb_uart.c ****     if (NULL == context->rxRingBuf)
 752:Generated_Source\PSoC6\pdl\drivers\peripheral\scb/cy_scb_uart.c ****     {
 753:Generated_Source\PSoC6\pdl\drivers\peripheral\scb/cy_scb_uart.c ****         Cy_SCB_SetRxInterruptMask(base, CY_SCB_CLEAR_ALL_INTR_SRC);
 754:Generated_Source\PSoC6\pdl\drivers\peripheral\scb/cy_scb_uart.c ****     }
 755:Generated_Source\PSoC6\pdl\drivers\peripheral\scb/cy_scb_uart.c **** 
 756:Generated_Source\PSoC6\pdl\drivers\peripheral\scb/cy_scb_uart.c ****     context->rxBufSize = 0UL;
 757:Generated_Source\PSoC6\pdl\drivers\peripheral\scb/cy_scb_uart.c ****     context->rxBufIdx  = 0UL;
 758:Generated_Source\PSoC6\pdl\drivers\peripheral\scb/cy_scb_uart.c **** 
 759:Generated_Source\PSoC6\pdl\drivers\peripheral\scb/cy_scb_uart.c ****     context->rxStatus  = 0UL;
 760:Generated_Source\PSoC6\pdl\drivers\peripheral\scb/cy_scb_uart.c **** }
 761:Generated_Source\PSoC6\pdl\drivers\peripheral\scb/cy_scb_uart.c **** 
 762:Generated_Source\PSoC6\pdl\drivers\peripheral\scb/cy_scb_uart.c **** 
 763:Generated_Source\PSoC6\pdl\drivers\peripheral\scb/cy_scb_uart.c **** /*******************************************************************************
 764:Generated_Source\PSoC6\pdl\drivers\peripheral\scb/cy_scb_uart.c **** * Function Name: Cy_SCB_UART_GetNumReceived
 765:Generated_Source\PSoC6\pdl\drivers\peripheral\scb/cy_scb_uart.c **** ****************************************************************************//**
 766:Generated_Source\PSoC6\pdl\drivers\peripheral\scb/cy_scb_uart.c **** *
 767:Generated_Source\PSoC6\pdl\drivers\peripheral\scb/cy_scb_uart.c **** * Returns the number of data elements received since the last call to \ref
 768:Generated_Source\PSoC6\pdl\drivers\peripheral\scb/cy_scb_uart.c **** * Cy_SCB_UART_Receive.
 769:Generated_Source\PSoC6\pdl\drivers\peripheral\scb/cy_scb_uart.c **** *
 770:Generated_Source\PSoC6\pdl\drivers\peripheral\scb/cy_scb_uart.c **** * \param base
 771:Generated_Source\PSoC6\pdl\drivers\peripheral\scb/cy_scb_uart.c **** * The pointer to the UART SCB instance.
 772:Generated_Source\PSoC6\pdl\drivers\peripheral\scb/cy_scb_uart.c **** *
 773:Generated_Source\PSoC6\pdl\drivers\peripheral\scb/cy_scb_uart.c **** * \param context
 774:Generated_Source\PSoC6\pdl\drivers\peripheral\scb/cy_scb_uart.c **** * The pointer to the context structure \ref cy_stc_scb_uart_context_t allocated
 775:Generated_Source\PSoC6\pdl\drivers\peripheral\scb/cy_scb_uart.c **** * by the user. The structure is used during the UART operation for internal
 776:Generated_Source\PSoC6\pdl\drivers\peripheral\scb/cy_scb_uart.c **** * configuration and data retention. The user must not modify anything
 777:Generated_Source\PSoC6\pdl\drivers\peripheral\scb/cy_scb_uart.c **** * in this structure.
 778:Generated_Source\PSoC6\pdl\drivers\peripheral\scb/cy_scb_uart.c **** *
 779:Generated_Source\PSoC6\pdl\drivers\peripheral\scb/cy_scb_uart.c **** * \return
 780:Generated_Source\PSoC6\pdl\drivers\peripheral\scb/cy_scb_uart.c **** * The number of data elements received.
 781:Generated_Source\PSoC6\pdl\drivers\peripheral\scb/cy_scb_uart.c **** *
 782:Generated_Source\PSoC6\pdl\drivers\peripheral\scb/cy_scb_uart.c **** *******************************************************************************/
 783:Generated_Source\PSoC6\pdl\drivers\peripheral\scb/cy_scb_uart.c **** uint32_t Cy_SCB_UART_GetNumReceived(CySCB_Type const *base, cy_stc_scb_uart_context_t const *contex
 784:Generated_Source\PSoC6\pdl\drivers\peripheral\scb/cy_scb_uart.c **** {
 785:Generated_Source\PSoC6\pdl\drivers\peripheral\scb/cy_scb_uart.c ****     /* Suppress a compiler warning about unused variables */
 786:Generated_Source\PSoC6\pdl\drivers\peripheral\scb/cy_scb_uart.c ****     (void) base;
 787:Generated_Source\PSoC6\pdl\drivers\peripheral\scb/cy_scb_uart.c **** 
 788:Generated_Source\PSoC6\pdl\drivers\peripheral\scb/cy_scb_uart.c ****     return (context->rxBufIdx);
 789:Generated_Source\PSoC6\pdl\drivers\peripheral\scb/cy_scb_uart.c **** }
 790:Generated_Source\PSoC6\pdl\drivers\peripheral\scb/cy_scb_uart.c **** 
 791:Generated_Source\PSoC6\pdl\drivers\peripheral\scb/cy_scb_uart.c **** 
 792:Generated_Source\PSoC6\pdl\drivers\peripheral\scb/cy_scb_uart.c **** /*******************************************************************************
 793:Generated_Source\PSoC6\pdl\drivers\peripheral\scb/cy_scb_uart.c **** * Function Name: Cy_SCB_UART_GetReceiveStatus
 794:Generated_Source\PSoC6\pdl\drivers\peripheral\scb/cy_scb_uart.c **** ****************************************************************************//**
 795:Generated_Source\PSoC6\pdl\drivers\peripheral\scb/cy_scb_uart.c **** *
 796:Generated_Source\PSoC6\pdl\drivers\peripheral\scb/cy_scb_uart.c **** * Returns the status of the receive operation.
 797:Generated_Source\PSoC6\pdl\drivers\peripheral\scb/cy_scb_uart.c **** * This status is a bit mask and the value returned may have multiple bits set.
 798:Generated_Source\PSoC6\pdl\drivers\peripheral\scb/cy_scb_uart.c **** *
 799:Generated_Source\PSoC6\pdl\drivers\peripheral\scb/cy_scb_uart.c **** * \param base
 800:Generated_Source\PSoC6\pdl\drivers\peripheral\scb/cy_scb_uart.c **** * The pointer to the UART SCB instance.
 801:Generated_Source\PSoC6\pdl\drivers\peripheral\scb/cy_scb_uart.c **** *
 802:Generated_Source\PSoC6\pdl\drivers\peripheral\scb/cy_scb_uart.c **** * \param context
 803:Generated_Source\PSoC6\pdl\drivers\peripheral\scb/cy_scb_uart.c **** * The pointer to the context structure \ref cy_stc_scb_uart_context_t allocated
 804:Generated_Source\PSoC6\pdl\drivers\peripheral\scb/cy_scb_uart.c **** * by the user. The structure is used during the UART operation for internal
 805:Generated_Source\PSoC6\pdl\drivers\peripheral\scb/cy_scb_uart.c **** * configuration and data retention. The user must not modify anything
 806:Generated_Source\PSoC6\pdl\drivers\peripheral\scb/cy_scb_uart.c **** * in this structure.
 807:Generated_Source\PSoC6\pdl\drivers\peripheral\scb/cy_scb_uart.c **** *
ARM GAS  C:\Users\pearlstl\AppData\Local\Temp\ccAUXqAU.s 			page 25


 808:Generated_Source\PSoC6\pdl\drivers\peripheral\scb/cy_scb_uart.c **** * \return
 809:Generated_Source\PSoC6\pdl\drivers\peripheral\scb/cy_scb_uart.c **** * \ref group_scb_uart_macros_receive_status.
 810:Generated_Source\PSoC6\pdl\drivers\peripheral\scb/cy_scb_uart.c **** *
 811:Generated_Source\PSoC6\pdl\drivers\peripheral\scb/cy_scb_uart.c **** * \note
 812:Generated_Source\PSoC6\pdl\drivers\peripheral\scb/cy_scb_uart.c **** * The status is only cleared by calling \ref Cy_SCB_UART_Receive again.
 813:Generated_Source\PSoC6\pdl\drivers\peripheral\scb/cy_scb_uart.c **** *
 814:Generated_Source\PSoC6\pdl\drivers\peripheral\scb/cy_scb_uart.c **** *******************************************************************************/
 815:Generated_Source\PSoC6\pdl\drivers\peripheral\scb/cy_scb_uart.c **** uint32_t Cy_SCB_UART_GetReceiveStatus(CySCB_Type const *base, cy_stc_scb_uart_context_t const *cont
 816:Generated_Source\PSoC6\pdl\drivers\peripheral\scb/cy_scb_uart.c **** {
 817:Generated_Source\PSoC6\pdl\drivers\peripheral\scb/cy_scb_uart.c ****     /* Suppress a compiler warning about unused variables */
 818:Generated_Source\PSoC6\pdl\drivers\peripheral\scb/cy_scb_uart.c ****     (void) base;
 819:Generated_Source\PSoC6\pdl\drivers\peripheral\scb/cy_scb_uart.c **** 
 820:Generated_Source\PSoC6\pdl\drivers\peripheral\scb/cy_scb_uart.c ****     return (context->rxStatus);
 821:Generated_Source\PSoC6\pdl\drivers\peripheral\scb/cy_scb_uart.c **** }
 822:Generated_Source\PSoC6\pdl\drivers\peripheral\scb/cy_scb_uart.c **** 
 823:Generated_Source\PSoC6\pdl\drivers\peripheral\scb/cy_scb_uart.c **** 
 824:Generated_Source\PSoC6\pdl\drivers\peripheral\scb/cy_scb_uart.c **** /*******************************************************************************
 825:Generated_Source\PSoC6\pdl\drivers\peripheral\scb/cy_scb_uart.c **** * Function Name: Cy_SCB_UART_Transmit
 826:Generated_Source\PSoC6\pdl\drivers\peripheral\scb/cy_scb_uart.c **** ****************************************************************************//**
 827:Generated_Source\PSoC6\pdl\drivers\peripheral\scb/cy_scb_uart.c **** *
 828:Generated_Source\PSoC6\pdl\drivers\peripheral\scb/cy_scb_uart.c **** * This function starts a UART transmit operation.
 829:Generated_Source\PSoC6\pdl\drivers\peripheral\scb/cy_scb_uart.c **** * It configures the transmit interrupt sources and returns.
 830:Generated_Source\PSoC6\pdl\drivers\peripheral\scb/cy_scb_uart.c **** * The \ref Cy_SCB_UART_Interrupt manages the further data transfer.
 831:Generated_Source\PSoC6\pdl\drivers\peripheral\scb/cy_scb_uart.c **** *
 832:Generated_Source\PSoC6\pdl\drivers\peripheral\scb/cy_scb_uart.c **** * When the transmit operation is completed (requested number of data elements
 833:Generated_Source\PSoC6\pdl\drivers\peripheral\scb/cy_scb_uart.c **** * sent on the bus), the \ref CY_SCB_UART_TRANSMIT_ACTIVE status is cleared and
 834:Generated_Source\PSoC6\pdl\drivers\peripheral\scb/cy_scb_uart.c **** * the \ref CY_SCB_UART_TRANSMIT_DONE_EVENT event is generated.
 835:Generated_Source\PSoC6\pdl\drivers\peripheral\scb/cy_scb_uart.c **** *
 836:Generated_Source\PSoC6\pdl\drivers\peripheral\scb/cy_scb_uart.c **** * \param base
 837:Generated_Source\PSoC6\pdl\drivers\peripheral\scb/cy_scb_uart.c **** * The pointer to the UART SCB instance.
 838:Generated_Source\PSoC6\pdl\drivers\peripheral\scb/cy_scb_uart.c **** *
 839:Generated_Source\PSoC6\pdl\drivers\peripheral\scb/cy_scb_uart.c **** * \param buffer
 840:Generated_Source\PSoC6\pdl\drivers\peripheral\scb/cy_scb_uart.c **** * Pointer to user data to place in transmit buffer.
 841:Generated_Source\PSoC6\pdl\drivers\peripheral\scb/cy_scb_uart.c **** * The element size is defined by the data type, which depends on the configured
 842:Generated_Source\PSoC6\pdl\drivers\peripheral\scb/cy_scb_uart.c **** * data width.
 843:Generated_Source\PSoC6\pdl\drivers\peripheral\scb/cy_scb_uart.c **** *
 844:Generated_Source\PSoC6\pdl\drivers\peripheral\scb/cy_scb_uart.c **** * \param size
 845:Generated_Source\PSoC6\pdl\drivers\peripheral\scb/cy_scb_uart.c **** * The number of data elements to transmit.
 846:Generated_Source\PSoC6\pdl\drivers\peripheral\scb/cy_scb_uart.c **** *
 847:Generated_Source\PSoC6\pdl\drivers\peripheral\scb/cy_scb_uart.c **** * \param context
 848:Generated_Source\PSoC6\pdl\drivers\peripheral\scb/cy_scb_uart.c **** * The pointer to the context structure \ref cy_stc_scb_uart_context_t allocated
 849:Generated_Source\PSoC6\pdl\drivers\peripheral\scb/cy_scb_uart.c **** * by the user. The structure is used during the UART operation for internal
 850:Generated_Source\PSoC6\pdl\drivers\peripheral\scb/cy_scb_uart.c **** * configuration and data retention. The user must not modify anything
 851:Generated_Source\PSoC6\pdl\drivers\peripheral\scb/cy_scb_uart.c **** * in this structure.
 852:Generated_Source\PSoC6\pdl\drivers\peripheral\scb/cy_scb_uart.c **** *
 853:Generated_Source\PSoC6\pdl\drivers\peripheral\scb/cy_scb_uart.c **** * \return
 854:Generated_Source\PSoC6\pdl\drivers\peripheral\scb/cy_scb_uart.c **** * \ref cy_en_scb_uart_status_t
 855:Generated_Source\PSoC6\pdl\drivers\peripheral\scb/cy_scb_uart.c **** *
 856:Generated_Source\PSoC6\pdl\drivers\peripheral\scb/cy_scb_uart.c **** * \note
 857:Generated_Source\PSoC6\pdl\drivers\peripheral\scb/cy_scb_uart.c **** * * The buffer must not be modified and must stay allocated until its content is
 858:Generated_Source\PSoC6\pdl\drivers\peripheral\scb/cy_scb_uart.c **** *   copied into the TX FIFO.
 859:Generated_Source\PSoC6\pdl\drivers\peripheral\scb/cy_scb_uart.c **** * * This function overrides the TX FIFO interrupt sources and changes the
 860:Generated_Source\PSoC6\pdl\drivers\peripheral\scb/cy_scb_uart.c **** *   TX FIFO level.
 861:Generated_Source\PSoC6\pdl\drivers\peripheral\scb/cy_scb_uart.c **** *
 862:Generated_Source\PSoC6\pdl\drivers\peripheral\scb/cy_scb_uart.c **** *******************************************************************************/
 863:Generated_Source\PSoC6\pdl\drivers\peripheral\scb/cy_scb_uart.c **** cy_en_scb_uart_status_t Cy_SCB_UART_Transmit(CySCB_Type *base, void *buffer, uint32_t size, cy_stc_
 864:Generated_Source\PSoC6\pdl\drivers\peripheral\scb/cy_scb_uart.c **** {
ARM GAS  C:\Users\pearlstl\AppData\Local\Temp\ccAUXqAU.s 			page 26


 865:Generated_Source\PSoC6\pdl\drivers\peripheral\scb/cy_scb_uart.c ****     CY_ASSERT_L1(NULL != context);
 866:Generated_Source\PSoC6\pdl\drivers\peripheral\scb/cy_scb_uart.c ****     CY_ASSERT_L1(CY_SCB_UART_INIT_KEY == context->initKey);
 867:Generated_Source\PSoC6\pdl\drivers\peripheral\scb/cy_scb_uart.c ****     CY_ASSERT_L1(CY_SCB_IS_BUFFER_VALID(buffer, size));
 868:Generated_Source\PSoC6\pdl\drivers\peripheral\scb/cy_scb_uart.c **** 
 869:Generated_Source\PSoC6\pdl\drivers\peripheral\scb/cy_scb_uart.c ****     cy_en_scb_uart_status_t retStatus = CY_SCB_UART_TRANSMIT_BUSY;
 870:Generated_Source\PSoC6\pdl\drivers\peripheral\scb/cy_scb_uart.c **** 
 871:Generated_Source\PSoC6\pdl\drivers\peripheral\scb/cy_scb_uart.c ****     /* Check whether there are no active transfer requests */
 872:Generated_Source\PSoC6\pdl\drivers\peripheral\scb/cy_scb_uart.c ****     if (0UL == (CY_SCB_UART_TRANSMIT_ACTIVE & context->txStatus))
 873:Generated_Source\PSoC6\pdl\drivers\peripheral\scb/cy_scb_uart.c ****     {
 874:Generated_Source\PSoC6\pdl\drivers\peripheral\scb/cy_scb_uart.c ****         /* Set up context */
 875:Generated_Source\PSoC6\pdl\drivers\peripheral\scb/cy_scb_uart.c ****         context->txStatus  = CY_SCB_UART_TRANSMIT_ACTIVE;
 876:Generated_Source\PSoC6\pdl\drivers\peripheral\scb/cy_scb_uart.c **** 
 877:Generated_Source\PSoC6\pdl\drivers\peripheral\scb/cy_scb_uart.c ****         context->txBuf     = buffer;
 878:Generated_Source\PSoC6\pdl\drivers\peripheral\scb/cy_scb_uart.c ****         context->txBufSize = size;
 879:Generated_Source\PSoC6\pdl\drivers\peripheral\scb/cy_scb_uart.c **** 
 880:Generated_Source\PSoC6\pdl\drivers\peripheral\scb/cy_scb_uart.c ****         /* Set the level in TX FIFO to start a transfer */
 881:Generated_Source\PSoC6\pdl\drivers\peripheral\scb/cy_scb_uart.c ****         Cy_SCB_SetTxFifoLevel(base, (Cy_SCB_GetFifoSize(base) / 2UL));
 882:Generated_Source\PSoC6\pdl\drivers\peripheral\scb/cy_scb_uart.c **** 
 883:Generated_Source\PSoC6\pdl\drivers\peripheral\scb/cy_scb_uart.c ****         /* Enable the interrupt sources */
 884:Generated_Source\PSoC6\pdl\drivers\peripheral\scb/cy_scb_uart.c ****         if (((uint32_t) CY_SCB_UART_SMARTCARD) == _FLD2VAL(SCB_UART_CTRL_MODE, SCB_UART_CTRL(base))
 885:Generated_Source\PSoC6\pdl\drivers\peripheral\scb/cy_scb_uart.c ****         {
 886:Generated_Source\PSoC6\pdl\drivers\peripheral\scb/cy_scb_uart.c ****             /* Transfer data into TX FIFO and track SmartCard-specific errors */
 887:Generated_Source\PSoC6\pdl\drivers\peripheral\scb/cy_scb_uart.c ****             Cy_SCB_SetTxInterruptMask(base, CY_SCB_UART_TX_INTR);
 888:Generated_Source\PSoC6\pdl\drivers\peripheral\scb/cy_scb_uart.c ****         }
 889:Generated_Source\PSoC6\pdl\drivers\peripheral\scb/cy_scb_uart.c ****         else
 890:Generated_Source\PSoC6\pdl\drivers\peripheral\scb/cy_scb_uart.c ****         {
 891:Generated_Source\PSoC6\pdl\drivers\peripheral\scb/cy_scb_uart.c ****             /* Transfer data into TX FIFO */
 892:Generated_Source\PSoC6\pdl\drivers\peripheral\scb/cy_scb_uart.c ****             Cy_SCB_SetTxInterruptMask(base, CY_SCB_TX_INTR_LEVEL);
 893:Generated_Source\PSoC6\pdl\drivers\peripheral\scb/cy_scb_uart.c ****         }
 894:Generated_Source\PSoC6\pdl\drivers\peripheral\scb/cy_scb_uart.c **** 
 895:Generated_Source\PSoC6\pdl\drivers\peripheral\scb/cy_scb_uart.c ****         retStatus = CY_SCB_UART_SUCCESS;
 896:Generated_Source\PSoC6\pdl\drivers\peripheral\scb/cy_scb_uart.c ****     }
 897:Generated_Source\PSoC6\pdl\drivers\peripheral\scb/cy_scb_uart.c **** 
 898:Generated_Source\PSoC6\pdl\drivers\peripheral\scb/cy_scb_uart.c ****     return (retStatus);
 899:Generated_Source\PSoC6\pdl\drivers\peripheral\scb/cy_scb_uart.c **** }
 900:Generated_Source\PSoC6\pdl\drivers\peripheral\scb/cy_scb_uart.c **** 
 901:Generated_Source\PSoC6\pdl\drivers\peripheral\scb/cy_scb_uart.c **** 
 902:Generated_Source\PSoC6\pdl\drivers\peripheral\scb/cy_scb_uart.c **** /*******************************************************************************
 903:Generated_Source\PSoC6\pdl\drivers\peripheral\scb/cy_scb_uart.c **** * Function Name: Cy_SCB_UART_AbortTransmit
 904:Generated_Source\PSoC6\pdl\drivers\peripheral\scb/cy_scb_uart.c **** ****************************************************************************//**
 905:Generated_Source\PSoC6\pdl\drivers\peripheral\scb/cy_scb_uart.c **** *
 906:Generated_Source\PSoC6\pdl\drivers\peripheral\scb/cy_scb_uart.c **** * Aborts the current transmit operation.
 907:Generated_Source\PSoC6\pdl\drivers\peripheral\scb/cy_scb_uart.c **** * It disables the transmit interrupt sources and clears the transmit FIFO
 908:Generated_Source\PSoC6\pdl\drivers\peripheral\scb/cy_scb_uart.c **** * and status.
 909:Generated_Source\PSoC6\pdl\drivers\peripheral\scb/cy_scb_uart.c **** *
 910:Generated_Source\PSoC6\pdl\drivers\peripheral\scb/cy_scb_uart.c **** * \param base
 911:Generated_Source\PSoC6\pdl\drivers\peripheral\scb/cy_scb_uart.c **** * The pointer to the UART SCB instance.
 912:Generated_Source\PSoC6\pdl\drivers\peripheral\scb/cy_scb_uart.c **** *
 913:Generated_Source\PSoC6\pdl\drivers\peripheral\scb/cy_scb_uart.c **** * \param context
 914:Generated_Source\PSoC6\pdl\drivers\peripheral\scb/cy_scb_uart.c **** * The pointer to the context structure \ref cy_stc_scb_uart_context_t allocated
 915:Generated_Source\PSoC6\pdl\drivers\peripheral\scb/cy_scb_uart.c **** * by the user. The structure is used during the UART operation for internal
 916:Generated_Source\PSoC6\pdl\drivers\peripheral\scb/cy_scb_uart.c **** * configuration and data retention. The user must not modify anything
 917:Generated_Source\PSoC6\pdl\drivers\peripheral\scb/cy_scb_uart.c **** * in this structure.
 918:Generated_Source\PSoC6\pdl\drivers\peripheral\scb/cy_scb_uart.c **** *
 919:Generated_Source\PSoC6\pdl\drivers\peripheral\scb/cy_scb_uart.c **** * \sideeffect
 920:Generated_Source\PSoC6\pdl\drivers\peripheral\scb/cy_scb_uart.c **** * The transmit FIFO clear operation also clears the shift register, so that
 921:Generated_Source\PSoC6\pdl\drivers\peripheral\scb/cy_scb_uart.c **** * the shifter can be cleared in the middle of a data element transfer,
ARM GAS  C:\Users\pearlstl\AppData\Local\Temp\ccAUXqAU.s 			page 27


 922:Generated_Source\PSoC6\pdl\drivers\peripheral\scb/cy_scb_uart.c **** * corrupting it. The data element corruption means that all bits that have
 923:Generated_Source\PSoC6\pdl\drivers\peripheral\scb/cy_scb_uart.c **** * not been transmitted are transmitted as "ones" on the bus.
 924:Generated_Source\PSoC6\pdl\drivers\peripheral\scb/cy_scb_uart.c **** *
 925:Generated_Source\PSoC6\pdl\drivers\peripheral\scb/cy_scb_uart.c **** *******************************************************************************/
 926:Generated_Source\PSoC6\pdl\drivers\peripheral\scb/cy_scb_uart.c **** void Cy_SCB_UART_AbortTransmit(CySCB_Type *base, cy_stc_scb_uart_context_t *context)
 927:Generated_Source\PSoC6\pdl\drivers\peripheral\scb/cy_scb_uart.c **** {
 928:Generated_Source\PSoC6\pdl\drivers\peripheral\scb/cy_scb_uart.c ****     Cy_SCB_SetTxInterruptMask(base, CY_SCB_CLEAR_ALL_INTR_SRC);
 929:Generated_Source\PSoC6\pdl\drivers\peripheral\scb/cy_scb_uart.c **** 
 930:Generated_Source\PSoC6\pdl\drivers\peripheral\scb/cy_scb_uart.c ****     Cy_SCB_UART_ClearTxFifo(base);
 931:Generated_Source\PSoC6\pdl\drivers\peripheral\scb/cy_scb_uart.c **** 
 932:Generated_Source\PSoC6\pdl\drivers\peripheral\scb/cy_scb_uart.c ****     context->txBufSize = 0UL;
 933:Generated_Source\PSoC6\pdl\drivers\peripheral\scb/cy_scb_uart.c ****     context->txLeftToTransmit = 0UL;
 934:Generated_Source\PSoC6\pdl\drivers\peripheral\scb/cy_scb_uart.c **** 
 935:Generated_Source\PSoC6\pdl\drivers\peripheral\scb/cy_scb_uart.c ****     context->txStatus  = 0UL;
 936:Generated_Source\PSoC6\pdl\drivers\peripheral\scb/cy_scb_uart.c **** }
 937:Generated_Source\PSoC6\pdl\drivers\peripheral\scb/cy_scb_uart.c **** 
 938:Generated_Source\PSoC6\pdl\drivers\peripheral\scb/cy_scb_uart.c **** 
 939:Generated_Source\PSoC6\pdl\drivers\peripheral\scb/cy_scb_uart.c **** /*******************************************************************************
 940:Generated_Source\PSoC6\pdl\drivers\peripheral\scb/cy_scb_uart.c **** * Function Name: Cy_SCB_UART_GetNumLeftToTransmit
 941:Generated_Source\PSoC6\pdl\drivers\peripheral\scb/cy_scb_uart.c **** ****************************************************************************//**
 942:Generated_Source\PSoC6\pdl\drivers\peripheral\scb/cy_scb_uart.c **** *
 943:Generated_Source\PSoC6\pdl\drivers\peripheral\scb/cy_scb_uart.c **** * Returns the number of data elements left to transmit since the last call to
 944:Generated_Source\PSoC6\pdl\drivers\peripheral\scb/cy_scb_uart.c **** * \ref Cy_SCB_UART_Transmit.
 945:Generated_Source\PSoC6\pdl\drivers\peripheral\scb/cy_scb_uart.c **** *
 946:Generated_Source\PSoC6\pdl\drivers\peripheral\scb/cy_scb_uart.c **** * \param base
 947:Generated_Source\PSoC6\pdl\drivers\peripheral\scb/cy_scb_uart.c **** * The pointer to the UART SCB instance.
 948:Generated_Source\PSoC6\pdl\drivers\peripheral\scb/cy_scb_uart.c **** *
 949:Generated_Source\PSoC6\pdl\drivers\peripheral\scb/cy_scb_uart.c **** * \param context
 950:Generated_Source\PSoC6\pdl\drivers\peripheral\scb/cy_scb_uart.c **** * The pointer to the context structure \ref cy_stc_scb_uart_context_t allocated
 951:Generated_Source\PSoC6\pdl\drivers\peripheral\scb/cy_scb_uart.c **** * by the user. The structure is used during the UART operation for internal
 952:Generated_Source\PSoC6\pdl\drivers\peripheral\scb/cy_scb_uart.c **** * configuration and data retention. The user must not modify anything
 953:Generated_Source\PSoC6\pdl\drivers\peripheral\scb/cy_scb_uart.c **** * in this structure.
 954:Generated_Source\PSoC6\pdl\drivers\peripheral\scb/cy_scb_uart.c **** *
 955:Generated_Source\PSoC6\pdl\drivers\peripheral\scb/cy_scb_uart.c **** * \return
 956:Generated_Source\PSoC6\pdl\drivers\peripheral\scb/cy_scb_uart.c **** * The number of data elements left to transmit.
 957:Generated_Source\PSoC6\pdl\drivers\peripheral\scb/cy_scb_uart.c **** *
 958:Generated_Source\PSoC6\pdl\drivers\peripheral\scb/cy_scb_uart.c **** *******************************************************************************/
 959:Generated_Source\PSoC6\pdl\drivers\peripheral\scb/cy_scb_uart.c **** uint32_t Cy_SCB_UART_GetNumLeftToTransmit(CySCB_Type const *base, cy_stc_scb_uart_context_t const *
 960:Generated_Source\PSoC6\pdl\drivers\peripheral\scb/cy_scb_uart.c **** {
 961:Generated_Source\PSoC6\pdl\drivers\peripheral\scb/cy_scb_uart.c ****     /* Suppress a compiler warning about unused variables */
 962:Generated_Source\PSoC6\pdl\drivers\peripheral\scb/cy_scb_uart.c ****     (void) base;
 963:Generated_Source\PSoC6\pdl\drivers\peripheral\scb/cy_scb_uart.c **** 
 964:Generated_Source\PSoC6\pdl\drivers\peripheral\scb/cy_scb_uart.c ****     return (context->txLeftToTransmit);
 965:Generated_Source\PSoC6\pdl\drivers\peripheral\scb/cy_scb_uart.c **** }
 966:Generated_Source\PSoC6\pdl\drivers\peripheral\scb/cy_scb_uart.c **** 
 967:Generated_Source\PSoC6\pdl\drivers\peripheral\scb/cy_scb_uart.c **** 
 968:Generated_Source\PSoC6\pdl\drivers\peripheral\scb/cy_scb_uart.c **** /*******************************************************************************
 969:Generated_Source\PSoC6\pdl\drivers\peripheral\scb/cy_scb_uart.c **** * Function Name: Cy_SCB_UART_GetTransmitStatus
 970:Generated_Source\PSoC6\pdl\drivers\peripheral\scb/cy_scb_uart.c **** ****************************************************************************//**
 971:Generated_Source\PSoC6\pdl\drivers\peripheral\scb/cy_scb_uart.c **** *
 972:Generated_Source\PSoC6\pdl\drivers\peripheral\scb/cy_scb_uart.c **** * Returns the status of the transmit operation.
 973:Generated_Source\PSoC6\pdl\drivers\peripheral\scb/cy_scb_uart.c **** * This status is a bit mask and the value returned may have multiple bits set.
 974:Generated_Source\PSoC6\pdl\drivers\peripheral\scb/cy_scb_uart.c **** *
 975:Generated_Source\PSoC6\pdl\drivers\peripheral\scb/cy_scb_uart.c **** * \param base
 976:Generated_Source\PSoC6\pdl\drivers\peripheral\scb/cy_scb_uart.c **** * The pointer to the UART SCB instance.
 977:Generated_Source\PSoC6\pdl\drivers\peripheral\scb/cy_scb_uart.c **** *
 978:Generated_Source\PSoC6\pdl\drivers\peripheral\scb/cy_scb_uart.c **** * \param context
ARM GAS  C:\Users\pearlstl\AppData\Local\Temp\ccAUXqAU.s 			page 28


 979:Generated_Source\PSoC6\pdl\drivers\peripheral\scb/cy_scb_uart.c **** * The pointer to the context structure \ref cy_stc_scb_uart_context_t allocated
 980:Generated_Source\PSoC6\pdl\drivers\peripheral\scb/cy_scb_uart.c **** * by the user. The structure is used during the UART operation for internal
 981:Generated_Source\PSoC6\pdl\drivers\peripheral\scb/cy_scb_uart.c **** * configuration and data retention. The user must not modify anything
 982:Generated_Source\PSoC6\pdl\drivers\peripheral\scb/cy_scb_uart.c **** * in this structure.
 983:Generated_Source\PSoC6\pdl\drivers\peripheral\scb/cy_scb_uart.c **** *
 984:Generated_Source\PSoC6\pdl\drivers\peripheral\scb/cy_scb_uart.c **** * \return
 985:Generated_Source\PSoC6\pdl\drivers\peripheral\scb/cy_scb_uart.c **** * \ref group_scb_uart_macros_transmit_status.
 986:Generated_Source\PSoC6\pdl\drivers\peripheral\scb/cy_scb_uart.c **** *
 987:Generated_Source\PSoC6\pdl\drivers\peripheral\scb/cy_scb_uart.c **** * \note
 988:Generated_Source\PSoC6\pdl\drivers\peripheral\scb/cy_scb_uart.c **** * The status is only cleared by calling \ref Cy_SCB_UART_Transmit or
 989:Generated_Source\PSoC6\pdl\drivers\peripheral\scb/cy_scb_uart.c **** * \ref Cy_SCB_UART_AbortTransmit.
 990:Generated_Source\PSoC6\pdl\drivers\peripheral\scb/cy_scb_uart.c **** *
 991:Generated_Source\PSoC6\pdl\drivers\peripheral\scb/cy_scb_uart.c **** *******************************************************************************/
 992:Generated_Source\PSoC6\pdl\drivers\peripheral\scb/cy_scb_uart.c **** uint32_t Cy_SCB_UART_GetTransmitStatus(CySCB_Type const *base, cy_stc_scb_uart_context_t const *con
 993:Generated_Source\PSoC6\pdl\drivers\peripheral\scb/cy_scb_uart.c **** {
 994:Generated_Source\PSoC6\pdl\drivers\peripheral\scb/cy_scb_uart.c ****     /* Suppress a compiler warning about unused variables */
 995:Generated_Source\PSoC6\pdl\drivers\peripheral\scb/cy_scb_uart.c ****     (void) base;
 996:Generated_Source\PSoC6\pdl\drivers\peripheral\scb/cy_scb_uart.c **** 
 997:Generated_Source\PSoC6\pdl\drivers\peripheral\scb/cy_scb_uart.c ****     return (context->txStatus);
 521              		.loc 1 997 0
 522 0014 0868     		ldr	r0, [r1]
 523              	.LVL14:
 524              	.LBE152:
 525              	.LBE151:
 304:Generated_Source\PSoC6\pdl\drivers\peripheral\scb/cy_scb_uart.c ****                 (0UL == (CY_SCB_UART_RECEIVE_ACTIVE  & Cy_SCB_UART_GetReceiveStatus (locBase, locCo
 526              		.loc 1 304 0
 527 0016 1042     		tst	r0, r2
 528 0018 1ED1     		bne	.L61
 529              	.LVL15:
 530              	.LBB153:
 531              	.LBB154:
 820:Generated_Source\PSoC6\pdl\drivers\peripheral\scb/cy_scb_uart.c **** }
 532              		.loc 1 820 0
 533 001a 4868     		ldr	r0, [r1, #4]
 534              	.LVL16:
 535              	.LBE154:
 536              	.LBE153:
 304:Generated_Source\PSoC6\pdl\drivers\peripheral\scb/cy_scb_uart.c ****                 (0UL == (CY_SCB_UART_RECEIVE_ACTIVE  & Cy_SCB_UART_GetReceiveStatus (locBase, locCo
 537              		.loc 1 304 0
 538 001c 1042     		tst	r0, r2
 539 001e 1BD1     		bne	.L61
 540              	.LVL17:
 541              	.LBB155:
 542              	.LBB156:
 543              	.LBB157:
 544              	.LBB158:
 545              	.LBB159:
 546              		.file 2 "Generated_Source\\PSoC6\\pdl\\drivers\\peripheral\\scb\\cy_scb_common.h"
   1:Generated_Source\PSoC6\pdl\drivers\peripheral\scb/cy_scb_common.h **** /***************************************************************************//**
   2:Generated_Source\PSoC6\pdl\drivers\peripheral\scb/cy_scb_common.h **** * \file cy_scb_common.h
   3:Generated_Source\PSoC6\pdl\drivers\peripheral\scb/cy_scb_common.h **** * \version 2.20
   4:Generated_Source\PSoC6\pdl\drivers\peripheral\scb/cy_scb_common.h **** *
   5:Generated_Source\PSoC6\pdl\drivers\peripheral\scb/cy_scb_common.h **** * Provides common API declarations of the SCB driver.
   6:Generated_Source\PSoC6\pdl\drivers\peripheral\scb/cy_scb_common.h **** *
   7:Generated_Source\PSoC6\pdl\drivers\peripheral\scb/cy_scb_common.h **** ********************************************************************************
   8:Generated_Source\PSoC6\pdl\drivers\peripheral\scb/cy_scb_common.h **** * \copyright
   9:Generated_Source\PSoC6\pdl\drivers\peripheral\scb/cy_scb_common.h **** * Copyright 2016-2018, Cypress Semiconductor Corporation.  All rights reserved.
ARM GAS  C:\Users\pearlstl\AppData\Local\Temp\ccAUXqAU.s 			page 29


  10:Generated_Source\PSoC6\pdl\drivers\peripheral\scb/cy_scb_common.h **** * You may use this file only in accordance with the license, terms, conditions,
  11:Generated_Source\PSoC6\pdl\drivers\peripheral\scb/cy_scb_common.h **** * disclaimers, and limitations in the end user license agreement accompanying
  12:Generated_Source\PSoC6\pdl\drivers\peripheral\scb/cy_scb_common.h **** * the software package with which this file was provided.
  13:Generated_Source\PSoC6\pdl\drivers\peripheral\scb/cy_scb_common.h **** *******************************************************************************/
  14:Generated_Source\PSoC6\pdl\drivers\peripheral\scb/cy_scb_common.h **** 
  15:Generated_Source\PSoC6\pdl\drivers\peripheral\scb/cy_scb_common.h **** /**
  16:Generated_Source\PSoC6\pdl\drivers\peripheral\scb/cy_scb_common.h **** * \addtogroup group_scb
  17:Generated_Source\PSoC6\pdl\drivers\peripheral\scb/cy_scb_common.h **** * \{
  18:Generated_Source\PSoC6\pdl\drivers\peripheral\scb/cy_scb_common.h **** * The Serial Communications Block (SCB) supports three serial communication 
  19:Generated_Source\PSoC6\pdl\drivers\peripheral\scb/cy_scb_common.h **** * protocols: Serial Peripheral Interface (SPI), Universal Asynchronous Receiver 
  20:Generated_Source\PSoC6\pdl\drivers\peripheral\scb/cy_scb_common.h **** * Transmitter (UART), and Inter Integrated Circuit (I2C or IIC). Only one of 
  21:Generated_Source\PSoC6\pdl\drivers\peripheral\scb/cy_scb_common.h **** * the protocols is supported by an SCB at any given time.
  22:Generated_Source\PSoC6\pdl\drivers\peripheral\scb/cy_scb_common.h **** *
  23:Generated_Source\PSoC6\pdl\drivers\peripheral\scb/cy_scb_common.h **** * The functions and other declarations used in this driver are in cy_scb_spi.h, 
  24:Generated_Source\PSoC6\pdl\drivers\peripheral\scb/cy_scb_common.h **** * cy_scb_uart.h, cy_scb_ezi2c.h, cy_scb_i2c.h respectively. Include cy_pdl.h 
  25:Generated_Source\PSoC6\pdl\drivers\peripheral\scb/cy_scb_common.h **** * (ModusToolbox only) to get access to all functions and declarations in the PDL.
  26:Generated_Source\PSoC6\pdl\drivers\peripheral\scb/cy_scb_common.h **** 
  27:Generated_Source\PSoC6\pdl\drivers\peripheral\scb/cy_scb_common.h **** * \defgroup group_scb_common Common
  28:Generated_Source\PSoC6\pdl\drivers\peripheral\scb/cy_scb_common.h **** * \defgroup group_scb_ezi2c  EZI2C (SCB)
  29:Generated_Source\PSoC6\pdl\drivers\peripheral\scb/cy_scb_common.h **** * \defgroup group_scb_i2c    I2C (SCB)
  30:Generated_Source\PSoC6\pdl\drivers\peripheral\scb/cy_scb_common.h **** * \defgroup group_scb_spi    SPI (SCB)
  31:Generated_Source\PSoC6\pdl\drivers\peripheral\scb/cy_scb_common.h **** * \defgroup group_scb_uart   UART (SCB)
  32:Generated_Source\PSoC6\pdl\drivers\peripheral\scb/cy_scb_common.h **** * \} */
  33:Generated_Source\PSoC6\pdl\drivers\peripheral\scb/cy_scb_common.h **** 
  34:Generated_Source\PSoC6\pdl\drivers\peripheral\scb/cy_scb_common.h **** /**
  35:Generated_Source\PSoC6\pdl\drivers\peripheral\scb/cy_scb_common.h **** * \addtogroup group_scb_common
  36:Generated_Source\PSoC6\pdl\drivers\peripheral\scb/cy_scb_common.h **** * \{
  37:Generated_Source\PSoC6\pdl\drivers\peripheral\scb/cy_scb_common.h **** *
  38:Generated_Source\PSoC6\pdl\drivers\peripheral\scb/cy_scb_common.h **** * Common API for the Serial Communication Block.
  39:Generated_Source\PSoC6\pdl\drivers\peripheral\scb/cy_scb_common.h **** *
  40:Generated_Source\PSoC6\pdl\drivers\peripheral\scb/cy_scb_common.h **** * This is the common API that provides an interface to the SCB hardware.
  41:Generated_Source\PSoC6\pdl\drivers\peripheral\scb/cy_scb_common.h **** * The I2C, SPI, and UART drivers use this common API.
  42:Generated_Source\PSoC6\pdl\drivers\peripheral\scb/cy_scb_common.h **** * Most users will use individual drivers and do not need to use the common
  43:Generated_Source\PSoC6\pdl\drivers\peripheral\scb/cy_scb_common.h **** * API for the SCB. However, you can use the common SCB API to implement
  44:Generated_Source\PSoC6\pdl\drivers\peripheral\scb/cy_scb_common.h **** * a custom driver based on the SCB hardware.
  45:Generated_Source\PSoC6\pdl\drivers\peripheral\scb/cy_scb_common.h **** *
  46:Generated_Source\PSoC6\pdl\drivers\peripheral\scb/cy_scb_common.h **** * The functions and other declarations used in this part of the driver are in 
  47:Generated_Source\PSoC6\pdl\drivers\peripheral\scb/cy_scb_common.h **** * cy_scb_common.h. You can include either of cy_scb_spi.h, cy_scb_uart.h, 
  48:Generated_Source\PSoC6\pdl\drivers\peripheral\scb/cy_scb_common.h **** * cy_scb_ezi2c.h, cy_scb_i2c.h depending on the desired functionality. 
  49:Generated_Source\PSoC6\pdl\drivers\peripheral\scb/cy_scb_common.h **** * You can also include cy_pdl.h to get access to all functions and declarations 
  50:Generated_Source\PSoC6\pdl\drivers\peripheral\scb/cy_scb_common.h **** * in the PDL.
  51:Generated_Source\PSoC6\pdl\drivers\peripheral\scb/cy_scb_common.h **** *
  52:Generated_Source\PSoC6\pdl\drivers\peripheral\scb/cy_scb_common.h **** *******************************************************************************
  53:Generated_Source\PSoC6\pdl\drivers\peripheral\scb/cy_scb_common.h **** * \section group_scb_common_configuration Configuration Considerations
  54:Generated_Source\PSoC6\pdl\drivers\peripheral\scb/cy_scb_common.h **** ********************************************************************************
  55:Generated_Source\PSoC6\pdl\drivers\peripheral\scb/cy_scb_common.h **** * This is not a driver and it does not require configuration.
  56:Generated_Source\PSoC6\pdl\drivers\peripheral\scb/cy_scb_common.h **** *
  57:Generated_Source\PSoC6\pdl\drivers\peripheral\scb/cy_scb_common.h **** *******************************************************************************
  58:Generated_Source\PSoC6\pdl\drivers\peripheral\scb/cy_scb_common.h **** * \section group_scb_common_more_information More Information
  59:Generated_Source\PSoC6\pdl\drivers\peripheral\scb/cy_scb_common.h **** *******************************************************************************
  60:Generated_Source\PSoC6\pdl\drivers\peripheral\scb/cy_scb_common.h **** * Refer to the SCB chapter of the technical reference manual (TRM).
  61:Generated_Source\PSoC6\pdl\drivers\peripheral\scb/cy_scb_common.h **** *
  62:Generated_Source\PSoC6\pdl\drivers\peripheral\scb/cy_scb_common.h **** *******************************************************************************
  63:Generated_Source\PSoC6\pdl\drivers\peripheral\scb/cy_scb_common.h **** * \section group_scb_common_MISRA MISRA-C Compliance
  64:Generated_Source\PSoC6\pdl\drivers\peripheral\scb/cy_scb_common.h **** *******************************************************************************
  65:Generated_Source\PSoC6\pdl\drivers\peripheral\scb/cy_scb_common.h **** * <table class="doxtable">
  66:Generated_Source\PSoC6\pdl\drivers\peripheral\scb/cy_scb_common.h **** *   <tr>
ARM GAS  C:\Users\pearlstl\AppData\Local\Temp\ccAUXqAU.s 			page 30


  67:Generated_Source\PSoC6\pdl\drivers\peripheral\scb/cy_scb_common.h **** *     <th>MISRA rule</th>
  68:Generated_Source\PSoC6\pdl\drivers\peripheral\scb/cy_scb_common.h **** *     <th>Rule Class (Required/Advisory)</th>
  69:Generated_Source\PSoC6\pdl\drivers\peripheral\scb/cy_scb_common.h **** *     <th>Rule Description</th>
  70:Generated_Source\PSoC6\pdl\drivers\peripheral\scb/cy_scb_common.h **** *     <th>Description of Deviation(s)</th>
  71:Generated_Source\PSoC6\pdl\drivers\peripheral\scb/cy_scb_common.h **** *   </tr>
  72:Generated_Source\PSoC6\pdl\drivers\peripheral\scb/cy_scb_common.h **** *   <tr>
  73:Generated_Source\PSoC6\pdl\drivers\peripheral\scb/cy_scb_common.h **** *     <td>11.4</td>
  74:Generated_Source\PSoC6\pdl\drivers\peripheral\scb/cy_scb_common.h **** *     <td>A</td>
  75:Generated_Source\PSoC6\pdl\drivers\peripheral\scb/cy_scb_common.h **** *     <td>A cast should not be performed between a pointer to object type and
  76:Generated_Source\PSoC6\pdl\drivers\peripheral\scb/cy_scb_common.h **** *         a different pointer to object type.</td>
  77:Generated_Source\PSoC6\pdl\drivers\peripheral\scb/cy_scb_common.h **** *     <td>The pointer to the buffer memory is void to allow handling of
  78:Generated_Source\PSoC6\pdl\drivers\peripheral\scb/cy_scb_common.h **** *         different data types: uint8_t (4-8 bits) or uint16_t (9-16 bits).
  79:Generated_Source\PSoC6\pdl\drivers\peripheral\scb/cy_scb_common.h **** *         The cast operation is safe because the configuration is verified
  80:Generated_Source\PSoC6\pdl\drivers\peripheral\scb/cy_scb_common.h **** *         before operation is performed.
  81:Generated_Source\PSoC6\pdl\drivers\peripheral\scb/cy_scb_common.h **** *         </td>
  82:Generated_Source\PSoC6\pdl\drivers\peripheral\scb/cy_scb_common.h **** *   </tr>
  83:Generated_Source\PSoC6\pdl\drivers\peripheral\scb/cy_scb_common.h **** * </table>
  84:Generated_Source\PSoC6\pdl\drivers\peripheral\scb/cy_scb_common.h **** *
  85:Generated_Source\PSoC6\pdl\drivers\peripheral\scb/cy_scb_common.h **** *******************************************************************************
  86:Generated_Source\PSoC6\pdl\drivers\peripheral\scb/cy_scb_common.h **** * \section group_scb_common_changelog Changelog
  87:Generated_Source\PSoC6\pdl\drivers\peripheral\scb/cy_scb_common.h **** *******************************************************************************
  88:Generated_Source\PSoC6\pdl\drivers\peripheral\scb/cy_scb_common.h **** * <table class="doxtable">
  89:Generated_Source\PSoC6\pdl\drivers\peripheral\scb/cy_scb_common.h **** *   <tr><th>Version</th><th>Changes</th><th>Reason for Change</th></tr>
  90:Generated_Source\PSoC6\pdl\drivers\peripheral\scb/cy_scb_common.h **** *   <tr>
  91:Generated_Source\PSoC6\pdl\drivers\peripheral\scb/cy_scb_common.h **** *     <td rowspan="2">2.20</td>
  92:Generated_Source\PSoC6\pdl\drivers\peripheral\scb/cy_scb_common.h **** *     <td>Flattened the organization of the driver source code into the single 
  93:Generated_Source\PSoC6\pdl\drivers\peripheral\scb/cy_scb_common.h **** *         source directory and the single include directory.
  94:Generated_Source\PSoC6\pdl\drivers\peripheral\scb/cy_scb_common.h **** *     </td>
  95:Generated_Source\PSoC6\pdl\drivers\peripheral\scb/cy_scb_common.h **** *     <td>Driver library directory-structure simplification.</td>
  96:Generated_Source\PSoC6\pdl\drivers\peripheral\scb/cy_scb_common.h **** *   </tr>
  97:Generated_Source\PSoC6\pdl\drivers\peripheral\scb/cy_scb_common.h **** *   <tr>
  98:Generated_Source\PSoC6\pdl\drivers\peripheral\scb/cy_scb_common.h **** *     <td>Added register access layer. Use register access macros instead
  99:Generated_Source\PSoC6\pdl\drivers\peripheral\scb/cy_scb_common.h **** *         of direct register access using dereferenced pointers.</td>
 100:Generated_Source\PSoC6\pdl\drivers\peripheral\scb/cy_scb_common.h **** *     <td>Makes register access device-independent, so that the PDL does 
 101:Generated_Source\PSoC6\pdl\drivers\peripheral\scb/cy_scb_common.h **** *         not need to be recompiled for each supported part number.</td>
 102:Generated_Source\PSoC6\pdl\drivers\peripheral\scb/cy_scb_common.h **** *   </tr>
 103:Generated_Source\PSoC6\pdl\drivers\peripheral\scb/cy_scb_common.h **** *   <tr>
 104:Generated_Source\PSoC6\pdl\drivers\peripheral\scb/cy_scb_common.h **** *     <td>2.10</td>
 105:Generated_Source\PSoC6\pdl\drivers\peripheral\scb/cy_scb_common.h **** *     <td>None.</td>
 106:Generated_Source\PSoC6\pdl\drivers\peripheral\scb/cy_scb_common.h **** *     <td>SCB I2C driver updated.</td>
 107:Generated_Source\PSoC6\pdl\drivers\peripheral\scb/cy_scb_common.h **** *   </tr>
 108:Generated_Source\PSoC6\pdl\drivers\peripheral\scb/cy_scb_common.h **** *   <tr>
 109:Generated_Source\PSoC6\pdl\drivers\peripheral\scb/cy_scb_common.h **** *     <td rowspan="2"> 2.0</td>
 110:Generated_Source\PSoC6\pdl\drivers\peripheral\scb/cy_scb_common.h **** *     <td>Added parameters validation for public API.
 111:Generated_Source\PSoC6\pdl\drivers\peripheral\scb/cy_scb_common.h **** *     <td></td>
 112:Generated_Source\PSoC6\pdl\drivers\peripheral\scb/cy_scb_common.h **** *   </tr>
 113:Generated_Source\PSoC6\pdl\drivers\peripheral\scb/cy_scb_common.h **** *   <tr>
 114:Generated_Source\PSoC6\pdl\drivers\peripheral\scb/cy_scb_common.h **** *     <td>Fixed functions which return interrupt status to return only defined
 115:Generated_Source\PSoC6\pdl\drivers\peripheral\scb/cy_scb_common.h **** *         set of interrupt statuses.</td>
 116:Generated_Source\PSoC6\pdl\drivers\peripheral\scb/cy_scb_common.h **** *     <td></td>
 117:Generated_Source\PSoC6\pdl\drivers\peripheral\scb/cy_scb_common.h **** *   </tr>
 118:Generated_Source\PSoC6\pdl\drivers\peripheral\scb/cy_scb_common.h **** *   <tr>
 119:Generated_Source\PSoC6\pdl\drivers\peripheral\scb/cy_scb_common.h **** *     <td>1.0</td>
 120:Generated_Source\PSoC6\pdl\drivers\peripheral\scb/cy_scb_common.h **** *     <td>Initial version.</td>
 121:Generated_Source\PSoC6\pdl\drivers\peripheral\scb/cy_scb_common.h **** *     <td></td>
 122:Generated_Source\PSoC6\pdl\drivers\peripheral\scb/cy_scb_common.h **** *   </tr>
 123:Generated_Source\PSoC6\pdl\drivers\peripheral\scb/cy_scb_common.h **** * </table>
ARM GAS  C:\Users\pearlstl\AppData\Local\Temp\ccAUXqAU.s 			page 31


 124:Generated_Source\PSoC6\pdl\drivers\peripheral\scb/cy_scb_common.h **** *
 125:Generated_Source\PSoC6\pdl\drivers\peripheral\scb/cy_scb_common.h **** * \defgroup group_scb_common_macros Macros
 126:Generated_Source\PSoC6\pdl\drivers\peripheral\scb/cy_scb_common.h **** * \defgroup group_scb_common_functions Functions
 127:Generated_Source\PSoC6\pdl\drivers\peripheral\scb/cy_scb_common.h **** * \defgroup group_scb_common_data_structures Data Structures
 128:Generated_Source\PSoC6\pdl\drivers\peripheral\scb/cy_scb_common.h **** *
 129:Generated_Source\PSoC6\pdl\drivers\peripheral\scb/cy_scb_common.h **** */
 130:Generated_Source\PSoC6\pdl\drivers\peripheral\scb/cy_scb_common.h **** 
 131:Generated_Source\PSoC6\pdl\drivers\peripheral\scb/cy_scb_common.h **** #if !defined(CY_SCB_COMMON_H)
 132:Generated_Source\PSoC6\pdl\drivers\peripheral\scb/cy_scb_common.h **** #define CY_SCB_COMMON_H
 133:Generated_Source\PSoC6\pdl\drivers\peripheral\scb/cy_scb_common.h **** 
 134:Generated_Source\PSoC6\pdl\drivers\peripheral\scb/cy_scb_common.h **** #include <stdint.h>
 135:Generated_Source\PSoC6\pdl\drivers\peripheral\scb/cy_scb_common.h **** #include <stddef.h>
 136:Generated_Source\PSoC6\pdl\drivers\peripheral\scb/cy_scb_common.h **** #include <stdbool.h>
 137:Generated_Source\PSoC6\pdl\drivers\peripheral\scb/cy_scb_common.h **** #include "cy_device.h"
 138:Generated_Source\PSoC6\pdl\drivers\peripheral\scb/cy_scb_common.h **** #include "cy_device_headers.h"
 139:Generated_Source\PSoC6\pdl\drivers\peripheral\scb/cy_scb_common.h **** #include "cy_syslib.h"
 140:Generated_Source\PSoC6\pdl\drivers\peripheral\scb/cy_scb_common.h **** #include "cy_syspm.h"
 141:Generated_Source\PSoC6\pdl\drivers\peripheral\scb/cy_scb_common.h **** 
 142:Generated_Source\PSoC6\pdl\drivers\peripheral\scb/cy_scb_common.h **** #ifdef CY_IP_MXSCB
 143:Generated_Source\PSoC6\pdl\drivers\peripheral\scb/cy_scb_common.h **** 
 144:Generated_Source\PSoC6\pdl\drivers\peripheral\scb/cy_scb_common.h **** #if defined(__cplusplus)
 145:Generated_Source\PSoC6\pdl\drivers\peripheral\scb/cy_scb_common.h **** extern "C" {
 146:Generated_Source\PSoC6\pdl\drivers\peripheral\scb/cy_scb_common.h **** #endif
 147:Generated_Source\PSoC6\pdl\drivers\peripheral\scb/cy_scb_common.h **** 
 148:Generated_Source\PSoC6\pdl\drivers\peripheral\scb/cy_scb_common.h **** 
 149:Generated_Source\PSoC6\pdl\drivers\peripheral\scb/cy_scb_common.h **** /*******************************************************************************
 150:Generated_Source\PSoC6\pdl\drivers\peripheral\scb/cy_scb_common.h **** *                            Function Prototypes
 151:Generated_Source\PSoC6\pdl\drivers\peripheral\scb/cy_scb_common.h **** *******************************************************************************/
 152:Generated_Source\PSoC6\pdl\drivers\peripheral\scb/cy_scb_common.h **** 
 153:Generated_Source\PSoC6\pdl\drivers\peripheral\scb/cy_scb_common.h **** /**
 154:Generated_Source\PSoC6\pdl\drivers\peripheral\scb/cy_scb_common.h **** * \addtogroup group_scb_common_functions
 155:Generated_Source\PSoC6\pdl\drivers\peripheral\scb/cy_scb_common.h **** * \{
 156:Generated_Source\PSoC6\pdl\drivers\peripheral\scb/cy_scb_common.h **** */
 157:Generated_Source\PSoC6\pdl\drivers\peripheral\scb/cy_scb_common.h **** __STATIC_INLINE uint32_t Cy_SCB_ReadRxFifo    (CySCB_Type const *base);
 158:Generated_Source\PSoC6\pdl\drivers\peripheral\scb/cy_scb_common.h **** __STATIC_INLINE void     Cy_SCB_SetRxFifoLevel(CySCB_Type *base, uint32_t level);
 159:Generated_Source\PSoC6\pdl\drivers\peripheral\scb/cy_scb_common.h **** __STATIC_INLINE uint32_t Cy_SCB_GetNumInRxFifo(CySCB_Type const *base);
 160:Generated_Source\PSoC6\pdl\drivers\peripheral\scb/cy_scb_common.h **** __STATIC_INLINE uint32_t Cy_SCB_GetRxSrValid  (CySCB_Type const *base);
 161:Generated_Source\PSoC6\pdl\drivers\peripheral\scb/cy_scb_common.h **** __STATIC_INLINE void     Cy_SCB_ClearRxFifo   (CySCB_Type *base);
 162:Generated_Source\PSoC6\pdl\drivers\peripheral\scb/cy_scb_common.h **** 
 163:Generated_Source\PSoC6\pdl\drivers\peripheral\scb/cy_scb_common.h **** __STATIC_INLINE void     Cy_SCB_WriteTxFifo   (CySCB_Type *base, uint32_t data);
 164:Generated_Source\PSoC6\pdl\drivers\peripheral\scb/cy_scb_common.h **** __STATIC_INLINE void     Cy_SCB_SetTxFifoLevel(CySCB_Type *base, uint32_t level);
 165:Generated_Source\PSoC6\pdl\drivers\peripheral\scb/cy_scb_common.h **** __STATIC_INLINE uint32_t Cy_SCB_GetNumInTxFifo(CySCB_Type const *base);
 166:Generated_Source\PSoC6\pdl\drivers\peripheral\scb/cy_scb_common.h **** __STATIC_INLINE uint32_t Cy_SCB_GetTxSrValid  (CySCB_Type const *base);
 167:Generated_Source\PSoC6\pdl\drivers\peripheral\scb/cy_scb_common.h **** __STATIC_INLINE bool     Cy_SCB_IsTxComplete  (CySCB_Type const *base);
 168:Generated_Source\PSoC6\pdl\drivers\peripheral\scb/cy_scb_common.h **** __STATIC_INLINE void     Cy_SCB_ClearTxFifo   (CySCB_Type *base);
 169:Generated_Source\PSoC6\pdl\drivers\peripheral\scb/cy_scb_common.h **** 
 170:Generated_Source\PSoC6\pdl\drivers\peripheral\scb/cy_scb_common.h **** __STATIC_INLINE void     Cy_SCB_SetByteMode(CySCB_Type *base, bool byteMode);
 171:Generated_Source\PSoC6\pdl\drivers\peripheral\scb/cy_scb_common.h **** 
 172:Generated_Source\PSoC6\pdl\drivers\peripheral\scb/cy_scb_common.h **** __STATIC_INLINE uint32_t Cy_SCB_GetInterruptCause(CySCB_Type const *base);
 173:Generated_Source\PSoC6\pdl\drivers\peripheral\scb/cy_scb_common.h **** 
 174:Generated_Source\PSoC6\pdl\drivers\peripheral\scb/cy_scb_common.h **** __STATIC_INLINE uint32_t Cy_SCB_GetRxInterruptStatus(CySCB_Type const *base);
 175:Generated_Source\PSoC6\pdl\drivers\peripheral\scb/cy_scb_common.h **** __STATIC_INLINE void     Cy_SCB_SetRxInterruptMask  (CySCB_Type *base, uint32_t interruptMask);
 176:Generated_Source\PSoC6\pdl\drivers\peripheral\scb/cy_scb_common.h **** __STATIC_INLINE uint32_t Cy_SCB_GetRxInterruptMask  (CySCB_Type const *base);
 177:Generated_Source\PSoC6\pdl\drivers\peripheral\scb/cy_scb_common.h **** __STATIC_INLINE uint32_t Cy_SCB_GetRxInterruptStatusMasked(CySCB_Type const *base);
 178:Generated_Source\PSoC6\pdl\drivers\peripheral\scb/cy_scb_common.h **** __STATIC_INLINE void     Cy_SCB_ClearRxInterrupt    (CySCB_Type *base, uint32_t interruptMask);
 179:Generated_Source\PSoC6\pdl\drivers\peripheral\scb/cy_scb_common.h **** __STATIC_INLINE void     Cy_SCB_SetRxInterrupt      (CySCB_Type *base, uint32_t interruptMask);
 180:Generated_Source\PSoC6\pdl\drivers\peripheral\scb/cy_scb_common.h **** 
ARM GAS  C:\Users\pearlstl\AppData\Local\Temp\ccAUXqAU.s 			page 32


 181:Generated_Source\PSoC6\pdl\drivers\peripheral\scb/cy_scb_common.h **** __STATIC_INLINE uint32_t Cy_SCB_GetTxInterruptStatus(CySCB_Type const *base);
 182:Generated_Source\PSoC6\pdl\drivers\peripheral\scb/cy_scb_common.h **** __STATIC_INLINE void     Cy_SCB_SetTxInterruptMask  (CySCB_Type *base, uint32_t interruptMask);
 183:Generated_Source\PSoC6\pdl\drivers\peripheral\scb/cy_scb_common.h **** __STATIC_INLINE uint32_t Cy_SCB_GetTxInterruptMask  (CySCB_Type const *base);
 184:Generated_Source\PSoC6\pdl\drivers\peripheral\scb/cy_scb_common.h **** __STATIC_INLINE uint32_t Cy_SCB_GetTxInterruptStatusMasked(CySCB_Type const *base);
 185:Generated_Source\PSoC6\pdl\drivers\peripheral\scb/cy_scb_common.h **** __STATIC_INLINE void     Cy_SCB_ClearTxInterrupt    (CySCB_Type *base, uint32_t interruptMask);
 186:Generated_Source\PSoC6\pdl\drivers\peripheral\scb/cy_scb_common.h **** __STATIC_INLINE void     Cy_SCB_SetTxInterrupt      (CySCB_Type *base, uint32_t interruptMask);
 187:Generated_Source\PSoC6\pdl\drivers\peripheral\scb/cy_scb_common.h **** 
 188:Generated_Source\PSoC6\pdl\drivers\peripheral\scb/cy_scb_common.h **** __STATIC_INLINE uint32_t Cy_SCB_GetMasterInterruptStatus(CySCB_Type const *base);
 189:Generated_Source\PSoC6\pdl\drivers\peripheral\scb/cy_scb_common.h **** __STATIC_INLINE void     Cy_SCB_SetMasterInterruptMask  (CySCB_Type *base, uint32_t interruptMask);
 190:Generated_Source\PSoC6\pdl\drivers\peripheral\scb/cy_scb_common.h **** __STATIC_INLINE uint32_t Cy_SCB_GetMasterInterruptMask  (CySCB_Type const *base);
 191:Generated_Source\PSoC6\pdl\drivers\peripheral\scb/cy_scb_common.h **** __STATIC_INLINE uint32_t Cy_SCB_GetMasterInterruptStatusMasked(CySCB_Type const *base);
 192:Generated_Source\PSoC6\pdl\drivers\peripheral\scb/cy_scb_common.h **** __STATIC_INLINE void     Cy_SCB_ClearMasterInterrupt    (CySCB_Type *base, uint32_t interruptMask);
 193:Generated_Source\PSoC6\pdl\drivers\peripheral\scb/cy_scb_common.h **** __STATIC_INLINE void     Cy_SCB_SetMasterInterrupt      (CySCB_Type *base, uint32_t interruptMask);
 194:Generated_Source\PSoC6\pdl\drivers\peripheral\scb/cy_scb_common.h **** 
 195:Generated_Source\PSoC6\pdl\drivers\peripheral\scb/cy_scb_common.h **** __STATIC_INLINE uint32_t Cy_SCB_GetSlaveInterruptStatus(CySCB_Type const *base);
 196:Generated_Source\PSoC6\pdl\drivers\peripheral\scb/cy_scb_common.h **** __STATIC_INLINE void     Cy_SCB_SetSlaveInterruptMask  (CySCB_Type *base, uint32_t interruptMask);
 197:Generated_Source\PSoC6\pdl\drivers\peripheral\scb/cy_scb_common.h **** __STATIC_INLINE uint32_t Cy_SCB_GetSlaveInterruptMask  (CySCB_Type const *base);
 198:Generated_Source\PSoC6\pdl\drivers\peripheral\scb/cy_scb_common.h **** __STATIC_INLINE uint32_t Cy_SCB_GetSlaveInterruptStatusMasked(CySCB_Type const *base);
 199:Generated_Source\PSoC6\pdl\drivers\peripheral\scb/cy_scb_common.h **** __STATIC_INLINE void     Cy_SCB_ClearSlaveInterrupt    (CySCB_Type *base, uint32_t interruptMask);
 200:Generated_Source\PSoC6\pdl\drivers\peripheral\scb/cy_scb_common.h **** __STATIC_INLINE void     Cy_SCB_SetSlaveInterrupt      (CySCB_Type *base, uint32_t interruptMask);
 201:Generated_Source\PSoC6\pdl\drivers\peripheral\scb/cy_scb_common.h **** 
 202:Generated_Source\PSoC6\pdl\drivers\peripheral\scb/cy_scb_common.h **** __STATIC_INLINE uint32_t Cy_SCB_GetI2CInterruptStatus(CySCB_Type const *base);
 203:Generated_Source\PSoC6\pdl\drivers\peripheral\scb/cy_scb_common.h **** __STATIC_INLINE void     Cy_SCB_SetI2CInterruptMask  (CySCB_Type *base, uint32_t interruptMask);
 204:Generated_Source\PSoC6\pdl\drivers\peripheral\scb/cy_scb_common.h **** __STATIC_INLINE uint32_t Cy_SCB_GetI2CInterruptMask  (CySCB_Type const *base);
 205:Generated_Source\PSoC6\pdl\drivers\peripheral\scb/cy_scb_common.h **** __STATIC_INLINE uint32_t Cy_SCB_GetI2CInterruptStatusMasked(CySCB_Type const *base);
 206:Generated_Source\PSoC6\pdl\drivers\peripheral\scb/cy_scb_common.h **** __STATIC_INLINE void     Cy_SCB_ClearI2CInterrupt    (CySCB_Type *base, uint32_t interruptMask);
 207:Generated_Source\PSoC6\pdl\drivers\peripheral\scb/cy_scb_common.h **** 
 208:Generated_Source\PSoC6\pdl\drivers\peripheral\scb/cy_scb_common.h **** __STATIC_INLINE uint32_t Cy_SCB_GetSpiInterruptStatus(CySCB_Type const *base);
 209:Generated_Source\PSoC6\pdl\drivers\peripheral\scb/cy_scb_common.h **** __STATIC_INLINE void     Cy_SCB_SetSpiInterruptMask  (CySCB_Type *base, uint32_t interruptMask);
 210:Generated_Source\PSoC6\pdl\drivers\peripheral\scb/cy_scb_common.h **** __STATIC_INLINE uint32_t Cy_SCB_GetSpiInterruptMask  (CySCB_Type const *base);
 211:Generated_Source\PSoC6\pdl\drivers\peripheral\scb/cy_scb_common.h **** __STATIC_INLINE uint32_t Cy_SCB_GetSpiInterruptStatusMasked(CySCB_Type const *base);
 212:Generated_Source\PSoC6\pdl\drivers\peripheral\scb/cy_scb_common.h **** __STATIC_INLINE void     Cy_SCB_ClearSpiInterrupt    (CySCB_Type *base, uint32_t interruptMask);
 213:Generated_Source\PSoC6\pdl\drivers\peripheral\scb/cy_scb_common.h **** 
 214:Generated_Source\PSoC6\pdl\drivers\peripheral\scb/cy_scb_common.h **** 
 215:Generated_Source\PSoC6\pdl\drivers\peripheral\scb/cy_scb_common.h **** /*******************************************************************************
 216:Generated_Source\PSoC6\pdl\drivers\peripheral\scb/cy_scb_common.h **** *                         Internal Function Prototypes
 217:Generated_Source\PSoC6\pdl\drivers\peripheral\scb/cy_scb_common.h **** *******************************************************************************/
 218:Generated_Source\PSoC6\pdl\drivers\peripheral\scb/cy_scb_common.h **** 
 219:Generated_Source\PSoC6\pdl\drivers\peripheral\scb/cy_scb_common.h **** /** \cond INTERNAL */
 220:Generated_Source\PSoC6\pdl\drivers\peripheral\scb/cy_scb_common.h **** void     Cy_SCB_ReadArrayNoCheck  (CySCB_Type const *base, void *buffer, uint32_t size);
 221:Generated_Source\PSoC6\pdl\drivers\peripheral\scb/cy_scb_common.h **** uint32_t Cy_SCB_ReadArray         (CySCB_Type const *base, void *buffer, uint32_t size);
 222:Generated_Source\PSoC6\pdl\drivers\peripheral\scb/cy_scb_common.h **** void     Cy_SCB_ReadArrayBlocking (CySCB_Type const *base, void *buffer, uint32_t size);
 223:Generated_Source\PSoC6\pdl\drivers\peripheral\scb/cy_scb_common.h **** uint32_t Cy_SCB_Write             (CySCB_Type *base, uint32_t data);
 224:Generated_Source\PSoC6\pdl\drivers\peripheral\scb/cy_scb_common.h **** void     Cy_SCB_WriteArrayNoCheck (CySCB_Type *base, void *buffer, uint32_t size);
 225:Generated_Source\PSoC6\pdl\drivers\peripheral\scb/cy_scb_common.h **** uint32_t Cy_SCB_WriteArray        (CySCB_Type *base, void *buffer, uint32_t size);
 226:Generated_Source\PSoC6\pdl\drivers\peripheral\scb/cy_scb_common.h **** void     Cy_SCB_WriteArrayBlocking(CySCB_Type *base, void *buffer, uint32_t size);
 227:Generated_Source\PSoC6\pdl\drivers\peripheral\scb/cy_scb_common.h **** void     Cy_SCB_WriteString       (CySCB_Type *base, char_t const string[]);
 228:Generated_Source\PSoC6\pdl\drivers\peripheral\scb/cy_scb_common.h **** void     Cy_SCB_WriteDefaultArrayNoCheck(CySCB_Type *base, uint32_t txData, uint32_t size);
 229:Generated_Source\PSoC6\pdl\drivers\peripheral\scb/cy_scb_common.h **** uint32_t Cy_SCB_WriteDefaultArray (CySCB_Type *base, uint32_t txData, uint32_t size);
 230:Generated_Source\PSoC6\pdl\drivers\peripheral\scb/cy_scb_common.h **** 
 231:Generated_Source\PSoC6\pdl\drivers\peripheral\scb/cy_scb_common.h **** __STATIC_INLINE uint32_t Cy_SCB_GetFifoSize (CySCB_Type const *base);
 232:Generated_Source\PSoC6\pdl\drivers\peripheral\scb/cy_scb_common.h **** __STATIC_INLINE void     Cy_SCB_FwBlockReset(CySCB_Type *base);
 233:Generated_Source\PSoC6\pdl\drivers\peripheral\scb/cy_scb_common.h **** __STATIC_INLINE bool     Cy_SCB_IsRxDataWidthByte(CySCB_Type const *base);
 234:Generated_Source\PSoC6\pdl\drivers\peripheral\scb/cy_scb_common.h **** __STATIC_INLINE bool     Cy_SCB_IsTxDataWidthByte(CySCB_Type const *base);
 235:Generated_Source\PSoC6\pdl\drivers\peripheral\scb/cy_scb_common.h **** __STATIC_INLINE uint32_t Cy_SCB_GetRxFifoLevel   (CySCB_Type const *base);
 236:Generated_Source\PSoC6\pdl\drivers\peripheral\scb/cy_scb_common.h **** /** \endcond */
 237:Generated_Source\PSoC6\pdl\drivers\peripheral\scb/cy_scb_common.h **** 
ARM GAS  C:\Users\pearlstl\AppData\Local\Temp\ccAUXqAU.s 			page 33


 238:Generated_Source\PSoC6\pdl\drivers\peripheral\scb/cy_scb_common.h **** /** \} group_scb_common_functions */
 239:Generated_Source\PSoC6\pdl\drivers\peripheral\scb/cy_scb_common.h **** 
 240:Generated_Source\PSoC6\pdl\drivers\peripheral\scb/cy_scb_common.h **** 
 241:Generated_Source\PSoC6\pdl\drivers\peripheral\scb/cy_scb_common.h **** /*******************************************************************************
 242:Generated_Source\PSoC6\pdl\drivers\peripheral\scb/cy_scb_common.h **** *                        API Constants
 243:Generated_Source\PSoC6\pdl\drivers\peripheral\scb/cy_scb_common.h **** *******************************************************************************/
 244:Generated_Source\PSoC6\pdl\drivers\peripheral\scb/cy_scb_common.h **** 
 245:Generated_Source\PSoC6\pdl\drivers\peripheral\scb/cy_scb_common.h **** /**
 246:Generated_Source\PSoC6\pdl\drivers\peripheral\scb/cy_scb_common.h **** * \addtogroup group_scb_common_macros
 247:Generated_Source\PSoC6\pdl\drivers\peripheral\scb/cy_scb_common.h **** * \{
 248:Generated_Source\PSoC6\pdl\drivers\peripheral\scb/cy_scb_common.h **** */
 249:Generated_Source\PSoC6\pdl\drivers\peripheral\scb/cy_scb_common.h **** 
 250:Generated_Source\PSoC6\pdl\drivers\peripheral\scb/cy_scb_common.h **** /** Driver major version */
 251:Generated_Source\PSoC6\pdl\drivers\peripheral\scb/cy_scb_common.h **** #define CY_SCB_DRV_VERSION_MAJOR    (2)
 252:Generated_Source\PSoC6\pdl\drivers\peripheral\scb/cy_scb_common.h **** 
 253:Generated_Source\PSoC6\pdl\drivers\peripheral\scb/cy_scb_common.h **** /** Driver minor version */
 254:Generated_Source\PSoC6\pdl\drivers\peripheral\scb/cy_scb_common.h **** #define CY_SCB_DRV_VERSION_MINOR    (20)
 255:Generated_Source\PSoC6\pdl\drivers\peripheral\scb/cy_scb_common.h **** 
 256:Generated_Source\PSoC6\pdl\drivers\peripheral\scb/cy_scb_common.h **** /** SCB driver identifier */
 257:Generated_Source\PSoC6\pdl\drivers\peripheral\scb/cy_scb_common.h **** #define CY_SCB_ID           CY_PDL_DRV_ID(0x2AU)
 258:Generated_Source\PSoC6\pdl\drivers\peripheral\scb/cy_scb_common.h **** 
 259:Generated_Source\PSoC6\pdl\drivers\peripheral\scb/cy_scb_common.h **** /** Position for SCB driver sub mode */
 260:Generated_Source\PSoC6\pdl\drivers\peripheral\scb/cy_scb_common.h **** #define CY_SCB_SUB_MODE_Pos (13UL)
 261:Generated_Source\PSoC6\pdl\drivers\peripheral\scb/cy_scb_common.h **** 
 262:Generated_Source\PSoC6\pdl\drivers\peripheral\scb/cy_scb_common.h **** /** EZI2C mode identifier */
 263:Generated_Source\PSoC6\pdl\drivers\peripheral\scb/cy_scb_common.h **** #define CY_SCB_EZI2C_ID     (0x0UL << CY_SCB_SUB_MODE_Pos)
 264:Generated_Source\PSoC6\pdl\drivers\peripheral\scb/cy_scb_common.h **** 
 265:Generated_Source\PSoC6\pdl\drivers\peripheral\scb/cy_scb_common.h **** /** EZI2C mode identifier */
 266:Generated_Source\PSoC6\pdl\drivers\peripheral\scb/cy_scb_common.h **** #define CY_SCB_I2C_ID       (0x1UL << CY_SCB_SUB_MODE_Pos)
 267:Generated_Source\PSoC6\pdl\drivers\peripheral\scb/cy_scb_common.h **** 
 268:Generated_Source\PSoC6\pdl\drivers\peripheral\scb/cy_scb_common.h **** /** EZI2C mode identifier */
 269:Generated_Source\PSoC6\pdl\drivers\peripheral\scb/cy_scb_common.h **** #define CY_SCB_SPI_ID       (0x2UL << CY_SCB_SUB_MODE_Pos)
 270:Generated_Source\PSoC6\pdl\drivers\peripheral\scb/cy_scb_common.h **** 
 271:Generated_Source\PSoC6\pdl\drivers\peripheral\scb/cy_scb_common.h **** /** EZI2C mode identifier */
 272:Generated_Source\PSoC6\pdl\drivers\peripheral\scb/cy_scb_common.h **** #define CY_SCB_UART_ID      (0x3UL << CY_SCB_SUB_MODE_Pos)
 273:Generated_Source\PSoC6\pdl\drivers\peripheral\scb/cy_scb_common.h **** 
 274:Generated_Source\PSoC6\pdl\drivers\peripheral\scb/cy_scb_common.h **** /**
 275:Generated_Source\PSoC6\pdl\drivers\peripheral\scb/cy_scb_common.h **** * \defgroup group_scb_common_macros_intr_cause SCB Interrupt Causes
 276:Generated_Source\PSoC6\pdl\drivers\peripheral\scb/cy_scb_common.h **** * \{
 277:Generated_Source\PSoC6\pdl\drivers\peripheral\scb/cy_scb_common.h **** */
 278:Generated_Source\PSoC6\pdl\drivers\peripheral\scb/cy_scb_common.h **** /** Interrupt from Master interrupt sources */
 279:Generated_Source\PSoC6\pdl\drivers\peripheral\scb/cy_scb_common.h **** #define CY_SCB_MASTER_INTR SCB_INTR_CAUSE_M_Msk
 280:Generated_Source\PSoC6\pdl\drivers\peripheral\scb/cy_scb_common.h **** 
 281:Generated_Source\PSoC6\pdl\drivers\peripheral\scb/cy_scb_common.h **** /** Interrupt from Slave interrupt sources  */
 282:Generated_Source\PSoC6\pdl\drivers\peripheral\scb/cy_scb_common.h **** #define CY_SCB_SLAVE_INTR  SCB_INTR_CAUSE_S_Msk
 283:Generated_Source\PSoC6\pdl\drivers\peripheral\scb/cy_scb_common.h **** 
 284:Generated_Source\PSoC6\pdl\drivers\peripheral\scb/cy_scb_common.h **** /** Interrupt from TX interrupt sources */
 285:Generated_Source\PSoC6\pdl\drivers\peripheral\scb/cy_scb_common.h **** #define CY_SCB_TX_INTR     SCB_INTR_CAUSE_TX_Msk
 286:Generated_Source\PSoC6\pdl\drivers\peripheral\scb/cy_scb_common.h **** 
 287:Generated_Source\PSoC6\pdl\drivers\peripheral\scb/cy_scb_common.h **** /** Interrupt from RX interrupt sources */
 288:Generated_Source\PSoC6\pdl\drivers\peripheral\scb/cy_scb_common.h **** #define CY_SCB_RX_INTR     SCB_INTR_CAUSE_RX_Msk
 289:Generated_Source\PSoC6\pdl\drivers\peripheral\scb/cy_scb_common.h **** 
 290:Generated_Source\PSoC6\pdl\drivers\peripheral\scb/cy_scb_common.h **** /** Interrupt from I2C externally clocked interrupt sources */
 291:Generated_Source\PSoC6\pdl\drivers\peripheral\scb/cy_scb_common.h **** #define CY_SCB_I2C_INTR    SCB_INTR_CAUSE_I2C_EC_Msk
 292:Generated_Source\PSoC6\pdl\drivers\peripheral\scb/cy_scb_common.h **** 
 293:Generated_Source\PSoC6\pdl\drivers\peripheral\scb/cy_scb_common.h **** /** Interrupt from SPI externally clocked interrupt sources */
 294:Generated_Source\PSoC6\pdl\drivers\peripheral\scb/cy_scb_common.h **** #define CY_SCB_SPI_INTR    SCB_INTR_CAUSE_SPI_EC_Msk
ARM GAS  C:\Users\pearlstl\AppData\Local\Temp\ccAUXqAU.s 			page 34


 295:Generated_Source\PSoC6\pdl\drivers\peripheral\scb/cy_scb_common.h **** /** \} group_scb_common_macros_intr_cause */
 296:Generated_Source\PSoC6\pdl\drivers\peripheral\scb/cy_scb_common.h **** 
 297:Generated_Source\PSoC6\pdl\drivers\peripheral\scb/cy_scb_common.h **** /**
 298:Generated_Source\PSoC6\pdl\drivers\peripheral\scb/cy_scb_common.h **** * \defgroup group_scb_common_macros_tx_intr TX Interrupt Statuses
 299:Generated_Source\PSoC6\pdl\drivers\peripheral\scb/cy_scb_common.h **** * \{
 300:Generated_Source\PSoC6\pdl\drivers\peripheral\scb/cy_scb_common.h **** */
 301:Generated_Source\PSoC6\pdl\drivers\peripheral\scb/cy_scb_common.h **** /**
 302:Generated_Source\PSoC6\pdl\drivers\peripheral\scb/cy_scb_common.h **** * The number of data elements in the TX FIFO is less than the value
 303:Generated_Source\PSoC6\pdl\drivers\peripheral\scb/cy_scb_common.h **** * of the TX FIFO level
 304:Generated_Source\PSoC6\pdl\drivers\peripheral\scb/cy_scb_common.h **** */
 305:Generated_Source\PSoC6\pdl\drivers\peripheral\scb/cy_scb_common.h **** #define CY_SCB_TX_INTR_LEVEL           SCB_INTR_TX_TRIGGER_Msk
 306:Generated_Source\PSoC6\pdl\drivers\peripheral\scb/cy_scb_common.h **** 
 307:Generated_Source\PSoC6\pdl\drivers\peripheral\scb/cy_scb_common.h **** /** The TX FIFO is not full */
 308:Generated_Source\PSoC6\pdl\drivers\peripheral\scb/cy_scb_common.h **** #define CY_SCB_TX_INTR_NOT_FULL        SCB_INTR_TX_NOT_FULL_Msk
 309:Generated_Source\PSoC6\pdl\drivers\peripheral\scb/cy_scb_common.h **** 
 310:Generated_Source\PSoC6\pdl\drivers\peripheral\scb/cy_scb_common.h **** /** The TX FIFO is empty */
 311:Generated_Source\PSoC6\pdl\drivers\peripheral\scb/cy_scb_common.h **** #define CY_SCB_TX_INTR_EMPTY           SCB_INTR_TX_EMPTY_Msk
 312:Generated_Source\PSoC6\pdl\drivers\peripheral\scb/cy_scb_common.h **** 
 313:Generated_Source\PSoC6\pdl\drivers\peripheral\scb/cy_scb_common.h **** /** An attempt to write to a full TX FIFO */
 314:Generated_Source\PSoC6\pdl\drivers\peripheral\scb/cy_scb_common.h **** #define CY_SCB_TX_INTR_OVERFLOW        SCB_INTR_TX_OVERFLOW_Msk
 315:Generated_Source\PSoC6\pdl\drivers\peripheral\scb/cy_scb_common.h **** 
 316:Generated_Source\PSoC6\pdl\drivers\peripheral\scb/cy_scb_common.h **** /** An attempt to read from an empty TX FIFO */
 317:Generated_Source\PSoC6\pdl\drivers\peripheral\scb/cy_scb_common.h **** #define CY_SCB_TX_INTR_UNDERFLOW       SCB_INTR_TX_UNDERFLOW_Msk
 318:Generated_Source\PSoC6\pdl\drivers\peripheral\scb/cy_scb_common.h **** 
 319:Generated_Source\PSoC6\pdl\drivers\peripheral\scb/cy_scb_common.h **** /** The UART transfer is complete: all data elements from the TX FIFO are sent
 320:Generated_Source\PSoC6\pdl\drivers\peripheral\scb/cy_scb_common.h **** */
 321:Generated_Source\PSoC6\pdl\drivers\peripheral\scb/cy_scb_common.h **** #define CY_SCB_TX_INTR_UART_DONE       SCB_INTR_TX_UART_DONE_Msk
 322:Generated_Source\PSoC6\pdl\drivers\peripheral\scb/cy_scb_common.h **** 
 323:Generated_Source\PSoC6\pdl\drivers\peripheral\scb/cy_scb_common.h **** /** SmartCard only: UART received a NACK */
 324:Generated_Source\PSoC6\pdl\drivers\peripheral\scb/cy_scb_common.h **** #define CY_SCB_TX_INTR_UART_NACK       SCB_INTR_TX_UART_NACK_Msk
 325:Generated_Source\PSoC6\pdl\drivers\peripheral\scb/cy_scb_common.h **** 
 326:Generated_Source\PSoC6\pdl\drivers\peripheral\scb/cy_scb_common.h **** /**
 327:Generated_Source\PSoC6\pdl\drivers\peripheral\scb/cy_scb_common.h **** * SmartCard only: the value on the TX line of the UART does not match the
 328:Generated_Source\PSoC6\pdl\drivers\peripheral\scb/cy_scb_common.h **** * value on the RX line
 329:Generated_Source\PSoC6\pdl\drivers\peripheral\scb/cy_scb_common.h **** */
 330:Generated_Source\PSoC6\pdl\drivers\peripheral\scb/cy_scb_common.h **** #define CY_SCB_TX_INTR_UART_ARB_LOST   SCB_INTR_TX_UART_ARB_LOST_Msk
 331:Generated_Source\PSoC6\pdl\drivers\peripheral\scb/cy_scb_common.h **** /** \} group_scb_common_macros_tx_intr */
 332:Generated_Source\PSoC6\pdl\drivers\peripheral\scb/cy_scb_common.h **** 
 333:Generated_Source\PSoC6\pdl\drivers\peripheral\scb/cy_scb_common.h **** /**
 334:Generated_Source\PSoC6\pdl\drivers\peripheral\scb/cy_scb_common.h **** * \defgroup group_scb_common_macros_rx_intr RX Interrupt Statuses
 335:Generated_Source\PSoC6\pdl\drivers\peripheral\scb/cy_scb_common.h **** * \{
 336:Generated_Source\PSoC6\pdl\drivers\peripheral\scb/cy_scb_common.h **** */
 337:Generated_Source\PSoC6\pdl\drivers\peripheral\scb/cy_scb_common.h **** /**
 338:Generated_Source\PSoC6\pdl\drivers\peripheral\scb/cy_scb_common.h **** * The number of data elements in the RX FIFO is greater than the value of the
 339:Generated_Source\PSoC6\pdl\drivers\peripheral\scb/cy_scb_common.h **** * RX FIFO level
 340:Generated_Source\PSoC6\pdl\drivers\peripheral\scb/cy_scb_common.h **** */
 341:Generated_Source\PSoC6\pdl\drivers\peripheral\scb/cy_scb_common.h **** #define CY_SCB_RX_INTR_LEVEL             SCB_INTR_RX_TRIGGER_Msk
 342:Generated_Source\PSoC6\pdl\drivers\peripheral\scb/cy_scb_common.h **** 
 343:Generated_Source\PSoC6\pdl\drivers\peripheral\scb/cy_scb_common.h **** /** The RX FIFO is not empty */
 344:Generated_Source\PSoC6\pdl\drivers\peripheral\scb/cy_scb_common.h **** #define CY_SCB_RX_INTR_NOT_EMPTY         SCB_INTR_RX_NOT_EMPTY_Msk
 345:Generated_Source\PSoC6\pdl\drivers\peripheral\scb/cy_scb_common.h **** 
 346:Generated_Source\PSoC6\pdl\drivers\peripheral\scb/cy_scb_common.h **** /** The RX FIFO is full */
 347:Generated_Source\PSoC6\pdl\drivers\peripheral\scb/cy_scb_common.h **** #define CY_SCB_RX_INTR_FULL              SCB_INTR_RX_FULL_Msk
 348:Generated_Source\PSoC6\pdl\drivers\peripheral\scb/cy_scb_common.h **** 
 349:Generated_Source\PSoC6\pdl\drivers\peripheral\scb/cy_scb_common.h **** /** An attempt to write to a full RX FIFO */
 350:Generated_Source\PSoC6\pdl\drivers\peripheral\scb/cy_scb_common.h **** #define CY_SCB_RX_INTR_OVERFLOW          SCB_INTR_RX_OVERFLOW_Msk
 351:Generated_Source\PSoC6\pdl\drivers\peripheral\scb/cy_scb_common.h **** 
ARM GAS  C:\Users\pearlstl\AppData\Local\Temp\ccAUXqAU.s 			page 35


 352:Generated_Source\PSoC6\pdl\drivers\peripheral\scb/cy_scb_common.h **** /** An attempt to read from an empty RX FIFO */
 353:Generated_Source\PSoC6\pdl\drivers\peripheral\scb/cy_scb_common.h **** #define CY_SCB_RX_INTR_UNDERFLOW         SCB_INTR_RX_UNDERFLOW_Msk
 354:Generated_Source\PSoC6\pdl\drivers\peripheral\scb/cy_scb_common.h **** 
 355:Generated_Source\PSoC6\pdl\drivers\peripheral\scb/cy_scb_common.h **** /** A UART framing error detected */
 356:Generated_Source\PSoC6\pdl\drivers\peripheral\scb/cy_scb_common.h **** #define CY_SCB_RX_INTR_UART_FRAME_ERROR  SCB_INTR_RX_FRAME_ERROR_Msk
 357:Generated_Source\PSoC6\pdl\drivers\peripheral\scb/cy_scb_common.h **** 
 358:Generated_Source\PSoC6\pdl\drivers\peripheral\scb/cy_scb_common.h **** /** A UART parity error detected  */
 359:Generated_Source\PSoC6\pdl\drivers\peripheral\scb/cy_scb_common.h **** #define CY_SCB_RX_INTR_UART_PARITY_ERROR SCB_INTR_RX_PARITY_ERROR_Msk
 360:Generated_Source\PSoC6\pdl\drivers\peripheral\scb/cy_scb_common.h **** 
 361:Generated_Source\PSoC6\pdl\drivers\peripheral\scb/cy_scb_common.h **** /** A UART break detected */
 362:Generated_Source\PSoC6\pdl\drivers\peripheral\scb/cy_scb_common.h **** #define CY_SCB_RX_INTR_UART_BREAK_DETECT SCB_INTR_RX_BREAK_DETECT_Msk
 363:Generated_Source\PSoC6\pdl\drivers\peripheral\scb/cy_scb_common.h **** /** \} group_scb_common_macros_rx_intr */
 364:Generated_Source\PSoC6\pdl\drivers\peripheral\scb/cy_scb_common.h **** 
 365:Generated_Source\PSoC6\pdl\drivers\peripheral\scb/cy_scb_common.h **** /**
 366:Generated_Source\PSoC6\pdl\drivers\peripheral\scb/cy_scb_common.h **** * \defgroup group_scb_common_macros_slave_intr Slave Interrupt Statuses
 367:Generated_Source\PSoC6\pdl\drivers\peripheral\scb/cy_scb_common.h **** * \{
 368:Generated_Source\PSoC6\pdl\drivers\peripheral\scb/cy_scb_common.h **** */
 369:Generated_Source\PSoC6\pdl\drivers\peripheral\scb/cy_scb_common.h **** /**
 370:Generated_Source\PSoC6\pdl\drivers\peripheral\scb/cy_scb_common.h **** * I2C slave lost arbitration: the value driven on the SDA line is not the same
 371:Generated_Source\PSoC6\pdl\drivers\peripheral\scb/cy_scb_common.h **** * as the value observed on the SDA line
 372:Generated_Source\PSoC6\pdl\drivers\peripheral\scb/cy_scb_common.h **** */
 373:Generated_Source\PSoC6\pdl\drivers\peripheral\scb/cy_scb_common.h **** #define CY_SCB_SLAVE_INTR_I2C_ARB_LOST      SCB_INTR_S_I2C_ARB_LOST_Msk
 374:Generated_Source\PSoC6\pdl\drivers\peripheral\scb/cy_scb_common.h **** 
 375:Generated_Source\PSoC6\pdl\drivers\peripheral\scb/cy_scb_common.h **** /** The I2C slave received a NAK */
 376:Generated_Source\PSoC6\pdl\drivers\peripheral\scb/cy_scb_common.h **** #define CY_SCB_SLAVE_INTR_I2C_NACK          SCB_INTR_S_I2C_NACK_Msk
 377:Generated_Source\PSoC6\pdl\drivers\peripheral\scb/cy_scb_common.h **** 
 378:Generated_Source\PSoC6\pdl\drivers\peripheral\scb/cy_scb_common.h **** /** The I2C slave received  an ACK */
 379:Generated_Source\PSoC6\pdl\drivers\peripheral\scb/cy_scb_common.h **** #define CY_SCB_SLAVE_INTR_I2C_ACK           SCB_INTR_S_I2C_ACK_Msk
 380:Generated_Source\PSoC6\pdl\drivers\peripheral\scb/cy_scb_common.h **** 
 381:Generated_Source\PSoC6\pdl\drivers\peripheral\scb/cy_scb_common.h **** /**
 382:Generated_Source\PSoC6\pdl\drivers\peripheral\scb/cy_scb_common.h **** * A Stop or Repeated Start event for a write transfer intended for this slave
 383:Generated_Source\PSoC6\pdl\drivers\peripheral\scb/cy_scb_common.h **** * was detected.
 384:Generated_Source\PSoC6\pdl\drivers\peripheral\scb/cy_scb_common.h **** */
 385:Generated_Source\PSoC6\pdl\drivers\peripheral\scb/cy_scb_common.h **** #define CY_SCB_SLAVE_INTR_I2C_WRITE_STOP    SCB_INTR_S_I2C_WRITE_STOP_Msk
 386:Generated_Source\PSoC6\pdl\drivers\peripheral\scb/cy_scb_common.h **** 
 387:Generated_Source\PSoC6\pdl\drivers\peripheral\scb/cy_scb_common.h **** /** A Stop or Repeated Start event intended for this slave was detected */
 388:Generated_Source\PSoC6\pdl\drivers\peripheral\scb/cy_scb_common.h **** #define CY_SCB_SLAVE_INTR_I2C_STOP          SCB_INTR_S_I2C_STOP_Msk
 389:Generated_Source\PSoC6\pdl\drivers\peripheral\scb/cy_scb_common.h **** 
 390:Generated_Source\PSoC6\pdl\drivers\peripheral\scb/cy_scb_common.h **** /** The I2C slave received a Start condition */
 391:Generated_Source\PSoC6\pdl\drivers\peripheral\scb/cy_scb_common.h **** #define CY_SCB_SLAVE_INTR_I2C_START         SCB_INTR_S_I2C_START_Msk
 392:Generated_Source\PSoC6\pdl\drivers\peripheral\scb/cy_scb_common.h **** 
 393:Generated_Source\PSoC6\pdl\drivers\peripheral\scb/cy_scb_common.h **** /** The I2C slave received the matching address */
 394:Generated_Source\PSoC6\pdl\drivers\peripheral\scb/cy_scb_common.h **** #define CY_SCB_SLAVE_INTR_I2C_ADDR_MATCH    SCB_INTR_S_I2C_ADDR_MATCH_Msk
 395:Generated_Source\PSoC6\pdl\drivers\peripheral\scb/cy_scb_common.h **** 
 396:Generated_Source\PSoC6\pdl\drivers\peripheral\scb/cy_scb_common.h **** /** The I2C Slave received the general call address */
 397:Generated_Source\PSoC6\pdl\drivers\peripheral\scb/cy_scb_common.h **** #define CY_SCB_SLAVE_INTR_I2C_GENERAL_ADDR  SCB_INTR_S_I2C_GENERAL_Msk
 398:Generated_Source\PSoC6\pdl\drivers\peripheral\scb/cy_scb_common.h **** 
 399:Generated_Source\PSoC6\pdl\drivers\peripheral\scb/cy_scb_common.h **** /** The I2C slave bus error (detection of unexpected Start or Stop condition) */
 400:Generated_Source\PSoC6\pdl\drivers\peripheral\scb/cy_scb_common.h **** #define CY_SCB_SLAVE_INTR_I2C_BUS_ERROR     SCB_INTR_S_I2C_BUS_ERROR_Msk
 401:Generated_Source\PSoC6\pdl\drivers\peripheral\scb/cy_scb_common.h **** 
 402:Generated_Source\PSoC6\pdl\drivers\peripheral\scb/cy_scb_common.h **** /**
 403:Generated_Source\PSoC6\pdl\drivers\peripheral\scb/cy_scb_common.h **** * The SPI slave select line is deselected at an expected time during an
 404:Generated_Source\PSoC6\pdl\drivers\peripheral\scb/cy_scb_common.h **** * SPI transfer.
 405:Generated_Source\PSoC6\pdl\drivers\peripheral\scb/cy_scb_common.h **** */
 406:Generated_Source\PSoC6\pdl\drivers\peripheral\scb/cy_scb_common.h **** #define CY_SCB_SLAVE_INTR_SPI_BUS_ERROR     SCB_INTR_S_SPI_BUS_ERROR_Msk
 407:Generated_Source\PSoC6\pdl\drivers\peripheral\scb/cy_scb_common.h **** /** \} group_scb_common_macros_slave_intr */
 408:Generated_Source\PSoC6\pdl\drivers\peripheral\scb/cy_scb_common.h **** 
ARM GAS  C:\Users\pearlstl\AppData\Local\Temp\ccAUXqAU.s 			page 36


 409:Generated_Source\PSoC6\pdl\drivers\peripheral\scb/cy_scb_common.h **** /**
 410:Generated_Source\PSoC6\pdl\drivers\peripheral\scb/cy_scb_common.h **** * \defgroup group_scb_common_macros_master_intr Master Interrupt Statuses
 411:Generated_Source\PSoC6\pdl\drivers\peripheral\scb/cy_scb_common.h **** * \{
 412:Generated_Source\PSoC6\pdl\drivers\peripheral\scb/cy_scb_common.h **** */
 413:Generated_Source\PSoC6\pdl\drivers\peripheral\scb/cy_scb_common.h **** /** The I2C master lost arbitration */
 414:Generated_Source\PSoC6\pdl\drivers\peripheral\scb/cy_scb_common.h **** #define CY_SCB_MASTER_INTR_I2C_ARB_LOST    SCB_INTR_M_I2C_ARB_LOST_Msk
 415:Generated_Source\PSoC6\pdl\drivers\peripheral\scb/cy_scb_common.h **** 
 416:Generated_Source\PSoC6\pdl\drivers\peripheral\scb/cy_scb_common.h **** /** The I2C master received a NACK */
 417:Generated_Source\PSoC6\pdl\drivers\peripheral\scb/cy_scb_common.h **** #define CY_SCB_MASTER_INTR_I2C_NACK        SCB_INTR_M_I2C_NACK_Msk
 418:Generated_Source\PSoC6\pdl\drivers\peripheral\scb/cy_scb_common.h **** 
 419:Generated_Source\PSoC6\pdl\drivers\peripheral\scb/cy_scb_common.h **** /** The I2C master received an ACK */
 420:Generated_Source\PSoC6\pdl\drivers\peripheral\scb/cy_scb_common.h **** #define CY_SCB_MASTER_INTR_I2C_ACK         SCB_INTR_M_I2C_ACK_Msk
 421:Generated_Source\PSoC6\pdl\drivers\peripheral\scb/cy_scb_common.h **** 
 422:Generated_Source\PSoC6\pdl\drivers\peripheral\scb/cy_scb_common.h **** /** The I2C master generated a Stop */
 423:Generated_Source\PSoC6\pdl\drivers\peripheral\scb/cy_scb_common.h **** #define CY_SCB_MASTER_INTR_I2C_STOP        SCB_INTR_M_I2C_STOP_Msk
 424:Generated_Source\PSoC6\pdl\drivers\peripheral\scb/cy_scb_common.h **** 
 425:Generated_Source\PSoC6\pdl\drivers\peripheral\scb/cy_scb_common.h **** /** The I2C master bus error (detection of unexpected START or STOP condition)
 426:Generated_Source\PSoC6\pdl\drivers\peripheral\scb/cy_scb_common.h **** */
 427:Generated_Source\PSoC6\pdl\drivers\peripheral\scb/cy_scb_common.h **** #define CY_SCB_MASTER_INTR_I2C_BUS_ERROR   SCB_INTR_M_I2C_BUS_ERROR_Msk
 428:Generated_Source\PSoC6\pdl\drivers\peripheral\scb/cy_scb_common.h **** 
 429:Generated_Source\PSoC6\pdl\drivers\peripheral\scb/cy_scb_common.h **** /**
 430:Generated_Source\PSoC6\pdl\drivers\peripheral\scb/cy_scb_common.h **** * The SPI master transfer is complete: all data elements transferred from the
 431:Generated_Source\PSoC6\pdl\drivers\peripheral\scb/cy_scb_common.h **** * TX FIFO and TX shift register.
 432:Generated_Source\PSoC6\pdl\drivers\peripheral\scb/cy_scb_common.h **** */
 433:Generated_Source\PSoC6\pdl\drivers\peripheral\scb/cy_scb_common.h **** #define CY_SCB_MASTER_INTR_SPI_DONE        SCB_INTR_M_SPI_DONE_Msk
 434:Generated_Source\PSoC6\pdl\drivers\peripheral\scb/cy_scb_common.h **** /** \} group_scb_common_macros_master_intr */
 435:Generated_Source\PSoC6\pdl\drivers\peripheral\scb/cy_scb_common.h **** 
 436:Generated_Source\PSoC6\pdl\drivers\peripheral\scb/cy_scb_common.h **** /**
 437:Generated_Source\PSoC6\pdl\drivers\peripheral\scb/cy_scb_common.h **** * \defgroup group_scb_common_macros_i2c_intr I2C Interrupt Statuses
 438:Generated_Source\PSoC6\pdl\drivers\peripheral\scb/cy_scb_common.h **** * \{
 439:Generated_Source\PSoC6\pdl\drivers\peripheral\scb/cy_scb_common.h **** */
 440:Generated_Source\PSoC6\pdl\drivers\peripheral\scb/cy_scb_common.h **** /**
 441:Generated_Source\PSoC6\pdl\drivers\peripheral\scb/cy_scb_common.h **** * Wake up request: the I2C slave received the matching address.
 442:Generated_Source\PSoC6\pdl\drivers\peripheral\scb/cy_scb_common.h **** * Note that this interrupt source triggers in active mode.
 443:Generated_Source\PSoC6\pdl\drivers\peripheral\scb/cy_scb_common.h **** */
 444:Generated_Source\PSoC6\pdl\drivers\peripheral\scb/cy_scb_common.h **** #define CY_SCB_I2C_INTR_WAKEUP     SCB_INTR_I2C_EC_WAKE_UP_Msk
 445:Generated_Source\PSoC6\pdl\drivers\peripheral\scb/cy_scb_common.h **** /** \} group_scb_common_macros_i2c_intr */
 446:Generated_Source\PSoC6\pdl\drivers\peripheral\scb/cy_scb_common.h **** 
 447:Generated_Source\PSoC6\pdl\drivers\peripheral\scb/cy_scb_common.h **** /**
 448:Generated_Source\PSoC6\pdl\drivers\peripheral\scb/cy_scb_common.h **** * \defgroup group_scb_common_macros_SpiIntrStatuses SPI Interrupt Statuses
 449:Generated_Source\PSoC6\pdl\drivers\peripheral\scb/cy_scb_common.h **** * \{
 450:Generated_Source\PSoC6\pdl\drivers\peripheral\scb/cy_scb_common.h **** */
 451:Generated_Source\PSoC6\pdl\drivers\peripheral\scb/cy_scb_common.h **** /**
 452:Generated_Source\PSoC6\pdl\drivers\peripheral\scb/cy_scb_common.h **** * Wake up request: the SPI slave detects an active edge of the slave select
 453:Generated_Source\PSoC6\pdl\drivers\peripheral\scb/cy_scb_common.h **** * signal. Note that this interrupt source triggers in active mode.
 454:Generated_Source\PSoC6\pdl\drivers\peripheral\scb/cy_scb_common.h **** */
 455:Generated_Source\PSoC6\pdl\drivers\peripheral\scb/cy_scb_common.h **** #define CY_SCB_SPI_INTR_WAKEUP     SCB_INTR_SPI_EC_WAKE_UP_Msk
 456:Generated_Source\PSoC6\pdl\drivers\peripheral\scb/cy_scb_common.h **** /** \} group_scb_common_macros_SpiIntrStatuses */
 457:Generated_Source\PSoC6\pdl\drivers\peripheral\scb/cy_scb_common.h **** 
 458:Generated_Source\PSoC6\pdl\drivers\peripheral\scb/cy_scb_common.h **** 
 459:Generated_Source\PSoC6\pdl\drivers\peripheral\scb/cy_scb_common.h **** /*******************************************************************************
 460:Generated_Source\PSoC6\pdl\drivers\peripheral\scb/cy_scb_common.h **** *                           Internal Constants
 461:Generated_Source\PSoC6\pdl\drivers\peripheral\scb/cy_scb_common.h **** *******************************************************************************/
 462:Generated_Source\PSoC6\pdl\drivers\peripheral\scb/cy_scb_common.h **** 
 463:Generated_Source\PSoC6\pdl\drivers\peripheral\scb/cy_scb_common.h **** /** \cond INTERNAL */
 464:Generated_Source\PSoC6\pdl\drivers\peripheral\scb/cy_scb_common.h **** 
 465:Generated_Source\PSoC6\pdl\drivers\peripheral\scb/cy_scb_common.h **** /* Default registers values */
ARM GAS  C:\Users\pearlstl\AppData\Local\Temp\ccAUXqAU.s 			page 37


 466:Generated_Source\PSoC6\pdl\drivers\peripheral\scb/cy_scb_common.h **** #define CY_SCB_CTRL_DEF_VAL         (_VAL2FLD(SCB_CTRL_OVS, 15UL) | \
 467:Generated_Source\PSoC6\pdl\drivers\peripheral\scb/cy_scb_common.h ****                                      _VAL2FLD(SCB_CTRL_MODE, 3UL))
 468:Generated_Source\PSoC6\pdl\drivers\peripheral\scb/cy_scb_common.h **** 
 469:Generated_Source\PSoC6\pdl\drivers\peripheral\scb/cy_scb_common.h **** #define CY_SCB_I2C_CTRL_DEF_VAL     (_VAL2FLD(SCB_I2C_CTRL_HIGH_PHASE_OVS, 8UL)        | \
 470:Generated_Source\PSoC6\pdl\drivers\peripheral\scb/cy_scb_common.h ****                                      _VAL2FLD(SCB_I2C_CTRL_HIGH_PHASE_OVS, 8UL)        | \
 471:Generated_Source\PSoC6\pdl\drivers\peripheral\scb/cy_scb_common.h ****                                      _VAL2FLD(SCB_I2C_CTRL_M_READY_DATA_ACK, 1UL)      | \
 472:Generated_Source\PSoC6\pdl\drivers\peripheral\scb/cy_scb_common.h ****                                      _VAL2FLD(SCB_I2C_CTRL_M_NOT_READY_DATA_NACK, 1UL) | \
 473:Generated_Source\PSoC6\pdl\drivers\peripheral\scb/cy_scb_common.h ****                                      _VAL2FLD(SCB_I2C_CTRL_S_GENERAL_IGNORE, 1UL)      | \
 474:Generated_Source\PSoC6\pdl\drivers\peripheral\scb/cy_scb_common.h ****                                      _VAL2FLD(SCB_I2C_CTRL_S_READY_ADDR_ACK, 1UL)      | \
 475:Generated_Source\PSoC6\pdl\drivers\peripheral\scb/cy_scb_common.h ****                                      _VAL2FLD(SCB_I2C_CTRL_S_READY_DATA_ACK, 1UL)      | \
 476:Generated_Source\PSoC6\pdl\drivers\peripheral\scb/cy_scb_common.h ****                                      _VAL2FLD(SCB_I2C_CTRL_S_NOT_READY_ADDR_NACK, 1UL) | \
 477:Generated_Source\PSoC6\pdl\drivers\peripheral\scb/cy_scb_common.h ****                                      _VAL2FLD(SCB_I2C_CTRL_S_NOT_READY_DATA_NACK, 1UL))
 478:Generated_Source\PSoC6\pdl\drivers\peripheral\scb/cy_scb_common.h **** 
 479:Generated_Source\PSoC6\pdl\drivers\peripheral\scb/cy_scb_common.h **** #define CY_SCB_I2C_CFG_DEF_VAL      (_VAL2FLD(SCB_I2C_CFG_SDA_IN_FILT_TRIM, 3UL)   | \
 480:Generated_Source\PSoC6\pdl\drivers\peripheral\scb/cy_scb_common.h ****                                      _VAL2FLD(SCB_I2C_CFG_SDA_IN_FILT_SEL, 1UL)    | \
 481:Generated_Source\PSoC6\pdl\drivers\peripheral\scb/cy_scb_common.h ****                                      _VAL2FLD(SCB_I2C_CFG_SCL_IN_FILT_SEL, 1UL)    | \
 482:Generated_Source\PSoC6\pdl\drivers\peripheral\scb/cy_scb_common.h ****                                      _VAL2FLD(SCB_I2C_CFG_SDA_OUT_FILT0_TRIM, 2UL) | \
 483:Generated_Source\PSoC6\pdl\drivers\peripheral\scb/cy_scb_common.h ****                                      _VAL2FLD(SCB_I2C_CFG_SDA_OUT_FILT1_TRIM, 2UL) | \
 484:Generated_Source\PSoC6\pdl\drivers\peripheral\scb/cy_scb_common.h ****                                      _VAL2FLD(SCB_I2C_CFG_SDA_OUT_FILT2_TRIM, 2UL))
 485:Generated_Source\PSoC6\pdl\drivers\peripheral\scb/cy_scb_common.h **** 
 486:Generated_Source\PSoC6\pdl\drivers\peripheral\scb/cy_scb_common.h **** #define CY_SCB_SPI_CTRL_DEF_VAL     _VAL2FLD(SCB_SPI_CTRL_MODE, 3UL)
 487:Generated_Source\PSoC6\pdl\drivers\peripheral\scb/cy_scb_common.h **** #define CY_SCB_UART_CTRL_DEF_VAL    _VAL2FLD(SCB_UART_CTRL_MODE, 3UL)
 488:Generated_Source\PSoC6\pdl\drivers\peripheral\scb/cy_scb_common.h **** 
 489:Generated_Source\PSoC6\pdl\drivers\peripheral\scb/cy_scb_common.h **** #define CY_SCB_UART_RX_CTRL_DEF_VAL (_VAL2FLD(SCB_UART_RX_CTRL_STOP_BITS, 2UL) | \
 490:Generated_Source\PSoC6\pdl\drivers\peripheral\scb/cy_scb_common.h ****                                      _VAL2FLD(SCB_UART_RX_CTRL_BREAK_WIDTH, 10UL))
 491:Generated_Source\PSoC6\pdl\drivers\peripheral\scb/cy_scb_common.h **** 
 492:Generated_Source\PSoC6\pdl\drivers\peripheral\scb/cy_scb_common.h **** #define CY_SCB_UART_TX_CTRL_DEF_VAL _VAL2FLD(SCB_UART_TX_CTRL_STOP_BITS, 2UL)
 493:Generated_Source\PSoC6\pdl\drivers\peripheral\scb/cy_scb_common.h **** 
 494:Generated_Source\PSoC6\pdl\drivers\peripheral\scb/cy_scb_common.h **** #define CY_SCB_RX_CTRL_DEF_VAL      (_VAL2FLD(SCB_RX_CTRL_DATA_WIDTH, 7UL) | \
 495:Generated_Source\PSoC6\pdl\drivers\peripheral\scb/cy_scb_common.h ****                                      _VAL2FLD(SCB_RX_CTRL_MSB_FIRST,  1UL))
 496:Generated_Source\PSoC6\pdl\drivers\peripheral\scb/cy_scb_common.h **** 
 497:Generated_Source\PSoC6\pdl\drivers\peripheral\scb/cy_scb_common.h **** #define CY_SCB_TX_CTRL_DEF_VAL      (_VAL2FLD(SCB_TX_CTRL_DATA_WIDTH, 7UL) | \
 498:Generated_Source\PSoC6\pdl\drivers\peripheral\scb/cy_scb_common.h ****                                      _VAL2FLD(SCB_TX_CTRL_MSB_FIRST,  1UL))
 499:Generated_Source\PSoC6\pdl\drivers\peripheral\scb/cy_scb_common.h **** 
 500:Generated_Source\PSoC6\pdl\drivers\peripheral\scb/cy_scb_common.h **** /* SCB CTRL modes */
 501:Generated_Source\PSoC6\pdl\drivers\peripheral\scb/cy_scb_common.h **** #define CY_SCB_CTRL_MODE_I2C   (0UL)
 502:Generated_Source\PSoC6\pdl\drivers\peripheral\scb/cy_scb_common.h **** #define CY_SCB_CTRL_MODE_SPI   (1UL)
 503:Generated_Source\PSoC6\pdl\drivers\peripheral\scb/cy_scb_common.h **** #define CY_SCB_CTRL_MODE_UART  (2UL)
 504:Generated_Source\PSoC6\pdl\drivers\peripheral\scb/cy_scb_common.h **** 
 505:Generated_Source\PSoC6\pdl\drivers\peripheral\scb/cy_scb_common.h **** /* The position and mask to set the I2C mode */
 506:Generated_Source\PSoC6\pdl\drivers\peripheral\scb/cy_scb_common.h **** #define CY_SCB_I2C_CTRL_MODE_Pos    SCB_I2C_CTRL_SLAVE_MODE_Pos
 507:Generated_Source\PSoC6\pdl\drivers\peripheral\scb/cy_scb_common.h **** #define CY_SCB_I2C_CTRL_MODE_Msk    (SCB_I2C_CTRL_SLAVE_MODE_Msk | \
 508:Generated_Source\PSoC6\pdl\drivers\peripheral\scb/cy_scb_common.h ****                                      SCB_I2C_CTRL_MASTER_MODE_Msk)
 509:Generated_Source\PSoC6\pdl\drivers\peripheral\scb/cy_scb_common.h **** 
 510:Generated_Source\PSoC6\pdl\drivers\peripheral\scb/cy_scb_common.h **** /* Cypress ID #282226:
 511:Generated_Source\PSoC6\pdl\drivers\peripheral\scb/cy_scb_common.h **** * SCB_I2C_CFG_SDA_IN_FILT_TRIM[1]: SCB clock enable (1), clock disable (0).
 512:Generated_Source\PSoC6\pdl\drivers\peripheral\scb/cy_scb_common.h **** */
 513:Generated_Source\PSoC6\pdl\drivers\peripheral\scb/cy_scb_common.h **** #define CY_SCB_I2C_CFG_CLK_ENABLE_Msk  (_VAL2FLD(SCB_I2C_CFG_SDA_IN_FILT_TRIM, 2UL))
 514:Generated_Source\PSoC6\pdl\drivers\peripheral\scb/cy_scb_common.h **** 
 515:Generated_Source\PSoC6\pdl\drivers\peripheral\scb/cy_scb_common.h **** /* I2C has fixed data width */
 516:Generated_Source\PSoC6\pdl\drivers\peripheral\scb/cy_scb_common.h **** #define CY_SCB_I2C_DATA_WIDTH   (7UL)
 517:Generated_Source\PSoC6\pdl\drivers\peripheral\scb/cy_scb_common.h **** 
 518:Generated_Source\PSoC6\pdl\drivers\peripheral\scb/cy_scb_common.h **** /* RX and TX control register values */
 519:Generated_Source\PSoC6\pdl\drivers\peripheral\scb/cy_scb_common.h **** #define CY_SCB_I2C_RX_CTRL      (_VAL2FLD(SCB_RX_CTRL_DATA_WIDTH, CY_SCB_I2C_DATA_WIDTH) | \
 520:Generated_Source\PSoC6\pdl\drivers\peripheral\scb/cy_scb_common.h ****                                  SCB_RX_CTRL_MSB_FIRST_Msk)
 521:Generated_Source\PSoC6\pdl\drivers\peripheral\scb/cy_scb_common.h **** #define CY_SCB_I2C_TX_CTRL      (_VAL2FLD(SCB_TX_CTRL_DATA_WIDTH, CY_SCB_I2C_DATA_WIDTH) | \
 522:Generated_Source\PSoC6\pdl\drivers\peripheral\scb/cy_scb_common.h ****                                  SCB_TX_CTRL_MSB_FIRST_Msk | SCB_TX_CTRL_OPEN_DRAIN_Msk)
ARM GAS  C:\Users\pearlstl\AppData\Local\Temp\ccAUXqAU.s 			page 38


 523:Generated_Source\PSoC6\pdl\drivers\peripheral\scb/cy_scb_common.h **** 
 524:Generated_Source\PSoC6\pdl\drivers\peripheral\scb/cy_scb_common.h **** /* The position and mask to make an address byte */
 525:Generated_Source\PSoC6\pdl\drivers\peripheral\scb/cy_scb_common.h **** #define CY_SCB_I2C_ADDRESS_Pos  (1UL)
 526:Generated_Source\PSoC6\pdl\drivers\peripheral\scb/cy_scb_common.h **** #define CY_SCB_I2C_ADDRESS_Msk  (0xFEUL)
 527:Generated_Source\PSoC6\pdl\drivers\peripheral\scb/cy_scb_common.h **** 
 528:Generated_Source\PSoC6\pdl\drivers\peripheral\scb/cy_scb_common.h **** /* SPI slave select polarity */
 529:Generated_Source\PSoC6\pdl\drivers\peripheral\scb/cy_scb_common.h **** #define CY_SCB_SPI_CTRL_SSEL_POLARITY_Pos   SCB_SPI_CTRL_SSEL_POLARITY0_Pos
 530:Generated_Source\PSoC6\pdl\drivers\peripheral\scb/cy_scb_common.h **** #define CY_SCB_SPI_CTRL_SSEL_POLARITY_Msk   (SCB_SPI_CTRL_SSEL_POLARITY0_Msk | \
 531:Generated_Source\PSoC6\pdl\drivers\peripheral\scb/cy_scb_common.h ****                                              SCB_SPI_CTRL_SSEL_POLARITY1_Msk | \
 532:Generated_Source\PSoC6\pdl\drivers\peripheral\scb/cy_scb_common.h ****                                              SCB_SPI_CTRL_SSEL_POLARITY2_Msk | \
 533:Generated_Source\PSoC6\pdl\drivers\peripheral\scb/cy_scb_common.h ****                                              SCB_SPI_CTRL_SSEL_POLARITY3_Msk)
 534:Generated_Source\PSoC6\pdl\drivers\peripheral\scb/cy_scb_common.h **** 
 535:Generated_Source\PSoC6\pdl\drivers\peripheral\scb/cy_scb_common.h **** /* SPI clock modes: CPHA and CPOL */
 536:Generated_Source\PSoC6\pdl\drivers\peripheral\scb/cy_scb_common.h **** #define CY_SCB_SPI_CTRL_CLK_MODE_Pos    SCB_SPI_CTRL_CPHA_Pos
 537:Generated_Source\PSoC6\pdl\drivers\peripheral\scb/cy_scb_common.h **** #define CY_SCB_SPI_CTRL_CLK_MODE_Msk    (SCB_SPI_CTRL_CPHA_Msk | SCB_SPI_CTRL_CPOL_Msk)
 538:Generated_Source\PSoC6\pdl\drivers\peripheral\scb/cy_scb_common.h **** 
 539:Generated_Source\PSoC6\pdl\drivers\peripheral\scb/cy_scb_common.h **** /* UART parity and parity enable combination */
 540:Generated_Source\PSoC6\pdl\drivers\peripheral\scb/cy_scb_common.h **** #define CY_SCB_UART_RX_CTRL_SET_PARITY_Msk      (SCB_UART_RX_CTRL_PARITY_ENABLED_Msk | \
 541:Generated_Source\PSoC6\pdl\drivers\peripheral\scb/cy_scb_common.h ****                                                  SCB_UART_RX_CTRL_PARITY_Msk)
 542:Generated_Source\PSoC6\pdl\drivers\peripheral\scb/cy_scb_common.h **** #define CY_SCB_UART_RX_CTRL_SET_PARITY_Pos      SCB_UART_RX_CTRL_PARITY_Pos
 543:Generated_Source\PSoC6\pdl\drivers\peripheral\scb/cy_scb_common.h **** 
 544:Generated_Source\PSoC6\pdl\drivers\peripheral\scb/cy_scb_common.h **** #define CY_SCB_UART_TX_CTRL_SET_PARITY_Msk      (SCB_UART_TX_CTRL_PARITY_ENABLED_Msk | \
 545:Generated_Source\PSoC6\pdl\drivers\peripheral\scb/cy_scb_common.h ****                                                  SCB_UART_TX_CTRL_PARITY_Msk)
 546:Generated_Source\PSoC6\pdl\drivers\peripheral\scb/cy_scb_common.h **** #define CY_SCB_UART_TX_CTRL_SET_PARITY_Pos      SCB_UART_TX_CTRL_PARITY_Pos
 547:Generated_Source\PSoC6\pdl\drivers\peripheral\scb/cy_scb_common.h **** 
 548:Generated_Source\PSoC6\pdl\drivers\peripheral\scb/cy_scb_common.h **** /* Max number of bits for byte mode */
 549:Generated_Source\PSoC6\pdl\drivers\peripheral\scb/cy_scb_common.h **** #define CY_SCB_BYTE_WIDTH   (8UL)
 550:Generated_Source\PSoC6\pdl\drivers\peripheral\scb/cy_scb_common.h **** 
 551:Generated_Source\PSoC6\pdl\drivers\peripheral\scb/cy_scb_common.h **** /* Single unit to wait */
 552:Generated_Source\PSoC6\pdl\drivers\peripheral\scb/cy_scb_common.h **** #define CY_SCB_WAIT_1_UNIT  (1U)
 553:Generated_Source\PSoC6\pdl\drivers\peripheral\scb/cy_scb_common.h **** 
 554:Generated_Source\PSoC6\pdl\drivers\peripheral\scb/cy_scb_common.h **** /* Clear interrupt sources */
 555:Generated_Source\PSoC6\pdl\drivers\peripheral\scb/cy_scb_common.h **** #define CY_SCB_CLEAR_ALL_INTR_SRC   (0UL)
 556:Generated_Source\PSoC6\pdl\drivers\peripheral\scb/cy_scb_common.h **** 
 557:Generated_Source\PSoC6\pdl\drivers\peripheral\scb/cy_scb_common.h **** /* Hardware FIFO size: EZ_DATA_NR / 4 = (512 / 4) = 128 */
 558:Generated_Source\PSoC6\pdl\drivers\peripheral\scb/cy_scb_common.h **** #define CY_SCB_FIFO_SIZE            (128UL)
 559:Generated_Source\PSoC6\pdl\drivers\peripheral\scb/cy_scb_common.h **** 
 560:Generated_Source\PSoC6\pdl\drivers\peripheral\scb/cy_scb_common.h **** /* Provides a list of allowed sources */
 561:Generated_Source\PSoC6\pdl\drivers\peripheral\scb/cy_scb_common.h **** #define CY_SCB_TX_INTR_MASK     (CY_SCB_TX_INTR_LEVEL     | CY_SCB_TX_INTR_NOT_FULL  | CY_SCB_TX_IN
 562:Generated_Source\PSoC6\pdl\drivers\peripheral\scb/cy_scb_common.h ****                                  CY_SCB_TX_INTR_OVERFLOW  | CY_SCB_TX_INTR_UNDERFLOW | CY_SCB_TX_IN
 563:Generated_Source\PSoC6\pdl\drivers\peripheral\scb/cy_scb_common.h ****                                  CY_SCB_TX_INTR_UART_NACK | CY_SCB_TX_INTR_UART_ARB_LOST)
 564:Generated_Source\PSoC6\pdl\drivers\peripheral\scb/cy_scb_common.h **** 
 565:Generated_Source\PSoC6\pdl\drivers\peripheral\scb/cy_scb_common.h **** #define CY_SCB_RX_INTR_MASK     (CY_SCB_RX_INTR_LEVEL             | CY_SCB_RX_INTR_NOT_EMPTY | CY_S
 566:Generated_Source\PSoC6\pdl\drivers\peripheral\scb/cy_scb_common.h ****                                  CY_SCB_RX_INTR_OVERFLOW          | CY_SCB_RX_INTR_UNDERFLOW       
 567:Generated_Source\PSoC6\pdl\drivers\peripheral\scb/cy_scb_common.h ****                                  CY_SCB_RX_INTR_UART_FRAME_ERROR  | CY_SCB_RX_INTR_UART_PARITY_ERRO
 568:Generated_Source\PSoC6\pdl\drivers\peripheral\scb/cy_scb_common.h ****                                  CY_SCB_RX_INTR_UART_BREAK_DETECT)
 569:Generated_Source\PSoC6\pdl\drivers\peripheral\scb/cy_scb_common.h **** 
 570:Generated_Source\PSoC6\pdl\drivers\peripheral\scb/cy_scb_common.h **** 
 571:Generated_Source\PSoC6\pdl\drivers\peripheral\scb/cy_scb_common.h **** #define CY_SCB_SLAVE_INTR_MASK  (CY_SCB_SLAVE_INTR_I2C_ARB_LOST   | CY_SCB_SLAVE_INTR_I2C_NACK | CY
 572:Generated_Source\PSoC6\pdl\drivers\peripheral\scb/cy_scb_common.h ****                                  CY_SCB_SLAVE_INTR_I2C_WRITE_STOP | CY_SCB_SLAVE_INTR_I2C_STOP | CY
 573:Generated_Source\PSoC6\pdl\drivers\peripheral\scb/cy_scb_common.h ****                                  CY_SCB_SLAVE_INTR_I2C_ADDR_MATCH | CY_SCB_SLAVE_INTR_I2C_GENERAL_A
 574:Generated_Source\PSoC6\pdl\drivers\peripheral\scb/cy_scb_common.h ****                                  CY_SCB_SLAVE_INTR_I2C_BUS_ERROR  | CY_SCB_SLAVE_INTR_SPI_BUS_ERROR
 575:Generated_Source\PSoC6\pdl\drivers\peripheral\scb/cy_scb_common.h **** 
 576:Generated_Source\PSoC6\pdl\drivers\peripheral\scb/cy_scb_common.h **** #define CY_SCB_MASTER_INTR_MASK (CY_SCB_MASTER_INTR_I2C_ARB_LOST  | CY_SCB_MASTER_INTR_I2C_NACK | \
 577:Generated_Source\PSoC6\pdl\drivers\peripheral\scb/cy_scb_common.h ****                                  CY_SCB_MASTER_INTR_I2C_ACK       | CY_SCB_MASTER_INTR_I2C_STOP | \
 578:Generated_Source\PSoC6\pdl\drivers\peripheral\scb/cy_scb_common.h ****                                  CY_SCB_MASTER_INTR_I2C_BUS_ERROR | CY_SCB_MASTER_INTR_SPI_DONE)
 579:Generated_Source\PSoC6\pdl\drivers\peripheral\scb/cy_scb_common.h **** 
ARM GAS  C:\Users\pearlstl\AppData\Local\Temp\ccAUXqAU.s 			page 39


 580:Generated_Source\PSoC6\pdl\drivers\peripheral\scb/cy_scb_common.h **** #define CY_SCB_I2C_INTR_MASK    CY_SCB_I2C_INTR_WAKEUP
 581:Generated_Source\PSoC6\pdl\drivers\peripheral\scb/cy_scb_common.h **** 
 582:Generated_Source\PSoC6\pdl\drivers\peripheral\scb/cy_scb_common.h **** #define CY_SCB_SPI_INTR_MASK    CY_SCB_SPI_INTR_WAKEUP
 583:Generated_Source\PSoC6\pdl\drivers\peripheral\scb/cy_scb_common.h **** 
 584:Generated_Source\PSoC6\pdl\drivers\peripheral\scb/cy_scb_common.h **** #define CY_SCB_IS_INTR_VALID(intr, mask)            ( 0UL == ((intr) & ((uint32_t) ~(mask))) )
 585:Generated_Source\PSoC6\pdl\drivers\peripheral\scb/cy_scb_common.h **** #define CY_SCB_IS_TRIGGER_LEVEL_VALID(base, level)  ((level) < Cy_SCB_GetFifoSize(base))
 586:Generated_Source\PSoC6\pdl\drivers\peripheral\scb/cy_scb_common.h **** 
 587:Generated_Source\PSoC6\pdl\drivers\peripheral\scb/cy_scb_common.h **** #define CY_SCB_IS_I2C_ADDR_VALID(addr)              ( (0U == ((addr) & 0x80U)) )
 588:Generated_Source\PSoC6\pdl\drivers\peripheral\scb/cy_scb_common.h **** #define CY_SCB_IS_BUFFER_VALID(buffer, size)        ( (NULL != (buffer)) && ((size) > 0UL) )
 589:Generated_Source\PSoC6\pdl\drivers\peripheral\scb/cy_scb_common.h **** #define CY_SCB_IS_I2C_BUFFER_VALID(buffer, size)    ( (0UL == (size)) ? true : (NULL != (buffer)) )
 590:Generated_Source\PSoC6\pdl\drivers\peripheral\scb/cy_scb_common.h **** /** \endcond */
 591:Generated_Source\PSoC6\pdl\drivers\peripheral\scb/cy_scb_common.h **** 
 592:Generated_Source\PSoC6\pdl\drivers\peripheral\scb/cy_scb_common.h **** /** \} group_scb_common_macros */
 593:Generated_Source\PSoC6\pdl\drivers\peripheral\scb/cy_scb_common.h **** 
 594:Generated_Source\PSoC6\pdl\drivers\peripheral\scb/cy_scb_common.h **** 
 595:Generated_Source\PSoC6\pdl\drivers\peripheral\scb/cy_scb_common.h **** /*******************************************************************************
 596:Generated_Source\PSoC6\pdl\drivers\peripheral\scb/cy_scb_common.h **** *                       In-line Function Implementation
 597:Generated_Source\PSoC6\pdl\drivers\peripheral\scb/cy_scb_common.h **** *******************************************************************************/
 598:Generated_Source\PSoC6\pdl\drivers\peripheral\scb/cy_scb_common.h **** 
 599:Generated_Source\PSoC6\pdl\drivers\peripheral\scb/cy_scb_common.h **** /**
 600:Generated_Source\PSoC6\pdl\drivers\peripheral\scb/cy_scb_common.h **** * \addtogroup group_scb_common_functions
 601:Generated_Source\PSoC6\pdl\drivers\peripheral\scb/cy_scb_common.h **** * \{
 602:Generated_Source\PSoC6\pdl\drivers\peripheral\scb/cy_scb_common.h **** */
 603:Generated_Source\PSoC6\pdl\drivers\peripheral\scb/cy_scb_common.h **** 
 604:Generated_Source\PSoC6\pdl\drivers\peripheral\scb/cy_scb_common.h **** /*******************************************************************************
 605:Generated_Source\PSoC6\pdl\drivers\peripheral\scb/cy_scb_common.h **** * Function Name: Cy_SCB_ReadRxFifo
 606:Generated_Source\PSoC6\pdl\drivers\peripheral\scb/cy_scb_common.h **** ****************************************************************************//**
 607:Generated_Source\PSoC6\pdl\drivers\peripheral\scb/cy_scb_common.h **** *
 608:Generated_Source\PSoC6\pdl\drivers\peripheral\scb/cy_scb_common.h **** * Reads a data element directly out of the RX FIFO.
 609:Generated_Source\PSoC6\pdl\drivers\peripheral\scb/cy_scb_common.h **** * This function does not check whether the RX FIFO has data before reading it.
 610:Generated_Source\PSoC6\pdl\drivers\peripheral\scb/cy_scb_common.h **** *
 611:Generated_Source\PSoC6\pdl\drivers\peripheral\scb/cy_scb_common.h **** * \param base
 612:Generated_Source\PSoC6\pdl\drivers\peripheral\scb/cy_scb_common.h **** * The pointer to the SCB instance.
 613:Generated_Source\PSoC6\pdl\drivers\peripheral\scb/cy_scb_common.h **** *
 614:Generated_Source\PSoC6\pdl\drivers\peripheral\scb/cy_scb_common.h **** * \return
 615:Generated_Source\PSoC6\pdl\drivers\peripheral\scb/cy_scb_common.h **** * Data from RX FIFO.
 616:Generated_Source\PSoC6\pdl\drivers\peripheral\scb/cy_scb_common.h **** *
 617:Generated_Source\PSoC6\pdl\drivers\peripheral\scb/cy_scb_common.h **** *******************************************************************************/
 618:Generated_Source\PSoC6\pdl\drivers\peripheral\scb/cy_scb_common.h **** __STATIC_INLINE uint32_t Cy_SCB_ReadRxFifo(CySCB_Type const *base)
 619:Generated_Source\PSoC6\pdl\drivers\peripheral\scb/cy_scb_common.h **** {
 620:Generated_Source\PSoC6\pdl\drivers\peripheral\scb/cy_scb_common.h ****     return (SCB_RX_FIFO_RD(base));
 621:Generated_Source\PSoC6\pdl\drivers\peripheral\scb/cy_scb_common.h **** }
 622:Generated_Source\PSoC6\pdl\drivers\peripheral\scb/cy_scb_common.h **** 
 623:Generated_Source\PSoC6\pdl\drivers\peripheral\scb/cy_scb_common.h **** /*******************************************************************************
 624:Generated_Source\PSoC6\pdl\drivers\peripheral\scb/cy_scb_common.h **** * Function Name: Cy_SCB_SetRxFifoLevel
 625:Generated_Source\PSoC6\pdl\drivers\peripheral\scb/cy_scb_common.h **** ****************************************************************************//**
 626:Generated_Source\PSoC6\pdl\drivers\peripheral\scb/cy_scb_common.h **** *
 627:Generated_Source\PSoC6\pdl\drivers\peripheral\scb/cy_scb_common.h **** * Sets the RX FIFO level. When there are more data elements in the RX FIFO than
 628:Generated_Source\PSoC6\pdl\drivers\peripheral\scb/cy_scb_common.h **** * this level, the RX FIFO level interrupt is triggered.
 629:Generated_Source\PSoC6\pdl\drivers\peripheral\scb/cy_scb_common.h **** *
 630:Generated_Source\PSoC6\pdl\drivers\peripheral\scb/cy_scb_common.h **** * \param base
 631:Generated_Source\PSoC6\pdl\drivers\peripheral\scb/cy_scb_common.h **** * The pointer to the SCB instance.
 632:Generated_Source\PSoC6\pdl\drivers\peripheral\scb/cy_scb_common.h **** *
 633:Generated_Source\PSoC6\pdl\drivers\peripheral\scb/cy_scb_common.h **** * \param level
 634:Generated_Source\PSoC6\pdl\drivers\peripheral\scb/cy_scb_common.h **** * When there are more data elements in the FIFO than this level, the RX level
 635:Generated_Source\PSoC6\pdl\drivers\peripheral\scb/cy_scb_common.h **** * interrupt is triggered.
 636:Generated_Source\PSoC6\pdl\drivers\peripheral\scb/cy_scb_common.h **** *
ARM GAS  C:\Users\pearlstl\AppData\Local\Temp\ccAUXqAU.s 			page 40


 637:Generated_Source\PSoC6\pdl\drivers\peripheral\scb/cy_scb_common.h **** *******************************************************************************/
 638:Generated_Source\PSoC6\pdl\drivers\peripheral\scb/cy_scb_common.h **** __STATIC_INLINE void Cy_SCB_SetRxFifoLevel(CySCB_Type *base, uint32_t level)
 639:Generated_Source\PSoC6\pdl\drivers\peripheral\scb/cy_scb_common.h **** {
 640:Generated_Source\PSoC6\pdl\drivers\peripheral\scb/cy_scb_common.h ****     CY_ASSERT_L2(CY_SCB_IS_TRIGGER_LEVEL_VALID(base, level));
 641:Generated_Source\PSoC6\pdl\drivers\peripheral\scb/cy_scb_common.h **** 
 642:Generated_Source\PSoC6\pdl\drivers\peripheral\scb/cy_scb_common.h ****     CY_REG32_CLR_SET(SCB_RX_FIFO_CTRL(base), SCB_RX_FIFO_CTRL_TRIGGER_LEVEL, level);
 643:Generated_Source\PSoC6\pdl\drivers\peripheral\scb/cy_scb_common.h **** }
 644:Generated_Source\PSoC6\pdl\drivers\peripheral\scb/cy_scb_common.h **** 
 645:Generated_Source\PSoC6\pdl\drivers\peripheral\scb/cy_scb_common.h **** 
 646:Generated_Source\PSoC6\pdl\drivers\peripheral\scb/cy_scb_common.h **** /*******************************************************************************
 647:Generated_Source\PSoC6\pdl\drivers\peripheral\scb/cy_scb_common.h **** * Function Name: Cy_SCB_GetNumInRxFifo
 648:Generated_Source\PSoC6\pdl\drivers\peripheral\scb/cy_scb_common.h **** ****************************************************************************//**
 649:Generated_Source\PSoC6\pdl\drivers\peripheral\scb/cy_scb_common.h **** *
 650:Generated_Source\PSoC6\pdl\drivers\peripheral\scb/cy_scb_common.h **** * Returns the number of data elements currently in the RX FIFO.
 651:Generated_Source\PSoC6\pdl\drivers\peripheral\scb/cy_scb_common.h **** *
 652:Generated_Source\PSoC6\pdl\drivers\peripheral\scb/cy_scb_common.h **** * \param base
 653:Generated_Source\PSoC6\pdl\drivers\peripheral\scb/cy_scb_common.h **** * The pointer to the SCB instance.
 654:Generated_Source\PSoC6\pdl\drivers\peripheral\scb/cy_scb_common.h **** *
 655:Generated_Source\PSoC6\pdl\drivers\peripheral\scb/cy_scb_common.h **** * \return
 656:Generated_Source\PSoC6\pdl\drivers\peripheral\scb/cy_scb_common.h **** * The number or data elements in RX FIFO.
 657:Generated_Source\PSoC6\pdl\drivers\peripheral\scb/cy_scb_common.h **** *
 658:Generated_Source\PSoC6\pdl\drivers\peripheral\scb/cy_scb_common.h **** *******************************************************************************/
 659:Generated_Source\PSoC6\pdl\drivers\peripheral\scb/cy_scb_common.h **** __STATIC_INLINE uint32_t Cy_SCB_GetNumInRxFifo(CySCB_Type const *base)
 660:Generated_Source\PSoC6\pdl\drivers\peripheral\scb/cy_scb_common.h **** {
 661:Generated_Source\PSoC6\pdl\drivers\peripheral\scb/cy_scb_common.h ****     return _FLD2VAL(SCB_RX_FIFO_STATUS_USED, SCB_RX_FIFO_STATUS(base));
 662:Generated_Source\PSoC6\pdl\drivers\peripheral\scb/cy_scb_common.h **** }
 663:Generated_Source\PSoC6\pdl\drivers\peripheral\scb/cy_scb_common.h **** 
 664:Generated_Source\PSoC6\pdl\drivers\peripheral\scb/cy_scb_common.h **** 
 665:Generated_Source\PSoC6\pdl\drivers\peripheral\scb/cy_scb_common.h **** /*******************************************************************************
 666:Generated_Source\PSoC6\pdl\drivers\peripheral\scb/cy_scb_common.h **** * Function Name: Cy_SCB_GetRxSrValid
 667:Generated_Source\PSoC6\pdl\drivers\peripheral\scb/cy_scb_common.h **** ****************************************************************************//**
 668:Generated_Source\PSoC6\pdl\drivers\peripheral\scb/cy_scb_common.h **** *
 669:Generated_Source\PSoC6\pdl\drivers\peripheral\scb/cy_scb_common.h **** * Returns the status of the RX FIFO Shift Register valid bit.
 670:Generated_Source\PSoC6\pdl\drivers\peripheral\scb/cy_scb_common.h **** *
 671:Generated_Source\PSoC6\pdl\drivers\peripheral\scb/cy_scb_common.h **** * \param base
 672:Generated_Source\PSoC6\pdl\drivers\peripheral\scb/cy_scb_common.h **** * The pointer to the SCB instance.
 673:Generated_Source\PSoC6\pdl\drivers\peripheral\scb/cy_scb_common.h **** *
 674:Generated_Source\PSoC6\pdl\drivers\peripheral\scb/cy_scb_common.h **** * \return
 675:Generated_Source\PSoC6\pdl\drivers\peripheral\scb/cy_scb_common.h **** * 1 - RX shift register valid; 0 - RX shift register not valid.
 676:Generated_Source\PSoC6\pdl\drivers\peripheral\scb/cy_scb_common.h **** *
 677:Generated_Source\PSoC6\pdl\drivers\peripheral\scb/cy_scb_common.h **** *******************************************************************************/
 678:Generated_Source\PSoC6\pdl\drivers\peripheral\scb/cy_scb_common.h **** __STATIC_INLINE uint32_t Cy_SCB_GetRxSrValid(CySCB_Type const *base)
 679:Generated_Source\PSoC6\pdl\drivers\peripheral\scb/cy_scb_common.h **** {
 680:Generated_Source\PSoC6\pdl\drivers\peripheral\scb/cy_scb_common.h ****     return _FLD2VAL(SCB_RX_FIFO_STATUS_SR_VALID, SCB_RX_FIFO_STATUS(base));
 681:Generated_Source\PSoC6\pdl\drivers\peripheral\scb/cy_scb_common.h **** }
 682:Generated_Source\PSoC6\pdl\drivers\peripheral\scb/cy_scb_common.h **** 
 683:Generated_Source\PSoC6\pdl\drivers\peripheral\scb/cy_scb_common.h **** 
 684:Generated_Source\PSoC6\pdl\drivers\peripheral\scb/cy_scb_common.h **** /*******************************************************************************
 685:Generated_Source\PSoC6\pdl\drivers\peripheral\scb/cy_scb_common.h **** * Function Name: Cy_SCB_ClearRxFifo
 686:Generated_Source\PSoC6\pdl\drivers\peripheral\scb/cy_scb_common.h **** ****************************************************************************//**
 687:Generated_Source\PSoC6\pdl\drivers\peripheral\scb/cy_scb_common.h **** *
 688:Generated_Source\PSoC6\pdl\drivers\peripheral\scb/cy_scb_common.h **** * Clears the RX FIFO and shifter.
 689:Generated_Source\PSoC6\pdl\drivers\peripheral\scb/cy_scb_common.h **** *
 690:Generated_Source\PSoC6\pdl\drivers\peripheral\scb/cy_scb_common.h **** * \param base
 691:Generated_Source\PSoC6\pdl\drivers\peripheral\scb/cy_scb_common.h **** * The pointer to the SCB instance.
 692:Generated_Source\PSoC6\pdl\drivers\peripheral\scb/cy_scb_common.h **** *
 693:Generated_Source\PSoC6\pdl\drivers\peripheral\scb/cy_scb_common.h **** * \note
ARM GAS  C:\Users\pearlstl\AppData\Local\Temp\ccAUXqAU.s 			page 41


 694:Generated_Source\PSoC6\pdl\drivers\peripheral\scb/cy_scb_common.h **** * If there is partial data in the shifter, it is cleared and lost.
 695:Generated_Source\PSoC6\pdl\drivers\peripheral\scb/cy_scb_common.h **** *
 696:Generated_Source\PSoC6\pdl\drivers\peripheral\scb/cy_scb_common.h **** *******************************************************************************/
 697:Generated_Source\PSoC6\pdl\drivers\peripheral\scb/cy_scb_common.h **** __STATIC_INLINE void Cy_SCB_ClearRxFifo(CySCB_Type* base)
 698:Generated_Source\PSoC6\pdl\drivers\peripheral\scb/cy_scb_common.h **** {
 699:Generated_Source\PSoC6\pdl\drivers\peripheral\scb/cy_scb_common.h ****     SCB_RX_FIFO_CTRL(base) |= (uint32_t)  SCB_RX_FIFO_CTRL_CLEAR_Msk;
 700:Generated_Source\PSoC6\pdl\drivers\peripheral\scb/cy_scb_common.h ****     SCB_RX_FIFO_CTRL(base) &= (uint32_t) ~SCB_RX_FIFO_CTRL_CLEAR_Msk;
 701:Generated_Source\PSoC6\pdl\drivers\peripheral\scb/cy_scb_common.h **** 
 702:Generated_Source\PSoC6\pdl\drivers\peripheral\scb/cy_scb_common.h ****     (void) SCB_RX_FIFO_CTRL(base);
 703:Generated_Source\PSoC6\pdl\drivers\peripheral\scb/cy_scb_common.h **** }
 704:Generated_Source\PSoC6\pdl\drivers\peripheral\scb/cy_scb_common.h **** 
 705:Generated_Source\PSoC6\pdl\drivers\peripheral\scb/cy_scb_common.h **** 
 706:Generated_Source\PSoC6\pdl\drivers\peripheral\scb/cy_scb_common.h **** /*******************************************************************************
 707:Generated_Source\PSoC6\pdl\drivers\peripheral\scb/cy_scb_common.h **** * Function Name: Cy_SCB_WriteTxFifo
 708:Generated_Source\PSoC6\pdl\drivers\peripheral\scb/cy_scb_common.h **** ****************************************************************************//**
 709:Generated_Source\PSoC6\pdl\drivers\peripheral\scb/cy_scb_common.h **** *
 710:Generated_Source\PSoC6\pdl\drivers\peripheral\scb/cy_scb_common.h **** * Writes data directly into the TX FIFO.
 711:Generated_Source\PSoC6\pdl\drivers\peripheral\scb/cy_scb_common.h **** * This function does not check whether the TX FIFO is not full before writing
 712:Generated_Source\PSoC6\pdl\drivers\peripheral\scb/cy_scb_common.h **** * into it.
 713:Generated_Source\PSoC6\pdl\drivers\peripheral\scb/cy_scb_common.h **** *
 714:Generated_Source\PSoC6\pdl\drivers\peripheral\scb/cy_scb_common.h **** * \param base
 715:Generated_Source\PSoC6\pdl\drivers\peripheral\scb/cy_scb_common.h **** * The pointer to the SCB instance.
 716:Generated_Source\PSoC6\pdl\drivers\peripheral\scb/cy_scb_common.h **** *
 717:Generated_Source\PSoC6\pdl\drivers\peripheral\scb/cy_scb_common.h **** * \param data
 718:Generated_Source\PSoC6\pdl\drivers\peripheral\scb/cy_scb_common.h **** * Data to write to the TX FIFO.
 719:Generated_Source\PSoC6\pdl\drivers\peripheral\scb/cy_scb_common.h **** *
 720:Generated_Source\PSoC6\pdl\drivers\peripheral\scb/cy_scb_common.h **** *******************************************************************************/
 721:Generated_Source\PSoC6\pdl\drivers\peripheral\scb/cy_scb_common.h **** __STATIC_INLINE void Cy_SCB_WriteTxFifo(CySCB_Type* base, uint32_t data)
 722:Generated_Source\PSoC6\pdl\drivers\peripheral\scb/cy_scb_common.h **** {
 723:Generated_Source\PSoC6\pdl\drivers\peripheral\scb/cy_scb_common.h ****     SCB_TX_FIFO_WR(base) = data;
 724:Generated_Source\PSoC6\pdl\drivers\peripheral\scb/cy_scb_common.h **** }
 725:Generated_Source\PSoC6\pdl\drivers\peripheral\scb/cy_scb_common.h **** 
 726:Generated_Source\PSoC6\pdl\drivers\peripheral\scb/cy_scb_common.h **** 
 727:Generated_Source\PSoC6\pdl\drivers\peripheral\scb/cy_scb_common.h **** /*******************************************************************************
 728:Generated_Source\PSoC6\pdl\drivers\peripheral\scb/cy_scb_common.h **** * Function Name: Cy_SCB_SetTxFifoLevel
 729:Generated_Source\PSoC6\pdl\drivers\peripheral\scb/cy_scb_common.h **** ****************************************************************************//**
 730:Generated_Source\PSoC6\pdl\drivers\peripheral\scb/cy_scb_common.h **** *
 731:Generated_Source\PSoC6\pdl\drivers\peripheral\scb/cy_scb_common.h **** * Sets the TX FIFO level. When there are fewer data elements in the TX FIFO than
 732:Generated_Source\PSoC6\pdl\drivers\peripheral\scb/cy_scb_common.h **** * this level, the TX FIFO level interrupt is triggered.
 733:Generated_Source\PSoC6\pdl\drivers\peripheral\scb/cy_scb_common.h **** *
 734:Generated_Source\PSoC6\pdl\drivers\peripheral\scb/cy_scb_common.h **** * \param base
 735:Generated_Source\PSoC6\pdl\drivers\peripheral\scb/cy_scb_common.h **** * The pointer to the SCB instance.
 736:Generated_Source\PSoC6\pdl\drivers\peripheral\scb/cy_scb_common.h **** *
 737:Generated_Source\PSoC6\pdl\drivers\peripheral\scb/cy_scb_common.h **** * \param level
 738:Generated_Source\PSoC6\pdl\drivers\peripheral\scb/cy_scb_common.h **** * When there are fewer data elements in the FIFO than this level, the TX level
 739:Generated_Source\PSoC6\pdl\drivers\peripheral\scb/cy_scb_common.h **** * interrupt is triggered.
 740:Generated_Source\PSoC6\pdl\drivers\peripheral\scb/cy_scb_common.h **** *
 741:Generated_Source\PSoC6\pdl\drivers\peripheral\scb/cy_scb_common.h **** *******************************************************************************/
 742:Generated_Source\PSoC6\pdl\drivers\peripheral\scb/cy_scb_common.h **** __STATIC_INLINE void Cy_SCB_SetTxFifoLevel(CySCB_Type *base, uint32_t level)
 743:Generated_Source\PSoC6\pdl\drivers\peripheral\scb/cy_scb_common.h **** {
 744:Generated_Source\PSoC6\pdl\drivers\peripheral\scb/cy_scb_common.h ****     CY_ASSERT_L2(CY_SCB_IS_TRIGGER_LEVEL_VALID(base, level));
 745:Generated_Source\PSoC6\pdl\drivers\peripheral\scb/cy_scb_common.h **** 
 746:Generated_Source\PSoC6\pdl\drivers\peripheral\scb/cy_scb_common.h ****     CY_REG32_CLR_SET(SCB_TX_FIFO_CTRL(base), SCB_TX_FIFO_CTRL_TRIGGER_LEVEL, level);
 747:Generated_Source\PSoC6\pdl\drivers\peripheral\scb/cy_scb_common.h **** }
 748:Generated_Source\PSoC6\pdl\drivers\peripheral\scb/cy_scb_common.h **** 
 749:Generated_Source\PSoC6\pdl\drivers\peripheral\scb/cy_scb_common.h **** 
 750:Generated_Source\PSoC6\pdl\drivers\peripheral\scb/cy_scb_common.h **** /*******************************************************************************
ARM GAS  C:\Users\pearlstl\AppData\Local\Temp\ccAUXqAU.s 			page 42


 751:Generated_Source\PSoC6\pdl\drivers\peripheral\scb/cy_scb_common.h **** * Function Name: Cy_SCB_GetNumInTxFifo
 752:Generated_Source\PSoC6\pdl\drivers\peripheral\scb/cy_scb_common.h **** ****************************************************************************//**
 753:Generated_Source\PSoC6\pdl\drivers\peripheral\scb/cy_scb_common.h **** *
 754:Generated_Source\PSoC6\pdl\drivers\peripheral\scb/cy_scb_common.h **** * Returns the number of data elements currently in the TX FIFO.
 755:Generated_Source\PSoC6\pdl\drivers\peripheral\scb/cy_scb_common.h **** *
 756:Generated_Source\PSoC6\pdl\drivers\peripheral\scb/cy_scb_common.h **** * \param base
 757:Generated_Source\PSoC6\pdl\drivers\peripheral\scb/cy_scb_common.h **** * The pointer to the SCB instance.
 758:Generated_Source\PSoC6\pdl\drivers\peripheral\scb/cy_scb_common.h **** *
 759:Generated_Source\PSoC6\pdl\drivers\peripheral\scb/cy_scb_common.h **** * \return
 760:Generated_Source\PSoC6\pdl\drivers\peripheral\scb/cy_scb_common.h **** * The number or data elements in the TX FIFO.
 761:Generated_Source\PSoC6\pdl\drivers\peripheral\scb/cy_scb_common.h **** *
 762:Generated_Source\PSoC6\pdl\drivers\peripheral\scb/cy_scb_common.h **** *******************************************************************************/
 763:Generated_Source\PSoC6\pdl\drivers\peripheral\scb/cy_scb_common.h **** __STATIC_INLINE uint32_t Cy_SCB_GetNumInTxFifo(CySCB_Type const *base)
 764:Generated_Source\PSoC6\pdl\drivers\peripheral\scb/cy_scb_common.h **** {
 765:Generated_Source\PSoC6\pdl\drivers\peripheral\scb/cy_scb_common.h ****     return _FLD2VAL(SCB_TX_FIFO_STATUS_USED, SCB_TX_FIFO_STATUS(base));
 547              		.loc 2 765 0
 548 0020 8224     		movs	r4, #130
 549 0022 A400     		lsls	r4, r4, #2
 550 0024 1859     		ldr	r0, [r3, r4]
 551              	.LVL18:
 552              	.LBE159:
 553              	.LBE158:
 554              	.LBB160:
 555              	.LBB161:
 766:Generated_Source\PSoC6\pdl\drivers\peripheral\scb/cy_scb_common.h **** }
 767:Generated_Source\PSoC6\pdl\drivers\peripheral\scb/cy_scb_common.h **** 
 768:Generated_Source\PSoC6\pdl\drivers\peripheral\scb/cy_scb_common.h **** 
 769:Generated_Source\PSoC6\pdl\drivers\peripheral\scb/cy_scb_common.h **** /*******************************************************************************
 770:Generated_Source\PSoC6\pdl\drivers\peripheral\scb/cy_scb_common.h **** * Function Name: Cy_SCB_GetTxSrValid
 771:Generated_Source\PSoC6\pdl\drivers\peripheral\scb/cy_scb_common.h **** ****************************************************************************//**
 772:Generated_Source\PSoC6\pdl\drivers\peripheral\scb/cy_scb_common.h **** *
 773:Generated_Source\PSoC6\pdl\drivers\peripheral\scb/cy_scb_common.h **** * Returns the status of the TX FIFO Shift Register valid bit.
 774:Generated_Source\PSoC6\pdl\drivers\peripheral\scb/cy_scb_common.h **** *
 775:Generated_Source\PSoC6\pdl\drivers\peripheral\scb/cy_scb_common.h **** * \param base
 776:Generated_Source\PSoC6\pdl\drivers\peripheral\scb/cy_scb_common.h **** * The pointer to the SCB instance.
 777:Generated_Source\PSoC6\pdl\drivers\peripheral\scb/cy_scb_common.h **** *
 778:Generated_Source\PSoC6\pdl\drivers\peripheral\scb/cy_scb_common.h **** * \return
 779:Generated_Source\PSoC6\pdl\drivers\peripheral\scb/cy_scb_common.h **** * 1 - TX shift register valid; 0 - TX shift register not valid.
 780:Generated_Source\PSoC6\pdl\drivers\peripheral\scb/cy_scb_common.h **** *
 781:Generated_Source\PSoC6\pdl\drivers\peripheral\scb/cy_scb_common.h **** *******************************************************************************/
 782:Generated_Source\PSoC6\pdl\drivers\peripheral\scb/cy_scb_common.h **** __STATIC_INLINE uint32_t Cy_SCB_GetTxSrValid(CySCB_Type const *base)
 783:Generated_Source\PSoC6\pdl\drivers\peripheral\scb/cy_scb_common.h **** {
 784:Generated_Source\PSoC6\pdl\drivers\peripheral\scb/cy_scb_common.h ****     return _FLD2VAL(SCB_TX_FIFO_STATUS_SR_VALID, SCB_TX_FIFO_STATUS(base));
 556              		.loc 2 784 0
 557 0026 1C59     		ldr	r4, [r3, r4]
 558              	.LVL19:
 559              	.LBE161:
 560              	.LBE160:
 561              	.LBE157:
 562              	.LBE156:
 563              	.LBE155:
 311:Generated_Source\PSoC6\pdl\drivers\peripheral\scb/cy_scb_uart.c ****                 {
 564              		.loc 1 311 0
 565 0028 C005     		lsls	r0, r0, #23
 566 002a E40B     		lsrs	r4, r4, #15
 567 002c 2240     		ands	r2, r4
 568 002e C00D     		lsrs	r0, r0, #23
ARM GAS  C:\Users\pearlstl\AppData\Local\Temp\ccAUXqAU.s 			page 43


 569 0030 1218     		adds	r2, r2, r0
 570 0032 002A     		cmp	r2, #0
 571 0034 10D1     		bne	.L61
 572              	.LVL20:
 573              	.LBB162:
 574              	.LBB163:
 575              	.LBB164:
 661:Generated_Source\PSoC6\pdl\drivers\peripheral\scb/cy_scb_common.h **** }
 576              		.loc 2 661 0
 577 0036 C222     		movs	r2, #194
 578 0038 9200     		lsls	r2, r2, #2
 579 003a 9C58     		ldr	r4, [r3, r2]
 580              	.LVL21:
 581              	.LBE164:
 582              	.LBE163:
 583              	.LBE162:
 313:Generated_Source\PSoC6\pdl\drivers\peripheral\scb/cy_scb_uart.c ****                     {
 584              		.loc 1 313 0
 585 003c E405     		lsls	r4, r4, #23
 586 003e E40D     		lsrs	r4, r4, #23
 587 0040 0AD1     		bne	.L61
 321:Generated_Source\PSoC6\pdl\drivers\peripheral\scb/cy_scb_uart.c **** 
 588              		.loc 1 321 0
 589 0042 1800     		movs	r0, r3
 590 0044 FFF7FEFF 		bl	Cy_SCB_UART_Disable
 591              	.LVL22:
 592 0048 04E0     		b	.L63
 593              	.LVL23:
 594              	.L54:
 595              	.LBB165:
 596              	.LBB166:
 597              		.file 3 "Generated_Source\\PSoC6\\pdl\\drivers\\peripheral\\scb\\cy_scb_uart.h"
   1:Generated_Source\PSoC6\pdl\drivers\peripheral\scb/cy_scb_uart.h **** /***************************************************************************//**
   2:Generated_Source\PSoC6\pdl\drivers\peripheral\scb/cy_scb_uart.h **** * \file cy_scb_uart.h
   3:Generated_Source\PSoC6\pdl\drivers\peripheral\scb/cy_scb_uart.h **** * \version 2.20
   4:Generated_Source\PSoC6\pdl\drivers\peripheral\scb/cy_scb_uart.h **** *
   5:Generated_Source\PSoC6\pdl\drivers\peripheral\scb/cy_scb_uart.h **** * Provides UART API declarations of the SCB driver.
   6:Generated_Source\PSoC6\pdl\drivers\peripheral\scb/cy_scb_uart.h **** *
   7:Generated_Source\PSoC6\pdl\drivers\peripheral\scb/cy_scb_uart.h **** ********************************************************************************
   8:Generated_Source\PSoC6\pdl\drivers\peripheral\scb/cy_scb_uart.h **** * \copyright
   9:Generated_Source\PSoC6\pdl\drivers\peripheral\scb/cy_scb_uart.h **** * Copyright 2016-2018, Cypress Semiconductor Corporation.  All rights reserved.
  10:Generated_Source\PSoC6\pdl\drivers\peripheral\scb/cy_scb_uart.h **** * You may use this file only in accordance with the license, terms, conditions,
  11:Generated_Source\PSoC6\pdl\drivers\peripheral\scb/cy_scb_uart.h **** * disclaimers, and limitations in the end user license agreement accompanying
  12:Generated_Source\PSoC6\pdl\drivers\peripheral\scb/cy_scb_uart.h **** * the software package with which this file was provided.
  13:Generated_Source\PSoC6\pdl\drivers\peripheral\scb/cy_scb_uart.h **** *******************************************************************************/
  14:Generated_Source\PSoC6\pdl\drivers\peripheral\scb/cy_scb_uart.h **** 
  15:Generated_Source\PSoC6\pdl\drivers\peripheral\scb/cy_scb_uart.h **** /**
  16:Generated_Source\PSoC6\pdl\drivers\peripheral\scb/cy_scb_uart.h **** * \addtogroup group_scb_uart
  17:Generated_Source\PSoC6\pdl\drivers\peripheral\scb/cy_scb_uart.h **** * \{
  18:Generated_Source\PSoC6\pdl\drivers\peripheral\scb/cy_scb_uart.h **** * Driver API for UART
  19:Generated_Source\PSoC6\pdl\drivers\peripheral\scb/cy_scb_uart.h **** *
  20:Generated_Source\PSoC6\pdl\drivers\peripheral\scb/cy_scb_uart.h **** * The functions and other declarations used in this part of the driver are in 
  21:Generated_Source\PSoC6\pdl\drivers\peripheral\scb/cy_scb_uart.h **** * cy_scb_uart.h. You can also include cy_pdl.h (ModusToolbox only) to get access 
  22:Generated_Source\PSoC6\pdl\drivers\peripheral\scb/cy_scb_uart.h **** * to all functions and declarations in the PDL.
  23:Generated_Source\PSoC6\pdl\drivers\peripheral\scb/cy_scb_uart.h **** *
  24:Generated_Source\PSoC6\pdl\drivers\peripheral\scb/cy_scb_uart.h **** * The Universal Asynchronous Receiver/Transmitter (UART) protocol is an 
  25:Generated_Source\PSoC6\pdl\drivers\peripheral\scb/cy_scb_uart.h **** * asynchronous serial interface protocol. UART communication is typically 
ARM GAS  C:\Users\pearlstl\AppData\Local\Temp\ccAUXqAU.s 			page 44


  26:Generated_Source\PSoC6\pdl\drivers\peripheral\scb/cy_scb_uart.h **** * point-to-point. The UART interface consists of two signals:
  27:Generated_Source\PSoC6\pdl\drivers\peripheral\scb/cy_scb_uart.h **** * * TX: Transmitter output
  28:Generated_Source\PSoC6\pdl\drivers\peripheral\scb/cy_scb_uart.h **** * * RX: Receiver input
  29:Generated_Source\PSoC6\pdl\drivers\peripheral\scb/cy_scb_uart.h **** *
  30:Generated_Source\PSoC6\pdl\drivers\peripheral\scb/cy_scb_uart.h **** * Additionally, two side-band signals are used to implement flow control in 
  31:Generated_Source\PSoC6\pdl\drivers\peripheral\scb/cy_scb_uart.h **** * UART. Note that the flow control applies only to TX functionality.
  32:Generated_Source\PSoC6\pdl\drivers\peripheral\scb/cy_scb_uart.h **** * * Clear to Send (CTS): This is an input signal to the transmitter. 
  33:Generated_Source\PSoC6\pdl\drivers\peripheral\scb/cy_scb_uart.h **** *   When active, it indicates that the slave is ready for the master to 
  34:Generated_Source\PSoC6\pdl\drivers\peripheral\scb/cy_scb_uart.h **** *   transmit data.
  35:Generated_Source\PSoC6\pdl\drivers\peripheral\scb/cy_scb_uart.h **** * * Ready to Send (RTS): This is an output signal from the receiver. When 
  36:Generated_Source\PSoC6\pdl\drivers\peripheral\scb/cy_scb_uart.h **** *   active, it indicates that the receiver is ready to receive data
  37:Generated_Source\PSoC6\pdl\drivers\peripheral\scb/cy_scb_uart.h **** *
  38:Generated_Source\PSoC6\pdl\drivers\peripheral\scb/cy_scb_uart.h **** * Features:
  39:Generated_Source\PSoC6\pdl\drivers\peripheral\scb/cy_scb_uart.h **** * * Supports UART protocol
  40:Generated_Source\PSoC6\pdl\drivers\peripheral\scb/cy_scb_uart.h **** *   * Standard UART
  41:Generated_Source\PSoC6\pdl\drivers\peripheral\scb/cy_scb_uart.h **** *   * Multi-processor mode
  42:Generated_Source\PSoC6\pdl\drivers\peripheral\scb/cy_scb_uart.h **** * * SmartCard (ISO7816) reader
  43:Generated_Source\PSoC6\pdl\drivers\peripheral\scb/cy_scb_uart.h **** * * IrDA
  44:Generated_Source\PSoC6\pdl\drivers\peripheral\scb/cy_scb_uart.h **** * * Data frame size programmable from 4 to 16 bits
  45:Generated_Source\PSoC6\pdl\drivers\peripheral\scb/cy_scb_uart.h **** * * Programmable number of STOP bits, which can be set in terms of half bit 
  46:Generated_Source\PSoC6\pdl\drivers\peripheral\scb/cy_scb_uart.h **** *   periods between 1 and 4
  47:Generated_Source\PSoC6\pdl\drivers\peripheral\scb/cy_scb_uart.h **** * * Parity support (odd and even parity)
  48:Generated_Source\PSoC6\pdl\drivers\peripheral\scb/cy_scb_uart.h **** * * Median filter on Rx input
  49:Generated_Source\PSoC6\pdl\drivers\peripheral\scb/cy_scb_uart.h **** * * Programmable oversampling
  50:Generated_Source\PSoC6\pdl\drivers\peripheral\scb/cy_scb_uart.h **** * * Start skipping
  51:Generated_Source\PSoC6\pdl\drivers\peripheral\scb/cy_scb_uart.h **** *
  52:Generated_Source\PSoC6\pdl\drivers\peripheral\scb/cy_scb_uart.h **** ********************************************************************************
  53:Generated_Source\PSoC6\pdl\drivers\peripheral\scb/cy_scb_uart.h **** * \section group_scb_uart_configuration Configuration Considerations
  54:Generated_Source\PSoC6\pdl\drivers\peripheral\scb/cy_scb_uart.h **** ********************************************************************************
  55:Generated_Source\PSoC6\pdl\drivers\peripheral\scb/cy_scb_uart.h **** * The UART driver configuration can be divided to number of sequential
  56:Generated_Source\PSoC6\pdl\drivers\peripheral\scb/cy_scb_uart.h **** * steps listed below:
  57:Generated_Source\PSoC6\pdl\drivers\peripheral\scb/cy_scb_uart.h **** * * \ref group_scb_uart_config
  58:Generated_Source\PSoC6\pdl\drivers\peripheral\scb/cy_scb_uart.h **** * * \ref group_scb_uart_pins
  59:Generated_Source\PSoC6\pdl\drivers\peripheral\scb/cy_scb_uart.h **** * * \ref group_scb_uart_clock
  60:Generated_Source\PSoC6\pdl\drivers\peripheral\scb/cy_scb_uart.h **** * * \ref group_scb_uart_data_rate
  61:Generated_Source\PSoC6\pdl\drivers\peripheral\scb/cy_scb_uart.h **** * * \ref group_scb_uart_intr
  62:Generated_Source\PSoC6\pdl\drivers\peripheral\scb/cy_scb_uart.h **** * * \ref group_scb_uart_enable
  63:Generated_Source\PSoC6\pdl\drivers\peripheral\scb/cy_scb_uart.h **** *
  64:Generated_Source\PSoC6\pdl\drivers\peripheral\scb/cy_scb_uart.h **** * \note
  65:Generated_Source\PSoC6\pdl\drivers\peripheral\scb/cy_scb_uart.h **** * UART driver is built on top of the SCB hardware block. The SCB5 instance is
  66:Generated_Source\PSoC6\pdl\drivers\peripheral\scb/cy_scb_uart.h **** * used as an example for all code snippets. Modify the code to match your
  67:Generated_Source\PSoC6\pdl\drivers\peripheral\scb/cy_scb_uart.h **** * design.
  68:Generated_Source\PSoC6\pdl\drivers\peripheral\scb/cy_scb_uart.h **** *
  69:Generated_Source\PSoC6\pdl\drivers\peripheral\scb/cy_scb_uart.h **** ********************************************************************************
  70:Generated_Source\PSoC6\pdl\drivers\peripheral\scb/cy_scb_uart.h **** * \subsection group_scb_uart_config Configure UART
  71:Generated_Source\PSoC6\pdl\drivers\peripheral\scb/cy_scb_uart.h **** ********************************************************************************
  72:Generated_Source\PSoC6\pdl\drivers\peripheral\scb/cy_scb_uart.h **** * To set up the UART driver, provide the configuration parameters in the
  73:Generated_Source\PSoC6\pdl\drivers\peripheral\scb/cy_scb_uart.h **** * \ref cy_stc_scb_uart_config_t structure. For example: provide uartMode,
  74:Generated_Source\PSoC6\pdl\drivers\peripheral\scb/cy_scb_uart.h **** * oversample, dataWidth, enableMsbFirst, parity, and stopBits. The other
  75:Generated_Source\PSoC6\pdl\drivers\peripheral\scb/cy_scb_uart.h **** * parameters are optional. To initialize the driver, call \ref Cy_SCB_UART_Init 
  76:Generated_Source\PSoC6\pdl\drivers\peripheral\scb/cy_scb_uart.h **** * function providing a pointer to the populated \ref cy_stc_scb_uart_config_t 
  77:Generated_Source\PSoC6\pdl\drivers\peripheral\scb/cy_scb_uart.h **** * structure and the allocated \ref cy_stc_scb_uart_context_t structure.
  78:Generated_Source\PSoC6\pdl\drivers\peripheral\scb/cy_scb_uart.h **** *
  79:Generated_Source\PSoC6\pdl\drivers\peripheral\scb/cy_scb_uart.h **** * \snippet SCB_CompDatasheet_sut_01_revA.cydsn\uart_snippets.c UART_CFG
  80:Generated_Source\PSoC6\pdl\drivers\peripheral\scb/cy_scb_uart.h **** *
  81:Generated_Source\PSoC6\pdl\drivers\peripheral\scb/cy_scb_uart.h **** ********************************************************************************
  82:Generated_Source\PSoC6\pdl\drivers\peripheral\scb/cy_scb_uart.h **** * \subsection group_scb_uart_pins Assign and Configure Pins
ARM GAS  C:\Users\pearlstl\AppData\Local\Temp\ccAUXqAU.s 			page 45


  83:Generated_Source\PSoC6\pdl\drivers\peripheral\scb/cy_scb_uart.h **** ********************************************************************************
  84:Generated_Source\PSoC6\pdl\drivers\peripheral\scb/cy_scb_uart.h **** * Only dedicated SCB pins can be used for UART operation. The HSIOM
  85:Generated_Source\PSoC6\pdl\drivers\peripheral\scb/cy_scb_uart.h **** * register must be configured to connect dedicated SCB UART pins to the 
  86:Generated_Source\PSoC6\pdl\drivers\peripheral\scb/cy_scb_uart.h **** * SCB block. Also, the UART output pins must be configured in Strong Drive 
  87:Generated_Source\PSoC6\pdl\drivers\peripheral\scb/cy_scb_uart.h **** * Input Off mode and UART input pins in Digital High-Z:
  88:Generated_Source\PSoC6\pdl\drivers\peripheral\scb/cy_scb_uart.h **** *
  89:Generated_Source\PSoC6\pdl\drivers\peripheral\scb/cy_scb_uart.h **** * \snippet SCB_CompDatasheet_sut_01_revA.cydsn\uart_snippets.c UART_CFG_PINS
  90:Generated_Source\PSoC6\pdl\drivers\peripheral\scb/cy_scb_uart.h **** *
  91:Generated_Source\PSoC6\pdl\drivers\peripheral\scb/cy_scb_uart.h **** ********************************************************************************
  92:Generated_Source\PSoC6\pdl\drivers\peripheral\scb/cy_scb_uart.h **** * \subsection group_scb_uart_clock Assign Clock Divider
  93:Generated_Source\PSoC6\pdl\drivers\peripheral\scb/cy_scb_uart.h **** ********************************************************************************
  94:Generated_Source\PSoC6\pdl\drivers\peripheral\scb/cy_scb_uart.h **** * A clock source must be connected to the SCB block to oversample input and
  95:Generated_Source\PSoC6\pdl\drivers\peripheral\scb/cy_scb_uart.h **** * output signals, in this document this clock will be referred as clk_scb.
  96:Generated_Source\PSoC6\pdl\drivers\peripheral\scb/cy_scb_uart.h **** * You must use one of available integer or fractional dividers. Use the 
  97:Generated_Source\PSoC6\pdl\drivers\peripheral\scb/cy_scb_uart.h **** * \ref group_sysclk driver API to do this.
  98:Generated_Source\PSoC6\pdl\drivers\peripheral\scb/cy_scb_uart.h **** *
  99:Generated_Source\PSoC6\pdl\drivers\peripheral\scb/cy_scb_uart.h **** * \snippet SCB_CompDatasheet_sut_01_revA.cydsn\uart_snippets.c UART_CFG_ASSIGN_CLOCK
 100:Generated_Source\PSoC6\pdl\drivers\peripheral\scb/cy_scb_uart.h **** *
 101:Generated_Source\PSoC6\pdl\drivers\peripheral\scb/cy_scb_uart.h **** ********************************************************************************
 102:Generated_Source\PSoC6\pdl\drivers\peripheral\scb/cy_scb_uart.h **** * \subsection group_scb_uart_data_rate Configure Baud Rate
 103:Generated_Source\PSoC6\pdl\drivers\peripheral\scb/cy_scb_uart.h **** ********************************************************************************
 104:Generated_Source\PSoC6\pdl\drivers\peripheral\scb/cy_scb_uart.h **** * To get the UART to operate with the desired baud rate, the clk_scb frequency
 105:Generated_Source\PSoC6\pdl\drivers\peripheral\scb/cy_scb_uart.h **** * and the oversample must be configured. Use the \ref group_sysclk driver API
 106:Generated_Source\PSoC6\pdl\drivers\peripheral\scb/cy_scb_uart.h **** * to configure clk_scb frequency. Set the <em><b>oversample parameter
 107:Generated_Source\PSoC6\pdl\drivers\peripheral\scb/cy_scb_uart.h **** * in configuration structure</b></em> to define the number of the SCB clocks
 108:Generated_Source\PSoC6\pdl\drivers\peripheral\scb/cy_scb_uart.h **** * within one UART bit-time.
 109:Generated_Source\PSoC6\pdl\drivers\peripheral\scb/cy_scb_uart.h **** *
 110:Generated_Source\PSoC6\pdl\drivers\peripheral\scb/cy_scb_uart.h **** * \snippet SCB_CompDatasheet_sut_01_revA.cydsn\uart_snippets.c UART_CFG_DATA_RATE
 111:Generated_Source\PSoC6\pdl\drivers\peripheral\scb/cy_scb_uart.h **** *
 112:Generated_Source\PSoC6\pdl\drivers\peripheral\scb/cy_scb_uart.h **** * <b>Refer to the technical reference manual (TRM) section UART sub-section
 113:Generated_Source\PSoC6\pdl\drivers\peripheral\scb/cy_scb_uart.h **** * Clocking and Oversampling to get information about how to configure the UART to run with
 114:Generated_Source\PSoC6\pdl\drivers\peripheral\scb/cy_scb_uart.h **** * desired baud rate.</b>
 115:Generated_Source\PSoC6\pdl\drivers\peripheral\scb/cy_scb_uart.h **** *
 116:Generated_Source\PSoC6\pdl\drivers\peripheral\scb/cy_scb_uart.h **** ********************************************************************************
 117:Generated_Source\PSoC6\pdl\drivers\peripheral\scb/cy_scb_uart.h **** * \subsection group_scb_uart_intr Configure Interrupt
 118:Generated_Source\PSoC6\pdl\drivers\peripheral\scb/cy_scb_uart.h **** ********************************************************************************
 119:Generated_Source\PSoC6\pdl\drivers\peripheral\scb/cy_scb_uart.h **** * The interrupt is optional for the UART operation. To configure interrupt
 120:Generated_Source\PSoC6\pdl\drivers\peripheral\scb/cy_scb_uart.h **** * the \ref Cy_SCB_UART_Interrupt function must be called in the interrupt
 121:Generated_Source\PSoC6\pdl\drivers\peripheral\scb/cy_scb_uart.h **** * handler for the selected SCB instance. Also, this interrupt must be enabled
 122:Generated_Source\PSoC6\pdl\drivers\peripheral\scb/cy_scb_uart.h **** * in the NVIC.
 123:Generated_Source\PSoC6\pdl\drivers\peripheral\scb/cy_scb_uart.h **** * The interrupt must be configured when \ref group_scb_uart_hl will be used.
 124:Generated_Source\PSoC6\pdl\drivers\peripheral\scb/cy_scb_uart.h **** *
 125:Generated_Source\PSoC6\pdl\drivers\peripheral\scb/cy_scb_uart.h **** * \snippet SCB_CompDatasheet_sut_01_revA.cydsn\uart_snippets.c UART_INTR_A
 126:Generated_Source\PSoC6\pdl\drivers\peripheral\scb/cy_scb_uart.h **** * \snippet SCB_CompDatasheet_sut_01_revA.cydsn\uart_snippets.c UART_INTR_B
 127:Generated_Source\PSoC6\pdl\drivers\peripheral\scb/cy_scb_uart.h **** *
 128:Generated_Source\PSoC6\pdl\drivers\peripheral\scb/cy_scb_uart.h **** ********************************************************************************
 129:Generated_Source\PSoC6\pdl\drivers\peripheral\scb/cy_scb_uart.h **** * \subsection group_scb_uart_enable Enable UART
 130:Generated_Source\PSoC6\pdl\drivers\peripheral\scb/cy_scb_uart.h **** ********************************************************************************
 131:Generated_Source\PSoC6\pdl\drivers\peripheral\scb/cy_scb_uart.h **** * Finally, enable the UART operation by calling \ref Cy_SCB_UART_Enable.
 132:Generated_Source\PSoC6\pdl\drivers\peripheral\scb/cy_scb_uart.h **** *
 133:Generated_Source\PSoC6\pdl\drivers\peripheral\scb/cy_scb_uart.h **** * \snippet SCB_CompDatasheet_sut_01_revA.cydsn\uart_snippets.c UART_ENABLE
 134:Generated_Source\PSoC6\pdl\drivers\peripheral\scb/cy_scb_uart.h **** *
 135:Generated_Source\PSoC6\pdl\drivers\peripheral\scb/cy_scb_uart.h **** ********************************************************************************
 136:Generated_Source\PSoC6\pdl\drivers\peripheral\scb/cy_scb_uart.h **** * \section group_scb_uart_use_cases Common Use Cases
