ARM GAS  C:\Users\pearlstl\AppData\Local\Temp\cccl86yd.s 			page 1


   1              		.syntax unified
   2              		.cpu cortex-m0plus
   3              		.fpu softvfp
   4              		.eabi_attribute 20, 1
   5              		.eabi_attribute 21, 1
   6              		.eabi_attribute 23, 3
   7              		.eabi_attribute 24, 1
   8              		.eabi_attribute 25, 1
   9              		.eabi_attribute 26, 1
  10              		.eabi_attribute 30, 4
  11              		.eabi_attribute 34, 0
  12              		.eabi_attribute 18, 4
  13              		.thumb
  14              		.syntax unified
  15              		.file	"LCD_INTERFACE_PM.c"
  16              		.text
  17              	.Ltext0:
  18              		.cfi_sections	.debug_frame
  19              		.section	.text.LCD_INTERFACE_SaveConfig,"ax",%progbits
  20              		.align	1
  21              		.global	LCD_INTERFACE_SaveConfig
  22              		.code	16
  23              		.thumb_func
  24              		.type	LCD_INTERFACE_SaveConfig, %function
  25              	LCD_INTERFACE_SaveConfig:
  26              	.LFB50:
  27              		.cfi_startproc
  28              		@ args = 0, pretend = 0, frame = 0
  29              		@ frame_needed = 0, uses_anonymous_args = 0
  30              		@ link register save eliminated.
  31              		@ sp needed
  32 0000 7047     		bx	lr
  33              		.cfi_endproc
  34              	.LFE50:
  35              		.size	LCD_INTERFACE_SaveConfig, .-LCD_INTERFACE_SaveConfig
  36              		.section	.text.LCD_INTERFACE_RestoreConfig,"ax",%progbits
  37              		.align	1
  38              		.global	LCD_INTERFACE_RestoreConfig
  39              		.code	16
  40              		.thumb_func
  41              		.type	LCD_INTERFACE_RestoreConfig, %function
  42              	LCD_INTERFACE_RestoreConfig:
  43              	.LFB46:
  44              		.file 1 "Generated_Source\\PSoC6\\LCD_INTERFACE_PM.c"
   1:Generated_Source\PSoC6/LCD_INTERFACE_PM.c **** /*******************************************************************************
   2:Generated_Source\PSoC6/LCD_INTERFACE_PM.c **** * File Name: LCD_INTERFACE_PM.c
   3:Generated_Source\PSoC6/LCD_INTERFACE_PM.c **** * Version 1.80
   4:Generated_Source\PSoC6/LCD_INTERFACE_PM.c **** *
   5:Generated_Source\PSoC6/LCD_INTERFACE_PM.c **** * Description:
   6:Generated_Source\PSoC6/LCD_INTERFACE_PM.c **** *  This file contains the setup, control and status commands to support 
   7:Generated_Source\PSoC6/LCD_INTERFACE_PM.c **** *  the component operations in Low-power mode.  
   8:Generated_Source\PSoC6/LCD_INTERFACE_PM.c **** *
   9:Generated_Source\PSoC6/LCD_INTERFACE_PM.c **** ********************************************************************************
  10:Generated_Source\PSoC6/LCD_INTERFACE_PM.c **** * Copyright 2008-2018, Cypress Semiconductor Corporation.  All rights reserved.
  11:Generated_Source\PSoC6/LCD_INTERFACE_PM.c **** * You may use this file only in accordance with the license, terms, conditions,
  12:Generated_Source\PSoC6/LCD_INTERFACE_PM.c **** * disclaimers, and limitations in the end user license agreement accompanying
  13:Generated_Source\PSoC6/LCD_INTERFACE_PM.c **** * the software package with which this file was provided.
ARM GAS  C:\Users\pearlstl\AppData\Local\Temp\cccl86yd.s 			page 2


  14:Generated_Source\PSoC6/LCD_INTERFACE_PM.c **** *******************************************************************************/
  15:Generated_Source\PSoC6/LCD_INTERFACE_PM.c **** 
  16:Generated_Source\PSoC6/LCD_INTERFACE_PM.c **** #include "LCD_INTERFACE.h" 
  17:Generated_Source\PSoC6/LCD_INTERFACE_PM.c **** 
  18:Generated_Source\PSoC6/LCD_INTERFACE_PM.c **** 
  19:Generated_Source\PSoC6/LCD_INTERFACE_PM.c **** /*******************************************************************************
  20:Generated_Source\PSoC6/LCD_INTERFACE_PM.c **** * Function Name: LCD_INTERFACE_SaveConfig
  21:Generated_Source\PSoC6/LCD_INTERFACE_PM.c **** ********************************************************************************
  22:Generated_Source\PSoC6/LCD_INTERFACE_PM.c **** *
  23:Generated_Source\PSoC6/LCD_INTERFACE_PM.c **** * Summary:
  24:Generated_Source\PSoC6/LCD_INTERFACE_PM.c **** *  All configuration registers are retention. Nothing to save here.
  25:Generated_Source\PSoC6/LCD_INTERFACE_PM.c **** *
  26:Generated_Source\PSoC6/LCD_INTERFACE_PM.c **** *******************************************************************************/
  27:Generated_Source\PSoC6/LCD_INTERFACE_PM.c **** void LCD_INTERFACE_SaveConfig(void) 
  28:Generated_Source\PSoC6/LCD_INTERFACE_PM.c **** {   
  29:Generated_Source\PSoC6/LCD_INTERFACE_PM.c ****     
  30:Generated_Source\PSoC6/LCD_INTERFACE_PM.c **** }
  31:Generated_Source\PSoC6/LCD_INTERFACE_PM.c **** 
  32:Generated_Source\PSoC6/LCD_INTERFACE_PM.c **** 
  33:Generated_Source\PSoC6/LCD_INTERFACE_PM.c **** /*******************************************************************************
  34:Generated_Source\PSoC6/LCD_INTERFACE_PM.c **** * Function Name: LCD_INTERFACE_RestoreConfig
  35:Generated_Source\PSoC6/LCD_INTERFACE_PM.c **** ********************************************************************************
  36:Generated_Source\PSoC6/LCD_INTERFACE_PM.c **** *
  37:Generated_Source\PSoC6/LCD_INTERFACE_PM.c **** * Summary:
  38:Generated_Source\PSoC6/LCD_INTERFACE_PM.c **** *  All configuration registers are retention. Nothing to restore here.
  39:Generated_Source\PSoC6/LCD_INTERFACE_PM.c **** *
  40:Generated_Source\PSoC6/LCD_INTERFACE_PM.c **** *******************************************************************************/
  41:Generated_Source\PSoC6/LCD_INTERFACE_PM.c **** void LCD_INTERFACE_RestoreConfig(void) 
  42:Generated_Source\PSoC6/LCD_INTERFACE_PM.c **** {    
  45              		.loc 1 42 0
  46              		.cfi_startproc
  47              		@ args = 0, pretend = 0, frame = 0
  48              		@ frame_needed = 0, uses_anonymous_args = 0
  49              		@ link register save eliminated.
  43:Generated_Source\PSoC6/LCD_INTERFACE_PM.c ****     
  44:Generated_Source\PSoC6/LCD_INTERFACE_PM.c **** }
  50              		.loc 1 44 0
  51              		@ sp needed
  52 0000 7047     		bx	lr
  53              		.cfi_endproc
  54              	.LFE46:
  55              		.size	LCD_INTERFACE_RestoreConfig, .-LCD_INTERFACE_RestoreConfig
  56              		.section	.text.LCD_INTERFACE_Sleep,"ax",%progbits
  57              		.align	1
  58              		.global	LCD_INTERFACE_Sleep
  59              		.code	16
  60              		.thumb_func
  61              		.type	LCD_INTERFACE_Sleep, %function
  62              	LCD_INTERFACE_Sleep:
  63              	.LFB47:
  45:Generated_Source\PSoC6/LCD_INTERFACE_PM.c **** 
  46:Generated_Source\PSoC6/LCD_INTERFACE_PM.c **** 
  47:Generated_Source\PSoC6/LCD_INTERFACE_PM.c **** /*******************************************************************************
  48:Generated_Source\PSoC6/LCD_INTERFACE_PM.c **** * Function Name: LCD_INTERFACE_Sleep
  49:Generated_Source\PSoC6/LCD_INTERFACE_PM.c **** ********************************************************************************
  50:Generated_Source\PSoC6/LCD_INTERFACE_PM.c **** *
  51:Generated_Source\PSoC6/LCD_INTERFACE_PM.c **** * Summary:
ARM GAS  C:\Users\pearlstl\AppData\Local\Temp\cccl86yd.s 			page 3


  52:Generated_Source\PSoC6/LCD_INTERFACE_PM.c **** *  Disables block's operation and saves its configuration. Should be called 
  53:Generated_Source\PSoC6/LCD_INTERFACE_PM.c **** *  prior to entering Sleep.
  54:Generated_Source\PSoC6/LCD_INTERFACE_PM.c **** *
  55:Generated_Source\PSoC6/LCD_INTERFACE_PM.c **** *******************************************************************************/
  56:Generated_Source\PSoC6/LCD_INTERFACE_PM.c **** void LCD_INTERFACE_Sleep(void) 
  57:Generated_Source\PSoC6/LCD_INTERFACE_PM.c **** {
  64              		.loc 1 57 0
  65              		.cfi_startproc
  66              		@ args = 0, pretend = 0, frame = 0
  67              		@ frame_needed = 0, uses_anonymous_args = 0
  68 0000 10B5     		push	{r4, lr}
  69              		.cfi_def_cfa_offset 8
  70              		.cfi_offset 4, -8
  71              		.cfi_offset 14, -4
  58:Generated_Source\PSoC6/LCD_INTERFACE_PM.c ****     LCD_INTERFACE_Stop();
  72              		.loc 1 58 0
  73 0002 FFF7FEFF 		bl	LCD_INTERFACE_Stop
  74              	.LVL0:
  59:Generated_Source\PSoC6/LCD_INTERFACE_PM.c **** }
  75              		.loc 1 59 0
  76              		@ sp needed
  77 0006 10BD     		pop	{r4, pc}
  78              		.cfi_endproc
  79              	.LFE47:
  80              		.size	LCD_INTERFACE_Sleep, .-LCD_INTERFACE_Sleep
  81              		.section	.text.LCD_INTERFACE_Wakeup,"ax",%progbits
  82              		.align	1
  83              		.global	LCD_INTERFACE_Wakeup
  84              		.code	16
  85              		.thumb_func
  86              		.type	LCD_INTERFACE_Wakeup, %function
  87              	LCD_INTERFACE_Wakeup:
  88              	.LFB48:
  60:Generated_Source\PSoC6/LCD_INTERFACE_PM.c **** 
  61:Generated_Source\PSoC6/LCD_INTERFACE_PM.c **** 
  62:Generated_Source\PSoC6/LCD_INTERFACE_PM.c **** /*******************************************************************************
  63:Generated_Source\PSoC6/LCD_INTERFACE_PM.c **** * Function Name: LCD_INTERFACE_Wakeup
  64:Generated_Source\PSoC6/LCD_INTERFACE_PM.c **** ********************************************************************************
  65:Generated_Source\PSoC6/LCD_INTERFACE_PM.c **** *
  66:Generated_Source\PSoC6/LCD_INTERFACE_PM.c **** * Summary:
  67:Generated_Source\PSoC6/LCD_INTERFACE_PM.c **** *  Enables block's operation and restores its configuration. Should be called
  68:Generated_Source\PSoC6/LCD_INTERFACE_PM.c **** *  after awaking from Sleep.
  69:Generated_Source\PSoC6/LCD_INTERFACE_PM.c **** *
  70:Generated_Source\PSoC6/LCD_INTERFACE_PM.c **** *******************************************************************************/
  71:Generated_Source\PSoC6/LCD_INTERFACE_PM.c **** void LCD_INTERFACE_Wakeup(void) 
  72:Generated_Source\PSoC6/LCD_INTERFACE_PM.c **** {
  89              		.loc 1 72 0
  90              		.cfi_startproc
  91              		@ args = 0, pretend = 0, frame = 0
  92              		@ frame_needed = 0, uses_anonymous_args = 0
  93 0000 10B5     		push	{r4, lr}
  94              		.cfi_def_cfa_offset 8
  95              		.cfi_offset 4, -8
  96              		.cfi_offset 14, -4
  73:Generated_Source\PSoC6/LCD_INTERFACE_PM.c ****     LCD_INTERFACE_Enable();
  97              		.loc 1 73 0
  98 0002 FFF7FEFF 		bl	LCD_INTERFACE_Enable
ARM GAS  C:\Users\pearlstl\AppData\Local\Temp\cccl86yd.s 			page 4


  99              	.LVL1:
  74:Generated_Source\PSoC6/LCD_INTERFACE_PM.c **** }
 100              		.loc 1 74 0
 101              		@ sp needed
 102 0006 10BD     		pop	{r4, pc}
 103              		.cfi_endproc
 104              	.LFE48:
 105              		.size	LCD_INTERFACE_Wakeup, .-LCD_INTERFACE_Wakeup
 106              		.text
 107              	.Letext0:
 108              		.file 2 "Generated_Source\\PSoC6\\LCD_INTERFACE.h"