ARM GAS  C:\Users\pearlstl\AppData\Local\Temp\ccJc8F9F.s 			page 1


   1              		.syntax unified
   2              		.cpu cortex-m4
   3              		.eabi_attribute 27, 1
   4              		.fpu fpv4-sp-d16
   5              		.eabi_attribute 20, 1
   6              		.eabi_attribute 21, 1
   7              		.eabi_attribute 23, 3
   8              		.eabi_attribute 24, 1
   9              		.eabi_attribute 25, 1
  10              		.eabi_attribute 26, 1
  11              		.eabi_attribute 30, 2
  12              		.eabi_attribute 34, 1
  13              		.eabi_attribute 18, 4
  14              		.thumb
  15              		.syntax unified
  16              		.file	"cy_flash.c"
  17              		.text
  18              	.Ltext0:
  19              		.cfi_sections	.debug_frame
  20              		.section	.cy_ramfunc,"ax",%progbits
  21              		.align	2
  22              		.thumb
  23              		.thumb_func
  24              		.type	Cy_Flash_RAMDelay, %function
  25              	Cy_Flash_RAMDelay:
  26              	.LFB249:
  27              		.file 1 "Generated_Source\\PSoC6\\pdl\\drivers\\peripheral\\flash\\cy_flash.c"
   1:Generated_Source\PSoC6\pdl\drivers\peripheral\flash/cy_flash.c **** /***************************************************************************//**
   2:Generated_Source\PSoC6\pdl\drivers\peripheral\flash/cy_flash.c **** * \file cy_flash.c
   3:Generated_Source\PSoC6\pdl\drivers\peripheral\flash/cy_flash.c **** * \version 3.20
   4:Generated_Source\PSoC6\pdl\drivers\peripheral\flash/cy_flash.c **** *
   5:Generated_Source\PSoC6\pdl\drivers\peripheral\flash/cy_flash.c **** * \brief
   6:Generated_Source\PSoC6\pdl\drivers\peripheral\flash/cy_flash.c **** * Provides the public functions for the API for the PSoC 6 Flash Driver.
   7:Generated_Source\PSoC6\pdl\drivers\peripheral\flash/cy_flash.c **** *
   8:Generated_Source\PSoC6\pdl\drivers\peripheral\flash/cy_flash.c **** ********************************************************************************
   9:Generated_Source\PSoC6\pdl\drivers\peripheral\flash/cy_flash.c **** * \copyright
  10:Generated_Source\PSoC6\pdl\drivers\peripheral\flash/cy_flash.c **** * Copyright 2016-2018, Cypress Semiconductor Corporation. All rights reserved.
  11:Generated_Source\PSoC6\pdl\drivers\peripheral\flash/cy_flash.c **** * You may use this file only in accordance with the license, terms, conditions,
  12:Generated_Source\PSoC6\pdl\drivers\peripheral\flash/cy_flash.c **** * disclaimers, and limitations in the end user license agreement accompanying
  13:Generated_Source\PSoC6\pdl\drivers\peripheral\flash/cy_flash.c **** * the software package with which this file was provided.
  14:Generated_Source\PSoC6\pdl\drivers\peripheral\flash/cy_flash.c **** *******************************************************************************/
  15:Generated_Source\PSoC6\pdl\drivers\peripheral\flash/cy_flash.c **** #include "cy_flash.h"
  16:Generated_Source\PSoC6\pdl\drivers\peripheral\flash/cy_flash.c **** #include "cy_sysclk.h"
  17:Generated_Source\PSoC6\pdl\drivers\peripheral\flash/cy_flash.c **** #include "cy_sysint.h"
  18:Generated_Source\PSoC6\pdl\drivers\peripheral\flash/cy_flash.c **** #include "cy_ipc_drv.h"
  19:Generated_Source\PSoC6\pdl\drivers\peripheral\flash/cy_flash.c **** #include "cy_ipc_sema.h"
  20:Generated_Source\PSoC6\pdl\drivers\peripheral\flash/cy_flash.c **** #include "cy_ipc_pipe.h"
  21:Generated_Source\PSoC6\pdl\drivers\peripheral\flash/cy_flash.c **** #include "cy_device.h"
  22:Generated_Source\PSoC6\pdl\drivers\peripheral\flash/cy_flash.c **** 
  23:Generated_Source\PSoC6\pdl\drivers\peripheral\flash/cy_flash.c **** 
  24:Generated_Source\PSoC6\pdl\drivers\peripheral\flash/cy_flash.c **** /***************************************
  25:Generated_Source\PSoC6\pdl\drivers\peripheral\flash/cy_flash.c **** * Data Structure definitions
  26:Generated_Source\PSoC6\pdl\drivers\peripheral\flash/cy_flash.c **** ***************************************/
  27:Generated_Source\PSoC6\pdl\drivers\peripheral\flash/cy_flash.c **** 
  28:Generated_Source\PSoC6\pdl\drivers\peripheral\flash/cy_flash.c **** /* Flash driver context */
  29:Generated_Source\PSoC6\pdl\drivers\peripheral\flash/cy_flash.c **** typedef struct
  30:Generated_Source\PSoC6\pdl\drivers\peripheral\flash/cy_flash.c **** {
ARM GAS  C:\Users\pearlstl\AppData\Local\Temp\ccJc8F9F.s 			page 2


  31:Generated_Source\PSoC6\pdl\drivers\peripheral\flash/cy_flash.c ****     uint32_t opcode;      /**< Specifies the code of flash operation */
  32:Generated_Source\PSoC6\pdl\drivers\peripheral\flash/cy_flash.c ****     uint32_t arg1;        /**< Specifies the configuration of flash operation */
  33:Generated_Source\PSoC6\pdl\drivers\peripheral\flash/cy_flash.c ****     uint32_t arg2;        /**< Specifies the configuration of flash operation */
  34:Generated_Source\PSoC6\pdl\drivers\peripheral\flash/cy_flash.c ****     uint32_t arg3;        /**< Specifies the configuration of flash operation */
  35:Generated_Source\PSoC6\pdl\drivers\peripheral\flash/cy_flash.c **** } cy_stc_flash_context_t;
  36:Generated_Source\PSoC6\pdl\drivers\peripheral\flash/cy_flash.c **** 
  37:Generated_Source\PSoC6\pdl\drivers\peripheral\flash/cy_flash.c **** 
  38:Generated_Source\PSoC6\pdl\drivers\peripheral\flash/cy_flash.c **** /***************************************
  39:Generated_Source\PSoC6\pdl\drivers\peripheral\flash/cy_flash.c **** * Macro definitions
  40:Generated_Source\PSoC6\pdl\drivers\peripheral\flash/cy_flash.c **** ***************************************/
  41:Generated_Source\PSoC6\pdl\drivers\peripheral\flash/cy_flash.c **** 
  42:Generated_Source\PSoC6\pdl\drivers\peripheral\flash/cy_flash.c **** /** \cond INTERNAL */
  43:Generated_Source\PSoC6\pdl\drivers\peripheral\flash/cy_flash.c **** /** Set SROM API in blocking mode */
  44:Generated_Source\PSoC6\pdl\drivers\peripheral\flash/cy_flash.c **** #define CY_FLASH_BLOCKING_MODE             ((0x01UL) << 8UL)
  45:Generated_Source\PSoC6\pdl\drivers\peripheral\flash/cy_flash.c **** /** Set SROM API in non blocking mode */
  46:Generated_Source\PSoC6\pdl\drivers\peripheral\flash/cy_flash.c **** #define CY_FLASH_NON_BLOCKING_MODE         (0UL)
  47:Generated_Source\PSoC6\pdl\drivers\peripheral\flash/cy_flash.c **** 
  48:Generated_Source\PSoC6\pdl\drivers\peripheral\flash/cy_flash.c **** /** SROM API flash region ID shift for flash row information */
  49:Generated_Source\PSoC6\pdl\drivers\peripheral\flash/cy_flash.c **** #define CY_FLASH_REGION_ID_SHIFT           (16U)
  50:Generated_Source\PSoC6\pdl\drivers\peripheral\flash/cy_flash.c **** #define CY_FLASH_REGION_ID_MASK            (3U)
  51:Generated_Source\PSoC6\pdl\drivers\peripheral\flash/cy_flash.c **** #define CY_FLASH_ROW_ID_MASK               (0xFFFFU)
  52:Generated_Source\PSoC6\pdl\drivers\peripheral\flash/cy_flash.c **** /** SROM API flash region IDs */
  53:Generated_Source\PSoC6\pdl\drivers\peripheral\flash/cy_flash.c **** #define CY_FLASH_REGION_ID_MAIN            (0UL)
  54:Generated_Source\PSoC6\pdl\drivers\peripheral\flash/cy_flash.c **** #define CY_FLASH_REGION_ID_EM_EEPROM       (1UL)
  55:Generated_Source\PSoC6\pdl\drivers\peripheral\flash/cy_flash.c **** #define CY_FLASH_REGION_ID_SFLASH          (2UL)
  56:Generated_Source\PSoC6\pdl\drivers\peripheral\flash/cy_flash.c **** 
  57:Generated_Source\PSoC6\pdl\drivers\peripheral\flash/cy_flash.c **** /** SROM API opcode mask */
  58:Generated_Source\PSoC6\pdl\drivers\peripheral\flash/cy_flash.c **** #define CY_FLASH_OPCODE_Msk                ((0xFFUL) << 24UL)
  59:Generated_Source\PSoC6\pdl\drivers\peripheral\flash/cy_flash.c **** /** SROM API opcode for flash write operation */
  60:Generated_Source\PSoC6\pdl\drivers\peripheral\flash/cy_flash.c **** #define CY_FLASH_OPCODE_WRITE_ROW          ((0x05UL) << 24UL)
  61:Generated_Source\PSoC6\pdl\drivers\peripheral\flash/cy_flash.c **** /** SROM API opcode for flash program operation */
  62:Generated_Source\PSoC6\pdl\drivers\peripheral\flash/cy_flash.c **** #define CY_FLASH_OPCODE_PROGRAM_ROW        ((0x06UL) << 24UL)
  63:Generated_Source\PSoC6\pdl\drivers\peripheral\flash/cy_flash.c **** /** SROM API opcode for row erase operation */
  64:Generated_Source\PSoC6\pdl\drivers\peripheral\flash/cy_flash.c **** #define CY_FLASH_OPCODE_ERASE_ROW          ((0x1CUL) << 24UL)
  65:Generated_Source\PSoC6\pdl\drivers\peripheral\flash/cy_flash.c **** /** SROM API opcode for flash checksum operation */
  66:Generated_Source\PSoC6\pdl\drivers\peripheral\flash/cy_flash.c **** #define CY_FLASH_OPCODE_CHECKSUM           ((0x0BUL) << 24UL)
  67:Generated_Source\PSoC6\pdl\drivers\peripheral\flash/cy_flash.c **** /** SROM API opcode for flash hash operation */
  68:Generated_Source\PSoC6\pdl\drivers\peripheral\flash/cy_flash.c **** #define CY_FLASH_OPCODE_HASH               ((0x0DUL) << 24UL)
  69:Generated_Source\PSoC6\pdl\drivers\peripheral\flash/cy_flash.c **** /** SROM API flash row shift for flash checksum operation */
  70:Generated_Source\PSoC6\pdl\drivers\peripheral\flash/cy_flash.c **** #define CY_FLASH_OPCODE_CHECKSUM_ROW_SHIFT (8UL)
  71:Generated_Source\PSoC6\pdl\drivers\peripheral\flash/cy_flash.c **** /** SROM API flash row shift for flash checksum operation */
  72:Generated_Source\PSoC6\pdl\drivers\peripheral\flash/cy_flash.c **** #define CY_FLASH_OPCODE_CHECKSUM_REGION_SHIFT (22UL)
  73:Generated_Source\PSoC6\pdl\drivers\peripheral\flash/cy_flash.c **** /** Data to be programmed to flash is located in SRAM memory region */
  74:Generated_Source\PSoC6\pdl\drivers\peripheral\flash/cy_flash.c **** #define CY_FLASH_DATA_LOC_SRAM             (0x100UL)
  75:Generated_Source\PSoC6\pdl\drivers\peripheral\flash/cy_flash.c **** /** SROM API flash verification option for flash write operation */
  76:Generated_Source\PSoC6\pdl\drivers\peripheral\flash/cy_flash.c **** #define CY_FLASH_CONFIG_VERIFICATION_EN    ((0x01UL) << 16u)
  77:Generated_Source\PSoC6\pdl\drivers\peripheral\flash/cy_flash.c **** 
  78:Generated_Source\PSoC6\pdl\drivers\peripheral\flash/cy_flash.c **** /** Command completed with no errors */
  79:Generated_Source\PSoC6\pdl\drivers\peripheral\flash/cy_flash.c **** #define CY_FLASH_ROMCODE_SUCCESS                   (0xA0000000UL)
  80:Generated_Source\PSoC6\pdl\drivers\peripheral\flash/cy_flash.c **** /** Invalid device protection state */
  81:Generated_Source\PSoC6\pdl\drivers\peripheral\flash/cy_flash.c **** #define CY_FLASH_ROMCODE_INVALID_PROTECTION        (0xF0000001UL)
  82:Generated_Source\PSoC6\pdl\drivers\peripheral\flash/cy_flash.c **** /** Invalid flash page latch address */
  83:Generated_Source\PSoC6\pdl\drivers\peripheral\flash/cy_flash.c **** #define CY_FLASH_ROMCODE_INVALID_FM_PL             (0xF0000003UL)
  84:Generated_Source\PSoC6\pdl\drivers\peripheral\flash/cy_flash.c **** /** Invalid flash address */
  85:Generated_Source\PSoC6\pdl\drivers\peripheral\flash/cy_flash.c **** #define CY_FLASH_ROMCODE_INVALID_FLASH_ADDR        (0xF0000004UL)
  86:Generated_Source\PSoC6\pdl\drivers\peripheral\flash/cy_flash.c **** /** Row is write protected */
  87:Generated_Source\PSoC6\pdl\drivers\peripheral\flash/cy_flash.c **** #define CY_FLASH_ROMCODE_ROW_PROTECTED             (0xF0000005UL)
ARM GAS  C:\Users\pearlstl\AppData\Local\Temp\ccJc8F9F.s 			page 3


  88:Generated_Source\PSoC6\pdl\drivers\peripheral\flash/cy_flash.c **** /** Comparison between Page Latches and FM row failed */
  89:Generated_Source\PSoC6\pdl\drivers\peripheral\flash/cy_flash.c **** #define CY_FLASH_ROMCODE_PL_ROW_COMP_FA            (0xF0000022UL)
  90:Generated_Source\PSoC6\pdl\drivers\peripheral\flash/cy_flash.c **** /** Command in progress; no error */
  91:Generated_Source\PSoC6\pdl\drivers\peripheral\flash/cy_flash.c **** #define CY_FLASH_ROMCODE_IN_PROGRESS_NO_ERROR      (0xA0000009UL)
  92:Generated_Source\PSoC6\pdl\drivers\peripheral\flash/cy_flash.c **** /** Flash operation is successfully initiated */
  93:Generated_Source\PSoC6\pdl\drivers\peripheral\flash/cy_flash.c **** #define CY_FLASH_IS_OPERATION_STARTED              (0x00000010UL)
  94:Generated_Source\PSoC6\pdl\drivers\peripheral\flash/cy_flash.c **** /** Flash is under operation */
  95:Generated_Source\PSoC6\pdl\drivers\peripheral\flash/cy_flash.c **** #define CY_FLASH_IS_BUSY                           (0x00000040UL)
  96:Generated_Source\PSoC6\pdl\drivers\peripheral\flash/cy_flash.c **** /** IPC structure is already locked by another process */
  97:Generated_Source\PSoC6\pdl\drivers\peripheral\flash/cy_flash.c **** #define CY_FLASH_IS_IPC_BUSY                       (0x00000080UL)
  98:Generated_Source\PSoC6\pdl\drivers\peripheral\flash/cy_flash.c **** /** Input parameters passed to Flash API are not valid */
  99:Generated_Source\PSoC6\pdl\drivers\peripheral\flash/cy_flash.c **** #define CY_FLASH_IS_INVALID_INPUT_PARAMETERS       (0x00000100UL)
 100:Generated_Source\PSoC6\pdl\drivers\peripheral\flash/cy_flash.c **** 
 101:Generated_Source\PSoC6\pdl\drivers\peripheral\flash/cy_flash.c **** /** Result mask */
 102:Generated_Source\PSoC6\pdl\drivers\peripheral\flash/cy_flash.c **** #define CY_FLASH_RESULT_MASK                       (0x0FFFFFFFUL)
 103:Generated_Source\PSoC6\pdl\drivers\peripheral\flash/cy_flash.c **** /** Error shift */
 104:Generated_Source\PSoC6\pdl\drivers\peripheral\flash/cy_flash.c **** #define CY_FLASH_ERROR_SHIFT                       (28UL)
 105:Generated_Source\PSoC6\pdl\drivers\peripheral\flash/cy_flash.c **** /** No error */
 106:Generated_Source\PSoC6\pdl\drivers\peripheral\flash/cy_flash.c **** #define CY_FLASH_ERROR_NO_ERROR                    (0xAUL)
 107:Generated_Source\PSoC6\pdl\drivers\peripheral\flash/cy_flash.c **** 
 108:Generated_Source\PSoC6\pdl\drivers\peripheral\flash/cy_flash.c **** /** CM4 Flash Proxy address */
 109:Generated_Source\PSoC6\pdl\drivers\peripheral\flash/cy_flash.c **** #define CY_FLASH_CM4_FLASH_PROXY_ADDR              (*(Cy_Flash_Proxy *)(0x00000D1CUL))
 110:Generated_Source\PSoC6\pdl\drivers\peripheral\flash/cy_flash.c **** typedef cy_en_flashdrv_status_t (*Cy_Flash_Proxy)(cy_stc_flash_context_t *context);
 111:Generated_Source\PSoC6\pdl\drivers\peripheral\flash/cy_flash.c **** 
 112:Generated_Source\PSoC6\pdl\drivers\peripheral\flash/cy_flash.c **** /** IPC notify bit for IPC0 structure (dedicated to flash operation) */
 113:Generated_Source\PSoC6\pdl\drivers\peripheral\flash/cy_flash.c **** #define CY_FLASH_IPC_NOTIFY_STRUCT0                (0x1UL << CY_IPC_INTR_SYSCALL1)
 114:Generated_Source\PSoC6\pdl\drivers\peripheral\flash/cy_flash.c **** 
 115:Generated_Source\PSoC6\pdl\drivers\peripheral\flash/cy_flash.c **** /** Disable delay */
 116:Generated_Source\PSoC6\pdl\drivers\peripheral\flash/cy_flash.c **** #define CY_FLASH_NO_DELAY                          (0U)
 117:Generated_Source\PSoC6\pdl\drivers\peripheral\flash/cy_flash.c **** 
 118:Generated_Source\PSoC6\pdl\drivers\peripheral\flash/cy_flash.c **** #if !defined(CY_FLASH_RWW_DRV_SUPPORT_DISABLED)
 119:Generated_Source\PSoC6\pdl\drivers\peripheral\flash/cy_flash.c ****     /** Number of ticks to wait 1 uS */
 120:Generated_Source\PSoC6\pdl\drivers\peripheral\flash/cy_flash.c ****     #define CY_FLASH_TICKS_FOR_1US                     (8U)
 121:Generated_Source\PSoC6\pdl\drivers\peripheral\flash/cy_flash.c ****     /** Define to set the IMO to perform a delay after the flash operation started */
 122:Generated_Source\PSoC6\pdl\drivers\peripheral\flash/cy_flash.c ****     #define CY_FLASH_TST_DDFT_SLOW_CTL_MASK            (0x00001F1EUL)
 123:Generated_Source\PSoC6\pdl\drivers\peripheral\flash/cy_flash.c ****     /** Fast control register */
 124:Generated_Source\PSoC6\pdl\drivers\peripheral\flash/cy_flash.c ****     #define CY_FLASH_TST_DDFT_FAST_CTL_MASK            (62U)
 125:Generated_Source\PSoC6\pdl\drivers\peripheral\flash/cy_flash.c ****     /** Slow output register - output disabled */
 126:Generated_Source\PSoC6\pdl\drivers\peripheral\flash/cy_flash.c ****     #define CY_FLASH_CLK_OUTPUT_DISABLED               (0U)
 127:Generated_Source\PSoC6\pdl\drivers\peripheral\flash/cy_flash.c **** 
 128:Generated_Source\PSoC6\pdl\drivers\peripheral\flash/cy_flash.c ****     /* The default delay time value */
 129:Generated_Source\PSoC6\pdl\drivers\peripheral\flash/cy_flash.c ****     #define CY_FLASH_DEFAULT_DELAY                     (150UL)
 130:Generated_Source\PSoC6\pdl\drivers\peripheral\flash/cy_flash.c ****     /* Calculates the time in microseconds to wait for the number of the CM0P ticks */
 131:Generated_Source\PSoC6\pdl\drivers\peripheral\flash/cy_flash.c ****     #define CY_FLASH_DELAY_CORRECTIVE(ticks)           ((((uint32)Cy_SysClk_ClkPeriGetDivider() + 1
 132:Generated_Source\PSoC6\pdl\drivers\peripheral\flash/cy_flash.c ****                                                        (Cy_SysClk_ClkSlowGetDivider() + 1UL) * (tic
 133:Generated_Source\PSoC6\pdl\drivers\peripheral\flash/cy_flash.c ****                                                        / ((uint32_t)cy_Hfclk0FreqHz / 1000UL))
 134:Generated_Source\PSoC6\pdl\drivers\peripheral\flash/cy_flash.c **** 
 135:Generated_Source\PSoC6\pdl\drivers\peripheral\flash/cy_flash.c ****     /* Number of the CM0P ticks for StartProgram function delay corrective time */
 136:Generated_Source\PSoC6\pdl\drivers\peripheral\flash/cy_flash.c ****     #define CY_FLASH_START_PROGRAM_DELAY_TICKS         (6000UL)
 137:Generated_Source\PSoC6\pdl\drivers\peripheral\flash/cy_flash.c ****     /* Delay time for StartProgram function in us */
 138:Generated_Source\PSoC6\pdl\drivers\peripheral\flash/cy_flash.c ****     #define CY_FLASH_START_PROGRAM_DELAY_TIME          (900UL + CY_FLASH_DELAY_CORRECTIVE(CY_FLASH_
 139:Generated_Source\PSoC6\pdl\drivers\peripheral\flash/cy_flash.c ****     /* Number of the CM0P ticks for StartErase function delay corrective time */
 140:Generated_Source\PSoC6\pdl\drivers\peripheral\flash/cy_flash.c ****     #define CY_FLASH_START_ERASE_DELAY_TICKS           (9500UL)
 141:Generated_Source\PSoC6\pdl\drivers\peripheral\flash/cy_flash.c ****     /* Delay time for StartErase function in us */
 142:Generated_Source\PSoC6\pdl\drivers\peripheral\flash/cy_flash.c ****     #define CY_FLASH_START_ERASE_DELAY_TIME            (2200UL + CY_FLASH_DELAY_CORRECTIVE(CY_FLASH
 143:Generated_Source\PSoC6\pdl\drivers\peripheral\flash/cy_flash.c ****     /* Number of the CM0P ticks for StartWrite function delay corrective time */
 144:Generated_Source\PSoC6\pdl\drivers\peripheral\flash/cy_flash.c ****     #define CY_FLASH_START_WRITE_DELAY_TICKS           (19000UL)
ARM GAS  C:\Users\pearlstl\AppData\Local\Temp\ccJc8F9F.s 			page 4


 145:Generated_Source\PSoC6\pdl\drivers\peripheral\flash/cy_flash.c ****     /* Delay time for StartWrite function in us */
 146:Generated_Source\PSoC6\pdl\drivers\peripheral\flash/cy_flash.c ****     #define CY_FLASH_START_WRITE_DELAY_TIME            (9800UL + CY_FLASH_DELAY_CORRECTIVE(CY_FLASH
 147:Generated_Source\PSoC6\pdl\drivers\peripheral\flash/cy_flash.c **** 
 148:Generated_Source\PSoC6\pdl\drivers\peripheral\flash/cy_flash.c ****     /** Delay time for Start Write function in us with corrective time */
 149:Generated_Source\PSoC6\pdl\drivers\peripheral\flash/cy_flash.c ****     #define CY_FLASH_START_WRITE_DELAY                 (CY_FLASH_START_WRITE_DELAY_TIME)
 150:Generated_Source\PSoC6\pdl\drivers\peripheral\flash/cy_flash.c ****     /** Delay time for Start Program function in us with corrective time */
 151:Generated_Source\PSoC6\pdl\drivers\peripheral\flash/cy_flash.c ****     #define CY_FLASH_START_PROGRAM_DELAY               (CY_FLASH_START_PROGRAM_DELAY_TIME)
 152:Generated_Source\PSoC6\pdl\drivers\peripheral\flash/cy_flash.c ****     /** Delay time for Start Erase function in uS with corrective time */
 153:Generated_Source\PSoC6\pdl\drivers\peripheral\flash/cy_flash.c ****     #define CY_FLASH_START_ERASE_DELAY                 (CY_FLASH_START_ERASE_DELAY_TIME)
 154:Generated_Source\PSoC6\pdl\drivers\peripheral\flash/cy_flash.c **** 
 155:Generated_Source\PSoC6\pdl\drivers\peripheral\flash/cy_flash.c ****     #define CY_FLASH_ENTER_WAIT_LOOP                   (0xFFU)
 156:Generated_Source\PSoC6\pdl\drivers\peripheral\flash/cy_flash.c ****     #define CY_FLASH_IPC_CLIENT_ID                     (2U)
 157:Generated_Source\PSoC6\pdl\drivers\peripheral\flash/cy_flash.c **** 
 158:Generated_Source\PSoC6\pdl\drivers\peripheral\flash/cy_flash.c ****     /** Semaphore number reserved for flash driver */
 159:Generated_Source\PSoC6\pdl\drivers\peripheral\flash/cy_flash.c ****     #define CY_FLASH_WAIT_SEMA                         (0UL)
 160:Generated_Source\PSoC6\pdl\drivers\peripheral\flash/cy_flash.c ****     /* Semaphore check timeout (in tries) */
 161:Generated_Source\PSoC6\pdl\drivers\peripheral\flash/cy_flash.c ****     #define CY_FLASH_SEMA_WAIT_MAX_TRIES               (150000UL)
 162:Generated_Source\PSoC6\pdl\drivers\peripheral\flash/cy_flash.c **** 
 163:Generated_Source\PSoC6\pdl\drivers\peripheral\flash/cy_flash.c ****     static void Cy_Flash_RAMDelay(uint32_t microseconds);
 164:Generated_Source\PSoC6\pdl\drivers\peripheral\flash/cy_flash.c **** 
 165:Generated_Source\PSoC6\pdl\drivers\peripheral\flash/cy_flash.c ****     #if (CY_CPU_CORTEX_M0P)
 166:Generated_Source\PSoC6\pdl\drivers\peripheral\flash/cy_flash.c ****         #define IS_CY_PIPE_FREE(...)       (!Cy_IPC_Drv_IsLockAcquired(Cy_IPC_Drv_GetIpcBaseAddress
 167:Generated_Source\PSoC6\pdl\drivers\peripheral\flash/cy_flash.c ****         #define NOTIFY_PEER_CORE(a)         Cy_IPC_Pipe_SendMessage(CY_IPC_EP_CYPIPE_CM4_ADDR, CY_I
 168:Generated_Source\PSoC6\pdl\drivers\peripheral\flash/cy_flash.c ****     #else
 169:Generated_Source\PSoC6\pdl\drivers\peripheral\flash/cy_flash.c ****         #define IS_CY_PIPE_FREE(...)       (!Cy_IPC_Drv_IsLockAcquired(Cy_IPC_Drv_GetIpcBaseAddress
 170:Generated_Source\PSoC6\pdl\drivers\peripheral\flash/cy_flash.c ****         #define NOTIFY_PEER_CORE(a)         Cy_IPC_Pipe_SendMessage(CY_IPC_EP_CYPIPE_CM0_ADDR, CY_I
 171:Generated_Source\PSoC6\pdl\drivers\peripheral\flash/cy_flash.c ****     #endif
 172:Generated_Source\PSoC6\pdl\drivers\peripheral\flash/cy_flash.c **** 
 173:Generated_Source\PSoC6\pdl\drivers\peripheral\flash/cy_flash.c ****     static void Cy_Flash_NotifyHandler(uint32_t * msgPtr);
 174:Generated_Source\PSoC6\pdl\drivers\peripheral\flash/cy_flash.c ****     
 175:Generated_Source\PSoC6\pdl\drivers\peripheral\flash/cy_flash.c ****     static cy_stc_flash_notify_t * ipcWaitMessage;
 176:Generated_Source\PSoC6\pdl\drivers\peripheral\flash/cy_flash.c **** 
 177:Generated_Source\PSoC6\pdl\drivers\peripheral\flash/cy_flash.c **** #else
 178:Generated_Source\PSoC6\pdl\drivers\peripheral\flash/cy_flash.c ****     /** Delay time for Start Write function in us with corrective time */
 179:Generated_Source\PSoC6\pdl\drivers\peripheral\flash/cy_flash.c ****     #define CY_FLASH_START_WRITE_DELAY                 (CY_FLASH_NO_DELAY)
 180:Generated_Source\PSoC6\pdl\drivers\peripheral\flash/cy_flash.c ****     /** Delay time for Start Program function in us with corrective time */
 181:Generated_Source\PSoC6\pdl\drivers\peripheral\flash/cy_flash.c ****     #define CY_FLASH_START_PROGRAM_DELAY               (CY_FLASH_NO_DELAY)
 182:Generated_Source\PSoC6\pdl\drivers\peripheral\flash/cy_flash.c ****     /** Delay time for Start Erase function in uS with corrective time */
 183:Generated_Source\PSoC6\pdl\drivers\peripheral\flash/cy_flash.c ****     #define CY_FLASH_START_ERASE_DELAY                 (CY_FLASH_NO_DELAY)
 184:Generated_Source\PSoC6\pdl\drivers\peripheral\flash/cy_flash.c ****     
 185:Generated_Source\PSoC6\pdl\drivers\peripheral\flash/cy_flash.c **** #endif /* !defined(CY_FLASH_RWW_DRV_SUPPORT_DISABLED) */
 186:Generated_Source\PSoC6\pdl\drivers\peripheral\flash/cy_flash.c **** /** \endcond */
 187:Generated_Source\PSoC6\pdl\drivers\peripheral\flash/cy_flash.c **** 
 188:Generated_Source\PSoC6\pdl\drivers\peripheral\flash/cy_flash.c **** /* Static functions */
 189:Generated_Source\PSoC6\pdl\drivers\peripheral\flash/cy_flash.c **** static bool Cy_Flash_BoundsCheck(uint32_t flashAddr);
 190:Generated_Source\PSoC6\pdl\drivers\peripheral\flash/cy_flash.c **** static uint32_t Cy_Flash_GetRowNum(uint32_t flashAddr);
 191:Generated_Source\PSoC6\pdl\drivers\peripheral\flash/cy_flash.c **** static cy_en_flashdrv_status_t Cy_Flash_ProcessOpcode(uint32_t opcode);
 192:Generated_Source\PSoC6\pdl\drivers\peripheral\flash/cy_flash.c **** static cy_en_flashdrv_status_t Cy_Flash_OperationStatus(void);
 193:Generated_Source\PSoC6\pdl\drivers\peripheral\flash/cy_flash.c **** static cy_en_flashdrv_status_t Cy_Flash_SendCmd(uint32_t mode, uint32_t microseconds);
 194:Generated_Source\PSoC6\pdl\drivers\peripheral\flash/cy_flash.c **** 
 195:Generated_Source\PSoC6\pdl\drivers\peripheral\flash/cy_flash.c **** static volatile cy_stc_flash_context_t flashContext;
 196:Generated_Source\PSoC6\pdl\drivers\peripheral\flash/cy_flash.c **** 
 197:Generated_Source\PSoC6\pdl\drivers\peripheral\flash/cy_flash.c **** 
 198:Generated_Source\PSoC6\pdl\drivers\peripheral\flash/cy_flash.c **** #if !defined(CY_FLASH_RWW_DRV_SUPPORT_DISABLED)
 199:Generated_Source\PSoC6\pdl\drivers\peripheral\flash/cy_flash.c ****     /*******************************************************************************
 200:Generated_Source\PSoC6\pdl\drivers\peripheral\flash/cy_flash.c ****     * Function Name: Cy_Flash_InitExt
 201:Generated_Source\PSoC6\pdl\drivers\peripheral\flash/cy_flash.c ****     ****************************************************************************//**
ARM GAS  C:\Users\pearlstl\AppData\Local\Temp\ccJc8F9F.s 			page 5


 202:Generated_Source\PSoC6\pdl\drivers\peripheral\flash/cy_flash.c ****     *
 203:Generated_Source\PSoC6\pdl\drivers\peripheral\flash/cy_flash.c ****     * Initiates all needed prerequisites to support flash erase/write.
 204:Generated_Source\PSoC6\pdl\drivers\peripheral\flash/cy_flash.c ****     * Should be called from each core. Defines the address of the message structure.
 205:Generated_Source\PSoC6\pdl\drivers\peripheral\flash/cy_flash.c ****     *
 206:Generated_Source\PSoC6\pdl\drivers\peripheral\flash/cy_flash.c ****     * Requires a call to Cy_IPC_Sema_Init(), Cy_IPC_Pipe_Config() and 
 207:Generated_Source\PSoC6\pdl\drivers\peripheral\flash/cy_flash.c ****     * Cy_IPC_Pipe_Init() functions before use.
 208:Generated_Source\PSoC6\pdl\drivers\peripheral\flash/cy_flash.c ****     *
 209:Generated_Source\PSoC6\pdl\drivers\peripheral\flash/cy_flash.c ****     * This function is called in the Cy_Flash_Init() function - see the 
 210:Generated_Source\PSoC6\pdl\drivers\peripheral\flash/cy_flash.c ****     * \ref Cy_Flash_Init usage considerations.
 211:Generated_Source\PSoC6\pdl\drivers\peripheral\flash/cy_flash.c ****     *
 212:Generated_Source\PSoC6\pdl\drivers\peripheral\flash/cy_flash.c ****     *******************************************************************************/
 213:Generated_Source\PSoC6\pdl\drivers\peripheral\flash/cy_flash.c ****     void Cy_Flash_InitExt(cy_stc_flash_notify_t *ipcWaitMessageAddr)
 214:Generated_Source\PSoC6\pdl\drivers\peripheral\flash/cy_flash.c ****     {
 215:Generated_Source\PSoC6\pdl\drivers\peripheral\flash/cy_flash.c ****         ipcWaitMessage = ipcWaitMessageAddr;
 216:Generated_Source\PSoC6\pdl\drivers\peripheral\flash/cy_flash.c ****        
 217:Generated_Source\PSoC6\pdl\drivers\peripheral\flash/cy_flash.c ****         if(ipcWaitMessage != NULL)
 218:Generated_Source\PSoC6\pdl\drivers\peripheral\flash/cy_flash.c ****         {
 219:Generated_Source\PSoC6\pdl\drivers\peripheral\flash/cy_flash.c ****             ipcWaitMessage->clientID = CY_FLASH_IPC_CLIENT_ID;
 220:Generated_Source\PSoC6\pdl\drivers\peripheral\flash/cy_flash.c ****             ipcWaitMessage->pktType = CY_FLASH_ENTER_WAIT_LOOP;
 221:Generated_Source\PSoC6\pdl\drivers\peripheral\flash/cy_flash.c ****             ipcWaitMessage->intrRelMask = 0u;            
 222:Generated_Source\PSoC6\pdl\drivers\peripheral\flash/cy_flash.c ****         }                    
 223:Generated_Source\PSoC6\pdl\drivers\peripheral\flash/cy_flash.c ****             
 224:Generated_Source\PSoC6\pdl\drivers\peripheral\flash/cy_flash.c ****         if (cy_device->flashRwwRequired != 0u)
 225:Generated_Source\PSoC6\pdl\drivers\peripheral\flash/cy_flash.c ****         {
 226:Generated_Source\PSoC6\pdl\drivers\peripheral\flash/cy_flash.c ****             #if (CY_CPU_CORTEX_M4)
 227:Generated_Source\PSoC6\pdl\drivers\peripheral\flash/cy_flash.c ****                 cy_stc_sysint_t flashIntConfig =
 228:Generated_Source\PSoC6\pdl\drivers\peripheral\flash/cy_flash.c ****                 {
 229:Generated_Source\PSoC6\pdl\drivers\peripheral\flash/cy_flash.c ****                     (IRQn_Type)cy_device->cpussFmIrq,   /* .intrSrc */
 230:Generated_Source\PSoC6\pdl\drivers\peripheral\flash/cy_flash.c ****                     0u                                  /* .intrPriority */
 231:Generated_Source\PSoC6\pdl\drivers\peripheral\flash/cy_flash.c ****                 };
 232:Generated_Source\PSoC6\pdl\drivers\peripheral\flash/cy_flash.c **** 
 233:Generated_Source\PSoC6\pdl\drivers\peripheral\flash/cy_flash.c ****                 (void)Cy_SysInt_Init(&flashIntConfig, &Cy_Flash_ResumeIrqHandler);
 234:Generated_Source\PSoC6\pdl\drivers\peripheral\flash/cy_flash.c ****                 NVIC_EnableIRQ(flashIntConfig.intrSrc);
 235:Generated_Source\PSoC6\pdl\drivers\peripheral\flash/cy_flash.c ****             #endif
 236:Generated_Source\PSoC6\pdl\drivers\peripheral\flash/cy_flash.c **** 
 237:Generated_Source\PSoC6\pdl\drivers\peripheral\flash/cy_flash.c ****                 if (cy_device->flashPipeRequired != 0u)
 238:Generated_Source\PSoC6\pdl\drivers\peripheral\flash/cy_flash.c ****                 {
 239:Generated_Source\PSoC6\pdl\drivers\peripheral\flash/cy_flash.c ****                     (void)Cy_IPC_Pipe_RegisterCallback(CY_IPC_EP_CYPIPE_ADDR, &Cy_Flash_NotifyHandl
 240:Generated_Source\PSoC6\pdl\drivers\peripheral\flash/cy_flash.c ****                                                       (uint32_t)CY_FLASH_IPC_CLIENT_ID);
 241:Generated_Source\PSoC6\pdl\drivers\peripheral\flash/cy_flash.c ****                 }
 242:Generated_Source\PSoC6\pdl\drivers\peripheral\flash/cy_flash.c ****         }
 243:Generated_Source\PSoC6\pdl\drivers\peripheral\flash/cy_flash.c ****     }
 244:Generated_Source\PSoC6\pdl\drivers\peripheral\flash/cy_flash.c ****     
 245:Generated_Source\PSoC6\pdl\drivers\peripheral\flash/cy_flash.c ****     
 246:Generated_Source\PSoC6\pdl\drivers\peripheral\flash/cy_flash.c ****     /*******************************************************************************
 247:Generated_Source\PSoC6\pdl\drivers\peripheral\flash/cy_flash.c ****     * Function Name: Cy_Flash_NotifyHandler
 248:Generated_Source\PSoC6\pdl\drivers\peripheral\flash/cy_flash.c ****     ****************************************************************************//**
 249:Generated_Source\PSoC6\pdl\drivers\peripheral\flash/cy_flash.c ****     *
 250:Generated_Source\PSoC6\pdl\drivers\peripheral\flash/cy_flash.c ****     * This is the interrupt service routine for the pipe notifications.
 251:Generated_Source\PSoC6\pdl\drivers\peripheral\flash/cy_flash.c ****     *
 252:Generated_Source\PSoC6\pdl\drivers\peripheral\flash/cy_flash.c ****     *******************************************************************************/
 253:Generated_Source\PSoC6\pdl\drivers\peripheral\flash/cy_flash.c **** 
 254:Generated_Source\PSoC6\pdl\drivers\peripheral\flash/cy_flash.c ****     #if defined (__ICCARM__)
 255:Generated_Source\PSoC6\pdl\drivers\peripheral\flash/cy_flash.c ****         #pragma diag_suppress=Ta023
 256:Generated_Source\PSoC6\pdl\drivers\peripheral\flash/cy_flash.c ****         __ramfunc
 257:Generated_Source\PSoC6\pdl\drivers\peripheral\flash/cy_flash.c ****     #else
 258:Generated_Source\PSoC6\pdl\drivers\peripheral\flash/cy_flash.c ****         CY_SECTION(".cy_ramfunc") CY_NOINLINE
ARM GAS  C:\Users\pearlstl\AppData\Local\Temp\ccJc8F9F.s 			page 6


 259:Generated_Source\PSoC6\pdl\drivers\peripheral\flash/cy_flash.c ****     #endif
 260:Generated_Source\PSoC6\pdl\drivers\peripheral\flash/cy_flash.c ****     static void Cy_Flash_NotifyHandler(uint32_t * msgPtr)
 261:Generated_Source\PSoC6\pdl\drivers\peripheral\flash/cy_flash.c ****     {
 262:Generated_Source\PSoC6\pdl\drivers\peripheral\flash/cy_flash.c ****         uint32_t intr;
 263:Generated_Source\PSoC6\pdl\drivers\peripheral\flash/cy_flash.c ****         static uint32_t semaIndex;
 264:Generated_Source\PSoC6\pdl\drivers\peripheral\flash/cy_flash.c ****         static uint32_t semaMask;
 265:Generated_Source\PSoC6\pdl\drivers\peripheral\flash/cy_flash.c ****         static volatile uint32_t *semaPtr;
 266:Generated_Source\PSoC6\pdl\drivers\peripheral\flash/cy_flash.c ****         static cy_stc_ipc_sema_t *semaStruct;
 267:Generated_Source\PSoC6\pdl\drivers\peripheral\flash/cy_flash.c **** 
 268:Generated_Source\PSoC6\pdl\drivers\peripheral\flash/cy_flash.c ****         cy_stc_flash_notify_t *ipcMsgPtr = (cy_stc_flash_notify_t *)msgPtr;
 269:Generated_Source\PSoC6\pdl\drivers\peripheral\flash/cy_flash.c **** 
 270:Generated_Source\PSoC6\pdl\drivers\peripheral\flash/cy_flash.c ****         if (CY_FLASH_ENTER_WAIT_LOOP == ipcMsgPtr->pktType)
 271:Generated_Source\PSoC6\pdl\drivers\peripheral\flash/cy_flash.c ****         {
 272:Generated_Source\PSoC6\pdl\drivers\peripheral\flash/cy_flash.c ****             intr = Cy_SysLib_EnterCriticalSection();
 273:Generated_Source\PSoC6\pdl\drivers\peripheral\flash/cy_flash.c **** 
 274:Generated_Source\PSoC6\pdl\drivers\peripheral\flash/cy_flash.c ****             /* Get pointer to structure */
 275:Generated_Source\PSoC6\pdl\drivers\peripheral\flash/cy_flash.c ****             semaStruct = (cy_stc_ipc_sema_t *)Cy_IPC_Drv_ReadDataValue(Cy_IPC_Drv_GetIpcBaseAddress
 276:Generated_Source\PSoC6\pdl\drivers\peripheral\flash/cy_flash.c **** 
 277:Generated_Source\PSoC6\pdl\drivers\peripheral\flash/cy_flash.c ****             /* Get the index into the semaphore array and calculate the mask */
 278:Generated_Source\PSoC6\pdl\drivers\peripheral\flash/cy_flash.c ****             semaIndex = CY_FLASH_WAIT_SEMA / CY_IPC_SEMA_PER_WORD;
 279:Generated_Source\PSoC6\pdl\drivers\peripheral\flash/cy_flash.c ****             semaMask = (uint32_t)(1ul << (CY_FLASH_WAIT_SEMA - (semaIndex * CY_IPC_SEMA_PER_WORD) )
 280:Generated_Source\PSoC6\pdl\drivers\peripheral\flash/cy_flash.c ****             semaPtr = &semaStruct->arrayPtr[semaIndex];
 281:Generated_Source\PSoC6\pdl\drivers\peripheral\flash/cy_flash.c **** 
 282:Generated_Source\PSoC6\pdl\drivers\peripheral\flash/cy_flash.c ****             /* Notification to the Flash driver to start the current operation */
 283:Generated_Source\PSoC6\pdl\drivers\peripheral\flash/cy_flash.c ****             *semaPtr |= semaMask;
 284:Generated_Source\PSoC6\pdl\drivers\peripheral\flash/cy_flash.c **** 
 285:Generated_Source\PSoC6\pdl\drivers\peripheral\flash/cy_flash.c ****             /* Check a notification from other core to end of waiting */
 286:Generated_Source\PSoC6\pdl\drivers\peripheral\flash/cy_flash.c ****             while (((*semaPtr) & semaMask) != 0ul)
 287:Generated_Source\PSoC6\pdl\drivers\peripheral\flash/cy_flash.c ****             {
 288:Generated_Source\PSoC6\pdl\drivers\peripheral\flash/cy_flash.c ****             }
 289:Generated_Source\PSoC6\pdl\drivers\peripheral\flash/cy_flash.c **** 
 290:Generated_Source\PSoC6\pdl\drivers\peripheral\flash/cy_flash.c ****             Cy_SysLib_ExitCriticalSection(intr);
 291:Generated_Source\PSoC6\pdl\drivers\peripheral\flash/cy_flash.c ****         }
 292:Generated_Source\PSoC6\pdl\drivers\peripheral\flash/cy_flash.c ****     }
 293:Generated_Source\PSoC6\pdl\drivers\peripheral\flash/cy_flash.c ****     #if defined (__ICCARM__)
 294:Generated_Source\PSoC6\pdl\drivers\peripheral\flash/cy_flash.c ****         #pragma diag_default=Ta023
 295:Generated_Source\PSoC6\pdl\drivers\peripheral\flash/cy_flash.c ****     #endif
 296:Generated_Source\PSoC6\pdl\drivers\peripheral\flash/cy_flash.c **** #endif /* !defined(CY_FLASH_RWW_DRV_SUPPORT_DISABLED) */
 297:Generated_Source\PSoC6\pdl\drivers\peripheral\flash/cy_flash.c **** 
 298:Generated_Source\PSoC6\pdl\drivers\peripheral\flash/cy_flash.c **** 
 299:Generated_Source\PSoC6\pdl\drivers\peripheral\flash/cy_flash.c **** /*******************************************************************************
 300:Generated_Source\PSoC6\pdl\drivers\peripheral\flash/cy_flash.c **** * Function Name: Cy_Flash_Init
 301:Generated_Source\PSoC6\pdl\drivers\peripheral\flash/cy_flash.c **** ****************************************************************************//**
 302:Generated_Source\PSoC6\pdl\drivers\peripheral\flash/cy_flash.c **** *
 303:Generated_Source\PSoC6\pdl\drivers\peripheral\flash/cy_flash.c **** * Initiates all needed prerequisites to support flash erase/write.
 304:Generated_Source\PSoC6\pdl\drivers\peripheral\flash/cy_flash.c **** * Should be called from each core.
 305:Generated_Source\PSoC6\pdl\drivers\peripheral\flash/cy_flash.c **** *
 306:Generated_Source\PSoC6\pdl\drivers\peripheral\flash/cy_flash.c **** * Requires a call to Cy_IPC_Sema_Init(), Cy_IPC_Pipe_Config() and 
 307:Generated_Source\PSoC6\pdl\drivers\peripheral\flash/cy_flash.c **** * Cy_IPC_Pipe_Init() functions before use.
 308:Generated_Source\PSoC6\pdl\drivers\peripheral\flash/cy_flash.c **** *
 309:Generated_Source\PSoC6\pdl\drivers\peripheral\flash/cy_flash.c **** * This function is called in the SystemInit() function, for proper flash write
 310:Generated_Source\PSoC6\pdl\drivers\peripheral\flash/cy_flash.c **** * and erase operations. If the default startup file is not used, or the function
 311:Generated_Source\PSoC6\pdl\drivers\peripheral\flash/cy_flash.c **** * SystemInit() is not called in your project, ensure to perform the following steps 
 312:Generated_Source\PSoC6\pdl\drivers\peripheral\flash/cy_flash.c **** * before any flash or EmEEPROM write/erase operations:
 313:Generated_Source\PSoC6\pdl\drivers\peripheral\flash/cy_flash.c **** * \snippet flash\3.20\snippet\main.c Flash Initialization
 314:Generated_Source\PSoC6\pdl\drivers\peripheral\flash/cy_flash.c **** *
 315:Generated_Source\PSoC6\pdl\drivers\peripheral\flash/cy_flash.c **** *******************************************************************************/
ARM GAS  C:\Users\pearlstl\AppData\Local\Temp\ccJc8F9F.s 			page 7


 316:Generated_Source\PSoC6\pdl\drivers\peripheral\flash/cy_flash.c **** void Cy_Flash_Init(void)
 317:Generated_Source\PSoC6\pdl\drivers\peripheral\flash/cy_flash.c **** {
 318:Generated_Source\PSoC6\pdl\drivers\peripheral\flash/cy_flash.c ****     #if !defined(CY_FLASH_RWW_DRV_SUPPORT_DISABLED)    
 319:Generated_Source\PSoC6\pdl\drivers\peripheral\flash/cy_flash.c ****         CY_ALIGN(4) static cy_stc_flash_notify_t ipcWaitMessageStc;
 320:Generated_Source\PSoC6\pdl\drivers\peripheral\flash/cy_flash.c ****         
 321:Generated_Source\PSoC6\pdl\drivers\peripheral\flash/cy_flash.c ****         Cy_Flash_InitExt(&ipcWaitMessageStc);
 322:Generated_Source\PSoC6\pdl\drivers\peripheral\flash/cy_flash.c ****     #endif /* !defined(CY_FLASH_RWW_DRV_SUPPORT_DISABLED) */
 323:Generated_Source\PSoC6\pdl\drivers\peripheral\flash/cy_flash.c **** }
 324:Generated_Source\PSoC6\pdl\drivers\peripheral\flash/cy_flash.c **** 
 325:Generated_Source\PSoC6\pdl\drivers\peripheral\flash/cy_flash.c **** 
 326:Generated_Source\PSoC6\pdl\drivers\peripheral\flash/cy_flash.c **** /*******************************************************************************
 327:Generated_Source\PSoC6\pdl\drivers\peripheral\flash/cy_flash.c **** * Function Name: Cy_Flash_SendCmd
 328:Generated_Source\PSoC6\pdl\drivers\peripheral\flash/cy_flash.c **** ****************************************************************************//**
 329:Generated_Source\PSoC6\pdl\drivers\peripheral\flash/cy_flash.c **** *
 330:Generated_Source\PSoC6\pdl\drivers\peripheral\flash/cy_flash.c **** * Sends a command to the SROM via the IPC channel. The function is placed to the
 331:Generated_Source\PSoC6\pdl\drivers\peripheral\flash/cy_flash.c **** * SRAM memory to guarantee successful operation. After an IPC message is sent,
 332:Generated_Source\PSoC6\pdl\drivers\peripheral\flash/cy_flash.c **** * the function waits for a defined time before exiting the function.
 333:Generated_Source\PSoC6\pdl\drivers\peripheral\flash/cy_flash.c **** *
 334:Generated_Source\PSoC6\pdl\drivers\peripheral\flash/cy_flash.c **** * \param mode
 335:Generated_Source\PSoC6\pdl\drivers\peripheral\flash/cy_flash.c **** * Sets the blocking or non-blocking Flash operation.
 336:Generated_Source\PSoC6\pdl\drivers\peripheral\flash/cy_flash.c **** *
 337:Generated_Source\PSoC6\pdl\drivers\peripheral\flash/cy_flash.c **** * \param microseconds
 338:Generated_Source\PSoC6\pdl\drivers\peripheral\flash/cy_flash.c **** * The number of microseconds to wait before exiting the functions
 339:Generated_Source\PSoC6\pdl\drivers\peripheral\flash/cy_flash.c **** * in range 0-65535 us.
 340:Generated_Source\PSoC6\pdl\drivers\peripheral\flash/cy_flash.c **** *
 341:Generated_Source\PSoC6\pdl\drivers\peripheral\flash/cy_flash.c **** * \return Returns the status of the Flash operation,
 342:Generated_Source\PSoC6\pdl\drivers\peripheral\flash/cy_flash.c **** * see \ref cy_en_flashdrv_status_t.
 343:Generated_Source\PSoC6\pdl\drivers\peripheral\flash/cy_flash.c **** *
 344:Generated_Source\PSoC6\pdl\drivers\peripheral\flash/cy_flash.c **** *******************************************************************************/
 345:Generated_Source\PSoC6\pdl\drivers\peripheral\flash/cy_flash.c **** #if defined (__ICCARM__)
 346:Generated_Source\PSoC6\pdl\drivers\peripheral\flash/cy_flash.c ****     #pragma diag_suppress=Ta023
 347:Generated_Source\PSoC6\pdl\drivers\peripheral\flash/cy_flash.c ****     __ramfunc
 348:Generated_Source\PSoC6\pdl\drivers\peripheral\flash/cy_flash.c **** #else
 349:Generated_Source\PSoC6\pdl\drivers\peripheral\flash/cy_flash.c ****     CY_SECTION(".cy_ramfunc") CY_NOINLINE
 350:Generated_Source\PSoC6\pdl\drivers\peripheral\flash/cy_flash.c **** #endif
 351:Generated_Source\PSoC6\pdl\drivers\peripheral\flash/cy_flash.c **** static cy_en_flashdrv_status_t Cy_Flash_SendCmd(uint32_t mode, uint32_t microseconds)
 352:Generated_Source\PSoC6\pdl\drivers\peripheral\flash/cy_flash.c **** {
 353:Generated_Source\PSoC6\pdl\drivers\peripheral\flash/cy_flash.c ****     cy_en_flashdrv_status_t result = CY_FLASH_DRV_IPC_BUSY;
 354:Generated_Source\PSoC6\pdl\drivers\peripheral\flash/cy_flash.c ****     IPC_STRUCT_Type * locIpcBase = Cy_IPC_Drv_GetIpcBaseAddress(CY_IPC_CHAN_SYSCALL);
 355:Generated_Source\PSoC6\pdl\drivers\peripheral\flash/cy_flash.c ****     volatile uint32_t *ipcLockStatus = &REG_IPC_STRUCT_LOCK_STATUS(locIpcBase);
 356:Generated_Source\PSoC6\pdl\drivers\peripheral\flash/cy_flash.c **** 
 357:Generated_Source\PSoC6\pdl\drivers\peripheral\flash/cy_flash.c **** #if !defined(CY_FLASH_RWW_DRV_SUPPORT_DISABLED)
 358:Generated_Source\PSoC6\pdl\drivers\peripheral\flash/cy_flash.c ****     uint32_t intr;
 359:Generated_Source\PSoC6\pdl\drivers\peripheral\flash/cy_flash.c ****     uint32_t semaTryCount = 0uL;
 360:Generated_Source\PSoC6\pdl\drivers\peripheral\flash/cy_flash.c ****     
 361:Generated_Source\PSoC6\pdl\drivers\peripheral\flash/cy_flash.c ****     if (cy_device->flashRwwRequired != 0u)
 362:Generated_Source\PSoC6\pdl\drivers\peripheral\flash/cy_flash.c ****     {
 363:Generated_Source\PSoC6\pdl\drivers\peripheral\flash/cy_flash.c ****         /* Check for active core is CM0+, or CM4 on single core device */
 364:Generated_Source\PSoC6\pdl\drivers\peripheral\flash/cy_flash.c ****     #if (CY_CPU_CORTEX_M0P)
 365:Generated_Source\PSoC6\pdl\drivers\peripheral\flash/cy_flash.c ****         bool isPeerCoreEnabled = (CY_SYS_CM4_STATUS_ENABLED == Cy_SysGetCM4Status());
 366:Generated_Source\PSoC6\pdl\drivers\peripheral\flash/cy_flash.c ****     #else
 367:Generated_Source\PSoC6\pdl\drivers\peripheral\flash/cy_flash.c ****         bool isPeerCoreEnabled = false;
 368:Generated_Source\PSoC6\pdl\drivers\peripheral\flash/cy_flash.c ****         
 369:Generated_Source\PSoC6\pdl\drivers\peripheral\flash/cy_flash.c ****         if (SFLASH_SINGLE_CORE == 0u)
 370:Generated_Source\PSoC6\pdl\drivers\peripheral\flash/cy_flash.c ****         {
 371:Generated_Source\PSoC6\pdl\drivers\peripheral\flash/cy_flash.c ****             isPeerCoreEnabled = true;
 372:Generated_Source\PSoC6\pdl\drivers\peripheral\flash/cy_flash.c ****         }
ARM GAS  C:\Users\pearlstl\AppData\Local\Temp\ccJc8F9F.s 			page 8


 373:Generated_Source\PSoC6\pdl\drivers\peripheral\flash/cy_flash.c ****     #endif
 374:Generated_Source\PSoC6\pdl\drivers\peripheral\flash/cy_flash.c ****         
 375:Generated_Source\PSoC6\pdl\drivers\peripheral\flash/cy_flash.c ****         if (!isPeerCoreEnabled)
 376:Generated_Source\PSoC6\pdl\drivers\peripheral\flash/cy_flash.c ****         {
 377:Generated_Source\PSoC6\pdl\drivers\peripheral\flash/cy_flash.c ****             result = CY_FLASH_DRV_SUCCESS;
 378:Generated_Source\PSoC6\pdl\drivers\peripheral\flash/cy_flash.c ****         }
 379:Generated_Source\PSoC6\pdl\drivers\peripheral\flash/cy_flash.c ****         else
 380:Generated_Source\PSoC6\pdl\drivers\peripheral\flash/cy_flash.c ****         {
 381:Generated_Source\PSoC6\pdl\drivers\peripheral\flash/cy_flash.c ****             if (IS_CY_PIPE_FREE())
 382:Generated_Source\PSoC6\pdl\drivers\peripheral\flash/cy_flash.c ****             {
 383:Generated_Source\PSoC6\pdl\drivers\peripheral\flash/cy_flash.c ****                 if (CY_IPC_SEMA_STATUS_LOCKED != Cy_IPC_Sema_Status(CY_FLASH_WAIT_SEMA))
 384:Generated_Source\PSoC6\pdl\drivers\peripheral\flash/cy_flash.c ****                 {
 385:Generated_Source\PSoC6\pdl\drivers\peripheral\flash/cy_flash.c ****                     if (CY_IPC_PIPE_SUCCESS == NOTIFY_PEER_CORE(ipcWaitMessage))
 386:Generated_Source\PSoC6\pdl\drivers\peripheral\flash/cy_flash.c ****                     {
 387:Generated_Source\PSoC6\pdl\drivers\peripheral\flash/cy_flash.c ****                         /* Wait for SEMA lock by peer core */
 388:Generated_Source\PSoC6\pdl\drivers\peripheral\flash/cy_flash.c ****                         while ((CY_IPC_SEMA_STATUS_LOCKED != Cy_IPC_Sema_Status(CY_FLASH_WAIT_SEMA)
 389:Generated_Source\PSoC6\pdl\drivers\peripheral\flash/cy_flash.c ****                         {
 390:Generated_Source\PSoC6\pdl\drivers\peripheral\flash/cy_flash.c ****                             /* check for timeout (as maximum tries count) */
 391:Generated_Source\PSoC6\pdl\drivers\peripheral\flash/cy_flash.c ****                             ++semaTryCount;
 392:Generated_Source\PSoC6\pdl\drivers\peripheral\flash/cy_flash.c ****                         }
 393:Generated_Source\PSoC6\pdl\drivers\peripheral\flash/cy_flash.c **** 
 394:Generated_Source\PSoC6\pdl\drivers\peripheral\flash/cy_flash.c ****                         if (semaTryCount < CY_FLASH_SEMA_WAIT_MAX_TRIES)
 395:Generated_Source\PSoC6\pdl\drivers\peripheral\flash/cy_flash.c ****                         {
 396:Generated_Source\PSoC6\pdl\drivers\peripheral\flash/cy_flash.c ****                             result = CY_FLASH_DRV_SUCCESS;
 397:Generated_Source\PSoC6\pdl\drivers\peripheral\flash/cy_flash.c ****                         }
 398:Generated_Source\PSoC6\pdl\drivers\peripheral\flash/cy_flash.c ****                     }
 399:Generated_Source\PSoC6\pdl\drivers\peripheral\flash/cy_flash.c ****                 }
 400:Generated_Source\PSoC6\pdl\drivers\peripheral\flash/cy_flash.c ****             }
 401:Generated_Source\PSoC6\pdl\drivers\peripheral\flash/cy_flash.c ****         }
 402:Generated_Source\PSoC6\pdl\drivers\peripheral\flash/cy_flash.c **** 
 403:Generated_Source\PSoC6\pdl\drivers\peripheral\flash/cy_flash.c ****         if (CY_FLASH_DRV_SUCCESS == result)
 404:Generated_Source\PSoC6\pdl\drivers\peripheral\flash/cy_flash.c ****         {
 405:Generated_Source\PSoC6\pdl\drivers\peripheral\flash/cy_flash.c ****             /* Notifier is ready, start of the operation */
 406:Generated_Source\PSoC6\pdl\drivers\peripheral\flash/cy_flash.c ****             intr = Cy_SysLib_EnterCriticalSection();
 407:Generated_Source\PSoC6\pdl\drivers\peripheral\flash/cy_flash.c **** 
 408:Generated_Source\PSoC6\pdl\drivers\peripheral\flash/cy_flash.c ****             if (0UL != _FLD2VAL(SRSS_CLK_CAL_CNT1_CAL_COUNTER_DONE, SRSS_CLK_CAL_CNT1))
 409:Generated_Source\PSoC6\pdl\drivers\peripheral\flash/cy_flash.c ****             {
 410:Generated_Source\PSoC6\pdl\drivers\peripheral\flash/cy_flash.c ****                /* Tries to acquire the IPC structure and pass the arguments to SROM API */
 411:Generated_Source\PSoC6\pdl\drivers\peripheral\flash/cy_flash.c ****                 if (Cy_IPC_Drv_SendMsgPtr(locIpcBase, CY_FLASH_IPC_NOTIFY_STRUCT0, (void*)&flashCon
 412:Generated_Source\PSoC6\pdl\drivers\peripheral\flash/cy_flash.c ****                 {
 413:Generated_Source\PSoC6\pdl\drivers\peripheral\flash/cy_flash.c ****                     Cy_Flash_RAMDelay(microseconds);
 414:Generated_Source\PSoC6\pdl\drivers\peripheral\flash/cy_flash.c **** 
 415:Generated_Source\PSoC6\pdl\drivers\peripheral\flash/cy_flash.c ****                     if (mode == CY_FLASH_NON_BLOCKING_MODE)
 416:Generated_Source\PSoC6\pdl\drivers\peripheral\flash/cy_flash.c ****                     {
 417:Generated_Source\PSoC6\pdl\drivers\peripheral\flash/cy_flash.c ****                         /* The Flash operation is successfully initiated */
 418:Generated_Source\PSoC6\pdl\drivers\peripheral\flash/cy_flash.c ****                         result = CY_FLASH_DRV_OPERATION_STARTED;
 419:Generated_Source\PSoC6\pdl\drivers\peripheral\flash/cy_flash.c ****                     }
 420:Generated_Source\PSoC6\pdl\drivers\peripheral\flash/cy_flash.c ****                     else
 421:Generated_Source\PSoC6\pdl\drivers\peripheral\flash/cy_flash.c ****                     {
 422:Generated_Source\PSoC6\pdl\drivers\peripheral\flash/cy_flash.c ****                         while (0u != _FLD2VAL(IPC_STRUCT_ACQUIRE_SUCCESS, *ipcLockStatus))
 423:Generated_Source\PSoC6\pdl\drivers\peripheral\flash/cy_flash.c ****                         {
 424:Generated_Source\PSoC6\pdl\drivers\peripheral\flash/cy_flash.c ****                             /* Polls whether the IPC is released and the Flash operation is perform
 425:Generated_Source\PSoC6\pdl\drivers\peripheral\flash/cy_flash.c ****                         }
 426:Generated_Source\PSoC6\pdl\drivers\peripheral\flash/cy_flash.c ****                         result = Cy_Flash_OperationStatus();
 427:Generated_Source\PSoC6\pdl\drivers\peripheral\flash/cy_flash.c ****                     }
 428:Generated_Source\PSoC6\pdl\drivers\peripheral\flash/cy_flash.c ****                 }
 429:Generated_Source\PSoC6\pdl\drivers\peripheral\flash/cy_flash.c ****                 else
ARM GAS  C:\Users\pearlstl\AppData\Local\Temp\ccJc8F9F.s 			page 9


 430:Generated_Source\PSoC6\pdl\drivers\peripheral\flash/cy_flash.c ****                 {
 431:Generated_Source\PSoC6\pdl\drivers\peripheral\flash/cy_flash.c ****                     /* The IPC structure is already locked by another process */
 432:Generated_Source\PSoC6\pdl\drivers\peripheral\flash/cy_flash.c ****                     result = CY_FLASH_DRV_IPC_BUSY;
 433:Generated_Source\PSoC6\pdl\drivers\peripheral\flash/cy_flash.c ****                 }
 434:Generated_Source\PSoC6\pdl\drivers\peripheral\flash/cy_flash.c ****             }
 435:Generated_Source\PSoC6\pdl\drivers\peripheral\flash/cy_flash.c ****             else
 436:Generated_Source\PSoC6\pdl\drivers\peripheral\flash/cy_flash.c ****             {
 437:Generated_Source\PSoC6\pdl\drivers\peripheral\flash/cy_flash.c ****                 /* SysClk measurement counter is busy */
 438:Generated_Source\PSoC6\pdl\drivers\peripheral\flash/cy_flash.c ****                 result = CY_FLASH_DRV_IPC_BUSY;
 439:Generated_Source\PSoC6\pdl\drivers\peripheral\flash/cy_flash.c ****             }
 440:Generated_Source\PSoC6\pdl\drivers\peripheral\flash/cy_flash.c ****             
 441:Generated_Source\PSoC6\pdl\drivers\peripheral\flash/cy_flash.c ****             if (isPeerCoreEnabled)
 442:Generated_Source\PSoC6\pdl\drivers\peripheral\flash/cy_flash.c ****             {
 443:Generated_Source\PSoC6\pdl\drivers\peripheral\flash/cy_flash.c ****                 while (CY_IPC_SEMA_SUCCESS != Cy_IPC_Sema_Clear(CY_FLASH_WAIT_SEMA, true))
 444:Generated_Source\PSoC6\pdl\drivers\peripheral\flash/cy_flash.c ****                 {
 445:Generated_Source\PSoC6\pdl\drivers\peripheral\flash/cy_flash.c ****                     /* Clear SEMA lock */
 446:Generated_Source\PSoC6\pdl\drivers\peripheral\flash/cy_flash.c ****                 }
 447:Generated_Source\PSoC6\pdl\drivers\peripheral\flash/cy_flash.c ****             }
 448:Generated_Source\PSoC6\pdl\drivers\peripheral\flash/cy_flash.c **** 
 449:Generated_Source\PSoC6\pdl\drivers\peripheral\flash/cy_flash.c ****             Cy_SysLib_ExitCriticalSection(intr);
 450:Generated_Source\PSoC6\pdl\drivers\peripheral\flash/cy_flash.c ****             /* End of the flash operation */
 451:Generated_Source\PSoC6\pdl\drivers\peripheral\flash/cy_flash.c ****         }
 452:Generated_Source\PSoC6\pdl\drivers\peripheral\flash/cy_flash.c ****     }
 453:Generated_Source\PSoC6\pdl\drivers\peripheral\flash/cy_flash.c ****     else
 454:Generated_Source\PSoC6\pdl\drivers\peripheral\flash/cy_flash.c **** #endif /* !defined(CY_FLASH_RWW_DRV_SUPPORT_DISABLED) */
 455:Generated_Source\PSoC6\pdl\drivers\peripheral\flash/cy_flash.c ****     {
 456:Generated_Source\PSoC6\pdl\drivers\peripheral\flash/cy_flash.c ****     #if !defined(CY_FLASH_RWW_DRV_SUPPORT_DISABLED)
 457:Generated_Source\PSoC6\pdl\drivers\peripheral\flash/cy_flash.c ****         intr = Cy_SysLib_EnterCriticalSection();
 458:Generated_Source\PSoC6\pdl\drivers\peripheral\flash/cy_flash.c ****     #endif /* !defined(CY_FLASH_RWW_DRV_SUPPORT_DISABLED) */
 459:Generated_Source\PSoC6\pdl\drivers\peripheral\flash/cy_flash.c ****         /* Tries to acquire the IPC structure and pass the arguments to SROM API */
 460:Generated_Source\PSoC6\pdl\drivers\peripheral\flash/cy_flash.c ****         if (Cy_IPC_Drv_SendMsgPtr(locIpcBase, CY_FLASH_IPC_NOTIFY_STRUCT0, (void*)&flashContext) ==
 461:Generated_Source\PSoC6\pdl\drivers\peripheral\flash/cy_flash.c ****         {
 462:Generated_Source\PSoC6\pdl\drivers\peripheral\flash/cy_flash.c ****             if (mode == CY_FLASH_NON_BLOCKING_MODE)
 463:Generated_Source\PSoC6\pdl\drivers\peripheral\flash/cy_flash.c ****             {
 464:Generated_Source\PSoC6\pdl\drivers\peripheral\flash/cy_flash.c ****                 /* The Flash operation is successfully initiated */
 465:Generated_Source\PSoC6\pdl\drivers\peripheral\flash/cy_flash.c ****                 result = CY_FLASH_DRV_OPERATION_STARTED;
 466:Generated_Source\PSoC6\pdl\drivers\peripheral\flash/cy_flash.c ****             }
 467:Generated_Source\PSoC6\pdl\drivers\peripheral\flash/cy_flash.c ****             else
 468:Generated_Source\PSoC6\pdl\drivers\peripheral\flash/cy_flash.c ****             {
 469:Generated_Source\PSoC6\pdl\drivers\peripheral\flash/cy_flash.c ****                 while (0u != _FLD2VAL(IPC_STRUCT_ACQUIRE_SUCCESS, *ipcLockStatus))
 470:Generated_Source\PSoC6\pdl\drivers\peripheral\flash/cy_flash.c ****                 {
 471:Generated_Source\PSoC6\pdl\drivers\peripheral\flash/cy_flash.c ****                     /* Polls whether the IPC is released and the Flash operation is performed */
 472:Generated_Source\PSoC6\pdl\drivers\peripheral\flash/cy_flash.c ****                 }
 473:Generated_Source\PSoC6\pdl\drivers\peripheral\flash/cy_flash.c **** 
 474:Generated_Source\PSoC6\pdl\drivers\peripheral\flash/cy_flash.c ****                 result = Cy_Flash_OperationStatus();
 475:Generated_Source\PSoC6\pdl\drivers\peripheral\flash/cy_flash.c ****             }
 476:Generated_Source\PSoC6\pdl\drivers\peripheral\flash/cy_flash.c ****         }
 477:Generated_Source\PSoC6\pdl\drivers\peripheral\flash/cy_flash.c ****         else
 478:Generated_Source\PSoC6\pdl\drivers\peripheral\flash/cy_flash.c ****         {
 479:Generated_Source\PSoC6\pdl\drivers\peripheral\flash/cy_flash.c ****             /* The IPC structure is already locked by another process */
 480:Generated_Source\PSoC6\pdl\drivers\peripheral\flash/cy_flash.c ****             result = CY_FLASH_DRV_IPC_BUSY;
 481:Generated_Source\PSoC6\pdl\drivers\peripheral\flash/cy_flash.c ****         }
 482:Generated_Source\PSoC6\pdl\drivers\peripheral\flash/cy_flash.c ****     #if !defined(CY_FLASH_RWW_DRV_SUPPORT_DISABLED)
 483:Generated_Source\PSoC6\pdl\drivers\peripheral\flash/cy_flash.c ****         Cy_SysLib_ExitCriticalSection(intr);
 484:Generated_Source\PSoC6\pdl\drivers\peripheral\flash/cy_flash.c ****     #endif /* !defined(CY_FLASH_RWW_DRV_SUPPORT_DISABLED) */
 485:Generated_Source\PSoC6\pdl\drivers\peripheral\flash/cy_flash.c ****     }
 486:Generated_Source\PSoC6\pdl\drivers\peripheral\flash/cy_flash.c **** 
ARM GAS  C:\Users\pearlstl\AppData\Local\Temp\ccJc8F9F.s 			page 10


 487:Generated_Source\PSoC6\pdl\drivers\peripheral\flash/cy_flash.c ****     return (result);
 488:Generated_Source\PSoC6\pdl\drivers\peripheral\flash/cy_flash.c **** }
 489:Generated_Source\PSoC6\pdl\drivers\peripheral\flash/cy_flash.c **** #if defined (__ICCARM__)
 490:Generated_Source\PSoC6\pdl\drivers\peripheral\flash/cy_flash.c ****     #pragma diag_default=Ta023
 491:Generated_Source\PSoC6\pdl\drivers\peripheral\flash/cy_flash.c **** #endif
 492:Generated_Source\PSoC6\pdl\drivers\peripheral\flash/cy_flash.c **** 
 493:Generated_Source\PSoC6\pdl\drivers\peripheral\flash/cy_flash.c **** 
 494:Generated_Source\PSoC6\pdl\drivers\peripheral\flash/cy_flash.c **** #if !defined(CY_FLASH_RWW_DRV_SUPPORT_DISABLED)
 495:Generated_Source\PSoC6\pdl\drivers\peripheral\flash/cy_flash.c ****     /*******************************************************************************
 496:Generated_Source\PSoC6\pdl\drivers\peripheral\flash/cy_flash.c ****     * Function Name: Cy_Flash_RAMDelay
 497:Generated_Source\PSoC6\pdl\drivers\peripheral\flash/cy_flash.c ****     ****************************************************************************//**
 498:Generated_Source\PSoC6\pdl\drivers\peripheral\flash/cy_flash.c ****     *
 499:Generated_Source\PSoC6\pdl\drivers\peripheral\flash/cy_flash.c ****     * Wait for a defined time in the SRAM memory region.
 500:Generated_Source\PSoC6\pdl\drivers\peripheral\flash/cy_flash.c ****     *
 501:Generated_Source\PSoC6\pdl\drivers\peripheral\flash/cy_flash.c ****     * \param microseconds
 502:Generated_Source\PSoC6\pdl\drivers\peripheral\flash/cy_flash.c ****     * Delay time in microseconds in range 0-65535 us.
 503:Generated_Source\PSoC6\pdl\drivers\peripheral\flash/cy_flash.c ****     *
 504:Generated_Source\PSoC6\pdl\drivers\peripheral\flash/cy_flash.c ****     *******************************************************************************/
 505:Generated_Source\PSoC6\pdl\drivers\peripheral\flash/cy_flash.c ****     #if defined (__ICCARM__)
 506:Generated_Source\PSoC6\pdl\drivers\peripheral\flash/cy_flash.c ****         #pragma diag_suppress=Ta023
 507:Generated_Source\PSoC6\pdl\drivers\peripheral\flash/cy_flash.c ****         __ramfunc
 508:Generated_Source\PSoC6\pdl\drivers\peripheral\flash/cy_flash.c ****     #else
 509:Generated_Source\PSoC6\pdl\drivers\peripheral\flash/cy_flash.c ****         CY_SECTION(".cy_ramfunc") CY_NOINLINE
 510:Generated_Source\PSoC6\pdl\drivers\peripheral\flash/cy_flash.c ****     #endif
 511:Generated_Source\PSoC6\pdl\drivers\peripheral\flash/cy_flash.c ****     static void Cy_Flash_RAMDelay(uint32_t microseconds)
 512:Generated_Source\PSoC6\pdl\drivers\peripheral\flash/cy_flash.c ****     {
  28              		.loc 1 512 0
  29              		.cfi_startproc
  30              		@ args = 0, pretend = 0, frame = 0
  31              		@ frame_needed = 0, uses_anonymous_args = 0
  32              		@ link register save eliminated.
  33              	.LVL0:
 513:Generated_Source\PSoC6\pdl\drivers\peripheral\flash/cy_flash.c ****         uint32_t ticks = (microseconds & 0xFFFFUL) * CY_FLASH_TICKS_FOR_1US;
  34              		.loc 1 513 0
  35 0000 80B2     		uxth	r0, r0
  36              	.LVL1:
 514:Generated_Source\PSoC6\pdl\drivers\peripheral\flash/cy_flash.c ****         if (ticks != CY_FLASH_NO_DELAY)
  37              		.loc 1 514 0
  38 0002 20B3     		cbz	r0, .L10
  39 0004 124B     		ldr	r3, .L12
 512:Generated_Source\PSoC6\pdl\drivers\peripheral\flash/cy_flash.c ****         uint32_t ticks = (microseconds & 0xFFFFUL) * CY_FLASH_TICKS_FOR_1US;
  40              		.loc 1 512 0
  41 0006 F0B4     		push	{r4, r5, r6, r7}
  42              		.cfi_def_cfa_offset 16
  43              		.cfi_offset 4, -16
  44              		.cfi_offset 5, -12
  45              		.cfi_offset 6, -8
  46              		.cfi_offset 7, -4
  47 0008 C400     		lsls	r4, r0, #3
  48              	.LVL2:
  49 000a 1868     		ldr	r0, [r3]
  50 000c B0F8B010 		ldrh	r1, [r0, #176]
  51 0010 026A     		ldr	r2, [r0, #32]
  52 0012 C1EBC101 		rsb	r1, r1, r1, lsl #3
  53 0016 0A44     		add	r2, r2, r1
  54              	.L3:
 515:Generated_Source\PSoC6\pdl\drivers\peripheral\flash/cy_flash.c ****         {
ARM GAS  C:\Users\pearlstl\AppData\Local\Temp\ccJc8F9F.s 			page 11


 516:Generated_Source\PSoC6\pdl\drivers\peripheral\flash/cy_flash.c ****             /* Acquire the IPC to prevent changing of the shared resources at the same time */
 517:Generated_Source\PSoC6\pdl\drivers\peripheral\flash/cy_flash.c ****             while(0U == _FLD2VAL(IPC_STRUCT_ACQUIRE_SUCCESS, REG_IPC_STRUCT_ACQUIRE(CY_IPC_STRUCT_P
  55              		.loc 1 517 0 discriminator 1
  56 0018 1368     		ldr	r3, [r2]
  57 001a 002B     		cmp	r3, #0
  58 001c FCDA     		bge	.L3
 518:Generated_Source\PSoC6\pdl\drivers\peripheral\flash/cy_flash.c ****             {
 519:Generated_Source\PSoC6\pdl\drivers\peripheral\flash/cy_flash.c ****                 /* Wait until the IPC structure is released by another process */
 520:Generated_Source\PSoC6\pdl\drivers\peripheral\flash/cy_flash.c ****             }
 521:Generated_Source\PSoC6\pdl\drivers\peripheral\flash/cy_flash.c ****             
 522:Generated_Source\PSoC6\pdl\drivers\peripheral\flash/cy_flash.c ****             SRSS_TST_DDFT_FAST_CTL_REG  = SRSS_TST_DDFT_FAST_CTL_MASK;
  59              		.loc 1 522 0
  60 001e 0D4B     		ldr	r3, .L12+4
 523:Generated_Source\PSoC6\pdl\drivers\peripheral\flash/cy_flash.c ****             SRSS_TST_DDFT_SLOW_CTL_REG  = SRSS_TST_DDFT_SLOW_CTL_MASK;
 524:Generated_Source\PSoC6\pdl\drivers\peripheral\flash/cy_flash.c **** 
 525:Generated_Source\PSoC6\pdl\drivers\peripheral\flash/cy_flash.c ****             SRSS_CLK_OUTPUT_SLOW = _VAL2FLD(SRSS_CLK_OUTPUT_SLOW_SLOW_SEL0, CY_SYSCLK_MEAS_CLK_IMO)
  61              		.loc 1 525 0
  62 0020 0D4A     		ldr	r2, .L12+8
 523:Generated_Source\PSoC6\pdl\drivers\peripheral\flash/cy_flash.c ****             SRSS_TST_DDFT_SLOW_CTL_REG  = SRSS_TST_DDFT_SLOW_CTL_MASK;
  63              		.loc 1 523 0
  64 0022 0E4D     		ldr	r5, .L12+12
 522:Generated_Source\PSoC6\pdl\drivers\peripheral\flash/cy_flash.c ****             SRSS_TST_DDFT_SLOW_CTL_REG  = SRSS_TST_DDFT_SLOW_CTL_MASK;
  65              		.loc 1 522 0
  66 0024 3E27     		movs	r7, #62
  67 0026 1F60     		str	r7, [r3]
 523:Generated_Source\PSoC6\pdl\drivers\peripheral\flash/cy_flash.c ****             SRSS_TST_DDFT_SLOW_CTL_REG  = SRSS_TST_DDFT_SLOW_CTL_MASK;
  68              		.loc 1 523 0
  69 0028 41F61E76 		movw	r6, #7966
  70              		.loc 1 525 0
  71 002c 0623     		movs	r3, #6
 523:Generated_Source\PSoC6\pdl\drivers\peripheral\flash/cy_flash.c ****             SRSS_TST_DDFT_SLOW_CTL_REG  = SRSS_TST_DDFT_SLOW_CTL_MASK;
  72              		.loc 1 523 0
  73 002e 2E60     		str	r6, [r5]
  74              		.loc 1 525 0
  75 0030 C2F81835 		str	r3, [r2, #1304]
 526:Generated_Source\PSoC6\pdl\drivers\peripheral\flash/cy_flash.c ****                                    _VAL2FLD(SRSS_CLK_OUTPUT_SLOW_SLOW_SEL1, CY_FLASH_CLK_OUTPUT_DIS
 527:Generated_Source\PSoC6\pdl\drivers\peripheral\flash/cy_flash.c **** 
 528:Generated_Source\PSoC6\pdl\drivers\peripheral\flash/cy_flash.c ****             /* Load the down-counter without status bit value */
 529:Generated_Source\PSoC6\pdl\drivers\peripheral\flash/cy_flash.c ****             SRSS_CLK_CAL_CNT1 = _VAL2FLD(SRSS_CLK_CAL_CNT1_CAL_COUNTER1, ticks);
  76              		.loc 1 529 0
  77 0034 C2F81C45 		str	r4, [r2, #1308]
 530:Generated_Source\PSoC6\pdl\drivers\peripheral\flash/cy_flash.c **** 
 531:Generated_Source\PSoC6\pdl\drivers\peripheral\flash/cy_flash.c ****             /* Make sure that the counter is started */
 532:Generated_Source\PSoC6\pdl\drivers\peripheral\flash/cy_flash.c ****             ticks = _FLD2VAL(SRSS_CLK_CAL_CNT1_CAL_COUNTER_DONE, SRSS_CLK_CAL_CNT1);
 533:Generated_Source\PSoC6\pdl\drivers\peripheral\flash/cy_flash.c **** 
 534:Generated_Source\PSoC6\pdl\drivers\peripheral\flash/cy_flash.c ****             /* Release the IPC */
 535:Generated_Source\PSoC6\pdl\drivers\peripheral\flash/cy_flash.c ****             REG_IPC_STRUCT_RELEASE(CY_IPC_STRUCT_PTR(CY_IPC_CHAN_DDFT)) = 0U;
  78              		.loc 1 535 0
  79 0038 036A     		ldr	r3, [r0, #32]
 532:Generated_Source\PSoC6\pdl\drivers\peripheral\flash/cy_flash.c **** 
  80              		.loc 1 532 0
  81 003a D2F81C05 		ldr	r0, [r2, #1308]
  82              	.LVL3:
  83              		.loc 1 535 0
  84 003e 1944     		add	r1, r1, r3
  85 0040 0023     		movs	r3, #0
  86 0042 4B60     		str	r3, [r1, #4]
ARM GAS  C:\Users\pearlstl\AppData\Local\Temp\ccJc8F9F.s 			page 12


  87              	.L4:
 536:Generated_Source\PSoC6\pdl\drivers\peripheral\flash/cy_flash.c ****             
 537:Generated_Source\PSoC6\pdl\drivers\peripheral\flash/cy_flash.c ****             while (0UL == _FLD2VAL(SRSS_CLK_CAL_CNT1_CAL_COUNTER_DONE, SRSS_CLK_CAL_CNT1))
  88              		.loc 1 537 0 discriminator 1
  89 0044 D2F81C35 		ldr	r3, [r2, #1308]
  90 0048 002B     		cmp	r3, #0
  91 004a FBDA     		bge	.L4
 538:Generated_Source\PSoC6\pdl\drivers\peripheral\flash/cy_flash.c ****             {
 539:Generated_Source\PSoC6\pdl\drivers\peripheral\flash/cy_flash.c ****                 /* Wait until the counter stops counting */
 540:Generated_Source\PSoC6\pdl\drivers\peripheral\flash/cy_flash.c ****             }
 541:Generated_Source\PSoC6\pdl\drivers\peripheral\flash/cy_flash.c ****         }
 542:Generated_Source\PSoC6\pdl\drivers\peripheral\flash/cy_flash.c ****     }
  92              		.loc 1 542 0
  93 004c F0BC     		pop	{r4, r5, r6, r7}
  94              		.cfi_restore 7
  95              		.cfi_restore 6
  96              		.cfi_restore 5
  97              		.cfi_restore 4
  98              		.cfi_def_cfa_offset 0
  99              	.L10:
 100 004e 7047     		bx	lr
 101              	.L13:
 102              		.align	2
 103              	.L12:
 104 0050 00000000 		.word	cy_device
 105 0054 04012640 		.word	1076232452
 106 0058 00002640 		.word	1076232192
 107 005c 08012640 		.word	1076232456
 108              		.cfi_endproc
 109              	.LFE249:
 110              		.size	Cy_Flash_RAMDelay, .-Cy_Flash_RAMDelay
 111              		.align	2
 112              		.thumb
 113              		.thumb_func
 114              		.type	Cy_Flash_NotifyHandler, %function
 115              	Cy_Flash_NotifyHandler:
 116              	.LFB246:
 261:Generated_Source\PSoC6\pdl\drivers\peripheral\flash/cy_flash.c ****         uint32_t intr;
 117              		.loc 1 261 0
 118              		.cfi_startproc
 119              		@ args = 0, pretend = 0, frame = 0
 120              		@ frame_needed = 0, uses_anonymous_args = 0
 121              	.LVL4:
 122 0060 08B5     		push	{r3, lr}
 123              		.cfi_def_cfa_offset 8
 124              		.cfi_offset 3, -8
 125              		.cfi_offset 14, -4
 270:Generated_Source\PSoC6\pdl\drivers\peripheral\flash/cy_flash.c ****         {
 126              		.loc 1 270 0
 127 0062 4378     		ldrb	r3, [r0, #1]	@ zero_extendqisi2
 128 0064 FF2B     		cmp	r3, #255
 129 0066 00D0     		beq	.L19
 130 0068 08BD     		pop	{r3, pc}
 131              	.L19:
 272:Generated_Source\PSoC6\pdl\drivers\peripheral\flash/cy_flash.c **** 
 132              		.loc 1 272 0
 133 006a FFF7FEFF 		bl	Cy_SysLib_EnterCriticalSection
ARM GAS  C:\Users\pearlstl\AppData\Local\Temp\ccJc8F9F.s 			page 13


 134              	.LVL5:
 135              	.LBB107:
 136              	.LBB108:
 137              		.file 2 "Generated_Source\\PSoC6\\pdl\\drivers/peripheral/ipc/cy_ipc_drv.h"
   1:Generated_Source\PSoC6\pdl\drivers/peripheral/ipc/cy_ipc_drv.h **** /***************************************************************************//**
   2:Generated_Source\PSoC6\pdl\drivers/peripheral/ipc/cy_ipc_drv.h **** * \file cy_ipc_drv.h
   3:Generated_Source\PSoC6\pdl\drivers/peripheral/ipc/cy_ipc_drv.h **** * \version 1.30
   4:Generated_Source\PSoC6\pdl\drivers/peripheral/ipc/cy_ipc_drv.h **** *
   5:Generated_Source\PSoC6\pdl\drivers/peripheral/ipc/cy_ipc_drv.h **** * Provides an API declaration of the IPC driver.
   6:Generated_Source\PSoC6\pdl\drivers/peripheral/ipc/cy_ipc_drv.h **** *
   7:Generated_Source\PSoC6\pdl\drivers/peripheral/ipc/cy_ipc_drv.h **** ********************************************************************************
   8:Generated_Source\PSoC6\pdl\drivers/peripheral/ipc/cy_ipc_drv.h **** * \copyright
   9:Generated_Source\PSoC6\pdl\drivers/peripheral/ipc/cy_ipc_drv.h **** * Copyright 2016-2018, Cypress Semiconductor Corporation. All rights reserved.
  10:Generated_Source\PSoC6\pdl\drivers/peripheral/ipc/cy_ipc_drv.h **** * You may use this file only in accordance with the license, terms, conditions,
  11:Generated_Source\PSoC6\pdl\drivers/peripheral/ipc/cy_ipc_drv.h **** * disclaimers, and limitations in the end user license agreement accompanying
  12:Generated_Source\PSoC6\pdl\drivers/peripheral/ipc/cy_ipc_drv.h **** * the software package with which this file was provided.
  13:Generated_Source\PSoC6\pdl\drivers/peripheral/ipc/cy_ipc_drv.h **** *******************************************************************************/
  14:Generated_Source\PSoC6\pdl\drivers/peripheral/ipc/cy_ipc_drv.h **** 
  15:Generated_Source\PSoC6\pdl\drivers/peripheral/ipc/cy_ipc_drv.h **** #ifndef CY_IPC_DRV_H
  16:Generated_Source\PSoC6\pdl\drivers/peripheral/ipc/cy_ipc_drv.h **** #define CY_IPC_DRV_H
  17:Generated_Source\PSoC6\pdl\drivers/peripheral/ipc/cy_ipc_drv.h **** 
  18:Generated_Source\PSoC6\pdl\drivers/peripheral/ipc/cy_ipc_drv.h **** 
  19:Generated_Source\PSoC6\pdl\drivers/peripheral/ipc/cy_ipc_drv.h **** /**
  20:Generated_Source\PSoC6\pdl\drivers/peripheral/ipc/cy_ipc_drv.h **** * \addtogroup group_ipc
  21:Generated_Source\PSoC6\pdl\drivers/peripheral/ipc/cy_ipc_drv.h **** * \{
  22:Generated_Source\PSoC6\pdl\drivers/peripheral/ipc/cy_ipc_drv.h **** * The inter-processor communication (IPC) driver provides a safe and reliable
  23:Generated_Source\PSoC6\pdl\drivers/peripheral/ipc/cy_ipc_drv.h **** * method to transfer data between CPUs. Hardware locking ensures that only one
  24:Generated_Source\PSoC6\pdl\drivers/peripheral/ipc/cy_ipc_drv.h **** * device can acquire and transfer data at a time so no data is lost or
  25:Generated_Source\PSoC6\pdl\drivers/peripheral/ipc/cy_ipc_drv.h **** * overwritten by asynchronous processes or CPUs.
  26:Generated_Source\PSoC6\pdl\drivers/peripheral/ipc/cy_ipc_drv.h **** *
  27:Generated_Source\PSoC6\pdl\drivers/peripheral/ipc/cy_ipc_drv.h **** * Include either cy_ipc_pipe.h or cy_ipc_sema.h. Alternatively include cy_pdl.h 
  28:Generated_Source\PSoC6\pdl\drivers/peripheral/ipc/cy_ipc_drv.h **** * (ModusToolbox only) to get access to all functions and declarations in the PDL.
  29:Generated_Source\PSoC6\pdl\drivers/peripheral/ipc/cy_ipc_drv.h **** *
  30:Generated_Source\PSoC6\pdl\drivers/peripheral/ipc/cy_ipc_drv.h **** * There are three parts to the API:
  31:Generated_Source\PSoC6\pdl\drivers/peripheral/ipc/cy_ipc_drv.h **** *     - Driver-level (DRV) API - used internally by Semaphore and Pipe levels
  32:Generated_Source\PSoC6\pdl\drivers/peripheral/ipc/cy_ipc_drv.h **** *     - Pipe-level (PIPE) API - establishes a communication channel between
  33:Generated_Source\PSoC6\pdl\drivers/peripheral/ipc/cy_ipc_drv.h **** *       processors
  34:Generated_Source\PSoC6\pdl\drivers/peripheral/ipc/cy_ipc_drv.h **** *     - Semaphore-level (SEMA) API - enables users to set and clear flags to
  35:Generated_Source\PSoC6\pdl\drivers/peripheral/ipc/cy_ipc_drv.h **** *       synchronize operations.
  36:Generated_Source\PSoC6\pdl\drivers/peripheral/ipc/cy_ipc_drv.h **** *
  37:Generated_Source\PSoC6\pdl\drivers/peripheral/ipc/cy_ipc_drv.h **** * Firmware does not need to use the DRV API. It can implement IPC functionality
  38:Generated_Source\PSoC6\pdl\drivers/peripheral/ipc/cy_ipc_drv.h **** * entirely with the PIPE and SEMA APIs.
  39:Generated_Source\PSoC6\pdl\drivers/peripheral/ipc/cy_ipc_drv.h **** *
  40:Generated_Source\PSoC6\pdl\drivers/peripheral/ipc/cy_ipc_drv.h **** * \section group_ipc_background Background
  41:Generated_Source\PSoC6\pdl\drivers/peripheral/ipc/cy_ipc_drv.h **** *
  42:Generated_Source\PSoC6\pdl\drivers/peripheral/ipc/cy_ipc_drv.h **** * IPC is implemented in hardware as a collection of individual communication
  43:Generated_Source\PSoC6\pdl\drivers/peripheral/ipc/cy_ipc_drv.h **** * channels, each with a set of 32-bit registers. The IPC design implements a set
  44:Generated_Source\PSoC6\pdl\drivers/peripheral/ipc/cy_ipc_drv.h **** * of interrupts that enable each processor to notify the other that data is
  45:Generated_Source\PSoC6\pdl\drivers/peripheral/ipc/cy_ipc_drv.h **** * available, or has been processed. There is also a locking mechanism that
  46:Generated_Source\PSoC6\pdl\drivers/peripheral/ipc/cy_ipc_drv.h **** * allows only one CPU to gain access at a time.
  47:Generated_Source\PSoC6\pdl\drivers/peripheral/ipc/cy_ipc_drv.h **** *
  48:Generated_Source\PSoC6\pdl\drivers/peripheral/ipc/cy_ipc_drv.h **** * The Driver-level API manages each channel's registers to implement IPC
  49:Generated_Source\PSoC6\pdl\drivers/peripheral/ipc/cy_ipc_drv.h **** * functionality. For information on the IPC registers, see the IPC chapter of
  50:Generated_Source\PSoC6\pdl\drivers/peripheral/ipc/cy_ipc_drv.h **** * the Technical Reference Manual (TRM).
  51:Generated_Source\PSoC6\pdl\drivers/peripheral/ipc/cy_ipc_drv.h **** *
  52:Generated_Source\PSoC6\pdl\drivers/peripheral/ipc/cy_ipc_drv.h **** * At the hardware level, communication is a five-step process.
  53:Generated_Source\PSoC6\pdl\drivers/peripheral/ipc/cy_ipc_drv.h **** *     -#  The sending processor acquires a channel
ARM GAS  C:\Users\pearlstl\AppData\Local\Temp\ccJc8F9F.s 			page 14


  54:Generated_Source\PSoC6\pdl\drivers/peripheral/ipc/cy_ipc_drv.h **** *     -#  It puts data into the channel
  55:Generated_Source\PSoC6\pdl\drivers/peripheral/ipc/cy_ipc_drv.h **** *     -#  The sender generates a notify event (interrupt)
  56:Generated_Source\PSoC6\pdl\drivers/peripheral/ipc/cy_ipc_drv.h **** *     -#  The receiving processor identifies the sender and retrieves the data
  57:Generated_Source\PSoC6\pdl\drivers/peripheral/ipc/cy_ipc_drv.h **** *     -#  The receiving processor generates a release event (interrupt)
  58:Generated_Source\PSoC6\pdl\drivers/peripheral/ipc/cy_ipc_drv.h **** *
  59:Generated_Source\PSoC6\pdl\drivers/peripheral/ipc/cy_ipc_drv.h **** * \image html ipc_driver.png
  60:Generated_Source\PSoC6\pdl\drivers/peripheral/ipc/cy_ipc_drv.h **** *
  61:Generated_Source\PSoC6\pdl\drivers/peripheral/ipc/cy_ipc_drv.h **** * These transactions are handled transparently by the DRV-level API. Use the
  62:Generated_Source\PSoC6\pdl\drivers/peripheral/ipc/cy_ipc_drv.h **** * PIPE and SEMA layers of the API to implement communication in your application.
  63:Generated_Source\PSoC6\pdl\drivers/peripheral/ipc/cy_ipc_drv.h **** * The data transferred is limited to a single 32-bit value. As implemented by
  64:Generated_Source\PSoC6\pdl\drivers/peripheral/ipc/cy_ipc_drv.h **** * the PIPE API, that value is a pointer to a data structure of arbitrary size
  65:Generated_Source\PSoC6\pdl\drivers/peripheral/ipc/cy_ipc_drv.h **** * and complexity.
  66:Generated_Source\PSoC6\pdl\drivers/peripheral/ipc/cy_ipc_drv.h **** *
  67:Generated_Source\PSoC6\pdl\drivers/peripheral/ipc/cy_ipc_drv.h **** * \section group_ipc_overview Overview
  68:Generated_Source\PSoC6\pdl\drivers/peripheral/ipc/cy_ipc_drv.h **** *
  69:Generated_Source\PSoC6\pdl\drivers/peripheral/ipc/cy_ipc_drv.h **** * The Pipe is the key element in the PDL design. A pipe is typically a
  70:Generated_Source\PSoC6\pdl\drivers/peripheral/ipc/cy_ipc_drv.h **** * full-duplex communication channel between CPU cores. A pipe allows a single
  71:Generated_Source\PSoC6\pdl\drivers/peripheral/ipc/cy_ipc_drv.h **** * conduit to transfer messages or data to and from multiple processes or CPUs.
  72:Generated_Source\PSoC6\pdl\drivers/peripheral/ipc/cy_ipc_drv.h **** *
  73:Generated_Source\PSoC6\pdl\drivers/peripheral/ipc/cy_ipc_drv.h **** * A pipe has two endpoints, one on each core. Each endpoint contains a dedicated
  74:Generated_Source\PSoC6\pdl\drivers/peripheral/ipc/cy_ipc_drv.h **** * IPC channel and an interrupt. IPC channels 0-7 and IPC interrupts 0-7 are
  75:Generated_Source\PSoC6\pdl\drivers/peripheral/ipc/cy_ipc_drv.h **** * reserved for system use.
  76:Generated_Source\PSoC6\pdl\drivers/peripheral/ipc/cy_ipc_drv.h **** *
  77:Generated_Source\PSoC6\pdl\drivers/peripheral/ipc/cy_ipc_drv.h **** * The pipe also contains the number of clients it supports, and for each client
  78:Generated_Source\PSoC6\pdl\drivers/peripheral/ipc/cy_ipc_drv.h **** * a callback function. So the pipe can service a number of clients, each with a
  79:Generated_Source\PSoC6\pdl\drivers/peripheral/ipc/cy_ipc_drv.h **** * separate callback function, on either endpoint. The number of clients a pipe
  80:Generated_Source\PSoC6\pdl\drivers/peripheral/ipc/cy_ipc_drv.h **** * supports is the sum of each endpoint's clients.
  81:Generated_Source\PSoC6\pdl\drivers/peripheral/ipc/cy_ipc_drv.h **** *
  82:Generated_Source\PSoC6\pdl\drivers/peripheral/ipc/cy_ipc_drv.h **** * This design enables any number of processes on the sending core to put
  83:Generated_Source\PSoC6\pdl\drivers/peripheral/ipc/cy_ipc_drv.h **** * arbitrary data into a single pipe. The first element of that data is the
  84:Generated_Source\PSoC6\pdl\drivers/peripheral/ipc/cy_ipc_drv.h **** * client ID of the client that should handle the data.
  85:Generated_Source\PSoC6\pdl\drivers/peripheral/ipc/cy_ipc_drv.h **** *
  86:Generated_Source\PSoC6\pdl\drivers/peripheral/ipc/cy_ipc_drv.h **** * An interrupt notifies the receiving core that data is available. The receiving
  87:Generated_Source\PSoC6\pdl\drivers/peripheral/ipc/cy_ipc_drv.h **** * core parses the data to identify the client, and then dispatches the event to
  88:Generated_Source\PSoC6\pdl\drivers/peripheral/ipc/cy_ipc_drv.h **** * the appropriate client via the client callback function. An interrupt notifies
  89:Generated_Source\PSoC6\pdl\drivers/peripheral/ipc/cy_ipc_drv.h **** * the sending core that the receiver is finished. In this way a single pipe can
  90:Generated_Source\PSoC6\pdl\drivers/peripheral/ipc/cy_ipc_drv.h **** * manage arbitrary data transfers between cores with data flowing in either
  91:Generated_Source\PSoC6\pdl\drivers/peripheral/ipc/cy_ipc_drv.h **** * direction.
  92:Generated_Source\PSoC6\pdl\drivers/peripheral/ipc/cy_ipc_drv.h **** *
  93:Generated_Source\PSoC6\pdl\drivers/peripheral/ipc/cy_ipc_drv.h **** * \image html ipc_ints.png
  94:Generated_Source\PSoC6\pdl\drivers/peripheral/ipc/cy_ipc_drv.h **** *
  95:Generated_Source\PSoC6\pdl\drivers/peripheral/ipc/cy_ipc_drv.h **** * The application can use semaphores to control access to shared resources, as
  96:Generated_Source\PSoC6\pdl\drivers/peripheral/ipc/cy_ipc_drv.h **** * required by the application's logic.
  97:Generated_Source\PSoC6\pdl\drivers/peripheral/ipc/cy_ipc_drv.h **** *
  98:Generated_Source\PSoC6\pdl\drivers/peripheral/ipc/cy_ipc_drv.h **** * The PDL provides specific files that set up default IPC functionality.
  99:Generated_Source\PSoC6\pdl\drivers/peripheral/ipc/cy_ipc_drv.h **** * They are system_psoc6.h, system_psoc6_cm0plus.c and system_psoc6_cm4.c. You 
 100:Generated_Source\PSoC6\pdl\drivers/peripheral/ipc/cy_ipc_drv.h **** * can modify these files based on the requirements of your design. 
 101:Generated_Source\PSoC6\pdl\drivers/peripheral/ipc/cy_ipc_drv.h **** * If you use PSoC Creator as a development environment, it will not overwrite 
 102:Generated_Source\PSoC6\pdl\drivers/peripheral/ipc/cy_ipc_drv.h **** * your changes when you generate the application or build your code.
 103:Generated_Source\PSoC6\pdl\drivers/peripheral/ipc/cy_ipc_drv.h **** *
 104:Generated_Source\PSoC6\pdl\drivers/peripheral/ipc/cy_ipc_drv.h **** * \section group_ipc_pipe_layer PIPE layer
 105:Generated_Source\PSoC6\pdl\drivers/peripheral/ipc/cy_ipc_drv.h **** *
 106:Generated_Source\PSoC6\pdl\drivers/peripheral/ipc/cy_ipc_drv.h **** * A pipe is a communication channel between two endpoints. PSoC 6 devices support
 107:Generated_Source\PSoC6\pdl\drivers/peripheral/ipc/cy_ipc_drv.h **** * 16 IPC channels, and 16 IPC interrupts, each numbered 0-15. IPC Channels 0-7
 108:Generated_Source\PSoC6\pdl\drivers/peripheral/ipc/cy_ipc_drv.h **** * and IPC interrupts 0-7 are reserved for system use. Channels 8-15 and
 109:Generated_Source\PSoC6\pdl\drivers/peripheral/ipc/cy_ipc_drv.h **** * interrupts 8-15 are available for application use.
 110:Generated_Source\PSoC6\pdl\drivers/peripheral/ipc/cy_ipc_drv.h **** *
ARM GAS  C:\Users\pearlstl\AppData\Local\Temp\ccJc8F9F.s 			page 15


 111:Generated_Source\PSoC6\pdl\drivers/peripheral/ipc/cy_ipc_drv.h **** * A full duplex pipe uses two IPC channels, one per endpoint. Each endpoint
 112:Generated_Source\PSoC6\pdl\drivers/peripheral/ipc/cy_ipc_drv.h **** * specifies all the information required to process a message (either sent or
 113:Generated_Source\PSoC6\pdl\drivers/peripheral/ipc/cy_ipc_drv.h **** * received). Each endpoint is configured to use an IPC channel, and an IPC
 114:Generated_Source\PSoC6\pdl\drivers/peripheral/ipc/cy_ipc_drv.h **** * interrupt. Common practice is to use the interrupt with the same number as
 115:Generated_Source\PSoC6\pdl\drivers/peripheral/ipc/cy_ipc_drv.h **** * the IPC channel. However, IPC Interrupts are not directly associated with the
 116:Generated_Source\PSoC6\pdl\drivers/peripheral/ipc/cy_ipc_drv.h **** * IPC channels, so any channel can use any interrupt.  Any IPC channel can
 117:Generated_Source\PSoC6\pdl\drivers/peripheral/ipc/cy_ipc_drv.h **** * trigger 0, 1 or all the IPC interrupts at once, depending on the Notify or
 118:Generated_Source\PSoC6\pdl\drivers/peripheral/ipc/cy_ipc_drv.h **** * Release masks used.
 119:Generated_Source\PSoC6\pdl\drivers/peripheral/ipc/cy_ipc_drv.h **** *
 120:Generated_Source\PSoC6\pdl\drivers/peripheral/ipc/cy_ipc_drv.h **** * It is also possible to set up a one-directional pipe, using a single IPC
 121:Generated_Source\PSoC6\pdl\drivers/peripheral/ipc/cy_ipc_drv.h **** * channel. In this design one processor is always the sender, and the other is
 122:Generated_Source\PSoC6\pdl\drivers/peripheral/ipc/cy_ipc_drv.h **** * always the receiver. However, there are still two endpoints.
 123:Generated_Source\PSoC6\pdl\drivers/peripheral/ipc/cy_ipc_drv.h **** *
 124:Generated_Source\PSoC6\pdl\drivers/peripheral/ipc/cy_ipc_drv.h **** * A pipe supports an arbitrary number of clients with an array of callback
 125:Generated_Source\PSoC6\pdl\drivers/peripheral/ipc/cy_ipc_drv.h **** * functions, one per client. The client ID is the index number into the array
 126:Generated_Source\PSoC6\pdl\drivers/peripheral/ipc/cy_ipc_drv.h **** * for the client. After a pipe is configured and initialized, the application
 127:Generated_Source\PSoC6\pdl\drivers/peripheral/ipc/cy_ipc_drv.h **** * calls Cy_IPC_Pipe_RegisterCallback() once per client to register each client's
 128:Generated_Source\PSoC6\pdl\drivers/peripheral/ipc/cy_ipc_drv.h **** * callback function. Multiple clients can use the same callback function. The
 129:Generated_Source\PSoC6\pdl\drivers/peripheral/ipc/cy_ipc_drv.h **** * endpoints in a pipe share the callback array.
 130:Generated_Source\PSoC6\pdl\drivers/peripheral/ipc/cy_ipc_drv.h **** *
 131:Generated_Source\PSoC6\pdl\drivers/peripheral/ipc/cy_ipc_drv.h **** * Use Cy_IPC_Pipe_SendMessage() to send data. You specify both the "to" and
 132:Generated_Source\PSoC6\pdl\drivers/peripheral/ipc/cy_ipc_drv.h **** * "from" endpoints, and a callback function to be used when the data transfer is
 133:Generated_Source\PSoC6\pdl\drivers/peripheral/ipc/cy_ipc_drv.h **** * complete. The data is a 32-bit void pointer. The data pointed to is arbitrary,
 134:Generated_Source\PSoC6\pdl\drivers/peripheral/ipc/cy_ipc_drv.h **** * and can be an array, a structure, or a location in memory. The only limitation
 135:Generated_Source\PSoC6\pdl\drivers/peripheral/ipc/cy_ipc_drv.h **** * is that the first element of the data must be a 32-bit unsigned word containing
 136:Generated_Source\PSoC6\pdl\drivers/peripheral/ipc/cy_ipc_drv.h **** * a client ID number. The ID number is the index into the callback array.
 137:Generated_Source\PSoC6\pdl\drivers/peripheral/ipc/cy_ipc_drv.h **** *
 138:Generated_Source\PSoC6\pdl\drivers/peripheral/ipc/cy_ipc_drv.h **** * When a message is sent, the receiving endpoint's interrupt handler is called.
 139:Generated_Source\PSoC6\pdl\drivers/peripheral/ipc/cy_ipc_drv.h **** * The ISR can perform any task required by the design. However, as part of its
 140:Generated_Source\PSoC6\pdl\drivers/peripheral/ipc/cy_ipc_drv.h **** * function it calls \ref Cy_IPC_Pipe_ExecCallback. This function retrieves the
 141:Generated_Source\PSoC6\pdl\drivers/peripheral/ipc/cy_ipc_drv.h **** * client ID from the data and calls the associated callback function.
 142:Generated_Source\PSoC6\pdl\drivers/peripheral/ipc/cy_ipc_drv.h **** * The user-supplied callback function handles the data in whatever way is
 143:Generated_Source\PSoC6\pdl\drivers/peripheral/ipc/cy_ipc_drv.h **** * appropriate based on the application logic.
 144:Generated_Source\PSoC6\pdl\drivers/peripheral/ipc/cy_ipc_drv.h **** *
 145:Generated_Source\PSoC6\pdl\drivers/peripheral/ipc/cy_ipc_drv.h **** * After the callback function is returned by the receiver, it invokes the release
 146:Generated_Source\PSoC6\pdl\drivers/peripheral/ipc/cy_ipc_drv.h **** * callback function defined by the sender of the message.
 147:Generated_Source\PSoC6\pdl\drivers/peripheral/ipc/cy_ipc_drv.h **** *
 148:Generated_Source\PSoC6\pdl\drivers/peripheral/ipc/cy_ipc_drv.h **** * \section group_ipc_sema_layer SEMA Layer
 149:Generated_Source\PSoC6\pdl\drivers/peripheral/ipc/cy_ipc_drv.h **** *
 150:Generated_Source\PSoC6\pdl\drivers/peripheral/ipc/cy_ipc_drv.h **** * A semaphore is a flag the application uses to control access to a shared
 151:Generated_Source\PSoC6\pdl\drivers/peripheral/ipc/cy_ipc_drv.h **** * resource. The SEMA-level API uses an IPC channel to implement
 152:Generated_Source\PSoC6\pdl\drivers/peripheral/ipc/cy_ipc_drv.h **** * semaphores. Startup code sets up a default semaphore system. The
 153:Generated_Source\PSoC6\pdl\drivers/peripheral/ipc/cy_ipc_drv.h **** * default system creates an array of 128 semaphores (four 32-bit values).
 154:Generated_Source\PSoC6\pdl\drivers/peripheral/ipc/cy_ipc_drv.h **** * Semaphores 0-15 are reserved for system use. See
 155:Generated_Source\PSoC6\pdl\drivers/peripheral/ipc/cy_ipc_drv.h **** * Configuration Considerations - SEMA.
 156:Generated_Source\PSoC6\pdl\drivers/peripheral/ipc/cy_ipc_drv.h **** *
 157:Generated_Source\PSoC6\pdl\drivers/peripheral/ipc/cy_ipc_drv.h **** * Functions are available to initialize the semaphore system, to set or
 158:Generated_Source\PSoC6\pdl\drivers/peripheral/ipc/cy_ipc_drv.h **** * clear a semaphore, or to get the semaphore's current status. Application
 159:Generated_Source\PSoC6\pdl\drivers/peripheral/ipc/cy_ipc_drv.h **** * logic uses SEMA functions to relate a particular semaphore to a particular
 160:Generated_Source\PSoC6\pdl\drivers/peripheral/ipc/cy_ipc_drv.h **** * shared resource, and set, clear, or check the flag when accessing the
 161:Generated_Source\PSoC6\pdl\drivers/peripheral/ipc/cy_ipc_drv.h **** * shared resource.
 162:Generated_Source\PSoC6\pdl\drivers/peripheral/ipc/cy_ipc_drv.h **** *
 163:Generated_Source\PSoC6\pdl\drivers/peripheral/ipc/cy_ipc_drv.h **** * \section group_ipc_configuration_cypipe Configuration Considerations - CYPIPE
 164:Generated_Source\PSoC6\pdl\drivers/peripheral/ipc/cy_ipc_drv.h **** *
 165:Generated_Source\PSoC6\pdl\drivers/peripheral/ipc/cy_ipc_drv.h **** * There are none. The startup files set up the required CYPIPE for system
 166:Generated_Source\PSoC6\pdl\drivers/peripheral/ipc/cy_ipc_drv.h **** * use. Do not modify the CYPIPE. It uses IPC channels 5 and 6 to implement full
 167:Generated_Source\PSoC6\pdl\drivers/peripheral/ipc/cy_ipc_drv.h **** * duplex communication between cores. See System Interrupt (SysInt) for background.
ARM GAS  C:\Users\pearlstl\AppData\Local\Temp\ccJc8F9F.s 			page 16


 168:Generated_Source\PSoC6\pdl\drivers/peripheral/ipc/cy_ipc_drv.h **** *
 169:Generated_Source\PSoC6\pdl\drivers/peripheral/ipc/cy_ipc_drv.h **** * To create your own pipe (<b>USRPIPE</b>) you should edit startup files
 170:Generated_Source\PSoC6\pdl\drivers/peripheral/ipc/cy_ipc_drv.h **** * and take 4 steps:
 171:Generated_Source\PSoC6\pdl\drivers/peripheral/ipc/cy_ipc_drv.h **** *   -# Define a pipe callbacks processing interrupt handler
 172:Generated_Source\PSoC6\pdl\drivers/peripheral/ipc/cy_ipc_drv.h **** *      (similar to <b>Cy_SysIpcPipeIsrCm0</b> or <b>Cy_SysIpcPipeIsrCm4</b>)
 173:Generated_Source\PSoC6\pdl\drivers/peripheral/ipc/cy_ipc_drv.h **** *   -# Define a callbacks array (similar to <b>systemIpcPipeSysCbArray</b>)
 174:Generated_Source\PSoC6\pdl\drivers/peripheral/ipc/cy_ipc_drv.h **** *   -# Define your pipe configuration with a cy_stc_ipc_pipe_config_t type structure
 175:Generated_Source\PSoC6\pdl\drivers/peripheral/ipc/cy_ipc_drv.h **** *      (similar to <b>systemIpcPipeConfigCm0</b> and <b>systemIpcPipeConfigCm4</b>)
 176:Generated_Source\PSoC6\pdl\drivers/peripheral/ipc/cy_ipc_drv.h **** *   -# Call Cy_IPC_Pipe_Init() from each core to initialize your pipe (similar
 177:Generated_Source\PSoC6\pdl\drivers/peripheral/ipc/cy_ipc_drv.h **** *      to call in the <b>SystemInit</b>)
 178:Generated_Source\PSoC6\pdl\drivers/peripheral/ipc/cy_ipc_drv.h **** *
 179:Generated_Source\PSoC6\pdl\drivers/peripheral/ipc/cy_ipc_drv.h **** * \section group_ipc_configuration_sema Configuration Considerations - SEMA
 180:Generated_Source\PSoC6\pdl\drivers/peripheral/ipc/cy_ipc_drv.h **** *
 181:Generated_Source\PSoC6\pdl\drivers/peripheral/ipc/cy_ipc_drv.h **** * Startup code calls Cy_IPC_Sema_Init() with default values to set up semaphore 
 182:Generated_Source\PSoC6\pdl\drivers/peripheral/ipc/cy_ipc_drv.h **** * functionality. By default the semaphore system uses IPC channel 4, and 
 183:Generated_Source\PSoC6\pdl\drivers/peripheral/ipc/cy_ipc_drv.h **** * creates 128 semaphores. Do <b>not</b> change the IPC channel. 
 184:Generated_Source\PSoC6\pdl\drivers/peripheral/ipc/cy_ipc_drv.h **** * You can change the number of semaphores.
 185:Generated_Source\PSoC6\pdl\drivers/peripheral/ipc/cy_ipc_drv.h **** *
 186:Generated_Source\PSoC6\pdl\drivers/peripheral/ipc/cy_ipc_drv.h **** * To change the number of semaphores, modify this line of code in system_psoc6.h.
 187:Generated_Source\PSoC6\pdl\drivers/peripheral/ipc/cy_ipc_drv.h **** *
 188:Generated_Source\PSoC6\pdl\drivers/peripheral/ipc/cy_ipc_drv.h **** * \code
 189:Generated_Source\PSoC6\pdl\drivers/peripheral/ipc/cy_ipc_drv.h **** * #define CY_IPC_SEMA_COUNT               (uint32_t)(128u)
 190:Generated_Source\PSoC6\pdl\drivers/peripheral/ipc/cy_ipc_drv.h **** * \endcode
 191:Generated_Source\PSoC6\pdl\drivers/peripheral/ipc/cy_ipc_drv.h **** *
 192:Generated_Source\PSoC6\pdl\drivers/peripheral/ipc/cy_ipc_drv.h **** * Startup also declares array ipcSemaArray to hold the semaphore
 193:Generated_Source\PSoC6\pdl\drivers/peripheral/ipc/cy_ipc_drv.h **** * flags based on the size defined for this symbol. Use increments of 32. You
 194:Generated_Source\PSoC6\pdl\drivers/peripheral/ipc/cy_ipc_drv.h **** * must have at least 32 semaphores. Semaphores 0-15 are reserved for
 195:Generated_Source\PSoC6\pdl\drivers/peripheral/ipc/cy_ipc_drv.h **** * system use. Your application can use semaphores greater than 15.
 196:Generated_Source\PSoC6\pdl\drivers/peripheral/ipc/cy_ipc_drv.h **** *
 197:Generated_Source\PSoC6\pdl\drivers/peripheral/ipc/cy_ipc_drv.h **** * \section group_ipc_more_information More Information
 198:Generated_Source\PSoC6\pdl\drivers/peripheral/ipc/cy_ipc_drv.h **** *
 199:Generated_Source\PSoC6\pdl\drivers/peripheral/ipc/cy_ipc_drv.h **** * If the default startup file is not used, or SystemInit() is not called in your 
 200:Generated_Source\PSoC6\pdl\drivers/peripheral/ipc/cy_ipc_drv.h **** * project, call the following three functions prior to executing any flash or 
 201:Generated_Source\PSoC6\pdl\drivers/peripheral/ipc/cy_ipc_drv.h **** * EmEEPROM write or erase operation:
 202:Generated_Source\PSoC6\pdl\drivers/peripheral/ipc/cy_ipc_drv.h **** *  -# Cy_IPC_Sema_Init()
 203:Generated_Source\PSoC6\pdl\drivers/peripheral/ipc/cy_ipc_drv.h **** *  -# Cy_IPC_Pipe_Config()
 204:Generated_Source\PSoC6\pdl\drivers/peripheral/ipc/cy_ipc_drv.h **** *  -# Cy_IPC_Pipe_Init()
 205:Generated_Source\PSoC6\pdl\drivers/peripheral/ipc/cy_ipc_drv.h **** *  -# Cy_Flash_Init()
 206:Generated_Source\PSoC6\pdl\drivers/peripheral/ipc/cy_ipc_drv.h **** *
 207:Generated_Source\PSoC6\pdl\drivers/peripheral/ipc/cy_ipc_drv.h **** * See the technical reference manual(TRM) for more information on the IPC.
 208:Generated_Source\PSoC6\pdl\drivers/peripheral/ipc/cy_ipc_drv.h **** *
 209:Generated_Source\PSoC6\pdl\drivers/peripheral/ipc/cy_ipc_drv.h **** * \section group_ipc_MISRA MISRA-C Compliance
 210:Generated_Source\PSoC6\pdl\drivers/peripheral/ipc/cy_ipc_drv.h **** *
 211:Generated_Source\PSoC6\pdl\drivers/peripheral/ipc/cy_ipc_drv.h **** * <table class="doxtable">
 212:Generated_Source\PSoC6\pdl\drivers/peripheral/ipc/cy_ipc_drv.h **** *   <tr>
 213:Generated_Source\PSoC6\pdl\drivers/peripheral/ipc/cy_ipc_drv.h **** *     <th>MISRA Rule</th>
 214:Generated_Source\PSoC6\pdl\drivers/peripheral/ipc/cy_ipc_drv.h **** *     <th>Rule Class (Required/Advisory)</th>
 215:Generated_Source\PSoC6\pdl\drivers/peripheral/ipc/cy_ipc_drv.h **** *     <th>Rule Description</th>
 216:Generated_Source\PSoC6\pdl\drivers/peripheral/ipc/cy_ipc_drv.h **** *     <th style="width: 50%;">Description of Deviation(s)</th>
 217:Generated_Source\PSoC6\pdl\drivers/peripheral/ipc/cy_ipc_drv.h **** *   </tr>
 218:Generated_Source\PSoC6\pdl\drivers/peripheral/ipc/cy_ipc_drv.h **** *   <tr>
 219:Generated_Source\PSoC6\pdl\drivers/peripheral/ipc/cy_ipc_drv.h **** *     <td>10.3</td>
 220:Generated_Source\PSoC6\pdl\drivers/peripheral/ipc/cy_ipc_drv.h **** *     <td>R</td>
 221:Generated_Source\PSoC6\pdl\drivers/peripheral/ipc/cy_ipc_drv.h **** *     <td>The value of a complex expression of integer type shall be cast
 222:Generated_Source\PSoC6\pdl\drivers/peripheral/ipc/cy_ipc_drv.h **** *         only to a type of the same signedness that is no wider than the underlying
 223:Generated_Source\PSoC6\pdl\drivers/peripheral/ipc/cy_ipc_drv.h **** *         type of the expression.</td>
 224:Generated_Source\PSoC6\pdl\drivers/peripheral/ipc/cy_ipc_drv.h **** *     <td>The cast from integer to enumeration value is used to calculate
ARM GAS  C:\Users\pearlstl\AppData\Local\Temp\ccJc8F9F.s 			page 17


 225:Generated_Source\PSoC6\pdl\drivers/peripheral/ipc/cy_ipc_drv.h **** *         the interrupt vector source from the integer number of the IPC interrupt
 226:Generated_Source\PSoC6\pdl\drivers/peripheral/ipc/cy_ipc_drv.h **** *         structure, so there is no way to avoid this cast.</td>
 227:Generated_Source\PSoC6\pdl\drivers/peripheral/ipc/cy_ipc_drv.h **** *   </tr>
 228:Generated_Source\PSoC6\pdl\drivers/peripheral/ipc/cy_ipc_drv.h **** *   <tr>
 229:Generated_Source\PSoC6\pdl\drivers/peripheral/ipc/cy_ipc_drv.h **** *     <td>11.4</td>
 230:Generated_Source\PSoC6\pdl\drivers/peripheral/ipc/cy_ipc_drv.h **** *     <td>A</td>
 231:Generated_Source\PSoC6\pdl\drivers/peripheral/ipc/cy_ipc_drv.h **** *     <td>A cast should not be performed between a pointer to the void to a
 232:Generated_Source\PSoC6\pdl\drivers/peripheral/ipc/cy_ipc_drv.h **** *         pointer to the object type.</td>
 233:Generated_Source\PSoC6\pdl\drivers/peripheral/ipc/cy_ipc_drv.h **** *     <td>The cast from the void to pointer and vice versa is used to transmit
 234:Generated_Source\PSoC6\pdl\drivers/peripheral/ipc/cy_ipc_drv.h **** *         data via the \ref group_ipc channel by exchanging the pointer. We
 235:Generated_Source\PSoC6\pdl\drivers/peripheral/ipc/cy_ipc_drv.h **** *         exchange only one pointer, so there is no way to avoid this cast.</td>
 236:Generated_Source\PSoC6\pdl\drivers/peripheral/ipc/cy_ipc_drv.h **** *   </tr>
 237:Generated_Source\PSoC6\pdl\drivers/peripheral/ipc/cy_ipc_drv.h **** * </table>
 238:Generated_Source\PSoC6\pdl\drivers/peripheral/ipc/cy_ipc_drv.h **** *
 239:Generated_Source\PSoC6\pdl\drivers/peripheral/ipc/cy_ipc_drv.h **** * \section group_ipc_changelog Changelog
 240:Generated_Source\PSoC6\pdl\drivers/peripheral/ipc/cy_ipc_drv.h **** *
 241:Generated_Source\PSoC6\pdl\drivers/peripheral/ipc/cy_ipc_drv.h **** * <table class="doxtable">
 242:Generated_Source\PSoC6\pdl\drivers/peripheral/ipc/cy_ipc_drv.h **** *   <tr><th>Version</th><th>Changes</th><th>Reason for Change</th></tr>
 243:Generated_Source\PSoC6\pdl\drivers/peripheral/ipc/cy_ipc_drv.h **** *   <tr>
 244:Generated_Source\PSoC6\pdl\drivers/peripheral/ipc/cy_ipc_drv.h **** *     <td rowspan="3">1.30</td>
 245:Generated_Source\PSoC6\pdl\drivers/peripheral/ipc/cy_ipc_drv.h **** *     <td>Flattened the organization of the driver source code into the single source directory and
 246:Generated_Source\PSoC6\pdl\drivers/peripheral/ipc/cy_ipc_drv.h **** *     <td>Driver library directory-structure simplification.</td>
 247:Generated_Source\PSoC6\pdl\drivers/peripheral/ipc/cy_ipc_drv.h **** *   </tr>
 248:Generated_Source\PSoC6\pdl\drivers/peripheral/ipc/cy_ipc_drv.h **** *   <tr>
 249:Generated_Source\PSoC6\pdl\drivers/peripheral/ipc/cy_ipc_drv.h **** *     <td>Moved the Cy_IPC_SystemSemaInit(), Cy_IPC_SystemPipeInit() functions implementation from 
 250:Generated_Source\PSoC6\pdl\drivers/peripheral/ipc/cy_ipc_drv.h **** *     <td>Changed IPC driver configuration method from compile time to run time.</td>
 251:Generated_Source\PSoC6\pdl\drivers/peripheral/ipc/cy_ipc_drv.h **** *   </tr>
 252:Generated_Source\PSoC6\pdl\drivers/peripheral/ipc/cy_ipc_drv.h **** *   <tr>
 253:Generated_Source\PSoC6\pdl\drivers/peripheral/ipc/cy_ipc_drv.h **** *     <td>Added register access layer. Use register access macros instead
 254:Generated_Source\PSoC6\pdl\drivers/peripheral/ipc/cy_ipc_drv.h **** *         of direct register access using dereferenced pointers.</td>
 255:Generated_Source\PSoC6\pdl\drivers/peripheral/ipc/cy_ipc_drv.h **** *     <td>Makes register access device-independent, so that the PDL does 
 256:Generated_Source\PSoC6\pdl\drivers/peripheral/ipc/cy_ipc_drv.h **** *         not need to be recompiled for each supported part number.</td>
 257:Generated_Source\PSoC6\pdl\drivers/peripheral/ipc/cy_ipc_drv.h **** *   </tr>
 258:Generated_Source\PSoC6\pdl\drivers/peripheral/ipc/cy_ipc_drv.h **** *   <tr>
 259:Generated_Source\PSoC6\pdl\drivers/peripheral/ipc/cy_ipc_drv.h **** *     <td>1.20</td>
 260:Generated_Source\PSoC6\pdl\drivers/peripheral/ipc/cy_ipc_drv.h **** *     <td>Added \ref Cy_IPC_Pipe_ExecuteCallback function.
 261:Generated_Source\PSoC6\pdl\drivers/peripheral/ipc/cy_ipc_drv.h **** *         Updated documentation about user pipe initialization.
 262:Generated_Source\PSoC6\pdl\drivers/peripheral/ipc/cy_ipc_drv.h **** *     </td>
 263:Generated_Source\PSoC6\pdl\drivers/peripheral/ipc/cy_ipc_drv.h **** *     <td>Interface improvement, documentation update</td>
 264:Generated_Source\PSoC6\pdl\drivers/peripheral/ipc/cy_ipc_drv.h **** *   </tr>
 265:Generated_Source\PSoC6\pdl\drivers/peripheral/ipc/cy_ipc_drv.h **** *   <tr>
 266:Generated_Source\PSoC6\pdl\drivers/peripheral/ipc/cy_ipc_drv.h **** *     <td>1.10.1</td>
 267:Generated_Source\PSoC6\pdl\drivers/peripheral/ipc/cy_ipc_drv.h **** *     <td>Updated description of the \ref Cy_IPC_Pipe_Init,
 268:Generated_Source\PSoC6\pdl\drivers/peripheral/ipc/cy_ipc_drv.h **** *         \ref Cy_IPC_Pipe_EndpointInit, \ref Cy_IPC_Sema_Set functions.
 269:Generated_Source\PSoC6\pdl\drivers/peripheral/ipc/cy_ipc_drv.h **** *         Added / updated code snippets.
 270:Generated_Source\PSoC6\pdl\drivers/peripheral/ipc/cy_ipc_drv.h **** *     </td>
 271:Generated_Source\PSoC6\pdl\drivers/peripheral/ipc/cy_ipc_drv.h **** *     <td>Documentation update and clarification</td>
 272:Generated_Source\PSoC6\pdl\drivers/peripheral/ipc/cy_ipc_drv.h **** *   </tr>
 273:Generated_Source\PSoC6\pdl\drivers/peripheral/ipc/cy_ipc_drv.h **** *   <tr>
 274:Generated_Source\PSoC6\pdl\drivers/peripheral/ipc/cy_ipc_drv.h **** *     <td>1.10</td>
 275:Generated_Source\PSoC6\pdl\drivers/peripheral/ipc/cy_ipc_drv.h **** *     <td>Added support for more IPC structures</td>
 276:Generated_Source\PSoC6\pdl\drivers/peripheral/ipc/cy_ipc_drv.h **** *     <td>New device support</td>
 277:Generated_Source\PSoC6\pdl\drivers/peripheral/ipc/cy_ipc_drv.h **** *   </tr>
 278:Generated_Source\PSoC6\pdl\drivers/peripheral/ipc/cy_ipc_drv.h **** *   <tr>
 279:Generated_Source\PSoC6\pdl\drivers/peripheral/ipc/cy_ipc_drv.h **** *     <td>1.0</td>
 280:Generated_Source\PSoC6\pdl\drivers/peripheral/ipc/cy_ipc_drv.h **** *     <td>Initial version</td>
 281:Generated_Source\PSoC6\pdl\drivers/peripheral/ipc/cy_ipc_drv.h **** *     <td></td>
ARM GAS  C:\Users\pearlstl\AppData\Local\Temp\ccJc8F9F.s 			page 18


 282:Generated_Source\PSoC6\pdl\drivers/peripheral/ipc/cy_ipc_drv.h **** *   </tr>
 283:Generated_Source\PSoC6\pdl\drivers/peripheral/ipc/cy_ipc_drv.h **** * </table>
 284:Generated_Source\PSoC6\pdl\drivers/peripheral/ipc/cy_ipc_drv.h **** *
 285:Generated_Source\PSoC6\pdl\drivers/peripheral/ipc/cy_ipc_drv.h **** * \defgroup group_ipc_drv IPC driver layer (IPC_DRV)
 286:Generated_Source\PSoC6\pdl\drivers/peripheral/ipc/cy_ipc_drv.h **** * \{
 287:Generated_Source\PSoC6\pdl\drivers/peripheral/ipc/cy_ipc_drv.h **** *   The functions of this layer are used in the higher IPC levels
 288:Generated_Source\PSoC6\pdl\drivers/peripheral/ipc/cy_ipc_drv.h **** *   (Semaphores and Pipes).
 289:Generated_Source\PSoC6\pdl\drivers/peripheral/ipc/cy_ipc_drv.h **** *   Users are not expected to call any of these IPC functions directly (cy_ipc_drv.h). 
 290:Generated_Source\PSoC6\pdl\drivers/peripheral/ipc/cy_ipc_drv.h **** *   Instead include either of cy_ipc_sema.h or cy_ipc_pipe.h. 
 291:Generated_Source\PSoC6\pdl\drivers/peripheral/ipc/cy_ipc_drv.h **** *   Alternatively include cy_pdl.h to get access to all functions and declarations in the PDL.
 292:Generated_Source\PSoC6\pdl\drivers/peripheral/ipc/cy_ipc_drv.h **** *
 293:Generated_Source\PSoC6\pdl\drivers/peripheral/ipc/cy_ipc_drv.h **** *   \defgroup group_ipc_macros Macros
 294:Generated_Source\PSoC6\pdl\drivers/peripheral/ipc/cy_ipc_drv.h **** *       Macro definitions are used in the driver
 295:Generated_Source\PSoC6\pdl\drivers/peripheral/ipc/cy_ipc_drv.h **** *
 296:Generated_Source\PSoC6\pdl\drivers/peripheral/ipc/cy_ipc_drv.h **** *   \defgroup group_ipc_functions Functions
 297:Generated_Source\PSoC6\pdl\drivers/peripheral/ipc/cy_ipc_drv.h **** *       Functions are used in the driver
 298:Generated_Source\PSoC6\pdl\drivers/peripheral/ipc/cy_ipc_drv.h **** *
 299:Generated_Source\PSoC6\pdl\drivers/peripheral/ipc/cy_ipc_drv.h **** *   \defgroup group_ipc_data_structures Data Structures
 300:Generated_Source\PSoC6\pdl\drivers/peripheral/ipc/cy_ipc_drv.h **** *       Data structures are used in the driver
 301:Generated_Source\PSoC6\pdl\drivers/peripheral/ipc/cy_ipc_drv.h **** *
 302:Generated_Source\PSoC6\pdl\drivers/peripheral/ipc/cy_ipc_drv.h **** *   \defgroup group_ipc_enums Enumerated Types
 303:Generated_Source\PSoC6\pdl\drivers/peripheral/ipc/cy_ipc_drv.h **** *       Enumerations are used in the driver
 304:Generated_Source\PSoC6\pdl\drivers/peripheral/ipc/cy_ipc_drv.h **** * \}
 305:Generated_Source\PSoC6\pdl\drivers/peripheral/ipc/cy_ipc_drv.h **** *
 306:Generated_Source\PSoC6\pdl\drivers/peripheral/ipc/cy_ipc_drv.h **** * \defgroup group_ipc_sema IPC semaphores layer (IPC_SEMA)
 307:Generated_Source\PSoC6\pdl\drivers/peripheral/ipc/cy_ipc_drv.h **** * \defgroup group_ipc_pipe IPC pipes layer (IPC_PIPE)
 308:Generated_Source\PSoC6\pdl\drivers/peripheral/ipc/cy_ipc_drv.h **** *
 309:Generated_Source\PSoC6\pdl\drivers/peripheral/ipc/cy_ipc_drv.h **** */
 310:Generated_Source\PSoC6\pdl\drivers/peripheral/ipc/cy_ipc_drv.h **** 
 311:Generated_Source\PSoC6\pdl\drivers/peripheral/ipc/cy_ipc_drv.h **** 
 312:Generated_Source\PSoC6\pdl\drivers/peripheral/ipc/cy_ipc_drv.h **** /******************************************************************************/
 313:Generated_Source\PSoC6\pdl\drivers/peripheral/ipc/cy_ipc_drv.h **** /* Include files                                                              */
 314:Generated_Source\PSoC6\pdl\drivers/peripheral/ipc/cy_ipc_drv.h **** /******************************************************************************/
 315:Generated_Source\PSoC6\pdl\drivers/peripheral/ipc/cy_ipc_drv.h **** 
 316:Generated_Source\PSoC6\pdl\drivers/peripheral/ipc/cy_ipc_drv.h **** #include "cy_device.h"
 317:Generated_Source\PSoC6\pdl\drivers/peripheral/ipc/cy_ipc_drv.h **** #include "cy_device_headers.h"
 318:Generated_Source\PSoC6\pdl\drivers/peripheral/ipc/cy_ipc_drv.h **** #include "cy_syslib.h"
 319:Generated_Source\PSoC6\pdl\drivers/peripheral/ipc/cy_ipc_drv.h **** #include <stddef.h>
 320:Generated_Source\PSoC6\pdl\drivers/peripheral/ipc/cy_ipc_drv.h **** 
 321:Generated_Source\PSoC6\pdl\drivers/peripheral/ipc/cy_ipc_drv.h **** 
 322:Generated_Source\PSoC6\pdl\drivers/peripheral/ipc/cy_ipc_drv.h **** /**
 323:Generated_Source\PSoC6\pdl\drivers/peripheral/ipc/cy_ipc_drv.h **** * \addtogroup group_ipc_macros
 324:Generated_Source\PSoC6\pdl\drivers/peripheral/ipc/cy_ipc_drv.h **** * \{
 325:Generated_Source\PSoC6\pdl\drivers/peripheral/ipc/cy_ipc_drv.h **** */
 326:Generated_Source\PSoC6\pdl\drivers/peripheral/ipc/cy_ipc_drv.h **** 
 327:Generated_Source\PSoC6\pdl\drivers/peripheral/ipc/cy_ipc_drv.h **** /** Driver major version */
 328:Generated_Source\PSoC6\pdl\drivers/peripheral/ipc/cy_ipc_drv.h **** #define CY_IPC_DRV_VERSION_MAJOR       1
 329:Generated_Source\PSoC6\pdl\drivers/peripheral/ipc/cy_ipc_drv.h **** 
 330:Generated_Source\PSoC6\pdl\drivers/peripheral/ipc/cy_ipc_drv.h **** /** Driver minor version */
 331:Generated_Source\PSoC6\pdl\drivers/peripheral/ipc/cy_ipc_drv.h **** #define CY_IPC_DRV_VERSION_MINOR       30
 332:Generated_Source\PSoC6\pdl\drivers/peripheral/ipc/cy_ipc_drv.h **** 
 333:Generated_Source\PSoC6\pdl\drivers/peripheral/ipc/cy_ipc_drv.h **** /** Defines a value to indicate that no notification events are needed */
 334:Generated_Source\PSoC6\pdl\drivers/peripheral/ipc/cy_ipc_drv.h **** #define CY_IPC_NO_NOTIFICATION         (uint32_t)(0x00000000ul)
 335:Generated_Source\PSoC6\pdl\drivers/peripheral/ipc/cy_ipc_drv.h **** 
 336:Generated_Source\PSoC6\pdl\drivers/peripheral/ipc/cy_ipc_drv.h **** /* Error Code constants */
 337:Generated_Source\PSoC6\pdl\drivers/peripheral/ipc/cy_ipc_drv.h **** #define CY_IPC_ID CY_PDL_DRV_ID(0x22u)  /**< Software PDL driver ID for IPC */
 338:Generated_Source\PSoC6\pdl\drivers/peripheral/ipc/cy_ipc_drv.h **** 
ARM GAS  C:\Users\pearlstl\AppData\Local\Temp\ccJc8F9F.s 			page 19


 339:Generated_Source\PSoC6\pdl\drivers/peripheral/ipc/cy_ipc_drv.h **** /** Return prefix for IPC driver function status codes */
 340:Generated_Source\PSoC6\pdl\drivers/peripheral/ipc/cy_ipc_drv.h **** #define CY_IPC_ID_INFO    (uint32_t)( CY_IPC_ID | CY_PDL_STATUS_INFO )
 341:Generated_Source\PSoC6\pdl\drivers/peripheral/ipc/cy_ipc_drv.h **** /** Return prefix for IPC driver function warning return values */
 342:Generated_Source\PSoC6\pdl\drivers/peripheral/ipc/cy_ipc_drv.h **** #define CY_IPC_ID_WARNING (uint32_t)( CY_IPC_ID | CY_PDL_STATUS_WARNING)
 343:Generated_Source\PSoC6\pdl\drivers/peripheral/ipc/cy_ipc_drv.h **** /** Return prefix for IPC driver function error return values */
 344:Generated_Source\PSoC6\pdl\drivers/peripheral/ipc/cy_ipc_drv.h **** #define CY_IPC_ID_ERROR   (uint32_t)( CY_IPC_ID | CY_PDL_STATUS_ERROR)
 345:Generated_Source\PSoC6\pdl\drivers/peripheral/ipc/cy_ipc_drv.h **** 
 346:Generated_Source\PSoC6\pdl\drivers/peripheral/ipc/cy_ipc_drv.h **** /** Converts the IPC interrupt channel number to interrupt vector */
 347:Generated_Source\PSoC6\pdl\drivers/peripheral/ipc/cy_ipc_drv.h **** #define CY_IPC_INTR_NUM_TO_VECT(x)         ((int32_t) cy_device->cpussIpc0Irq + (x))
 348:Generated_Source\PSoC6\pdl\drivers/peripheral/ipc/cy_ipc_drv.h **** 
 349:Generated_Source\PSoC6\pdl\drivers/peripheral/ipc/cy_ipc_drv.h **** /** \} group_ipc_macros */
 350:Generated_Source\PSoC6\pdl\drivers/peripheral/ipc/cy_ipc_drv.h **** 
 351:Generated_Source\PSoC6\pdl\drivers/peripheral/ipc/cy_ipc_drv.h **** /* end of definition in device.h */
 352:Generated_Source\PSoC6\pdl\drivers/peripheral/ipc/cy_ipc_drv.h **** 
 353:Generated_Source\PSoC6\pdl\drivers/peripheral/ipc/cy_ipc_drv.h **** /** \cond INTERNAL */
 354:Generated_Source\PSoC6\pdl\drivers/peripheral/ipc/cy_ipc_drv.h **** #if (CY_CPU_CORTEX_M0P)
 355:Generated_Source\PSoC6\pdl\drivers/peripheral/ipc/cy_ipc_drv.h ****     #define CY_IPC_CHAN_SYSCALL         CY_IPC_CHAN_SYSCALL_CM0
 356:Generated_Source\PSoC6\pdl\drivers/peripheral/ipc/cy_ipc_drv.h **** #else
 357:Generated_Source\PSoC6\pdl\drivers/peripheral/ipc/cy_ipc_drv.h ****     #define CY_IPC_CHAN_SYSCALL         CY_IPC_CHAN_SYSCALL_CM4
 358:Generated_Source\PSoC6\pdl\drivers/peripheral/ipc/cy_ipc_drv.h **** #endif  /* (CY_CPU_CORTEX_M0P) */
 359:Generated_Source\PSoC6\pdl\drivers/peripheral/ipc/cy_ipc_drv.h **** /** \endcond */
 360:Generated_Source\PSoC6\pdl\drivers/peripheral/ipc/cy_ipc_drv.h **** 
 361:Generated_Source\PSoC6\pdl\drivers/peripheral/ipc/cy_ipc_drv.h **** /**
 362:Generated_Source\PSoC6\pdl\drivers/peripheral/ipc/cy_ipc_drv.h **** * \addtogroup group_ipc_enums
 363:Generated_Source\PSoC6\pdl\drivers/peripheral/ipc/cy_ipc_drv.h **** * \{
 364:Generated_Source\PSoC6\pdl\drivers/peripheral/ipc/cy_ipc_drv.h **** */
 365:Generated_Source\PSoC6\pdl\drivers/peripheral/ipc/cy_ipc_drv.h **** 
 366:Generated_Source\PSoC6\pdl\drivers/peripheral/ipc/cy_ipc_drv.h **** /**
 367:Generated_Source\PSoC6\pdl\drivers/peripheral/ipc/cy_ipc_drv.h **** * This is a list of ENUMs used for function return status.
 368:Generated_Source\PSoC6\pdl\drivers/peripheral/ipc/cy_ipc_drv.h **** */
 369:Generated_Source\PSoC6\pdl\drivers/peripheral/ipc/cy_ipc_drv.h **** typedef enum
 370:Generated_Source\PSoC6\pdl\drivers/peripheral/ipc/cy_ipc_drv.h **** {
 371:Generated_Source\PSoC6\pdl\drivers/peripheral/ipc/cy_ipc_drv.h ****     /** Function was successfully executed */
 372:Generated_Source\PSoC6\pdl\drivers/peripheral/ipc/cy_ipc_drv.h ****     CY_IPC_DRV_SUCCESS      = (0x00u),
 373:Generated_Source\PSoC6\pdl\drivers/peripheral/ipc/cy_ipc_drv.h ****     /** Function was not executed due to an error.
 374:Generated_Source\PSoC6\pdl\drivers/peripheral/ipc/cy_ipc_drv.h ****         Typical conditions for the error explained
 375:Generated_Source\PSoC6\pdl\drivers/peripheral/ipc/cy_ipc_drv.h ****         in the function description */
 376:Generated_Source\PSoC6\pdl\drivers/peripheral/ipc/cy_ipc_drv.h ****     CY_IPC_DRV_ERROR        = ( CY_IPC_ID_ERROR + 1ul),
 377:Generated_Source\PSoC6\pdl\drivers/peripheral/ipc/cy_ipc_drv.h **** } cy_en_ipcdrv_status_t;
 378:Generated_Source\PSoC6\pdl\drivers/peripheral/ipc/cy_ipc_drv.h **** 
 379:Generated_Source\PSoC6\pdl\drivers/peripheral/ipc/cy_ipc_drv.h **** /** \} group_ipc_enums */
 380:Generated_Source\PSoC6\pdl\drivers/peripheral/ipc/cy_ipc_drv.h **** 
 381:Generated_Source\PSoC6\pdl\drivers/peripheral/ipc/cy_ipc_drv.h **** 
 382:Generated_Source\PSoC6\pdl\drivers/peripheral/ipc/cy_ipc_drv.h **** #ifdef __cplusplus
 383:Generated_Source\PSoC6\pdl\drivers/peripheral/ipc/cy_ipc_drv.h **** extern "C" {
 384:Generated_Source\PSoC6\pdl\drivers/peripheral/ipc/cy_ipc_drv.h **** #endif
 385:Generated_Source\PSoC6\pdl\drivers/peripheral/ipc/cy_ipc_drv.h **** 
 386:Generated_Source\PSoC6\pdl\drivers/peripheral/ipc/cy_ipc_drv.h **** /** \cond INTERNAL */
 387:Generated_Source\PSoC6\pdl\drivers/peripheral/ipc/cy_ipc_drv.h **** 
 388:Generated_Source\PSoC6\pdl\drivers/peripheral/ipc/cy_ipc_drv.h **** __STATIC_INLINE void     Cy_IPC_Drv_WriteDataValue (IPC_STRUCT_Type* base, uint32_t dataValue);
 389:Generated_Source\PSoC6\pdl\drivers/peripheral/ipc/cy_ipc_drv.h **** __STATIC_INLINE uint32_t Cy_IPC_Drv_ReadDataValue (IPC_STRUCT_Type const * base);
 390:Generated_Source\PSoC6\pdl\drivers/peripheral/ipc/cy_ipc_drv.h **** 
 391:Generated_Source\PSoC6\pdl\drivers/peripheral/ipc/cy_ipc_drv.h **** __STATIC_INLINE uint32_t Cy_IPC_Drv_ExtractAcquireMask (uint32_t intMask);
 392:Generated_Source\PSoC6\pdl\drivers/peripheral/ipc/cy_ipc_drv.h **** __STATIC_INLINE uint32_t Cy_IPC_Drv_ExtractReleaseMask (uint32_t intMask);
 393:Generated_Source\PSoC6\pdl\drivers/peripheral/ipc/cy_ipc_drv.h **** 
 394:Generated_Source\PSoC6\pdl\drivers/peripheral/ipc/cy_ipc_drv.h **** /** \endcond */
 395:Generated_Source\PSoC6\pdl\drivers/peripheral/ipc/cy_ipc_drv.h **** 
ARM GAS  C:\Users\pearlstl\AppData\Local\Temp\ccJc8F9F.s 			page 20


 396:Generated_Source\PSoC6\pdl\drivers/peripheral/ipc/cy_ipc_drv.h **** /**
 397:Generated_Source\PSoC6\pdl\drivers/peripheral/ipc/cy_ipc_drv.h **** * \addtogroup group_ipc_functions
 398:Generated_Source\PSoC6\pdl\drivers/peripheral/ipc/cy_ipc_drv.h **** * \{
 399:Generated_Source\PSoC6\pdl\drivers/peripheral/ipc/cy_ipc_drv.h **** */
 400:Generated_Source\PSoC6\pdl\drivers/peripheral/ipc/cy_ipc_drv.h **** 
 401:Generated_Source\PSoC6\pdl\drivers/peripheral/ipc/cy_ipc_drv.h **** __STATIC_INLINE IPC_STRUCT_Type*       Cy_IPC_Drv_GetIpcBaseAddress (uint32_t ipcIndex);
 402:Generated_Source\PSoC6\pdl\drivers/peripheral/ipc/cy_ipc_drv.h **** __STATIC_INLINE IPC_INTR_STRUCT_Type*  Cy_IPC_Drv_GetIntrBaseAddr (uint32_t ipcIntrIndex);
 403:Generated_Source\PSoC6\pdl\drivers/peripheral/ipc/cy_ipc_drv.h **** 
 404:Generated_Source\PSoC6\pdl\drivers/peripheral/ipc/cy_ipc_drv.h **** __STATIC_INLINE void     Cy_IPC_Drv_AcquireNotify (IPC_STRUCT_Type * base, uint32_t notifyEventIntr
 405:Generated_Source\PSoC6\pdl\drivers/peripheral/ipc/cy_ipc_drv.h **** __STATIC_INLINE void     Cy_IPC_Drv_ReleaseNotify (IPC_STRUCT_Type * base, uint32_t notifyEventIntr
 406:Generated_Source\PSoC6\pdl\drivers/peripheral/ipc/cy_ipc_drv.h **** 
 407:Generated_Source\PSoC6\pdl\drivers/peripheral/ipc/cy_ipc_drv.h **** __STATIC_INLINE  cy_en_ipcdrv_status_t Cy_IPC_Drv_LockAcquire (IPC_STRUCT_Type const * base);
 408:Generated_Source\PSoC6\pdl\drivers/peripheral/ipc/cy_ipc_drv.h **** cy_en_ipcdrv_status_t    Cy_IPC_Drv_LockRelease (IPC_STRUCT_Type * base, uint32_t releaseEventIntr)
 409:Generated_Source\PSoC6\pdl\drivers/peripheral/ipc/cy_ipc_drv.h **** __STATIC_INLINE bool     Cy_IPC_Drv_IsLockAcquired (IPC_STRUCT_Type const * base);
 410:Generated_Source\PSoC6\pdl\drivers/peripheral/ipc/cy_ipc_drv.h **** __STATIC_INLINE uint32_t Cy_IPC_Drv_GetLockStatus (IPC_STRUCT_Type const * base);
 411:Generated_Source\PSoC6\pdl\drivers/peripheral/ipc/cy_ipc_drv.h **** 
 412:Generated_Source\PSoC6\pdl\drivers/peripheral/ipc/cy_ipc_drv.h **** cy_en_ipcdrv_status_t    Cy_IPC_Drv_SendMsgWord (IPC_STRUCT_Type * base, uint32_t notifyEventIntr, 
 413:Generated_Source\PSoC6\pdl\drivers/peripheral/ipc/cy_ipc_drv.h **** cy_en_ipcdrv_status_t    Cy_IPC_Drv_ReadMsgWord (IPC_STRUCT_Type const * base, uint32_t * message);
 414:Generated_Source\PSoC6\pdl\drivers/peripheral/ipc/cy_ipc_drv.h **** __STATIC_INLINE cy_en_ipcdrv_status_t Cy_IPC_Drv_SendMsgPtr (IPC_STRUCT_Type* base, uint32_t notify
 415:Generated_Source\PSoC6\pdl\drivers/peripheral/ipc/cy_ipc_drv.h **** __STATIC_INLINE cy_en_ipcdrv_status_t Cy_IPC_Drv_ReadMsgPtr (IPC_STRUCT_Type const * base, void ** 
 416:Generated_Source\PSoC6\pdl\drivers/peripheral/ipc/cy_ipc_drv.h **** 
 417:Generated_Source\PSoC6\pdl\drivers/peripheral/ipc/cy_ipc_drv.h **** __STATIC_INLINE void     Cy_IPC_Drv_SetInterruptMask (IPC_INTR_STRUCT_Type * base,
 418:Generated_Source\PSoC6\pdl\drivers/peripheral/ipc/cy_ipc_drv.h ****                                                       uint32_t ipcReleaseMask, uint32_t ipcAcquireM
 419:Generated_Source\PSoC6\pdl\drivers/peripheral/ipc/cy_ipc_drv.h **** __STATIC_INLINE uint32_t Cy_IPC_Drv_GetInterruptMask (IPC_INTR_STRUCT_Type const * base);
 420:Generated_Source\PSoC6\pdl\drivers/peripheral/ipc/cy_ipc_drv.h **** __STATIC_INLINE uint32_t Cy_IPC_Drv_GetInterruptStatusMasked (IPC_INTR_STRUCT_Type const * base);
 421:Generated_Source\PSoC6\pdl\drivers/peripheral/ipc/cy_ipc_drv.h **** __STATIC_INLINE uint32_t Cy_IPC_Drv_GetInterruptStatus (IPC_INTR_STRUCT_Type const * base);
 422:Generated_Source\PSoC6\pdl\drivers/peripheral/ipc/cy_ipc_drv.h **** __STATIC_INLINE void     Cy_IPC_Drv_SetInterrupt (IPC_INTR_STRUCT_Type * base,
 423:Generated_Source\PSoC6\pdl\drivers/peripheral/ipc/cy_ipc_drv.h ****                                                       uint32_t ipcReleaseMask, uint32_t ipcAcquireM
 424:Generated_Source\PSoC6\pdl\drivers/peripheral/ipc/cy_ipc_drv.h **** __STATIC_INLINE void     Cy_IPC_Drv_ClearInterrupt (IPC_INTR_STRUCT_Type * base,
 425:Generated_Source\PSoC6\pdl\drivers/peripheral/ipc/cy_ipc_drv.h ****                                                       uint32_t ipcReleaseMask, uint32_t ipcAcquireM
 426:Generated_Source\PSoC6\pdl\drivers/peripheral/ipc/cy_ipc_drv.h **** 
 427:Generated_Source\PSoC6\pdl\drivers/peripheral/ipc/cy_ipc_drv.h **** 
 428:Generated_Source\PSoC6\pdl\drivers/peripheral/ipc/cy_ipc_drv.h **** /*******************************************************************************
 429:Generated_Source\PSoC6\pdl\drivers/peripheral/ipc/cy_ipc_drv.h **** * Function Name: Cy_IPC_Drv_GetIpcBaseAddress
 430:Generated_Source\PSoC6\pdl\drivers/peripheral/ipc/cy_ipc_drv.h **** ****************************************************************************//**
 431:Generated_Source\PSoC6\pdl\drivers/peripheral/ipc/cy_ipc_drv.h **** *
 432:Generated_Source\PSoC6\pdl\drivers/peripheral/ipc/cy_ipc_drv.h **** * This function takes an IPC channel index as a parameter and returns the base
 433:Generated_Source\PSoC6\pdl\drivers/peripheral/ipc/cy_ipc_drv.h **** * address the IPC registers corresponding to the IPC channel.
 434:Generated_Source\PSoC6\pdl\drivers/peripheral/ipc/cy_ipc_drv.h **** *
 435:Generated_Source\PSoC6\pdl\drivers/peripheral/ipc/cy_ipc_drv.h **** * \note The user is responsible for ensuring that ipcIndex does not exceed the
 436:Generated_Source\PSoC6\pdl\drivers/peripheral/ipc/cy_ipc_drv.h **** * limits.
 437:Generated_Source\PSoC6\pdl\drivers/peripheral/ipc/cy_ipc_drv.h **** *
 438:Generated_Source\PSoC6\pdl\drivers/peripheral/ipc/cy_ipc_drv.h **** * \param ipcIndex
 439:Generated_Source\PSoC6\pdl\drivers/peripheral/ipc/cy_ipc_drv.h **** * Represents the number of IPC structure. This is converted to the base address of
 440:Generated_Source\PSoC6\pdl\drivers/peripheral/ipc/cy_ipc_drv.h **** * the IPC channel registers.
 441:Generated_Source\PSoC6\pdl\drivers/peripheral/ipc/cy_ipc_drv.h **** *
 442:Generated_Source\PSoC6\pdl\drivers/peripheral/ipc/cy_ipc_drv.h **** * \return
 443:Generated_Source\PSoC6\pdl\drivers/peripheral/ipc/cy_ipc_drv.h **** * Returns a pointer to the base of the IPC registers.
 444:Generated_Source\PSoC6\pdl\drivers/peripheral/ipc/cy_ipc_drv.h **** *
 445:Generated_Source\PSoC6\pdl\drivers/peripheral/ipc/cy_ipc_drv.h **** * \funcusage
 446:Generated_Source\PSoC6\pdl\drivers/peripheral/ipc/cy_ipc_drv.h **** * \snippet IPC_sut_01.cydsn/main_cm4.c snippet_Cy_IPC_Drv_SendMsgWord
 447:Generated_Source\PSoC6\pdl\drivers/peripheral/ipc/cy_ipc_drv.h **** *
 448:Generated_Source\PSoC6\pdl\drivers/peripheral/ipc/cy_ipc_drv.h **** *******************************************************************************/
 449:Generated_Source\PSoC6\pdl\drivers/peripheral/ipc/cy_ipc_drv.h **** __STATIC_INLINE IPC_STRUCT_Type* Cy_IPC_Drv_GetIpcBaseAddress (uint32_t ipcIndex)
 450:Generated_Source\PSoC6\pdl\drivers/peripheral/ipc/cy_ipc_drv.h **** {
 451:Generated_Source\PSoC6\pdl\drivers/peripheral/ipc/cy_ipc_drv.h ****     CY_ASSERT_L1(CY_IPC_CHANNELS > ipcIndex);
 452:Generated_Source\PSoC6\pdl\drivers/peripheral/ipc/cy_ipc_drv.h ****     return ( (IPC_STRUCT_Type*) CY_IPC_STRUCT_PTR(ipcIndex));
ARM GAS  C:\Users\pearlstl\AppData\Local\Temp\ccJc8F9F.s 			page 21


 138              		.loc 2 452 0
 139 006e 0A4B     		ldr	r3, .L20
 140 0070 1A68     		ldr	r2, [r3]
 141 0072 B2F8B010 		ldrh	r1, [r2, #176]
 142 0076 136A     		ldr	r3, [r2, #32]
 143 0078 03EB8103 		add	r3, r3, r1, lsl #2
 144              	.LVL6:
 145              	.LBE108:
 146              	.LBE107:
 147              	.LBB109:
 148              	.LBB110:
 453:Generated_Source\PSoC6\pdl\drivers/peripheral/ipc/cy_ipc_drv.h **** }
 454:Generated_Source\PSoC6\pdl\drivers/peripheral/ipc/cy_ipc_drv.h **** 
 455:Generated_Source\PSoC6\pdl\drivers/peripheral/ipc/cy_ipc_drv.h **** 
 456:Generated_Source\PSoC6\pdl\drivers/peripheral/ipc/cy_ipc_drv.h **** /*******************************************************************************
 457:Generated_Source\PSoC6\pdl\drivers/peripheral/ipc/cy_ipc_drv.h **** * Function Name: Cy_IPC_Drv_GetIntrBaseAddr
 458:Generated_Source\PSoC6\pdl\drivers/peripheral/ipc/cy_ipc_drv.h **** ****************************************************************************//**
 459:Generated_Source\PSoC6\pdl\drivers/peripheral/ipc/cy_ipc_drv.h **** *
 460:Generated_Source\PSoC6\pdl\drivers/peripheral/ipc/cy_ipc_drv.h **** * This function takes an IPC interrupt structure index and returns the base
 461:Generated_Source\PSoC6\pdl\drivers/peripheral/ipc/cy_ipc_drv.h **** * address of the IPC interrupt registers corresponding to the IPC Interrupt.
 462:Generated_Source\PSoC6\pdl\drivers/peripheral/ipc/cy_ipc_drv.h **** *
 463:Generated_Source\PSoC6\pdl\drivers/peripheral/ipc/cy_ipc_drv.h **** * \note The user is responsible for ensuring that ipcIntrIndex does not exceed the
 464:Generated_Source\PSoC6\pdl\drivers/peripheral/ipc/cy_ipc_drv.h **** * limits.
 465:Generated_Source\PSoC6\pdl\drivers/peripheral/ipc/cy_ipc_drv.h **** *
 466:Generated_Source\PSoC6\pdl\drivers/peripheral/ipc/cy_ipc_drv.h **** * \param ipcIntrIndex
 467:Generated_Source\PSoC6\pdl\drivers/peripheral/ipc/cy_ipc_drv.h **** * Represents the number of IPC interrupt structure. This is converted to the
 468:Generated_Source\PSoC6\pdl\drivers/peripheral/ipc/cy_ipc_drv.h **** * base address of the IPC interrupt registers.
 469:Generated_Source\PSoC6\pdl\drivers/peripheral/ipc/cy_ipc_drv.h **** *
 470:Generated_Source\PSoC6\pdl\drivers/peripheral/ipc/cy_ipc_drv.h **** * \return
 471:Generated_Source\PSoC6\pdl\drivers/peripheral/ipc/cy_ipc_drv.h **** * Returns a pointer to the base of the IPC interrupt registers.
 472:Generated_Source\PSoC6\pdl\drivers/peripheral/ipc/cy_ipc_drv.h **** *
 473:Generated_Source\PSoC6\pdl\drivers/peripheral/ipc/cy_ipc_drv.h **** * \funcusage
 474:Generated_Source\PSoC6\pdl\drivers/peripheral/ipc/cy_ipc_drv.h **** * \snippet IPC_sut_01.cydsn/main_cm4.c snippet_Cy_IPC_Drv_GetInterruptStatus
 475:Generated_Source\PSoC6\pdl\drivers/peripheral/ipc/cy_ipc_drv.h **** *
 476:Generated_Source\PSoC6\pdl\drivers/peripheral/ipc/cy_ipc_drv.h **** *******************************************************************************/
 477:Generated_Source\PSoC6\pdl\drivers/peripheral/ipc/cy_ipc_drv.h **** __STATIC_INLINE IPC_INTR_STRUCT_Type* Cy_IPC_Drv_GetIntrBaseAddr (uint32_t ipcIntrIndex)
 478:Generated_Source\PSoC6\pdl\drivers/peripheral/ipc/cy_ipc_drv.h **** {
 479:Generated_Source\PSoC6\pdl\drivers/peripheral/ipc/cy_ipc_drv.h ****     CY_ASSERT_L1(CY_IPC_INTERRUPTS > ipcIntrIndex);
 480:Generated_Source\PSoC6\pdl\drivers/peripheral/ipc/cy_ipc_drv.h ****     return ( (IPC_INTR_STRUCT_Type*) &(((IPC_Type *)cy_device->ipcBase)->INTR_STRUCT[ipcIntrIndex])
 481:Generated_Source\PSoC6\pdl\drivers/peripheral/ipc/cy_ipc_drv.h **** }
 482:Generated_Source\PSoC6\pdl\drivers/peripheral/ipc/cy_ipc_drv.h **** 
 483:Generated_Source\PSoC6\pdl\drivers/peripheral/ipc/cy_ipc_drv.h **** 
 484:Generated_Source\PSoC6\pdl\drivers/peripheral/ipc/cy_ipc_drv.h **** /*******************************************************************************
 485:Generated_Source\PSoC6\pdl\drivers/peripheral/ipc/cy_ipc_drv.h **** * Function Name: Cy_IPC_Drv_SetInterruptMask
 486:Generated_Source\PSoC6\pdl\drivers/peripheral/ipc/cy_ipc_drv.h **** ****************************************************************************//**
 487:Generated_Source\PSoC6\pdl\drivers/peripheral/ipc/cy_ipc_drv.h **** *
 488:Generated_Source\PSoC6\pdl\drivers/peripheral/ipc/cy_ipc_drv.h **** * This function is used to set the interrupt mask for an IPC Interrupt.
 489:Generated_Source\PSoC6\pdl\drivers/peripheral/ipc/cy_ipc_drv.h **** * The mask sets release or acquire notification events for all IPC channels.
 490:Generated_Source\PSoC6\pdl\drivers/peripheral/ipc/cy_ipc_drv.h **** *
 491:Generated_Source\PSoC6\pdl\drivers/peripheral/ipc/cy_ipc_drv.h **** * \param base
 492:Generated_Source\PSoC6\pdl\drivers/peripheral/ipc/cy_ipc_drv.h **** * This is a handle to the IPC interrupt. This handle can be calculated from the
 493:Generated_Source\PSoC6\pdl\drivers/peripheral/ipc/cy_ipc_drv.h **** * IPC interrupt number using \ref Cy_IPC_Drv_GetIntrBaseAddr.
 494:Generated_Source\PSoC6\pdl\drivers/peripheral/ipc/cy_ipc_drv.h **** *
 495:Generated_Source\PSoC6\pdl\drivers/peripheral/ipc/cy_ipc_drv.h **** * \param ipcReleaseMask
 496:Generated_Source\PSoC6\pdl\drivers/peripheral/ipc/cy_ipc_drv.h **** * An encoded list of all IPC channels that can trigger the interrupt on a
 497:Generated_Source\PSoC6\pdl\drivers/peripheral/ipc/cy_ipc_drv.h **** * release event.
 498:Generated_Source\PSoC6\pdl\drivers/peripheral/ipc/cy_ipc_drv.h **** *
ARM GAS  C:\Users\pearlstl\AppData\Local\Temp\ccJc8F9F.s 			page 22


 499:Generated_Source\PSoC6\pdl\drivers/peripheral/ipc/cy_ipc_drv.h **** * \param ipcAcquireMask
 500:Generated_Source\PSoC6\pdl\drivers/peripheral/ipc/cy_ipc_drv.h **** * An encoded list of all IPC channels that can trigger the interrupt on a
 501:Generated_Source\PSoC6\pdl\drivers/peripheral/ipc/cy_ipc_drv.h **** * notify event.
 502:Generated_Source\PSoC6\pdl\drivers/peripheral/ipc/cy_ipc_drv.h **** *
 503:Generated_Source\PSoC6\pdl\drivers/peripheral/ipc/cy_ipc_drv.h **** * \funcusage
 504:Generated_Source\PSoC6\pdl\drivers/peripheral/ipc/cy_ipc_drv.h **** * \snippet IPC_sut_01.cydsn/main_cm4.c snippet_Cy_IPC_Drv_GetInterruptStatusMasked
 505:Generated_Source\PSoC6\pdl\drivers/peripheral/ipc/cy_ipc_drv.h **** *
 506:Generated_Source\PSoC6\pdl\drivers/peripheral/ipc/cy_ipc_drv.h **** *******************************************************************************/
 507:Generated_Source\PSoC6\pdl\drivers/peripheral/ipc/cy_ipc_drv.h **** __STATIC_INLINE void  Cy_IPC_Drv_SetInterruptMask (IPC_INTR_STRUCT_Type* base,
 508:Generated_Source\PSoC6\pdl\drivers/peripheral/ipc/cy_ipc_drv.h ****                                               uint32_t ipcReleaseMask, uint32_t ipcAcquireMask)
 509:Generated_Source\PSoC6\pdl\drivers/peripheral/ipc/cy_ipc_drv.h **** {
 510:Generated_Source\PSoC6\pdl\drivers/peripheral/ipc/cy_ipc_drv.h ****     CY_ASSERT_L1(0ul == (ipcAcquireMask & ~(uint32_t)(IPC_STRUCT_NOTIFY_INTR_NOTIFY_Msk)));
 511:Generated_Source\PSoC6\pdl\drivers/peripheral/ipc/cy_ipc_drv.h ****     CY_ASSERT_L1(0ul == (ipcReleaseMask & ~(uint32_t)(IPC_STRUCT_RELEASE_INTR_RELEASE_Msk)));
 512:Generated_Source\PSoC6\pdl\drivers/peripheral/ipc/cy_ipc_drv.h ****     REG_IPC_INTR_STRUCT_INTR_MASK(base) = _VAL2FLD( IPC_INTR_STRUCT_INTR_MASK_NOTIFY,  ipcAcquireMa
 513:Generated_Source\PSoC6\pdl\drivers/peripheral/ipc/cy_ipc_drv.h ****                       _VAL2FLD( IPC_INTR_STRUCT_INTR_MASK_RELEASE, ipcReleaseMask);
 514:Generated_Source\PSoC6\pdl\drivers/peripheral/ipc/cy_ipc_drv.h **** }
 515:Generated_Source\PSoC6\pdl\drivers/peripheral/ipc/cy_ipc_drv.h **** 
 516:Generated_Source\PSoC6\pdl\drivers/peripheral/ipc/cy_ipc_drv.h **** 
 517:Generated_Source\PSoC6\pdl\drivers/peripheral/ipc/cy_ipc_drv.h **** /*******************************************************************************
 518:Generated_Source\PSoC6\pdl\drivers/peripheral/ipc/cy_ipc_drv.h **** * Function Name: Cy_IPC_Drv_GetInterruptMask
 519:Generated_Source\PSoC6\pdl\drivers/peripheral/ipc/cy_ipc_drv.h **** ****************************************************************************//**
 520:Generated_Source\PSoC6\pdl\drivers/peripheral/ipc/cy_ipc_drv.h **** *
 521:Generated_Source\PSoC6\pdl\drivers/peripheral/ipc/cy_ipc_drv.h **** * This function is used to read the interrupt mask.
 522:Generated_Source\PSoC6\pdl\drivers/peripheral/ipc/cy_ipc_drv.h **** *
 523:Generated_Source\PSoC6\pdl\drivers/peripheral/ipc/cy_ipc_drv.h **** * \param base
 524:Generated_Source\PSoC6\pdl\drivers/peripheral/ipc/cy_ipc_drv.h **** * This is a handle to the IPC interrupt. This handle can be calculated from
 525:Generated_Source\PSoC6\pdl\drivers/peripheral/ipc/cy_ipc_drv.h **** * the IPC interrupt number using \ref Cy_IPC_Drv_GetIntrBaseAddr.
 526:Generated_Source\PSoC6\pdl\drivers/peripheral/ipc/cy_ipc_drv.h **** *
 527:Generated_Source\PSoC6\pdl\drivers/peripheral/ipc/cy_ipc_drv.h **** * \return
 528:Generated_Source\PSoC6\pdl\drivers/peripheral/ipc/cy_ipc_drv.h **** *   The return value is encoded as follows
 529:Generated_Source\PSoC6\pdl\drivers/peripheral/ipc/cy_ipc_drv.h **** *   <table>
 530:Generated_Source\PSoC6\pdl\drivers/peripheral/ipc/cy_ipc_drv.h **** *   <tr><th>Interrupt sources   <th>Value
 531:Generated_Source\PSoC6\pdl\drivers/peripheral/ipc/cy_ipc_drv.h **** *   <tr><td>Ipc_PORTX_RELEASE   <td>Xth bit set
 532:Generated_Source\PSoC6\pdl\drivers/peripheral/ipc/cy_ipc_drv.h **** *   <tr><td>Ipc_PORTX_NOTIFY    <td>X+16th bit set
 533:Generated_Source\PSoC6\pdl\drivers/peripheral/ipc/cy_ipc_drv.h **** *   </table>
 534:Generated_Source\PSoC6\pdl\drivers/peripheral/ipc/cy_ipc_drv.h **** *
 535:Generated_Source\PSoC6\pdl\drivers/peripheral/ipc/cy_ipc_drv.h **** * \funcusage
 536:Generated_Source\PSoC6\pdl\drivers/peripheral/ipc/cy_ipc_drv.h **** * \snippet IPC_sut_01.cydsn/main_cm4.c snippet_Cy_IPC_Drv_GetInterruptStatusMasked
 537:Generated_Source\PSoC6\pdl\drivers/peripheral/ipc/cy_ipc_drv.h **** *
 538:Generated_Source\PSoC6\pdl\drivers/peripheral/ipc/cy_ipc_drv.h **** *******************************************************************************/
 539:Generated_Source\PSoC6\pdl\drivers/peripheral/ipc/cy_ipc_drv.h **** __STATIC_INLINE uint32_t Cy_IPC_Drv_GetInterruptMask(IPC_INTR_STRUCT_Type const * base)
 540:Generated_Source\PSoC6\pdl\drivers/peripheral/ipc/cy_ipc_drv.h **** {
 541:Generated_Source\PSoC6\pdl\drivers/peripheral/ipc/cy_ipc_drv.h ****     return REG_IPC_INTR_STRUCT_INTR_MASK(base);
 542:Generated_Source\PSoC6\pdl\drivers/peripheral/ipc/cy_ipc_drv.h **** }
 543:Generated_Source\PSoC6\pdl\drivers/peripheral/ipc/cy_ipc_drv.h **** 
 544:Generated_Source\PSoC6\pdl\drivers/peripheral/ipc/cy_ipc_drv.h **** 
 545:Generated_Source\PSoC6\pdl\drivers/peripheral/ipc/cy_ipc_drv.h **** /*******************************************************************************
 546:Generated_Source\PSoC6\pdl\drivers/peripheral/ipc/cy_ipc_drv.h **** * Function Name: Cy_IPC_Drv_GetInterruptStatusMasked
 547:Generated_Source\PSoC6\pdl\drivers/peripheral/ipc/cy_ipc_drv.h **** ****************************************************************************//**
 548:Generated_Source\PSoC6\pdl\drivers/peripheral/ipc/cy_ipc_drv.h **** *
 549:Generated_Source\PSoC6\pdl\drivers/peripheral/ipc/cy_ipc_drv.h **** * This function is used to read the active unmasked interrupt. This function
 550:Generated_Source\PSoC6\pdl\drivers/peripheral/ipc/cy_ipc_drv.h **** * can be used in the interrupt service routine to find which source triggered
 551:Generated_Source\PSoC6\pdl\drivers/peripheral/ipc/cy_ipc_drv.h **** * the interrupt.
 552:Generated_Source\PSoC6\pdl\drivers/peripheral/ipc/cy_ipc_drv.h **** *
 553:Generated_Source\PSoC6\pdl\drivers/peripheral/ipc/cy_ipc_drv.h **** * \param base
 554:Generated_Source\PSoC6\pdl\drivers/peripheral/ipc/cy_ipc_drv.h **** * This is a handle to the IPC interrupt. This handle can be calculated from the
 555:Generated_Source\PSoC6\pdl\drivers/peripheral/ipc/cy_ipc_drv.h **** * IPC interrupt number using \ref Cy_IPC_Drv_GetIntrBaseAddr.
ARM GAS  C:\Users\pearlstl\AppData\Local\Temp\ccJc8F9F.s 			page 23


 556:Generated_Source\PSoC6\pdl\drivers/peripheral/ipc/cy_ipc_drv.h **** *
 557:Generated_Source\PSoC6\pdl\drivers/peripheral/ipc/cy_ipc_drv.h **** * \return
 558:Generated_Source\PSoC6\pdl\drivers/peripheral/ipc/cy_ipc_drv.h **** *   The return value is encoded as follows
 559:Generated_Source\PSoC6\pdl\drivers/peripheral/ipc/cy_ipc_drv.h **** *   <table>
 560:Generated_Source\PSoC6\pdl\drivers/peripheral/ipc/cy_ipc_drv.h **** *   <tr><th>Interrupt sources   <th>Value
 561:Generated_Source\PSoC6\pdl\drivers/peripheral/ipc/cy_ipc_drv.h **** *   <tr><td>Ipc_PORTX_RELEASE   <td>Xth bit set
 562:Generated_Source\PSoC6\pdl\drivers/peripheral/ipc/cy_ipc_drv.h **** *   <tr><td>Ipc_PORTX_NOTIFY    <td>X+16th bit set
 563:Generated_Source\PSoC6\pdl\drivers/peripheral/ipc/cy_ipc_drv.h **** *   </table>
 564:Generated_Source\PSoC6\pdl\drivers/peripheral/ipc/cy_ipc_drv.h **** *
 565:Generated_Source\PSoC6\pdl\drivers/peripheral/ipc/cy_ipc_drv.h **** * \funcusage
 566:Generated_Source\PSoC6\pdl\drivers/peripheral/ipc/cy_ipc_drv.h **** * \snippet IPC_sut_01.cydsn/main_cm4.c snippet_Cy_IPC_Drv_GetInterruptStatusMasked
 567:Generated_Source\PSoC6\pdl\drivers/peripheral/ipc/cy_ipc_drv.h **** *
 568:Generated_Source\PSoC6\pdl\drivers/peripheral/ipc/cy_ipc_drv.h **** *******************************************************************************/
 569:Generated_Source\PSoC6\pdl\drivers/peripheral/ipc/cy_ipc_drv.h **** __STATIC_INLINE uint32_t Cy_IPC_Drv_GetInterruptStatusMasked (IPC_INTR_STRUCT_Type const * base)
 570:Generated_Source\PSoC6\pdl\drivers/peripheral/ipc/cy_ipc_drv.h **** {
 571:Generated_Source\PSoC6\pdl\drivers/peripheral/ipc/cy_ipc_drv.h ****     return REG_IPC_INTR_STRUCT_INTR_MASKED(base);
 572:Generated_Source\PSoC6\pdl\drivers/peripheral/ipc/cy_ipc_drv.h **** }
 573:Generated_Source\PSoC6\pdl\drivers/peripheral/ipc/cy_ipc_drv.h **** 
 574:Generated_Source\PSoC6\pdl\drivers/peripheral/ipc/cy_ipc_drv.h **** 
 575:Generated_Source\PSoC6\pdl\drivers/peripheral/ipc/cy_ipc_drv.h **** /*******************************************************************************
 576:Generated_Source\PSoC6\pdl\drivers/peripheral/ipc/cy_ipc_drv.h **** * Function Name: Cy_IPC_Drv_GetInterruptStatus
 577:Generated_Source\PSoC6\pdl\drivers/peripheral/ipc/cy_ipc_drv.h **** ****************************************************************************//**
 578:Generated_Source\PSoC6\pdl\drivers/peripheral/ipc/cy_ipc_drv.h **** *
 579:Generated_Source\PSoC6\pdl\drivers/peripheral/ipc/cy_ipc_drv.h **** * This function is used to read the pending interrupts. Note that this read is
 580:Generated_Source\PSoC6\pdl\drivers/peripheral/ipc/cy_ipc_drv.h **** * an unmasked read of the interrupt status. Interrupt sources read as active by
 581:Generated_Source\PSoC6\pdl\drivers/peripheral/ipc/cy_ipc_drv.h **** * this function would generate interrupts only if they were not masked.
 582:Generated_Source\PSoC6\pdl\drivers/peripheral/ipc/cy_ipc_drv.h **** *
 583:Generated_Source\PSoC6\pdl\drivers/peripheral/ipc/cy_ipc_drv.h **** * \param base
 584:Generated_Source\PSoC6\pdl\drivers/peripheral/ipc/cy_ipc_drv.h **** * This is a handle to the IPC interrupt. This handle can be calculated from the
 585:Generated_Source\PSoC6\pdl\drivers/peripheral/ipc/cy_ipc_drv.h **** * IPC interrupt number using \ref Cy_IPC_Drv_GetIntrBaseAddr.
 586:Generated_Source\PSoC6\pdl\drivers/peripheral/ipc/cy_ipc_drv.h **** *
 587:Generated_Source\PSoC6\pdl\drivers/peripheral/ipc/cy_ipc_drv.h **** * \return
 588:Generated_Source\PSoC6\pdl\drivers/peripheral/ipc/cy_ipc_drv.h **** *   The return value is encoded as follows
 589:Generated_Source\PSoC6\pdl\drivers/peripheral/ipc/cy_ipc_drv.h **** *   <table>
 590:Generated_Source\PSoC6\pdl\drivers/peripheral/ipc/cy_ipc_drv.h **** *   <tr><th>Interrupt sources   <th>Value
 591:Generated_Source\PSoC6\pdl\drivers/peripheral/ipc/cy_ipc_drv.h **** *   <tr><td>Ipc_PORTX_RELEASE   <td>Xth bit set
 592:Generated_Source\PSoC6\pdl\drivers/peripheral/ipc/cy_ipc_drv.h **** *   <tr><td>Ipc_PORTX_NOTIFY    <td>X+16th bit set
 593:Generated_Source\PSoC6\pdl\drivers/peripheral/ipc/cy_ipc_drv.h **** *   </table>
 594:Generated_Source\PSoC6\pdl\drivers/peripheral/ipc/cy_ipc_drv.h **** *
 595:Generated_Source\PSoC6\pdl\drivers/peripheral/ipc/cy_ipc_drv.h **** * \funcusage
 596:Generated_Source\PSoC6\pdl\drivers/peripheral/ipc/cy_ipc_drv.h **** * \snippet IPC_sut_01.cydsn/main_cm4.c snippet_Cy_IPC_Drv_GetInterruptStatus
 597:Generated_Source\PSoC6\pdl\drivers/peripheral/ipc/cy_ipc_drv.h **** *
 598:Generated_Source\PSoC6\pdl\drivers/peripheral/ipc/cy_ipc_drv.h **** *******************************************************************************/
 599:Generated_Source\PSoC6\pdl\drivers/peripheral/ipc/cy_ipc_drv.h **** __STATIC_INLINE uint32_t Cy_IPC_Drv_GetInterruptStatus(IPC_INTR_STRUCT_Type const * base)
 600:Generated_Source\PSoC6\pdl\drivers/peripheral/ipc/cy_ipc_drv.h **** {
 601:Generated_Source\PSoC6\pdl\drivers/peripheral/ipc/cy_ipc_drv.h ****     return REG_IPC_INTR_STRUCT_INTR(base);
 602:Generated_Source\PSoC6\pdl\drivers/peripheral/ipc/cy_ipc_drv.h **** }
 603:Generated_Source\PSoC6\pdl\drivers/peripheral/ipc/cy_ipc_drv.h **** 
 604:Generated_Source\PSoC6\pdl\drivers/peripheral/ipc/cy_ipc_drv.h **** 
 605:Generated_Source\PSoC6\pdl\drivers/peripheral/ipc/cy_ipc_drv.h **** /*******************************************************************************
 606:Generated_Source\PSoC6\pdl\drivers/peripheral/ipc/cy_ipc_drv.h **** * Function Name: Cy_IPC_Drv_SetInterrupt
 607:Generated_Source\PSoC6\pdl\drivers/peripheral/ipc/cy_ipc_drv.h **** ****************************************************************************//**
 608:Generated_Source\PSoC6\pdl\drivers/peripheral/ipc/cy_ipc_drv.h **** *
 609:Generated_Source\PSoC6\pdl\drivers/peripheral/ipc/cy_ipc_drv.h **** * This function is used to set the interrupt source. This function can be used
 610:Generated_Source\PSoC6\pdl\drivers/peripheral/ipc/cy_ipc_drv.h **** * to activate interrupts through software.
 611:Generated_Source\PSoC6\pdl\drivers/peripheral/ipc/cy_ipc_drv.h **** * \note That interrupt sources set using this interrupt would generate interrupts
 612:Generated_Source\PSoC6\pdl\drivers/peripheral/ipc/cy_ipc_drv.h **** * only if they are not masked.
ARM GAS  C:\Users\pearlstl\AppData\Local\Temp\ccJc8F9F.s 			page 24


 613:Generated_Source\PSoC6\pdl\drivers/peripheral/ipc/cy_ipc_drv.h **** *
 614:Generated_Source\PSoC6\pdl\drivers/peripheral/ipc/cy_ipc_drv.h **** * \param base
 615:Generated_Source\PSoC6\pdl\drivers/peripheral/ipc/cy_ipc_drv.h **** * This is a handle to the IPC interrupt. This handle can be calculated from the
 616:Generated_Source\PSoC6\pdl\drivers/peripheral/ipc/cy_ipc_drv.h **** * IPC interrupt number using \ref Cy_IPC_Drv_GetIntrBaseAddr.
 617:Generated_Source\PSoC6\pdl\drivers/peripheral/ipc/cy_ipc_drv.h **** *
 618:Generated_Source\PSoC6\pdl\drivers/peripheral/ipc/cy_ipc_drv.h **** * \param ipcReleaseMask
 619:Generated_Source\PSoC6\pdl\drivers/peripheral/ipc/cy_ipc_drv.h **** * An encoded list of all IPC channels that can trigger the interrupt on a
 620:Generated_Source\PSoC6\pdl\drivers/peripheral/ipc/cy_ipc_drv.h **** * release event.
 621:Generated_Source\PSoC6\pdl\drivers/peripheral/ipc/cy_ipc_drv.h **** *
 622:Generated_Source\PSoC6\pdl\drivers/peripheral/ipc/cy_ipc_drv.h **** * \param ipcAcquireMask
 623:Generated_Source\PSoC6\pdl\drivers/peripheral/ipc/cy_ipc_drv.h **** * An encoded list of all IPC channels that can trigger the interrupt on a
 624:Generated_Source\PSoC6\pdl\drivers/peripheral/ipc/cy_ipc_drv.h **** * notify event.
 625:Generated_Source\PSoC6\pdl\drivers/peripheral/ipc/cy_ipc_drv.h **** *
 626:Generated_Source\PSoC6\pdl\drivers/peripheral/ipc/cy_ipc_drv.h **** * \funcusage
 627:Generated_Source\PSoC6\pdl\drivers/peripheral/ipc/cy_ipc_drv.h **** * \snippet IPC_sut_01.cydsn/main_cm4.c snippet_Cy_IPC_Drv_SetInterrupt
 628:Generated_Source\PSoC6\pdl\drivers/peripheral/ipc/cy_ipc_drv.h **** *
 629:Generated_Source\PSoC6\pdl\drivers/peripheral/ipc/cy_ipc_drv.h **** *******************************************************************************/
 630:Generated_Source\PSoC6\pdl\drivers/peripheral/ipc/cy_ipc_drv.h **** __STATIC_INLINE void  Cy_IPC_Drv_SetInterrupt(IPC_INTR_STRUCT_Type* base, uint32_t ipcReleaseMask, 
 631:Generated_Source\PSoC6\pdl\drivers/peripheral/ipc/cy_ipc_drv.h **** {
 632:Generated_Source\PSoC6\pdl\drivers/peripheral/ipc/cy_ipc_drv.h ****     CY_ASSERT_L1(0ul == (ipcAcquireMask  & ~(uint32_t)(IPC_STRUCT_NOTIFY_INTR_NOTIFY_Msk)));
 633:Generated_Source\PSoC6\pdl\drivers/peripheral/ipc/cy_ipc_drv.h ****     CY_ASSERT_L1(0ul == (ipcReleaseMask & ~(uint32_t)(IPC_STRUCT_RELEASE_INTR_RELEASE_Msk)));
 634:Generated_Source\PSoC6\pdl\drivers/peripheral/ipc/cy_ipc_drv.h ****     REG_IPC_INTR_STRUCT_INTR_SET(base) =  _VAL2FLD( IPC_INTR_STRUCT_INTR_NOTIFY,  ipcAcquireMask ) 
 635:Generated_Source\PSoC6\pdl\drivers/peripheral/ipc/cy_ipc_drv.h ****                       _VAL2FLD( IPC_INTR_STRUCT_INTR_RELEASE, ipcReleaseMask );
 636:Generated_Source\PSoC6\pdl\drivers/peripheral/ipc/cy_ipc_drv.h **** }
 637:Generated_Source\PSoC6\pdl\drivers/peripheral/ipc/cy_ipc_drv.h **** 
 638:Generated_Source\PSoC6\pdl\drivers/peripheral/ipc/cy_ipc_drv.h **** 
 639:Generated_Source\PSoC6\pdl\drivers/peripheral/ipc/cy_ipc_drv.h **** /*******************************************************************************
 640:Generated_Source\PSoC6\pdl\drivers/peripheral/ipc/cy_ipc_drv.h **** * Function Name: Cy_IPC_Drv_ClearInterrupt
 641:Generated_Source\PSoC6\pdl\drivers/peripheral/ipc/cy_ipc_drv.h **** ****************************************************************************//**
 642:Generated_Source\PSoC6\pdl\drivers/peripheral/ipc/cy_ipc_drv.h **** *
 643:Generated_Source\PSoC6\pdl\drivers/peripheral/ipc/cy_ipc_drv.h **** * This function is used to clear the interrupt source. Use this function to clear
 644:Generated_Source\PSoC6\pdl\drivers/peripheral/ipc/cy_ipc_drv.h **** * a pending interrupt source in the interrupt status.
 645:Generated_Source\PSoC6\pdl\drivers/peripheral/ipc/cy_ipc_drv.h **** *
 646:Generated_Source\PSoC6\pdl\drivers/peripheral/ipc/cy_ipc_drv.h **** * \param base
 647:Generated_Source\PSoC6\pdl\drivers/peripheral/ipc/cy_ipc_drv.h **** * This is a handle to the IPC interrupt. This handle can be calculated from the
 648:Generated_Source\PSoC6\pdl\drivers/peripheral/ipc/cy_ipc_drv.h **** * IPC interrupt number using \ref Cy_IPC_Drv_GetIntrBaseAddr.
 649:Generated_Source\PSoC6\pdl\drivers/peripheral/ipc/cy_ipc_drv.h **** *
 650:Generated_Source\PSoC6\pdl\drivers/peripheral/ipc/cy_ipc_drv.h **** * \param ipcReleaseMask
 651:Generated_Source\PSoC6\pdl\drivers/peripheral/ipc/cy_ipc_drv.h **** * An encoded list of all IPC channels that can trigger the interrupt on a
 652:Generated_Source\PSoC6\pdl\drivers/peripheral/ipc/cy_ipc_drv.h **** * release event.
 653:Generated_Source\PSoC6\pdl\drivers/peripheral/ipc/cy_ipc_drv.h **** *
 654:Generated_Source\PSoC6\pdl\drivers/peripheral/ipc/cy_ipc_drv.h **** * \param ipcAcquireMask
 655:Generated_Source\PSoC6\pdl\drivers/peripheral/ipc/cy_ipc_drv.h **** * An encoded list of all IPC channels that can trigger the interrupt on a
 656:Generated_Source\PSoC6\pdl\drivers/peripheral/ipc/cy_ipc_drv.h **** * notify event.
 657:Generated_Source\PSoC6\pdl\drivers/peripheral/ipc/cy_ipc_drv.h **** *
 658:Generated_Source\PSoC6\pdl\drivers/peripheral/ipc/cy_ipc_drv.h **** * \funcusage
 659:Generated_Source\PSoC6\pdl\drivers/peripheral/ipc/cy_ipc_drv.h **** * \snippet IPC_sut_01.cydsn/main_cm4.c snippet_Cy_IPC_Drv_GetInterruptStatusMasked
 660:Generated_Source\PSoC6\pdl\drivers/peripheral/ipc/cy_ipc_drv.h **** *
 661:Generated_Source\PSoC6\pdl\drivers/peripheral/ipc/cy_ipc_drv.h **** *******************************************************************************/
 662:Generated_Source\PSoC6\pdl\drivers/peripheral/ipc/cy_ipc_drv.h **** __STATIC_INLINE void  Cy_IPC_Drv_ClearInterrupt(IPC_INTR_STRUCT_Type* base, uint32_t ipcReleaseMask
 663:Generated_Source\PSoC6\pdl\drivers/peripheral/ipc/cy_ipc_drv.h **** {
 664:Generated_Source\PSoC6\pdl\drivers/peripheral/ipc/cy_ipc_drv.h ****     CY_ASSERT_L1(0ul == (ipcAcquireMask  & ~(uint32_t)(IPC_STRUCT_NOTIFY_INTR_NOTIFY_Msk)));
 665:Generated_Source\PSoC6\pdl\drivers/peripheral/ipc/cy_ipc_drv.h ****     CY_ASSERT_L1(0ul == (ipcReleaseMask & ~(uint32_t)(IPC_STRUCT_RELEASE_INTR_RELEASE_Msk)));
 666:Generated_Source\PSoC6\pdl\drivers/peripheral/ipc/cy_ipc_drv.h ****     REG_IPC_INTR_STRUCT_INTR(base) =  _VAL2FLD(IPC_INTR_STRUCT_INTR_NOTIFY,  ipcAcquireMask) |
 667:Generated_Source\PSoC6\pdl\drivers/peripheral/ipc/cy_ipc_drv.h ****                   _VAL2FLD(IPC_INTR_STRUCT_INTR_RELEASE, ipcReleaseMask);
 668:Generated_Source\PSoC6\pdl\drivers/peripheral/ipc/cy_ipc_drv.h ****     (void)REG_IPC_INTR_STRUCT_INTR(base);  /* Read the register to flush the cache */
 669:Generated_Source\PSoC6\pdl\drivers/peripheral/ipc/cy_ipc_drv.h **** }
ARM GAS  C:\Users\pearlstl\AppData\Local\Temp\ccJc8F9F.s 			page 25


 670:Generated_Source\PSoC6\pdl\drivers/peripheral/ipc/cy_ipc_drv.h **** 
 671:Generated_Source\PSoC6\pdl\drivers/peripheral/ipc/cy_ipc_drv.h **** /** \} group_ipc_functions */
 672:Generated_Source\PSoC6\pdl\drivers/peripheral/ipc/cy_ipc_drv.h **** 
 673:Generated_Source\PSoC6\pdl\drivers/peripheral/ipc/cy_ipc_drv.h **** /** \} group_ipc */
 674:Generated_Source\PSoC6\pdl\drivers/peripheral/ipc/cy_ipc_drv.h **** 
 675:Generated_Source\PSoC6\pdl\drivers/peripheral/ipc/cy_ipc_drv.h **** 
 676:Generated_Source\PSoC6\pdl\drivers/peripheral/ipc/cy_ipc_drv.h **** /*******************************************************************************
 677:Generated_Source\PSoC6\pdl\drivers/peripheral/ipc/cy_ipc_drv.h **** * Function Name: Cy_IPC_Drv_AcquireNotify
 678:Generated_Source\PSoC6\pdl\drivers/peripheral/ipc/cy_ipc_drv.h **** ****************************************************************************//**
 679:Generated_Source\PSoC6\pdl\drivers/peripheral/ipc/cy_ipc_drv.h **** *
 680:Generated_Source\PSoC6\pdl\drivers/peripheral/ipc/cy_ipc_drv.h **** * The function generates a acquire notification event by IPC interrupt structure.
 681:Generated_Source\PSoC6\pdl\drivers/peripheral/ipc/cy_ipc_drv.h **** *
 682:Generated_Source\PSoC6\pdl\drivers/peripheral/ipc/cy_ipc_drv.h **** * \param base
 683:Generated_Source\PSoC6\pdl\drivers/peripheral/ipc/cy_ipc_drv.h **** * This parameter is a handle that represents the base address of the registers
 684:Generated_Source\PSoC6\pdl\drivers/peripheral/ipc/cy_ipc_drv.h **** * of the IPC channel.
 685:Generated_Source\PSoC6\pdl\drivers/peripheral/ipc/cy_ipc_drv.h **** * The parameter is generally returned from a call to the \ref
 686:Generated_Source\PSoC6\pdl\drivers/peripheral/ipc/cy_ipc_drv.h **** * Cy_IPC_Drv_GetIpcBaseAddress.
 687:Generated_Source\PSoC6\pdl\drivers/peripheral/ipc/cy_ipc_drv.h **** *
 688:Generated_Source\PSoC6\pdl\drivers/peripheral/ipc/cy_ipc_drv.h **** * \param notifyEventIntr
 689:Generated_Source\PSoC6\pdl\drivers/peripheral/ipc/cy_ipc_drv.h **** * Bit encoded list of IPC interrupt structures that are triggered
 690:Generated_Source\PSoC6\pdl\drivers/peripheral/ipc/cy_ipc_drv.h **** * by a notification. Bit number correspond to number of the IPC interrupt
 691:Generated_Source\PSoC6\pdl\drivers/peripheral/ipc/cy_ipc_drv.h **** * structure.
 692:Generated_Source\PSoC6\pdl\drivers/peripheral/ipc/cy_ipc_drv.h **** *
 693:Generated_Source\PSoC6\pdl\drivers/peripheral/ipc/cy_ipc_drv.h **** * \funcusage
 694:Generated_Source\PSoC6\pdl\drivers/peripheral/ipc/cy_ipc_drv.h **** * \snippet IPC_sut_01.cydsn/main_cm4.c snippet_Cy_IPC_Drv_LockAcquire
 695:Generated_Source\PSoC6\pdl\drivers/peripheral/ipc/cy_ipc_drv.h **** *
 696:Generated_Source\PSoC6\pdl\drivers/peripheral/ipc/cy_ipc_drv.h **** *******************************************************************************/
 697:Generated_Source\PSoC6\pdl\drivers/peripheral/ipc/cy_ipc_drv.h **** __STATIC_INLINE void  Cy_IPC_Drv_AcquireNotify (IPC_STRUCT_Type* base, uint32_t notifyEventIntr)
 698:Generated_Source\PSoC6\pdl\drivers/peripheral/ipc/cy_ipc_drv.h **** {
 699:Generated_Source\PSoC6\pdl\drivers/peripheral/ipc/cy_ipc_drv.h ****     CY_ASSERT_L1(0ul == (notifyEventIntr  & ~(uint32_t)(IPC_STRUCT_NOTIFY_INTR_NOTIFY_Msk)));
 700:Generated_Source\PSoC6\pdl\drivers/peripheral/ipc/cy_ipc_drv.h ****     REG_IPC_STRUCT_NOTIFY(base) = _VAL2FLD(IPC_STRUCT_NOTIFY_INTR_NOTIFY, notifyEventIntr);
 701:Generated_Source\PSoC6\pdl\drivers/peripheral/ipc/cy_ipc_drv.h **** }
 702:Generated_Source\PSoC6\pdl\drivers/peripheral/ipc/cy_ipc_drv.h **** 
 703:Generated_Source\PSoC6\pdl\drivers/peripheral/ipc/cy_ipc_drv.h **** 
 704:Generated_Source\PSoC6\pdl\drivers/peripheral/ipc/cy_ipc_drv.h **** /*******************************************************************************
 705:Generated_Source\PSoC6\pdl\drivers/peripheral/ipc/cy_ipc_drv.h **** * Function Name: Cy_IPC_Drv_ReleaseNotify
 706:Generated_Source\PSoC6\pdl\drivers/peripheral/ipc/cy_ipc_drv.h **** ****************************************************************************//**
 707:Generated_Source\PSoC6\pdl\drivers/peripheral/ipc/cy_ipc_drv.h **** *
 708:Generated_Source\PSoC6\pdl\drivers/peripheral/ipc/cy_ipc_drv.h **** * The function generates a release notification event by IPC interrupt structure.
 709:Generated_Source\PSoC6\pdl\drivers/peripheral/ipc/cy_ipc_drv.h **** *
 710:Generated_Source\PSoC6\pdl\drivers/peripheral/ipc/cy_ipc_drv.h **** * \param base
 711:Generated_Source\PSoC6\pdl\drivers/peripheral/ipc/cy_ipc_drv.h **** * This parameter is a handle that represents the base address of the registers
 712:Generated_Source\PSoC6\pdl\drivers/peripheral/ipc/cy_ipc_drv.h **** * of the IPC channel.
 713:Generated_Source\PSoC6\pdl\drivers/peripheral/ipc/cy_ipc_drv.h **** * The parameter is generally returned from a call to the \ref
 714:Generated_Source\PSoC6\pdl\drivers/peripheral/ipc/cy_ipc_drv.h **** * Cy_IPC_Drv_GetIpcBaseAddress.
 715:Generated_Source\PSoC6\pdl\drivers/peripheral/ipc/cy_ipc_drv.h **** *
 716:Generated_Source\PSoC6\pdl\drivers/peripheral/ipc/cy_ipc_drv.h **** * \param notifyEventIntr
 717:Generated_Source\PSoC6\pdl\drivers/peripheral/ipc/cy_ipc_drv.h **** * Bit encoded list of IPC interrupt lines that are triggered by a notification.
 718:Generated_Source\PSoC6\pdl\drivers/peripheral/ipc/cy_ipc_drv.h **** *
 719:Generated_Source\PSoC6\pdl\drivers/peripheral/ipc/cy_ipc_drv.h **** * \funcusage
 720:Generated_Source\PSoC6\pdl\drivers/peripheral/ipc/cy_ipc_drv.h **** * \snippet IPC_sut_01.cydsn/main_cm4.c snippet_Cy_IPC_Drv_ReadMsgWord
 721:Generated_Source\PSoC6\pdl\drivers/peripheral/ipc/cy_ipc_drv.h **** *
 722:Generated_Source\PSoC6\pdl\drivers/peripheral/ipc/cy_ipc_drv.h **** *******************************************************************************/
 723:Generated_Source\PSoC6\pdl\drivers/peripheral/ipc/cy_ipc_drv.h **** __STATIC_INLINE void  Cy_IPC_Drv_ReleaseNotify (IPC_STRUCT_Type* base, uint32_t notifyEventIntr)
 724:Generated_Source\PSoC6\pdl\drivers/peripheral/ipc/cy_ipc_drv.h **** {
 725:Generated_Source\PSoC6\pdl\drivers/peripheral/ipc/cy_ipc_drv.h ****     CY_ASSERT_L1(0ul == (notifyEventIntr  & ~(uint32_t)(IPC_INTR_STRUCT_INTR_RELEASE_Msk)));
 726:Generated_Source\PSoC6\pdl\drivers/peripheral/ipc/cy_ipc_drv.h ****     REG_IPC_STRUCT_RELEASE(base) = _VAL2FLD(IPC_INTR_STRUCT_INTR_RELEASE, notifyEventIntr);
ARM GAS  C:\Users\pearlstl\AppData\Local\Temp\ccJc8F9F.s 			page 26


 727:Generated_Source\PSoC6\pdl\drivers/peripheral/ipc/cy_ipc_drv.h **** }
 728:Generated_Source\PSoC6\pdl\drivers/peripheral/ipc/cy_ipc_drv.h **** 
 729:Generated_Source\PSoC6\pdl\drivers/peripheral/ipc/cy_ipc_drv.h **** 
 730:Generated_Source\PSoC6\pdl\drivers/peripheral/ipc/cy_ipc_drv.h **** /*******************************************************************************
 731:Generated_Source\PSoC6\pdl\drivers/peripheral/ipc/cy_ipc_drv.h **** * Function Name: Cy_IPC_Drv_WriteDataValue
 732:Generated_Source\PSoC6\pdl\drivers/peripheral/ipc/cy_ipc_drv.h **** ****************************************************************************//**
 733:Generated_Source\PSoC6\pdl\drivers/peripheral/ipc/cy_ipc_drv.h **** *
 734:Generated_Source\PSoC6\pdl\drivers/peripheral/ipc/cy_ipc_drv.h **** * The function writes a value to the DATA register of the IPC channel.
 735:Generated_Source\PSoC6\pdl\drivers/peripheral/ipc/cy_ipc_drv.h **** *
 736:Generated_Source\PSoC6\pdl\drivers/peripheral/ipc/cy_ipc_drv.h **** * This function is internal and should not be called directly by user
 737:Generated_Source\PSoC6\pdl\drivers/peripheral/ipc/cy_ipc_drv.h **** * software.
 738:Generated_Source\PSoC6\pdl\drivers/peripheral/ipc/cy_ipc_drv.h **** *
 739:Generated_Source\PSoC6\pdl\drivers/peripheral/ipc/cy_ipc_drv.h **** * \param base
 740:Generated_Source\PSoC6\pdl\drivers/peripheral/ipc/cy_ipc_drv.h **** * This parameter is a handle that represents the base address of the registers
 741:Generated_Source\PSoC6\pdl\drivers/peripheral/ipc/cy_ipc_drv.h **** * of the IPC channel.
 742:Generated_Source\PSoC6\pdl\drivers/peripheral/ipc/cy_ipc_drv.h **** * The parameter is generally returned from a call to the \ref
 743:Generated_Source\PSoC6\pdl\drivers/peripheral/ipc/cy_ipc_drv.h **** * Cy_IPC_Drv_GetIpcBaseAddress.
 744:Generated_Source\PSoC6\pdl\drivers/peripheral/ipc/cy_ipc_drv.h **** *
 745:Generated_Source\PSoC6\pdl\drivers/peripheral/ipc/cy_ipc_drv.h **** * \param dataValue
 746:Generated_Source\PSoC6\pdl\drivers/peripheral/ipc/cy_ipc_drv.h **** * Value to be written.
 747:Generated_Source\PSoC6\pdl\drivers/peripheral/ipc/cy_ipc_drv.h **** *
 748:Generated_Source\PSoC6\pdl\drivers/peripheral/ipc/cy_ipc_drv.h **** *******************************************************************************/
 749:Generated_Source\PSoC6\pdl\drivers/peripheral/ipc/cy_ipc_drv.h **** __STATIC_INLINE void     Cy_IPC_Drv_WriteDataValue (IPC_STRUCT_Type* base, uint32_t dataValue)
 750:Generated_Source\PSoC6\pdl\drivers/peripheral/ipc/cy_ipc_drv.h **** {
 751:Generated_Source\PSoC6\pdl\drivers/peripheral/ipc/cy_ipc_drv.h ****     REG_IPC_STRUCT_DATA(base) = dataValue;
 752:Generated_Source\PSoC6\pdl\drivers/peripheral/ipc/cy_ipc_drv.h **** }
 753:Generated_Source\PSoC6\pdl\drivers/peripheral/ipc/cy_ipc_drv.h **** 
 754:Generated_Source\PSoC6\pdl\drivers/peripheral/ipc/cy_ipc_drv.h **** 
 755:Generated_Source\PSoC6\pdl\drivers/peripheral/ipc/cy_ipc_drv.h **** /*******************************************************************************
 756:Generated_Source\PSoC6\pdl\drivers/peripheral/ipc/cy_ipc_drv.h **** * Function Name: Cy_IPC_Drv_ReadDataValue
 757:Generated_Source\PSoC6\pdl\drivers/peripheral/ipc/cy_ipc_drv.h **** ****************************************************************************//**
 758:Generated_Source\PSoC6\pdl\drivers/peripheral/ipc/cy_ipc_drv.h **** *
 759:Generated_Source\PSoC6\pdl\drivers/peripheral/ipc/cy_ipc_drv.h **** * The function reads a value from the DATA register of the IPC channel.
 760:Generated_Source\PSoC6\pdl\drivers/peripheral/ipc/cy_ipc_drv.h **** *
 761:Generated_Source\PSoC6\pdl\drivers/peripheral/ipc/cy_ipc_drv.h **** * This function is internal and should not be called directly by user
 762:Generated_Source\PSoC6\pdl\drivers/peripheral/ipc/cy_ipc_drv.h **** * software.
 763:Generated_Source\PSoC6\pdl\drivers/peripheral/ipc/cy_ipc_drv.h **** *
 764:Generated_Source\PSoC6\pdl\drivers/peripheral/ipc/cy_ipc_drv.h **** * \param base
 765:Generated_Source\PSoC6\pdl\drivers/peripheral/ipc/cy_ipc_drv.h **** * This parameter is a handle that represents the base address of the registers
 766:Generated_Source\PSoC6\pdl\drivers/peripheral/ipc/cy_ipc_drv.h **** * of the IPC channel.
 767:Generated_Source\PSoC6\pdl\drivers/peripheral/ipc/cy_ipc_drv.h **** * The parameter is generally returned from a call to the \ref
 768:Generated_Source\PSoC6\pdl\drivers/peripheral/ipc/cy_ipc_drv.h **** * Cy_IPC_Drv_GetIpcBaseAddress.
 769:Generated_Source\PSoC6\pdl\drivers/peripheral/ipc/cy_ipc_drv.h **** *
 770:Generated_Source\PSoC6\pdl\drivers/peripheral/ipc/cy_ipc_drv.h **** * \return
 771:Generated_Source\PSoC6\pdl\drivers/peripheral/ipc/cy_ipc_drv.h **** * Value from DATA register.
 772:Generated_Source\PSoC6\pdl\drivers/peripheral/ipc/cy_ipc_drv.h **** *
 773:Generated_Source\PSoC6\pdl\drivers/peripheral/ipc/cy_ipc_drv.h **** *******************************************************************************/
 774:Generated_Source\PSoC6\pdl\drivers/peripheral/ipc/cy_ipc_drv.h **** __STATIC_INLINE uint32_t Cy_IPC_Drv_ReadDataValue (IPC_STRUCT_Type const * base)
 775:Generated_Source\PSoC6\pdl\drivers/peripheral/ipc/cy_ipc_drv.h **** {
 776:Generated_Source\PSoC6\pdl\drivers/peripheral/ipc/cy_ipc_drv.h ****     return REG_IPC_STRUCT_DATA(base);
 149              		.loc 2 776 0
 150 007c DB68     		ldr	r3, [r3, #12]
 151              	.LBE110:
 152              	.LBE109:
 280:Generated_Source\PSoC6\pdl\drivers\peripheral\flash/cy_flash.c **** 
 153              		.loc 1 280 0
 154 007e 5A68     		ldr	r2, [r3, #4]
ARM GAS  C:\Users\pearlstl\AppData\Local\Temp\ccJc8F9F.s 			page 27


 283:Generated_Source\PSoC6\pdl\drivers\peripheral\flash/cy_flash.c **** 
 155              		.loc 1 283 0
 156 0080 1368     		ldr	r3, [r2]
 157 0082 43F00103 		orr	r3, r3, #1
 158 0086 1360     		str	r3, [r2]
 159              	.L16:
 286:Generated_Source\PSoC6\pdl\drivers\peripheral\flash/cy_flash.c ****             {
 160              		.loc 1 286 0 discriminator 1
 161 0088 1368     		ldr	r3, [r2]
 162 008a DB07     		lsls	r3, r3, #31
 163 008c FCD4     		bmi	.L16
 292:Generated_Source\PSoC6\pdl\drivers\peripheral\flash/cy_flash.c ****     #if defined (__ICCARM__)
 164              		.loc 1 292 0
 165 008e BDE80840 		pop	{r3, lr}
 166              		.cfi_restore 14
 167              		.cfi_restore 3
 168              		.cfi_def_cfa_offset 0
 290:Generated_Source\PSoC6\pdl\drivers\peripheral\flash/cy_flash.c ****         }
 169              		.loc 1 290 0
 170 0092 FFF7FEBF 		b	Cy_SysLib_ExitCriticalSection
 171              	.LVL7:
 172              	.L21:
 173 0096 00BF     		.align	2
 174              	.L20:
 175 0098 00000000 		.word	cy_device
 176              		.cfi_endproc
 177              	.LFE246:
 178              		.size	Cy_Flash_NotifyHandler, .-Cy_Flash_NotifyHandler
 179              		.align	2
 180              		.global	Cy_Flash_ResumeIrqHandler
 181              		.thumb
 182              		.thumb_func
 183              		.type	Cy_Flash_ResumeIrqHandler, %function
 184              	Cy_Flash_ResumeIrqHandler:
 185              	.LFB250:
 543:Generated_Source\PSoC6\pdl\drivers\peripheral\flash/cy_flash.c ****     #if defined (__ICCARM__)
 544:Generated_Source\PSoC6\pdl\drivers\peripheral\flash/cy_flash.c ****         #pragma diag_default=Ta023
 545:Generated_Source\PSoC6\pdl\drivers\peripheral\flash/cy_flash.c ****     #endif
 546:Generated_Source\PSoC6\pdl\drivers\peripheral\flash/cy_flash.c **** 
 547:Generated_Source\PSoC6\pdl\drivers\peripheral\flash/cy_flash.c ****     #if (CY_CPU_CORTEX_M4)
 548:Generated_Source\PSoC6\pdl\drivers\peripheral\flash/cy_flash.c **** 
 549:Generated_Source\PSoC6\pdl\drivers\peripheral\flash/cy_flash.c ****         /* Based on bookmark codes of mxs40srompsoc BROS,002-03298 */
 550:Generated_Source\PSoC6\pdl\drivers\peripheral\flash/cy_flash.c ****         #define CY_FLASH_PROGRAM_ROW_BOOKMARK        (0x00000001UL)
 551:Generated_Source\PSoC6\pdl\drivers\peripheral\flash/cy_flash.c ****         #define CY_FLASH_ERASE_ROW_BOOKMARK          (0x00000002UL)
 552:Generated_Source\PSoC6\pdl\drivers\peripheral\flash/cy_flash.c ****         #define CY_FLASH_WRITE_ROW_ERASE_BOOKMARK    (0x00000003UL)
 553:Generated_Source\PSoC6\pdl\drivers\peripheral\flash/cy_flash.c ****         #define CY_FLASH_WRITE_ROW_PROGRAM_BOOKMARK  (0x00000004UL)
 554:Generated_Source\PSoC6\pdl\drivers\peripheral\flash/cy_flash.c **** 
 555:Generated_Source\PSoC6\pdl\drivers\peripheral\flash/cy_flash.c ****         /* Number of the CM0P ticks for function delay corrective time at final stage */
 556:Generated_Source\PSoC6\pdl\drivers\peripheral\flash/cy_flash.c ****         #define CY_FLASH_FINAL_STAGE_DELAY_TICKS     (1000UL)
 557:Generated_Source\PSoC6\pdl\drivers\peripheral\flash/cy_flash.c ****         #define CY_FLASH_FINAL_STAGE_DELAY           (130UL + CY_FLASH_DELAY_CORRECTIVE(CY_FLASH_FI
 558:Generated_Source\PSoC6\pdl\drivers\peripheral\flash/cy_flash.c **** 
 559:Generated_Source\PSoC6\pdl\drivers\peripheral\flash/cy_flash.c ****         
 560:Generated_Source\PSoC6\pdl\drivers\peripheral\flash/cy_flash.c ****         /*******************************************************************************
 561:Generated_Source\PSoC6\pdl\drivers\peripheral\flash/cy_flash.c ****         * Function Name: Cy_Flash_ResumeIrqHandler
 562:Generated_Source\PSoC6\pdl\drivers\peripheral\flash/cy_flash.c ****         ****************************************************************************//**
 563:Generated_Source\PSoC6\pdl\drivers\peripheral\flash/cy_flash.c ****         *
 564:Generated_Source\PSoC6\pdl\drivers\peripheral\flash/cy_flash.c ****         * This is the interrupt service routine to make additional processing of the
ARM GAS  C:\Users\pearlstl\AppData\Local\Temp\ccJc8F9F.s 			page 28


 565:Generated_Source\PSoC6\pdl\drivers\peripheral\flash/cy_flash.c ****         * flash operations resume phase.
 566:Generated_Source\PSoC6\pdl\drivers\peripheral\flash/cy_flash.c ****         *
 567:Generated_Source\PSoC6\pdl\drivers\peripheral\flash/cy_flash.c ****         *******************************************************************************/
 568:Generated_Source\PSoC6\pdl\drivers\peripheral\flash/cy_flash.c ****         #if defined (__ICCARM__)
 569:Generated_Source\PSoC6\pdl\drivers\peripheral\flash/cy_flash.c ****             #pragma diag_suppress=Ta023
 570:Generated_Source\PSoC6\pdl\drivers\peripheral\flash/cy_flash.c ****             __ramfunc
 571:Generated_Source\PSoC6\pdl\drivers\peripheral\flash/cy_flash.c ****         #else
 572:Generated_Source\PSoC6\pdl\drivers\peripheral\flash/cy_flash.c ****             CY_SECTION(".cy_ramfunc") CY_NOINLINE
 573:Generated_Source\PSoC6\pdl\drivers\peripheral\flash/cy_flash.c ****         #endif
 574:Generated_Source\PSoC6\pdl\drivers\peripheral\flash/cy_flash.c ****         void Cy_Flash_ResumeIrqHandler(void)
 575:Generated_Source\PSoC6\pdl\drivers\peripheral\flash/cy_flash.c ****         {
 186              		.loc 1 575 0
 187              		.cfi_startproc
 188              		@ args = 0, pretend = 0, frame = 0
 189              		@ frame_needed = 0, uses_anonymous_args = 0
 190              	.LVL8:
 191 009c 2DE9F041 		push	{r4, r5, r6, r7, r8, lr}
 192              		.cfi_def_cfa_offset 24
 193              		.cfi_offset 4, -24
 194              		.cfi_offset 5, -20
 195              		.cfi_offset 6, -16
 196              		.cfi_offset 7, -12
 197              		.cfi_offset 8, -8
 198              		.cfi_offset 14, -4
 199              	.LBB111:
 200              	.LBB112:
 452:Generated_Source\PSoC6\pdl\drivers/peripheral/ipc/cy_ipc_drv.h **** }
 201              		.loc 2 452 0
 202 00a0 DFF89880 		ldr	r8, .L30+16
 203 00a4 D8F80030 		ldr	r3, [r8]
 204              	.LBE112:
 205              	.LBE111:
 576:Generated_Source\PSoC6\pdl\drivers\peripheral\flash/cy_flash.c ****             IPC_STRUCT_Type * locIpcBase = Cy_IPC_Drv_GetIpcBaseAddress(CY_IPC_CHAN_CYPIPE_EP0);
 577:Generated_Source\PSoC6\pdl\drivers\peripheral\flash/cy_flash.c **** 
 578:Generated_Source\PSoC6\pdl\drivers\peripheral\flash/cy_flash.c ****             uint32_t bookmark;
 579:Generated_Source\PSoC6\pdl\drivers\peripheral\flash/cy_flash.c ****             bookmark = FLASHC_FM_CTL_BOOKMARK & 0xffffUL;
 206              		.loc 1 579 0
 207 00a8 4FF26002 		movw	r2, #61536
 208 00ac 5968     		ldr	r1, [r3, #4]
 209              	.LBB116:
 210              	.LBB113:
 452:Generated_Source\PSoC6\pdl\drivers/peripheral/ipc/cy_ipc_drv.h **** }
 211              		.loc 2 452 0
 212 00ae 1E6A     		ldr	r6, [r3, #32]
 213              	.LBE113:
 214              	.LBE116:
 215              		.loc 1 579 0
 216 00b0 8C58     		ldr	r4, [r1, r2]
 217              	.LBB117:
 218              	.LBB114:
 452:Generated_Source\PSoC6\pdl\drivers/peripheral/ipc/cy_ipc_drv.h **** }
 219              		.loc 2 452 0
 220 00b2 B3F8B070 		ldrh	r7, [r3, #176]
 221              	.LVL9:
 222              	.LBE114:
 223              	.LBE117:
 580:Generated_Source\PSoC6\pdl\drivers\peripheral\flash/cy_flash.c **** 
ARM GAS  C:\Users\pearlstl\AppData\Local\Temp\ccJc8F9F.s 			page 29


 581:Generated_Source\PSoC6\pdl\drivers\peripheral\flash/cy_flash.c ****             uint32_t intr = Cy_SysLib_EnterCriticalSection();
 224              		.loc 1 581 0
 225 00b6 FFF7FEFF 		bl	Cy_SysLib_EnterCriticalSection
 226              	.LVL10:
 582:Generated_Source\PSoC6\pdl\drivers\peripheral\flash/cy_flash.c **** 
 583:Generated_Source\PSoC6\pdl\drivers\peripheral\flash/cy_flash.c ****             uint32_t cm0s = CPUSS_CM0_STATUS;
 227              		.loc 1 583 0
 228 00ba D8F80030 		ldr	r3, [r8]
 584:Generated_Source\PSoC6\pdl\drivers\peripheral\flash/cy_flash.c **** 
 585:Generated_Source\PSoC6\pdl\drivers\peripheral\flash/cy_flash.c ****             if ((bookmark == CY_FLASH_PROGRAM_ROW_BOOKMARK) || (bookmark == CY_FLASH_ERASE_ROW_BOOK
 229              		.loc 1 585 0
 230 00be A4B2     		uxth	r4, r4
 231              	.LVL11:
 583:Generated_Source\PSoC6\pdl\drivers\peripheral\flash/cy_flash.c **** 
 232              		.loc 1 583 0
 233 00c0 1A68     		ldr	r2, [r3]
 234 00c2 D3F89010 		ldr	r1, [r3, #144]
 235              		.loc 1 585 0
 236 00c6 013C     		subs	r4, r4, #1
 237 00c8 032C     		cmp	r4, #3
 581:Generated_Source\PSoC6\pdl\drivers\peripheral\flash/cy_flash.c **** 
 238              		.loc 1 581 0
 239 00ca 0546     		mov	r5, r0
 240              	.LVL12:
 583:Generated_Source\PSoC6\pdl\drivers\peripheral\flash/cy_flash.c **** 
 241              		.loc 1 583 0
 242 00cc 02EB0100 		add	r0, r2, r1
 243              	.LVL13:
 244 00d0 5158     		ldr	r1, [r2, r1]
 245              	.LVL14:
 246              		.loc 1 585 0
 247 00d2 18D8     		bhi	.L23
 586:Generated_Source\PSoC6\pdl\drivers\peripheral\flash/cy_flash.c ****                 (bookmark == CY_FLASH_WRITE_ROW_ERASE_BOOKMARK) || (bookmark == CY_FLASH_WRITE_ROW_
 587:Generated_Source\PSoC6\pdl\drivers\peripheral\flash/cy_flash.c ****             {
 588:Generated_Source\PSoC6\pdl\drivers\peripheral\flash/cy_flash.c ****                 if ((cm0s == (CPUSS_CM0_STATUS_SLEEPING_Msk | CPUSS_CM0_STATUS_SLEEPDEEP_Msk)) && (
 248              		.loc 1 588 0
 249 00d4 0329     		cmp	r1, #3
 250 00d6 1BD0     		beq	.L24
 251              	.LVL15:
 252              	.L25:
 253              	.LBB118:
 254              	.LBB119:
 255              		.file 3 "Generated_Source\\PSoC6\\pdl\\drivers/peripheral/sysclk/cy_sysclk.h"
   1:Generated_Source\PSoC6\pdl\drivers/peripheral/sysclk/cy_sysclk.h **** /***************************************************************************//**
   2:Generated_Source\PSoC6\pdl\drivers/peripheral/sysclk/cy_sysclk.h **** * \file cy_sysclk.h
   3:Generated_Source\PSoC6\pdl\drivers/peripheral/sysclk/cy_sysclk.h **** * \version 1.20
   4:Generated_Source\PSoC6\pdl\drivers/peripheral/sysclk/cy_sysclk.h **** *
   5:Generated_Source\PSoC6\pdl\drivers/peripheral/sysclk/cy_sysclk.h **** * Provides an API declaration of the sysclk driver.
   6:Generated_Source\PSoC6\pdl\drivers/peripheral/sysclk/cy_sysclk.h **** *
   7:Generated_Source\PSoC6\pdl\drivers/peripheral/sysclk/cy_sysclk.h **** ********************************************************************************
   8:Generated_Source\PSoC6\pdl\drivers/peripheral/sysclk/cy_sysclk.h **** * \copyright
   9:Generated_Source\PSoC6\pdl\drivers/peripheral/sysclk/cy_sysclk.h **** * Copyright 2016-2018, Cypress Semiconductor Corporation. All rights reserved.
  10:Generated_Source\PSoC6\pdl\drivers/peripheral/sysclk/cy_sysclk.h **** * You may use this file only in accordance with the license, terms, conditions,
  11:Generated_Source\PSoC6\pdl\drivers/peripheral/sysclk/cy_sysclk.h **** * disclaimers, and limitations in the end user license agreement accompanying
  12:Generated_Source\PSoC6\pdl\drivers/peripheral/sysclk/cy_sysclk.h **** * the software package with which this file was provided.
  13:Generated_Source\PSoC6\pdl\drivers/peripheral/sysclk/cy_sysclk.h **** *******************************************************************************/
  14:Generated_Source\PSoC6\pdl\drivers/peripheral/sysclk/cy_sysclk.h **** 
ARM GAS  C:\Users\pearlstl\AppData\Local\Temp\ccJc8F9F.s 			page 30


  15:Generated_Source\PSoC6\pdl\drivers/peripheral/sysclk/cy_sysclk.h **** /**
  16:Generated_Source\PSoC6\pdl\drivers/peripheral/sysclk/cy_sysclk.h **** * \addtogroup group_sysclk
  17:Generated_Source\PSoC6\pdl\drivers/peripheral/sysclk/cy_sysclk.h **** * \{
  18:Generated_Source\PSoC6\pdl\drivers/peripheral/sysclk/cy_sysclk.h **** * The System Clock (SysClk) driver contains the API for configuring system and
  19:Generated_Source\PSoC6\pdl\drivers/peripheral/sysclk/cy_sysclk.h **** * peripheral clocks. 
  20:Generated_Source\PSoC6\pdl\drivers/peripheral/sysclk/cy_sysclk.h **** *
  21:Generated_Source\PSoC6\pdl\drivers/peripheral/sysclk/cy_sysclk.h **** * The functions and other declarations used in this driver are in cy_sysclk.h. 
  22:Generated_Source\PSoC6\pdl\drivers/peripheral/sysclk/cy_sysclk.h **** * You can include cy_pdl.h (ModusToolbox only) to get access to all functions 
  23:Generated_Source\PSoC6\pdl\drivers/peripheral/sysclk/cy_sysclk.h **** * and declarations in the PDL. 
  24:Generated_Source\PSoC6\pdl\drivers/peripheral/sysclk/cy_sysclk.h **** *
  25:Generated_Source\PSoC6\pdl\drivers/peripheral/sysclk/cy_sysclk.h **** * Firmware uses the API to configure , enable, or disable a clock.
  26:Generated_Source\PSoC6\pdl\drivers/peripheral/sysclk/cy_sysclk.h **** * 
  27:Generated_Source\PSoC6\pdl\drivers/peripheral/sysclk/cy_sysclk.h **** * The clock system includes a variety of resources that can vary per device, including:
  28:Generated_Source\PSoC6\pdl\drivers/peripheral/sysclk/cy_sysclk.h **** * - Internal clock sources such as internal oscillators
  29:Generated_Source\PSoC6\pdl\drivers/peripheral/sysclk/cy_sysclk.h **** * - External clock sources such as crystal oscillators or a signal on an I/O pin
  30:Generated_Source\PSoC6\pdl\drivers/peripheral/sysclk/cy_sysclk.h **** * - Generated clocks such as an FLL, a PLL, and peripheral clocks
  31:Generated_Source\PSoC6\pdl\drivers/peripheral/sysclk/cy_sysclk.h **** *
  32:Generated_Source\PSoC6\pdl\drivers/peripheral/sysclk/cy_sysclk.h **** * Consult the Technical Reference Manual for your device for details of the 
  33:Generated_Source\PSoC6\pdl\drivers/peripheral/sysclk/cy_sysclk.h **** * clock system.
  34:Generated_Source\PSoC6\pdl\drivers/peripheral/sysclk/cy_sysclk.h **** *
  35:Generated_Source\PSoC6\pdl\drivers/peripheral/sysclk/cy_sysclk.h **** * The PDL defines clock system capabilities in:\n
  36:Generated_Source\PSoC6\pdl\drivers/peripheral/sysclk/cy_sysclk.h **** * devices\<family\>/<series\>/include\<series\>_config.h. (E.g.
  37:Generated_Source\PSoC6\pdl\drivers/peripheral/sysclk/cy_sysclk.h **** * devices/psoc6/include/psoc6_01_config.h).
  38:Generated_Source\PSoC6\pdl\drivers/peripheral/sysclk/cy_sysclk.h **** * User-configurable clock speeds are defined in the file system_<series>.h.
  39:Generated_Source\PSoC6\pdl\drivers/peripheral/sysclk/cy_sysclk.h **** *
  40:Generated_Source\PSoC6\pdl\drivers/peripheral/sysclk/cy_sysclk.h **** * As an illustration of the clocking system, the following diagram shows the
  41:Generated_Source\PSoC6\pdl\drivers/peripheral/sysclk/cy_sysclk.h **** * PSoC 63 series clock tree. The actual tree may vary depending on the device series.
  42:Generated_Source\PSoC6\pdl\drivers/peripheral/sysclk/cy_sysclk.h **** * Consult the Technical Reference Manual for your device for details.
  43:Generated_Source\PSoC6\pdl\drivers/peripheral/sysclk/cy_sysclk.h **** * ![](sysclk_tree.png)
  44:Generated_Source\PSoC6\pdl\drivers/peripheral/sysclk/cy_sysclk.h **** *
  45:Generated_Source\PSoC6\pdl\drivers/peripheral/sysclk/cy_sysclk.h **** * The sysclk driver supports multiple peripheral clocks, as well as the fast 
  46:Generated_Source\PSoC6\pdl\drivers/peripheral/sysclk/cy_sysclk.h **** * clock, slow clock, backup domain clock, timer clock, and pump clock. The API
  47:Generated_Source\PSoC6\pdl\drivers/peripheral/sysclk/cy_sysclk.h **** * for any given clock contains the functions to manage that clock. Functions
  48:Generated_Source\PSoC6\pdl\drivers/peripheral/sysclk/cy_sysclk.h **** * for clock measurement and trimming are also provided.
  49:Generated_Source\PSoC6\pdl\drivers/peripheral/sysclk/cy_sysclk.h **** *
  50:Generated_Source\PSoC6\pdl\drivers/peripheral/sysclk/cy_sysclk.h **** * \section group_sysclk_configuration Configuration Considerations
  51:Generated_Source\PSoC6\pdl\drivers/peripheral/sysclk/cy_sysclk.h **** * The availability of clock functions depend on the availability of the chip
  52:Generated_Source\PSoC6\pdl\drivers/peripheral/sysclk/cy_sysclk.h **** * resources that support those functions. Consult the device TRM before
  53:Generated_Source\PSoC6\pdl\drivers/peripheral/sysclk/cy_sysclk.h **** * attempting to use these functions.
  54:Generated_Source\PSoC6\pdl\drivers/peripheral/sysclk/cy_sysclk.h **** *
  55:Generated_Source\PSoC6\pdl\drivers/peripheral/sysclk/cy_sysclk.h **** * LPActive and LPSleep power modes limit the maximum clock frequency allowed
  56:Generated_Source\PSoC6\pdl\drivers/peripheral/sysclk/cy_sysclk.h **** * on the device. Refer to the SysPm driver and the TRM for details.
  57:Generated_Source\PSoC6\pdl\drivers/peripheral/sysclk/cy_sysclk.h **** *
  58:Generated_Source\PSoC6\pdl\drivers/peripheral/sysclk/cy_sysclk.h **** * \section group_sysclk_more_information More Information
  59:Generated_Source\PSoC6\pdl\drivers/peripheral/sysclk/cy_sysclk.h **** * Refer to the technical reference manual (TRM) and the device datasheet.
  60:Generated_Source\PSoC6\pdl\drivers/peripheral/sysclk/cy_sysclk.h **** *
  61:Generated_Source\PSoC6\pdl\drivers/peripheral/sysclk/cy_sysclk.h **** * \section group_sysclk_MISRA MISRA-C Compliance
  62:Generated_Source\PSoC6\pdl\drivers/peripheral/sysclk/cy_sysclk.h **** * <table class="doxtable">
  63:Generated_Source\PSoC6\pdl\drivers/peripheral/sysclk/cy_sysclk.h **** *   <tr>
  64:Generated_Source\PSoC6\pdl\drivers/peripheral/sysclk/cy_sysclk.h **** *     <th>MISRA Rule</th>
  65:Generated_Source\PSoC6\pdl\drivers/peripheral/sysclk/cy_sysclk.h **** *     <th>Rule Class (Required/Advisory)</th>
  66:Generated_Source\PSoC6\pdl\drivers/peripheral/sysclk/cy_sysclk.h **** *     <th>Rule Description</th>
  67:Generated_Source\PSoC6\pdl\drivers/peripheral/sysclk/cy_sysclk.h **** *     <th>Description of Deviation(s)</th>
  68:Generated_Source\PSoC6\pdl\drivers/peripheral/sysclk/cy_sysclk.h **** *   </tr>
  69:Generated_Source\PSoC6\pdl\drivers/peripheral/sysclk/cy_sysclk.h **** *   <tr>
  70:Generated_Source\PSoC6\pdl\drivers/peripheral/sysclk/cy_sysclk.h **** *     <td>10.3</td>
  71:Generated_Source\PSoC6\pdl\drivers/peripheral/sysclk/cy_sysclk.h **** *     <td>R</td>
ARM GAS  C:\Users\pearlstl\AppData\Local\Temp\ccJc8F9F.s 			page 31


  72:Generated_Source\PSoC6\pdl\drivers/peripheral/sysclk/cy_sysclk.h **** *     <td>A composite expression of the "essentially unsigned" type is being
  73:Generated_Source\PSoC6\pdl\drivers/peripheral/sysclk/cy_sysclk.h **** *         cast to a different type category.</td>
  74:Generated_Source\PSoC6\pdl\drivers/peripheral/sysclk/cy_sysclk.h **** *     <td>The value got from the bitfield physically cannot exceed the enumeration
  75:Generated_Source\PSoC6\pdl\drivers/peripheral/sysclk/cy_sysclk.h **** *         that describes this bitfield. So, the code is safe by design.</td>
  76:Generated_Source\PSoC6\pdl\drivers/peripheral/sysclk/cy_sysclk.h **** *   </tr>
  77:Generated_Source\PSoC6\pdl\drivers/peripheral/sysclk/cy_sysclk.h **** *   <tr>
  78:Generated_Source\PSoC6\pdl\drivers/peripheral/sysclk/cy_sysclk.h **** *     <td>10.4</td>
  79:Generated_Source\PSoC6\pdl\drivers/peripheral/sysclk/cy_sysclk.h **** *     <td>R</td>
  80:Generated_Source\PSoC6\pdl\drivers/peripheral/sysclk/cy_sysclk.h **** *     <td>A composite floating point expression is being cast to double, or unsigned.</td>
  81:Generated_Source\PSoC6\pdl\drivers/peripheral/sysclk/cy_sysclk.h **** *     <td>Casting a floating-point calculation result to an integer.</td>
  82:Generated_Source\PSoC6\pdl\drivers/peripheral/sysclk/cy_sysclk.h **** *   </tr>
  83:Generated_Source\PSoC6\pdl\drivers/peripheral/sysclk/cy_sysclk.h **** *   <tr>
  84:Generated_Source\PSoC6\pdl\drivers/peripheral/sysclk/cy_sysclk.h **** *     <td>13.4</td>
  85:Generated_Source\PSoC6\pdl\drivers/peripheral/sysclk/cy_sysclk.h **** *     <td>R</td>
  86:Generated_Source\PSoC6\pdl\drivers/peripheral/sysclk/cy_sysclk.h **** *     <td>The controlling expression of a for statement shall not contain any objects of floating t
  87:Generated_Source\PSoC6\pdl\drivers/peripheral/sysclk/cy_sysclk.h **** *     <td>Scanning through a list of floating point values: only greater_than/less_then checks are 
  88:Generated_Source\PSoC6\pdl\drivers/peripheral/sysclk/cy_sysclk.h **** *         with floating point numbers, the loop counter is integer. </td>
  89:Generated_Source\PSoC6\pdl\drivers/peripheral/sysclk/cy_sysclk.h **** *   </tr>
  90:Generated_Source\PSoC6\pdl\drivers/peripheral/sysclk/cy_sysclk.h **** *   <tr>
  91:Generated_Source\PSoC6\pdl\drivers/peripheral/sysclk/cy_sysclk.h **** *     <td>16.7</td>
  92:Generated_Source\PSoC6\pdl\drivers/peripheral/sysclk/cy_sysclk.h **** *     <td>R</td>
  93:Generated_Source\PSoC6\pdl\drivers/peripheral/sysclk/cy_sysclk.h **** *     <td>The object addressed by the pointer parameter is not modified and so the pointer could be
  94:Generated_Source\PSoC6\pdl\drivers/peripheral/sysclk/cy_sysclk.h **** *         type 'pointer to const'.</td>
  95:Generated_Source\PSoC6\pdl\drivers/peripheral/sysclk/cy_sysclk.h **** *     <td>The callback function for system power management (SysPm) must be of generic callback typ
  96:Generated_Source\PSoC6\pdl\drivers/peripheral/sysclk/cy_sysclk.h **** *         contains non-const pointer parameter.</td>
  97:Generated_Source\PSoC6\pdl\drivers/peripheral/sysclk/cy_sysclk.h **** *   </tr>
  98:Generated_Source\PSoC6\pdl\drivers/peripheral/sysclk/cy_sysclk.h **** * </table>
  99:Generated_Source\PSoC6\pdl\drivers/peripheral/sysclk/cy_sysclk.h **** *
 100:Generated_Source\PSoC6\pdl\drivers/peripheral/sysclk/cy_sysclk.h **** * \section group_sysclk_changelog Changelog
 101:Generated_Source\PSoC6\pdl\drivers/peripheral/sysclk/cy_sysclk.h **** * <table class="doxtable">
 102:Generated_Source\PSoC6\pdl\drivers/peripheral/sysclk/cy_sysclk.h **** *   <tr><th>Version</th><th>Changes</th><th>Reason for Change</th></tr>
 103:Generated_Source\PSoC6\pdl\drivers/peripheral/sysclk/cy_sysclk.h **** *   <tr>
 104:Generated_Source\PSoC6\pdl\drivers/peripheral/sysclk/cy_sysclk.h **** *     <td rowspan="4">1.20</td>
 105:Generated_Source\PSoC6\pdl\drivers/peripheral/sysclk/cy_sysclk.h **** *     <td>Flattened the organization of the driver source code into the single 
 106:Generated_Source\PSoC6\pdl\drivers/peripheral/sysclk/cy_sysclk.h **** *         source directory and the single include directory.
 107:Generated_Source\PSoC6\pdl\drivers/peripheral/sysclk/cy_sysclk.h **** *     </td>
 108:Generated_Source\PSoC6\pdl\drivers/peripheral/sysclk/cy_sysclk.h **** *     <td>Driver library directory-structure simplification.</td>
 109:Generated_Source\PSoC6\pdl\drivers/peripheral/sysclk/cy_sysclk.h **** *   </tr>
 110:Generated_Source\PSoC6\pdl\drivers/peripheral/sysclk/cy_sysclk.h **** *   <tr>
 111:Generated_Source\PSoC6\pdl\drivers/peripheral/sysclk/cy_sysclk.h **** *     <td>Updated \ref Cy_SysClk_FllLocked function description</td>
 112:Generated_Source\PSoC6\pdl\drivers/peripheral/sysclk/cy_sysclk.h **** *     <td>The SRSS_ver1 HW details clarification</td>
 113:Generated_Source\PSoC6\pdl\drivers/peripheral/sysclk/cy_sysclk.h **** *   </tr>
 114:Generated_Source\PSoC6\pdl\drivers/peripheral/sysclk/cy_sysclk.h **** *   <tr>
 115:Generated_Source\PSoC6\pdl\drivers/peripheral/sysclk/cy_sysclk.h **** *     <td>Removed the following functions:
 116:Generated_Source\PSoC6\pdl\drivers/peripheral/sysclk/cy_sysclk.h **** *         - Cy_SysClk_FllLostLock
 117:Generated_Source\PSoC6\pdl\drivers/peripheral/sysclk/cy_sysclk.h **** *         - Cy_SysClk_WcoConfigureCsv
 118:Generated_Source\PSoC6\pdl\drivers/peripheral/sysclk/cy_sysclk.h **** *         - Cy_SysClk_ClkHfConfigureCsv
 119:Generated_Source\PSoC6\pdl\drivers/peripheral/sysclk/cy_sysclk.h **** *     </td>
 120:Generated_Source\PSoC6\pdl\drivers/peripheral/sysclk/cy_sysclk.h **** *     <td>No hardware support for the removed functions.</td>
 121:Generated_Source\PSoC6\pdl\drivers/peripheral/sysclk/cy_sysclk.h **** *   </tr>
 122:Generated_Source\PSoC6\pdl\drivers/peripheral/sysclk/cy_sysclk.h **** *   <tr>
 123:Generated_Source\PSoC6\pdl\drivers/peripheral/sysclk/cy_sysclk.h **** *     <td>Added register access layer. Use register access macros instead
 124:Generated_Source\PSoC6\pdl\drivers/peripheral/sysclk/cy_sysclk.h **** *         of direct register access using dereferenced pointers.</td>
 125:Generated_Source\PSoC6\pdl\drivers/peripheral/sysclk/cy_sysclk.h **** *     <td>Makes register access device-independent, so that the PDL does 
 126:Generated_Source\PSoC6\pdl\drivers/peripheral/sysclk/cy_sysclk.h **** *         not need to be recompiled for each supported part number.</td>
 127:Generated_Source\PSoC6\pdl\drivers/peripheral/sysclk/cy_sysclk.h **** *   </tr>
 128:Generated_Source\PSoC6\pdl\drivers/peripheral/sysclk/cy_sysclk.h **** *   <tr>
ARM GAS  C:\Users\pearlstl\AppData\Local\Temp\ccJc8F9F.s 			page 32


 129:Generated_Source\PSoC6\pdl\drivers/peripheral/sysclk/cy_sysclk.h **** *     <td>1.11</td>
 130:Generated_Source\PSoC6\pdl\drivers/peripheral/sysclk/cy_sysclk.h **** *     <td>Updated the following functions. Now they use a semaphore when 
 131:Generated_Source\PSoC6\pdl\drivers/peripheral/sysclk/cy_sysclk.h **** *         try to read the status or configure the SysClk measurement counters:
 132:Generated_Source\PSoC6\pdl\drivers/peripheral/sysclk/cy_sysclk.h **** *         * Cy_SysClk_StartClkMeasurementCounters()
 133:Generated_Source\PSoC6\pdl\drivers/peripheral/sysclk/cy_sysclk.h **** *         * Cy_SysClk_ClkMeasurementCountersGetFreq()
 134:Generated_Source\PSoC6\pdl\drivers/peripheral/sysclk/cy_sysclk.h **** *
 135:Generated_Source\PSoC6\pdl\drivers/peripheral/sysclk/cy_sysclk.h **** *         Now Cy_SysClk_ClkMeasurementCountersGetFreq() returns zero value,
 136:Generated_Source\PSoC6\pdl\drivers/peripheral/sysclk/cy_sysclk.h **** *         if during measurement device was in the Deep Sleep or partially
 137:Generated_Source\PSoC6\pdl\drivers/peripheral/sysclk/cy_sysclk.h **** *         blocking flash operation occurred </td>
 138:Generated_Source\PSoC6\pdl\drivers/peripheral/sysclk/cy_sysclk.h **** *     <td>Added arbiter mechanism for correct usage of the SysClk measurement 
 139:Generated_Source\PSoC6\pdl\drivers/peripheral/sysclk/cy_sysclk.h **** *         counters</td>
 140:Generated_Source\PSoC6\pdl\drivers/peripheral/sysclk/cy_sysclk.h **** *   </tr>
 141:Generated_Source\PSoC6\pdl\drivers/peripheral/sysclk/cy_sysclk.h **** *   <tr>
 142:Generated_Source\PSoC6\pdl\drivers/peripheral/sysclk/cy_sysclk.h **** *     <td>1.10.1</td>
 143:Generated_Source\PSoC6\pdl\drivers/peripheral/sysclk/cy_sysclk.h **** *     <td>Renamed Power Management section to Low Power Callback section</td>
 144:Generated_Source\PSoC6\pdl\drivers/peripheral/sysclk/cy_sysclk.h **** *     <td>Documentation update and clarification</td>
 145:Generated_Source\PSoC6\pdl\drivers/peripheral/sysclk/cy_sysclk.h **** *   </tr>
 146:Generated_Source\PSoC6\pdl\drivers/peripheral/sysclk/cy_sysclk.h **** *   <tr>
 147:Generated_Source\PSoC6\pdl\drivers/peripheral/sysclk/cy_sysclk.h **** *     <td rowspan="5">1.10</td>
 148:Generated_Source\PSoC6\pdl\drivers/peripheral/sysclk/cy_sysclk.h **** *     <td>Updated FLL parameter calculation</td>
 149:Generated_Source\PSoC6\pdl\drivers/peripheral/sysclk/cy_sysclk.h **** *     <td>Support low frequency sources</td>
 150:Generated_Source\PSoC6\pdl\drivers/peripheral/sysclk/cy_sysclk.h **** *   </tr>
 151:Generated_Source\PSoC6\pdl\drivers/peripheral/sysclk/cy_sysclk.h **** *   <tr>
 152:Generated_Source\PSoC6\pdl\drivers/peripheral/sysclk/cy_sysclk.h **** *     <td>Added Cy_SysClk_PiloSetTrim() and Cy_SysclkPiloGetTrim() functions</td>
 153:Generated_Source\PSoC6\pdl\drivers/peripheral/sysclk/cy_sysclk.h **** *     <td>Support PILO manual trims</td>
 154:Generated_Source\PSoC6\pdl\drivers/peripheral/sysclk/cy_sysclk.h **** *   </tr>
 155:Generated_Source\PSoC6\pdl\drivers/peripheral/sysclk/cy_sysclk.h **** *   <tr>
 156:Generated_Source\PSoC6\pdl\drivers/peripheral/sysclk/cy_sysclk.h **** *     <td>Made Cy_SysClk_FllLostLock() function dependent on SRSS v1</td>
 157:Generated_Source\PSoC6\pdl\drivers/peripheral/sysclk/cy_sysclk.h **** *     <td>Feature is not supported in SRSS v1</td>
 158:Generated_Source\PSoC6\pdl\drivers/peripheral/sysclk/cy_sysclk.h **** *   </tr>
 159:Generated_Source\PSoC6\pdl\drivers/peripheral/sysclk/cy_sysclk.h **** *   <tr>
 160:Generated_Source\PSoC6\pdl\drivers/peripheral/sysclk/cy_sysclk.h **** *     <td>Updated Cy_SysClk_DeepSleepCallback() to save/restore both FLL and PLL settings</td>
 161:Generated_Source\PSoC6\pdl\drivers/peripheral/sysclk/cy_sysclk.h **** *     <td>The function should return when the lock is established or a timeout has occurred</td>
 162:Generated_Source\PSoC6\pdl\drivers/peripheral/sysclk/cy_sysclk.h **** *   </tr>
 163:Generated_Source\PSoC6\pdl\drivers/peripheral/sysclk/cy_sysclk.h **** *   <tr>
 164:Generated_Source\PSoC6\pdl\drivers/peripheral/sysclk/cy_sysclk.h **** *     <td>General documentation updates</td>
 165:Generated_Source\PSoC6\pdl\drivers/peripheral/sysclk/cy_sysclk.h **** *     <td></td>
 166:Generated_Source\PSoC6\pdl\drivers/peripheral/sysclk/cy_sysclk.h **** *   </tr>
 167:Generated_Source\PSoC6\pdl\drivers/peripheral/sysclk/cy_sysclk.h **** *   <tr>
 168:Generated_Source\PSoC6\pdl\drivers/peripheral/sysclk/cy_sysclk.h **** *     <td>1.0</td>
 169:Generated_Source\PSoC6\pdl\drivers/peripheral/sysclk/cy_sysclk.h **** *     <td>Initial version</td>
 170:Generated_Source\PSoC6\pdl\drivers/peripheral/sysclk/cy_sysclk.h **** *     <td></td>
 171:Generated_Source\PSoC6\pdl\drivers/peripheral/sysclk/cy_sysclk.h **** *   </tr>
 172:Generated_Source\PSoC6\pdl\drivers/peripheral/sysclk/cy_sysclk.h **** * </table>
 173:Generated_Source\PSoC6\pdl\drivers/peripheral/sysclk/cy_sysclk.h **** *
 174:Generated_Source\PSoC6\pdl\drivers/peripheral/sysclk/cy_sysclk.h **** * \defgroup group_sysclk_macros           Macros
 175:Generated_Source\PSoC6\pdl\drivers/peripheral/sysclk/cy_sysclk.h **** * \{
 176:Generated_Source\PSoC6\pdl\drivers/peripheral/sysclk/cy_sysclk.h **** * \}
 177:Generated_Source\PSoC6\pdl\drivers/peripheral/sysclk/cy_sysclk.h **** * \defgroup group_sysclk_enums           General Enumerated Types
 178:Generated_Source\PSoC6\pdl\drivers/peripheral/sysclk/cy_sysclk.h **** * \{
 179:Generated_Source\PSoC6\pdl\drivers/peripheral/sysclk/cy_sysclk.h **** *   \defgroup group_sysclk_returns         Function return values
 180:Generated_Source\PSoC6\pdl\drivers/peripheral/sysclk/cy_sysclk.h **** * \}
 181:Generated_Source\PSoC6\pdl\drivers/peripheral/sysclk/cy_sysclk.h **** * \defgroup group_sysclk_eco             External Crystal Oscillator (ECO)
 182:Generated_Source\PSoC6\pdl\drivers/peripheral/sysclk/cy_sysclk.h **** * \{
 183:Generated_Source\PSoC6\pdl\drivers/peripheral/sysclk/cy_sysclk.h **** *   The External Crystal Oscillator (ECO) is a clock source that consists
 184:Generated_Source\PSoC6\pdl\drivers/peripheral/sysclk/cy_sysclk.h **** *   of an oscillator circuit that drives an external crystal through its
 185:Generated_Source\PSoC6\pdl\drivers/peripheral/sysclk/cy_sysclk.h **** *   dedicated ECO pins. The ECO is a source clock that can be used to
ARM GAS  C:\Users\pearlstl\AppData\Local\Temp\ccJc8F9F.s 			page 33


 186:Generated_Source\PSoC6\pdl\drivers/peripheral/sysclk/cy_sysclk.h **** *   source one or more clock paths (Refer to \ref group_sysclk_path_src).
 187:Generated_Source\PSoC6\pdl\drivers/peripheral/sysclk/cy_sysclk.h **** *   These clock paths can then source the processors and peripherals in
 188:Generated_Source\PSoC6\pdl\drivers/peripheral/sysclk/cy_sysclk.h **** *   the device.
 189:Generated_Source\PSoC6\pdl\drivers/peripheral/sysclk/cy_sysclk.h **** *
 190:Generated_Source\PSoC6\pdl\drivers/peripheral/sysclk/cy_sysclk.h **** *   The ECO relies on the presence of an external crystal. The pins
 191:Generated_Source\PSoC6\pdl\drivers/peripheral/sysclk/cy_sysclk.h **** *   connected to this crystal must be configured to operate in analog
 192:Generated_Source\PSoC6\pdl\drivers/peripheral/sysclk/cy_sysclk.h **** *   drive mode with HSIOM connection set to GPIO control (HSIOM_SEL_GPIO).
 193:Generated_Source\PSoC6\pdl\drivers/peripheral/sysclk/cy_sysclk.h **** *
 194:Generated_Source\PSoC6\pdl\drivers/peripheral/sysclk/cy_sysclk.h **** *   \defgroup group_sysclk_eco_funcs       Functions
 195:Generated_Source\PSoC6\pdl\drivers/peripheral/sysclk/cy_sysclk.h **** * \}
 196:Generated_Source\PSoC6\pdl\drivers/peripheral/sysclk/cy_sysclk.h **** * \defgroup group_sysclk_path_src           Clock Path Source
 197:Generated_Source\PSoC6\pdl\drivers/peripheral/sysclk/cy_sysclk.h **** * \{
 198:Generated_Source\PSoC6\pdl\drivers/peripheral/sysclk/cy_sysclk.h **** *   Clock paths are a series of multiplexers that allow a source clock
 199:Generated_Source\PSoC6\pdl\drivers/peripheral/sysclk/cy_sysclk.h **** *   to drive multiple clocking resources down the chain. These paths are
 200:Generated_Source\PSoC6\pdl\drivers/peripheral/sysclk/cy_sysclk.h **** *   used for active domain clocks that are not operational during chip 
 201:Generated_Source\PSoC6\pdl\drivers/peripheral/sysclk/cy_sysclk.h **** *   deep-sleep, hibernate and off modes. Illustrated below is a diagram
 202:Generated_Source\PSoC6\pdl\drivers/peripheral/sysclk/cy_sysclk.h **** *   of the clock paths for the PSoC 63 series, showing the first three
 203:Generated_Source\PSoC6\pdl\drivers/peripheral/sysclk/cy_sysclk.h **** *   clock paths. The source clocks for these paths are highlighted in
 204:Generated_Source\PSoC6\pdl\drivers/peripheral/sysclk/cy_sysclk.h **** *   the red box.
 205:Generated_Source\PSoC6\pdl\drivers/peripheral/sysclk/cy_sysclk.h **** *
 206:Generated_Source\PSoC6\pdl\drivers/peripheral/sysclk/cy_sysclk.h **** *   - IMO: 8 MHz Internal Main Oscillator (Default)
 207:Generated_Source\PSoC6\pdl\drivers/peripheral/sysclk/cy_sysclk.h **** *   - EXTCLK: External clock (signal brought in through dedicated pins)
 208:Generated_Source\PSoC6\pdl\drivers/peripheral/sysclk/cy_sysclk.h **** *   - ECO: External Crystal Oscillator (requires external crystal on dedicated pins)
 209:Generated_Source\PSoC6\pdl\drivers/peripheral/sysclk/cy_sysclk.h **** *   - ALTHF: Select on-chip signals (e.g. BLE ECO)
 210:Generated_Source\PSoC6\pdl\drivers/peripheral/sysclk/cy_sysclk.h **** *   - Digital Signal (DSI): Digital signal from a UDB source
 211:Generated_Source\PSoC6\pdl\drivers/peripheral/sysclk/cy_sysclk.h **** *
 212:Generated_Source\PSoC6\pdl\drivers/peripheral/sysclk/cy_sysclk.h **** *   Some clock paths such as path 0 and path 1 have additional resources
 213:Generated_Source\PSoC6\pdl\drivers/peripheral/sysclk/cy_sysclk.h **** *   that can be utilized to provide a higher frequency clock. For example, 
 214:Generated_Source\PSoC6\pdl\drivers/peripheral/sysclk/cy_sysclk.h **** *   path 0 source clock can be used as the reference clock for the FLL and 
 215:Generated_Source\PSoC6\pdl\drivers/peripheral/sysclk/cy_sysclk.h **** *   path 1 source clock can be used as the reference clock for the PLL.
 216:Generated_Source\PSoC6\pdl\drivers/peripheral/sysclk/cy_sysclk.h **** *
 217:Generated_Source\PSoC6\pdl\drivers/peripheral/sysclk/cy_sysclk.h **** *   ![](sysclk_path_source.png)
 218:Generated_Source\PSoC6\pdl\drivers/peripheral/sysclk/cy_sysclk.h **** *
 219:Generated_Source\PSoC6\pdl\drivers/peripheral/sysclk/cy_sysclk.h **** *   \note The PDL driver cannot configure a clock path to use Digital Signal
 220:Generated_Source\PSoC6\pdl\drivers/peripheral/sysclk/cy_sysclk.h **** *   Interconnect (DSI) outputs as sources. This must be done through DSI
 221:Generated_Source\PSoC6\pdl\drivers/peripheral/sysclk/cy_sysclk.h **** *   configuration tool such as PSoC Creator.
 222:Generated_Source\PSoC6\pdl\drivers/peripheral/sysclk/cy_sysclk.h **** *
 223:Generated_Source\PSoC6\pdl\drivers/peripheral/sysclk/cy_sysclk.h **** *   \defgroup group_sysclk_path_src_funcs     Functions
 224:Generated_Source\PSoC6\pdl\drivers/peripheral/sysclk/cy_sysclk.h **** *   \defgroup group_sysclk_path_src_enums     Enumerated Types
 225:Generated_Source\PSoC6\pdl\drivers/peripheral/sysclk/cy_sysclk.h **** * \}
 226:Generated_Source\PSoC6\pdl\drivers/peripheral/sysclk/cy_sysclk.h **** * \defgroup group_sysclk_fll             Frequency Locked Loop (FLL)
 227:Generated_Source\PSoC6\pdl\drivers/peripheral/sysclk/cy_sysclk.h **** * \{
 228:Generated_Source\PSoC6\pdl\drivers/peripheral/sysclk/cy_sysclk.h **** *   The FLL is a clock generation circuit that can be used to produce a
 229:Generated_Source\PSoC6\pdl\drivers/peripheral/sysclk/cy_sysclk.h **** *   higher frequency clock from a reference clock. The output clock exhibits
 230:Generated_Source\PSoC6\pdl\drivers/peripheral/sysclk/cy_sysclk.h **** *   some characteristics of the reference clock such as the accuracy of the
 231:Generated_Source\PSoC6\pdl\drivers/peripheral/sysclk/cy_sysclk.h **** *   source. However other attributes such as the clock phase are not preserved.
 232:Generated_Source\PSoC6\pdl\drivers/peripheral/sysclk/cy_sysclk.h **** *   The FLL is similar in purpose to a (Phase locked loop) PLL but they are
 233:Generated_Source\PSoC6\pdl\drivers/peripheral/sysclk/cy_sysclk.h **** *   not equivalent.
 234:Generated_Source\PSoC6\pdl\drivers/peripheral/sysclk/cy_sysclk.h **** *
 235:Generated_Source\PSoC6\pdl\drivers/peripheral/sysclk/cy_sysclk.h **** *   - They may have different frequency ranges.
 236:Generated_Source\PSoC6\pdl\drivers/peripheral/sysclk/cy_sysclk.h **** *   - The FLL starts up (locks) faster and consumes less current than the PLL.
 237:Generated_Source\PSoC6\pdl\drivers/peripheral/sysclk/cy_sysclk.h **** *   - The FLL accepts a source clock with lower frequency than PLL, such as the WCO (32 KHz). 
 238:Generated_Source\PSoC6\pdl\drivers/peripheral/sysclk/cy_sysclk.h **** *   - The FLL does not lock phase. The hardware consist of a counter with a
 239:Generated_Source\PSoC6\pdl\drivers/peripheral/sysclk/cy_sysclk.h **** *     current-controlled oscillator (CCO). The counter counts the number of output
 240:Generated_Source\PSoC6\pdl\drivers/peripheral/sysclk/cy_sysclk.h **** *     clock edges in a reference clock period and adjusts the CCO until the
 241:Generated_Source\PSoC6\pdl\drivers/peripheral/sysclk/cy_sysclk.h **** *     expected ratio is achieved (locked). After initial lock, the CCO is
 242:Generated_Source\PSoC6\pdl\drivers/peripheral/sysclk/cy_sysclk.h **** *     adjusted dynamically to keep the ratio within tolerance. The lock tolerance
ARM GAS  C:\Users\pearlstl\AppData\Local\Temp\ccJc8F9F.s 			page 34


 243:Generated_Source\PSoC6\pdl\drivers/peripheral/sysclk/cy_sysclk.h **** *     is user-adjustable.
 244:Generated_Source\PSoC6\pdl\drivers/peripheral/sysclk/cy_sysclk.h **** *   ![](sysclk_fll.png)
 245:Generated_Source\PSoC6\pdl\drivers/peripheral/sysclk/cy_sysclk.h **** *
 246:Generated_Source\PSoC6\pdl\drivers/peripheral/sysclk/cy_sysclk.h **** *   The SysClk driver supports two models for configuring the FLL. The first
 247:Generated_Source\PSoC6\pdl\drivers/peripheral/sysclk/cy_sysclk.h **** *   model is to call the Cy_SysClk_FllConfigure() function, which calculates the 
 248:Generated_Source\PSoC6\pdl\drivers/peripheral/sysclk/cy_sysclk.h **** *   necessary parameters for the FLL at run-time. This may be necessary for dynamic
 249:Generated_Source\PSoC6\pdl\drivers/peripheral/sysclk/cy_sysclk.h **** *   run-time changes to the FLL. However this method is slow as it needs to perform 
 250:Generated_Source\PSoC6\pdl\drivers/peripheral/sysclk/cy_sysclk.h **** *   the calculation before configuring the FLL. The other model is to call 
 251:Generated_Source\PSoC6\pdl\drivers/peripheral/sysclk/cy_sysclk.h **** *   Cy_SysClk_FllManualConfigure() function with pre-calculated parameter values. 
 252:Generated_Source\PSoC6\pdl\drivers/peripheral/sysclk/cy_sysclk.h **** *   This method is faster but requires prior knowledge of the necessary parameters.
 253:Generated_Source\PSoC6\pdl\drivers/peripheral/sysclk/cy_sysclk.h **** *   Consult the device TRM for the FLL calculation equations.
 254:Generated_Source\PSoC6\pdl\drivers/peripheral/sysclk/cy_sysclk.h **** *
 255:Generated_Source\PSoC6\pdl\drivers/peripheral/sysclk/cy_sysclk.h **** *   \defgroup group_sysclk_fll_funcs       Functions
 256:Generated_Source\PSoC6\pdl\drivers/peripheral/sysclk/cy_sysclk.h **** *   \defgroup group_sysclk_fll_structs     Data Structures
 257:Generated_Source\PSoC6\pdl\drivers/peripheral/sysclk/cy_sysclk.h **** *   \defgroup group_sysclk_fll_enums       Enumerated Types
 258:Generated_Source\PSoC6\pdl\drivers/peripheral/sysclk/cy_sysclk.h **** * \}
 259:Generated_Source\PSoC6\pdl\drivers/peripheral/sysclk/cy_sysclk.h **** * \defgroup group_sysclk_pll             Phase Locked Loop (PLL)
 260:Generated_Source\PSoC6\pdl\drivers/peripheral/sysclk/cy_sysclk.h **** * \{
 261:Generated_Source\PSoC6\pdl\drivers/peripheral/sysclk/cy_sysclk.h **** *   The PLL is a clock generation circuit that can be used to produce a
 262:Generated_Source\PSoC6\pdl\drivers/peripheral/sysclk/cy_sysclk.h **** *   higher frequency clock from a reference clock. The output clock exhibits
 263:Generated_Source\PSoC6\pdl\drivers/peripheral/sysclk/cy_sysclk.h **** *   characteristics of the reference clock such as the accuracy of the source
 264:Generated_Source\PSoC6\pdl\drivers/peripheral/sysclk/cy_sysclk.h **** *   and its phase. The PLL is similar in purpose to a (Frequency locked loop) FLL
 265:Generated_Source\PSoC6\pdl\drivers/peripheral/sysclk/cy_sysclk.h **** *   but they are not equivalent.
 266:Generated_Source\PSoC6\pdl\drivers/peripheral/sysclk/cy_sysclk.h **** *
 267:Generated_Source\PSoC6\pdl\drivers/peripheral/sysclk/cy_sysclk.h **** *   - They may have different frequency ranges.
 268:Generated_Source\PSoC6\pdl\drivers/peripheral/sysclk/cy_sysclk.h **** *   - The PLL starts up more slowly and consumes more current than the FLL.
 269:Generated_Source\PSoC6\pdl\drivers/peripheral/sysclk/cy_sysclk.h **** *   - The PLL requires a higher frequency source clock than PLL. 
 270:Generated_Source\PSoC6\pdl\drivers/peripheral/sysclk/cy_sysclk.h **** *   ![](sysclk_pll.png)
 271:Generated_Source\PSoC6\pdl\drivers/peripheral/sysclk/cy_sysclk.h **** *
 272:Generated_Source\PSoC6\pdl\drivers/peripheral/sysclk/cy_sysclk.h **** *   The SysClk driver supports two models for configuring the PLL. The first
 273:Generated_Source\PSoC6\pdl\drivers/peripheral/sysclk/cy_sysclk.h **** *   model is to call the Cy_SysClk_PllConfigure() function, which calculates the 
 274:Generated_Source\PSoC6\pdl\drivers/peripheral/sysclk/cy_sysclk.h **** *   necessary parameters for the PLL at run-time. This may be necessary for dynamic
 275:Generated_Source\PSoC6\pdl\drivers/peripheral/sysclk/cy_sysclk.h **** *   run-time changes to the PLL. However this method is slow as it needs to perform 
 276:Generated_Source\PSoC6\pdl\drivers/peripheral/sysclk/cy_sysclk.h **** *   the calculation before configuring the PLL. The other model is to call 
 277:Generated_Source\PSoC6\pdl\drivers/peripheral/sysclk/cy_sysclk.h **** *   Cy_SysClk_PllManualConfigure() function with pre-calculated parameter values. 
 278:Generated_Source\PSoC6\pdl\drivers/peripheral/sysclk/cy_sysclk.h **** *   This method is faster but requires prior knowledge of the necessary parameters.
 279:Generated_Source\PSoC6\pdl\drivers/peripheral/sysclk/cy_sysclk.h **** *   Consult the device TRM for the PLL calculation equations.
 280:Generated_Source\PSoC6\pdl\drivers/peripheral/sysclk/cy_sysclk.h **** *
 281:Generated_Source\PSoC6\pdl\drivers/peripheral/sysclk/cy_sysclk.h **** *   \defgroup group_sysclk_pll_funcs       Functions
 282:Generated_Source\PSoC6\pdl\drivers/peripheral/sysclk/cy_sysclk.h **** *   \defgroup group_sysclk_pll_structs     Data Structures
 283:Generated_Source\PSoC6\pdl\drivers/peripheral/sysclk/cy_sysclk.h **** * \}
 284:Generated_Source\PSoC6\pdl\drivers/peripheral/sysclk/cy_sysclk.h **** * \defgroup group_sysclk_ilo             Internal Low-Speed Oscillator (ILO)
 285:Generated_Source\PSoC6\pdl\drivers/peripheral/sysclk/cy_sysclk.h **** * \{
 286:Generated_Source\PSoC6\pdl\drivers/peripheral/sysclk/cy_sysclk.h **** *   The ILO operates with no external components and outputs a stable clock at
 287:Generated_Source\PSoC6\pdl\drivers/peripheral/sysclk/cy_sysclk.h **** *   32.768 kHz nominal. The ILO is relatively low power and low accuracy. It is 
 288:Generated_Source\PSoC6\pdl\drivers/peripheral/sysclk/cy_sysclk.h **** *   available in all power modes and can be used as a source for the Backup domain clock.
 289:Generated_Source\PSoC6\pdl\drivers/peripheral/sysclk/cy_sysclk.h **** *   ![](sysclk_backup.png)
 290:Generated_Source\PSoC6\pdl\drivers/peripheral/sysclk/cy_sysclk.h **** *
 291:Generated_Source\PSoC6\pdl\drivers/peripheral/sysclk/cy_sysclk.h **** *   To ensure the ILO remains active in Hibernate mode, and across power-on-reset
 292:Generated_Source\PSoC6\pdl\drivers/peripheral/sysclk/cy_sysclk.h **** *   (POR) or brown out detect (BOD), firmware must call Cy_SysClk_IloHibernateOn(). 
 293:Generated_Source\PSoC6\pdl\drivers/peripheral/sysclk/cy_sysclk.h **** *
 294:Generated_Source\PSoC6\pdl\drivers/peripheral/sysclk/cy_sysclk.h **** *   Additionally, the ILO clock can be trimmed to +/- 1.5% of nominal frequency using
 295:Generated_Source\PSoC6\pdl\drivers/peripheral/sysclk/cy_sysclk.h **** *   a higher precision clock source. Use the \ref group_sysclk_calclk API to measure 
 296:Generated_Source\PSoC6\pdl\drivers/peripheral/sysclk/cy_sysclk.h **** *   the current ILO frequency before trimming.
 297:Generated_Source\PSoC6\pdl\drivers/peripheral/sysclk/cy_sysclk.h **** *
 298:Generated_Source\PSoC6\pdl\drivers/peripheral/sysclk/cy_sysclk.h **** *   \note The ILO is always the source clock for the \ref group_wdt. Therefore:
 299:Generated_Source\PSoC6\pdl\drivers/peripheral/sysclk/cy_sysclk.h **** *   - The WDT must be unlocked when making an ILO function call in the PDL
ARM GAS  C:\Users\pearlstl\AppData\Local\Temp\ccJc8F9F.s 			page 35


 300:Generated_Source\PSoC6\pdl\drivers/peripheral/sysclk/cy_sysclk.h **** *   - It is recommended to always have the ILO enabled
 301:Generated_Source\PSoC6\pdl\drivers/peripheral/sysclk/cy_sysclk.h **** *
 302:Generated_Source\PSoC6\pdl\drivers/peripheral/sysclk/cy_sysclk.h **** *   \defgroup group_sysclk_ilo_funcs       Functions
 303:Generated_Source\PSoC6\pdl\drivers/peripheral/sysclk/cy_sysclk.h **** * \}
 304:Generated_Source\PSoC6\pdl\drivers/peripheral/sysclk/cy_sysclk.h **** * \defgroup group_sysclk_pilo            Precision Internal Low-Speed Oscillator (PILO)
 305:Generated_Source\PSoC6\pdl\drivers/peripheral/sysclk/cy_sysclk.h **** * \{
 306:Generated_Source\PSoC6\pdl\drivers/peripheral/sysclk/cy_sysclk.h **** *   PILO provides a higher accuracy 32.768 kHz clock than the \ref group_sysclk_ilo "ILO".
 307:Generated_Source\PSoC6\pdl\drivers/peripheral/sysclk/cy_sysclk.h **** *   When periodically calibrated using a high-accuracy clock such as the
 308:Generated_Source\PSoC6\pdl\drivers/peripheral/sysclk/cy_sysclk.h **** *   \ref group_sysclk_eco "ECO", the PILO can achieve 250 ppm accuracy of nominal frequency.
 309:Generated_Source\PSoC6\pdl\drivers/peripheral/sysclk/cy_sysclk.h **** *   The PILO is capable of operating in device Active, Sleep and Deep-Sleep power modes. 
 310:Generated_Source\PSoC6\pdl\drivers/peripheral/sysclk/cy_sysclk.h **** *   It is not available in Hibernate mode.
 311:Generated_Source\PSoC6\pdl\drivers/peripheral/sysclk/cy_sysclk.h **** *
 312:Generated_Source\PSoC6\pdl\drivers/peripheral/sysclk/cy_sysclk.h **** *   The PILO can be used as a source for the \ref group_sysclk_clk_lf. However,
 313:Generated_Source\PSoC6\pdl\drivers/peripheral/sysclk/cy_sysclk.h **** *   because PILO is disabled in Hibernate mode, RTC timers cannot operate in this mode
 314:Generated_Source\PSoC6\pdl\drivers/peripheral/sysclk/cy_sysclk.h **** *   when clocked using the PILO. Instead, either the \ref group_sysclk_ilo "ILO" or
 315:Generated_Source\PSoC6\pdl\drivers/peripheral/sysclk/cy_sysclk.h **** *   \ref group_sysclk_wco "WCO" should be used when hibernate operation is required. 
 316:Generated_Source\PSoC6\pdl\drivers/peripheral/sysclk/cy_sysclk.h **** *
 317:Generated_Source\PSoC6\pdl\drivers/peripheral/sysclk/cy_sysclk.h **** *   ![](sysclk_backup.png)
 318:Generated_Source\PSoC6\pdl\drivers/peripheral/sysclk/cy_sysclk.h **** *
 319:Generated_Source\PSoC6\pdl\drivers/peripheral/sysclk/cy_sysclk.h **** *   Periodic calibration to a high-accuracy clock (such as ECO) is required to
 320:Generated_Source\PSoC6\pdl\drivers/peripheral/sysclk/cy_sysclk.h **** *   maintain accuracy. The application should use the functions described in the 
 321:Generated_Source\PSoC6\pdl\drivers/peripheral/sysclk/cy_sysclk.h **** *   \ref group_sysclk_calclk API to measure the current PILO frequency before trimming.
 322:Generated_Source\PSoC6\pdl\drivers/peripheral/sysclk/cy_sysclk.h **** *
 323:Generated_Source\PSoC6\pdl\drivers/peripheral/sysclk/cy_sysclk.h **** *   \defgroup group_sysclk_pilo_funcs      Functions
 324:Generated_Source\PSoC6\pdl\drivers/peripheral/sysclk/cy_sysclk.h **** * \}
 325:Generated_Source\PSoC6\pdl\drivers/peripheral/sysclk/cy_sysclk.h **** * \defgroup group_sysclk_calclk          Clock Measurement
 326:Generated_Source\PSoC6\pdl\drivers/peripheral/sysclk/cy_sysclk.h **** * \{
 327:Generated_Source\PSoC6\pdl\drivers/peripheral/sysclk/cy_sysclk.h **** *   These functions measure the frequency of a specified clock relative to a
 328:Generated_Source\PSoC6\pdl\drivers/peripheral/sysclk/cy_sysclk.h **** *   reference clock. They are typically called in the following order:
 329:Generated_Source\PSoC6\pdl\drivers/peripheral/sysclk/cy_sysclk.h **** *
 330:Generated_Source\PSoC6\pdl\drivers/peripheral/sysclk/cy_sysclk.h **** *   1. Specify the measured clock, the count, and the reference clock
 331:Generated_Source\PSoC6\pdl\drivers/peripheral/sysclk/cy_sysclk.h **** *   2. Start the counters
 332:Generated_Source\PSoC6\pdl\drivers/peripheral/sysclk/cy_sysclk.h **** *   3. Wait for the measurement counter to finish counting
 333:Generated_Source\PSoC6\pdl\drivers/peripheral/sysclk/cy_sysclk.h **** *   4. Retrieve the measured frequency
 334:Generated_Source\PSoC6\pdl\drivers/peripheral/sysclk/cy_sysclk.h **** *
 335:Generated_Source\PSoC6\pdl\drivers/peripheral/sysclk/cy_sysclk.h **** *   \note These functions may also be used as part of a clock trimming
 336:Generated_Source\PSoC6\pdl\drivers/peripheral/sysclk/cy_sysclk.h **** *   process. Refer to the \ref group_sysclk_trim "Clock Trim" API.
 337:Generated_Source\PSoC6\pdl\drivers/peripheral/sysclk/cy_sysclk.h **** *
 338:Generated_Source\PSoC6\pdl\drivers/peripheral/sysclk/cy_sysclk.h **** *   \defgroup group_sysclk_calclk_funcs    Functions
 339:Generated_Source\PSoC6\pdl\drivers/peripheral/sysclk/cy_sysclk.h **** *   \defgroup group_sysclk_calclk_enums    Enumerated Types
 340:Generated_Source\PSoC6\pdl\drivers/peripheral/sysclk/cy_sysclk.h **** * \}
 341:Generated_Source\PSoC6\pdl\drivers/peripheral/sysclk/cy_sysclk.h **** * \defgroup group_sysclk_trim            Clock Trim (ILO, PILO)
 342:Generated_Source\PSoC6\pdl\drivers/peripheral/sysclk/cy_sysclk.h **** * \{
 343:Generated_Source\PSoC6\pdl\drivers/peripheral/sysclk/cy_sysclk.h **** *   These functions perform a single trim operation on the ILO or PILO. Each
 344:Generated_Source\PSoC6\pdl\drivers/peripheral/sysclk/cy_sysclk.h **** *   function's parameter is the actual frequency of the clock. To measure the
 345:Generated_Source\PSoC6\pdl\drivers/peripheral/sysclk/cy_sysclk.h **** *   frequency, use the functions described in the \ref group_sysclk_calclk API.
 346:Generated_Source\PSoC6\pdl\drivers/peripheral/sysclk/cy_sysclk.h **** *
 347:Generated_Source\PSoC6\pdl\drivers/peripheral/sysclk/cy_sysclk.h **** *   To trim the clock as close as possible to the target frequency, multiple
 348:Generated_Source\PSoC6\pdl\drivers/peripheral/sysclk/cy_sysclk.h **** *   calls to the trim function may be needed. A typical usage example is to:
 349:Generated_Source\PSoC6\pdl\drivers/peripheral/sysclk/cy_sysclk.h **** *   1. Call the clock measurement functions to get the actual frequency of the clock
 350:Generated_Source\PSoC6\pdl\drivers/peripheral/sysclk/cy_sysclk.h **** *   2. Call the trim function, passing in the measured frequency
 351:Generated_Source\PSoC6\pdl\drivers/peripheral/sysclk/cy_sysclk.h **** *   3. Repeat the above until the trim function reports that the clock is trimmed to within limits.
 352:Generated_Source\PSoC6\pdl\drivers/peripheral/sysclk/cy_sysclk.h **** *
 353:Generated_Source\PSoC6\pdl\drivers/peripheral/sysclk/cy_sysclk.h **** *   \defgroup group_sysclk_trim_funcs      Functions
 354:Generated_Source\PSoC6\pdl\drivers/peripheral/sysclk/cy_sysclk.h **** * \}
 355:Generated_Source\PSoC6\pdl\drivers/peripheral/sysclk/cy_sysclk.h **** * \defgroup group_sysclk_pm              Low Power Callback
 356:Generated_Source\PSoC6\pdl\drivers/peripheral/sysclk/cy_sysclk.h **** * \{
ARM GAS  C:\Users\pearlstl\AppData\Local\Temp\ccJc8F9F.s 			page 36


 357:Generated_Source\PSoC6\pdl\drivers/peripheral/sysclk/cy_sysclk.h **** *   Entering and exiting low power modes require compatible clock configurations
 358:Generated_Source\PSoC6\pdl\drivers/peripheral/sysclk/cy_sysclk.h **** *   to be set before entering low power and restored upon wake-up and exit. The
 359:Generated_Source\PSoC6\pdl\drivers/peripheral/sysclk/cy_sysclk.h **** *   SysClk driver provides a Cy_SysClk_DeepSleepCallback() function to support
 360:Generated_Source\PSoC6\pdl\drivers/peripheral/sysclk/cy_sysclk.h **** *   deep-sleep mode entry. 
 361:Generated_Source\PSoC6\pdl\drivers/peripheral/sysclk/cy_sysclk.h **** *
 362:Generated_Source\PSoC6\pdl\drivers/peripheral/sysclk/cy_sysclk.h **** *   This function can be called either by itself before initiating low-power mode
 363:Generated_Source\PSoC6\pdl\drivers/peripheral/sysclk/cy_sysclk.h **** *   entry or it can be used in conjunction with the SysPm driver as a registered 
 364:Generated_Source\PSoC6\pdl\drivers/peripheral/sysclk/cy_sysclk.h **** *   callback. To do so, register this function as a callback before calling 
 365:Generated_Source\PSoC6\pdl\drivers/peripheral/sysclk/cy_sysclk.h **** *   Cy_SysPm_DeepSleep(). Specify \ref CY_SYSPM_DEEPSLEEP as the callback type, 
 366:Generated_Source\PSoC6\pdl\drivers/peripheral/sysclk/cy_sysclk.h **** *   and call Cy_SysPm_RegisterCallback().
 367:Generated_Source\PSoC6\pdl\drivers/peripheral/sysclk/cy_sysclk.h **** *   
 368:Generated_Source\PSoC6\pdl\drivers/peripheral/sysclk/cy_sysclk.h **** *   \note If the FLL or PLL source is the ECO, this function must be called.
 369:Generated_Source\PSoC6\pdl\drivers/peripheral/sysclk/cy_sysclk.h **** *
 370:Generated_Source\PSoC6\pdl\drivers/peripheral/sysclk/cy_sysclk.h **** *   \defgroup group_sysclk_pm_funcs        Functions
 371:Generated_Source\PSoC6\pdl\drivers/peripheral/sysclk/cy_sysclk.h **** * \}
 372:Generated_Source\PSoC6\pdl\drivers/peripheral/sysclk/cy_sysclk.h **** * \defgroup group_sysclk_wco             Watch Crystal Oscillator (WCO)
 373:Generated_Source\PSoC6\pdl\drivers/peripheral/sysclk/cy_sysclk.h **** * \{
 374:Generated_Source\PSoC6\pdl\drivers/peripheral/sysclk/cy_sysclk.h **** *   The WCO is a highly accurate 32.768 kHz clock source capable of operating
 375:Generated_Source\PSoC6\pdl\drivers/peripheral/sysclk/cy_sysclk.h **** *   in all power modes (excluding the Off mode). It is the primary clock source for
 376:Generated_Source\PSoC6\pdl\drivers/peripheral/sysclk/cy_sysclk.h **** *   the backup domain clock, which is used by the real-time clock (RTC). The 
 377:Generated_Source\PSoC6\pdl\drivers/peripheral/sysclk/cy_sysclk.h **** *   WCO can also be used as a source for the low-frequency clock to support other
 378:Generated_Source\PSoC6\pdl\drivers/peripheral/sysclk/cy_sysclk.h **** *   low power mode peripherals.
 379:Generated_Source\PSoC6\pdl\drivers/peripheral/sysclk/cy_sysclk.h **** *
 380:Generated_Source\PSoC6\pdl\drivers/peripheral/sysclk/cy_sysclk.h **** *   ![](sysclk_backup.png)
 381:Generated_Source\PSoC6\pdl\drivers/peripheral/sysclk/cy_sysclk.h **** *
 382:Generated_Source\PSoC6\pdl\drivers/peripheral/sysclk/cy_sysclk.h **** *   The WCO requires the configuration of the dedicated WCO pins (SRSS_WCO_IN_PIN,
 383:Generated_Source\PSoC6\pdl\drivers/peripheral/sysclk/cy_sysclk.h **** *   SRSS_WCO_OUT_PIN). These must be configured as Analog Hi-Z drive modes and the
 384:Generated_Source\PSoC6\pdl\drivers/peripheral/sysclk/cy_sysclk.h **** *   HSIOM selection set to GPIO. The WCO can also be used in bypass mode, where
 385:Generated_Source\PSoC6\pdl\drivers/peripheral/sysclk/cy_sysclk.h **** *   an external 32.768 kHz square wave is brought in directly through the 
 386:Generated_Source\PSoC6\pdl\drivers/peripheral/sysclk/cy_sysclk.h **** *   SRSS_WCO_OUT_PIN pin.
 387:Generated_Source\PSoC6\pdl\drivers/peripheral/sysclk/cy_sysclk.h **** *
 388:Generated_Source\PSoC6\pdl\drivers/peripheral/sysclk/cy_sysclk.h **** *   Some devices support a built-in clock supervisor (CSV) in the WCO. The clock
 389:Generated_Source\PSoC6\pdl\drivers/peripheral/sysclk/cy_sysclk.h **** *   supervisor detects if the WCO has been lost; that is, the WCO is no longer 
 390:Generated_Source\PSoC6\pdl\drivers/peripheral/sysclk/cy_sysclk.h **** *   producing clock pulses. The CSV does this by checking to ensure there is at 
 391:Generated_Source\PSoC6\pdl\drivers/peripheral/sysclk/cy_sysclk.h **** *   least one WCO clock pulse within a certain time window. The ILO or PILO can be
 392:Generated_Source\PSoC6\pdl\drivers/peripheral/sysclk/cy_sysclk.h **** *   the supervising clock. Firmware can configure the CSV to trigger a fault,
 393:Generated_Source\PSoC6\pdl\drivers/peripheral/sysclk/cy_sysclk.h **** *   a reset, or both after specified cycles of the supervising clock.
 394:Generated_Source\PSoC6\pdl\drivers/peripheral/sysclk/cy_sysclk.h **** *
 395:Generated_Source\PSoC6\pdl\drivers/peripheral/sysclk/cy_sysclk.h **** *   \defgroup group_sysclk_wco_funcs       Functions
 396:Generated_Source\PSoC6\pdl\drivers/peripheral/sysclk/cy_sysclk.h **** *   \defgroup group_sysclk_wco_structs     Data Structures
 397:Generated_Source\PSoC6\pdl\drivers/peripheral/sysclk/cy_sysclk.h **** *   \defgroup group_sysclk_wco_enums       Enumerated Types
 398:Generated_Source\PSoC6\pdl\drivers/peripheral/sysclk/cy_sysclk.h **** * \}
 399:Generated_Source\PSoC6\pdl\drivers/peripheral/sysclk/cy_sysclk.h **** * \defgroup group_sysclk_clk_hf          High-Frequency Clocks
 400:Generated_Source\PSoC6\pdl\drivers/peripheral/sysclk/cy_sysclk.h **** * \{
 401:Generated_Source\PSoC6\pdl\drivers/peripheral/sysclk/cy_sysclk.h **** *   Multiple high frequency clocks (CLK_HF) are available in the device. For example,
 402:Generated_Source\PSoC6\pdl\drivers/peripheral/sysclk/cy_sysclk.h **** *   PSoC 63 series has five high-frequency root clocks. Each CLK_HF has a particular
 403:Generated_Source\PSoC6\pdl\drivers/peripheral/sysclk/cy_sysclk.h **** *   connection and chip-specific destination on the device.
 404:Generated_Source\PSoC6\pdl\drivers/peripheral/sysclk/cy_sysclk.h **** *
 405:Generated_Source\PSoC6\pdl\drivers/peripheral/sysclk/cy_sysclk.h **** *   |Name     |Description                                             |
 406:Generated_Source\PSoC6\pdl\drivers/peripheral/sysclk/cy_sysclk.h **** *   |:--------|:-------------------------------------------------------|
 407:Generated_Source\PSoC6\pdl\drivers/peripheral/sysclk/cy_sysclk.h **** *   |CLK_HF[0]| Root clock for CPUs, PERI, and AHB infrastructure      |
 408:Generated_Source\PSoC6\pdl\drivers/peripheral/sysclk/cy_sysclk.h **** *   |CLK_HF[1]| Root clock for the PDM/PCM and I2S audio subsystem     |
 409:Generated_Source\PSoC6\pdl\drivers/peripheral/sysclk/cy_sysclk.h **** *   |CLK_HF[2]| Root clock for the Serial Memory Interface subsystem   |
 410:Generated_Source\PSoC6\pdl\drivers/peripheral/sysclk/cy_sysclk.h **** *   |CLK_HF[3]| Root clock for USB communications                      |
 411:Generated_Source\PSoC6\pdl\drivers/peripheral/sysclk/cy_sysclk.h **** *   |CLK_HF[4]| Clock output on clk_ext pin (when used as an output)   |
 412:Generated_Source\PSoC6\pdl\drivers/peripheral/sysclk/cy_sysclk.h **** *
 413:Generated_Source\PSoC6\pdl\drivers/peripheral/sysclk/cy_sysclk.h **** *   ![](sysclk_hf.png)
ARM GAS  C:\Users\pearlstl\AppData\Local\Temp\ccJc8F9F.s 			page 37


 414:Generated_Source\PSoC6\pdl\drivers/peripheral/sysclk/cy_sysclk.h **** *
 415:Generated_Source\PSoC6\pdl\drivers/peripheral/sysclk/cy_sysclk.h **** *   Note this is a particular example. The actual tree may vary depending on the device series.
 416:Generated_Source\PSoC6\pdl\drivers/peripheral/sysclk/cy_sysclk.h **** *   Consult the Technical Reference Manual for your device for details.
 417:Generated_Source\PSoC6\pdl\drivers/peripheral/sysclk/cy_sysclk.h **** *   
 418:Generated_Source\PSoC6\pdl\drivers/peripheral/sysclk/cy_sysclk.h **** *   High frequency clocks are sourced by path clocks, which should be configured
 419:Generated_Source\PSoC6\pdl\drivers/peripheral/sysclk/cy_sysclk.h **** *   first. An exception to this rule is CLK_HF[0], which cannot be disabled. 
 420:Generated_Source\PSoC6\pdl\drivers/peripheral/sysclk/cy_sysclk.h **** *   This divided clock drives the core processors and the peripherals in the system.
 421:Generated_Source\PSoC6\pdl\drivers/peripheral/sysclk/cy_sysclk.h **** *   In order to update its clock source, CLK_HF[0] source must be selected without
 422:Generated_Source\PSoC6\pdl\drivers/peripheral/sysclk/cy_sysclk.h **** *   disabling the clock.
 423:Generated_Source\PSoC6\pdl\drivers/peripheral/sysclk/cy_sysclk.h **** *
 424:Generated_Source\PSoC6\pdl\drivers/peripheral/sysclk/cy_sysclk.h **** *   ![](sysclk_hf_dist.png)
 425:Generated_Source\PSoC6\pdl\drivers/peripheral/sysclk/cy_sysclk.h **** *
 426:Generated_Source\PSoC6\pdl\drivers/peripheral/sysclk/cy_sysclk.h **** *   Some devices support a clock supervisor (CSV) for each root clock. These
 427:Generated_Source\PSoC6\pdl\drivers/peripheral/sysclk/cy_sysclk.h **** *   can detect frequency loss, or monitor that the clock frequency stays within
 428:Generated_Source\PSoC6\pdl\drivers/peripheral/sysclk/cy_sysclk.h **** *   a specified range. The possible supervising clocks are IMO, ECO, or ALTHF. 
 429:Generated_Source\PSoC6\pdl\drivers/peripheral/sysclk/cy_sysclk.h **** *   Loss detection and frequency monitoring can be enabled or disabled independently.
 430:Generated_Source\PSoC6\pdl\drivers/peripheral/sysclk/cy_sysclk.h **** *   Each has its own programmable action that occurs on detection of an error.
 431:Generated_Source\PSoC6\pdl\drivers/peripheral/sysclk/cy_sysclk.h **** *
 432:Generated_Source\PSoC6\pdl\drivers/peripheral/sysclk/cy_sysclk.h **** *   \defgroup group_sysclk_clk_hf_funcs    Functions
 433:Generated_Source\PSoC6\pdl\drivers/peripheral/sysclk/cy_sysclk.h **** *   \defgroup group_sysclk_clk_hf_structs  Data Structures
 434:Generated_Source\PSoC6\pdl\drivers/peripheral/sysclk/cy_sysclk.h **** *   \defgroup group_sysclk_clk_hf_enums    Enumerated Types
 435:Generated_Source\PSoC6\pdl\drivers/peripheral/sysclk/cy_sysclk.h **** * \}
 436:Generated_Source\PSoC6\pdl\drivers/peripheral/sysclk/cy_sysclk.h **** * \defgroup group_sysclk_clk_fast        Fast Clock
 437:Generated_Source\PSoC6\pdl\drivers/peripheral/sysclk/cy_sysclk.h **** * \{
 438:Generated_Source\PSoC6\pdl\drivers/peripheral/sysclk/cy_sysclk.h **** *   The fast clock drives the "fast" processor (e.g. Cortex-M4 processor in PSoC 6).
 439:Generated_Source\PSoC6\pdl\drivers/peripheral/sysclk/cy_sysclk.h **** *   This clock is sourced by CLK_HF[0] (\ref group_sysclk_clk_hf "HF Clocks").
 440:Generated_Source\PSoC6\pdl\drivers/peripheral/sysclk/cy_sysclk.h **** *   A divider value of 1~256 can be used to further divide the CLK_HF[0] to a
 441:Generated_Source\PSoC6\pdl\drivers/peripheral/sysclk/cy_sysclk.h **** *   desired clock speed for the processor.
 442:Generated_Source\PSoC6\pdl\drivers/peripheral/sysclk/cy_sysclk.h **** *
 443:Generated_Source\PSoC6\pdl\drivers/peripheral/sysclk/cy_sysclk.h **** *   ![](sysclk_fast.png)
 444:Generated_Source\PSoC6\pdl\drivers/peripheral/sysclk/cy_sysclk.h **** *
 445:Generated_Source\PSoC6\pdl\drivers/peripheral/sysclk/cy_sysclk.h **** *   \defgroup group_sysclk_clk_fast_funcs  Functions
 446:Generated_Source\PSoC6\pdl\drivers/peripheral/sysclk/cy_sysclk.h **** * \}
 447:Generated_Source\PSoC6\pdl\drivers/peripheral/sysclk/cy_sysclk.h **** * \defgroup group_sysclk_clk_peri        Peripheral Clock
 448:Generated_Source\PSoC6\pdl\drivers/peripheral/sysclk/cy_sysclk.h **** * \{
 449:Generated_Source\PSoC6\pdl\drivers/peripheral/sysclk/cy_sysclk.h **** *   The peripheral clock is a divided clock of CLK_HF0 (\ref group_sysclk_clk_hf "HF Clocks").
 450:Generated_Source\PSoC6\pdl\drivers/peripheral/sysclk/cy_sysclk.h **** *   It is the source clock for the \ref group_sysclk_clk_slow, and most active domain
 451:Generated_Source\PSoC6\pdl\drivers/peripheral/sysclk/cy_sysclk.h **** *   peripheral clocks (\ref group_sysclk_clk_peripheral). A divider value of 1~256 
 452:Generated_Source\PSoC6\pdl\drivers/peripheral/sysclk/cy_sysclk.h **** *   can be used to further divide the CLK_HF[0] to a desired clock speed for the peripherals.
 453:Generated_Source\PSoC6\pdl\drivers/peripheral/sysclk/cy_sysclk.h **** *
 454:Generated_Source\PSoC6\pdl\drivers/peripheral/sysclk/cy_sysclk.h **** *   ![](sysclk_peri.png)
 455:Generated_Source\PSoC6\pdl\drivers/peripheral/sysclk/cy_sysclk.h **** *
 456:Generated_Source\PSoC6\pdl\drivers/peripheral/sysclk/cy_sysclk.h **** *   \defgroup group_sysclk_clk_peri_funcs  Functions
 457:Generated_Source\PSoC6\pdl\drivers/peripheral/sysclk/cy_sysclk.h **** * \}
 458:Generated_Source\PSoC6\pdl\drivers/peripheral/sysclk/cy_sysclk.h **** * \defgroup group_sysclk_clk_peripheral  Peripherals Clock Dividers
 459:Generated_Source\PSoC6\pdl\drivers/peripheral/sysclk/cy_sysclk.h **** * \{
 460:Generated_Source\PSoC6\pdl\drivers/peripheral/sysclk/cy_sysclk.h **** *   There are multiple peripheral clock dividers that, in effect, create 
 461:Generated_Source\PSoC6\pdl\drivers/peripheral/sysclk/cy_sysclk.h **** *   multiple separate peripheral clocks. The available dividers vary per device 
 462:Generated_Source\PSoC6\pdl\drivers/peripheral/sysclk/cy_sysclk.h **** *   series. As an example, for the PSoC 63 series there are 29 dividers:
 463:Generated_Source\PSoC6\pdl\drivers/peripheral/sysclk/cy_sysclk.h **** *
 464:Generated_Source\PSoC6\pdl\drivers/peripheral/sysclk/cy_sysclk.h **** *   - eight 8-bit dividers
 465:Generated_Source\PSoC6\pdl\drivers/peripheral/sysclk/cy_sysclk.h **** *   - sixteen 16-bit dividers
 466:Generated_Source\PSoC6\pdl\drivers/peripheral/sysclk/cy_sysclk.h **** *   - four fractional 16.5-bit dividers (16 integer bits, 5 fractional bits)
 467:Generated_Source\PSoC6\pdl\drivers/peripheral/sysclk/cy_sysclk.h **** *   - one fractional 24.5-bit divider (24 integer bits, 5 fractional bits)
 468:Generated_Source\PSoC6\pdl\drivers/peripheral/sysclk/cy_sysclk.h **** *
 469:Generated_Source\PSoC6\pdl\drivers/peripheral/sysclk/cy_sysclk.h **** *
 470:Generated_Source\PSoC6\pdl\drivers/peripheral/sysclk/cy_sysclk.h **** *   The 8-bit and 16-bit dividers are integer dividers. A divider value of 1 
ARM GAS  C:\Users\pearlstl\AppData\Local\Temp\ccJc8F9F.s 			page 38


 471:Generated_Source\PSoC6\pdl\drivers/peripheral/sysclk/cy_sysclk.h **** *   means the output frequency matches the input frequency (that is, there is
 472:Generated_Source\PSoC6\pdl\drivers/peripheral/sysclk/cy_sysclk.h **** *   no change). Otherwise the frequency is divided by the value of the divider.
 473:Generated_Source\PSoC6\pdl\drivers/peripheral/sysclk/cy_sysclk.h **** *   For example, if the input frequency is 50 MHz, and the divider is value 10,
 474:Generated_Source\PSoC6\pdl\drivers/peripheral/sysclk/cy_sysclk.h **** *   the output frequency is 5 MHz.
 475:Generated_Source\PSoC6\pdl\drivers/peripheral/sysclk/cy_sysclk.h **** *
 476:Generated_Source\PSoC6\pdl\drivers/peripheral/sysclk/cy_sysclk.h **** *   The five fractional bits supports further precision in 1/32nd increments. For
 477:Generated_Source\PSoC6\pdl\drivers/peripheral/sysclk/cy_sysclk.h **** *   example, a divider with an integer value of 3 and a fractional value of
 478:Generated_Source\PSoC6\pdl\drivers/peripheral/sysclk/cy_sysclk.h **** *   4 (4/32) results in a divider of 3.125. Fractional dividers are useful when
 479:Generated_Source\PSoC6\pdl\drivers/peripheral/sysclk/cy_sysclk.h **** *   a high-precision clock is required, for example, for a UART/SPI serial
 480:Generated_Source\PSoC6\pdl\drivers/peripheral/sysclk/cy_sysclk.h **** *   interface.
 481:Generated_Source\PSoC6\pdl\drivers/peripheral/sysclk/cy_sysclk.h **** *
 482:Generated_Source\PSoC6\pdl\drivers/peripheral/sysclk/cy_sysclk.h **** *   ![](sysclk_peri_divs.png)
 483:Generated_Source\PSoC6\pdl\drivers/peripheral/sysclk/cy_sysclk.h **** *
 484:Generated_Source\PSoC6\pdl\drivers/peripheral/sysclk/cy_sysclk.h **** *   Each peripheral can connect to any one of the programmable dividers. A
 485:Generated_Source\PSoC6\pdl\drivers/peripheral/sysclk/cy_sysclk.h **** *   particular peripheral clock divider can drive multiple peripherals.
 486:Generated_Source\PSoC6\pdl\drivers/peripheral/sysclk/cy_sysclk.h **** *   
 487:Generated_Source\PSoC6\pdl\drivers/peripheral/sysclk/cy_sysclk.h **** *   The SysClk driver also supports phase aligning two peripheral clock dividers using
 488:Generated_Source\PSoC6\pdl\drivers/peripheral/sysclk/cy_sysclk.h **** *   Cy_SysClk_PeriphEnablePhaseAlignDivider(). Alignment works for both integer
 489:Generated_Source\PSoC6\pdl\drivers/peripheral/sysclk/cy_sysclk.h **** *   and fractional dividers. The divider to which a second divider is aligned
 490:Generated_Source\PSoC6\pdl\drivers/peripheral/sysclk/cy_sysclk.h **** *   must already be enabled.
 491:Generated_Source\PSoC6\pdl\drivers/peripheral/sysclk/cy_sysclk.h **** *
 492:Generated_Source\PSoC6\pdl\drivers/peripheral/sysclk/cy_sysclk.h **** *   \defgroup group_sysclk_clk_peripheral_funcs Functions
 493:Generated_Source\PSoC6\pdl\drivers/peripheral/sysclk/cy_sysclk.h **** *   \defgroup group_sysclk_clk_peripheral_enums Enumerated Types
 494:Generated_Source\PSoC6\pdl\drivers/peripheral/sysclk/cy_sysclk.h **** * \}
 495:Generated_Source\PSoC6\pdl\drivers/peripheral/sysclk/cy_sysclk.h **** * \defgroup group_sysclk_clk_slow        Slow Clock
 496:Generated_Source\PSoC6\pdl\drivers/peripheral/sysclk/cy_sysclk.h **** * \{
 497:Generated_Source\PSoC6\pdl\drivers/peripheral/sysclk/cy_sysclk.h **** *   The slow clock is the source clock for the "slow" processor (e.g. Cortex-M0+ in PSoC 6).
 498:Generated_Source\PSoC6\pdl\drivers/peripheral/sysclk/cy_sysclk.h **** *   This clock is a divided version of the \ref group_sysclk_clk_peri, which in turn is 
 499:Generated_Source\PSoC6\pdl\drivers/peripheral/sysclk/cy_sysclk.h **** *   a divided version of CLK_HF[0] (\ref group_sysclk_clk_hf "HF Clocks"). A divider 
 500:Generated_Source\PSoC6\pdl\drivers/peripheral/sysclk/cy_sysclk.h **** *   value of 1~256 can be used to further divide the Peri clock to a desired clock speed
 501:Generated_Source\PSoC6\pdl\drivers/peripheral/sysclk/cy_sysclk.h **** *   for the processor.
 502:Generated_Source\PSoC6\pdl\drivers/peripheral/sysclk/cy_sysclk.h **** *
 503:Generated_Source\PSoC6\pdl\drivers/peripheral/sysclk/cy_sysclk.h **** *   ![](sysclk_slow.png)
 504:Generated_Source\PSoC6\pdl\drivers/peripheral/sysclk/cy_sysclk.h **** *
 505:Generated_Source\PSoC6\pdl\drivers/peripheral/sysclk/cy_sysclk.h **** *   \defgroup group_sysclk_clk_slow_funcs  Functions
 506:Generated_Source\PSoC6\pdl\drivers/peripheral/sysclk/cy_sysclk.h **** * \}
 507:Generated_Source\PSoC6\pdl\drivers/peripheral/sysclk/cy_sysclk.h **** * \defgroup group_sysclk_clk_lf          Low-Frequency Clock
 508:Generated_Source\PSoC6\pdl\drivers/peripheral/sysclk/cy_sysclk.h **** * \{
 509:Generated_Source\PSoC6\pdl\drivers/peripheral/sysclk/cy_sysclk.h **** *   The low-frequency clock is the source clock for the \ref group_mcwdt
 510:Generated_Source\PSoC6\pdl\drivers/peripheral/sysclk/cy_sysclk.h **** *   and can be the source clock for \ref group_sysclk_clk_bak, which drives the
 511:Generated_Source\PSoC6\pdl\drivers/peripheral/sysclk/cy_sysclk.h **** *   \ref group_rtc.
 512:Generated_Source\PSoC6\pdl\drivers/peripheral/sysclk/cy_sysclk.h **** *   
 513:Generated_Source\PSoC6\pdl\drivers/peripheral/sysclk/cy_sysclk.h **** *   The low-frequency clock has three possible source clocks:
 514:Generated_Source\PSoC6\pdl\drivers/peripheral/sysclk/cy_sysclk.h **** *   \ref group_sysclk_ilo "ILO", \ref group_sysclk_pilo "PILO", and
 515:Generated_Source\PSoC6\pdl\drivers/peripheral/sysclk/cy_sysclk.h **** *   \ref group_sysclk_wco "WCO".
 516:Generated_Source\PSoC6\pdl\drivers/peripheral/sysclk/cy_sysclk.h **** *
 517:Generated_Source\PSoC6\pdl\drivers/peripheral/sysclk/cy_sysclk.h **** *   ![](sysclk_lf.png)
 518:Generated_Source\PSoC6\pdl\drivers/peripheral/sysclk/cy_sysclk.h **** *
 519:Generated_Source\PSoC6\pdl\drivers/peripheral/sysclk/cy_sysclk.h **** *   \defgroup group_sysclk_clk_lf_funcs    Functions
 520:Generated_Source\PSoC6\pdl\drivers/peripheral/sysclk/cy_sysclk.h **** *   \defgroup group_sysclk_clk_lf_enums    Enumerated Types
 521:Generated_Source\PSoC6\pdl\drivers/peripheral/sysclk/cy_sysclk.h **** * \}
 522:Generated_Source\PSoC6\pdl\drivers/peripheral/sysclk/cy_sysclk.h **** * \defgroup group_sysclk_clk_timer       Timer Clock
 523:Generated_Source\PSoC6\pdl\drivers/peripheral/sysclk/cy_sysclk.h **** * \{
 524:Generated_Source\PSoC6\pdl\drivers/peripheral/sysclk/cy_sysclk.h **** *   The timer clock can be a source for the alternative clock driving 
 525:Generated_Source\PSoC6\pdl\drivers/peripheral/sysclk/cy_sysclk.h **** *   the \ref group_arm_system_timer. It can also be used as a reference clock 
 526:Generated_Source\PSoC6\pdl\drivers/peripheral/sysclk/cy_sysclk.h **** *   for a counter in the \ref group_energy_profiler "Energy Profiler".
 527:Generated_Source\PSoC6\pdl\drivers/peripheral/sysclk/cy_sysclk.h **** *   
ARM GAS  C:\Users\pearlstl\AppData\Local\Temp\ccJc8F9F.s 			page 39


 528:Generated_Source\PSoC6\pdl\drivers/peripheral/sysclk/cy_sysclk.h **** *   The timer clock is a divided clock of either the IMO or CLK_HF[0]
 529:Generated_Source\PSoC6\pdl\drivers/peripheral/sysclk/cy_sysclk.h **** *   (\ref group_sysclk_clk_hf "HF Clocks").
 530:Generated_Source\PSoC6\pdl\drivers/peripheral/sysclk/cy_sysclk.h **** *
 531:Generated_Source\PSoC6\pdl\drivers/peripheral/sysclk/cy_sysclk.h **** *   \defgroup group_sysclk_clk_timer_funcs Functions
 532:Generated_Source\PSoC6\pdl\drivers/peripheral/sysclk/cy_sysclk.h **** *   \defgroup group_sysclk_clk_timer_enums Enumerated Types
 533:Generated_Source\PSoC6\pdl\drivers/peripheral/sysclk/cy_sysclk.h **** * \}
 534:Generated_Source\PSoC6\pdl\drivers/peripheral/sysclk/cy_sysclk.h **** * \defgroup group_sysclk_clk_pump        Pump Clock
 535:Generated_Source\PSoC6\pdl\drivers/peripheral/sysclk/cy_sysclk.h **** * \{
 536:Generated_Source\PSoC6\pdl\drivers/peripheral/sysclk/cy_sysclk.h **** *   The pump clock is a clock source used to provide analog precision in low voltage
 537:Generated_Source\PSoC6\pdl\drivers/peripheral/sysclk/cy_sysclk.h **** *   applications. Depending on the usage scenario, it may be required to drive the
 538:Generated_Source\PSoC6\pdl\drivers/peripheral/sysclk/cy_sysclk.h **** *   internal voltage pump for the Continuous Time Block mini (CTBm) in the analog 
 539:Generated_Source\PSoC6\pdl\drivers/peripheral/sysclk/cy_sysclk.h **** *   subsystem. The pump clock is a divided clock of one of the clock paths 
 540:Generated_Source\PSoC6\pdl\drivers/peripheral/sysclk/cy_sysclk.h **** *   (\ref group_sysclk_path_src).
 541:Generated_Source\PSoC6\pdl\drivers/peripheral/sysclk/cy_sysclk.h **** *
 542:Generated_Source\PSoC6\pdl\drivers/peripheral/sysclk/cy_sysclk.h **** *   \defgroup group_sysclk_clk_pump_funcs  Functions
 543:Generated_Source\PSoC6\pdl\drivers/peripheral/sysclk/cy_sysclk.h **** *   \defgroup group_sysclk_clk_pump_enums  Enumerated Types
 544:Generated_Source\PSoC6\pdl\drivers/peripheral/sysclk/cy_sysclk.h **** * \}
 545:Generated_Source\PSoC6\pdl\drivers/peripheral/sysclk/cy_sysclk.h **** * \defgroup group_sysclk_clk_bak         Backup Domain Clock
 546:Generated_Source\PSoC6\pdl\drivers/peripheral/sysclk/cy_sysclk.h **** * \{
 547:Generated_Source\PSoC6\pdl\drivers/peripheral/sysclk/cy_sysclk.h **** *   The backup domain clock drives the \ref group_rtc.
 548:Generated_Source\PSoC6\pdl\drivers/peripheral/sysclk/cy_sysclk.h **** *   This clock has two possible source clocks: \ref group_sysclk_wco "WCO"
 549:Generated_Source\PSoC6\pdl\drivers/peripheral/sysclk/cy_sysclk.h **** *   or the \ref group_sysclk_clk_lf. In turn the low frequency clock is sourced by
 550:Generated_Source\PSoC6\pdl\drivers/peripheral/sysclk/cy_sysclk.h **** *   \ref group_sysclk_ilo "ILO", \ref group_sysclk_pilo "PILO", or
 551:Generated_Source\PSoC6\pdl\drivers/peripheral/sysclk/cy_sysclk.h **** *   \ref group_sysclk_wco "WCO". Typically the ILO is not suitable as an RTC source,
 552:Generated_Source\PSoC6\pdl\drivers/peripheral/sysclk/cy_sysclk.h **** *   because of its low accuracy. However the ILO does operate in hibernate mode and
 553:Generated_Source\PSoC6\pdl\drivers/peripheral/sysclk/cy_sysclk.h **** *   may be used as an alternative to the WCO with a tradeoff in precision.
 554:Generated_Source\PSoC6\pdl\drivers/peripheral/sysclk/cy_sysclk.h **** *
 555:Generated_Source\PSoC6\pdl\drivers/peripheral/sysclk/cy_sysclk.h **** *   \defgroup group_sysclk_clk_bak_funcs   Functions
 556:Generated_Source\PSoC6\pdl\drivers/peripheral/sysclk/cy_sysclk.h **** *   \defgroup group_sysclk_clk_bak_enums   Enumerated Types
 557:Generated_Source\PSoC6\pdl\drivers/peripheral/sysclk/cy_sysclk.h **** * \}
 558:Generated_Source\PSoC6\pdl\drivers/peripheral/sysclk/cy_sysclk.h **** */
 559:Generated_Source\PSoC6\pdl\drivers/peripheral/sysclk/cy_sysclk.h **** 
 560:Generated_Source\PSoC6\pdl\drivers/peripheral/sysclk/cy_sysclk.h **** #if !defined(CY_SYSCLK_H)
 561:Generated_Source\PSoC6\pdl\drivers/peripheral/sysclk/cy_sysclk.h **** #define CY_SYSCLK_H
 562:Generated_Source\PSoC6\pdl\drivers/peripheral/sysclk/cy_sysclk.h **** 
 563:Generated_Source\PSoC6\pdl\drivers/peripheral/sysclk/cy_sysclk.h **** #include <stdbool.h>
 564:Generated_Source\PSoC6\pdl\drivers/peripheral/sysclk/cy_sysclk.h **** #include "cy_device.h"
 565:Generated_Source\PSoC6\pdl\drivers/peripheral/sysclk/cy_sysclk.h **** #include "cy_device_headers.h"
 566:Generated_Source\PSoC6\pdl\drivers/peripheral/sysclk/cy_sysclk.h **** #include "cy_syslib.h"
 567:Generated_Source\PSoC6\pdl\drivers/peripheral/sysclk/cy_sysclk.h **** #include "cy_syspm.h"
 568:Generated_Source\PSoC6\pdl\drivers/peripheral/sysclk/cy_sysclk.h **** 
 569:Generated_Source\PSoC6\pdl\drivers/peripheral/sysclk/cy_sysclk.h **** 
 570:Generated_Source\PSoC6\pdl\drivers/peripheral/sysclk/cy_sysclk.h **** #if defined(__cplusplus)
 571:Generated_Source\PSoC6\pdl\drivers/peripheral/sysclk/cy_sysclk.h **** extern "C" {
 572:Generated_Source\PSoC6\pdl\drivers/peripheral/sysclk/cy_sysclk.h **** #endif /* __cplusplus */
 573:Generated_Source\PSoC6\pdl\drivers/peripheral/sysclk/cy_sysclk.h **** 
 574:Generated_Source\PSoC6\pdl\drivers/peripheral/sysclk/cy_sysclk.h **** /**
 575:Generated_Source\PSoC6\pdl\drivers/peripheral/sysclk/cy_sysclk.h **** * \addtogroup group_sysclk_macros
 576:Generated_Source\PSoC6\pdl\drivers/peripheral/sysclk/cy_sysclk.h **** * \{
 577:Generated_Source\PSoC6\pdl\drivers/peripheral/sysclk/cy_sysclk.h **** */
 578:Generated_Source\PSoC6\pdl\drivers/peripheral/sysclk/cy_sysclk.h **** /** Driver major version */
 579:Generated_Source\PSoC6\pdl\drivers/peripheral/sysclk/cy_sysclk.h **** #define  CY_SYSCLK_DRV_VERSION_MAJOR   1
 580:Generated_Source\PSoC6\pdl\drivers/peripheral/sysclk/cy_sysclk.h **** /** Driver minor version */
 581:Generated_Source\PSoC6\pdl\drivers/peripheral/sysclk/cy_sysclk.h **** #define  CY_SYSCLK_DRV_VERSION_MINOR   20
 582:Generated_Source\PSoC6\pdl\drivers/peripheral/sysclk/cy_sysclk.h **** /** Sysclk driver identifier */
 583:Generated_Source\PSoC6\pdl\drivers/peripheral/sysclk/cy_sysclk.h **** #define CY_SYSCLK_ID   CY_PDL_DRV_ID(0x12U)
 584:Generated_Source\PSoC6\pdl\drivers/peripheral/sysclk/cy_sysclk.h **** 
ARM GAS  C:\Users\pearlstl\AppData\Local\Temp\ccJc8F9F.s 			page 40


 585:Generated_Source\PSoC6\pdl\drivers/peripheral/sysclk/cy_sysclk.h **** /** \} group_sysclk_macros */
 586:Generated_Source\PSoC6\pdl\drivers/peripheral/sysclk/cy_sysclk.h **** 
 587:Generated_Source\PSoC6\pdl\drivers/peripheral/sysclk/cy_sysclk.h **** /**
 588:Generated_Source\PSoC6\pdl\drivers/peripheral/sysclk/cy_sysclk.h **** * \addtogroup group_sysclk_returns
 589:Generated_Source\PSoC6\pdl\drivers/peripheral/sysclk/cy_sysclk.h **** * \{
 590:Generated_Source\PSoC6\pdl\drivers/peripheral/sysclk/cy_sysclk.h **** */
 591:Generated_Source\PSoC6\pdl\drivers/peripheral/sysclk/cy_sysclk.h **** /** Defines general-purpose function return values. */
 592:Generated_Source\PSoC6\pdl\drivers/peripheral/sysclk/cy_sysclk.h **** typedef enum
 593:Generated_Source\PSoC6\pdl\drivers/peripheral/sysclk/cy_sysclk.h **** {
 594:Generated_Source\PSoC6\pdl\drivers/peripheral/sysclk/cy_sysclk.h ****     CY_SYSCLK_SUCCESS       = 0u, /**< Command completed with no errors */
 595:Generated_Source\PSoC6\pdl\drivers/peripheral/sysclk/cy_sysclk.h ****     CY_SYSCLK_BAD_PARAM     = (CY_SYSCLK_ID | CY_PDL_STATUS_ERROR | 1U), /**< Invalid function inpu
 596:Generated_Source\PSoC6\pdl\drivers/peripheral/sysclk/cy_sysclk.h ****     CY_SYSCLK_TIMEOUT       = (CY_SYSCLK_ID | CY_PDL_STATUS_ERROR | 2U), /**< Timeout occurred */
 597:Generated_Source\PSoC6\pdl\drivers/peripheral/sysclk/cy_sysclk.h ****     CY_SYSCLK_INVALID_STATE = (CY_SYSCLK_ID | CY_PDL_STATUS_ERROR | 3U)  /**< Clock is in an invali
 598:Generated_Source\PSoC6\pdl\drivers/peripheral/sysclk/cy_sysclk.h **** } cy_en_sysclk_status_t;
 599:Generated_Source\PSoC6\pdl\drivers/peripheral/sysclk/cy_sysclk.h **** /** \} group_sysclk_returns */
 600:Generated_Source\PSoC6\pdl\drivers/peripheral/sysclk/cy_sysclk.h **** 
 601:Generated_Source\PSoC6\pdl\drivers/peripheral/sysclk/cy_sysclk.h **** /** \cond INTERNAL */
 602:Generated_Source\PSoC6\pdl\drivers/peripheral/sysclk/cy_sysclk.h **** /* Calculate a / b with rounding to the nearest integer. a and b must have the same sign. */
 603:Generated_Source\PSoC6\pdl\drivers/peripheral/sysclk/cy_sysclk.h **** #define CY_SYSCLK_DIV_ROUND(a, b) (((a) + ((b) / 2u)) / (b))
 604:Generated_Source\PSoC6\pdl\drivers/peripheral/sysclk/cy_sysclk.h **** /* Calculate a / b with rounding up if remainder != 0. a and b must both be positive. */
 605:Generated_Source\PSoC6\pdl\drivers/peripheral/sysclk/cy_sysclk.h **** #define CY_SYSCLK_DIV_ROUNDUP(a, b) ((((a) - 1U) / (b)) + 1U)
 606:Generated_Source\PSoC6\pdl\drivers/peripheral/sysclk/cy_sysclk.h **** /** \endcond */
 607:Generated_Source\PSoC6\pdl\drivers/peripheral/sysclk/cy_sysclk.h **** 
 608:Generated_Source\PSoC6\pdl\drivers/peripheral/sysclk/cy_sysclk.h **** 
 609:Generated_Source\PSoC6\pdl\drivers/peripheral/sysclk/cy_sysclk.h **** /* ========================================================================== */
 610:Generated_Source\PSoC6\pdl\drivers/peripheral/sysclk/cy_sysclk.h **** /* ===========================    ECO SECTION    ============================ */
 611:Generated_Source\PSoC6\pdl\drivers/peripheral/sysclk/cy_sysclk.h **** /* ========================================================================== */
 612:Generated_Source\PSoC6\pdl\drivers/peripheral/sysclk/cy_sysclk.h **** 
 613:Generated_Source\PSoC6\pdl\drivers/peripheral/sysclk/cy_sysclk.h **** /**
 614:Generated_Source\PSoC6\pdl\drivers/peripheral/sysclk/cy_sysclk.h **** * \addtogroup group_sysclk_macros
 615:Generated_Source\PSoC6\pdl\drivers/peripheral/sysclk/cy_sysclk.h **** * \{
 616:Generated_Source\PSoC6\pdl\drivers/peripheral/sysclk/cy_sysclk.h **** */
 617:Generated_Source\PSoC6\pdl\drivers/peripheral/sysclk/cy_sysclk.h **** 
 618:Generated_Source\PSoC6\pdl\drivers/peripheral/sysclk/cy_sysclk.h **** /**
 619:Generated_Source\PSoC6\pdl\drivers/peripheral/sysclk/cy_sysclk.h **** * \defgroup group_sysclk_ecostatus ECO status
 620:Generated_Source\PSoC6\pdl\drivers/peripheral/sysclk/cy_sysclk.h **** * \{
 621:Generated_Source\PSoC6\pdl\drivers/peripheral/sysclk/cy_sysclk.h **** * Constants used for expressing ECO status.
 622:Generated_Source\PSoC6\pdl\drivers/peripheral/sysclk/cy_sysclk.h **** */
 623:Generated_Source\PSoC6\pdl\drivers/peripheral/sysclk/cy_sysclk.h **** #define CY_SYSCLK_ECOSTAT_AMPLITUDE  0UL /**< \brief ECO does not have sufficient amplitude */
 624:Generated_Source\PSoC6\pdl\drivers/peripheral/sysclk/cy_sysclk.h **** #define CY_SYSCLK_ECOSTAT_INACCURATE 1UL /**< \brief ECO may not be meeting accuracy and duty cycle
 625:Generated_Source\PSoC6\pdl\drivers/peripheral/sysclk/cy_sysclk.h **** #define CY_SYSCLK_ECOSTAT_STABLE     2UL /**< \brief ECO has fully stabilized */
 626:Generated_Source\PSoC6\pdl\drivers/peripheral/sysclk/cy_sysclk.h **** /** \} */
 627:Generated_Source\PSoC6\pdl\drivers/peripheral/sysclk/cy_sysclk.h **** 
 628:Generated_Source\PSoC6\pdl\drivers/peripheral/sysclk/cy_sysclk.h **** /** \} group_sysclk_macros */
 629:Generated_Source\PSoC6\pdl\drivers/peripheral/sysclk/cy_sysclk.h **** 
 630:Generated_Source\PSoC6\pdl\drivers/peripheral/sysclk/cy_sysclk.h **** 
 631:Generated_Source\PSoC6\pdl\drivers/peripheral/sysclk/cy_sysclk.h **** /**
 632:Generated_Source\PSoC6\pdl\drivers/peripheral/sysclk/cy_sysclk.h **** * \addtogroup group_sysclk_eco_funcs
 633:Generated_Source\PSoC6\pdl\drivers/peripheral/sysclk/cy_sysclk.h **** * \{
 634:Generated_Source\PSoC6\pdl\drivers/peripheral/sysclk/cy_sysclk.h **** */
 635:Generated_Source\PSoC6\pdl\drivers/peripheral/sysclk/cy_sysclk.h **** cy_en_sysclk_status_t Cy_SysClk_EcoConfigure(uint32_t freq, uint32_t cLoad, uint32_t esr, uint32_t 
 636:Generated_Source\PSoC6\pdl\drivers/peripheral/sysclk/cy_sysclk.h **** cy_en_sysclk_status_t Cy_SysClk_EcoEnable(uint32_t timeoutus);
 637:Generated_Source\PSoC6\pdl\drivers/peripheral/sysclk/cy_sysclk.h **** __STATIC_INLINE void Cy_SysClk_EcoDisable(void);
 638:Generated_Source\PSoC6\pdl\drivers/peripheral/sysclk/cy_sysclk.h **** __STATIC_INLINE uint32_t Cy_SysClk_EcoGetStatus(void);
 639:Generated_Source\PSoC6\pdl\drivers/peripheral/sysclk/cy_sysclk.h **** 
 640:Generated_Source\PSoC6\pdl\drivers/peripheral/sysclk/cy_sysclk.h **** /*******************************************************************************
 641:Generated_Source\PSoC6\pdl\drivers/peripheral/sysclk/cy_sysclk.h **** * Function Name: Cy_SysClk_EcoDisable
ARM GAS  C:\Users\pearlstl\AppData\Local\Temp\ccJc8F9F.s 			page 41


 642:Generated_Source\PSoC6\pdl\drivers/peripheral/sysclk/cy_sysclk.h **** ****************************************************************************//**
 643:Generated_Source\PSoC6\pdl\drivers/peripheral/sysclk/cy_sysclk.h **** *
 644:Generated_Source\PSoC6\pdl\drivers/peripheral/sysclk/cy_sysclk.h **** * Disables the external crystal oscillator (ECO). This function should not be
 645:Generated_Source\PSoC6\pdl\drivers/peripheral/sysclk/cy_sysclk.h **** * called if the ECO is sourcing clkHf[0].
 646:Generated_Source\PSoC6\pdl\drivers/peripheral/sysclk/cy_sysclk.h **** *
 647:Generated_Source\PSoC6\pdl\drivers/peripheral/sysclk/cy_sysclk.h **** * \funcusage
 648:Generated_Source\PSoC6\pdl\drivers/peripheral/sysclk/cy_sysclk.h **** * \snippet sysclk/1.20/snippet/main.c snippet_Cy_SysClk_EcoDisable
 649:Generated_Source\PSoC6\pdl\drivers/peripheral/sysclk/cy_sysclk.h **** *
 650:Generated_Source\PSoC6\pdl\drivers/peripheral/sysclk/cy_sysclk.h **** *******************************************************************************/
 651:Generated_Source\PSoC6\pdl\drivers/peripheral/sysclk/cy_sysclk.h **** __STATIC_INLINE void Cy_SysClk_EcoDisable(void)
 652:Generated_Source\PSoC6\pdl\drivers/peripheral/sysclk/cy_sysclk.h **** {
 653:Generated_Source\PSoC6\pdl\drivers/peripheral/sysclk/cy_sysclk.h ****     SRSS_CLK_ECO_CONFIG &= (uint32_t)~_VAL2FLD(SRSS_CLK_ECO_CONFIG_ECO_EN, 1U); /* 0 = disable */
 654:Generated_Source\PSoC6\pdl\drivers/peripheral/sysclk/cy_sysclk.h **** }
 655:Generated_Source\PSoC6\pdl\drivers/peripheral/sysclk/cy_sysclk.h **** 
 656:Generated_Source\PSoC6\pdl\drivers/peripheral/sysclk/cy_sysclk.h **** /*******************************************************************************
 657:Generated_Source\PSoC6\pdl\drivers/peripheral/sysclk/cy_sysclk.h **** * Function Name: Cy_SysClk_EcoGetStatus
 658:Generated_Source\PSoC6\pdl\drivers/peripheral/sysclk/cy_sysclk.h **** ****************************************************************************//**
 659:Generated_Source\PSoC6\pdl\drivers/peripheral/sysclk/cy_sysclk.h **** *
 660:Generated_Source\PSoC6\pdl\drivers/peripheral/sysclk/cy_sysclk.h **** * Reports the current status of the external crystal oscillator (ECO).
 661:Generated_Source\PSoC6\pdl\drivers/peripheral/sysclk/cy_sysclk.h **** *
 662:Generated_Source\PSoC6\pdl\drivers/peripheral/sysclk/cy_sysclk.h **** * \return
 663:Generated_Source\PSoC6\pdl\drivers/peripheral/sysclk/cy_sysclk.h **** * CY_SYSCLK_ECOSTAT_AMPLITUDE = ECO does not have sufficient amplitude<br>
 664:Generated_Source\PSoC6\pdl\drivers/peripheral/sysclk/cy_sysclk.h **** * CY_SYSCLK_ECOSTAT_INACCURATE = ECO has sufficient amplitude but may not be meeting accuracy and d
 665:Generated_Source\PSoC6\pdl\drivers/peripheral/sysclk/cy_sysclk.h **** * CY_SYSCLK_ECOSTAT_STABLE = ECO has fully stabilized
 666:Generated_Source\PSoC6\pdl\drivers/peripheral/sysclk/cy_sysclk.h **** *
 667:Generated_Source\PSoC6\pdl\drivers/peripheral/sysclk/cy_sysclk.h **** * \funcusage
