ARM GAS  C:\Users\pearlstl\AppData\Local\Temp\ccnkLTaV.s 			page 1


   1              		.syntax unified
   2              		.cpu cortex-m4
   3              		.eabi_attribute 27, 1
   4              		.fpu fpv4-sp-d16
   5              		.eabi_attribute 20, 1
   6              		.eabi_attribute 21, 1
   7              		.eabi_attribute 23, 3
   8              		.eabi_attribute 24, 1
   9              		.eabi_attribute 25, 1
  10              		.eabi_attribute 26, 1
  11              		.eabi_attribute 30, 2
  12              		.eabi_attribute 34, 1
  13              		.eabi_attribute 18, 4
  14              		.thumb
  15              		.syntax unified
  16              		.file	"cy_profile.c"
  17              		.text
  18              	.Ltext0:
  19              		.cfi_sections	.debug_frame
  20              		.section	.text.Cy_Profile_ISR,"ax",%progbits
  21              		.align	2
  22              		.global	Cy_Profile_ISR
  23              		.thumb
  24              		.thumb_func
  25              		.type	Cy_Profile_ISR, %function
  26              	Cy_Profile_ISR:
  27              	.LFB138:
  28              		.file 1 "Generated_Source\\PSoC6\\pdl\\drivers\\peripheral\\profile\\cy_profile.c"
   1:Generated_Source\PSoC6\pdl\drivers\peripheral\profile/cy_profile.c **** /***************************************************************************//** 
   2:Generated_Source\PSoC6\pdl\drivers\peripheral\profile/cy_profile.c **** * \file cy_profile.c
   3:Generated_Source\PSoC6\pdl\drivers\peripheral\profile/cy_profile.c **** * \version 1.10
   4:Generated_Source\PSoC6\pdl\drivers\peripheral\profile/cy_profile.c **** * 
   5:Generated_Source\PSoC6\pdl\drivers\peripheral\profile/cy_profile.c **** * Provides an API declaration of the energy profiler (EP) driver. 
   6:Generated_Source\PSoC6\pdl\drivers\peripheral\profile/cy_profile.c **** *
   7:Generated_Source\PSoC6\pdl\drivers\peripheral\profile/cy_profile.c **** ******************************************************************************** 
   8:Generated_Source\PSoC6\pdl\drivers\peripheral\profile/cy_profile.c **** * \copyright 
   9:Generated_Source\PSoC6\pdl\drivers\peripheral\profile/cy_profile.c **** * Copyright 2016-2018, Cypress Semiconductor Corporation. All rights reserved. 
  10:Generated_Source\PSoC6\pdl\drivers\peripheral\profile/cy_profile.c **** * You may use this file only in accordance with the license, terms, conditions, 
  11:Generated_Source\PSoC6\pdl\drivers\peripheral\profile/cy_profile.c **** * disclaimers, and limitations in the end user license agreement accompanying 
  12:Generated_Source\PSoC6\pdl\drivers\peripheral\profile/cy_profile.c **** * the software package with which this file was provided.
  13:Generated_Source\PSoC6\pdl\drivers\peripheral\profile/cy_profile.c **** *******************************************************************************/
  14:Generated_Source\PSoC6\pdl\drivers\peripheral\profile/cy_profile.c **** 
  15:Generated_Source\PSoC6\pdl\drivers\peripheral\profile/cy_profile.c **** #include "cy_profile.h"
  16:Generated_Source\PSoC6\pdl\drivers\peripheral\profile/cy_profile.c **** #include <string.h>
  17:Generated_Source\PSoC6\pdl\drivers\peripheral\profile/cy_profile.c **** 
  18:Generated_Source\PSoC6\pdl\drivers\peripheral\profile/cy_profile.c **** #ifdef CY_IP_MXPROFILE
  19:Generated_Source\PSoC6\pdl\drivers\peripheral\profile/cy_profile.c **** 
  20:Generated_Source\PSoC6\pdl\drivers\peripheral\profile/cy_profile.c **** #if defined(__cplusplus)
  21:Generated_Source\PSoC6\pdl\drivers\peripheral\profile/cy_profile.c **** extern "C" {
  22:Generated_Source\PSoC6\pdl\drivers\peripheral\profile/cy_profile.c **** #endif /* __cplusplus */
  23:Generated_Source\PSoC6\pdl\drivers\peripheral\profile/cy_profile.c **** 
  24:Generated_Source\PSoC6\pdl\drivers\peripheral\profile/cy_profile.c **** /* Number of elements in an array */
  25:Generated_Source\PSoC6\pdl\drivers\peripheral\profile/cy_profile.c **** #define CY_N_ELMTS(a) (sizeof(a)/sizeof((a)[0]))
  26:Generated_Source\PSoC6\pdl\drivers\peripheral\profile/cy_profile.c **** 
  27:Generated_Source\PSoC6\pdl\drivers\peripheral\profile/cy_profile.c **** static cy_en_profile_status_t Cy_Profile_IsPtrValid(const cy_stc_profile_ctr_ptr_t ctrAddr);
  28:Generated_Source\PSoC6\pdl\drivers\peripheral\profile/cy_profile.c **** 
  29:Generated_Source\PSoC6\pdl\drivers\peripheral\profile/cy_profile.c **** /* Internal structure - Control and status information for each counter */
ARM GAS  C:\Users\pearlstl\AppData\Local\Temp\ccnkLTaV.s 			page 2


  30:Generated_Source\PSoC6\pdl\drivers\peripheral\profile/cy_profile.c **** static cy_stc_profile_ctr_t cy_ep_ctrs[CY_PROFILE_PRFL_CNT_NR];
  31:Generated_Source\PSoC6\pdl\drivers\peripheral\profile/cy_profile.c **** 
  32:Generated_Source\PSoC6\pdl\drivers\peripheral\profile/cy_profile.c **** 
  33:Generated_Source\PSoC6\pdl\drivers\peripheral\profile/cy_profile.c **** /* ========================================================================== */
  34:Generated_Source\PSoC6\pdl\drivers\peripheral\profile/cy_profile.c **** /* =====================     LOCAL FUNCTION SECTION    ====================== */
  35:Generated_Source\PSoC6\pdl\drivers\peripheral\profile/cy_profile.c **** /* ========================================================================== */
  36:Generated_Source\PSoC6\pdl\drivers\peripheral\profile/cy_profile.c **** /*******************************************************************************
  37:Generated_Source\PSoC6\pdl\drivers\peripheral\profile/cy_profile.c **** * Function Name: Cy_Profile_IsPtrValid
  38:Generated_Source\PSoC6\pdl\drivers\peripheral\profile/cy_profile.c **** ****************************************************************************//**
  39:Generated_Source\PSoC6\pdl\drivers\peripheral\profile/cy_profile.c **** *
  40:Generated_Source\PSoC6\pdl\drivers\peripheral\profile/cy_profile.c **** * Local utility function: reports (1) whether or not a given pointer points into
  41:Generated_Source\PSoC6\pdl\drivers\peripheral\profile/cy_profile.c **** * the cy_ep_ctrs[] array, and (2) whether the counter has been assigned.
  42:Generated_Source\PSoC6\pdl\drivers\peripheral\profile/cy_profile.c **** *
  43:Generated_Source\PSoC6\pdl\drivers\peripheral\profile/cy_profile.c **** * \param ctrAddr The handle to (address of) the assigned counter
  44:Generated_Source\PSoC6\pdl\drivers\peripheral\profile/cy_profile.c **** * 
  45:Generated_Source\PSoC6\pdl\drivers\peripheral\profile/cy_profile.c **** * \return CY_PROFILE_SUCCESS, or CY_PROFILE_BAD_PARAM for invalid ctrAddr or counter not
  46:Generated_Source\PSoC6\pdl\drivers\peripheral\profile/cy_profile.c **** * in use.
  47:Generated_Source\PSoC6\pdl\drivers\peripheral\profile/cy_profile.c **** *
  48:Generated_Source\PSoC6\pdl\drivers\peripheral\profile/cy_profile.c **** *******************************************************************************/
  49:Generated_Source\PSoC6\pdl\drivers\peripheral\profile/cy_profile.c **** static cy_en_profile_status_t Cy_Profile_IsPtrValid(const cy_stc_profile_ctr_ptr_t ctrAddr)
  50:Generated_Source\PSoC6\pdl\drivers\peripheral\profile/cy_profile.c **** {
  51:Generated_Source\PSoC6\pdl\drivers\peripheral\profile/cy_profile.c ****     cy_en_profile_status_t retStatus = CY_PROFILE_BAD_PARAM;
  52:Generated_Source\PSoC6\pdl\drivers\peripheral\profile/cy_profile.c **** 
  53:Generated_Source\PSoC6\pdl\drivers\peripheral\profile/cy_profile.c ****     /* check for valid ctrAddr */
  54:Generated_Source\PSoC6\pdl\drivers\peripheral\profile/cy_profile.c ****     uint32_t p_epCtrs = (uint32_t)cy_ep_ctrs;
  55:Generated_Source\PSoC6\pdl\drivers\peripheral\profile/cy_profile.c ****     if ((p_epCtrs <= (uint32_t)ctrAddr) && ((uint32_t)ctrAddr < (p_epCtrs + (uint32_t)sizeof(cy_ep_
  56:Generated_Source\PSoC6\pdl\drivers\peripheral\profile/cy_profile.c ****     {
  57:Generated_Source\PSoC6\pdl\drivers\peripheral\profile/cy_profile.c ****         if (ctrAddr->used != 0u) /* check for counter being used */
  58:Generated_Source\PSoC6\pdl\drivers\peripheral\profile/cy_profile.c ****         {
  59:Generated_Source\PSoC6\pdl\drivers\peripheral\profile/cy_profile.c ****             retStatus = CY_PROFILE_SUCCESS;
  60:Generated_Source\PSoC6\pdl\drivers\peripheral\profile/cy_profile.c ****         }
  61:Generated_Source\PSoC6\pdl\drivers\peripheral\profile/cy_profile.c ****     }
  62:Generated_Source\PSoC6\pdl\drivers\peripheral\profile/cy_profile.c ****     return (retStatus);
  63:Generated_Source\PSoC6\pdl\drivers\peripheral\profile/cy_profile.c **** }
  64:Generated_Source\PSoC6\pdl\drivers\peripheral\profile/cy_profile.c **** 
  65:Generated_Source\PSoC6\pdl\drivers\peripheral\profile/cy_profile.c **** 
  66:Generated_Source\PSoC6\pdl\drivers\peripheral\profile/cy_profile.c **** /* ========================================================================== */
  67:Generated_Source\PSoC6\pdl\drivers\peripheral\profile/cy_profile.c **** /* ====================    INTERRUPT FUNCTION SECTION    ==================== */
  68:Generated_Source\PSoC6\pdl\drivers\peripheral\profile/cy_profile.c **** /* ========================================================================== */
  69:Generated_Source\PSoC6\pdl\drivers\peripheral\profile/cy_profile.c **** /*******************************************************************************
  70:Generated_Source\PSoC6\pdl\drivers\peripheral\profile/cy_profile.c **** * Function Name: Cy_Profile_ISR
  71:Generated_Source\PSoC6\pdl\drivers\peripheral\profile/cy_profile.c **** ****************************************************************************//**
  72:Generated_Source\PSoC6\pdl\drivers\peripheral\profile/cy_profile.c **** *
  73:Generated_Source\PSoC6\pdl\drivers\peripheral\profile/cy_profile.c **** * EP interrupt handler: Increments the overflow member of the counter structure,
  74:Generated_Source\PSoC6\pdl\drivers\peripheral\profile/cy_profile.c **** * for each counter that is in use and has an overflow.
  75:Generated_Source\PSoC6\pdl\drivers\peripheral\profile/cy_profile.c **** *
  76:Generated_Source\PSoC6\pdl\drivers\peripheral\profile/cy_profile.c **** * This handler is not configured or used automatically. You must configure the 
  77:Generated_Source\PSoC6\pdl\drivers\peripheral\profile/cy_profile.c **** * interrupt handler for the EP, using Cy_SysInt_Init(). Typically you configure 
  78:Generated_Source\PSoC6\pdl\drivers\peripheral\profile/cy_profile.c **** * the system to use \ref Cy_Profile_ISR() as the overflow interrupt handler. You
  79:Generated_Source\PSoC6\pdl\drivers\peripheral\profile/cy_profile.c **** * can provide a custom interrupt handler to perform additional operations if
  80:Generated_Source\PSoC6\pdl\drivers\peripheral\profile/cy_profile.c **** * required. Your handler can call \ref Cy_Profile_ISR() to handle counter
  81:Generated_Source\PSoC6\pdl\drivers\peripheral\profile/cy_profile.c **** * overflow. 
  82:Generated_Source\PSoC6\pdl\drivers\peripheral\profile/cy_profile.c **** *
  83:Generated_Source\PSoC6\pdl\drivers\peripheral\profile/cy_profile.c **** *******************************************************************************/
  84:Generated_Source\PSoC6\pdl\drivers\peripheral\profile/cy_profile.c **** void Cy_Profile_ISR(void)
  85:Generated_Source\PSoC6\pdl\drivers\peripheral\profile/cy_profile.c **** {
  29              		.loc 1 85 0
ARM GAS  C:\Users\pearlstl\AppData\Local\Temp\ccnkLTaV.s 			page 3


  30              		.cfi_startproc
  31              		@ args = 0, pretend = 0, frame = 0
  32              		@ frame_needed = 0, uses_anonymous_args = 0
  33              		@ link register save eliminated.
  86:Generated_Source\PSoC6\pdl\drivers\peripheral\profile/cy_profile.c ****     uint32_t ctr;
  87:Generated_Source\PSoC6\pdl\drivers\peripheral\profile/cy_profile.c **** 
  88:Generated_Source\PSoC6\pdl\drivers\peripheral\profile/cy_profile.c ****     /* Grab a copy of the overflow register. Each bit in the register indicates
  89:Generated_Source\PSoC6\pdl\drivers\peripheral\profile/cy_profile.c ****        whether or not the respective counter has overflowed. */
  90:Generated_Source\PSoC6\pdl\drivers\peripheral\profile/cy_profile.c ****     uint32_t ovflowBits = _FLD2VAL(PROFILE_INTR_MASKED_CNT_OVFLW, PROFILE_INTR_MASKED);
  34              		.loc 1 90 0
  35 0000 334A     		ldr	r2, .L84
  36 0002 D2F8CC37 		ldr	r3, [r2, #1996]
  37              	.LVL0:
  91:Generated_Source\PSoC6\pdl\drivers\peripheral\profile/cy_profile.c **** 
  92:Generated_Source\PSoC6\pdl\drivers\peripheral\profile/cy_profile.c ****     PROFILE_INTR = ovflowBits; /* clear the sources of the interrupts */
  38              		.loc 1 92 0
  39 0006 C2F8C037 		str	r3, [r2, #1984]
  40              	.LVL1:
  93:Generated_Source\PSoC6\pdl\drivers\peripheral\profile/cy_profile.c **** 
  94:Generated_Source\PSoC6\pdl\drivers\peripheral\profile/cy_profile.c ****     /* scan through the overflow bits, i.e., for each counter */
  95:Generated_Source\PSoC6\pdl\drivers\peripheral\profile/cy_profile.c ****     for (ctr = 0UL; (ctr < (uint32_t)(CY_PROFILE_PRFL_CNT_NR)) && (ovflowBits != 0UL); ctr++)
  41              		.loc 1 95 0
  42 000a 002B     		cmp	r3, #0
  43 000c 49D0     		beq	.L1
  96:Generated_Source\PSoC6\pdl\drivers\peripheral\profile/cy_profile.c ****     {
  97:Generated_Source\PSoC6\pdl\drivers\peripheral\profile/cy_profile.c ****         /* Increment the overflow bit only if the counter is being used.
  98:Generated_Source\PSoC6\pdl\drivers\peripheral\profile/cy_profile.c ****            (which should always be the case.) */
  99:Generated_Source\PSoC6\pdl\drivers\peripheral\profile/cy_profile.c ****         if (((ovflowBits & 1UL) != 0UL) && (cy_ep_ctrs[ctr].used != 0u))
  44              		.loc 1 99 0
  45 000e DA07     		lsls	r2, r3, #31
  46 0010 05D5     		bpl	.L3
  47 0012 304A     		ldr	r2, .L84+4
  48 0014 5178     		ldrb	r1, [r2, #1]	@ zero_extendqisi2
  49 0016 11B1     		cbz	r1, .L3
 100:Generated_Source\PSoC6\pdl\drivers\peripheral\profile/cy_profile.c ****         {
 101:Generated_Source\PSoC6\pdl\drivers\peripheral\profile/cy_profile.c ****             cy_ep_ctrs[ctr].overflow++;
  50              		.loc 1 101 0
  51 0018 5169     		ldr	r1, [r2, #20]
  52 001a 0131     		adds	r1, r1, #1
  53 001c 5161     		str	r1, [r2, #20]
  54              	.L3:
  55              	.LVL2:
  95:Generated_Source\PSoC6\pdl\drivers\peripheral\profile/cy_profile.c ****     {
  56              		.loc 1 95 0
  57 001e 5B08     		lsrs	r3, r3, #1
  58              	.LVL3:
  59 0020 3FD0     		beq	.L1
  99:Generated_Source\PSoC6\pdl\drivers\peripheral\profile/cy_profile.c ****         {
  60              		.loc 1 99 0
  61 0022 D807     		lsls	r0, r3, #31
  62 0024 05D5     		bpl	.L5
  63 0026 2B4A     		ldr	r2, .L84+4
  64 0028 517F     		ldrb	r1, [r2, #29]	@ zero_extendqisi2
  65 002a 11B1     		cbz	r1, .L5
  66              		.loc 1 101 0
  67 002c 116B     		ldr	r1, [r2, #48]
  68 002e 0131     		adds	r1, r1, #1
ARM GAS  C:\Users\pearlstl\AppData\Local\Temp\ccnkLTaV.s 			page 4


  69 0030 1163     		str	r1, [r2, #48]
  70              	.L5:
  71              	.LVL4:
  95:Generated_Source\PSoC6\pdl\drivers\peripheral\profile/cy_profile.c ****     {
  72              		.loc 1 95 0
  73 0032 5B08     		lsrs	r3, r3, #1
  74              	.LVL5:
  75 0034 35D0     		beq	.L1
  99:Generated_Source\PSoC6\pdl\drivers\peripheral\profile/cy_profile.c ****         {
  76              		.loc 1 99 0
  77 0036 D907     		lsls	r1, r3, #31
  78 0038 06D5     		bpl	.L6
  79 003a 264A     		ldr	r2, .L84+4
  80 003c 92F83910 		ldrb	r1, [r2, #57]	@ zero_extendqisi2
  81 0040 11B1     		cbz	r1, .L6
  82              		.loc 1 101 0
  83 0042 D16C     		ldr	r1, [r2, #76]
  84 0044 0131     		adds	r1, r1, #1
  85 0046 D164     		str	r1, [r2, #76]
  86              	.L6:
  87              	.LVL6:
  95:Generated_Source\PSoC6\pdl\drivers\peripheral\profile/cy_profile.c ****     {
  88              		.loc 1 95 0
  89 0048 5B08     		lsrs	r3, r3, #1
  90              	.LVL7:
  91 004a 2AD0     		beq	.L1
  99:Generated_Source\PSoC6\pdl\drivers\peripheral\profile/cy_profile.c ****         {
  92              		.loc 1 99 0
  93 004c DA07     		lsls	r2, r3, #31
  94 004e 06D5     		bpl	.L7
  95 0050 204A     		ldr	r2, .L84+4
  96 0052 92F85510 		ldrb	r1, [r2, #85]	@ zero_extendqisi2
  97 0056 11B1     		cbz	r1, .L7
  98              		.loc 1 101 0
  99 0058 916E     		ldr	r1, [r2, #104]
 100 005a 0131     		adds	r1, r1, #1
 101 005c 9166     		str	r1, [r2, #104]
 102              	.L7:
 103              	.LVL8:
  95:Generated_Source\PSoC6\pdl\drivers\peripheral\profile/cy_profile.c ****     {
 104              		.loc 1 95 0
 105 005e 5B08     		lsrs	r3, r3, #1
 106              	.LVL9:
 107 0060 1FD0     		beq	.L1
  99:Generated_Source\PSoC6\pdl\drivers\peripheral\profile/cy_profile.c ****         {
 108              		.loc 1 99 0
 109 0062 D807     		lsls	r0, r3, #31
 110 0064 08D5     		bpl	.L8
 111 0066 1B4A     		ldr	r2, .L84+4
 112 0068 92F87110 		ldrb	r1, [r2, #113]	@ zero_extendqisi2
 113 006c 21B1     		cbz	r1, .L8
 114              		.loc 1 101 0
 115 006e D2F88410 		ldr	r1, [r2, #132]
 116 0072 0131     		adds	r1, r1, #1
 117 0074 C2F88410 		str	r1, [r2, #132]
 118              	.L8:
 119              	.LVL10:
ARM GAS  C:\Users\pearlstl\AppData\Local\Temp\ccnkLTaV.s 			page 5


  95:Generated_Source\PSoC6\pdl\drivers\peripheral\profile/cy_profile.c ****     {
 120              		.loc 1 95 0
 121 0078 5B08     		lsrs	r3, r3, #1
 122              	.LVL11:
 123 007a 12D0     		beq	.L1
  99:Generated_Source\PSoC6\pdl\drivers\peripheral\profile/cy_profile.c ****         {
 124              		.loc 1 99 0
 125 007c D907     		lsls	r1, r3, #31
 126 007e 11D4     		bmi	.L82
 127              	.L9:
 128              	.LVL12:
  95:Generated_Source\PSoC6\pdl\drivers\peripheral\profile/cy_profile.c ****     {
 129              		.loc 1 95 0
 130 0080 5B08     		lsrs	r3, r3, #1
 131              	.LVL13:
 132 0082 0ED0     		beq	.L1
  99:Generated_Source\PSoC6\pdl\drivers\peripheral\profile/cy_profile.c ****         {
 133              		.loc 1 99 0
 134 0084 DA07     		lsls	r2, r3, #31
 135 0086 18D4     		bmi	.L83
 136              	.L10:
 137              	.LVL14:
  95:Generated_Source\PSoC6\pdl\drivers\peripheral\profile/cy_profile.c ****     {
 138              		.loc 1 95 0
 139 0088 5B08     		lsrs	r3, r3, #1
 140              	.LVL15:
 141 008a 0AD0     		beq	.L1
  99:Generated_Source\PSoC6\pdl\drivers\peripheral\profile/cy_profile.c ****         {
 142              		.loc 1 99 0
 143 008c DB07     		lsls	r3, r3, #31
 144              	.LVL16:
 145 008e 08D5     		bpl	.L1
  99:Generated_Source\PSoC6\pdl\drivers\peripheral\profile/cy_profile.c ****         {
 146              		.loc 1 99 0 is_stmt 0 discriminator 1
 147 0090 104B     		ldr	r3, .L84+4
 148 0092 93F8C520 		ldrb	r2, [r3, #197]	@ zero_extendqisi2
 149 0096 22B1     		cbz	r2, .L1
 150              		.loc 1 101 0 is_stmt 1
 151 0098 D3F8D820 		ldr	r2, [r3, #216]
 152 009c 0132     		adds	r2, r2, #1
 153 009e C3F8D820 		str	r2, [r3, #216]
 154              	.LVL17:
 155              	.L1:
 156 00a2 7047     		bx	lr
 157              	.LVL18:
 158              	.L82:
  99:Generated_Source\PSoC6\pdl\drivers\peripheral\profile/cy_profile.c ****         {
 159              		.loc 1 99 0
 160 00a4 0B4A     		ldr	r2, .L84+4
 161 00a6 92F88D10 		ldrb	r1, [r2, #141]	@ zero_extendqisi2
 162 00aa 0029     		cmp	r1, #0
 163 00ac E8D0     		beq	.L9
 164              		.loc 1 101 0
 165 00ae D2F8A010 		ldr	r1, [r2, #160]
 166 00b2 0131     		adds	r1, r1, #1
 167 00b4 C2F8A010 		str	r1, [r2, #160]
 168 00b8 E2E7     		b	.L9
ARM GAS  C:\Users\pearlstl\AppData\Local\Temp\ccnkLTaV.s 			page 6


 169              	.LVL19:
 170              	.L83:
  99:Generated_Source\PSoC6\pdl\drivers\peripheral\profile/cy_profile.c ****         {
 171              		.loc 1 99 0
 172 00ba 064A     		ldr	r2, .L84+4
 173 00bc 92F8A910 		ldrb	r1, [r2, #169]	@ zero_extendqisi2
 174 00c0 0029     		cmp	r1, #0
 175 00c2 E1D0     		beq	.L10
 176              		.loc 1 101 0
 177 00c4 D2F8BC10 		ldr	r1, [r2, #188]
 178 00c8 0131     		adds	r1, r1, #1
 179 00ca C2F8BC10 		str	r1, [r2, #188]
 180 00ce DBE7     		b	.L10
 181              	.L85:
 182              		.align	2
 183              	.L84:
 184 00d0 00002D40 		.word	1076690944
 185 00d4 00000000 		.word	.LANCHOR0
 186              		.cfi_endproc
 187              	.LFE138:
 188              		.size	Cy_Profile_ISR, .-Cy_Profile_ISR
 189              		.section	.text.Cy_Profile_StartProfiling,"ax",%progbits
 190              		.align	2
 191              		.global	Cy_Profile_StartProfiling
 192              		.thumb
 193              		.thumb_func
 194              		.type	Cy_Profile_StartProfiling, %function
 195              	Cy_Profile_StartProfiling:
 196              	.LFB139:
 102:Generated_Source\PSoC6\pdl\drivers\peripheral\profile/cy_profile.c ****         }
 103:Generated_Source\PSoC6\pdl\drivers\peripheral\profile/cy_profile.c ****         ovflowBits >>= 1; /* check the next bit, by shifting it into the LS position */
 104:Generated_Source\PSoC6\pdl\drivers\peripheral\profile/cy_profile.c ****     }
 105:Generated_Source\PSoC6\pdl\drivers\peripheral\profile/cy_profile.c **** }
 106:Generated_Source\PSoC6\pdl\drivers\peripheral\profile/cy_profile.c **** 
 107:Generated_Source\PSoC6\pdl\drivers\peripheral\profile/cy_profile.c **** 
 108:Generated_Source\PSoC6\pdl\drivers\peripheral\profile/cy_profile.c **** /* ========================================================================== */
 109:Generated_Source\PSoC6\pdl\drivers\peripheral\profile/cy_profile.c **** /* ==================      GENERAL PROFILE FUNCTIONS     ==================== */
 110:Generated_Source\PSoC6\pdl\drivers\peripheral\profile/cy_profile.c **** /* ========================================================================== */
 111:Generated_Source\PSoC6\pdl\drivers\peripheral\profile/cy_profile.c **** /*******************************************************************************
 112:Generated_Source\PSoC6\pdl\drivers\peripheral\profile/cy_profile.c **** * Function Name: Cy_Profile_StartProfiling
 113:Generated_Source\PSoC6\pdl\drivers\peripheral\profile/cy_profile.c **** ****************************************************************************//**
 114:Generated_Source\PSoC6\pdl\drivers\peripheral\profile/cy_profile.c **** *
 115:Generated_Source\PSoC6\pdl\drivers\peripheral\profile/cy_profile.c **** * Starts the profiling/measurement window.
 116:Generated_Source\PSoC6\pdl\drivers\peripheral\profile/cy_profile.c **** *
 117:Generated_Source\PSoC6\pdl\drivers\peripheral\profile/cy_profile.c **** * This operation allows the enabled profile counters to start counting.
 118:Generated_Source\PSoC6\pdl\drivers\peripheral\profile/cy_profile.c **** *
 119:Generated_Source\PSoC6\pdl\drivers\peripheral\profile/cy_profile.c **** * \note The profile interrupt should be enabled before calling this function
 120:Generated_Source\PSoC6\pdl\drivers\peripheral\profile/cy_profile.c **** * for the firmware to be notified when a counter overflow occurs.
 121:Generated_Source\PSoC6\pdl\drivers\peripheral\profile/cy_profile.c **** *
 122:Generated_Source\PSoC6\pdl\drivers\peripheral\profile/cy_profile.c **** * \funcusage
 123:Generated_Source\PSoC6\pdl\drivers\peripheral\profile/cy_profile.c **** * \snippet profile/profile_v1_0_sut_01.cydsn/main_cm4.c snippet_Cy_Profile_StartProfiling
 124:Generated_Source\PSoC6\pdl\drivers\peripheral\profile/cy_profile.c **** *
 125:Generated_Source\PSoC6\pdl\drivers\peripheral\profile/cy_profile.c **** *******************************************************************************/
 126:Generated_Source\PSoC6\pdl\drivers\peripheral\profile/cy_profile.c **** void Cy_Profile_StartProfiling(void)
 127:Generated_Source\PSoC6\pdl\drivers\peripheral\profile/cy_profile.c **** {
 197              		.loc 1 127 0
 198              		.cfi_startproc
ARM GAS  C:\Users\pearlstl\AppData\Local\Temp\ccnkLTaV.s 			page 7


 199              		@ args = 0, pretend = 0, frame = 0
 200              		@ frame_needed = 0, uses_anonymous_args = 0
 201              		@ link register save eliminated.
 202              	.LVL20:
 128:Generated_Source\PSoC6\pdl\drivers\peripheral\profile/cy_profile.c ****     uint32_t i;
 129:Generated_Source\PSoC6\pdl\drivers\peripheral\profile/cy_profile.c **** 
 130:Generated_Source\PSoC6\pdl\drivers\peripheral\profile/cy_profile.c ****     /* clear all of the counter array overflow variables */
 131:Generated_Source\PSoC6\pdl\drivers\peripheral\profile/cy_profile.c ****     for (i = 0UL; i < CY_N_ELMTS(cy_ep_ctrs); cy_ep_ctrs[i++].overflow = 0UL){}
 203              		.loc 1 131 0
 204 0000 084B     		ldr	r3, .L87
 132:Generated_Source\PSoC6\pdl\drivers\peripheral\profile/cy_profile.c ****     /* send the hardware command */
 133:Generated_Source\PSoC6\pdl\drivers\peripheral\profile/cy_profile.c ****     PROFILE_CMD = CY_PROFILE_START_TR;
 205              		.loc 1 133 0
 206 0002 0949     		ldr	r1, .L87+4
 131:Generated_Source\PSoC6\pdl\drivers\peripheral\profile/cy_profile.c ****     /* send the hardware command */
 207              		.loc 1 131 0
 208 0004 0022     		movs	r2, #0
 209              		.loc 1 133 0
 210 0006 0120     		movs	r0, #1
 131:Generated_Source\PSoC6\pdl\drivers\peripheral\profile/cy_profile.c ****     /* send the hardware command */
 211              		.loc 1 131 0
 212 0008 5A61     		str	r2, [r3, #20]
 213              	.LVL21:
 214 000a 1A63     		str	r2, [r3, #48]
 215              	.LVL22:
 216 000c DA64     		str	r2, [r3, #76]
 217              	.LVL23:
 218 000e 9A66     		str	r2, [r3, #104]
 219              	.LVL24:
 220 0010 C3F88420 		str	r2, [r3, #132]
 221              	.LVL25:
 222 0014 C3F8A020 		str	r2, [r3, #160]
 223              	.LVL26:
 224 0018 C3F8BC20 		str	r2, [r3, #188]
 225              	.LVL27:
 226 001c C3F8D820 		str	r2, [r3, #216]
 227              		.loc 1 133 0
 228 0020 0861     		str	r0, [r1, #16]
 229 0022 7047     		bx	lr
 230              	.L88:
 231              		.align	2
 232              	.L87:
 233 0024 00000000 		.word	.LANCHOR0
 234 0028 00002D40 		.word	1076690944
 235              		.cfi_endproc
 236              	.LFE139:
 237              		.size	Cy_Profile_StartProfiling, .-Cy_Profile_StartProfiling
 238              		.section	.text.Cy_Profile_ClearConfiguration,"ax",%progbits
 239              		.align	2
 240              		.global	Cy_Profile_ClearConfiguration
 241              		.thumb
 242              		.thumb_func
 243              		.type	Cy_Profile_ClearConfiguration, %function
 244              	Cy_Profile_ClearConfiguration:
 245              	.LFB140:
 134:Generated_Source\PSoC6\pdl\drivers\peripheral\profile/cy_profile.c **** }
 135:Generated_Source\PSoC6\pdl\drivers\peripheral\profile/cy_profile.c **** 
ARM GAS  C:\Users\pearlstl\AppData\Local\Temp\ccnkLTaV.s 			page 8


 136:Generated_Source\PSoC6\pdl\drivers\peripheral\profile/cy_profile.c **** 
 137:Generated_Source\PSoC6\pdl\drivers\peripheral\profile/cy_profile.c **** /* ========================================================================== */
 138:Generated_Source\PSoC6\pdl\drivers\peripheral\profile/cy_profile.c **** /* ===================    COUNTER FUNCTIONS SECTION    ====================== */
 139:Generated_Source\PSoC6\pdl\drivers\peripheral\profile/cy_profile.c **** /* ========================================================================== */
 140:Generated_Source\PSoC6\pdl\drivers\peripheral\profile/cy_profile.c **** /*******************************************************************************
 141:Generated_Source\PSoC6\pdl\drivers\peripheral\profile/cy_profile.c **** * Function Name: Cy_Profile_ClearConfiguration
 142:Generated_Source\PSoC6\pdl\drivers\peripheral\profile/cy_profile.c **** ****************************************************************************//**
 143:Generated_Source\PSoC6\pdl\drivers\peripheral\profile/cy_profile.c **** *
 144:Generated_Source\PSoC6\pdl\drivers\peripheral\profile/cy_profile.c **** * Clears all counter configurations and sets all counters and overflow counters 
 145:Generated_Source\PSoC6\pdl\drivers\peripheral\profile/cy_profile.c **** * to 0. Calls Cy_Profile_ClearCounters() to clear counter registers.
 146:Generated_Source\PSoC6\pdl\drivers\peripheral\profile/cy_profile.c **** *
 147:Generated_Source\PSoC6\pdl\drivers\peripheral\profile/cy_profile.c **** * \funcusage
 148:Generated_Source\PSoC6\pdl\drivers\peripheral\profile/cy_profile.c **** * \snippet profile/profile_v1_0_sut_01.cydsn/main_cm4.c snippet_Cy_Profile_ClearConfiguration
 149:Generated_Source\PSoC6\pdl\drivers\peripheral\profile/cy_profile.c **** *
 150:Generated_Source\PSoC6\pdl\drivers\peripheral\profile/cy_profile.c **** *******************************************************************************/
 151:Generated_Source\PSoC6\pdl\drivers\peripheral\profile/cy_profile.c **** void Cy_Profile_ClearConfiguration(void)
 152:Generated_Source\PSoC6\pdl\drivers\peripheral\profile/cy_profile.c **** {
 246              		.loc 1 152 0
 247              		.cfi_startproc
 248              		@ args = 0, pretend = 0, frame = 0
 249              		@ frame_needed = 0, uses_anonymous_args = 0
 250 0000 08B5     		push	{r3, lr}
 251              		.cfi_def_cfa_offset 8
 252              		.cfi_offset 3, -8
 253              		.cfi_offset 14, -4
 153:Generated_Source\PSoC6\pdl\drivers\peripheral\profile/cy_profile.c ****     (void)memset((void *)cy_ep_ctrs, 0, sizeof(cy_ep_ctrs));
 254              		.loc 1 153 0
 255 0002 E022     		movs	r2, #224
 256 0004 0021     		movs	r1, #0
 257 0006 0448     		ldr	r0, .L91
 258 0008 FFF7FEFF 		bl	memset
 259              	.LVL28:
 260              	.LBB17:
 261              	.LBB18:
 262              		.file 2 "Generated_Source\\PSoC6\\pdl\\drivers\\peripheral\\profile\\cy_profile.h"
   1:Generated_Source\PSoC6\pdl\drivers\peripheral\profile/cy_profile.h **** /***************************************************************************//**
   2:Generated_Source\PSoC6\pdl\drivers\peripheral\profile/cy_profile.h **** * \file cy_profile.h
   3:Generated_Source\PSoC6\pdl\drivers\peripheral\profile/cy_profile.h **** * \version 1.10
   4:Generated_Source\PSoC6\pdl\drivers\peripheral\profile/cy_profile.h **** *
   5:Generated_Source\PSoC6\pdl\drivers\peripheral\profile/cy_profile.h **** * Provides an API declaration of the energy profiler driver.
   6:Generated_Source\PSoC6\pdl\drivers\peripheral\profile/cy_profile.h **** *
   7:Generated_Source\PSoC6\pdl\drivers\peripheral\profile/cy_profile.h **** ********************************************************************************
   8:Generated_Source\PSoC6\pdl\drivers\peripheral\profile/cy_profile.h **** * \copyright
   9:Generated_Source\PSoC6\pdl\drivers\peripheral\profile/cy_profile.h **** * Copyright 2016-2018, Cypress Semiconductor Corporation. All rights reserved.
  10:Generated_Source\PSoC6\pdl\drivers\peripheral\profile/cy_profile.h **** * You may use this file only in accordance with the license, terms, conditions,
  11:Generated_Source\PSoC6\pdl\drivers\peripheral\profile/cy_profile.h **** * disclaimers, and limitations in the end user license agreement accompanying
  12:Generated_Source\PSoC6\pdl\drivers\peripheral\profile/cy_profile.h **** * the software package with which this file was provided.
  13:Generated_Source\PSoC6\pdl\drivers\peripheral\profile/cy_profile.h **** *******************************************************************************/
  14:Generated_Source\PSoC6\pdl\drivers\peripheral\profile/cy_profile.h **** 
  15:Generated_Source\PSoC6\pdl\drivers\peripheral\profile/cy_profile.h **** /**
  16:Generated_Source\PSoC6\pdl\drivers\peripheral\profile/cy_profile.h **** * \addtogroup group_energy_profiler
  17:Generated_Source\PSoC6\pdl\drivers\peripheral\profile/cy_profile.h **** * \{
  18:Generated_Source\PSoC6\pdl\drivers\peripheral\profile/cy_profile.h **** * 
  19:Generated_Source\PSoC6\pdl\drivers\peripheral\profile/cy_profile.h **** * The energy profiler driver is an API for configuring and using the profile 
  20:Generated_Source\PSoC6\pdl\drivers\peripheral\profile/cy_profile.h **** * hardware block. 
  21:Generated_Source\PSoC6\pdl\drivers\peripheral\profile/cy_profile.h **** *
  22:Generated_Source\PSoC6\pdl\drivers\peripheral\profile/cy_profile.h **** * The functions and other declarations used in this driver are in cy_profile.h. 
ARM GAS  C:\Users\pearlstl\AppData\Local\Temp\ccnkLTaV.s 			page 9


  23:Generated_Source\PSoC6\pdl\drivers\peripheral\profile/cy_profile.h **** * You can include cy_pdl.h (ModusToolbox only) to get access to all functions 
  24:Generated_Source\PSoC6\pdl\drivers\peripheral\profile/cy_profile.h **** * and declarations in the PDL. 
  25:Generated_Source\PSoC6\pdl\drivers\peripheral\profile/cy_profile.h **** *
  26:Generated_Source\PSoC6\pdl\drivers\peripheral\profile/cy_profile.h **** * The profile block enables measurement of the signal activity
  27:Generated_Source\PSoC6\pdl\drivers\peripheral\profile/cy_profile.h **** * of select peripherals and monitor sources during a measurement window. Using
  28:Generated_Source\PSoC6\pdl\drivers\peripheral\profile/cy_profile.h **** * these measurements, you can construct a profile of the energy consumed
  29:Generated_Source\PSoC6\pdl\drivers\peripheral\profile/cy_profile.h **** * in the device by scaling the individual peripheral activities with appropriate
  30:Generated_Source\PSoC6\pdl\drivers\peripheral\profile/cy_profile.h **** * scaling (weight) factors. This gives the application the ability to monitor
  31:Generated_Source\PSoC6\pdl\drivers\peripheral\profile/cy_profile.h **** * the energy consumed by the internal resources with minimal CPU overhead and
  32:Generated_Source\PSoC6\pdl\drivers\peripheral\profile/cy_profile.h **** * without external monitoring hardware.
  33:Generated_Source\PSoC6\pdl\drivers\peripheral\profile/cy_profile.h **** *
  34:Generated_Source\PSoC6\pdl\drivers\peripheral\profile/cy_profile.h **** * \section group_profile_details Details
  35:Generated_Source\PSoC6\pdl\drivers\peripheral\profile/cy_profile.h **** *
  36:Generated_Source\PSoC6\pdl\drivers\peripheral\profile/cy_profile.h **** * \subsection group_profile_hardware Profile Hardware
  37:Generated_Source\PSoC6\pdl\drivers\peripheral\profile/cy_profile.h **** *
  38:Generated_Source\PSoC6\pdl\drivers\peripheral\profile/cy_profile.h **** * The profile hardware consists of a number of profile counters that accept specific
  39:Generated_Source\PSoC6\pdl\drivers\peripheral\profile/cy_profile.h **** * triggers for incrementing the count value. This allows the events of the source 
  40:Generated_Source\PSoC6\pdl\drivers\peripheral\profile/cy_profile.h **** * (such as the number of SCB0 bus accesses or the duration of time the BLE RX radio
  41:Generated_Source\PSoC6\pdl\drivers\peripheral\profile/cy_profile.h **** * is active) to be counted during the measurement window. The available monitor 
  42:Generated_Source\PSoC6\pdl\drivers\peripheral\profile/cy_profile.h **** * sources in the device can be found in the en_ep_mon_sel_t enum in the device 
  43:Generated_Source\PSoC6\pdl\drivers\peripheral\profile/cy_profile.h **** * configuration file (e.g. psoc62_config.h). These can be sourced to any of the
  44:Generated_Source\PSoC6\pdl\drivers\peripheral\profile/cy_profile.h **** * profile counters as triggers. There are two methods of using the monitor sources
  45:Generated_Source\PSoC6\pdl\drivers\peripheral\profile/cy_profile.h **** * in a profile counter.
  46:Generated_Source\PSoC6\pdl\drivers\peripheral\profile/cy_profile.h **** *
  47:Generated_Source\PSoC6\pdl\drivers\peripheral\profile/cy_profile.h **** * - Event: The count value is incremented when a pulse event signal is seen by the
  48:Generated_Source\PSoC6\pdl\drivers\peripheral\profile/cy_profile.h **** *   counter. This type of monitoring is suitable when the monitoring source of 
  49:Generated_Source\PSoC6\pdl\drivers\peripheral\profile/cy_profile.h **** *   interest needs to count the discrete events (such as the number of flash read 
  50:Generated_Source\PSoC6\pdl\drivers\peripheral\profile/cy_profile.h **** *   accesses) happening in the measurement window.
  51:Generated_Source\PSoC6\pdl\drivers\peripheral\profile/cy_profile.h **** *
  52:Generated_Source\PSoC6\pdl\drivers\peripheral\profile/cy_profile.h **** * - Duration: The count value is incremented at every clock edge while the monitor
  53:Generated_Source\PSoC6\pdl\drivers\peripheral\profile/cy_profile.h **** *   signal is high. This type of monitoring is suitable when a signal is active for
  54:Generated_Source\PSoC6\pdl\drivers\peripheral\profile/cy_profile.h **** *   a finite amount of time (such as the time the BLE TX radio is active) and the
  55:Generated_Source\PSoC6\pdl\drivers\peripheral\profile/cy_profile.h **** *   duration must be expressed as number of clock cycles in the measurement window.
  56:Generated_Source\PSoC6\pdl\drivers\peripheral\profile/cy_profile.h **** *
  57:Generated_Source\PSoC6\pdl\drivers\peripheral\profile/cy_profile.h **** * Many of the available monitor sources are suitable for event type monitoring.
  58:Generated_Source\PSoC6\pdl\drivers\peripheral\profile/cy_profile.h **** * Using a duration type on these signals may not give valuable information. Review 
  59:Generated_Source\PSoC6\pdl\drivers\peripheral\profile/cy_profile.h **** * the device TRM for more information on the monitor sources and detail on how they
  60:Generated_Source\PSoC6\pdl\drivers\peripheral\profile/cy_profile.h **** * should be used.
  61:Generated_Source\PSoC6\pdl\drivers\peripheral\profile/cy_profile.h **** *
  62:Generated_Source\PSoC6\pdl\drivers\peripheral\profile/cy_profile.h **** * \subsection group_profile_measurement_types Measurement Types
  63:Generated_Source\PSoC6\pdl\drivers\peripheral\profile/cy_profile.h **** *
  64:Generated_Source\PSoC6\pdl\drivers\peripheral\profile/cy_profile.h **** * Depending on the item of interest, energy measurement can be performed by using
  65:Generated_Source\PSoC6\pdl\drivers\peripheral\profile/cy_profile.h **** * the following methods.
  66:Generated_Source\PSoC6\pdl\drivers\peripheral\profile/cy_profile.h **** *
  67:Generated_Source\PSoC6\pdl\drivers\peripheral\profile/cy_profile.h **** * - Continuous measurement: A profile counter can be assigned a monitor signal of
  68:Generated_Source\PSoC6\pdl\drivers\peripheral\profile/cy_profile.h **** *   constant 1 (PROFILE_ONE), which sets the counter to increment at every (assigned)
  69:Generated_Source\PSoC6\pdl\drivers\peripheral\profile/cy_profile.h **** *   clock cycle. This can be used to give a reference time for the measurement window
  70:Generated_Source\PSoC6\pdl\drivers\peripheral\profile/cy_profile.h **** *   and also allows the construction of timestamps. For example, a software controlled
  71:Generated_Source\PSoC6\pdl\drivers\peripheral\profile/cy_profile.h **** *   GPIO can be "timestamped" by reading the counter value (on the fly) before it is
  72:Generated_Source\PSoC6\pdl\drivers\peripheral\profile/cy_profile.h **** *   toggled. When the measurement window ends, the energy contribution caused by the
  73:Generated_Source\PSoC6\pdl\drivers\peripheral\profile/cy_profile.h **** *   GPIO toggle can be incorporated into the final calculation.
  74:Generated_Source\PSoC6\pdl\drivers\peripheral\profile/cy_profile.h **** *
  75:Generated_Source\PSoC6\pdl\drivers\peripheral\profile/cy_profile.h **** * - Event measurement: Monitored events happening in a measurement window can be 
  76:Generated_Source\PSoC6\pdl\drivers\peripheral\profile/cy_profile.h **** *   used to increment a profile counter. This gives the activity numbers, which can
  77:Generated_Source\PSoC6\pdl\drivers\peripheral\profile/cy_profile.h **** *   then be multiplied by the instantaneous power numbers associated with the source
  78:Generated_Source\PSoC6\pdl\drivers\peripheral\profile/cy_profile.h **** *   to give the average energy consumption (Energy = Power x time). For example, the 
  79:Generated_Source\PSoC6\pdl\drivers\peripheral\profile/cy_profile.h **** *   energy consumed by an Operating System (OS) task can be estimated by monitoring
ARM GAS  C:\Users\pearlstl\AppData\Local\Temp\ccnkLTaV.s 			page 10


  80:Generated_Source\PSoC6\pdl\drivers\peripheral\profile/cy_profile.h **** *   the processor's active cycle count (E.g. CPUSS_MONITOR_CM4) and the flash read
  81:Generated_Source\PSoC6\pdl\drivers\peripheral\profile/cy_profile.h **** *   accesses (CPUSS_MONITOR_FLASH). Note that these activity numbers can also be 
  82:Generated_Source\PSoC6\pdl\drivers\peripheral\profile/cy_profile.h **** *   timestamped using the continuous measurement method to differentiate between the
  83:Generated_Source\PSoC6\pdl\drivers\peripheral\profile/cy_profile.h **** *   different task switches. The activity numbers are then multiplied by the associated
  84:Generated_Source\PSoC6\pdl\drivers\peripheral\profile/cy_profile.h **** *   processor and flash access power numbers to give the average energy consumed by
  85:Generated_Source\PSoC6\pdl\drivers\peripheral\profile/cy_profile.h **** *   that task.
  86:Generated_Source\PSoC6\pdl\drivers\peripheral\profile/cy_profile.h **** *
  87:Generated_Source\PSoC6\pdl\drivers\peripheral\profile/cy_profile.h **** * - Duration measurement: A peripheral event such as the SMIF select signal can be 
  88:Generated_Source\PSoC6\pdl\drivers\peripheral\profile/cy_profile.h **** *   used by a profile counter to measure the time spent on XIP communication through the 
  89:Generated_Source\PSoC6\pdl\drivers\peripheral\profile/cy_profile.h **** *   SPI interface. This activity number can then be multiplied by the power associated
  90:Generated_Source\PSoC6\pdl\drivers\peripheral\profile/cy_profile.h **** *   with that activity to give the average energy consumed by that block during the
  91:Generated_Source\PSoC6\pdl\drivers\peripheral\profile/cy_profile.h **** *   measurement window. This type of monitoring should be performed only for signals
  92:Generated_Source\PSoC6\pdl\drivers\peripheral\profile/cy_profile.h **** *   that are difficult to track in software. For example, a combination of interrupts
  93:Generated_Source\PSoC6\pdl\drivers\peripheral\profile/cy_profile.h **** *   and timestamps can be used to track the activity of many peripherals in a continuous
  94:Generated_Source\PSoC6\pdl\drivers\peripheral\profile/cy_profile.h **** *   monitoring model. However tracking the activity of signals such the BLE radio
  95:Generated_Source\PSoC6\pdl\drivers\peripheral\profile/cy_profile.h **** *   should be done using the duration measurement method.
  96:Generated_Source\PSoC6\pdl\drivers\peripheral\profile/cy_profile.h **** *
  97:Generated_Source\PSoC6\pdl\drivers\peripheral\profile/cy_profile.h **** * - Low power measurement: The profile counters do not support measurement during chip 
  98:Generated_Source\PSoC6\pdl\drivers\peripheral\profile/cy_profile.h **** *   Deep Sleep, Hibernate, and off states. I.e. the profile counters are meant for active
  99:Generated_Source\PSoC6\pdl\drivers\peripheral\profile/cy_profile.h **** *   run-time measurements only. To measure the time spent in low power modes (LPM),
 100:Generated_Source\PSoC6\pdl\drivers\peripheral\profile/cy_profile.h **** *   a real-time clock (RTC) should be used. Take a timestamp before LPM entry and a 
 101:Generated_Source\PSoC6\pdl\drivers\peripheral\profile/cy_profile.h **** *   timestamp upon LPM exit in a continuous measurement model. Then multiply the difference
 102:Generated_Source\PSoC6\pdl\drivers\peripheral\profile/cy_profile.h **** *   by the appropriate LPM power numbers.
 103:Generated_Source\PSoC6\pdl\drivers\peripheral\profile/cy_profile.h **** *
 104:Generated_Source\PSoC6\pdl\drivers\peripheral\profile/cy_profile.h **** * \subsection group_profile_usage Driver Usage
 105:Generated_Source\PSoC6\pdl\drivers\peripheral\profile/cy_profile.h **** *
 106:Generated_Source\PSoC6\pdl\drivers\peripheral\profile/cy_profile.h **** * At the highest level, the energy profiler must perform the following steps to 
 107:Generated_Source\PSoC6\pdl\drivers\peripheral\profile/cy_profile.h **** * obtain a measurement:
 108:Generated_Source\PSoC6\pdl\drivers\peripheral\profile/cy_profile.h **** *
 109:Generated_Source\PSoC6\pdl\drivers\peripheral\profile/cy_profile.h **** *  1. Initialize the profile hardware block.
 110:Generated_Source\PSoC6\pdl\drivers\peripheral\profile/cy_profile.h **** *  2. Initialize the profile interrupt (profile_interrupt_IRQn).
 111:Generated_Source\PSoC6\pdl\drivers\peripheral\profile/cy_profile.h **** *  3. Configure, initialize, and enable the profile counters.
 112:Generated_Source\PSoC6\pdl\drivers\peripheral\profile/cy_profile.h **** *  4. Enable the profile interrupt and start the profiling/measurement window.
 113:Generated_Source\PSoC6\pdl\drivers\peripheral\profile/cy_profile.h **** *  5. Perform run-time reads of the counters (if needed).
 114:Generated_Source\PSoC6\pdl\drivers\peripheral\profile/cy_profile.h **** *  6. Disable the profile interrupt and stop the profiling/measurement window.
 115:Generated_Source\PSoC6\pdl\drivers\peripheral\profile/cy_profile.h **** *  7. Read the counters and gather the results.
 116:Generated_Source\PSoC6\pdl\drivers\peripheral\profile/cy_profile.h **** *  8. Calculate the energy consumption.
 117:Generated_Source\PSoC6\pdl\drivers\peripheral\profile/cy_profile.h **** *
 118:Generated_Source\PSoC6\pdl\drivers\peripheral\profile/cy_profile.h **** * Refer to the SysInt driver on the details of configuring the profile hardware interrupt.
 119:Generated_Source\PSoC6\pdl\drivers\peripheral\profile/cy_profile.h **** *
 120:Generated_Source\PSoC6\pdl\drivers\peripheral\profile/cy_profile.h **** * The profile interrupt triggers when a counter overflow event is detected on any of the
 121:Generated_Source\PSoC6\pdl\drivers\peripheral\profile/cy_profile.h **** * enabled profile counters. A sample interrupt service routine Cy_Profile_ISR() is provided,
 122:Generated_Source\PSoC6\pdl\drivers\peripheral\profile/cy_profile.h **** * which can be used to update the internal counter states stored in RAM. Refer to the
 123:Generated_Source\PSoC6\pdl\drivers\peripheral\profile/cy_profile.h **** * Configuration Considerations for more information.
 124:Generated_Source\PSoC6\pdl\drivers\peripheral\profile/cy_profile.h **** *
 125:Generated_Source\PSoC6\pdl\drivers\peripheral\profile/cy_profile.h **** * \section group_profile_configuration Configuration Considerations
 126:Generated_Source\PSoC6\pdl\drivers\peripheral\profile/cy_profile.h **** * 
 127:Generated_Source\PSoC6\pdl\drivers\peripheral\profile/cy_profile.h **** * Each counter is a 32-bit register that counts either a number of clock cycles, 
 128:Generated_Source\PSoC6\pdl\drivers\peripheral\profile/cy_profile.h **** * or a number of events. Overflowing the 32-bit register is possible. To address
 129:Generated_Source\PSoC6\pdl\drivers\peripheral\profile/cy_profile.h **** * this issue, the driver implements a 32-bit overflow counter. Combined with the 32-bit
 130:Generated_Source\PSoC6\pdl\drivers\peripheral\profile/cy_profile.h **** * register, this gives a 64-bit counter for each monitored source. 
 131:Generated_Source\PSoC6\pdl\drivers\peripheral\profile/cy_profile.h **** *
 132:Generated_Source\PSoC6\pdl\drivers\peripheral\profile/cy_profile.h **** * When an overflow occurs, the profile hardware generates an interrupt. The interrupt is 
 133:Generated_Source\PSoC6\pdl\drivers\peripheral\profile/cy_profile.h **** * configured using the SysInt driver, where the sample interrupt handler Cy_Profile_ISR()
 134:Generated_Source\PSoC6\pdl\drivers\peripheral\profile/cy_profile.h **** * can be used as the ISR. The ISR increments the overflow counter for each profiling counter 
 135:Generated_Source\PSoC6\pdl\drivers\peripheral\profile/cy_profile.h **** * and clears the interrupt.
 136:Generated_Source\PSoC6\pdl\drivers\peripheral\profile/cy_profile.h **** *
ARM GAS  C:\Users\pearlstl\AppData\Local\Temp\ccnkLTaV.s 			page 11


 137:Generated_Source\PSoC6\pdl\drivers\peripheral\profile/cy_profile.h **** * \section group_profile_more_information More Information
 138:Generated_Source\PSoC6\pdl\drivers\peripheral\profile/cy_profile.h **** *
 139:Generated_Source\PSoC6\pdl\drivers\peripheral\profile/cy_profile.h **** * See the profiler chapter of the device technical reference manual (TRM).
 140:Generated_Source\PSoC6\pdl\drivers\peripheral\profile/cy_profile.h **** *
 141:Generated_Source\PSoC6\pdl\drivers\peripheral\profile/cy_profile.h **** * \section group_profile_MISRA MISRA-C Compliance
 142:Generated_Source\PSoC6\pdl\drivers\peripheral\profile/cy_profile.h **** * <table class="doxtable">
 143:Generated_Source\PSoC6\pdl\drivers\peripheral\profile/cy_profile.h **** *   <tr>
 144:Generated_Source\PSoC6\pdl\drivers\peripheral\profile/cy_profile.h **** *     <th>MISRA Rule</th>
 145:Generated_Source\PSoC6\pdl\drivers\peripheral\profile/cy_profile.h **** *     <th>Rule Class (Required/Advisory)</th>
 146:Generated_Source\PSoC6\pdl\drivers\peripheral\profile/cy_profile.h **** *     <th>Rule Description</th>
 147:Generated_Source\PSoC6\pdl\drivers\peripheral\profile/cy_profile.h **** *     <th>Description of Deviation(s)</th>
 148:Generated_Source\PSoC6\pdl\drivers\peripheral\profile/cy_profile.h **** *   </tr>
 149:Generated_Source\PSoC6\pdl\drivers\peripheral\profile/cy_profile.h **** *   <tr>
 150:Generated_Source\PSoC6\pdl\drivers\peripheral\profile/cy_profile.h **** *     <td>12.4</td>
 151:Generated_Source\PSoC6\pdl\drivers\peripheral\profile/cy_profile.h **** *     <td>R</td>
 152:Generated_Source\PSoC6\pdl\drivers\peripheral\profile/cy_profile.h **** *     <td>Right hand operand of '&&' or '||' is an expression with possible side effects.</td>
 153:Generated_Source\PSoC6\pdl\drivers\peripheral\profile/cy_profile.h **** *     <td>Function-like macros are used to achieve more efficient code.</td>
 154:Generated_Source\PSoC6\pdl\drivers\peripheral\profile/cy_profile.h **** *   </tr>
 155:Generated_Source\PSoC6\pdl\drivers\peripheral\profile/cy_profile.h **** *   <tr>
 156:Generated_Source\PSoC6\pdl\drivers\peripheral\profile/cy_profile.h **** *     <td>16.7</td>
 157:Generated_Source\PSoC6\pdl\drivers\peripheral\profile/cy_profile.h **** *     <td>A</td>
 158:Generated_Source\PSoC6\pdl\drivers\peripheral\profile/cy_profile.h **** *     <td>A pointer parameter can be of type 'pointer to const'.</td>
 159:Generated_Source\PSoC6\pdl\drivers\peripheral\profile/cy_profile.h **** *     <td>The pointer is cast for comparison purposes and thus can't be a const.</td>
 160:Generated_Source\PSoC6\pdl\drivers\peripheral\profile/cy_profile.h **** *   </tr>
 161:Generated_Source\PSoC6\pdl\drivers\peripheral\profile/cy_profile.h **** * </table>
 162:Generated_Source\PSoC6\pdl\drivers\peripheral\profile/cy_profile.h **** *
 163:Generated_Source\PSoC6\pdl\drivers\peripheral\profile/cy_profile.h **** * \section group_profile_changelog Changelog
 164:Generated_Source\PSoC6\pdl\drivers\peripheral\profile/cy_profile.h **** * <table class="doxtable">
 165:Generated_Source\PSoC6\pdl\drivers\peripheral\profile/cy_profile.h **** *   <tr><th>Version</th><th>Changes</th><th>Reason for Change</th></tr>
 166:Generated_Source\PSoC6\pdl\drivers\peripheral\profile/cy_profile.h **** *   <tr>
 167:Generated_Source\PSoC6\pdl\drivers\peripheral\profile/cy_profile.h **** *     <td rowspan="3">1.10</td>
 168:Generated_Source\PSoC6\pdl\drivers\peripheral\profile/cy_profile.h **** *     <td>Flattened the organization of the driver source code into the single source directory and
 169:Generated_Source\PSoC6\pdl\drivers\peripheral\profile/cy_profile.h **** *     <td>Driver library directory-structure simplification.</td>
 170:Generated_Source\PSoC6\pdl\drivers\peripheral\profile/cy_profile.h **** *   </tr>
 171:Generated_Source\PSoC6\pdl\drivers\peripheral\profile/cy_profile.h **** *   <tr>
 172:Generated_Source\PSoC6\pdl\drivers\peripheral\profile/cy_profile.h **** *     <td>Added register access layer. Use register access macros instead
 173:Generated_Source\PSoC6\pdl\drivers\peripheral\profile/cy_profile.h **** *         of direct register access using dereferenced pointers.</td>
 174:Generated_Source\PSoC6\pdl\drivers\peripheral\profile/cy_profile.h **** *     <td>Makes register access device-independent, so that the PDL does 
 175:Generated_Source\PSoC6\pdl\drivers\peripheral\profile/cy_profile.h **** *         not need to be recompiled for each supported part number.</td>
 176:Generated_Source\PSoC6\pdl\drivers\peripheral\profile/cy_profile.h **** *   </tr>
 177:Generated_Source\PSoC6\pdl\drivers\peripheral\profile/cy_profile.h **** *   <tr>
 178:Generated_Source\PSoC6\pdl\drivers\peripheral\profile/cy_profile.h **** *     <td>Added parameter check asserts.</td>
 179:Generated_Source\PSoC6\pdl\drivers\peripheral\profile/cy_profile.h **** *     <td>Driver defect fix.</td>
 180:Generated_Source\PSoC6\pdl\drivers\peripheral\profile/cy_profile.h **** *   </tr>
 181:Generated_Source\PSoC6\pdl\drivers\peripheral\profile/cy_profile.h **** *   <tr>
 182:Generated_Source\PSoC6\pdl\drivers\peripheral\profile/cy_profile.h **** *     <td>1.0</td>
 183:Generated_Source\PSoC6\pdl\drivers\peripheral\profile/cy_profile.h **** *     <td>Initial version</td>
 184:Generated_Source\PSoC6\pdl\drivers\peripheral\profile/cy_profile.h **** *     <td></td>
 185:Generated_Source\PSoC6\pdl\drivers\peripheral\profile/cy_profile.h **** *   </tr>
 186:Generated_Source\PSoC6\pdl\drivers\peripheral\profile/cy_profile.h **** * </table>
 187:Generated_Source\PSoC6\pdl\drivers\peripheral\profile/cy_profile.h **** *
 188:Generated_Source\PSoC6\pdl\drivers\peripheral\profile/cy_profile.h **** * \defgroup group_profile_macros Macros
 189:Generated_Source\PSoC6\pdl\drivers\peripheral\profile/cy_profile.h **** * \defgroup group_profile_functions Functions
 190:Generated_Source\PSoC6\pdl\drivers\peripheral\profile/cy_profile.h **** * \{
 191:Generated_Source\PSoC6\pdl\drivers\peripheral\profile/cy_profile.h **** *   \defgroup group_profile_functions_interrupt    Interrupt Functions
 192:Generated_Source\PSoC6\pdl\drivers\peripheral\profile/cy_profile.h **** *   \defgroup group_profile_functions_general      General Functions
 193:Generated_Source\PSoC6\pdl\drivers\peripheral\profile/cy_profile.h **** *   \defgroup group_profile_functions_counter      Counter Functions
ARM GAS  C:\Users\pearlstl\AppData\Local\Temp\ccnkLTaV.s 			page 12


 194:Generated_Source\PSoC6\pdl\drivers\peripheral\profile/cy_profile.h **** *   \defgroup group_profile_functions_calculation  Calculation Functions
 195:Generated_Source\PSoC6\pdl\drivers\peripheral\profile/cy_profile.h **** * \}
 196:Generated_Source\PSoC6\pdl\drivers\peripheral\profile/cy_profile.h **** * \defgroup group_profile_data_structures Data Structures
 197:Generated_Source\PSoC6\pdl\drivers\peripheral\profile/cy_profile.h **** * \defgroup group_profile_enums Enumerated Types
 198:Generated_Source\PSoC6\pdl\drivers\peripheral\profile/cy_profile.h **** */
 199:Generated_Source\PSoC6\pdl\drivers\peripheral\profile/cy_profile.h **** 
 200:Generated_Source\PSoC6\pdl\drivers\peripheral\profile/cy_profile.h **** #if !defined(CY_PROFILE_H)
 201:Generated_Source\PSoC6\pdl\drivers\peripheral\profile/cy_profile.h **** #define CY_PROFILE_H
 202:Generated_Source\PSoC6\pdl\drivers\peripheral\profile/cy_profile.h **** 
 203:Generated_Source\PSoC6\pdl\drivers\peripheral\profile/cy_profile.h **** #include "cy_device.h"
 204:Generated_Source\PSoC6\pdl\drivers\peripheral\profile/cy_profile.h **** #include "cy_device_headers.h"
 205:Generated_Source\PSoC6\pdl\drivers\peripheral\profile/cy_profile.h **** #include "cy_syslib.h"
 206:Generated_Source\PSoC6\pdl\drivers\peripheral\profile/cy_profile.h **** #include <stddef.h>
 207:Generated_Source\PSoC6\pdl\drivers\peripheral\profile/cy_profile.h **** 
 208:Generated_Source\PSoC6\pdl\drivers\peripheral\profile/cy_profile.h **** #ifdef CY_IP_MXPROFILE
 209:Generated_Source\PSoC6\pdl\drivers\peripheral\profile/cy_profile.h **** 
 210:Generated_Source\PSoC6\pdl\drivers\peripheral\profile/cy_profile.h **** #if defined(__cplusplus)
 211:Generated_Source\PSoC6\pdl\drivers\peripheral\profile/cy_profile.h **** extern "C" {
 212:Generated_Source\PSoC6\pdl\drivers\peripheral\profile/cy_profile.h **** #endif /* __cplusplus */
 213:Generated_Source\PSoC6\pdl\drivers\peripheral\profile/cy_profile.h **** 
 214:Generated_Source\PSoC6\pdl\drivers\peripheral\profile/cy_profile.h **** /** \addtogroup group_profile_macros
 215:Generated_Source\PSoC6\pdl\drivers\peripheral\profile/cy_profile.h **** * \{
 216:Generated_Source\PSoC6\pdl\drivers\peripheral\profile/cy_profile.h **** */
 217:Generated_Source\PSoC6\pdl\drivers\peripheral\profile/cy_profile.h **** 
 218:Generated_Source\PSoC6\pdl\drivers\peripheral\profile/cy_profile.h **** /** Driver major version */
 219:Generated_Source\PSoC6\pdl\drivers\peripheral\profile/cy_profile.h **** #define CY_PROFILE_DRV_VERSION_MAJOR  1
 220:Generated_Source\PSoC6\pdl\drivers\peripheral\profile/cy_profile.h **** 
 221:Generated_Source\PSoC6\pdl\drivers\peripheral\profile/cy_profile.h **** /** Driver minor version */
 222:Generated_Source\PSoC6\pdl\drivers\peripheral\profile/cy_profile.h **** #define CY_PROFILE_DRV_VERSION_MINOR  10
 223:Generated_Source\PSoC6\pdl\drivers\peripheral\profile/cy_profile.h **** 
 224:Generated_Source\PSoC6\pdl\drivers\peripheral\profile/cy_profile.h **** /** Profile driver identifier */
 225:Generated_Source\PSoC6\pdl\drivers\peripheral\profile/cy_profile.h **** #define CY_PROFILE_ID   CY_PDL_DRV_ID(0x1EU)
 226:Generated_Source\PSoC6\pdl\drivers\peripheral\profile/cy_profile.h **** 
 227:Generated_Source\PSoC6\pdl\drivers\peripheral\profile/cy_profile.h **** /** Start profiling command for the CMD register */
 228:Generated_Source\PSoC6\pdl\drivers\peripheral\profile/cy_profile.h **** #define CY_PROFILE_START_TR    1UL  
 229:Generated_Source\PSoC6\pdl\drivers\peripheral\profile/cy_profile.h **** 
 230:Generated_Source\PSoC6\pdl\drivers\peripheral\profile/cy_profile.h **** /** Stop profiling command for the CMD register */
 231:Generated_Source\PSoC6\pdl\drivers\peripheral\profile/cy_profile.h **** #define CY_PROFILE_STOP_TR     2UL  
 232:Generated_Source\PSoC6\pdl\drivers\peripheral\profile/cy_profile.h **** 
 233:Generated_Source\PSoC6\pdl\drivers\peripheral\profile/cy_profile.h **** /** Command to clear all counter registers to 0 */
 234:Generated_Source\PSoC6\pdl\drivers\peripheral\profile/cy_profile.h **** #define CY_PROFILE_CLR_ALL_CNT 0x100UL
 235:Generated_Source\PSoC6\pdl\drivers\peripheral\profile/cy_profile.h **** 
 236:Generated_Source\PSoC6\pdl\drivers\peripheral\profile/cy_profile.h **** /** \} group_profile_macros */
 237:Generated_Source\PSoC6\pdl\drivers\peripheral\profile/cy_profile.h **** 
 238:Generated_Source\PSoC6\pdl\drivers\peripheral\profile/cy_profile.h **** /***************************************
 239:Generated_Source\PSoC6\pdl\drivers\peripheral\profile/cy_profile.h **** *        Constants
 240:Generated_Source\PSoC6\pdl\drivers\peripheral\profile/cy_profile.h **** ***************************************/
 241:Generated_Source\PSoC6\pdl\drivers\peripheral\profile/cy_profile.h **** 
 242:Generated_Source\PSoC6\pdl\drivers\peripheral\profile/cy_profile.h **** /** \cond INTERNAL */
 243:Generated_Source\PSoC6\pdl\drivers\peripheral\profile/cy_profile.h **** 
 244:Generated_Source\PSoC6\pdl\drivers\peripheral\profile/cy_profile.h **** #define CY_PROFILE_PRFL_CNT_NR                  (8u)
 245:Generated_Source\PSoC6\pdl\drivers\peripheral\profile/cy_profile.h **** 
 246:Generated_Source\PSoC6\pdl\drivers\peripheral\profile/cy_profile.h **** /* Parameter check macros */
 247:Generated_Source\PSoC6\pdl\drivers\peripheral\profile/cy_profile.h **** #define CY_PROFILE_IS_MONITOR_VALID(monitor)    ((uint32_t)CY_EP_MONITOR_COUNT > ((uint32_t)(monito
 248:Generated_Source\PSoC6\pdl\drivers\peripheral\profile/cy_profile.h **** #define CY_PROFILE_IS_DURATION_VALID(duration)  (((duration) == CY_PROFILE_EVENT) || \
 249:Generated_Source\PSoC6\pdl\drivers\peripheral\profile/cy_profile.h ****                                                  ((duration) == CY_PROFILE_DURATION))
 250:Generated_Source\PSoC6\pdl\drivers\peripheral\profile/cy_profile.h **** #define CY_PROFILE_IS_REFCLK_VALID(refClk)      (((refClk) == CY_PROFILE_CLK_TIMER) || \
ARM GAS  C:\Users\pearlstl\AppData\Local\Temp\ccnkLTaV.s 			page 13


 251:Generated_Source\PSoC6\pdl\drivers\peripheral\profile/cy_profile.h ****                                                  ((refClk) == CY_PROFILE_CLK_IMO) || \
 252:Generated_Source\PSoC6\pdl\drivers\peripheral\profile/cy_profile.h ****                                                  ((refClk) == CY_PROFILE_CLK_ECO) || \
 253:Generated_Source\PSoC6\pdl\drivers\peripheral\profile/cy_profile.h ****                                                  ((refClk) == CY_PROFILE_CLK_LF) || \
 254:Generated_Source\PSoC6\pdl\drivers\peripheral\profile/cy_profile.h ****                                                  ((refClk) == CY_PROFILE_CLK_HF) || \
 255:Generated_Source\PSoC6\pdl\drivers\peripheral\profile/cy_profile.h ****                                                  ((refClk) == CY_PROFILE_CLK_PERI))
 256:Generated_Source\PSoC6\pdl\drivers\peripheral\profile/cy_profile.h **** #define CY_PROFILE_IS_CNT_VALID(numCounters)    ((uint32_t)CY_PROFILE_PRFL_CNT_NR > (numCounters))
 257:Generated_Source\PSoC6\pdl\drivers\peripheral\profile/cy_profile.h **** 
 258:Generated_Source\PSoC6\pdl\drivers\peripheral\profile/cy_profile.h **** /** \endcond */
 259:Generated_Source\PSoC6\pdl\drivers\peripheral\profile/cy_profile.h **** 
 260:Generated_Source\PSoC6\pdl\drivers\peripheral\profile/cy_profile.h **** /***************************************
 261:Generated_Source\PSoC6\pdl\drivers\peripheral\profile/cy_profile.h **** *        Enumerations
 262:Generated_Source\PSoC6\pdl\drivers\peripheral\profile/cy_profile.h **** ***************************************/
 263:Generated_Source\PSoC6\pdl\drivers\peripheral\profile/cy_profile.h **** 
 264:Generated_Source\PSoC6\pdl\drivers\peripheral\profile/cy_profile.h **** /**
 265:Generated_Source\PSoC6\pdl\drivers\peripheral\profile/cy_profile.h **** * \addtogroup group_profile_enums
 266:Generated_Source\PSoC6\pdl\drivers\peripheral\profile/cy_profile.h **** * \{
 267:Generated_Source\PSoC6\pdl\drivers\peripheral\profile/cy_profile.h **** */
 268:Generated_Source\PSoC6\pdl\drivers\peripheral\profile/cy_profile.h **** 
 269:Generated_Source\PSoC6\pdl\drivers\peripheral\profile/cy_profile.h **** /**
 270:Generated_Source\PSoC6\pdl\drivers\peripheral\profile/cy_profile.h **** * Profile counter reference clock source. Used when duration monitoring.
 271:Generated_Source\PSoC6\pdl\drivers\peripheral\profile/cy_profile.h **** */
 272:Generated_Source\PSoC6\pdl\drivers\peripheral\profile/cy_profile.h **** typedef enum 
 273:Generated_Source\PSoC6\pdl\drivers\peripheral\profile/cy_profile.h **** {
 274:Generated_Source\PSoC6\pdl\drivers\peripheral\profile/cy_profile.h ****     CY_PROFILE_CLK_TIMER  = 0, /**< Timer clock (TimerClk) */
 275:Generated_Source\PSoC6\pdl\drivers\peripheral\profile/cy_profile.h ****     CY_PROFILE_CLK_IMO    = 1, /**< Internal main oscillator (IMO) */
 276:Generated_Source\PSoC6\pdl\drivers\peripheral\profile/cy_profile.h ****     CY_PROFILE_CLK_ECO    = 2, /**< External crystal oscillator (ECO) */
 277:Generated_Source\PSoC6\pdl\drivers\peripheral\profile/cy_profile.h ****     CY_PROFILE_CLK_LF     = 3, /**< Low-frequency clock (LFCLK) */
 278:Generated_Source\PSoC6\pdl\drivers\peripheral\profile/cy_profile.h ****     CY_PROFILE_CLK_HF     = 4, /**< High-Frequency clock (HFCLK0) */
 279:Generated_Source\PSoC6\pdl\drivers\peripheral\profile/cy_profile.h ****     CY_PROFILE_CLK_PERI   = 5, /**< Peripheral clock (PeriClk) */
 280:Generated_Source\PSoC6\pdl\drivers\peripheral\profile/cy_profile.h **** } cy_en_profile_ref_clk_t;
 281:Generated_Source\PSoC6\pdl\drivers\peripheral\profile/cy_profile.h **** 
 282:Generated_Source\PSoC6\pdl\drivers\peripheral\profile/cy_profile.h **** /**
 283:Generated_Source\PSoC6\pdl\drivers\peripheral\profile/cy_profile.h **** * Monitor method type.
 284:Generated_Source\PSoC6\pdl\drivers\peripheral\profile/cy_profile.h **** */
 285:Generated_Source\PSoC6\pdl\drivers\peripheral\profile/cy_profile.h **** typedef enum 
 286:Generated_Source\PSoC6\pdl\drivers\peripheral\profile/cy_profile.h **** {
 287:Generated_Source\PSoC6\pdl\drivers\peripheral\profile/cy_profile.h ****     CY_PROFILE_EVENT    = 0,  /**< Count (edge-detected) module events  */
 288:Generated_Source\PSoC6\pdl\drivers\peripheral\profile/cy_profile.h ****     CY_PROFILE_DURATION = 1,  /**< Count (level) duration in clock cycles */
 289:Generated_Source\PSoC6\pdl\drivers\peripheral\profile/cy_profile.h **** } cy_en_profile_duration_t;
 290:Generated_Source\PSoC6\pdl\drivers\peripheral\profile/cy_profile.h **** 
 291:Generated_Source\PSoC6\pdl\drivers\peripheral\profile/cy_profile.h **** /** Profiler status codes */
 292:Generated_Source\PSoC6\pdl\drivers\peripheral\profile/cy_profile.h **** typedef enum 
 293:Generated_Source\PSoC6\pdl\drivers\peripheral\profile/cy_profile.h **** {
 294:Generated_Source\PSoC6\pdl\drivers\peripheral\profile/cy_profile.h ****     CY_PROFILE_SUCCESS = 0x00U,                                      /**< Operation completed succe
 295:Generated_Source\PSoC6\pdl\drivers\peripheral\profile/cy_profile.h ****     CY_PROFILE_BAD_PARAM = CY_PROFILE_ID | CY_PDL_STATUS_ERROR | 1UL /**< Invalid input parameters 
 296:Generated_Source\PSoC6\pdl\drivers\peripheral\profile/cy_profile.h **** 
 297:Generated_Source\PSoC6\pdl\drivers\peripheral\profile/cy_profile.h ****  } cy_en_profile_status_t;
 298:Generated_Source\PSoC6\pdl\drivers\peripheral\profile/cy_profile.h **** 
 299:Generated_Source\PSoC6\pdl\drivers\peripheral\profile/cy_profile.h ****  /** \} group_profile_enums */
 300:Generated_Source\PSoC6\pdl\drivers\peripheral\profile/cy_profile.h **** 
 301:Generated_Source\PSoC6\pdl\drivers\peripheral\profile/cy_profile.h **** /***************************************
 302:Generated_Source\PSoC6\pdl\drivers\peripheral\profile/cy_profile.h **** *       Configuration Structures
 303:Generated_Source\PSoC6\pdl\drivers\peripheral\profile/cy_profile.h **** ***************************************/
 304:Generated_Source\PSoC6\pdl\drivers\peripheral\profile/cy_profile.h **** 
 305:Generated_Source\PSoC6\pdl\drivers\peripheral\profile/cy_profile.h **** /**
 306:Generated_Source\PSoC6\pdl\drivers\peripheral\profile/cy_profile.h **** * \addtogroup group_profile_data_structures
 307:Generated_Source\PSoC6\pdl\drivers\peripheral\profile/cy_profile.h **** * \{
ARM GAS  C:\Users\pearlstl\AppData\Local\Temp\ccnkLTaV.s 			page 14


 308:Generated_Source\PSoC6\pdl\drivers\peripheral\profile/cy_profile.h **** */
 309:Generated_Source\PSoC6\pdl\drivers\peripheral\profile/cy_profile.h **** 
 310:Generated_Source\PSoC6\pdl\drivers\peripheral\profile/cy_profile.h **** /**
 311:Generated_Source\PSoC6\pdl\drivers\peripheral\profile/cy_profile.h **** * Profile counter control register structure. For each counter, holds the CTL register fields.
 312:Generated_Source\PSoC6\pdl\drivers\peripheral\profile/cy_profile.h **** */
 313:Generated_Source\PSoC6\pdl\drivers\peripheral\profile/cy_profile.h **** typedef struct
 314:Generated_Source\PSoC6\pdl\drivers\peripheral\profile/cy_profile.h **** {
 315:Generated_Source\PSoC6\pdl\drivers\peripheral\profile/cy_profile.h ****     cy_en_profile_duration_t  cntDuration; /**< 0 = event; 1 = duration */
 316:Generated_Source\PSoC6\pdl\drivers\peripheral\profile/cy_profile.h ****     cy_en_profile_ref_clk_t   refClkSel;   /**< The reference clock used by the counter */
 317:Generated_Source\PSoC6\pdl\drivers\peripheral\profile/cy_profile.h ****     en_ep_mon_sel_t           monSel;      /**< The monitor signal to be observed by the counter */
 318:Generated_Source\PSoC6\pdl\drivers\peripheral\profile/cy_profile.h **** } cy_stc_profile_ctr_ctl_t; 
 319:Generated_Source\PSoC6\pdl\drivers\peripheral\profile/cy_profile.h **** 
 320:Generated_Source\PSoC6\pdl\drivers\peripheral\profile/cy_profile.h **** /**
 321:Generated_Source\PSoC6\pdl\drivers\peripheral\profile/cy_profile.h **** * Software structure for holding a profile counter status and configuration information.
 322:Generated_Source\PSoC6\pdl\drivers\peripheral\profile/cy_profile.h **** */
 323:Generated_Source\PSoC6\pdl\drivers\peripheral\profile/cy_profile.h **** typedef struct
 324:Generated_Source\PSoC6\pdl\drivers\peripheral\profile/cy_profile.h **** {
 325:Generated_Source\PSoC6\pdl\drivers\peripheral\profile/cy_profile.h ****     uint8_t                   ctrNum;      /**< Profile counter number */ 
 326:Generated_Source\PSoC6\pdl\drivers\peripheral\profile/cy_profile.h ****     uint8_t                   used;        /**< 0 = available; 1 = used */
 327:Generated_Source\PSoC6\pdl\drivers\peripheral\profile/cy_profile.h ****     cy_stc_profile_ctr_ctl_t  ctlRegVals;  /**< Initial counter CTL register settings */
 328:Generated_Source\PSoC6\pdl\drivers\peripheral\profile/cy_profile.h ****     PROFILE_CNT_STRUCT_Type * cntAddr;     /**< Base address of the counter instance registers */
 329:Generated_Source\PSoC6\pdl\drivers\peripheral\profile/cy_profile.h ****     uint32_t                  ctlReg;      /**< Current CTL register value */
 330:Generated_Source\PSoC6\pdl\drivers\peripheral\profile/cy_profile.h ****     uint32_t                  cntReg;      /**< Current CNT register value */
 331:Generated_Source\PSoC6\pdl\drivers\peripheral\profile/cy_profile.h ****     uint32_t                  overflow;    /**< Extension of cntReg to form a 64-bit counter value 
 332:Generated_Source\PSoC6\pdl\drivers\peripheral\profile/cy_profile.h ****     uint32_t                  weight;      /**< Weighting factor for the counter */
 333:Generated_Source\PSoC6\pdl\drivers\peripheral\profile/cy_profile.h **** } cy_stc_profile_ctr_t;
 334:Generated_Source\PSoC6\pdl\drivers\peripheral\profile/cy_profile.h **** 
 335:Generated_Source\PSoC6\pdl\drivers\peripheral\profile/cy_profile.h **** /**
 336:Generated_Source\PSoC6\pdl\drivers\peripheral\profile/cy_profile.h **** * Pointer to a structure holding the status information for a profile counter.
 337:Generated_Source\PSoC6\pdl\drivers\peripheral\profile/cy_profile.h **** */
 338:Generated_Source\PSoC6\pdl\drivers\peripheral\profile/cy_profile.h **** typedef cy_stc_profile_ctr_t * cy_stc_profile_ctr_ptr_t;
 339:Generated_Source\PSoC6\pdl\drivers\peripheral\profile/cy_profile.h **** /** \} group_profile_data_structures */
 340:Generated_Source\PSoC6\pdl\drivers\peripheral\profile/cy_profile.h **** 
 341:Generated_Source\PSoC6\pdl\drivers\peripheral\profile/cy_profile.h **** /**
 342:Generated_Source\PSoC6\pdl\drivers\peripheral\profile/cy_profile.h **** * \addtogroup group_profile_functions
 343:Generated_Source\PSoC6\pdl\drivers\peripheral\profile/cy_profile.h **** * \{
 344:Generated_Source\PSoC6\pdl\drivers\peripheral\profile/cy_profile.h **** */
 345:Generated_Source\PSoC6\pdl\drivers\peripheral\profile/cy_profile.h **** 
 346:Generated_Source\PSoC6\pdl\drivers\peripheral\profile/cy_profile.h **** /**
 347:Generated_Source\PSoC6\pdl\drivers\peripheral\profile/cy_profile.h **** * \addtogroup group_profile_functions_interrupt
 348:Generated_Source\PSoC6\pdl\drivers\peripheral\profile/cy_profile.h **** * \{
 349:Generated_Source\PSoC6\pdl\drivers\peripheral\profile/cy_profile.h **** */
 350:Generated_Source\PSoC6\pdl\drivers\peripheral\profile/cy_profile.h **** /* ========================================================================== */
 351:Generated_Source\PSoC6\pdl\drivers\peripheral\profile/cy_profile.h **** /* ====================    INTERRUPT FUNCTION SECTION    ==================== */
 352:Generated_Source\PSoC6\pdl\drivers\peripheral\profile/cy_profile.h **** /* ========================================================================== */
 353:Generated_Source\PSoC6\pdl\drivers\peripheral\profile/cy_profile.h **** void Cy_Profile_ISR(void);
 354:Generated_Source\PSoC6\pdl\drivers\peripheral\profile/cy_profile.h **** /** \} group_profile_functions_interrupt */
 355:Generated_Source\PSoC6\pdl\drivers\peripheral\profile/cy_profile.h **** 
 356:Generated_Source\PSoC6\pdl\drivers\peripheral\profile/cy_profile.h **** /**
 357:Generated_Source\PSoC6\pdl\drivers\peripheral\profile/cy_profile.h **** * \addtogroup group_profile_functions_general
 358:Generated_Source\PSoC6\pdl\drivers\peripheral\profile/cy_profile.h **** * \{
 359:Generated_Source\PSoC6\pdl\drivers\peripheral\profile/cy_profile.h **** */
 360:Generated_Source\PSoC6\pdl\drivers\peripheral\profile/cy_profile.h **** __STATIC_INLINE void Cy_Profile_Init(void);
 361:Generated_Source\PSoC6\pdl\drivers\peripheral\profile/cy_profile.h **** __STATIC_INLINE void Cy_Profile_DeInit(void);
 362:Generated_Source\PSoC6\pdl\drivers\peripheral\profile/cy_profile.h ****                 void Cy_Profile_StartProfiling(void);
 363:Generated_Source\PSoC6\pdl\drivers\peripheral\profile/cy_profile.h **** __STATIC_INLINE void Cy_Profile_StopProfiling(void);
 364:Generated_Source\PSoC6\pdl\drivers\peripheral\profile/cy_profile.h **** __STATIC_INLINE uint32_t Cy_Profile_IsProfiling(void);
ARM GAS  C:\Users\pearlstl\AppData\Local\Temp\ccnkLTaV.s 			page 15


 365:Generated_Source\PSoC6\pdl\drivers\peripheral\profile/cy_profile.h **** 
 366:Generated_Source\PSoC6\pdl\drivers\peripheral\profile/cy_profile.h **** 
 367:Generated_Source\PSoC6\pdl\drivers\peripheral\profile/cy_profile.h **** /* ========================================================================== */
 368:Generated_Source\PSoC6\pdl\drivers\peripheral\profile/cy_profile.h **** /* ===============    GENERAL PROFILE FUNCTIONS SECTION     ================= */
 369:Generated_Source\PSoC6\pdl\drivers\peripheral\profile/cy_profile.h **** /* ========================================================================== */
 370:Generated_Source\PSoC6\pdl\drivers\peripheral\profile/cy_profile.h **** /*******************************************************************************
 371:Generated_Source\PSoC6\pdl\drivers\peripheral\profile/cy_profile.h **** * Function Name: Cy_Profile_Init
 372:Generated_Source\PSoC6\pdl\drivers\peripheral\profile/cy_profile.h **** ****************************************************************************//**
 373:Generated_Source\PSoC6\pdl\drivers\peripheral\profile/cy_profile.h **** *
 374:Generated_Source\PSoC6\pdl\drivers\peripheral\profile/cy_profile.h **** * Initializes and enables the profile hardware. 
 375:Generated_Source\PSoC6\pdl\drivers\peripheral\profile/cy_profile.h **** *
 376:Generated_Source\PSoC6\pdl\drivers\peripheral\profile/cy_profile.h **** * This function must be called once when energy profiling is desired. The 
 377:Generated_Source\PSoC6\pdl\drivers\peripheral\profile/cy_profile.h **** * operation does not start a profiling session.
 378:Generated_Source\PSoC6\pdl\drivers\peripheral\profile/cy_profile.h **** *
 379:Generated_Source\PSoC6\pdl\drivers\peripheral\profile/cy_profile.h **** * \note The profile interrupt must also be configured. \ref Cy_Profile_ISR() 
 380:Generated_Source\PSoC6\pdl\drivers\peripheral\profile/cy_profile.h **** * can be used as its handler.
 381:Generated_Source\PSoC6\pdl\drivers\peripheral\profile/cy_profile.h **** *
 382:Generated_Source\PSoC6\pdl\drivers\peripheral\profile/cy_profile.h **** * \funcusage
 383:Generated_Source\PSoC6\pdl\drivers\peripheral\profile/cy_profile.h **** * \snippet profile/profile_v1_0_sut_01.cydsn/main_cm4.c snippet_Cy_Profile_Init
 384:Generated_Source\PSoC6\pdl\drivers\peripheral\profile/cy_profile.h **** *
 385:Generated_Source\PSoC6\pdl\drivers\peripheral\profile/cy_profile.h **** *******************************************************************************/
 386:Generated_Source\PSoC6\pdl\drivers\peripheral\profile/cy_profile.h **** __STATIC_INLINE void Cy_Profile_Init(void)
 387:Generated_Source\PSoC6\pdl\drivers\peripheral\profile/cy_profile.h **** {
 388:Generated_Source\PSoC6\pdl\drivers\peripheral\profile/cy_profile.h ****     PROFILE_CTL = _VAL2FLD(PROFILE_CTL_ENABLED,  1UL/*enabled */) | 
 389:Generated_Source\PSoC6\pdl\drivers\peripheral\profile/cy_profile.h ****                   _VAL2FLD(PROFILE_CTL_WIN_MODE, 0UL/*start/stop mode*/);
 390:Generated_Source\PSoC6\pdl\drivers\peripheral\profile/cy_profile.h ****     PROFILE_INTR_MASK = 0UL; /* clear all counter interrupt mask bits */
 391:Generated_Source\PSoC6\pdl\drivers\peripheral\profile/cy_profile.h **** }
 392:Generated_Source\PSoC6\pdl\drivers\peripheral\profile/cy_profile.h **** 
 393:Generated_Source\PSoC6\pdl\drivers\peripheral\profile/cy_profile.h **** 
 394:Generated_Source\PSoC6\pdl\drivers\peripheral\profile/cy_profile.h **** /*******************************************************************************
 395:Generated_Source\PSoC6\pdl\drivers\peripheral\profile/cy_profile.h **** * Function Name: Cy_Profile_DeInit
 396:Generated_Source\PSoC6\pdl\drivers\peripheral\profile/cy_profile.h **** ****************************************************************************//**
 397:Generated_Source\PSoC6\pdl\drivers\peripheral\profile/cy_profile.h **** *
 398:Generated_Source\PSoC6\pdl\drivers\peripheral\profile/cy_profile.h **** * Clears the interrupt mask and disables the profile hardware. 
 399:Generated_Source\PSoC6\pdl\drivers\peripheral\profile/cy_profile.h **** *
 400:Generated_Source\PSoC6\pdl\drivers\peripheral\profile/cy_profile.h **** * This function should be called when energy profiling is no longer desired.
 401:Generated_Source\PSoC6\pdl\drivers\peripheral\profile/cy_profile.h **** *
 402:Generated_Source\PSoC6\pdl\drivers\peripheral\profile/cy_profile.h **** * \note The profile interrupt is not disabled by this operation and must be
 403:Generated_Source\PSoC6\pdl\drivers\peripheral\profile/cy_profile.h **** * disabled separately.
 404:Generated_Source\PSoC6\pdl\drivers\peripheral\profile/cy_profile.h **** *
 405:Generated_Source\PSoC6\pdl\drivers\peripheral\profile/cy_profile.h **** * \funcusage
 406:Generated_Source\PSoC6\pdl\drivers\peripheral\profile/cy_profile.h **** * \snippet profile/profile_v1_0_sut_01.cydsn/main_cm4.c snippet_Cy_Profile_DeInit
 407:Generated_Source\PSoC6\pdl\drivers\peripheral\profile/cy_profile.h **** *
 408:Generated_Source\PSoC6\pdl\drivers\peripheral\profile/cy_profile.h **** *******************************************************************************/
 409:Generated_Source\PSoC6\pdl\drivers\peripheral\profile/cy_profile.h **** __STATIC_INLINE void Cy_Profile_DeInit(void)
 410:Generated_Source\PSoC6\pdl\drivers\peripheral\profile/cy_profile.h **** {
 411:Generated_Source\PSoC6\pdl\drivers\peripheral\profile/cy_profile.h ****     PROFILE_CTL = _VAL2FLD(PROFILE_CTL_ENABLED, 0UL/*disabled */);
 412:Generated_Source\PSoC6\pdl\drivers\peripheral\profile/cy_profile.h ****     PROFILE_INTR_MASK = 0UL; /* clear all counter interrupt mask bits */
 413:Generated_Source\PSoC6\pdl\drivers\peripheral\profile/cy_profile.h **** }
 414:Generated_Source\PSoC6\pdl\drivers\peripheral\profile/cy_profile.h **** 
 415:Generated_Source\PSoC6\pdl\drivers\peripheral\profile/cy_profile.h **** 
 416:Generated_Source\PSoC6\pdl\drivers\peripheral\profile/cy_profile.h **** /*******************************************************************************
 417:Generated_Source\PSoC6\pdl\drivers\peripheral\profile/cy_profile.h **** * Function Name: Cy_Profile_StopProfiling
 418:Generated_Source\PSoC6\pdl\drivers\peripheral\profile/cy_profile.h **** ****************************************************************************//**
 419:Generated_Source\PSoC6\pdl\drivers\peripheral\profile/cy_profile.h **** *
 420:Generated_Source\PSoC6\pdl\drivers\peripheral\profile/cy_profile.h **** * Stops the profiling/measurement window.
 421:Generated_Source\PSoC6\pdl\drivers\peripheral\profile/cy_profile.h **** *
ARM GAS  C:\Users\pearlstl\AppData\Local\Temp\ccnkLTaV.s 			page 16


 422:Generated_Source\PSoC6\pdl\drivers\peripheral\profile/cy_profile.h **** * This operation prevents the enabled profile counters from counting.
 423:Generated_Source\PSoC6\pdl\drivers\peripheral\profile/cy_profile.h **** *
 424:Generated_Source\PSoC6\pdl\drivers\peripheral\profile/cy_profile.h **** * \note The profile interrupt should be disabled before calling this function.
 425:Generated_Source\PSoC6\pdl\drivers\peripheral\profile/cy_profile.h **** *
 426:Generated_Source\PSoC6\pdl\drivers\peripheral\profile/cy_profile.h **** * \funcusage
 427:Generated_Source\PSoC6\pdl\drivers\peripheral\profile/cy_profile.h **** * \snippet profile/profile_v1_0_sut_01.cydsn/main_cm4.c snippet_Cy_Profile_StopProfiling
 428:Generated_Source\PSoC6\pdl\drivers\peripheral\profile/cy_profile.h **** *
 429:Generated_Source\PSoC6\pdl\drivers\peripheral\profile/cy_profile.h **** *******************************************************************************/
 430:Generated_Source\PSoC6\pdl\drivers\peripheral\profile/cy_profile.h **** __STATIC_INLINE void Cy_Profile_StopProfiling(void)
 431:Generated_Source\PSoC6\pdl\drivers\peripheral\profile/cy_profile.h **** {
 432:Generated_Source\PSoC6\pdl\drivers\peripheral\profile/cy_profile.h ****     PROFILE_CMD = CY_PROFILE_STOP_TR;
 433:Generated_Source\PSoC6\pdl\drivers\peripheral\profile/cy_profile.h **** }
 434:Generated_Source\PSoC6\pdl\drivers\peripheral\profile/cy_profile.h **** 
 435:Generated_Source\PSoC6\pdl\drivers\peripheral\profile/cy_profile.h **** 
 436:Generated_Source\PSoC6\pdl\drivers\peripheral\profile/cy_profile.h **** /*******************************************************************************
 437:Generated_Source\PSoC6\pdl\drivers\peripheral\profile/cy_profile.h **** * Function Name: Cy_Profile_IsProfiling
 438:Generated_Source\PSoC6\pdl\drivers\peripheral\profile/cy_profile.h **** ****************************************************************************//**
 439:Generated_Source\PSoC6\pdl\drivers\peripheral\profile/cy_profile.h **** *
 440:Generated_Source\PSoC6\pdl\drivers\peripheral\profile/cy_profile.h **** * Reports the active status of the profiling window.
 441:Generated_Source\PSoC6\pdl\drivers\peripheral\profile/cy_profile.h **** *
 442:Generated_Source\PSoC6\pdl\drivers\peripheral\profile/cy_profile.h **** * \return 0 = profiling is not active; 1 = profiling is active
 443:Generated_Source\PSoC6\pdl\drivers\peripheral\profile/cy_profile.h **** *
 444:Generated_Source\PSoC6\pdl\drivers\peripheral\profile/cy_profile.h **** * \funcusage
 445:Generated_Source\PSoC6\pdl\drivers\peripheral\profile/cy_profile.h **** * \snippet profile/profile_v1_0_sut_01.cydsn/main_cm4.c snippet_Cy_Profile_IsProfiling
 446:Generated_Source\PSoC6\pdl\drivers\peripheral\profile/cy_profile.h **** *
 447:Generated_Source\PSoC6\pdl\drivers\peripheral\profile/cy_profile.h **** *******************************************************************************/
 448:Generated_Source\PSoC6\pdl\drivers\peripheral\profile/cy_profile.h **** __STATIC_INLINE uint32_t Cy_Profile_IsProfiling(void)
 449:Generated_Source\PSoC6\pdl\drivers\peripheral\profile/cy_profile.h **** {
 450:Generated_Source\PSoC6\pdl\drivers\peripheral\profile/cy_profile.h ****     return _FLD2VAL(PROFILE_STATUS_WIN_ACTIVE, PROFILE_STATUS);
 451:Generated_Source\PSoC6\pdl\drivers\peripheral\profile/cy_profile.h **** }
 452:Generated_Source\PSoC6\pdl\drivers\peripheral\profile/cy_profile.h **** /** \} group_profile_functions_general */
 453:Generated_Source\PSoC6\pdl\drivers\peripheral\profile/cy_profile.h **** 
 454:Generated_Source\PSoC6\pdl\drivers\peripheral\profile/cy_profile.h **** /**
 455:Generated_Source\PSoC6\pdl\drivers\peripheral\profile/cy_profile.h **** * \addtogroup group_profile_functions_counter
 456:Generated_Source\PSoC6\pdl\drivers\peripheral\profile/cy_profile.h **** * \{
 457:Generated_Source\PSoC6\pdl\drivers\peripheral\profile/cy_profile.h **** */
 458:Generated_Source\PSoC6\pdl\drivers\peripheral\profile/cy_profile.h **** void Cy_Profile_ClearConfiguration(void);
 459:Generated_Source\PSoC6\pdl\drivers\peripheral\profile/cy_profile.h **** __STATIC_INLINE void Cy_Profile_ClearCounters(void);
 460:Generated_Source\PSoC6\pdl\drivers\peripheral\profile/cy_profile.h **** cy_stc_profile_ctr_ptr_t Cy_Profile_ConfigureCounter(en_ep_mon_sel_t monitor, cy_en_profile_duratio
 461:Generated_Source\PSoC6\pdl\drivers\peripheral\profile/cy_profile.h **** cy_en_profile_status_t Cy_Profile_FreeCounter(cy_stc_profile_ctr_ptr_t ctrAddr);
 462:Generated_Source\PSoC6\pdl\drivers\peripheral\profile/cy_profile.h **** cy_en_profile_status_t Cy_Profile_EnableCounter(cy_stc_profile_ctr_ptr_t ctrAddr);
 463:Generated_Source\PSoC6\pdl\drivers\peripheral\profile/cy_profile.h **** cy_en_profile_status_t Cy_Profile_DisableCounter(cy_stc_profile_ctr_ptr_t ctrAddr);
 464:Generated_Source\PSoC6\pdl\drivers\peripheral\profile/cy_profile.h **** 
 465:Generated_Source\PSoC6\pdl\drivers\peripheral\profile/cy_profile.h **** /* ========================================================================== */
 466:Generated_Source\PSoC6\pdl\drivers\peripheral\profile/cy_profile.h **** /* ===================    COUNTER FUNCTIONS SECTION    ====================== */
 467:Generated_Source\PSoC6\pdl\drivers\peripheral\profile/cy_profile.h **** /* ========================================================================== */
 468:Generated_Source\PSoC6\pdl\drivers\peripheral\profile/cy_profile.h **** /*******************************************************************************
 469:Generated_Source\PSoC6\pdl\drivers\peripheral\profile/cy_profile.h **** * Function Name: Cy_Profile_ClearCounters
 470:Generated_Source\PSoC6\pdl\drivers\peripheral\profile/cy_profile.h **** ****************************************************************************//**
 471:Generated_Source\PSoC6\pdl\drivers\peripheral\profile/cy_profile.h **** *
 472:Generated_Source\PSoC6\pdl\drivers\peripheral\profile/cy_profile.h **** * Clears all hardware counters to 0.
 473:Generated_Source\PSoC6\pdl\drivers\peripheral\profile/cy_profile.h **** *
 474:Generated_Source\PSoC6\pdl\drivers\peripheral\profile/cy_profile.h **** * \funcusage
 475:Generated_Source\PSoC6\pdl\drivers\peripheral\profile/cy_profile.h **** * \snippet profile/profile_v1_0_sut_01.cydsn/main_cm4.c snippet_Cy_Profile_ClearCounters
 476:Generated_Source\PSoC6\pdl\drivers\peripheral\profile/cy_profile.h **** *
 477:Generated_Source\PSoC6\pdl\drivers\peripheral\profile/cy_profile.h **** *******************************************************************************/
 478:Generated_Source\PSoC6\pdl\drivers\peripheral\profile/cy_profile.h **** __STATIC_INLINE void Cy_Profile_ClearCounters(void)
ARM GAS  C:\Users\pearlstl\AppData\Local\Temp\ccnkLTaV.s 			page 17


 479:Generated_Source\PSoC6\pdl\drivers\peripheral\profile/cy_profile.h **** {
 480:Generated_Source\PSoC6\pdl\drivers\peripheral\profile/cy_profile.h ****     PROFILE_CMD = CY_PROFILE_CLR_ALL_CNT;
 263              		.loc 2 480 0
 264 000c 034B     		ldr	r3, .L91+4
 265 000e 4FF48072 		mov	r2, #256
 266 0012 1A61     		str	r2, [r3, #16]
 267 0014 08BD     		pop	{r3, pc}
 268              	.L92:
 269 0016 00BF     		.align	2
 270              	.L91:
 271 0018 00000000 		.word	.LANCHOR0
 272 001c 00002D40 		.word	1076690944
 273              	.LBE18:
 274              	.LBE17:
 275              		.cfi_endproc
 276              	.LFE140:
 277              		.size	Cy_Profile_ClearConfiguration, .-Cy_Profile_ClearConfiguration
 278              		.section	.text.Cy_Profile_ConfigureCounter,"ax",%progbits
 279              		.align	2
 280              		.global	Cy_Profile_ConfigureCounter
 281              		.thumb
 282              		.thumb_func
 283              		.type	Cy_Profile_ConfigureCounter, %function
 284              	Cy_Profile_ConfigureCounter:
 285              	.LFB141:
 154:Generated_Source\PSoC6\pdl\drivers\peripheral\profile/cy_profile.c ****     Cy_Profile_ClearCounters();
 155:Generated_Source\PSoC6\pdl\drivers\peripheral\profile/cy_profile.c **** }
 156:Generated_Source\PSoC6\pdl\drivers\peripheral\profile/cy_profile.c **** 
 157:Generated_Source\PSoC6\pdl\drivers\peripheral\profile/cy_profile.c **** 
 158:Generated_Source\PSoC6\pdl\drivers\peripheral\profile/cy_profile.c **** /*******************************************************************************
 159:Generated_Source\PSoC6\pdl\drivers\peripheral\profile/cy_profile.c **** * Function Name: Cy_Profile_ConfigureCounter
 160:Generated_Source\PSoC6\pdl\drivers\peripheral\profile/cy_profile.c **** ****************************************************************************//**
 161:Generated_Source\PSoC6\pdl\drivers\peripheral\profile/cy_profile.c **** *
 162:Generated_Source\PSoC6\pdl\drivers\peripheral\profile/cy_profile.c **** * Configures and assigns a hardware profile counter to the list of used counters.
 163:Generated_Source\PSoC6\pdl\drivers\peripheral\profile/cy_profile.c **** *
 164:Generated_Source\PSoC6\pdl\drivers\peripheral\profile/cy_profile.c **** * This function assigns an available profile counter to a slot in the internal 
 165:Generated_Source\PSoC6\pdl\drivers\peripheral\profile/cy_profile.c **** * software data structure and returns the handle for that slot location. The data
 166:Generated_Source\PSoC6\pdl\drivers\peripheral\profile/cy_profile.c **** * structure is used to keep track of the counter status and to implement a 64-bit
 167:Generated_Source\PSoC6\pdl\drivers\peripheral\profile/cy_profile.c **** * profile counter. If no counter slots are available, the function returns a
 168:Generated_Source\PSoC6\pdl\drivers\peripheral\profile/cy_profile.c **** * NULL pointer.
 169:Generated_Source\PSoC6\pdl\drivers\peripheral\profile/cy_profile.c **** * 
 170:Generated_Source\PSoC6\pdl\drivers\peripheral\profile/cy_profile.c **** * \param monitor The monitor source number
 171:Generated_Source\PSoC6\pdl\drivers\peripheral\profile/cy_profile.c **** *
 172:Generated_Source\PSoC6\pdl\drivers\peripheral\profile/cy_profile.c **** * \param duration Events are monitored (0), or duration is monitored (1)
 173:Generated_Source\PSoC6\pdl\drivers\peripheral\profile/cy_profile.c **** *
 174:Generated_Source\PSoC6\pdl\drivers\peripheral\profile/cy_profile.c **** * \param refClk Counter reference clock
 175:Generated_Source\PSoC6\pdl\drivers\peripheral\profile/cy_profile.c **** *
 176:Generated_Source\PSoC6\pdl\drivers\peripheral\profile/cy_profile.c **** * \param weight Weighting factor for the counter value
 177:Generated_Source\PSoC6\pdl\drivers\peripheral\profile/cy_profile.c **** * 
 178:Generated_Source\PSoC6\pdl\drivers\peripheral\profile/cy_profile.c **** * \return A pointer to the counter data structure. NULL if no counter is
 179:Generated_Source\PSoC6\pdl\drivers\peripheral\profile/cy_profile.c **** * available.
 180:Generated_Source\PSoC6\pdl\drivers\peripheral\profile/cy_profile.c **** *
 181:Generated_Source\PSoC6\pdl\drivers\peripheral\profile/cy_profile.c **** * \funcusage
 182:Generated_Source\PSoC6\pdl\drivers\peripheral\profile/cy_profile.c **** * \snippet profile/profile_v1_0_sut_01.cydsn/main_cm4.c snippet_Cy_Profile_ConfigureCounter
 183:Generated_Source\PSoC6\pdl\drivers\peripheral\profile/cy_profile.c **** *
 184:Generated_Source\PSoC6\pdl\drivers\peripheral\profile/cy_profile.c **** *******************************************************************************/
 185:Generated_Source\PSoC6\pdl\drivers\peripheral\profile/cy_profile.c **** cy_stc_profile_ctr_ptr_t Cy_Profile_ConfigureCounter(en_ep_mon_sel_t monitor, cy_en_profile_duratio
ARM GAS  C:\Users\pearlstl\AppData\Local\Temp\ccnkLTaV.s 			page 18


 186:Generated_Source\PSoC6\pdl\drivers\peripheral\profile/cy_profile.c ****                                                      cy_en_profile_ref_clk_t refClk,  uint32_t weig
 187:Generated_Source\PSoC6\pdl\drivers\peripheral\profile/cy_profile.c **** {
 286              		.loc 1 187 0
 287              		.cfi_startproc
 288              		@ args = 0, pretend = 0, frame = 8
 289              		@ frame_needed = 0, uses_anonymous_args = 0
 290              	.LVL29:
 291 0000 2DE9F047 		push	{r4, r5, r6, r7, r8, r9, r10, lr}
 292              		.cfi_def_cfa_offset 32
 293              		.cfi_offset 4, -32
 294              		.cfi_offset 5, -28
 295              		.cfi_offset 6, -24
 296              		.cfi_offset 7, -20
 297              		.cfi_offset 8, -16
 298              		.cfi_offset 9, -12
 299              		.cfi_offset 10, -8
 300              		.cfi_offset 14, -4
 301 0004 82B0     		sub	sp, sp, #8
 302              		.cfi_def_cfa_offset 40
 188:Generated_Source\PSoC6\pdl\drivers\peripheral\profile/cy_profile.c ****     CY_ASSERT_L1(CY_PROFILE_IS_MONITOR_VALID(monitor));
 189:Generated_Source\PSoC6\pdl\drivers\peripheral\profile/cy_profile.c ****     CY_ASSERT_L3(CY_PROFILE_IS_DURATION_VALID(duration));
 190:Generated_Source\PSoC6\pdl\drivers\peripheral\profile/cy_profile.c ****     CY_ASSERT_L3(CY_PROFILE_IS_REFCLK_VALID(refClk));
 191:Generated_Source\PSoC6\pdl\drivers\peripheral\profile/cy_profile.c ****     
 192:Generated_Source\PSoC6\pdl\drivers\peripheral\profile/cy_profile.c ****     cy_stc_profile_ctr_ptr_t retVal = NULL; /* error value if no counter is available */
 193:Generated_Source\PSoC6\pdl\drivers\peripheral\profile/cy_profile.c ****     volatile uint8_t i;
 194:Generated_Source\PSoC6\pdl\drivers\peripheral\profile/cy_profile.c ****     
 195:Generated_Source\PSoC6\pdl\drivers\peripheral\profile/cy_profile.c ****     /* Scan through the counters for an unused one */
 196:Generated_Source\PSoC6\pdl\drivers\peripheral\profile/cy_profile.c ****     for (i = 0u; (cy_ep_ctrs[i].used != 0u) && (i < (CY_N_ELMTS(cy_ep_ctrs))); i++){}
 303              		.loc 1 196 0
 304 0006 0024     		movs	r4, #0
 305 0008 8DF80740 		strb	r4, [sp, #7]
 306 000c 9DF80740 		ldrb	r4, [sp, #7]	@ zero_extendqisi2
 307 0010 3D4D     		ldr	r5, .L106
 308 0012 C4EBC404 		rsb	r4, r4, r4, lsl #3
 309 0016 05EB8404 		add	r4, r5, r4, lsl #2
 310 001a 6478     		ldrb	r4, [r4, #1]	@ zero_extendqisi2
 311 001c 74B9     		cbnz	r4, .L94
 312 001e 11E0     		b	.L97
 313              	.L105:
 314              		.loc 1 196 0 is_stmt 0 discriminator 4
 315 0020 9DF80740 		ldrb	r4, [sp, #7]	@ zero_extendqisi2
 316 0024 0134     		adds	r4, r4, #1
 317 0026 E4B2     		uxtb	r4, r4
 318 0028 8DF80740 		strb	r4, [sp, #7]
 319 002c 9DF80740 		ldrb	r4, [sp, #7]	@ zero_extendqisi2
 320 0030 C4EBC404 		rsb	r4, r4, r4, lsl #3
 321 0034 05EB8404 		add	r4, r5, r4, lsl #2
 322 0038 6478     		ldrb	r4, [r4, #1]	@ zero_extendqisi2
 323 003a 1CB1     		cbz	r4, .L97
 324              	.L94:
 325              		.loc 1 196 0
 326 003c 9DF80740 		ldrb	r4, [sp, #7]	@ zero_extendqisi2
 327 0040 072C     		cmp	r4, #7
 328 0042 EDD9     		bls	.L105
 329              	.L97:
 197:Generated_Source\PSoC6\pdl\drivers\peripheral\profile/cy_profile.c ****     if (i < CY_N_ELMTS(cy_ep_ctrs))
 330              		.loc 1 197 0 is_stmt 1
ARM GAS  C:\Users\pearlstl\AppData\Local\Temp\ccnkLTaV.s 			page 19


 331 0044 9DF80740 		ldrb	r4, [sp, #7]	@ zero_extendqisi2
 332 0048 072C     		cmp	r4, #7
 192:Generated_Source\PSoC6\pdl\drivers\peripheral\profile/cy_profile.c ****     volatile uint8_t i;
 333              		.loc 1 192 0
 334 004a 88BF     		it	hi
 335 004c 0022     		movhi	r2, #0
 336              	.LVL30:
 337              		.loc 1 197 0
 338 004e 56D8     		bhi	.L96
 198:Generated_Source\PSoC6\pdl\drivers\peripheral\profile/cy_profile.c ****     { /* found one, fill in its data structure */
 199:Generated_Source\PSoC6\pdl\drivers\peripheral\profile/cy_profile.c ****         cy_ep_ctrs[i].ctrNum = i;
 339              		.loc 1 199 0
 340 0050 9DF807C0 		ldrb	ip, [sp, #7]	@ zero_extendqisi2
 341 0054 9DF807E0 		ldrb	lr, [sp, #7]	@ zero_extendqisi2
 200:Generated_Source\PSoC6\pdl\drivers\peripheral\profile/cy_profile.c ****         cy_ep_ctrs[i].used = 1u;
 342              		.loc 1 200 0
 343 0058 9DF80760 		ldrb	r6, [sp, #7]	@ zero_extendqisi2
 201:Generated_Source\PSoC6\pdl\drivers\peripheral\profile/cy_profile.c ****         cy_ep_ctrs[i].cntAddr = (PROFILE_CNT_STRUCT_Type *)&(PROFILE_CNT_STRUCT[i]);
 344              		.loc 1 201 0
 345 005c 9DF80780 		ldrb	r8, [sp, #7]	@ zero_extendqisi2
 346 0060 9DF80790 		ldrb	r9, [sp, #7]	@ zero_extendqisi2
 202:Generated_Source\PSoC6\pdl\drivers\peripheral\profile/cy_profile.c ****         cy_ep_ctrs[i].ctlRegVals.cntDuration = duration;
 347              		.loc 1 202 0
 348 0064 9DF80740 		ldrb	r4, [sp, #7]	@ zero_extendqisi2
 203:Generated_Source\PSoC6\pdl\drivers\peripheral\profile/cy_profile.c ****         cy_ep_ctrs[i].ctlRegVals.refClkSel = refClk;
 349              		.loc 1 203 0
 350 0068 9DF80770 		ldrb	r7, [sp, #7]	@ zero_extendqisi2
 351 006c C7EBC707 		rsb	r7, r7, r7, lsl #3
 352 0070 05EB8707 		add	r7, r5, r7, lsl #2
 202:Generated_Source\PSoC6\pdl\drivers\peripheral\profile/cy_profile.c ****         cy_ep_ctrs[i].ctlRegVals.cntDuration = duration;
 353              		.loc 1 202 0
 354 0074 C4EBC404 		rsb	r4, r4, r4, lsl #3
 355              		.loc 1 203 0
 356 0078 FA70     		strb	r2, [r7, #3]
 204:Generated_Source\PSoC6\pdl\drivers\peripheral\profile/cy_profile.c ****         cy_ep_ctrs[i].ctlRegVals.monSel = monitor;
 357              		.loc 1 204 0
 358 007a 9DF80720 		ldrb	r2, [sp, #7]	@ zero_extendqisi2
 202:Generated_Source\PSoC6\pdl\drivers\peripheral\profile/cy_profile.c ****         cy_ep_ctrs[i].ctlRegVals.cntDuration = duration;
 359              		.loc 1 202 0
 360 007e 05EB8404 		add	r4, r5, r4, lsl #2
 361              		.loc 1 204 0
 362 0082 C2EBC202 		rsb	r2, r2, r2, lsl #3
 202:Generated_Source\PSoC6\pdl\drivers\peripheral\profile/cy_profile.c ****         cy_ep_ctrs[i].ctlRegVals.cntDuration = duration;
 363              		.loc 1 202 0
 364 0086 A170     		strb	r1, [r4, #2]
 205:Generated_Source\PSoC6\pdl\drivers\peripheral\profile/cy_profile.c ****         cy_ep_ctrs[i].overflow = 0UL;
 365              		.loc 1 205 0
 366 0088 9DF80740 		ldrb	r4, [sp, #7]	@ zero_extendqisi2
 206:Generated_Source\PSoC6\pdl\drivers\peripheral\profile/cy_profile.c ****         cy_ep_ctrs[i].weight = weight;
 367              		.loc 1 206 0
 368 008c 9DF80770 		ldrb	r7, [sp, #7]	@ zero_extendqisi2
 207:Generated_Source\PSoC6\pdl\drivers\peripheral\profile/cy_profile.c ****         /* Pass back the handle to (address of) the counter data structure */
 208:Generated_Source\PSoC6\pdl\drivers\peripheral\profile/cy_profile.c ****         retVal = &cy_ep_ctrs[i];
 369              		.loc 1 208 0
 370 0090 9DF807A0 		ldrb	r10, [sp, #7]	@ zero_extendqisi2
 204:Generated_Source\PSoC6\pdl\drivers\peripheral\profile/cy_profile.c ****         cy_ep_ctrs[i].overflow = 0UL;
 371              		.loc 1 204 0
ARM GAS  C:\Users\pearlstl\AppData\Local\Temp\ccnkLTaV.s 			page 20


 372 0094 05EB8201 		add	r1, r5, r2, lsl #2
 373              	.LVL31:
 374              		.loc 1 208 0
 375 0098 CAEBCA0A 		rsb	r10, r10, r10, lsl #3
 204:Generated_Source\PSoC6\pdl\drivers\peripheral\profile/cy_profile.c ****         cy_ep_ctrs[i].overflow = 0UL;
 376              		.loc 1 204 0
 377 009c 0871     		strb	r0, [r1, #4]
 201:Generated_Source\PSoC6\pdl\drivers\peripheral\profile/cy_profile.c ****         cy_ep_ctrs[i].ctlRegVals.cntDuration = duration;
 378              		.loc 1 201 0
 379 009e C8EBC808 		rsb	r8, r8, r8, lsl #3
 380 00a2 1A49     		ldr	r1, .L106+4
 381              		.loc 1 208 0
 382 00a4 05EB8A02 		add	r2, r5, r10, lsl #2
 383              	.LVL32:
 201:Generated_Source\PSoC6\pdl\drivers\peripheral\profile/cy_profile.c ****         cy_ep_ctrs[i].ctlRegVals.cntDuration = duration;
 384              		.loc 1 201 0
 385 00a8 05EB8808 		add	r8, r5, r8, lsl #2
 386 00ac 4FEA0919 		lsl	r9, r9, #4
 387 00b0 4944     		add	r1, r1, r9
 388 00b2 C8F80810 		str	r1, [r8, #8]
 209:Generated_Source\PSoC6\pdl\drivers\peripheral\profile/cy_profile.c ****         
 210:Generated_Source\PSoC6\pdl\drivers\peripheral\profile/cy_profile.c ****         /* Load the CTL register bitfields of the assigned counter. */
 211:Generated_Source\PSoC6\pdl\drivers\peripheral\profile/cy_profile.c ****         retVal->cntAddr->CTL =
 212:Generated_Source\PSoC6\pdl\drivers\peripheral\profile/cy_profile.c ****             _VAL2FLD(PROFILE_CNT_STRUCT_CTL_CNT_DURATION, retVal->ctlRegVals.cntDuration) |
 213:Generated_Source\PSoC6\pdl\drivers\peripheral\profile/cy_profile.c ****             _VAL2FLD(PROFILE_CNT_STRUCT_CTL_REF_CLK_SEL,  retVal->ctlRegVals.refClkSel)   |
 389              		.loc 1 213 0
 390 00b6 D078     		ldrb	r0, [r2, #3]	@ zero_extendqisi2
 391              	.LVL33:
 392 00b8 1179     		ldrb	r1, [r2, #4]	@ zero_extendqisi2
 393 00ba 0001     		lsls	r0, r0, #4
 394 00bc 0904     		lsls	r1, r1, #16
 395 00be 00F07000 		and	r0, r0, #112
 396 00c2 01F4FE01 		and	r1, r1, #8323072
 397 00c6 0143     		orrs	r1, r1, r0
 206:Generated_Source\PSoC6\pdl\drivers\peripheral\profile/cy_profile.c ****         /* Pass back the handle to (address of) the counter data structure */
 398              		.loc 1 206 0
 399 00c8 C7EBC707 		rsb	r7, r7, r7, lsl #3
 400              		.loc 1 213 0
 401 00cc 9078     		ldrb	r0, [r2, #2]	@ zero_extendqisi2
 199:Generated_Source\PSoC6\pdl\drivers\peripheral\profile/cy_profile.c ****         cy_ep_ctrs[i].used = 1u;
 402              		.loc 1 199 0
 403 00ce CCEBCC0C 		rsb	ip, ip, ip, lsl #3
 206:Generated_Source\PSoC6\pdl\drivers\peripheral\profile/cy_profile.c ****         /* Pass back the handle to (address of) the counter data structure */
 404              		.loc 1 206 0
 405 00d2 05EB8707 		add	r7, r5, r7, lsl #2
 200:Generated_Source\PSoC6\pdl\drivers\peripheral\profile/cy_profile.c ****         cy_ep_ctrs[i].cntAddr = (PROFILE_CNT_STRUCT_Type *)&(PROFILE_CNT_STRUCT[i]);
 406              		.loc 1 200 0
 407 00d6 C6EBC606 		rsb	r6, r6, r6, lsl #3
 205:Generated_Source\PSoC6\pdl\drivers\peripheral\profile/cy_profile.c ****         cy_ep_ctrs[i].weight = weight;
 408              		.loc 1 205 0
 409 00da C4EBC404 		rsb	r4, r4, r4, lsl #3
 200:Generated_Source\PSoC6\pdl\drivers\peripheral\profile/cy_profile.c ****         cy_ep_ctrs[i].cntAddr = (PROFILE_CNT_STRUCT_Type *)&(PROFILE_CNT_STRUCT[i]);
 410              		.loc 1 200 0
 411 00de 05EB8606 		add	r6, r5, r6, lsl #2
 205:Generated_Source\PSoC6\pdl\drivers\peripheral\profile/cy_profile.c ****         cy_ep_ctrs[i].weight = weight;
 412              		.loc 1 205 0
 413 00e2 05EB8404 		add	r4, r5, r4, lsl #2
ARM GAS  C:\Users\pearlstl\AppData\Local\Temp\ccnkLTaV.s 			page 21


 199:Generated_Source\PSoC6\pdl\drivers\peripheral\profile/cy_profile.c ****         cy_ep_ctrs[i].used = 1u;
 414              		.loc 1 199 0
 415 00e6 05F82CE0 		strb	lr, [r5, ip, lsl #2]
 416              		.loc 1 213 0
 417 00ea 00F00100 		and	r0, r0, #1
 211:Generated_Source\PSoC6\pdl\drivers\peripheral\profile/cy_profile.c ****             _VAL2FLD(PROFILE_CNT_STRUCT_CTL_CNT_DURATION, retVal->ctlRegVals.cntDuration) |
 418              		.loc 1 211 0
 419 00ee 9568     		ldr	r5, [r2, #8]
 206:Generated_Source\PSoC6\pdl\drivers\peripheral\profile/cy_profile.c ****         /* Pass back the handle to (address of) the counter data structure */
 420              		.loc 1 206 0
 421 00f0 BB61     		str	r3, [r7, #24]
 422              		.loc 1 213 0
 423 00f2 0143     		orrs	r1, r1, r0
 200:Generated_Source\PSoC6\pdl\drivers\peripheral\profile/cy_profile.c ****         cy_ep_ctrs[i].cntAddr = (PROFILE_CNT_STRUCT_Type *)&(PROFILE_CNT_STRUCT[i]);
 424              		.loc 1 200 0
 425 00f4 0127     		movs	r7, #1
 205:Generated_Source\PSoC6\pdl\drivers\peripheral\profile/cy_profile.c ****         cy_ep_ctrs[i].weight = weight;
 426              		.loc 1 205 0
 427 00f6 0023     		movs	r3, #0
 428              	.LVL34:
 200:Generated_Source\PSoC6\pdl\drivers\peripheral\profile/cy_profile.c ****         cy_ep_ctrs[i].cntAddr = (PROFILE_CNT_STRUCT_Type *)&(PROFILE_CNT_STRUCT[i]);
 429              		.loc 1 200 0
 430 00f8 7770     		strb	r7, [r6, #1]
 205:Generated_Source\PSoC6\pdl\drivers\peripheral\profile/cy_profile.c ****         cy_ep_ctrs[i].weight = weight;
 431              		.loc 1 205 0
 432 00fa 6361     		str	r3, [r4, #20]
 211:Generated_Source\PSoC6\pdl\drivers\peripheral\profile/cy_profile.c ****             _VAL2FLD(PROFILE_CNT_STRUCT_CTL_CNT_DURATION, retVal->ctlRegVals.cntDuration) |
 433              		.loc 1 211 0
 434 00fc 2960     		str	r1, [r5]
 435              	.LVL35:
 436              	.L96:
 214:Generated_Source\PSoC6\pdl\drivers\peripheral\profile/cy_profile.c ****             _VAL2FLD(PROFILE_CNT_STRUCT_CTL_MON_SEL,      retVal->ctlRegVals.monSel);
 215:Generated_Source\PSoC6\pdl\drivers\peripheral\profile/cy_profile.c **** 
 216:Generated_Source\PSoC6\pdl\drivers\peripheral\profile/cy_profile.c ****     }
 217:Generated_Source\PSoC6\pdl\drivers\peripheral\profile/cy_profile.c ****     return (retVal);
 218:Generated_Source\PSoC6\pdl\drivers\peripheral\profile/cy_profile.c **** }
 437              		.loc 1 218 0
 438 00fe 1046     		mov	r0, r2
 439 0100 02B0     		add	sp, sp, #8
 440              		.cfi_def_cfa_offset 32
 441              		@ sp needed
 442 0102 BDE8F087 		pop	{r4, r5, r6, r7, r8, r9, r10, pc}
 443              	.L107:
 444 0106 00BF     		.align	2
 445              	.L106:
 446 0108 00000000 		.word	.LANCHOR0
 447 010c 00082D40 		.word	1076692992
 448              		.cfi_endproc
 449              	.LFE141:
 450              		.size	Cy_Profile_ConfigureCounter, .-Cy_Profile_ConfigureCounter
 451              		.section	.text.Cy_Profile_FreeCounter,"ax",%progbits
 452              		.align	2
 453              		.global	Cy_Profile_FreeCounter
 454              		.thumb
 455              		.thumb_func
 456              		.type	Cy_Profile_FreeCounter, %function
 457              	Cy_Profile_FreeCounter:
ARM GAS  C:\Users\pearlstl\AppData\Local\Temp\ccnkLTaV.s 			page 22


 458              	.LFB142:
 219:Generated_Source\PSoC6\pdl\drivers\peripheral\profile/cy_profile.c **** 
 220:Generated_Source\PSoC6\pdl\drivers\peripheral\profile/cy_profile.c **** 
 221:Generated_Source\PSoC6\pdl\drivers\peripheral\profile/cy_profile.c **** /*******************************************************************************
 222:Generated_Source\PSoC6\pdl\drivers\peripheral\profile/cy_profile.c **** * Function Name: Cy_Profile_FreeCounter
 223:Generated_Source\PSoC6\pdl\drivers\peripheral\profile/cy_profile.c **** ****************************************************************************//**
 224:Generated_Source\PSoC6\pdl\drivers\peripheral\profile/cy_profile.c **** *
 225:Generated_Source\PSoC6\pdl\drivers\peripheral\profile/cy_profile.c **** * Frees up a counter from a previously-assigned monitor source.
 226:Generated_Source\PSoC6\pdl\drivers\peripheral\profile/cy_profile.c **** *
 227:Generated_Source\PSoC6\pdl\drivers\peripheral\profile/cy_profile.c **** * \ref Cy_Profile_ConfigureCounter() must have been called for this counter
 228:Generated_Source\PSoC6\pdl\drivers\peripheral\profile/cy_profile.c **** * before calling this function.
 229:Generated_Source\PSoC6\pdl\drivers\peripheral\profile/cy_profile.c **** *
 230:Generated_Source\PSoC6\pdl\drivers\peripheral\profile/cy_profile.c **** * \param ctrAddr The handle to the assigned counter (returned by calling
 231:Generated_Source\PSoC6\pdl\drivers\peripheral\profile/cy_profile.c **** * \ref Cy_Profile_ConfigureCounter()).
 232:Generated_Source\PSoC6\pdl\drivers\peripheral\profile/cy_profile.c **** * 
 233:Generated_Source\PSoC6\pdl\drivers\peripheral\profile/cy_profile.c **** * \return 
 234:Generated_Source\PSoC6\pdl\drivers\peripheral\profile/cy_profile.c **** * Status of the operation.
 235:Generated_Source\PSoC6\pdl\drivers\peripheral\profile/cy_profile.c **** *
 236:Generated_Source\PSoC6\pdl\drivers\peripheral\profile/cy_profile.c **** * \note The counter is not disabled by this function.
 237:Generated_Source\PSoC6\pdl\drivers\peripheral\profile/cy_profile.c **** *
 238:Generated_Source\PSoC6\pdl\drivers\peripheral\profile/cy_profile.c **** * \funcusage
 239:Generated_Source\PSoC6\pdl\drivers\peripheral\profile/cy_profile.c **** * \snippet profile/profile_v1_0_sut_01.cydsn/main_cm4.c snippet_Cy_Profile_FreeCounter
 240:Generated_Source\PSoC6\pdl\drivers\peripheral\profile/cy_profile.c **** *
 241:Generated_Source\PSoC6\pdl\drivers\peripheral\profile/cy_profile.c **** *******************************************************************************/
 242:Generated_Source\PSoC6\pdl\drivers\peripheral\profile/cy_profile.c **** cy_en_profile_status_t Cy_Profile_FreeCounter(cy_stc_profile_ctr_ptr_t ctrAddr)
 243:Generated_Source\PSoC6\pdl\drivers\peripheral\profile/cy_profile.c **** {
 459              		.loc 1 243 0
 460              		.cfi_startproc
 461              		@ args = 0, pretend = 0, frame = 0
 462              		@ frame_needed = 0, uses_anonymous_args = 0
 463              		@ link register save eliminated.
 464              	.LVL36:
 465              	.LBB19:
 466              	.LBB20:
  54:Generated_Source\PSoC6\pdl\drivers\peripheral\profile/cy_profile.c ****     if ((p_epCtrs <= (uint32_t)ctrAddr) && ((uint32_t)ctrAddr < (p_epCtrs + (uint32_t)sizeof(cy_ep_
 467              		.loc 1 54 0
 468 0000 074B     		ldr	r3, .L115
 469              	.LVL37:
  55:Generated_Source\PSoC6\pdl\drivers\peripheral\profile/cy_profile.c ****     {
 470              		.loc 1 55 0
 471 0002 8342     		cmp	r3, r0
 472 0004 01D9     		bls	.L114
 473              	.L112:
 474 0006 0748     		ldr	r0, .L115+4
 475              	.LVL38:
 476 0008 7047     		bx	lr
 477              	.LVL39:
 478              	.L114:
 479 000a E033     		adds	r3, r3, #224
 480 000c 9842     		cmp	r0, r3
 481 000e FAD2     		bcs	.L112
  57:Generated_Source\PSoC6\pdl\drivers\peripheral\profile/cy_profile.c ****         {
 482              		.loc 1 57 0
 483 0010 4378     		ldrb	r3, [r0, #1]	@ zero_extendqisi2
 484 0012 002B     		cmp	r3, #0
 485 0014 F7D0     		beq	.L112
 486              	.LVL40:
ARM GAS  C:\Users\pearlstl\AppData\Local\Temp\ccnkLTaV.s 			page 23


 487              	.LBE20:
 488              	.LBE19:
 244:Generated_Source\PSoC6\pdl\drivers\peripheral\profile/cy_profile.c ****    cy_en_profile_status_t retStatus = CY_PROFILE_BAD_PARAM;
 245:Generated_Source\PSoC6\pdl\drivers\peripheral\profile/cy_profile.c ****    
 246:Generated_Source\PSoC6\pdl\drivers\peripheral\profile/cy_profile.c ****     retStatus = Cy_Profile_IsPtrValid(ctrAddr);
 247:Generated_Source\PSoC6\pdl\drivers\peripheral\profile/cy_profile.c ****     if (retStatus == CY_PROFILE_SUCCESS)
 248:Generated_Source\PSoC6\pdl\drivers\peripheral\profile/cy_profile.c ****     {
 249:Generated_Source\PSoC6\pdl\drivers\peripheral\profile/cy_profile.c ****         ctrAddr->used = 0u;
 489              		.loc 1 249 0
 490 0016 0023     		movs	r3, #0
 491 0018 4370     		strb	r3, [r0, #1]
 492              	.LBB22:
 493              	.LBB21:
  59:Generated_Source\PSoC6\pdl\drivers\peripheral\profile/cy_profile.c ****         }
 494              		.loc 1 59 0
 495 001a 1846     		mov	r0, r3
 496              	.LVL41:
 497              	.LBE21:
 498              	.LBE22:
 250:Generated_Source\PSoC6\pdl\drivers\peripheral\profile/cy_profile.c ****     }
 251:Generated_Source\PSoC6\pdl\drivers\peripheral\profile/cy_profile.c ****     return (retStatus);
 252:Generated_Source\PSoC6\pdl\drivers\peripheral\profile/cy_profile.c **** }
 499              		.loc 1 252 0
 500 001c 7047     		bx	lr
 501              	.L116:
 502 001e 00BF     		.align	2
 503              	.L115:
 504 0020 00000000 		.word	.LANCHOR0
 505 0024 01007A00 		.word	7995393
 506              		.cfi_endproc
 507              	.LFE142:
 508              		.size	Cy_Profile_FreeCounter, .-Cy_Profile_FreeCounter
 509              		.section	.text.Cy_Profile_EnableCounter,"ax",%progbits
 510              		.align	2
 511              		.global	Cy_Profile_EnableCounter
 512              		.thumb
 513              		.thumb_func
 514              		.type	Cy_Profile_EnableCounter, %function
 515              	Cy_Profile_EnableCounter:
 516              	.LFB143:
 253:Generated_Source\PSoC6\pdl\drivers\peripheral\profile/cy_profile.c **** 
 254:Generated_Source\PSoC6\pdl\drivers\peripheral\profile/cy_profile.c **** 
 255:Generated_Source\PSoC6\pdl\drivers\peripheral\profile/cy_profile.c **** /*******************************************************************************
 256:Generated_Source\PSoC6\pdl\drivers\peripheral\profile/cy_profile.c **** * Function Name: Cy_Profile_EnableCounter
 257:Generated_Source\PSoC6\pdl\drivers\peripheral\profile/cy_profile.c **** ****************************************************************************//**
 258:Generated_Source\PSoC6\pdl\drivers\peripheral\profile/cy_profile.c **** *
 259:Generated_Source\PSoC6\pdl\drivers\peripheral\profile/cy_profile.c **** * Enables an assigned counter. 
 260:Generated_Source\PSoC6\pdl\drivers\peripheral\profile/cy_profile.c **** *
 261:Generated_Source\PSoC6\pdl\drivers\peripheral\profile/cy_profile.c **** * \ref Cy_Profile_ConfigureCounter() must have been called for this counter
 262:Generated_Source\PSoC6\pdl\drivers\peripheral\profile/cy_profile.c **** * before calling this function.
 263:Generated_Source\PSoC6\pdl\drivers\peripheral\profile/cy_profile.c **** *
 264:Generated_Source\PSoC6\pdl\drivers\peripheral\profile/cy_profile.c **** * \param ctrAddr The handle to the assigned counter, (returned by calling
 265:Generated_Source\PSoC6\pdl\drivers\peripheral\profile/cy_profile.c **** * \ref Cy_Profile_ConfigureCounter()).
 266:Generated_Source\PSoC6\pdl\drivers\peripheral\profile/cy_profile.c **** * 
 267:Generated_Source\PSoC6\pdl\drivers\peripheral\profile/cy_profile.c **** * \return 
 268:Generated_Source\PSoC6\pdl\drivers\peripheral\profile/cy_profile.c **** * Status of the operation.
 269:Generated_Source\PSoC6\pdl\drivers\peripheral\profile/cy_profile.c **** *
ARM GAS  C:\Users\pearlstl\AppData\Local\Temp\ccnkLTaV.s 			page 24


 270:Generated_Source\PSoC6\pdl\drivers\peripheral\profile/cy_profile.c **** * \funcusage
 271:Generated_Source\PSoC6\pdl\drivers\peripheral\profile/cy_profile.c **** * \snippet profile/profile_v1_0_sut_01.cydsn/main_cm4.c snippet_Cy_Profile_EnableCounter
 272:Generated_Source\PSoC6\pdl\drivers\peripheral\profile/cy_profile.c **** *
 273:Generated_Source\PSoC6\pdl\drivers\peripheral\profile/cy_profile.c **** *******************************************************************************/
 274:Generated_Source\PSoC6\pdl\drivers\peripheral\profile/cy_profile.c **** cy_en_profile_status_t Cy_Profile_EnableCounter(cy_stc_profile_ctr_ptr_t ctrAddr)
 275:Generated_Source\PSoC6\pdl\drivers\peripheral\profile/cy_profile.c **** {
 517              		.loc 1 275 0
 518              		.cfi_startproc
 519              		@ args = 0, pretend = 0, frame = 0
 520              		@ frame_needed = 0, uses_anonymous_args = 0
 521              		@ link register save eliminated.
 522              	.LVL42:
 523              	.LBB23:
 524              	.LBB24:
  54:Generated_Source\PSoC6\pdl\drivers\peripheral\profile/cy_profile.c ****     if ((p_epCtrs <= (uint32_t)ctrAddr) && ((uint32_t)ctrAddr < (p_epCtrs + (uint32_t)sizeof(cy_ep_
 525              		.loc 1 54 0
 526 0000 0D4B     		ldr	r3, .L124
 527              	.LVL43:
  55:Generated_Source\PSoC6\pdl\drivers\peripheral\profile/cy_profile.c ****     {
 528              		.loc 1 55 0
 529 0002 8342     		cmp	r3, r0
 530 0004 01D9     		bls	.L123
 531              	.L121:
 532 0006 0D48     		ldr	r0, .L124+4
 533              	.LVL44:
 534 0008 7047     		bx	lr
 535              	.LVL45:
 536              	.L123:
 537 000a E033     		adds	r3, r3, #224
 538 000c 9842     		cmp	r0, r3
 539 000e FAD2     		bcs	.L121
  57:Generated_Source\PSoC6\pdl\drivers\peripheral\profile/cy_profile.c ****         {
 540              		.loc 1 57 0
 541 0010 4378     		ldrb	r3, [r0, #1]	@ zero_extendqisi2
 542 0012 002B     		cmp	r3, #0
 543 0014 F7D0     		beq	.L121
 544              	.LVL46:
 545              	.LBE24:
 546              	.LBE23:
 276:Generated_Source\PSoC6\pdl\drivers\peripheral\profile/cy_profile.c ****     cy_en_profile_status_t retStatus = Cy_Profile_IsPtrValid(ctrAddr);
 277:Generated_Source\PSoC6\pdl\drivers\peripheral\profile/cy_profile.c ****     
 278:Generated_Source\PSoC6\pdl\drivers\peripheral\profile/cy_profile.c ****     if (CY_PROFILE_SUCCESS == retStatus)
 279:Generated_Source\PSoC6\pdl\drivers\peripheral\profile/cy_profile.c ****     {
 280:Generated_Source\PSoC6\pdl\drivers\peripheral\profile/cy_profile.c ****         /* set the ENABLED bit */
 281:Generated_Source\PSoC6\pdl\drivers\peripheral\profile/cy_profile.c ****         ctrAddr->cntAddr->CTL |= _VAL2FLD(PROFILE_CNT_STRUCT_CTL_ENABLED, 1UL);
 547              		.loc 1 281 0
 548 0016 8268     		ldr	r2, [r0, #8]
 282:Generated_Source\PSoC6\pdl\drivers\peripheral\profile/cy_profile.c ****         /* set the INTR_MASK bit for the counter being used */
 283:Generated_Source\PSoC6\pdl\drivers\peripheral\profile/cy_profile.c ****         PROFILE_INTR_MASK |= (1UL << (ctrAddr->ctrNum));
 549              		.loc 1 283 0
 550 0018 0949     		ldr	r1, .L124+8
 281:Generated_Source\PSoC6\pdl\drivers\peripheral\profile/cy_profile.c ****         /* set the INTR_MASK bit for the counter being used */
 551              		.loc 1 281 0
 552 001a 1368     		ldr	r3, [r2]
 553 001c 43F00043 		orr	r3, r3, #-2147483648
 554 0020 1360     		str	r3, [r2]
 555              		.loc 1 283 0
ARM GAS  C:\Users\pearlstl\AppData\Local\Temp\ccnkLTaV.s 			page 25


 556 0022 0078     		ldrb	r0, [r0]	@ zero_extendqisi2
 557              	.LVL47:
 558 0024 D1F8C827 		ldr	r2, [r1, #1992]
 559 0028 0123     		movs	r3, #1
 560 002a 8340     		lsls	r3, r3, r0
 561 002c 1343     		orrs	r3, r3, r2
 562 002e C1F8C837 		str	r3, [r1, #1992]
 563              	.LBB26:
 564              	.LBB25:
  59:Generated_Source\PSoC6\pdl\drivers\peripheral\profile/cy_profile.c ****         }
 565              		.loc 1 59 0
 566 0032 0020     		movs	r0, #0
 567              	.LBE25:
 568              	.LBE26:
 284:Generated_Source\PSoC6\pdl\drivers\peripheral\profile/cy_profile.c ****     }
 285:Generated_Source\PSoC6\pdl\drivers\peripheral\profile/cy_profile.c ****     
 286:Generated_Source\PSoC6\pdl\drivers\peripheral\profile/cy_profile.c ****     return (retStatus);
 287:Generated_Source\PSoC6\pdl\drivers\peripheral\profile/cy_profile.c **** }
 569              		.loc 1 287 0
 570 0034 7047     		bx	lr
 571              	.L125:
 572 0036 00BF     		.align	2
 573              	.L124:
 574 0038 00000000 		.word	.LANCHOR0
 575 003c 01007A00 		.word	7995393
 576 0040 00002D40 		.word	1076690944
 577              		.cfi_endproc
 578              	.LFE143:
 579              		.size	Cy_Profile_EnableCounter, .-Cy_Profile_EnableCounter
 580              		.section	.text.Cy_Profile_DisableCounter,"ax",%progbits
 581              		.align	2
 582              		.global	Cy_Profile_DisableCounter
 583              		.thumb
 584              		.thumb_func
 585              		.type	Cy_Profile_DisableCounter, %function
 586              	Cy_Profile_DisableCounter:
 587              	.LFB144:
 288:Generated_Source\PSoC6\pdl\drivers\peripheral\profile/cy_profile.c **** 
 289:Generated_Source\PSoC6\pdl\drivers\peripheral\profile/cy_profile.c **** 
 290:Generated_Source\PSoC6\pdl\drivers\peripheral\profile/cy_profile.c **** /*******************************************************************************
 291:Generated_Source\PSoC6\pdl\drivers\peripheral\profile/cy_profile.c **** * Function Name: Cy_Profile_DisableCounter
 292:Generated_Source\PSoC6\pdl\drivers\peripheral\profile/cy_profile.c **** ****************************************************************************//**
 293:Generated_Source\PSoC6\pdl\drivers\peripheral\profile/cy_profile.c **** *
 294:Generated_Source\PSoC6\pdl\drivers\peripheral\profile/cy_profile.c **** * Disables an assigned counter.
 295:Generated_Source\PSoC6\pdl\drivers\peripheral\profile/cy_profile.c **** *
 296:Generated_Source\PSoC6\pdl\drivers\peripheral\profile/cy_profile.c **** * \ref Cy_Profile_ConfigureCounter() must have been called for this counter
 297:Generated_Source\PSoC6\pdl\drivers\peripheral\profile/cy_profile.c **** * before calling this function.
 298:Generated_Source\PSoC6\pdl\drivers\peripheral\profile/cy_profile.c **** *
 299:Generated_Source\PSoC6\pdl\drivers\peripheral\profile/cy_profile.c **** * \param ctrAddr The handle to the assigned counter, (returned by calling
 300:Generated_Source\PSoC6\pdl\drivers\peripheral\profile/cy_profile.c **** * \ref Cy_Profile_ConfigureCounter()).
 301:Generated_Source\PSoC6\pdl\drivers\peripheral\profile/cy_profile.c **** * 
 302:Generated_Source\PSoC6\pdl\drivers\peripheral\profile/cy_profile.c **** * \return 
 303:Generated_Source\PSoC6\pdl\drivers\peripheral\profile/cy_profile.c **** * Status of the operation.
 304:Generated_Source\PSoC6\pdl\drivers\peripheral\profile/cy_profile.c **** *
 305:Generated_Source\PSoC6\pdl\drivers\peripheral\profile/cy_profile.c **** * \funcusage
 306:Generated_Source\PSoC6\pdl\drivers\peripheral\profile/cy_profile.c **** * \snippet profile/profile_v1_0_sut_01.cydsn/main_cm4.c snippet_Cy_Profile_DisableCounter
 307:Generated_Source\PSoC6\pdl\drivers\peripheral\profile/cy_profile.c **** *
ARM GAS  C:\Users\pearlstl\AppData\Local\Temp\ccnkLTaV.s 			page 26


 308:Generated_Source\PSoC6\pdl\drivers\peripheral\profile/cy_profile.c **** *******************************************************************************/
 309:Generated_Source\PSoC6\pdl\drivers\peripheral\profile/cy_profile.c **** cy_en_profile_status_t Cy_Profile_DisableCounter(cy_stc_profile_ctr_ptr_t ctrAddr)
 310:Generated_Source\PSoC6\pdl\drivers\peripheral\profile/cy_profile.c **** {
 588              		.loc 1 310 0
 589              		.cfi_startproc
 590              		@ args = 0, pretend = 0, frame = 0
 591              		@ frame_needed = 0, uses_anonymous_args = 0
 592              		@ link register save eliminated.
 593              	.LVL48:
 594              	.LBB27:
 595              	.LBB28:
  54:Generated_Source\PSoC6\pdl\drivers\peripheral\profile/cy_profile.c ****     if ((p_epCtrs <= (uint32_t)ctrAddr) && ((uint32_t)ctrAddr < (p_epCtrs + (uint32_t)sizeof(cy_ep_
 596              		.loc 1 54 0
 597 0000 0D4B     		ldr	r3, .L133
 598              	.LVL49:
  55:Generated_Source\PSoC6\pdl\drivers\peripheral\profile/cy_profile.c ****     {
 599              		.loc 1 55 0
 600 0002 8342     		cmp	r3, r0
 601 0004 01D9     		bls	.L132
 602              	.L130:
 603 0006 0D48     		ldr	r0, .L133+4
 604              	.LVL50:
 605 0008 7047     		bx	lr
 606              	.LVL51:
 607              	.L132:
 608 000a E033     		adds	r3, r3, #224
 609 000c 9842     		cmp	r0, r3
 610 000e FAD2     		bcs	.L130
  57:Generated_Source\PSoC6\pdl\drivers\peripheral\profile/cy_profile.c ****         {
 611              		.loc 1 57 0
 612 0010 4378     		ldrb	r3, [r0, #1]	@ zero_extendqisi2
 613 0012 002B     		cmp	r3, #0
 614 0014 F7D0     		beq	.L130
 615              	.LVL52:
 616              	.LBE28:
 617              	.LBE27:
 311:Generated_Source\PSoC6\pdl\drivers\peripheral\profile/cy_profile.c ****     cy_en_profile_status_t retStatus = Cy_Profile_IsPtrValid(ctrAddr);
 312:Generated_Source\PSoC6\pdl\drivers\peripheral\profile/cy_profile.c ****     
 313:Generated_Source\PSoC6\pdl\drivers\peripheral\profile/cy_profile.c ****     if (CY_PROFILE_SUCCESS == retStatus)
 314:Generated_Source\PSoC6\pdl\drivers\peripheral\profile/cy_profile.c ****     {
 315:Generated_Source\PSoC6\pdl\drivers\peripheral\profile/cy_profile.c ****         /* clear the ENABLED bit */
 316:Generated_Source\PSoC6\pdl\drivers\peripheral\profile/cy_profile.c ****         ctrAddr->cntAddr->CTL &= ~(_VAL2FLD(PROFILE_CNT_STRUCT_CTL_ENABLED, 1UL));
 618              		.loc 1 316 0
 619 0016 8268     		ldr	r2, [r0, #8]
 317:Generated_Source\PSoC6\pdl\drivers\peripheral\profile/cy_profile.c ****         /* clear the INTR_MASK bit for the counter being used */
 318:Generated_Source\PSoC6\pdl\drivers\peripheral\profile/cy_profile.c ****         PROFILE_INTR_MASK &= ~(1UL << (ctrAddr->ctrNum));
 620              		.loc 1 318 0
 621 0018 0949     		ldr	r1, .L133+8
 316:Generated_Source\PSoC6\pdl\drivers\peripheral\profile/cy_profile.c ****         /* clear the INTR_MASK bit for the counter being used */
 622              		.loc 1 316 0
 623 001a 1368     		ldr	r3, [r2]
 624 001c 23F00043 		bic	r3, r3, #-2147483648
 625 0020 1360     		str	r3, [r2]
 626              		.loc 1 318 0
 627 0022 0078     		ldrb	r0, [r0]	@ zero_extendqisi2
 628              	.LVL53:
 629 0024 D1F8C827 		ldr	r2, [r1, #1992]
ARM GAS  C:\Users\pearlstl\AppData\Local\Temp\ccnkLTaV.s 			page 27


 630 0028 0123     		movs	r3, #1
 631 002a 8340     		lsls	r3, r3, r0
 632 002c 22EA0303 		bic	r3, r2, r3
 633 0030 C1F8C837 		str	r3, [r1, #1992]
 634              	.LBB30:
 635              	.LBB29:
  59:Generated_Source\PSoC6\pdl\drivers\peripheral\profile/cy_profile.c ****         }
 636              		.loc 1 59 0
 637 0034 0020     		movs	r0, #0
 638              	.LBE29:
 639              	.LBE30:
 319:Generated_Source\PSoC6\pdl\drivers\peripheral\profile/cy_profile.c ****     }
 320:Generated_Source\PSoC6\pdl\drivers\peripheral\profile/cy_profile.c ****     
 321:Generated_Source\PSoC6\pdl\drivers\peripheral\profile/cy_profile.c ****     return (retStatus);
 322:Generated_Source\PSoC6\pdl\drivers\peripheral\profile/cy_profile.c **** }
 640              		.loc 1 322 0
 641 0036 7047     		bx	lr
 642              	.L134:
 643              		.align	2
 644              	.L133:
 645 0038 00000000 		.word	.LANCHOR0
 646 003c 01007A00 		.word	7995393
 647 0040 00002D40 		.word	1076690944
 648              		.cfi_endproc
 649              	.LFE144:
 650              		.size	Cy_Profile_DisableCounter, .-Cy_Profile_DisableCounter
 651              		.section	.text.Cy_Profile_GetRawCount,"ax",%progbits
 652              		.align	2
 653              		.global	Cy_Profile_GetRawCount
 654              		.thumb
 655              		.thumb_func
 656              		.type	Cy_Profile_GetRawCount, %function
 657              	Cy_Profile_GetRawCount:
 658              	.LFB145:
 323:Generated_Source\PSoC6\pdl\drivers\peripheral\profile/cy_profile.c **** 
 324:Generated_Source\PSoC6\pdl\drivers\peripheral\profile/cy_profile.c **** 
 325:Generated_Source\PSoC6\pdl\drivers\peripheral\profile/cy_profile.c **** /* ========================================================================== */
 326:Generated_Source\PSoC6\pdl\drivers\peripheral\profile/cy_profile.c **** /* ==================    CALCULATION FUNCTIONS SECTION    =================== */
 327:Generated_Source\PSoC6\pdl\drivers\peripheral\profile/cy_profile.c **** /* ========================================================================== */
 328:Generated_Source\PSoC6\pdl\drivers\peripheral\profile/cy_profile.c **** /*******************************************************************************
 329:Generated_Source\PSoC6\pdl\drivers\peripheral\profile/cy_profile.c **** * Function Name: Cy_Profile_GetRawCount
 330:Generated_Source\PSoC6\pdl\drivers\peripheral\profile/cy_profile.c **** ****************************************************************************//**
 331:Generated_Source\PSoC6\pdl\drivers\peripheral\profile/cy_profile.c **** *
 332:Generated_Source\PSoC6\pdl\drivers\peripheral\profile/cy_profile.c **** * Reports the raw count value for a specified counter.
 333:Generated_Source\PSoC6\pdl\drivers\peripheral\profile/cy_profile.c **** *
 334:Generated_Source\PSoC6\pdl\drivers\peripheral\profile/cy_profile.c **** * \param ctrAddr The handle to the assigned counter, (returned by calling
 335:Generated_Source\PSoC6\pdl\drivers\peripheral\profile/cy_profile.c **** * \ref Cy_Profile_ConfigureCounter()).
 336:Generated_Source\PSoC6\pdl\drivers\peripheral\profile/cy_profile.c **** *
 337:Generated_Source\PSoC6\pdl\drivers\peripheral\profile/cy_profile.c **** * \param result Output parameter used to write in the result.
 338:Generated_Source\PSoC6\pdl\drivers\peripheral\profile/cy_profile.c **** * 
 339:Generated_Source\PSoC6\pdl\drivers\peripheral\profile/cy_profile.c **** * \return 
 340:Generated_Source\PSoC6\pdl\drivers\peripheral\profile/cy_profile.c **** * Status of the operation.
 341:Generated_Source\PSoC6\pdl\drivers\peripheral\profile/cy_profile.c **** *
 342:Generated_Source\PSoC6\pdl\drivers\peripheral\profile/cy_profile.c **** * \funcusage
 343:Generated_Source\PSoC6\pdl\drivers\peripheral\profile/cy_profile.c **** * \snippet profile/profile_v1_0_sut_01.cydsn/main_cm4.c snippet_Cy_Profile_GetRawCount
 344:Generated_Source\PSoC6\pdl\drivers\peripheral\profile/cy_profile.c **** *
 345:Generated_Source\PSoC6\pdl\drivers\peripheral\profile/cy_profile.c **** *******************************************************************************/
ARM GAS  C:\Users\pearlstl\AppData\Local\Temp\ccnkLTaV.s 			page 28


 346:Generated_Source\PSoC6\pdl\drivers\peripheral\profile/cy_profile.c **** cy_en_profile_status_t Cy_Profile_GetRawCount(cy_stc_profile_ctr_ptr_t ctrAddr, uint64_t *result)
 347:Generated_Source\PSoC6\pdl\drivers\peripheral\profile/cy_profile.c **** {
 659              		.loc 1 347 0
 660              		.cfi_startproc
 661              		@ args = 0, pretend = 0, frame = 0
 662              		@ frame_needed = 0, uses_anonymous_args = 0
 663              		@ link register save eliminated.
 664              	.LVL54:
 665              	.LBB39:
 666              	.LBB40:
  54:Generated_Source\PSoC6\pdl\drivers\peripheral\profile/cy_profile.c ****     if ((p_epCtrs <= (uint32_t)ctrAddr) && ((uint32_t)ctrAddr < (p_epCtrs + (uint32_t)sizeof(cy_ep_
 667              		.loc 1 54 0
 668 0000 0E4B     		ldr	r3, .L146
 669              	.LVL55:
  55:Generated_Source\PSoC6\pdl\drivers\peripheral\profile/cy_profile.c ****     {
 670              		.loc 1 55 0
 671 0002 8342     		cmp	r3, r0
 672 0004 01D9     		bls	.L144
 673              	.L140:
 674 0006 0E48     		ldr	r0, .L146+4
 675              	.LVL56:
 676 0008 7047     		bx	lr
 677              	.LVL57:
 678              	.L144:
 679 000a E033     		adds	r3, r3, #224
 680 000c 9842     		cmp	r0, r3
 681 000e FAD2     		bcs	.L140
  57:Generated_Source\PSoC6\pdl\drivers\peripheral\profile/cy_profile.c ****         {
 682              		.loc 1 57 0
 683 0010 4378     		ldrb	r3, [r0, #1]	@ zero_extendqisi2
 684 0012 002B     		cmp	r3, #0
 685 0014 F7D0     		beq	.L140
 686              	.LVL58:
 687              	.LBE40:
 688              	.LBE39:
 348:Generated_Source\PSoC6\pdl\drivers\peripheral\profile/cy_profile.c ****     cy_en_profile_status_t retStatus = Cy_Profile_IsPtrValid(ctrAddr);
 349:Generated_Source\PSoC6\pdl\drivers\peripheral\profile/cy_profile.c ****     
 350:Generated_Source\PSoC6\pdl\drivers\peripheral\profile/cy_profile.c ****     if ((result != NULL) && (CY_PROFILE_SUCCESS == retStatus))
 689              		.loc 1 350 0
 690 0016 79B1     		cbz	r1, .L145
 691              	.LVL59:
 347:Generated_Source\PSoC6\pdl\drivers\peripheral\profile/cy_profile.c ****     cy_en_profile_status_t retStatus = Cy_Profile_IsPtrValid(ctrAddr);
 692              		.loc 1 347 0
 693 0018 F0B4     		push	{r4, r5, r6, r7}
 694              		.cfi_def_cfa_offset 16
 695              		.cfi_offset 4, -16
 696              		.cfi_offset 5, -12
 697              		.cfi_offset 6, -8
 698              		.cfi_offset 7, -4
 699              	.LBB43:
 700              	.LBB44:
 351:Generated_Source\PSoC6\pdl\drivers\peripheral\profile/cy_profile.c ****     {
 352:Generated_Source\PSoC6\pdl\drivers\peripheral\profile/cy_profile.c ****         /* read the counter control register, and the counter current value */
 353:Generated_Source\PSoC6\pdl\drivers\peripheral\profile/cy_profile.c ****         ctrAddr->ctlReg = ctrAddr->cntAddr->CTL;
 701              		.loc 1 353 0
 702 001a 8468     		ldr	r4, [r0, #8]
 354:Generated_Source\PSoC6\pdl\drivers\peripheral\profile/cy_profile.c ****         ctrAddr->cntReg = ctrAddr->cntAddr->CNT;
ARM GAS  C:\Users\pearlstl\AppData\Local\Temp\ccnkLTaV.s 			page 29


 355:Generated_Source\PSoC6\pdl\drivers\peripheral\profile/cy_profile.c **** 
 356:Generated_Source\PSoC6\pdl\drivers\peripheral\profile/cy_profile.c ****         /* report the count with overflow */
 357:Generated_Source\PSoC6\pdl\drivers\peripheral\profile/cy_profile.c ****         *result = ((uint64_t)(ctrAddr->overflow) << 32) | (uint64_t)(ctrAddr->cntReg);
 703              		.loc 1 357 0
 704 001c 4369     		ldr	r3, [r0, #20]
 353:Generated_Source\PSoC6\pdl\drivers\peripheral\profile/cy_profile.c ****         ctrAddr->cntReg = ctrAddr->cntAddr->CNT;
 705              		.loc 1 353 0
 706 001e 2568     		ldr	r5, [r4]
 354:Generated_Source\PSoC6\pdl\drivers\peripheral\profile/cy_profile.c ****         ctrAddr->cntReg = ctrAddr->cntAddr->CNT;
 707              		.loc 1 354 0
 708 0020 A468     		ldr	r4, [r4, #8]
 709 0022 0461     		str	r4, [r0, #16]
 710              		.loc 1 357 0
 711 0024 0022     		movs	r2, #0
 712 0026 42EA0406 		orr	r6, r2, r4
 713 002a 1F46     		mov	r7, r3
 353:Generated_Source\PSoC6\pdl\drivers\peripheral\profile/cy_profile.c ****         ctrAddr->cntReg = ctrAddr->cntAddr->CNT;
 714              		.loc 1 353 0
 715 002c C560     		str	r5, [r0, #12]
 716              	.LBE44:
 717              	.LBE43:
 718              	.LBB46:
 719              	.LBB41:
  59:Generated_Source\PSoC6\pdl\drivers\peripheral\profile/cy_profile.c ****         }
 720              		.loc 1 59 0
 721 002e 1046     		mov	r0, r2
 722              	.LVL60:
 723              	.LBE41:
 724              	.LBE46:
 725              	.LBB47:
 726              	.LBB45:
 727              		.loc 1 357 0
 728 0030 C1E90067 		strd	r6, [r1]
 729              	.LBE45:
 730              	.LBE47:
 358:Generated_Source\PSoC6\pdl\drivers\peripheral\profile/cy_profile.c ****     }
 359:Generated_Source\PSoC6\pdl\drivers\peripheral\profile/cy_profile.c ****     
 360:Generated_Source\PSoC6\pdl\drivers\peripheral\profile/cy_profile.c ****     return (retStatus);
 361:Generated_Source\PSoC6\pdl\drivers\peripheral\profile/cy_profile.c **** }
 731              		.loc 1 361 0
 732 0034 F0BC     		pop	{r4, r5, r6, r7}
 733              		.cfi_restore 7
 734              		.cfi_restore 6
 735              		.cfi_restore 5
 736              		.cfi_restore 4
 737              		.cfi_def_cfa_offset 0
 738 0036 7047     		bx	lr
 739              	.LVL61:
 740              	.L145:
 741              	.LBB48:
 742              	.LBB42:
  59:Generated_Source\PSoC6\pdl\drivers\peripheral\profile/cy_profile.c ****         }
 743              		.loc 1 59 0
 744 0038 0846     		mov	r0, r1
 745              	.LVL62:
 746              	.LBE42:
 747              	.LBE48:
ARM GAS  C:\Users\pearlstl\AppData\Local\Temp\ccnkLTaV.s 			page 30


 360:Generated_Source\PSoC6\pdl\drivers\peripheral\profile/cy_profile.c **** }
 748              		.loc 1 360 0
 749 003a 7047     		bx	lr
 750              	.L147:
 751              		.align	2
 752              	.L146:
 753 003c 00000000 		.word	.LANCHOR0
 754 0040 01007A00 		.word	7995393
 755              		.cfi_endproc
 756              	.LFE145:
 757              		.size	Cy_Profile_GetRawCount, .-Cy_Profile_GetRawCount
 758              		.section	.text.Cy_Profile_GetWeightedCount,"ax",%progbits
 759              		.align	2
 760              		.global	Cy_Profile_GetWeightedCount
 761              		.thumb
 762              		.thumb_func
 763              		.type	Cy_Profile_GetWeightedCount, %function
 764              	Cy_Profile_GetWeightedCount:
 765              	.LFB146:
 362:Generated_Source\PSoC6\pdl\drivers\peripheral\profile/cy_profile.c **** 
 363:Generated_Source\PSoC6\pdl\drivers\peripheral\profile/cy_profile.c **** /*******************************************************************************
 364:Generated_Source\PSoC6\pdl\drivers\peripheral\profile/cy_profile.c **** * Function Name: Cy_Profile_GetWeightedCount
 365:Generated_Source\PSoC6\pdl\drivers\peripheral\profile/cy_profile.c **** ****************************************************************************//**
 366:Generated_Source\PSoC6\pdl\drivers\peripheral\profile/cy_profile.c **** *
 367:Generated_Source\PSoC6\pdl\drivers\peripheral\profile/cy_profile.c **** * Reports the count value for a specified counter, multiplied by the weight
 368:Generated_Source\PSoC6\pdl\drivers\peripheral\profile/cy_profile.c **** * factor for that counter.
 369:Generated_Source\PSoC6\pdl\drivers\peripheral\profile/cy_profile.c **** *
 370:Generated_Source\PSoC6\pdl\drivers\peripheral\profile/cy_profile.c **** * \param ctrAddr The handle to the assigned counter, (returned by calling
 371:Generated_Source\PSoC6\pdl\drivers\peripheral\profile/cy_profile.c **** * \ref Cy_Profile_ConfigureCounter()).
 372:Generated_Source\PSoC6\pdl\drivers\peripheral\profile/cy_profile.c **** *
 373:Generated_Source\PSoC6\pdl\drivers\peripheral\profile/cy_profile.c **** * \param result Output parameter used to write in the result.
 374:Generated_Source\PSoC6\pdl\drivers\peripheral\profile/cy_profile.c **** * 
 375:Generated_Source\PSoC6\pdl\drivers\peripheral\profile/cy_profile.c **** * \return 
 376:Generated_Source\PSoC6\pdl\drivers\peripheral\profile/cy_profile.c **** * Status of the operation.
 377:Generated_Source\PSoC6\pdl\drivers\peripheral\profile/cy_profile.c **** *
 378:Generated_Source\PSoC6\pdl\drivers\peripheral\profile/cy_profile.c **** * \funcusage
 379:Generated_Source\PSoC6\pdl\drivers\peripheral\profile/cy_profile.c **** * \snippet profile/profile_v1_0_sut_01.cydsn/main_cm4.c snippet_Cy_Profile_GetWeightedCount
 380:Generated_Source\PSoC6\pdl\drivers\peripheral\profile/cy_profile.c **** *
 381:Generated_Source\PSoC6\pdl\drivers\peripheral\profile/cy_profile.c **** *******************************************************************************/
 382:Generated_Source\PSoC6\pdl\drivers\peripheral\profile/cy_profile.c **** cy_en_profile_status_t Cy_Profile_GetWeightedCount(cy_stc_profile_ctr_ptr_t ctrAddr, uint64_t *resu
 383:Generated_Source\PSoC6\pdl\drivers\peripheral\profile/cy_profile.c **** {
 766              		.loc 1 383 0
 767              		.cfi_startproc
 768              		@ args = 0, pretend = 0, frame = 0
 769              		@ frame_needed = 0, uses_anonymous_args = 0
 770              		@ link register save eliminated.
 771              	.LVL63:
 772              	.LBB57:
 773              	.LBB58:
 774              	.LBB59:
 775              	.LBB60:
  54:Generated_Source\PSoC6\pdl\drivers\peripheral\profile/cy_profile.c ****     if ((p_epCtrs <= (uint32_t)ctrAddr) && ((uint32_t)ctrAddr < (p_epCtrs + (uint32_t)sizeof(cy_ep_
 776              		.loc 1 54 0
 777 0000 114B     		ldr	r3, .L159
 778              	.LVL64:
  55:Generated_Source\PSoC6\pdl\drivers\peripheral\profile/cy_profile.c ****     {
 779              		.loc 1 55 0
ARM GAS  C:\Users\pearlstl\AppData\Local\Temp\ccnkLTaV.s 			page 31


 780 0002 8342     		cmp	r3, r0
 781 0004 01D9     		bls	.L157
 782              	.L153:
 783 0006 1148     		ldr	r0, .L159+4
 784              	.LVL65:
 785 0008 7047     		bx	lr
 786              	.LVL66:
 787              	.L157:
 788 000a E033     		adds	r3, r3, #224
 789 000c 9842     		cmp	r0, r3
 790 000e FAD2     		bcs	.L153
  57:Generated_Source\PSoC6\pdl\drivers\peripheral\profile/cy_profile.c ****         {
 791              		.loc 1 57 0
 792 0010 4378     		ldrb	r3, [r0, #1]	@ zero_extendqisi2
 793 0012 002B     		cmp	r3, #0
 794 0014 F7D0     		beq	.L153
 795              	.LVL67:
 796              	.LBE60:
 797              	.LBE59:
 798              	.LBE58:
 799              	.LBE57:
 800              		.loc 1 383 0
 801 0016 F0B4     		push	{r4, r5, r6, r7}
 802              		.cfi_def_cfa_offset 16
 803              		.cfi_offset 4, -16
 804              		.cfi_offset 5, -12
 805              		.cfi_offset 6, -8
 806              		.cfi_offset 7, -4
 807              	.LBB70:
 808              	.LBB67:
 809              	.LBB63:
 810              	.LBB64:
 353:Generated_Source\PSoC6\pdl\drivers\peripheral\profile/cy_profile.c ****         ctrAddr->cntReg = ctrAddr->cntAddr->CNT;
 811              		.loc 1 353 0
 812 0018 8468     		ldr	r4, [r0, #8]
 357:Generated_Source\PSoC6\pdl\drivers\peripheral\profile/cy_profile.c ****     }
 813              		.loc 1 357 0
 814 001a 4369     		ldr	r3, [r0, #20]
 353:Generated_Source\PSoC6\pdl\drivers\peripheral\profile/cy_profile.c ****         ctrAddr->cntReg = ctrAddr->cntAddr->CNT;
 815              		.loc 1 353 0
 816 001c 2568     		ldr	r5, [r4]
 354:Generated_Source\PSoC6\pdl\drivers\peripheral\profile/cy_profile.c **** 
 817              		.loc 1 354 0
 818 001e A468     		ldr	r4, [r4, #8]
 819 0020 0461     		str	r4, [r0, #16]
 357:Generated_Source\PSoC6\pdl\drivers\peripheral\profile/cy_profile.c ****     }
 820              		.loc 1 357 0
 821 0022 0022     		movs	r2, #0
 353:Generated_Source\PSoC6\pdl\drivers\peripheral\profile/cy_profile.c ****         ctrAddr->cntReg = ctrAddr->cntAddr->CNT;
 822              		.loc 1 353 0
 823 0024 C560     		str	r5, [r0, #12]
 357:Generated_Source\PSoC6\pdl\drivers\peripheral\profile/cy_profile.c ****     }
 824              		.loc 1 357 0
 825 0026 42EA0406 		orr	r6, r2, r4
 826 002a 1F46     		mov	r7, r3
 827              	.LVL68:
 828              	.LBE64:
ARM GAS  C:\Users\pearlstl\AppData\Local\Temp\ccnkLTaV.s 			page 32


 829              	.LBE63:
 830              	.LBE67:
 831              	.LBE70:
 384:Generated_Source\PSoC6\pdl\drivers\peripheral\profile/cy_profile.c ****     uint64_t temp;
 385:Generated_Source\PSoC6\pdl\drivers\peripheral\profile/cy_profile.c ****     cy_en_profile_status_t retStatus = Cy_Profile_GetRawCount(ctrAddr, &temp);
 386:Generated_Source\PSoC6\pdl\drivers\peripheral\profile/cy_profile.c ****     
 387:Generated_Source\PSoC6\pdl\drivers\peripheral\profile/cy_profile.c ****     if ((result != NULL) && (CY_PROFILE_SUCCESS == retStatus))
 832              		.loc 1 387 0
 833 002c 49B1     		cbz	r1, .L158
 388:Generated_Source\PSoC6\pdl\drivers\peripheral\profile/cy_profile.c ****     {
 389:Generated_Source\PSoC6\pdl\drivers\peripheral\profile/cy_profile.c ****         /* calculate weighted count */
 390:Generated_Source\PSoC6\pdl\drivers\peripheral\profile/cy_profile.c ****         *result = temp * (uint64_t)(ctrAddr->weight);
 834              		.loc 1 390 0
 835 002e 8369     		ldr	r3, [r0, #24]
 836 0030 A3FB0645 		umull	r4, r5, r3, r6
 837 0034 03FB0755 		mla	r5, r3, r7, r5
 838 0038 C1E90045 		strd	r4, [r1]
 839              	.LBB71:
 840              	.LBB68:
 841              	.LBB65:
 842              	.LBB61:
  59:Generated_Source\PSoC6\pdl\drivers\peripheral\profile/cy_profile.c ****         }
 843              		.loc 1 59 0
 844 003c 1046     		mov	r0, r2
 845              	.LVL69:
 846              	.L154:
 847              	.LBE61:
 848              	.LBE65:
 849              	.LBE68:
 850              	.LBE71:
 391:Generated_Source\PSoC6\pdl\drivers\peripheral\profile/cy_profile.c ****     }
 392:Generated_Source\PSoC6\pdl\drivers\peripheral\profile/cy_profile.c ****     
 393:Generated_Source\PSoC6\pdl\drivers\peripheral\profile/cy_profile.c ****     return (retStatus);
 394:Generated_Source\PSoC6\pdl\drivers\peripheral\profile/cy_profile.c **** }
 851              		.loc 1 394 0
 852 003e F0BC     		pop	{r4, r5, r6, r7}
 853              		.cfi_remember_state
 854              		.cfi_restore 7
 855              		.cfi_restore 6
 856              		.cfi_restore 5
 857              		.cfi_restore 4
 858              		.cfi_def_cfa_offset 0
 859 0040 7047     		bx	lr
 860              	.LVL70:
 861              	.L158:
 862              		.cfi_restore_state
 863              	.LBB72:
 864              	.LBB69:
 865              	.LBB66:
 866              	.LBB62:
  59:Generated_Source\PSoC6\pdl\drivers\peripheral\profile/cy_profile.c ****         }
 867              		.loc 1 59 0
 868 0042 0846     		mov	r0, r1
 869              	.LVL71:
 870              	.LBE62:
 871              	.LBE66:
 872              	.LBE69:
ARM GAS  C:\Users\pearlstl\AppData\Local\Temp\ccnkLTaV.s 			page 33


 873              	.LBE72:
 393:Generated_Source\PSoC6\pdl\drivers\peripheral\profile/cy_profile.c **** }
 874              		.loc 1 393 0
 875 0044 FBE7     		b	.L154
 876              	.L160:
 877 0046 00BF     		.align	2
 878              	.L159:
 879 0048 00000000 		.word	.LANCHOR0
 880 004c 01007A00 		.word	7995393
 881              		.cfi_endproc
 882              	.LFE146:
 883              		.size	Cy_Profile_GetWeightedCount, .-Cy_Profile_GetWeightedCount
 884              		.section	.text.Cy_Profile_GetSumWeightedCounts,"ax",%progbits
 885              		.align	2
 886              		.global	Cy_Profile_GetSumWeightedCounts
 887              		.thumb
 888              		.thumb_func
 889              		.type	Cy_Profile_GetSumWeightedCounts, %function
 890              	Cy_Profile_GetSumWeightedCounts:
 891              	.LFB147:
 395:Generated_Source\PSoC6\pdl\drivers\peripheral\profile/cy_profile.c **** 
 396:Generated_Source\PSoC6\pdl\drivers\peripheral\profile/cy_profile.c **** /*******************************************************************************
 397:Generated_Source\PSoC6\pdl\drivers\peripheral\profile/cy_profile.c **** * Function Name: Cy_Profile_GetSumWeightedCounts
 398:Generated_Source\PSoC6\pdl\drivers\peripheral\profile/cy_profile.c **** ****************************************************************************//**
 399:Generated_Source\PSoC6\pdl\drivers\peripheral\profile/cy_profile.c **** *
 400:Generated_Source\PSoC6\pdl\drivers\peripheral\profile/cy_profile.c **** * Reports the weighted sum result of the first n number of counter count values
 401:Generated_Source\PSoC6\pdl\drivers\peripheral\profile/cy_profile.c **** * starting from the specified profile counter data structure base address.
 402:Generated_Source\PSoC6\pdl\drivers\peripheral\profile/cy_profile.c **** *
 403:Generated_Source\PSoC6\pdl\drivers\peripheral\profile/cy_profile.c **** * Each count value is multiplied by its weighing factor before the summing
 404:Generated_Source\PSoC6\pdl\drivers\peripheral\profile/cy_profile.c **** * operation is performed.
 405:Generated_Source\PSoC6\pdl\drivers\peripheral\profile/cy_profile.c **** *
 406:Generated_Source\PSoC6\pdl\drivers\peripheral\profile/cy_profile.c **** * \param ptrsArray Base address of the profile counter data structure
 407:Generated_Source\PSoC6\pdl\drivers\peripheral\profile/cy_profile.c **** *
 408:Generated_Source\PSoC6\pdl\drivers\peripheral\profile/cy_profile.c **** * \param numCounters Number of measured counters in ptrsArray[]
 409:Generated_Source\PSoC6\pdl\drivers\peripheral\profile/cy_profile.c **** *
 410:Generated_Source\PSoC6\pdl\drivers\peripheral\profile/cy_profile.c **** * \return
 411:Generated_Source\PSoC6\pdl\drivers\peripheral\profile/cy_profile.c **** * The weighted sum of the specified counters
 412:Generated_Source\PSoC6\pdl\drivers\peripheral\profile/cy_profile.c **** *
 413:Generated_Source\PSoC6\pdl\drivers\peripheral\profile/cy_profile.c **** * \funcusage
 414:Generated_Source\PSoC6\pdl\drivers\peripheral\profile/cy_profile.c **** * \snippet profile/profile_v1_0_sut_01.cydsn/main_cm4.c snippet_Cy_Profile_GetSumWeightedCounts
 415:Generated_Source\PSoC6\pdl\drivers\peripheral\profile/cy_profile.c **** *
 416:Generated_Source\PSoC6\pdl\drivers\peripheral\profile/cy_profile.c **** *******************************************************************************/
 417:Generated_Source\PSoC6\pdl\drivers\peripheral\profile/cy_profile.c **** uint64_t Cy_Profile_GetSumWeightedCounts(cy_stc_profile_ctr_ptr_t ptrsArray[],
 418:Generated_Source\PSoC6\pdl\drivers\peripheral\profile/cy_profile.c ****                                     uint32_t numCounters)
 419:Generated_Source\PSoC6\pdl\drivers\peripheral\profile/cy_profile.c **** {
 892              		.loc 1 419 0
 893              		.cfi_startproc
 894              		@ args = 0, pretend = 0, frame = 0
 895              		@ frame_needed = 0, uses_anonymous_args = 0
 896              	.LVL72:
 420:Generated_Source\PSoC6\pdl\drivers\peripheral\profile/cy_profile.c ****     uint64_t daSum = (uint64_t)0UL;
 421:Generated_Source\PSoC6\pdl\drivers\peripheral\profile/cy_profile.c ****     
 422:Generated_Source\PSoC6\pdl\drivers\peripheral\profile/cy_profile.c ****     CY_ASSERT_L2(CY_PROFILE_IS_CNT_VALID(numCounters));
 423:Generated_Source\PSoC6\pdl\drivers\peripheral\profile/cy_profile.c ****     
 424:Generated_Source\PSoC6\pdl\drivers\peripheral\profile/cy_profile.c ****     if(ptrsArray != NULL)
 897              		.loc 1 424 0
 898 0000 68B3     		cbz	r0, .L167
ARM GAS  C:\Users\pearlstl\AppData\Local\Temp\ccnkLTaV.s 			page 34


 899              	.LVL73:
 900              	.LBB84:
 425:Generated_Source\PSoC6\pdl\drivers\peripheral\profile/cy_profile.c ****     {
 426:Generated_Source\PSoC6\pdl\drivers\peripheral\profile/cy_profile.c ****         uint64_t num;
 427:Generated_Source\PSoC6\pdl\drivers\peripheral\profile/cy_profile.c ****         uint32_t i;
 428:Generated_Source\PSoC6\pdl\drivers\peripheral\profile/cy_profile.c **** 
 429:Generated_Source\PSoC6\pdl\drivers\peripheral\profile/cy_profile.c ****         for (i = 0UL; i < numCounters; i++)
 901              		.loc 1 429 0 discriminator 1
 902 0002 61B3     		cbz	r1, .L167
 903              	.LBE84:
 419:Generated_Source\PSoC6\pdl\drivers\peripheral\profile/cy_profile.c ****     uint64_t daSum = (uint64_t)0UL;
 904              		.loc 1 419 0
 905 0004 2DE9F04F 		push	{r4, r5, r6, r7, r8, r9, r10, fp, lr}
 906              		.cfi_def_cfa_offset 36
 907              		.cfi_offset 4, -36
 908              		.cfi_offset 5, -32
 909              		.cfi_offset 6, -28
 910              		.cfi_offset 7, -24
 911              		.cfi_offset 8, -20
 912              		.cfi_offset 9, -16
 913              		.cfi_offset 10, -12
 914              		.cfi_offset 11, -8
 915              		.cfi_offset 14, -4
 916 0008 0246     		mov	r2, r0
 917 000a 00EB810A 		add	r10, r0, r1, lsl #2
 918 000e DFF858B0 		ldr	fp, .L173+4
 919              	.LBB111:
 920              		.loc 1 429 0
 921 0012 0020     		movs	r0, #0
 922              	.LVL74:
 923 0014 0021     		movs	r1, #0
 924              	.LVL75:
 925 0016 01E0     		b	.L165
 926              	.LVL76:
 927              	.L163:
 928              		.loc 1 429 0 is_stmt 0 discriminator 2
 929 0018 9245     		cmp	r10, r2
 930 001a 1ED0     		beq	.L172
 931              	.LVL77:
 932              	.L165:
 430:Generated_Source\PSoC6\pdl\drivers\peripheral\profile/cy_profile.c ****         {
 431:Generated_Source\PSoC6\pdl\drivers\peripheral\profile/cy_profile.c ****             /* ignore error reported by Ep_GetWeightedCount() */
 432:Generated_Source\PSoC6\pdl\drivers\peripheral\profile/cy_profile.c ****             if (CY_PROFILE_SUCCESS == Cy_Profile_GetWeightedCount(ptrsArray[i], &num))
 933              		.loc 1 432 0 is_stmt 1
 934 001c 52F8043B 		ldr	r3, [r2], #4
 935              	.LVL78:
 936              	.LBB85:
 937              	.LBB86:
 938              	.LBB87:
 939              	.LBB88:
 940              	.LBB89:
 941              	.LBB90:
  55:Generated_Source\PSoC6\pdl\drivers\peripheral\profile/cy_profile.c ****     {
 942              		.loc 1 55 0
 943 0020 5B45     		cmp	r3, fp
 944 0022 F9D3     		bcc	.L163
 945 0024 0F4C     		ldr	r4, .L173
ARM GAS  C:\Users\pearlstl\AppData\Local\Temp\ccnkLTaV.s 			page 35


 946 0026 A342     		cmp	r3, r4
 947 0028 F6D2     		bcs	.L163
  57:Generated_Source\PSoC6\pdl\drivers\peripheral\profile/cy_profile.c ****         {
 948              		.loc 1 57 0
 949 002a 5C78     		ldrb	r4, [r3, #1]	@ zero_extendqisi2
 950 002c 002C     		cmp	r4, #0
 951 002e F3D0     		beq	.L163
 952              	.LVL79:
 953              	.LBE90:
 954              	.LBE89:
 955              	.LBB91:
 956              	.LBB92:
 353:Generated_Source\PSoC6\pdl\drivers\peripheral\profile/cy_profile.c ****         ctrAddr->cntReg = ctrAddr->cntAddr->CNT;
 957              		.loc 1 353 0
 958 0030 9C68     		ldr	r4, [r3, #8]
 959              	.LBE92:
 960              	.LBE91:
 961              	.LBE88:
 962              	.LBE87:
 963              	.LBE86:
 964              	.LBE85:
 433:Generated_Source\PSoC6\pdl\drivers\peripheral\profile/cy_profile.c ****             {
 434:Generated_Source\PSoC6\pdl\drivers\peripheral\profile/cy_profile.c ****                 daSum += num;
 965              		.loc 1 434 0
 966 0032 D3F818C0 		ldr	ip, [r3, #24]
 967              	.LBB108:
 968              	.LBB105:
 969              	.LBB102:
 970              	.LBB99:
 971              	.LBB96:
 972              	.LBB93:
 353:Generated_Source\PSoC6\pdl\drivers\peripheral\profile/cy_profile.c ****         ctrAddr->cntReg = ctrAddr->cntAddr->CNT;
 973              		.loc 1 353 0
 974 0036 2568     		ldr	r5, [r4]
 354:Generated_Source\PSoC6\pdl\drivers\peripheral\profile/cy_profile.c **** 
 975              		.loc 1 354 0
 976 0038 D4F808E0 		ldr	lr, [r4, #8]
 977              	.LBE93:
 978              	.LBE96:
 979              	.LBE99:
 980              	.LBE102:
 981              	.LBE105:
 982              	.LBE108:
 983              		.loc 1 434 0
 984 003c 5F69     		ldr	r7, [r3, #20]
 985              	.LBB109:
 986              	.LBB106:
 987              	.LBB103:
 988              	.LBB100:
 989              	.LBB97:
 990              	.LBB94:
 353:Generated_Source\PSoC6\pdl\drivers\peripheral\profile/cy_profile.c ****         ctrAddr->cntReg = ctrAddr->cntAddr->CNT;
 991              		.loc 1 353 0
 992 003e DD60     		str	r5, [r3, #12]
 993              	.LBE94:
 994              	.LBE97:
 995              	.LBE100:
ARM GAS  C:\Users\pearlstl\AppData\Local\Temp\ccnkLTaV.s 			page 36


 996              	.LBE103:
 997              	.LBE106:
 998              	.LBE109:
 999              		.loc 1 434 0
 1000 0040 0026     		movs	r6, #0
 1001 0042 46EA0E08 		orr	r8, r6, lr
 1002 0046 A8FB0C45 		umull	r4, r5, r8, ip
 1003 004a 0019     		adds	r0, r0, r4
 1004              	.LVL80:
 1005 004c 0CFB0755 		mla	r5, ip, r7, r5
 1006 0050 6941     		adcs	r1, r1, r5
 429:Generated_Source\PSoC6\pdl\drivers\peripheral\profile/cy_profile.c ****         {
 1007              		.loc 1 429 0
 1008 0052 9245     		cmp	r10, r2
 1009              	.LBB110:
 1010              	.LBB107:
 1011              	.LBB104:
 1012              	.LBB101:
 1013              	.LBB98:
 1014              	.LBB95:
 354:Generated_Source\PSoC6\pdl\drivers\peripheral\profile/cy_profile.c **** 
 1015              		.loc 1 354 0
 1016 0054 C3F810E0 		str	lr, [r3, #16]
 1017              	.LVL81:
 1018              	.LBE95:
 1019              	.LBE98:
 1020              	.LBE101:
 1021              	.LBE104:
 1022              	.LBE107:
 1023              	.LBE110:
 429:Generated_Source\PSoC6\pdl\drivers\peripheral\profile/cy_profile.c ****         {
 1024              		.loc 1 429 0
 1025 0058 E0D1     		bne	.L165
 1026              	.LVL82:
 1027              	.L172:
 1028 005a BDE8F08F 		pop	{r4, r5, r6, r7, r8, r9, r10, fp, pc}
 1029              	.LVL83:
 1030              	.L167:
 1031              		.cfi_def_cfa_offset 0
 1032              		.cfi_restore 4
 1033              		.cfi_restore 5
 1034              		.cfi_restore 6
 1035              		.cfi_restore 7
 1036              		.cfi_restore 8
 1037              		.cfi_restore 9
 1038              		.cfi_restore 10
 1039              		.cfi_restore 11
 1040              		.cfi_restore 14
 1041              	.LBE111:
 420:Generated_Source\PSoC6\pdl\drivers\peripheral\profile/cy_profile.c ****     
 1042              		.loc 1 420 0
 1043 005e 0020     		movs	r0, #0
 1044              	.LVL84:
 1045 0060 0021     		movs	r1, #0
 1046              	.LVL85:
 435:Generated_Source\PSoC6\pdl\drivers\peripheral\profile/cy_profile.c ****             }
 436:Generated_Source\PSoC6\pdl\drivers\peripheral\profile/cy_profile.c ****         }
ARM GAS  C:\Users\pearlstl\AppData\Local\Temp\ccnkLTaV.s 			page 37


 437:Generated_Source\PSoC6\pdl\drivers\peripheral\profile/cy_profile.c ****     }
 438:Generated_Source\PSoC6\pdl\drivers\peripheral\profile/cy_profile.c ****     
 439:Generated_Source\PSoC6\pdl\drivers\peripheral\profile/cy_profile.c ****     return (daSum);
 1047              		.loc 1 439 0
 1048 0062 7047     		bx	lr
 1049              	.L174:
 1050              		.align	2
 1051              	.L173:
 1052 0064 E0000000 		.word	.LANCHOR0+224
 1053 0068 00000000 		.word	.LANCHOR0
 1054              		.cfi_endproc
 1055              	.LFE147:
 1056              		.size	Cy_Profile_GetSumWeightedCounts, .-Cy_Profile_GetSumWeightedCounts
 1057              		.bss
 1058              		.align	2
 1059              		.set	.LANCHOR0,. + 0
 1060              		.type	cy_ep_ctrs, %object
 1061              		.size	cy_ep_ctrs, 224
 1062              	cy_ep_ctrs:
 1063 0000 00000000 		.space	224
 1063      00000000 
 1063      00000000 
 1063      00000000 
 1063      00000000 
 1064              		.text
 1065              	.Letext0:
 1066              		.file 3 "c:\\program files (x86)\\cypress\\psoc creator\\4.2\\psoc creator\\import\\gnu\\arm\\5.4.
 1067              		.file 4 "c:\\program files (x86)\\cypress\\psoc creator\\4.2\\psoc creator\\import\\gnu\\arm\\5.4.
 1068              		.file 5 "Generated_Source\\PSoC6\\pdl\\devices/psoc6/include/ip/cyip_profile.h"
 1069              		.file 6 "Generated_Source\\PSoC6\\pdl\\devices/psoc6/include/psoc6_01_config.h"
 1070              		.file 7 "Generated_Source\\PSoC6\\pdl\\cmsis/include/core_cm4.h"