ARM GAS  C:\Users\pearlstl\AppData\Local\Temp\ccSYOVYh.s 			page 1


   1              		.syntax unified
   2              		.cpu cortex-m4
   3              		.eabi_attribute 27, 1
   4              		.fpu fpv4-sp-d16
   5              		.eabi_attribute 20, 1
   6              		.eabi_attribute 21, 1
   7              		.eabi_attribute 23, 3
   8              		.eabi_attribute 24, 1
   9              		.eabi_attribute 25, 1
  10              		.eabi_attribute 26, 1
  11              		.eabi_attribute 30, 2
  12              		.eabi_attribute 34, 1
  13              		.eabi_attribute 18, 4
  14              		.thumb
  15              		.syntax unified
  16              		.file	"cy_scb_i2c.c"
  17              		.text
  18              	.Ltext0:
  19              		.cfi_sections	.debug_frame
  20              		.section	.text.Cy_SCB_I2C_Init,"ax",%progbits
  21              		.align	2
  22              		.global	Cy_SCB_I2C_Init
  23              		.thumb
  24              		.thumb_func
  25              		.type	Cy_SCB_I2C_Init, %function
  26              	Cy_SCB_I2C_Init:
  27              	.LFB228:
  28              		.file 1 "Generated_Source\\PSoC6\\pdl\\drivers\\peripheral\\scb\\cy_scb_i2c.c"
   1:Generated_Source\PSoC6\pdl\drivers\peripheral\scb/cy_scb_i2c.c **** /***************************************************************************//**
   2:Generated_Source\PSoC6\pdl\drivers\peripheral\scb/cy_scb_i2c.c **** * \file cy_scb_i2c.c
   3:Generated_Source\PSoC6\pdl\drivers\peripheral\scb/cy_scb_i2c.c **** * \version 2.20
   4:Generated_Source\PSoC6\pdl\drivers\peripheral\scb/cy_scb_i2c.c **** *
   5:Generated_Source\PSoC6\pdl\drivers\peripheral\scb/cy_scb_i2c.c **** * Provides I2C API implementation of the SCB driver.
   6:Generated_Source\PSoC6\pdl\drivers\peripheral\scb/cy_scb_i2c.c **** *
   7:Generated_Source\PSoC6\pdl\drivers\peripheral\scb/cy_scb_i2c.c **** ********************************************************************************
   8:Generated_Source\PSoC6\pdl\drivers\peripheral\scb/cy_scb_i2c.c **** * \copyright
   9:Generated_Source\PSoC6\pdl\drivers\peripheral\scb/cy_scb_i2c.c **** * Copyright 2016-2018, Cypress Semiconductor Corporation. All rights reserved.
  10:Generated_Source\PSoC6\pdl\drivers\peripheral\scb/cy_scb_i2c.c **** * You may use this file only in accordance with the license, terms, conditions,
  11:Generated_Source\PSoC6\pdl\drivers\peripheral\scb/cy_scb_i2c.c **** * disclaimers, and limitations in the end user license agreement accompanying
  12:Generated_Source\PSoC6\pdl\drivers\peripheral\scb/cy_scb_i2c.c **** * the software package with which this file was provided.
  13:Generated_Source\PSoC6\pdl\drivers\peripheral\scb/cy_scb_i2c.c **** *******************************************************************************/
  14:Generated_Source\PSoC6\pdl\drivers\peripheral\scb/cy_scb_i2c.c **** 
  15:Generated_Source\PSoC6\pdl\drivers\peripheral\scb/cy_scb_i2c.c **** #include "cy_scb_i2c.h"
  16:Generated_Source\PSoC6\pdl\drivers\peripheral\scb/cy_scb_i2c.c **** 
  17:Generated_Source\PSoC6\pdl\drivers\peripheral\scb/cy_scb_i2c.c **** #ifdef CY_IP_MXSCB
  18:Generated_Source\PSoC6\pdl\drivers\peripheral\scb/cy_scb_i2c.c **** 
  19:Generated_Source\PSoC6\pdl\drivers\peripheral\scb/cy_scb_i2c.c **** #if defined(__cplusplus)
  20:Generated_Source\PSoC6\pdl\drivers\peripheral\scb/cy_scb_i2c.c **** extern "C" {
  21:Generated_Source\PSoC6\pdl\drivers\peripheral\scb/cy_scb_i2c.c **** #endif
  22:Generated_Source\PSoC6\pdl\drivers\peripheral\scb/cy_scb_i2c.c **** 
  23:Generated_Source\PSoC6\pdl\drivers\peripheral\scb/cy_scb_i2c.c **** /***************************************
  24:Generated_Source\PSoC6\pdl\drivers\peripheral\scb/cy_scb_i2c.c **** *        Function Prototypes
  25:Generated_Source\PSoC6\pdl\drivers\peripheral\scb/cy_scb_i2c.c **** ***************************************/
  26:Generated_Source\PSoC6\pdl\drivers\peripheral\scb/cy_scb_i2c.c **** 
  27:Generated_Source\PSoC6\pdl\drivers\peripheral\scb/cy_scb_i2c.c **** static void SlaveHandleAddress     (CySCB_Type *base, cy_stc_scb_i2c_context_t *context);
  28:Generated_Source\PSoC6\pdl\drivers\peripheral\scb/cy_scb_i2c.c **** static void SlaveHandleDataReceive (CySCB_Type *base, cy_stc_scb_i2c_context_t *context);
  29:Generated_Source\PSoC6\pdl\drivers\peripheral\scb/cy_scb_i2c.c **** static void SlaveHandleDataTransmit(CySCB_Type *base, cy_stc_scb_i2c_context_t *context);
ARM GAS  C:\Users\pearlstl\AppData\Local\Temp\ccSYOVYh.s 			page 2


  30:Generated_Source\PSoC6\pdl\drivers\peripheral\scb/cy_scb_i2c.c **** static void SlaveHandleStop        (CySCB_Type *base, cy_stc_scb_i2c_context_t *context);
  31:Generated_Source\PSoC6\pdl\drivers\peripheral\scb/cy_scb_i2c.c **** 
  32:Generated_Source\PSoC6\pdl\drivers\peripheral\scb/cy_scb_i2c.c **** static void MasterHandleEvents      (CySCB_Type *base, cy_stc_scb_i2c_context_t *context);
  33:Generated_Source\PSoC6\pdl\drivers\peripheral\scb/cy_scb_i2c.c **** static void MasterHandleDataTransmit(CySCB_Type *base, cy_stc_scb_i2c_context_t *context);
  34:Generated_Source\PSoC6\pdl\drivers\peripheral\scb/cy_scb_i2c.c **** static void MasterHandleDataReceive (CySCB_Type *base, cy_stc_scb_i2c_context_t *context);
  35:Generated_Source\PSoC6\pdl\drivers\peripheral\scb/cy_scb_i2c.c **** static void MasterHandleStop        (CySCB_Type *base, cy_stc_scb_i2c_context_t *context);
  36:Generated_Source\PSoC6\pdl\drivers\peripheral\scb/cy_scb_i2c.c **** static void MasterHandleComplete    (CySCB_Type *base, cy_stc_scb_i2c_context_t *context);
  37:Generated_Source\PSoC6\pdl\drivers\peripheral\scb/cy_scb_i2c.c **** 
  38:Generated_Source\PSoC6\pdl\drivers\peripheral\scb/cy_scb_i2c.c **** static cy_en_scb_i2c_status_t HandleStatus(CySCB_Type *base, uint32_t status,
  39:Generated_Source\PSoC6\pdl\drivers\peripheral\scb/cy_scb_i2c.c ****                                            cy_stc_scb_i2c_context_t *context);
  40:Generated_Source\PSoC6\pdl\drivers\peripheral\scb/cy_scb_i2c.c **** static uint32_t WaitOneUnit(uint32_t *timeout);
  41:Generated_Source\PSoC6\pdl\drivers\peripheral\scb/cy_scb_i2c.c **** 
  42:Generated_Source\PSoC6\pdl\drivers\peripheral\scb/cy_scb_i2c.c **** 
  43:Generated_Source\PSoC6\pdl\drivers\peripheral\scb/cy_scb_i2c.c **** /*******************************************************************************
  44:Generated_Source\PSoC6\pdl\drivers\peripheral\scb/cy_scb_i2c.c **** * Function Name: Cy_SCB_I2C_Init
  45:Generated_Source\PSoC6\pdl\drivers\peripheral\scb/cy_scb_i2c.c **** ****************************************************************************//**
  46:Generated_Source\PSoC6\pdl\drivers\peripheral\scb/cy_scb_i2c.c **** *
  47:Generated_Source\PSoC6\pdl\drivers\peripheral\scb/cy_scb_i2c.c **** * Initializes the SCB for the I2C operation.
  48:Generated_Source\PSoC6\pdl\drivers\peripheral\scb/cy_scb_i2c.c **** *
  49:Generated_Source\PSoC6\pdl\drivers\peripheral\scb/cy_scb_i2c.c **** * \param base
  50:Generated_Source\PSoC6\pdl\drivers\peripheral\scb/cy_scb_i2c.c **** * The pointer to the I2C SCB instance.
  51:Generated_Source\PSoC6\pdl\drivers\peripheral\scb/cy_scb_i2c.c **** *
  52:Generated_Source\PSoC6\pdl\drivers\peripheral\scb/cy_scb_i2c.c **** * \param config
  53:Generated_Source\PSoC6\pdl\drivers\peripheral\scb/cy_scb_i2c.c **** * The pointer to the configuration structure \ref cy_stc_scb_i2c_config_t.
  54:Generated_Source\PSoC6\pdl\drivers\peripheral\scb/cy_scb_i2c.c **** *
  55:Generated_Source\PSoC6\pdl\drivers\peripheral\scb/cy_scb_i2c.c **** * \param context
  56:Generated_Source\PSoC6\pdl\drivers\peripheral\scb/cy_scb_i2c.c **** * The pointer to the context structure \ref cy_stc_scb_i2c_context_t allocated
  57:Generated_Source\PSoC6\pdl\drivers\peripheral\scb/cy_scb_i2c.c **** * by the user. The structure is used during the I2C operation for internal
  58:Generated_Source\PSoC6\pdl\drivers\peripheral\scb/cy_scb_i2c.c **** * configuration and data retention. The user must not modify anything
  59:Generated_Source\PSoC6\pdl\drivers\peripheral\scb/cy_scb_i2c.c **** * in this structure.
  60:Generated_Source\PSoC6\pdl\drivers\peripheral\scb/cy_scb_i2c.c **** *
  61:Generated_Source\PSoC6\pdl\drivers\peripheral\scb/cy_scb_i2c.c **** * \return
  62:Generated_Source\PSoC6\pdl\drivers\peripheral\scb/cy_scb_i2c.c **** * \ref cy_en_scb_i2c_status_t
  63:Generated_Source\PSoC6\pdl\drivers\peripheral\scb/cy_scb_i2c.c **** *
  64:Generated_Source\PSoC6\pdl\drivers\peripheral\scb/cy_scb_i2c.c **** * \note
  65:Generated_Source\PSoC6\pdl\drivers\peripheral\scb/cy_scb_i2c.c **** * Ensure that the SCB block is disabled before calling this function.
  66:Generated_Source\PSoC6\pdl\drivers\peripheral\scb/cy_scb_i2c.c **** *
  67:Generated_Source\PSoC6\pdl\drivers\peripheral\scb/cy_scb_i2c.c **** *******************************************************************************/
  68:Generated_Source\PSoC6\pdl\drivers\peripheral\scb/cy_scb_i2c.c **** cy_en_scb_i2c_status_t Cy_SCB_I2C_Init(CySCB_Type *base, cy_stc_scb_i2c_config_t const *config, cy_
  69:Generated_Source\PSoC6\pdl\drivers\peripheral\scb/cy_scb_i2c.c **** {
  29              		.loc 1 69 0
  30              		.cfi_startproc
  31              		@ args = 0, pretend = 0, frame = 0
  32              		@ frame_needed = 0, uses_anonymous_args = 0
  33              	.LVL0:
  34 0000 F0B5     		push	{r4, r5, r6, r7, lr}
  35              		.cfi_def_cfa_offset 20
  36              		.cfi_offset 4, -20
  37              		.cfi_offset 5, -16
  38              		.cfi_offset 6, -12
  39              		.cfi_offset 7, -8
  40              		.cfi_offset 14, -4
  70:Generated_Source\PSoC6\pdl\drivers\peripheral\scb/cy_scb_i2c.c ****     /* Enable digital filter for only for master modes */
  71:Generated_Source\PSoC6\pdl\drivers\peripheral\scb/cy_scb_i2c.c ****     bool enableDigFilter = (CY_SCB_I2C_SLAVE != config->i2cMode) && (config->enableDigitalFilter);
  41              		.loc 1 71 0
  42 0002 0C78     		ldrb	r4, [r1]	@ zero_extendqisi2
  43 0004 012C     		cmp	r4, #1
ARM GAS  C:\Users\pearlstl\AppData\Local\Temp\ccSYOVYh.s 			page 3


  44 0006 78D0     		beq	.L14
  45              		.loc 1 71 0 is_stmt 0 discriminator 1
  46 0008 0E7A     		ldrb	r6, [r1, #8]	@ zero_extendqisi2
  47              	.L2:
  48              	.LVL1:
  72:Generated_Source\PSoC6\pdl\drivers\peripheral\scb/cy_scb_i2c.c **** 
  73:Generated_Source\PSoC6\pdl\drivers\peripheral\scb/cy_scb_i2c.c ****     /* Input parameters verification */
  74:Generated_Source\PSoC6\pdl\drivers\peripheral\scb/cy_scb_i2c.c ****     if ((NULL == base) || (NULL == config) || (NULL == context))
  49              		.loc 1 74 0 is_stmt 1
  50 000a 0028     		cmp	r0, #0
  51 000c 73D0     		beq	.L21
  52              		.loc 1 74 0 is_stmt 0 discriminator 2
  53 000e 002A     		cmp	r2, #0
  54 0010 71D0     		beq	.L21
  75:Generated_Source\PSoC6\pdl\drivers\peripheral\scb/cy_scb_i2c.c ****     {
  76:Generated_Source\PSoC6\pdl\drivers\peripheral\scb/cy_scb_i2c.c ****         return CY_SCB_I2C_BAD_PARAM;
  77:Generated_Source\PSoC6\pdl\drivers\peripheral\scb/cy_scb_i2c.c ****     }
  78:Generated_Source\PSoC6\pdl\drivers\peripheral\scb/cy_scb_i2c.c **** 
  79:Generated_Source\PSoC6\pdl\drivers\peripheral\scb/cy_scb_i2c.c ****     CY_ASSERT_L3(CY_SCB_I2C_IS_MODE_VALID(config->i2cMode));
  80:Generated_Source\PSoC6\pdl\drivers\peripheral\scb/cy_scb_i2c.c ****     CY_ASSERT_L2((config->useRxFifo) ? (!config->acceptAddrInFifo) : true);
  81:Generated_Source\PSoC6\pdl\drivers\peripheral\scb/cy_scb_i2c.c ****     CY_ASSERT_L2(CY_SCB_IS_I2C_ADDR_VALID     (config->slaveAddress));
  82:Generated_Source\PSoC6\pdl\drivers\peripheral\scb/cy_scb_i2c.c ****     CY_ASSERT_L2(CY_SCB_I2C_IS_ADDR_MASK_VALID(config->slaveAddressMask));
  83:Generated_Source\PSoC6\pdl\drivers\peripheral\scb/cy_scb_i2c.c ****     CY_ASSERT_L2(CY_SCB_I2C_IS_PHASE_OVERSAMPLE_VALID(config->highPhaseDutyCycle));
  84:Generated_Source\PSoC6\pdl\drivers\peripheral\scb/cy_scb_i2c.c ****     CY_ASSERT_L2(CY_SCB_I2C_IS_PHASE_OVERSAMPLE_VALID(config->lowPhaseDutyCycle));
  85:Generated_Source\PSoC6\pdl\drivers\peripheral\scb/cy_scb_i2c.c **** 
  86:Generated_Source\PSoC6\pdl\drivers\peripheral\scb/cy_scb_i2c.c ****     /* Configure the I2C interface */
  87:Generated_Source\PSoC6\pdl\drivers\peripheral\scb/cy_scb_i2c.c ****     SCB_CTRL(base) = _BOOL2FLD(SCB_CTRL_ADDR_ACCEPT, config->acceptAddrInFifo)   |
  55              		.loc 1 87 0 is_stmt 1
  56 0012 91F805E0 		ldrb	lr, [r1, #5]	@ zero_extendqisi2
  57 0016 3D4F     		ldr	r7, .L30
  88:Generated_Source\PSoC6\pdl\drivers\peripheral\scb/cy_scb_i2c.c ****                      _BOOL2FLD(SCB_CTRL_EC_AM_MODE, config->enableWakeFromSleep) |
  89:Generated_Source\PSoC6\pdl\drivers\peripheral\scb/cy_scb_i2c.c ****                      SCB_CTRL_BYTE_MODE_Msk;
  90:Generated_Source\PSoC6\pdl\drivers\peripheral\scb/cy_scb_i2c.c **** 
  91:Generated_Source\PSoC6\pdl\drivers\peripheral\scb/cy_scb_i2c.c ****     SCB_I2C_CTRL(base) = _BOOL2FLD(SCB_I2C_CTRL_S_GENERAL_IGNORE, !config->ackGeneralAddr)        |
  92:Generated_Source\PSoC6\pdl\drivers\peripheral\scb/cy_scb_i2c.c ****                          _VAL2FLD(SCB_I2C_CTRL_HIGH_PHASE_OVS, (config->highPhaseDutyCycle - 1U)) |
  93:Generated_Source\PSoC6\pdl\drivers\peripheral\scb/cy_scb_i2c.c ****                          _VAL2FLD(SCB_I2C_CTRL_LOW_PHASE_OVS,  (config->lowPhaseDutyCycle - 1U))  |
  58              		.loc 1 93 0
  59 0018 0D69     		ldr	r5, [r1, #16]
  60 001a CB68     		ldr	r3, [r1, #12]
  88:Generated_Source\PSoC6\pdl\drivers\peripheral\scb/cy_scb_i2c.c ****                      _BOOL2FLD(SCB_CTRL_EC_AM_MODE, config->enableWakeFromSleep) |
  61              		.loc 1 88 0
  62 001c 91F807C0 		ldrb	ip, [r1, #7]	@ zero_extendqisi2
  87:Generated_Source\PSoC6\pdl\drivers\peripheral\scb/cy_scb_i2c.c ****                      _BOOL2FLD(SCB_CTRL_EC_AM_MODE, config->enableWakeFromSleep) |
  63              		.loc 1 87 0
  64 0020 BEF1000F 		cmp	lr, #0
  65 0024 13BF     		iteet	ne
  66 0026 BE46     		movne	lr, r7
  67 0028 4FF4106E 		moveq	lr, #2304
  68 002c 4FF40067 		moveq	r7, #2048
  69 0030 4FF48437 		movne	r7, #67584
  88:Generated_Source\PSoC6\pdl\drivers\peripheral\scb/cy_scb_i2c.c ****                      _BOOL2FLD(SCB_CTRL_EC_AM_MODE, config->enableWakeFromSleep) |
  70              		.loc 1 88 0
  71 0034 BCF1000F 		cmp	ip, #0
  72 0038 18BF     		it	ne
  73 003a 7746     		movne	r7, lr
  74              		.loc 1 93 0
  75 003c 013D     		subs	r5, r5, #1
ARM GAS  C:\Users\pearlstl\AppData\Local\Temp\ccSYOVYh.s 			page 4


  91:Generated_Source\PSoC6\pdl\drivers\peripheral\scb/cy_scb_i2c.c ****                          _VAL2FLD(SCB_I2C_CTRL_HIGH_PHASE_OVS, (config->highPhaseDutyCycle - 1U)) |
  76              		.loc 1 91 0
  77 003e 91F806E0 		ldrb	lr, [r1, #6]	@ zero_extendqisi2
  87:Generated_Source\PSoC6\pdl\drivers\peripheral\scb/cy_scb_i2c.c ****                      _BOOL2FLD(SCB_CTRL_EC_AM_MODE, config->enableWakeFromSleep) |
  78              		.loc 1 87 0
  79 0042 0760     		str	r7, [r0]
  80              		.loc 1 93 0
  81 0044 013B     		subs	r3, r3, #1
  82 0046 05F00F05 		and	r5, r5, #15
  83 004a 1B01     		lsls	r3, r3, #4
  84 004c 45EA8475 		orr	r5, r5, r4, lsl #30
  91:Generated_Source\PSoC6\pdl\drivers\peripheral\scb/cy_scb_i2c.c ****                          _VAL2FLD(SCB_I2C_CTRL_HIGH_PHASE_OVS, (config->highPhaseDutyCycle - 1U)) |
  85              		.loc 1 91 0
  86 0050 BEF1000F 		cmp	lr, #0
  87              		.loc 1 93 0
  88 0054 DBB2     		uxtb	r3, r3
  89 0056 43EA0503 		orr	r3, r3, r5
  91:Generated_Source\PSoC6\pdl\drivers\peripheral\scb/cy_scb_i2c.c ****                          _VAL2FLD(SCB_I2C_CTRL_HIGH_PHASE_OVS, (config->highPhaseDutyCycle - 1U)) |
  90              		.loc 1 91 0
  91 005a 14BF     		ite	ne
  92 005c 0025     		movne	r5, #0
  93 005e 4FF40065 		moveq	r5, #2048
  94              		.loc 1 93 0
  95 0062 2B43     		orrs	r3, r3, r5
  91:Generated_Source\PSoC6\pdl\drivers\peripheral\scb/cy_scb_i2c.c ****                          _VAL2FLD(SCB_I2C_CTRL_HIGH_PHASE_OVS, (config->highPhaseDutyCycle - 1U)) |
  96              		.loc 1 91 0
  97 0064 0366     		str	r3, [r0, #96]
  94:Generated_Source\PSoC6\pdl\drivers\peripheral\scb/cy_scb_i2c.c ****                          _VAL2FLD(CY_SCB_I2C_CTRL_MODE, (uint32_t) config->i2cMode);
  95:Generated_Source\PSoC6\pdl\drivers\peripheral\scb/cy_scb_i2c.c **** 
  96:Generated_Source\PSoC6\pdl\drivers\peripheral\scb/cy_scb_i2c.c ****     /* Configure the RX direction */
  97:Generated_Source\PSoC6\pdl\drivers\peripheral\scb/cy_scb_i2c.c ****     SCB_RX_CTRL(base)      = _BOOL2FLD(SCB_RX_CTRL_MEDIAN, enableDigFilter) |
  98              		.loc 1 97 0
  99 0066 002E     		cmp	r6, #0
 100 0068 49D1     		bne	.L7
 101 006a 40F20713 		movw	r3, #263
 102 006e C0F80033 		str	r3, [r0, #768]
  98:Generated_Source\PSoC6\pdl\drivers\peripheral\scb/cy_scb_i2c.c ****                              CY_SCB_I2C_RX_CTRL;
  99:Generated_Source\PSoC6\pdl\drivers\peripheral\scb/cy_scb_i2c.c **** 
 100:Generated_Source\PSoC6\pdl\drivers\peripheral\scb/cy_scb_i2c.c ****     /* Configure an analog filter */
 101:Generated_Source\PSoC6\pdl\drivers\peripheral\scb/cy_scb_i2c.c ****     SCB_I2C_CFG(base) = (enableDigFilter) ? CY_SCB_I2C_DISABLE_ANALOG_FITLER : CY_SCB_I2C_ENABLE_AN
 103              		.loc 1 101 0
 104 0072 03F52813 		add	r3, r3, #2752512
 105 0076 03F60C73 		addw	r3, r3, #3852
 106              	.L13:
 102:Generated_Source\PSoC6\pdl\drivers\peripheral\scb/cy_scb_i2c.c **** 
 103:Generated_Source\PSoC6\pdl\drivers\peripheral\scb/cy_scb_i2c.c ****     SCB_RX_FIFO_CTRL(base) = (config->useRxFifo ? (CY_SCB_I2C_FIFO_SIZE - 1UL) : 0UL);
 107              		.loc 1 103 0 discriminator 4
 108 007a 4E78     		ldrb	r6, [r1, #1]	@ zero_extendqisi2
 109              	.LVL2:
 101:Generated_Source\PSoC6\pdl\drivers\peripheral\scb/cy_scb_i2c.c **** 
 110              		.loc 1 101 0 discriminator 4
 111 007c 0367     		str	r3, [r0, #112]
 112              		.loc 1 103 0 discriminator 4
 113 007e 002E     		cmp	r6, #0
 114 0080 0CBF     		ite	eq
 115 0082 0023     		moveq	r3, #0
 116 0084 7F23     		movne	r3, #127
ARM GAS  C:\Users\pearlstl\AppData\Local\Temp\ccSYOVYh.s 			page 5


 117 0086 C0F80433 		str	r3, [r0, #772]
 104:Generated_Source\PSoC6\pdl\drivers\peripheral\scb/cy_scb_i2c.c **** 
 105:Generated_Source\PSoC6\pdl\drivers\peripheral\scb/cy_scb_i2c.c ****     /* Set the default address and mask */
 106:Generated_Source\PSoC6\pdl\drivers\peripheral\scb/cy_scb_i2c.c ****     SCB_RX_MATCH(base) = _VAL2FLD(SCB_RX_MATCH_ADDR, ((uint32_t) config->slaveAddress << 1UL)) |
 118              		.loc 1 106 0 discriminator 4
 119 008a CB78     		ldrb	r3, [r1, #3]	@ zero_extendqisi2
 107:Generated_Source\PSoC6\pdl\drivers\peripheral\scb/cy_scb_i2c.c ****                          _VAL2FLD(SCB_RX_MATCH_MASK, (uint32_t)  config->slaveAddressMask);
 108:Generated_Source\PSoC6\pdl\drivers\peripheral\scb/cy_scb_i2c.c **** 
 109:Generated_Source\PSoC6\pdl\drivers\peripheral\scb/cy_scb_i2c.c ****     /* Configure the TX direction */
 110:Generated_Source\PSoC6\pdl\drivers\peripheral\scb/cy_scb_i2c.c ****     SCB_TX_CTRL(base)      = CY_SCB_I2C_TX_CTRL;
 111:Generated_Source\PSoC6\pdl\drivers\peripheral\scb/cy_scb_i2c.c ****     SCB_TX_FIFO_CTRL(base) = (config->useTxFifo ? CY_SCB_I2C_HALF_FIFO_SIZE : 1UL);
 120              		.loc 1 111 0 discriminator 4
 121 008c 8D78     		ldrb	r5, [r1, #2]	@ zero_extendqisi2
 106:Generated_Source\PSoC6\pdl\drivers\peripheral\scb/cy_scb_i2c.c ****                          _VAL2FLD(SCB_RX_MATCH_MASK, (uint32_t)  config->slaveAddressMask);
 122              		.loc 1 106 0 discriminator 4
 123 008e 0979     		ldrb	r1, [r1, #4]	@ zero_extendqisi2
 124              	.LVL3:
 110:Generated_Source\PSoC6\pdl\drivers\peripheral\scb/cy_scb_i2c.c ****     SCB_TX_FIFO_CTRL(base) = (config->useTxFifo ? CY_SCB_I2C_HALF_FIFO_SIZE : 1UL);
 125              		.loc 1 110 0 discriminator 4
 126 0090 DFF884E0 		ldr	lr, .L30+12
 106:Generated_Source\PSoC6\pdl\drivers\peripheral\scb/cy_scb_i2c.c ****                          _VAL2FLD(SCB_RX_MATCH_MASK, (uint32_t)  config->slaveAddressMask);
 127              		.loc 1 106 0 discriminator 4
 128 0094 5B00     		lsls	r3, r3, #1
 129              		.loc 1 111 0 discriminator 4
 130 0096 002D     		cmp	r5, #0
 106:Generated_Source\PSoC6\pdl\drivers\peripheral\scb/cy_scb_i2c.c ****                          _VAL2FLD(SCB_RX_MATCH_MASK, (uint32_t)  config->slaveAddressMask);
 131              		.loc 1 106 0 discriminator 4
 132 0098 DBB2     		uxtb	r3, r3
 133 009a 43EA0143 		orr	r3, r3, r1, lsl #16
 134              		.loc 1 111 0 discriminator 4
 135 009e 0CBF     		ite	eq
 136 00a0 0127     		moveq	r7, #1
 137 00a2 4027     		movne	r7, #64
 112:Generated_Source\PSoC6\pdl\drivers\peripheral\scb/cy_scb_i2c.c **** 
 113:Generated_Source\PSoC6\pdl\drivers\peripheral\scb/cy_scb_i2c.c ****     /* Configure interrupt sources */
 114:Generated_Source\PSoC6\pdl\drivers\peripheral\scb/cy_scb_i2c.c ****     SCB_INTR_SPI_EC_MASK(base) = 0UL;
 115:Generated_Source\PSoC6\pdl\drivers\peripheral\scb/cy_scb_i2c.c ****     SCB_INTR_I2C_EC_MASK(base) = 0UL;
 116:Generated_Source\PSoC6\pdl\drivers\peripheral\scb/cy_scb_i2c.c ****     SCB_INTR_RX_MASK(base)     = 0UL;
 117:Generated_Source\PSoC6\pdl\drivers\peripheral\scb/cy_scb_i2c.c ****     SCB_INTR_TX_MASK(base)     = 0UL;
 118:Generated_Source\PSoC6\pdl\drivers\peripheral\scb/cy_scb_i2c.c ****     SCB_INTR_M_MASK(base)      = 0UL;
 119:Generated_Source\PSoC6\pdl\drivers\peripheral\scb/cy_scb_i2c.c **** 
 120:Generated_Source\PSoC6\pdl\drivers\peripheral\scb/cy_scb_i2c.c ****     SCB_INTR_S_MASK(base) = (CY_SCB_I2C_MASTER != config->i2cMode) ? CY_SCB_I2C_SLAVE_INTR : 0UL;
 138              		.loc 1 120 0 discriminator 4
 139 00a4 022C     		cmp	r4, #2
 106:Generated_Source\PSoC6\pdl\drivers\peripheral\scb/cy_scb_i2c.c ****                          _VAL2FLD(SCB_RX_MATCH_MASK, (uint32_t)  config->slaveAddressMask);
 140              		.loc 1 106 0 discriminator 4
 141 00a6 C0F81033 		str	r3, [r0, #784]
 142              		.loc 1 120 0 discriminator 4
 143 00aa 40F2D111 		movw	r1, #465
 114:Generated_Source\PSoC6\pdl\drivers\peripheral\scb/cy_scb_i2c.c ****     SCB_INTR_I2C_EC_MASK(base) = 0UL;
 144              		.loc 1 114 0 discriminator 4
 145 00ae 4FF00003 		mov	r3, #0
 146              		.loc 1 120 0 discriminator 4
 147 00b2 08BF     		it	eq
 148 00b4 0021     		moveq	r1, #0
 121:Generated_Source\PSoC6\pdl\drivers\peripheral\scb/cy_scb_i2c.c **** 
 122:Generated_Source\PSoC6\pdl\drivers\peripheral\scb/cy_scb_i2c.c ****     /* Initialize the context */
ARM GAS  C:\Users\pearlstl\AppData\Local\Temp\ccSYOVYh.s 			page 6


 123:Generated_Source\PSoC6\pdl\drivers\peripheral\scb/cy_scb_i2c.c ****     context->useRxFifo = config->useRxFifo;
 124:Generated_Source\PSoC6\pdl\drivers\peripheral\scb/cy_scb_i2c.c ****     context->useTxFifo = config->useTxFifo;
 125:Generated_Source\PSoC6\pdl\drivers\peripheral\scb/cy_scb_i2c.c **** 
 126:Generated_Source\PSoC6\pdl\drivers\peripheral\scb/cy_scb_i2c.c ****     context->state = CY_SCB_I2C_IDLE;
 149              		.loc 1 126 0 discriminator 4
 150 00b6 4FF08054 		mov	r4, #268435456
 110:Generated_Source\PSoC6\pdl\drivers\peripheral\scb/cy_scb_i2c.c ****     SCB_TX_FIFO_CTRL(base) = (config->useTxFifo ? CY_SCB_I2C_HALF_FIFO_SIZE : 1UL);
 151              		.loc 1 110 0 discriminator 4
 152 00ba C0F800E2 		str	lr, [r0, #512]
 111:Generated_Source\PSoC6\pdl\drivers\peripheral\scb/cy_scb_i2c.c **** 
 153              		.loc 1 111 0 discriminator 4
 154 00be C0F80472 		str	r7, [r0, #516]
 114:Generated_Source\PSoC6\pdl\drivers\peripheral\scb/cy_scb_i2c.c ****     SCB_INTR_I2C_EC_MASK(base) = 0UL;
 155              		.loc 1 114 0 discriminator 4
 156 00c2 C0F8C83E 		str	r3, [r0, #3784]
 115:Generated_Source\PSoC6\pdl\drivers\peripheral\scb/cy_scb_i2c.c ****     SCB_INTR_RX_MASK(base)     = 0UL;
 157              		.loc 1 115 0 discriminator 4
 158 00c6 C0F8883E 		str	r3, [r0, #3720]
 116:Generated_Source\PSoC6\pdl\drivers\peripheral\scb/cy_scb_i2c.c ****     SCB_INTR_TX_MASK(base)     = 0UL;
 159              		.loc 1 116 0 discriminator 4
 160 00ca C0F8C83F 		str	r3, [r0, #4040]
 117:Generated_Source\PSoC6\pdl\drivers\peripheral\scb/cy_scb_i2c.c ****     SCB_INTR_M_MASK(base)      = 0UL;
 161              		.loc 1 117 0 discriminator 4
 162 00ce C0F8883F 		str	r3, [r0, #3976]
 118:Generated_Source\PSoC6\pdl\drivers\peripheral\scb/cy_scb_i2c.c **** 
 163              		.loc 1 118 0 discriminator 4
 164 00d2 C0F8083F 		str	r3, [r0, #3848]
 120:Generated_Source\PSoC6\pdl\drivers\peripheral\scb/cy_scb_i2c.c **** 
 165              		.loc 1 120 0 discriminator 4
 166 00d6 C0F8481F 		str	r1, [r0, #3912]
 167              		.loc 1 126 0 discriminator 4
 168 00da 5460     		str	r4, [r2, #4]
 127:Generated_Source\PSoC6\pdl\drivers\peripheral\scb/cy_scb_i2c.c **** 
 128:Generated_Source\PSoC6\pdl\drivers\peripheral\scb/cy_scb_i2c.c ****     /* Master-specific */
 129:Generated_Source\PSoC6\pdl\drivers\peripheral\scb/cy_scb_i2c.c ****     context->masterStatus     = 0UL;
 130:Generated_Source\PSoC6\pdl\drivers\peripheral\scb/cy_scb_i2c.c ****     context->masterBufferIdx  = 0UL;
 131:Generated_Source\PSoC6\pdl\drivers\peripheral\scb/cy_scb_i2c.c **** 
 132:Generated_Source\PSoC6\pdl\drivers\peripheral\scb/cy_scb_i2c.c ****     /* Slave-specific */
 133:Generated_Source\PSoC6\pdl\drivers\peripheral\scb/cy_scb_i2c.c ****     context->slaveStatus       = 0UL;
 134:Generated_Source\PSoC6\pdl\drivers\peripheral\scb/cy_scb_i2c.c **** 
 135:Generated_Source\PSoC6\pdl\drivers\peripheral\scb/cy_scb_i2c.c ****     context->slaveRxBufferIdx  = 0UL;
 136:Generated_Source\PSoC6\pdl\drivers\peripheral\scb/cy_scb_i2c.c ****     context->slaveRxBufferSize = 0UL;
 137:Generated_Source\PSoC6\pdl\drivers\peripheral\scb/cy_scb_i2c.c **** 
 138:Generated_Source\PSoC6\pdl\drivers\peripheral\scb/cy_scb_i2c.c ****     context->slaveTxBufferIdx  = 0UL;
 139:Generated_Source\PSoC6\pdl\drivers\peripheral\scb/cy_scb_i2c.c ****     context->slaveTxBufferSize = 0UL;
 140:Generated_Source\PSoC6\pdl\drivers\peripheral\scb/cy_scb_i2c.c **** 
 141:Generated_Source\PSoC6\pdl\drivers\peripheral\scb/cy_scb_i2c.c ****     /* Unregister callbacks */
 142:Generated_Source\PSoC6\pdl\drivers\peripheral\scb/cy_scb_i2c.c ****     context->cbEvents = NULL;
 143:Generated_Source\PSoC6\pdl\drivers\peripheral\scb/cy_scb_i2c.c ****     context->cbAddr   = NULL;
 144:Generated_Source\PSoC6\pdl\drivers\peripheral\scb/cy_scb_i2c.c **** 
 145:Generated_Source\PSoC6\pdl\drivers\peripheral\scb/cy_scb_i2c.c ****     return CY_SCB_I2C_SUCCESS;
 169              		.loc 1 145 0 discriminator 4
 170 00dc 1846     		mov	r0, r3
 171              	.LVL4:
 129:Generated_Source\PSoC6\pdl\drivers\peripheral\scb/cy_scb_i2c.c ****     context->masterBufferIdx  = 0UL;
 172              		.loc 1 129 0 discriminator 4
 173 00de 9360     		str	r3, [r2, #8]
ARM GAS  C:\Users\pearlstl\AppData\Local\Temp\ccSYOVYh.s 			page 7


 123:Generated_Source\PSoC6\pdl\drivers\peripheral\scb/cy_scb_i2c.c ****     context->useTxFifo = config->useTxFifo;
 174              		.loc 1 123 0 discriminator 4
 175 00e0 1670     		strb	r6, [r2]
 130:Generated_Source\PSoC6\pdl\drivers\peripheral\scb/cy_scb_i2c.c **** 
 176              		.loc 1 130 0 discriminator 4
 177 00e2 9361     		str	r3, [r2, #24]
 124:Generated_Source\PSoC6\pdl\drivers\peripheral\scb/cy_scb_i2c.c **** 
 178              		.loc 1 124 0 discriminator 4
 179 00e4 5570     		strb	r5, [r2, #1]
 133:Generated_Source\PSoC6\pdl\drivers\peripheral\scb/cy_scb_i2c.c **** 
 180              		.loc 1 133 0 discriminator 4
 181 00e6 1362     		str	r3, [r2, #32]
 136:Generated_Source\PSoC6\pdl\drivers\peripheral\scb/cy_scb_i2c.c **** 
 182              		.loc 1 136 0 discriminator 4
 183 00e8 D363     		str	r3, [r2, #60]
 135:Generated_Source\PSoC6\pdl\drivers\peripheral\scb/cy_scb_i2c.c ****     context->slaveRxBufferSize = 0UL;
 184              		.loc 1 135 0 discriminator 4
 185 00ea 1364     		str	r3, [r2, #64]
 139:Generated_Source\PSoC6\pdl\drivers\peripheral\scb/cy_scb_i2c.c **** 
 186              		.loc 1 139 0 discriminator 4
 187 00ec D362     		str	r3, [r2, #44]
 142:Generated_Source\PSoC6\pdl\drivers\peripheral\scb/cy_scb_i2c.c ****     context->cbAddr   = NULL;
 188              		.loc 1 142 0 discriminator 4
 189 00ee 5364     		str	r3, [r2, #68]
 143:Generated_Source\PSoC6\pdl\drivers\peripheral\scb/cy_scb_i2c.c **** 
 190              		.loc 1 143 0 discriminator 4
 191 00f0 9364     		str	r3, [r2, #72]
 138:Generated_Source\PSoC6\pdl\drivers\peripheral\scb/cy_scb_i2c.c ****     context->slaveTxBufferSize = 0UL;
 192              		.loc 1 138 0 discriminator 4
 193 00f2 1363     		str	r3, [r2, #48]
 194              		.loc 1 145 0 discriminator 4
 195 00f4 F0BD     		pop	{r4, r5, r6, r7, pc}
 196              	.LVL5:
 197              	.L21:
  76:Generated_Source\PSoC6\pdl\drivers\peripheral\scb/cy_scb_i2c.c ****     }
 198              		.loc 1 76 0
 199 00f6 0648     		ldr	r0, .L30+4
 200              	.LVL6:
 201 00f8 F0BD     		pop	{r4, r5, r6, r7, pc}
 202              	.LVL7:
 203              	.L14:
  71:Generated_Source\PSoC6\pdl\drivers\peripheral\scb/cy_scb_i2c.c **** 
 204              		.loc 1 71 0
 205 00fa 0026     		movs	r6, #0
 206 00fc 85E7     		b	.L2
 207              	.LVL8:
 208              	.L7:
  97:Generated_Source\PSoC6\pdl\drivers\peripheral\scb/cy_scb_i2c.c ****                              CY_SCB_I2C_RX_CTRL;
 209              		.loc 1 97 0
 210 00fe 40F20733 		movw	r3, #775
 211 0102 C0F80033 		str	r3, [r0, #768]
 101:Generated_Source\PSoC6\pdl\drivers\peripheral\scb/cy_scb_i2c.c **** 
 212              		.loc 1 101 0
 213 0106 034B     		ldr	r3, .L30+8
 214 0108 B7E7     		b	.L13
 215              	.L31:
 216 010a 00BF     		.align	2
ARM GAS  C:\Users\pearlstl\AppData\Local\Temp\ccSYOVYh.s 			page 8


 217              	.L30:
 218 010c 00090100 		.word	67840
 219 0110 0120AA00 		.word	11149313
 220 0114 03002A00 		.word	2752515
 221 0118 07010100 		.word	65799
 222              		.cfi_endproc
 223              	.LFE228:
 224              		.size	Cy_SCB_I2C_Init, .-Cy_SCB_I2C_Init
 225              		.section	.text.Cy_SCB_I2C_DeInit,"ax",%progbits
 226              		.align	2
 227              		.global	Cy_SCB_I2C_DeInit
 228              		.thumb
 229              		.thumb_func
 230              		.type	Cy_SCB_I2C_DeInit, %function
 231              	Cy_SCB_I2C_DeInit:
 232              	.LFB229:
 146:Generated_Source\PSoC6\pdl\drivers\peripheral\scb/cy_scb_i2c.c **** }
 147:Generated_Source\PSoC6\pdl\drivers\peripheral\scb/cy_scb_i2c.c **** 
 148:Generated_Source\PSoC6\pdl\drivers\peripheral\scb/cy_scb_i2c.c **** 
 149:Generated_Source\PSoC6\pdl\drivers\peripheral\scb/cy_scb_i2c.c **** /*******************************************************************************
 150:Generated_Source\PSoC6\pdl\drivers\peripheral\scb/cy_scb_i2c.c **** *  Function Name: Cy_SCB_I2C_DeInit
 151:Generated_Source\PSoC6\pdl\drivers\peripheral\scb/cy_scb_i2c.c **** ****************************************************************************//**
 152:Generated_Source\PSoC6\pdl\drivers\peripheral\scb/cy_scb_i2c.c **** *
 153:Generated_Source\PSoC6\pdl\drivers\peripheral\scb/cy_scb_i2c.c **** * De-initializes the SCB block and returns register values to default.
 154:Generated_Source\PSoC6\pdl\drivers\peripheral\scb/cy_scb_i2c.c **** *
 155:Generated_Source\PSoC6\pdl\drivers\peripheral\scb/cy_scb_i2c.c **** * \param base
 156:Generated_Source\PSoC6\pdl\drivers\peripheral\scb/cy_scb_i2c.c **** * The pointer to the I2C SCB instance.
 157:Generated_Source\PSoC6\pdl\drivers\peripheral\scb/cy_scb_i2c.c **** *
 158:Generated_Source\PSoC6\pdl\drivers\peripheral\scb/cy_scb_i2c.c **** * \note
 159:Generated_Source\PSoC6\pdl\drivers\peripheral\scb/cy_scb_i2c.c **** * Ensure that the SCB block is disabled before calling this function.
 160:Generated_Source\PSoC6\pdl\drivers\peripheral\scb/cy_scb_i2c.c **** *
 161:Generated_Source\PSoC6\pdl\drivers\peripheral\scb/cy_scb_i2c.c **** *******************************************************************************/
 162:Generated_Source\PSoC6\pdl\drivers\peripheral\scb/cy_scb_i2c.c **** void Cy_SCB_I2C_DeInit(CySCB_Type *base)
 163:Generated_Source\PSoC6\pdl\drivers\peripheral\scb/cy_scb_i2c.c **** {
 233              		.loc 1 163 0
 234              		.cfi_startproc
 235              		@ args = 0, pretend = 0, frame = 0
 236              		@ frame_needed = 0, uses_anonymous_args = 0
 237              		@ link register save eliminated.
 238              	.LVL9:
 164:Generated_Source\PSoC6\pdl\drivers\peripheral\scb/cy_scb_i2c.c ****     /* Returns block registers into the default state */
 165:Generated_Source\PSoC6\pdl\drivers\peripheral\scb/cy_scb_i2c.c ****     SCB_CTRL(base)     = CY_SCB_CTRL_DEF_VAL;
 239              		.loc 1 165 0
 240 0000 114B     		ldr	r3, .L34
 241 0002 0360     		str	r3, [r0]
 163:Generated_Source\PSoC6\pdl\drivers\peripheral\scb/cy_scb_i2c.c ****     /* Returns block registers into the default state */
 242              		.loc 1 163 0
 243 0004 10B4     		push	{r4}
 244              		.cfi_def_cfa_offset 4
 245              		.cfi_offset 4, -4
 166:Generated_Source\PSoC6\pdl\drivers\peripheral\scb/cy_scb_i2c.c ****     SCB_I2C_CTRL(base) = CY_SCB_I2C_CTRL_DEF_VAL;
 167:Generated_Source\PSoC6\pdl\drivers\peripheral\scb/cy_scb_i2c.c ****     SCB_I2C_CFG(base)  = CY_SCB_I2C_CFG_DEF_VAL;
 168:Generated_Source\PSoC6\pdl\drivers\peripheral\scb/cy_scb_i2c.c **** 
 169:Generated_Source\PSoC6\pdl\drivers\peripheral\scb/cy_scb_i2c.c ****     SCB_RX_CTRL(base)      = CY_SCB_RX_CTRL_DEF_VAL;
 170:Generated_Source\PSoC6\pdl\drivers\peripheral\scb/cy_scb_i2c.c ****     SCB_RX_FIFO_CTRL(base) = 0UL;
 246              		.loc 1 170 0
 247 0006 0023     		movs	r3, #0
ARM GAS  C:\Users\pearlstl\AppData\Local\Temp\ccSYOVYh.s 			page 9


 166:Generated_Source\PSoC6\pdl\drivers\peripheral\scb/cy_scb_i2c.c ****     SCB_I2C_CTRL(base) = CY_SCB_I2C_CTRL_DEF_VAL;
 248              		.loc 1 166 0
 249 0008 4FF60834 		movw	r4, #64264
 169:Generated_Source\PSoC6\pdl\drivers\peripheral\scb/cy_scb_i2c.c ****     SCB_RX_FIFO_CTRL(base) = 0UL;
 250              		.loc 1 169 0
 251 000c 40F20712 		movw	r2, #263
 167:Generated_Source\PSoC6\pdl\drivers\peripheral\scb/cy_scb_i2c.c **** 
 252              		.loc 1 167 0
 253 0010 0E49     		ldr	r1, .L34+4
 166:Generated_Source\PSoC6\pdl\drivers\peripheral\scb/cy_scb_i2c.c ****     SCB_I2C_CTRL(base) = CY_SCB_I2C_CTRL_DEF_VAL;
 254              		.loc 1 166 0
 255 0012 0466     		str	r4, [r0, #96]
 167:Generated_Source\PSoC6\pdl\drivers\peripheral\scb/cy_scb_i2c.c **** 
 256              		.loc 1 167 0
 257 0014 0167     		str	r1, [r0, #112]
 171:Generated_Source\PSoC6\pdl\drivers\peripheral\scb/cy_scb_i2c.c ****     SCB_RX_MATCH(base)     = 0UL;
 172:Generated_Source\PSoC6\pdl\drivers\peripheral\scb/cy_scb_i2c.c **** 
 173:Generated_Source\PSoC6\pdl\drivers\peripheral\scb/cy_scb_i2c.c ****     SCB_TX_CTRL(base)      = CY_SCB_TX_CTRL_DEF_VAL;
 174:Generated_Source\PSoC6\pdl\drivers\peripheral\scb/cy_scb_i2c.c ****     SCB_TX_FIFO_CTRL(base) = 0UL;
 175:Generated_Source\PSoC6\pdl\drivers\peripheral\scb/cy_scb_i2c.c **** 
 176:Generated_Source\PSoC6\pdl\drivers\peripheral\scb/cy_scb_i2c.c ****     SCB_INTR_SPI_EC_MASK(base) = 0UL;
 177:Generated_Source\PSoC6\pdl\drivers\peripheral\scb/cy_scb_i2c.c ****     SCB_INTR_I2C_EC_MASK(base) = 0UL;
 178:Generated_Source\PSoC6\pdl\drivers\peripheral\scb/cy_scb_i2c.c ****     SCB_INTR_RX_MASK(base)     = 0UL;
 179:Generated_Source\PSoC6\pdl\drivers\peripheral\scb/cy_scb_i2c.c ****     SCB_INTR_TX_MASK(base)     = 0UL;
 180:Generated_Source\PSoC6\pdl\drivers\peripheral\scb/cy_scb_i2c.c ****     SCB_INTR_M_MASK(base)      = 0UL;
 181:Generated_Source\PSoC6\pdl\drivers\peripheral\scb/cy_scb_i2c.c ****     SCB_INTR_S_MASK(base)      = 0UL;
 182:Generated_Source\PSoC6\pdl\drivers\peripheral\scb/cy_scb_i2c.c **** }
 258              		.loc 1 182 0
 259 0016 5DF8044B 		ldr	r4, [sp], #4
 260              		.cfi_restore 4
 261              		.cfi_def_cfa_offset 0
 169:Generated_Source\PSoC6\pdl\drivers\peripheral\scb/cy_scb_i2c.c ****     SCB_RX_FIFO_CTRL(base) = 0UL;
 262              		.loc 1 169 0
 263 001a C0F80023 		str	r2, [r0, #768]
 170:Generated_Source\PSoC6\pdl\drivers\peripheral\scb/cy_scb_i2c.c ****     SCB_RX_MATCH(base)     = 0UL;
 264              		.loc 1 170 0
 265 001e C0F80433 		str	r3, [r0, #772]
 171:Generated_Source\PSoC6\pdl\drivers\peripheral\scb/cy_scb_i2c.c ****     SCB_RX_MATCH(base)     = 0UL;
 266              		.loc 1 171 0
 267 0022 C0F81033 		str	r3, [r0, #784]
 173:Generated_Source\PSoC6\pdl\drivers\peripheral\scb/cy_scb_i2c.c ****     SCB_TX_FIFO_CTRL(base) = 0UL;
 268              		.loc 1 173 0
 269 0026 C0F80022 		str	r2, [r0, #512]
 174:Generated_Source\PSoC6\pdl\drivers\peripheral\scb/cy_scb_i2c.c **** 
 270              		.loc 1 174 0
 271 002a C0F80432 		str	r3, [r0, #516]
 176:Generated_Source\PSoC6\pdl\drivers\peripheral\scb/cy_scb_i2c.c ****     SCB_INTR_I2C_EC_MASK(base) = 0UL;
 272              		.loc 1 176 0
 273 002e C0F8C83E 		str	r3, [r0, #3784]
 177:Generated_Source\PSoC6\pdl\drivers\peripheral\scb/cy_scb_i2c.c ****     SCB_INTR_RX_MASK(base)     = 0UL;
 274              		.loc 1 177 0
 275 0032 C0F8883E 		str	r3, [r0, #3720]
 178:Generated_Source\PSoC6\pdl\drivers\peripheral\scb/cy_scb_i2c.c ****     SCB_INTR_TX_MASK(base)     = 0UL;
 276              		.loc 1 178 0
 277 0036 C0F8C83F 		str	r3, [r0, #4040]
 179:Generated_Source\PSoC6\pdl\drivers\peripheral\scb/cy_scb_i2c.c ****     SCB_INTR_M_MASK(base)      = 0UL;
 278              		.loc 1 179 0
ARM GAS  C:\Users\pearlstl\AppData\Local\Temp\ccSYOVYh.s 			page 10


 279 003a C0F8883F 		str	r3, [r0, #3976]
 180:Generated_Source\PSoC6\pdl\drivers\peripheral\scb/cy_scb_i2c.c ****     SCB_INTR_S_MASK(base)      = 0UL;
 280              		.loc 1 180 0
 281 003e C0F8083F 		str	r3, [r0, #3848]
 181:Generated_Source\PSoC6\pdl\drivers\peripheral\scb/cy_scb_i2c.c **** }
 282              		.loc 1 181 0
 283 0042 C0F8483F 		str	r3, [r0, #3912]
 284              		.loc 1 182 0
 285 0046 7047     		bx	lr
 286              	.L35:
 287              		.align	2
 288              	.L34:
 289 0048 0F000003 		.word	50331663
 290 004c 13102A00 		.word	2756627
 291              		.cfi_endproc
 292              	.LFE229:
 293              		.size	Cy_SCB_I2C_DeInit, .-Cy_SCB_I2C_DeInit
 294              		.section	.text.Cy_SCB_I2C_Disable,"ax",%progbits
 295              		.align	2
 296              		.global	Cy_SCB_I2C_Disable
 297              		.thumb
 298              		.thumb_func
 299              		.type	Cy_SCB_I2C_Disable, %function
 300              	Cy_SCB_I2C_Disable:
 301              	.LFB230:
 183:Generated_Source\PSoC6\pdl\drivers\peripheral\scb/cy_scb_i2c.c **** 
 184:Generated_Source\PSoC6\pdl\drivers\peripheral\scb/cy_scb_i2c.c **** 
 185:Generated_Source\PSoC6\pdl\drivers\peripheral\scb/cy_scb_i2c.c **** /*******************************************************************************
 186:Generated_Source\PSoC6\pdl\drivers\peripheral\scb/cy_scb_i2c.c **** * Function Name: Cy_SCB_I2C_Disable
 187:Generated_Source\PSoC6\pdl\drivers\peripheral\scb/cy_scb_i2c.c **** ****************************************************************************//**
 188:Generated_Source\PSoC6\pdl\drivers\peripheral\scb/cy_scb_i2c.c **** *
 189:Generated_Source\PSoC6\pdl\drivers\peripheral\scb/cy_scb_i2c.c **** * Disables the SCB block and clears context statuses.
 190:Generated_Source\PSoC6\pdl\drivers\peripheral\scb/cy_scb_i2c.c **** * Note that after the block is disabled, the TX and RX FIFOs and hardware
 191:Generated_Source\PSoC6\pdl\drivers\peripheral\scb/cy_scb_i2c.c **** * statuses are cleared. Also, the hardware stops driving the output and
 192:Generated_Source\PSoC6\pdl\drivers\peripheral\scb/cy_scb_i2c.c **** * ignores the input.
 193:Generated_Source\PSoC6\pdl\drivers\peripheral\scb/cy_scb_i2c.c **** *
 194:Generated_Source\PSoC6\pdl\drivers\peripheral\scb/cy_scb_i2c.c **** * \param base
 195:Generated_Source\PSoC6\pdl\drivers\peripheral\scb/cy_scb_i2c.c **** * The pointer to the I2C SCB instance.
 196:Generated_Source\PSoC6\pdl\drivers\peripheral\scb/cy_scb_i2c.c **** *
 197:Generated_Source\PSoC6\pdl\drivers\peripheral\scb/cy_scb_i2c.c **** * \param context
 198:Generated_Source\PSoC6\pdl\drivers\peripheral\scb/cy_scb_i2c.c **** * The pointer to the context structure \ref cy_stc_scb_i2c_context_t allocated
 199:Generated_Source\PSoC6\pdl\drivers\peripheral\scb/cy_scb_i2c.c **** * by the user. The structure is used during the I2C operation for internal
 200:Generated_Source\PSoC6\pdl\drivers\peripheral\scb/cy_scb_i2c.c **** * configuration and data retention. The user must not modify anything
 201:Generated_Source\PSoC6\pdl\drivers\peripheral\scb/cy_scb_i2c.c **** * in this structure.
 202:Generated_Source\PSoC6\pdl\drivers\peripheral\scb/cy_scb_i2c.c **** *
 203:Generated_Source\PSoC6\pdl\drivers\peripheral\scb/cy_scb_i2c.c **** * \note
 204:Generated_Source\PSoC6\pdl\drivers\peripheral\scb/cy_scb_i2c.c **** * Calling this function when I2C is busy (master preforms transaction or slave
 205:Generated_Source\PSoC6\pdl\drivers\peripheral\scb/cy_scb_i2c.c **** * was addressed and is communicating with master) may cause transaction corruption
 206:Generated_Source\PSoC6\pdl\drivers\peripheral\scb/cy_scb_i2c.c **** * because the hardware stops driving the outputs and ignores the inputs.
 207:Generated_Source\PSoC6\pdl\drivers\peripheral\scb/cy_scb_i2c.c **** * Ensure that I2C is not busy before calling this function.
 208:Generated_Source\PSoC6\pdl\drivers\peripheral\scb/cy_scb_i2c.c **** *
 209:Generated_Source\PSoC6\pdl\drivers\peripheral\scb/cy_scb_i2c.c **** *******************************************************************************/
 210:Generated_Source\PSoC6\pdl\drivers\peripheral\scb/cy_scb_i2c.c **** void Cy_SCB_I2C_Disable(CySCB_Type *base, cy_stc_scb_i2c_context_t *context)
 211:Generated_Source\PSoC6\pdl\drivers\peripheral\scb/cy_scb_i2c.c **** {
 302              		.loc 1 211 0
 303              		.cfi_startproc
 304              		@ args = 0, pretend = 0, frame = 0
ARM GAS  C:\Users\pearlstl\AppData\Local\Temp\ccSYOVYh.s 			page 11


 305              		@ frame_needed = 0, uses_anonymous_args = 0
 306              		@ link register save eliminated.
 307              	.LVL10:
 212:Generated_Source\PSoC6\pdl\drivers\peripheral\scb/cy_scb_i2c.c ****     SCB_CTRL(base) &= (uint32_t) ~SCB_CTRL_ENABLED_Msk;
 308              		.loc 1 212 0
 309 0000 0368     		ldr	r3, [r0]
 211:Generated_Source\PSoC6\pdl\drivers\peripheral\scb/cy_scb_i2c.c ****     SCB_CTRL(base) &= (uint32_t) ~SCB_CTRL_ENABLED_Msk;
 310              		.loc 1 211 0
 311 0002 10B4     		push	{r4}
 312              		.cfi_def_cfa_offset 4
 313              		.cfi_offset 4, -4
 213:Generated_Source\PSoC6\pdl\drivers\peripheral\scb/cy_scb_i2c.c **** 
 214:Generated_Source\PSoC6\pdl\drivers\peripheral\scb/cy_scb_i2c.c ****     /* Set the state to default and clear statuses */
 215:Generated_Source\PSoC6\pdl\drivers\peripheral\scb/cy_scb_i2c.c ****     context->state        = CY_SCB_I2C_IDLE;
 216:Generated_Source\PSoC6\pdl\drivers\peripheral\scb/cy_scb_i2c.c ****     context->masterStatus = 0UL;
 314              		.loc 1 216 0
 315 0004 0022     		movs	r2, #0
 215:Generated_Source\PSoC6\pdl\drivers\peripheral\scb/cy_scb_i2c.c ****     context->masterStatus = 0UL;
 316              		.loc 1 215 0
 317 0006 4FF08054 		mov	r4, #268435456
 212:Generated_Source\PSoC6\pdl\drivers\peripheral\scb/cy_scb_i2c.c **** 
 318              		.loc 1 212 0
 319 000a 23F00043 		bic	r3, r3, #-2147483648
 320 000e 0360     		str	r3, [r0]
 215:Generated_Source\PSoC6\pdl\drivers\peripheral\scb/cy_scb_i2c.c ****     context->masterStatus = 0UL;
 321              		.loc 1 215 0
 322 0010 4C60     		str	r4, [r1, #4]
 323              		.loc 1 216 0
 324 0012 8A60     		str	r2, [r1, #8]
 217:Generated_Source\PSoC6\pdl\drivers\peripheral\scb/cy_scb_i2c.c ****     context->slaveStatus  = 0UL;
 218:Generated_Source\PSoC6\pdl\drivers\peripheral\scb/cy_scb_i2c.c **** }
 325              		.loc 1 218 0
 326 0014 5DF8044B 		ldr	r4, [sp], #4
 327              		.cfi_restore 4
 328              		.cfi_def_cfa_offset 0
 217:Generated_Source\PSoC6\pdl\drivers\peripheral\scb/cy_scb_i2c.c ****     context->slaveStatus  = 0UL;
 329              		.loc 1 217 0
 330 0018 0A62     		str	r2, [r1, #32]
 331              		.loc 1 218 0
 332 001a 7047     		bx	lr
 333              		.cfi_endproc
 334              	.LFE230:
 335              		.size	Cy_SCB_I2C_Disable, .-Cy_SCB_I2C_Disable
 336              		.section	.text.Cy_SCB_I2C_DeepSleepCallback,"ax",%progbits
 337              		.align	2
 338              		.global	Cy_SCB_I2C_DeepSleepCallback
 339              		.thumb
 340              		.thumb_func
 341              		.type	Cy_SCB_I2C_DeepSleepCallback, %function
 342              	Cy_SCB_I2C_DeepSleepCallback:
 343              	.LFB231:
 219:Generated_Source\PSoC6\pdl\drivers\peripheral\scb/cy_scb_i2c.c **** 
 220:Generated_Source\PSoC6\pdl\drivers\peripheral\scb/cy_scb_i2c.c **** 
 221:Generated_Source\PSoC6\pdl\drivers\peripheral\scb/cy_scb_i2c.c **** /*******************************************************************************
 222:Generated_Source\PSoC6\pdl\drivers\peripheral\scb/cy_scb_i2c.c **** * Function Name: Cy_SCB_I2C_DeepSleepCallback
 223:Generated_Source\PSoC6\pdl\drivers\peripheral\scb/cy_scb_i2c.c **** ****************************************************************************//**
 224:Generated_Source\PSoC6\pdl\drivers\peripheral\scb/cy_scb_i2c.c **** *
ARM GAS  C:\Users\pearlstl\AppData\Local\Temp\ccSYOVYh.s 			page 12


 225:Generated_Source\PSoC6\pdl\drivers\peripheral\scb/cy_scb_i2c.c **** * This function handles the transition of the I2C SCB into and out of
 226:Generated_Source\PSoC6\pdl\drivers\peripheral\scb/cy_scb_i2c.c **** * Deep Sleep mode. It prevents the device from entering Deep Sleep
 227:Generated_Source\PSoC6\pdl\drivers\peripheral\scb/cy_scb_i2c.c **** * mode if the I2C slave or master is actively communicating.
 228:Generated_Source\PSoC6\pdl\drivers\peripheral\scb/cy_scb_i2c.c **** * The  behavior of the I2C SCB in Deep Sleep depends on whether the SCB block is
 229:Generated_Source\PSoC6\pdl\drivers\peripheral\scb/cy_scb_i2c.c **** * wakeup-capable or not:
 230:Generated_Source\PSoC6\pdl\drivers\peripheral\scb/cy_scb_i2c.c **** * * <b>Wakeup-capable</b>: during Deep Sleep mode on incoming I2C slave address 
 231:Generated_Source\PSoC6\pdl\drivers\peripheral\scb/cy_scb_i2c.c **** *   the slave receives address and stretches the clock until the device is 
 232:Generated_Source\PSoC6\pdl\drivers\peripheral\scb/cy_scb_i2c.c **** *   awoken from Deep Sleep mode. If the slave address occurs before the device 
 233:Generated_Source\PSoC6\pdl\drivers\peripheral\scb/cy_scb_i2c.c **** *   enters Deep Sleep mode, the device will not enter Deep Sleep mode.
 234:Generated_Source\PSoC6\pdl\drivers\peripheral\scb/cy_scb_i2c.c **** *   Only the I2C slave can be configured to be a wakeup source from Deep Sleep
 235:Generated_Source\PSoC6\pdl\drivers\peripheral\scb/cy_scb_i2c.c **** *   mode.
 236:Generated_Source\PSoC6\pdl\drivers\peripheral\scb/cy_scb_i2c.c **** * * <b>Not wakeup-capable</b>: the SCB is disabled in Deep Sleep mode. 
 237:Generated_Source\PSoC6\pdl\drivers\peripheral\scb/cy_scb_i2c.c **** *   It is re-enabled if the device fails to enter Deep Sleep mode or when the 
 238:Generated_Source\PSoC6\pdl\drivers\peripheral\scb/cy_scb_i2c.c **** *   device is awoken from Deep Sleep mode. While the SCB is disabled it stops
 239:Generated_Source\PSoC6\pdl\drivers\peripheral\scb/cy_scb_i2c.c **** *   driving the outputs and ignores the inputs. The slave NACKs all incoming
 240:Generated_Source\PSoC6\pdl\drivers\peripheral\scb/cy_scb_i2c.c **** *   addresses.
 241:Generated_Source\PSoC6\pdl\drivers\peripheral\scb/cy_scb_i2c.c **** *
 242:Generated_Source\PSoC6\pdl\drivers\peripheral\scb/cy_scb_i2c.c **** * This function must be called during execution of \ref Cy_SysPm_CpuEnterDeepSleep.
 243:Generated_Source\PSoC6\pdl\drivers\peripheral\scb/cy_scb_i2c.c **** * To do it, register this function as a callback before calling
 244:Generated_Source\PSoC6\pdl\drivers\peripheral\scb/cy_scb_i2c.c **** * \ref Cy_SysPm_CpuEnterDeepSleep : specify \ref CY_SYSPM_DEEPSLEEP as the callback
 245:Generated_Source\PSoC6\pdl\drivers\peripheral\scb/cy_scb_i2c.c **** * type and call \ref Cy_SysPm_RegisterCallback.
 246:Generated_Source\PSoC6\pdl\drivers\peripheral\scb/cy_scb_i2c.c **** *
 247:Generated_Source\PSoC6\pdl\drivers\peripheral\scb/cy_scb_i2c.c **** * \param callbackParams
 248:Generated_Source\PSoC6\pdl\drivers\peripheral\scb/cy_scb_i2c.c **** * The pointer to the callback parameters structure
 249:Generated_Source\PSoC6\pdl\drivers\peripheral\scb/cy_scb_i2c.c **** * \ref cy_stc_syspm_callback_params_t.
 250:Generated_Source\PSoC6\pdl\drivers\peripheral\scb/cy_scb_i2c.c **** *
 251:Generated_Source\PSoC6\pdl\drivers\peripheral\scb/cy_scb_i2c.c **** * \param mode
 252:Generated_Source\PSoC6\pdl\drivers\peripheral\scb/cy_scb_i2c.c **** * Callback mode, see \ref cy_en_syspm_callback_mode_t
 253:Generated_Source\PSoC6\pdl\drivers\peripheral\scb/cy_scb_i2c.c **** *
 254:Generated_Source\PSoC6\pdl\drivers\peripheral\scb/cy_scb_i2c.c **** * \return
 255:Generated_Source\PSoC6\pdl\drivers\peripheral\scb/cy_scb_i2c.c **** * \ref cy_en_syspm_status_t
 256:Generated_Source\PSoC6\pdl\drivers\peripheral\scb/cy_scb_i2c.c **** *
 257:Generated_Source\PSoC6\pdl\drivers\peripheral\scb/cy_scb_i2c.c **** * \note
 258:Generated_Source\PSoC6\pdl\drivers\peripheral\scb/cy_scb_i2c.c **** * Only applicable for <b>rev-08 of the CY8CKIT-062-BLE</b>.
 259:Generated_Source\PSoC6\pdl\drivers\peripheral\scb/cy_scb_i2c.c **** * For proper operation, when the I2C slave is configured to be a wakeup source
 260:Generated_Source\PSoC6\pdl\drivers\peripheral\scb/cy_scb_i2c.c **** * from Deep Sleep mode, this function must be copied and modified by the user.
 261:Generated_Source\PSoC6\pdl\drivers\peripheral\scb/cy_scb_i2c.c **** * The I2C clock disable code must be inserted in the \ref CY_SYSPM_BEFORE_TRANSITION
 262:Generated_Source\PSoC6\pdl\drivers\peripheral\scb/cy_scb_i2c.c **** * and clock enable code in the \ref CY_SYSPM_AFTER_TRANSITION mode processing.
 263:Generated_Source\PSoC6\pdl\drivers\peripheral\scb/cy_scb_i2c.c **** *
 264:Generated_Source\PSoC6\pdl\drivers\peripheral\scb/cy_scb_i2c.c **** *******************************************************************************/
 265:Generated_Source\PSoC6\pdl\drivers\peripheral\scb/cy_scb_i2c.c **** cy_en_syspm_status_t Cy_SCB_I2C_DeepSleepCallback(cy_stc_syspm_callback_params_t *callbackParams, c
 266:Generated_Source\PSoC6\pdl\drivers\peripheral\scb/cy_scb_i2c.c **** {
 344              		.loc 1 266 0
 345              		.cfi_startproc
 346              		@ args = 0, pretend = 0, frame = 0
 347              		@ frame_needed = 0, uses_anonymous_args = 0
 348              		@ link register save eliminated.
 349              	.LVL11:
 267:Generated_Source\PSoC6\pdl\drivers\peripheral\scb/cy_scb_i2c.c ****     CySCB_Type *locBase = (CySCB_Type *) callbackParams->base;
 268:Generated_Source\PSoC6\pdl\drivers\peripheral\scb/cy_scb_i2c.c ****     cy_stc_scb_i2c_context_t *locContext = (cy_stc_scb_i2c_context_t *) callbackParams->context;
 269:Generated_Source\PSoC6\pdl\drivers\peripheral\scb/cy_scb_i2c.c **** 
 270:Generated_Source\PSoC6\pdl\drivers\peripheral\scb/cy_scb_i2c.c ****     cy_en_syspm_status_t retStatus = CY_SYSPM_FAIL;
 271:Generated_Source\PSoC6\pdl\drivers\peripheral\scb/cy_scb_i2c.c **** 
 272:Generated_Source\PSoC6\pdl\drivers\peripheral\scb/cy_scb_i2c.c ****     switch(mode)
 350              		.loc 1 272 0
 351 0000 0139     		subs	r1, r1, #1
 352              	.LVL12:
ARM GAS  C:\Users\pearlstl\AppData\Local\Temp\ccSYOVYh.s 			page 13


 266:Generated_Source\PSoC6\pdl\drivers\peripheral\scb/cy_scb_i2c.c ****     CySCB_Type *locBase = (CySCB_Type *) callbackParams->base;
 353              		.loc 1 266 0
 354 0002 30B4     		push	{r4, r5}
 355              		.cfi_def_cfa_offset 8
 356              		.cfi_offset 4, -8
 357              		.cfi_offset 5, -4
 267:Generated_Source\PSoC6\pdl\drivers\peripheral\scb/cy_scb_i2c.c ****     CySCB_Type *locBase = (CySCB_Type *) callbackParams->base;
 358              		.loc 1 267 0
 359 0004 0368     		ldr	r3, [r0]
 360              	.LVL13:
 361              		.loc 1 272 0
 362 0006 0729     		cmp	r1, #7
 363 0008 37D8     		bhi	.L49
 364 000a DFE801F0 		tbb	[pc, r1]
 365              	.L41:
 366 000e 1C       		.byte	(.L40-.L41)/2
 367 000f 2B       		.byte	(.L42-.L41)/2
 368 0010 36       		.byte	(.L49-.L41)/2
 369 0011 0E       		.byte	(.L43-.L41)/2
 370 0012 36       		.byte	(.L49-.L41)/2
 371 0013 36       		.byte	(.L49-.L41)/2
 372 0014 36       		.byte	(.L49-.L41)/2
 373 0015 04       		.byte	(.L44-.L41)/2
 374              		.p2align 1
 375              	.L44:
 273:Generated_Source\PSoC6\pdl\drivers\peripheral\scb/cy_scb_i2c.c ****     {
 274:Generated_Source\PSoC6\pdl\drivers\peripheral\scb/cy_scb_i2c.c ****         case CY_SYSPM_CHECK_READY:
 275:Generated_Source\PSoC6\pdl\drivers\peripheral\scb/cy_scb_i2c.c ****         {
 276:Generated_Source\PSoC6\pdl\drivers\peripheral\scb/cy_scb_i2c.c ****             /* Disable the slave interrupt sources to protect the state */
 277:Generated_Source\PSoC6\pdl\drivers\peripheral\scb/cy_scb_i2c.c ****             Cy_SCB_SetSlaveInterruptMask(locBase, CY_SCB_CLEAR_ALL_INTR_SRC);
 278:Generated_Source\PSoC6\pdl\drivers\peripheral\scb/cy_scb_i2c.c **** 
 279:Generated_Source\PSoC6\pdl\drivers\peripheral\scb/cy_scb_i2c.c ****             /* If the I2C is in the IDLE state, it is ready for Deep Sleep mode
 280:Generated_Source\PSoC6\pdl\drivers\peripheral\scb/cy_scb_i2c.c ****             * (either the master or the slave is not busy),
 281:Generated_Source\PSoC6\pdl\drivers\peripheral\scb/cy_scb_i2c.c ****             * otherwise return fail and restore the slave interrupt sources.
 282:Generated_Source\PSoC6\pdl\drivers\peripheral\scb/cy_scb_i2c.c ****             */
 283:Generated_Source\PSoC6\pdl\drivers\peripheral\scb/cy_scb_i2c.c ****             if (CY_SCB_I2C_IDLE == locContext->state)
 284:Generated_Source\PSoC6\pdl\drivers\peripheral\scb/cy_scb_i2c.c ****             {
 285:Generated_Source\PSoC6\pdl\drivers\peripheral\scb/cy_scb_i2c.c ****                 if (_FLD2BOOL(SCB_CTRL_EC_AM_MODE, SCB_CTRL(locBase)))
 286:Generated_Source\PSoC6\pdl\drivers\peripheral\scb/cy_scb_i2c.c ****                 {
 287:Generated_Source\PSoC6\pdl\drivers\peripheral\scb/cy_scb_i2c.c ****                     /* The SCB is wakeup-capable: do not restore the address
 288:Generated_Source\PSoC6\pdl\drivers\peripheral\scb/cy_scb_i2c.c ****                     * match and general call interrupt sources. The next
 289:Generated_Source\PSoC6\pdl\drivers\peripheral\scb/cy_scb_i2c.c ****                     * transaction intended to the slave will be paused
 290:Generated_Source\PSoC6\pdl\drivers\peripheral\scb/cy_scb_i2c.c ****                     * (SCL is stretched) before the address is ACKed because
 291:Generated_Source\PSoC6\pdl\drivers\peripheral\scb/cy_scb_i2c.c ****                     * the corresponding interrupt source is disabled.
 292:Generated_Source\PSoC6\pdl\drivers\peripheral\scb/cy_scb_i2c.c ****                     */
 293:Generated_Source\PSoC6\pdl\drivers\peripheral\scb/cy_scb_i2c.c ****                     Cy_SCB_SetSlaveInterruptMask(locBase, CY_SCB_I2C_SLAVE_INTR_NO_ADDR);
 294:Generated_Source\PSoC6\pdl\drivers\peripheral\scb/cy_scb_i2c.c ****                 }
 295:Generated_Source\PSoC6\pdl\drivers\peripheral\scb/cy_scb_i2c.c ****                 else
 296:Generated_Source\PSoC6\pdl\drivers\peripheral\scb/cy_scb_i2c.c ****                 {
 297:Generated_Source\PSoC6\pdl\drivers\peripheral\scb/cy_scb_i2c.c ****                     /* The SCB is NOT wakeup-capable: disable the I2C. The slave
 298:Generated_Source\PSoC6\pdl\drivers\peripheral\scb/cy_scb_i2c.c ****                     * stops responding to the master and the master stops
 299:Generated_Source\PSoC6\pdl\drivers\peripheral\scb/cy_scb_i2c.c ****                     * driving the bus until the I2C is enabled. This happens
 300:Generated_Source\PSoC6\pdl\drivers\peripheral\scb/cy_scb_i2c.c ****                     * when the device failed to enter into Deep Sleep mode or it
 301:Generated_Source\PSoC6\pdl\drivers\peripheral\scb/cy_scb_i2c.c ****                     * is awaken from Deep Sleep mode.
 302:Generated_Source\PSoC6\pdl\drivers\peripheral\scb/cy_scb_i2c.c ****                     */
 303:Generated_Source\PSoC6\pdl\drivers\peripheral\scb/cy_scb_i2c.c ****                     Cy_SCB_I2C_Disable(locBase, locContext);
 304:Generated_Source\PSoC6\pdl\drivers\peripheral\scb/cy_scb_i2c.c ****                     Cy_SCB_SetSlaveInterruptMask(locBase, CY_SCB_I2C_SLAVE_INTR);
ARM GAS  C:\Users\pearlstl\AppData\Local\Temp\ccSYOVYh.s 			page 14


 305:Generated_Source\PSoC6\pdl\drivers\peripheral\scb/cy_scb_i2c.c ****                 }
 306:Generated_Source\PSoC6\pdl\drivers\peripheral\scb/cy_scb_i2c.c **** 
 307:Generated_Source\PSoC6\pdl\drivers\peripheral\scb/cy_scb_i2c.c ****                 retStatus = CY_SYSPM_SUCCESS;
 308:Generated_Source\PSoC6\pdl\drivers\peripheral\scb/cy_scb_i2c.c ****             }
 309:Generated_Source\PSoC6\pdl\drivers\peripheral\scb/cy_scb_i2c.c ****             else
 310:Generated_Source\PSoC6\pdl\drivers\peripheral\scb/cy_scb_i2c.c ****             {
 311:Generated_Source\PSoC6\pdl\drivers\peripheral\scb/cy_scb_i2c.c ****                 /* Restore the slave interrupt sources */
 312:Generated_Source\PSoC6\pdl\drivers\peripheral\scb/cy_scb_i2c.c ****                 Cy_SCB_SetSlaveInterruptMask(locBase, CY_SCB_I2C_SLAVE_INTR);
 313:Generated_Source\PSoC6\pdl\drivers\peripheral\scb/cy_scb_i2c.c ****             }
 314:Generated_Source\PSoC6\pdl\drivers\peripheral\scb/cy_scb_i2c.c ****         }
 315:Generated_Source\PSoC6\pdl\drivers\peripheral\scb/cy_scb_i2c.c ****         break;
 316:Generated_Source\PSoC6\pdl\drivers\peripheral\scb/cy_scb_i2c.c **** 
 317:Generated_Source\PSoC6\pdl\drivers\peripheral\scb/cy_scb_i2c.c ****         case CY_SYSPM_CHECK_FAIL:
 318:Generated_Source\PSoC6\pdl\drivers\peripheral\scb/cy_scb_i2c.c ****         {
 319:Generated_Source\PSoC6\pdl\drivers\peripheral\scb/cy_scb_i2c.c ****             /* The other driver is not ready for Deep Sleep mode. Restore
 320:Generated_Source\PSoC6\pdl\drivers\peripheral\scb/cy_scb_i2c.c ****             * Active mode configuration.
 321:Generated_Source\PSoC6\pdl\drivers\peripheral\scb/cy_scb_i2c.c ****             */
 322:Generated_Source\PSoC6\pdl\drivers\peripheral\scb/cy_scb_i2c.c **** 
 323:Generated_Source\PSoC6\pdl\drivers\peripheral\scb/cy_scb_i2c.c ****             if (_FLD2BOOL(SCB_CTRL_EC_AM_MODE, SCB_CTRL(locBase)))
 324:Generated_Source\PSoC6\pdl\drivers\peripheral\scb/cy_scb_i2c.c ****             {
 325:Generated_Source\PSoC6\pdl\drivers\peripheral\scb/cy_scb_i2c.c ****                 /* The SCB is wakeup-capable: restore the slave interrupt sources */
 326:Generated_Source\PSoC6\pdl\drivers\peripheral\scb/cy_scb_i2c.c ****                 Cy_SCB_SetSlaveInterruptMask(locBase, CY_SCB_I2C_SLAVE_INTR);
 327:Generated_Source\PSoC6\pdl\drivers\peripheral\scb/cy_scb_i2c.c ****             }
 328:Generated_Source\PSoC6\pdl\drivers\peripheral\scb/cy_scb_i2c.c ****             else
 329:Generated_Source\PSoC6\pdl\drivers\peripheral\scb/cy_scb_i2c.c ****             {
 330:Generated_Source\PSoC6\pdl\drivers\peripheral\scb/cy_scb_i2c.c ****                 /* The SCB is NOT wakeup-capable: enable the I2C to operate */
 331:Generated_Source\PSoC6\pdl\drivers\peripheral\scb/cy_scb_i2c.c ****                 Cy_SCB_I2C_Enable(locBase);
 332:Generated_Source\PSoC6\pdl\drivers\peripheral\scb/cy_scb_i2c.c ****             }
 333:Generated_Source\PSoC6\pdl\drivers\peripheral\scb/cy_scb_i2c.c **** 
 334:Generated_Source\PSoC6\pdl\drivers\peripheral\scb/cy_scb_i2c.c ****             retStatus = CY_SYSPM_SUCCESS;
 335:Generated_Source\PSoC6\pdl\drivers\peripheral\scb/cy_scb_i2c.c ****         }
 336:Generated_Source\PSoC6\pdl\drivers\peripheral\scb/cy_scb_i2c.c ****         break;
 337:Generated_Source\PSoC6\pdl\drivers\peripheral\scb/cy_scb_i2c.c **** 
 338:Generated_Source\PSoC6\pdl\drivers\peripheral\scb/cy_scb_i2c.c ****         case CY_SYSPM_BEFORE_TRANSITION:
 339:Generated_Source\PSoC6\pdl\drivers\peripheral\scb/cy_scb_i2c.c ****         {
 340:Generated_Source\PSoC6\pdl\drivers\peripheral\scb/cy_scb_i2c.c ****             /* This code executes inside the critical section. Enabling the
 341:Generated_Source\PSoC6\pdl\drivers\peripheral\scb/cy_scb_i2c.c ****             * active interrupt source makes the interrupt pending in the NVIC.
 342:Generated_Source\PSoC6\pdl\drivers\peripheral\scb/cy_scb_i2c.c ****             * However, the interrupt processing is delayed until the code exits
 343:Generated_Source\PSoC6\pdl\drivers\peripheral\scb/cy_scb_i2c.c ****             * the critical section. The pending interrupt force WFI instruction
 344:Generated_Source\PSoC6\pdl\drivers\peripheral\scb/cy_scb_i2c.c ****             * does nothing and the device remains in Active mode.
 345:Generated_Source\PSoC6\pdl\drivers\peripheral\scb/cy_scb_i2c.c ****             */
 346:Generated_Source\PSoC6\pdl\drivers\peripheral\scb/cy_scb_i2c.c **** 
 347:Generated_Source\PSoC6\pdl\drivers\peripheral\scb/cy_scb_i2c.c ****             if (_FLD2BOOL(SCB_CTRL_EC_AM_MODE, SCB_CTRL(locBase)))
 348:Generated_Source\PSoC6\pdl\drivers\peripheral\scb/cy_scb_i2c.c ****             {
 349:Generated_Source\PSoC6\pdl\drivers\peripheral\scb/cy_scb_i2c.c ****                 /* The SCB is wakeup-capable: enable the I2C wakeup interrupt
 350:Generated_Source\PSoC6\pdl\drivers\peripheral\scb/cy_scb_i2c.c ****                 * source. If any transaction was paused, the I2C interrupt
 351:Generated_Source\PSoC6\pdl\drivers\peripheral\scb/cy_scb_i2c.c ****                 * becomes pending and prevents entering Deep Sleep mode.
 352:Generated_Source\PSoC6\pdl\drivers\peripheral\scb/cy_scb_i2c.c ****                 * The transaction continues as soon as the global interrupts
 353:Generated_Source\PSoC6\pdl\drivers\peripheral\scb/cy_scb_i2c.c ****                 * are enabled.
 354:Generated_Source\PSoC6\pdl\drivers\peripheral\scb/cy_scb_i2c.c ****                 */
 355:Generated_Source\PSoC6\pdl\drivers\peripheral\scb/cy_scb_i2c.c ****                 Cy_SCB_SetI2CInterruptMask(locBase, CY_SCB_I2C_INTR_WAKEUP);
 356:Generated_Source\PSoC6\pdl\drivers\peripheral\scb/cy_scb_i2c.c **** 
 357:Generated_Source\PSoC6\pdl\drivers\peripheral\scb/cy_scb_i2c.c ****                 /* Disable SCB clock */
 358:Generated_Source\PSoC6\pdl\drivers\peripheral\scb/cy_scb_i2c.c ****                 SCB_I2C_CFG(locBase) &= (uint32_t) ~CY_SCB_I2C_CFG_CLK_ENABLE_Msk;
 359:Generated_Source\PSoC6\pdl\drivers\peripheral\scb/cy_scb_i2c.c **** 
 360:Generated_Source\PSoC6\pdl\drivers\peripheral\scb/cy_scb_i2c.c ****                 /* IMPORTANT (replace line above for the CY8CKIT-062 rev-08):
 361:Generated_Source\PSoC6\pdl\drivers\peripheral\scb/cy_scb_i2c.c ****                 * for proper entering Deep Sleep mode the I2C clock must be disabled.
ARM GAS  C:\Users\pearlstl\AppData\Local\Temp\ccSYOVYh.s 			page 15


 362:Generated_Source\PSoC6\pdl\drivers\peripheral\scb/cy_scb_i2c.c ****                 * This code must be inserted by the user because the driver
 363:Generated_Source\PSoC6\pdl\drivers\peripheral\scb/cy_scb_i2c.c ****                 * does not have access to the clock.
 364:Generated_Source\PSoC6\pdl\drivers\peripheral\scb/cy_scb_i2c.c ****                 */
 365:Generated_Source\PSoC6\pdl\drivers\peripheral\scb/cy_scb_i2c.c ****             }
 366:Generated_Source\PSoC6\pdl\drivers\peripheral\scb/cy_scb_i2c.c **** 
 367:Generated_Source\PSoC6\pdl\drivers\peripheral\scb/cy_scb_i2c.c ****             retStatus = CY_SYSPM_SUCCESS;
 368:Generated_Source\PSoC6\pdl\drivers\peripheral\scb/cy_scb_i2c.c ****         }
 369:Generated_Source\PSoC6\pdl\drivers\peripheral\scb/cy_scb_i2c.c ****         break;
 370:Generated_Source\PSoC6\pdl\drivers\peripheral\scb/cy_scb_i2c.c **** 
 371:Generated_Source\PSoC6\pdl\drivers\peripheral\scb/cy_scb_i2c.c ****         case CY_SYSPM_AFTER_TRANSITION:
 372:Generated_Source\PSoC6\pdl\drivers\peripheral\scb/cy_scb_i2c.c ****         {
 373:Generated_Source\PSoC6\pdl\drivers\peripheral\scb/cy_scb_i2c.c ****             if (_FLD2BOOL(SCB_CTRL_EC_AM_MODE, SCB_CTRL(locBase)))
 376              		.loc 1 373 0
 377 0016 1868     		ldr	r0, [r3]
 378              	.LVL14:
 379 0018 10F48070 		ands	r0, r0, #256
 380 001c 30D1     		bne	.L52
 381              	.L48:
 382              	.LVL15:
 383              	.LBB334:
 384              	.LBB335:
 385              		.file 2 "Generated_Source\\PSoC6\\pdl\\drivers\\peripheral\\scb\\cy_scb_i2c.h"
   1:Generated_Source\PSoC6\pdl\drivers\peripheral\scb/cy_scb_i2c.h **** /***************************************************************************//**
   2:Generated_Source\PSoC6\pdl\drivers\peripheral\scb/cy_scb_i2c.h **** * \file cy_scb_i2c.h
   3:Generated_Source\PSoC6\pdl\drivers\peripheral\scb/cy_scb_i2c.h **** * \version 2.20
   4:Generated_Source\PSoC6\pdl\drivers\peripheral\scb/cy_scb_i2c.h **** *
   5:Generated_Source\PSoC6\pdl\drivers\peripheral\scb/cy_scb_i2c.h **** * Provides I2C API declarations of the SCB driver.
   6:Generated_Source\PSoC6\pdl\drivers\peripheral\scb/cy_scb_i2c.h **** *
   7:Generated_Source\PSoC6\pdl\drivers\peripheral\scb/cy_scb_i2c.h **** ********************************************************************************
   8:Generated_Source\PSoC6\pdl\drivers\peripheral\scb/cy_scb_i2c.h **** * \copyright
   9:Generated_Source\PSoC6\pdl\drivers\peripheral\scb/cy_scb_i2c.h **** * Copyright 2016-2018, Cypress Semiconductor Corporation.  All rights reserved.
  10:Generated_Source\PSoC6\pdl\drivers\peripheral\scb/cy_scb_i2c.h **** * You may use this file only in accordance with the license, terms, conditions,
  11:Generated_Source\PSoC6\pdl\drivers\peripheral\scb/cy_scb_i2c.h **** * disclaimers, and limitations in the end user license agreement accompanying
  12:Generated_Source\PSoC6\pdl\drivers\peripheral\scb/cy_scb_i2c.h **** * the software package with which this file was provided.
  13:Generated_Source\PSoC6\pdl\drivers\peripheral\scb/cy_scb_i2c.h **** *******************************************************************************/
  14:Generated_Source\PSoC6\pdl\drivers\peripheral\scb/cy_scb_i2c.h **** 
  15:Generated_Source\PSoC6\pdl\drivers\peripheral\scb/cy_scb_i2c.h **** /**
  16:Generated_Source\PSoC6\pdl\drivers\peripheral\scb/cy_scb_i2c.h **** * \addtogroup group_scb_i2c
  17:Generated_Source\PSoC6\pdl\drivers\peripheral\scb/cy_scb_i2c.h **** * \{
  18:Generated_Source\PSoC6\pdl\drivers\peripheral\scb/cy_scb_i2c.h **** * Driver API for I2C Bus Peripheral
  19:Generated_Source\PSoC6\pdl\drivers\peripheral\scb/cy_scb_i2c.h **** *
  20:Generated_Source\PSoC6\pdl\drivers\peripheral\scb/cy_scb_i2c.h **** * I2C - The Inter-Integrated Circuit (I2C) bus is an industry-standard.
  21:Generated_Source\PSoC6\pdl\drivers\peripheral\scb/cy_scb_i2c.h **** *
  22:Generated_Source\PSoC6\pdl\drivers\peripheral\scb/cy_scb_i2c.h **** * The functions and other declarations used in this part of the driver are in 
  23:Generated_Source\PSoC6\pdl\drivers\peripheral\scb/cy_scb_i2c.h **** * cy_scb_i2c.h. You can also include cy_pdl.h (ModusToolbox only) to get access 
  24:Generated_Source\PSoC6\pdl\drivers\peripheral\scb/cy_scb_i2c.h **** * to all functions and declarations in the PDL.
  25:Generated_Source\PSoC6\pdl\drivers\peripheral\scb/cy_scb_i2c.h **** *
  26:Generated_Source\PSoC6\pdl\drivers\peripheral\scb/cy_scb_i2c.h **** * The I2C peripheral driver provides an API to implement I2C slave, master,
  27:Generated_Source\PSoC6\pdl\drivers\peripheral\scb/cy_scb_i2c.h **** * or master-slave devices based on the SCB hardware block.
  28:Generated_Source\PSoC6\pdl\drivers\peripheral\scb/cy_scb_i2c.h **** * I2C devices based on SCB hardware are compatible with I2C
  29:Generated_Source\PSoC6\pdl\drivers\peripheral\scb/cy_scb_i2c.h **** * Standard-mode, Fast-mode, and Fast-mode Plus specifications as defined in
  30:Generated_Source\PSoC6\pdl\drivers\peripheral\scb/cy_scb_i2c.h **** * the I2C-bus specification.
  31:Generated_Source\PSoC6\pdl\drivers\peripheral\scb/cy_scb_i2c.h **** *
  32:Generated_Source\PSoC6\pdl\drivers\peripheral\scb/cy_scb_i2c.h **** * Features:
  33:Generated_Source\PSoC6\pdl\drivers\peripheral\scb/cy_scb_i2c.h **** * * An industry-standard I2C bus interface
  34:Generated_Source\PSoC6\pdl\drivers\peripheral\scb/cy_scb_i2c.h **** * * Supports slave, master, and master-slave operation
  35:Generated_Source\PSoC6\pdl\drivers\peripheral\scb/cy_scb_i2c.h **** * * Supports standard data rates of 100/400/1000 kbps
ARM GAS  C:\Users\pearlstl\AppData\Local\Temp\ccSYOVYh.s 			page 16


  36:Generated_Source\PSoC6\pdl\drivers\peripheral\scb/cy_scb_i2c.h **** * * Hardware Address Match, multiple addresses
  37:Generated_Source\PSoC6\pdl\drivers\peripheral\scb/cy_scb_i2c.h **** * * Wake from Deep Sleep on Address Match
  38:Generated_Source\PSoC6\pdl\drivers\peripheral\scb/cy_scb_i2c.h **** *
  39:Generated_Source\PSoC6\pdl\drivers\peripheral\scb/cy_scb_i2c.h **** ********************************************************************************
  40:Generated_Source\PSoC6\pdl\drivers\peripheral\scb/cy_scb_i2c.h **** * \section group_scb_i2c_configuration Configuration Considerations
  41:Generated_Source\PSoC6\pdl\drivers\peripheral\scb/cy_scb_i2c.h **** ********************************************************************************
  42:Generated_Source\PSoC6\pdl\drivers\peripheral\scb/cy_scb_i2c.h **** * The I2C driver configuration can be divided to number of sequential
  43:Generated_Source\PSoC6\pdl\drivers\peripheral\scb/cy_scb_i2c.h **** * steps listed below:
  44:Generated_Source\PSoC6\pdl\drivers\peripheral\scb/cy_scb_i2c.h **** * * \ref group_scb_i2c_config
  45:Generated_Source\PSoC6\pdl\drivers\peripheral\scb/cy_scb_i2c.h **** * * \ref group_scb_i2c_pins
  46:Generated_Source\PSoC6\pdl\drivers\peripheral\scb/cy_scb_i2c.h **** * * \ref group_scb_i2c_clock
  47:Generated_Source\PSoC6\pdl\drivers\peripheral\scb/cy_scb_i2c.h **** * * \ref group_scb_i2c_data_rate
  48:Generated_Source\PSoC6\pdl\drivers\peripheral\scb/cy_scb_i2c.h **** * * \ref group_scb_i2c_intr
  49:Generated_Source\PSoC6\pdl\drivers\peripheral\scb/cy_scb_i2c.h **** * * \ref group_scb_i2c_enable
  50:Generated_Source\PSoC6\pdl\drivers\peripheral\scb/cy_scb_i2c.h **** *
  51:Generated_Source\PSoC6\pdl\drivers\peripheral\scb/cy_scb_i2c.h **** * \note
  52:Generated_Source\PSoC6\pdl\drivers\peripheral\scb/cy_scb_i2c.h **** * I2C driver is built on top of the SCB hardware block. The SCB3 instance is
  53:Generated_Source\PSoC6\pdl\drivers\peripheral\scb/cy_scb_i2c.h **** * used as an example for all code snippets. Modify the code to match your
  54:Generated_Source\PSoC6\pdl\drivers\peripheral\scb/cy_scb_i2c.h **** * design.
  55:Generated_Source\PSoC6\pdl\drivers\peripheral\scb/cy_scb_i2c.h **** *
  56:Generated_Source\PSoC6\pdl\drivers\peripheral\scb/cy_scb_i2c.h **** ********************************************************************************
  57:Generated_Source\PSoC6\pdl\drivers\peripheral\scb/cy_scb_i2c.h **** * \subsection group_scb_i2c_config Configure I2C
  58:Generated_Source\PSoC6\pdl\drivers\peripheral\scb/cy_scb_i2c.h **** ********************************************************************************
  59:Generated_Source\PSoC6\pdl\drivers\peripheral\scb/cy_scb_i2c.h **** * To set up the I2C  driver, provide the configuration parameters in the
  60:Generated_Source\PSoC6\pdl\drivers\peripheral\scb/cy_scb_i2c.h **** * \ref cy_stc_scb_i2c_config_t structure. Provide i2cMode to the select
  61:Generated_Source\PSoC6\pdl\drivers\peripheral\scb/cy_scb_i2c.h **** * operation mode slave, master or master-slave. The useRxFifo and useTxFifo 
  62:Generated_Source\PSoC6\pdl\drivers\peripheral\scb/cy_scb_i2c.h **** * parameters specify if RX and TX FIFO is used during operation. Typically, both
  63:Generated_Source\PSoC6\pdl\drivers\peripheral\scb/cy_scb_i2c.h **** * FIFOs should be enabled to reduce possibility of clock stringing. However, 
  64:Generated_Source\PSoC6\pdl\drivers\peripheral\scb/cy_scb_i2c.h **** * using RX FIFO has side effects that needs to be taken into account 
  65:Generated_Source\PSoC6\pdl\drivers\peripheral\scb/cy_scb_i2c.h **** * (see useRxFifo field description in \ref cy_stc_scb_i2c_config_t structure). 
  66:Generated_Source\PSoC6\pdl\drivers\peripheral\scb/cy_scb_i2c.h **** * For master modes, parameters lowPhaseDutyCycle, highPhaseDutyCycle and 
  67:Generated_Source\PSoC6\pdl\drivers\peripheral\scb/cy_scb_i2c.h **** * enableDigitalFilter can be used to define output data rate (refer to section 
  68:Generated_Source\PSoC6\pdl\drivers\peripheral\scb/cy_scb_i2c.h **** * \ref group_scb_i2c_data_rate for more information).
  69:Generated_Source\PSoC6\pdl\drivers\peripheral\scb/cy_scb_i2c.h **** * For slave mode, provide the slaveAddress and slaveAddressMask. The other 
  70:Generated_Source\PSoC6\pdl\drivers\peripheral\scb/cy_scb_i2c.h **** * parameters are optional for operation.\n
  71:Generated_Source\PSoC6\pdl\drivers\peripheral\scb/cy_scb_i2c.h **** * To initialize the driver, call \ref Cy_SCB_I2C_Init
  72:Generated_Source\PSoC6\pdl\drivers\peripheral\scb/cy_scb_i2c.h **** * function providing a pointer to the populated \ref cy_stc_scb_i2c_config_t
  73:Generated_Source\PSoC6\pdl\drivers\peripheral\scb/cy_scb_i2c.h **** * structure and the allocated \ref cy_stc_scb_i2c_context_t structure.
  74:Generated_Source\PSoC6\pdl\drivers\peripheral\scb/cy_scb_i2c.h **** *
  75:Generated_Source\PSoC6\pdl\drivers\peripheral\scb/cy_scb_i2c.h **** * \snippet SCB_CompDatasheet_sut_01_revA.cydsn\i2c_snippets.c I2C_CFG
  76:Generated_Source\PSoC6\pdl\drivers\peripheral\scb/cy_scb_i2c.h **** *
  77:Generated_Source\PSoC6\pdl\drivers\peripheral\scb/cy_scb_i2c.h **** * Set up I2C slave read and write buffer before enabling its
  78:Generated_Source\PSoC6\pdl\drivers\peripheral\scb/cy_scb_i2c.h **** * operation using \ref Cy_SCB_I2C_SlaveConfigReadBuf and \ref
  79:Generated_Source\PSoC6\pdl\drivers\peripheral\scb/cy_scb_i2c.h **** * Cy_SCB_I2C_SlaveConfigWriteBuf appropriately. Note that the master reads
  80:Generated_Source\PSoC6\pdl\drivers\peripheral\scb/cy_scb_i2c.h **** * data from the slave read buffer and writes data into the slave write buffer.
  81:Generated_Source\PSoC6\pdl\drivers\peripheral\scb/cy_scb_i2c.h **** *
  82:Generated_Source\PSoC6\pdl\drivers\peripheral\scb/cy_scb_i2c.h **** * \snippet SCB_CompDatasheet_sut_01_revA.cydsn\i2c_snippets.c I2C_CFG_BUFFER
  83:Generated_Source\PSoC6\pdl\drivers\peripheral\scb/cy_scb_i2c.h **** *
  84:Generated_Source\PSoC6\pdl\drivers\peripheral\scb/cy_scb_i2c.h **** ********************************************************************************
  85:Generated_Source\PSoC6\pdl\drivers\peripheral\scb/cy_scb_i2c.h **** * \subsection group_scb_i2c_pins Assign and Configure Pins
  86:Generated_Source\PSoC6\pdl\drivers\peripheral\scb/cy_scb_i2c.h **** ********************************************************************************
  87:Generated_Source\PSoC6\pdl\drivers\peripheral\scb/cy_scb_i2c.h **** * Only dedicated SCB pins can be used for I2C operation. The HSIOM
  88:Generated_Source\PSoC6\pdl\drivers\peripheral\scb/cy_scb_i2c.h **** * register must be configured to connect dedicated SCB I2C pins to the 
  89:Generated_Source\PSoC6\pdl\drivers\peripheral\scb/cy_scb_i2c.h **** * SCB block. Also the I2C pins must be configured in Open-Drain, Drives Low mode 
  90:Generated_Source\PSoC6\pdl\drivers\peripheral\scb/cy_scb_i2c.h **** * (this pins  configuration implies usage of external pull-up resistors):
  91:Generated_Source\PSoC6\pdl\drivers\peripheral\scb/cy_scb_i2c.h **** *
  92:Generated_Source\PSoC6\pdl\drivers\peripheral\scb/cy_scb_i2c.h **** * \snippet SCB_CompDatasheet_sut_01_revA.cydsn\i2c_snippets.c I2C_CFG_PINS
ARM GAS  C:\Users\pearlstl\AppData\Local\Temp\ccSYOVYh.s 			page 17


  93:Generated_Source\PSoC6\pdl\drivers\peripheral\scb/cy_scb_i2c.h **** *
  94:Generated_Source\PSoC6\pdl\drivers\peripheral\scb/cy_scb_i2c.h **** * \note
  95:Generated_Source\PSoC6\pdl\drivers\peripheral\scb/cy_scb_i2c.h **** * The alternative pins configuration is Resistive Pull-ups which implies usage
  96:Generated_Source\PSoC6\pdl\drivers\peripheral\scb/cy_scb_i2c.h **** * internal pull-up resistors. This configuration is not recommended because
  97:Generated_Source\PSoC6\pdl\drivers\peripheral\scb/cy_scb_i2c.h **** * resistor value is fixed and cannot be used for all supported data rates.
  98:Generated_Source\PSoC6\pdl\drivers\peripheral\scb/cy_scb_i2c.h **** * Refer to the device datasheet parameter RPULLUP for resistor value specifications.
  99:Generated_Source\PSoC6\pdl\drivers\peripheral\scb/cy_scb_i2c.h **** *
 100:Generated_Source\PSoC6\pdl\drivers\peripheral\scb/cy_scb_i2c.h **** ********************************************************************************
 101:Generated_Source\PSoC6\pdl\drivers\peripheral\scb/cy_scb_i2c.h **** * \subsection group_scb_i2c_clock Assign Clock Divider
 102:Generated_Source\PSoC6\pdl\drivers\peripheral\scb/cy_scb_i2c.h **** ********************************************************************************
 103:Generated_Source\PSoC6\pdl\drivers\peripheral\scb/cy_scb_i2c.h **** * A clock source must be connected to the SCB block to oversample input and
 104:Generated_Source\PSoC6\pdl\drivers\peripheral\scb/cy_scb_i2c.h **** * output signals, in this document this clock will be referred as clk_scb.
 105:Generated_Source\PSoC6\pdl\drivers\peripheral\scb/cy_scb_i2c.h **** * You must use one of the 8-bit or 16-bit dividers. Use the \ref group_sysclk 
 106:Generated_Source\PSoC6\pdl\drivers\peripheral\scb/cy_scb_i2c.h **** * driver API to do this.
 107:Generated_Source\PSoC6\pdl\drivers\peripheral\scb/cy_scb_i2c.h **** *
 108:Generated_Source\PSoC6\pdl\drivers\peripheral\scb/cy_scb_i2c.h **** * \snippet SCB_CompDatasheet_sut_01_revA.cydsn\i2c_snippets.c I2C_CFG_ASSIGN_CLOCK
 109:Generated_Source\PSoC6\pdl\drivers\peripheral\scb/cy_scb_i2c.h **** *
 110:Generated_Source\PSoC6\pdl\drivers\peripheral\scb/cy_scb_i2c.h **** ********************************************************************************
 111:Generated_Source\PSoC6\pdl\drivers\peripheral\scb/cy_scb_i2c.h **** * \subsection group_scb_i2c_data_rate Configure Data Rate
 112:Generated_Source\PSoC6\pdl\drivers\peripheral\scb/cy_scb_i2c.h **** ********************************************************************************
 113:Generated_Source\PSoC6\pdl\drivers\peripheral\scb/cy_scb_i2c.h **** * To get I2C slave operation with the desired data rate, the clk_scb must be
 114:Generated_Source\PSoC6\pdl\drivers\peripheral\scb/cy_scb_i2c.h **** * fast enough to provide sufficient oversampling. Use the
 115:Generated_Source\PSoC6\pdl\drivers\peripheral\scb/cy_scb_i2c.h **** * \ref group_sysclk driver API to do this.
 116:Generated_Source\PSoC6\pdl\drivers\peripheral\scb/cy_scb_i2c.h **** *
 117:Generated_Source\PSoC6\pdl\drivers\peripheral\scb/cy_scb_i2c.h **** * \snippet SCB_CompDatasheet_sut_01_revA.cydsn\i2c_snippets.c I2C_CFG_DATA_RATE_SLAVE
 118:Generated_Source\PSoC6\pdl\drivers\peripheral\scb/cy_scb_i2c.h **** *
 119:Generated_Source\PSoC6\pdl\drivers\peripheral\scb/cy_scb_i2c.h **** * To get I2C master operation with the desired data rate, the source clock
 120:Generated_Source\PSoC6\pdl\drivers\peripheral\scb/cy_scb_i2c.h **** * frequency and SCL low and high phase duration must be configured. Use the
 121:Generated_Source\PSoC6\pdl\drivers\peripheral\scb/cy_scb_i2c.h **** * \ref group_sysclk driver API to configure source clock frequency. Then call
 122:Generated_Source\PSoC6\pdl\drivers\peripheral\scb/cy_scb_i2c.h **** * \ref Cy_SCB_I2C_SetDataRate to set the SCL low, high phase duration and 
 123:Generated_Source\PSoC6\pdl\drivers\peripheral\scb/cy_scb_i2c.h **** * digital filter. This function sets SCL low and high phase settings based on 
 124:Generated_Source\PSoC6\pdl\drivers\peripheral\scb/cy_scb_i2c.h **** * source clock frequency.
 125:Generated_Source\PSoC6\pdl\drivers\peripheral\scb/cy_scb_i2c.h **** *
 126:Generated_Source\PSoC6\pdl\drivers\peripheral\scb/cy_scb_i2c.h **** * \snippet SCB_CompDatasheet_sut_01_revA.cydsn\i2c_snippets.c I2C_CFG_DATA_RATE_MASTER
 127:Generated_Source\PSoC6\pdl\drivers\peripheral\scb/cy_scb_i2c.h **** *
 128:Generated_Source\PSoC6\pdl\drivers\peripheral\scb/cy_scb_i2c.h **** * Alternatively, the low, high phase and digital filter can be set directly 
 129:Generated_Source\PSoC6\pdl\drivers\peripheral\scb/cy_scb_i2c.h **** * using configuration structure \ref cy_stc_scb_i2c_config_t fields 
 130:Generated_Source\PSoC6\pdl\drivers\peripheral\scb/cy_scb_i2c.h **** * lowPhaseDutyCycle, highPhaseDutyCycle and enableDigitalFilter appropriately.\n
 131:Generated_Source\PSoC6\pdl\drivers\peripheral\scb/cy_scb_i2c.h **** * <b>Refer to the technical reference manual (TRM) section I2C sub-section
 132:Generated_Source\PSoC6\pdl\drivers\peripheral\scb/cy_scb_i2c.h **** * Oversampling and Bit Rate to get information how to configure I2C to run with
 133:Generated_Source\PSoC6\pdl\drivers\peripheral\scb/cy_scb_i2c.h **** * the desired data rate.</b>
 134:Generated_Source\PSoC6\pdl\drivers\peripheral\scb/cy_scb_i2c.h **** *
 135:Generated_Source\PSoC6\pdl\drivers\peripheral\scb/cy_scb_i2c.h **** * \note
 136:Generated_Source\PSoC6\pdl\drivers\peripheral\scb/cy_scb_i2c.h **** * For I2C slave, the analog filter is used for all supported data rates. \n
 137:Generated_Source\PSoC6\pdl\drivers\peripheral\scb/cy_scb_i2c.h **** * For I2C master, the analog filter is used for Standard and Fast modes and the
 138:Generated_Source\PSoC6\pdl\drivers\peripheral\scb/cy_scb_i2c.h **** * digital filter for Fast Plus mode.
 139:Generated_Source\PSoC6\pdl\drivers\peripheral\scb/cy_scb_i2c.h **** *
 140:Generated_Source\PSoC6\pdl\drivers\peripheral\scb/cy_scb_i2c.h **** ********************************************************************************
 141:Generated_Source\PSoC6\pdl\drivers\peripheral\scb/cy_scb_i2c.h **** * \subsection group_scb_i2c_intr Configure Interrupt
 142:Generated_Source\PSoC6\pdl\drivers\peripheral\scb/cy_scb_i2c.h **** ********************************************************************************
 143:Generated_Source\PSoC6\pdl\drivers\peripheral\scb/cy_scb_i2c.h **** * The interrupt is mandatory for I2C operation. The exception is the when only  
 144:Generated_Source\PSoC6\pdl\drivers\peripheral\scb/cy_scb_i2c.h **** * the \ref group_scb_i2c_master_low_level_functions functions are used.
 145:Generated_Source\PSoC6\pdl\drivers\peripheral\scb/cy_scb_i2c.h **** * The driver provides three interrupt functions: \ref Cy_SCB_I2C_Interrupt,
 146:Generated_Source\PSoC6\pdl\drivers\peripheral\scb/cy_scb_i2c.h **** * \ref Cy_SCB_I2C_SlaveInterrupt, and \ref Cy_SCB_I2C_MasterInterrupt. One of
 147:Generated_Source\PSoC6\pdl\drivers\peripheral\scb/cy_scb_i2c.h **** * these functions must be called in the interrupt handler for the selected SCB
 148:Generated_Source\PSoC6\pdl\drivers\peripheral\scb/cy_scb_i2c.h **** * instance. Call \ref Cy_SCB_I2C_SlaveInterrupt when I2C is configured to
 149:Generated_Source\PSoC6\pdl\drivers\peripheral\scb/cy_scb_i2c.h **** * operate as a slave, \ref Cy_SCB_I2C_MasterInterrupt when I2C is configured
ARM GAS  C:\Users\pearlstl\AppData\Local\Temp\ccSYOVYh.s 			page 18


 150:Generated_Source\PSoC6\pdl\drivers\peripheral\scb/cy_scb_i2c.h **** * to operate as a master and \ref Cy_SCB_I2C_Interrupt when I2C is configured
 151:Generated_Source\PSoC6\pdl\drivers\peripheral\scb/cy_scb_i2c.h **** * to operate as master and slave. Using the slave- or master-specific interrupt
 152:Generated_Source\PSoC6\pdl\drivers\peripheral\scb/cy_scb_i2c.h **** * function allows reducing the flash consumed by the I2C driver. Also this
 153:Generated_Source\PSoC6\pdl\drivers\peripheral\scb/cy_scb_i2c.h **** * interrupt must be enabled in the NVIC otherwise it will not work.
 154:Generated_Source\PSoC6\pdl\drivers\peripheral\scb/cy_scb_i2c.h **** * \note
 155:Generated_Source\PSoC6\pdl\drivers\peripheral\scb/cy_scb_i2c.h **** * The I2C driver documentation refers to the \ref Cy_SCB_I2C_Interrupt function
 156:Generated_Source\PSoC6\pdl\drivers\peripheral\scb/cy_scb_i2c.h **** * when interrupt processing is mandatory for the operation. This is done to
 157:Generated_Source\PSoC6\pdl\drivers\peripheral\scb/cy_scb_i2c.h **** * simplify the readability of the driver's documentation. The application should
 158:Generated_Source\PSoC6\pdl\drivers\peripheral\scb/cy_scb_i2c.h **** *  call the slave- or master-specific interrupt functions \ref Cy_SCB_I2C_SlaveInterrupt
 159:Generated_Source\PSoC6\pdl\drivers\peripheral\scb/cy_scb_i2c.h **** * or \ref Cy_SCB_I2C_MasterInterrupt, when appropriate.
 160:Generated_Source\PSoC6\pdl\drivers\peripheral\scb/cy_scb_i2c.h **** *
 161:Generated_Source\PSoC6\pdl\drivers\peripheral\scb/cy_scb_i2c.h **** * \snippet SCB_CompDatasheet_sut_01_revA.cydsn\i2c_snippets.c I2C_INTR_A
 162:Generated_Source\PSoC6\pdl\drivers\peripheral\scb/cy_scb_i2c.h **** * \snippet SCB_CompDatasheet_sut_01_revA.cydsn\i2c_snippets.c I2C_INTR_B
 163:Generated_Source\PSoC6\pdl\drivers\peripheral\scb/cy_scb_i2c.h **** *
 164:Generated_Source\PSoC6\pdl\drivers\peripheral\scb/cy_scb_i2c.h **** ********************************************************************************
 165:Generated_Source\PSoC6\pdl\drivers\peripheral\scb/cy_scb_i2c.h **** * \subsection group_scb_i2c_enable Enable I2C
 166:Generated_Source\PSoC6\pdl\drivers\peripheral\scb/cy_scb_i2c.h **** ********************************************************************************
 167:Generated_Source\PSoC6\pdl\drivers\peripheral\scb/cy_scb_i2c.h **** * Finally, enable the I2C operation by calling \ref Cy_SCB_I2C_Enable. Then I2C
 168:Generated_Source\PSoC6\pdl\drivers\peripheral\scb/cy_scb_i2c.h **** * slave starts respond to the assigned address and I2C master ready to execute
 169:Generated_Source\PSoC6\pdl\drivers\peripheral\scb/cy_scb_i2c.h **** * transfers.
 170:Generated_Source\PSoC6\pdl\drivers\peripheral\scb/cy_scb_i2c.h **** *
 171:Generated_Source\PSoC6\pdl\drivers\peripheral\scb/cy_scb_i2c.h **** * \snippet SCB_CompDatasheet_sut_01_revA.cydsn\i2c_snippets.c I2C_ENABLE
 172:Generated_Source\PSoC6\pdl\drivers\peripheral\scb/cy_scb_i2c.h **** *
 173:Generated_Source\PSoC6\pdl\drivers\peripheral\scb/cy_scb_i2c.h **** * \section group_scb_i2c_use_cases Common Use Cases
 174:Generated_Source\PSoC6\pdl\drivers\peripheral\scb/cy_scb_i2c.h **** *
 175:Generated_Source\PSoC6\pdl\drivers\peripheral\scb/cy_scb_i2c.h **** ********************************************************************************
 176:Generated_Source\PSoC6\pdl\drivers\peripheral\scb/cy_scb_i2c.h **** * \subsection group_scb_i2c_master_mode Master Operation
 177:Generated_Source\PSoC6\pdl\drivers\peripheral\scb/cy_scb_i2c.h **** ********************************************************************************
 178:Generated_Source\PSoC6\pdl\drivers\peripheral\scb/cy_scb_i2c.h **** * The master API is divided into two categories:
 179:Generated_Source\PSoC6\pdl\drivers\peripheral\scb/cy_scb_i2c.h **** * \ref group_scb_i2c_master_high_level_functions and
 180:Generated_Source\PSoC6\pdl\drivers\peripheral\scb/cy_scb_i2c.h **** * \ref group_scb_i2c_master_low_level_functions. Therefore, there are two
 181:Generated_Source\PSoC6\pdl\drivers\peripheral\scb/cy_scb_i2c.h **** * methods for initiating I2C master transactions using either <b>Low-Level or
 182:Generated_Source\PSoC6\pdl\drivers\peripheral\scb/cy_scb_i2c.h **** * High-Level</b> API. These two methods are described below. Only one method
 183:Generated_Source\PSoC6\pdl\drivers\peripheral\scb/cy_scb_i2c.h **** * should be used at a time. <b>They should not be mixed.</b>
 184:Generated_Source\PSoC6\pdl\drivers\peripheral\scb/cy_scb_i2c.h **** *
 185:Generated_Source\PSoC6\pdl\drivers\peripheral\scb/cy_scb_i2c.h **** ********************************************************************************
 186:Generated_Source\PSoC6\pdl\drivers\peripheral\scb/cy_scb_i2c.h **** * \subsubsection  group_scb_i2c_master_hl Use High-Level Functions
 187:Generated_Source\PSoC6\pdl\drivers\peripheral\scb/cy_scb_i2c.h **** ********************************************************************************
 188:Generated_Source\PSoC6\pdl\drivers\peripheral\scb/cy_scb_i2c.h **** *  Call \ref Cy_SCB_I2C_MasterRead or \ref Cy_SCB_I2C_MasterWrite to
 189:Generated_Source\PSoC6\pdl\drivers\peripheral\scb/cy_scb_i2c.h **** * communicate with the slave. These functions do not block and only start a
 190:Generated_Source\PSoC6\pdl\drivers\peripheral\scb/cy_scb_i2c.h **** * transaction. After a transaction starts, the \ref Cy_SCB_I2C_Interrupt
 191:Generated_Source\PSoC6\pdl\drivers\peripheral\scb/cy_scb_i2c.h **** * handles further data transaction until its completion (successfully or 
 192:Generated_Source\PSoC6\pdl\drivers\peripheral\scb/cy_scb_i2c.h **** * with error occurring). To monitor the transaction,
 193:Generated_Source\PSoC6\pdl\drivers\peripheral\scb/cy_scb_i2c.h **** * use \ref Cy_SCB_I2C_MasterGetStatus or register callback function using
 194:Generated_Source\PSoC6\pdl\drivers\peripheral\scb/cy_scb_i2c.h **** * \ref Cy_SCB_I2C_RegisterEventCallback to be notified about
 195:Generated_Source\PSoC6\pdl\drivers\peripheral\scb/cy_scb_i2c.h **** * \ref group_scb_i2c_macros_callback_events.
 196:Generated_Source\PSoC6\pdl\drivers\peripheral\scb/cy_scb_i2c.h **** *
 197:Generated_Source\PSoC6\pdl\drivers\peripheral\scb/cy_scb_i2c.h **** * \snippet SCB_CompDatasheet_sut_01_revA.cydsn\i2c_snippets.c I2C_MASTER_WRITE_READ_INT
 198:Generated_Source\PSoC6\pdl\drivers\peripheral\scb/cy_scb_i2c.h **** *
 199:Generated_Source\PSoC6\pdl\drivers\peripheral\scb/cy_scb_i2c.h **** ********************************************************************************
 200:Generated_Source\PSoC6\pdl\drivers\peripheral\scb/cy_scb_i2c.h **** * \subsubsection group_scb_i2c_master_ll Use Low-Level Functions
 201:Generated_Source\PSoC6\pdl\drivers\peripheral\scb/cy_scb_i2c.h **** ********************************************************************************
 202:Generated_Source\PSoC6\pdl\drivers\peripheral\scb/cy_scb_i2c.h **** * Call \ref Cy_SCB_I2C_MasterSendStart to generate a start, send an address
 203:Generated_Source\PSoC6\pdl\drivers\peripheral\scb/cy_scb_i2c.h **** * with the Read/Write direction bit, and receive acknowledgment. After the
 204:Generated_Source\PSoC6\pdl\drivers\peripheral\scb/cy_scb_i2c.h **** * address is ACKed by the slave, the transaction can be continued by calling
 205:Generated_Source\PSoC6\pdl\drivers\peripheral\scb/cy_scb_i2c.h **** * \ref Cy_SCB_I2C_MasterReadByte or \ref Cy_SCB_I2C_MasterWriteByte depending
 206:Generated_Source\PSoC6\pdl\drivers\peripheral\scb/cy_scb_i2c.h **** * on its direction. These functions handle one byte per call. Therefore,
ARM GAS  C:\Users\pearlstl\AppData\Local\Temp\ccSYOVYh.s 			page 19


 207:Generated_Source\PSoC6\pdl\drivers\peripheral\scb/cy_scb_i2c.h **** * they should be called for each byte in the transaction. Note that for the
 208:Generated_Source\PSoC6\pdl\drivers\peripheral\scb/cy_scb_i2c.h **** * Read transaction, the last byte must be NAKed. To complete the current
 209:Generated_Source\PSoC6\pdl\drivers\peripheral\scb/cy_scb_i2c.h **** * transaction, call \ref Cy_SCB_I2C_MasterSendStop or call
 210:Generated_Source\PSoC6\pdl\drivers\peripheral\scb/cy_scb_i2c.h **** * \ref Cy_SCB_I2C_MasterSendReStart to complete the current transaction and
 211:Generated_Source\PSoC6\pdl\drivers\peripheral\scb/cy_scb_i2c.h **** * start a new one. Typically, do a restart to change the transaction
 212:Generated_Source\PSoC6\pdl\drivers\peripheral\scb/cy_scb_i2c.h **** * direction without releasing the bus from the master control.
 213:Generated_Source\PSoC6\pdl\drivers\peripheral\scb/cy_scb_i2c.h **** * The Low-Level functions are blocking and do not require calling
 214:Generated_Source\PSoC6\pdl\drivers\peripheral\scb/cy_scb_i2c.h **** * \ref Cy_SCB_I2C_Interrupt inside the interrupt handler. Using these
 215:Generated_Source\PSoC6\pdl\drivers\peripheral\scb/cy_scb_i2c.h **** * functions requires extensive knowledge of the I2C protocol to execute
 216:Generated_Source\PSoC6\pdl\drivers\peripheral\scb/cy_scb_i2c.h **** * transactions correctly.
 217:Generated_Source\PSoC6\pdl\drivers\peripheral\scb/cy_scb_i2c.h **** *
 218:Generated_Source\PSoC6\pdl\drivers\peripheral\scb/cy_scb_i2c.h **** * <b>Master Write Operation</b>
 219:Generated_Source\PSoC6\pdl\drivers\peripheral\scb/cy_scb_i2c.h **** * \snippet SCB_CompDatasheet_sut_01_revA.cydsn\i2c_snippets.c I2C_MASTER_WRITE_MANUAL
 220:Generated_Source\PSoC6\pdl\drivers\peripheral\scb/cy_scb_i2c.h **** *
 221:Generated_Source\PSoC6\pdl\drivers\peripheral\scb/cy_scb_i2c.h **** * <b>Master Read Operation</b>
 222:Generated_Source\PSoC6\pdl\drivers\peripheral\scb/cy_scb_i2c.h **** * \snippet SCB_CompDatasheet_sut_01_revA.cydsn\i2c_snippets.c I2C_MASTER_READ_MANUAL
 223:Generated_Source\PSoC6\pdl\drivers\peripheral\scb/cy_scb_i2c.h **** *
 224:Generated_Source\PSoC6\pdl\drivers\peripheral\scb/cy_scb_i2c.h **** ********************************************************************************
 225:Generated_Source\PSoC6\pdl\drivers\peripheral\scb/cy_scb_i2c.h **** * \subsection group_scb_i2c_slave Slave Operation
 226:Generated_Source\PSoC6\pdl\drivers\peripheral\scb/cy_scb_i2c.h **** ********************************************************************************
 227:Generated_Source\PSoC6\pdl\drivers\peripheral\scb/cy_scb_i2c.h **** * Slave operation requires the \ref Cy_SCB_I2C_Interrupt be
 228:Generated_Source\PSoC6\pdl\drivers\peripheral\scb/cy_scb_i2c.h **** * called inside the interrupt handler. The read and write buffers must
 229:Generated_Source\PSoC6\pdl\drivers\peripheral\scb/cy_scb_i2c.h **** * be provided for the slave to enable communication with the master. Use
 230:Generated_Source\PSoC6\pdl\drivers\peripheral\scb/cy_scb_i2c.h **** * \ref Cy_SCB_I2C_SlaveConfigReadBuf and \ref Cy_SCB_I2C_SlaveConfigWriteBuf
 231:Generated_Source\PSoC6\pdl\drivers\peripheral\scb/cy_scb_i2c.h **** * for this purpose. Note that after transaction completion the buffer must be
 232:Generated_Source\PSoC6\pdl\drivers\peripheral\scb/cy_scb_i2c.h **** * configured again. Otherwise, the same buffer is used starting from the point
 233:Generated_Source\PSoC6\pdl\drivers\peripheral\scb/cy_scb_i2c.h **** * where the master stopped a previous transaction.
 234:Generated_Source\PSoC6\pdl\drivers\peripheral\scb/cy_scb_i2c.h **** * For example: The read buffer is configured to be 10 bytes and the master reads
 235:Generated_Source\PSoC6\pdl\drivers\peripheral\scb/cy_scb_i2c.h **** * 8 bytes. If the read buffer is not configured again, the next master read
 236:Generated_Source\PSoC6\pdl\drivers\peripheral\scb/cy_scb_i2c.h **** * will start from the 9th byte.
 237:Generated_Source\PSoC6\pdl\drivers\peripheral\scb/cy_scb_i2c.h **** * To monitor the transaction status, use \ref Cy_SCB_I2C_SlaveGetStatus or
 238:Generated_Source\PSoC6\pdl\drivers\peripheral\scb/cy_scb_i2c.h **** * use \ref Cy_SCB_I2C_RegisterEventCallback to register a callback function
 239:Generated_Source\PSoC6\pdl\drivers\peripheral\scb/cy_scb_i2c.h **** * to be notified about \ref group_scb_i2c_macros_callback_events.
 240:Generated_Source\PSoC6\pdl\drivers\peripheral\scb/cy_scb_i2c.h **** *
 241:Generated_Source\PSoC6\pdl\drivers\peripheral\scb/cy_scb_i2c.h **** * <b>Get Slave Events Notification</b>
 242:Generated_Source\PSoC6\pdl\drivers\peripheral\scb/cy_scb_i2c.h **** * \snippet SCB_CompDatasheet_sut_01_revA.cydsn\i2c_snippets.c I2C_SLAVE_REG_CALLBACK
 243:Generated_Source\PSoC6\pdl\drivers\peripheral\scb/cy_scb_i2c.h **** * \snippet SCB_CompDatasheet_sut_01_revA.cydsn\i2c_snippets.c I2C_SLAVE_NOTIFICATION
 244:Generated_Source\PSoC6\pdl\drivers\peripheral\scb/cy_scb_i2c.h **** *
 245:Generated_Source\PSoC6\pdl\drivers\peripheral\scb/cy_scb_i2c.h **** * <b>Polling Slave Completion Events</b>
 246:Generated_Source\PSoC6\pdl\drivers\peripheral\scb/cy_scb_i2c.h **** * \snippet SCB_CompDatasheet_sut_01_revA.cydsn\i2c_snippets.c I2C_SLAVE_POLLING
 247:Generated_Source\PSoC6\pdl\drivers\peripheral\scb/cy_scb_i2c.h **** *
 248:Generated_Source\PSoC6\pdl\drivers\peripheral\scb/cy_scb_i2c.h **** * \note
 249:Generated_Source\PSoC6\pdl\drivers\peripheral\scb/cy_scb_i2c.h **** * All slave API (except \ref Cy_SCB_I2C_SlaveAbortRead and
 250:Generated_Source\PSoC6\pdl\drivers\peripheral\scb/cy_scb_i2c.h **** * \ref Cy_SCB_I2C_SlaveAbortWrite) <b>are not interrupt-protected</b> and to
 251:Generated_Source\PSoC6\pdl\drivers\peripheral\scb/cy_scb_i2c.h **** * prevent a race condition, they should be protected from the I2C interruption
 252:Generated_Source\PSoC6\pdl\drivers\peripheral\scb/cy_scb_i2c.h **** * in the place where they are called. The code snippet Polling Slave 
 253:Generated_Source\PSoC6\pdl\drivers\peripheral\scb/cy_scb_i2c.h **** * Completion Events above shows how to prevent a race condition when detect 
 254:Generated_Source\PSoC6\pdl\drivers\peripheral\scb/cy_scb_i2c.h **** * transfer completion and update I2C slave write buffer. 
 255:Generated_Source\PSoC6\pdl\drivers\peripheral\scb/cy_scb_i2c.h **** * The simple example of race condition is: application updates slave read 
 256:Generated_Source\PSoC6\pdl\drivers\peripheral\scb/cy_scb_i2c.h **** * buffer the I2C master starts read transfer. The I2C interrupts read buffer 
 257:Generated_Source\PSoC6\pdl\drivers\peripheral\scb/cy_scb_i2c.h **** * update and I2C interrupt loads current read buffer content in the TX FIFO . 
 258:Generated_Source\PSoC6\pdl\drivers\peripheral\scb/cy_scb_i2c.h **** * After I2C interrupt returns the application updates remaining part of the read 
 259:Generated_Source\PSoC6\pdl\drivers\peripheral\scb/cy_scb_i2c.h **** * buffer. As a result the mater read partly updated buffer.
 260:Generated_Source\PSoC6\pdl\drivers\peripheral\scb/cy_scb_i2c.h **** *
 261:Generated_Source\PSoC6\pdl\drivers\peripheral\scb/cy_scb_i2c.h **** ********************************************************************************
 262:Generated_Source\PSoC6\pdl\drivers\peripheral\scb/cy_scb_i2c.h **** * \section group_scb_i2c_lp Low Power Support
 263:Generated_Source\PSoC6\pdl\drivers\peripheral\scb/cy_scb_i2c.h **** ********************************************************************************
ARM GAS  C:\Users\pearlstl\AppData\Local\Temp\ccSYOVYh.s 			page 20


 264:Generated_Source\PSoC6\pdl\drivers\peripheral\scb/cy_scb_i2c.h **** * The I2C driver provides callback functions to handle power mode transition.
 265:Generated_Source\PSoC6\pdl\drivers\peripheral\scb/cy_scb_i2c.h **** * The callback \ref Cy_SCB_I2C_DeepSleepCallback must be called
 266:Generated_Source\PSoC6\pdl\drivers\peripheral\scb/cy_scb_i2c.h **** * during execution of \ref Cy_SysPm_CpuEnterDeepSleep \ref Cy_SCB_I2C_HibernateCallback
 267:Generated_Source\PSoC6\pdl\drivers\peripheral\scb/cy_scb_i2c.h **** * must be called during execution of \ref Cy_SysPm_SystemEnterHibernate. To trigger the
 268:Generated_Source\PSoC6\pdl\drivers\peripheral\scb/cy_scb_i2c.h **** * callback execution, the callback must be registered before calling the
 269:Generated_Source\PSoC6\pdl\drivers\peripheral\scb/cy_scb_i2c.h **** * power mode transition function. Refer to \ref group_syspm driver for more
 270:Generated_Source\PSoC6\pdl\drivers\peripheral\scb/cy_scb_i2c.h **** * information about power mode transitions and callback registration.
 271:Generated_Source\PSoC6\pdl\drivers\peripheral\scb/cy_scb_i2c.h **** *
 272:Generated_Source\PSoC6\pdl\drivers\peripheral\scb/cy_scb_i2c.h **** * \note
 273:Generated_Source\PSoC6\pdl\drivers\peripheral\scb/cy_scb_i2c.h **** * Only applicable for <b>rev-08 of the CY8CKIT-062-BLE</b>.
 274:Generated_Source\PSoC6\pdl\drivers\peripheral\scb/cy_scb_i2c.h **** * For proper operation, when the I2C slave is configured to be a wakeup
 275:Generated_Source\PSoC6\pdl\drivers\peripheral\scb/cy_scb_i2c.h **** * source from Deep Sleep mode, the \ref Cy_SCB_I2C_DeepSleepCallback must be
 276:Generated_Source\PSoC6\pdl\drivers\peripheral\scb/cy_scb_i2c.h **** * copied and modified. Refer to the function description to get the details.
 277:Generated_Source\PSoC6\pdl\drivers\peripheral\scb/cy_scb_i2c.h **** *
 278:Generated_Source\PSoC6\pdl\drivers\peripheral\scb/cy_scb_i2c.h **** ********************************************************************************
 279:Generated_Source\PSoC6\pdl\drivers\peripheral\scb/cy_scb_i2c.h **** * \section group_scb_i2c_more_information More Information
 280:Generated_Source\PSoC6\pdl\drivers\peripheral\scb/cy_scb_i2c.h **** ********************************************************************************
 281:Generated_Source\PSoC6\pdl\drivers\peripheral\scb/cy_scb_i2c.h **** * For more information on the SCB peripheral, refer to the technical reference
 282:Generated_Source\PSoC6\pdl\drivers\peripheral\scb/cy_scb_i2c.h **** * manual (TRM).
 283:Generated_Source\PSoC6\pdl\drivers\peripheral\scb/cy_scb_i2c.h **** *
 284:Generated_Source\PSoC6\pdl\drivers\peripheral\scb/cy_scb_i2c.h **** ********************************************************************************
 285:Generated_Source\PSoC6\pdl\drivers\peripheral\scb/cy_scb_i2c.h **** * \section group_scb_i2c_MISRA MISRA-C Compliance
 286:Generated_Source\PSoC6\pdl\drivers\peripheral\scb/cy_scb_i2c.h **** ********************************************************************************
 287:Generated_Source\PSoC6\pdl\drivers\peripheral\scb/cy_scb_i2c.h **** * <table class="doxtable">
 288:Generated_Source\PSoC6\pdl\drivers\peripheral\scb/cy_scb_i2c.h **** *   <tr>
 289:Generated_Source\PSoC6\pdl\drivers\peripheral\scb/cy_scb_i2c.h **** *     <th>MISRA Rule</th>
 290:Generated_Source\PSoC6\pdl\drivers\peripheral\scb/cy_scb_i2c.h **** *     <th>Rule Class (Required/Advisory)</th>
 291:Generated_Source\PSoC6\pdl\drivers\peripheral\scb/cy_scb_i2c.h **** *     <th>Rule Description</th>
 292:Generated_Source\PSoC6\pdl\drivers\peripheral\scb/cy_scb_i2c.h **** *     <th>Description of Deviation(s)</th>
 293:Generated_Source\PSoC6\pdl\drivers\peripheral\scb/cy_scb_i2c.h **** *   </tr>
 294:Generated_Source\PSoC6\pdl\drivers\peripheral\scb/cy_scb_i2c.h **** *   <tr>
 295:Generated_Source\PSoC6\pdl\drivers\peripheral\scb/cy_scb_i2c.h **** *     <td>11.4</td>
 296:Generated_Source\PSoC6\pdl\drivers\peripheral\scb/cy_scb_i2c.h **** *     <td>A</td>
 297:Generated_Source\PSoC6\pdl\drivers\peripheral\scb/cy_scb_i2c.h **** *     <td>A cast should not be performed between a pointer to object type and
 298:Generated_Source\PSoC6\pdl\drivers\peripheral\scb/cy_scb_i2c.h **** *         a different pointer to object type.</td>
 299:Generated_Source\PSoC6\pdl\drivers\peripheral\scb/cy_scb_i2c.h **** *     <td>The functions \ref Cy_SCB_I2C_DeepSleepCallback and
 300:Generated_Source\PSoC6\pdl\drivers\peripheral\scb/cy_scb_i2c.h **** *         \ref Cy_SCB_I2C_HibernateCallback are callback of
 301:Generated_Source\PSoC6\pdl\drivers\peripheral\scb/cy_scb_i2c.h **** *         \ref cy_en_syspm_status_t type. The cast operation safety in these
 302:Generated_Source\PSoC6\pdl\drivers\peripheral\scb/cy_scb_i2c.h **** *         functions becomes the user's responsibility because pointers are
 303:Generated_Source\PSoC6\pdl\drivers\peripheral\scb/cy_scb_i2c.h **** *         initialized when callback is registered in SysPm driver.</td>
 304:Generated_Source\PSoC6\pdl\drivers\peripheral\scb/cy_scb_i2c.h **** *   </tr>
 305:Generated_Source\PSoC6\pdl\drivers\peripheral\scb/cy_scb_i2c.h **** *   <tr>
 306:Generated_Source\PSoC6\pdl\drivers\peripheral\scb/cy_scb_i2c.h **** *     <td>14.1</td>
 307:Generated_Source\PSoC6\pdl\drivers\peripheral\scb/cy_scb_i2c.h **** *     <td>R</td>
 308:Generated_Source\PSoC6\pdl\drivers\peripheral\scb/cy_scb_i2c.h **** *     <td>There shall be no unreachable code.</td>
 309:Generated_Source\PSoC6\pdl\drivers\peripheral\scb/cy_scb_i2c.h **** *     <td>The SCB block parameters can be a constant false or true depends on
 310:Generated_Source\PSoC6\pdl\drivers\peripheral\scb/cy_scb_i2c.h **** *         the selected device and cause code to be unreachable.</td>
 311:Generated_Source\PSoC6\pdl\drivers\peripheral\scb/cy_scb_i2c.h **** *   </tr>
 312:Generated_Source\PSoC6\pdl\drivers\peripheral\scb/cy_scb_i2c.h **** *   <tr>
 313:Generated_Source\PSoC6\pdl\drivers\peripheral\scb/cy_scb_i2c.h **** *     <td>13.7</td>
 314:Generated_Source\PSoC6\pdl\drivers\peripheral\scb/cy_scb_i2c.h **** *     <td>R</td>
 315:Generated_Source\PSoC6\pdl\drivers\peripheral\scb/cy_scb_i2c.h **** *     <td>Boolean operations whose results are invariant shall not be
 316:Generated_Source\PSoC6\pdl\drivers\peripheral\scb/cy_scb_i2c.h **** *         permitted.</td>
 317:Generated_Source\PSoC6\pdl\drivers\peripheral\scb/cy_scb_i2c.h **** *     <td>
 318:Generated_Source\PSoC6\pdl\drivers\peripheral\scb/cy_scb_i2c.h **** *         * The SCB block parameters can be a constant false or true depends on
 319:Generated_Source\PSoC6\pdl\drivers\peripheral\scb/cy_scb_i2c.h **** *         the selected device and cause this violation.
 320:Generated_Source\PSoC6\pdl\drivers\peripheral\scb/cy_scb_i2c.h **** *         * The same condition check is executed before and after callback is
ARM GAS  C:\Users\pearlstl\AppData\Local\Temp\ccSYOVYh.s 			page 21


 321:Generated_Source\PSoC6\pdl\drivers\peripheral\scb/cy_scb_i2c.h **** *         called because after the callback returns, the condition might be not
 322:Generated_Source\PSoC6\pdl\drivers\peripheral\scb/cy_scb_i2c.h **** *         true any more.</td>
 323:Generated_Source\PSoC6\pdl\drivers\peripheral\scb/cy_scb_i2c.h **** *   </tr>
 324:Generated_Source\PSoC6\pdl\drivers\peripheral\scb/cy_scb_i2c.h **** *   <tr>
 325:Generated_Source\PSoC6\pdl\drivers\peripheral\scb/cy_scb_i2c.h **** *     <td>14.2</td>
 326:Generated_Source\PSoC6\pdl\drivers\peripheral\scb/cy_scb_i2c.h **** *     <td>R</td>
 327:Generated_Source\PSoC6\pdl\drivers\peripheral\scb/cy_scb_i2c.h **** *     <td>All non-null statements shall either: a) have at least one side-effect
 328:Generated_Source\PSoC6\pdl\drivers\peripheral\scb/cy_scb_i2c.h **** *         however executed, or b) cause control flow to change.</td>
 329:Generated_Source\PSoC6\pdl\drivers\peripheral\scb/cy_scb_i2c.h **** *     <td>The unused function parameters are cast to void. This statement
 330:Generated_Source\PSoC6\pdl\drivers\peripheral\scb/cy_scb_i2c.h **** *         has no side-effect and is used to suppress a compiler warning.</td>
 331:Generated_Source\PSoC6\pdl\drivers\peripheral\scb/cy_scb_i2c.h **** *   </tr>
 332:Generated_Source\PSoC6\pdl\drivers\peripheral\scb/cy_scb_i2c.h **** *   <tr>
 333:Generated_Source\PSoC6\pdl\drivers\peripheral\scb/cy_scb_i2c.h **** *     <td>14.7</td>
 334:Generated_Source\PSoC6\pdl\drivers\peripheral\scb/cy_scb_i2c.h **** *     <td>R</td>
 335:Generated_Source\PSoC6\pdl\drivers\peripheral\scb/cy_scb_i2c.h **** *     <td>A function shall have a single point of exit at the end of the
 336:Generated_Source\PSoC6\pdl\drivers\peripheral\scb/cy_scb_i2c.h **** *         function.</td>
 337:Generated_Source\PSoC6\pdl\drivers\peripheral\scb/cy_scb_i2c.h **** *     <td>The functions can return from several points. This is done to improve
 338:Generated_Source\PSoC6\pdl\drivers\peripheral\scb/cy_scb_i2c.h **** *         code clarity when returning error status code if input parameters
 339:Generated_Source\PSoC6\pdl\drivers\peripheral\scb/cy_scb_i2c.h **** *         validation fails.</td>
 340:Generated_Source\PSoC6\pdl\drivers\peripheral\scb/cy_scb_i2c.h **** *   </tr>
 341:Generated_Source\PSoC6\pdl\drivers\peripheral\scb/cy_scb_i2c.h **** * </table>
 342:Generated_Source\PSoC6\pdl\drivers\peripheral\scb/cy_scb_i2c.h **** *
 343:Generated_Source\PSoC6\pdl\drivers\peripheral\scb/cy_scb_i2c.h **** * \section group_scb_i2c_changelog Changelog
 344:Generated_Source\PSoC6\pdl\drivers\peripheral\scb/cy_scb_i2c.h **** * <table class="doxtable">
 345:Generated_Source\PSoC6\pdl\drivers\peripheral\scb/cy_scb_i2c.h **** *   <tr><th>Version</th><th>Changes</th><th>Reason for Change</th></tr>
 346:Generated_Source\PSoC6\pdl\drivers\peripheral\scb/cy_scb_i2c.h **** *   <tr>
 347:Generated_Source\PSoC6\pdl\drivers\peripheral\scb/cy_scb_i2c.h **** *     <td rowspan="4"> 2.20</td>
 348:Generated_Source\PSoC6\pdl\drivers\peripheral\scb/cy_scb_i2c.h **** *     <td>Flattened the organization of the driver source code into the single 
 349:Generated_Source\PSoC6\pdl\drivers\peripheral\scb/cy_scb_i2c.h **** *         source directory and the single include directory.
 350:Generated_Source\PSoC6\pdl\drivers\peripheral\scb/cy_scb_i2c.h **** *     </td>
 351:Generated_Source\PSoC6\pdl\drivers\peripheral\scb/cy_scb_i2c.h **** *     <td>Driver library directory-structure simplification.</td>
 352:Generated_Source\PSoC6\pdl\drivers\peripheral\scb/cy_scb_i2c.h **** *   </tr>
 353:Generated_Source\PSoC6\pdl\drivers\peripheral\scb/cy_scb_i2c.h **** *   <tr>
 354:Generated_Source\PSoC6\pdl\drivers\peripheral\scb/cy_scb_i2c.h **** *     <td>Added the enableDigitalFilter, highPhaseDutyCycle and lowPhaseDutyCycle 
 355:Generated_Source\PSoC6\pdl\drivers\peripheral\scb/cy_scb_i2c.h **** *         fields to the \ref cy_stc_scb_i2c_config_t configuration structure.
 356:Generated_Source\PSoC6\pdl\drivers\peripheral\scb/cy_scb_i2c.h **** *     </td>
 357:Generated_Source\PSoC6\pdl\drivers\peripheral\scb/cy_scb_i2c.h **** *     <td>Added the I2C master data rate configuration using the configuration structure.
 358:Generated_Source\PSoC6\pdl\drivers\peripheral\scb/cy_scb_i2c.h **** *     </td>
 359:Generated_Source\PSoC6\pdl\drivers\peripheral\scb/cy_scb_i2c.h **** *   </tr>
 360:Generated_Source\PSoC6\pdl\drivers\peripheral\scb/cy_scb_i2c.h **** *   <tr>
 361:Generated_Source\PSoC6\pdl\drivers\peripheral\scb/cy_scb_i2c.h **** *     <td>Fixed the \ref Cy_SCB_I2C_SetDataRate function to properly configure data rates 
 362:Generated_Source\PSoC6\pdl\drivers\peripheral\scb/cy_scb_i2c.h **** *         greater than 400 kbps in Master and Master-Slave modes. \n
 363:Generated_Source\PSoC6\pdl\drivers\peripheral\scb/cy_scb_i2c.h **** *         Added verification that clk_scb is within the valid range for the desired data rate.
 364:Generated_Source\PSoC6\pdl\drivers\peripheral\scb/cy_scb_i2c.h **** *     </td>     
 365:Generated_Source\PSoC6\pdl\drivers\peripheral\scb/cy_scb_i2c.h **** *     <td>The analog filter was enabled for all data rates in Master and Master-Slave modes. 
 366:Generated_Source\PSoC6\pdl\drivers\peripheral\scb/cy_scb_i2c.h **** *         This prevents reaching the maximum supported data rate of 1000 kbps which requires a digi
 367:Generated_Source\PSoC6\pdl\drivers\peripheral\scb/cy_scb_i2c.h **** *     </td>
 368:Generated_Source\PSoC6\pdl\drivers\peripheral\scb/cy_scb_i2c.h **** *   </tr>
 369:Generated_Source\PSoC6\pdl\drivers\peripheral\scb/cy_scb_i2c.h **** *   <tr>
 370:Generated_Source\PSoC6\pdl\drivers\peripheral\scb/cy_scb_i2c.h **** *     <td>Added register access layer. Use register access macros instead
 371:Generated_Source\PSoC6\pdl\drivers\peripheral\scb/cy_scb_i2c.h **** *         of direct register access using dereferenced pointers.</td>
 372:Generated_Source\PSoC6\pdl\drivers\peripheral\scb/cy_scb_i2c.h **** *     <td>Makes register access device-independent, so that the PDL does 
 373:Generated_Source\PSoC6\pdl\drivers\peripheral\scb/cy_scb_i2c.h **** *         not need to be recompiled for each supported part number.</td>
 374:Generated_Source\PSoC6\pdl\drivers\peripheral\scb/cy_scb_i2c.h **** *   </tr>
 375:Generated_Source\PSoC6\pdl\drivers\peripheral\scb/cy_scb_i2c.h **** *   <tr>
 376:Generated_Source\PSoC6\pdl\drivers\peripheral\scb/cy_scb_i2c.h **** *     <td rowspan="4"> 2.10</td>
 377:Generated_Source\PSoC6\pdl\drivers\peripheral\scb/cy_scb_i2c.h **** *     <td>Fixed the ReStart condition generation sequence for a write
ARM GAS  C:\Users\pearlstl\AppData\Local\Temp\ccSYOVYh.s 			page 22


 378:Generated_Source\PSoC6\pdl\drivers\peripheral\scb/cy_scb_i2c.h **** *         transaction in the \ref Cy_SCB_I2C_MasterWrite function.</td>
 379:Generated_Source\PSoC6\pdl\drivers\peripheral\scb/cy_scb_i2c.h **** *     <td>The driver can notify about a zero length write transaction completion 
 380:Generated_Source\PSoC6\pdl\drivers\peripheral\scb/cy_scb_i2c.h **** *         before the address byte is sent if the \ref Cy_SCB_I2C_MasterWrite 
 381:Generated_Source\PSoC6\pdl\drivers\peripheral\scb/cy_scb_i2c.h **** *         function execution was interrupted between setting the restart 
 382:Generated_Source\PSoC6\pdl\drivers\peripheral\scb/cy_scb_i2c.h **** *         generation command and writing the address byte into the TX FIFO.</td>
 383:Generated_Source\PSoC6\pdl\drivers\peripheral\scb/cy_scb_i2c.h **** *   </tr>
 384:Generated_Source\PSoC6\pdl\drivers\peripheral\scb/cy_scb_i2c.h **** *   <tr>
 385:Generated_Source\PSoC6\pdl\drivers\peripheral\scb/cy_scb_i2c.h **** *     <td>Added the slave- and master-specific interrupt functions:
 386:Generated_Source\PSoC6\pdl\drivers\peripheral\scb/cy_scb_i2c.h **** *         \ref Cy_SCB_I2C_SlaveInterrupt and \ref Cy_SCB_I2C_MasterInterrupt.
 387:Generated_Source\PSoC6\pdl\drivers\peripheral\scb/cy_scb_i2c.h **** *     </td>
 388:Generated_Source\PSoC6\pdl\drivers\peripheral\scb/cy_scb_i2c.h **** *     <td>Improved the interrupt configuration options for the I2C slave and
 389:Generated_Source\PSoC6\pdl\drivers\peripheral\scb/cy_scb_i2c.h **** *         master mode configurations.</td>
 390:Generated_Source\PSoC6\pdl\drivers\peripheral\scb/cy_scb_i2c.h **** *   </tr>
 391:Generated_Source\PSoC6\pdl\drivers\peripheral\scb/cy_scb_i2c.h **** *   <tr>
 392:Generated_Source\PSoC6\pdl\drivers\peripheral\scb/cy_scb_i2c.h **** *     <td>Updated the Start condition generation sequence in the \ref 
 393:Generated_Source\PSoC6\pdl\drivers\peripheral\scb/cy_scb_i2c.h **** *         Cy_SCB_I2C_MasterWrite and \ref Cy_SCB_I2C_MasterRead.</td>
 394:Generated_Source\PSoC6\pdl\drivers\peripheral\scb/cy_scb_i2c.h **** *     <td></td>
 395:Generated_Source\PSoC6\pdl\drivers\peripheral\scb/cy_scb_i2c.h **** *   </tr>
 396:Generated_Source\PSoC6\pdl\drivers\peripheral\scb/cy_scb_i2c.h **** *   <tr>
 397:Generated_Source\PSoC6\pdl\drivers\peripheral\scb/cy_scb_i2c.h **** *     <td>Updated the ReStart condition generation sequence for a write
 398:Generated_Source\PSoC6\pdl\drivers\peripheral\scb/cy_scb_i2c.h **** *         transaction in the \ref Cy_SCB_I2C_MasterSendReStart function.</td>
 399:Generated_Source\PSoC6\pdl\drivers\peripheral\scb/cy_scb_i2c.h **** *     <td></td>
 400:Generated_Source\PSoC6\pdl\drivers\peripheral\scb/cy_scb_i2c.h **** *   </tr>
 401:Generated_Source\PSoC6\pdl\drivers\peripheral\scb/cy_scb_i2c.h **** *   <tr>
 402:Generated_Source\PSoC6\pdl\drivers\peripheral\scb/cy_scb_i2c.h **** *     <td rowspan="5"> 2.0</td>
 403:Generated_Source\PSoC6\pdl\drivers\peripheral\scb/cy_scb_i2c.h **** *     <td>Fixed the \ref Cy_SCB_I2C_MasterSendReStart function to properly 
 404:Generated_Source\PSoC6\pdl\drivers\peripheral\scb/cy_scb_i2c.h **** *         generate the ReStart condition when the previous transaction was 
 405:Generated_Source\PSoC6\pdl\drivers\peripheral\scb/cy_scb_i2c.h **** *         a write.</td>
 406:Generated_Source\PSoC6\pdl\drivers\peripheral\scb/cy_scb_i2c.h **** *     <td>The master interpreted the address byte written into the TX FIFO as a
 407:Generated_Source\PSoC6\pdl\drivers\peripheral\scb/cy_scb_i2c.h **** *         data byte and continued a write transaction. The ReStart condition was
 408:Generated_Source\PSoC6\pdl\drivers\peripheral\scb/cy_scb_i2c.h **** *         generated after the master completed transferring the data byte.
 409:Generated_Source\PSoC6\pdl\drivers\peripheral\scb/cy_scb_i2c.h **** *         The SCL line was stretched by the master waiting for the address byte
 410:Generated_Source\PSoC6\pdl\drivers\peripheral\scb/cy_scb_i2c.h **** *         to be written into the TX FIFO after the ReStart condition generation.
 411:Generated_Source\PSoC6\pdl\drivers\peripheral\scb/cy_scb_i2c.h **** *         The following timeout detection released the bus from the master
 412:Generated_Source\PSoC6\pdl\drivers\peripheral\scb/cy_scb_i2c.h **** *         control.</td>
 413:Generated_Source\PSoC6\pdl\drivers\peripheral\scb/cy_scb_i2c.h **** *   </tr>
 414:Generated_Source\PSoC6\pdl\drivers\peripheral\scb/cy_scb_i2c.h **** *   <tr>
 415:Generated_Source\PSoC6\pdl\drivers\peripheral\scb/cy_scb_i2c.h **** *     <td>Fixed the slave operation after the address byte was NACKed by the
 416:Generated_Source\PSoC6\pdl\drivers\peripheral\scb/cy_scb_i2c.h **** *         firmware.</td>
 417:Generated_Source\PSoC6\pdl\drivers\peripheral\scb/cy_scb_i2c.h **** *     <td>The observed slave operation failure depends on whether Level 2 assert
 418:Generated_Source\PSoC6\pdl\drivers\peripheral\scb/cy_scb_i2c.h **** *         is enabled or not. Enabled: the device stuck in the fault handler due
 419:Generated_Source\PSoC6\pdl\drivers\peripheral\scb/cy_scb_i2c.h **** *         to the assert assignment in the \ref Cy_SCB_I2C_Interrupt. Disabled: 
 420:Generated_Source\PSoC6\pdl\drivers\peripheral\scb/cy_scb_i2c.h **** *         the slave sets the transaction completion status and notifies on the 
 421:Generated_Source\PSoC6\pdl\drivers\peripheral\scb/cy_scb_i2c.h **** *         transaction completion event after the address was NACKed. The failure
 422:Generated_Source\PSoC6\pdl\drivers\peripheral\scb/cy_scb_i2c.h **** *         is observed only when the slave is configured to accept an address in 
 423:Generated_Source\PSoC6\pdl\drivers\peripheral\scb/cy_scb_i2c.h **** *         the RX FIFO.</td>
 424:Generated_Source\PSoC6\pdl\drivers\peripheral\scb/cy_scb_i2c.h **** *   </tr>
 425:Generated_Source\PSoC6\pdl\drivers\peripheral\scb/cy_scb_i2c.h **** *   <tr>
 426:Generated_Source\PSoC6\pdl\drivers\peripheral\scb/cy_scb_i2c.h **** *     <td>Added parameters validation for public API.</td>
 427:Generated_Source\PSoC6\pdl\drivers\peripheral\scb/cy_scb_i2c.h **** *     <td></td>
 428:Generated_Source\PSoC6\pdl\drivers\peripheral\scb/cy_scb_i2c.h **** *   </tr>
 429:Generated_Source\PSoC6\pdl\drivers\peripheral\scb/cy_scb_i2c.h **** *   <tr>
 430:Generated_Source\PSoC6\pdl\drivers\peripheral\scb/cy_scb_i2c.h **** *     <td>Replaced variables which have limited range of values with enumerated
 431:Generated_Source\PSoC6\pdl\drivers\peripheral\scb/cy_scb_i2c.h **** *         types.</td>
 432:Generated_Source\PSoC6\pdl\drivers\peripheral\scb/cy_scb_i2c.h **** *     <td></td>
 433:Generated_Source\PSoC6\pdl\drivers\peripheral\scb/cy_scb_i2c.h **** *   </tr>
 434:Generated_Source\PSoC6\pdl\drivers\peripheral\scb/cy_scb_i2c.h **** *   <tr>
ARM GAS  C:\Users\pearlstl\AppData\Local\Temp\ccSYOVYh.s 			page 23


 435:Generated_Source\PSoC6\pdl\drivers\peripheral\scb/cy_scb_i2c.h **** *     <td>Added missing "cy_cb_" to the callback function type names.</td>
 436:Generated_Source\PSoC6\pdl\drivers\peripheral\scb/cy_scb_i2c.h **** *     <td></td>
 437:Generated_Source\PSoC6\pdl\drivers\peripheral\scb/cy_scb_i2c.h **** *   </tr>
 438:Generated_Source\PSoC6\pdl\drivers\peripheral\scb/cy_scb_i2c.h **** *   <tr>
 439:Generated_Source\PSoC6\pdl\drivers\peripheral\scb/cy_scb_i2c.h **** *     <td>1.0</td>
 440:Generated_Source\PSoC6\pdl\drivers\peripheral\scb/cy_scb_i2c.h **** *     <td>Initial version.</td>
 441:Generated_Source\PSoC6\pdl\drivers\peripheral\scb/cy_scb_i2c.h **** *     <td></td>
 442:Generated_Source\PSoC6\pdl\drivers\peripheral\scb/cy_scb_i2c.h **** *   </tr>
 443:Generated_Source\PSoC6\pdl\drivers\peripheral\scb/cy_scb_i2c.h **** * </table>
 444:Generated_Source\PSoC6\pdl\drivers\peripheral\scb/cy_scb_i2c.h **** *
 445:Generated_Source\PSoC6\pdl\drivers\peripheral\scb/cy_scb_i2c.h **** * \defgroup group_scb_i2c_macros Macros
 446:Generated_Source\PSoC6\pdl\drivers\peripheral\scb/cy_scb_i2c.h **** * \defgroup group_scb_i2c_functions Functions
 447:Generated_Source\PSoC6\pdl\drivers\peripheral\scb/cy_scb_i2c.h **** * \{
 448:Generated_Source\PSoC6\pdl\drivers\peripheral\scb/cy_scb_i2c.h **** * \defgroup group_scb_i2c_general_functions General
 449:Generated_Source\PSoC6\pdl\drivers\peripheral\scb/cy_scb_i2c.h **** * \defgroup group_scb_i2c_slave_functions Slave
 450:Generated_Source\PSoC6\pdl\drivers\peripheral\scb/cy_scb_i2c.h **** * \defgroup group_scb_i2c_master_high_level_functions Master High-Level
 451:Generated_Source\PSoC6\pdl\drivers\peripheral\scb/cy_scb_i2c.h **** * \defgroup group_scb_i2c_master_low_level_functions Master Low-Level
 452:Generated_Source\PSoC6\pdl\drivers\peripheral\scb/cy_scb_i2c.h **** * \defgroup group_scb_i2c_interrupt_functions Interrupt
 453:Generated_Source\PSoC6\pdl\drivers\peripheral\scb/cy_scb_i2c.h **** * \defgroup group_scb_i2c_low_power_functions Low Power Callbacks
 454:Generated_Source\PSoC6\pdl\drivers\peripheral\scb/cy_scb_i2c.h **** * \}
 455:Generated_Source\PSoC6\pdl\drivers\peripheral\scb/cy_scb_i2c.h **** * \defgroup group_scb_i2c_data_structures Data Structures
 456:Generated_Source\PSoC6\pdl\drivers\peripheral\scb/cy_scb_i2c.h **** * \defgroup group_scb_i2c_enums Enumerated Types
 457:Generated_Source\PSoC6\pdl\drivers\peripheral\scb/cy_scb_i2c.h **** */
 458:Generated_Source\PSoC6\pdl\drivers\peripheral\scb/cy_scb_i2c.h **** 
 459:Generated_Source\PSoC6\pdl\drivers\peripheral\scb/cy_scb_i2c.h **** #if !defined(CY_SCB_I2C_H)
 460:Generated_Source\PSoC6\pdl\drivers\peripheral\scb/cy_scb_i2c.h **** #define CY_SCB_I2C_H
 461:Generated_Source\PSoC6\pdl\drivers\peripheral\scb/cy_scb_i2c.h **** 
 462:Generated_Source\PSoC6\pdl\drivers\peripheral\scb/cy_scb_i2c.h **** #include "cy_scb_common.h"
 463:Generated_Source\PSoC6\pdl\drivers\peripheral\scb/cy_scb_i2c.h **** 
 464:Generated_Source\PSoC6\pdl\drivers\peripheral\scb/cy_scb_i2c.h **** #if defined(__cplusplus)
 465:Generated_Source\PSoC6\pdl\drivers\peripheral\scb/cy_scb_i2c.h **** extern "C" {
 466:Generated_Source\PSoC6\pdl\drivers\peripheral\scb/cy_scb_i2c.h **** #endif
 467:Generated_Source\PSoC6\pdl\drivers\peripheral\scb/cy_scb_i2c.h **** 
 468:Generated_Source\PSoC6\pdl\drivers\peripheral\scb/cy_scb_i2c.h **** /*******************************************************************************
 469:Generated_Source\PSoC6\pdl\drivers\peripheral\scb/cy_scb_i2c.h **** *                            Enumerated Types
 470:Generated_Source\PSoC6\pdl\drivers\peripheral\scb/cy_scb_i2c.h **** *******************************************************************************/
 471:Generated_Source\PSoC6\pdl\drivers\peripheral\scb/cy_scb_i2c.h **** 
 472:Generated_Source\PSoC6\pdl\drivers\peripheral\scb/cy_scb_i2c.h **** /**
 473:Generated_Source\PSoC6\pdl\drivers\peripheral\scb/cy_scb_i2c.h **** * \addtogroup group_scb_i2c_enums
 474:Generated_Source\PSoC6\pdl\drivers\peripheral\scb/cy_scb_i2c.h **** * \{
 475:Generated_Source\PSoC6\pdl\drivers\peripheral\scb/cy_scb_i2c.h **** */
 476:Generated_Source\PSoC6\pdl\drivers\peripheral\scb/cy_scb_i2c.h **** 
 477:Generated_Source\PSoC6\pdl\drivers\peripheral\scb/cy_scb_i2c.h **** /** I2C status codes */
 478:Generated_Source\PSoC6\pdl\drivers\peripheral\scb/cy_scb_i2c.h **** typedef enum
 479:Generated_Source\PSoC6\pdl\drivers\peripheral\scb/cy_scb_i2c.h **** {
 480:Generated_Source\PSoC6\pdl\drivers\peripheral\scb/cy_scb_i2c.h ****     /** Operation completed successfully */
 481:Generated_Source\PSoC6\pdl\drivers\peripheral\scb/cy_scb_i2c.h ****     CY_SCB_I2C_SUCCESS = 0U,
 482:Generated_Source\PSoC6\pdl\drivers\peripheral\scb/cy_scb_i2c.h **** 
 483:Generated_Source\PSoC6\pdl\drivers\peripheral\scb/cy_scb_i2c.h ****     /** One or more of input parameters are invalid */
 484:Generated_Source\PSoC6\pdl\drivers\peripheral\scb/cy_scb_i2c.h ****     CY_SCB_I2C_BAD_PARAM = (CY_SCB_ID | CY_PDL_STATUS_ERROR | CY_SCB_I2C_ID | 1U),
 485:Generated_Source\PSoC6\pdl\drivers\peripheral\scb/cy_scb_i2c.h **** 
 486:Generated_Source\PSoC6\pdl\drivers\peripheral\scb/cy_scb_i2c.h ****     /**
 487:Generated_Source\PSoC6\pdl\drivers\peripheral\scb/cy_scb_i2c.h ****     * The master is not ready to start a new transaction.
 488:Generated_Source\PSoC6\pdl\drivers\peripheral\scb/cy_scb_i2c.h ****     * Either the master is still processing a previous transaction or in the
 489:Generated_Source\PSoC6\pdl\drivers\peripheral\scb/cy_scb_i2c.h ****     * master-slave mode, the slave operation is in progress.
 490:Generated_Source\PSoC6\pdl\drivers\peripheral\scb/cy_scb_i2c.h ****     */
 491:Generated_Source\PSoC6\pdl\drivers\peripheral\scb/cy_scb_i2c.h ****     CY_SCB_I2C_MASTER_NOT_READY = (CY_SCB_ID | CY_PDL_STATUS_ERROR | CY_SCB_I2C_ID | 2U),
ARM GAS  C:\Users\pearlstl\AppData\Local\Temp\ccSYOVYh.s 			page 24


 492:Generated_Source\PSoC6\pdl\drivers\peripheral\scb/cy_scb_i2c.h **** 
 493:Generated_Source\PSoC6\pdl\drivers\peripheral\scb/cy_scb_i2c.h ****     /**
 494:Generated_Source\PSoC6\pdl\drivers\peripheral\scb/cy_scb_i2c.h ****     * The master operation timed out before completing. Applicable only for
 495:Generated_Source\PSoC6\pdl\drivers\peripheral\scb/cy_scb_i2c.h ****     * the \ref group_scb_i2c_master_low_level_functions functions.
 496:Generated_Source\PSoC6\pdl\drivers\peripheral\scb/cy_scb_i2c.h ****     */
 497:Generated_Source\PSoC6\pdl\drivers\peripheral\scb/cy_scb_i2c.h ****     CY_SCB_I2C_MASTER_MANUAL_TIMEOUT = (CY_SCB_ID | CY_PDL_STATUS_ERROR | CY_SCB_I2C_ID | 3U),
 498:Generated_Source\PSoC6\pdl\drivers\peripheral\scb/cy_scb_i2c.h **** 
 499:Generated_Source\PSoC6\pdl\drivers\peripheral\scb/cy_scb_i2c.h ****     /** The slave NACKed the address. Applicable only for the
 500:Generated_Source\PSoC6\pdl\drivers\peripheral\scb/cy_scb_i2c.h ****     * \ref group_scb_i2c_master_low_level_functions functions.
 501:Generated_Source\PSoC6\pdl\drivers\peripheral\scb/cy_scb_i2c.h ****     */
 502:Generated_Source\PSoC6\pdl\drivers\peripheral\scb/cy_scb_i2c.h ****     CY_SCB_I2C_MASTER_MANUAL_ADDR_NAK = (CY_SCB_ID | CY_PDL_STATUS_ERROR | CY_SCB_I2C_ID | 4U),
 503:Generated_Source\PSoC6\pdl\drivers\peripheral\scb/cy_scb_i2c.h **** 
 504:Generated_Source\PSoC6\pdl\drivers\peripheral\scb/cy_scb_i2c.h ****     /** The slave NACKed the data byte.  Applicable only for the
 505:Generated_Source\PSoC6\pdl\drivers\peripheral\scb/cy_scb_i2c.h ****     * \ref group_scb_i2c_master_low_level_functions.
 506:Generated_Source\PSoC6\pdl\drivers\peripheral\scb/cy_scb_i2c.h ****     */
 507:Generated_Source\PSoC6\pdl\drivers\peripheral\scb/cy_scb_i2c.h ****     CY_SCB_I2C_MASTER_MANUAL_NAK = (CY_SCB_ID | CY_PDL_STATUS_ERROR | CY_SCB_I2C_ID | 5U),
 508:Generated_Source\PSoC6\pdl\drivers\peripheral\scb/cy_scb_i2c.h **** 
 509:Generated_Source\PSoC6\pdl\drivers\peripheral\scb/cy_scb_i2c.h ****     /**
 510:Generated_Source\PSoC6\pdl\drivers\peripheral\scb/cy_scb_i2c.h ****     * The master lost arbitration, the transaction was aborted. Applicable only
 511:Generated_Source\PSoC6\pdl\drivers\peripheral\scb/cy_scb_i2c.h ****     * for the \ref group_scb_i2c_master_low_level_functions functions.
 512:Generated_Source\PSoC6\pdl\drivers\peripheral\scb/cy_scb_i2c.h ****     */
 513:Generated_Source\PSoC6\pdl\drivers\peripheral\scb/cy_scb_i2c.h ****     CY_SCB_I2C_MASTER_MANUAL_ARB_LOST = (CY_SCB_ID | CY_PDL_STATUS_ERROR | CY_SCB_I2C_ID | 6U),
 514:Generated_Source\PSoC6\pdl\drivers\peripheral\scb/cy_scb_i2c.h **** 
 515:Generated_Source\PSoC6\pdl\drivers\peripheral\scb/cy_scb_i2c.h ****     /**
 516:Generated_Source\PSoC6\pdl\drivers\peripheral\scb/cy_scb_i2c.h ****     * The master detected an erroneous start or stop, the transaction was
 517:Generated_Source\PSoC6\pdl\drivers\peripheral\scb/cy_scb_i2c.h ****     * aborted. Applicable only for the
 518:Generated_Source\PSoC6\pdl\drivers\peripheral\scb/cy_scb_i2c.h ****     * \ref group_scb_i2c_master_low_level_functions functions.
 519:Generated_Source\PSoC6\pdl\drivers\peripheral\scb/cy_scb_i2c.h ****     */
 520:Generated_Source\PSoC6\pdl\drivers\peripheral\scb/cy_scb_i2c.h ****     CY_SCB_I2C_MASTER_MANUAL_BUS_ERR = (CY_SCB_ID | CY_PDL_STATUS_ERROR | CY_SCB_I2C_ID | 7U),
 521:Generated_Source\PSoC6\pdl\drivers\peripheral\scb/cy_scb_i2c.h **** 
 522:Generated_Source\PSoC6\pdl\drivers\peripheral\scb/cy_scb_i2c.h ****     /**
 523:Generated_Source\PSoC6\pdl\drivers\peripheral\scb/cy_scb_i2c.h ****     * The master transaction was aborted and the slave transaction is on-going
 524:Generated_Source\PSoC6\pdl\drivers\peripheral\scb/cy_scb_i2c.h ****     * because the slave was addressed before the master generated a start.
 525:Generated_Source\PSoC6\pdl\drivers\peripheral\scb/cy_scb_i2c.h ****     * Applicable only for the \ref group_scb_i2c_master_low_level_functions
 526:Generated_Source\PSoC6\pdl\drivers\peripheral\scb/cy_scb_i2c.h ****     * functions.
 527:Generated_Source\PSoC6\pdl\drivers\peripheral\scb/cy_scb_i2c.h ****     */
 528:Generated_Source\PSoC6\pdl\drivers\peripheral\scb/cy_scb_i2c.h ****     CY_SCB_I2C_MASTER_MANUAL_ABORT_START = (CY_SCB_ID | CY_PDL_STATUS_ERROR | CY_SCB_I2C_ID | 8U)
 529:Generated_Source\PSoC6\pdl\drivers\peripheral\scb/cy_scb_i2c.h **** } cy_en_scb_i2c_status_t;
 530:Generated_Source\PSoC6\pdl\drivers\peripheral\scb/cy_scb_i2c.h **** 
 531:Generated_Source\PSoC6\pdl\drivers\peripheral\scb/cy_scb_i2c.h **** /** I2C Operation Modes */
 532:Generated_Source\PSoC6\pdl\drivers\peripheral\scb/cy_scb_i2c.h **** typedef enum
 533:Generated_Source\PSoC6\pdl\drivers\peripheral\scb/cy_scb_i2c.h **** {
 534:Generated_Source\PSoC6\pdl\drivers\peripheral\scb/cy_scb_i2c.h ****     CY_SCB_I2C_SLAVE        = 1U,    /**< Configures SCB for I2C Slave operation */
 535:Generated_Source\PSoC6\pdl\drivers\peripheral\scb/cy_scb_i2c.h ****     CY_SCB_I2C_MASTER       = 2U,    /**< Configures SCB for I2C Master operation */
 536:Generated_Source\PSoC6\pdl\drivers\peripheral\scb/cy_scb_i2c.h ****     CY_SCB_I2C_MASTER_SLAVE = 3U,    /**< Configures SCB for I2C Master-Slave operation */
 537:Generated_Source\PSoC6\pdl\drivers\peripheral\scb/cy_scb_i2c.h **** } cy_en_scb_i2c_mode_t;
 538:Generated_Source\PSoC6\pdl\drivers\peripheral\scb/cy_scb_i2c.h **** 
 539:Generated_Source\PSoC6\pdl\drivers\peripheral\scb/cy_scb_i2c.h **** /** I2C Transaction Direction */
 540:Generated_Source\PSoC6\pdl\drivers\peripheral\scb/cy_scb_i2c.h **** typedef enum
 541:Generated_Source\PSoC6\pdl\drivers\peripheral\scb/cy_scb_i2c.h **** {
 542:Generated_Source\PSoC6\pdl\drivers\peripheral\scb/cy_scb_i2c.h ****     CY_SCB_I2C_WRITE_XFER = 0U,  /**< Current transaction is Write */
 543:Generated_Source\PSoC6\pdl\drivers\peripheral\scb/cy_scb_i2c.h ****     CY_SCB_I2C_READ_XFER  = 1U,  /**< Current transaction is Read */
 544:Generated_Source\PSoC6\pdl\drivers\peripheral\scb/cy_scb_i2c.h **** } cy_en_scb_i2c_direction_t;
 545:Generated_Source\PSoC6\pdl\drivers\peripheral\scb/cy_scb_i2c.h **** 
 546:Generated_Source\PSoC6\pdl\drivers\peripheral\scb/cy_scb_i2c.h **** /** I2C Command ACK / NAK */
 547:Generated_Source\PSoC6\pdl\drivers\peripheral\scb/cy_scb_i2c.h **** typedef enum
 548:Generated_Source\PSoC6\pdl\drivers\peripheral\scb/cy_scb_i2c.h **** {
ARM GAS  C:\Users\pearlstl\AppData\Local\Temp\ccSYOVYh.s 			page 25


 549:Generated_Source\PSoC6\pdl\drivers\peripheral\scb/cy_scb_i2c.h ****     CY_SCB_I2C_ACK,     /**< Send ACK to current byte */
 550:Generated_Source\PSoC6\pdl\drivers\peripheral\scb/cy_scb_i2c.h ****     CY_SCB_I2C_NAK,     /**< Send NAK to current byte */
 551:Generated_Source\PSoC6\pdl\drivers\peripheral\scb/cy_scb_i2c.h **** } cy_en_scb_i2c_command_t;
 552:Generated_Source\PSoC6\pdl\drivers\peripheral\scb/cy_scb_i2c.h **** /** \} group_scb_i2c_enums */
 553:Generated_Source\PSoC6\pdl\drivers\peripheral\scb/cy_scb_i2c.h **** 
 554:Generated_Source\PSoC6\pdl\drivers\peripheral\scb/cy_scb_i2c.h **** 
 555:Generated_Source\PSoC6\pdl\drivers\peripheral\scb/cy_scb_i2c.h **** /*******************************************************************************
 556:Generated_Source\PSoC6\pdl\drivers\peripheral\scb/cy_scb_i2c.h **** *                              Type Definitions
 557:Generated_Source\PSoC6\pdl\drivers\peripheral\scb/cy_scb_i2c.h **** *******************************************************************************/
 558:Generated_Source\PSoC6\pdl\drivers\peripheral\scb/cy_scb_i2c.h **** 
 559:Generated_Source\PSoC6\pdl\drivers\peripheral\scb/cy_scb_i2c.h **** /**
 560:Generated_Source\PSoC6\pdl\drivers\peripheral\scb/cy_scb_i2c.h **** * \addtogroup group_scb_i2c_data_structures
 561:Generated_Source\PSoC6\pdl\drivers\peripheral\scb/cy_scb_i2c.h **** * \{
 562:Generated_Source\PSoC6\pdl\drivers\peripheral\scb/cy_scb_i2c.h **** */
 563:Generated_Source\PSoC6\pdl\drivers\peripheral\scb/cy_scb_i2c.h **** 
 564:Generated_Source\PSoC6\pdl\drivers\peripheral\scb/cy_scb_i2c.h **** /**
 565:Generated_Source\PSoC6\pdl\drivers\peripheral\scb/cy_scb_i2c.h **** * Provides the typedef for the callback function called in the
 566:Generated_Source\PSoC6\pdl\drivers\peripheral\scb/cy_scb_i2c.h **** * \ref Cy_SCB_I2C_Interrupt to notify the user about occurrences of
 567:Generated_Source\PSoC6\pdl\drivers\peripheral\scb/cy_scb_i2c.h **** * \ref group_scb_i2c_macros_callback_events.
 568:Generated_Source\PSoC6\pdl\drivers\peripheral\scb/cy_scb_i2c.h **** */
 569:Generated_Source\PSoC6\pdl\drivers\peripheral\scb/cy_scb_i2c.h **** typedef void (* cy_cb_scb_i2c_handle_events_t)(uint32_t event);
 570:Generated_Source\PSoC6\pdl\drivers\peripheral\scb/cy_scb_i2c.h **** 
 571:Generated_Source\PSoC6\pdl\drivers\peripheral\scb/cy_scb_i2c.h **** /**
 572:Generated_Source\PSoC6\pdl\drivers\peripheral\scb/cy_scb_i2c.h **** * Provides the typedef for the callback function called in the
 573:Generated_Source\PSoC6\pdl\drivers\peripheral\scb/cy_scb_i2c.h **** * \ref Cy_SCB_I2C_Interrupt to notify the user about occurrences of
 574:Generated_Source\PSoC6\pdl\drivers\peripheral\scb/cy_scb_i2c.h **** * \ref group_scb_i2c_macros_addr_callback_events.
 575:Generated_Source\PSoC6\pdl\drivers\peripheral\scb/cy_scb_i2c.h **** * This callback must return a decision to ACK (continue transaction) or
 576:Generated_Source\PSoC6\pdl\drivers\peripheral\scb/cy_scb_i2c.h **** * NAK (end transaction) the received address.
 577:Generated_Source\PSoC6\pdl\drivers\peripheral\scb/cy_scb_i2c.h **** * Note if the slave is configured to accept an address in RX FIFO, it must read
 578:Generated_Source\PSoC6\pdl\drivers\peripheral\scb/cy_scb_i2c.h **** * from it using the \ref Cy_SCB_ReadRxFifo function.
 579:Generated_Source\PSoC6\pdl\drivers\peripheral\scb/cy_scb_i2c.h **** */
 580:Generated_Source\PSoC6\pdl\drivers\peripheral\scb/cy_scb_i2c.h **** typedef cy_en_scb_i2c_command_t (* cy_cb_scb_i2c_handle_addr_t)(uint32_t event);
 581:Generated_Source\PSoC6\pdl\drivers\peripheral\scb/cy_scb_i2c.h **** 
 582:Generated_Source\PSoC6\pdl\drivers\peripheral\scb/cy_scb_i2c.h **** /** I2C configuration structure */
 583:Generated_Source\PSoC6\pdl\drivers\peripheral\scb/cy_scb_i2c.h **** typedef struct cy_stc_scb_i2c_config
 584:Generated_Source\PSoC6\pdl\drivers\peripheral\scb/cy_scb_i2c.h **** {
 585:Generated_Source\PSoC6\pdl\drivers\peripheral\scb/cy_scb_i2c.h ****     /** Specifies the mode of operation */
 586:Generated_Source\PSoC6\pdl\drivers\peripheral\scb/cy_scb_i2c.h ****     cy_en_scb_i2c_mode_t i2cMode;
 587:Generated_Source\PSoC6\pdl\drivers\peripheral\scb/cy_scb_i2c.h **** 
 588:Generated_Source\PSoC6\pdl\drivers\peripheral\scb/cy_scb_i2c.h ****     /**
 589:Generated_Source\PSoC6\pdl\drivers\peripheral\scb/cy_scb_i2c.h ****     * The SCB provides an RX FIFO in hardware (consult the selected device
 590:Generated_Source\PSoC6\pdl\drivers\peripheral\scb/cy_scb_i2c.h ****     * datasheet to get the actual FIFO size). The useRxFifo field defines
 591:Generated_Source\PSoC6\pdl\drivers\peripheral\scb/cy_scb_i2c.h ****     * how the driver firmware reads data from the RX FIFO:
 592:Generated_Source\PSoC6\pdl\drivers\peripheral\scb/cy_scb_i2c.h ****     * * If this option is enabled, the hardware is configured to automatically
 593:Generated_Source\PSoC6\pdl\drivers\peripheral\scb/cy_scb_i2c.h ****     *   ACK incoming data, and interrupt is enabled to take data out of the RX
 594:Generated_Source\PSoC6\pdl\drivers\peripheral\scb/cy_scb_i2c.h ****     *   FIFO when it has some number of bytes (typically, when it is half full).
 595:Generated_Source\PSoC6\pdl\drivers\peripheral\scb/cy_scb_i2c.h ****     * * If this option is disabled, the interrupt is enabled to take data out of
 596:Generated_Source\PSoC6\pdl\drivers\peripheral\scb/cy_scb_i2c.h ****     *   the RX FIFO when a byte is available. Also, hardware does not
 597:Generated_Source\PSoC6\pdl\drivers\peripheral\scb/cy_scb_i2c.h ****     *   automatically ACK the data. Firmware must tell the hardware to ACK
 598:Generated_Source\PSoC6\pdl\drivers\peripheral\scb/cy_scb_i2c.h ****     *   the byte (so each byte requires interrupt processing).
 599:Generated_Source\PSoC6\pdl\drivers\peripheral\scb/cy_scb_i2c.h ****     * \n <b>Typically, this option should be enabled</b> to configure hardware to
 600:Generated_Source\PSoC6\pdl\drivers\peripheral\scb/cy_scb_i2c.h ****     * automatically ACK incoming data. Otherwise hardware might not get the command
 601:Generated_Source\PSoC6\pdl\drivers\peripheral\scb/cy_scb_i2c.h ****     * to ACK or NACK a byte fast enough, and clock stretching is applied
 602:Generated_Source\PSoC6\pdl\drivers\peripheral\scb/cy_scb_i2c.h ****     * (the transaction is delayed) until the command is set. When this option is
 603:Generated_Source\PSoC6\pdl\drivers\peripheral\scb/cy_scb_i2c.h ****     * enabled, the number of interrupts required to process the transaction
 604:Generated_Source\PSoC6\pdl\drivers\peripheral\scb/cy_scb_i2c.h ****     * is significantly reduced because several bytes are handled at once.
 605:Generated_Source\PSoC6\pdl\drivers\peripheral\scb/cy_scb_i2c.h ****     * \n <b>However, there is a side effect:</b>
ARM GAS  C:\Users\pearlstl\AppData\Local\Temp\ccSYOVYh.s 			page 26


 606:Generated_Source\PSoC6\pdl\drivers\peripheral\scb/cy_scb_i2c.h ****     * * For master mode, the drawback is that the master may receive more
 607:Generated_Source\PSoC6\pdl\drivers\peripheral\scb/cy_scb_i2c.h ****     *   data than desired due to the interrupt latency. An interrupt fires
 608:Generated_Source\PSoC6\pdl\drivers\peripheral\scb/cy_scb_i2c.h ****     *   when the second-to-last byte has been received. This interrupt tells
 609:Generated_Source\PSoC6\pdl\drivers\peripheral\scb/cy_scb_i2c.h ****     *   the hardware to stop receiving data. If the latency of this interrupt
 610:Generated_Source\PSoC6\pdl\drivers\peripheral\scb/cy_scb_i2c.h ****     *   is longer than one transaction of the byte on the I2C bus, then the
 611:Generated_Source\PSoC6\pdl\drivers\peripheral\scb/cy_scb_i2c.h ****     *   hardware automatically ACKs the following bytes until the interrupt
 612:Generated_Source\PSoC6\pdl\drivers\peripheral\scb/cy_scb_i2c.h ****     *   is serviced or the RX FIFO becomes full.
 613:Generated_Source\PSoC6\pdl\drivers\peripheral\scb/cy_scb_i2c.h ****     * * For slave mode, the drawback is that the slave only NACKs
 614:Generated_Source\PSoC6\pdl\drivers\peripheral\scb/cy_scb_i2c.h ****     *   the master when the RX FIFO becomes full, NOT when the slave write
 615:Generated_Source\PSoC6\pdl\drivers\peripheral\scb/cy_scb_i2c.h ****     *   firmware buffer becomes full.
 616:Generated_Source\PSoC6\pdl\drivers\peripheral\scb/cy_scb_i2c.h ****     * \n In either master or slave mode, all received extra bytes are dropped.
 617:Generated_Source\PSoC6\pdl\drivers\peripheral\scb/cy_scb_i2c.h ****     * \note The useRxFifo option is not available if acceptAddrInFifo is true.
 618:Generated_Source\PSoC6\pdl\drivers\peripheral\scb/cy_scb_i2c.h ****     */
 619:Generated_Source\PSoC6\pdl\drivers\peripheral\scb/cy_scb_i2c.h ****     bool useRxFifo;
 620:Generated_Source\PSoC6\pdl\drivers\peripheral\scb/cy_scb_i2c.h **** 
 621:Generated_Source\PSoC6\pdl\drivers\peripheral\scb/cy_scb_i2c.h ****     /**
 622:Generated_Source\PSoC6\pdl\drivers\peripheral\scb/cy_scb_i2c.h ****     * The SCB provides a TX FIFO in hardware (consult the selected device
 623:Generated_Source\PSoC6\pdl\drivers\peripheral\scb/cy_scb_i2c.h ****     * datasheet to get the actual FIFO size). The useTxFifo option defines how the
 624:Generated_Source\PSoC6\pdl\drivers\peripheral\scb/cy_scb_i2c.h ****     * driver firmware loads data into the TX FIFO:
 625:Generated_Source\PSoC6\pdl\drivers\peripheral\scb/cy_scb_i2c.h ****     * * If this option is enabled, the TX FIFO is fully loaded with data and the
 626:Generated_Source\PSoC6\pdl\drivers\peripheral\scb/cy_scb_i2c.h ****     *   interrupt is enabled to keep the TX FIFO loaded until the end of the transaction.
 627:Generated_Source\PSoC6\pdl\drivers\peripheral\scb/cy_scb_i2c.h ****     * * If this option is disabled, a single byte is loaded into the TX FIFO and
 628:Generated_Source\PSoC6\pdl\drivers\peripheral\scb/cy_scb_i2c.h ****     *   the interrupt enabled to load the next byte when the TX FIFO becomes empty
 629:Generated_Source\PSoC6\pdl\drivers\peripheral\scb/cy_scb_i2c.h ****     *   (so each byte requires interrupt processing).
 630:Generated_Source\PSoC6\pdl\drivers\peripheral\scb/cy_scb_i2c.h ****     * \n <b>Typically, this option should be enabled</b> to keep the TX FIFO loaded with
 631:Generated_Source\PSoC6\pdl\drivers\peripheral\scb/cy_scb_i2c.h ****     * data and reduce the probability of clock stretching. When there is no data
 632:Generated_Source\PSoC6\pdl\drivers\peripheral\scb/cy_scb_i2c.h ****     * to transfer, clock stretching is applied (the transaction is delayed) until
 633:Generated_Source\PSoC6\pdl\drivers\peripheral\scb/cy_scb_i2c.h ****     * the data is loaded. When this option is enabled, the number of interrupts required
 634:Generated_Source\PSoC6\pdl\drivers\peripheral\scb/cy_scb_i2c.h ****     * to process the transaction is significantly reduced because several
 635:Generated_Source\PSoC6\pdl\drivers\peripheral\scb/cy_scb_i2c.h ****     * bytes are handled at once.
 636:Generated_Source\PSoC6\pdl\drivers\peripheral\scb/cy_scb_i2c.h ****     * \n <b>The drawback of enabling useTxFifo</b> is that the abort operation clears
 637:Generated_Source\PSoC6\pdl\drivers\peripheral\scb/cy_scb_i2c.h ****     * the TX FIFO. The TX FIFO clear operation also clears the shift
 638:Generated_Source\PSoC6\pdl\drivers\peripheral\scb/cy_scb_i2c.h ****     * register. As a result the shifter may be cleared in the middle of a byte
 639:Generated_Source\PSoC6\pdl\drivers\peripheral\scb/cy_scb_i2c.h ****     * transaction, corrupting it. The remaining bits to transaction within the
 640:Generated_Source\PSoC6\pdl\drivers\peripheral\scb/cy_scb_i2c.h ****     * corrupted byte are complemented with 1s. If this is an issue,
 641:Generated_Source\PSoC6\pdl\drivers\peripheral\scb/cy_scb_i2c.h ****     * then do not enable this option.
 642:Generated_Source\PSoC6\pdl\drivers\peripheral\scb/cy_scb_i2c.h ****     */
 643:Generated_Source\PSoC6\pdl\drivers\peripheral\scb/cy_scb_i2c.h ****     bool useTxFifo;
 644:Generated_Source\PSoC6\pdl\drivers\peripheral\scb/cy_scb_i2c.h **** 
 645:Generated_Source\PSoC6\pdl\drivers\peripheral\scb/cy_scb_i2c.h ****     /**
 646:Generated_Source\PSoC6\pdl\drivers\peripheral\scb/cy_scb_i2c.h ****     * The 7-bit right justified slave address, used only for the slave mode
 647:Generated_Source\PSoC6\pdl\drivers\peripheral\scb/cy_scb_i2c.h ****     */
 648:Generated_Source\PSoC6\pdl\drivers\peripheral\scb/cy_scb_i2c.h ****     uint8_t slaveAddress;
 649:Generated_Source\PSoC6\pdl\drivers\peripheral\scb/cy_scb_i2c.h **** 
 650:Generated_Source\PSoC6\pdl\drivers\peripheral\scb/cy_scb_i2c.h ****     /**
 651:Generated_Source\PSoC6\pdl\drivers\peripheral\scb/cy_scb_i2c.h ****     * The slave address mask is used to mask bits of the slave address during 
 652:Generated_Source\PSoC6\pdl\drivers\peripheral\scb/cy_scb_i2c.h ****     * the address match procedure (it is used only for the slave mode). 
 653:Generated_Source\PSoC6\pdl\drivers\peripheral\scb/cy_scb_i2c.h ****     * Bit 0 of the address mask corresponds to the 
 654:Generated_Source\PSoC6\pdl\drivers\peripheral\scb/cy_scb_i2c.h ****     * read/write direction bit and is always a do not care in the address match 
 655:Generated_Source\PSoC6\pdl\drivers\peripheral\scb/cy_scb_i2c.h ****     * therefore must be set 0. Bit value 0 - excludes bit from address 
 656:Generated_Source\PSoC6\pdl\drivers\peripheral\scb/cy_scb_i2c.h ****     * comparison. Bit value 1 - the bit needs to match with the corresponding 
 657:Generated_Source\PSoC6\pdl\drivers\peripheral\scb/cy_scb_i2c.h ****     * bit of the I2C slave address.
 658:Generated_Source\PSoC6\pdl\drivers\peripheral\scb/cy_scb_i2c.h ****     */
 659:Generated_Source\PSoC6\pdl\drivers\peripheral\scb/cy_scb_i2c.h ****     uint8_t slaveAddressMask;
 660:Generated_Source\PSoC6\pdl\drivers\peripheral\scb/cy_scb_i2c.h **** 
 661:Generated_Source\PSoC6\pdl\drivers\peripheral\scb/cy_scb_i2c.h ****     /**
 662:Generated_Source\PSoC6\pdl\drivers\peripheral\scb/cy_scb_i2c.h ****     * True - the slave address is accepted in the RX FIFO, false - the slave
ARM GAS  C:\Users\pearlstl\AppData\Local\Temp\ccSYOVYh.s 			page 27


 663:Generated_Source\PSoC6\pdl\drivers\peripheral\scb/cy_scb_i2c.h ****     * addresses are not accepted in the RX FIFO
 664:Generated_Source\PSoC6\pdl\drivers\peripheral\scb/cy_scb_i2c.h ****     */
 665:Generated_Source\PSoC6\pdl\drivers\peripheral\scb/cy_scb_i2c.h ****     bool acceptAddrInFifo;
 666:Generated_Source\PSoC6\pdl\drivers\peripheral\scb/cy_scb_i2c.h **** 
 667:Generated_Source\PSoC6\pdl\drivers\peripheral\scb/cy_scb_i2c.h ****     /**
 668:Generated_Source\PSoC6\pdl\drivers\peripheral\scb/cy_scb_i2c.h ****     * True - accept the general call address; false - ignore the general
 669:Generated_Source\PSoC6\pdl\drivers\peripheral\scb/cy_scb_i2c.h ****     * call address.
 670:Generated_Source\PSoC6\pdl\drivers\peripheral\scb/cy_scb_i2c.h ****     */
 671:Generated_Source\PSoC6\pdl\drivers\peripheral\scb/cy_scb_i2c.h ****     bool ackGeneralAddr;
 672:Generated_Source\PSoC6\pdl\drivers\peripheral\scb/cy_scb_i2c.h **** 
 673:Generated_Source\PSoC6\pdl\drivers\peripheral\scb/cy_scb_i2c.h ****     /**
 674:Generated_Source\PSoC6\pdl\drivers\peripheral\scb/cy_scb_i2c.h ****     * When set, the slave will wake the device from Deep Sleep on an address
 675:Generated_Source\PSoC6\pdl\drivers\peripheral\scb/cy_scb_i2c.h ****     * match (the device datasheet must be consulted to determine which SCBs
 676:Generated_Source\PSoC6\pdl\drivers\peripheral\scb/cy_scb_i2c.h ****     * support this mode)
 677:Generated_Source\PSoC6\pdl\drivers\peripheral\scb/cy_scb_i2c.h ****     */
 678:Generated_Source\PSoC6\pdl\drivers\peripheral\scb/cy_scb_i2c.h ****     bool enableWakeFromSleep;
 679:Generated_Source\PSoC6\pdl\drivers\peripheral\scb/cy_scb_i2c.h **** 
 680:Generated_Source\PSoC6\pdl\drivers\peripheral\scb/cy_scb_i2c.h ****     /**
 681:Generated_Source\PSoC6\pdl\drivers\peripheral\scb/cy_scb_i2c.h ****     * Enables a digital 3-tap median filter to be applied to the inputs
 682:Generated_Source\PSoC6\pdl\drivers\peripheral\scb/cy_scb_i2c.h ****     * of filter glitches on the lines.
 683:Generated_Source\PSoC6\pdl\drivers\peripheral\scb/cy_scb_i2c.h ****     */
 684:Generated_Source\PSoC6\pdl\drivers\peripheral\scb/cy_scb_i2c.h ****     bool enableDigitalFilter;
 685:Generated_Source\PSoC6\pdl\drivers\peripheral\scb/cy_scb_i2c.h **** 
 686:Generated_Source\PSoC6\pdl\drivers\peripheral\scb/cy_scb_i2c.h ****     /**
 687:Generated_Source\PSoC6\pdl\drivers\peripheral\scb/cy_scb_i2c.h ****     * The number of SCB clock cycles in the low phase of SCL. Only applicable 
 688:Generated_Source\PSoC6\pdl\drivers\peripheral\scb/cy_scb_i2c.h ****     * in master modes. The valid range is 7 to 16.
 689:Generated_Source\PSoC6\pdl\drivers\peripheral\scb/cy_scb_i2c.h ****     */
 690:Generated_Source\PSoC6\pdl\drivers\peripheral\scb/cy_scb_i2c.h ****     uint32_t lowPhaseDutyCycle;
 691:Generated_Source\PSoC6\pdl\drivers\peripheral\scb/cy_scb_i2c.h **** 
 692:Generated_Source\PSoC6\pdl\drivers\peripheral\scb/cy_scb_i2c.h ****     /**
 693:Generated_Source\PSoC6\pdl\drivers\peripheral\scb/cy_scb_i2c.h ****     * The number of SCB clock cycles in the high phase of SCL. Only applicable 
 694:Generated_Source\PSoC6\pdl\drivers\peripheral\scb/cy_scb_i2c.h ****     * in master modes. The valid range is 5 to 16.
 695:Generated_Source\PSoC6\pdl\drivers\peripheral\scb/cy_scb_i2c.h ****     */
 696:Generated_Source\PSoC6\pdl\drivers\peripheral\scb/cy_scb_i2c.h ****     uint32_t highPhaseDutyCycle;
 697:Generated_Source\PSoC6\pdl\drivers\peripheral\scb/cy_scb_i2c.h **** 
 698:Generated_Source\PSoC6\pdl\drivers\peripheral\scb/cy_scb_i2c.h **** } cy_stc_scb_i2c_config_t;
 699:Generated_Source\PSoC6\pdl\drivers\peripheral\scb/cy_scb_i2c.h **** 
 700:Generated_Source\PSoC6\pdl\drivers\peripheral\scb/cy_scb_i2c.h **** /** I2C context structure.
 701:Generated_Source\PSoC6\pdl\drivers\peripheral\scb/cy_scb_i2c.h **** * All fields for the context structure are internal. Firmware never reads or
 702:Generated_Source\PSoC6\pdl\drivers\peripheral\scb/cy_scb_i2c.h **** * writes these values. Firmware allocates the structure and provides the
 703:Generated_Source\PSoC6\pdl\drivers\peripheral\scb/cy_scb_i2c.h **** * address of the structure to the driver in function calls. Firmware must
 704:Generated_Source\PSoC6\pdl\drivers\peripheral\scb/cy_scb_i2c.h **** * ensure that the defined instance of this structure remains in scope
 705:Generated_Source\PSoC6\pdl\drivers\peripheral\scb/cy_scb_i2c.h **** * while the drive is in use.
 706:Generated_Source\PSoC6\pdl\drivers\peripheral\scb/cy_scb_i2c.h **** */
 707:Generated_Source\PSoC6\pdl\drivers\peripheral\scb/cy_scb_i2c.h **** typedef struct cy_stc_scb_i2c_context
 708:Generated_Source\PSoC6\pdl\drivers\peripheral\scb/cy_scb_i2c.h **** {
 709:Generated_Source\PSoC6\pdl\drivers\peripheral\scb/cy_scb_i2c.h ****     /** \cond INTERNAL */
 710:Generated_Source\PSoC6\pdl\drivers\peripheral\scb/cy_scb_i2c.h ****     bool useRxFifo;             /**< Stores RX FIFO configuration */
 711:Generated_Source\PSoC6\pdl\drivers\peripheral\scb/cy_scb_i2c.h ****     bool useTxFifo;             /**< Stores TX FIFO configuration */
 712:Generated_Source\PSoC6\pdl\drivers\peripheral\scb/cy_scb_i2c.h **** 
 713:Generated_Source\PSoC6\pdl\drivers\peripheral\scb/cy_scb_i2c.h ****     volatile uint32_t state;    /**< The driver state */
 714:Generated_Source\PSoC6\pdl\drivers\peripheral\scb/cy_scb_i2c.h **** 
 715:Generated_Source\PSoC6\pdl\drivers\peripheral\scb/cy_scb_i2c.h ****     volatile uint32_t masterStatus; /**< The master status */
 716:Generated_Source\PSoC6\pdl\drivers\peripheral\scb/cy_scb_i2c.h ****     bool     masterPause;           /**< Stores how the master ends the transaction */
 717:Generated_Source\PSoC6\pdl\drivers\peripheral\scb/cy_scb_i2c.h ****     bool     masterRdDir;           /**< The direction of the master transaction */
 718:Generated_Source\PSoC6\pdl\drivers\peripheral\scb/cy_scb_i2c.h **** 
 719:Generated_Source\PSoC6\pdl\drivers\peripheral\scb/cy_scb_i2c.h ****     uint8_t  *masterBuffer;     /**< The pointer to the master buffer (either for a transmit or a r
ARM GAS  C:\Users\pearlstl\AppData\Local\Temp\ccSYOVYh.s 			page 28


 720:Generated_Source\PSoC6\pdl\drivers\peripheral\scb/cy_scb_i2c.h ****     uint32_t  masterBufferSize;         /**< The current master buffer size */
 721:Generated_Source\PSoC6\pdl\drivers\peripheral\scb/cy_scb_i2c.h ****     volatile uint32_t masterBufferIdx;  /**< The current location in the master buffer */
 722:Generated_Source\PSoC6\pdl\drivers\peripheral\scb/cy_scb_i2c.h ****     volatile uint32_t masterNumBytes;   /**< The number of bytes to send or receive */
 723:Generated_Source\PSoC6\pdl\drivers\peripheral\scb/cy_scb_i2c.h **** 
 724:Generated_Source\PSoC6\pdl\drivers\peripheral\scb/cy_scb_i2c.h ****     volatile uint32_t slaveStatus;       /**< The slave status */
 725:Generated_Source\PSoC6\pdl\drivers\peripheral\scb/cy_scb_i2c.h ****     volatile bool     slaveRdBufEmpty;   /**< Tracks slave Read buffer empty event */
 726:Generated_Source\PSoC6\pdl\drivers\peripheral\scb/cy_scb_i2c.h **** 
 727:Generated_Source\PSoC6\pdl\drivers\peripheral\scb/cy_scb_i2c.h ****     uint8_t  *slaveTxBuffer;             /**< The pointer to the slave transmit buffer (a master re
 728:Generated_Source\PSoC6\pdl\drivers\peripheral\scb/cy_scb_i2c.h ****     uint32_t  slaveTxBufferSize;         /**< The current slave transmit buffer size */
 729:Generated_Source\PSoC6\pdl\drivers\peripheral\scb/cy_scb_i2c.h ****     volatile uint32_t slaveTxBufferIdx;  /**< The current location in the slave buffer */
 730:Generated_Source\PSoC6\pdl\drivers\peripheral\scb/cy_scb_i2c.h ****     volatile uint32_t slaveTxBufferCnt;  /**< The number of transferred bytes */
 731:Generated_Source\PSoC6\pdl\drivers\peripheral\scb/cy_scb_i2c.h **** 
 732:Generated_Source\PSoC6\pdl\drivers\peripheral\scb/cy_scb_i2c.h ****     uint8_t  *slaveRxBuffer;             /**< The pointer to the slave receive buffer (a master wri
 733:Generated_Source\PSoC6\pdl\drivers\peripheral\scb/cy_scb_i2c.h ****     uint32_t  slaveRxBufferSize;         /**< The current slave receive buffer size */
 734:Generated_Source\PSoC6\pdl\drivers\peripheral\scb/cy_scb_i2c.h ****     volatile uint32_t slaveRxBufferIdx;  /**< The current location in the slave buffer */
 735:Generated_Source\PSoC6\pdl\drivers\peripheral\scb/cy_scb_i2c.h **** 
 736:Generated_Source\PSoC6\pdl\drivers\peripheral\scb/cy_scb_i2c.h ****     /**
 737:Generated_Source\PSoC6\pdl\drivers\peripheral\scb/cy_scb_i2c.h ****     * The pointer to an event callback that is called when any of
 738:Generated_Source\PSoC6\pdl\drivers\peripheral\scb/cy_scb_i2c.h ****     * \ref group_scb_i2c_macros_callback_events occurs
 739:Generated_Source\PSoC6\pdl\drivers\peripheral\scb/cy_scb_i2c.h ****     */
 740:Generated_Source\PSoC6\pdl\drivers\peripheral\scb/cy_scb_i2c.h ****     cy_cb_scb_i2c_handle_events_t cbEvents;
 741:Generated_Source\PSoC6\pdl\drivers\peripheral\scb/cy_scb_i2c.h **** 
 742:Generated_Source\PSoC6\pdl\drivers\peripheral\scb/cy_scb_i2c.h ****     /**
 743:Generated_Source\PSoC6\pdl\drivers\peripheral\scb/cy_scb_i2c.h ****     * The pointer to an address callback that is called when any of
 744:Generated_Source\PSoC6\pdl\drivers\peripheral\scb/cy_scb_i2c.h ****     * \ref group_scb_i2c_macros_addr_callback_events occurs (applicable only
 745:Generated_Source\PSoC6\pdl\drivers\peripheral\scb/cy_scb_i2c.h ****     * for the slave)
 746:Generated_Source\PSoC6\pdl\drivers\peripheral\scb/cy_scb_i2c.h ****     */
 747:Generated_Source\PSoC6\pdl\drivers\peripheral\scb/cy_scb_i2c.h ****     cy_cb_scb_i2c_handle_addr_t   cbAddr;
 748:Generated_Source\PSoC6\pdl\drivers\peripheral\scb/cy_scb_i2c.h **** 
 749:Generated_Source\PSoC6\pdl\drivers\peripheral\scb/cy_scb_i2c.h ****     /** \endcond */
 750:Generated_Source\PSoC6\pdl\drivers\peripheral\scb/cy_scb_i2c.h **** } cy_stc_scb_i2c_context_t;
 751:Generated_Source\PSoC6\pdl\drivers\peripheral\scb/cy_scb_i2c.h **** 
 752:Generated_Source\PSoC6\pdl\drivers\peripheral\scb/cy_scb_i2c.h **** /** The I2C Master transfer structure */
 753:Generated_Source\PSoC6\pdl\drivers\peripheral\scb/cy_scb_i2c.h **** typedef struct cy_stc_scb_i2c_master_xfer_config
 754:Generated_Source\PSoC6\pdl\drivers\peripheral\scb/cy_scb_i2c.h **** {
 755:Generated_Source\PSoC6\pdl\drivers\peripheral\scb/cy_scb_i2c.h ****     /** The 7-bit right justified slave address to communicate with */
 756:Generated_Source\PSoC6\pdl\drivers\peripheral\scb/cy_scb_i2c.h ****     uint8_t  slaveAddress;
 757:Generated_Source\PSoC6\pdl\drivers\peripheral\scb/cy_scb_i2c.h **** 
 758:Generated_Source\PSoC6\pdl\drivers\peripheral\scb/cy_scb_i2c.h ****     /**
 759:Generated_Source\PSoC6\pdl\drivers\peripheral\scb/cy_scb_i2c.h ****     * The pointer to the buffer for data to read from the slave or 
 760:Generated_Source\PSoC6\pdl\drivers\peripheral\scb/cy_scb_i2c.h ****     * data to write into the slave
 761:Generated_Source\PSoC6\pdl\drivers\peripheral\scb/cy_scb_i2c.h ****     */
 762:Generated_Source\PSoC6\pdl\drivers\peripheral\scb/cy_scb_i2c.h ****     uint8_t  *buffer;
 763:Generated_Source\PSoC6\pdl\drivers\peripheral\scb/cy_scb_i2c.h **** 
 764:Generated_Source\PSoC6\pdl\drivers\peripheral\scb/cy_scb_i2c.h ****     /** The size of the buffer */
 765:Generated_Source\PSoC6\pdl\drivers\peripheral\scb/cy_scb_i2c.h ****     uint32_t bufferSize;
 766:Generated_Source\PSoC6\pdl\drivers\peripheral\scb/cy_scb_i2c.h **** 
 767:Generated_Source\PSoC6\pdl\drivers\peripheral\scb/cy_scb_i2c.h ****     /**
 768:Generated_Source\PSoC6\pdl\drivers\peripheral\scb/cy_scb_i2c.h ****     * The transfer operation is pending - the stop condition will not
 769:Generated_Source\PSoC6\pdl\drivers\peripheral\scb/cy_scb_i2c.h ****     * be generated. 
 770:Generated_Source\PSoC6\pdl\drivers\peripheral\scb/cy_scb_i2c.h ****     * A new transfer starts from start condition and ends 
 771:Generated_Source\PSoC6\pdl\drivers\peripheral\scb/cy_scb_i2c.h ****     * with or without stop condition. The stop condition releases I2C 
 772:Generated_Source\PSoC6\pdl\drivers\peripheral\scb/cy_scb_i2c.h ****     * bus from master control. When stop is not generated master keeps 
 773:Generated_Source\PSoC6\pdl\drivers\peripheral\scb/cy_scb_i2c.h ****     * bus control (transfer is pending) and can issue the next transfer 
 774:Generated_Source\PSoC6\pdl\drivers\peripheral\scb/cy_scb_i2c.h ****     * using restart condition instead of start. The I2C driver 
 775:Generated_Source\PSoC6\pdl\drivers\peripheral\scb/cy_scb_i2c.h ****     * automatically generates start or restart condition depends on 
 776:Generated_Source\PSoC6\pdl\drivers\peripheral\scb/cy_scb_i2c.h ****     * current state.
ARM GAS  C:\Users\pearlstl\AppData\Local\Temp\ccSYOVYh.s 			page 29


 777:Generated_Source\PSoC6\pdl\drivers\peripheral\scb/cy_scb_i2c.h ****     * Note if master lost arbitration during transfer it stops control 
 778:Generated_Source\PSoC6\pdl\drivers\peripheral\scb/cy_scb_i2c.h ****     * the bus and does not send/receive data or generate stop condition - the 
 779:Generated_Source\PSoC6\pdl\drivers\peripheral\scb/cy_scb_i2c.h ****     * transfer ends.
 780:Generated_Source\PSoC6\pdl\drivers\peripheral\scb/cy_scb_i2c.h ****     */
 781:Generated_Source\PSoC6\pdl\drivers\peripheral\scb/cy_scb_i2c.h ****     bool     xferPending;
 782:Generated_Source\PSoC6\pdl\drivers\peripheral\scb/cy_scb_i2c.h **** } cy_stc_scb_i2c_master_xfer_config_t;
 783:Generated_Source\PSoC6\pdl\drivers\peripheral\scb/cy_scb_i2c.h **** /** \} group_scb_i2c_data_structures */
 784:Generated_Source\PSoC6\pdl\drivers\peripheral\scb/cy_scb_i2c.h **** 
 785:Generated_Source\PSoC6\pdl\drivers\peripheral\scb/cy_scb_i2c.h **** 
 786:Generated_Source\PSoC6\pdl\drivers\peripheral\scb/cy_scb_i2c.h **** /*******************************************************************************
 787:Generated_Source\PSoC6\pdl\drivers\peripheral\scb/cy_scb_i2c.h **** *                            Function Prototypes
 788:Generated_Source\PSoC6\pdl\drivers\peripheral\scb/cy_scb_i2c.h **** *******************************************************************************/
 789:Generated_Source\PSoC6\pdl\drivers\peripheral\scb/cy_scb_i2c.h **** 
 790:Generated_Source\PSoC6\pdl\drivers\peripheral\scb/cy_scb_i2c.h **** /**
 791:Generated_Source\PSoC6\pdl\drivers\peripheral\scb/cy_scb_i2c.h **** * \addtogroup group_scb_i2c_general_functions
 792:Generated_Source\PSoC6\pdl\drivers\peripheral\scb/cy_scb_i2c.h **** * \{
 793:Generated_Source\PSoC6\pdl\drivers\peripheral\scb/cy_scb_i2c.h **** */
 794:Generated_Source\PSoC6\pdl\drivers\peripheral\scb/cy_scb_i2c.h **** cy_en_scb_i2c_status_t Cy_SCB_I2C_Init(CySCB_Type *base, cy_stc_scb_i2c_config_t const *config,
 795:Generated_Source\PSoC6\pdl\drivers\peripheral\scb/cy_scb_i2c.h ****                                        cy_stc_scb_i2c_context_t *context);
 796:Generated_Source\PSoC6\pdl\drivers\peripheral\scb/cy_scb_i2c.h **** void Cy_SCB_I2C_DeInit(CySCB_Type *base);
 797:Generated_Source\PSoC6\pdl\drivers\peripheral\scb/cy_scb_i2c.h **** __STATIC_INLINE void Cy_SCB_I2C_Enable(CySCB_Type *base);
 798:Generated_Source\PSoC6\pdl\drivers\peripheral\scb/cy_scb_i2c.h **** void Cy_SCB_I2C_Disable(CySCB_Type *base, cy_stc_scb_i2c_context_t *context);
 799:Generated_Source\PSoC6\pdl\drivers\peripheral\scb/cy_scb_i2c.h **** 
 800:Generated_Source\PSoC6\pdl\drivers\peripheral\scb/cy_scb_i2c.h **** uint32_t Cy_SCB_I2C_SetDataRate(CySCB_Type *base, uint32_t dataRateHz, uint32_t scbClockHz);
 801:Generated_Source\PSoC6\pdl\drivers\peripheral\scb/cy_scb_i2c.h **** uint32_t Cy_SCB_I2C_GetDataRate(CySCB_Type const *base, uint32_t scbClockHz);
 802:Generated_Source\PSoC6\pdl\drivers\peripheral\scb/cy_scb_i2c.h **** 
 803:Generated_Source\PSoC6\pdl\drivers\peripheral\scb/cy_scb_i2c.h **** __STATIC_INLINE void     Cy_SCB_I2C_SlaveSetAddress(CySCB_Type *base, uint8_t addr);
 804:Generated_Source\PSoC6\pdl\drivers\peripheral\scb/cy_scb_i2c.h **** __STATIC_INLINE uint32_t Cy_SCB_I2C_SlaveGetAddress(CySCB_Type const *base);
 805:Generated_Source\PSoC6\pdl\drivers\peripheral\scb/cy_scb_i2c.h **** __STATIC_INLINE void     Cy_SCB_I2C_SlaveSetAddressMask(CySCB_Type *base, uint8_t addrMask);
 806:Generated_Source\PSoC6\pdl\drivers\peripheral\scb/cy_scb_i2c.h **** __STATIC_INLINE uint32_t Cy_SCB_I2C_SlaveGetAddressMask(CySCB_Type const *base);
 807:Generated_Source\PSoC6\pdl\drivers\peripheral\scb/cy_scb_i2c.h **** 
 808:Generated_Source\PSoC6\pdl\drivers\peripheral\scb/cy_scb_i2c.h **** __STATIC_INLINE bool Cy_SCB_I2C_IsBusBusy(CySCB_Type const *base);
 809:Generated_Source\PSoC6\pdl\drivers\peripheral\scb/cy_scb_i2c.h **** 
 810:Generated_Source\PSoC6\pdl\drivers\peripheral\scb/cy_scb_i2c.h **** __STATIC_INLINE void Cy_SCB_I2C_MasterSetLowPhaseDutyCycle (CySCB_Type *base, uint32_t clockCycles)
 811:Generated_Source\PSoC6\pdl\drivers\peripheral\scb/cy_scb_i2c.h **** __STATIC_INLINE void Cy_SCB_I2C_MasterSetHighPhaseDutyCycle(CySCB_Type *base, uint32_t clockCycles)
 812:Generated_Source\PSoC6\pdl\drivers\peripheral\scb/cy_scb_i2c.h **** /** \} group_scb_i2c_general_functions */
 813:Generated_Source\PSoC6\pdl\drivers\peripheral\scb/cy_scb_i2c.h **** 
 814:Generated_Source\PSoC6\pdl\drivers\peripheral\scb/cy_scb_i2c.h **** /**
 815:Generated_Source\PSoC6\pdl\drivers\peripheral\scb/cy_scb_i2c.h **** * \addtogroup group_scb_i2c_slave_functions
 816:Generated_Source\PSoC6\pdl\drivers\peripheral\scb/cy_scb_i2c.h **** * \{
 817:Generated_Source\PSoC6\pdl\drivers\peripheral\scb/cy_scb_i2c.h **** */
 818:Generated_Source\PSoC6\pdl\drivers\peripheral\scb/cy_scb_i2c.h **** void Cy_SCB_I2C_SlaveConfigReadBuf (CySCB_Type const *base, uint8_t *buffer, uint32_t size,
 819:Generated_Source\PSoC6\pdl\drivers\peripheral\scb/cy_scb_i2c.h ****                                     cy_stc_scb_i2c_context_t *context);
 820:Generated_Source\PSoC6\pdl\drivers\peripheral\scb/cy_scb_i2c.h **** void Cy_SCB_I2C_SlaveAbortRead     (CySCB_Type *base, cy_stc_scb_i2c_context_t *context);
 821:Generated_Source\PSoC6\pdl\drivers\peripheral\scb/cy_scb_i2c.h **** void Cy_SCB_I2C_SlaveConfigWriteBuf(CySCB_Type const *base, uint8_t *buffer, uint32_t size,
 822:Generated_Source\PSoC6\pdl\drivers\peripheral\scb/cy_scb_i2c.h ****                                     cy_stc_scb_i2c_context_t *context);
 823:Generated_Source\PSoC6\pdl\drivers\peripheral\scb/cy_scb_i2c.h **** void Cy_SCB_I2C_SlaveAbortWrite    (CySCB_Type *base, cy_stc_scb_i2c_context_t *context);
 824:Generated_Source\PSoC6\pdl\drivers\peripheral\scb/cy_scb_i2c.h **** 
 825:Generated_Source\PSoC6\pdl\drivers\peripheral\scb/cy_scb_i2c.h **** uint32_t Cy_SCB_I2C_SlaveGetStatus       (CySCB_Type const *base, cy_stc_scb_i2c_context_t const *c
 826:Generated_Source\PSoC6\pdl\drivers\peripheral\scb/cy_scb_i2c.h **** uint32_t Cy_SCB_I2C_SlaveClearReadStatus (CySCB_Type const *base, cy_stc_scb_i2c_context_t *context
 827:Generated_Source\PSoC6\pdl\drivers\peripheral\scb/cy_scb_i2c.h **** uint32_t Cy_SCB_I2C_SlaveClearWriteStatus(CySCB_Type const *base, cy_stc_scb_i2c_context_t *context
 828:Generated_Source\PSoC6\pdl\drivers\peripheral\scb/cy_scb_i2c.h **** 
 829:Generated_Source\PSoC6\pdl\drivers\peripheral\scb/cy_scb_i2c.h **** uint32_t Cy_SCB_I2C_SlaveGetReadTransferCount (CySCB_Type const *base, cy_stc_scb_i2c_context_t con
 830:Generated_Source\PSoC6\pdl\drivers\peripheral\scb/cy_scb_i2c.h **** uint32_t Cy_SCB_I2C_SlaveGetWriteTransferCount(CySCB_Type const *base, cy_stc_scb_i2c_context_t con
 831:Generated_Source\PSoC6\pdl\drivers\peripheral\scb/cy_scb_i2c.h **** /** \} group_scb_i2c_slave_functions */
 832:Generated_Source\PSoC6\pdl\drivers\peripheral\scb/cy_scb_i2c.h **** 
 833:Generated_Source\PSoC6\pdl\drivers\peripheral\scb/cy_scb_i2c.h **** /**
ARM GAS  C:\Users\pearlstl\AppData\Local\Temp\ccSYOVYh.s 			page 30


 834:Generated_Source\PSoC6\pdl\drivers\peripheral\scb/cy_scb_i2c.h **** * \addtogroup group_scb_i2c_master_high_level_functions
 835:Generated_Source\PSoC6\pdl\drivers\peripheral\scb/cy_scb_i2c.h **** * \{
 836:Generated_Source\PSoC6\pdl\drivers\peripheral\scb/cy_scb_i2c.h **** */
 837:Generated_Source\PSoC6\pdl\drivers\peripheral\scb/cy_scb_i2c.h **** cy_en_scb_i2c_status_t Cy_SCB_I2C_MasterWrite(CySCB_Type *base, cy_stc_scb_i2c_master_xfer_config_t
 838:Generated_Source\PSoC6\pdl\drivers\peripheral\scb/cy_scb_i2c.h ****                                               cy_stc_scb_i2c_context_t *context);
 839:Generated_Source\PSoC6\pdl\drivers\peripheral\scb/cy_scb_i2c.h **** void     Cy_SCB_I2C_MasterAbortWrite         (CySCB_Type *base, cy_stc_scb_i2c_context_t *context);
 840:Generated_Source\PSoC6\pdl\drivers\peripheral\scb/cy_scb_i2c.h **** cy_en_scb_i2c_status_t Cy_SCB_I2C_MasterRead (CySCB_Type *base, cy_stc_scb_i2c_master_xfer_config_t
 841:Generated_Source\PSoC6\pdl\drivers\peripheral\scb/cy_scb_i2c.h ****                                               cy_stc_scb_i2c_context_t *context);
 842:Generated_Source\PSoC6\pdl\drivers\peripheral\scb/cy_scb_i2c.h **** void     Cy_SCB_I2C_MasterAbortRead          (CySCB_Type *base, cy_stc_scb_i2c_context_t *context);
 843:Generated_Source\PSoC6\pdl\drivers\peripheral\scb/cy_scb_i2c.h **** uint32_t Cy_SCB_I2C_MasterGetStatus          (CySCB_Type const *base, cy_stc_scb_i2c_context_t cons
 844:Generated_Source\PSoC6\pdl\drivers\peripheral\scb/cy_scb_i2c.h **** uint32_t Cy_SCB_I2C_MasterGetTransferCount   (CySCB_Type const *base, cy_stc_scb_i2c_context_t cons
 845:Generated_Source\PSoC6\pdl\drivers\peripheral\scb/cy_scb_i2c.h **** /** \} group_scb_i2c_master_low_high_functions */
 846:Generated_Source\PSoC6\pdl\drivers\peripheral\scb/cy_scb_i2c.h **** 
 847:Generated_Source\PSoC6\pdl\drivers\peripheral\scb/cy_scb_i2c.h **** /**
 848:Generated_Source\PSoC6\pdl\drivers\peripheral\scb/cy_scb_i2c.h **** * \addtogroup group_scb_i2c_master_low_level_functions
 849:Generated_Source\PSoC6\pdl\drivers\peripheral\scb/cy_scb_i2c.h **** * \{
 850:Generated_Source\PSoC6\pdl\drivers\peripheral\scb/cy_scb_i2c.h **** */
 851:Generated_Source\PSoC6\pdl\drivers\peripheral\scb/cy_scb_i2c.h **** cy_en_scb_i2c_status_t Cy_SCB_I2C_MasterSendStart  (CySCB_Type *base, uint32_t address, cy_en_scb_i
 852:Generated_Source\PSoC6\pdl\drivers\peripheral\scb/cy_scb_i2c.h ****                                                     uint32_t timeoutMs, cy_stc_scb_i2c_context_t *c
 853:Generated_Source\PSoC6\pdl\drivers\peripheral\scb/cy_scb_i2c.h **** cy_en_scb_i2c_status_t Cy_SCB_I2C_MasterSendReStart(CySCB_Type *base, uint32_t address, cy_en_scb_i
 854:Generated_Source\PSoC6\pdl\drivers\peripheral\scb/cy_scb_i2c.h ****                                                     uint32_t timeoutMs, cy_stc_scb_i2c_context_t *c
 855:Generated_Source\PSoC6\pdl\drivers\peripheral\scb/cy_scb_i2c.h **** cy_en_scb_i2c_status_t Cy_SCB_I2C_MasterSendStop   (CySCB_Type *base,uint32_t timeoutMs, cy_stc_scb
 856:Generated_Source\PSoC6\pdl\drivers\peripheral\scb/cy_scb_i2c.h **** cy_en_scb_i2c_status_t Cy_SCB_I2C_MasterReadByte   (CySCB_Type *base, cy_en_scb_i2c_command_t ackNa
 857:Generated_Source\PSoC6\pdl\drivers\peripheral\scb/cy_scb_i2c.h ****                                                     uint32_t timeoutMs, cy_stc_scb_i2c_context_t *c
 858:Generated_Source\PSoC6\pdl\drivers\peripheral\scb/cy_scb_i2c.h **** cy_en_scb_i2c_status_t Cy_SCB_I2C_MasterWriteByte  (CySCB_Type *base, uint8_t byte, uint32_t timeou
 859:Generated_Source\PSoC6\pdl\drivers\peripheral\scb/cy_scb_i2c.h ****                                                     cy_stc_scb_i2c_context_t *context);
 860:Generated_Source\PSoC6\pdl\drivers\peripheral\scb/cy_scb_i2c.h **** /** \} group_scb_i2c_master_low_level_functions */
 861:Generated_Source\PSoC6\pdl\drivers\peripheral\scb/cy_scb_i2c.h **** 
 862:Generated_Source\PSoC6\pdl\drivers\peripheral\scb/cy_scb_i2c.h **** /**
 863:Generated_Source\PSoC6\pdl\drivers\peripheral\scb/cy_scb_i2c.h **** * \addtogroup group_scb_i2c_interrupt_functions
 864:Generated_Source\PSoC6\pdl\drivers\peripheral\scb/cy_scb_i2c.h **** * \{
 865:Generated_Source\PSoC6\pdl\drivers\peripheral\scb/cy_scb_i2c.h **** */
 866:Generated_Source\PSoC6\pdl\drivers\peripheral\scb/cy_scb_i2c.h **** void Cy_SCB_I2C_Interrupt      (CySCB_Type *base, cy_stc_scb_i2c_context_t *context);
 867:Generated_Source\PSoC6\pdl\drivers\peripheral\scb/cy_scb_i2c.h **** void Cy_SCB_I2C_SlaveInterrupt (CySCB_Type *base, cy_stc_scb_i2c_context_t *context);
 868:Generated_Source\PSoC6\pdl\drivers\peripheral\scb/cy_scb_i2c.h **** void Cy_SCB_I2C_MasterInterrupt (CySCB_Type *base, cy_stc_scb_i2c_context_t *context);
 869:Generated_Source\PSoC6\pdl\drivers\peripheral\scb/cy_scb_i2c.h **** 
 870:Generated_Source\PSoC6\pdl\drivers\peripheral\scb/cy_scb_i2c.h **** __STATIC_INLINE void Cy_SCB_I2C_RegisterEventCallback(CySCB_Type const *base, cy_cb_scb_i2c_handle_
 871:Generated_Source\PSoC6\pdl\drivers\peripheral\scb/cy_scb_i2c.h ****                                                       cy_stc_scb_i2c_context_t *context);
 872:Generated_Source\PSoC6\pdl\drivers\peripheral\scb/cy_scb_i2c.h **** __STATIC_INLINE void Cy_SCB_I2C_RegisterAddrCallback (CySCB_Type const *base, cy_cb_scb_i2c_handle_
 873:Generated_Source\PSoC6\pdl\drivers\peripheral\scb/cy_scb_i2c.h ****                                                       cy_stc_scb_i2c_context_t *context);
 874:Generated_Source\PSoC6\pdl\drivers\peripheral\scb/cy_scb_i2c.h **** /** \} group_scb_i2c_interrupt_functions */
 875:Generated_Source\PSoC6\pdl\drivers\peripheral\scb/cy_scb_i2c.h **** 
 876:Generated_Source\PSoC6\pdl\drivers\peripheral\scb/cy_scb_i2c.h **** /**
 877:Generated_Source\PSoC6\pdl\drivers\peripheral\scb/cy_scb_i2c.h **** * \addtogroup group_scb_i2c_low_power_functions
 878:Generated_Source\PSoC6\pdl\drivers\peripheral\scb/cy_scb_i2c.h **** * \{
 879:Generated_Source\PSoC6\pdl\drivers\peripheral\scb/cy_scb_i2c.h **** */
 880:Generated_Source\PSoC6\pdl\drivers\peripheral\scb/cy_scb_i2c.h **** cy_en_syspm_status_t Cy_SCB_I2C_DeepSleepCallback(cy_stc_syspm_callback_params_t *callbackParams, c
 881:Generated_Source\PSoC6\pdl\drivers\peripheral\scb/cy_scb_i2c.h **** cy_en_syspm_status_t Cy_SCB_I2C_HibernateCallback(cy_stc_syspm_callback_params_t *callbackParams, c
 882:Generated_Source\PSoC6\pdl\drivers\peripheral\scb/cy_scb_i2c.h **** /** \} group_scb_i2c_low_power_functions */
 883:Generated_Source\PSoC6\pdl\drivers\peripheral\scb/cy_scb_i2c.h **** 
 884:Generated_Source\PSoC6\pdl\drivers\peripheral\scb/cy_scb_i2c.h **** 
 885:Generated_Source\PSoC6\pdl\drivers\peripheral\scb/cy_scb_i2c.h **** /*******************************************************************************
 886:Generated_Source\PSoC6\pdl\drivers\peripheral\scb/cy_scb_i2c.h **** *                               API Constants
 887:Generated_Source\PSoC6\pdl\drivers\peripheral\scb/cy_scb_i2c.h **** *******************************************************************************/
 888:Generated_Source\PSoC6\pdl\drivers\peripheral\scb/cy_scb_i2c.h **** 
 889:Generated_Source\PSoC6\pdl\drivers\peripheral\scb/cy_scb_i2c.h **** /**
 890:Generated_Source\PSoC6\pdl\drivers\peripheral\scb/cy_scb_i2c.h **** * \addtogroup group_scb_i2c_macros
ARM GAS  C:\Users\pearlstl\AppData\Local\Temp\ccSYOVYh.s 			page 31


 891:Generated_Source\PSoC6\pdl\drivers\peripheral\scb/cy_scb_i2c.h **** * \{
 892:Generated_Source\PSoC6\pdl\drivers\peripheral\scb/cy_scb_i2c.h **** */
 893:Generated_Source\PSoC6\pdl\drivers\peripheral\scb/cy_scb_i2c.h **** 
 894:Generated_Source\PSoC6\pdl\drivers\peripheral\scb/cy_scb_i2c.h **** /**
 895:Generated_Source\PSoC6\pdl\drivers\peripheral\scb/cy_scb_i2c.h **** * \defgroup group_scb_i2c_macros_slave_status I2C Slave Status
 896:Generated_Source\PSoC6\pdl\drivers\peripheral\scb/cy_scb_i2c.h **** * Macros to check current I2C slave status returned by 
 897:Generated_Source\PSoC6\pdl\drivers\peripheral\scb/cy_scb_i2c.h **** * \ref Cy_SCB_I2C_SlaveGetStatus function. Each I2C slave status is encoded 
 898:Generated_Source\PSoC6\pdl\drivers\peripheral\scb/cy_scb_i2c.h **** * in a separate bit, therefore multiple bits may be set to indicate the 
 899:Generated_Source\PSoC6\pdl\drivers\peripheral\scb/cy_scb_i2c.h **** * current status.
 900:Generated_Source\PSoC6\pdl\drivers\peripheral\scb/cy_scb_i2c.h **** * \{
 901:Generated_Source\PSoC6\pdl\drivers\peripheral\scb/cy_scb_i2c.h **** */
 902:Generated_Source\PSoC6\pdl\drivers\peripheral\scb/cy_scb_i2c.h **** /** There is a read transaction in progress */
 903:Generated_Source\PSoC6\pdl\drivers\peripheral\scb/cy_scb_i2c.h **** #define CY_SCB_I2C_SLAVE_RD_BUSY       (0x00000001UL)
 904:Generated_Source\PSoC6\pdl\drivers\peripheral\scb/cy_scb_i2c.h **** 
 905:Generated_Source\PSoC6\pdl\drivers\peripheral\scb/cy_scb_i2c.h **** /**
 906:Generated_Source\PSoC6\pdl\drivers\peripheral\scb/cy_scb_i2c.h **** * All read data has been loaded into the TX FIFO, applicable only if
 907:Generated_Source\PSoC6\pdl\drivers\peripheral\scb/cy_scb_i2c.h **** * the TX FIFO is used
 908:Generated_Source\PSoC6\pdl\drivers\peripheral\scb/cy_scb_i2c.h **** */
 909:Generated_Source\PSoC6\pdl\drivers\peripheral\scb/cy_scb_i2c.h **** #define CY_SCB_I2C_SLAVE_RD_IN_FIFO    (0x00000002UL)
 910:Generated_Source\PSoC6\pdl\drivers\peripheral\scb/cy_scb_i2c.h **** 
 911:Generated_Source\PSoC6\pdl\drivers\peripheral\scb/cy_scb_i2c.h **** /**
 912:Generated_Source\PSoC6\pdl\drivers\peripheral\scb/cy_scb_i2c.h **** * The master has finished reading data from the slave
 913:Generated_Source\PSoC6\pdl\drivers\peripheral\scb/cy_scb_i2c.h **** */
 914:Generated_Source\PSoC6\pdl\drivers\peripheral\scb/cy_scb_i2c.h **** #define CY_SCB_I2C_SLAVE_RD_CMPLT      (0x00000004UL)
 915:Generated_Source\PSoC6\pdl\drivers\peripheral\scb/cy_scb_i2c.h **** 
 916:Generated_Source\PSoC6\pdl\drivers\peripheral\scb/cy_scb_i2c.h **** /**
 917:Generated_Source\PSoC6\pdl\drivers\peripheral\scb/cy_scb_i2c.h **** * Set when the master tried to read more bytes than available in the configured
 918:Generated_Source\PSoC6\pdl\drivers\peripheral\scb/cy_scb_i2c.h **** * read buffer. The slave is not able to finish the transaction and sends
 919:Generated_Source\PSoC6\pdl\drivers\peripheral\scb/cy_scb_i2c.h **** * \ref CY_SCB_I2C_DEFAULT_TX.
 920:Generated_Source\PSoC6\pdl\drivers\peripheral\scb/cy_scb_i2c.h **** */
 921:Generated_Source\PSoC6\pdl\drivers\peripheral\scb/cy_scb_i2c.h **** #define CY_SCB_I2C_SLAVE_RD_UNDRFL     (0x00000008UL)
 922:Generated_Source\PSoC6\pdl\drivers\peripheral\scb/cy_scb_i2c.h **** 
 923:Generated_Source\PSoC6\pdl\drivers\peripheral\scb/cy_scb_i2c.h **** /** There is a write transaction in progress */
 924:Generated_Source\PSoC6\pdl\drivers\peripheral\scb/cy_scb_i2c.h **** #define CY_SCB_I2C_SLAVE_WR_BUSY       (0x00000010UL)
 925:Generated_Source\PSoC6\pdl\drivers\peripheral\scb/cy_scb_i2c.h **** 
 926:Generated_Source\PSoC6\pdl\drivers\peripheral\scb/cy_scb_i2c.h **** /**
 927:Generated_Source\PSoC6\pdl\drivers\peripheral\scb/cy_scb_i2c.h **** * The master has finished writing data into the slave
 928:Generated_Source\PSoC6\pdl\drivers\peripheral\scb/cy_scb_i2c.h **** */
 929:Generated_Source\PSoC6\pdl\drivers\peripheral\scb/cy_scb_i2c.h **** #define CY_SCB_I2C_SLAVE_WR_CMPLT      (0x00000020UL)
 930:Generated_Source\PSoC6\pdl\drivers\peripheral\scb/cy_scb_i2c.h **** 
 931:Generated_Source\PSoC6\pdl\drivers\peripheral\scb/cy_scb_i2c.h **** /**
 932:Generated_Source\PSoC6\pdl\drivers\peripheral\scb/cy_scb_i2c.h **** * The master attempted to write more bytes than space available in the
 933:Generated_Source\PSoC6\pdl\drivers\peripheral\scb/cy_scb_i2c.h **** * configured Write buffer. Note that all subsequent bytes are dropped.
 934:Generated_Source\PSoC6\pdl\drivers\peripheral\scb/cy_scb_i2c.h **** */
 935:Generated_Source\PSoC6\pdl\drivers\peripheral\scb/cy_scb_i2c.h **** #define CY_SCB_I2C_SLAVE_WR_OVRFL      (0x00000040UL)
 936:Generated_Source\PSoC6\pdl\drivers\peripheral\scb/cy_scb_i2c.h **** 
 937:Generated_Source\PSoC6\pdl\drivers\peripheral\scb/cy_scb_i2c.h **** /** The slave lost arbitration, and the transaction was aborted */
 938:Generated_Source\PSoC6\pdl\drivers\peripheral\scb/cy_scb_i2c.h **** #define CY_SCB_I2C_SLAVE_ARB_LOST      (0x00000080UL)
 939:Generated_Source\PSoC6\pdl\drivers\peripheral\scb/cy_scb_i2c.h **** 
 940:Generated_Source\PSoC6\pdl\drivers\peripheral\scb/cy_scb_i2c.h **** /**
 941:Generated_Source\PSoC6\pdl\drivers\peripheral\scb/cy_scb_i2c.h **** * The slave captured an error on the bus during a master transaction (source
 942:Generated_Source\PSoC6\pdl\drivers\peripheral\scb/cy_scb_i2c.h **** * of error is misplaced Start or Stop).
 943:Generated_Source\PSoC6\pdl\drivers\peripheral\scb/cy_scb_i2c.h **** */
 944:Generated_Source\PSoC6\pdl\drivers\peripheral\scb/cy_scb_i2c.h **** #define CY_SCB_I2C_SLAVE_BUS_ERR       (0x00000100UL)
 945:Generated_Source\PSoC6\pdl\drivers\peripheral\scb/cy_scb_i2c.h **** /** \} group_scb_i2c_macros_slave_status */
 946:Generated_Source\PSoC6\pdl\drivers\peripheral\scb/cy_scb_i2c.h **** 
 947:Generated_Source\PSoC6\pdl\drivers\peripheral\scb/cy_scb_i2c.h **** /**
ARM GAS  C:\Users\pearlstl\AppData\Local\Temp\ccSYOVYh.s 			page 32


 948:Generated_Source\PSoC6\pdl\drivers\peripheral\scb/cy_scb_i2c.h **** * \defgroup group_scb_i2c_macros_master_status I2C Master Status
 949:Generated_Source\PSoC6\pdl\drivers\peripheral\scb/cy_scb_i2c.h **** * Macros to check current I2C master status returned by 
 950:Generated_Source\PSoC6\pdl\drivers\peripheral\scb/cy_scb_i2c.h **** * \ref Cy_SCB_I2C_MasterGetStatus function. Each I2C master status is encoded 
 951:Generated_Source\PSoC6\pdl\drivers\peripheral\scb/cy_scb_i2c.h **** * in a separate bit, therefore multiple bits may be set to indicate the 
 952:Generated_Source\PSoC6\pdl\drivers\peripheral\scb/cy_scb_i2c.h **** * current status.
 953:Generated_Source\PSoC6\pdl\drivers\peripheral\scb/cy_scb_i2c.h **** * \{
 954:Generated_Source\PSoC6\pdl\drivers\peripheral\scb/cy_scb_i2c.h **** */
 955:Generated_Source\PSoC6\pdl\drivers\peripheral\scb/cy_scb_i2c.h **** 
 956:Generated_Source\PSoC6\pdl\drivers\peripheral\scb/cy_scb_i2c.h **** /**
 957:Generated_Source\PSoC6\pdl\drivers\peripheral\scb/cy_scb_i2c.h **** * The master is busy executing operation started by \ref Cy_SCB_I2C_MasterRead
 958:Generated_Source\PSoC6\pdl\drivers\peripheral\scb/cy_scb_i2c.h **** * or \ref Cy_SCB_I2C_MasterWrite
 959:Generated_Source\PSoC6\pdl\drivers\peripheral\scb/cy_scb_i2c.h **** */
 960:Generated_Source\PSoC6\pdl\drivers\peripheral\scb/cy_scb_i2c.h **** #define CY_SCB_I2C_MASTER_BUSY         (0x00010000UL)
 961:Generated_Source\PSoC6\pdl\drivers\peripheral\scb/cy_scb_i2c.h **** 
 962:Generated_Source\PSoC6\pdl\drivers\peripheral\scb/cy_scb_i2c.h **** /**
 963:Generated_Source\PSoC6\pdl\drivers\peripheral\scb/cy_scb_i2c.h **** * All Write data has been loaded into the TX FIFO
 964:Generated_Source\PSoC6\pdl\drivers\peripheral\scb/cy_scb_i2c.h **** */
 965:Generated_Source\PSoC6\pdl\drivers\peripheral\scb/cy_scb_i2c.h **** #define CY_SCB_I2C_MASTER_WR_IN_FIFO   (0x00020000UL)
 966:Generated_Source\PSoC6\pdl\drivers\peripheral\scb/cy_scb_i2c.h **** 
 967:Generated_Source\PSoC6\pdl\drivers\peripheral\scb/cy_scb_i2c.h **** /** The slave NACKed the address. */
 968:Generated_Source\PSoC6\pdl\drivers\peripheral\scb/cy_scb_i2c.h **** #define CY_SCB_I2C_MASTER_ADDR_NAK     (0x00100000UL)
 969:Generated_Source\PSoC6\pdl\drivers\peripheral\scb/cy_scb_i2c.h **** 
 970:Generated_Source\PSoC6\pdl\drivers\peripheral\scb/cy_scb_i2c.h **** /** Write completed before all bytes were sent (last byte was NAKed)
 971:Generated_Source\PSoC6\pdl\drivers\peripheral\scb/cy_scb_i2c.h **** */
 972:Generated_Source\PSoC6\pdl\drivers\peripheral\scb/cy_scb_i2c.h **** #define CY_SCB_I2C_MASTER_DATA_NAK     (0x00200000UL)
 973:Generated_Source\PSoC6\pdl\drivers\peripheral\scb/cy_scb_i2c.h **** 
 974:Generated_Source\PSoC6\pdl\drivers\peripheral\scb/cy_scb_i2c.h **** /** The master lost arbitration, the transaction was aborted */
 975:Generated_Source\PSoC6\pdl\drivers\peripheral\scb/cy_scb_i2c.h **** #define CY_SCB_I2C_MASTER_ARB_LOST     (0x00400000UL)
 976:Generated_Source\PSoC6\pdl\drivers\peripheral\scb/cy_scb_i2c.h **** 
 977:Generated_Source\PSoC6\pdl\drivers\peripheral\scb/cy_scb_i2c.h **** /**
 978:Generated_Source\PSoC6\pdl\drivers\peripheral\scb/cy_scb_i2c.h **** * The master detected an erroneous start or stop, the transaction was aborted
 979:Generated_Source\PSoC6\pdl\drivers\peripheral\scb/cy_scb_i2c.h **** */
 980:Generated_Source\PSoC6\pdl\drivers\peripheral\scb/cy_scb_i2c.h **** #define CY_SCB_I2C_MASTER_BUS_ERR      (0x00800000UL)
 981:Generated_Source\PSoC6\pdl\drivers\peripheral\scb/cy_scb_i2c.h **** 
 982:Generated_Source\PSoC6\pdl\drivers\peripheral\scb/cy_scb_i2c.h **** /**
 983:Generated_Source\PSoC6\pdl\drivers\peripheral\scb/cy_scb_i2c.h **** * The master transaction was aborted and the slave transaction is on-going
 984:Generated_Source\PSoC6\pdl\drivers\peripheral\scb/cy_scb_i2c.h **** * because the slave was addressed before the master generated a start
 985:Generated_Source\PSoC6\pdl\drivers\peripheral\scb/cy_scb_i2c.h **** */
 986:Generated_Source\PSoC6\pdl\drivers\peripheral\scb/cy_scb_i2c.h **** #define CY_SCB_I2C_MASTER_ABORT_START  (0x01000000UL)
 987:Generated_Source\PSoC6\pdl\drivers\peripheral\scb/cy_scb_i2c.h **** /** \} group_scb_i2c_macros_master_status */
 988:Generated_Source\PSoC6\pdl\drivers\peripheral\scb/cy_scb_i2c.h **** 
 989:Generated_Source\PSoC6\pdl\drivers\peripheral\scb/cy_scb_i2c.h **** /**
 990:Generated_Source\PSoC6\pdl\drivers\peripheral\scb/cy_scb_i2c.h **** * \defgroup group_scb_i2c_macros_callback_events I2C Callback Events
 991:Generated_Source\PSoC6\pdl\drivers\peripheral\scb/cy_scb_i2c.h **** * \{
 992:Generated_Source\PSoC6\pdl\drivers\peripheral\scb/cy_scb_i2c.h **** * Macros to check I2C events passed by \ref cy_cb_scb_i2c_handle_events_t callback.
 993:Generated_Source\PSoC6\pdl\drivers\peripheral\scb/cy_scb_i2c.h **** * Each event is encoded in a separate bit, and therefore it is possible to
 994:Generated_Source\PSoC6\pdl\drivers\peripheral\scb/cy_scb_i2c.h **** * notify about multiple events.
 995:Generated_Source\PSoC6\pdl\drivers\peripheral\scb/cy_scb_i2c.h **** */
 996:Generated_Source\PSoC6\pdl\drivers\peripheral\scb/cy_scb_i2c.h **** /**
 997:Generated_Source\PSoC6\pdl\drivers\peripheral\scb/cy_scb_i2c.h **** * Indicates that the slave was addressed and the master wants to read data.
 998:Generated_Source\PSoC6\pdl\drivers\peripheral\scb/cy_scb_i2c.h **** * This event can be used to configure the slave Read buffer.
 999:Generated_Source\PSoC6\pdl\drivers\peripheral\scb/cy_scb_i2c.h **** */
1000:Generated_Source\PSoC6\pdl\drivers\peripheral\scb/cy_scb_i2c.h **** #define CY_SCB_I2C_SLAVE_READ_EVENT            (0x00000001UL)
1001:Generated_Source\PSoC6\pdl\drivers\peripheral\scb/cy_scb_i2c.h **** 
1002:Generated_Source\PSoC6\pdl\drivers\peripheral\scb/cy_scb_i2c.h **** /**
1003:Generated_Source\PSoC6\pdl\drivers\peripheral\scb/cy_scb_i2c.h **** * Indicates that the slave was addressed and the master wants to write data.
1004:Generated_Source\PSoC6\pdl\drivers\peripheral\scb/cy_scb_i2c.h **** * This event can be used to configure the slave Write buffer.
ARM GAS  C:\Users\pearlstl\AppData\Local\Temp\ccSYOVYh.s 			page 33


1005:Generated_Source\PSoC6\pdl\drivers\peripheral\scb/cy_scb_i2c.h **** */
1006:Generated_Source\PSoC6\pdl\drivers\peripheral\scb/cy_scb_i2c.h **** #define CY_SCB_I2C_SLAVE_WRITE_EVENT           (0x00000002UL)
1007:Generated_Source\PSoC6\pdl\drivers\peripheral\scb/cy_scb_i2c.h **** 
1008:Generated_Source\PSoC6\pdl\drivers\peripheral\scb/cy_scb_i2c.h **** /**
1009:Generated_Source\PSoC6\pdl\drivers\peripheral\scb/cy_scb_i2c.h **** * All slave data from the configured Read buffer has been loaded into the
1010:Generated_Source\PSoC6\pdl\drivers\peripheral\scb/cy_scb_i2c.h **** * TX FIFO. The content of the Read buffer can be modified. Applicable only
1011:Generated_Source\PSoC6\pdl\drivers\peripheral\scb/cy_scb_i2c.h **** * if the TX FIFO is used.
1012:Generated_Source\PSoC6\pdl\drivers\peripheral\scb/cy_scb_i2c.h **** */
1013:Generated_Source\PSoC6\pdl\drivers\peripheral\scb/cy_scb_i2c.h **** #define CY_SCB_I2C_SLAVE_RD_IN_FIFO_EVENT      (0x00000004UL)
1014:Generated_Source\PSoC6\pdl\drivers\peripheral\scb/cy_scb_i2c.h **** 
1015:Generated_Source\PSoC6\pdl\drivers\peripheral\scb/cy_scb_i2c.h **** /**
1016:Generated_Source\PSoC6\pdl\drivers\peripheral\scb/cy_scb_i2c.h **** * The master has read all data out of the configured Read buffer.
1017:Generated_Source\PSoC6\pdl\drivers\peripheral\scb/cy_scb_i2c.h **** * This event can be used to configure the next Read buffer. If the buffer
1018:Generated_Source\PSoC6\pdl\drivers\peripheral\scb/cy_scb_i2c.h **** * remains empty, the \ref CY_SCB_I2C_DEFAULT_TX bytes are returned to the master.
1019:Generated_Source\PSoC6\pdl\drivers\peripheral\scb/cy_scb_i2c.h **** */
1020:Generated_Source\PSoC6\pdl\drivers\peripheral\scb/cy_scb_i2c.h **** #define CY_SCB_I2C_SLAVE_RD_BUF_EMPTY_EVENT    (0x00000008UL)
1021:Generated_Source\PSoC6\pdl\drivers\peripheral\scb/cy_scb_i2c.h **** 
1022:Generated_Source\PSoC6\pdl\drivers\peripheral\scb/cy_scb_i2c.h **** /**
1023:Generated_Source\PSoC6\pdl\drivers\peripheral\scb/cy_scb_i2c.h **** * Indicates the master completed reading from the slave (set by the master NAK
1024:Generated_Source\PSoC6\pdl\drivers\peripheral\scb/cy_scb_i2c.h **** * or Stop)
1025:Generated_Source\PSoC6\pdl\drivers\peripheral\scb/cy_scb_i2c.h **** */
1026:Generated_Source\PSoC6\pdl\drivers\peripheral\scb/cy_scb_i2c.h **** #define CY_SCB_I2C_SLAVE_RD_CMPLT_EVENT        (0x00000010UL)
1027:Generated_Source\PSoC6\pdl\drivers\peripheral\scb/cy_scb_i2c.h **** 
1028:Generated_Source\PSoC6\pdl\drivers\peripheral\scb/cy_scb_i2c.h **** /**
1029:Generated_Source\PSoC6\pdl\drivers\peripheral\scb/cy_scb_i2c.h **** * Indicates the master completed writing to the slave (set by the master Stop
1030:Generated_Source\PSoC6\pdl\drivers\peripheral\scb/cy_scb_i2c.h **** * or Restart)
1031:Generated_Source\PSoC6\pdl\drivers\peripheral\scb/cy_scb_i2c.h **** */
1032:Generated_Source\PSoC6\pdl\drivers\peripheral\scb/cy_scb_i2c.h **** #define CY_SCB_I2C_SLAVE_WR_CMPLT_EVENT        (0x00000020UL)
1033:Generated_Source\PSoC6\pdl\drivers\peripheral\scb/cy_scb_i2c.h **** 
1034:Generated_Source\PSoC6\pdl\drivers\peripheral\scb/cy_scb_i2c.h **** /**
1035:Generated_Source\PSoC6\pdl\drivers\peripheral\scb/cy_scb_i2c.h **** * Indicates the I2C hardware detected an error.
1036:Generated_Source\PSoC6\pdl\drivers\peripheral\scb/cy_scb_i2c.h **** * Check \ref Cy_SCB_I2C_SlaveGetStatus to determine the source of the error.
1037:Generated_Source\PSoC6\pdl\drivers\peripheral\scb/cy_scb_i2c.h **** */
1038:Generated_Source\PSoC6\pdl\drivers\peripheral\scb/cy_scb_i2c.h **** #define CY_SCB_I2C_SLAVE_ERR_EVENT             (0x00000040UL)
1039:Generated_Source\PSoC6\pdl\drivers\peripheral\scb/cy_scb_i2c.h **** 
1040:Generated_Source\PSoC6\pdl\drivers\peripheral\scb/cy_scb_i2c.h **** /**
1041:Generated_Source\PSoC6\pdl\drivers\peripheral\scb/cy_scb_i2c.h **** * All data specified by \ref Cy_SCB_I2C_MasterWrite has been loaded
1042:Generated_Source\PSoC6\pdl\drivers\peripheral\scb/cy_scb_i2c.h **** * into the TX FIFO. The content of the master write buffer can be modified.
1043:Generated_Source\PSoC6\pdl\drivers\peripheral\scb/cy_scb_i2c.h **** * Applicable only if the TX FIFO is used.
1044:Generated_Source\PSoC6\pdl\drivers\peripheral\scb/cy_scb_i2c.h **** */
1045:Generated_Source\PSoC6\pdl\drivers\peripheral\scb/cy_scb_i2c.h **** #define CY_SCB_I2C_MASTER_WR_IN_FIFO_EVENT     (0x00010000UL)
1046:Generated_Source\PSoC6\pdl\drivers\peripheral\scb/cy_scb_i2c.h **** 
1047:Generated_Source\PSoC6\pdl\drivers\peripheral\scb/cy_scb_i2c.h **** /** The master write started by \ref Cy_SCB_I2C_MasterWrite is complete */
1048:Generated_Source\PSoC6\pdl\drivers\peripheral\scb/cy_scb_i2c.h **** #define CY_SCB_I2C_MASTER_WR_CMPLT_EVENT       (0x00020000UL)
1049:Generated_Source\PSoC6\pdl\drivers\peripheral\scb/cy_scb_i2c.h **** 
1050:Generated_Source\PSoC6\pdl\drivers\peripheral\scb/cy_scb_i2c.h **** /** The master read started by \ref Cy_SCB_I2C_MasterRead is complete */
1051:Generated_Source\PSoC6\pdl\drivers\peripheral\scb/cy_scb_i2c.h **** #define CY_SCB_I2C_MASTER_RD_CMPLT_EVENT       (0x00040000UL)
1052:Generated_Source\PSoC6\pdl\drivers\peripheral\scb/cy_scb_i2c.h **** 
1053:Generated_Source\PSoC6\pdl\drivers\peripheral\scb/cy_scb_i2c.h **** /**
1054:Generated_Source\PSoC6\pdl\drivers\peripheral\scb/cy_scb_i2c.h **** * Indicates the I2C hardware has detected an error. It occurs together with
1055:Generated_Source\PSoC6\pdl\drivers\peripheral\scb/cy_scb_i2c.h **** * \ref CY_SCB_I2C_MASTER_RD_CMPLT_EVENT or \ref CY_SCB_I2C_MASTER_WR_CMPLT_EVENT
1056:Generated_Source\PSoC6\pdl\drivers\peripheral\scb/cy_scb_i2c.h **** * depends on the direction of the transfer.
1057:Generated_Source\PSoC6\pdl\drivers\peripheral\scb/cy_scb_i2c.h **** * Check \ref Cy_SCB_I2C_MasterGetStatus to determine the source of the error.
1058:Generated_Source\PSoC6\pdl\drivers\peripheral\scb/cy_scb_i2c.h **** */
1059:Generated_Source\PSoC6\pdl\drivers\peripheral\scb/cy_scb_i2c.h **** #define CY_SCB_I2C_MASTER_ERR_EVENT            (0x00080000UL)
1060:Generated_Source\PSoC6\pdl\drivers\peripheral\scb/cy_scb_i2c.h **** /** \} group_scb_i2c_macros_callback_events */
1061:Generated_Source\PSoC6\pdl\drivers\peripheral\scb/cy_scb_i2c.h **** 
ARM GAS  C:\Users\pearlstl\AppData\Local\Temp\ccSYOVYh.s 			page 34


1062:Generated_Source\PSoC6\pdl\drivers\peripheral\scb/cy_scb_i2c.h **** /**
1063:Generated_Source\PSoC6\pdl\drivers\peripheral\scb/cy_scb_i2c.h **** * \defgroup group_scb_i2c_macros_addr_callback_events I2C Address Callback Events
1064:Generated_Source\PSoC6\pdl\drivers\peripheral\scb/cy_scb_i2c.h **** * Macros to check I2C address events passed by \ref cy_cb_scb_i2c_handle_addr_t callback.
1065:Generated_Source\PSoC6\pdl\drivers\peripheral\scb/cy_scb_i2c.h **** * Each event is encoded in a separate bit and therefore it is possible to
1066:Generated_Source\PSoC6\pdl\drivers\peripheral\scb/cy_scb_i2c.h **** * notify about multiple events.
1067:Generated_Source\PSoC6\pdl\drivers\peripheral\scb/cy_scb_i2c.h **** * \{
1068:Generated_Source\PSoC6\pdl\drivers\peripheral\scb/cy_scb_i2c.h **** */
1069:Generated_Source\PSoC6\pdl\drivers\peripheral\scb/cy_scb_i2c.h **** /**
1070:Generated_Source\PSoC6\pdl\drivers\peripheral\scb/cy_scb_i2c.h **** * Indicates the slave was addressed by the general call address
1071:Generated_Source\PSoC6\pdl\drivers\peripheral\scb/cy_scb_i2c.h **** */
1072:Generated_Source\PSoC6\pdl\drivers\peripheral\scb/cy_scb_i2c.h **** #define CY_SCB_I2C_GENERAL_CALL_EVENT      (0x01UL)
1073:Generated_Source\PSoC6\pdl\drivers\peripheral\scb/cy_scb_i2c.h **** 
1074:Generated_Source\PSoC6\pdl\drivers\peripheral\scb/cy_scb_i2c.h **** /**
1075:Generated_Source\PSoC6\pdl\drivers\peripheral\scb/cy_scb_i2c.h **** * The slave address is in the RX FIFO.
1076:Generated_Source\PSoC6\pdl\drivers\peripheral\scb/cy_scb_i2c.h **** * Note that the address must be read from the RX FIFO using the
1077:Generated_Source\PSoC6\pdl\drivers\peripheral\scb/cy_scb_i2c.h **** * \ref Cy_SCB_ReadRxFifo function.
1078:Generated_Source\PSoC6\pdl\drivers\peripheral\scb/cy_scb_i2c.h **** */
1079:Generated_Source\PSoC6\pdl\drivers\peripheral\scb/cy_scb_i2c.h **** #define CY_SCB_I2C_ADDR_IN_FIFO_EVENT      (0x02UL)
1080:Generated_Source\PSoC6\pdl\drivers\peripheral\scb/cy_scb_i2c.h **** /** \} group_scb_i2c_macros_addr_callback_events */
1081:Generated_Source\PSoC6\pdl\drivers\peripheral\scb/cy_scb_i2c.h **** 
1082:Generated_Source\PSoC6\pdl\drivers\peripheral\scb/cy_scb_i2c.h **** /**
1083:Generated_Source\PSoC6\pdl\drivers\peripheral\scb/cy_scb_i2c.h **** * This value is returned by the slave when there is no data in the
1084:Generated_Source\PSoC6\pdl\drivers\peripheral\scb/cy_scb_i2c.h **** * Read buffer
1085:Generated_Source\PSoC6\pdl\drivers\peripheral\scb/cy_scb_i2c.h **** */
1086:Generated_Source\PSoC6\pdl\drivers\peripheral\scb/cy_scb_i2c.h **** #define CY_SCB_I2C_DEFAULT_TX  (0xFFUL)
1087:Generated_Source\PSoC6\pdl\drivers\peripheral\scb/cy_scb_i2c.h **** 
1088:Generated_Source\PSoC6\pdl\drivers\peripheral\scb/cy_scb_i2c.h **** 
1089:Generated_Source\PSoC6\pdl\drivers\peripheral\scb/cy_scb_i2c.h **** /*******************************************************************************
1090:Generated_Source\PSoC6\pdl\drivers\peripheral\scb/cy_scb_i2c.h **** *                          Internal Constants
1091:Generated_Source\PSoC6\pdl\drivers\peripheral\scb/cy_scb_i2c.h **** *******************************************************************************/
1092:Generated_Source\PSoC6\pdl\drivers\peripheral\scb/cy_scb_i2c.h **** 
1093:Generated_Source\PSoC6\pdl\drivers\peripheral\scb/cy_scb_i2c.h **** /** \cond INTERNAL */
1094:Generated_Source\PSoC6\pdl\drivers\peripheral\scb/cy_scb_i2c.h **** 
1095:Generated_Source\PSoC6\pdl\drivers\peripheral\scb/cy_scb_i2c.h **** /* Slave statuses */
1096:Generated_Source\PSoC6\pdl\drivers\peripheral\scb/cy_scb_i2c.h **** #define CY_SCB_I2C_SLAVE_RD_CLEAR  (CY_SCB_I2C_SLAVE_RD_CMPLT  | CY_SCB_I2C_SLAVE_RD_IN_FIFO | \
1097:Generated_Source\PSoC6\pdl\drivers\peripheral\scb/cy_scb_i2c.h ****                                     CY_SCB_I2C_SLAVE_RD_UNDRFL | CY_SCB_I2C_SLAVE_ARB_LOST   | \
1098:Generated_Source\PSoC6\pdl\drivers\peripheral\scb/cy_scb_i2c.h ****                                     CY_SCB_I2C_SLAVE_BUS_ERR)
1099:Generated_Source\PSoC6\pdl\drivers\peripheral\scb/cy_scb_i2c.h **** 
1100:Generated_Source\PSoC6\pdl\drivers\peripheral\scb/cy_scb_i2c.h **** #define CY_SCB_I2C_SLAVE_WR_CLEAR  (CY_SCB_I2C_SLAVE_WR_CMPLT | CY_SCB_I2C_SLAVE_WR_OVRFL | \
1101:Generated_Source\PSoC6\pdl\drivers\peripheral\scb/cy_scb_i2c.h ****                                     CY_SCB_I2C_SLAVE_ARB_LOST | CY_SCB_I2C_SLAVE_BUS_ERR)
1102:Generated_Source\PSoC6\pdl\drivers\peripheral\scb/cy_scb_i2c.h **** 
1103:Generated_Source\PSoC6\pdl\drivers\peripheral\scb/cy_scb_i2c.h **** /* Master error statuses */
1104:Generated_Source\PSoC6\pdl\drivers\peripheral\scb/cy_scb_i2c.h **** #define CY_SCB_I2C_MASTER_ERR (CY_SCB_I2C_MASTER_ABORT_START | CY_SCB_I2C_MASTER_ADDR_NAK | \
1105:Generated_Source\PSoC6\pdl\drivers\peripheral\scb/cy_scb_i2c.h ****                                CY_SCB_I2C_MASTER_DATA_NAK    | CY_SCB_I2C_MASTER_BUS_ERR  | \
1106:Generated_Source\PSoC6\pdl\drivers\peripheral\scb/cy_scb_i2c.h ****                                CY_SCB_I2C_MASTER_ARB_LOST)
1107:Generated_Source\PSoC6\pdl\drivers\peripheral\scb/cy_scb_i2c.h **** 
1108:Generated_Source\PSoC6\pdl\drivers\peripheral\scb/cy_scb_i2c.h **** /* Master interrupt masks */
1109:Generated_Source\PSoC6\pdl\drivers\peripheral\scb/cy_scb_i2c.h **** #define CY_SCB_I2C_MASTER_INTR     (CY_SCB_MASTER_INTR_I2C_ARB_LOST | CY_SCB_MASTER_INTR_I2C_BUS_ER
1110:Generated_Source\PSoC6\pdl\drivers\peripheral\scb/cy_scb_i2c.h ****                                     CY_SCB_MASTER_INTR_I2C_NACK     | CY_SCB_MASTER_INTR_I2C_STOP)
1111:Generated_Source\PSoC6\pdl\drivers\peripheral\scb/cy_scb_i2c.h **** 
1112:Generated_Source\PSoC6\pdl\drivers\peripheral\scb/cy_scb_i2c.h **** #define CY_SCB_I2C_MASTER_INTR_ALL   (CY_SCB_I2C_MASTER_INTR | CY_SCB_MASTER_INTR_I2C_ACK)
1113:Generated_Source\PSoC6\pdl\drivers\peripheral\scb/cy_scb_i2c.h **** 
1114:Generated_Source\PSoC6\pdl\drivers\peripheral\scb/cy_scb_i2c.h **** #define CY_SCB_I2C_MASTER_INTR_ERR   (CY_SCB_MASTER_INTR_I2C_BUS_ERROR | CY_SCB_MASTER_INTR_I2C_ARB
1115:Generated_Source\PSoC6\pdl\drivers\peripheral\scb/cy_scb_i2c.h **** 
1116:Generated_Source\PSoC6\pdl\drivers\peripheral\scb/cy_scb_i2c.h **** #define CY_SCB_I2C_MASTER_INTR_CMPLT (CY_SCB_I2C_MASTER_INTR_ERR | CY_SCB_MASTER_INTR_I2C_STOP)
1117:Generated_Source\PSoC6\pdl\drivers\peripheral\scb/cy_scb_i2c.h **** 
1118:Generated_Source\PSoC6\pdl\drivers\peripheral\scb/cy_scb_i2c.h **** /* Master statuses. */
ARM GAS  C:\Users\pearlstl\AppData\Local\Temp\ccSYOVYh.s 			page 35


1119:Generated_Source\PSoC6\pdl\drivers\peripheral\scb/cy_scb_i2c.h **** #define CY_SCB_I2C_MASTER_TX_BYTE_DONE (CY_SCB_MASTER_INTR_I2C_ACK       | CY_SCB_MASTER_INTR_I2C_N
1120:Generated_Source\PSoC6\pdl\drivers\peripheral\scb/cy_scb_i2c.h ****                                         CY_SCB_MASTER_INTR_I2C_BUS_ERROR | CY_SCB_MASTER_INTR_I2C_A
1121:Generated_Source\PSoC6\pdl\drivers\peripheral\scb/cy_scb_i2c.h **** 
1122:Generated_Source\PSoC6\pdl\drivers\peripheral\scb/cy_scb_i2c.h **** #define CY_SCB_I2C_MASTER_RX_BYTE_DONE (CY_SCB_MASTER_INTR_I2C_BUS_ERROR | CY_SCB_MASTER_INTR_I2C_A
1123:Generated_Source\PSoC6\pdl\drivers\peripheral\scb/cy_scb_i2c.h **** 
1124:Generated_Source\PSoC6\pdl\drivers\peripheral\scb/cy_scb_i2c.h **** #define CY_SCB_I2C_MASTER_STOP_DONE    (CY_SCB_MASTER_INTR_I2C_STOP      | \
1125:Generated_Source\PSoC6\pdl\drivers\peripheral\scb/cy_scb_i2c.h ****                                         CY_SCB_MASTER_INTR_I2C_BUS_ERROR | CY_SCB_MASTER_INTR_I2C_A
1126:Generated_Source\PSoC6\pdl\drivers\peripheral\scb/cy_scb_i2c.h **** 
1127:Generated_Source\PSoC6\pdl\drivers\peripheral\scb/cy_scb_i2c.h **** #define CY_SCB_I2C_MASTER_TIMEOUT_DONE (0x80000000UL)
1128:Generated_Source\PSoC6\pdl\drivers\peripheral\scb/cy_scb_i2c.h **** 
1129:Generated_Source\PSoC6\pdl\drivers\peripheral\scb/cy_scb_i2c.h **** /* The slave interrupt mask */
1130:Generated_Source\PSoC6\pdl\drivers\peripheral\scb/cy_scb_i2c.h **** #define CY_SCB_I2C_SLAVE_INTR      (CY_SCB_SLAVE_INTR_I2C_ADDR_MATCH | CY_SCB_SLAVE_INTR_I2C_GENERA
1131:Generated_Source\PSoC6\pdl\drivers\peripheral\scb/cy_scb_i2c.h ****                                     CY_SCB_SLAVE_INTR_I2C_STOP       | CY_SCB_SLAVE_INTR_I2C_BUS_ER
1132:Generated_Source\PSoC6\pdl\drivers\peripheral\scb/cy_scb_i2c.h ****                                     CY_SCB_SLAVE_INTR_I2C_ARB_LOST)
1133:Generated_Source\PSoC6\pdl\drivers\peripheral\scb/cy_scb_i2c.h **** 
1134:Generated_Source\PSoC6\pdl\drivers\peripheral\scb/cy_scb_i2c.h **** #define CY_SCB_I2C_SLAVE_INTR_NO_STOP   (CY_SCB_I2C_SLAVE_INTR & (uint32_t) ~CY_SCB_SLAVE_INTR_I2C_
1135:Generated_Source\PSoC6\pdl\drivers\peripheral\scb/cy_scb_i2c.h **** 
1136:Generated_Source\PSoC6\pdl\drivers\peripheral\scb/cy_scb_i2c.h **** #define CY_SCB_I2C_SLAVE_INTR_ADDR      (CY_SCB_SLAVE_INTR_I2C_ADDR_MATCH | CY_SCB_SLAVE_INTR_I2C_G
1137:Generated_Source\PSoC6\pdl\drivers\peripheral\scb/cy_scb_i2c.h **** 
1138:Generated_Source\PSoC6\pdl\drivers\peripheral\scb/cy_scb_i2c.h **** #define CY_SCB_I2C_SLAVE_ADDR_DONE      (CY_SCB_I2C_SLAVE_INTR_ADDR)
1139:Generated_Source\PSoC6\pdl\drivers\peripheral\scb/cy_scb_i2c.h **** 
1140:Generated_Source\PSoC6\pdl\drivers\peripheral\scb/cy_scb_i2c.h **** #define CY_SCB_I2C_SLAVE_INTR_NO_ADDR   (CY_SCB_I2C_SLAVE_INTR & (uint32_t) ~CY_SCB_I2C_SLAVE_INTR_
1141:Generated_Source\PSoC6\pdl\drivers\peripheral\scb/cy_scb_i2c.h **** 
1142:Generated_Source\PSoC6\pdl\drivers\peripheral\scb/cy_scb_i2c.h **** #define CY_SCB_I2C_SLAVE_INTR_TX        (CY_SCB_TX_INTR_LEVEL | CY_SCB_TX_INTR_UNDERFLOW)
1143:Generated_Source\PSoC6\pdl\drivers\peripheral\scb/cy_scb_i2c.h **** 
1144:Generated_Source\PSoC6\pdl\drivers\peripheral\scb/cy_scb_i2c.h **** #define CY_SCB_I2C_SLAVE_INTR_ERROR     (CY_SCB_SLAVE_INTR_I2C_BUS_ERROR | CY_SCB_SLAVE_INTR_I2C_AR
1145:Generated_Source\PSoC6\pdl\drivers\peripheral\scb/cy_scb_i2c.h **** 
1146:Generated_Source\PSoC6\pdl\drivers\peripheral\scb/cy_scb_i2c.h **** /* I2C states */
1147:Generated_Source\PSoC6\pdl\drivers\peripheral\scb/cy_scb_i2c.h **** #define CY_SCB_I2C_IDLE              (0x10000000UL)
1148:Generated_Source\PSoC6\pdl\drivers\peripheral\scb/cy_scb_i2c.h **** #define CY_SCB_I2C_IDLE_MASK         (0x10000000UL)
1149:Generated_Source\PSoC6\pdl\drivers\peripheral\scb/cy_scb_i2c.h **** 
1150:Generated_Source\PSoC6\pdl\drivers\peripheral\scb/cy_scb_i2c.h **** /* Master states */
1151:Generated_Source\PSoC6\pdl\drivers\peripheral\scb/cy_scb_i2c.h **** #define CY_SCB_I2C_MASTER_ACTIVE     (0x00100000UL)
1152:Generated_Source\PSoC6\pdl\drivers\peripheral\scb/cy_scb_i2c.h **** #define CY_SCB_I2C_MASTER_WAIT       (0x10100000UL)
1153:Generated_Source\PSoC6\pdl\drivers\peripheral\scb/cy_scb_i2c.h **** #define CY_SCB_I2C_MASTER_RX0        (0x00110000UL)
1154:Generated_Source\PSoC6\pdl\drivers\peripheral\scb/cy_scb_i2c.h **** #define CY_SCB_I2C_MASTER_RX1        (0x00120000UL)
1155:Generated_Source\PSoC6\pdl\drivers\peripheral\scb/cy_scb_i2c.h **** #define CY_SCB_I2C_MASTER_ADDR       (0x10130000UL)
1156:Generated_Source\PSoC6\pdl\drivers\peripheral\scb/cy_scb_i2c.h **** #define CY_SCB_I2C_MASTER_TX         (0x00140000UL)
1157:Generated_Source\PSoC6\pdl\drivers\peripheral\scb/cy_scb_i2c.h **** #define CY_SCB_I2C_MASTER_TX_DONE    (0x00150000UL)
1158:Generated_Source\PSoC6\pdl\drivers\peripheral\scb/cy_scb_i2c.h **** #define CY_SCB_I2C_MASTER_STOP       (0x00160000UL)
1159:Generated_Source\PSoC6\pdl\drivers\peripheral\scb/cy_scb_i2c.h **** #define CY_SCB_I2C_MASTER_WAIT_STOP  (0x00170000UL)
1160:Generated_Source\PSoC6\pdl\drivers\peripheral\scb/cy_scb_i2c.h **** #define CY_SCB_I2C_MASTER_CMPLT      (0x00180000UL)
1161:Generated_Source\PSoC6\pdl\drivers\peripheral\scb/cy_scb_i2c.h **** 
1162:Generated_Source\PSoC6\pdl\drivers\peripheral\scb/cy_scb_i2c.h **** /* Slave states */
1163:Generated_Source\PSoC6\pdl\drivers\peripheral\scb/cy_scb_i2c.h **** #define CY_SCB_I2C_SLAVE_ACTIVE      (0x00001000UL)
1164:Generated_Source\PSoC6\pdl\drivers\peripheral\scb/cy_scb_i2c.h **** #define CY_SCB_I2C_SLAVE_RX_MASK     (0x00001001UL)
1165:Generated_Source\PSoC6\pdl\drivers\peripheral\scb/cy_scb_i2c.h **** #define CY_SCB_I2C_SLAVE_RX          (0x00001001UL)
1166:Generated_Source\PSoC6\pdl\drivers\peripheral\scb/cy_scb_i2c.h **** #define CY_SCB_I2C_SLAVE_TX          (0x00001002UL)
1167:Generated_Source\PSoC6\pdl\drivers\peripheral\scb/cy_scb_i2c.h **** 
1168:Generated_Source\PSoC6\pdl\drivers\peripheral\scb/cy_scb_i2c.h **** /* FIFO size */
1169:Generated_Source\PSoC6\pdl\drivers\peripheral\scb/cy_scb_i2c.h **** #define CY_SCB_I2C_FIFO_SIZE          CY_SCB_FIFO_SIZE
1170:Generated_Source\PSoC6\pdl\drivers\peripheral\scb/cy_scb_i2c.h **** #define CY_SCB_I2C_HALF_FIFO_SIZE     (CY_SCB_FIFO_SIZE / 2UL)
1171:Generated_Source\PSoC6\pdl\drivers\peripheral\scb/cy_scb_i2c.h **** 
1172:Generated_Source\PSoC6\pdl\drivers\peripheral\scb/cy_scb_i2c.h **** #define CY_SCB_I2C_DEFAULT_RETURN    (0xFFUL)
1173:Generated_Source\PSoC6\pdl\drivers\peripheral\scb/cy_scb_i2c.h **** 
1174:Generated_Source\PSoC6\pdl\drivers\peripheral\scb/cy_scb_i2c.h **** /* Convert the timeout in milliseconds to microseconds */
1175:Generated_Source\PSoC6\pdl\drivers\peripheral\scb/cy_scb_i2c.h **** #define CY_SCB_I2C_CONVERT_TIMEOUT_TO_US(timeoutMs)     ((timeoutMs) * 1000UL)
ARM GAS  C:\Users\pearlstl\AppData\Local\Temp\ccSYOVYh.s 			page 36


1176:Generated_Source\PSoC6\pdl\drivers\peripheral\scb/cy_scb_i2c.h **** 
1177:Generated_Source\PSoC6\pdl\drivers\peripheral\scb/cy_scb_i2c.h **** /* I2C data rates max (Hz): standard, fast and fast plus modes */
1178:Generated_Source\PSoC6\pdl\drivers\peripheral\scb/cy_scb_i2c.h **** #define CY_SCB_I2C_STD_DATA_RATE    (100000U)
1179:Generated_Source\PSoC6\pdl\drivers\peripheral\scb/cy_scb_i2c.h **** #define CY_SCB_I2C_FST_DATA_RATE    (400000U)
1180:Generated_Source\PSoC6\pdl\drivers\peripheral\scb/cy_scb_i2c.h **** #define CY_SCB_I2C_FSTP_DATA_RATE  (1000000U)
1181:Generated_Source\PSoC6\pdl\drivers\peripheral\scb/cy_scb_i2c.h **** 
1182:Generated_Source\PSoC6\pdl\drivers\peripheral\scb/cy_scb_i2c.h **** /* Slave clock limits */
1183:Generated_Source\PSoC6\pdl\drivers\peripheral\scb/cy_scb_i2c.h **** #define CY_SCB_I2C_SLAVE_STD_CLK_MIN    (1550000U)
1184:Generated_Source\PSoC6\pdl\drivers\peripheral\scb/cy_scb_i2c.h **** #define CY_SCB_I2C_SLAVE_STD_CLK_MAX   (12800000U)
1185:Generated_Source\PSoC6\pdl\drivers\peripheral\scb/cy_scb_i2c.h **** #define CY_SCB_I2C_SLAVE_FST_CLK_MIN    (7820000U)
1186:Generated_Source\PSoC6\pdl\drivers\peripheral\scb/cy_scb_i2c.h **** #define CY_SCB_I2C_SLAVE_FST_CLK_MAX   (15380000U)
1187:Generated_Source\PSoC6\pdl\drivers\peripheral\scb/cy_scb_i2c.h **** #define CY_SCB_I2C_SLAVE_FSTP_CLK_MIN  (15840000U)
1188:Generated_Source\PSoC6\pdl\drivers\peripheral\scb/cy_scb_i2c.h **** #define CY_SCB_I2C_SLAVE_FSTP_CLK_MAX  (89000000U)
1189:Generated_Source\PSoC6\pdl\drivers\peripheral\scb/cy_scb_i2c.h **** 
1190:Generated_Source\PSoC6\pdl\drivers\peripheral\scb/cy_scb_i2c.h **** /* Master clock (Hz) and duty cycle limits for standard mode */
1191:Generated_Source\PSoC6\pdl\drivers\peripheral\scb/cy_scb_i2c.h **** #define CY_SCB_I2C_MASTER_STD_CLK_MIN           (1550000U)
1192:Generated_Source\PSoC6\pdl\drivers\peripheral\scb/cy_scb_i2c.h **** #define CY_SCB_I2C_MASTER_STD_CLK_MAX           (3200000U)
1193:Generated_Source\PSoC6\pdl\drivers\peripheral\scb/cy_scb_i2c.h **** #define CY_SCB_I2C_MASTER_STD_LOW_PHASE_MIN     (8U)
1194:Generated_Source\PSoC6\pdl\drivers\peripheral\scb/cy_scb_i2c.h **** #define CY_SCB_I2C_MASTER_STD_HIGH_PHASE_MIN    (8U)
1195:Generated_Source\PSoC6\pdl\drivers\peripheral\scb/cy_scb_i2c.h **** 
1196:Generated_Source\PSoC6\pdl\drivers\peripheral\scb/cy_scb_i2c.h **** /* Master clock (Hz) and duty cycle limits for fast mode */
1197:Generated_Source\PSoC6\pdl\drivers\peripheral\scb/cy_scb_i2c.h **** #define CY_SCB_I2C_MASTER_FST_CLK_MIN           (7820000U)
1198:Generated_Source\PSoC6\pdl\drivers\peripheral\scb/cy_scb_i2c.h **** #define CY_SCB_I2C_MASTER_FST_CLK_MAX           (10000000U)
1199:Generated_Source\PSoC6\pdl\drivers\peripheral\scb/cy_scb_i2c.h **** #define CY_SCB_I2C_MASTER_FST_LOW_PHASE_MIN     (13U)
1200:Generated_Source\PSoC6\pdl\drivers\peripheral\scb/cy_scb_i2c.h **** #define CY_SCB_I2C_MASTER_FST_HIGH_PHASE_MIN    (8U)
1201:Generated_Source\PSoC6\pdl\drivers\peripheral\scb/cy_scb_i2c.h **** 
1202:Generated_Source\PSoC6\pdl\drivers\peripheral\scb/cy_scb_i2c.h **** /* Master clock (Hz) and duty cycle limits for fast plus mode */
1203:Generated_Source\PSoC6\pdl\drivers\peripheral\scb/cy_scb_i2c.h **** #define CY_SCB_I2C_MASTER_FSTP_CLK_MIN          (14320000U)
1204:Generated_Source\PSoC6\pdl\drivers\peripheral\scb/cy_scb_i2c.h **** #define CY_SCB_I2C_MASTER_FSTP_CLK_MAX          (25800000U)
1205:Generated_Source\PSoC6\pdl\drivers\peripheral\scb/cy_scb_i2c.h **** #define CY_SCB_I2C_MASTER_FSTP_LOW_PHASE_MIN    (9U)
1206:Generated_Source\PSoC6\pdl\drivers\peripheral\scb/cy_scb_i2c.h **** #define CY_SCB_I2C_MASTER_FSTP_HIGH_PHASE_MIN   (6U)
1207:Generated_Source\PSoC6\pdl\drivers\peripheral\scb/cy_scb_i2c.h **** 
1208:Generated_Source\PSoC6\pdl\drivers\peripheral\scb/cy_scb_i2c.h **** /* SCL low and high time in ns. Takes into account tF and tR */
1209:Generated_Source\PSoC6\pdl\drivers\peripheral\scb/cy_scb_i2c.h **** #define CY_SCB_I2C_MASTER_STD_SCL_LOW   (5000U) /* tLOW  + tF = 4700 + 300  */
1210:Generated_Source\PSoC6\pdl\drivers\peripheral\scb/cy_scb_i2c.h **** #define CY_SCB_I2C_MASTER_STD_SCL_HIGH  (5000U) /* tHIGH + tR = 4000 + 1000 */
1211:Generated_Source\PSoC6\pdl\drivers\peripheral\scb/cy_scb_i2c.h **** #define CY_SCB_I2C_MASTER_FST_SCL_LOW   (1600U) /* tLOW  + tF = 1300 + 300  */
1212:Generated_Source\PSoC6\pdl\drivers\peripheral\scb/cy_scb_i2c.h **** #define CY_SCB_I2C_MASTER_FST_SCL_HIGH   (900U) /* tHIGH + tR = 600 + 300   */
1213:Generated_Source\PSoC6\pdl\drivers\peripheral\scb/cy_scb_i2c.h **** #define CY_SCB_I2C_MASTER_FSTP_SCL_LOW   (620U) /* tLOW  + tF = 500 + 120   */
1214:Generated_Source\PSoC6\pdl\drivers\peripheral\scb/cy_scb_i2c.h **** #define CY_SCB_I2C_MASTER_FSTP_SCL_HIGH  (380U) /* tHIGH + tR = 260 + 120   */
1215:Generated_Source\PSoC6\pdl\drivers\peripheral\scb/cy_scb_i2c.h **** 
1216:Generated_Source\PSoC6\pdl\drivers\peripheral\scb/cy_scb_i2c.h **** /* Master duty cycle limits */
1217:Generated_Source\PSoC6\pdl\drivers\peripheral\scb/cy_scb_i2c.h **** #define CY_SCB_I2C_LOW_PHASE_MAX    (16U)
1218:Generated_Source\PSoC6\pdl\drivers\peripheral\scb/cy_scb_i2c.h **** #define CY_SCB_I2C_HIGH_PHASE_MAX   (16U)
1219:Generated_Source\PSoC6\pdl\drivers\peripheral\scb/cy_scb_i2c.h **** #define CY_SCB_I2C_DUTY_CYCLE_MAX   (CY_SCB_I2C_LOW_PHASE_MAX + CY_SCB_I2C_HIGH_PHASE_MAX)
1220:Generated_Source\PSoC6\pdl\drivers\peripheral\scb/cy_scb_i2c.h **** 
1221:Generated_Source\PSoC6\pdl\drivers\peripheral\scb/cy_scb_i2c.h **** /* Analog filter settings. */
1222:Generated_Source\PSoC6\pdl\drivers\peripheral\scb/cy_scb_i2c.h **** #define CY_SCB_I2C_ENABLE_ANALOG_FITLER    (CY_SCB_I2C_CFG_DEF_VAL)
1223:Generated_Source\PSoC6\pdl\drivers\peripheral\scb/cy_scb_i2c.h **** #define CY_SCB_I2C_DISABLE_ANALOG_FITLER   (CY_SCB_I2C_CFG_DEF_VAL & \
1224:Generated_Source\PSoC6\pdl\drivers\peripheral\scb/cy_scb_i2c.h ****                                             (uint32_t) ~(SCB_I2C_CFG_SDA_IN_FILT_SEL_Msk | \
1225:Generated_Source\PSoC6\pdl\drivers\peripheral\scb/cy_scb_i2c.h ****                                                          SCB_I2C_CFG_SCL_IN_FILT_SEL_Msk))
1226:Generated_Source\PSoC6\pdl\drivers\peripheral\scb/cy_scb_i2c.h **** 
1227:Generated_Source\PSoC6\pdl\drivers\peripheral\scb/cy_scb_i2c.h **** #define CY_SCB_I2C_IS_MODE_VALID(mode)      ( (CY_SCB_I2C_SLAVE  == (mode)) || \
1228:Generated_Source\PSoC6\pdl\drivers\peripheral\scb/cy_scb_i2c.h ****                                               (CY_SCB_I2C_MASTER == (mode)) || \
1229:Generated_Source\PSoC6\pdl\drivers\peripheral\scb/cy_scb_i2c.h ****                                               (CY_SCB_I2C_MASTER_SLAVE == (mode)) )
1230:Generated_Source\PSoC6\pdl\drivers\peripheral\scb/cy_scb_i2c.h **** 
1231:Generated_Source\PSoC6\pdl\drivers\peripheral\scb/cy_scb_i2c.h **** #define CY_SCB_I2C_IS_RW_BIT_VALID(dir)     ( (CY_SCB_I2C_WRITE_XFER == (dir)) || \
1232:Generated_Source\PSoC6\pdl\drivers\peripheral\scb/cy_scb_i2c.h ****                                               (CY_SCB_I2C_READ_XFER  == (dir)) )
ARM GAS  C:\Users\pearlstl\AppData\Local\Temp\ccSYOVYh.s 			page 37


1233:Generated_Source\PSoC6\pdl\drivers\peripheral\scb/cy_scb_i2c.h **** 
1234:Generated_Source\PSoC6\pdl\drivers\peripheral\scb/cy_scb_i2c.h **** #define CY_SCB_I2C_IS_RESPONSE_VALID(cmd)   ( (CY_SCB_I2C_ACK == (cmd))  || \
1235:Generated_Source\PSoC6\pdl\drivers\peripheral\scb/cy_scb_i2c.h ****                                               (CY_SCB_I2C_NAK == (cmd)) )
1236:Generated_Source\PSoC6\pdl\drivers\peripheral\scb/cy_scb_i2c.h **** 
1237:Generated_Source\PSoC6\pdl\drivers\peripheral\scb/cy_scb_i2c.h **** #define CY_SCB_I2C_IS_ADDR_MASK_VALID(mask)         ( (0U == ((mask) & 0x01U)) )
1238:Generated_Source\PSoC6\pdl\drivers\peripheral\scb/cy_scb_i2c.h **** 
1239:Generated_Source\PSoC6\pdl\drivers\peripheral\scb/cy_scb_i2c.h **** #define CY_SCB_I2C_IS_PHASE_OVERSAMPLE_VALID(phaseOvs)  ((phaseOvs) <= 16U)
1240:Generated_Source\PSoC6\pdl\drivers\peripheral\scb/cy_scb_i2c.h **** 
1241:Generated_Source\PSoC6\pdl\drivers\peripheral\scb/cy_scb_i2c.h **** #define CY_SCB_I2C_IS_DATA_RATE_VALID(dataRateHz)   ( ((dataRateHz) > 0UL) && \
1242:Generated_Source\PSoC6\pdl\drivers\peripheral\scb/cy_scb_i2c.h ****                                                       ((dataRateHz) <= CY_SCB_I2C_FSTP_DATA_RATE) )
1243:Generated_Source\PSoC6\pdl\drivers\peripheral\scb/cy_scb_i2c.h **** 
1244:Generated_Source\PSoC6\pdl\drivers\peripheral\scb/cy_scb_i2c.h **** #define CY_SCB_I2C_IS_TIMEOUT_VALID(timeoutMs)              ( (timeoutMs) <= (0xFFFFFFFFUL / 1000UL
1245:Generated_Source\PSoC6\pdl\drivers\peripheral\scb/cy_scb_i2c.h **** #define CY_SCB_I2C_IS_LOW_PHASE_CYCLES_VALID(clockCycles)   ( ((clockCycles) >= 7UL) && ((clockCycl
1246:Generated_Source\PSoC6\pdl\drivers\peripheral\scb/cy_scb_i2c.h **** #define CY_SCB_I2C_IS_HIGH_PHASE_CYCLES_VALID(clockCycles)  ( ((clockCycles) >= 5UL) && ((clockCycl
1247:Generated_Source\PSoC6\pdl\drivers\peripheral\scb/cy_scb_i2c.h **** 
1248:Generated_Source\PSoC6\pdl\drivers\peripheral\scb/cy_scb_i2c.h **** /** \endcond */
1249:Generated_Source\PSoC6\pdl\drivers\peripheral\scb/cy_scb_i2c.h **** 
1250:Generated_Source\PSoC6\pdl\drivers\peripheral\scb/cy_scb_i2c.h **** /** \} group_scb_i2c_macros */
1251:Generated_Source\PSoC6\pdl\drivers\peripheral\scb/cy_scb_i2c.h **** 
1252:Generated_Source\PSoC6\pdl\drivers\peripheral\scb/cy_scb_i2c.h **** 
1253:Generated_Source\PSoC6\pdl\drivers\peripheral\scb/cy_scb_i2c.h **** /*******************************************************************************
1254:Generated_Source\PSoC6\pdl\drivers\peripheral\scb/cy_scb_i2c.h **** *                     In-line Function Implementation
1255:Generated_Source\PSoC6\pdl\drivers\peripheral\scb/cy_scb_i2c.h **** *******************************************************************************/
1256:Generated_Source\PSoC6\pdl\drivers\peripheral\scb/cy_scb_i2c.h **** 
1257:Generated_Source\PSoC6\pdl\drivers\peripheral\scb/cy_scb_i2c.h **** /**
1258:Generated_Source\PSoC6\pdl\drivers\peripheral\scb/cy_scb_i2c.h **** * \addtogroup group_scb_i2c_general_functions
1259:Generated_Source\PSoC6\pdl\drivers\peripheral\scb/cy_scb_i2c.h **** * \{
1260:Generated_Source\PSoC6\pdl\drivers\peripheral\scb/cy_scb_i2c.h **** */
1261:Generated_Source\PSoC6\pdl\drivers\peripheral\scb/cy_scb_i2c.h **** 
1262:Generated_Source\PSoC6\pdl\drivers\peripheral\scb/cy_scb_i2c.h **** /*******************************************************************************
1263:Generated_Source\PSoC6\pdl\drivers\peripheral\scb/cy_scb_i2c.h **** * Function Name: Cy_SCB_I2C_Enable
1264:Generated_Source\PSoC6\pdl\drivers\peripheral\scb/cy_scb_i2c.h **** ****************************************************************************//**
1265:Generated_Source\PSoC6\pdl\drivers\peripheral\scb/cy_scb_i2c.h **** *
1266:Generated_Source\PSoC6\pdl\drivers\peripheral\scb/cy_scb_i2c.h **** * Enables the SCB block for the I2C operation
1267:Generated_Source\PSoC6\pdl\drivers\peripheral\scb/cy_scb_i2c.h **** *
1268:Generated_Source\PSoC6\pdl\drivers\peripheral\scb/cy_scb_i2c.h **** * \param base
1269:Generated_Source\PSoC6\pdl\drivers\peripheral\scb/cy_scb_i2c.h **** * The pointer to the I2C SCB instance.
1270:Generated_Source\PSoC6\pdl\drivers\peripheral\scb/cy_scb_i2c.h **** *
1271:Generated_Source\PSoC6\pdl\drivers\peripheral\scb/cy_scb_i2c.h **** *******************************************************************************/
1272:Generated_Source\PSoC6\pdl\drivers\peripheral\scb/cy_scb_i2c.h **** __STATIC_INLINE void Cy_SCB_I2C_Enable(CySCB_Type *base)
1273:Generated_Source\PSoC6\pdl\drivers\peripheral\scb/cy_scb_i2c.h **** {
1274:Generated_Source\PSoC6\pdl\drivers\peripheral\scb/cy_scb_i2c.h ****     SCB_CTRL(base) |= SCB_CTRL_ENABLED_Msk;
 386              		.loc 2 1274 0
 387 001e 1A68     		ldr	r2, [r3]
 388 0020 42F00042 		orr	r2, r2, #-2147483648
 389 0024 1A60     		str	r2, [r3]
 390              	.LVL16:
 391              	.L39:
 392              	.LBE335:
 393              	.LBE334:
 374:Generated_Source\PSoC6\pdl\drivers\peripheral\scb/cy_scb_i2c.c ****             {
 375:Generated_Source\PSoC6\pdl\drivers\peripheral\scb/cy_scb_i2c.c ****                 /* Enable SCB clock */
 376:Generated_Source\PSoC6\pdl\drivers\peripheral\scb/cy_scb_i2c.c ****                 SCB_I2C_CFG(locBase) |= CY_SCB_I2C_CFG_CLK_ENABLE_Msk;
 377:Generated_Source\PSoC6\pdl\drivers\peripheral\scb/cy_scb_i2c.c **** 
 378:Generated_Source\PSoC6\pdl\drivers\peripheral\scb/cy_scb_i2c.c ****                 /* IMPORTANT (replace line above for the CY8CKIT-062 rev-08):
 379:Generated_Source\PSoC6\pdl\drivers\peripheral\scb/cy_scb_i2c.c ****                 * for proper exiting Deep Sleep, the I2C clock must be enabled.
 380:Generated_Source\PSoC6\pdl\drivers\peripheral\scb/cy_scb_i2c.c ****                 * This code must be inserted by the user because the driver
ARM GAS  C:\Users\pearlstl\AppData\Local\Temp\ccSYOVYh.s 			page 38


 381:Generated_Source\PSoC6\pdl\drivers\peripheral\scb/cy_scb_i2c.c ****                 * does not have access to the clock.
 382:Generated_Source\PSoC6\pdl\drivers\peripheral\scb/cy_scb_i2c.c ****                 */
 383:Generated_Source\PSoC6\pdl\drivers\peripheral\scb/cy_scb_i2c.c **** 
 384:Generated_Source\PSoC6\pdl\drivers\peripheral\scb/cy_scb_i2c.c ****                 /* The SCB is wakeup-capable: disable the I2C wakeup interrupt
 385:Generated_Source\PSoC6\pdl\drivers\peripheral\scb/cy_scb_i2c.c ****                 * source and restore slave interrupt sources.
 386:Generated_Source\PSoC6\pdl\drivers\peripheral\scb/cy_scb_i2c.c ****                 */
 387:Generated_Source\PSoC6\pdl\drivers\peripheral\scb/cy_scb_i2c.c ****                 Cy_SCB_SetI2CInterruptMask  (locBase, CY_SCB_CLEAR_ALL_INTR_SRC);
 388:Generated_Source\PSoC6\pdl\drivers\peripheral\scb/cy_scb_i2c.c ****                 Cy_SCB_SetSlaveInterruptMask(locBase, CY_SCB_I2C_SLAVE_INTR);
 389:Generated_Source\PSoC6\pdl\drivers\peripheral\scb/cy_scb_i2c.c ****             }
 390:Generated_Source\PSoC6\pdl\drivers\peripheral\scb/cy_scb_i2c.c ****             else
 391:Generated_Source\PSoC6\pdl\drivers\peripheral\scb/cy_scb_i2c.c ****             {
 392:Generated_Source\PSoC6\pdl\drivers\peripheral\scb/cy_scb_i2c.c ****                 /* The SCB is NOT wakeup-capable: enable the I2C to operate */
 393:Generated_Source\PSoC6\pdl\drivers\peripheral\scb/cy_scb_i2c.c ****                 Cy_SCB_I2C_Enable(locBase);
 394:Generated_Source\PSoC6\pdl\drivers\peripheral\scb/cy_scb_i2c.c ****             }
 395:Generated_Source\PSoC6\pdl\drivers\peripheral\scb/cy_scb_i2c.c **** 
 396:Generated_Source\PSoC6\pdl\drivers\peripheral\scb/cy_scb_i2c.c ****             retStatus = CY_SYSPM_SUCCESS;
 397:Generated_Source\PSoC6\pdl\drivers\peripheral\scb/cy_scb_i2c.c ****         }
 398:Generated_Source\PSoC6\pdl\drivers\peripheral\scb/cy_scb_i2c.c ****         break;
 399:Generated_Source\PSoC6\pdl\drivers\peripheral\scb/cy_scb_i2c.c **** 
 400:Generated_Source\PSoC6\pdl\drivers\peripheral\scb/cy_scb_i2c.c ****         default:
 401:Generated_Source\PSoC6\pdl\drivers\peripheral\scb/cy_scb_i2c.c ****             break;
 402:Generated_Source\PSoC6\pdl\drivers\peripheral\scb/cy_scb_i2c.c ****     }
 403:Generated_Source\PSoC6\pdl\drivers\peripheral\scb/cy_scb_i2c.c **** 
 404:Generated_Source\PSoC6\pdl\drivers\peripheral\scb/cy_scb_i2c.c ****     return (retStatus);
 405:Generated_Source\PSoC6\pdl\drivers\peripheral\scb/cy_scb_i2c.c **** }
 394              		.loc 1 405 0
 395 0026 30BC     		pop	{r4, r5}
 396              		.cfi_remember_state
 397              		.cfi_restore 5
 398              		.cfi_restore 4
 399              		.cfi_def_cfa_offset 0
 400 0028 7047     		bx	lr
 401              	.LVL17:
 402              	.L43:
 403              		.cfi_restore_state
 347:Generated_Source\PSoC6\pdl\drivers\peripheral\scb/cy_scb_i2c.c ****             {
 404              		.loc 1 347 0
 405 002a 1868     		ldr	r0, [r3]
 406              	.LVL18:
 407 002c 10F48070 		ands	r0, r0, #256
 408 0030 F9D0     		beq	.L39
 409              	.LVL19:
 410              	.LBB336:
 411              	.LBB337:
 412              		.file 3 "Generated_Source\\PSoC6\\pdl\\drivers\\peripheral\\scb\\cy_scb_common.h"
   1:Generated_Source\PSoC6\pdl\drivers\peripheral\scb/cy_scb_common.h **** /***************************************************************************//**
   2:Generated_Source\PSoC6\pdl\drivers\peripheral\scb/cy_scb_common.h **** * \file cy_scb_common.h
   3:Generated_Source\PSoC6\pdl\drivers\peripheral\scb/cy_scb_common.h **** * \version 2.20
   4:Generated_Source\PSoC6\pdl\drivers\peripheral\scb/cy_scb_common.h **** *
   5:Generated_Source\PSoC6\pdl\drivers\peripheral\scb/cy_scb_common.h **** * Provides common API declarations of the SCB driver.
   6:Generated_Source\PSoC6\pdl\drivers\peripheral\scb/cy_scb_common.h **** *
   7:Generated_Source\PSoC6\pdl\drivers\peripheral\scb/cy_scb_common.h **** ********************************************************************************
   8:Generated_Source\PSoC6\pdl\drivers\peripheral\scb/cy_scb_common.h **** * \copyright
   9:Generated_Source\PSoC6\pdl\drivers\peripheral\scb/cy_scb_common.h **** * Copyright 2016-2018, Cypress Semiconductor Corporation.  All rights reserved.
  10:Generated_Source\PSoC6\pdl\drivers\peripheral\scb/cy_scb_common.h **** * You may use this file only in accordance with the license, terms, conditions,
  11:Generated_Source\PSoC6\pdl\drivers\peripheral\scb/cy_scb_common.h **** * disclaimers, and limitations in the end user license agreement accompanying
  12:Generated_Source\PSoC6\pdl\drivers\peripheral\scb/cy_scb_common.h **** * the software package with which this file was provided.
ARM GAS  C:\Users\pearlstl\AppData\Local\Temp\ccSYOVYh.s 			page 39


  13:Generated_Source\PSoC6\pdl\drivers\peripheral\scb/cy_scb_common.h **** *******************************************************************************/
  14:Generated_Source\PSoC6\pdl\drivers\peripheral\scb/cy_scb_common.h **** 
  15:Generated_Source\PSoC6\pdl\drivers\peripheral\scb/cy_scb_common.h **** /**
  16:Generated_Source\PSoC6\pdl\drivers\peripheral\scb/cy_scb_common.h **** * \addtogroup group_scb
  17:Generated_Source\PSoC6\pdl\drivers\peripheral\scb/cy_scb_common.h **** * \{
  18:Generated_Source\PSoC6\pdl\drivers\peripheral\scb/cy_scb_common.h **** * The Serial Communications Block (SCB) supports three serial communication 
  19:Generated_Source\PSoC6\pdl\drivers\peripheral\scb/cy_scb_common.h **** * protocols: Serial Peripheral Interface (SPI), Universal Asynchronous Receiver 
  20:Generated_Source\PSoC6\pdl\drivers\peripheral\scb/cy_scb_common.h **** * Transmitter (UART), and Inter Integrated Circuit (I2C or IIC). Only one of 
  21:Generated_Source\PSoC6\pdl\drivers\peripheral\scb/cy_scb_common.h **** * the protocols is supported by an SCB at any given time.
  22:Generated_Source\PSoC6\pdl\drivers\peripheral\scb/cy_scb_common.h **** *
  23:Generated_Source\PSoC6\pdl\drivers\peripheral\scb/cy_scb_common.h **** * The functions and other declarations used in this driver are in cy_scb_spi.h, 
  24:Generated_Source\PSoC6\pdl\drivers\peripheral\scb/cy_scb_common.h **** * cy_scb_uart.h, cy_scb_ezi2c.h, cy_scb_i2c.h respectively. Include cy_pdl.h 
  25:Generated_Source\PSoC6\pdl\drivers\peripheral\scb/cy_scb_common.h **** * (ModusToolbox only) to get access to all functions and declarations in the PDL.
  26:Generated_Source\PSoC6\pdl\drivers\peripheral\scb/cy_scb_common.h **** 
  27:Generated_Source\PSoC6\pdl\drivers\peripheral\scb/cy_scb_common.h **** * \defgroup group_scb_common Common
  28:Generated_Source\PSoC6\pdl\drivers\peripheral\scb/cy_scb_common.h **** * \defgroup group_scb_ezi2c  EZI2C (SCB)
  29:Generated_Source\PSoC6\pdl\drivers\peripheral\scb/cy_scb_common.h **** * \defgroup group_scb_i2c    I2C (SCB)
  30:Generated_Source\PSoC6\pdl\drivers\peripheral\scb/cy_scb_common.h **** * \defgroup group_scb_spi    SPI (SCB)
  31:Generated_Source\PSoC6\pdl\drivers\peripheral\scb/cy_scb_common.h **** * \defgroup group_scb_uart   UART (SCB)
  32:Generated_Source\PSoC6\pdl\drivers\peripheral\scb/cy_scb_common.h **** * \} */
  33:Generated_Source\PSoC6\pdl\drivers\peripheral\scb/cy_scb_common.h **** 
  34:Generated_Source\PSoC6\pdl\drivers\peripheral\scb/cy_scb_common.h **** /**
  35:Generated_Source\PSoC6\pdl\drivers\peripheral\scb/cy_scb_common.h **** * \addtogroup group_scb_common
  36:Generated_Source\PSoC6\pdl\drivers\peripheral\scb/cy_scb_common.h **** * \{
  37:Generated_Source\PSoC6\pdl\drivers\peripheral\scb/cy_scb_common.h **** *
  38:Generated_Source\PSoC6\pdl\drivers\peripheral\scb/cy_scb_common.h **** * Common API for the Serial Communication Block.
  39:Generated_Source\PSoC6\pdl\drivers\peripheral\scb/cy_scb_common.h **** *
  40:Generated_Source\PSoC6\pdl\drivers\peripheral\scb/cy_scb_common.h **** * This is the common API that provides an interface to the SCB hardware.
  41:Generated_Source\PSoC6\pdl\drivers\peripheral\scb/cy_scb_common.h **** * The I2C, SPI, and UART drivers use this common API.
  42:Generated_Source\PSoC6\pdl\drivers\peripheral\scb/cy_scb_common.h **** * Most users will use individual drivers and do not need to use the common
  43:Generated_Source\PSoC6\pdl\drivers\peripheral\scb/cy_scb_common.h **** * API for the SCB. However, you can use the common SCB API to implement
  44:Generated_Source\PSoC6\pdl\drivers\peripheral\scb/cy_scb_common.h **** * a custom driver based on the SCB hardware.
  45:Generated_Source\PSoC6\pdl\drivers\peripheral\scb/cy_scb_common.h **** *
  46:Generated_Source\PSoC6\pdl\drivers\peripheral\scb/cy_scb_common.h **** * The functions and other declarations used in this part of the driver are in 
  47:Generated_Source\PSoC6\pdl\drivers\peripheral\scb/cy_scb_common.h **** * cy_scb_common.h. You can include either of cy_scb_spi.h, cy_scb_uart.h, 
  48:Generated_Source\PSoC6\pdl\drivers\peripheral\scb/cy_scb_common.h **** * cy_scb_ezi2c.h, cy_scb_i2c.h depending on the desired functionality. 
  49:Generated_Source\PSoC6\pdl\drivers\peripheral\scb/cy_scb_common.h **** * You can also include cy_pdl.h to get access to all functions and declarations 
  50:Generated_Source\PSoC6\pdl\drivers\peripheral\scb/cy_scb_common.h **** * in the PDL.
  51:Generated_Source\PSoC6\pdl\drivers\peripheral\scb/cy_scb_common.h **** *
  52:Generated_Source\PSoC6\pdl\drivers\peripheral\scb/cy_scb_common.h **** *******************************************************************************
  53:Generated_Source\PSoC6\pdl\drivers\peripheral\scb/cy_scb_common.h **** * \section group_scb_common_configuration Configuration Considerations
  54:Generated_Source\PSoC6\pdl\drivers\peripheral\scb/cy_scb_common.h **** ********************************************************************************
  55:Generated_Source\PSoC6\pdl\drivers\peripheral\scb/cy_scb_common.h **** * This is not a driver and it does not require configuration.
  56:Generated_Source\PSoC6\pdl\drivers\peripheral\scb/cy_scb_common.h **** *
  57:Generated_Source\PSoC6\pdl\drivers\peripheral\scb/cy_scb_common.h **** *******************************************************************************
  58:Generated_Source\PSoC6\pdl\drivers\peripheral\scb/cy_scb_common.h **** * \section group_scb_common_more_information More Information
  59:Generated_Source\PSoC6\pdl\drivers\peripheral\scb/cy_scb_common.h **** *******************************************************************************
  60:Generated_Source\PSoC6\pdl\drivers\peripheral\scb/cy_scb_common.h **** * Refer to the SCB chapter of the technical reference manual (TRM).
  61:Generated_Source\PSoC6\pdl\drivers\peripheral\scb/cy_scb_common.h **** *
  62:Generated_Source\PSoC6\pdl\drivers\peripheral\scb/cy_scb_common.h **** *******************************************************************************
  63:Generated_Source\PSoC6\pdl\drivers\peripheral\scb/cy_scb_common.h **** * \section group_scb_common_MISRA MISRA-C Compliance
  64:Generated_Source\PSoC6\pdl\drivers\peripheral\scb/cy_scb_common.h **** *******************************************************************************
  65:Generated_Source\PSoC6\pdl\drivers\peripheral\scb/cy_scb_common.h **** * <table class="doxtable">
  66:Generated_Source\PSoC6\pdl\drivers\peripheral\scb/cy_scb_common.h **** *   <tr>
  67:Generated_Source\PSoC6\pdl\drivers\peripheral\scb/cy_scb_common.h **** *     <th>MISRA rule</th>
  68:Generated_Source\PSoC6\pdl\drivers\peripheral\scb/cy_scb_common.h **** *     <th>Rule Class (Required/Advisory)</th>
  69:Generated_Source\PSoC6\pdl\drivers\peripheral\scb/cy_scb_common.h **** *     <th>Rule Description</th>
ARM GAS  C:\Users\pearlstl\AppData\Local\Temp\ccSYOVYh.s 			page 40


  70:Generated_Source\PSoC6\pdl\drivers\peripheral\scb/cy_scb_common.h **** *     <th>Description of Deviation(s)</th>
  71:Generated_Source\PSoC6\pdl\drivers\peripheral\scb/cy_scb_common.h **** *   </tr>
  72:Generated_Source\PSoC6\pdl\drivers\peripheral\scb/cy_scb_common.h **** *   <tr>
  73:Generated_Source\PSoC6\pdl\drivers\peripheral\scb/cy_scb_common.h **** *     <td>11.4</td>
  74:Generated_Source\PSoC6\pdl\drivers\peripheral\scb/cy_scb_common.h **** *     <td>A</td>
  75:Generated_Source\PSoC6\pdl\drivers\peripheral\scb/cy_scb_common.h **** *     <td>A cast should not be performed between a pointer to object type and
  76:Generated_Source\PSoC6\pdl\drivers\peripheral\scb/cy_scb_common.h **** *         a different pointer to object type.</td>
  77:Generated_Source\PSoC6\pdl\drivers\peripheral\scb/cy_scb_common.h **** *     <td>The pointer to the buffer memory is void to allow handling of
  78:Generated_Source\PSoC6\pdl\drivers\peripheral\scb/cy_scb_common.h **** *         different data types: uint8_t (4-8 bits) or uint16_t (9-16 bits).
  79:Generated_Source\PSoC6\pdl\drivers\peripheral\scb/cy_scb_common.h **** *         The cast operation is safe because the configuration is verified
  80:Generated_Source\PSoC6\pdl\drivers\peripheral\scb/cy_scb_common.h **** *         before operation is performed.
  81:Generated_Source\PSoC6\pdl\drivers\peripheral\scb/cy_scb_common.h **** *         </td>
  82:Generated_Source\PSoC6\pdl\drivers\peripheral\scb/cy_scb_common.h **** *   </tr>
  83:Generated_Source\PSoC6\pdl\drivers\peripheral\scb/cy_scb_common.h **** * </table>
  84:Generated_Source\PSoC6\pdl\drivers\peripheral\scb/cy_scb_common.h **** *
  85:Generated_Source\PSoC6\pdl\drivers\peripheral\scb/cy_scb_common.h **** *******************************************************************************
  86:Generated_Source\PSoC6\pdl\drivers\peripheral\scb/cy_scb_common.h **** * \section group_scb_common_changelog Changelog
  87:Generated_Source\PSoC6\pdl\drivers\peripheral\scb/cy_scb_common.h **** *******************************************************************************
  88:Generated_Source\PSoC6\pdl\drivers\peripheral\scb/cy_scb_common.h **** * <table class="doxtable">
  89:Generated_Source\PSoC6\pdl\drivers\peripheral\scb/cy_scb_common.h **** *   <tr><th>Version</th><th>Changes</th><th>Reason for Change</th></tr>
  90:Generated_Source\PSoC6\pdl\drivers\peripheral\scb/cy_scb_common.h **** *   <tr>
  91:Generated_Source\PSoC6\pdl\drivers\peripheral\scb/cy_scb_common.h **** *     <td rowspan="2">2.20</td>
  92:Generated_Source\PSoC6\pdl\drivers\peripheral\scb/cy_scb_common.h **** *     <td>Flattened the organization of the driver source code into the single 
  93:Generated_Source\PSoC6\pdl\drivers\peripheral\scb/cy_scb_common.h **** *         source directory and the single include directory.
  94:Generated_Source\PSoC6\pdl\drivers\peripheral\scb/cy_scb_common.h **** *     </td>
  95:Generated_Source\PSoC6\pdl\drivers\peripheral\scb/cy_scb_common.h **** *     <td>Driver library directory-structure simplification.</td>
  96:Generated_Source\PSoC6\pdl\drivers\peripheral\scb/cy_scb_common.h **** *   </tr>
  97:Generated_Source\PSoC6\pdl\drivers\peripheral\scb/cy_scb_common.h **** *   <tr>
  98:Generated_Source\PSoC6\pdl\drivers\peripheral\scb/cy_scb_common.h **** *     <td>Added register access layer. Use register access macros instead
  99:Generated_Source\PSoC6\pdl\drivers\peripheral\scb/cy_scb_common.h **** *         of direct register access using dereferenced pointers.</td>
 100:Generated_Source\PSoC6\pdl\drivers\peripheral\scb/cy_scb_common.h **** *     <td>Makes register access device-independent, so that the PDL does 
 101:Generated_Source\PSoC6\pdl\drivers\peripheral\scb/cy_scb_common.h **** *         not need to be recompiled for each supported part number.</td>
 102:Generated_Source\PSoC6\pdl\drivers\peripheral\scb/cy_scb_common.h **** *   </tr>
 103:Generated_Source\PSoC6\pdl\drivers\peripheral\scb/cy_scb_common.h **** *   <tr>
 104:Generated_Source\PSoC6\pdl\drivers\peripheral\scb/cy_scb_common.h **** *     <td>2.10</td>
 105:Generated_Source\PSoC6\pdl\drivers\peripheral\scb/cy_scb_common.h **** *     <td>None.</td>
 106:Generated_Source\PSoC6\pdl\drivers\peripheral\scb/cy_scb_common.h **** *     <td>SCB I2C driver updated.</td>
 107:Generated_Source\PSoC6\pdl\drivers\peripheral\scb/cy_scb_common.h **** *   </tr>
 108:Generated_Source\PSoC6\pdl\drivers\peripheral\scb/cy_scb_common.h **** *   <tr>
 109:Generated_Source\PSoC6\pdl\drivers\peripheral\scb/cy_scb_common.h **** *     <td rowspan="2"> 2.0</td>
 110:Generated_Source\PSoC6\pdl\drivers\peripheral\scb/cy_scb_common.h **** *     <td>Added parameters validation for public API.
 111:Generated_Source\PSoC6\pdl\drivers\peripheral\scb/cy_scb_common.h **** *     <td></td>
 112:Generated_Source\PSoC6\pdl\drivers\peripheral\scb/cy_scb_common.h **** *   </tr>
 113:Generated_Source\PSoC6\pdl\drivers\peripheral\scb/cy_scb_common.h **** *   <tr>
 114:Generated_Source\PSoC6\pdl\drivers\peripheral\scb/cy_scb_common.h **** *     <td>Fixed functions which return interrupt status to return only defined
 115:Generated_Source\PSoC6\pdl\drivers\peripheral\scb/cy_scb_common.h **** *         set of interrupt statuses.</td>
 116:Generated_Source\PSoC6\pdl\drivers\peripheral\scb/cy_scb_common.h **** *     <td></td>
 117:Generated_Source\PSoC6\pdl\drivers\peripheral\scb/cy_scb_common.h **** *   </tr>
 118:Generated_Source\PSoC6\pdl\drivers\peripheral\scb/cy_scb_common.h **** *   <tr>
 119:Generated_Source\PSoC6\pdl\drivers\peripheral\scb/cy_scb_common.h **** *     <td>1.0</td>
 120:Generated_Source\PSoC6\pdl\drivers\peripheral\scb/cy_scb_common.h **** *     <td>Initial version.</td>
 121:Generated_Source\PSoC6\pdl\drivers\peripheral\scb/cy_scb_common.h **** *     <td></td>
 122:Generated_Source\PSoC6\pdl\drivers\peripheral\scb/cy_scb_common.h **** *   </tr>
 123:Generated_Source\PSoC6\pdl\drivers\peripheral\scb/cy_scb_common.h **** * </table>
 124:Generated_Source\PSoC6\pdl\drivers\peripheral\scb/cy_scb_common.h **** *
 125:Generated_Source\PSoC6\pdl\drivers\peripheral\scb/cy_scb_common.h **** * \defgroup group_scb_common_macros Macros
 126:Generated_Source\PSoC6\pdl\drivers\peripheral\scb/cy_scb_common.h **** * \defgroup group_scb_common_functions Functions
ARM GAS  C:\Users\pearlstl\AppData\Local\Temp\ccSYOVYh.s 			page 41


 127:Generated_Source\PSoC6\pdl\drivers\peripheral\scb/cy_scb_common.h **** * \defgroup group_scb_common_data_structures Data Structures
 128:Generated_Source\PSoC6\pdl\drivers\peripheral\scb/cy_scb_common.h **** *
 129:Generated_Source\PSoC6\pdl\drivers\peripheral\scb/cy_scb_common.h **** */
 130:Generated_Source\PSoC6\pdl\drivers\peripheral\scb/cy_scb_common.h **** 
 131:Generated_Source\PSoC6\pdl\drivers\peripheral\scb/cy_scb_common.h **** #if !defined(CY_SCB_COMMON_H)
 132:Generated_Source\PSoC6\pdl\drivers\peripheral\scb/cy_scb_common.h **** #define CY_SCB_COMMON_H
 133:Generated_Source\PSoC6\pdl\drivers\peripheral\scb/cy_scb_common.h **** 
 134:Generated_Source\PSoC6\pdl\drivers\peripheral\scb/cy_scb_common.h **** #include <stdint.h>
 135:Generated_Source\PSoC6\pdl\drivers\peripheral\scb/cy_scb_common.h **** #include <stddef.h>
 136:Generated_Source\PSoC6\pdl\drivers\peripheral\scb/cy_scb_common.h **** #include <stdbool.h>
 137:Generated_Source\PSoC6\pdl\drivers\peripheral\scb/cy_scb_common.h **** #include "cy_device.h"
 138:Generated_Source\PSoC6\pdl\drivers\peripheral\scb/cy_scb_common.h **** #include "cy_device_headers.h"
 139:Generated_Source\PSoC6\pdl\drivers\peripheral\scb/cy_scb_common.h **** #include "cy_syslib.h"
 140:Generated_Source\PSoC6\pdl\drivers\peripheral\scb/cy_scb_common.h **** #include "cy_syspm.h"
 141:Generated_Source\PSoC6\pdl\drivers\peripheral\scb/cy_scb_common.h **** 
 142:Generated_Source\PSoC6\pdl\drivers\peripheral\scb/cy_scb_common.h **** #ifdef CY_IP_MXSCB
 143:Generated_Source\PSoC6\pdl\drivers\peripheral\scb/cy_scb_common.h **** 
 144:Generated_Source\PSoC6\pdl\drivers\peripheral\scb/cy_scb_common.h **** #if defined(__cplusplus)
 145:Generated_Source\PSoC6\pdl\drivers\peripheral\scb/cy_scb_common.h **** extern "C" {
 146:Generated_Source\PSoC6\pdl\drivers\peripheral\scb/cy_scb_common.h **** #endif
 147:Generated_Source\PSoC6\pdl\drivers\peripheral\scb/cy_scb_common.h **** 
 148:Generated_Source\PSoC6\pdl\drivers\peripheral\scb/cy_scb_common.h **** 
 149:Generated_Source\PSoC6\pdl\drivers\peripheral\scb/cy_scb_common.h **** /*******************************************************************************
 150:Generated_Source\PSoC6\pdl\drivers\peripheral\scb/cy_scb_common.h **** *                            Function Prototypes
 151:Generated_Source\PSoC6\pdl\drivers\peripheral\scb/cy_scb_common.h **** *******************************************************************************/
 152:Generated_Source\PSoC6\pdl\drivers\peripheral\scb/cy_scb_common.h **** 
 153:Generated_Source\PSoC6\pdl\drivers\peripheral\scb/cy_scb_common.h **** /**
 154:Generated_Source\PSoC6\pdl\drivers\peripheral\scb/cy_scb_common.h **** * \addtogroup group_scb_common_functions
 155:Generated_Source\PSoC6\pdl\drivers\peripheral\scb/cy_scb_common.h **** * \{
 156:Generated_Source\PSoC6\pdl\drivers\peripheral\scb/cy_scb_common.h **** */
 157:Generated_Source\PSoC6\pdl\drivers\peripheral\scb/cy_scb_common.h **** __STATIC_INLINE uint32_t Cy_SCB_ReadRxFifo    (CySCB_Type const *base);
 158:Generated_Source\PSoC6\pdl\drivers\peripheral\scb/cy_scb_common.h **** __STATIC_INLINE void     Cy_SCB_SetRxFifoLevel(CySCB_Type *base, uint32_t level);
 159:Generated_Source\PSoC6\pdl\drivers\peripheral\scb/cy_scb_common.h **** __STATIC_INLINE uint32_t Cy_SCB_GetNumInRxFifo(CySCB_Type const *base);
 160:Generated_Source\PSoC6\pdl\drivers\peripheral\scb/cy_scb_common.h **** __STATIC_INLINE uint32_t Cy_SCB_GetRxSrValid  (CySCB_Type const *base);
 161:Generated_Source\PSoC6\pdl\drivers\peripheral\scb/cy_scb_common.h **** __STATIC_INLINE void     Cy_SCB_ClearRxFifo   (CySCB_Type *base);
 162:Generated_Source\PSoC6\pdl\drivers\peripheral\scb/cy_scb_common.h **** 
 163:Generated_Source\PSoC6\pdl\drivers\peripheral\scb/cy_scb_common.h **** __STATIC_INLINE void     Cy_SCB_WriteTxFifo   (CySCB_Type *base, uint32_t data);
 164:Generated_Source\PSoC6\pdl\drivers\peripheral\scb/cy_scb_common.h **** __STATIC_INLINE void     Cy_SCB_SetTxFifoLevel(CySCB_Type *base, uint32_t level);
 165:Generated_Source\PSoC6\pdl\drivers\peripheral\scb/cy_scb_common.h **** __STATIC_INLINE uint32_t Cy_SCB_GetNumInTxFifo(CySCB_Type const *base);
 166:Generated_Source\PSoC6\pdl\drivers\peripheral\scb/cy_scb_common.h **** __STATIC_INLINE uint32_t Cy_SCB_GetTxSrValid  (CySCB_Type const *base);
 167:Generated_Source\PSoC6\pdl\drivers\peripheral\scb/cy_scb_common.h **** __STATIC_INLINE bool     Cy_SCB_IsTxComplete  (CySCB_Type const *base);
 168:Generated_Source\PSoC6\pdl\drivers\peripheral\scb/cy_scb_common.h **** __STATIC_INLINE void     Cy_SCB_ClearTxFifo   (CySCB_Type *base);
 169:Generated_Source\PSoC6\pdl\drivers\peripheral\scb/cy_scb_common.h **** 
 170:Generated_Source\PSoC6\pdl\drivers\peripheral\scb/cy_scb_common.h **** __STATIC_INLINE void     Cy_SCB_SetByteMode(CySCB_Type *base, bool byteMode);
 171:Generated_Source\PSoC6\pdl\drivers\peripheral\scb/cy_scb_common.h **** 
 172:Generated_Source\PSoC6\pdl\drivers\peripheral\scb/cy_scb_common.h **** __STATIC_INLINE uint32_t Cy_SCB_GetInterruptCause(CySCB_Type const *base);
 173:Generated_Source\PSoC6\pdl\drivers\peripheral\scb/cy_scb_common.h **** 
 174:Generated_Source\PSoC6\pdl\drivers\peripheral\scb/cy_scb_common.h **** __STATIC_INLINE uint32_t Cy_SCB_GetRxInterruptStatus(CySCB_Type const *base);
 175:Generated_Source\PSoC6\pdl\drivers\peripheral\scb/cy_scb_common.h **** __STATIC_INLINE void     Cy_SCB_SetRxInterruptMask  (CySCB_Type *base, uint32_t interruptMask);
 176:Generated_Source\PSoC6\pdl\drivers\peripheral\scb/cy_scb_common.h **** __STATIC_INLINE uint32_t Cy_SCB_GetRxInterruptMask  (CySCB_Type const *base);
 177:Generated_Source\PSoC6\pdl\drivers\peripheral\scb/cy_scb_common.h **** __STATIC_INLINE uint32_t Cy_SCB_GetRxInterruptStatusMasked(CySCB_Type const *base);
 178:Generated_Source\PSoC6\pdl\drivers\peripheral\scb/cy_scb_common.h **** __STATIC_INLINE void     Cy_SCB_ClearRxInterrupt    (CySCB_Type *base, uint32_t interruptMask);
 179:Generated_Source\PSoC6\pdl\drivers\peripheral\scb/cy_scb_common.h **** __STATIC_INLINE void     Cy_SCB_SetRxInterrupt      (CySCB_Type *base, uint32_t interruptMask);
 180:Generated_Source\PSoC6\pdl\drivers\peripheral\scb/cy_scb_common.h **** 
 181:Generated_Source\PSoC6\pdl\drivers\peripheral\scb/cy_scb_common.h **** __STATIC_INLINE uint32_t Cy_SCB_GetTxInterruptStatus(CySCB_Type const *base);
 182:Generated_Source\PSoC6\pdl\drivers\peripheral\scb/cy_scb_common.h **** __STATIC_INLINE void     Cy_SCB_SetTxInterruptMask  (CySCB_Type *base, uint32_t interruptMask);
 183:Generated_Source\PSoC6\pdl\drivers\peripheral\scb/cy_scb_common.h **** __STATIC_INLINE uint32_t Cy_SCB_GetTxInterruptMask  (CySCB_Type const *base);
ARM GAS  C:\Users\pearlstl\AppData\Local\Temp\ccSYOVYh.s 			page 42


 184:Generated_Source\PSoC6\pdl\drivers\peripheral\scb/cy_scb_common.h **** __STATIC_INLINE uint32_t Cy_SCB_GetTxInterruptStatusMasked(CySCB_Type const *base);
 185:Generated_Source\PSoC6\pdl\drivers\peripheral\scb/cy_scb_common.h **** __STATIC_INLINE void     Cy_SCB_ClearTxInterrupt    (CySCB_Type *base, uint32_t interruptMask);
 186:Generated_Source\PSoC6\pdl\drivers\peripheral\scb/cy_scb_common.h **** __STATIC_INLINE void     Cy_SCB_SetTxInterrupt      (CySCB_Type *base, uint32_t interruptMask);
 187:Generated_Source\PSoC6\pdl\drivers\peripheral\scb/cy_scb_common.h **** 
 188:Generated_Source\PSoC6\pdl\drivers\peripheral\scb/cy_scb_common.h **** __STATIC_INLINE uint32_t Cy_SCB_GetMasterInterruptStatus(CySCB_Type const *base);
 189:Generated_Source\PSoC6\pdl\drivers\peripheral\scb/cy_scb_common.h **** __STATIC_INLINE void     Cy_SCB_SetMasterInterruptMask  (CySCB_Type *base, uint32_t interruptMask);
 190:Generated_Source\PSoC6\pdl\drivers\peripheral\scb/cy_scb_common.h **** __STATIC_INLINE uint32_t Cy_SCB_GetMasterInterruptMask  (CySCB_Type const *base);
 191:Generated_Source\PSoC6\pdl\drivers\peripheral\scb/cy_scb_common.h **** __STATIC_INLINE uint32_t Cy_SCB_GetMasterInterruptStatusMasked(CySCB_Type const *base);
 192:Generated_Source\PSoC6\pdl\drivers\peripheral\scb/cy_scb_common.h **** __STATIC_INLINE void     Cy_SCB_ClearMasterInterrupt    (CySCB_Type *base, uint32_t interruptMask);
 193:Generated_Source\PSoC6\pdl\drivers\peripheral\scb/cy_scb_common.h **** __STATIC_INLINE void     Cy_SCB_SetMasterInterrupt      (CySCB_Type *base, uint32_t interruptMask);
 194:Generated_Source\PSoC6\pdl\drivers\peripheral\scb/cy_scb_common.h **** 
 195:Generated_Source\PSoC6\pdl\drivers\peripheral\scb/cy_scb_common.h **** __STATIC_INLINE uint32_t Cy_SCB_GetSlaveInterruptStatus(CySCB_Type const *base);
 196:Generated_Source\PSoC6\pdl\drivers\peripheral\scb/cy_scb_common.h **** __STATIC_INLINE void     Cy_SCB_SetSlaveInterruptMask  (CySCB_Type *base, uint32_t interruptMask);
 197:Generated_Source\PSoC6\pdl\drivers\peripheral\scb/cy_scb_common.h **** __STATIC_INLINE uint32_t Cy_SCB_GetSlaveInterruptMask  (CySCB_Type const *base);
 198:Generated_Source\PSoC6\pdl\drivers\peripheral\scb/cy_scb_common.h **** __STATIC_INLINE uint32_t Cy_SCB_GetSlaveInterruptStatusMasked(CySCB_Type const *base);
 199:Generated_Source\PSoC6\pdl\drivers\peripheral\scb/cy_scb_common.h **** __STATIC_INLINE void     Cy_SCB_ClearSlaveInterrupt    (CySCB_Type *base, uint32_t interruptMask);
 200:Generated_Source\PSoC6\pdl\drivers\peripheral\scb/cy_scb_common.h **** __STATIC_INLINE void     Cy_SCB_SetSlaveInterrupt      (CySCB_Type *base, uint32_t interruptMask);
 201:Generated_Source\PSoC6\pdl\drivers\peripheral\scb/cy_scb_common.h **** 
 202:Generated_Source\PSoC6\pdl\drivers\peripheral\scb/cy_scb_common.h **** __STATIC_INLINE uint32_t Cy_SCB_GetI2CInterruptStatus(CySCB_Type const *base);
 203:Generated_Source\PSoC6\pdl\drivers\peripheral\scb/cy_scb_common.h **** __STATIC_INLINE void     Cy_SCB_SetI2CInterruptMask  (CySCB_Type *base, uint32_t interruptMask);
 204:Generated_Source\PSoC6\pdl\drivers\peripheral\scb/cy_scb_common.h **** __STATIC_INLINE uint32_t Cy_SCB_GetI2CInterruptMask  (CySCB_Type const *base);
 205:Generated_Source\PSoC6\pdl\drivers\peripheral\scb/cy_scb_common.h **** __STATIC_INLINE uint32_t Cy_SCB_GetI2CInterruptStatusMasked(CySCB_Type const *base);
 206:Generated_Source\PSoC6\pdl\drivers\peripheral\scb/cy_scb_common.h **** __STATIC_INLINE void     Cy_SCB_ClearI2CInterrupt    (CySCB_Type *base, uint32_t interruptMask);
 207:Generated_Source\PSoC6\pdl\drivers\peripheral\scb/cy_scb_common.h **** 
 208:Generated_Source\PSoC6\pdl\drivers\peripheral\scb/cy_scb_common.h **** __STATIC_INLINE uint32_t Cy_SCB_GetSpiInterruptStatus(CySCB_Type const *base);
 209:Generated_Source\PSoC6\pdl\drivers\peripheral\scb/cy_scb_common.h **** __STATIC_INLINE void     Cy_SCB_SetSpiInterruptMask  (CySCB_Type *base, uint32_t interruptMask);
 210:Generated_Source\PSoC6\pdl\drivers\peripheral\scb/cy_scb_common.h **** __STATIC_INLINE uint32_t Cy_SCB_GetSpiInterruptMask  (CySCB_Type const *base);
 211:Generated_Source\PSoC6\pdl\drivers\peripheral\scb/cy_scb_common.h **** __STATIC_INLINE uint32_t Cy_SCB_GetSpiInterruptStatusMasked(CySCB_Type const *base);
 212:Generated_Source\PSoC6\pdl\drivers\peripheral\scb/cy_scb_common.h **** __STATIC_INLINE void     Cy_SCB_ClearSpiInterrupt    (CySCB_Type *base, uint32_t interruptMask);
 213:Generated_Source\PSoC6\pdl\drivers\peripheral\scb/cy_scb_common.h **** 
 214:Generated_Source\PSoC6\pdl\drivers\peripheral\scb/cy_scb_common.h **** 
 215:Generated_Source\PSoC6\pdl\drivers\peripheral\scb/cy_scb_common.h **** /*******************************************************************************
 216:Generated_Source\PSoC6\pdl\drivers\peripheral\scb/cy_scb_common.h **** *                         Internal Function Prototypes
 217:Generated_Source\PSoC6\pdl\drivers\peripheral\scb/cy_scb_common.h **** *******************************************************************************/
 218:Generated_Source\PSoC6\pdl\drivers\peripheral\scb/cy_scb_common.h **** 
 219:Generated_Source\PSoC6\pdl\drivers\peripheral\scb/cy_scb_common.h **** /** \cond INTERNAL */
 220:Generated_Source\PSoC6\pdl\drivers\peripheral\scb/cy_scb_common.h **** void     Cy_SCB_ReadArrayNoCheck  (CySCB_Type const *base, void *buffer, uint32_t size);
 221:Generated_Source\PSoC6\pdl\drivers\peripheral\scb/cy_scb_common.h **** uint32_t Cy_SCB_ReadArray         (CySCB_Type const *base, void *buffer, uint32_t size);
 222:Generated_Source\PSoC6\pdl\drivers\peripheral\scb/cy_scb_common.h **** void     Cy_SCB_ReadArrayBlocking (CySCB_Type const *base, void *buffer, uint32_t size);
 223:Generated_Source\PSoC6\pdl\drivers\peripheral\scb/cy_scb_common.h **** uint32_t Cy_SCB_Write             (CySCB_Type *base, uint32_t data);
 224:Generated_Source\PSoC6\pdl\drivers\peripheral\scb/cy_scb_common.h **** void     Cy_SCB_WriteArrayNoCheck (CySCB_Type *base, void *buffer, uint32_t size);
 225:Generated_Source\PSoC6\pdl\drivers\peripheral\scb/cy_scb_common.h **** uint32_t Cy_SCB_WriteArray        (CySCB_Type *base, void *buffer, uint32_t size);
