ARM GAS  C:\Users\pearlstl\AppData\Local\Temp\ccCjmXK8.s 			page 1


   1              		.syntax unified
   2              		.cpu cortex-m4
   3              		.eabi_attribute 27, 1
   4              		.fpu fpv4-sp-d16
   5              		.eabi_attribute 20, 1
   6              		.eabi_attribute 21, 1
   7              		.eabi_attribute 23, 3
   8              		.eabi_attribute 24, 1
   9              		.eabi_attribute 25, 1
  10              		.eabi_attribute 26, 1
  11              		.eabi_attribute 30, 2
  12              		.eabi_attribute 34, 1
  13              		.eabi_attribute 18, 4
  14              		.thumb
  15              		.syntax unified
  16              		.file	"cy_scb_uart.c"
  17              		.text
  18              	.Ltext0:
  19              		.cfi_sections	.debug_frame
  20              		.section	.text.Cy_SCB_UART_Init,"ax",%progbits
  21              		.align	2
  22              		.global	Cy_SCB_UART_Init
  23              		.thumb
  24              		.thumb_func
  25              		.type	Cy_SCB_UART_Init, %function
  26              	Cy_SCB_UART_Init:
  27              	.LFB242:
  28              		.file 1 "Generated_Source\\PSoC6\\pdl\\drivers\\peripheral\\scb\\cy_scb_uart.c"
   1:Generated_Source\PSoC6\pdl\drivers\peripheral\scb/cy_scb_uart.c **** /***************************************************************************//**
   2:Generated_Source\PSoC6\pdl\drivers\peripheral\scb/cy_scb_uart.c **** * \file cy_scb_uart.c
   3:Generated_Source\PSoC6\pdl\drivers\peripheral\scb/cy_scb_uart.c **** * \version 2.20
   4:Generated_Source\PSoC6\pdl\drivers\peripheral\scb/cy_scb_uart.c **** *
   5:Generated_Source\PSoC6\pdl\drivers\peripheral\scb/cy_scb_uart.c **** * Provides UART API implementation of the SCB driver.
   6:Generated_Source\PSoC6\pdl\drivers\peripheral\scb/cy_scb_uart.c **** *
   7:Generated_Source\PSoC6\pdl\drivers\peripheral\scb/cy_scb_uart.c **** ********************************************************************************
   8:Generated_Source\PSoC6\pdl\drivers\peripheral\scb/cy_scb_uart.c **** * \copyright
   9:Generated_Source\PSoC6\pdl\drivers\peripheral\scb/cy_scb_uart.c **** * Copyright 2016-2018, Cypress Semiconductor Corporation. All rights reserved.
  10:Generated_Source\PSoC6\pdl\drivers\peripheral\scb/cy_scb_uart.c **** * You may use this file only in accordance with the license, terms, conditions,
  11:Generated_Source\PSoC6\pdl\drivers\peripheral\scb/cy_scb_uart.c **** * disclaimers, and limitations in the end user license agreement accompanying
  12:Generated_Source\PSoC6\pdl\drivers\peripheral\scb/cy_scb_uart.c **** * the software package with which this file was provided.
  13:Generated_Source\PSoC6\pdl\drivers\peripheral\scb/cy_scb_uart.c **** *******************************************************************************/
  14:Generated_Source\PSoC6\pdl\drivers\peripheral\scb/cy_scb_uart.c **** 
  15:Generated_Source\PSoC6\pdl\drivers\peripheral\scb/cy_scb_uart.c **** #include "cy_scb_uart.h"
  16:Generated_Source\PSoC6\pdl\drivers\peripheral\scb/cy_scb_uart.c **** 
  17:Generated_Source\PSoC6\pdl\drivers\peripheral\scb/cy_scb_uart.c **** #ifdef CY_IP_MXSCB
  18:Generated_Source\PSoC6\pdl\drivers\peripheral\scb/cy_scb_uart.c **** 
  19:Generated_Source\PSoC6\pdl\drivers\peripheral\scb/cy_scb_uart.c **** #if defined(__cplusplus)
  20:Generated_Source\PSoC6\pdl\drivers\peripheral\scb/cy_scb_uart.c **** extern "C" {
  21:Generated_Source\PSoC6\pdl\drivers\peripheral\scb/cy_scb_uart.c **** #endif
  22:Generated_Source\PSoC6\pdl\drivers\peripheral\scb/cy_scb_uart.c **** 
  23:Generated_Source\PSoC6\pdl\drivers\peripheral\scb/cy_scb_uart.c **** /* Static functions */
  24:Generated_Source\PSoC6\pdl\drivers\peripheral\scb/cy_scb_uart.c **** static void HandleDataReceive (CySCB_Type *base, cy_stc_scb_uart_context_t *context);
  25:Generated_Source\PSoC6\pdl\drivers\peripheral\scb/cy_scb_uart.c **** static void HandleRingBuffer  (CySCB_Type *base, cy_stc_scb_uart_context_t *context);
  26:Generated_Source\PSoC6\pdl\drivers\peripheral\scb/cy_scb_uart.c **** static void HandleDataTransmit(CySCB_Type *base, cy_stc_scb_uart_context_t *context);
  27:Generated_Source\PSoC6\pdl\drivers\peripheral\scb/cy_scb_uart.c **** 
  28:Generated_Source\PSoC6\pdl\drivers\peripheral\scb/cy_scb_uart.c **** 
  29:Generated_Source\PSoC6\pdl\drivers\peripheral\scb/cy_scb_uart.c **** /*******************************************************************************
ARM GAS  C:\Users\pearlstl\AppData\Local\Temp\ccCjmXK8.s 			page 2


  30:Generated_Source\PSoC6\pdl\drivers\peripheral\scb/cy_scb_uart.c **** * Function Name: Cy_SCB_UART_Init
  31:Generated_Source\PSoC6\pdl\drivers\peripheral\scb/cy_scb_uart.c **** ****************************************************************************//**
  32:Generated_Source\PSoC6\pdl\drivers\peripheral\scb/cy_scb_uart.c **** *
  33:Generated_Source\PSoC6\pdl\drivers\peripheral\scb/cy_scb_uart.c **** * Initializes the SCB for UART operation.
  34:Generated_Source\PSoC6\pdl\drivers\peripheral\scb/cy_scb_uart.c **** *
  35:Generated_Source\PSoC6\pdl\drivers\peripheral\scb/cy_scb_uart.c **** * \param base
  36:Generated_Source\PSoC6\pdl\drivers\peripheral\scb/cy_scb_uart.c **** * The pointer to the UART SCB instance.
  37:Generated_Source\PSoC6\pdl\drivers\peripheral\scb/cy_scb_uart.c **** *
  38:Generated_Source\PSoC6\pdl\drivers\peripheral\scb/cy_scb_uart.c **** * \param config
  39:Generated_Source\PSoC6\pdl\drivers\peripheral\scb/cy_scb_uart.c **** * The pointer to configuration structure \ref cy_stc_scb_uart_config_t.
  40:Generated_Source\PSoC6\pdl\drivers\peripheral\scb/cy_scb_uart.c **** *
  41:Generated_Source\PSoC6\pdl\drivers\peripheral\scb/cy_scb_uart.c **** * \param context
  42:Generated_Source\PSoC6\pdl\drivers\peripheral\scb/cy_scb_uart.c **** * The pointer to the context structure \ref cy_stc_scb_uart_context_t allocated
  43:Generated_Source\PSoC6\pdl\drivers\peripheral\scb/cy_scb_uart.c **** * by the user. The structure is used during the UART operation for internal
  44:Generated_Source\PSoC6\pdl\drivers\peripheral\scb/cy_scb_uart.c **** * configuration and data retention. The user must not modify anything
  45:Generated_Source\PSoC6\pdl\drivers\peripheral\scb/cy_scb_uart.c **** * in this structure.
  46:Generated_Source\PSoC6\pdl\drivers\peripheral\scb/cy_scb_uart.c **** * If only UART \ref group_scb_uart_ll will be used pass NULL as pointer to 
  47:Generated_Source\PSoC6\pdl\drivers\peripheral\scb/cy_scb_uart.c **** * context.
  48:Generated_Source\PSoC6\pdl\drivers\peripheral\scb/cy_scb_uart.c **** *
  49:Generated_Source\PSoC6\pdl\drivers\peripheral\scb/cy_scb_uart.c **** * \return
  50:Generated_Source\PSoC6\pdl\drivers\peripheral\scb/cy_scb_uart.c **** * \ref cy_en_scb_uart_status_t
  51:Generated_Source\PSoC6\pdl\drivers\peripheral\scb/cy_scb_uart.c **** *
  52:Generated_Source\PSoC6\pdl\drivers\peripheral\scb/cy_scb_uart.c **** * \note
  53:Generated_Source\PSoC6\pdl\drivers\peripheral\scb/cy_scb_uart.c **** * Ensure that the SCB block is disabled before calling this function.
  54:Generated_Source\PSoC6\pdl\drivers\peripheral\scb/cy_scb_uart.c **** *
  55:Generated_Source\PSoC6\pdl\drivers\peripheral\scb/cy_scb_uart.c **** *******************************************************************************/
  56:Generated_Source\PSoC6\pdl\drivers\peripheral\scb/cy_scb_uart.c **** cy_en_scb_uart_status_t Cy_SCB_UART_Init(CySCB_Type *base, cy_stc_scb_uart_config_t const *config, 
  57:Generated_Source\PSoC6\pdl\drivers\peripheral\scb/cy_scb_uart.c **** {
  29              		.loc 1 57 0
  30              		.cfi_startproc
  31              		@ args = 0, pretend = 0, frame = 0
  32              		@ frame_needed = 0, uses_anonymous_args = 0
  33              	.LVL0:
  58:Generated_Source\PSoC6\pdl\drivers\peripheral\scb/cy_scb_uart.c ****     if ((NULL == base) || (NULL == config))
  34              		.loc 1 58 0
  35 0000 0028     		cmp	r0, #0
  36 0002 00F09F80 		beq	.L26
  37              		.loc 1 58 0 is_stmt 0 discriminator 1
  38 0006 0029     		cmp	r1, #0
  39 0008 00F09C80 		beq	.L26
  57:Generated_Source\PSoC6\pdl\drivers\peripheral\scb/cy_scb_uart.c ****     if ((NULL == base) || (NULL == config))
  40              		.loc 1 57 0 is_stmt 1
  41 000c 2DE9F04F 		push	{r4, r5, r6, r7, r8, r9, r10, fp, lr}
  42              		.cfi_def_cfa_offset 36
  43              		.cfi_offset 4, -36
  44              		.cfi_offset 5, -32
  45              		.cfi_offset 6, -28
  46              		.cfi_offset 7, -24
  47              		.cfi_offset 8, -20
  48              		.cfi_offset 9, -16
  49              		.cfi_offset 10, -12
  50              		.cfi_offset 11, -8
  51              		.cfi_offset 14, -4
  59:Generated_Source\PSoC6\pdl\drivers\peripheral\scb/cy_scb_uart.c ****     {
  60:Generated_Source\PSoC6\pdl\drivers\peripheral\scb/cy_scb_uart.c ****         return CY_SCB_UART_BAD_PARAM;
  61:Generated_Source\PSoC6\pdl\drivers\peripheral\scb/cy_scb_uart.c ****     }
  62:Generated_Source\PSoC6\pdl\drivers\peripheral\scb/cy_scb_uart.c **** 
ARM GAS  C:\Users\pearlstl\AppData\Local\Temp\ccCjmXK8.s 			page 3


  63:Generated_Source\PSoC6\pdl\drivers\peripheral\scb/cy_scb_uart.c ****     CY_ASSERT_L3(CY_SCB_UART_IS_MODE_VALID     (config->uartMode));
  64:Generated_Source\PSoC6\pdl\drivers\peripheral\scb/cy_scb_uart.c ****     CY_ASSERT_L3(CY_SCB_UART_IS_STOP_BITS_VALID(config->stopBits));
  65:Generated_Source\PSoC6\pdl\drivers\peripheral\scb/cy_scb_uart.c ****     CY_ASSERT_L3(CY_SCB_UART_IS_PARITY_VALID   (config->parity));
  66:Generated_Source\PSoC6\pdl\drivers\peripheral\scb/cy_scb_uart.c ****     CY_ASSERT_L3(CY_SCB_UART_IS_POLARITY_VALID (config->ctsPolarity));
  67:Generated_Source\PSoC6\pdl\drivers\peripheral\scb/cy_scb_uart.c ****     CY_ASSERT_L3(CY_SCB_UART_IS_POLARITY_VALID (config->rtsPolarity));
  68:Generated_Source\PSoC6\pdl\drivers\peripheral\scb/cy_scb_uart.c **** 
  69:Generated_Source\PSoC6\pdl\drivers\peripheral\scb/cy_scb_uart.c ****     CY_ASSERT_L2(CY_SCB_UART_IS_OVERSAMPLE_VALID  (config->oversample, config->uartMode, config->ir
  70:Generated_Source\PSoC6\pdl\drivers\peripheral\scb/cy_scb_uart.c ****     CY_ASSERT_L2(CY_SCB_UART_IS_DATA_WIDTH_VALID  (config->dataWidth));
  71:Generated_Source\PSoC6\pdl\drivers\peripheral\scb/cy_scb_uart.c ****     CY_ASSERT_L2(CY_SCB_UART_IS_ADDRESS_VALID     (config->receiverAddress));
  72:Generated_Source\PSoC6\pdl\drivers\peripheral\scb/cy_scb_uart.c ****     CY_ASSERT_L2(CY_SCB_UART_IS_ADDRESS_MASK_VALID(config->receiverAddressMask));
  73:Generated_Source\PSoC6\pdl\drivers\peripheral\scb/cy_scb_uart.c ****     CY_ASSERT_L2(CY_SCB_UART_IS_MUTLI_PROC_VALID  (config->enableMutliProcessorMode, config->uartMo
  74:Generated_Source\PSoC6\pdl\drivers\peripheral\scb/cy_scb_uart.c ****                                                    config->parity));
  75:Generated_Source\PSoC6\pdl\drivers\peripheral\scb/cy_scb_uart.c **** 
  76:Generated_Source\PSoC6\pdl\drivers\peripheral\scb/cy_scb_uart.c ****     CY_ASSERT_L2(CY_SCB_IS_INTR_VALID(config->rxFifoIntEnableMask, CY_SCB_UART_RX_INTR_MASK));
  77:Generated_Source\PSoC6\pdl\drivers\peripheral\scb/cy_scb_uart.c ****     CY_ASSERT_L2(CY_SCB_IS_INTR_VALID(config->txFifoIntEnableMask, CY_SCB_UART_TX_INTR_MASK));
  78:Generated_Source\PSoC6\pdl\drivers\peripheral\scb/cy_scb_uart.c **** 
  79:Generated_Source\PSoC6\pdl\drivers\peripheral\scb/cy_scb_uart.c ****     uint32_t ovs;
  80:Generated_Source\PSoC6\pdl\drivers\peripheral\scb/cy_scb_uart.c **** 
  81:Generated_Source\PSoC6\pdl\drivers\peripheral\scb/cy_scb_uart.c ****     if ((CY_SCB_UART_IRDA == config->uartMode) && (!config->irdaEnableLowPowerReceiver))
  52              		.loc 1 81 0
  53 0010 0F78     		ldrb	r7, [r1]	@ zero_extendqisi2
  54 0012 022F     		cmp	r7, #2
  55 0014 00F0EB80 		beq	.L51
  56              	.L3:
  57              	.LVL1:
  58 0018 4E68     		ldr	r6, [r1, #4]
  59 001a 013E     		subs	r6, r6, #1
  60              	.LVL2:
  61 001c 06F00F06 		and	r6, r6, #15
  62              	.LVL3:
  63 0020 46F00076 		orr	r6, r6, #33554432
  64              	.LVL4:
  65              	.L4:
  82:Generated_Source\PSoC6\pdl\drivers\peripheral\scb/cy_scb_uart.c ****     {
  83:Generated_Source\PSoC6\pdl\drivers\peripheral\scb/cy_scb_uart.c ****         /* For Normal IrDA mode oversampling is always zero */
  84:Generated_Source\PSoC6\pdl\drivers\peripheral\scb/cy_scb_uart.c ****         ovs = 0UL;
  85:Generated_Source\PSoC6\pdl\drivers\peripheral\scb/cy_scb_uart.c ****     }
  86:Generated_Source\PSoC6\pdl\drivers\peripheral\scb/cy_scb_uart.c ****     else
  87:Generated_Source\PSoC6\pdl\drivers\peripheral\scb/cy_scb_uart.c ****     {
  88:Generated_Source\PSoC6\pdl\drivers\peripheral\scb/cy_scb_uart.c ****         ovs = (config->oversample - 1UL);
  89:Generated_Source\PSoC6\pdl\drivers\peripheral\scb/cy_scb_uart.c ****     }
  90:Generated_Source\PSoC6\pdl\drivers\peripheral\scb/cy_scb_uart.c **** 
  91:Generated_Source\PSoC6\pdl\drivers\peripheral\scb/cy_scb_uart.c ****     /* Configure the UART interface */
  92:Generated_Source\PSoC6\pdl\drivers\peripheral\scb/cy_scb_uart.c ****     SCB_CTRL(base) = _BOOL2FLD(SCB_CTRL_ADDR_ACCEPT, config->acceptAddrInFifo)               |
  93:Generated_Source\PSoC6\pdl\drivers\peripheral\scb/cy_scb_uart.c ****                  _BOOL2FLD(SCB_CTRL_BYTE_MODE, (config->dataWidth <= CY_SCB_BYTE_WIDTH)) |
  94:Generated_Source\PSoC6\pdl\drivers\peripheral\scb/cy_scb_uart.c ****                  _VAL2FLD(SCB_CTRL_OVS, ovs)                                             |
  95:Generated_Source\PSoC6\pdl\drivers\peripheral\scb/cy_scb_uart.c ****                  _VAL2FLD(SCB_CTRL_MODE, CY_SCB_CTRL_MODE_UART);
  96:Generated_Source\PSoC6\pdl\drivers\peripheral\scb/cy_scb_uart.c **** 
  97:Generated_Source\PSoC6\pdl\drivers\peripheral\scb/cy_scb_uart.c ****     /* Configure SCB_CTRL.BYTE_MODE then verify levels */
  98:Generated_Source\PSoC6\pdl\drivers\peripheral\scb/cy_scb_uart.c ****     CY_ASSERT_L2(CY_SCB_IS_TRIGGER_LEVEL_VALID(base, config->rxFifoTriggerLevel));
  99:Generated_Source\PSoC6\pdl\drivers\peripheral\scb/cy_scb_uart.c ****     CY_ASSERT_L2(CY_SCB_IS_TRIGGER_LEVEL_VALID(base, config->txFifoTriggerLevel));
 100:Generated_Source\PSoC6\pdl\drivers\peripheral\scb/cy_scb_uart.c ****     CY_ASSERT_L2(CY_SCB_IS_TRIGGER_LEVEL_VALID(base, config->rtsRxFifoLevel));
 101:Generated_Source\PSoC6\pdl\drivers\peripheral\scb/cy_scb_uart.c **** 
 102:Generated_Source\PSoC6\pdl\drivers\peripheral\scb/cy_scb_uart.c ****     SCB_UART_CTRL(base) = _VAL2FLD(SCB_UART_CTRL_MODE, (uint32_t) config->uartMode);
 103:Generated_Source\PSoC6\pdl\drivers\peripheral\scb/cy_scb_uart.c **** 
 104:Generated_Source\PSoC6\pdl\drivers\peripheral\scb/cy_scb_uart.c ****     /* Configure the RX direction */
 105:Generated_Source\PSoC6\pdl\drivers\peripheral\scb/cy_scb_uart.c ****     SCB_UART_RX_CTRL(base) = _BOOL2FLD(SCB_UART_RX_CTRL_POLARITY, config->irdaInvertRx)            
ARM GAS  C:\Users\pearlstl\AppData\Local\Temp\ccCjmXK8.s 			page 4


 106:Generated_Source\PSoC6\pdl\drivers\peripheral\scb/cy_scb_uart.c ****                          _BOOL2FLD(SCB_UART_RX_CTRL_MP_MODE, config->enableMutliProcessorMode)     
 107:Generated_Source\PSoC6\pdl\drivers\peripheral\scb/cy_scb_uart.c ****                          _BOOL2FLD(SCB_UART_RX_CTRL_DROP_ON_PARITY_ERROR, config->dropOnParityError
 108:Generated_Source\PSoC6\pdl\drivers\peripheral\scb/cy_scb_uart.c ****                          _BOOL2FLD(SCB_UART_RX_CTRL_DROP_ON_FRAME_ERROR, config->dropOnFrameError) 
 109:Generated_Source\PSoC6\pdl\drivers\peripheral\scb/cy_scb_uart.c ****                          _VAL2FLD(SCB_UART_RX_CTRL_BREAK_WIDTH, (config->breakWidth - 1UL))        
 110:Generated_Source\PSoC6\pdl\drivers\peripheral\scb/cy_scb_uart.c ****                          _VAL2FLD(SCB_UART_RX_CTRL_STOP_BITS,   ((uint32_t) config->stopBits) - 1UL
  66              		.loc 1 110 0
  67 0024 CB6A     		ldr	r3, [r1, #44]
  92:Generated_Source\PSoC6\pdl\drivers\peripheral\scb/cy_scb_uart.c ****                  _BOOL2FLD(SCB_CTRL_BYTE_MODE, (config->dataWidth <= CY_SCB_BYTE_WIDTH)) |
  68              		.loc 1 92 0
  69 0026 91F81C80 		ldrb	r8, [r1, #28]	@ zero_extendqisi2
  70              		.loc 1 110 0
  71 002a 91F80DC0 		ldrb	ip, [r1, #13]	@ zero_extendqisi2
  93:Generated_Source\PSoC6\pdl\drivers\peripheral\scb/cy_scb_uart.c ****                  _VAL2FLD(SCB_CTRL_OVS, ovs)                                             |
  72              		.loc 1 93 0
  73 002e 8C68     		ldr	r4, [r1, #8]
 111:Generated_Source\PSoC6\pdl\drivers\peripheral\scb/cy_scb_uart.c ****                          _VAL2FLD(CY_SCB_UART_RX_CTRL_SET_PARITY, (uint32_t) config->parity);
  74              		.loc 1 111 0
  75 0030 8D7B     		ldrb	r5, [r1, #14]	@ zero_extendqisi2
 105:Generated_Source\PSoC6\pdl\drivers\peripheral\scb/cy_scb_uart.c ****                          _BOOL2FLD(SCB_UART_RX_CTRL_MP_MODE, config->enableMutliProcessorMode)     
  76              		.loc 1 105 0
  77 0032 91F81DE0 		ldrb	lr, [r1, #29]	@ zero_extendqisi2
 106:Generated_Source\PSoC6\pdl\drivers\peripheral\scb/cy_scb_uart.c ****                          _BOOL2FLD(SCB_UART_RX_CTRL_DROP_ON_PARITY_ERROR, config->dropOnParityError
  78              		.loc 1 106 0
  79 0036 91F812B0 		ldrb	fp, [r1, #18]	@ zero_extendqisi2
 107:Generated_Source\PSoC6\pdl\drivers\peripheral\scb/cy_scb_uart.c ****                          _BOOL2FLD(SCB_UART_RX_CTRL_DROP_ON_FRAME_ERROR, config->dropOnFrameError) 
  80              		.loc 1 107 0
  81 003a 91F81090 		ldrb	r9, [r1, #16]	@ zero_extendqisi2
 110:Generated_Source\PSoC6\pdl\drivers\peripheral\scb/cy_scb_uart.c ****                          _VAL2FLD(CY_SCB_UART_RX_CTRL_SET_PARITY, (uint32_t) config->parity);
  82              		.loc 1 110 0
  83 003e 013B     		subs	r3, r3, #1
  92:Generated_Source\PSoC6\pdl\drivers\peripheral\scb/cy_scb_uart.c ****                  _BOOL2FLD(SCB_CTRL_BYTE_MODE, (config->dataWidth <= CY_SCB_BYTE_WIDTH)) |
  84              		.loc 1 92 0
  85 0040 B8F1000F 		cmp	r8, #0
 110:Generated_Source\PSoC6\pdl\drivers\peripheral\scb/cy_scb_uart.c ****                          _VAL2FLD(CY_SCB_UART_RX_CTRL_SET_PARITY, (uint32_t) config->parity);
  86              		.loc 1 110 0
  87 0044 4FEA0343 		lsl	r3, r3, #16
  88 0048 0CF1FF3C 		add	ip, ip, #-1
  92:Generated_Source\PSoC6\pdl\drivers\peripheral\scb/cy_scb_uart.c ****                  _BOOL2FLD(SCB_CTRL_BYTE_MODE, (config->dataWidth <= CY_SCB_BYTE_WIDTH)) |
  89              		.loc 1 92 0
  90 004c 0CBF     		ite	eq
  91 004e 4FF00008 		moveq	r8, #0
  92 0052 4FF48038 		movne	r8, #65536
 110:Generated_Source\PSoC6\pdl\drivers\peripheral\scb/cy_scb_uart.c ****                          _VAL2FLD(CY_SCB_UART_RX_CTRL_SET_PARITY, (uint32_t) config->parity);
  93              		.loc 1 110 0
  94 0056 03F47023 		and	r3, r3, #983040
  93:Generated_Source\PSoC6\pdl\drivers\peripheral\scb/cy_scb_uart.c ****                  _VAL2FLD(SCB_CTRL_OVS, ovs)                                             |
  95              		.loc 1 93 0
  96 005a 082C     		cmp	r4, #8
 110:Generated_Source\PSoC6\pdl\drivers\peripheral\scb/cy_scb_uart.c ****                          _VAL2FLD(CY_SCB_UART_RX_CTRL_SET_PARITY, (uint32_t) config->parity);
  97              		.loc 1 110 0
  98 005c 0CF0070C 		and	ip, ip, #7
  99              		.loc 1 111 0
 100 0060 4FEA0515 		lsl	r5, r5, #4
  93:Generated_Source\PSoC6\pdl\drivers\peripheral\scb/cy_scb_uart.c ****                  _VAL2FLD(SCB_CTRL_OVS, ovs)                                             |
 101              		.loc 1 93 0
 102 0064 8CBF     		ite	hi
 103 0066 4FF0000A 		movhi	r10, #0
ARM GAS  C:\Users\pearlstl\AppData\Local\Temp\ccCjmXK8.s 			page 5


 104 006a 4FF4006A 		movls	r10, #2048
 110:Generated_Source\PSoC6\pdl\drivers\peripheral\scb/cy_scb_uart.c ****                          _VAL2FLD(CY_SCB_UART_RX_CTRL_SET_PARITY, (uint32_t) config->parity);
 105              		.loc 1 110 0
 106 006e 43EA0C03 		orr	r3, r3, ip
 105:Generated_Source\PSoC6\pdl\drivers\peripheral\scb/cy_scb_uart.c ****                          _BOOL2FLD(SCB_UART_RX_CTRL_MP_MODE, config->enableMutliProcessorMode)     
 107              		.loc 1 105 0
 108 0072 BEF1000F 		cmp	lr, #0
 109              		.loc 1 111 0
 110 0076 05F03005 		and	r5, r5, #48
  94:Generated_Source\PSoC6\pdl\drivers\peripheral\scb/cy_scb_uart.c ****                  _VAL2FLD(SCB_CTRL_MODE, CY_SCB_CTRL_MODE_UART);
 111              		.loc 1 94 0
 112 007a 48EA0606 		orr	r6, r8, r6
 105:Generated_Source\PSoC6\pdl\drivers\peripheral\scb/cy_scb_uart.c ****                          _BOOL2FLD(SCB_UART_RX_CTRL_MP_MODE, config->enableMutliProcessorMode)     
 113              		.loc 1 105 0
 114 007e 08BF     		it	eq
 115 0080 4FF0000E 		moveq	lr, #0
 108:Generated_Source\PSoC6\pdl\drivers\peripheral\scb/cy_scb_uart.c ****                          _VAL2FLD(SCB_UART_RX_CTRL_BREAK_WIDTH, (config->breakWidth - 1UL))        
 116              		.loc 1 108 0
 117 0084 91F81180 		ldrb	r8, [r1, #17]	@ zero_extendqisi2
 105:Generated_Source\PSoC6\pdl\drivers\peripheral\scb/cy_scb_uart.c ****                          _BOOL2FLD(SCB_UART_RX_CTRL_MP_MODE, config->enableMutliProcessorMode)     
 118              		.loc 1 105 0
 119 0088 18BF     		it	ne
 120 008a 4FF0400E 		movne	lr, #64
 110:Generated_Source\PSoC6\pdl\drivers\peripheral\scb/cy_scb_uart.c ****                          _VAL2FLD(CY_SCB_UART_RX_CTRL_SET_PARITY, (uint32_t) config->parity);
 121              		.loc 1 110 0
 122 008e 2B43     		orrs	r3, r3, r5
 106:Generated_Source\PSoC6\pdl\drivers\peripheral\scb/cy_scb_uart.c ****                          _BOOL2FLD(SCB_UART_RX_CTRL_DROP_ON_PARITY_ERROR, config->dropOnParityError
 123              		.loc 1 106 0
 124 0090 BBF1000F 		cmp	fp, #0
  94:Generated_Source\PSoC6\pdl\drivers\peripheral\scb/cy_scb_uart.c ****                  _VAL2FLD(SCB_CTRL_MODE, CY_SCB_CTRL_MODE_UART);
 125              		.loc 1 94 0
 126 0094 46EA0A0A 		orr	r10, r6, r10
 110:Generated_Source\PSoC6\pdl\drivers\peripheral\scb/cy_scb_uart.c ****                          _VAL2FLD(CY_SCB_UART_RX_CTRL_SET_PARITY, (uint32_t) config->parity);
 127              		.loc 1 110 0
 128 0098 43EA0E03 		orr	r3, r3, lr
 106:Generated_Source\PSoC6\pdl\drivers\peripheral\scb/cy_scb_uart.c ****                          _BOOL2FLD(SCB_UART_RX_CTRL_DROP_ON_PARITY_ERROR, config->dropOnParityError
 129              		.loc 1 106 0
 130 009c 0CBF     		ite	eq
 131 009e 0026     		moveq	r6, #0
 132 00a0 4FF48066 		movne	r6, #1024
 107:Generated_Source\PSoC6\pdl\drivers\peripheral\scb/cy_scb_uart.c ****                          _BOOL2FLD(SCB_UART_RX_CTRL_DROP_ON_FRAME_ERROR, config->dropOnFrameError) 
 133              		.loc 1 107 0
 134 00a4 B9F1000F 		cmp	r9, #0
 112:Generated_Source\PSoC6\pdl\drivers\peripheral\scb/cy_scb_uart.c **** 
 113:Generated_Source\PSoC6\pdl\drivers\peripheral\scb/cy_scb_uart.c ****     SCB_RX_CTRL(base) = _BOOL2FLD(SCB_RX_CTRL_MSB_FIRST, config->enableMsbFirst)          |
 135              		.loc 1 113 0
 136 00a8 91F80CE0 		ldrb	lr, [r1, #12]	@ zero_extendqisi2
 114:Generated_Source\PSoC6\pdl\drivers\peripheral\scb/cy_scb_uart.c ****                     _BOOL2FLD(SCB_RX_CTRL_MEDIAN, ((config->enableInputFilter) || \
 137              		.loc 1 114 0
 138 00ac 91F80F90 		ldrb	r9, [r1, #15]	@ zero_extendqisi2
  92:Generated_Source\PSoC6\pdl\drivers\peripheral\scb/cy_scb_uart.c ****                  _BOOL2FLD(SCB_CTRL_BYTE_MODE, (config->dataWidth <= CY_SCB_BYTE_WIDTH)) |
 139              		.loc 1 92 0
 140 00b0 C0F800A0 		str	r10, [r0]
 110:Generated_Source\PSoC6\pdl\drivers\peripheral\scb/cy_scb_uart.c ****                          _VAL2FLD(CY_SCB_UART_RX_CTRL_SET_PARITY, (uint32_t) config->parity);
 141              		.loc 1 110 0
 142 00b4 43EA0603 		orr	r3, r3, r6
 107:Generated_Source\PSoC6\pdl\drivers\peripheral\scb/cy_scb_uart.c ****                          _BOOL2FLD(SCB_UART_RX_CTRL_DROP_ON_FRAME_ERROR, config->dropOnFrameError) 
ARM GAS  C:\Users\pearlstl\AppData\Local\Temp\ccCjmXK8.s 			page 6


 143              		.loc 1 107 0
 144 00b8 0CBF     		ite	eq
 145 00ba 0026     		moveq	r6, #0
 146 00bc 4FF48076 		movne	r6, #256
 108:Generated_Source\PSoC6\pdl\drivers\peripheral\scb/cy_scb_uart.c ****                          _VAL2FLD(SCB_UART_RX_CTRL_BREAK_WIDTH, (config->breakWidth - 1UL))        
 147              		.loc 1 108 0
 148 00c0 B8F1000F 		cmp	r8, #0
 149 00c4 0CBF     		ite	eq
 150 00c6 4FF00008 		moveq	r8, #0
 151 00ca 4FF40078 		movne	r8, #512
 110:Generated_Source\PSoC6\pdl\drivers\peripheral\scb/cy_scb_uart.c ****                          _VAL2FLD(CY_SCB_UART_RX_CTRL_SET_PARITY, (uint32_t) config->parity);
 152              		.loc 1 110 0
 153 00ce 3343     		orrs	r3, r3, r6
 102:Generated_Source\PSoC6\pdl\drivers\peripheral\scb/cy_scb_uart.c **** 
 154              		.loc 1 102 0
 155 00d0 3E06     		lsls	r6, r7, #24
 110:Generated_Source\PSoC6\pdl\drivers\peripheral\scb/cy_scb_uart.c ****                          _VAL2FLD(CY_SCB_UART_RX_CTRL_SET_PARITY, (uint32_t) config->parity);
 156              		.loc 1 110 0
 157 00d2 43EA0803 		orr	r3, r3, r8
 113:Generated_Source\PSoC6\pdl\drivers\peripheral\scb/cy_scb_uart.c ****                     _BOOL2FLD(SCB_RX_CTRL_MEDIAN, ((config->enableInputFilter) || \
 158              		.loc 1 113 0
 159 00d6 BEF1000F 		cmp	lr, #0
 102:Generated_Source\PSoC6\pdl\drivers\peripheral\scb/cy_scb_uart.c **** 
 160              		.loc 1 102 0
 161 00da 06F04076 		and	r6, r6, #50331648
 162 00de 0664     		str	r6, [r0, #64]
 113:Generated_Source\PSoC6\pdl\drivers\peripheral\scb/cy_scb_uart.c ****                     _BOOL2FLD(SCB_RX_CTRL_MEDIAN, ((config->enableInputFilter) || \
 163              		.loc 1 113 0
 164 00e0 08BF     		it	eq
 165 00e2 4FF00008 		moveq	r8, #0
 105:Generated_Source\PSoC6\pdl\drivers\peripheral\scb/cy_scb_uart.c ****                          _BOOL2FLD(SCB_UART_RX_CTRL_MP_MODE, config->enableMutliProcessorMode)     
 166              		.loc 1 105 0
 167 00e6 8364     		str	r3, [r0, #72]
 113:Generated_Source\PSoC6\pdl\drivers\peripheral\scb/cy_scb_uart.c ****                     _BOOL2FLD(SCB_RX_CTRL_MEDIAN, ((config->enableInputFilter) || \
 168              		.loc 1 113 0
 169 00e8 18BF     		it	ne
 170 00ea 4FF48078 		movne	r8, #256
 171              		.loc 1 114 0
 172 00ee B9F1000F 		cmp	r9, #0
 173 00f2 79D1     		bne	.L35
 174              		.loc 1 114 0 is_stmt 0 discriminator 2
 175 00f4 022F     		cmp	r7, #2
 176 00f6 14BF     		ite	ne
 177 00f8 4FF00009 		movne	r9, #0
 178 00fc 4FF40079 		moveq	r9, #512
 179              	.L12:
 115:Generated_Source\PSoC6\pdl\drivers\peripheral\scb/cy_scb_uart.c ****                                              (config->uartMode == CY_SCB_UART_IRDA))) |
 116:Generated_Source\PSoC6\pdl\drivers\peripheral\scb/cy_scb_uart.c ****                     _VAL2FLD(SCB_RX_CTRL_DATA_WIDTH, (config->dataWidth - 1UL));
 180              		.loc 1 116 0 is_stmt 1
 181 0100 631E     		subs	r3, r4, #1
 117:Generated_Source\PSoC6\pdl\drivers\peripheral\scb/cy_scb_uart.c **** 
 118:Generated_Source\PSoC6\pdl\drivers\peripheral\scb/cy_scb_uart.c ****     SCB_RX_MATCH(base) = _VAL2FLD(SCB_RX_MATCH_ADDR, config->receiverAddress) |
 182              		.loc 1 118 0
 183 0102 8E69     		ldr	r6, [r1, #24]
 184 0104 0C7D     		ldrb	r4, [r1, #20]	@ zero_extendqisi2
 116:Generated_Source\PSoC6\pdl\drivers\peripheral\scb/cy_scb_uart.c **** 
 185              		.loc 1 116 0
ARM GAS  C:\Users\pearlstl\AppData\Local\Temp\ccCjmXK8.s 			page 7


 186 0106 03F00F03 		and	r3, r3, #15
 115:Generated_Source\PSoC6\pdl\drivers\peripheral\scb/cy_scb_uart.c ****                                              (config->uartMode == CY_SCB_UART_IRDA))) |
 187              		.loc 1 115 0
 188 010a 48EA0308 		orr	r8, r8, r3
 189 010e 48EA0908 		orr	r8, r8, r9
 190              		.loc 1 118 0
 191 0112 3604     		lsls	r6, r6, #16
 113:Generated_Source\PSoC6\pdl\drivers\peripheral\scb/cy_scb_uart.c ****                     _BOOL2FLD(SCB_RX_CTRL_MEDIAN, ((config->enableInputFilter) || \
 192              		.loc 1 113 0
 193 0114 C0F80083 		str	r8, [r0, #768]
 194              		.loc 1 118 0
 195 0118 06F47F06 		and	r6, r6, #16711680
 119:Generated_Source\PSoC6\pdl\drivers\peripheral\scb/cy_scb_uart.c ****                      _VAL2FLD(SCB_RX_MATCH_MASK, config->receiverAddressMask);
 120:Generated_Source\PSoC6\pdl\drivers\peripheral\scb/cy_scb_uart.c **** 
 121:Generated_Source\PSoC6\pdl\drivers\peripheral\scb/cy_scb_uart.c ****     /* Configure SCB_CTRL.RX_CTRL then verify break width */
 122:Generated_Source\PSoC6\pdl\drivers\peripheral\scb/cy_scb_uart.c ****     CY_ASSERT_L2(CY_SCB_UART_IS_RX_BREAK_WIDTH_VALID(base, config->breakWidth));
 123:Generated_Source\PSoC6\pdl\drivers\peripheral\scb/cy_scb_uart.c **** 
 124:Generated_Source\PSoC6\pdl\drivers\peripheral\scb/cy_scb_uart.c ****     /* Configure the TX direction */
 125:Generated_Source\PSoC6\pdl\drivers\peripheral\scb/cy_scb_uart.c ****     SCB_UART_TX_CTRL(base) = _BOOL2FLD(SCB_UART_TX_CTRL_RETRY_ON_NACK, ((config->smartCardRetryOnNa
 196              		.loc 1 125 0
 197 011c 91F81F80 		ldrb	r8, [r1, #31]	@ zero_extendqisi2
 118:Generated_Source\PSoC6\pdl\drivers\peripheral\scb/cy_scb_uart.c ****                      _VAL2FLD(SCB_RX_MATCH_MASK, config->receiverAddressMask);
 198              		.loc 1 118 0
 199 0120 2643     		orrs	r6, r6, r4
 200 0122 C0F81063 		str	r6, [r0, #784]
 201              		.loc 1 125 0
 202 0126 B8F1000F 		cmp	r8, #0
 203 012a 0DD0     		beq	.L13
 204              		.loc 1 125 0 is_stmt 0 discriminator 1
 205 012c 012F     		cmp	r7, #1
 206 012e 68D0     		beq	.L52
 126:Generated_Source\PSoC6\pdl\drivers\peripheral\scb/cy_scb_uart.c ****                                                               (config->uartMode == CY_SCB_UART_SMAR
 127:Generated_Source\PSoC6\pdl\drivers\peripheral\scb/cy_scb_uart.c ****                          _VAL2FLD(SCB_UART_TX_CTRL_STOP_BITS, ((uint32_t) config->stopBits) - 1UL) 
 207              		.loc 1 127 0 is_stmt 1
 208 0130 4CEA0505 		orr	r5, ip, r5
 125:Generated_Source\PSoC6\pdl\drivers\peripheral\scb/cy_scb_uart.c ****                                                               (config->uartMode == CY_SCB_UART_SMAR
 209              		.loc 1 125 0
 210 0134 4564     		str	r5, [r0, #68]
 128:Generated_Source\PSoC6\pdl\drivers\peripheral\scb/cy_scb_uart.c ****                          _VAL2FLD(CY_SCB_UART_TX_CTRL_SET_PARITY, (uint32_t) config->parity);
 129:Generated_Source\PSoC6\pdl\drivers\peripheral\scb/cy_scb_uart.c **** 
 130:Generated_Source\PSoC6\pdl\drivers\peripheral\scb/cy_scb_uart.c ****     SCB_TX_CTRL(base)  = _BOOL2FLD(SCB_TX_CTRL_MSB_FIRST,  config->enableMsbFirst)    |
 211              		.loc 1 130 0
 212 0136 BEF1000F 		cmp	lr, #0
 213 013a 0BD0     		beq	.L24
 214 013c 43F48073 		orr	r3, r3, #256
 131:Generated_Source\PSoC6\pdl\drivers\peripheral\scb/cy_scb_uart.c ****                      _VAL2FLD(SCB_TX_CTRL_DATA_WIDTH,  (config->dataWidth - 1UL)) |
 132:Generated_Source\PSoC6\pdl\drivers\peripheral\scb/cy_scb_uart.c ****                      _BOOL2FLD(SCB_TX_CTRL_OPEN_DRAIN, (config->uartMode == CY_SCB_UART_SMARTCARD))
 215              		.loc 1 132 0
 216 0140 0025     		movs	r5, #0
 217 0142 0FE0     		b	.L17
 218              	.L26:
 219              		.cfi_def_cfa_offset 0
 220              		.cfi_restore 4
 221              		.cfi_restore 5
 222              		.cfi_restore 6
 223              		.cfi_restore 7
 224              		.cfi_restore 8
ARM GAS  C:\Users\pearlstl\AppData\Local\Temp\ccCjmXK8.s 			page 8


 225              		.cfi_restore 9
 226              		.cfi_restore 10
 227              		.cfi_restore 11
 228              		.cfi_restore 14
  60:Generated_Source\PSoC6\pdl\drivers\peripheral\scb/cy_scb_uart.c ****     }
 229              		.loc 1 60 0
 230 0144 3848     		ldr	r0, .L54
 231              	.LVL5:
 133:Generated_Source\PSoC6\pdl\drivers\peripheral\scb/cy_scb_uart.c **** 
 134:Generated_Source\PSoC6\pdl\drivers\peripheral\scb/cy_scb_uart.c ****     SCB_RX_FIFO_CTRL(base) = _VAL2FLD(SCB_RX_FIFO_CTRL_TRIGGER_LEVEL, config->rxFifoTriggerLevel);
 135:Generated_Source\PSoC6\pdl\drivers\peripheral\scb/cy_scb_uart.c **** 
 136:Generated_Source\PSoC6\pdl\drivers\peripheral\scb/cy_scb_uart.c ****     /* Configure the flow control */
 137:Generated_Source\PSoC6\pdl\drivers\peripheral\scb/cy_scb_uart.c ****     SCB_UART_FLOW_CTRL(base) = _BOOL2FLD(SCB_UART_FLOW_CTRL_CTS_ENABLED, config->enableCts) |
 138:Generated_Source\PSoC6\pdl\drivers\peripheral\scb/cy_scb_uart.c ****                            _BOOL2FLD(SCB_UART_FLOW_CTRL_CTS_POLARITY, (CY_SCB_UART_ACTIVE_HIGH == c
 139:Generated_Source\PSoC6\pdl\drivers\peripheral\scb/cy_scb_uart.c ****                            _BOOL2FLD(SCB_UART_FLOW_CTRL_RTS_POLARITY, (CY_SCB_UART_ACTIVE_HIGH == c
 140:Generated_Source\PSoC6\pdl\drivers\peripheral\scb/cy_scb_uart.c ****                            _VAL2FLD(SCB_UART_FLOW_CTRL_TRIGGER_LEVEL, config->rtsRxFifoLevel);
 141:Generated_Source\PSoC6\pdl\drivers\peripheral\scb/cy_scb_uart.c **** 
 142:Generated_Source\PSoC6\pdl\drivers\peripheral\scb/cy_scb_uart.c ****     SCB_TX_FIFO_CTRL(base) = _VAL2FLD(SCB_TX_FIFO_CTRL_TRIGGER_LEVEL, config->txFifoTriggerLevel);
 143:Generated_Source\PSoC6\pdl\drivers\peripheral\scb/cy_scb_uart.c **** 
 144:Generated_Source\PSoC6\pdl\drivers\peripheral\scb/cy_scb_uart.c ****     /* Set up interrupt sources */
 145:Generated_Source\PSoC6\pdl\drivers\peripheral\scb/cy_scb_uart.c ****     SCB_INTR_RX_MASK(base) = (config->rxFifoIntEnableMask & CY_SCB_UART_RX_INTR_MASK);
 146:Generated_Source\PSoC6\pdl\drivers\peripheral\scb/cy_scb_uart.c ****     SCB_INTR_TX_MASK(base) = (config->txFifoIntEnableMask & CY_SCB_UART_TX_INTR_MASK);
 147:Generated_Source\PSoC6\pdl\drivers\peripheral\scb/cy_scb_uart.c **** 
 148:Generated_Source\PSoC6\pdl\drivers\peripheral\scb/cy_scb_uart.c ****     /* Initialize context */
 149:Generated_Source\PSoC6\pdl\drivers\peripheral\scb/cy_scb_uart.c ****     if (NULL != context)
 150:Generated_Source\PSoC6\pdl\drivers\peripheral\scb/cy_scb_uart.c ****     {
 151:Generated_Source\PSoC6\pdl\drivers\peripheral\scb/cy_scb_uart.c ****         context->rxStatus  = 0UL;
 152:Generated_Source\PSoC6\pdl\drivers\peripheral\scb/cy_scb_uart.c ****         context->txStatus  = 0UL;
 153:Generated_Source\PSoC6\pdl\drivers\peripheral\scb/cy_scb_uart.c **** 
 154:Generated_Source\PSoC6\pdl\drivers\peripheral\scb/cy_scb_uart.c ****         context->rxRingBuf = NULL;
 155:Generated_Source\PSoC6\pdl\drivers\peripheral\scb/cy_scb_uart.c ****         context->rxRingBufSize = 0UL;
 156:Generated_Source\PSoC6\pdl\drivers\peripheral\scb/cy_scb_uart.c **** 
 157:Generated_Source\PSoC6\pdl\drivers\peripheral\scb/cy_scb_uart.c ****         context->rxBufIdx  = 0UL;
 158:Generated_Source\PSoC6\pdl\drivers\peripheral\scb/cy_scb_uart.c ****         context->txLeftToTransmit = 0UL;
 159:Generated_Source\PSoC6\pdl\drivers\peripheral\scb/cy_scb_uart.c **** 
 160:Generated_Source\PSoC6\pdl\drivers\peripheral\scb/cy_scb_uart.c ****         context->cbEvents = NULL;
 161:Generated_Source\PSoC6\pdl\drivers\peripheral\scb/cy_scb_uart.c **** 
 162:Generated_Source\PSoC6\pdl\drivers\peripheral\scb/cy_scb_uart.c ****     #if !defined(NDEBUG)
 163:Generated_Source\PSoC6\pdl\drivers\peripheral\scb/cy_scb_uart.c ****         /* Put an initialization key into the initKey variable to verify
 164:Generated_Source\PSoC6\pdl\drivers\peripheral\scb/cy_scb_uart.c ****         * context initialization in the transfer API.
 165:Generated_Source\PSoC6\pdl\drivers\peripheral\scb/cy_scb_uart.c ****         */
 166:Generated_Source\PSoC6\pdl\drivers\peripheral\scb/cy_scb_uart.c ****         context->initKey = CY_SCB_UART_INIT_KEY;
 167:Generated_Source\PSoC6\pdl\drivers\peripheral\scb/cy_scb_uart.c ****     #endif /* !(NDEBUG) */
 168:Generated_Source\PSoC6\pdl\drivers\peripheral\scb/cy_scb_uart.c ****     }
 169:Generated_Source\PSoC6\pdl\drivers\peripheral\scb/cy_scb_uart.c **** 
 170:Generated_Source\PSoC6\pdl\drivers\peripheral\scb/cy_scb_uart.c ****     return CY_SCB_UART_SUCCESS;
 171:Generated_Source\PSoC6\pdl\drivers\peripheral\scb/cy_scb_uart.c **** }
 232              		.loc 1 171 0
 233 0146 7047     		bx	lr
 234              	.LVL6:
 235              	.L13:
 236              		.cfi_def_cfa_offset 36
 237              		.cfi_offset 4, -36
 238              		.cfi_offset 5, -32
 239              		.cfi_offset 6, -28
 240              		.cfi_offset 7, -24
 241              		.cfi_offset 8, -20
ARM GAS  C:\Users\pearlstl\AppData\Local\Temp\ccCjmXK8.s 			page 9


 242              		.cfi_offset 9, -16
 243              		.cfi_offset 10, -12
 244              		.cfi_offset 11, -8
 245              		.cfi_offset 14, -4
 127:Generated_Source\PSoC6\pdl\drivers\peripheral\scb/cy_scb_uart.c ****                          _VAL2FLD(CY_SCB_UART_TX_CTRL_SET_PARITY, (uint32_t) config->parity);
 246              		.loc 1 127 0
 247 0148 4CEA0505 		orr	r5, ip, r5
 125:Generated_Source\PSoC6\pdl\drivers\peripheral\scb/cy_scb_uart.c ****                                                               (config->uartMode == CY_SCB_UART_SMAR
 248              		.loc 1 125 0
 249 014c 4564     		str	r5, [r0, #68]
 130:Generated_Source\PSoC6\pdl\drivers\peripheral\scb/cy_scb_uart.c ****                      _VAL2FLD(SCB_TX_CTRL_DATA_WIDTH,  (config->dataWidth - 1UL)) |
 250              		.loc 1 130 0
 251 014e BEF1000F 		cmp	lr, #0
 252 0152 53D1     		bne	.L37
 253              	.L24:
 254 0154 0024     		movs	r4, #0
 255              	.L16:
 132:Generated_Source\PSoC6\pdl\drivers\peripheral\scb/cy_scb_uart.c **** 
 256              		.loc 1 132 0
 257 0156 012F     		cmp	r7, #1
 130:Generated_Source\PSoC6\pdl\drivers\peripheral\scb/cy_scb_uart.c ****                      _VAL2FLD(SCB_TX_CTRL_DATA_WIDTH,  (config->dataWidth - 1UL)) |
 258              		.loc 1 130 0
 259 0158 43EA0403 		orr	r3, r3, r4
 132:Generated_Source\PSoC6\pdl\drivers\peripheral\scb/cy_scb_uart.c **** 
 260              		.loc 1 132 0
 261 015c 14BF     		ite	ne
 262 015e 0025     		movne	r5, #0
 263 0160 4FF48035 		moveq	r5, #65536
 264              	.L17:
 137:Generated_Source\PSoC6\pdl\drivers\peripheral\scb/cy_scb_uart.c ****                            _BOOL2FLD(SCB_UART_FLOW_CTRL_CTS_POLARITY, (CY_SCB_UART_ACTIVE_HIGH == c
 265              		.loc 1 137 0
 266 0164 91F82040 		ldrb	r4, [r1, #32]	@ zero_extendqisi2
 138:Generated_Source\PSoC6\pdl\drivers\peripheral\scb/cy_scb_uart.c ****                            _BOOL2FLD(SCB_UART_FLOW_CTRL_RTS_POLARITY, (CY_SCB_UART_ACTIVE_HIGH == c
 267              		.loc 1 138 0
 268 0168 91F821C0 		ldrb	ip, [r1, #33]	@ zero_extendqisi2
 139:Generated_Source\PSoC6\pdl\drivers\peripheral\scb/cy_scb_uart.c ****                            _VAL2FLD(SCB_UART_FLOW_CTRL_TRIGGER_LEVEL, config->rtsRxFifoLevel);
 269              		.loc 1 139 0
 270 016c 91F82460 		ldrb	r6, [r1, #36]	@ zero_extendqisi2
 271 0170 91F828E0 		ldrb	lr, [r1, #40]	@ zero_extendqisi2
 146:Generated_Source\PSoC6\pdl\drivers\peripheral\scb/cy_scb_uart.c **** 
 272              		.loc 1 146 0
 273 0174 CF6B     		ldr	r7, [r1, #60]
 137:Generated_Source\PSoC6\pdl\drivers\peripheral\scb/cy_scb_uart.c ****                            _BOOL2FLD(SCB_UART_FLOW_CTRL_CTS_POLARITY, (CY_SCB_UART_ACTIVE_HIGH == c
 274              		.loc 1 137 0
 275 0176 002C     		cmp	r4, #0
 131:Generated_Source\PSoC6\pdl\drivers\peripheral\scb/cy_scb_uart.c ****                      _BOOL2FLD(SCB_TX_CTRL_OPEN_DRAIN, (config->uartMode == CY_SCB_UART_SMARTCARD))
 276              		.loc 1 131 0
 277 0178 43EA0503 		orr	r3, r3, r5
 137:Generated_Source\PSoC6\pdl\drivers\peripheral\scb/cy_scb_uart.c ****                            _BOOL2FLD(SCB_UART_FLOW_CTRL_CTS_POLARITY, (CY_SCB_UART_ACTIVE_HIGH == c
 278              		.loc 1 137 0
 279 017c 0CBF     		ite	eq
 280 017e 0025     		moveq	r5, #0
 281 0180 4FF00075 		movne	r5, #33554432
 138:Generated_Source\PSoC6\pdl\drivers\peripheral\scb/cy_scb_uart.c ****                            _BOOL2FLD(SCB_UART_FLOW_CTRL_RTS_POLARITY, (CY_SCB_UART_ACTIVE_HIGH == c
 282              		.loc 1 138 0
 283 0184 BCF1010F 		cmp	ip, #1
 139:Generated_Source\PSoC6\pdl\drivers\peripheral\scb/cy_scb_uart.c ****                            _VAL2FLD(SCB_UART_FLOW_CTRL_TRIGGER_LEVEL, config->rtsRxFifoLevel);
ARM GAS  C:\Users\pearlstl\AppData\Local\Temp\ccCjmXK8.s 			page 10


 284              		.loc 1 139 0
 285 0188 46EA0506 		orr	r6, r6, r5
 138:Generated_Source\PSoC6\pdl\drivers\peripheral\scb/cy_scb_uart.c ****                            _BOOL2FLD(SCB_UART_FLOW_CTRL_RTS_POLARITY, (CY_SCB_UART_ACTIVE_HIGH == c
 286              		.loc 1 138 0
 287 018c 14BF     		ite	ne
 288 018e 0025     		movne	r5, #0
 289 0190 4FF08075 		moveq	r5, #16777216
 139:Generated_Source\PSoC6\pdl\drivers\peripheral\scb/cy_scb_uart.c ****                            _VAL2FLD(SCB_UART_FLOW_CTRL_TRIGGER_LEVEL, config->rtsRxFifoLevel);
 290              		.loc 1 139 0
 291 0194 BEF1010F 		cmp	lr, #1
 145:Generated_Source\PSoC6\pdl\drivers\peripheral\scb/cy_scb_uart.c ****     SCB_INTR_TX_MASK(base) = (config->txFifoIntEnableMask & CY_SCB_UART_TX_INTR_MASK);
 292              		.loc 1 145 0
 293 0198 4C6B     		ldr	r4, [r1, #52]
 139:Generated_Source\PSoC6\pdl\drivers\peripheral\scb/cy_scb_uart.c ****                            _VAL2FLD(SCB_UART_FLOW_CTRL_TRIGGER_LEVEL, config->rtsRxFifoLevel);
 294              		.loc 1 139 0
 295 019a 46EA0506 		orr	r6, r6, r5
 296 019e 14BF     		ite	ne
 297 01a0 0025     		movne	r5, #0
 298 01a2 4FF48035 		moveq	r5, #65536
 299 01a6 2E43     		orrs	r6, r6, r5
 145:Generated_Source\PSoC6\pdl\drivers\peripheral\scb/cy_scb_uart.c ****     SCB_INTR_TX_MASK(base) = (config->txFifoIntEnableMask & CY_SCB_UART_TX_INTR_MASK);
 300              		.loc 1 145 0
 301 01a8 40F66D35 		movw	r5, #2925
 302 01ac 2540     		ands	r5, r5, r4
 146:Generated_Source\PSoC6\pdl\drivers\peripheral\scb/cy_scb_uart.c **** 
 303              		.loc 1 146 0
 304 01ae 40F27374 		movw	r4, #1907
 305 01b2 3C40     		ands	r4, r4, r7
 134:Generated_Source\PSoC6\pdl\drivers\peripheral\scb/cy_scb_uart.c **** 
 306              		.loc 1 134 0
 307 01b4 91F83070 		ldrb	r7, [r1, #48]	@ zero_extendqisi2
 142:Generated_Source\PSoC6\pdl\drivers\peripheral\scb/cy_scb_uart.c **** 
 308              		.loc 1 142 0
 309 01b8 91F83810 		ldrb	r1, [r1, #56]	@ zero_extendqisi2
 310              	.LVL7:
 130:Generated_Source\PSoC6\pdl\drivers\peripheral\scb/cy_scb_uart.c ****                      _VAL2FLD(SCB_TX_CTRL_DATA_WIDTH,  (config->dataWidth - 1UL)) |
 311              		.loc 1 130 0
 312 01bc C0F80032 		str	r3, [r0, #512]
 134:Generated_Source\PSoC6\pdl\drivers\peripheral\scb/cy_scb_uart.c **** 
 313              		.loc 1 134 0
 314 01c0 C0F80473 		str	r7, [r0, #772]
 137:Generated_Source\PSoC6\pdl\drivers\peripheral\scb/cy_scb_uart.c ****                            _BOOL2FLD(SCB_UART_FLOW_CTRL_CTS_POLARITY, (CY_SCB_UART_ACTIVE_HIGH == c
 315              		.loc 1 137 0
 316 01c4 0665     		str	r6, [r0, #80]
 142:Generated_Source\PSoC6\pdl\drivers\peripheral\scb/cy_scb_uart.c **** 
 317              		.loc 1 142 0
 318 01c6 C0F80412 		str	r1, [r0, #516]
 145:Generated_Source\PSoC6\pdl\drivers\peripheral\scb/cy_scb_uart.c ****     SCB_INTR_TX_MASK(base) = (config->txFifoIntEnableMask & CY_SCB_UART_TX_INTR_MASK);
 319              		.loc 1 145 0
 320 01ca C0F8C85F 		str	r5, [r0, #4040]
 146:Generated_Source\PSoC6\pdl\drivers\peripheral\scb/cy_scb_uart.c **** 
 321              		.loc 1 146 0
 322 01ce C0F8884F 		str	r4, [r0, #3976]
 149:Generated_Source\PSoC6\pdl\drivers\peripheral\scb/cy_scb_uart.c ****     {
 323              		.loc 1 149 0
 324 01d2 1AB3     		cbz	r2, .L42
 151:Generated_Source\PSoC6\pdl\drivers\peripheral\scb/cy_scb_uart.c ****         context->txStatus  = 0UL;
ARM GAS  C:\Users\pearlstl\AppData\Local\Temp\ccCjmXK8.s 			page 11


 325              		.loc 1 151 0
 326 01d4 0020     		movs	r0, #0
 327              	.LVL8:
 328 01d6 5060     		str	r0, [r2, #4]
 154:Generated_Source\PSoC6\pdl\drivers\peripheral\scb/cy_scb_uart.c ****         context->rxRingBufSize = 0UL;
 329              		.loc 1 154 0
 330 01d8 9060     		str	r0, [r2, #8]
 152:Generated_Source\PSoC6\pdl\drivers\peripheral\scb/cy_scb_uart.c **** 
 331              		.loc 1 152 0
 332 01da 1060     		str	r0, [r2]
 155:Generated_Source\PSoC6\pdl\drivers\peripheral\scb/cy_scb_uart.c **** 
 333              		.loc 1 155 0
 334 01dc D060     		str	r0, [r2, #12]
 157:Generated_Source\PSoC6\pdl\drivers\peripheral\scb/cy_scb_uart.c ****         context->txLeftToTransmit = 0UL;
 335              		.loc 1 157 0
 336 01de 1062     		str	r0, [r2, #32]
 160:Generated_Source\PSoC6\pdl\drivers\peripheral\scb/cy_scb_uart.c **** 
 337              		.loc 1 160 0
 338 01e0 1063     		str	r0, [r2, #48]
 158:Generated_Source\PSoC6\pdl\drivers\peripheral\scb/cy_scb_uart.c **** 
 339              		.loc 1 158 0
 340 01e2 D062     		str	r0, [r2, #44]
 341 01e4 BDE8F08F 		pop	{r4, r5, r6, r7, r8, r9, r10, fp, pc}
 342              	.LVL9:
 343              	.L35:
 114:Generated_Source\PSoC6\pdl\drivers\peripheral\scb/cy_scb_uart.c ****                                              (config->uartMode == CY_SCB_UART_IRDA))) |
 344              		.loc 1 114 0
 345 01e8 4FF40079 		mov	r9, #512
 346 01ec 88E7     		b	.L12
 347              	.L51:
  81:Generated_Source\PSoC6\pdl\drivers\peripheral\scb/cy_scb_uart.c ****     {
 348              		.loc 1 81 0 discriminator 1
 349 01ee 8B7F     		ldrb	r3, [r1, #30]	@ zero_extendqisi2
 350 01f0 002B     		cmp	r3, #0
 351 01f2 7FF411AF 		bne	.L3
 352 01f6 4FF00076 		mov	r6, #33554432
 353 01fa 13E7     		b	.L4
 354              	.L37:
 130:Generated_Source\PSoC6\pdl\drivers\peripheral\scb/cy_scb_uart.c ****                      _VAL2FLD(SCB_TX_CTRL_DATA_WIDTH,  (config->dataWidth - 1UL)) |
 355              		.loc 1 130 0
 356 01fc 4FF48074 		mov	r4, #256
 357 0200 A9E7     		b	.L16
 358              	.L52:
 127:Generated_Source\PSoC6\pdl\drivers\peripheral\scb/cy_scb_uart.c ****                          _VAL2FLD(CY_SCB_UART_TX_CTRL_SET_PARITY, (uint32_t) config->parity);
 359              		.loc 1 127 0
 360 0202 4CEA0505 		orr	r5, ip, r5
 361 0206 45F48075 		orr	r5, r5, #256
 125:Generated_Source\PSoC6\pdl\drivers\peripheral\scb/cy_scb_uart.c ****                                                               (config->uartMode == CY_SCB_UART_SMAR
 362              		.loc 1 125 0
 363 020a 4564     		str	r5, [r0, #68]
 130:Generated_Source\PSoC6\pdl\drivers\peripheral\scb/cy_scb_uart.c ****                      _VAL2FLD(SCB_TX_CTRL_DATA_WIDTH,  (config->dataWidth - 1UL)) |
 364              		.loc 1 130 0
 365 020c BEF1000F 		cmp	lr, #0
 366 0210 07D0     		beq	.L53
 367 0212 43F48073 		orr	r3, r3, #256
 132:Generated_Source\PSoC6\pdl\drivers\peripheral\scb/cy_scb_uart.c **** 
 368              		.loc 1 132 0
ARM GAS  C:\Users\pearlstl\AppData\Local\Temp\ccCjmXK8.s 			page 12


 369 0216 4FF48035 		mov	r5, #65536
 370 021a A3E7     		b	.L17
 371              	.LVL10:
 372              	.L42:
 170:Generated_Source\PSoC6\pdl\drivers\peripheral\scb/cy_scb_uart.c **** }
 373              		.loc 1 170 0
 374 021c 1046     		mov	r0, r2
 375              	.LVL11:
 376 021e BDE8F08F 		pop	{r4, r5, r6, r7, r8, r9, r10, fp, pc}
 377              	.LVL12:
 378              	.L53:
 132:Generated_Source\PSoC6\pdl\drivers\peripheral\scb/cy_scb_uart.c **** 
 379              		.loc 1 132 0
 380 0222 4FF48035 		mov	r5, #65536
 381 0226 9DE7     		b	.L17
 382              	.L55:
 383              		.align	2
 384              	.L54:
 385 0228 0160AA00 		.word	11165697
 386              		.cfi_endproc
 387              	.LFE242:
 388              		.size	Cy_SCB_UART_Init, .-Cy_SCB_UART_Init
 389              		.section	.text.Cy_SCB_UART_DeInit,"ax",%progbits
 390              		.align	2
 391              		.global	Cy_SCB_UART_DeInit
 392              		.thumb
 393              		.thumb_func
 394              		.type	Cy_SCB_UART_DeInit, %function
 395              	Cy_SCB_UART_DeInit:
 396              	.LFB243:
 172:Generated_Source\PSoC6\pdl\drivers\peripheral\scb/cy_scb_uart.c **** 
 173:Generated_Source\PSoC6\pdl\drivers\peripheral\scb/cy_scb_uart.c **** 
 174:Generated_Source\PSoC6\pdl\drivers\peripheral\scb/cy_scb_uart.c **** /*******************************************************************************
 175:Generated_Source\PSoC6\pdl\drivers\peripheral\scb/cy_scb_uart.c **** * Function Name: Cy_SCB_UART_DeInit
 176:Generated_Source\PSoC6\pdl\drivers\peripheral\scb/cy_scb_uart.c **** ****************************************************************************//**
 177:Generated_Source\PSoC6\pdl\drivers\peripheral\scb/cy_scb_uart.c **** *
 178:Generated_Source\PSoC6\pdl\drivers\peripheral\scb/cy_scb_uart.c **** * De-initializes the SCB block. Returns the register values to default.
 179:Generated_Source\PSoC6\pdl\drivers\peripheral\scb/cy_scb_uart.c **** *
 180:Generated_Source\PSoC6\pdl\drivers\peripheral\scb/cy_scb_uart.c **** * \param base
 181:Generated_Source\PSoC6\pdl\drivers\peripheral\scb/cy_scb_uart.c **** * The pointer to the UART SCB instance.
 182:Generated_Source\PSoC6\pdl\drivers\peripheral\scb/cy_scb_uart.c **** *
 183:Generated_Source\PSoC6\pdl\drivers\peripheral\scb/cy_scb_uart.c **** * \note
 184:Generated_Source\PSoC6\pdl\drivers\peripheral\scb/cy_scb_uart.c **** * Ensure that the SCB block is disabled before calling this function.
 185:Generated_Source\PSoC6\pdl\drivers\peripheral\scb/cy_scb_uart.c **** *
 186:Generated_Source\PSoC6\pdl\drivers\peripheral\scb/cy_scb_uart.c **** *******************************************************************************/
 187:Generated_Source\PSoC6\pdl\drivers\peripheral\scb/cy_scb_uart.c **** void Cy_SCB_UART_DeInit(CySCB_Type *base)
 188:Generated_Source\PSoC6\pdl\drivers\peripheral\scb/cy_scb_uart.c **** {
 397              		.loc 1 188 0
 398              		.cfi_startproc
 399              		@ args = 0, pretend = 0, frame = 0
 400              		@ frame_needed = 0, uses_anonymous_args = 0
 401              		@ link register save eliminated.
 402              	.LVL13:
 189:Generated_Source\PSoC6\pdl\drivers\peripheral\scb/cy_scb_uart.c ****     /* De-initialize the UART interface */
 190:Generated_Source\PSoC6\pdl\drivers\peripheral\scb/cy_scb_uart.c ****     SCB_CTRL(base)      = CY_SCB_CTRL_DEF_VAL;
 403              		.loc 1 190 0
 404 0000 104B     		ldr	r3, .L57
ARM GAS  C:\Users\pearlstl\AppData\Local\Temp\ccCjmXK8.s 			page 13


 405 0002 0360     		str	r3, [r0]
 191:Generated_Source\PSoC6\pdl\drivers\peripheral\scb/cy_scb_uart.c ****     SCB_UART_CTRL(base) = CY_SCB_UART_CTRL_DEF_VAL;
 192:Generated_Source\PSoC6\pdl\drivers\peripheral\scb/cy_scb_uart.c **** 
 193:Generated_Source\PSoC6\pdl\drivers\peripheral\scb/cy_scb_uart.c ****     /* De-initialize the RX direction */
 194:Generated_Source\PSoC6\pdl\drivers\peripheral\scb/cy_scb_uart.c ****     SCB_UART_RX_CTRL(base) = 0UL;
 195:Generated_Source\PSoC6\pdl\drivers\peripheral\scb/cy_scb_uart.c ****     SCB_RX_CTRL(base)      = CY_SCB_RX_CTRL_DEF_VAL;
 406              		.loc 1 195 0
 407 0004 40F20712 		movw	r2, #263
 194:Generated_Source\PSoC6\pdl\drivers\peripheral\scb/cy_scb_uart.c ****     SCB_RX_CTRL(base)      = CY_SCB_RX_CTRL_DEF_VAL;
 408              		.loc 1 194 0
 409 0008 0023     		movs	r3, #0
 191:Generated_Source\PSoC6\pdl\drivers\peripheral\scb/cy_scb_uart.c ****     SCB_UART_CTRL(base) = CY_SCB_UART_CTRL_DEF_VAL;
 410              		.loc 1 191 0
 411 000a 4FF04071 		mov	r1, #50331648
 412 000e 0164     		str	r1, [r0, #64]
 194:Generated_Source\PSoC6\pdl\drivers\peripheral\scb/cy_scb_uart.c ****     SCB_RX_CTRL(base)      = CY_SCB_RX_CTRL_DEF_VAL;
 413              		.loc 1 194 0
 414 0010 8364     		str	r3, [r0, #72]
 415              		.loc 1 195 0
 416 0012 C0F80023 		str	r2, [r0, #768]
 196:Generated_Source\PSoC6\pdl\drivers\peripheral\scb/cy_scb_uart.c ****     SCB_RX_FIFO_CTRL(base) = 0UL;
 417              		.loc 1 196 0
 418 0016 C0F80433 		str	r3, [r0, #772]
 197:Generated_Source\PSoC6\pdl\drivers\peripheral\scb/cy_scb_uart.c ****     SCB_RX_MATCH(base)     = 0UL;
 419              		.loc 1 197 0
 420 001a C0F81033 		str	r3, [r0, #784]
 198:Generated_Source\PSoC6\pdl\drivers\peripheral\scb/cy_scb_uart.c **** 
 199:Generated_Source\PSoC6\pdl\drivers\peripheral\scb/cy_scb_uart.c ****     /* De-initialize the TX direction */
 200:Generated_Source\PSoC6\pdl\drivers\peripheral\scb/cy_scb_uart.c ****     SCB_UART_TX_CTRL(base) = 0UL;
 421              		.loc 1 200 0
 422 001e 4364     		str	r3, [r0, #68]
 201:Generated_Source\PSoC6\pdl\drivers\peripheral\scb/cy_scb_uart.c ****     SCB_TX_CTRL(base)      = CY_SCB_TX_CTRL_DEF_VAL;
 423              		.loc 1 201 0
 424 0020 C0F80022 		str	r2, [r0, #512]
 202:Generated_Source\PSoC6\pdl\drivers\peripheral\scb/cy_scb_uart.c ****     SCB_TX_FIFO_CTRL(base) = 0UL;
 425              		.loc 1 202 0
 426 0024 C0F80432 		str	r3, [r0, #516]
 203:Generated_Source\PSoC6\pdl\drivers\peripheral\scb/cy_scb_uart.c **** 
 204:Generated_Source\PSoC6\pdl\drivers\peripheral\scb/cy_scb_uart.c ****     /* De-initialize the flow control */
 205:Generated_Source\PSoC6\pdl\drivers\peripheral\scb/cy_scb_uart.c ****     SCB_UART_FLOW_CTRL(base) = 0UL;
 427              		.loc 1 205 0
 428 0028 0365     		str	r3, [r0, #80]
 206:Generated_Source\PSoC6\pdl\drivers\peripheral\scb/cy_scb_uart.c **** 
 207:Generated_Source\PSoC6\pdl\drivers\peripheral\scb/cy_scb_uart.c ****     /* De-initialize the interrupt sources */
 208:Generated_Source\PSoC6\pdl\drivers\peripheral\scb/cy_scb_uart.c ****     SCB_INTR_SPI_EC_MASK(base) = 0UL;
 429              		.loc 1 208 0
 430 002a C0F8C83E 		str	r3, [r0, #3784]
 209:Generated_Source\PSoC6\pdl\drivers\peripheral\scb/cy_scb_uart.c ****     SCB_INTR_I2C_EC_MASK(base) = 0UL;
 431              		.loc 1 209 0
 432 002e C0F8883E 		str	r3, [r0, #3720]
 210:Generated_Source\PSoC6\pdl\drivers\peripheral\scb/cy_scb_uart.c ****     SCB_INTR_RX_MASK(base)     = 0UL;
 433              		.loc 1 210 0
 434 0032 C0F8C83F 		str	r3, [r0, #4040]
 211:Generated_Source\PSoC6\pdl\drivers\peripheral\scb/cy_scb_uart.c ****     SCB_INTR_TX_MASK(base)     = 0UL;
 435              		.loc 1 211 0
 436 0036 C0F8883F 		str	r3, [r0, #3976]
 212:Generated_Source\PSoC6\pdl\drivers\peripheral\scb/cy_scb_uart.c ****     SCB_INTR_M_MASK(base)      = 0UL;
ARM GAS  C:\Users\pearlstl\AppData\Local\Temp\ccCjmXK8.s 			page 14


 437              		.loc 1 212 0
 438 003a C0F8083F 		str	r3, [r0, #3848]
 213:Generated_Source\PSoC6\pdl\drivers\peripheral\scb/cy_scb_uart.c ****     SCB_INTR_S_MASK(base)      = 0UL;
 439              		.loc 1 213 0
 440 003e C0F8483F 		str	r3, [r0, #3912]
 441 0042 7047     		bx	lr
 442              	.L58:
 443              		.align	2
 444              	.L57:
 445 0044 0F000003 		.word	50331663
 446              		.cfi_endproc
 447              	.LFE243:
 448              		.size	Cy_SCB_UART_DeInit, .-Cy_SCB_UART_DeInit
 449              		.section	.text.Cy_SCB_UART_Disable,"ax",%progbits
 450              		.align	2
 451              		.global	Cy_SCB_UART_Disable
 452              		.thumb
 453              		.thumb_func
 454              		.type	Cy_SCB_UART_Disable, %function
 455              	Cy_SCB_UART_Disable:
 456              	.LFB244:
 214:Generated_Source\PSoC6\pdl\drivers\peripheral\scb/cy_scb_uart.c **** }
 215:Generated_Source\PSoC6\pdl\drivers\peripheral\scb/cy_scb_uart.c **** 
 216:Generated_Source\PSoC6\pdl\drivers\peripheral\scb/cy_scb_uart.c **** 
 217:Generated_Source\PSoC6\pdl\drivers\peripheral\scb/cy_scb_uart.c **** /*******************************************************************************
 218:Generated_Source\PSoC6\pdl\drivers\peripheral\scb/cy_scb_uart.c **** * Function Name: Cy_SCB_UART_Disable
 219:Generated_Source\PSoC6\pdl\drivers\peripheral\scb/cy_scb_uart.c **** ****************************************************************************//**
 220:Generated_Source\PSoC6\pdl\drivers\peripheral\scb/cy_scb_uart.c **** *
 221:Generated_Source\PSoC6\pdl\drivers\peripheral\scb/cy_scb_uart.c **** * Disables the SCB block and clears context statuses.
 222:Generated_Source\PSoC6\pdl\drivers\peripheral\scb/cy_scb_uart.c **** * Note that after the block is disabled, the TX and RX FIFOs and
 223:Generated_Source\PSoC6\pdl\drivers\peripheral\scb/cy_scb_uart.c **** * hardware statuses are cleared. Also, the hardware stops driving the
 224:Generated_Source\PSoC6\pdl\drivers\peripheral\scb/cy_scb_uart.c **** * output and ignores the input. Refer to section \ref group_scb_uart_lp for more 
 225:Generated_Source\PSoC6\pdl\drivers\peripheral\scb/cy_scb_uart.c **** * information about UART pins when SCB disabled.
 226:Generated_Source\PSoC6\pdl\drivers\peripheral\scb/cy_scb_uart.c **** 
 227:Generated_Source\PSoC6\pdl\drivers\peripheral\scb/cy_scb_uart.c **** * \param base
 228:Generated_Source\PSoC6\pdl\drivers\peripheral\scb/cy_scb_uart.c **** * The pointer to the UART SCB instance.
 229:Generated_Source\PSoC6\pdl\drivers\peripheral\scb/cy_scb_uart.c **** *
 230:Generated_Source\PSoC6\pdl\drivers\peripheral\scb/cy_scb_uart.c **** * \param context
 231:Generated_Source\PSoC6\pdl\drivers\peripheral\scb/cy_scb_uart.c **** * The pointer to the context structure \ref cy_stc_scb_uart_context_t allocated
 232:Generated_Source\PSoC6\pdl\drivers\peripheral\scb/cy_scb_uart.c **** * by the user. The structure is used during the UART operation for internal
 233:Generated_Source\PSoC6\pdl\drivers\peripheral\scb/cy_scb_uart.c **** * configuration and data retention. The user must not modify anything
 234:Generated_Source\PSoC6\pdl\drivers\peripheral\scb/cy_scb_uart.c **** * in this structure.
 235:Generated_Source\PSoC6\pdl\drivers\peripheral\scb/cy_scb_uart.c **** * If only UART functions that do not require context will be used to pass NULL
 236:Generated_Source\PSoC6\pdl\drivers\peripheral\scb/cy_scb_uart.c **** * as pointer to context.
 237:Generated_Source\PSoC6\pdl\drivers\peripheral\scb/cy_scb_uart.c **** *
 238:Generated_Source\PSoC6\pdl\drivers\peripheral\scb/cy_scb_uart.c **** * \note
 239:Generated_Source\PSoC6\pdl\drivers\peripheral\scb/cy_scb_uart.c **** * Calling this function when the UART is busy (transmitter preforms data
 240:Generated_Source\PSoC6\pdl\drivers\peripheral\scb/cy_scb_uart.c **** * transfer or receiver is in the middle of data reception) may result transfer
 241:Generated_Source\PSoC6\pdl\drivers\peripheral\scb/cy_scb_uart.c **** * corruption because the hardware stops driving the outputs and ignores
 242:Generated_Source\PSoC6\pdl\drivers\peripheral\scb/cy_scb_uart.c **** * the inputs.
 243:Generated_Source\PSoC6\pdl\drivers\peripheral\scb/cy_scb_uart.c **** * Ensure that the UART is not busy before calling this function.
 244:Generated_Source\PSoC6\pdl\drivers\peripheral\scb/cy_scb_uart.c **** *
 245:Generated_Source\PSoC6\pdl\drivers\peripheral\scb/cy_scb_uart.c **** *******************************************************************************/
 246:Generated_Source\PSoC6\pdl\drivers\peripheral\scb/cy_scb_uart.c **** void Cy_SCB_UART_Disable(CySCB_Type *base, cy_stc_scb_uart_context_t *context)
 247:Generated_Source\PSoC6\pdl\drivers\peripheral\scb/cy_scb_uart.c **** {
 457              		.loc 1 247 0
 458              		.cfi_startproc
ARM GAS  C:\Users\pearlstl\AppData\Local\Temp\ccCjmXK8.s 			page 15


 459              		@ args = 0, pretend = 0, frame = 0
 460              		@ frame_needed = 0, uses_anonymous_args = 0
 461              		@ link register save eliminated.
 462              	.LVL14:
 248:Generated_Source\PSoC6\pdl\drivers\peripheral\scb/cy_scb_uart.c ****     SCB_CTRL(base) &= (uint32_t) ~SCB_CTRL_ENABLED_Msk;
 463              		.loc 1 248 0
 464 0000 0368     		ldr	r3, [r0]
 465 0002 23F00043 		bic	r3, r3, #-2147483648
 466 0006 0360     		str	r3, [r0]
 249:Generated_Source\PSoC6\pdl\drivers\peripheral\scb/cy_scb_uart.c **** 
 250:Generated_Source\PSoC6\pdl\drivers\peripheral\scb/cy_scb_uart.c ****     if (NULL != context)
 467              		.loc 1 250 0
 468 0008 21B1     		cbz	r1, .L59
 251:Generated_Source\PSoC6\pdl\drivers\peripheral\scb/cy_scb_uart.c ****     {
 252:Generated_Source\PSoC6\pdl\drivers\peripheral\scb/cy_scb_uart.c ****         context->rxStatus  = 0UL;
 469              		.loc 1 252 0
 470 000a 0023     		movs	r3, #0
 471 000c 4B60     		str	r3, [r1, #4]
 253:Generated_Source\PSoC6\pdl\drivers\peripheral\scb/cy_scb_uart.c ****         context->txStatus  = 0UL;
 472              		.loc 1 253 0
 473 000e 0B60     		str	r3, [r1]
 254:Generated_Source\PSoC6\pdl\drivers\peripheral\scb/cy_scb_uart.c **** 
 255:Generated_Source\PSoC6\pdl\drivers\peripheral\scb/cy_scb_uart.c ****         context->rxBufIdx  = 0UL;
 474              		.loc 1 255 0
 475 0010 0B62     		str	r3, [r1, #32]
 256:Generated_Source\PSoC6\pdl\drivers\peripheral\scb/cy_scb_uart.c ****         context->txLeftToTransmit = 0UL;
 476              		.loc 1 256 0
 477 0012 CB62     		str	r3, [r1, #44]
 478              	.L59:
 479 0014 7047     		bx	lr
 480              		.cfi_endproc
 481              	.LFE244:
 482              		.size	Cy_SCB_UART_Disable, .-Cy_SCB_UART_Disable
 483 0016 00BF     		.section	.text.Cy_SCB_UART_DeepSleepCallback,"ax",%progbits
 484              		.align	2
 485              		.global	Cy_SCB_UART_DeepSleepCallback
 486              		.thumb
 487              		.thumb_func
 488              		.type	Cy_SCB_UART_DeepSleepCallback, %function
 489              	Cy_SCB_UART_DeepSleepCallback:
 490              	.LFB245:
 257:Generated_Source\PSoC6\pdl\drivers\peripheral\scb/cy_scb_uart.c ****     }
 258:Generated_Source\PSoC6\pdl\drivers\peripheral\scb/cy_scb_uart.c **** }
 259:Generated_Source\PSoC6\pdl\drivers\peripheral\scb/cy_scb_uart.c **** 
 260:Generated_Source\PSoC6\pdl\drivers\peripheral\scb/cy_scb_uart.c **** 
 261:Generated_Source\PSoC6\pdl\drivers\peripheral\scb/cy_scb_uart.c **** /*******************************************************************************
 262:Generated_Source\PSoC6\pdl\drivers\peripheral\scb/cy_scb_uart.c **** * Function Name: Cy_SCB_UART_DeepSleepCallback
 263:Generated_Source\PSoC6\pdl\drivers\peripheral\scb/cy_scb_uart.c **** ****************************************************************************//**
 264:Generated_Source\PSoC6\pdl\drivers\peripheral\scb/cy_scb_uart.c **** *
 265:Generated_Source\PSoC6\pdl\drivers\peripheral\scb/cy_scb_uart.c **** * This function handles the transition of the SCB UART into and out of
 266:Generated_Source\PSoC6\pdl\drivers\peripheral\scb/cy_scb_uart.c **** * Deep Sleep mode. It prevents the device from entering Deep Sleep 
 267:Generated_Source\PSoC6\pdl\drivers\peripheral\scb/cy_scb_uart.c **** * mode if the UART is transmitting data or has any data in the RX FIFO. If the
 268:Generated_Source\PSoC6\pdl\drivers\peripheral\scb/cy_scb_uart.c **** * UART is ready to enter Deep Sleep mode, it is disabled. The UART is enabled
 269:Generated_Source\PSoC6\pdl\drivers\peripheral\scb/cy_scb_uart.c **** * when the device fails to enter Deep Sleep mode or it is awakened from
 270:Generated_Source\PSoC6\pdl\drivers\peripheral\scb/cy_scb_uart.c **** * Deep Sleep mode. While the UART is disabled, it stops driving the outputs
 271:Generated_Source\PSoC6\pdl\drivers\peripheral\scb/cy_scb_uart.c **** * and ignores the inputs. Any incoming data is ignored. Refer to section 
 272:Generated_Source\PSoC6\pdl\drivers\peripheral\scb/cy_scb_uart.c **** * \ref group_scb_uart_lp for more information about UART pins when SCB disabled.
ARM GAS  C:\Users\pearlstl\AppData\Local\Temp\ccCjmXK8.s 			page 16


 273:Generated_Source\PSoC6\pdl\drivers\peripheral\scb/cy_scb_uart.c **** *
 274:Generated_Source\PSoC6\pdl\drivers\peripheral\scb/cy_scb_uart.c **** * This function must be called during execution of \ref Cy_SysPm_CpuEnterDeepSleep,
 275:Generated_Source\PSoC6\pdl\drivers\peripheral\scb/cy_scb_uart.c **** * to do it, register this function as a callback before calling
 276:Generated_Source\PSoC6\pdl\drivers\peripheral\scb/cy_scb_uart.c **** * \ref Cy_SysPm_CpuEnterDeepSleep : specify \ref CY_SYSPM_DEEPSLEEP as the callback
 277:Generated_Source\PSoC6\pdl\drivers\peripheral\scb/cy_scb_uart.c **** * type and call \ref Cy_SysPm_RegisterCallback.
 278:Generated_Source\PSoC6\pdl\drivers\peripheral\scb/cy_scb_uart.c **** *
 279:Generated_Source\PSoC6\pdl\drivers\peripheral\scb/cy_scb_uart.c **** * \param callbackParams
 280:Generated_Source\PSoC6\pdl\drivers\peripheral\scb/cy_scb_uart.c **** * The pointer to the callback parameters structure
 281:Generated_Source\PSoC6\pdl\drivers\peripheral\scb/cy_scb_uart.c **** * \ref cy_stc_syspm_callback_params_t.
 282:Generated_Source\PSoC6\pdl\drivers\peripheral\scb/cy_scb_uart.c **** *
 283:Generated_Source\PSoC6\pdl\drivers\peripheral\scb/cy_scb_uart.c **** * \param mode
 284:Generated_Source\PSoC6\pdl\drivers\peripheral\scb/cy_scb_uart.c **** * Callback mode, see \ref cy_en_syspm_callback_mode_t
 285:Generated_Source\PSoC6\pdl\drivers\peripheral\scb/cy_scb_uart.c **** *
 286:Generated_Source\PSoC6\pdl\drivers\peripheral\scb/cy_scb_uart.c **** * \return
 287:Generated_Source\PSoC6\pdl\drivers\peripheral\scb/cy_scb_uart.c **** * \ref cy_en_syspm_status_t
 288:Generated_Source\PSoC6\pdl\drivers\peripheral\scb/cy_scb_uart.c **** *
 289:Generated_Source\PSoC6\pdl\drivers\peripheral\scb/cy_scb_uart.c **** *******************************************************************************/
 290:Generated_Source\PSoC6\pdl\drivers\peripheral\scb/cy_scb_uart.c **** cy_en_syspm_status_t Cy_SCB_UART_DeepSleepCallback(cy_stc_syspm_callback_params_t *callbackParams, 
 291:Generated_Source\PSoC6\pdl\drivers\peripheral\scb/cy_scb_uart.c **** {
 491              		.loc 1 291 0
 492              		.cfi_startproc
 493              		@ args = 0, pretend = 0, frame = 0
 494              		@ frame_needed = 0, uses_anonymous_args = 0
 495              		@ link register save eliminated.
 496              	.LVL15:
 292:Generated_Source\PSoC6\pdl\drivers\peripheral\scb/cy_scb_uart.c ****     cy_en_syspm_status_t retStatus = CY_SYSPM_FAIL;
 293:Generated_Source\PSoC6\pdl\drivers\peripheral\scb/cy_scb_uart.c **** 
 294:Generated_Source\PSoC6\pdl\drivers\peripheral\scb/cy_scb_uart.c ****     CySCB_Type *locBase = (CySCB_Type *) callbackParams->base;
 295:Generated_Source\PSoC6\pdl\drivers\peripheral\scb/cy_scb_uart.c ****     cy_stc_scb_uart_context_t *locContext = (cy_stc_scb_uart_context_t *) callbackParams->context;
 296:Generated_Source\PSoC6\pdl\drivers\peripheral\scb/cy_scb_uart.c **** 
 297:Generated_Source\PSoC6\pdl\drivers\peripheral\scb/cy_scb_uart.c ****     switch(mode)
 497              		.loc 1 297 0
 498 0000 0229     		cmp	r1, #2
 294:Generated_Source\PSoC6\pdl\drivers\peripheral\scb/cy_scb_uart.c ****     cy_stc_scb_uart_context_t *locContext = (cy_stc_scb_uart_context_t *) callbackParams->context;
 499              		.loc 1 294 0
 500 0002 0368     		ldr	r3, [r0]
 501              	.LVL16:
 502              		.loc 1 297 0
 503 0004 05D0     		beq	.L67
 504 0006 0829     		cmp	r1, #8
 505 0008 03D0     		beq	.L67
 506 000a 0129     		cmp	r1, #1
 507 000c 07D0     		beq	.L75
 508              	.LVL17:
 509              	.L73:
 292:Generated_Source\PSoC6\pdl\drivers\peripheral\scb/cy_scb_uart.c ****     cy_en_syspm_status_t retStatus = CY_SYSPM_FAIL;
 510              		.loc 1 292 0
 511 000e 1448     		ldr	r0, .L76
 512              	.LVL18:
 298:Generated_Source\PSoC6\pdl\drivers\peripheral\scb/cy_scb_uart.c ****     {
 299:Generated_Source\PSoC6\pdl\drivers\peripheral\scb/cy_scb_uart.c ****         case CY_SYSPM_CHECK_READY:
 300:Generated_Source\PSoC6\pdl\drivers\peripheral\scb/cy_scb_uart.c ****         {
 301:Generated_Source\PSoC6\pdl\drivers\peripheral\scb/cy_scb_uart.c ****             /* Check whether the High-level API is not busy executing the transmit
 302:Generated_Source\PSoC6\pdl\drivers\peripheral\scb/cy_scb_uart.c ****             * or receive operation.
 303:Generated_Source\PSoC6\pdl\drivers\peripheral\scb/cy_scb_uart.c ****             */
 304:Generated_Source\PSoC6\pdl\drivers\peripheral\scb/cy_scb_uart.c ****             if ((0UL == (CY_SCB_UART_TRANSMIT_ACTIVE & Cy_SCB_UART_GetTransmitStatus(locBase, locCo
 305:Generated_Source\PSoC6\pdl\drivers\peripheral\scb/cy_scb_uart.c ****                 (0UL == (CY_SCB_UART_RECEIVE_ACTIVE  & Cy_SCB_UART_GetReceiveStatus (locBase, locCo
ARM GAS  C:\Users\pearlstl\AppData\Local\Temp\ccCjmXK8.s 			page 17


 306:Generated_Source\PSoC6\pdl\drivers\peripheral\scb/cy_scb_uart.c ****             {
 307:Generated_Source\PSoC6\pdl\drivers\peripheral\scb/cy_scb_uart.c ****                 /* If all data elements are transmitted from the TX FIFO and
 308:Generated_Source\PSoC6\pdl\drivers\peripheral\scb/cy_scb_uart.c ****                 * shifter and the RX FIFO is empty: the UART is ready to enter
 309:Generated_Source\PSoC6\pdl\drivers\peripheral\scb/cy_scb_uart.c ****                 * Deep Sleep mode.
 310:Generated_Source\PSoC6\pdl\drivers\peripheral\scb/cy_scb_uart.c ****                 */
 311:Generated_Source\PSoC6\pdl\drivers\peripheral\scb/cy_scb_uart.c ****                 if (Cy_SCB_UART_IsTxComplete(locBase))
 312:Generated_Source\PSoC6\pdl\drivers\peripheral\scb/cy_scb_uart.c ****                 {
 313:Generated_Source\PSoC6\pdl\drivers\peripheral\scb/cy_scb_uart.c ****                     if (0UL == Cy_SCB_UART_GetNumInRxFifo(locBase))
 314:Generated_Source\PSoC6\pdl\drivers\peripheral\scb/cy_scb_uart.c ****                     {
 315:Generated_Source\PSoC6\pdl\drivers\peripheral\scb/cy_scb_uart.c ****                         /* Disable the UART. The transmitter stops driving the
 316:Generated_Source\PSoC6\pdl\drivers\peripheral\scb/cy_scb_uart.c ****                         * lines and the receiver stops receiving data until
 317:Generated_Source\PSoC6\pdl\drivers\peripheral\scb/cy_scb_uart.c ****                         * the UART is enabled.
 318:Generated_Source\PSoC6\pdl\drivers\peripheral\scb/cy_scb_uart.c ****                         * This happens when the device failed to enter Deep
 319:Generated_Source\PSoC6\pdl\drivers\peripheral\scb/cy_scb_uart.c ****                         * Sleep or it is awaken from Deep Sleep mode.
 320:Generated_Source\PSoC6\pdl\drivers\peripheral\scb/cy_scb_uart.c ****                         */
 321:Generated_Source\PSoC6\pdl\drivers\peripheral\scb/cy_scb_uart.c ****                         Cy_SCB_UART_Disable(locBase, locContext);
 322:Generated_Source\PSoC6\pdl\drivers\peripheral\scb/cy_scb_uart.c **** 
 323:Generated_Source\PSoC6\pdl\drivers\peripheral\scb/cy_scb_uart.c ****                         retStatus = CY_SYSPM_SUCCESS;
 324:Generated_Source\PSoC6\pdl\drivers\peripheral\scb/cy_scb_uart.c ****                     }
 325:Generated_Source\PSoC6\pdl\drivers\peripheral\scb/cy_scb_uart.c ****                 }
 326:Generated_Source\PSoC6\pdl\drivers\peripheral\scb/cy_scb_uart.c ****             }
 327:Generated_Source\PSoC6\pdl\drivers\peripheral\scb/cy_scb_uart.c ****         }
 328:Generated_Source\PSoC6\pdl\drivers\peripheral\scb/cy_scb_uart.c ****         break;
 329:Generated_Source\PSoC6\pdl\drivers\peripheral\scb/cy_scb_uart.c **** 
 330:Generated_Source\PSoC6\pdl\drivers\peripheral\scb/cy_scb_uart.c ****         case CY_SYSPM_CHECK_FAIL:
 331:Generated_Source\PSoC6\pdl\drivers\peripheral\scb/cy_scb_uart.c ****         {
 332:Generated_Source\PSoC6\pdl\drivers\peripheral\scb/cy_scb_uart.c ****             /* The other driver is not ready for Deep Sleep mode. Restore the
 333:Generated_Source\PSoC6\pdl\drivers\peripheral\scb/cy_scb_uart.c ****             * Active mode configuration.
 334:Generated_Source\PSoC6\pdl\drivers\peripheral\scb/cy_scb_uart.c ****             */
 335:Generated_Source\PSoC6\pdl\drivers\peripheral\scb/cy_scb_uart.c **** 
 336:Generated_Source\PSoC6\pdl\drivers\peripheral\scb/cy_scb_uart.c ****             /* Enable the UART to operate */
 337:Generated_Source\PSoC6\pdl\drivers\peripheral\scb/cy_scb_uart.c ****             Cy_SCB_UART_Enable(locBase);
 338:Generated_Source\PSoC6\pdl\drivers\peripheral\scb/cy_scb_uart.c **** 
 339:Generated_Source\PSoC6\pdl\drivers\peripheral\scb/cy_scb_uart.c ****             retStatus = CY_SYSPM_SUCCESS;
 340:Generated_Source\PSoC6\pdl\drivers\peripheral\scb/cy_scb_uart.c ****         }
 341:Generated_Source\PSoC6\pdl\drivers\peripheral\scb/cy_scb_uart.c ****         break;
 342:Generated_Source\PSoC6\pdl\drivers\peripheral\scb/cy_scb_uart.c **** 
 343:Generated_Source\PSoC6\pdl\drivers\peripheral\scb/cy_scb_uart.c ****         case CY_SYSPM_BEFORE_TRANSITION:
 344:Generated_Source\PSoC6\pdl\drivers\peripheral\scb/cy_scb_uart.c ****             /* Do noting: the UART is not capable of waking up from
 345:Generated_Source\PSoC6\pdl\drivers\peripheral\scb/cy_scb_uart.c ****             * Deep Sleep mode.
 346:Generated_Source\PSoC6\pdl\drivers\peripheral\scb/cy_scb_uart.c ****             */
 347:Generated_Source\PSoC6\pdl\drivers\peripheral\scb/cy_scb_uart.c ****         break;
 348:Generated_Source\PSoC6\pdl\drivers\peripheral\scb/cy_scb_uart.c **** 
 349:Generated_Source\PSoC6\pdl\drivers\peripheral\scb/cy_scb_uart.c ****         case CY_SYSPM_AFTER_TRANSITION:
 350:Generated_Source\PSoC6\pdl\drivers\peripheral\scb/cy_scb_uart.c ****         {
 351:Generated_Source\PSoC6\pdl\drivers\peripheral\scb/cy_scb_uart.c ****             /* Enable the UART to operate */
 352:Generated_Source\PSoC6\pdl\drivers\peripheral\scb/cy_scb_uart.c ****             Cy_SCB_UART_Enable(locBase);
 353:Generated_Source\PSoC6\pdl\drivers\peripheral\scb/cy_scb_uart.c **** 
 354:Generated_Source\PSoC6\pdl\drivers\peripheral\scb/cy_scb_uart.c ****             retStatus = CY_SYSPM_SUCCESS;
 355:Generated_Source\PSoC6\pdl\drivers\peripheral\scb/cy_scb_uart.c ****         }
 356:Generated_Source\PSoC6\pdl\drivers\peripheral\scb/cy_scb_uart.c ****         break;
 357:Generated_Source\PSoC6\pdl\drivers\peripheral\scb/cy_scb_uart.c **** 
 358:Generated_Source\PSoC6\pdl\drivers\peripheral\scb/cy_scb_uart.c ****         default:
 359:Generated_Source\PSoC6\pdl\drivers\peripheral\scb/cy_scb_uart.c ****             break;
 360:Generated_Source\PSoC6\pdl\drivers\peripheral\scb/cy_scb_uart.c ****     }
 361:Generated_Source\PSoC6\pdl\drivers\peripheral\scb/cy_scb_uart.c **** 
 362:Generated_Source\PSoC6\pdl\drivers\peripheral\scb/cy_scb_uart.c ****     return (retStatus);
ARM GAS  C:\Users\pearlstl\AppData\Local\Temp\ccCjmXK8.s 			page 18


 363:Generated_Source\PSoC6\pdl\drivers\peripheral\scb/cy_scb_uart.c **** }
 513              		.loc 1 363 0
 514 0010 7047     		bx	lr
 515              	.LVL19:
 516              	.L67:
 517              	.LBB198:
 518              	.LBB199:
 519              		.file 2 "Generated_Source\\PSoC6\\pdl\\drivers\\peripheral\\scb\\cy_scb_uart.h"
   1:Generated_Source\PSoC6\pdl\drivers\peripheral\scb/cy_scb_uart.h **** /***************************************************************************//**
   2:Generated_Source\PSoC6\pdl\drivers\peripheral\scb/cy_scb_uart.h **** * \file cy_scb_uart.h
   3:Generated_Source\PSoC6\pdl\drivers\peripheral\scb/cy_scb_uart.h **** * \version 2.20
   4:Generated_Source\PSoC6\pdl\drivers\peripheral\scb/cy_scb_uart.h **** *
   5:Generated_Source\PSoC6\pdl\drivers\peripheral\scb/cy_scb_uart.h **** * Provides UART API declarations of the SCB driver.
   6:Generated_Source\PSoC6\pdl\drivers\peripheral\scb/cy_scb_uart.h **** *
   7:Generated_Source\PSoC6\pdl\drivers\peripheral\scb/cy_scb_uart.h **** ********************************************************************************
   8:Generated_Source\PSoC6\pdl\drivers\peripheral\scb/cy_scb_uart.h **** * \copyright
   9:Generated_Source\PSoC6\pdl\drivers\peripheral\scb/cy_scb_uart.h **** * Copyright 2016-2018, Cypress Semiconductor Corporation.  All rights reserved.
  10:Generated_Source\PSoC6\pdl\drivers\peripheral\scb/cy_scb_uart.h **** * You may use this file only in accordance with the license, terms, conditions,
  11:Generated_Source\PSoC6\pdl\drivers\peripheral\scb/cy_scb_uart.h **** * disclaimers, and limitations in the end user license agreement accompanying
  12:Generated_Source\PSoC6\pdl\drivers\peripheral\scb/cy_scb_uart.h **** * the software package with which this file was provided.
  13:Generated_Source\PSoC6\pdl\drivers\peripheral\scb/cy_scb_uart.h **** *******************************************************************************/
  14:Generated_Source\PSoC6\pdl\drivers\peripheral\scb/cy_scb_uart.h **** 
  15:Generated_Source\PSoC6\pdl\drivers\peripheral\scb/cy_scb_uart.h **** /**
  16:Generated_Source\PSoC6\pdl\drivers\peripheral\scb/cy_scb_uart.h **** * \addtogroup group_scb_uart
  17:Generated_Source\PSoC6\pdl\drivers\peripheral\scb/cy_scb_uart.h **** * \{
  18:Generated_Source\PSoC6\pdl\drivers\peripheral\scb/cy_scb_uart.h **** * Driver API for UART
  19:Generated_Source\PSoC6\pdl\drivers\peripheral\scb/cy_scb_uart.h **** *
  20:Generated_Source\PSoC6\pdl\drivers\peripheral\scb/cy_scb_uart.h **** * The functions and other declarations used in this part of the driver are in 
  21:Generated_Source\PSoC6\pdl\drivers\peripheral\scb/cy_scb_uart.h **** * cy_scb_uart.h. You can also include cy_pdl.h (ModusToolbox only) to get access 
  22:Generated_Source\PSoC6\pdl\drivers\peripheral\scb/cy_scb_uart.h **** * to all functions and declarations in the PDL.
  23:Generated_Source\PSoC6\pdl\drivers\peripheral\scb/cy_scb_uart.h **** *
  24:Generated_Source\PSoC6\pdl\drivers\peripheral\scb/cy_scb_uart.h **** * The Universal Asynchronous Receiver/Transmitter (UART) protocol is an 
  25:Generated_Source\PSoC6\pdl\drivers\peripheral\scb/cy_scb_uart.h **** * asynchronous serial interface protocol. UART communication is typically 
  26:Generated_Source\PSoC6\pdl\drivers\peripheral\scb/cy_scb_uart.h **** * point-to-point. The UART interface consists of two signals:
  27:Generated_Source\PSoC6\pdl\drivers\peripheral\scb/cy_scb_uart.h **** * * TX: Transmitter output
  28:Generated_Source\PSoC6\pdl\drivers\peripheral\scb/cy_scb_uart.h **** * * RX: Receiver input
  29:Generated_Source\PSoC6\pdl\drivers\peripheral\scb/cy_scb_uart.h **** *
  30:Generated_Source\PSoC6\pdl\drivers\peripheral\scb/cy_scb_uart.h **** * Additionally, two side-band signals are used to implement flow control in 
  31:Generated_Source\PSoC6\pdl\drivers\peripheral\scb/cy_scb_uart.h **** * UART. Note that the flow control applies only to TX functionality.
  32:Generated_Source\PSoC6\pdl\drivers\peripheral\scb/cy_scb_uart.h **** * * Clear to Send (CTS): This is an input signal to the transmitter. 
  33:Generated_Source\PSoC6\pdl\drivers\peripheral\scb/cy_scb_uart.h **** *   When active, it indicates that the slave is ready for the master to 
  34:Generated_Source\PSoC6\pdl\drivers\peripheral\scb/cy_scb_uart.h **** *   transmit data.
  35:Generated_Source\PSoC6\pdl\drivers\peripheral\scb/cy_scb_uart.h **** * * Ready to Send (RTS): This is an output signal from the receiver. When 
  36:Generated_Source\PSoC6\pdl\drivers\peripheral\scb/cy_scb_uart.h **** *   active, it indicates that the receiver is ready to receive data
  37:Generated_Source\PSoC6\pdl\drivers\peripheral\scb/cy_scb_uart.h **** *
  38:Generated_Source\PSoC6\pdl\drivers\peripheral\scb/cy_scb_uart.h **** * Features:
  39:Generated_Source\PSoC6\pdl\drivers\peripheral\scb/cy_scb_uart.h **** * * Supports UART protocol
  40:Generated_Source\PSoC6\pdl\drivers\peripheral\scb/cy_scb_uart.h **** *   * Standard UART
  41:Generated_Source\PSoC6\pdl\drivers\peripheral\scb/cy_scb_uart.h **** *   * Multi-processor mode
  42:Generated_Source\PSoC6\pdl\drivers\peripheral\scb/cy_scb_uart.h **** * * SmartCard (ISO7816) reader
  43:Generated_Source\PSoC6\pdl\drivers\peripheral\scb/cy_scb_uart.h **** * * IrDA
  44:Generated_Source\PSoC6\pdl\drivers\peripheral\scb/cy_scb_uart.h **** * * Data frame size programmable from 4 to 16 bits
  45:Generated_Source\PSoC6\pdl\drivers\peripheral\scb/cy_scb_uart.h **** * * Programmable number of STOP bits, which can be set in terms of half bit 
  46:Generated_Source\PSoC6\pdl\drivers\peripheral\scb/cy_scb_uart.h **** *   periods between 1 and 4
  47:Generated_Source\PSoC6\pdl\drivers\peripheral\scb/cy_scb_uart.h **** * * Parity support (odd and even parity)
  48:Generated_Source\PSoC6\pdl\drivers\peripheral\scb/cy_scb_uart.h **** * * Median filter on Rx input
  49:Generated_Source\PSoC6\pdl\drivers\peripheral\scb/cy_scb_uart.h **** * * Programmable oversampling
ARM GAS  C:\Users\pearlstl\AppData\Local\Temp\ccCjmXK8.s 			page 19


  50:Generated_Source\PSoC6\pdl\drivers\peripheral\scb/cy_scb_uart.h **** * * Start skipping
  51:Generated_Source\PSoC6\pdl\drivers\peripheral\scb/cy_scb_uart.h **** *
  52:Generated_Source\PSoC6\pdl\drivers\peripheral\scb/cy_scb_uart.h **** ********************************************************************************
  53:Generated_Source\PSoC6\pdl\drivers\peripheral\scb/cy_scb_uart.h **** * \section group_scb_uart_configuration Configuration Considerations
  54:Generated_Source\PSoC6\pdl\drivers\peripheral\scb/cy_scb_uart.h **** ********************************************************************************
  55:Generated_Source\PSoC6\pdl\drivers\peripheral\scb/cy_scb_uart.h **** * The UART driver configuration can be divided to number of sequential
  56:Generated_Source\PSoC6\pdl\drivers\peripheral\scb/cy_scb_uart.h **** * steps listed below:
  57:Generated_Source\PSoC6\pdl\drivers\peripheral\scb/cy_scb_uart.h **** * * \ref group_scb_uart_config
  58:Generated_Source\PSoC6\pdl\drivers\peripheral\scb/cy_scb_uart.h **** * * \ref group_scb_uart_pins
  59:Generated_Source\PSoC6\pdl\drivers\peripheral\scb/cy_scb_uart.h **** * * \ref group_scb_uart_clock
  60:Generated_Source\PSoC6\pdl\drivers\peripheral\scb/cy_scb_uart.h **** * * \ref group_scb_uart_data_rate
  61:Generated_Source\PSoC6\pdl\drivers\peripheral\scb/cy_scb_uart.h **** * * \ref group_scb_uart_intr
  62:Generated_Source\PSoC6\pdl\drivers\peripheral\scb/cy_scb_uart.h **** * * \ref group_scb_uart_enable
  63:Generated_Source\PSoC6\pdl\drivers\peripheral\scb/cy_scb_uart.h **** *
  64:Generated_Source\PSoC6\pdl\drivers\peripheral\scb/cy_scb_uart.h **** * \note
  65:Generated_Source\PSoC6\pdl\drivers\peripheral\scb/cy_scb_uart.h **** * UART driver is built on top of the SCB hardware block. The SCB5 instance is
  66:Generated_Source\PSoC6\pdl\drivers\peripheral\scb/cy_scb_uart.h **** * used as an example for all code snippets. Modify the code to match your
  67:Generated_Source\PSoC6\pdl\drivers\peripheral\scb/cy_scb_uart.h **** * design.
  68:Generated_Source\PSoC6\pdl\drivers\peripheral\scb/cy_scb_uart.h **** *
  69:Generated_Source\PSoC6\pdl\drivers\peripheral\scb/cy_scb_uart.h **** ********************************************************************************
  70:Generated_Source\PSoC6\pdl\drivers\peripheral\scb/cy_scb_uart.h **** * \subsection group_scb_uart_config Configure UART
  71:Generated_Source\PSoC6\pdl\drivers\peripheral\scb/cy_scb_uart.h **** ********************************************************************************
  72:Generated_Source\PSoC6\pdl\drivers\peripheral\scb/cy_scb_uart.h **** * To set up the UART driver, provide the configuration parameters in the
  73:Generated_Source\PSoC6\pdl\drivers\peripheral\scb/cy_scb_uart.h **** * \ref cy_stc_scb_uart_config_t structure. For example: provide uartMode,
  74:Generated_Source\PSoC6\pdl\drivers\peripheral\scb/cy_scb_uart.h **** * oversample, dataWidth, enableMsbFirst, parity, and stopBits. The other
  75:Generated_Source\PSoC6\pdl\drivers\peripheral\scb/cy_scb_uart.h **** * parameters are optional. To initialize the driver, call \ref Cy_SCB_UART_Init 
  76:Generated_Source\PSoC6\pdl\drivers\peripheral\scb/cy_scb_uart.h **** * function providing a pointer to the populated \ref cy_stc_scb_uart_config_t 
  77:Generated_Source\PSoC6\pdl\drivers\peripheral\scb/cy_scb_uart.h **** * structure and the allocated \ref cy_stc_scb_uart_context_t structure.
  78:Generated_Source\PSoC6\pdl\drivers\peripheral\scb/cy_scb_uart.h **** *
  79:Generated_Source\PSoC6\pdl\drivers\peripheral\scb/cy_scb_uart.h **** * \snippet SCB_CompDatasheet_sut_01_revA.cydsn\uart_snippets.c UART_CFG
  80:Generated_Source\PSoC6\pdl\drivers\peripheral\scb/cy_scb_uart.h **** *
  81:Generated_Source\PSoC6\pdl\drivers\peripheral\scb/cy_scb_uart.h **** ********************************************************************************
  82:Generated_Source\PSoC6\pdl\drivers\peripheral\scb/cy_scb_uart.h **** * \subsection group_scb_uart_pins Assign and Configure Pins
  83:Generated_Source\PSoC6\pdl\drivers\peripheral\scb/cy_scb_uart.h **** ********************************************************************************
  84:Generated_Source\PSoC6\pdl\drivers\peripheral\scb/cy_scb_uart.h **** * Only dedicated SCB pins can be used for UART operation. The HSIOM
  85:Generated_Source\PSoC6\pdl\drivers\peripheral\scb/cy_scb_uart.h **** * register must be configured to connect dedicated SCB UART pins to the 
  86:Generated_Source\PSoC6\pdl\drivers\peripheral\scb/cy_scb_uart.h **** * SCB block. Also, the UART output pins must be configured in Strong Drive 
  87:Generated_Source\PSoC6\pdl\drivers\peripheral\scb/cy_scb_uart.h **** * Input Off mode and UART input pins in Digital High-Z:
  88:Generated_Source\PSoC6\pdl\drivers\peripheral\scb/cy_scb_uart.h **** *
  89:Generated_Source\PSoC6\pdl\drivers\peripheral\scb/cy_scb_uart.h **** * \snippet SCB_CompDatasheet_sut_01_revA.cydsn\uart_snippets.c UART_CFG_PINS
  90:Generated_Source\PSoC6\pdl\drivers\peripheral\scb/cy_scb_uart.h **** *
  91:Generated_Source\PSoC6\pdl\drivers\peripheral\scb/cy_scb_uart.h **** ********************************************************************************
  92:Generated_Source\PSoC6\pdl\drivers\peripheral\scb/cy_scb_uart.h **** * \subsection group_scb_uart_clock Assign Clock Divider
  93:Generated_Source\PSoC6\pdl\drivers\peripheral\scb/cy_scb_uart.h **** ********************************************************************************
  94:Generated_Source\PSoC6\pdl\drivers\peripheral\scb/cy_scb_uart.h **** * A clock source must be connected to the SCB block to oversample input and
  95:Generated_Source\PSoC6\pdl\drivers\peripheral\scb/cy_scb_uart.h **** * output signals, in this document this clock will be referred as clk_scb.
  96:Generated_Source\PSoC6\pdl\drivers\peripheral\scb/cy_scb_uart.h **** * You must use one of available integer or fractional dividers. Use the 
  97:Generated_Source\PSoC6\pdl\drivers\peripheral\scb/cy_scb_uart.h **** * \ref group_sysclk driver API to do this.
  98:Generated_Source\PSoC6\pdl\drivers\peripheral\scb/cy_scb_uart.h **** *
  99:Generated_Source\PSoC6\pdl\drivers\peripheral\scb/cy_scb_uart.h **** * \snippet SCB_CompDatasheet_sut_01_revA.cydsn\uart_snippets.c UART_CFG_ASSIGN_CLOCK
 100:Generated_Source\PSoC6\pdl\drivers\peripheral\scb/cy_scb_uart.h **** *
 101:Generated_Source\PSoC6\pdl\drivers\peripheral\scb/cy_scb_uart.h **** ********************************************************************************
 102:Generated_Source\PSoC6\pdl\drivers\peripheral\scb/cy_scb_uart.h **** * \subsection group_scb_uart_data_rate Configure Baud Rate
 103:Generated_Source\PSoC6\pdl\drivers\peripheral\scb/cy_scb_uart.h **** ********************************************************************************
 104:Generated_Source\PSoC6\pdl\drivers\peripheral\scb/cy_scb_uart.h **** * To get the UART to operate with the desired baud rate, the clk_scb frequency
 105:Generated_Source\PSoC6\pdl\drivers\peripheral\scb/cy_scb_uart.h **** * and the oversample must be configured. Use the \ref group_sysclk driver API
 106:Generated_Source\PSoC6\pdl\drivers\peripheral\scb/cy_scb_uart.h **** * to configure clk_scb frequency. Set the <em><b>oversample parameter
ARM GAS  C:\Users\pearlstl\AppData\Local\Temp\ccCjmXK8.s 			page 20


 107:Generated_Source\PSoC6\pdl\drivers\peripheral\scb/cy_scb_uart.h **** * in configuration structure</b></em> to define the number of the SCB clocks
 108:Generated_Source\PSoC6\pdl\drivers\peripheral\scb/cy_scb_uart.h **** * within one UART bit-time.
 109:Generated_Source\PSoC6\pdl\drivers\peripheral\scb/cy_scb_uart.h **** *
 110:Generated_Source\PSoC6\pdl\drivers\peripheral\scb/cy_scb_uart.h **** * \snippet SCB_CompDatasheet_sut_01_revA.cydsn\uart_snippets.c UART_CFG_DATA_RATE
 111:Generated_Source\PSoC6\pdl\drivers\peripheral\scb/cy_scb_uart.h **** *
 112:Generated_Source\PSoC6\pdl\drivers\peripheral\scb/cy_scb_uart.h **** * <b>Refer to the technical reference manual (TRM) section UART sub-section
 113:Generated_Source\PSoC6\pdl\drivers\peripheral\scb/cy_scb_uart.h **** * Clocking and Oversampling to get information about how to configure the UART to run with
 114:Generated_Source\PSoC6\pdl\drivers\peripheral\scb/cy_scb_uart.h **** * desired baud rate.</b>
 115:Generated_Source\PSoC6\pdl\drivers\peripheral\scb/cy_scb_uart.h **** *
 116:Generated_Source\PSoC6\pdl\drivers\peripheral\scb/cy_scb_uart.h **** ********************************************************************************
 117:Generated_Source\PSoC6\pdl\drivers\peripheral\scb/cy_scb_uart.h **** * \subsection group_scb_uart_intr Configure Interrupt
 118:Generated_Source\PSoC6\pdl\drivers\peripheral\scb/cy_scb_uart.h **** ********************************************************************************
 119:Generated_Source\PSoC6\pdl\drivers\peripheral\scb/cy_scb_uart.h **** * The interrupt is optional for the UART operation. To configure interrupt
 120:Generated_Source\PSoC6\pdl\drivers\peripheral\scb/cy_scb_uart.h **** * the \ref Cy_SCB_UART_Interrupt function must be called in the interrupt
 121:Generated_Source\PSoC6\pdl\drivers\peripheral\scb/cy_scb_uart.h **** * handler for the selected SCB instance. Also, this interrupt must be enabled
 122:Generated_Source\PSoC6\pdl\drivers\peripheral\scb/cy_scb_uart.h **** * in the NVIC.
 123:Generated_Source\PSoC6\pdl\drivers\peripheral\scb/cy_scb_uart.h **** * The interrupt must be configured when \ref group_scb_uart_hl will be used.
 124:Generated_Source\PSoC6\pdl\drivers\peripheral\scb/cy_scb_uart.h **** *
 125:Generated_Source\PSoC6\pdl\drivers\peripheral\scb/cy_scb_uart.h **** * \snippet SCB_CompDatasheet_sut_01_revA.cydsn\uart_snippets.c UART_INTR_A
 126:Generated_Source\PSoC6\pdl\drivers\peripheral\scb/cy_scb_uart.h **** * \snippet SCB_CompDatasheet_sut_01_revA.cydsn\uart_snippets.c UART_INTR_B
 127:Generated_Source\PSoC6\pdl\drivers\peripheral\scb/cy_scb_uart.h **** *
 128:Generated_Source\PSoC6\pdl\drivers\peripheral\scb/cy_scb_uart.h **** ********************************************************************************
 129:Generated_Source\PSoC6\pdl\drivers\peripheral\scb/cy_scb_uart.h **** * \subsection group_scb_uart_enable Enable UART
 130:Generated_Source\PSoC6\pdl\drivers\peripheral\scb/cy_scb_uart.h **** ********************************************************************************
 131:Generated_Source\PSoC6\pdl\drivers\peripheral\scb/cy_scb_uart.h **** * Finally, enable the UART operation by calling \ref Cy_SCB_UART_Enable.
 132:Generated_Source\PSoC6\pdl\drivers\peripheral\scb/cy_scb_uart.h **** *
 133:Generated_Source\PSoC6\pdl\drivers\peripheral\scb/cy_scb_uart.h **** * \snippet SCB_CompDatasheet_sut_01_revA.cydsn\uart_snippets.c UART_ENABLE
 134:Generated_Source\PSoC6\pdl\drivers\peripheral\scb/cy_scb_uart.h **** *
 135:Generated_Source\PSoC6\pdl\drivers\peripheral\scb/cy_scb_uart.h **** ********************************************************************************
 136:Generated_Source\PSoC6\pdl\drivers\peripheral\scb/cy_scb_uart.h **** * \section group_scb_uart_use_cases Common Use Cases
 137:Generated_Source\PSoC6\pdl\drivers\peripheral\scb/cy_scb_uart.h **** ********************************************************************************
 138:Generated_Source\PSoC6\pdl\drivers\peripheral\scb/cy_scb_uart.h **** * The UART API is divided into two categories: \ref group_scb_uart_low_level_functions
 139:Generated_Source\PSoC6\pdl\drivers\peripheral\scb/cy_scb_uart.h **** * and \ref group_scb_uart_high_level_functions. \n
 140:Generated_Source\PSoC6\pdl\drivers\peripheral\scb/cy_scb_uart.h **** * <em>Do not mix <b>High-Level</b> and <b>Low-Level</b> API because a Low-Level
 141:Generated_Source\PSoC6\pdl\drivers\peripheral\scb/cy_scb_uart.h **** * API can adversely affect the operation of a High-Level API.</em>
 142:Generated_Source\PSoC6\pdl\drivers\peripheral\scb/cy_scb_uart.h **** *
 143:Generated_Source\PSoC6\pdl\drivers\peripheral\scb/cy_scb_uart.h **** ********************************************************************************
 144:Generated_Source\PSoC6\pdl\drivers\peripheral\scb/cy_scb_uart.h **** * \subsection group_scb_uart_ll Low-Level API
 145:Generated_Source\PSoC6\pdl\drivers\peripheral\scb/cy_scb_uart.h **** ********************************************************************************
 146:Generated_Source\PSoC6\pdl\drivers\peripheral\scb/cy_scb_uart.h **** * The \ref group_scb_uart_low_level_functions functions allow
 147:Generated_Source\PSoC6\pdl\drivers\peripheral\scb/cy_scb_uart.h **** * interacting directly with the hardware and do not use \ref Cy_SCB_UART_Interrupt.
 148:Generated_Source\PSoC6\pdl\drivers\peripheral\scb/cy_scb_uart.h **** * These functions do not require context for operation. Thus, NULL can be
 149:Generated_Source\PSoC6\pdl\drivers\peripheral\scb/cy_scb_uart.h **** * passed for context parameter in \ref Cy_SCB_UART_Init and \ref Cy_SCB_UART_Disable 
 150:Generated_Source\PSoC6\pdl\drivers\peripheral\scb/cy_scb_uart.h **** * instead of a pointer to the context structure.
 151:Generated_Source\PSoC6\pdl\drivers\peripheral\scb/cy_scb_uart.h **** *
 152:Generated_Source\PSoC6\pdl\drivers\peripheral\scb/cy_scb_uart.h **** * * To write data into the TX FIFO, use one of the provided functions:
 153:Generated_Source\PSoC6\pdl\drivers\peripheral\scb/cy_scb_uart.h **** *   \ref Cy_SCB_UART_Put, \ref Cy_SCB_UART_PutArray,
 154:Generated_Source\PSoC6\pdl\drivers\peripheral\scb/cy_scb_uart.h **** *   \ref Cy_SCB_UART_PutArrayBlocking or \ref Cy_SCB_UART_PutString.
 155:Generated_Source\PSoC6\pdl\drivers\peripheral\scb/cy_scb_uart.h **** *   Note that putting data into the TX FIFO starts data transfer.
 156:Generated_Source\PSoC6\pdl\drivers\peripheral\scb/cy_scb_uart.h **** *
 157:Generated_Source\PSoC6\pdl\drivers\peripheral\scb/cy_scb_uart.h **** * * To read data from the RX FIFO, use one of the provided functions:
 158:Generated_Source\PSoC6\pdl\drivers\peripheral\scb/cy_scb_uart.h **** *   \ref Cy_SCB_UART_Get, \ref Cy_SCB_UART_GetArray or
 159:Generated_Source\PSoC6\pdl\drivers\peripheral\scb/cy_scb_uart.h **** *   \ref Cy_SCB_UART_GetArrayBlocking.
 160:Generated_Source\PSoC6\pdl\drivers\peripheral\scb/cy_scb_uart.h **** *
 161:Generated_Source\PSoC6\pdl\drivers\peripheral\scb/cy_scb_uart.h **** * * The statuses can be polled using: \ref Cy_SCB_UART_GetRxFifoStatus and
 162:Generated_Source\PSoC6\pdl\drivers\peripheral\scb/cy_scb_uart.h **** *   \ref Cy_SCB_UART_GetTxFifoStatus.
 163:Generated_Source\PSoC6\pdl\drivers\peripheral\scb/cy_scb_uart.h **** *   <em>The statuses are <b>W1C (Write 1 to Clear)</b> and after a status
ARM GAS  C:\Users\pearlstl\AppData\Local\Temp\ccCjmXK8.s 			page 21


 164:Generated_Source\PSoC6\pdl\drivers\peripheral\scb/cy_scb_uart.h **** *   is set, it must be cleared.</em> Note that there are statuses evaluated as level.
 165:Generated_Source\PSoC6\pdl\drivers\peripheral\scb/cy_scb_uart.h **** *   These statuses remain set until an event is true. Therefore, after the clear
 166:Generated_Source\PSoC6\pdl\drivers\peripheral\scb/cy_scb_uart.h **** *   operation, the status is cleared but then it is restored (if event is still
 167:Generated_Source\PSoC6\pdl\drivers\peripheral\scb/cy_scb_uart.h **** *   true).
 168:Generated_Source\PSoC6\pdl\drivers\peripheral\scb/cy_scb_uart.h **** *   Also, the following functions can be used for polling as well
 169:Generated_Source\PSoC6\pdl\drivers\peripheral\scb/cy_scb_uart.h **** *   \ref Cy_SCB_UART_IsTxComplete, \ref Cy_SCB_UART_GetNumInRxFifo and
 170:Generated_Source\PSoC6\pdl\drivers\peripheral\scb/cy_scb_uart.h **** *   \ref Cy_SCB_UART_GetNumInTxFifo.
 171:Generated_Source\PSoC6\pdl\drivers\peripheral\scb/cy_scb_uart.h **** *
 172:Generated_Source\PSoC6\pdl\drivers\peripheral\scb/cy_scb_uart.h **** * \snippet SCB_CompDatasheet_sut_01_revA.cydsn\uart_snippets.c UART_TRANSMIT_DATA_LL
 173:Generated_Source\PSoC6\pdl\drivers\peripheral\scb/cy_scb_uart.h **** *
 174:Generated_Source\PSoC6\pdl\drivers\peripheral\scb/cy_scb_uart.h **** ********************************************************************************
 175:Generated_Source\PSoC6\pdl\drivers\peripheral\scb/cy_scb_uart.h **** * \subsection group_scb_uart_hl High-Level API
 176:Generated_Source\PSoC6\pdl\drivers\peripheral\scb/cy_scb_uart.h **** ********************************************************************************
 177:Generated_Source\PSoC6\pdl\drivers\peripheral\scb/cy_scb_uart.h **** * The \ref group_scb_uart_high_level_functions API use \ref Cy_SCB_UART_Interrupt
 178:Generated_Source\PSoC6\pdl\drivers\peripheral\scb/cy_scb_uart.h **** * to execute the transfer. Call \ref Cy_SCB_UART_Transmit to start transmission.
 179:Generated_Source\PSoC6\pdl\drivers\peripheral\scb/cy_scb_uart.h **** * Call \ref Cy_SCB_UART_Receive to start receive operation. After the
 180:Generated_Source\PSoC6\pdl\drivers\peripheral\scb/cy_scb_uart.h **** * operation is started the \ref Cy_SCB_UART_Interrupt handles the data
 181:Generated_Source\PSoC6\pdl\drivers\peripheral\scb/cy_scb_uart.h **** * transfer until its completion.
 182:Generated_Source\PSoC6\pdl\drivers\peripheral\scb/cy_scb_uart.h **** * Therefore \ref Cy_SCB_UART_Interrupt must be called inside the user 
 183:Generated_Source\PSoC6\pdl\drivers\peripheral\scb/cy_scb_uart.h **** * interrupt handler to make the High-Level API work. To monitor status
 184:Generated_Source\PSoC6\pdl\drivers\peripheral\scb/cy_scb_uart.h **** * of transmit operation, use \ref Cy_SCB_UART_GetTransmitStatus and
 185:Generated_Source\PSoC6\pdl\drivers\peripheral\scb/cy_scb_uart.h **** * \ref Cy_SCB_UART_GetReceiveStatus to monitor receive status appropriately.
 186:Generated_Source\PSoC6\pdl\drivers\peripheral\scb/cy_scb_uart.h **** * Alternatively use \ref Cy_SCB_UART_RegisterCallback to register callback
 187:Generated_Source\PSoC6\pdl\drivers\peripheral\scb/cy_scb_uart.h **** * function to be notified about \ref group_scb_uart_macros_callback_events.
 188:Generated_Source\PSoC6\pdl\drivers\peripheral\scb/cy_scb_uart.h **** *
 189:Generated_Source\PSoC6\pdl\drivers\peripheral\scb/cy_scb_uart.h **** * <b>Receive Operation</b>
 190:Generated_Source\PSoC6\pdl\drivers\peripheral\scb/cy_scb_uart.h **** * \snippet SCB_CompDatasheet_sut_01_revA.cydsn\uart_snippets.c UART_RECEIVE_DATA_HL
 191:Generated_Source\PSoC6\pdl\drivers\peripheral\scb/cy_scb_uart.h **** *
 192:Generated_Source\PSoC6\pdl\drivers\peripheral\scb/cy_scb_uart.h **** * <b>Transmit Operation</b>
 193:Generated_Source\PSoC6\pdl\drivers\peripheral\scb/cy_scb_uart.h **** * \snippet SCB_CompDatasheet_sut_01_revA.cydsn\uart_snippets.c UART_TRANSMIT_DATA_HL
 194:Generated_Source\PSoC6\pdl\drivers\peripheral\scb/cy_scb_uart.h **** *
 195:Generated_Source\PSoC6\pdl\drivers\peripheral\scb/cy_scb_uart.h **** * There is also capability to insert a receive ring buffer that operates between
 196:Generated_Source\PSoC6\pdl\drivers\peripheral\scb/cy_scb_uart.h **** * the RX FIFO and the user buffer. The received data is copied into the ring
 197:Generated_Source\PSoC6\pdl\drivers\peripheral\scb/cy_scb_uart.h **** * buffer from the RX FIFO. This process runs in the background after the ring
 198:Generated_Source\PSoC6\pdl\drivers\peripheral\scb/cy_scb_uart.h **** * buffer operation is started by \ref Cy_SCB_UART_StartRingBuffer.
 199:Generated_Source\PSoC6\pdl\drivers\peripheral\scb/cy_scb_uart.h **** * When \ref Cy_SCB_UART_Receive is called, it first reads data from the ring
 200:Generated_Source\PSoC6\pdl\drivers\peripheral\scb/cy_scb_uart.h **** * buffer and then sets up an interrupt to receive more data if the required
 201:Generated_Source\PSoC6\pdl\drivers\peripheral\scb/cy_scb_uart.h **** * amount has not yet been read.
 202:Generated_Source\PSoC6\pdl\drivers\peripheral\scb/cy_scb_uart.h **** *
 203:Generated_Source\PSoC6\pdl\drivers\peripheral\scb/cy_scb_uart.h **** ********************************************************************************
 204:Generated_Source\PSoC6\pdl\drivers\peripheral\scb/cy_scb_uart.h **** * \section group_scb_uart_dma_trig DMA Trigger
 205:Generated_Source\PSoC6\pdl\drivers\peripheral\scb/cy_scb_uart.h **** ********************************************************************************
 206:Generated_Source\PSoC6\pdl\drivers\peripheral\scb/cy_scb_uart.h **** * The SCB provides TX and RX output trigger signals that can be routed to the
 207:Generated_Source\PSoC6\pdl\drivers\peripheral\scb/cy_scb_uart.h **** * DMA controller inputs. These signals are assigned based on the data availability
 208:Generated_Source\PSoC6\pdl\drivers\peripheral\scb/cy_scb_uart.h **** * in the TX and RX FIFOs appropriately.
 209:Generated_Source\PSoC6\pdl\drivers\peripheral\scb/cy_scb_uart.h **** *
 210:Generated_Source\PSoC6\pdl\drivers\peripheral\scb/cy_scb_uart.h **** * * The RX trigger signal is active while the number of data
 211:Generated_Source\PSoC6\pdl\drivers\peripheral\scb/cy_scb_uart.h **** *   elements in the RX FIFO is greater than the value of RX FIFO level. Use
 212:Generated_Source\PSoC6\pdl\drivers\peripheral\scb/cy_scb_uart.h **** *   function \ref Cy_SCB_SetRxFifoLevel or set configuration structure
 213:Generated_Source\PSoC6\pdl\drivers\peripheral\scb/cy_scb_uart.h **** *   rxFifoTriggerLevel parameter to configure RX FIFO level value. \n
 214:Generated_Source\PSoC6\pdl\drivers\peripheral\scb/cy_scb_uart.h **** *   <em>For example, the RX FIFO has 8 data elements and the RX FIFO level is 0.
 215:Generated_Source\PSoC6\pdl\drivers\peripheral\scb/cy_scb_uart.h **** *   The RX trigger signal is active until DMA reads all data from
 216:Generated_Source\PSoC6\pdl\drivers\peripheral\scb/cy_scb_uart.h **** *   the RX FIFO.</em>
 217:Generated_Source\PSoC6\pdl\drivers\peripheral\scb/cy_scb_uart.h **** *
 218:Generated_Source\PSoC6\pdl\drivers\peripheral\scb/cy_scb_uart.h **** * * The TX trigger signal is active while the number of data elements
 219:Generated_Source\PSoC6\pdl\drivers\peripheral\scb/cy_scb_uart.h **** *   in the TX FIFO is less than the value of TX FIFO level. Use function
 220:Generated_Source\PSoC6\pdl\drivers\peripheral\scb/cy_scb_uart.h **** *   \ref Cy_SCB_SetTxFifoLevel or set configuration structure txFifoTriggerLevel
ARM GAS  C:\Users\pearlstl\AppData\Local\Temp\ccCjmXK8.s 			page 22


 221:Generated_Source\PSoC6\pdl\drivers\peripheral\scb/cy_scb_uart.h **** *   parameter to configure TX FIFO level value. \n
 222:Generated_Source\PSoC6\pdl\drivers\peripheral\scb/cy_scb_uart.h **** *   <em>For example, the TX FIFO has 0 data elements (empty) and the TX FIFO level
 223:Generated_Source\PSoC6\pdl\drivers\peripheral\scb/cy_scb_uart.h **** *   is 7. The TX trigger signal is active until DMA loads TX FIFO
 224:Generated_Source\PSoC6\pdl\drivers\peripheral\scb/cy_scb_uart.h **** *   with 8 data elements (note that after the first TX load operation, the data 
 225:Generated_Source\PSoC6\pdl\drivers\peripheral\scb/cy_scb_uart.h **** *   element goes to the shift register and TX FIFO is empty).</em>
 226:Generated_Source\PSoC6\pdl\drivers\peripheral\scb/cy_scb_uart.h **** *
 227:Generated_Source\PSoC6\pdl\drivers\peripheral\scb/cy_scb_uart.h **** * To route SCB TX or RX trigger signals to DMA controller use \ref group_trigmux
 228:Generated_Source\PSoC6\pdl\drivers\peripheral\scb/cy_scb_uart.h **** * driver API.
 229:Generated_Source\PSoC6\pdl\drivers\peripheral\scb/cy_scb_uart.h **** *
 230:Generated_Source\PSoC6\pdl\drivers\peripheral\scb/cy_scb_uart.h **** * \note
 231:Generated_Source\PSoC6\pdl\drivers\peripheral\scb/cy_scb_uart.h **** * To properly handle DMA level request signal activation and de-activation from the SCB
 232:Generated_Source\PSoC6\pdl\drivers\peripheral\scb/cy_scb_uart.h **** * peripheral block the DMA Descriptor typically must be configured to re-trigger
 233:Generated_Source\PSoC6\pdl\drivers\peripheral\scb/cy_scb_uart.h **** * after 16 Clk_Slow cycles.
 234:Generated_Source\PSoC6\pdl\drivers\peripheral\scb/cy_scb_uart.h **** *
 235:Generated_Source\PSoC6\pdl\drivers\peripheral\scb/cy_scb_uart.h **** ********************************************************************************
 236:Generated_Source\PSoC6\pdl\drivers\peripheral\scb/cy_scb_uart.h **** * \section group_scb_uart_lp Low Power Support
 237:Generated_Source\PSoC6\pdl\drivers\peripheral\scb/cy_scb_uart.h **** ********************************************************************************
 238:Generated_Source\PSoC6\pdl\drivers\peripheral\scb/cy_scb_uart.h **** * The UART driver provides callback functions to handle power mode
 239:Generated_Source\PSoC6\pdl\drivers\peripheral\scb/cy_scb_uart.h **** * transition. The callback \ref Cy_SCB_UART_DeepSleepCallback must be called
 240:Generated_Source\PSoC6\pdl\drivers\peripheral\scb/cy_scb_uart.h **** * during execution of \ref Cy_SysPm_CpuEnterDeepSleep \ref Cy_SCB_UART_HibernateCallback
 241:Generated_Source\PSoC6\pdl\drivers\peripheral\scb/cy_scb_uart.h **** * must be called during execution of \ref Cy_SysPm_SystemEnterHibernate. To trigger the
 242:Generated_Source\PSoC6\pdl\drivers\peripheral\scb/cy_scb_uart.h **** * callback execution, the callback must be registered before calling the
 243:Generated_Source\PSoC6\pdl\drivers\peripheral\scb/cy_scb_uart.h **** * power mode transition function. Refer to \ref group_syspm driver for more
 244:Generated_Source\PSoC6\pdl\drivers\peripheral\scb/cy_scb_uart.h **** * information about power mode transitions and callback registration.
 245:Generated_Source\PSoC6\pdl\drivers\peripheral\scb/cy_scb_uart.h **** *
 246:Generated_Source\PSoC6\pdl\drivers\peripheral\scb/cy_scb_uart.h **** * The UART is disabled during Deep Sleep and Hibernate and stops driving 
 247:Generated_Source\PSoC6\pdl\drivers\peripheral\scb/cy_scb_uart.h **** * the output pins. The state of the UART output pins TX and RTS is High-Z, 
 248:Generated_Source\PSoC6\pdl\drivers\peripheral\scb/cy_scb_uart.h **** * which can cause unexpected behavior of the UART receiver due to possible
 249:Generated_Source\PSoC6\pdl\drivers\peripheral\scb/cy_scb_uart.h **** * glitches on these lines. These pins must be set to the inactive state before 
 250:Generated_Source\PSoC6\pdl\drivers\peripheral\scb/cy_scb_uart.h **** * entering Deep Sleep or Hibernate mode.
 251:Generated_Source\PSoC6\pdl\drivers\peripheral\scb/cy_scb_uart.h **** * These pins must keep the inactive level (the same state 
 252:Generated_Source\PSoC6\pdl\drivers\peripheral\scb/cy_scb_uart.h **** * when UART TX is enabled and does not transfer data) before entering Deep 
 253:Generated_Source\PSoC6\pdl\drivers\peripheral\scb/cy_scb_uart.h **** * Sleep or Hibernate mode. To do that, write the GPIO data register of each pin 
 254:Generated_Source\PSoC6\pdl\drivers\peripheral\scb/cy_scb_uart.h **** * to the inactive level for each output pin. Then configure High-Speed Input 
 255:Generated_Source\PSoC6\pdl\drivers\peripheral\scb/cy_scb_uart.h **** * Output Multiplexer (HSIOM) of each pin to be controlled by the GPIO (use 
 256:Generated_Source\PSoC6\pdl\drivers\peripheral\scb/cy_scb_uart.h **** * \ref group_gpio driver API). After exiting Deep Sleep mode the UART 
 257:Generated_Source\PSoC6\pdl\drivers\peripheral\scb/cy_scb_uart.h **** * must be enabled and the pins configuration restored to return the 
 258:Generated_Source\PSoC6\pdl\drivers\peripheral\scb/cy_scb_uart.h **** * UART control of the pins (after exiting Hibernate mode, the 
 259:Generated_Source\PSoC6\pdl\drivers\peripheral\scb/cy_scb_uart.h **** * system initialization code does the same). Copy either or 
 260:Generated_Source\PSoC6\pdl\drivers\peripheral\scb/cy_scb_uart.h **** * both \ref Cy_SCB_UART_DeepSleepCallback and \ref Cy_SCB_UART_HibernateCallback 
 261:Generated_Source\PSoC6\pdl\drivers\peripheral\scb/cy_scb_uart.h **** * as appropriate, and make the changes described above inside the function.
 262:Generated_Source\PSoC6\pdl\drivers\peripheral\scb/cy_scb_uart.h **** * Alternately, external pull-up or pull-down resistors can be connected 
 263:Generated_Source\PSoC6\pdl\drivers\peripheral\scb/cy_scb_uart.h **** * to the appropriate UART lines to keep them inactive during Deep-Sleep or 
 264:Generated_Source\PSoC6\pdl\drivers\peripheral\scb/cy_scb_uart.h **** * Hibernate.
 265:Generated_Source\PSoC6\pdl\drivers\peripheral\scb/cy_scb_uart.h **** *
 266:Generated_Source\PSoC6\pdl\drivers\peripheral\scb/cy_scb_uart.h **** ********************************************************************************
 267:Generated_Source\PSoC6\pdl\drivers\peripheral\scb/cy_scb_uart.h **** * \section group_scb_uart_more_information More Information
 268:Generated_Source\PSoC6\pdl\drivers\peripheral\scb/cy_scb_uart.h **** ********************************************************************************
 269:Generated_Source\PSoC6\pdl\drivers\peripheral\scb/cy_scb_uart.h **** * For more information on the SCB peripheral, refer to the technical reference
 270:Generated_Source\PSoC6\pdl\drivers\peripheral\scb/cy_scb_uart.h **** * manual (TRM).
 271:Generated_Source\PSoC6\pdl\drivers\peripheral\scb/cy_scb_uart.h **** *
 272:Generated_Source\PSoC6\pdl\drivers\peripheral\scb/cy_scb_uart.h **** ********************************************************************************
 273:Generated_Source\PSoC6\pdl\drivers\peripheral\scb/cy_scb_uart.h **** * \section group_scb_uart_MISRA MISRA-C Compliance
 274:Generated_Source\PSoC6\pdl\drivers\peripheral\scb/cy_scb_uart.h **** ********************************************************************************
 275:Generated_Source\PSoC6\pdl\drivers\peripheral\scb/cy_scb_uart.h **** * <table class="doxtable">
 276:Generated_Source\PSoC6\pdl\drivers\peripheral\scb/cy_scb_uart.h **** *   <tr>
 277:Generated_Source\PSoC6\pdl\drivers\peripheral\scb/cy_scb_uart.h **** *     <th>MISRA Rule</th>
ARM GAS  C:\Users\pearlstl\AppData\Local\Temp\ccCjmXK8.s 			page 23


 278:Generated_Source\PSoC6\pdl\drivers\peripheral\scb/cy_scb_uart.h **** *     <th>Rule Class (Required/Advisory)</th>
 279:Generated_Source\PSoC6\pdl\drivers\peripheral\scb/cy_scb_uart.h **** *     <th>Rule Description</th>
 280:Generated_Source\PSoC6\pdl\drivers\peripheral\scb/cy_scb_uart.h **** *     <th>Description of Deviation(s)</th>
 281:Generated_Source\PSoC6\pdl\drivers\peripheral\scb/cy_scb_uart.h **** *   </tr>
 282:Generated_Source\PSoC6\pdl\drivers\peripheral\scb/cy_scb_uart.h **** *   <tr>
 283:Generated_Source\PSoC6\pdl\drivers\peripheral\scb/cy_scb_uart.h **** *     <td>11.4</td>
 284:Generated_Source\PSoC6\pdl\drivers\peripheral\scb/cy_scb_uart.h **** *     <td>A</td>
 285:Generated_Source\PSoC6\pdl\drivers\peripheral\scb/cy_scb_uart.h **** *     <td>A cast should not be performed between a pointer to object type and
 286:Generated_Source\PSoC6\pdl\drivers\peripheral\scb/cy_scb_uart.h **** *         a different pointer to object type.</td>
 287:Generated_Source\PSoC6\pdl\drivers\peripheral\scb/cy_scb_uart.h **** *     <td>
 288:Generated_Source\PSoC6\pdl\drivers\peripheral\scb/cy_scb_uart.h **** *         * The pointer to the buffer memory is void to allow handling different
 289:Generated_Source\PSoC6\pdl\drivers\peripheral\scb/cy_scb_uart.h **** *         different data types: uint8_t (4-8 bits) or uint16_t (9-16 bits).
 290:Generated_Source\PSoC6\pdl\drivers\peripheral\scb/cy_scb_uart.h **** *         The cast operation is safe because the configuration is verified
 291:Generated_Source\PSoC6\pdl\drivers\peripheral\scb/cy_scb_uart.h **** *         before operation is performed.
 292:Generated_Source\PSoC6\pdl\drivers\peripheral\scb/cy_scb_uart.h **** *         * The functions \ref Cy_SCB_UART_DeepSleepCallback and
 293:Generated_Source\PSoC6\pdl\drivers\peripheral\scb/cy_scb_uart.h **** *         \ref Cy_SCB_UART_HibernateCallback are callback of
 294:Generated_Source\PSoC6\pdl\drivers\peripheral\scb/cy_scb_uart.h **** *         \ref cy_en_syspm_status_t type. The cast operation safety in these
 295:Generated_Source\PSoC6\pdl\drivers\peripheral\scb/cy_scb_uart.h **** *         functions becomes the user's responsibility because pointers are
 296:Generated_Source\PSoC6\pdl\drivers\peripheral\scb/cy_scb_uart.h **** *         initialized when callback is registered in SysPm driver.</td>
 297:Generated_Source\PSoC6\pdl\drivers\peripheral\scb/cy_scb_uart.h **** *   </tr>
 298:Generated_Source\PSoC6\pdl\drivers\peripheral\scb/cy_scb_uart.h **** *   <tr>
 299:Generated_Source\PSoC6\pdl\drivers\peripheral\scb/cy_scb_uart.h **** *     <td>14.2</td>
 300:Generated_Source\PSoC6\pdl\drivers\peripheral\scb/cy_scb_uart.h **** *     <td>R</td>
 301:Generated_Source\PSoC6\pdl\drivers\peripheral\scb/cy_scb_uart.h **** *     <td>All non-null statements shall either: a) have at least one side-effect
 302:Generated_Source\PSoC6\pdl\drivers\peripheral\scb/cy_scb_uart.h **** *         however executed, or b) cause control flow to change.</td>
 303:Generated_Source\PSoC6\pdl\drivers\peripheral\scb/cy_scb_uart.h **** *     <td>The unused function parameters are cast to void. This statement
 304:Generated_Source\PSoC6\pdl\drivers\peripheral\scb/cy_scb_uart.h **** *         has no side-effect and is used to suppress a compiler warning.</td>
 305:Generated_Source\PSoC6\pdl\drivers\peripheral\scb/cy_scb_uart.h **** *   </tr>
 306:Generated_Source\PSoC6\pdl\drivers\peripheral\scb/cy_scb_uart.h **** *   <tr>
 307:Generated_Source\PSoC6\pdl\drivers\peripheral\scb/cy_scb_uart.h **** *     <td>14.7</td>
 308:Generated_Source\PSoC6\pdl\drivers\peripheral\scb/cy_scb_uart.h **** *     <td>R</td>
 309:Generated_Source\PSoC6\pdl\drivers\peripheral\scb/cy_scb_uart.h **** *     <td>A function shall have a single point of exit at the end of the
 310:Generated_Source\PSoC6\pdl\drivers\peripheral\scb/cy_scb_uart.h **** *         function.</td>
 311:Generated_Source\PSoC6\pdl\drivers\peripheral\scb/cy_scb_uart.h **** *     <td>The functions can return from several points. This is done to improve
 312:Generated_Source\PSoC6\pdl\drivers\peripheral\scb/cy_scb_uart.h **** *         code clarity when returning error status code if input parameters
 313:Generated_Source\PSoC6\pdl\drivers\peripheral\scb/cy_scb_uart.h **** *         validation fails.</td>
 314:Generated_Source\PSoC6\pdl\drivers\peripheral\scb/cy_scb_uart.h **** *   </tr>
 315:Generated_Source\PSoC6\pdl\drivers\peripheral\scb/cy_scb_uart.h **** * </table>
 316:Generated_Source\PSoC6\pdl\drivers\peripheral\scb/cy_scb_uart.h **** *
 317:Generated_Source\PSoC6\pdl\drivers\peripheral\scb/cy_scb_uart.h **** * \section group_scb_uart_changelog Changelog
 318:Generated_Source\PSoC6\pdl\drivers\peripheral\scb/cy_scb_uart.h **** * <table class="doxtable">
 319:Generated_Source\PSoC6\pdl\drivers\peripheral\scb/cy_scb_uart.h **** *   <tr><th>Version</th><th>Changes</th><th>Reason for Change</th></tr>
 320:Generated_Source\PSoC6\pdl\drivers\peripheral\scb/cy_scb_uart.h **** *   <tr>
 321:Generated_Source\PSoC6\pdl\drivers\peripheral\scb/cy_scb_uart.h **** *     <td rowspan="2">2.20</td>
 322:Generated_Source\PSoC6\pdl\drivers\peripheral\scb/cy_scb_uart.h **** *     <td>Flattened the organization of the driver source code into the single 
 323:Generated_Source\PSoC6\pdl\drivers\peripheral\scb/cy_scb_uart.h **** *         source directory and the single include directory.
 324:Generated_Source\PSoC6\pdl\drivers\peripheral\scb/cy_scb_uart.h **** *     </td>
 325:Generated_Source\PSoC6\pdl\drivers\peripheral\scb/cy_scb_uart.h **** *     <td>Driver library directory-structure simplification.</td>
 326:Generated_Source\PSoC6\pdl\drivers\peripheral\scb/cy_scb_uart.h **** *   </tr>
 327:Generated_Source\PSoC6\pdl\drivers\peripheral\scb/cy_scb_uart.h **** *   <tr>
 328:Generated_Source\PSoC6\pdl\drivers\peripheral\scb/cy_scb_uart.h **** *     <td>Added register access layer. Use register access macros instead
 329:Generated_Source\PSoC6\pdl\drivers\peripheral\scb/cy_scb_uart.h **** *         of direct register access using dereferenced pointers.</td>
 330:Generated_Source\PSoC6\pdl\drivers\peripheral\scb/cy_scb_uart.h **** *     <td>Makes register access device-independent, so that the PDL does 
 331:Generated_Source\PSoC6\pdl\drivers\peripheral\scb/cy_scb_uart.h **** *         not need to be recompiled for each supported part number.</td>
 332:Generated_Source\PSoC6\pdl\drivers\peripheral\scb/cy_scb_uart.h **** *   </tr>
 333:Generated_Source\PSoC6\pdl\drivers\peripheral\scb/cy_scb_uart.h **** *   <tr>
 334:Generated_Source\PSoC6\pdl\drivers\peripheral\scb/cy_scb_uart.h **** *     <td>2.10</td>
ARM GAS  C:\Users\pearlstl\AppData\Local\Temp\ccCjmXK8.s 			page 24


 335:Generated_Source\PSoC6\pdl\drivers\peripheral\scb/cy_scb_uart.h **** *     <td>None.</td>
 336:Generated_Source\PSoC6\pdl\drivers\peripheral\scb/cy_scb_uart.h **** *     <td>SCB I2C driver updated.</td>
 337:Generated_Source\PSoC6\pdl\drivers\peripheral\scb/cy_scb_uart.h **** *   </tr>
 338:Generated_Source\PSoC6\pdl\drivers\peripheral\scb/cy_scb_uart.h **** *   <tr>
 339:Generated_Source\PSoC6\pdl\drivers\peripheral\scb/cy_scb_uart.h **** *     <td rowspan="5">2.0</td>
 340:Generated_Source\PSoC6\pdl\drivers\peripheral\scb/cy_scb_uart.h **** *     <td>Added parameters validation for public API.</td>
 341:Generated_Source\PSoC6\pdl\drivers\peripheral\scb/cy_scb_uart.h **** *     <td></td>
 342:Generated_Source\PSoC6\pdl\drivers\peripheral\scb/cy_scb_uart.h **** *   </tr>
 343:Generated_Source\PSoC6\pdl\drivers\peripheral\scb/cy_scb_uart.h **** *   <tr>
 344:Generated_Source\PSoC6\pdl\drivers\peripheral\scb/cy_scb_uart.h **** *     <td>Replaced variables that have limited range of values with enumerated
 345:Generated_Source\PSoC6\pdl\drivers\peripheral\scb/cy_scb_uart.h **** *         types.</td>
 346:Generated_Source\PSoC6\pdl\drivers\peripheral\scb/cy_scb_uart.h **** *     <td></td>
 347:Generated_Source\PSoC6\pdl\drivers\peripheral\scb/cy_scb_uart.h **** *   </tr>
 348:Generated_Source\PSoC6\pdl\drivers\peripheral\scb/cy_scb_uart.h **** *   <tr>
 349:Generated_Source\PSoC6\pdl\drivers\peripheral\scb/cy_scb_uart.h **** *     <td>Added missing "cy_cb_" to the callback function type names.</td>
 350:Generated_Source\PSoC6\pdl\drivers\peripheral\scb/cy_scb_uart.h **** *     <td></td>
 351:Generated_Source\PSoC6\pdl\drivers\peripheral\scb/cy_scb_uart.h **** *   </tr>
 352:Generated_Source\PSoC6\pdl\drivers\peripheral\scb/cy_scb_uart.h **** *   <tr>
 353:Generated_Source\PSoC6\pdl\drivers\peripheral\scb/cy_scb_uart.h **** *     <td>Added function \ref Cy_SCB_UART_SendBreakBlocking for break condition
 354:Generated_Source\PSoC6\pdl\drivers\peripheral\scb/cy_scb_uart.h **** *         generation.</td>
 355:Generated_Source\PSoC6\pdl\drivers\peripheral\scb/cy_scb_uart.h **** *     <td></td>
 356:Generated_Source\PSoC6\pdl\drivers\peripheral\scb/cy_scb_uart.h **** *   </tr>
 357:Generated_Source\PSoC6\pdl\drivers\peripheral\scb/cy_scb_uart.h **** *   <tr>
 358:Generated_Source\PSoC6\pdl\drivers\peripheral\scb/cy_scb_uart.h **** *     <td>Fixed low power callbacks \ref Cy_SCB_UART_DeepSleepCallback and
 359:Generated_Source\PSoC6\pdl\drivers\peripheral\scb/cy_scb_uart.h **** *         \ref Cy_SCB_UART_HibernateCallback to prevent the device from entering
 360:Generated_Source\PSoC6\pdl\drivers\peripheral\scb/cy_scb_uart.h **** *         low power mode when RX FIFO is not empty.</td>
 361:Generated_Source\PSoC6\pdl\drivers\peripheral\scb/cy_scb_uart.h **** *     <td>The callbacks allowed entering device into low power mode when RX FIFO
 362:Generated_Source\PSoC6\pdl\drivers\peripheral\scb/cy_scb_uart.h **** *         had data.</td>
 363:Generated_Source\PSoC6\pdl\drivers\peripheral\scb/cy_scb_uart.h **** *   </tr>
 364:Generated_Source\PSoC6\pdl\drivers\peripheral\scb/cy_scb_uart.h **** *   <tr>
 365:Generated_Source\PSoC6\pdl\drivers\peripheral\scb/cy_scb_uart.h **** *     <td>1.0</td>
 366:Generated_Source\PSoC6\pdl\drivers\peripheral\scb/cy_scb_uart.h **** *     <td>Initial version.</td>
 367:Generated_Source\PSoC6\pdl\drivers\peripheral\scb/cy_scb_uart.h **** *     <td></td>
 368:Generated_Source\PSoC6\pdl\drivers\peripheral\scb/cy_scb_uart.h **** *   </tr>
 369:Generated_Source\PSoC6\pdl\drivers\peripheral\scb/cy_scb_uart.h **** * </table>
 370:Generated_Source\PSoC6\pdl\drivers\peripheral\scb/cy_scb_uart.h **** *
 371:Generated_Source\PSoC6\pdl\drivers\peripheral\scb/cy_scb_uart.h **** * \defgroup group_scb_uart_macros Macros
 372:Generated_Source\PSoC6\pdl\drivers\peripheral\scb/cy_scb_uart.h **** * \defgroup group_scb_uart_functions Functions
 373:Generated_Source\PSoC6\pdl\drivers\peripheral\scb/cy_scb_uart.h **** * \{
 374:Generated_Source\PSoC6\pdl\drivers\peripheral\scb/cy_scb_uart.h **** * \defgroup group_scb_uart_general_functions General
 375:Generated_Source\PSoC6\pdl\drivers\peripheral\scb/cy_scb_uart.h **** * \defgroup group_scb_uart_high_level_functions High-Level
 376:Generated_Source\PSoC6\pdl\drivers\peripheral\scb/cy_scb_uart.h **** * \defgroup group_scb_uart_low_level_functions Low-Level
 377:Generated_Source\PSoC6\pdl\drivers\peripheral\scb/cy_scb_uart.h **** * \defgroup group_scb_uart_interrupt_functions Interrupt
 378:Generated_Source\PSoC6\pdl\drivers\peripheral\scb/cy_scb_uart.h **** * \defgroup group_scb_uart_low_power_functions Low Power Callbacks
 379:Generated_Source\PSoC6\pdl\drivers\peripheral\scb/cy_scb_uart.h **** * \}
 380:Generated_Source\PSoC6\pdl\drivers\peripheral\scb/cy_scb_uart.h **** * \defgroup group_scb_uart_data_structures Data Structures
 381:Generated_Source\PSoC6\pdl\drivers\peripheral\scb/cy_scb_uart.h **** * \defgroup group_scb_uart_enums Enumerated Types
 382:Generated_Source\PSoC6\pdl\drivers\peripheral\scb/cy_scb_uart.h **** */
 383:Generated_Source\PSoC6\pdl\drivers\peripheral\scb/cy_scb_uart.h **** 
 384:Generated_Source\PSoC6\pdl\drivers\peripheral\scb/cy_scb_uart.h **** #if !defined(CY_SCB_UART_H)
 385:Generated_Source\PSoC6\pdl\drivers\peripheral\scb/cy_scb_uart.h **** #define CY_SCB_UART_H
 386:Generated_Source\PSoC6\pdl\drivers\peripheral\scb/cy_scb_uart.h **** 
 387:Generated_Source\PSoC6\pdl\drivers\peripheral\scb/cy_scb_uart.h **** #include "cy_scb_common.h"
 388:Generated_Source\PSoC6\pdl\drivers\peripheral\scb/cy_scb_uart.h **** 
 389:Generated_Source\PSoC6\pdl\drivers\peripheral\scb/cy_scb_uart.h **** #if defined(__cplusplus)
 390:Generated_Source\PSoC6\pdl\drivers\peripheral\scb/cy_scb_uart.h **** extern "C" {
 391:Generated_Source\PSoC6\pdl\drivers\peripheral\scb/cy_scb_uart.h **** #endif
ARM GAS  C:\Users\pearlstl\AppData\Local\Temp\ccCjmXK8.s 			page 25


 392:Generated_Source\PSoC6\pdl\drivers\peripheral\scb/cy_scb_uart.h **** 
 393:Generated_Source\PSoC6\pdl\drivers\peripheral\scb/cy_scb_uart.h **** /***************************************
 394:Generated_Source\PSoC6\pdl\drivers\peripheral\scb/cy_scb_uart.h **** *          Enumerated Types
 395:Generated_Source\PSoC6\pdl\drivers\peripheral\scb/cy_scb_uart.h **** ***************************************/
 396:Generated_Source\PSoC6\pdl\drivers\peripheral\scb/cy_scb_uart.h **** 
 397:Generated_Source\PSoC6\pdl\drivers\peripheral\scb/cy_scb_uart.h **** /**
 398:Generated_Source\PSoC6\pdl\drivers\peripheral\scb/cy_scb_uart.h **** * \addtogroup group_scb_uart_enums
 399:Generated_Source\PSoC6\pdl\drivers\peripheral\scb/cy_scb_uart.h **** * \{
 400:Generated_Source\PSoC6\pdl\drivers\peripheral\scb/cy_scb_uart.h **** */
 401:Generated_Source\PSoC6\pdl\drivers\peripheral\scb/cy_scb_uart.h **** 
 402:Generated_Source\PSoC6\pdl\drivers\peripheral\scb/cy_scb_uart.h **** /** UART status codes */
 403:Generated_Source\PSoC6\pdl\drivers\peripheral\scb/cy_scb_uart.h **** typedef enum
 404:Generated_Source\PSoC6\pdl\drivers\peripheral\scb/cy_scb_uart.h **** {
 405:Generated_Source\PSoC6\pdl\drivers\peripheral\scb/cy_scb_uart.h ****     /** Operation completed successfully */
 406:Generated_Source\PSoC6\pdl\drivers\peripheral\scb/cy_scb_uart.h ****     CY_SCB_UART_SUCCESS = 0U,
 407:Generated_Source\PSoC6\pdl\drivers\peripheral\scb/cy_scb_uart.h **** 
 408:Generated_Source\PSoC6\pdl\drivers\peripheral\scb/cy_scb_uart.h ****     /** One or more of input parameters are invalid */
 409:Generated_Source\PSoC6\pdl\drivers\peripheral\scb/cy_scb_uart.h ****     CY_SCB_UART_BAD_PARAM = (CY_SCB_ID | CY_PDL_STATUS_ERROR | CY_SCB_UART_ID | 1U),
 410:Generated_Source\PSoC6\pdl\drivers\peripheral\scb/cy_scb_uart.h **** 
 411:Generated_Source\PSoC6\pdl\drivers\peripheral\scb/cy_scb_uart.h ****     /**
 412:Generated_Source\PSoC6\pdl\drivers\peripheral\scb/cy_scb_uart.h ****     * The UART is busy processing a receive operation.
 413:Generated_Source\PSoC6\pdl\drivers\peripheral\scb/cy_scb_uart.h ****     */
 414:Generated_Source\PSoC6\pdl\drivers\peripheral\scb/cy_scb_uart.h ****     CY_SCB_UART_RECEIVE_BUSY = (CY_SCB_ID | CY_PDL_STATUS_ERROR | CY_SCB_UART_ID | 2U),
 415:Generated_Source\PSoC6\pdl\drivers\peripheral\scb/cy_scb_uart.h **** 
 416:Generated_Source\PSoC6\pdl\drivers\peripheral\scb/cy_scb_uart.h ****     /**
 417:Generated_Source\PSoC6\pdl\drivers\peripheral\scb/cy_scb_uart.h ****     * The UART is busy processing a transmit operation.
 418:Generated_Source\PSoC6\pdl\drivers\peripheral\scb/cy_scb_uart.h ****     */
 419:Generated_Source\PSoC6\pdl\drivers\peripheral\scb/cy_scb_uart.h ****     CY_SCB_UART_TRANSMIT_BUSY = (CY_SCB_ID | CY_PDL_STATUS_ERROR | CY_SCB_UART_ID | 3U)
 420:Generated_Source\PSoC6\pdl\drivers\peripheral\scb/cy_scb_uart.h **** } cy_en_scb_uart_status_t;
 421:Generated_Source\PSoC6\pdl\drivers\peripheral\scb/cy_scb_uart.h **** 
 422:Generated_Source\PSoC6\pdl\drivers\peripheral\scb/cy_scb_uart.h **** /** UART Mode */
 423:Generated_Source\PSoC6\pdl\drivers\peripheral\scb/cy_scb_uart.h **** typedef enum
 424:Generated_Source\PSoC6\pdl\drivers\peripheral\scb/cy_scb_uart.h **** {
 425:Generated_Source\PSoC6\pdl\drivers\peripheral\scb/cy_scb_uart.h ****     CY_SCB_UART_STANDARD  = 0U, /**< Configures the SCB for Standard UART operation */
 426:Generated_Source\PSoC6\pdl\drivers\peripheral\scb/cy_scb_uart.h ****     CY_SCB_UART_SMARTCARD = 1U, /**< Configures the SCB for SmartCard operation */
 427:Generated_Source\PSoC6\pdl\drivers\peripheral\scb/cy_scb_uart.h ****     CY_SCB_UART_IRDA      = 2U, /**< Configures the SCB for IrDA operation */
 428:Generated_Source\PSoC6\pdl\drivers\peripheral\scb/cy_scb_uart.h **** } cy_en_scb_uart_mode_t;
 429:Generated_Source\PSoC6\pdl\drivers\peripheral\scb/cy_scb_uart.h **** 
 430:Generated_Source\PSoC6\pdl\drivers\peripheral\scb/cy_scb_uart.h **** /** UART Stop Bits */
 431:Generated_Source\PSoC6\pdl\drivers\peripheral\scb/cy_scb_uart.h **** typedef enum
 432:Generated_Source\PSoC6\pdl\drivers\peripheral\scb/cy_scb_uart.h **** {
 433:Generated_Source\PSoC6\pdl\drivers\peripheral\scb/cy_scb_uart.h ****     CY_SCB_UART_STOP_BITS_1   = 2U,  /**< UART looks for 1 Stop Bit    */
 434:Generated_Source\PSoC6\pdl\drivers\peripheral\scb/cy_scb_uart.h ****     CY_SCB_UART_STOP_BITS_1_5 = 3U,  /**< UART looks for 1.5 Stop Bits */
 435:Generated_Source\PSoC6\pdl\drivers\peripheral\scb/cy_scb_uart.h ****     CY_SCB_UART_STOP_BITS_2   = 4U,  /**< UART looks for 2 Stop Bits   */
 436:Generated_Source\PSoC6\pdl\drivers\peripheral\scb/cy_scb_uart.h ****     CY_SCB_UART_STOP_BITS_2_5 = 5U,  /**< UART looks for 2.5 Stop Bits */
 437:Generated_Source\PSoC6\pdl\drivers\peripheral\scb/cy_scb_uart.h ****     CY_SCB_UART_STOP_BITS_3   = 6U,  /**< UART looks for 3 Stop Bits   */
 438:Generated_Source\PSoC6\pdl\drivers\peripheral\scb/cy_scb_uart.h ****     CY_SCB_UART_STOP_BITS_3_5 = 7U,  /**< UART looks for 3.5 Stop Bits */
 439:Generated_Source\PSoC6\pdl\drivers\peripheral\scb/cy_scb_uart.h ****     CY_SCB_UART_STOP_BITS_4   = 8U,  /**< UART looks for 4 Stop Bits   */
 440:Generated_Source\PSoC6\pdl\drivers\peripheral\scb/cy_scb_uart.h **** } cy_en_scb_uart_stop_bits_t;
 441:Generated_Source\PSoC6\pdl\drivers\peripheral\scb/cy_scb_uart.h **** 
 442:Generated_Source\PSoC6\pdl\drivers\peripheral\scb/cy_scb_uart.h **** /** UART Parity */
 443:Generated_Source\PSoC6\pdl\drivers\peripheral\scb/cy_scb_uart.h **** typedef enum
 444:Generated_Source\PSoC6\pdl\drivers\peripheral\scb/cy_scb_uart.h **** {
 445:Generated_Source\PSoC6\pdl\drivers\peripheral\scb/cy_scb_uart.h ****     CY_SCB_UART_PARITY_NONE = 0U,    /**< UART has no parity check   */
 446:Generated_Source\PSoC6\pdl\drivers\peripheral\scb/cy_scb_uart.h ****     CY_SCB_UART_PARITY_EVEN = 2U,    /**< UART has even parity check */
 447:Generated_Source\PSoC6\pdl\drivers\peripheral\scb/cy_scb_uart.h ****     CY_SCB_UART_PARITY_ODD  = 3U,    /**< UART has odd parity check  */
 448:Generated_Source\PSoC6\pdl\drivers\peripheral\scb/cy_scb_uart.h **** } cy_en_scb_uart_parity_t;
ARM GAS  C:\Users\pearlstl\AppData\Local\Temp\ccCjmXK8.s 			page 26


 449:Generated_Source\PSoC6\pdl\drivers\peripheral\scb/cy_scb_uart.h **** 
 450:Generated_Source\PSoC6\pdl\drivers\peripheral\scb/cy_scb_uart.h **** /** UART Polarity */
 451:Generated_Source\PSoC6\pdl\drivers\peripheral\scb/cy_scb_uart.h **** typedef enum
 452:Generated_Source\PSoC6\pdl\drivers\peripheral\scb/cy_scb_uart.h **** {
 453:Generated_Source\PSoC6\pdl\drivers\peripheral\scb/cy_scb_uart.h ****     CY_SCB_UART_ACTIVE_LOW  = 0U,   /**< Signal is active low */
 454:Generated_Source\PSoC6\pdl\drivers\peripheral\scb/cy_scb_uart.h ****     CY_SCB_UART_ACTIVE_HIGH = 1U,   /**< Signal is active high */
 455:Generated_Source\PSoC6\pdl\drivers\peripheral\scb/cy_scb_uart.h **** } cy_en_scb_uart_polarity_t;
 456:Generated_Source\PSoC6\pdl\drivers\peripheral\scb/cy_scb_uart.h **** /** \} group_scb_uart_enums */
 457:Generated_Source\PSoC6\pdl\drivers\peripheral\scb/cy_scb_uart.h **** 
 458:Generated_Source\PSoC6\pdl\drivers\peripheral\scb/cy_scb_uart.h **** 
 459:Generated_Source\PSoC6\pdl\drivers\peripheral\scb/cy_scb_uart.h **** /*******************************************************************************
 460:Generated_Source\PSoC6\pdl\drivers\peripheral\scb/cy_scb_uart.h **** *                           Type Definitions
 461:Generated_Source\PSoC6\pdl\drivers\peripheral\scb/cy_scb_uart.h **** *******************************************************************************/
 462:Generated_Source\PSoC6\pdl\drivers\peripheral\scb/cy_scb_uart.h **** 
 463:Generated_Source\PSoC6\pdl\drivers\peripheral\scb/cy_scb_uart.h **** /**
 464:Generated_Source\PSoC6\pdl\drivers\peripheral\scb/cy_scb_uart.h **** * \addtogroup group_scb_uart_data_structures
 465:Generated_Source\PSoC6\pdl\drivers\peripheral\scb/cy_scb_uart.h **** * \{
 466:Generated_Source\PSoC6\pdl\drivers\peripheral\scb/cy_scb_uart.h **** */
 467:Generated_Source\PSoC6\pdl\drivers\peripheral\scb/cy_scb_uart.h **** 
 468:Generated_Source\PSoC6\pdl\drivers\peripheral\scb/cy_scb_uart.h **** /**
 469:Generated_Source\PSoC6\pdl\drivers\peripheral\scb/cy_scb_uart.h **** * Provides the typedef for the callback function called in the
 470:Generated_Source\PSoC6\pdl\drivers\peripheral\scb/cy_scb_uart.h **** * \ref Cy_SCB_UART_Interrupt to notify the user about occurrences of
 471:Generated_Source\PSoC6\pdl\drivers\peripheral\scb/cy_scb_uart.h **** * \ref group_scb_uart_macros_callback_events.
 472:Generated_Source\PSoC6\pdl\drivers\peripheral\scb/cy_scb_uart.h **** */
 473:Generated_Source\PSoC6\pdl\drivers\peripheral\scb/cy_scb_uart.h **** typedef void (* cy_cb_scb_uart_handle_events_t)(uint32_t event);
 474:Generated_Source\PSoC6\pdl\drivers\peripheral\scb/cy_scb_uart.h **** 
 475:Generated_Source\PSoC6\pdl\drivers\peripheral\scb/cy_scb_uart.h **** /** UART configuration structure */
 476:Generated_Source\PSoC6\pdl\drivers\peripheral\scb/cy_scb_uart.h **** typedef struct stc_scb_uart_config
 477:Generated_Source\PSoC6\pdl\drivers\peripheral\scb/cy_scb_uart.h **** {
 478:Generated_Source\PSoC6\pdl\drivers\peripheral\scb/cy_scb_uart.h ****     /** Specifies the UART's mode of operation */
 479:Generated_Source\PSoC6\pdl\drivers\peripheral\scb/cy_scb_uart.h ****     cy_en_scb_uart_mode_t    uartMode;
 480:Generated_Source\PSoC6\pdl\drivers\peripheral\scb/cy_scb_uart.h **** 
 481:Generated_Source\PSoC6\pdl\drivers\peripheral\scb/cy_scb_uart.h ****     /**
 482:Generated_Source\PSoC6\pdl\drivers\peripheral\scb/cy_scb_uart.h ****     * Oversample factor for UART.
 483:Generated_Source\PSoC6\pdl\drivers\peripheral\scb/cy_scb_uart.h ****     * * The UART baud rate is the SCB Clock frequency / oversample
 484:Generated_Source\PSoC6\pdl\drivers\peripheral\scb/cy_scb_uart.h ****     *  (valid range is 8-16).
 485:Generated_Source\PSoC6\pdl\drivers\peripheral\scb/cy_scb_uart.h ****     * * For IrDA, the oversample is always 16, unless
 486:Generated_Source\PSoC6\pdl\drivers\peripheral\scb/cy_scb_uart.h ****     * \ref irdaEnableLowPowerReceiver is enabled. Then the oversample is
 487:Generated_Source\PSoC6\pdl\drivers\peripheral\scb/cy_scb_uart.h ****     * reduced to the \ref group_scb_uart_macros_irda_lp_ovs set.
 488:Generated_Source\PSoC6\pdl\drivers\peripheral\scb/cy_scb_uart.h ****     */
 489:Generated_Source\PSoC6\pdl\drivers\peripheral\scb/cy_scb_uart.h ****     uint32_t    oversample;
 490:Generated_Source\PSoC6\pdl\drivers\peripheral\scb/cy_scb_uart.h **** 
 491:Generated_Source\PSoC6\pdl\drivers\peripheral\scb/cy_scb_uart.h ****     /** The width of UART data (valid range is 5 to 9) */
 492:Generated_Source\PSoC6\pdl\drivers\peripheral\scb/cy_scb_uart.h ****     uint32_t    dataWidth;
 493:Generated_Source\PSoC6\pdl\drivers\peripheral\scb/cy_scb_uart.h **** 
 494:Generated_Source\PSoC6\pdl\drivers\peripheral\scb/cy_scb_uart.h ****     /**
 495:Generated_Source\PSoC6\pdl\drivers\peripheral\scb/cy_scb_uart.h ****     * Enables the hardware to shift out data element MSB first; otherwise,
 496:Generated_Source\PSoC6\pdl\drivers\peripheral\scb/cy_scb_uart.h ****     * LSB first
 497:Generated_Source\PSoC6\pdl\drivers\peripheral\scb/cy_scb_uart.h ****     */
 498:Generated_Source\PSoC6\pdl\drivers\peripheral\scb/cy_scb_uart.h ****     bool        enableMsbFirst;
 499:Generated_Source\PSoC6\pdl\drivers\peripheral\scb/cy_scb_uart.h **** 
 500:Generated_Source\PSoC6\pdl\drivers\peripheral\scb/cy_scb_uart.h ****     /**
 501:Generated_Source\PSoC6\pdl\drivers\peripheral\scb/cy_scb_uart.h ****     * Specifies the number of stop bits in the UART transaction, in half-bit
 502:Generated_Source\PSoC6\pdl\drivers\peripheral\scb/cy_scb_uart.h ****     * increments
 503:Generated_Source\PSoC6\pdl\drivers\peripheral\scb/cy_scb_uart.h ****     */
 504:Generated_Source\PSoC6\pdl\drivers\peripheral\scb/cy_scb_uart.h ****     cy_en_scb_uart_stop_bits_t    stopBits;
 505:Generated_Source\PSoC6\pdl\drivers\peripheral\scb/cy_scb_uart.h **** 
ARM GAS  C:\Users\pearlstl\AppData\Local\Temp\ccCjmXK8.s 			page 27


 506:Generated_Source\PSoC6\pdl\drivers\peripheral\scb/cy_scb_uart.h ****     /** Configures the UART parity */
 507:Generated_Source\PSoC6\pdl\drivers\peripheral\scb/cy_scb_uart.h ****     cy_en_scb_uart_parity_t    parity;
 508:Generated_Source\PSoC6\pdl\drivers\peripheral\scb/cy_scb_uart.h **** 
 509:Generated_Source\PSoC6\pdl\drivers\peripheral\scb/cy_scb_uart.h ****     /**
 510:Generated_Source\PSoC6\pdl\drivers\peripheral\scb/cy_scb_uart.h ****     * Enables a digital 3-tap median filter (2 out of 3 voting) to be applied 
 511:Generated_Source\PSoC6\pdl\drivers\peripheral\scb/cy_scb_uart.h ****     * to the input of the RX FIFO to filter glitches on the line (for IrDA, 
 512:Generated_Source\PSoC6\pdl\drivers\peripheral\scb/cy_scb_uart.h ****     * this parameter is ignored)
 513:Generated_Source\PSoC6\pdl\drivers\peripheral\scb/cy_scb_uart.h ****     *
 514:Generated_Source\PSoC6\pdl\drivers\peripheral\scb/cy_scb_uart.h ****     */
 515:Generated_Source\PSoC6\pdl\drivers\peripheral\scb/cy_scb_uart.h ****     bool        enableInputFilter;
 516:Generated_Source\PSoC6\pdl\drivers\peripheral\scb/cy_scb_uart.h **** 
 517:Generated_Source\PSoC6\pdl\drivers\peripheral\scb/cy_scb_uart.h ****     /**
 518:Generated_Source\PSoC6\pdl\drivers\peripheral\scb/cy_scb_uart.h ****     * Enables the hardware to drop data in the RX FIFO when a parity error is
 519:Generated_Source\PSoC6\pdl\drivers\peripheral\scb/cy_scb_uart.h ****     * detected
 520:Generated_Source\PSoC6\pdl\drivers\peripheral\scb/cy_scb_uart.h ****     */
 521:Generated_Source\PSoC6\pdl\drivers\peripheral\scb/cy_scb_uart.h ****     bool        dropOnParityError;
 522:Generated_Source\PSoC6\pdl\drivers\peripheral\scb/cy_scb_uart.h **** 
 523:Generated_Source\PSoC6\pdl\drivers\peripheral\scb/cy_scb_uart.h ****     /**
 524:Generated_Source\PSoC6\pdl\drivers\peripheral\scb/cy_scb_uart.h ****     * Enables the hardware to drop data in the RX FIFO when a frame error is
 525:Generated_Source\PSoC6\pdl\drivers\peripheral\scb/cy_scb_uart.h ****     * detected
 526:Generated_Source\PSoC6\pdl\drivers\peripheral\scb/cy_scb_uart.h ****     */
 527:Generated_Source\PSoC6\pdl\drivers\peripheral\scb/cy_scb_uart.h ****     bool        dropOnFrameError;
 528:Generated_Source\PSoC6\pdl\drivers\peripheral\scb/cy_scb_uart.h **** 
 529:Generated_Source\PSoC6\pdl\drivers\peripheral\scb/cy_scb_uart.h ****     /**
 530:Generated_Source\PSoC6\pdl\drivers\peripheral\scb/cy_scb_uart.h ****     * Enables the UART operation in Multi-Processor mode which requires
 531:Generated_Source\PSoC6\pdl\drivers\peripheral\scb/cy_scb_uart.h ****     * dataWidth to be 9 bits (the 9th bit is used to indicate address byte)
 532:Generated_Source\PSoC6\pdl\drivers\peripheral\scb/cy_scb_uart.h ****     */
 533:Generated_Source\PSoC6\pdl\drivers\peripheral\scb/cy_scb_uart.h ****     bool        enableMutliProcessorMode;
 534:Generated_Source\PSoC6\pdl\drivers\peripheral\scb/cy_scb_uart.h **** 
 535:Generated_Source\PSoC6\pdl\drivers\peripheral\scb/cy_scb_uart.h ****     /**
 536:Generated_Source\PSoC6\pdl\drivers\peripheral\scb/cy_scb_uart.h ****     * If Multi Processor mode is enabled, this is the address of the RX
 537:Generated_Source\PSoC6\pdl\drivers\peripheral\scb/cy_scb_uart.h ****     * FIFO. If the address matches, data is accepted into the FIFO. If
 538:Generated_Source\PSoC6\pdl\drivers\peripheral\scb/cy_scb_uart.h ****     * it does not match, the data is ignored.
 539:Generated_Source\PSoC6\pdl\drivers\peripheral\scb/cy_scb_uart.h ****     */
 540:Generated_Source\PSoC6\pdl\drivers\peripheral\scb/cy_scb_uart.h ****     uint32_t    receiverAddress;
 541:Generated_Source\PSoC6\pdl\drivers\peripheral\scb/cy_scb_uart.h **** 
 542:Generated_Source\PSoC6\pdl\drivers\peripheral\scb/cy_scb_uart.h ****     /**
 543:Generated_Source\PSoC6\pdl\drivers\peripheral\scb/cy_scb_uart.h ****     * This is the address mask for the Multi Processor address. 1 indicates
 544:Generated_Source\PSoC6\pdl\drivers\peripheral\scb/cy_scb_uart.h ****     * that the incoming address must match the corresponding bit in the slave
 545:Generated_Source\PSoC6\pdl\drivers\peripheral\scb/cy_scb_uart.h ****     * address. A 0 in the mask indicates that the incoming address does
 546:Generated_Source\PSoC6\pdl\drivers\peripheral\scb/cy_scb_uart.h ****     * not need to match.
 547:Generated_Source\PSoC6\pdl\drivers\peripheral\scb/cy_scb_uart.h ****     */
 548:Generated_Source\PSoC6\pdl\drivers\peripheral\scb/cy_scb_uart.h ****     uint32_t    receiverAddressMask;
 549:Generated_Source\PSoC6\pdl\drivers\peripheral\scb/cy_scb_uart.h **** 
 550:Generated_Source\PSoC6\pdl\drivers\peripheral\scb/cy_scb_uart.h ****     /**
 551:Generated_Source\PSoC6\pdl\drivers\peripheral\scb/cy_scb_uart.h ****     * Enables the hardware to accept the matching address in the RX FIFO.
 552:Generated_Source\PSoC6\pdl\drivers\peripheral\scb/cy_scb_uart.h ****     * This is useful when the device supports more than one address.
 553:Generated_Source\PSoC6\pdl\drivers\peripheral\scb/cy_scb_uart.h ****     */
 554:Generated_Source\PSoC6\pdl\drivers\peripheral\scb/cy_scb_uart.h ****     bool        acceptAddrInFifo;
 555:Generated_Source\PSoC6\pdl\drivers\peripheral\scb/cy_scb_uart.h **** 
 556:Generated_Source\PSoC6\pdl\drivers\peripheral\scb/cy_scb_uart.h ****     /** Inverts the IrDA RX input */
 557:Generated_Source\PSoC6\pdl\drivers\peripheral\scb/cy_scb_uart.h ****     bool        irdaInvertRx;
 558:Generated_Source\PSoC6\pdl\drivers\peripheral\scb/cy_scb_uart.h **** 
 559:Generated_Source\PSoC6\pdl\drivers\peripheral\scb/cy_scb_uart.h ****     /**
 560:Generated_Source\PSoC6\pdl\drivers\peripheral\scb/cy_scb_uart.h ****     * Enables the low-power receive for IrDA mode.
 561:Generated_Source\PSoC6\pdl\drivers\peripheral\scb/cy_scb_uart.h ****     * Note that the transmission must be disabled if this mode is enabled.
 562:Generated_Source\PSoC6\pdl\drivers\peripheral\scb/cy_scb_uart.h ****     */
ARM GAS  C:\Users\pearlstl\AppData\Local\Temp\ccCjmXK8.s 			page 28


 563:Generated_Source\PSoC6\pdl\drivers\peripheral\scb/cy_scb_uart.h ****     bool        irdaEnableLowPowerReceiver;
 564:Generated_Source\PSoC6\pdl\drivers\peripheral\scb/cy_scb_uart.h **** 
 565:Generated_Source\PSoC6\pdl\drivers\peripheral\scb/cy_scb_uart.h ****     /**
 566:Generated_Source\PSoC6\pdl\drivers\peripheral\scb/cy_scb_uart.h ****     * Enables retransmission of the frame placed in the TX FIFO when
 567:Generated_Source\PSoC6\pdl\drivers\peripheral\scb/cy_scb_uart.h ****     * NACK is received in SmartCard mode (for Standard and IrDA , this parameter
 568:Generated_Source\PSoC6\pdl\drivers\peripheral\scb/cy_scb_uart.h ****     * is ignored)
 569:Generated_Source\PSoC6\pdl\drivers\peripheral\scb/cy_scb_uart.h ****     */
 570:Generated_Source\PSoC6\pdl\drivers\peripheral\scb/cy_scb_uart.h ****     bool        smartCardRetryOnNack;
 571:Generated_Source\PSoC6\pdl\drivers\peripheral\scb/cy_scb_uart.h **** 
 572:Generated_Source\PSoC6\pdl\drivers\peripheral\scb/cy_scb_uart.h ****     /**
 573:Generated_Source\PSoC6\pdl\drivers\peripheral\scb/cy_scb_uart.h ****     * Enables the usage of the CTS input signal for the transmitter. The
 574:Generated_Source\PSoC6\pdl\drivers\peripheral\scb/cy_scb_uart.h ****     * transmitter waits for CTS to be active before sending data
 575:Generated_Source\PSoC6\pdl\drivers\peripheral\scb/cy_scb_uart.h ****     */
 576:Generated_Source\PSoC6\pdl\drivers\peripheral\scb/cy_scb_uart.h ****     bool        enableCts;
 577:Generated_Source\PSoC6\pdl\drivers\peripheral\scb/cy_scb_uart.h **** 
 578:Generated_Source\PSoC6\pdl\drivers\peripheral\scb/cy_scb_uart.h ****     /** Sets the CTS Polarity */
 579:Generated_Source\PSoC6\pdl\drivers\peripheral\scb/cy_scb_uart.h ****     cy_en_scb_uart_polarity_t    ctsPolarity;
 580:Generated_Source\PSoC6\pdl\drivers\peripheral\scb/cy_scb_uart.h **** 
 581:Generated_Source\PSoC6\pdl\drivers\peripheral\scb/cy_scb_uart.h ****     /**
 582:Generated_Source\PSoC6\pdl\drivers\peripheral\scb/cy_scb_uart.h ****     * When the RX FIFO has fewer entries than rtsRxFifoLevel, the
 583:Generated_Source\PSoC6\pdl\drivers\peripheral\scb/cy_scb_uart.h ****     * RTS signal is active (note to disable RTS, set this field to zero)
 584:Generated_Source\PSoC6\pdl\drivers\peripheral\scb/cy_scb_uart.h ****     */
 585:Generated_Source\PSoC6\pdl\drivers\peripheral\scb/cy_scb_uart.h ****     uint32_t    rtsRxFifoLevel;
 586:Generated_Source\PSoC6\pdl\drivers\peripheral\scb/cy_scb_uart.h **** 
 587:Generated_Source\PSoC6\pdl\drivers\peripheral\scb/cy_scb_uart.h ****     /** Sets the RTS Polarity */
 588:Generated_Source\PSoC6\pdl\drivers\peripheral\scb/cy_scb_uart.h ****     cy_en_scb_uart_polarity_t    rtsPolarity;
 589:Generated_Source\PSoC6\pdl\drivers\peripheral\scb/cy_scb_uart.h **** 
 590:Generated_Source\PSoC6\pdl\drivers\peripheral\scb/cy_scb_uart.h ****     /** Specifies the number of bits to detect a break condition */
 591:Generated_Source\PSoC6\pdl\drivers\peripheral\scb/cy_scb_uart.h ****     uint32_t    breakWidth;
 592:Generated_Source\PSoC6\pdl\drivers\peripheral\scb/cy_scb_uart.h **** 
 593:Generated_Source\PSoC6\pdl\drivers\peripheral\scb/cy_scb_uart.h ****     /**
 594:Generated_Source\PSoC6\pdl\drivers\peripheral\scb/cy_scb_uart.h ****     * When there are more entries in the RX FIFO than this level
 595:Generated_Source\PSoC6\pdl\drivers\peripheral\scb/cy_scb_uart.h ****     * the RX trigger output goes high. This output can be connected
 596:Generated_Source\PSoC6\pdl\drivers\peripheral\scb/cy_scb_uart.h ****     * to a DMA channel through a trigger mux.
 597:Generated_Source\PSoC6\pdl\drivers\peripheral\scb/cy_scb_uart.h ****     * Also, it controls the \ref CY_SCB_UART_RX_TRIGGER interrupt source.
 598:Generated_Source\PSoC6\pdl\drivers\peripheral\scb/cy_scb_uart.h ****     */
 599:Generated_Source\PSoC6\pdl\drivers\peripheral\scb/cy_scb_uart.h ****     uint32_t    rxFifoTriggerLevel;
 600:Generated_Source\PSoC6\pdl\drivers\peripheral\scb/cy_scb_uart.h **** 
 601:Generated_Source\PSoC6\pdl\drivers\peripheral\scb/cy_scb_uart.h ****     /**
 602:Generated_Source\PSoC6\pdl\drivers\peripheral\scb/cy_scb_uart.h ****     * The bits set in this mask allow the event to cause an interrupt
 603:Generated_Source\PSoC6\pdl\drivers\peripheral\scb/cy_scb_uart.h ****     * (See \ref group_scb_uart_macros_rx_fifo_status for the set of constants)
 604:Generated_Source\PSoC6\pdl\drivers\peripheral\scb/cy_scb_uart.h ****     */
 605:Generated_Source\PSoC6\pdl\drivers\peripheral\scb/cy_scb_uart.h ****     uint32_t    rxFifoIntEnableMask;
 606:Generated_Source\PSoC6\pdl\drivers\peripheral\scb/cy_scb_uart.h **** 
 607:Generated_Source\PSoC6\pdl\drivers\peripheral\scb/cy_scb_uart.h ****     /**
 608:Generated_Source\PSoC6\pdl\drivers\peripheral\scb/cy_scb_uart.h ****     * When there are fewer entries in the TX FIFO then this level
 609:Generated_Source\PSoC6\pdl\drivers\peripheral\scb/cy_scb_uart.h ****     * the TX trigger output goes high. This output can be connected
 610:Generated_Source\PSoC6\pdl\drivers\peripheral\scb/cy_scb_uart.h ****     * to a DMA channel through a trigger mux.
 611:Generated_Source\PSoC6\pdl\drivers\peripheral\scb/cy_scb_uart.h ****     * Also, it controls \ref CY_SCB_UART_TX_TRIGGER interrupt source.
 612:Generated_Source\PSoC6\pdl\drivers\peripheral\scb/cy_scb_uart.h ****     */
 613:Generated_Source\PSoC6\pdl\drivers\peripheral\scb/cy_scb_uart.h ****     uint32_t    txFifoTriggerLevel;
 614:Generated_Source\PSoC6\pdl\drivers\peripheral\scb/cy_scb_uart.h **** 
 615:Generated_Source\PSoC6\pdl\drivers\peripheral\scb/cy_scb_uart.h ****     /**
 616:Generated_Source\PSoC6\pdl\drivers\peripheral\scb/cy_scb_uart.h ****     * Bits set in this mask allows the event to cause an interrupt
 617:Generated_Source\PSoC6\pdl\drivers\peripheral\scb/cy_scb_uart.h ****     * (See \ref group_scb_uart_macros_tx_fifo_status for the set of constants)
 618:Generated_Source\PSoC6\pdl\drivers\peripheral\scb/cy_scb_uart.h ****     */
 619:Generated_Source\PSoC6\pdl\drivers\peripheral\scb/cy_scb_uart.h ****     uint32_t    txFifoIntEnableMask;
ARM GAS  C:\Users\pearlstl\AppData\Local\Temp\ccCjmXK8.s 			page 29


 620:Generated_Source\PSoC6\pdl\drivers\peripheral\scb/cy_scb_uart.h **** } cy_stc_scb_uart_config_t;
 621:Generated_Source\PSoC6\pdl\drivers\peripheral\scb/cy_scb_uart.h **** 
 622:Generated_Source\PSoC6\pdl\drivers\peripheral\scb/cy_scb_uart.h **** /** UART context structure.
 623:Generated_Source\PSoC6\pdl\drivers\peripheral\scb/cy_scb_uart.h **** * All fields for the context structure are internal. Firmware never reads or
 624:Generated_Source\PSoC6\pdl\drivers\peripheral\scb/cy_scb_uart.h **** * writes these values. Firmware allocates the structure and provides the
 625:Generated_Source\PSoC6\pdl\drivers\peripheral\scb/cy_scb_uart.h **** * address of the structure to the driver in function calls. Firmware must
 626:Generated_Source\PSoC6\pdl\drivers\peripheral\scb/cy_scb_uart.h **** * ensure that the defined instance of this structure remains in scope
 627:Generated_Source\PSoC6\pdl\drivers\peripheral\scb/cy_scb_uart.h **** * while the drive is in use.
 628:Generated_Source\PSoC6\pdl\drivers\peripheral\scb/cy_scb_uart.h **** */
 629:Generated_Source\PSoC6\pdl\drivers\peripheral\scb/cy_scb_uart.h **** typedef struct cy_stc_scb_uart_context
 630:Generated_Source\PSoC6\pdl\drivers\peripheral\scb/cy_scb_uart.h **** {
 631:Generated_Source\PSoC6\pdl\drivers\peripheral\scb/cy_scb_uart.h ****     /** \cond INTERNAL */
 632:Generated_Source\PSoC6\pdl\drivers\peripheral\scb/cy_scb_uart.h ****     uint32_t volatile txStatus;         /**< The transmit status */
 633:Generated_Source\PSoC6\pdl\drivers\peripheral\scb/cy_scb_uart.h ****     uint32_t volatile rxStatus;         /**< The receive status */
 634:Generated_Source\PSoC6\pdl\drivers\peripheral\scb/cy_scb_uart.h **** 
 635:Generated_Source\PSoC6\pdl\drivers\peripheral\scb/cy_scb_uart.h ****     void     *rxRingBuf;                /**< The pointer to the ring buffer */
 636:Generated_Source\PSoC6\pdl\drivers\peripheral\scb/cy_scb_uart.h ****     uint32_t  rxRingBufSize;            /**< The ring buffer size */
 637:Generated_Source\PSoC6\pdl\drivers\peripheral\scb/cy_scb_uart.h ****     uint32_t volatile rxRingBufHead;    /**< The ring buffer head index */
 638:Generated_Source\PSoC6\pdl\drivers\peripheral\scb/cy_scb_uart.h ****     uint32_t volatile rxRingBufTail;    /**< The ring buffer tail index */
 639:Generated_Source\PSoC6\pdl\drivers\peripheral\scb/cy_scb_uart.h **** 
 640:Generated_Source\PSoC6\pdl\drivers\peripheral\scb/cy_scb_uart.h ****     void     *rxBuf;                    /**< The pointer to the receive buffer */
 641:Generated_Source\PSoC6\pdl\drivers\peripheral\scb/cy_scb_uart.h ****     uint32_t  rxBufSize;                /**< The receive buffer size */
 642:Generated_Source\PSoC6\pdl\drivers\peripheral\scb/cy_scb_uart.h ****     uint32_t volatile rxBufIdx;         /**< The current location in the receive buffer */
 643:Generated_Source\PSoC6\pdl\drivers\peripheral\scb/cy_scb_uart.h **** 
 644:Generated_Source\PSoC6\pdl\drivers\peripheral\scb/cy_scb_uart.h ****     void     *txBuf;                    /**< The pointer to the transmit buffer */
 645:Generated_Source\PSoC6\pdl\drivers\peripheral\scb/cy_scb_uart.h ****     uint32_t  txBufSize;                /**< The transmit buffer size */
 646:Generated_Source\PSoC6\pdl\drivers\peripheral\scb/cy_scb_uart.h ****     uint32_t volatile txLeftToTransmit; /**< The number of data elements left to be transmitted */
 647:Generated_Source\PSoC6\pdl\drivers\peripheral\scb/cy_scb_uart.h **** 
 648:Generated_Source\PSoC6\pdl\drivers\peripheral\scb/cy_scb_uart.h ****     /** The pointer to an event callback that is called when any of
 649:Generated_Source\PSoC6\pdl\drivers\peripheral\scb/cy_scb_uart.h ****     * \ref group_scb_uart_macros_callback_events occurs
 650:Generated_Source\PSoC6\pdl\drivers\peripheral\scb/cy_scb_uart.h ****     */
 651:Generated_Source\PSoC6\pdl\drivers\peripheral\scb/cy_scb_uart.h ****     cy_cb_scb_uart_handle_events_t cbEvents;
 652:Generated_Source\PSoC6\pdl\drivers\peripheral\scb/cy_scb_uart.h **** 
 653:Generated_Source\PSoC6\pdl\drivers\peripheral\scb/cy_scb_uart.h **** #if !defined(NDEBUG)
 654:Generated_Source\PSoC6\pdl\drivers\peripheral\scb/cy_scb_uart.h ****     uint32_t initKey;               /**< Tracks the context initialization */
 655:Generated_Source\PSoC6\pdl\drivers\peripheral\scb/cy_scb_uart.h **** #endif /* !(NDEBUG) */
 656:Generated_Source\PSoC6\pdl\drivers\peripheral\scb/cy_scb_uart.h ****     /** \endcond */
 657:Generated_Source\PSoC6\pdl\drivers\peripheral\scb/cy_scb_uart.h **** } cy_stc_scb_uart_context_t;
 658:Generated_Source\PSoC6\pdl\drivers\peripheral\scb/cy_scb_uart.h **** /** \} group_scb_uart_data_structures */
 659:Generated_Source\PSoC6\pdl\drivers\peripheral\scb/cy_scb_uart.h **** 
 660:Generated_Source\PSoC6\pdl\drivers\peripheral\scb/cy_scb_uart.h **** 
 661:Generated_Source\PSoC6\pdl\drivers\peripheral\scb/cy_scb_uart.h **** /*******************************************************************************
 662:Generated_Source\PSoC6\pdl\drivers\peripheral\scb/cy_scb_uart.h **** *                           Function Prototypes
 663:Generated_Source\PSoC6\pdl\drivers\peripheral\scb/cy_scb_uart.h **** *******************************************************************************/
 664:Generated_Source\PSoC6\pdl\drivers\peripheral\scb/cy_scb_uart.h **** 
 665:Generated_Source\PSoC6\pdl\drivers\peripheral\scb/cy_scb_uart.h **** /**
 666:Generated_Source\PSoC6\pdl\drivers\peripheral\scb/cy_scb_uart.h **** * \addtogroup group_scb_uart_general_functions
 667:Generated_Source\PSoC6\pdl\drivers\peripheral\scb/cy_scb_uart.h **** * \{
 668:Generated_Source\PSoC6\pdl\drivers\peripheral\scb/cy_scb_uart.h **** */
 669:Generated_Source\PSoC6\pdl\drivers\peripheral\scb/cy_scb_uart.h **** cy_en_scb_uart_status_t Cy_SCB_UART_Init(CySCB_Type *base, cy_stc_scb_uart_config_t const *config,
 670:Generated_Source\PSoC6\pdl\drivers\peripheral\scb/cy_scb_uart.h ****                                          cy_stc_scb_uart_context_t *context);
 671:Generated_Source\PSoC6\pdl\drivers\peripheral\scb/cy_scb_uart.h **** void Cy_SCB_UART_DeInit (CySCB_Type *base);
 672:Generated_Source\PSoC6\pdl\drivers\peripheral\scb/cy_scb_uart.h **** __STATIC_INLINE void Cy_SCB_UART_Enable(CySCB_Type *base);
 673:Generated_Source\PSoC6\pdl\drivers\peripheral\scb/cy_scb_uart.h **** void Cy_SCB_UART_Disable(CySCB_Type *base, cy_stc_scb_uart_context_t *context);
 674:Generated_Source\PSoC6\pdl\drivers\peripheral\scb/cy_scb_uart.h **** 
 675:Generated_Source\PSoC6\pdl\drivers\peripheral\scb/cy_scb_uart.h **** __STATIC_INLINE void     Cy_SCB_UART_EnableCts      (CySCB_Type *base);
 676:Generated_Source\PSoC6\pdl\drivers\peripheral\scb/cy_scb_uart.h **** __STATIC_INLINE void     Cy_SCB_UART_DisableCts     (CySCB_Type *base);
ARM GAS  C:\Users\pearlstl\AppData\Local\Temp\ccCjmXK8.s 			page 30


 677:Generated_Source\PSoC6\pdl\drivers\peripheral\scb/cy_scb_uart.h **** __STATIC_INLINE void     Cy_SCB_UART_SetRtsFifoLevel(CySCB_Type *base, uint32_t level);
 678:Generated_Source\PSoC6\pdl\drivers\peripheral\scb/cy_scb_uart.h **** __STATIC_INLINE uint32_t Cy_SCB_UART_GetRtsFifoLevel(CySCB_Type const *base);
 679:Generated_Source\PSoC6\pdl\drivers\peripheral\scb/cy_scb_uart.h **** 
 680:Generated_Source\PSoC6\pdl\drivers\peripheral\scb/cy_scb_uart.h **** __STATIC_INLINE void Cy_SCB_UART_EnableSkipStart (CySCB_Type *base);
 681:Generated_Source\PSoC6\pdl\drivers\peripheral\scb/cy_scb_uart.h **** __STATIC_INLINE void Cy_SCB_UART_DisableSkipStart(CySCB_Type *base);
 682:Generated_Source\PSoC6\pdl\drivers\peripheral\scb/cy_scb_uart.h **** /** \} group_scb_uart_general_functions */
 683:Generated_Source\PSoC6\pdl\drivers\peripheral\scb/cy_scb_uart.h **** 
 684:Generated_Source\PSoC6\pdl\drivers\peripheral\scb/cy_scb_uart.h **** /**
 685:Generated_Source\PSoC6\pdl\drivers\peripheral\scb/cy_scb_uart.h **** * \addtogroup group_scb_uart_high_level_functions
 686:Generated_Source\PSoC6\pdl\drivers\peripheral\scb/cy_scb_uart.h **** * \{
 687:Generated_Source\PSoC6\pdl\drivers\peripheral\scb/cy_scb_uart.h **** */
 688:Generated_Source\PSoC6\pdl\drivers\peripheral\scb/cy_scb_uart.h **** void     Cy_SCB_UART_StartRingBuffer   (CySCB_Type *base, void *buffer, uint32_t size,
 689:Generated_Source\PSoC6\pdl\drivers\peripheral\scb/cy_scb_uart.h ****                                         cy_stc_scb_uart_context_t *context);
 690:Generated_Source\PSoC6\pdl\drivers\peripheral\scb/cy_scb_uart.h **** void     Cy_SCB_UART_StopRingBuffer    (CySCB_Type *base, cy_stc_scb_uart_context_t *context);
 691:Generated_Source\PSoC6\pdl\drivers\peripheral\scb/cy_scb_uart.h **** uint32_t Cy_SCB_UART_GetNumInRingBuffer(CySCB_Type const *base, cy_stc_scb_uart_context_t const *co
 692:Generated_Source\PSoC6\pdl\drivers\peripheral\scb/cy_scb_uart.h **** void     Cy_SCB_UART_ClearRingBuffer   (CySCB_Type const *base, cy_stc_scb_uart_context_t *context)
 693:Generated_Source\PSoC6\pdl\drivers\peripheral\scb/cy_scb_uart.h **** 
 694:Generated_Source\PSoC6\pdl\drivers\peripheral\scb/cy_scb_uart.h **** cy_en_scb_uart_status_t Cy_SCB_UART_Receive(CySCB_Type *base, void *buffer, uint32_t size,
 695:Generated_Source\PSoC6\pdl\drivers\peripheral\scb/cy_scb_uart.h ****                                             cy_stc_scb_uart_context_t *context);
 696:Generated_Source\PSoC6\pdl\drivers\peripheral\scb/cy_scb_uart.h **** void     Cy_SCB_UART_AbortReceive    (CySCB_Type *base, cy_stc_scb_uart_context_t *context);
 697:Generated_Source\PSoC6\pdl\drivers\peripheral\scb/cy_scb_uart.h **** uint32_t Cy_SCB_UART_GetReceiveStatus(CySCB_Type const *base, cy_stc_scb_uart_context_t const *cont
 698:Generated_Source\PSoC6\pdl\drivers\peripheral\scb/cy_scb_uart.h **** uint32_t Cy_SCB_UART_GetNumReceived  (CySCB_Type const *base, cy_stc_scb_uart_context_t const *cont
 699:Generated_Source\PSoC6\pdl\drivers\peripheral\scb/cy_scb_uart.h **** 
 700:Generated_Source\PSoC6\pdl\drivers\peripheral\scb/cy_scb_uart.h **** cy_en_scb_uart_status_t Cy_SCB_UART_Transmit(CySCB_Type *base, void *buffer, uint32_t size,
 701:Generated_Source\PSoC6\pdl\drivers\peripheral\scb/cy_scb_uart.h ****                                              cy_stc_scb_uart_context_t *context);
 702:Generated_Source\PSoC6\pdl\drivers\peripheral\scb/cy_scb_uart.h **** void     Cy_SCB_UART_AbortTransmit       (CySCB_Type *base, cy_stc_scb_uart_context_t *context);
 703:Generated_Source\PSoC6\pdl\drivers\peripheral\scb/cy_scb_uart.h **** uint32_t Cy_SCB_UART_GetTransmitStatus   (CySCB_Type const *base, cy_stc_scb_uart_context_t const *
 704:Generated_Source\PSoC6\pdl\drivers\peripheral\scb/cy_scb_uart.h **** uint32_t Cy_SCB_UART_GetNumLeftToTransmit(CySCB_Type const *base, cy_stc_scb_uart_context_t const *
 705:Generated_Source\PSoC6\pdl\drivers\peripheral\scb/cy_scb_uart.h **** /** \} group_scb_uart_high_level_functions */
 706:Generated_Source\PSoC6\pdl\drivers\peripheral\scb/cy_scb_uart.h **** 
 707:Generated_Source\PSoC6\pdl\drivers\peripheral\scb/cy_scb_uart.h **** /**
 708:Generated_Source\PSoC6\pdl\drivers\peripheral\scb/cy_scb_uart.h **** * \addtogroup group_scb_uart_low_level_functions
 709:Generated_Source\PSoC6\pdl\drivers\peripheral\scb/cy_scb_uart.h **** * \{
 710:Generated_Source\PSoC6\pdl\drivers\peripheral\scb/cy_scb_uart.h **** */
 711:Generated_Source\PSoC6\pdl\drivers\peripheral\scb/cy_scb_uart.h **** __STATIC_INLINE uint32_t Cy_SCB_UART_Put             (CySCB_Type *base, uint32_t data);
 712:Generated_Source\PSoC6\pdl\drivers\peripheral\scb/cy_scb_uart.h **** __STATIC_INLINE uint32_t Cy_SCB_UART_PutArray        (CySCB_Type *base, void *buffer, uint32_t size
 713:Generated_Source\PSoC6\pdl\drivers\peripheral\scb/cy_scb_uart.h **** __STATIC_INLINE void     Cy_SCB_UART_PutArrayBlocking(CySCB_Type *base, void *buffer, uint32_t size
 714:Generated_Source\PSoC6\pdl\drivers\peripheral\scb/cy_scb_uart.h **** __STATIC_INLINE void     Cy_SCB_UART_PutString       (CySCB_Type *base, char_t const string[]);
 715:Generated_Source\PSoC6\pdl\drivers\peripheral\scb/cy_scb_uart.h **** void Cy_SCB_UART_SendBreakBlocking(CySCB_Type *base, uint32_t breakWidth);
 716:Generated_Source\PSoC6\pdl\drivers\peripheral\scb/cy_scb_uart.h **** 
 717:Generated_Source\PSoC6\pdl\drivers\peripheral\scb/cy_scb_uart.h **** __STATIC_INLINE uint32_t Cy_SCB_UART_Get             (CySCB_Type const *base);
 718:Generated_Source\PSoC6\pdl\drivers\peripheral\scb/cy_scb_uart.h **** __STATIC_INLINE uint32_t Cy_SCB_UART_GetArray        (CySCB_Type const *base, void *buffer, uint32_
 719:Generated_Source\PSoC6\pdl\drivers\peripheral\scb/cy_scb_uart.h **** __STATIC_INLINE void     Cy_SCB_UART_GetArrayBlocking(CySCB_Type const *base, void *buffer, uint32_
 720:Generated_Source\PSoC6\pdl\drivers\peripheral\scb/cy_scb_uart.h **** 
 721:Generated_Source\PSoC6\pdl\drivers\peripheral\scb/cy_scb_uart.h **** __STATIC_INLINE uint32_t Cy_SCB_UART_GetTxFifoStatus  (CySCB_Type const *base);
 722:Generated_Source\PSoC6\pdl\drivers\peripheral\scb/cy_scb_uart.h **** __STATIC_INLINE void     Cy_SCB_UART_ClearTxFifoStatus(CySCB_Type *base, uint32_t clearMask);
 723:Generated_Source\PSoC6\pdl\drivers\peripheral\scb/cy_scb_uart.h **** 
 724:Generated_Source\PSoC6\pdl\drivers\peripheral\scb/cy_scb_uart.h **** __STATIC_INLINE uint32_t Cy_SCB_UART_GetRxFifoStatus  (CySCB_Type const *base);
 725:Generated_Source\PSoC6\pdl\drivers\peripheral\scb/cy_scb_uart.h **** __STATIC_INLINE void     Cy_SCB_UART_ClearRxFifoStatus(CySCB_Type *base, uint32_t clearMask);
 726:Generated_Source\PSoC6\pdl\drivers\peripheral\scb/cy_scb_uart.h **** 
 727:Generated_Source\PSoC6\pdl\drivers\peripheral\scb/cy_scb_uart.h **** __STATIC_INLINE uint32_t Cy_SCB_UART_GetNumInTxFifo   (CySCB_Type const *base);
 728:Generated_Source\PSoC6\pdl\drivers\peripheral\scb/cy_scb_uart.h **** __STATIC_INLINE bool     Cy_SCB_UART_IsTxComplete     (CySCB_Type const *base);
 729:Generated_Source\PSoC6\pdl\drivers\peripheral\scb/cy_scb_uart.h **** 
 730:Generated_Source\PSoC6\pdl\drivers\peripheral\scb/cy_scb_uart.h **** __STATIC_INLINE uint32_t Cy_SCB_UART_GetNumInRxFifo   (CySCB_Type const *base);
 731:Generated_Source\PSoC6\pdl\drivers\peripheral\scb/cy_scb_uart.h **** 
 732:Generated_Source\PSoC6\pdl\drivers\peripheral\scb/cy_scb_uart.h **** __STATIC_INLINE void     Cy_SCB_UART_ClearRxFifo      (CySCB_Type *base);
 733:Generated_Source\PSoC6\pdl\drivers\peripheral\scb/cy_scb_uart.h **** __STATIC_INLINE void     Cy_SCB_UART_ClearTxFifo      (CySCB_Type *base);
ARM GAS  C:\Users\pearlstl\AppData\Local\Temp\ccCjmXK8.s 			page 31


 734:Generated_Source\PSoC6\pdl\drivers\peripheral\scb/cy_scb_uart.h **** /** \} group_scb_uart_low_level_functions */
 735:Generated_Source\PSoC6\pdl\drivers\peripheral\scb/cy_scb_uart.h **** 
 736:Generated_Source\PSoC6\pdl\drivers\peripheral\scb/cy_scb_uart.h **** /**
 737:Generated_Source\PSoC6\pdl\drivers\peripheral\scb/cy_scb_uart.h **** * \addtogroup group_scb_uart_interrupt_functions
 738:Generated_Source\PSoC6\pdl\drivers\peripheral\scb/cy_scb_uart.h **** * \{
 739:Generated_Source\PSoC6\pdl\drivers\peripheral\scb/cy_scb_uart.h **** */
 740:Generated_Source\PSoC6\pdl\drivers\peripheral\scb/cy_scb_uart.h **** void Cy_SCB_UART_Interrupt(CySCB_Type *base, cy_stc_scb_uart_context_t *context);
 741:Generated_Source\PSoC6\pdl\drivers\peripheral\scb/cy_scb_uart.h **** 
 742:Generated_Source\PSoC6\pdl\drivers\peripheral\scb/cy_scb_uart.h **** __STATIC_INLINE void Cy_SCB_UART_RegisterCallback(CySCB_Type const *base, cy_cb_scb_uart_handle_eve
 743:Generated_Source\PSoC6\pdl\drivers\peripheral\scb/cy_scb_uart.h ****                                                   cy_stc_scb_uart_context_t *context);
 744:Generated_Source\PSoC6\pdl\drivers\peripheral\scb/cy_scb_uart.h **** /** \} group_scb_uart_interrupt_functions */
 745:Generated_Source\PSoC6\pdl\drivers\peripheral\scb/cy_scb_uart.h **** 
 746:Generated_Source\PSoC6\pdl\drivers\peripheral\scb/cy_scb_uart.h **** /**
 747:Generated_Source\PSoC6\pdl\drivers\peripheral\scb/cy_scb_uart.h **** * \addtogroup group_scb_uart_low_power_functions
 748:Generated_Source\PSoC6\pdl\drivers\peripheral\scb/cy_scb_uart.h **** * \{
 749:Generated_Source\PSoC6\pdl\drivers\peripheral\scb/cy_scb_uart.h **** */
 750:Generated_Source\PSoC6\pdl\drivers\peripheral\scb/cy_scb_uart.h **** cy_en_syspm_status_t Cy_SCB_UART_DeepSleepCallback(cy_stc_syspm_callback_params_t *callbackParams, 
 751:Generated_Source\PSoC6\pdl\drivers\peripheral\scb/cy_scb_uart.h **** cy_en_syspm_status_t Cy_SCB_UART_HibernateCallback(cy_stc_syspm_callback_params_t *callbackParams, 
 752:Generated_Source\PSoC6\pdl\drivers\peripheral\scb/cy_scb_uart.h **** /** \} group_scb_uart_low_power_functions */
 753:Generated_Source\PSoC6\pdl\drivers\peripheral\scb/cy_scb_uart.h **** 
 754:Generated_Source\PSoC6\pdl\drivers\peripheral\scb/cy_scb_uart.h **** 
 755:Generated_Source\PSoC6\pdl\drivers\peripheral\scb/cy_scb_uart.h **** /*******************************************************************************
 756:Generated_Source\PSoC6\pdl\drivers\peripheral\scb/cy_scb_uart.h **** *                               API Constants
 757:Generated_Source\PSoC6\pdl\drivers\peripheral\scb/cy_scb_uart.h **** *******************************************************************************/
 758:Generated_Source\PSoC6\pdl\drivers\peripheral\scb/cy_scb_uart.h **** 
 759:Generated_Source\PSoC6\pdl\drivers\peripheral\scb/cy_scb_uart.h **** /**
 760:Generated_Source\PSoC6\pdl\drivers\peripheral\scb/cy_scb_uart.h **** * \addtogroup group_scb_uart_macros
 761:Generated_Source\PSoC6\pdl\drivers\peripheral\scb/cy_scb_uart.h **** * \{
 762:Generated_Source\PSoC6\pdl\drivers\peripheral\scb/cy_scb_uart.h **** */
 763:Generated_Source\PSoC6\pdl\drivers\peripheral\scb/cy_scb_uart.h **** 
 764:Generated_Source\PSoC6\pdl\drivers\peripheral\scb/cy_scb_uart.h **** /**
 765:Generated_Source\PSoC6\pdl\drivers\peripheral\scb/cy_scb_uart.h **** * \defgroup group_scb_uart_macros_irda_lp_ovs UART IRDA Low Power Oversample factors
 766:Generated_Source\PSoC6\pdl\drivers\peripheral\scb/cy_scb_uart.h **** * \{
 767:Generated_Source\PSoC6\pdl\drivers\peripheral\scb/cy_scb_uart.h **** */
 768:Generated_Source\PSoC6\pdl\drivers\peripheral\scb/cy_scb_uart.h **** #define CY_SCB_UART_IRDA_LP_OVS16      (1UL)   /**< IrDA in low-power mode oversampled by 16   */
 769:Generated_Source\PSoC6\pdl\drivers\peripheral\scb/cy_scb_uart.h **** #define CY_SCB_UART_IRDA_LP_OVS32      (2UL)   /**< IrDA in low-power mode oversampled by 32   */
 770:Generated_Source\PSoC6\pdl\drivers\peripheral\scb/cy_scb_uart.h **** #define CY_SCB_UART_IRDA_LP_OVS48      (3UL)   /**< IrDA in low-power mode oversampled by 48   */
 771:Generated_Source\PSoC6\pdl\drivers\peripheral\scb/cy_scb_uart.h **** #define CY_SCB_UART_IRDA_LP_OVS96      (4UL)   /**< IrDA in low-power mode oversampled by 96   */
 772:Generated_Source\PSoC6\pdl\drivers\peripheral\scb/cy_scb_uart.h **** #define CY_SCB_UART_IRDA_LP_OVS192     (5UL)   /**< IrDA in low-power mode oversampled by 192  */
 773:Generated_Source\PSoC6\pdl\drivers\peripheral\scb/cy_scb_uart.h **** #define CY_SCB_UART_IRDA_LP_OVS768     (6UL)   /**< IrDA in low-power mode oversampled by 768  */
 774:Generated_Source\PSoC6\pdl\drivers\peripheral\scb/cy_scb_uart.h **** #define CY_SCB_UART_IRDA_LP_OVS1536    (7UL)   /**< IrDA in low-power mode oversampled by 1536 */
 775:Generated_Source\PSoC6\pdl\drivers\peripheral\scb/cy_scb_uart.h **** /** \} group_scb_uart_macros_irda_lp_ovs */
 776:Generated_Source\PSoC6\pdl\drivers\peripheral\scb/cy_scb_uart.h **** 
 777:Generated_Source\PSoC6\pdl\drivers\peripheral\scb/cy_scb_uart.h **** /**
 778:Generated_Source\PSoC6\pdl\drivers\peripheral\scb/cy_scb_uart.h **** * \defgroup group_scb_uart_macros_rx_fifo_status UART RX FIFO status.
 779:Generated_Source\PSoC6\pdl\drivers\peripheral\scb/cy_scb_uart.h **** * \{
 780:Generated_Source\PSoC6\pdl\drivers\peripheral\scb/cy_scb_uart.h **** * Macros to check UART RX FIFO status returned by \ref Cy_SCB_UART_GetRxFifoStatus
 781:Generated_Source\PSoC6\pdl\drivers\peripheral\scb/cy_scb_uart.h **** * function or assign mask for \ref Cy_SCB_UART_ClearRxFifoStatus function.
 782:Generated_Source\PSoC6\pdl\drivers\peripheral\scb/cy_scb_uart.h **** * Each UART RX FIFO status is encoded in a separate bit, therefore multiple
 783:Generated_Source\PSoC6\pdl\drivers\peripheral\scb/cy_scb_uart.h **** * bits may be set to indicate the current status.
 784:Generated_Source\PSoC6\pdl\drivers\peripheral\scb/cy_scb_uart.h **** */
 785:Generated_Source\PSoC6\pdl\drivers\peripheral\scb/cy_scb_uart.h **** 
 786:Generated_Source\PSoC6\pdl\drivers\peripheral\scb/cy_scb_uart.h **** /** The number of entries in the RX FIFO is more than the RX FIFO trigger level
 787:Generated_Source\PSoC6\pdl\drivers\peripheral\scb/cy_scb_uart.h **** * value
 788:Generated_Source\PSoC6\pdl\drivers\peripheral\scb/cy_scb_uart.h **** */
 789:Generated_Source\PSoC6\pdl\drivers\peripheral\scb/cy_scb_uart.h **** #define CY_SCB_UART_RX_TRIGGER         (SCB_INTR_RX_TRIGGER_Msk)
 790:Generated_Source\PSoC6\pdl\drivers\peripheral\scb/cy_scb_uart.h **** 
ARM GAS  C:\Users\pearlstl\AppData\Local\Temp\ccCjmXK8.s 			page 32


 791:Generated_Source\PSoC6\pdl\drivers\peripheral\scb/cy_scb_uart.h **** /** The RX FIFO is not empty, there is data to read */
 792:Generated_Source\PSoC6\pdl\drivers\peripheral\scb/cy_scb_uart.h **** #define CY_SCB_UART_RX_NOT_EMPTY       (SCB_INTR_RX_NOT_EMPTY_Msk)
 793:Generated_Source\PSoC6\pdl\drivers\peripheral\scb/cy_scb_uart.h **** 
 794:Generated_Source\PSoC6\pdl\drivers\peripheral\scb/cy_scb_uart.h **** /**
 795:Generated_Source\PSoC6\pdl\drivers\peripheral\scb/cy_scb_uart.h **** * The RX FIFO is full, there is no more space for additional data, and
 796:Generated_Source\PSoC6\pdl\drivers\peripheral\scb/cy_scb_uart.h **** * any additional data will be dropped
 797:Generated_Source\PSoC6\pdl\drivers\peripheral\scb/cy_scb_uart.h **** */
 798:Generated_Source\PSoC6\pdl\drivers\peripheral\scb/cy_scb_uart.h **** #define CY_SCB_UART_RX_FULL            (SCB_INTR_RX_FULL_Msk)
 799:Generated_Source\PSoC6\pdl\drivers\peripheral\scb/cy_scb_uart.h **** 
 800:Generated_Source\PSoC6\pdl\drivers\peripheral\scb/cy_scb_uart.h **** /**
 801:Generated_Source\PSoC6\pdl\drivers\peripheral\scb/cy_scb_uart.h **** * The RX FIFO was full and there was an attempt to write to it.
 802:Generated_Source\PSoC6\pdl\drivers\peripheral\scb/cy_scb_uart.h **** * That additional data was dropped.
 803:Generated_Source\PSoC6\pdl\drivers\peripheral\scb/cy_scb_uart.h **** */
 804:Generated_Source\PSoC6\pdl\drivers\peripheral\scb/cy_scb_uart.h **** #define CY_SCB_UART_RX_OVERFLOW        (SCB_INTR_RX_OVERFLOW_Msk)
 805:Generated_Source\PSoC6\pdl\drivers\peripheral\scb/cy_scb_uart.h **** 
 806:Generated_Source\PSoC6\pdl\drivers\peripheral\scb/cy_scb_uart.h **** /** An attempt to read from an empty RX FIFO */
 807:Generated_Source\PSoC6\pdl\drivers\peripheral\scb/cy_scb_uart.h **** #define CY_SCB_UART_RX_UNDERFLOW       (SCB_INTR_RX_UNDERFLOW_Msk)
 808:Generated_Source\PSoC6\pdl\drivers\peripheral\scb/cy_scb_uart.h **** 
 809:Generated_Source\PSoC6\pdl\drivers\peripheral\scb/cy_scb_uart.h **** /** The RX FIFO detected a frame error, either a stop or stop-bit error */
 810:Generated_Source\PSoC6\pdl\drivers\peripheral\scb/cy_scb_uart.h **** #define CY_SCB_UART_RX_ERR_FRAME       (SCB_INTR_RX_FRAME_ERROR_Msk)
 811:Generated_Source\PSoC6\pdl\drivers\peripheral\scb/cy_scb_uart.h **** 
 812:Generated_Source\PSoC6\pdl\drivers\peripheral\scb/cy_scb_uart.h **** /** The RX FIFO detected a parity error */
 813:Generated_Source\PSoC6\pdl\drivers\peripheral\scb/cy_scb_uart.h **** #define CY_SCB_UART_RX_ERR_PARITY      (SCB_INTR_RX_PARITY_ERROR_Msk)
 814:Generated_Source\PSoC6\pdl\drivers\peripheral\scb/cy_scb_uart.h **** 
 815:Generated_Source\PSoC6\pdl\drivers\peripheral\scb/cy_scb_uart.h **** /** The RX FIFO detected a break transmission from the transmitter */
 816:Generated_Source\PSoC6\pdl\drivers\peripheral\scb/cy_scb_uart.h **** #define CY_SCB_UART_RX_BREAK_DETECT    (SCB_INTR_RX_BREAK_DETECT_Msk)
 817:Generated_Source\PSoC6\pdl\drivers\peripheral\scb/cy_scb_uart.h **** /** \} group_scb_uart_macros_rx_fifo_status */
 818:Generated_Source\PSoC6\pdl\drivers\peripheral\scb/cy_scb_uart.h **** 
 819:Generated_Source\PSoC6\pdl\drivers\peripheral\scb/cy_scb_uart.h **** /**
 820:Generated_Source\PSoC6\pdl\drivers\peripheral\scb/cy_scb_uart.h **** * \defgroup group_scb_uart_macros_tx_fifo_status UART TX FIFO Statuses
 821:Generated_Source\PSoC6\pdl\drivers\peripheral\scb/cy_scb_uart.h **** * \{
 822:Generated_Source\PSoC6\pdl\drivers\peripheral\scb/cy_scb_uart.h **** * Macros to check UART TX FIFO status returned by \ref Cy_SCB_UART_GetTxFifoStatus
 823:Generated_Source\PSoC6\pdl\drivers\peripheral\scb/cy_scb_uart.h **** * function or assign mask for \ref Cy_SCB_UART_ClearTxFifoStatus function.
 824:Generated_Source\PSoC6\pdl\drivers\peripheral\scb/cy_scb_uart.h **** * Each UART TX FIFO status is encoded in a separate bit, therefore multiple bits
 825:Generated_Source\PSoC6\pdl\drivers\peripheral\scb/cy_scb_uart.h **** * may be set to indicate the current status.
 826:Generated_Source\PSoC6\pdl\drivers\peripheral\scb/cy_scb_uart.h **** */
 827:Generated_Source\PSoC6\pdl\drivers\peripheral\scb/cy_scb_uart.h **** 
 828:Generated_Source\PSoC6\pdl\drivers\peripheral\scb/cy_scb_uart.h **** /** The number of entries in the TX FIFO is less than the TX FIFO trigger level
 829:Generated_Source\PSoC6\pdl\drivers\peripheral\scb/cy_scb_uart.h **** * value
 830:Generated_Source\PSoC6\pdl\drivers\peripheral\scb/cy_scb_uart.h **** */
 831:Generated_Source\PSoC6\pdl\drivers\peripheral\scb/cy_scb_uart.h **** #define CY_SCB_UART_TX_TRIGGER     (SCB_INTR_TX_TRIGGER_Msk)
 832:Generated_Source\PSoC6\pdl\drivers\peripheral\scb/cy_scb_uart.h **** 
 833:Generated_Source\PSoC6\pdl\drivers\peripheral\scb/cy_scb_uart.h **** /** The TX FIFO is not full, there is a space for more data */
 834:Generated_Source\PSoC6\pdl\drivers\peripheral\scb/cy_scb_uart.h **** #define CY_SCB_UART_TX_NOT_FULL    (SCB_INTR_TX_NOT_FULL_Msk)
 835:Generated_Source\PSoC6\pdl\drivers\peripheral\scb/cy_scb_uart.h **** 
 836:Generated_Source\PSoC6\pdl\drivers\peripheral\scb/cy_scb_uart.h **** /** The TX FIFO is empty, note there may still be data in the shift register.*/
 837:Generated_Source\PSoC6\pdl\drivers\peripheral\scb/cy_scb_uart.h **** #define CY_SCB_UART_TX_EMPTY       (SCB_INTR_TX_EMPTY_Msk)
 838:Generated_Source\PSoC6\pdl\drivers\peripheral\scb/cy_scb_uart.h **** 
 839:Generated_Source\PSoC6\pdl\drivers\peripheral\scb/cy_scb_uart.h **** /** An attempt to write to the full TX FIFO */
 840:Generated_Source\PSoC6\pdl\drivers\peripheral\scb/cy_scb_uart.h **** #define CY_SCB_UART_TX_OVERFLOW    (SCB_INTR_TX_OVERFLOW_Msk)
 841:Generated_Source\PSoC6\pdl\drivers\peripheral\scb/cy_scb_uart.h **** 
 842:Generated_Source\PSoC6\pdl\drivers\peripheral\scb/cy_scb_uart.h **** /** An attempt to read from an empty transmitter FIFO (hardware reads). */
 843:Generated_Source\PSoC6\pdl\drivers\peripheral\scb/cy_scb_uart.h **** #define CY_SCB_UART_TX_UNDERFLOW (SCB_INTR_TX_UNDERFLOW_Msk)
 844:Generated_Source\PSoC6\pdl\drivers\peripheral\scb/cy_scb_uart.h **** 
 845:Generated_Source\PSoC6\pdl\drivers\peripheral\scb/cy_scb_uart.h **** /** All data has been transmitted out of the FIFO, including shifter */
 846:Generated_Source\PSoC6\pdl\drivers\peripheral\scb/cy_scb_uart.h **** #define CY_SCB_UART_TX_DONE        (SCB_INTR_TX_UART_DONE_Msk)
 847:Generated_Source\PSoC6\pdl\drivers\peripheral\scb/cy_scb_uart.h **** 
ARM GAS  C:\Users\pearlstl\AppData\Local\Temp\ccCjmXK8.s 			page 33


 848:Generated_Source\PSoC6\pdl\drivers\peripheral\scb/cy_scb_uart.h **** /** SmartCard only: the transmitter received a NACK */
 849:Generated_Source\PSoC6\pdl\drivers\peripheral\scb/cy_scb_uart.h **** #define CY_SCB_UART_TX_NACK        (SCB_INTR_TX_UART_NACK_Msk)
 850:Generated_Source\PSoC6\pdl\drivers\peripheral\scb/cy_scb_uart.h **** 
 851:Generated_Source\PSoC6\pdl\drivers\peripheral\scb/cy_scb_uart.h **** /** SmartCard only: the transmitter lost arbitration */
 852:Generated_Source\PSoC6\pdl\drivers\peripheral\scb/cy_scb_uart.h **** #define CY_SCB_UART_TX_ARB_LOST    (SCB_INTR_TX_UART_ARB_LOST_Msk)
 853:Generated_Source\PSoC6\pdl\drivers\peripheral\scb/cy_scb_uart.h **** /** \} group_scb_uart_macros_tx_fifo_status */
 854:Generated_Source\PSoC6\pdl\drivers\peripheral\scb/cy_scb_uart.h **** 
 855:Generated_Source\PSoC6\pdl\drivers\peripheral\scb/cy_scb_uart.h **** /**
 856:Generated_Source\PSoC6\pdl\drivers\peripheral\scb/cy_scb_uart.h **** * \defgroup group_scb_uart_macros_receive_status UART Receive Statuses
 857:Generated_Source\PSoC6\pdl\drivers\peripheral\scb/cy_scb_uart.h **** * \{
 858:Generated_Source\PSoC6\pdl\drivers\peripheral\scb/cy_scb_uart.h **** * Macros to check current UART receive status returned by 
 859:Generated_Source\PSoC6\pdl\drivers\peripheral\scb/cy_scb_uart.h **** * \ref Cy_SCB_UART_GetReceiveStatus function. 
 860:Generated_Source\PSoC6\pdl\drivers\peripheral\scb/cy_scb_uart.h **** * Each UART receive status is encoded in a separate bit, therefore multiple bits
 861:Generated_Source\PSoC6\pdl\drivers\peripheral\scb/cy_scb_uart.h **** * may be set to indicate the current status.
 862:Generated_Source\PSoC6\pdl\drivers\peripheral\scb/cy_scb_uart.h **** */
 863:Generated_Source\PSoC6\pdl\drivers\peripheral\scb/cy_scb_uart.h **** /** The receive operation started by \ref Cy_SCB_UART_Receive is in progress */
 864:Generated_Source\PSoC6\pdl\drivers\peripheral\scb/cy_scb_uart.h **** #define CY_SCB_UART_RECEIVE_ACTIVE         (0x01UL)
 865:Generated_Source\PSoC6\pdl\drivers\peripheral\scb/cy_scb_uart.h **** 
 866:Generated_Source\PSoC6\pdl\drivers\peripheral\scb/cy_scb_uart.h **** /**
 867:Generated_Source\PSoC6\pdl\drivers\peripheral\scb/cy_scb_uart.h **** * The hardware RX FIFO was full and there was an attempt to write to it.
 868:Generated_Source\PSoC6\pdl\drivers\peripheral\scb/cy_scb_uart.h **** * That additional data was dropped.
 869:Generated_Source\PSoC6\pdl\drivers\peripheral\scb/cy_scb_uart.h **** */
 870:Generated_Source\PSoC6\pdl\drivers\peripheral\scb/cy_scb_uart.h **** #define CY_SCB_UART_RECEIVE_OVERFLOW       (SCB_INTR_RX_OVERFLOW_Msk)
 871:Generated_Source\PSoC6\pdl\drivers\peripheral\scb/cy_scb_uart.h **** 
 872:Generated_Source\PSoC6\pdl\drivers\peripheral\scb/cy_scb_uart.h **** /** The receive hardware detected a frame error, either a start or
 873:Generated_Source\PSoC6\pdl\drivers\peripheral\scb/cy_scb_uart.h **** * stop bit error
 874:Generated_Source\PSoC6\pdl\drivers\peripheral\scb/cy_scb_uart.h **** */
 875:Generated_Source\PSoC6\pdl\drivers\peripheral\scb/cy_scb_uart.h **** #define CY_SCB_UART_RECEIVE_ERR_FRAME      (SCB_INTR_RX_FRAME_ERROR_Msk)
 876:Generated_Source\PSoC6\pdl\drivers\peripheral\scb/cy_scb_uart.h **** 
 877:Generated_Source\PSoC6\pdl\drivers\peripheral\scb/cy_scb_uart.h **** /** The receive hardware detected a parity error */
 878:Generated_Source\PSoC6\pdl\drivers\peripheral\scb/cy_scb_uart.h **** #define CY_SCB_UART_RECEIVE_ERR_PARITY     (SCB_INTR_RX_PARITY_ERROR_Msk)
 879:Generated_Source\PSoC6\pdl\drivers\peripheral\scb/cy_scb_uart.h **** 
 880:Generated_Source\PSoC6\pdl\drivers\peripheral\scb/cy_scb_uart.h **** /** The receive hardware detected a break transmission from transmitter */
 881:Generated_Source\PSoC6\pdl\drivers\peripheral\scb/cy_scb_uart.h **** #define CY_SCB_UART_RECEIVE_BREAK_DETECT   (SCB_INTR_RX_BREAK_DETECT_Msk)
 882:Generated_Source\PSoC6\pdl\drivers\peripheral\scb/cy_scb_uart.h **** /** \} group_scb_uart_macros_receive_status */
 883:Generated_Source\PSoC6\pdl\drivers\peripheral\scb/cy_scb_uart.h **** 
 884:Generated_Source\PSoC6\pdl\drivers\peripheral\scb/cy_scb_uart.h **** /**
 885:Generated_Source\PSoC6\pdl\drivers\peripheral\scb/cy_scb_uart.h **** * \defgroup group_scb_uart_macros_transmit_status UART Transmit Status
 886:Generated_Source\PSoC6\pdl\drivers\peripheral\scb/cy_scb_uart.h **** * \{
 887:Generated_Source\PSoC6\pdl\drivers\peripheral\scb/cy_scb_uart.h **** * Macros to check current UART transmit status returned by 
 888:Generated_Source\PSoC6\pdl\drivers\peripheral\scb/cy_scb_uart.h **** * \ref Cy_SCB_UART_GetTransmitStatus function. 
 889:Generated_Source\PSoC6\pdl\drivers\peripheral\scb/cy_scb_uart.h **** * Each UART transmit status is encoded in a separate bit, therefore multiple bits
 890:Generated_Source\PSoC6\pdl\drivers\peripheral\scb/cy_scb_uart.h **** * may be set to indicate the current status.
 891:Generated_Source\PSoC6\pdl\drivers\peripheral\scb/cy_scb_uart.h **** */
 892:Generated_Source\PSoC6\pdl\drivers\peripheral\scb/cy_scb_uart.h **** 
 893:Generated_Source\PSoC6\pdl\drivers\peripheral\scb/cy_scb_uart.h **** /** The transmit operation started by \ref Cy_SCB_UART_Transmit is in progress */
 894:Generated_Source\PSoC6\pdl\drivers\peripheral\scb/cy_scb_uart.h **** #define CY_SCB_UART_TRANSMIT_ACTIVE    (0x01UL)
 895:Generated_Source\PSoC6\pdl\drivers\peripheral\scb/cy_scb_uart.h **** 
 896:Generated_Source\PSoC6\pdl\drivers\peripheral\scb/cy_scb_uart.h **** /**
 897:Generated_Source\PSoC6\pdl\drivers\peripheral\scb/cy_scb_uart.h **** * All data elements specified by \ref Cy_SCB_UART_Transmit have been loaded
 898:Generated_Source\PSoC6\pdl\drivers\peripheral\scb/cy_scb_uart.h **** * into the TX FIFO
 899:Generated_Source\PSoC6\pdl\drivers\peripheral\scb/cy_scb_uart.h **** */
 900:Generated_Source\PSoC6\pdl\drivers\peripheral\scb/cy_scb_uart.h **** #define CY_SCB_UART_TRANSMIT_IN_FIFO   (0x02UL)
 901:Generated_Source\PSoC6\pdl\drivers\peripheral\scb/cy_scb_uart.h **** 
 902:Generated_Source\PSoC6\pdl\drivers\peripheral\scb/cy_scb_uart.h **** /** SmartCard only: the transmitter received a NACK */
 903:Generated_Source\PSoC6\pdl\drivers\peripheral\scb/cy_scb_uart.h **** #define CY_SCB_UART_TRANSMIT_NACK      (SCB_INTR_TX_UART_NACK_Msk)
 904:Generated_Source\PSoC6\pdl\drivers\peripheral\scb/cy_scb_uart.h **** 
ARM GAS  C:\Users\pearlstl\AppData\Local\Temp\ccCjmXK8.s 			page 34


 905:Generated_Source\PSoC6\pdl\drivers\peripheral\scb/cy_scb_uart.h **** /** SmartCard only: the transmitter lost arbitration */
 906:Generated_Source\PSoC6\pdl\drivers\peripheral\scb/cy_scb_uart.h **** #define CY_SCB_UART_TRANSMIT_ARB_LOST  (SCB_INTR_TX_UART_ARB_LOST_Msk)
 907:Generated_Source\PSoC6\pdl\drivers\peripheral\scb/cy_scb_uart.h **** /** \} group_scb_uart_macros_transmit_status */
 908:Generated_Source\PSoC6\pdl\drivers\peripheral\scb/cy_scb_uart.h **** 
 909:Generated_Source\PSoC6\pdl\drivers\peripheral\scb/cy_scb_uart.h **** /**
 910:Generated_Source\PSoC6\pdl\drivers\peripheral\scb/cy_scb_uart.h **** * \defgroup group_scb_uart_macros_callback_events UART Callback Events
 911:Generated_Source\PSoC6\pdl\drivers\peripheral\scb/cy_scb_uart.h **** * \{
 912:Generated_Source\PSoC6\pdl\drivers\peripheral\scb/cy_scb_uart.h **** * Macros to check UART events passed by \ref cy_cb_scb_uart_handle_events_t callback.
 913:Generated_Source\PSoC6\pdl\drivers\peripheral\scb/cy_scb_uart.h **** * Note that only single event is notified by the callback when it is called.
 914:Generated_Source\PSoC6\pdl\drivers\peripheral\scb/cy_scb_uart.h **** */
 915:Generated_Source\PSoC6\pdl\drivers\peripheral\scb/cy_scb_uart.h **** 
 916:Generated_Source\PSoC6\pdl\drivers\peripheral\scb/cy_scb_uart.h **** /**
 917:Generated_Source\PSoC6\pdl\drivers\peripheral\scb/cy_scb_uart.h **** * All data elements specified by \ref Cy_SCB_UART_Transmit have been loaded
 918:Generated_Source\PSoC6\pdl\drivers\peripheral\scb/cy_scb_uart.h **** * into the TX FIFO
 919:Generated_Source\PSoC6\pdl\drivers\peripheral\scb/cy_scb_uart.h **** */
 920:Generated_Source\PSoC6\pdl\drivers\peripheral\scb/cy_scb_uart.h **** #define CY_SCB_UART_TRANSMIT_IN_FIFO_EVENT (0x01UL)
 921:Generated_Source\PSoC6\pdl\drivers\peripheral\scb/cy_scb_uart.h **** 
 922:Generated_Source\PSoC6\pdl\drivers\peripheral\scb/cy_scb_uart.h **** /** The transmit operation started by \ref Cy_SCB_UART_Transmit is complete */
 923:Generated_Source\PSoC6\pdl\drivers\peripheral\scb/cy_scb_uart.h **** #define CY_SCB_UART_TRANSMIT_DONE_EVENT    (0x02UL)
 924:Generated_Source\PSoC6\pdl\drivers\peripheral\scb/cy_scb_uart.h **** 
 925:Generated_Source\PSoC6\pdl\drivers\peripheral\scb/cy_scb_uart.h **** /** The receive operation started by \ref Cy_SCB_UART_Receive is complete */
 926:Generated_Source\PSoC6\pdl\drivers\peripheral\scb/cy_scb_uart.h **** #define CY_SCB_UART_RECEIVE_DONE_EVENT     (0x04UL)
 927:Generated_Source\PSoC6\pdl\drivers\peripheral\scb/cy_scb_uart.h **** 
 928:Generated_Source\PSoC6\pdl\drivers\peripheral\scb/cy_scb_uart.h **** /**
 929:Generated_Source\PSoC6\pdl\drivers\peripheral\scb/cy_scb_uart.h **** * The ring buffer is full, there is no more space for additional data.
 930:Generated_Source\PSoC6\pdl\drivers\peripheral\scb/cy_scb_uart.h **** * Additional data is stored in the RX FIFO until it becomes full, at which
 931:Generated_Source\PSoC6\pdl\drivers\peripheral\scb/cy_scb_uart.h **** * point data is dropped.
 932:Generated_Source\PSoC6\pdl\drivers\peripheral\scb/cy_scb_uart.h **** */
 933:Generated_Source\PSoC6\pdl\drivers\peripheral\scb/cy_scb_uart.h **** #define CY_SCB_UART_RB_FULL_EVENT          (0x08UL)
 934:Generated_Source\PSoC6\pdl\drivers\peripheral\scb/cy_scb_uart.h **** 
 935:Generated_Source\PSoC6\pdl\drivers\peripheral\scb/cy_scb_uart.h **** /**
 936:Generated_Source\PSoC6\pdl\drivers\peripheral\scb/cy_scb_uart.h **** * An error was detected during the receive operation. This includes overflow,
 937:Generated_Source\PSoC6\pdl\drivers\peripheral\scb/cy_scb_uart.h **** * frame error, or parity error. Check \ref Cy_SCB_UART_GetReceiveStatus to
 938:Generated_Source\PSoC6\pdl\drivers\peripheral\scb/cy_scb_uart.h **** * determine the source of the error.
 939:Generated_Source\PSoC6\pdl\drivers\peripheral\scb/cy_scb_uart.h **** */
 940:Generated_Source\PSoC6\pdl\drivers\peripheral\scb/cy_scb_uart.h **** #define CY_SCB_UART_RECEIVE_ERR_EVENT      (0x10UL)
 941:Generated_Source\PSoC6\pdl\drivers\peripheral\scb/cy_scb_uart.h **** 
 942:Generated_Source\PSoC6\pdl\drivers\peripheral\scb/cy_scb_uart.h **** /**
 943:Generated_Source\PSoC6\pdl\drivers\peripheral\scb/cy_scb_uart.h **** * An error was detected during the transmit operation. This includes a NACK
 944:Generated_Source\PSoC6\pdl\drivers\peripheral\scb/cy_scb_uart.h **** * or lost arbitration. Check \ref Cy_SCB_UART_GetTransmitStatus to determine
 945:Generated_Source\PSoC6\pdl\drivers\peripheral\scb/cy_scb_uart.h **** * the source of the error
 946:Generated_Source\PSoC6\pdl\drivers\peripheral\scb/cy_scb_uart.h **** */
 947:Generated_Source\PSoC6\pdl\drivers\peripheral\scb/cy_scb_uart.h **** #define CY_SCB_UART_TRANSMIT_ERR_EVENT     (0x20UL)
 948:Generated_Source\PSoC6\pdl\drivers\peripheral\scb/cy_scb_uart.h **** /** \} group_scb_uart_macros_callback_events */
 949:Generated_Source\PSoC6\pdl\drivers\peripheral\scb/cy_scb_uart.h **** 
 950:Generated_Source\PSoC6\pdl\drivers\peripheral\scb/cy_scb_uart.h **** /** Data returned by the hardware when an empty RX FIFO is read */
 951:Generated_Source\PSoC6\pdl\drivers\peripheral\scb/cy_scb_uart.h **** #define CY_SCB_UART_RX_NO_DATA         (0xFFFFFFFFUL)
 952:Generated_Source\PSoC6\pdl\drivers\peripheral\scb/cy_scb_uart.h **** 
 953:Generated_Source\PSoC6\pdl\drivers\peripheral\scb/cy_scb_uart.h **** 
 954:Generated_Source\PSoC6\pdl\drivers\peripheral\scb/cy_scb_uart.h **** /*******************************************************************************
 955:Generated_Source\PSoC6\pdl\drivers\peripheral\scb/cy_scb_uart.h **** *                            Internal Constants
 956:Generated_Source\PSoC6\pdl\drivers\peripheral\scb/cy_scb_uart.h **** *******************************************************************************/
 957:Generated_Source\PSoC6\pdl\drivers\peripheral\scb/cy_scb_uart.h **** 
 958:Generated_Source\PSoC6\pdl\drivers\peripheral\scb/cy_scb_uart.h **** /** \cond INTERNAL */
 959:Generated_Source\PSoC6\pdl\drivers\peripheral\scb/cy_scb_uart.h **** #define CY_SCB_UART_TX_INTR_MASK    (CY_SCB_UART_TX_TRIGGER  | CY_SCB_UART_TX_NOT_FULL  | CY_SCB_UA
 960:Generated_Source\PSoC6\pdl\drivers\peripheral\scb/cy_scb_uart.h ****                                      CY_SCB_UART_TX_OVERFLOW | CY_SCB_UART_TX_UNDERFLOW | CY_SCB_UA
 961:Generated_Source\PSoC6\pdl\drivers\peripheral\scb/cy_scb_uart.h ****                                      CY_SCB_UART_TX_NACK     | CY_SCB_UART_TX_ARB_LOST)
ARM GAS  C:\Users\pearlstl\AppData\Local\Temp\ccCjmXK8.s 			page 35


 962:Generated_Source\PSoC6\pdl\drivers\peripheral\scb/cy_scb_uart.h **** 
 963:Generated_Source\PSoC6\pdl\drivers\peripheral\scb/cy_scb_uart.h **** #define CY_SCB_UART_RX_INTR_MASK    (CY_SCB_UART_RX_TRIGGER    | CY_SCB_UART_RX_NOT_EMPTY | CY_SCB_
 964:Generated_Source\PSoC6\pdl\drivers\peripheral\scb/cy_scb_uart.h ****                                      CY_SCB_UART_RX_OVERFLOW   | CY_SCB_UART_RX_UNDERFLOW | CY_SCB_
 965:Generated_Source\PSoC6\pdl\drivers\peripheral\scb/cy_scb_uart.h ****                                      CY_SCB_UART_RX_ERR_PARITY | CY_SCB_UART_RX_BREAK_DETECT)
 966:Generated_Source\PSoC6\pdl\drivers\peripheral\scb/cy_scb_uart.h **** 
 967:Generated_Source\PSoC6\pdl\drivers\peripheral\scb/cy_scb_uart.h **** #define CY_SCB_UART_TX_INTR        (CY_SCB_TX_INTR_LEVEL | CY_SCB_TX_INTR_UART_NACK | CY_SCB_TX_INT
 968:Generated_Source\PSoC6\pdl\drivers\peripheral\scb/cy_scb_uart.h **** 
 969:Generated_Source\PSoC6\pdl\drivers\peripheral\scb/cy_scb_uart.h **** #define CY_SCB_UART_RX_INTR        (CY_SCB_RX_INTR_LEVEL | CY_SCB_RX_INTR_OVERFLOW | CY_SCB_RX_INTR
 970:Generated_Source\PSoC6\pdl\drivers\peripheral\scb/cy_scb_uart.h ****                                     CY_SCB_RX_INTR_UART_PARITY_ERROR | CY_SCB_RX_INTR_UART_BREAK_DE
 971:Generated_Source\PSoC6\pdl\drivers\peripheral\scb/cy_scb_uart.h **** 
 972:Generated_Source\PSoC6\pdl\drivers\peripheral\scb/cy_scb_uart.h **** #define CY_SCB_UART_RECEIVE_ERR    (CY_SCB_RX_INTR_OVERFLOW | CY_SCB_RX_INTR_UART_FRAME_ERROR | \
 973:Generated_Source\PSoC6\pdl\drivers\peripheral\scb/cy_scb_uart.h ****                                     CY_SCB_RX_INTR_UART_PARITY_ERROR)
 974:Generated_Source\PSoC6\pdl\drivers\peripheral\scb/cy_scb_uart.h **** 
 975:Generated_Source\PSoC6\pdl\drivers\peripheral\scb/cy_scb_uart.h **** #define CY_SCB_UART_TRANSMIT_ERR   (CY_SCB_TX_INTR_UART_NACK | CY_SCB_TX_INTR_UART_ARB_LOST)
 976:Generated_Source\PSoC6\pdl\drivers\peripheral\scb/cy_scb_uart.h **** 
 977:Generated_Source\PSoC6\pdl\drivers\peripheral\scb/cy_scb_uart.h **** #define CY_SCB_UART_INIT_KEY       (0x00ABCDEFUL)
 978:Generated_Source\PSoC6\pdl\drivers\peripheral\scb/cy_scb_uart.h **** 
 979:Generated_Source\PSoC6\pdl\drivers\peripheral\scb/cy_scb_uart.h **** #define CY_SCB_UART_IS_MODE_VALID(mode)     ( (CY_SCB_UART_STANDARD  == (mode)) || \
 980:Generated_Source\PSoC6\pdl\drivers\peripheral\scb/cy_scb_uart.h ****                                               (CY_SCB_UART_SMARTCARD == (mode)) || \
 981:Generated_Source\PSoC6\pdl\drivers\peripheral\scb/cy_scb_uart.h ****                                               (CY_SCB_UART_IRDA      == (mode)) )
 982:Generated_Source\PSoC6\pdl\drivers\peripheral\scb/cy_scb_uart.h **** 
 983:Generated_Source\PSoC6\pdl\drivers\peripheral\scb/cy_scb_uart.h **** #define CY_SCB_UART_IS_STOP_BITS_VALID(stopBits)    ( (CY_SCB_UART_STOP_BITS_1   == (stopBits)) || 
 984:Generated_Source\PSoC6\pdl\drivers\peripheral\scb/cy_scb_uart.h ****                                                       (CY_SCB_UART_STOP_BITS_1_5 == (stopBits)) || 
 985:Generated_Source\PSoC6\pdl\drivers\peripheral\scb/cy_scb_uart.h ****                                                       (CY_SCB_UART_STOP_BITS_2   == (stopBits)) || 
 986:Generated_Source\PSoC6\pdl\drivers\peripheral\scb/cy_scb_uart.h ****                                                       (CY_SCB_UART_STOP_BITS_2_5 == (stopBits)) || 
 987:Generated_Source\PSoC6\pdl\drivers\peripheral\scb/cy_scb_uart.h ****                                                       (CY_SCB_UART_STOP_BITS_3   == (stopBits)) || 
 988:Generated_Source\PSoC6\pdl\drivers\peripheral\scb/cy_scb_uart.h ****                                                       (CY_SCB_UART_STOP_BITS_3_5 == (stopBits)) || 
 989:Generated_Source\PSoC6\pdl\drivers\peripheral\scb/cy_scb_uart.h ****                                                       (CY_SCB_UART_STOP_BITS_4   == (stopBits)) )
 990:Generated_Source\PSoC6\pdl\drivers\peripheral\scb/cy_scb_uart.h **** 
 991:Generated_Source\PSoC6\pdl\drivers\peripheral\scb/cy_scb_uart.h **** #define CY_SCB_UART_IS_PARITY_VALID(parity)         ( (CY_SCB_UART_PARITY_NONE == (parity)) || \
 992:Generated_Source\PSoC6\pdl\drivers\peripheral\scb/cy_scb_uart.h ****                                                       (CY_SCB_UART_PARITY_EVEN == (parity)) || \
 993:Generated_Source\PSoC6\pdl\drivers\peripheral\scb/cy_scb_uart.h ****                                                       (CY_SCB_UART_PARITY_ODD  == (parity)) )
 994:Generated_Source\PSoC6\pdl\drivers\peripheral\scb/cy_scb_uart.h **** 
 995:Generated_Source\PSoC6\pdl\drivers\peripheral\scb/cy_scb_uart.h **** #define CY_SCB_UART_IS_POLARITY_VALID(polarity)     ( (CY_SCB_UART_ACTIVE_LOW  == (polarity)) || \
 996:Generated_Source\PSoC6\pdl\drivers\peripheral\scb/cy_scb_uart.h ****                                                       (CY_SCB_UART_ACTIVE_HIGH == (polarity)) )
 997:Generated_Source\PSoC6\pdl\drivers\peripheral\scb/cy_scb_uart.h **** 
 998:Generated_Source\PSoC6\pdl\drivers\peripheral\scb/cy_scb_uart.h **** #define CY_SCB_UART_IS_IRDA_LP_OVS_VALID(ovs)       ( (CY_SCB_UART_IRDA_LP_OVS16   == (ovs)) || \
 999:Generated_Source\PSoC6\pdl\drivers\peripheral\scb/cy_scb_uart.h ****                                                       (CY_SCB_UART_IRDA_LP_OVS32   == (ovs)) || \
1000:Generated_Source\PSoC6\pdl\drivers\peripheral\scb/cy_scb_uart.h ****                                                       (CY_SCB_UART_IRDA_LP_OVS48   == (ovs)) || \
1001:Generated_Source\PSoC6\pdl\drivers\peripheral\scb/cy_scb_uart.h ****                                                       (CY_SCB_UART_IRDA_LP_OVS96   == (ovs)) || \
1002:Generated_Source\PSoC6\pdl\drivers\peripheral\scb/cy_scb_uart.h ****                                                       (CY_SCB_UART_IRDA_LP_OVS192  == (ovs)) || \
1003:Generated_Source\PSoC6\pdl\drivers\peripheral\scb/cy_scb_uart.h ****                                                       (CY_SCB_UART_IRDA_LP_OVS768  == (ovs)) || \
1004:Generated_Source\PSoC6\pdl\drivers\peripheral\scb/cy_scb_uart.h ****                                                       (CY_SCB_UART_IRDA_LP_OVS1536 == (ovs)) )
1005:Generated_Source\PSoC6\pdl\drivers\peripheral\scb/cy_scb_uart.h **** 
1006:Generated_Source\PSoC6\pdl\drivers\peripheral\scb/cy_scb_uart.h **** #define CY_SCB_UART_IS_ADDRESS_VALID(addr)          ((addr) <= 0xFFUL)
1007:Generated_Source\PSoC6\pdl\drivers\peripheral\scb/cy_scb_uart.h **** #define CY_SCB_UART_IS_ADDRESS_MASK_VALID(mask)     ((mask) <= 0xFFUL)
1008:Generated_Source\PSoC6\pdl\drivers\peripheral\scb/cy_scb_uart.h **** #define CY_SCB_UART_IS_DATA_WIDTH_VALID(width)      ( ((width) >= 5UL) && ((width) <= 9UL) )
1009:Generated_Source\PSoC6\pdl\drivers\peripheral\scb/cy_scb_uart.h **** #define CY_SCB_UART_IS_OVERSAMPLE_VALID(ovs, mode, lpRx)    ( ((CY_SCB_UART_STANDARD  == (mode)) ||
1010:Generated_Source\PSoC6\pdl\drivers\peripheral\scb/cy_scb_uart.h ****                                                               (((ovs) >= 8UL) && ((ovs) <= 16UL)) :
1011:Generated_Source\PSoC6\pdl\drivers\peripheral\scb/cy_scb_uart.h ****                                                               ((lpRx) ? CY_SCB_UART_IS_IRDA_LP_OVS_
1012:Generated_Source\PSoC6\pdl\drivers\peripheral\scb/cy_scb_uart.h **** 
1013:Generated_Source\PSoC6\pdl\drivers\peripheral\scb/cy_scb_uart.h **** #define CY_SCB_UART_IS_RX_BREAK_WIDTH_VALID(base, width)    ( ((width) >= (_FLD2VAL(SCB_RX_CTRL_DAT
1014:Generated_Source\PSoC6\pdl\drivers\peripheral\scb/cy_scb_uart.h ****                                                               ((width) <= 16UL) )
1015:Generated_Source\PSoC6\pdl\drivers\peripheral\scb/cy_scb_uart.h **** #define CY_SCB_UART_IS_TX_BREAK_WIDTH_VALID(width)          ( ((width) >= 4UL) && ((width) <= 16UL)
1016:Generated_Source\PSoC6\pdl\drivers\peripheral\scb/cy_scb_uart.h **** 
1017:Generated_Source\PSoC6\pdl\drivers\peripheral\scb/cy_scb_uart.h **** #define CY_SCB_UART_IS_MUTLI_PROC_VALID(mp, mode, width, parity)    ( (mp) ? ((CY_SCB_UART_STANDARD
1018:Generated_Source\PSoC6\pdl\drivers\peripheral\scb/cy_scb_uart.h ****                                                                               (CY_SCB_UART_PARITY_N
ARM GAS  C:\Users\pearlstl\AppData\Local\Temp\ccCjmXK8.s 			page 36


1019:Generated_Source\PSoC6\pdl\drivers\peripheral\scb/cy_scb_uart.h **** /** \endcond */
1020:Generated_Source\PSoC6\pdl\drivers\peripheral\scb/cy_scb_uart.h **** 
1021:Generated_Source\PSoC6\pdl\drivers\peripheral\scb/cy_scb_uart.h **** /** \} group_scb_uart_macros */
1022:Generated_Source\PSoC6\pdl\drivers\peripheral\scb/cy_scb_uart.h **** 
1023:Generated_Source\PSoC6\pdl\drivers\peripheral\scb/cy_scb_uart.h **** 
1024:Generated_Source\PSoC6\pdl\drivers\peripheral\scb/cy_scb_uart.h **** /*******************************************************************************
1025:Generated_Source\PSoC6\pdl\drivers\peripheral\scb/cy_scb_uart.h **** *                    In-line Function Implementation
1026:Generated_Source\PSoC6\pdl\drivers\peripheral\scb/cy_scb_uart.h **** *******************************************************************************/
1027:Generated_Source\PSoC6\pdl\drivers\peripheral\scb/cy_scb_uart.h **** 
1028:Generated_Source\PSoC6\pdl\drivers\peripheral\scb/cy_scb_uart.h **** /**
1029:Generated_Source\PSoC6\pdl\drivers\peripheral\scb/cy_scb_uart.h **** * \addtogroup group_scb_uart_general_functions
1030:Generated_Source\PSoC6\pdl\drivers\peripheral\scb/cy_scb_uart.h **** * \{
1031:Generated_Source\PSoC6\pdl\drivers\peripheral\scb/cy_scb_uart.h **** */
1032:Generated_Source\PSoC6\pdl\drivers\peripheral\scb/cy_scb_uart.h **** 
1033:Generated_Source\PSoC6\pdl\drivers\peripheral\scb/cy_scb_uart.h **** /*******************************************************************************
1034:Generated_Source\PSoC6\pdl\drivers\peripheral\scb/cy_scb_uart.h **** * Function Name: Cy_SCB_UART_Enable
1035:Generated_Source\PSoC6\pdl\drivers\peripheral\scb/cy_scb_uart.h **** ****************************************************************************//**
1036:Generated_Source\PSoC6\pdl\drivers\peripheral\scb/cy_scb_uart.h **** *
1037:Generated_Source\PSoC6\pdl\drivers\peripheral\scb/cy_scb_uart.h **** * Enables the SCB block for the UART operation.
1038:Generated_Source\PSoC6\pdl\drivers\peripheral\scb/cy_scb_uart.h **** *
1039:Generated_Source\PSoC6\pdl\drivers\peripheral\scb/cy_scb_uart.h **** * \param base
1040:Generated_Source\PSoC6\pdl\drivers\peripheral\scb/cy_scb_uart.h **** * The pointer to the UART SCB instance.
1041:Generated_Source\PSoC6\pdl\drivers\peripheral\scb/cy_scb_uart.h **** *
1042:Generated_Source\PSoC6\pdl\drivers\peripheral\scb/cy_scb_uart.h **** *******************************************************************************/
1043:Generated_Source\PSoC6\pdl\drivers\peripheral\scb/cy_scb_uart.h **** __STATIC_INLINE void Cy_SCB_UART_Enable(CySCB_Type *base)
1044:Generated_Source\PSoC6\pdl\drivers\peripheral\scb/cy_scb_uart.h **** {
1045:Generated_Source\PSoC6\pdl\drivers\peripheral\scb/cy_scb_uart.h ****     SCB_CTRL(base) |= SCB_CTRL_ENABLED_Msk;
 520              		.loc 2 1045 0
 521 0012 1A68     		ldr	r2, [r3]
 522 0014 42F00042 		orr	r2, r2, #-2147483648
 523 0018 1A60     		str	r2, [r3]
 524              	.LVL20:
 525              	.LBE199:
 526              	.LBE198:
 354:Generated_Source\PSoC6\pdl\drivers\peripheral\scb/cy_scb_uart.c ****         }
 527              		.loc 1 354 0
 528 001a 0020     		movs	r0, #0
 529              	.LVL21:
 356:Generated_Source\PSoC6\pdl\drivers\peripheral\scb/cy_scb_uart.c **** 
 530              		.loc 1 356 0
 531 001c 7047     		bx	lr
 532              	.LVL22:
 533              	.L75:
 295:Generated_Source\PSoC6\pdl\drivers\peripheral\scb/cy_scb_uart.c **** 
 534              		.loc 1 295 0
 535 001e 4268     		ldr	r2, [r0, #4]
 536              	.LVL23:
 537              	.LBB200:
 538              	.LBB201:
 364:Generated_Source\PSoC6\pdl\drivers\peripheral\scb/cy_scb_uart.c **** 
 365:Generated_Source\PSoC6\pdl\drivers\peripheral\scb/cy_scb_uart.c **** 
 366:Generated_Source\PSoC6\pdl\drivers\peripheral\scb/cy_scb_uart.c **** /*******************************************************************************
 367:Generated_Source\PSoC6\pdl\drivers\peripheral\scb/cy_scb_uart.c **** * Function Name: Cy_SCB_UART_HibernateCallback
 368:Generated_Source\PSoC6\pdl\drivers\peripheral\scb/cy_scb_uart.c **** ****************************************************************************//**
 369:Generated_Source\PSoC6\pdl\drivers\peripheral\scb/cy_scb_uart.c **** *
 370:Generated_Source\PSoC6\pdl\drivers\peripheral\scb/cy_scb_uart.c **** * This function handles the transition of the SCB UART into Hibernate mode. 
 371:Generated_Source\PSoC6\pdl\drivers\peripheral\scb/cy_scb_uart.c **** * It prevents the device from entering Hibernate mode if the UART is
ARM GAS  C:\Users\pearlstl\AppData\Local\Temp\ccCjmXK8.s 			page 37


 372:Generated_Source\PSoC6\pdl\drivers\peripheral\scb/cy_scb_uart.c **** * transmitting data or has any data in the RX FIFO. If the UART is ready
 373:Generated_Source\PSoC6\pdl\drivers\peripheral\scb/cy_scb_uart.c **** * to enter Hibernate mode, it is disabled. If the device fails to enter
 374:Generated_Source\PSoC6\pdl\drivers\peripheral\scb/cy_scb_uart.c **** * Hibernate mode, the UART is enabled. While the UART is disabled, it stops
 375:Generated_Source\PSoC6\pdl\drivers\peripheral\scb/cy_scb_uart.c **** * driving the outputs and ignores the inputs. Any incoming data is ignored.
 376:Generated_Source\PSoC6\pdl\drivers\peripheral\scb/cy_scb_uart.c **** * Refer to section \ref group_scb_uart_lp for more information about UART pins 
 377:Generated_Source\PSoC6\pdl\drivers\peripheral\scb/cy_scb_uart.c **** * when SCB disabled.
 378:Generated_Source\PSoC6\pdl\drivers\peripheral\scb/cy_scb_uart.c **** *
 379:Generated_Source\PSoC6\pdl\drivers\peripheral\scb/cy_scb_uart.c **** * This function must be called during execution of \ref Cy_SysPm_SystemEnterHibernate.
 380:Generated_Source\PSoC6\pdl\drivers\peripheral\scb/cy_scb_uart.c **** * To do it, register this function as a callback before calling
 381:Generated_Source\PSoC6\pdl\drivers\peripheral\scb/cy_scb_uart.c **** * \ref Cy_SysPm_SystemEnterHibernate : specify \ref CY_SYSPM_HIBERNATE as the callback type
 382:Generated_Source\PSoC6\pdl\drivers\peripheral\scb/cy_scb_uart.c **** * and call \ref Cy_SysPm_RegisterCallback.
 383:Generated_Source\PSoC6\pdl\drivers\peripheral\scb/cy_scb_uart.c **** *
 384:Generated_Source\PSoC6\pdl\drivers\peripheral\scb/cy_scb_uart.c **** * \param callbackParams
 385:Generated_Source\PSoC6\pdl\drivers\peripheral\scb/cy_scb_uart.c **** * The pointer to the callback parameters structure
 386:Generated_Source\PSoC6\pdl\drivers\peripheral\scb/cy_scb_uart.c **** * \ref cy_stc_syspm_callback_params_t.
 387:Generated_Source\PSoC6\pdl\drivers\peripheral\scb/cy_scb_uart.c **** *
 388:Generated_Source\PSoC6\pdl\drivers\peripheral\scb/cy_scb_uart.c **** * \param mode
 389:Generated_Source\PSoC6\pdl\drivers\peripheral\scb/cy_scb_uart.c **** * Callback mode, see \ref cy_en_syspm_callback_mode_t
 390:Generated_Source\PSoC6\pdl\drivers\peripheral\scb/cy_scb_uart.c **** *
 391:Generated_Source\PSoC6\pdl\drivers\peripheral\scb/cy_scb_uart.c **** * \return
 392:Generated_Source\PSoC6\pdl\drivers\peripheral\scb/cy_scb_uart.c **** * \ref cy_en_syspm_status_t
 393:Generated_Source\PSoC6\pdl\drivers\peripheral\scb/cy_scb_uart.c **** *
 394:Generated_Source\PSoC6\pdl\drivers\peripheral\scb/cy_scb_uart.c **** *******************************************************************************/
 395:Generated_Source\PSoC6\pdl\drivers\peripheral\scb/cy_scb_uart.c **** cy_en_syspm_status_t Cy_SCB_UART_HibernateCallback(cy_stc_syspm_callback_params_t *callbackParams, 
 396:Generated_Source\PSoC6\pdl\drivers\peripheral\scb/cy_scb_uart.c **** {
 397:Generated_Source\PSoC6\pdl\drivers\peripheral\scb/cy_scb_uart.c ****     return Cy_SCB_UART_DeepSleepCallback(callbackParams, mode);
 398:Generated_Source\PSoC6\pdl\drivers\peripheral\scb/cy_scb_uart.c **** }
 399:Generated_Source\PSoC6\pdl\drivers\peripheral\scb/cy_scb_uart.c **** 
 400:Generated_Source\PSoC6\pdl\drivers\peripheral\scb/cy_scb_uart.c **** 
 401:Generated_Source\PSoC6\pdl\drivers\peripheral\scb/cy_scb_uart.c **** /************************* High-Level Functions ********************************
 402:Generated_Source\PSoC6\pdl\drivers\peripheral\scb/cy_scb_uart.c **** * The following functions are considered high-level. They provide the layer of
 403:Generated_Source\PSoC6\pdl\drivers\peripheral\scb/cy_scb_uart.c **** * intelligence to the SCB. These functions require interrupts.
 404:Generated_Source\PSoC6\pdl\drivers\peripheral\scb/cy_scb_uart.c **** * Low-level and high-level functions must not be mixed because low-level API
 405:Generated_Source\PSoC6\pdl\drivers\peripheral\scb/cy_scb_uart.c **** * can adversely affect the operation of high-level functions.
 406:Generated_Source\PSoC6\pdl\drivers\peripheral\scb/cy_scb_uart.c **** *******************************************************************************/
 407:Generated_Source\PSoC6\pdl\drivers\peripheral\scb/cy_scb_uart.c **** 
 408:Generated_Source\PSoC6\pdl\drivers\peripheral\scb/cy_scb_uart.c **** 
 409:Generated_Source\PSoC6\pdl\drivers\peripheral\scb/cy_scb_uart.c **** /*******************************************************************************
 410:Generated_Source\PSoC6\pdl\drivers\peripheral\scb/cy_scb_uart.c **** * Function Name: Cy_SCB_UART_StartRingBuffer
 411:Generated_Source\PSoC6\pdl\drivers\peripheral\scb/cy_scb_uart.c **** ****************************************************************************//**
 412:Generated_Source\PSoC6\pdl\drivers\peripheral\scb/cy_scb_uart.c **** *
 413:Generated_Source\PSoC6\pdl\drivers\peripheral\scb/cy_scb_uart.c **** * Starts the receive ring buffer operation.
 414:Generated_Source\PSoC6\pdl\drivers\peripheral\scb/cy_scb_uart.c **** * The RX interrupt source is configured to get data from the RX
 415:Generated_Source\PSoC6\pdl\drivers\peripheral\scb/cy_scb_uart.c **** * FIFO and put into the ring buffer. 
 416:Generated_Source\PSoC6\pdl\drivers\peripheral\scb/cy_scb_uart.c **** *
 417:Generated_Source\PSoC6\pdl\drivers\peripheral\scb/cy_scb_uart.c **** * \param base
 418:Generated_Source\PSoC6\pdl\drivers\peripheral\scb/cy_scb_uart.c **** * The pointer to the UART SCB instance.
 419:Generated_Source\PSoC6\pdl\drivers\peripheral\scb/cy_scb_uart.c **** *
 420:Generated_Source\PSoC6\pdl\drivers\peripheral\scb/cy_scb_uart.c **** * \param buffer
 421:Generated_Source\PSoC6\pdl\drivers\peripheral\scb/cy_scb_uart.c **** * Pointer to the user defined ring buffer.
 422:Generated_Source\PSoC6\pdl\drivers\peripheral\scb/cy_scb_uart.c **** * The element size is defined by the data type, which depends on the configured
 423:Generated_Source\PSoC6\pdl\drivers\peripheral\scb/cy_scb_uart.c **** * data width.
 424:Generated_Source\PSoC6\pdl\drivers\peripheral\scb/cy_scb_uart.c **** *
 425:Generated_Source\PSoC6\pdl\drivers\peripheral\scb/cy_scb_uart.c **** * \param size
 426:Generated_Source\PSoC6\pdl\drivers\peripheral\scb/cy_scb_uart.c **** * The size of the receive ring buffer.
 427:Generated_Source\PSoC6\pdl\drivers\peripheral\scb/cy_scb_uart.c **** * Note that one data element is used for internal use, so if the size is 32,
 428:Generated_Source\PSoC6\pdl\drivers\peripheral\scb/cy_scb_uart.c **** * then only 31 data elements are used for data storage.
ARM GAS  C:\Users\pearlstl\AppData\Local\Temp\ccCjmXK8.s 			page 38


 429:Generated_Source\PSoC6\pdl\drivers\peripheral\scb/cy_scb_uart.c **** *
 430:Generated_Source\PSoC6\pdl\drivers\peripheral\scb/cy_scb_uart.c **** * \param context
 431:Generated_Source\PSoC6\pdl\drivers\peripheral\scb/cy_scb_uart.c **** * The pointer to the context structure \ref cy_stc_scb_uart_context_t allocated
 432:Generated_Source\PSoC6\pdl\drivers\peripheral\scb/cy_scb_uart.c **** * by the user. The structure is used during the UART operation for internal
 433:Generated_Source\PSoC6\pdl\drivers\peripheral\scb/cy_scb_uart.c **** * configuration and data retention. The user must not modify anything
 434:Generated_Source\PSoC6\pdl\drivers\peripheral\scb/cy_scb_uart.c **** * in this structure.
 435:Generated_Source\PSoC6\pdl\drivers\peripheral\scb/cy_scb_uart.c **** *
 436:Generated_Source\PSoC6\pdl\drivers\peripheral\scb/cy_scb_uart.c **** * \note
 437:Generated_Source\PSoC6\pdl\drivers\peripheral\scb/cy_scb_uart.c **** * * The buffer must not be modified and stay allocated while the ring buffer
 438:Generated_Source\PSoC6\pdl\drivers\peripheral\scb/cy_scb_uart.c **** *   operates.
 439:Generated_Source\PSoC6\pdl\drivers\peripheral\scb/cy_scb_uart.c **** * * This function overrides the RX interrupt sources and changes the
 440:Generated_Source\PSoC6\pdl\drivers\peripheral\scb/cy_scb_uart.c **** *   RX FIFO level.
 441:Generated_Source\PSoC6\pdl\drivers\peripheral\scb/cy_scb_uart.c **** *
 442:Generated_Source\PSoC6\pdl\drivers\peripheral\scb/cy_scb_uart.c **** *******************************************************************************/
 443:Generated_Source\PSoC6\pdl\drivers\peripheral\scb/cy_scb_uart.c **** void Cy_SCB_UART_StartRingBuffer(CySCB_Type *base, void *buffer, uint32_t size, cy_stc_scb_uart_con
 444:Generated_Source\PSoC6\pdl\drivers\peripheral\scb/cy_scb_uart.c **** {
 445:Generated_Source\PSoC6\pdl\drivers\peripheral\scb/cy_scb_uart.c ****     CY_ASSERT_L1(NULL != context);
 446:Generated_Source\PSoC6\pdl\drivers\peripheral\scb/cy_scb_uart.c ****     CY_ASSERT_L1(CY_SCB_UART_INIT_KEY == context->initKey);
 447:Generated_Source\PSoC6\pdl\drivers\peripheral\scb/cy_scb_uart.c ****     CY_ASSERT_L1(CY_SCB_IS_BUFFER_VALID(buffer, size));
 448:Generated_Source\PSoC6\pdl\drivers\peripheral\scb/cy_scb_uart.c **** 
 449:Generated_Source\PSoC6\pdl\drivers\peripheral\scb/cy_scb_uart.c ****     if ((NULL != buffer) && (size > 0UL))
 450:Generated_Source\PSoC6\pdl\drivers\peripheral\scb/cy_scb_uart.c ****     {
 451:Generated_Source\PSoC6\pdl\drivers\peripheral\scb/cy_scb_uart.c ****         uint32_t halfFifoSize =  (Cy_SCB_GetFifoSize(base) / 2UL);
 452:Generated_Source\PSoC6\pdl\drivers\peripheral\scb/cy_scb_uart.c **** 
 453:Generated_Source\PSoC6\pdl\drivers\peripheral\scb/cy_scb_uart.c ****         context->rxRingBuf     = buffer;
 454:Generated_Source\PSoC6\pdl\drivers\peripheral\scb/cy_scb_uart.c ****         context->rxRingBufSize = size;
 455:Generated_Source\PSoC6\pdl\drivers\peripheral\scb/cy_scb_uart.c ****         context->rxRingBufHead = 0UL;
 456:Generated_Source\PSoC6\pdl\drivers\peripheral\scb/cy_scb_uart.c ****         context->rxRingBufTail = 0UL;
 457:Generated_Source\PSoC6\pdl\drivers\peripheral\scb/cy_scb_uart.c **** 
 458:Generated_Source\PSoC6\pdl\drivers\peripheral\scb/cy_scb_uart.c ****         /* Set up an RX interrupt to handle the ring buffer */
 459:Generated_Source\PSoC6\pdl\drivers\peripheral\scb/cy_scb_uart.c ****         Cy_SCB_SetRxFifoLevel(base, (size >= halfFifoSize) ? (halfFifoSize - 1UL) : (size - 1UL));
 460:Generated_Source\PSoC6\pdl\drivers\peripheral\scb/cy_scb_uart.c **** 
 461:Generated_Source\PSoC6\pdl\drivers\peripheral\scb/cy_scb_uart.c ****         Cy_SCB_SetRxInterruptMask(base, CY_SCB_RX_INTR_LEVEL);
 462:Generated_Source\PSoC6\pdl\drivers\peripheral\scb/cy_scb_uart.c ****     }
 463:Generated_Source\PSoC6\pdl\drivers\peripheral\scb/cy_scb_uart.c **** }
 464:Generated_Source\PSoC6\pdl\drivers\peripheral\scb/cy_scb_uart.c **** 
 465:Generated_Source\PSoC6\pdl\drivers\peripheral\scb/cy_scb_uart.c **** 
 466:Generated_Source\PSoC6\pdl\drivers\peripheral\scb/cy_scb_uart.c **** /*******************************************************************************
 467:Generated_Source\PSoC6\pdl\drivers\peripheral\scb/cy_scb_uart.c **** * Function Name: Cy_SCB_UART_StopRingBuffer
 468:Generated_Source\PSoC6\pdl\drivers\peripheral\scb/cy_scb_uart.c **** ****************************************************************************//**
 469:Generated_Source\PSoC6\pdl\drivers\peripheral\scb/cy_scb_uart.c **** *
 470:Generated_Source\PSoC6\pdl\drivers\peripheral\scb/cy_scb_uart.c **** * Stops receiving data into the ring buffer and clears the ring buffer.
 471:Generated_Source\PSoC6\pdl\drivers\peripheral\scb/cy_scb_uart.c **** *
 472:Generated_Source\PSoC6\pdl\drivers\peripheral\scb/cy_scb_uart.c **** * \param base
 473:Generated_Source\PSoC6\pdl\drivers\peripheral\scb/cy_scb_uart.c **** * The pointer to the UART SCB instance.
 474:Generated_Source\PSoC6\pdl\drivers\peripheral\scb/cy_scb_uart.c **** *
 475:Generated_Source\PSoC6\pdl\drivers\peripheral\scb/cy_scb_uart.c **** * \param context
 476:Generated_Source\PSoC6\pdl\drivers\peripheral\scb/cy_scb_uart.c **** * The pointer to the context structure \ref cy_stc_scb_uart_context_t allocated
 477:Generated_Source\PSoC6\pdl\drivers\peripheral\scb/cy_scb_uart.c **** * by the user. The structure is used during the UART operation for internal
 478:Generated_Source\PSoC6\pdl\drivers\peripheral\scb/cy_scb_uart.c **** * configuration and data retention. The user must not modify anything
 479:Generated_Source\PSoC6\pdl\drivers\peripheral\scb/cy_scb_uart.c **** * in this structure.
 480:Generated_Source\PSoC6\pdl\drivers\peripheral\scb/cy_scb_uart.c **** *
 481:Generated_Source\PSoC6\pdl\drivers\peripheral\scb/cy_scb_uart.c **** *******************************************************************************/
 482:Generated_Source\PSoC6\pdl\drivers\peripheral\scb/cy_scb_uart.c **** void Cy_SCB_UART_StopRingBuffer(CySCB_Type *base, cy_stc_scb_uart_context_t *context)
 483:Generated_Source\PSoC6\pdl\drivers\peripheral\scb/cy_scb_uart.c **** {
 484:Generated_Source\PSoC6\pdl\drivers\peripheral\scb/cy_scb_uart.c ****     Cy_SCB_SetRxInterruptMask  (base, CY_SCB_CLEAR_ALL_INTR_SRC);
 485:Generated_Source\PSoC6\pdl\drivers\peripheral\scb/cy_scb_uart.c ****     Cy_SCB_UART_ClearRingBuffer(base, context);
ARM GAS  C:\Users\pearlstl\AppData\Local\Temp\ccCjmXK8.s 			page 39


 486:Generated_Source\PSoC6\pdl\drivers\peripheral\scb/cy_scb_uart.c **** 
 487:Generated_Source\PSoC6\pdl\drivers\peripheral\scb/cy_scb_uart.c ****     context->rxRingBuf     = NULL;
 488:Generated_Source\PSoC6\pdl\drivers\peripheral\scb/cy_scb_uart.c ****     context->rxRingBufSize = 0UL;
 489:Generated_Source\PSoC6\pdl\drivers\peripheral\scb/cy_scb_uart.c **** }
 490:Generated_Source\PSoC6\pdl\drivers\peripheral\scb/cy_scb_uart.c **** 
 491:Generated_Source\PSoC6\pdl\drivers\peripheral\scb/cy_scb_uart.c **** 
 492:Generated_Source\PSoC6\pdl\drivers\peripheral\scb/cy_scb_uart.c **** /*******************************************************************************
 493:Generated_Source\PSoC6\pdl\drivers\peripheral\scb/cy_scb_uart.c **** * Function Name: Cy_SCB_UART_GetNumInRingBuffer
 494:Generated_Source\PSoC6\pdl\drivers\peripheral\scb/cy_scb_uart.c **** ****************************************************************************//**
 495:Generated_Source\PSoC6\pdl\drivers\peripheral\scb/cy_scb_uart.c **** *
 496:Generated_Source\PSoC6\pdl\drivers\peripheral\scb/cy_scb_uart.c **** * Returns the number of data elements in the ring buffer.
 497:Generated_Source\PSoC6\pdl\drivers\peripheral\scb/cy_scb_uart.c **** *
 498:Generated_Source\PSoC6\pdl\drivers\peripheral\scb/cy_scb_uart.c **** * \param base
 499:Generated_Source\PSoC6\pdl\drivers\peripheral\scb/cy_scb_uart.c **** * The pointer to the UART SCB instance.
 500:Generated_Source\PSoC6\pdl\drivers\peripheral\scb/cy_scb_uart.c **** *
 501:Generated_Source\PSoC6\pdl\drivers\peripheral\scb/cy_scb_uart.c **** * \param context
 502:Generated_Source\PSoC6\pdl\drivers\peripheral\scb/cy_scb_uart.c **** * The pointer to the context structure \ref cy_stc_scb_uart_context_t allocated
 503:Generated_Source\PSoC6\pdl\drivers\peripheral\scb/cy_scb_uart.c **** * by the user. The structure is used during the UART operation for internal
 504:Generated_Source\PSoC6\pdl\drivers\peripheral\scb/cy_scb_uart.c **** * configuration and data retention. The user must not modify anything
 505:Generated_Source\PSoC6\pdl\drivers\peripheral\scb/cy_scb_uart.c **** * in this structure.
 506:Generated_Source\PSoC6\pdl\drivers\peripheral\scb/cy_scb_uart.c **** *
 507:Generated_Source\PSoC6\pdl\drivers\peripheral\scb/cy_scb_uart.c **** * \return
 508:Generated_Source\PSoC6\pdl\drivers\peripheral\scb/cy_scb_uart.c **** * The number of data elements in the receive ring buffer.
 509:Generated_Source\PSoC6\pdl\drivers\peripheral\scb/cy_scb_uart.c **** *
 510:Generated_Source\PSoC6\pdl\drivers\peripheral\scb/cy_scb_uart.c **** * \note
 511:Generated_Source\PSoC6\pdl\drivers\peripheral\scb/cy_scb_uart.c **** * One data element is used for internal use, so when the buffer is full,
 512:Generated_Source\PSoC6\pdl\drivers\peripheral\scb/cy_scb_uart.c **** * this function returns (Ring Buffer size - 1).
 513:Generated_Source\PSoC6\pdl\drivers\peripheral\scb/cy_scb_uart.c **** *
 514:Generated_Source\PSoC6\pdl\drivers\peripheral\scb/cy_scb_uart.c **** *******************************************************************************/
 515:Generated_Source\PSoC6\pdl\drivers\peripheral\scb/cy_scb_uart.c **** uint32_t Cy_SCB_UART_GetNumInRingBuffer(CySCB_Type const *base, cy_stc_scb_uart_context_t const *co
 516:Generated_Source\PSoC6\pdl\drivers\peripheral\scb/cy_scb_uart.c **** {
 517:Generated_Source\PSoC6\pdl\drivers\peripheral\scb/cy_scb_uart.c ****     uint32_t size;
 518:Generated_Source\PSoC6\pdl\drivers\peripheral\scb/cy_scb_uart.c ****     uint32_t locHead = context->rxRingBufHead;
 519:Generated_Source\PSoC6\pdl\drivers\peripheral\scb/cy_scb_uart.c **** 
 520:Generated_Source\PSoC6\pdl\drivers\peripheral\scb/cy_scb_uart.c ****     /* Suppress a compiler warning about unused variables */
 521:Generated_Source\PSoC6\pdl\drivers\peripheral\scb/cy_scb_uart.c ****     (void) base;
 522:Generated_Source\PSoC6\pdl\drivers\peripheral\scb/cy_scb_uart.c **** 
 523:Generated_Source\PSoC6\pdl\drivers\peripheral\scb/cy_scb_uart.c ****     if (locHead >= context->rxRingBufTail)
 524:Generated_Source\PSoC6\pdl\drivers\peripheral\scb/cy_scb_uart.c ****     {
 525:Generated_Source\PSoC6\pdl\drivers\peripheral\scb/cy_scb_uart.c ****         size = (locHead - context->rxRingBufTail);
 526:Generated_Source\PSoC6\pdl\drivers\peripheral\scb/cy_scb_uart.c ****     }
 527:Generated_Source\PSoC6\pdl\drivers\peripheral\scb/cy_scb_uart.c ****     else
 528:Generated_Source\PSoC6\pdl\drivers\peripheral\scb/cy_scb_uart.c ****     {
 529:Generated_Source\PSoC6\pdl\drivers\peripheral\scb/cy_scb_uart.c ****         size = (locHead + (context->rxBufSize - context->rxRingBufTail));
 530:Generated_Source\PSoC6\pdl\drivers\peripheral\scb/cy_scb_uart.c ****     }
 531:Generated_Source\PSoC6\pdl\drivers\peripheral\scb/cy_scb_uart.c **** 
 532:Generated_Source\PSoC6\pdl\drivers\peripheral\scb/cy_scb_uart.c ****     return (size);
 533:Generated_Source\PSoC6\pdl\drivers\peripheral\scb/cy_scb_uart.c **** }
 534:Generated_Source\PSoC6\pdl\drivers\peripheral\scb/cy_scb_uart.c **** 
 535:Generated_Source\PSoC6\pdl\drivers\peripheral\scb/cy_scb_uart.c **** 
 536:Generated_Source\PSoC6\pdl\drivers\peripheral\scb/cy_scb_uart.c **** /*******************************************************************************
 537:Generated_Source\PSoC6\pdl\drivers\peripheral\scb/cy_scb_uart.c **** * Function Name: Cy_SCB_UART_ClearRingBuffer
 538:Generated_Source\PSoC6\pdl\drivers\peripheral\scb/cy_scb_uart.c **** ****************************************************************************//**
 539:Generated_Source\PSoC6\pdl\drivers\peripheral\scb/cy_scb_uart.c **** *
 540:Generated_Source\PSoC6\pdl\drivers\peripheral\scb/cy_scb_uart.c **** * Clears the ring buffer.
 541:Generated_Source\PSoC6\pdl\drivers\peripheral\scb/cy_scb_uart.c **** *
 542:Generated_Source\PSoC6\pdl\drivers\peripheral\scb/cy_scb_uart.c **** * \param base
ARM GAS  C:\Users\pearlstl\AppData\Local\Temp\ccCjmXK8.s 			page 40


 543:Generated_Source\PSoC6\pdl\drivers\peripheral\scb/cy_scb_uart.c **** * The pointer to the UART SCB instance.
 544:Generated_Source\PSoC6\pdl\drivers\peripheral\scb/cy_scb_uart.c **** *
 545:Generated_Source\PSoC6\pdl\drivers\peripheral\scb/cy_scb_uart.c **** * \param context
 546:Generated_Source\PSoC6\pdl\drivers\peripheral\scb/cy_scb_uart.c **** * The pointer to the context structure \ref cy_stc_scb_uart_context_t allocated
 547:Generated_Source\PSoC6\pdl\drivers\peripheral\scb/cy_scb_uart.c **** * by the user. The structure is used during the UART operation for internal
 548:Generated_Source\PSoC6\pdl\drivers\peripheral\scb/cy_scb_uart.c **** * configuration and data retention. The user must not modify anything
 549:Generated_Source\PSoC6\pdl\drivers\peripheral\scb/cy_scb_uart.c **** * in this structure.
 550:Generated_Source\PSoC6\pdl\drivers\peripheral\scb/cy_scb_uart.c **** *
 551:Generated_Source\PSoC6\pdl\drivers\peripheral\scb/cy_scb_uart.c **** *******************************************************************************/
 552:Generated_Source\PSoC6\pdl\drivers\peripheral\scb/cy_scb_uart.c **** void Cy_SCB_UART_ClearRingBuffer(CySCB_Type const *base, cy_stc_scb_uart_context_t *context)
 553:Generated_Source\PSoC6\pdl\drivers\peripheral\scb/cy_scb_uart.c **** {
 554:Generated_Source\PSoC6\pdl\drivers\peripheral\scb/cy_scb_uart.c ****     /* Suppress a compiler warning about unused variables */
 555:Generated_Source\PSoC6\pdl\drivers\peripheral\scb/cy_scb_uart.c ****     (void) base;
 556:Generated_Source\PSoC6\pdl\drivers\peripheral\scb/cy_scb_uart.c **** 
 557:Generated_Source\PSoC6\pdl\drivers\peripheral\scb/cy_scb_uart.c ****     context->rxRingBufHead = context->rxRingBufTail;
 558:Generated_Source\PSoC6\pdl\drivers\peripheral\scb/cy_scb_uart.c **** }
 559:Generated_Source\PSoC6\pdl\drivers\peripheral\scb/cy_scb_uart.c **** 
 560:Generated_Source\PSoC6\pdl\drivers\peripheral\scb/cy_scb_uart.c **** 
 561:Generated_Source\PSoC6\pdl\drivers\peripheral\scb/cy_scb_uart.c **** /*******************************************************************************
 562:Generated_Source\PSoC6\pdl\drivers\peripheral\scb/cy_scb_uart.c **** * Function Name: Cy_SCB_UART_Receive
 563:Generated_Source\PSoC6\pdl\drivers\peripheral\scb/cy_scb_uart.c **** ****************************************************************************//**
 564:Generated_Source\PSoC6\pdl\drivers\peripheral\scb/cy_scb_uart.c **** *
 565:Generated_Source\PSoC6\pdl\drivers\peripheral\scb/cy_scb_uart.c **** * This function starts a UART receive operation.
 566:Generated_Source\PSoC6\pdl\drivers\peripheral\scb/cy_scb_uart.c **** * It configures the receive interrupt sources to get data available in the
 567:Generated_Source\PSoC6\pdl\drivers\peripheral\scb/cy_scb_uart.c **** * receive FIFO and returns. The \ref Cy_SCB_UART_Interrupt manages the further
 568:Generated_Source\PSoC6\pdl\drivers\peripheral\scb/cy_scb_uart.c **** * data transfer.
 569:Generated_Source\PSoC6\pdl\drivers\peripheral\scb/cy_scb_uart.c **** *
 570:Generated_Source\PSoC6\pdl\drivers\peripheral\scb/cy_scb_uart.c **** * If the ring buffer is enabled, this function first reads data from the ring
 571:Generated_Source\PSoC6\pdl\drivers\peripheral\scb/cy_scb_uart.c **** * buffer. If there is more data to receive, it configures the receive interrupt
 572:Generated_Source\PSoC6\pdl\drivers\peripheral\scb/cy_scb_uart.c **** * sources to copy the remaining bytes from the RX FIFO when they arrive.
 573:Generated_Source\PSoC6\pdl\drivers\peripheral\scb/cy_scb_uart.c **** *
 574:Generated_Source\PSoC6\pdl\drivers\peripheral\scb/cy_scb_uart.c **** * When the receive operation is completed (requested number of data elements
 575:Generated_Source\PSoC6\pdl\drivers\peripheral\scb/cy_scb_uart.c **** * received) the \ref CY_SCB_UART_RECEIVE_ACTIVE status is cleared and
 576:Generated_Source\PSoC6\pdl\drivers\peripheral\scb/cy_scb_uart.c **** * the \ref CY_SCB_UART_RECEIVE_DONE_EVENT event is generated.
 577:Generated_Source\PSoC6\pdl\drivers\peripheral\scb/cy_scb_uart.c **** *
 578:Generated_Source\PSoC6\pdl\drivers\peripheral\scb/cy_scb_uart.c **** * \param base
 579:Generated_Source\PSoC6\pdl\drivers\peripheral\scb/cy_scb_uart.c **** * The pointer to the UART SCB instance.
 580:Generated_Source\PSoC6\pdl\drivers\peripheral\scb/cy_scb_uart.c **** *
 581:Generated_Source\PSoC6\pdl\drivers\peripheral\scb/cy_scb_uart.c **** * \param buffer
 582:Generated_Source\PSoC6\pdl\drivers\peripheral\scb/cy_scb_uart.c **** * Pointer to buffer to store received data.
 583:Generated_Source\PSoC6\pdl\drivers\peripheral\scb/cy_scb_uart.c **** * The element size is defined by the data type, which depends on the configured
 584:Generated_Source\PSoC6\pdl\drivers\peripheral\scb/cy_scb_uart.c **** * data width.
 585:Generated_Source\PSoC6\pdl\drivers\peripheral\scb/cy_scb_uart.c **** *
 586:Generated_Source\PSoC6\pdl\drivers\peripheral\scb/cy_scb_uart.c **** * \param size
 587:Generated_Source\PSoC6\pdl\drivers\peripheral\scb/cy_scb_uart.c **** * The number of data elements to receive.
 588:Generated_Source\PSoC6\pdl\drivers\peripheral\scb/cy_scb_uart.c **** *
 589:Generated_Source\PSoC6\pdl\drivers\peripheral\scb/cy_scb_uart.c **** * \param context
 590:Generated_Source\PSoC6\pdl\drivers\peripheral\scb/cy_scb_uart.c **** * The pointer to the context structure \ref cy_stc_scb_uart_context_t allocated
 591:Generated_Source\PSoC6\pdl\drivers\peripheral\scb/cy_scb_uart.c **** * by the user. The structure is used during the UART operation for internal
 592:Generated_Source\PSoC6\pdl\drivers\peripheral\scb/cy_scb_uart.c **** * configuration and data retention. The user must not modify anything
 593:Generated_Source\PSoC6\pdl\drivers\peripheral\scb/cy_scb_uart.c **** * in this structure.
 594:Generated_Source\PSoC6\pdl\drivers\peripheral\scb/cy_scb_uart.c **** *
 595:Generated_Source\PSoC6\pdl\drivers\peripheral\scb/cy_scb_uart.c **** * \return
 596:Generated_Source\PSoC6\pdl\drivers\peripheral\scb/cy_scb_uart.c **** * \ref cy_en_scb_uart_status_t
 597:Generated_Source\PSoC6\pdl\drivers\peripheral\scb/cy_scb_uart.c **** *
 598:Generated_Source\PSoC6\pdl\drivers\peripheral\scb/cy_scb_uart.c **** * \note
 599:Generated_Source\PSoC6\pdl\drivers\peripheral\scb/cy_scb_uart.c **** * * The buffer must not be modified and stay allocated until end of the
ARM GAS  C:\Users\pearlstl\AppData\Local\Temp\ccCjmXK8.s 			page 41


 600:Generated_Source\PSoC6\pdl\drivers\peripheral\scb/cy_scb_uart.c **** *   receive operation.
 601:Generated_Source\PSoC6\pdl\drivers\peripheral\scb/cy_scb_uart.c **** * * This function overrides the RX interrupt sources and changes the
 602:Generated_Source\PSoC6\pdl\drivers\peripheral\scb/cy_scb_uart.c **** *   RX FIFO level.
 603:Generated_Source\PSoC6\pdl\drivers\peripheral\scb/cy_scb_uart.c **** *
 604:Generated_Source\PSoC6\pdl\drivers\peripheral\scb/cy_scb_uart.c **** *******************************************************************************/
 605:Generated_Source\PSoC6\pdl\drivers\peripheral\scb/cy_scb_uart.c **** cy_en_scb_uart_status_t Cy_SCB_UART_Receive(CySCB_Type *base, void *buffer, uint32_t size, cy_stc_s
 606:Generated_Source\PSoC6\pdl\drivers\peripheral\scb/cy_scb_uart.c **** {
 607:Generated_Source\PSoC6\pdl\drivers\peripheral\scb/cy_scb_uart.c ****     CY_ASSERT_L1(NULL != context);
 608:Generated_Source\PSoC6\pdl\drivers\peripheral\scb/cy_scb_uart.c ****     CY_ASSERT_L1(CY_SCB_UART_INIT_KEY == context->initKey);
 609:Generated_Source\PSoC6\pdl\drivers\peripheral\scb/cy_scb_uart.c ****     CY_ASSERT_L1(CY_SCB_IS_BUFFER_VALID(buffer, size));
 610:Generated_Source\PSoC6\pdl\drivers\peripheral\scb/cy_scb_uart.c **** 
 611:Generated_Source\PSoC6\pdl\drivers\peripheral\scb/cy_scb_uart.c ****     cy_en_scb_uart_status_t retStatus = CY_SCB_UART_RECEIVE_BUSY;
 612:Generated_Source\PSoC6\pdl\drivers\peripheral\scb/cy_scb_uart.c **** 
 613:Generated_Source\PSoC6\pdl\drivers\peripheral\scb/cy_scb_uart.c ****     /* check whether there are no active transfer requests */
 614:Generated_Source\PSoC6\pdl\drivers\peripheral\scb/cy_scb_uart.c ****     if (0UL == (context->rxStatus & CY_SCB_UART_RECEIVE_ACTIVE))
 615:Generated_Source\PSoC6\pdl\drivers\peripheral\scb/cy_scb_uart.c ****     {
 616:Generated_Source\PSoC6\pdl\drivers\peripheral\scb/cy_scb_uart.c ****         uint8_t  *tmpBuf = (uint8_t *) buffer;
 617:Generated_Source\PSoC6\pdl\drivers\peripheral\scb/cy_scb_uart.c ****         uint32_t numToCopy = 0UL;
 618:Generated_Source\PSoC6\pdl\drivers\peripheral\scb/cy_scb_uart.c **** 
 619:Generated_Source\PSoC6\pdl\drivers\peripheral\scb/cy_scb_uart.c ****         /* Disable the RX interrupt source to stop the ring buffer update */
 620:Generated_Source\PSoC6\pdl\drivers\peripheral\scb/cy_scb_uart.c ****         Cy_SCB_SetRxInterruptMask(base, CY_SCB_CLEAR_ALL_INTR_SRC);
 621:Generated_Source\PSoC6\pdl\drivers\peripheral\scb/cy_scb_uart.c **** 
 622:Generated_Source\PSoC6\pdl\drivers\peripheral\scb/cy_scb_uart.c ****         if (NULL != context->rxRingBuf)
 623:Generated_Source\PSoC6\pdl\drivers\peripheral\scb/cy_scb_uart.c ****         {
 624:Generated_Source\PSoC6\pdl\drivers\peripheral\scb/cy_scb_uart.c ****             /* Get the items available in the ring buffer */
 625:Generated_Source\PSoC6\pdl\drivers\peripheral\scb/cy_scb_uart.c ****             numToCopy = Cy_SCB_UART_GetNumInRingBuffer(base, context);
 626:Generated_Source\PSoC6\pdl\drivers\peripheral\scb/cy_scb_uart.c **** 
 627:Generated_Source\PSoC6\pdl\drivers\peripheral\scb/cy_scb_uart.c ****             if (numToCopy > 0UL)
 628:Generated_Source\PSoC6\pdl\drivers\peripheral\scb/cy_scb_uart.c ****             {
 629:Generated_Source\PSoC6\pdl\drivers\peripheral\scb/cy_scb_uart.c ****                 uint32_t idx;
 630:Generated_Source\PSoC6\pdl\drivers\peripheral\scb/cy_scb_uart.c ****                 uint32_t locTail = context->rxRingBufTail;
 631:Generated_Source\PSoC6\pdl\drivers\peripheral\scb/cy_scb_uart.c ****                 bool     byteMode = Cy_SCB_IsRxDataWidthByte(base);
 632:Generated_Source\PSoC6\pdl\drivers\peripheral\scb/cy_scb_uart.c **** 
 633:Generated_Source\PSoC6\pdl\drivers\peripheral\scb/cy_scb_uart.c ****                 /* Adjust the number of items to be read */
 634:Generated_Source\PSoC6\pdl\drivers\peripheral\scb/cy_scb_uart.c ****                 if (numToCopy > size)
 635:Generated_Source\PSoC6\pdl\drivers\peripheral\scb/cy_scb_uart.c ****                 {
 636:Generated_Source\PSoC6\pdl\drivers\peripheral\scb/cy_scb_uart.c ****                     numToCopy = size;
 637:Generated_Source\PSoC6\pdl\drivers\peripheral\scb/cy_scb_uart.c ****                 }
 638:Generated_Source\PSoC6\pdl\drivers\peripheral\scb/cy_scb_uart.c **** 
 639:Generated_Source\PSoC6\pdl\drivers\peripheral\scb/cy_scb_uart.c ****                 /* Copy the data elements from the ring buffer */
 640:Generated_Source\PSoC6\pdl\drivers\peripheral\scb/cy_scb_uart.c ****                 for (idx = 0UL; idx < numToCopy; ++idx)
 641:Generated_Source\PSoC6\pdl\drivers\peripheral\scb/cy_scb_uart.c ****                 {
 642:Generated_Source\PSoC6\pdl\drivers\peripheral\scb/cy_scb_uart.c ****                     ++locTail;
 643:Generated_Source\PSoC6\pdl\drivers\peripheral\scb/cy_scb_uart.c **** 
 644:Generated_Source\PSoC6\pdl\drivers\peripheral\scb/cy_scb_uart.c ****                     if (locTail == context->rxRingBufSize)
 645:Generated_Source\PSoC6\pdl\drivers\peripheral\scb/cy_scb_uart.c ****                     {
 646:Generated_Source\PSoC6\pdl\drivers\peripheral\scb/cy_scb_uart.c ****                         locTail = 0UL;
 647:Generated_Source\PSoC6\pdl\drivers\peripheral\scb/cy_scb_uart.c ****                     }
 648:Generated_Source\PSoC6\pdl\drivers\peripheral\scb/cy_scb_uart.c **** 
 649:Generated_Source\PSoC6\pdl\drivers\peripheral\scb/cy_scb_uart.c ****                     if (byteMode)
 650:Generated_Source\PSoC6\pdl\drivers\peripheral\scb/cy_scb_uart.c ****                     {
 651:Generated_Source\PSoC6\pdl\drivers\peripheral\scb/cy_scb_uart.c ****                         uint8_t *buf = (uint8_t *) buffer;
 652:Generated_Source\PSoC6\pdl\drivers\peripheral\scb/cy_scb_uart.c ****                         buf[idx] = ((uint8_t *) context->rxRingBuf)[locTail];
 653:Generated_Source\PSoC6\pdl\drivers\peripheral\scb/cy_scb_uart.c ****                     }
 654:Generated_Source\PSoC6\pdl\drivers\peripheral\scb/cy_scb_uart.c ****                     else
 655:Generated_Source\PSoC6\pdl\drivers\peripheral\scb/cy_scb_uart.c ****                     {
 656:Generated_Source\PSoC6\pdl\drivers\peripheral\scb/cy_scb_uart.c ****                         uint16_t *buf = (uint16_t *) buffer;
ARM GAS  C:\Users\pearlstl\AppData\Local\Temp\ccCjmXK8.s 			page 42


 657:Generated_Source\PSoC6\pdl\drivers\peripheral\scb/cy_scb_uart.c ****                         buf[idx] = ((uint16_t *) context->rxRingBuf)[locTail];
 658:Generated_Source\PSoC6\pdl\drivers\peripheral\scb/cy_scb_uart.c ****                     }
 659:Generated_Source\PSoC6\pdl\drivers\peripheral\scb/cy_scb_uart.c ****                 }
 660:Generated_Source\PSoC6\pdl\drivers\peripheral\scb/cy_scb_uart.c **** 
 661:Generated_Source\PSoC6\pdl\drivers\peripheral\scb/cy_scb_uart.c ****                 /* Update the ring buffer tail after data has been copied */
 662:Generated_Source\PSoC6\pdl\drivers\peripheral\scb/cy_scb_uart.c ****                 context->rxRingBufTail = locTail;
 663:Generated_Source\PSoC6\pdl\drivers\peripheral\scb/cy_scb_uart.c **** 
 664:Generated_Source\PSoC6\pdl\drivers\peripheral\scb/cy_scb_uart.c ****                 /* Update with the copied bytes */
 665:Generated_Source\PSoC6\pdl\drivers\peripheral\scb/cy_scb_uart.c ****                 size -= numToCopy;
 666:Generated_Source\PSoC6\pdl\drivers\peripheral\scb/cy_scb_uart.c ****                 context->rxBufIdx = numToCopy;
 667:Generated_Source\PSoC6\pdl\drivers\peripheral\scb/cy_scb_uart.c **** 
 668:Generated_Source\PSoC6\pdl\drivers\peripheral\scb/cy_scb_uart.c ****                 /* Check whether all requested data has been read from the ring buffer */
 669:Generated_Source\PSoC6\pdl\drivers\peripheral\scb/cy_scb_uart.c ****                 if (0UL == size)
 670:Generated_Source\PSoC6\pdl\drivers\peripheral\scb/cy_scb_uart.c ****                 {
 671:Generated_Source\PSoC6\pdl\drivers\peripheral\scb/cy_scb_uart.c ****                     /* Enable the RX-error interrupt sources to update the error status */
 672:Generated_Source\PSoC6\pdl\drivers\peripheral\scb/cy_scb_uart.c ****                     Cy_SCB_SetRxInterruptMask(base, CY_SCB_UART_RECEIVE_ERR);
 673:Generated_Source\PSoC6\pdl\drivers\peripheral\scb/cy_scb_uart.c **** 
 674:Generated_Source\PSoC6\pdl\drivers\peripheral\scb/cy_scb_uart.c ****                     /* Call a completion callback if there was no abort receive called
 675:Generated_Source\PSoC6\pdl\drivers\peripheral\scb/cy_scb_uart.c ****                     * in the interrupt. The abort clears the number of the received bytes.
 676:Generated_Source\PSoC6\pdl\drivers\peripheral\scb/cy_scb_uart.c ****                     */
 677:Generated_Source\PSoC6\pdl\drivers\peripheral\scb/cy_scb_uart.c ****                     if (context->rxBufIdx > 0UL)
 678:Generated_Source\PSoC6\pdl\drivers\peripheral\scb/cy_scb_uart.c ****                     {
 679:Generated_Source\PSoC6\pdl\drivers\peripheral\scb/cy_scb_uart.c ****                         if (NULL != context->cbEvents)
 680:Generated_Source\PSoC6\pdl\drivers\peripheral\scb/cy_scb_uart.c ****                         {
 681:Generated_Source\PSoC6\pdl\drivers\peripheral\scb/cy_scb_uart.c ****                             context->cbEvents(CY_SCB_UART_RECEIVE_DONE_EVENT);
 682:Generated_Source\PSoC6\pdl\drivers\peripheral\scb/cy_scb_uart.c ****                         }
 683:Generated_Source\PSoC6\pdl\drivers\peripheral\scb/cy_scb_uart.c ****                     }
 684:Generated_Source\PSoC6\pdl\drivers\peripheral\scb/cy_scb_uart.c **** 
 685:Generated_Source\PSoC6\pdl\drivers\peripheral\scb/cy_scb_uart.c ****                     /* Continue receiving data in the ring buffer */
 686:Generated_Source\PSoC6\pdl\drivers\peripheral\scb/cy_scb_uart.c ****                     Cy_SCB_SetRxInterruptMask(base, CY_SCB_RX_INTR_LEVEL);
 687:Generated_Source\PSoC6\pdl\drivers\peripheral\scb/cy_scb_uart.c ****                 }
 688:Generated_Source\PSoC6\pdl\drivers\peripheral\scb/cy_scb_uart.c ****                 else
 689:Generated_Source\PSoC6\pdl\drivers\peripheral\scb/cy_scb_uart.c ****                 {
 690:Generated_Source\PSoC6\pdl\drivers\peripheral\scb/cy_scb_uart.c ****                     tmpBuf = &tmpBuf[(byteMode) ? (numToCopy) : (2UL * numToCopy)];
 691:Generated_Source\PSoC6\pdl\drivers\peripheral\scb/cy_scb_uart.c ****                 }
 692:Generated_Source\PSoC6\pdl\drivers\peripheral\scb/cy_scb_uart.c ****             }
 693:Generated_Source\PSoC6\pdl\drivers\peripheral\scb/cy_scb_uart.c ****         }
 694:Generated_Source\PSoC6\pdl\drivers\peripheral\scb/cy_scb_uart.c **** 
 695:Generated_Source\PSoC6\pdl\drivers\peripheral\scb/cy_scb_uart.c ****         /* Set up a direct RX FIFO receive */
 696:Generated_Source\PSoC6\pdl\drivers\peripheral\scb/cy_scb_uart.c ****         if (size > 0UL)
 697:Generated_Source\PSoC6\pdl\drivers\peripheral\scb/cy_scb_uart.c ****         {
 698:Generated_Source\PSoC6\pdl\drivers\peripheral\scb/cy_scb_uart.c ****             uint32_t halfFifoSize = Cy_SCB_GetFifoSize(base) / 2UL;
 699:Generated_Source\PSoC6\pdl\drivers\peripheral\scb/cy_scb_uart.c **** 
 700:Generated_Source\PSoC6\pdl\drivers\peripheral\scb/cy_scb_uart.c ****             /* Set up context */
 701:Generated_Source\PSoC6\pdl\drivers\peripheral\scb/cy_scb_uart.c ****             context->rxStatus  = CY_SCB_UART_RECEIVE_ACTIVE;
 702:Generated_Source\PSoC6\pdl\drivers\peripheral\scb/cy_scb_uart.c **** 
 703:Generated_Source\PSoC6\pdl\drivers\peripheral\scb/cy_scb_uart.c ****             context->rxBuf     = (void *) tmpBuf;
 704:Generated_Source\PSoC6\pdl\drivers\peripheral\scb/cy_scb_uart.c ****             context->rxBufSize = size;
 705:Generated_Source\PSoC6\pdl\drivers\peripheral\scb/cy_scb_uart.c ****             context->rxBufIdx =  numToCopy;
 706:Generated_Source\PSoC6\pdl\drivers\peripheral\scb/cy_scb_uart.c **** 
 707:Generated_Source\PSoC6\pdl\drivers\peripheral\scb/cy_scb_uart.c ****             /* Set the RX FIFO level to the trigger interrupt */
 708:Generated_Source\PSoC6\pdl\drivers\peripheral\scb/cy_scb_uart.c ****             Cy_SCB_SetRxFifoLevel(base, (size > halfFifoSize) ? (halfFifoSize - 1UL) : (size - 1UL)
 709:Generated_Source\PSoC6\pdl\drivers\peripheral\scb/cy_scb_uart.c **** 
 710:Generated_Source\PSoC6\pdl\drivers\peripheral\scb/cy_scb_uart.c ****             /* Enable the RX interrupt sources to continue data reading */
 711:Generated_Source\PSoC6\pdl\drivers\peripheral\scb/cy_scb_uart.c ****             Cy_SCB_SetRxInterruptMask(base, CY_SCB_UART_RX_INTR);
 712:Generated_Source\PSoC6\pdl\drivers\peripheral\scb/cy_scb_uart.c ****         }
 713:Generated_Source\PSoC6\pdl\drivers\peripheral\scb/cy_scb_uart.c **** 
ARM GAS  C:\Users\pearlstl\AppData\Local\Temp\ccCjmXK8.s 			page 43


 714:Generated_Source\PSoC6\pdl\drivers\peripheral\scb/cy_scb_uart.c ****         retStatus = CY_SCB_UART_SUCCESS;
 715:Generated_Source\PSoC6\pdl\drivers\peripheral\scb/cy_scb_uart.c ****     }
 716:Generated_Source\PSoC6\pdl\drivers\peripheral\scb/cy_scb_uart.c **** 
 717:Generated_Source\PSoC6\pdl\drivers\peripheral\scb/cy_scb_uart.c ****     return (retStatus);
 718:Generated_Source\PSoC6\pdl\drivers\peripheral\scb/cy_scb_uart.c **** }
 719:Generated_Source\PSoC6\pdl\drivers\peripheral\scb/cy_scb_uart.c **** 
 720:Generated_Source\PSoC6\pdl\drivers\peripheral\scb/cy_scb_uart.c **** 
 721:Generated_Source\PSoC6\pdl\drivers\peripheral\scb/cy_scb_uart.c **** /*******************************************************************************
 722:Generated_Source\PSoC6\pdl\drivers\peripheral\scb/cy_scb_uart.c **** * Function Name: Cy_SCB_UART_AbortReceive
 723:Generated_Source\PSoC6\pdl\drivers\peripheral\scb/cy_scb_uart.c **** ****************************************************************************//**
 724:Generated_Source\PSoC6\pdl\drivers\peripheral\scb/cy_scb_uart.c **** *
 725:Generated_Source\PSoC6\pdl\drivers\peripheral\scb/cy_scb_uart.c **** * Abort the current receive operation by clearing the receive status.
 726:Generated_Source\PSoC6\pdl\drivers\peripheral\scb/cy_scb_uart.c **** * * If the ring buffer is disabled, the receive interrupt sources are disabled.
 727:Generated_Source\PSoC6\pdl\drivers\peripheral\scb/cy_scb_uart.c **** * * If the ring buffer is enabled, the receive interrupt source is configured
 728:Generated_Source\PSoC6\pdl\drivers\peripheral\scb/cy_scb_uart.c **** *   to get data from the receive FIFO and put it into the ring buffer.
 729:Generated_Source\PSoC6\pdl\drivers\peripheral\scb/cy_scb_uart.c **** *
 730:Generated_Source\PSoC6\pdl\drivers\peripheral\scb/cy_scb_uart.c **** * \param base
 731:Generated_Source\PSoC6\pdl\drivers\peripheral\scb/cy_scb_uart.c **** * The pointer to the UART SCB instance.
 732:Generated_Source\PSoC6\pdl\drivers\peripheral\scb/cy_scb_uart.c **** *
 733:Generated_Source\PSoC6\pdl\drivers\peripheral\scb/cy_scb_uart.c **** * \param context
 734:Generated_Source\PSoC6\pdl\drivers\peripheral\scb/cy_scb_uart.c **** * The pointer to the context structure \ref cy_stc_scb_uart_context_t allocated
 735:Generated_Source\PSoC6\pdl\drivers\peripheral\scb/cy_scb_uart.c **** * by the user. The structure is used during the UART operation for internal
 736:Generated_Source\PSoC6\pdl\drivers\peripheral\scb/cy_scb_uart.c **** * configuration and data retention. The user must not modify anything
 737:Generated_Source\PSoC6\pdl\drivers\peripheral\scb/cy_scb_uart.c **** * in this structure.
 738:Generated_Source\PSoC6\pdl\drivers\peripheral\scb/cy_scb_uart.c **** *
 739:Generated_Source\PSoC6\pdl\drivers\peripheral\scb/cy_scb_uart.c **** * \note
 740:Generated_Source\PSoC6\pdl\drivers\peripheral\scb/cy_scb_uart.c **** * * The RX FIFO and ring buffer are not cleared after abort of receive
 741:Generated_Source\PSoC6\pdl\drivers\peripheral\scb/cy_scb_uart.c **** *   operation.
 742:Generated_Source\PSoC6\pdl\drivers\peripheral\scb/cy_scb_uart.c **** * * If after the abort of the receive operation the transmitter continues
 743:Generated_Source\PSoC6\pdl\drivers\peripheral\scb/cy_scb_uart.c **** *   sending data, it gets into the RX FIFO. To drop this data, the RX FIFO
 744:Generated_Source\PSoC6\pdl\drivers\peripheral\scb/cy_scb_uart.c **** *   and ring buffer (if enabled) must be cleared when the transmitter
 745:Generated_Source\PSoC6\pdl\drivers\peripheral\scb/cy_scb_uart.c **** *   stops sending data. Otherwise, received data will be kept and copied
 746:Generated_Source\PSoC6\pdl\drivers\peripheral\scb/cy_scb_uart.c **** *   to the buffer when \ref Cy_SCB_UART_Receive is called.
 747:Generated_Source\PSoC6\pdl\drivers\peripheral\scb/cy_scb_uart.c **** *
 748:Generated_Source\PSoC6\pdl\drivers\peripheral\scb/cy_scb_uart.c **** *******************************************************************************/
 749:Generated_Source\PSoC6\pdl\drivers\peripheral\scb/cy_scb_uart.c **** void Cy_SCB_UART_AbortReceive(CySCB_Type *base, cy_stc_scb_uart_context_t *context)
 750:Generated_Source\PSoC6\pdl\drivers\peripheral\scb/cy_scb_uart.c **** {
 751:Generated_Source\PSoC6\pdl\drivers\peripheral\scb/cy_scb_uart.c ****     if (NULL == context->rxRingBuf)
 752:Generated_Source\PSoC6\pdl\drivers\peripheral\scb/cy_scb_uart.c ****     {
 753:Generated_Source\PSoC6\pdl\drivers\peripheral\scb/cy_scb_uart.c ****         Cy_SCB_SetRxInterruptMask(base, CY_SCB_CLEAR_ALL_INTR_SRC);
 754:Generated_Source\PSoC6\pdl\drivers\peripheral\scb/cy_scb_uart.c ****     }
 755:Generated_Source\PSoC6\pdl\drivers\peripheral\scb/cy_scb_uart.c **** 
 756:Generated_Source\PSoC6\pdl\drivers\peripheral\scb/cy_scb_uart.c ****     context->rxBufSize = 0UL;
 757:Generated_Source\PSoC6\pdl\drivers\peripheral\scb/cy_scb_uart.c ****     context->rxBufIdx  = 0UL;
 758:Generated_Source\PSoC6\pdl\drivers\peripheral\scb/cy_scb_uart.c **** 
 759:Generated_Source\PSoC6\pdl\drivers\peripheral\scb/cy_scb_uart.c ****     context->rxStatus  = 0UL;
 760:Generated_Source\PSoC6\pdl\drivers\peripheral\scb/cy_scb_uart.c **** }
 761:Generated_Source\PSoC6\pdl\drivers\peripheral\scb/cy_scb_uart.c **** 
 762:Generated_Source\PSoC6\pdl\drivers\peripheral\scb/cy_scb_uart.c **** 
 763:Generated_Source\PSoC6\pdl\drivers\peripheral\scb/cy_scb_uart.c **** /*******************************************************************************
 764:Generated_Source\PSoC6\pdl\drivers\peripheral\scb/cy_scb_uart.c **** * Function Name: Cy_SCB_UART_GetNumReceived
 765:Generated_Source\PSoC6\pdl\drivers\peripheral\scb/cy_scb_uart.c **** ****************************************************************************//**
 766:Generated_Source\PSoC6\pdl\drivers\peripheral\scb/cy_scb_uart.c **** *
 767:Generated_Source\PSoC6\pdl\drivers\peripheral\scb/cy_scb_uart.c **** * Returns the number of data elements received since the last call to \ref
 768:Generated_Source\PSoC6\pdl\drivers\peripheral\scb/cy_scb_uart.c **** * Cy_SCB_UART_Receive.
 769:Generated_Source\PSoC6\pdl\drivers\peripheral\scb/cy_scb_uart.c **** *
 770:Generated_Source\PSoC6\pdl\drivers\peripheral\scb/cy_scb_uart.c **** * \param base
ARM GAS  C:\Users\pearlstl\AppData\Local\Temp\ccCjmXK8.s 			page 44


 771:Generated_Source\PSoC6\pdl\drivers\peripheral\scb/cy_scb_uart.c **** * The pointer to the UART SCB instance.
 772:Generated_Source\PSoC6\pdl\drivers\peripheral\scb/cy_scb_uart.c **** *
 773:Generated_Source\PSoC6\pdl\drivers\peripheral\scb/cy_scb_uart.c **** * \param context
 774:Generated_Source\PSoC6\pdl\drivers\peripheral\scb/cy_scb_uart.c **** * The pointer to the context structure \ref cy_stc_scb_uart_context_t allocated
 775:Generated_Source\PSoC6\pdl\drivers\peripheral\scb/cy_scb_uart.c **** * by the user. The structure is used during the UART operation for internal
 776:Generated_Source\PSoC6\pdl\drivers\peripheral\scb/cy_scb_uart.c **** * configuration and data retention. The user must not modify anything
 777:Generated_Source\PSoC6\pdl\drivers\peripheral\scb/cy_scb_uart.c **** * in this structure.
 778:Generated_Source\PSoC6\pdl\drivers\peripheral\scb/cy_scb_uart.c **** *
 779:Generated_Source\PSoC6\pdl\drivers\peripheral\scb/cy_scb_uart.c **** * \return
 780:Generated_Source\PSoC6\pdl\drivers\peripheral\scb/cy_scb_uart.c **** * The number of data elements received.
 781:Generated_Source\PSoC6\pdl\drivers\peripheral\scb/cy_scb_uart.c **** *
 782:Generated_Source\PSoC6\pdl\drivers\peripheral\scb/cy_scb_uart.c **** *******************************************************************************/
 783:Generated_Source\PSoC6\pdl\drivers\peripheral\scb/cy_scb_uart.c **** uint32_t Cy_SCB_UART_GetNumReceived(CySCB_Type const *base, cy_stc_scb_uart_context_t const *contex
 784:Generated_Source\PSoC6\pdl\drivers\peripheral\scb/cy_scb_uart.c **** {
 785:Generated_Source\PSoC6\pdl\drivers\peripheral\scb/cy_scb_uart.c ****     /* Suppress a compiler warning about unused variables */
 786:Generated_Source\PSoC6\pdl\drivers\peripheral\scb/cy_scb_uart.c ****     (void) base;
 787:Generated_Source\PSoC6\pdl\drivers\peripheral\scb/cy_scb_uart.c **** 
 788:Generated_Source\PSoC6\pdl\drivers\peripheral\scb/cy_scb_uart.c ****     return (context->rxBufIdx);
 789:Generated_Source\PSoC6\pdl\drivers\peripheral\scb/cy_scb_uart.c **** }
 790:Generated_Source\PSoC6\pdl\drivers\peripheral\scb/cy_scb_uart.c **** 
 791:Generated_Source\PSoC6\pdl\drivers\peripheral\scb/cy_scb_uart.c **** 
 792:Generated_Source\PSoC6\pdl\drivers\peripheral\scb/cy_scb_uart.c **** /*******************************************************************************
 793:Generated_Source\PSoC6\pdl\drivers\peripheral\scb/cy_scb_uart.c **** * Function Name: Cy_SCB_UART_GetReceiveStatus
 794:Generated_Source\PSoC6\pdl\drivers\peripheral\scb/cy_scb_uart.c **** ****************************************************************************//**
 795:Generated_Source\PSoC6\pdl\drivers\peripheral\scb/cy_scb_uart.c **** *
 796:Generated_Source\PSoC6\pdl\drivers\peripheral\scb/cy_scb_uart.c **** * Returns the status of the receive operation.
 797:Generated_Source\PSoC6\pdl\drivers\peripheral\scb/cy_scb_uart.c **** * This status is a bit mask and the value returned may have multiple bits set.
 798:Generated_Source\PSoC6\pdl\drivers\peripheral\scb/cy_scb_uart.c **** *
 799:Generated_Source\PSoC6\pdl\drivers\peripheral\scb/cy_scb_uart.c **** * \param base
 800:Generated_Source\PSoC6\pdl\drivers\peripheral\scb/cy_scb_uart.c **** * The pointer to the UART SCB instance.
 801:Generated_Source\PSoC6\pdl\drivers\peripheral\scb/cy_scb_uart.c **** *
 802:Generated_Source\PSoC6\pdl\drivers\peripheral\scb/cy_scb_uart.c **** * \param context
 803:Generated_Source\PSoC6\pdl\drivers\peripheral\scb/cy_scb_uart.c **** * The pointer to the context structure \ref cy_stc_scb_uart_context_t allocated
