ARM GAS  C:\Users\pearlstl\AppData\Local\Temp\ccHsEs7Z.s 			page 1


   1              		.syntax unified
   2              		.cpu cortex-m4
   3              		.eabi_attribute 27, 1
   4              		.fpu fpv4-sp-d16
   5              		.eabi_attribute 20, 1
   6              		.eabi_attribute 21, 1
   7              		.eabi_attribute 23, 3
   8              		.eabi_attribute 24, 1
   9              		.eabi_attribute 25, 1
  10              		.eabi_attribute 26, 1
  11              		.eabi_attribute 30, 2
  12              		.eabi_attribute 34, 1
  13              		.eabi_attribute 18, 4
  14              		.thumb
  15              		.syntax unified
  16              		.file	"cy_scb_ezi2c.c"
  17              		.text
  18              	.Ltext0:
  19              		.cfi_sections	.debug_frame
  20              		.section	.text.Cy_SCB_EZI2C_Init,"ax",%progbits
  21              		.align	2
  22              		.global	Cy_SCB_EZI2C_Init
  23              		.thumb
  24              		.thumb_func
  25              		.type	Cy_SCB_EZI2C_Init, %function
  26              	Cy_SCB_EZI2C_Init:
  27              	.LFB219:
  28              		.file 1 "Generated_Source\\PSoC6\\pdl\\drivers\\peripheral\\scb\\cy_scb_ezi2c.c"
   1:Generated_Source\PSoC6\pdl\drivers\peripheral\scb/cy_scb_ezi2c.c **** /***************************************************************************//**
   2:Generated_Source\PSoC6\pdl\drivers\peripheral\scb/cy_scb_ezi2c.c **** * \file cy_scb_ezi2c.c
   3:Generated_Source\PSoC6\pdl\drivers\peripheral\scb/cy_scb_ezi2c.c **** * \version 2.20
   4:Generated_Source\PSoC6\pdl\drivers\peripheral\scb/cy_scb_ezi2c.c **** *
   5:Generated_Source\PSoC6\pdl\drivers\peripheral\scb/cy_scb_ezi2c.c **** * Provides EZI2C API implementation of the SCB driver.
   6:Generated_Source\PSoC6\pdl\drivers\peripheral\scb/cy_scb_ezi2c.c **** *
   7:Generated_Source\PSoC6\pdl\drivers\peripheral\scb/cy_scb_ezi2c.c **** ********************************************************************************
   8:Generated_Source\PSoC6\pdl\drivers\peripheral\scb/cy_scb_ezi2c.c **** * \copyright
   9:Generated_Source\PSoC6\pdl\drivers\peripheral\scb/cy_scb_ezi2c.c **** * Copyright 2016-2018, Cypress Semiconductor Corporation. All rights reserved.
  10:Generated_Source\PSoC6\pdl\drivers\peripheral\scb/cy_scb_ezi2c.c **** * You may use this file only in accordance with the license, terms, conditions,
  11:Generated_Source\PSoC6\pdl\drivers\peripheral\scb/cy_scb_ezi2c.c **** * disclaimers, and limitations in the end user license agreement accompanying
  12:Generated_Source\PSoC6\pdl\drivers\peripheral\scb/cy_scb_ezi2c.c **** * the software package with which this file was provided.
  13:Generated_Source\PSoC6\pdl\drivers\peripheral\scb/cy_scb_ezi2c.c **** *******************************************************************************/
  14:Generated_Source\PSoC6\pdl\drivers\peripheral\scb/cy_scb_ezi2c.c **** 
  15:Generated_Source\PSoC6\pdl\drivers\peripheral\scb/cy_scb_ezi2c.c **** #include "cy_scb_ezi2c.h"
  16:Generated_Source\PSoC6\pdl\drivers\peripheral\scb/cy_scb_ezi2c.c **** 
  17:Generated_Source\PSoC6\pdl\drivers\peripheral\scb/cy_scb_ezi2c.c **** #ifdef CY_IP_MXSCB
  18:Generated_Source\PSoC6\pdl\drivers\peripheral\scb/cy_scb_ezi2c.c **** 
  19:Generated_Source\PSoC6\pdl\drivers\peripheral\scb/cy_scb_ezi2c.c **** #if defined(__cplusplus)
  20:Generated_Source\PSoC6\pdl\drivers\peripheral\scb/cy_scb_ezi2c.c **** extern "C" {
  21:Generated_Source\PSoC6\pdl\drivers\peripheral\scb/cy_scb_ezi2c.c **** #endif
  22:Generated_Source\PSoC6\pdl\drivers\peripheral\scb/cy_scb_ezi2c.c **** 
  23:Generated_Source\PSoC6\pdl\drivers\peripheral\scb/cy_scb_ezi2c.c **** 
  24:Generated_Source\PSoC6\pdl\drivers\peripheral\scb/cy_scb_ezi2c.c **** /***************************************
  25:Generated_Source\PSoC6\pdl\drivers\peripheral\scb/cy_scb_ezi2c.c **** *        Function Prototypes
  26:Generated_Source\PSoC6\pdl\drivers\peripheral\scb/cy_scb_ezi2c.c **** ***************************************/
  27:Generated_Source\PSoC6\pdl\drivers\peripheral\scb/cy_scb_ezi2c.c **** 
  28:Generated_Source\PSoC6\pdl\drivers\peripheral\scb/cy_scb_ezi2c.c **** static void HandleErrors      (CySCB_Type *base, cy_stc_scb_ezi2c_context_t *context);
  29:Generated_Source\PSoC6\pdl\drivers\peripheral\scb/cy_scb_ezi2c.c **** static void HandleAddress     (CySCB_Type *base, cy_stc_scb_ezi2c_context_t *context);
ARM GAS  C:\Users\pearlstl\AppData\Local\Temp\ccHsEs7Z.s 			page 2


  30:Generated_Source\PSoC6\pdl\drivers\peripheral\scb/cy_scb_ezi2c.c **** static void UpdateRxFifoLevel (CySCB_Type *base, uint32_t bufSize);
  31:Generated_Source\PSoC6\pdl\drivers\peripheral\scb/cy_scb_ezi2c.c **** static void HandleDataReceive (CySCB_Type *base, cy_stc_scb_ezi2c_context_t *context);
  32:Generated_Source\PSoC6\pdl\drivers\peripheral\scb/cy_scb_ezi2c.c **** static void HandleDataTransmit(CySCB_Type *base, cy_stc_scb_ezi2c_context_t *context);
  33:Generated_Source\PSoC6\pdl\drivers\peripheral\scb/cy_scb_ezi2c.c **** static void HandleStop        (CySCB_Type *base, cy_stc_scb_ezi2c_context_t *context);
  34:Generated_Source\PSoC6\pdl\drivers\peripheral\scb/cy_scb_ezi2c.c **** static void UpdateAddressMask (CySCB_Type *base, cy_stc_scb_ezi2c_context_t const *context);
  35:Generated_Source\PSoC6\pdl\drivers\peripheral\scb/cy_scb_ezi2c.c **** 
  36:Generated_Source\PSoC6\pdl\drivers\peripheral\scb/cy_scb_ezi2c.c **** 
  37:Generated_Source\PSoC6\pdl\drivers\peripheral\scb/cy_scb_ezi2c.c **** /*******************************************************************************
  38:Generated_Source\PSoC6\pdl\drivers\peripheral\scb/cy_scb_ezi2c.c **** * Function Name: Cy_SCB_EZI2C_Init
  39:Generated_Source\PSoC6\pdl\drivers\peripheral\scb/cy_scb_ezi2c.c **** ****************************************************************************//**
  40:Generated_Source\PSoC6\pdl\drivers\peripheral\scb/cy_scb_ezi2c.c **** *
  41:Generated_Source\PSoC6\pdl\drivers\peripheral\scb/cy_scb_ezi2c.c **** * Initializes the SCB for the EZI2C operation.
  42:Generated_Source\PSoC6\pdl\drivers\peripheral\scb/cy_scb_ezi2c.c **** *
  43:Generated_Source\PSoC6\pdl\drivers\peripheral\scb/cy_scb_ezi2c.c **** * \param base
  44:Generated_Source\PSoC6\pdl\drivers\peripheral\scb/cy_scb_ezi2c.c **** * The pointer to the EZI2C SCB instance.
  45:Generated_Source\PSoC6\pdl\drivers\peripheral\scb/cy_scb_ezi2c.c **** *
  46:Generated_Source\PSoC6\pdl\drivers\peripheral\scb/cy_scb_ezi2c.c **** * \param config
  47:Generated_Source\PSoC6\pdl\drivers\peripheral\scb/cy_scb_ezi2c.c **** * The pointer to the configuration structure \ref cy_stc_scb_ezi2c_config_t.
  48:Generated_Source\PSoC6\pdl\drivers\peripheral\scb/cy_scb_ezi2c.c **** *
  49:Generated_Source\PSoC6\pdl\drivers\peripheral\scb/cy_scb_ezi2c.c **** * \param context
  50:Generated_Source\PSoC6\pdl\drivers\peripheral\scb/cy_scb_ezi2c.c **** * The pointer to the context structure \ref cy_stc_scb_ezi2c_context_t
  51:Generated_Source\PSoC6\pdl\drivers\peripheral\scb/cy_scb_ezi2c.c **** * allocated by the user. The structure is used during the EZI2C operation for
  52:Generated_Source\PSoC6\pdl\drivers\peripheral\scb/cy_scb_ezi2c.c **** * internal configuration and data retention. The user must not modify anything
  53:Generated_Source\PSoC6\pdl\drivers\peripheral\scb/cy_scb_ezi2c.c **** * in this structure.
  54:Generated_Source\PSoC6\pdl\drivers\peripheral\scb/cy_scb_ezi2c.c **** *
  55:Generated_Source\PSoC6\pdl\drivers\peripheral\scb/cy_scb_ezi2c.c **** * \return
  56:Generated_Source\PSoC6\pdl\drivers\peripheral\scb/cy_scb_ezi2c.c **** * \ref cy_en_scb_ezi2c_status_t
  57:Generated_Source\PSoC6\pdl\drivers\peripheral\scb/cy_scb_ezi2c.c **** *
  58:Generated_Source\PSoC6\pdl\drivers\peripheral\scb/cy_scb_ezi2c.c **** * \note
  59:Generated_Source\PSoC6\pdl\drivers\peripheral\scb/cy_scb_ezi2c.c **** * Ensure that the SCB block is disabled before calling this function.
  60:Generated_Source\PSoC6\pdl\drivers\peripheral\scb/cy_scb_ezi2c.c **** *
  61:Generated_Source\PSoC6\pdl\drivers\peripheral\scb/cy_scb_ezi2c.c **** *******************************************************************************/
  62:Generated_Source\PSoC6\pdl\drivers\peripheral\scb/cy_scb_ezi2c.c **** cy_en_scb_ezi2c_status_t Cy_SCB_EZI2C_Init(CySCB_Type *base, cy_stc_scb_ezi2c_config_t const *confi
  63:Generated_Source\PSoC6\pdl\drivers\peripheral\scb/cy_scb_ezi2c.c ****                                            cy_stc_scb_ezi2c_context_t *context)
  64:Generated_Source\PSoC6\pdl\drivers\peripheral\scb/cy_scb_ezi2c.c **** {
  29              		.loc 1 64 0
  30              		.cfi_startproc
  31              		@ args = 0, pretend = 0, frame = 0
  32              		@ frame_needed = 0, uses_anonymous_args = 0
  33              		@ link register save eliminated.
  34              	.LVL0:
  65:Generated_Source\PSoC6\pdl\drivers\peripheral\scb/cy_scb_ezi2c.c ****     /* Input parameters verification */
  66:Generated_Source\PSoC6\pdl\drivers\peripheral\scb/cy_scb_ezi2c.c ****     if ((NULL == base) || (NULL == config) || (NULL == context))
  35              		.loc 1 66 0
  36 0000 0028     		cmp	r0, #0
  37 0002 57D0     		beq	.L13
  38              		.loc 1 66 0 is_stmt 0 discriminator 1
  39 0004 0029     		cmp	r1, #0
  40 0006 55D0     		beq	.L13
  41              		.loc 1 66 0 discriminator 2
  42 0008 002A     		cmp	r2, #0
  43 000a 53D0     		beq	.L13
  44 000c 0346     		mov	r3, r0
  67:Generated_Source\PSoC6\pdl\drivers\peripheral\scb/cy_scb_ezi2c.c ****     {
  68:Generated_Source\PSoC6\pdl\drivers\peripheral\scb/cy_scb_ezi2c.c ****         return CY_SCB_EZI2C_BAD_PARAM;
  69:Generated_Source\PSoC6\pdl\drivers\peripheral\scb/cy_scb_ezi2c.c ****     }
  70:Generated_Source\PSoC6\pdl\drivers\peripheral\scb/cy_scb_ezi2c.c **** 
ARM GAS  C:\Users\pearlstl\AppData\Local\Temp\ccHsEs7Z.s 			page 3


  71:Generated_Source\PSoC6\pdl\drivers\peripheral\scb/cy_scb_ezi2c.c ****     CY_ASSERT_L2(CY_SCB_IS_I2C_ADDR_VALID(config->slaveAddress1));
  72:Generated_Source\PSoC6\pdl\drivers\peripheral\scb/cy_scb_ezi2c.c ****     CY_ASSERT_L2(CY_SCB_IS_I2C_ADDR_VALID(config->slaveAddress2));
  73:Generated_Source\PSoC6\pdl\drivers\peripheral\scb/cy_scb_ezi2c.c ****     CY_ASSERT_L2(config->slaveAddress1 != config->slaveAddress2);
  74:Generated_Source\PSoC6\pdl\drivers\peripheral\scb/cy_scb_ezi2c.c ****     CY_ASSERT_L3(CY_SCB_EZI2C_IS_NUM_OF_ADDR_VALID  (config->numberOfAddresses));
  75:Generated_Source\PSoC6\pdl\drivers\peripheral\scb/cy_scb_ezi2c.c ****     CY_ASSERT_L3(CY_SCB_EZI2C_IS_SUB_ADDR_SIZE_VALID(config->subAddressSize));
  76:Generated_Source\PSoC6\pdl\drivers\peripheral\scb/cy_scb_ezi2c.c **** 
  77:Generated_Source\PSoC6\pdl\drivers\peripheral\scb/cy_scb_ezi2c.c ****     /* Configure the EZI2C interface */
  78:Generated_Source\PSoC6\pdl\drivers\peripheral\scb/cy_scb_ezi2c.c ****     SCB_CTRL(base) = _BOOL2FLD(SCB_CTRL_ADDR_ACCEPT, (config->numberOfAddresses == CY_SCB_EZI2C_TWO
  45              		.loc 1 78 0 is_stmt 1
  46 000e 0878     		ldrb	r0, [r1]	@ zero_extendqisi2
  47              	.LVL1:
  48 0010 0128     		cmp	r0, #1
  64:Generated_Source\PSoC6\pdl\drivers\peripheral\scb/cy_scb_ezi2c.c ****     /* Input parameters verification */
  49              		.loc 1 64 0
  50 0012 F0B4     		push	{r4, r5, r6, r7}
  51              		.cfi_def_cfa_offset 16
  52              		.cfi_offset 4, -16
  53              		.cfi_offset 5, -12
  54              		.cfi_offset 6, -8
  55              		.cfi_offset 7, -4
  56              		.loc 1 78 0
  57 0014 50D0     		beq	.L3
  79:Generated_Source\PSoC6\pdl\drivers\peripheral\scb/cy_scb_ezi2c.c ****                  _BOOL2FLD(SCB_CTRL_EC_AM_MODE, config->enableWakeFromSleep) |
  58              		.loc 1 79 0
  59 0016 0C79     		ldrb	r4, [r1, #4]	@ zero_extendqisi2
  80:Generated_Source\PSoC6\pdl\drivers\peripheral\scb/cy_scb_ezi2c.c ****                  SCB_CTRL_BYTE_MODE_Msk;
  81:Generated_Source\PSoC6\pdl\drivers\peripheral\scb/cy_scb_ezi2c.c **** 
  82:Generated_Source\PSoC6\pdl\drivers\peripheral\scb/cy_scb_ezi2c.c ****     SCB_I2C_CTRL(base) = CY_SCB_EZI2C_I2C_CTRL;
  60              		.loc 1 82 0
  61 0018 464E     		ldr	r6, .L23
  79:Generated_Source\PSoC6\pdl\drivers\peripheral\scb/cy_scb_ezi2c.c ****                  _BOOL2FLD(SCB_CTRL_EC_AM_MODE, config->enableWakeFromSleep) |
  62              		.loc 1 79 0
  63 001a 002C     		cmp	r4, #0
  64 001c 0CBF     		ite	eq
  65 001e 4FF40067 		moveq	r7, #2048
  66 0022 4FF41067 		movne	r7, #2304
  83:Generated_Source\PSoC6\pdl\drivers\peripheral\scb/cy_scb_ezi2c.c **** 
  84:Generated_Source\PSoC6\pdl\drivers\peripheral\scb/cy_scb_ezi2c.c ****     /* Configure the RX direction */
  85:Generated_Source\PSoC6\pdl\drivers\peripheral\scb/cy_scb_ezi2c.c ****     SCB_RX_CTRL(base)      = CY_SCB_EZI2C_RX_CTRL;
  67              		.loc 1 85 0
  68 0026 40F20715 		movw	r5, #263
  86:Generated_Source\PSoC6\pdl\drivers\peripheral\scb/cy_scb_ezi2c.c ****     SCB_RX_FIFO_CTRL(base) = 0UL;
  69              		.loc 1 86 0
  70 002a 0024     		movs	r4, #0
  78:Generated_Source\PSoC6\pdl\drivers\peripheral\scb/cy_scb_ezi2c.c ****                  _BOOL2FLD(SCB_CTRL_EC_AM_MODE, config->enableWakeFromSleep) |
  71              		.loc 1 78 0
  72 002c 1F60     		str	r7, [r3]
  82:Generated_Source\PSoC6\pdl\drivers\peripheral\scb/cy_scb_ezi2c.c **** 
  73              		.loc 1 82 0
  74 002e 1E66     		str	r6, [r3, #96]
  85:Generated_Source\PSoC6\pdl\drivers\peripheral\scb/cy_scb_ezi2c.c ****     SCB_RX_FIFO_CTRL(base) = 0UL;
  75              		.loc 1 85 0
  76 0030 C3F80053 		str	r5, [r3, #768]
  77              		.loc 1 86 0
  78 0034 C3F80443 		str	r4, [r3, #772]
  87:Generated_Source\PSoC6\pdl\drivers\peripheral\scb/cy_scb_ezi2c.c **** 
  88:Generated_Source\PSoC6\pdl\drivers\peripheral\scb/cy_scb_ezi2c.c ****     /* Set the default address and mask */
ARM GAS  C:\Users\pearlstl\AppData\Local\Temp\ccHsEs7Z.s 			page 4


  89:Generated_Source\PSoC6\pdl\drivers\peripheral\scb/cy_scb_ezi2c.c ****     if (config->numberOfAddresses == CY_SCB_EZI2C_ONE_ADDRESS)
  79              		.loc 1 89 0
  80 0038 0028     		cmp	r0, #0
  81 003a 4AD1     		bne	.L5
  90:Generated_Source\PSoC6\pdl\drivers\peripheral\scb/cy_scb_ezi2c.c ****     {
  91:Generated_Source\PSoC6\pdl\drivers\peripheral\scb/cy_scb_ezi2c.c ****         context->address2 = 0U;
  82              		.loc 1 91 0
  83 003c 5072     		strb	r0, [r2, #9]
  92:Generated_Source\PSoC6\pdl\drivers\peripheral\scb/cy_scb_ezi2c.c ****         Cy_SCB_EZI2C_SetAddress1(base, config->slaveAddress1, context);
  84              		.loc 1 92 0
  85 003e 4878     		ldrb	r0, [r1, #1]	@ zero_extendqisi2
  86              	.LVL2:
  87              	.LBB143:
  88              	.LBB144:
  93:Generated_Source\PSoC6\pdl\drivers\peripheral\scb/cy_scb_ezi2c.c ****     }
  94:Generated_Source\PSoC6\pdl\drivers\peripheral\scb/cy_scb_ezi2c.c ****     else
  95:Generated_Source\PSoC6\pdl\drivers\peripheral\scb/cy_scb_ezi2c.c ****     {
  96:Generated_Source\PSoC6\pdl\drivers\peripheral\scb/cy_scb_ezi2c.c ****         Cy_SCB_EZI2C_SetAddress1(base, config->slaveAddress1, context);
  97:Generated_Source\PSoC6\pdl\drivers\peripheral\scb/cy_scb_ezi2c.c ****         Cy_SCB_EZI2C_SetAddress2(base, config->slaveAddress2, context);
  98:Generated_Source\PSoC6\pdl\drivers\peripheral\scb/cy_scb_ezi2c.c ****     }
  99:Generated_Source\PSoC6\pdl\drivers\peripheral\scb/cy_scb_ezi2c.c **** 
 100:Generated_Source\PSoC6\pdl\drivers\peripheral\scb/cy_scb_ezi2c.c ****     /* Configure the TX direction */
 101:Generated_Source\PSoC6\pdl\drivers\peripheral\scb/cy_scb_ezi2c.c ****     SCB_TX_CTRL(base)      = CY_SCB_EZI2C_TX_CTRL;
 102:Generated_Source\PSoC6\pdl\drivers\peripheral\scb/cy_scb_ezi2c.c ****     SCB_TX_FIFO_CTRL(base) = CY_SCB_EZI2C_HALF_FIFO_SIZE;
 103:Generated_Source\PSoC6\pdl\drivers\peripheral\scb/cy_scb_ezi2c.c **** 
 104:Generated_Source\PSoC6\pdl\drivers\peripheral\scb/cy_scb_ezi2c.c ****     /* Configure the interrupt sources */
 105:Generated_Source\PSoC6\pdl\drivers\peripheral\scb/cy_scb_ezi2c.c ****     SCB_INTR_SPI_EC_MASK(base) = 0UL;
 106:Generated_Source\PSoC6\pdl\drivers\peripheral\scb/cy_scb_ezi2c.c ****     SCB_INTR_I2C_EC_MASK(base) = 0UL;
 107:Generated_Source\PSoC6\pdl\drivers\peripheral\scb/cy_scb_ezi2c.c ****     SCB_INTR_RX_MASK(base)     = 0UL;
 108:Generated_Source\PSoC6\pdl\drivers\peripheral\scb/cy_scb_ezi2c.c ****     SCB_INTR_TX_MASK(base)     = 0UL;
 109:Generated_Source\PSoC6\pdl\drivers\peripheral\scb/cy_scb_ezi2c.c ****     SCB_INTR_M_MASK(base)      = 0UL;
 110:Generated_Source\PSoC6\pdl\drivers\peripheral\scb/cy_scb_ezi2c.c ****     SCB_INTR_S_MASK(base)      = CY_SCB_EZI2C_SLAVE_INTR;
 111:Generated_Source\PSoC6\pdl\drivers\peripheral\scb/cy_scb_ezi2c.c **** 
 112:Generated_Source\PSoC6\pdl\drivers\peripheral\scb/cy_scb_ezi2c.c ****     /* Initialize the context */
 113:Generated_Source\PSoC6\pdl\drivers\peripheral\scb/cy_scb_ezi2c.c ****     context->status = 0UL;
 114:Generated_Source\PSoC6\pdl\drivers\peripheral\scb/cy_scb_ezi2c.c ****     context->state  = CY_SCB_EZI2C_STATE_IDLE;
 115:Generated_Source\PSoC6\pdl\drivers\peripheral\scb/cy_scb_ezi2c.c **** 
 116:Generated_Source\PSoC6\pdl\drivers\peripheral\scb/cy_scb_ezi2c.c ****     context->subAddrSize = config->subAddressSize;
 117:Generated_Source\PSoC6\pdl\drivers\peripheral\scb/cy_scb_ezi2c.c **** 
 118:Generated_Source\PSoC6\pdl\drivers\peripheral\scb/cy_scb_ezi2c.c ****     context->buf1Size      = 0UL;
 119:Generated_Source\PSoC6\pdl\drivers\peripheral\scb/cy_scb_ezi2c.c ****     context->buf1rwBondary = 0UL;
 120:Generated_Source\PSoC6\pdl\drivers\peripheral\scb/cy_scb_ezi2c.c ****     context->baseAddr1     = 0UL;
 121:Generated_Source\PSoC6\pdl\drivers\peripheral\scb/cy_scb_ezi2c.c **** 
 122:Generated_Source\PSoC6\pdl\drivers\peripheral\scb/cy_scb_ezi2c.c ****     context->buf1Size      = 0UL;
 123:Generated_Source\PSoC6\pdl\drivers\peripheral\scb/cy_scb_ezi2c.c ****     context->buf1rwBondary = 0UL;
 124:Generated_Source\PSoC6\pdl\drivers\peripheral\scb/cy_scb_ezi2c.c ****     context->baseAddr2     = 0UL;
 125:Generated_Source\PSoC6\pdl\drivers\peripheral\scb/cy_scb_ezi2c.c **** 
 126:Generated_Source\PSoC6\pdl\drivers\peripheral\scb/cy_scb_ezi2c.c ****     return CY_SCB_EZI2C_SUCCESS;
 127:Generated_Source\PSoC6\pdl\drivers\peripheral\scb/cy_scb_ezi2c.c **** }
 128:Generated_Source\PSoC6\pdl\drivers\peripheral\scb/cy_scb_ezi2c.c **** 
 129:Generated_Source\PSoC6\pdl\drivers\peripheral\scb/cy_scb_ezi2c.c **** 
 130:Generated_Source\PSoC6\pdl\drivers\peripheral\scb/cy_scb_ezi2c.c **** /*******************************************************************************
 131:Generated_Source\PSoC6\pdl\drivers\peripheral\scb/cy_scb_ezi2c.c **** *  Function Name: Cy_SCB_EZI2C_DeInit
 132:Generated_Source\PSoC6\pdl\drivers\peripheral\scb/cy_scb_ezi2c.c **** ****************************************************************************//**
 133:Generated_Source\PSoC6\pdl\drivers\peripheral\scb/cy_scb_ezi2c.c **** *
 134:Generated_Source\PSoC6\pdl\drivers\peripheral\scb/cy_scb_ezi2c.c **** * De-initializes the SCB block, returns the register values to default.
 135:Generated_Source\PSoC6\pdl\drivers\peripheral\scb/cy_scb_ezi2c.c **** *
ARM GAS  C:\Users\pearlstl\AppData\Local\Temp\ccHsEs7Z.s 			page 5


 136:Generated_Source\PSoC6\pdl\drivers\peripheral\scb/cy_scb_ezi2c.c **** * \param base
 137:Generated_Source\PSoC6\pdl\drivers\peripheral\scb/cy_scb_ezi2c.c **** * The pointer to the EZI2C SCB instance.
 138:Generated_Source\PSoC6\pdl\drivers\peripheral\scb/cy_scb_ezi2c.c **** *
 139:Generated_Source\PSoC6\pdl\drivers\peripheral\scb/cy_scb_ezi2c.c **** * \note
 140:Generated_Source\PSoC6\pdl\drivers\peripheral\scb/cy_scb_ezi2c.c **** * Ensure that the SCB block is disabled before calling this function.
 141:Generated_Source\PSoC6\pdl\drivers\peripheral\scb/cy_scb_ezi2c.c **** *
 142:Generated_Source\PSoC6\pdl\drivers\peripheral\scb/cy_scb_ezi2c.c **** *******************************************************************************/
 143:Generated_Source\PSoC6\pdl\drivers\peripheral\scb/cy_scb_ezi2c.c **** void Cy_SCB_EZI2C_DeInit(CySCB_Type *base)
 144:Generated_Source\PSoC6\pdl\drivers\peripheral\scb/cy_scb_ezi2c.c **** {
 145:Generated_Source\PSoC6\pdl\drivers\peripheral\scb/cy_scb_ezi2c.c ****     /* Return the block registers into the default state */
 146:Generated_Source\PSoC6\pdl\drivers\peripheral\scb/cy_scb_ezi2c.c ****     SCB_CTRL(base)     = CY_SCB_CTRL_DEF_VAL;
 147:Generated_Source\PSoC6\pdl\drivers\peripheral\scb/cy_scb_ezi2c.c ****     SCB_I2C_CTRL(base) = CY_SCB_I2C_CTRL_DEF_VAL;
 148:Generated_Source\PSoC6\pdl\drivers\peripheral\scb/cy_scb_ezi2c.c **** 
 149:Generated_Source\PSoC6\pdl\drivers\peripheral\scb/cy_scb_ezi2c.c ****     SCB_RX_CTRL(base)      = CY_SCB_RX_CTRL_DEF_VAL;
 150:Generated_Source\PSoC6\pdl\drivers\peripheral\scb/cy_scb_ezi2c.c ****     SCB_RX_FIFO_CTRL(base) = 0UL;
 151:Generated_Source\PSoC6\pdl\drivers\peripheral\scb/cy_scb_ezi2c.c ****     SCB_RX_MATCH(base)     = 0UL;
 152:Generated_Source\PSoC6\pdl\drivers\peripheral\scb/cy_scb_ezi2c.c **** 
 153:Generated_Source\PSoC6\pdl\drivers\peripheral\scb/cy_scb_ezi2c.c ****     SCB_TX_CTRL(base)      = CY_SCB_TX_CTRL_DEF_VAL;
 154:Generated_Source\PSoC6\pdl\drivers\peripheral\scb/cy_scb_ezi2c.c ****     SCB_TX_FIFO_CTRL(base) = 0UL;
 155:Generated_Source\PSoC6\pdl\drivers\peripheral\scb/cy_scb_ezi2c.c **** 
 156:Generated_Source\PSoC6\pdl\drivers\peripheral\scb/cy_scb_ezi2c.c ****     SCB_INTR_SPI_EC_MASK(base) = 0UL;
 157:Generated_Source\PSoC6\pdl\drivers\peripheral\scb/cy_scb_ezi2c.c ****     SCB_INTR_I2C_EC_MASK(base) = 0UL;
 158:Generated_Source\PSoC6\pdl\drivers\peripheral\scb/cy_scb_ezi2c.c ****     SCB_INTR_RX_MASK(base)     = 0UL;
 159:Generated_Source\PSoC6\pdl\drivers\peripheral\scb/cy_scb_ezi2c.c ****     SCB_INTR_TX_MASK(base)     = 0UL;
 160:Generated_Source\PSoC6\pdl\drivers\peripheral\scb/cy_scb_ezi2c.c ****     SCB_INTR_M_MASK(base)      = 0UL;
 161:Generated_Source\PSoC6\pdl\drivers\peripheral\scb/cy_scb_ezi2c.c ****     SCB_INTR_S_MASK(base)      = 0UL;
 162:Generated_Source\PSoC6\pdl\drivers\peripheral\scb/cy_scb_ezi2c.c **** }
 163:Generated_Source\PSoC6\pdl\drivers\peripheral\scb/cy_scb_ezi2c.c **** 
 164:Generated_Source\PSoC6\pdl\drivers\peripheral\scb/cy_scb_ezi2c.c **** 
 165:Generated_Source\PSoC6\pdl\drivers\peripheral\scb/cy_scb_ezi2c.c **** /*******************************************************************************
 166:Generated_Source\PSoC6\pdl\drivers\peripheral\scb/cy_scb_ezi2c.c **** * Function Name: Cy_SCB_EZI2C_Disable
 167:Generated_Source\PSoC6\pdl\drivers\peripheral\scb/cy_scb_ezi2c.c **** ****************************************************************************//**
 168:Generated_Source\PSoC6\pdl\drivers\peripheral\scb/cy_scb_ezi2c.c **** *
 169:Generated_Source\PSoC6\pdl\drivers\peripheral\scb/cy_scb_ezi2c.c **** * Disables the SCB block and clears the context statuses.
 170:Generated_Source\PSoC6\pdl\drivers\peripheral\scb/cy_scb_ezi2c.c **** * Note that after the block is disabled, the TX and RX FIFOs and hardware
 171:Generated_Source\PSoC6\pdl\drivers\peripheral\scb/cy_scb_ezi2c.c **** * statuses are cleared. Also, the hardware stops driving the output and
 172:Generated_Source\PSoC6\pdl\drivers\peripheral\scb/cy_scb_ezi2c.c **** * ignores the input.
 173:Generated_Source\PSoC6\pdl\drivers\peripheral\scb/cy_scb_ezi2c.c **** *
 174:Generated_Source\PSoC6\pdl\drivers\peripheral\scb/cy_scb_ezi2c.c **** * \param base
 175:Generated_Source\PSoC6\pdl\drivers\peripheral\scb/cy_scb_ezi2c.c **** * The pointer to the EZI2C SCB instance.
 176:Generated_Source\PSoC6\pdl\drivers\peripheral\scb/cy_scb_ezi2c.c **** *
 177:Generated_Source\PSoC6\pdl\drivers\peripheral\scb/cy_scb_ezi2c.c **** * \param context
 178:Generated_Source\PSoC6\pdl\drivers\peripheral\scb/cy_scb_ezi2c.c **** * The pointer to the context structure \ref cy_stc_scb_ezi2c_context_t
 179:Generated_Source\PSoC6\pdl\drivers\peripheral\scb/cy_scb_ezi2c.c **** * allocated by the user. The structure is used during the EZI2C operation for
 180:Generated_Source\PSoC6\pdl\drivers\peripheral\scb/cy_scb_ezi2c.c **** * internal configuration and data retention. The user must not modify anything
 181:Generated_Source\PSoC6\pdl\drivers\peripheral\scb/cy_scb_ezi2c.c **** * in this structure.
 182:Generated_Source\PSoC6\pdl\drivers\peripheral\scb/cy_scb_ezi2c.c **** *
 183:Generated_Source\PSoC6\pdl\drivers\peripheral\scb/cy_scb_ezi2c.c **** * \note
 184:Generated_Source\PSoC6\pdl\drivers\peripheral\scb/cy_scb_ezi2c.c **** * Calling this function while EZI2C is busy (the slave has been addressed and is
 185:Generated_Source\PSoC6\pdl\drivers\peripheral\scb/cy_scb_ezi2c.c **** * communicating with the master), may cause transaction corruption because
 186:Generated_Source\PSoC6\pdl\drivers\peripheral\scb/cy_scb_ezi2c.c **** * the hardware stops driving the output and ignores the input. Ensure that
 187:Generated_Source\PSoC6\pdl\drivers\peripheral\scb/cy_scb_ezi2c.c **** * the EZI2C slave is not busy before calling this function.
 188:Generated_Source\PSoC6\pdl\drivers\peripheral\scb/cy_scb_ezi2c.c **** *
 189:Generated_Source\PSoC6\pdl\drivers\peripheral\scb/cy_scb_ezi2c.c **** *******************************************************************************/
 190:Generated_Source\PSoC6\pdl\drivers\peripheral\scb/cy_scb_ezi2c.c **** void Cy_SCB_EZI2C_Disable(CySCB_Type *base, cy_stc_scb_ezi2c_context_t *context)
 191:Generated_Source\PSoC6\pdl\drivers\peripheral\scb/cy_scb_ezi2c.c **** {
 192:Generated_Source\PSoC6\pdl\drivers\peripheral\scb/cy_scb_ezi2c.c ****     SCB_CTRL(base) &= (uint32_t) ~SCB_CTRL_ENABLED_Msk;
ARM GAS  C:\Users\pearlstl\AppData\Local\Temp\ccHsEs7Z.s 			page 6


 193:Generated_Source\PSoC6\pdl\drivers\peripheral\scb/cy_scb_ezi2c.c **** 
 194:Generated_Source\PSoC6\pdl\drivers\peripheral\scb/cy_scb_ezi2c.c ****     /* Set the state to default and clear the statuses */
 195:Generated_Source\PSoC6\pdl\drivers\peripheral\scb/cy_scb_ezi2c.c ****     context->status = 0UL;
 196:Generated_Source\PSoC6\pdl\drivers\peripheral\scb/cy_scb_ezi2c.c ****     context->state  = CY_SCB_EZI2C_STATE_IDLE;
 197:Generated_Source\PSoC6\pdl\drivers\peripheral\scb/cy_scb_ezi2c.c **** }
 198:Generated_Source\PSoC6\pdl\drivers\peripheral\scb/cy_scb_ezi2c.c **** 
 199:Generated_Source\PSoC6\pdl\drivers\peripheral\scb/cy_scb_ezi2c.c **** 
 200:Generated_Source\PSoC6\pdl\drivers\peripheral\scb/cy_scb_ezi2c.c **** /*******************************************************************************
 201:Generated_Source\PSoC6\pdl\drivers\peripheral\scb/cy_scb_ezi2c.c **** * Function Name: Cy_SCB_EZI2C_DeepSleepCallback
 202:Generated_Source\PSoC6\pdl\drivers\peripheral\scb/cy_scb_ezi2c.c **** ****************************************************************************//**
 203:Generated_Source\PSoC6\pdl\drivers\peripheral\scb/cy_scb_ezi2c.c **** *
 204:Generated_Source\PSoC6\pdl\drivers\peripheral\scb/cy_scb_ezi2c.c **** * This function handles the transition of the EZI2C SCB into and out of
 205:Generated_Source\PSoC6\pdl\drivers\peripheral\scb/cy_scb_ezi2c.c **** * Deep Sleep mode. It prevents the device from entering Deep Sleep mode if 
 206:Generated_Source\PSoC6\pdl\drivers\peripheral\scb/cy_scb_ezi2c.c **** * the EZI2C slave is actively communicating.
 207:Generated_Source\PSoC6\pdl\drivers\peripheral\scb/cy_scb_ezi2c.c **** * The following behavior of the EZI2C depends on whether the SCB block is
 208:Generated_Source\PSoC6\pdl\drivers\peripheral\scb/cy_scb_ezi2c.c **** * wakeup-capable:
 209:Generated_Source\PSoC6\pdl\drivers\peripheral\scb/cy_scb_ezi2c.c **** * * <b>Wakeup-capable</b>: on the incoming EZI2C slave address, the slave
 210:Generated_Source\PSoC6\pdl\drivers\peripheral\scb/cy_scb_ezi2c.c **** *   receives the address and stretches the clock until the device is woken from
 211:Generated_Source\PSoC6\pdl\drivers\peripheral\scb/cy_scb_ezi2c.c **** *   Deep Sleep mode. If the slave address occurs before the device enters
 212:Generated_Source\PSoC6\pdl\drivers\peripheral\scb/cy_scb_ezi2c.c **** *   Deep Sleep mode, the device will not enter Deep Sleep mode.
 213:Generated_Source\PSoC6\pdl\drivers\peripheral\scb/cy_scb_ezi2c.c **** * * <b>Not wakeup-capable</b>: the EZI2C is disabled. It is enabled 
 214:Generated_Source\PSoC6\pdl\drivers\peripheral\scb/cy_scb_ezi2c.c **** *   when the device fails to enter Deep Sleep mode or it is woken from Deep Sleep
 215:Generated_Source\PSoC6\pdl\drivers\peripheral\scb/cy_scb_ezi2c.c **** *   mode. While the EZI2C is disabled, it stops driving the outputs and
 216:Generated_Source\PSoC6\pdl\drivers\peripheral\scb/cy_scb_ezi2c.c **** *   ignores the input lines. The slave NACKs all incoming addresses.
 217:Generated_Source\PSoC6\pdl\drivers\peripheral\scb/cy_scb_ezi2c.c **** *
 218:Generated_Source\PSoC6\pdl\drivers\peripheral\scb/cy_scb_ezi2c.c **** * This function must be called during execution of \ref Cy_SysPm_CpuEnterDeepSleep.
 219:Generated_Source\PSoC6\pdl\drivers\peripheral\scb/cy_scb_ezi2c.c **** * To do this, register this function as a callback before calling
 220:Generated_Source\PSoC6\pdl\drivers\peripheral\scb/cy_scb_ezi2c.c **** * \ref Cy_SysPm_CpuEnterDeepSleep : specify \ref CY_SYSPM_DEEPSLEEP as the callback
 221:Generated_Source\PSoC6\pdl\drivers\peripheral\scb/cy_scb_ezi2c.c **** * type and call \ref Cy_SysPm_RegisterCallback.
 222:Generated_Source\PSoC6\pdl\drivers\peripheral\scb/cy_scb_ezi2c.c **** *
 223:Generated_Source\PSoC6\pdl\drivers\peripheral\scb/cy_scb_ezi2c.c **** * \param callbackParams
 224:Generated_Source\PSoC6\pdl\drivers\peripheral\scb/cy_scb_ezi2c.c **** * The pointer to the callback parameters structure.
 225:Generated_Source\PSoC6\pdl\drivers\peripheral\scb/cy_scb_ezi2c.c **** * \ref cy_stc_syspm_callback_params_t.
 226:Generated_Source\PSoC6\pdl\drivers\peripheral\scb/cy_scb_ezi2c.c **** *
 227:Generated_Source\PSoC6\pdl\drivers\peripheral\scb/cy_scb_ezi2c.c **** * \param mode
 228:Generated_Source\PSoC6\pdl\drivers\peripheral\scb/cy_scb_ezi2c.c **** * Callback mode, see \ref cy_en_syspm_callback_mode_t
 229:Generated_Source\PSoC6\pdl\drivers\peripheral\scb/cy_scb_ezi2c.c **** *
 230:Generated_Source\PSoC6\pdl\drivers\peripheral\scb/cy_scb_ezi2c.c **** * \return
 231:Generated_Source\PSoC6\pdl\drivers\peripheral\scb/cy_scb_ezi2c.c **** * \ref cy_en_syspm_status_t
 232:Generated_Source\PSoC6\pdl\drivers\peripheral\scb/cy_scb_ezi2c.c **** *
 233:Generated_Source\PSoC6\pdl\drivers\peripheral\scb/cy_scb_ezi2c.c **** * \note
 234:Generated_Source\PSoC6\pdl\drivers\peripheral\scb/cy_scb_ezi2c.c **** * Only applicable for <b>rev-08 of the CY8CKIT-062-BLE</b>.
 235:Generated_Source\PSoC6\pdl\drivers\peripheral\scb/cy_scb_ezi2c.c **** * For proper operation, when the EZI2C slave is configured to be a wakeup source
 236:Generated_Source\PSoC6\pdl\drivers\peripheral\scb/cy_scb_ezi2c.c **** * from Deep Sleep mode, this function must be copied and modified by the user.
 237:Generated_Source\PSoC6\pdl\drivers\peripheral\scb/cy_scb_ezi2c.c **** * The EZI2C clock disable code must be inserted in the
 238:Generated_Source\PSoC6\pdl\drivers\peripheral\scb/cy_scb_ezi2c.c **** * \ref CY_SYSPM_BEFORE_TRANSITION and clock enable code in the 
 239:Generated_Source\PSoC6\pdl\drivers\peripheral\scb/cy_scb_ezi2c.c **** * \ref CY_SYSPM_AFTER_TRANSITION mode processing.
 240:Generated_Source\PSoC6\pdl\drivers\peripheral\scb/cy_scb_ezi2c.c **** *
 241:Generated_Source\PSoC6\pdl\drivers\peripheral\scb/cy_scb_ezi2c.c **** *******************************************************************************/
 242:Generated_Source\PSoC6\pdl\drivers\peripheral\scb/cy_scb_ezi2c.c **** cy_en_syspm_status_t Cy_SCB_EZI2C_DeepSleepCallback(cy_stc_syspm_callback_params_t *callbackParams,
 243:Generated_Source\PSoC6\pdl\drivers\peripheral\scb/cy_scb_ezi2c.c **** {
 244:Generated_Source\PSoC6\pdl\drivers\peripheral\scb/cy_scb_ezi2c.c ****     CySCB_Type *locBase = (CySCB_Type *) callbackParams->base;
 245:Generated_Source\PSoC6\pdl\drivers\peripheral\scb/cy_scb_ezi2c.c ****     cy_stc_scb_ezi2c_context_t *locContext = (cy_stc_scb_ezi2c_context_t *) callbackParams->context
 246:Generated_Source\PSoC6\pdl\drivers\peripheral\scb/cy_scb_ezi2c.c **** 
 247:Generated_Source\PSoC6\pdl\drivers\peripheral\scb/cy_scb_ezi2c.c ****     cy_en_syspm_status_t retStatus = CY_SYSPM_FAIL;
 248:Generated_Source\PSoC6\pdl\drivers\peripheral\scb/cy_scb_ezi2c.c **** 
 249:Generated_Source\PSoC6\pdl\drivers\peripheral\scb/cy_scb_ezi2c.c ****     switch (mode)
ARM GAS  C:\Users\pearlstl\AppData\Local\Temp\ccHsEs7Z.s 			page 7


 250:Generated_Source\PSoC6\pdl\drivers\peripheral\scb/cy_scb_ezi2c.c ****     {
 251:Generated_Source\PSoC6\pdl\drivers\peripheral\scb/cy_scb_ezi2c.c ****         case CY_SYSPM_CHECK_READY:
 252:Generated_Source\PSoC6\pdl\drivers\peripheral\scb/cy_scb_ezi2c.c ****         {
 253:Generated_Source\PSoC6\pdl\drivers\peripheral\scb/cy_scb_ezi2c.c ****             /* Disable the slave interrupt sources to protect the state */
 254:Generated_Source\PSoC6\pdl\drivers\peripheral\scb/cy_scb_ezi2c.c ****             Cy_SCB_SetSlaveInterruptMask(locBase, CY_SCB_CLEAR_ALL_INTR_SRC);
 255:Generated_Source\PSoC6\pdl\drivers\peripheral\scb/cy_scb_ezi2c.c **** 
 256:Generated_Source\PSoC6\pdl\drivers\peripheral\scb/cy_scb_ezi2c.c ****             /* If the EZI2C is in the IDLE state, it is ready for Deep Sleep
 257:Generated_Source\PSoC6\pdl\drivers\peripheral\scb/cy_scb_ezi2c.c ****             *  mode. Otherwise, it returns fail and restores the slave interrupt
 258:Generated_Source\PSoC6\pdl\drivers\peripheral\scb/cy_scb_ezi2c.c ****             * sources.
 259:Generated_Source\PSoC6\pdl\drivers\peripheral\scb/cy_scb_ezi2c.c ****             */
 260:Generated_Source\PSoC6\pdl\drivers\peripheral\scb/cy_scb_ezi2c.c ****             if (CY_SCB_EZI2C_STATE_IDLE == locContext->state)
 261:Generated_Source\PSoC6\pdl\drivers\peripheral\scb/cy_scb_ezi2c.c ****             {
 262:Generated_Source\PSoC6\pdl\drivers\peripheral\scb/cy_scb_ezi2c.c ****                 if (_FLD2BOOL(SCB_CTRL_EC_AM_MODE, SCB_CTRL(locBase)))
 263:Generated_Source\PSoC6\pdl\drivers\peripheral\scb/cy_scb_ezi2c.c ****                 {
 264:Generated_Source\PSoC6\pdl\drivers\peripheral\scb/cy_scb_ezi2c.c ****                     /* The SCB is wakeup-capable: do not restore the address
 265:Generated_Source\PSoC6\pdl\drivers\peripheral\scb/cy_scb_ezi2c.c ****                     * match interrupt source. The next transaction intended
 266:Generated_Source\PSoC6\pdl\drivers\peripheral\scb/cy_scb_ezi2c.c ****                     * for the slave will be paused (the SCL is stretched) before
 267:Generated_Source\PSoC6\pdl\drivers\peripheral\scb/cy_scb_ezi2c.c ****                     * the address is ACKed because the corresponding interrupt
 268:Generated_Source\PSoC6\pdl\drivers\peripheral\scb/cy_scb_ezi2c.c ****                     * source is disabled.
 269:Generated_Source\PSoC6\pdl\drivers\peripheral\scb/cy_scb_ezi2c.c ****                     */
 270:Generated_Source\PSoC6\pdl\drivers\peripheral\scb/cy_scb_ezi2c.c ****                     Cy_SCB_SetSlaveInterruptMask(locBase, CY_SCB_EZI2C_SLAVE_INTR_NO_ADDR);
 271:Generated_Source\PSoC6\pdl\drivers\peripheral\scb/cy_scb_ezi2c.c ****                 }
 272:Generated_Source\PSoC6\pdl\drivers\peripheral\scb/cy_scb_ezi2c.c ****                 else
 273:Generated_Source\PSoC6\pdl\drivers\peripheral\scb/cy_scb_ezi2c.c ****                 {
 274:Generated_Source\PSoC6\pdl\drivers\peripheral\scb/cy_scb_ezi2c.c ****                     /* The SCB is NOT wakeup-capable: disable the EZI2C.
 275:Generated_Source\PSoC6\pdl\drivers\peripheral\scb/cy_scb_ezi2c.c ****                     * The slave stops responding to the master until the
 276:Generated_Source\PSoC6\pdl\drivers\peripheral\scb/cy_scb_ezi2c.c ****                     * EZI2C is enabled. This happens when the device fails
 277:Generated_Source\PSoC6\pdl\drivers\peripheral\scb/cy_scb_ezi2c.c ****                     * to enter Deep Sleep mode or it is woken from Deep Sleep
 278:Generated_Source\PSoC6\pdl\drivers\peripheral\scb/cy_scb_ezi2c.c ****                     * mode.
 279:Generated_Source\PSoC6\pdl\drivers\peripheral\scb/cy_scb_ezi2c.c ****                     */
 280:Generated_Source\PSoC6\pdl\drivers\peripheral\scb/cy_scb_ezi2c.c ****                     Cy_SCB_EZI2C_Disable(locBase, locContext);
 281:Generated_Source\PSoC6\pdl\drivers\peripheral\scb/cy_scb_ezi2c.c ****                     Cy_SCB_SetSlaveInterruptMask(locBase, CY_SCB_EZI2C_SLAVE_INTR);
 282:Generated_Source\PSoC6\pdl\drivers\peripheral\scb/cy_scb_ezi2c.c ****                 }
 283:Generated_Source\PSoC6\pdl\drivers\peripheral\scb/cy_scb_ezi2c.c **** 
 284:Generated_Source\PSoC6\pdl\drivers\peripheral\scb/cy_scb_ezi2c.c ****                 retStatus = CY_SYSPM_SUCCESS;
 285:Generated_Source\PSoC6\pdl\drivers\peripheral\scb/cy_scb_ezi2c.c ****             }
 286:Generated_Source\PSoC6\pdl\drivers\peripheral\scb/cy_scb_ezi2c.c ****             else
 287:Generated_Source\PSoC6\pdl\drivers\peripheral\scb/cy_scb_ezi2c.c ****             {
 288:Generated_Source\PSoC6\pdl\drivers\peripheral\scb/cy_scb_ezi2c.c ****                 /* Restore the slave interrupt sources */
 289:Generated_Source\PSoC6\pdl\drivers\peripheral\scb/cy_scb_ezi2c.c ****                 Cy_SCB_SetSlaveInterruptMask(locBase, CY_SCB_EZI2C_SLAVE_INTR);
 290:Generated_Source\PSoC6\pdl\drivers\peripheral\scb/cy_scb_ezi2c.c ****             }
 291:Generated_Source\PSoC6\pdl\drivers\peripheral\scb/cy_scb_ezi2c.c ****         }
 292:Generated_Source\PSoC6\pdl\drivers\peripheral\scb/cy_scb_ezi2c.c ****         break;
 293:Generated_Source\PSoC6\pdl\drivers\peripheral\scb/cy_scb_ezi2c.c **** 
 294:Generated_Source\PSoC6\pdl\drivers\peripheral\scb/cy_scb_ezi2c.c ****         case CY_SYSPM_CHECK_FAIL:
 295:Generated_Source\PSoC6\pdl\drivers\peripheral\scb/cy_scb_ezi2c.c ****         {
 296:Generated_Source\PSoC6\pdl\drivers\peripheral\scb/cy_scb_ezi2c.c ****             /* The other driver is not ready for Deep Sleep mode. Restore
 297:Generated_Source\PSoC6\pdl\drivers\peripheral\scb/cy_scb_ezi2c.c ****             * Active mode configuration.
 298:Generated_Source\PSoC6\pdl\drivers\peripheral\scb/cy_scb_ezi2c.c ****             */
 299:Generated_Source\PSoC6\pdl\drivers\peripheral\scb/cy_scb_ezi2c.c **** 
 300:Generated_Source\PSoC6\pdl\drivers\peripheral\scb/cy_scb_ezi2c.c ****             if (_FLD2BOOL(SCB_CTRL_EC_AM_MODE, SCB_CTRL(locBase)))
 301:Generated_Source\PSoC6\pdl\drivers\peripheral\scb/cy_scb_ezi2c.c ****             {
 302:Generated_Source\PSoC6\pdl\drivers\peripheral\scb/cy_scb_ezi2c.c ****                 /* The SCB is wakeup-capable: restore the slave interrupt
 303:Generated_Source\PSoC6\pdl\drivers\peripheral\scb/cy_scb_ezi2c.c ****                 * sources.
 304:Generated_Source\PSoC6\pdl\drivers\peripheral\scb/cy_scb_ezi2c.c ****                 */
 305:Generated_Source\PSoC6\pdl\drivers\peripheral\scb/cy_scb_ezi2c.c ****                 Cy_SCB_SetSlaveInterruptMask(locBase, CY_SCB_EZI2C_SLAVE_INTR);
 306:Generated_Source\PSoC6\pdl\drivers\peripheral\scb/cy_scb_ezi2c.c ****             }
ARM GAS  C:\Users\pearlstl\AppData\Local\Temp\ccHsEs7Z.s 			page 8


 307:Generated_Source\PSoC6\pdl\drivers\peripheral\scb/cy_scb_ezi2c.c ****             else
 308:Generated_Source\PSoC6\pdl\drivers\peripheral\scb/cy_scb_ezi2c.c ****             {
 309:Generated_Source\PSoC6\pdl\drivers\peripheral\scb/cy_scb_ezi2c.c ****                 /* The SCB is NOT wakeup-capable: enable the slave to operate. */
 310:Generated_Source\PSoC6\pdl\drivers\peripheral\scb/cy_scb_ezi2c.c ****                 Cy_SCB_EZI2C_Enable(locBase);
 311:Generated_Source\PSoC6\pdl\drivers\peripheral\scb/cy_scb_ezi2c.c ****             }
 312:Generated_Source\PSoC6\pdl\drivers\peripheral\scb/cy_scb_ezi2c.c **** 
 313:Generated_Source\PSoC6\pdl\drivers\peripheral\scb/cy_scb_ezi2c.c ****             retStatus = CY_SYSPM_SUCCESS;
 314:Generated_Source\PSoC6\pdl\drivers\peripheral\scb/cy_scb_ezi2c.c ****         }
 315:Generated_Source\PSoC6\pdl\drivers\peripheral\scb/cy_scb_ezi2c.c ****         break;
 316:Generated_Source\PSoC6\pdl\drivers\peripheral\scb/cy_scb_ezi2c.c **** 
 317:Generated_Source\PSoC6\pdl\drivers\peripheral\scb/cy_scb_ezi2c.c ****         case CY_SYSPM_BEFORE_TRANSITION:
 318:Generated_Source\PSoC6\pdl\drivers\peripheral\scb/cy_scb_ezi2c.c ****         {
 319:Generated_Source\PSoC6\pdl\drivers\peripheral\scb/cy_scb_ezi2c.c ****             /* This code executes inside the critical section and enabling the
 320:Generated_Source\PSoC6\pdl\drivers\peripheral\scb/cy_scb_ezi2c.c ****             * active interrupt source makes the interrupt pending in the NVIC.
 321:Generated_Source\PSoC6\pdl\drivers\peripheral\scb/cy_scb_ezi2c.c ****             * However, the interrupt processing is delayed until the code exists
 322:Generated_Source\PSoC6\pdl\drivers\peripheral\scb/cy_scb_ezi2c.c ****             * the critical section. The pending interrupt force WFI instruction
 323:Generated_Source\PSoC6\pdl\drivers\peripheral\scb/cy_scb_ezi2c.c ****             * does nothing and the device remains in Active mode.
 324:Generated_Source\PSoC6\pdl\drivers\peripheral\scb/cy_scb_ezi2c.c ****             */
 325:Generated_Source\PSoC6\pdl\drivers\peripheral\scb/cy_scb_ezi2c.c **** 
 326:Generated_Source\PSoC6\pdl\drivers\peripheral\scb/cy_scb_ezi2c.c ****             if (_FLD2BOOL(SCB_CTRL_EC_AM_MODE, SCB_CTRL(locBase)))
 327:Generated_Source\PSoC6\pdl\drivers\peripheral\scb/cy_scb_ezi2c.c ****             {
 328:Generated_Source\PSoC6\pdl\drivers\peripheral\scb/cy_scb_ezi2c.c ****                 /* The SCB is wakeup-capable: enable the I2C wakeup interrupt
 329:Generated_Source\PSoC6\pdl\drivers\peripheral\scb/cy_scb_ezi2c.c ****                 * source. If any transaction was paused the the EZI2C interrupt
 330:Generated_Source\PSoC6\pdl\drivers\peripheral\scb/cy_scb_ezi2c.c ****                 * becomes pending and prevents entering Deep Sleep mode.
 331:Generated_Source\PSoC6\pdl\drivers\peripheral\scb/cy_scb_ezi2c.c ****                 * The transaction continues as soon as the global interrupts
 332:Generated_Source\PSoC6\pdl\drivers\peripheral\scb/cy_scb_ezi2c.c ****                 * are enabled.
 333:Generated_Source\PSoC6\pdl\drivers\peripheral\scb/cy_scb_ezi2c.c ****                 */
 334:Generated_Source\PSoC6\pdl\drivers\peripheral\scb/cy_scb_ezi2c.c ****                 Cy_SCB_SetI2CInterruptMask(locBase, CY_SCB_I2C_INTR_WAKEUP);
 335:Generated_Source\PSoC6\pdl\drivers\peripheral\scb/cy_scb_ezi2c.c **** 
 336:Generated_Source\PSoC6\pdl\drivers\peripheral\scb/cy_scb_ezi2c.c ****                 /* Disable SCB clock */
 337:Generated_Source\PSoC6\pdl\drivers\peripheral\scb/cy_scb_ezi2c.c ****                 SCB_I2C_CFG(locBase) &= (uint32_t) ~CY_SCB_I2C_CFG_CLK_ENABLE_Msk;
 338:Generated_Source\PSoC6\pdl\drivers\peripheral\scb/cy_scb_ezi2c.c ****                             
 339:Generated_Source\PSoC6\pdl\drivers\peripheral\scb/cy_scb_ezi2c.c ****                 /* IMPORTANT (replace line above for the CY8CKIT-062 rev-08): 
 340:Generated_Source\PSoC6\pdl\drivers\peripheral\scb/cy_scb_ezi2c.c ****                 * for proper entering Deep Sleep mode the I2C clock must be disabled. 
 341:Generated_Source\PSoC6\pdl\drivers\peripheral\scb/cy_scb_ezi2c.c ****                 * This code must be inserted by the user because the driver 
 342:Generated_Source\PSoC6\pdl\drivers\peripheral\scb/cy_scb_ezi2c.c ****                 * does not have access to the clock.
 343:Generated_Source\PSoC6\pdl\drivers\peripheral\scb/cy_scb_ezi2c.c ****                 */
 344:Generated_Source\PSoC6\pdl\drivers\peripheral\scb/cy_scb_ezi2c.c ****             }
 345:Generated_Source\PSoC6\pdl\drivers\peripheral\scb/cy_scb_ezi2c.c **** 
 346:Generated_Source\PSoC6\pdl\drivers\peripheral\scb/cy_scb_ezi2c.c ****             retStatus = CY_SYSPM_SUCCESS;
 347:Generated_Source\PSoC6\pdl\drivers\peripheral\scb/cy_scb_ezi2c.c ****         }
 348:Generated_Source\PSoC6\pdl\drivers\peripheral\scb/cy_scb_ezi2c.c ****         break;
 349:Generated_Source\PSoC6\pdl\drivers\peripheral\scb/cy_scb_ezi2c.c **** 
 350:Generated_Source\PSoC6\pdl\drivers\peripheral\scb/cy_scb_ezi2c.c ****         case CY_SYSPM_AFTER_TRANSITION:
 351:Generated_Source\PSoC6\pdl\drivers\peripheral\scb/cy_scb_ezi2c.c ****         {
 352:Generated_Source\PSoC6\pdl\drivers\peripheral\scb/cy_scb_ezi2c.c ****             if (_FLD2BOOL(SCB_CTRL_EC_AM_MODE, SCB_CTRL(locBase)))
 353:Generated_Source\PSoC6\pdl\drivers\peripheral\scb/cy_scb_ezi2c.c ****             {
 354:Generated_Source\PSoC6\pdl\drivers\peripheral\scb/cy_scb_ezi2c.c ****                 /* Enable SCB clock */
 355:Generated_Source\PSoC6\pdl\drivers\peripheral\scb/cy_scb_ezi2c.c ****                 SCB_I2C_CFG(locBase) |= CY_SCB_I2C_CFG_CLK_ENABLE_Msk;
 356:Generated_Source\PSoC6\pdl\drivers\peripheral\scb/cy_scb_ezi2c.c ****                 
 357:Generated_Source\PSoC6\pdl\drivers\peripheral\scb/cy_scb_ezi2c.c ****                 /* IMPORTANT (replace line above for the CY8CKIT-062 rev-08): 
 358:Generated_Source\PSoC6\pdl\drivers\peripheral\scb/cy_scb_ezi2c.c ****                 * for proper exiting Deep Sleep mode, the I2C clock must be enabled. 
 359:Generated_Source\PSoC6\pdl\drivers\peripheral\scb/cy_scb_ezi2c.c ****                 * This code must be inserted by the user because the driver 
 360:Generated_Source\PSoC6\pdl\drivers\peripheral\scb/cy_scb_ezi2c.c ****                 * does not have access to the clock.
 361:Generated_Source\PSoC6\pdl\drivers\peripheral\scb/cy_scb_ezi2c.c ****                 */
 362:Generated_Source\PSoC6\pdl\drivers\peripheral\scb/cy_scb_ezi2c.c **** 
 363:Generated_Source\PSoC6\pdl\drivers\peripheral\scb/cy_scb_ezi2c.c ****                 /* The SCB is wakeup-capable: disable the I2C wakeup interrupt
ARM GAS  C:\Users\pearlstl\AppData\Local\Temp\ccHsEs7Z.s 			page 9


 364:Generated_Source\PSoC6\pdl\drivers\peripheral\scb/cy_scb_ezi2c.c ****                 * source and restore slave interrupt sources.
 365:Generated_Source\PSoC6\pdl\drivers\peripheral\scb/cy_scb_ezi2c.c ****                 */
 366:Generated_Source\PSoC6\pdl\drivers\peripheral\scb/cy_scb_ezi2c.c ****                 Cy_SCB_SetI2CInterruptMask  (locBase, CY_SCB_CLEAR_ALL_INTR_SRC);
 367:Generated_Source\PSoC6\pdl\drivers\peripheral\scb/cy_scb_ezi2c.c ****                 Cy_SCB_SetSlaveInterruptMask(locBase, CY_SCB_EZI2C_SLAVE_INTR);
 368:Generated_Source\PSoC6\pdl\drivers\peripheral\scb/cy_scb_ezi2c.c ****             }
 369:Generated_Source\PSoC6\pdl\drivers\peripheral\scb/cy_scb_ezi2c.c ****             else
 370:Generated_Source\PSoC6\pdl\drivers\peripheral\scb/cy_scb_ezi2c.c ****             {
 371:Generated_Source\PSoC6\pdl\drivers\peripheral\scb/cy_scb_ezi2c.c ****                 /* The SCB is NOT wakeup-capable: enable the slave to operate */
 372:Generated_Source\PSoC6\pdl\drivers\peripheral\scb/cy_scb_ezi2c.c ****                 Cy_SCB_EZI2C_Enable(locBase);
 373:Generated_Source\PSoC6\pdl\drivers\peripheral\scb/cy_scb_ezi2c.c ****             }
 374:Generated_Source\PSoC6\pdl\drivers\peripheral\scb/cy_scb_ezi2c.c **** 
 375:Generated_Source\PSoC6\pdl\drivers\peripheral\scb/cy_scb_ezi2c.c ****             retStatus = CY_SYSPM_SUCCESS;
 376:Generated_Source\PSoC6\pdl\drivers\peripheral\scb/cy_scb_ezi2c.c ****         }
 377:Generated_Source\PSoC6\pdl\drivers\peripheral\scb/cy_scb_ezi2c.c ****         break;
 378:Generated_Source\PSoC6\pdl\drivers\peripheral\scb/cy_scb_ezi2c.c **** 
 379:Generated_Source\PSoC6\pdl\drivers\peripheral\scb/cy_scb_ezi2c.c ****         default:
 380:Generated_Source\PSoC6\pdl\drivers\peripheral\scb/cy_scb_ezi2c.c ****             break;
 381:Generated_Source\PSoC6\pdl\drivers\peripheral\scb/cy_scb_ezi2c.c ****     }
 382:Generated_Source\PSoC6\pdl\drivers\peripheral\scb/cy_scb_ezi2c.c **** 
 383:Generated_Source\PSoC6\pdl\drivers\peripheral\scb/cy_scb_ezi2c.c ****     return (retStatus);
 384:Generated_Source\PSoC6\pdl\drivers\peripheral\scb/cy_scb_ezi2c.c **** }
 385:Generated_Source\PSoC6\pdl\drivers\peripheral\scb/cy_scb_ezi2c.c **** 
 386:Generated_Source\PSoC6\pdl\drivers\peripheral\scb/cy_scb_ezi2c.c **** 
 387:Generated_Source\PSoC6\pdl\drivers\peripheral\scb/cy_scb_ezi2c.c **** /*******************************************************************************
 388:Generated_Source\PSoC6\pdl\drivers\peripheral\scb/cy_scb_ezi2c.c **** * Function Name: Cy_SCB_EZI2C_HibernateCallback
 389:Generated_Source\PSoC6\pdl\drivers\peripheral\scb/cy_scb_ezi2c.c **** ****************************************************************************//**
 390:Generated_Source\PSoC6\pdl\drivers\peripheral\scb/cy_scb_ezi2c.c **** *
 391:Generated_Source\PSoC6\pdl\drivers\peripheral\scb/cy_scb_ezi2c.c **** * This function handles the transition of the EZI2C SCB block into Hibernate
 392:Generated_Source\PSoC6\pdl\drivers\peripheral\scb/cy_scb_ezi2c.c **** * mode. It prevents the device from entering Hibernate mode if the EZI2C slave 
 393:Generated_Source\PSoC6\pdl\drivers\peripheral\scb/cy_scb_ezi2c.c **** * is actively communicating.
 394:Generated_Source\PSoC6\pdl\drivers\peripheral\scb/cy_scb_ezi2c.c **** * If the EZI2C is ready to enter Hibernate mode, it is disabled. If the device
 395:Generated_Source\PSoC6\pdl\drivers\peripheral\scb/cy_scb_ezi2c.c **** * fails to enter Hibernate mode, the EZI2C is enabled. While the EZI2C
 396:Generated_Source\PSoC6\pdl\drivers\peripheral\scb/cy_scb_ezi2c.c **** * is disabled, it stops driving the output and ignores the inputs.
 397:Generated_Source\PSoC6\pdl\drivers\peripheral\scb/cy_scb_ezi2c.c **** * The slave NACKs all incoming addresses.
 398:Generated_Source\PSoC6\pdl\drivers\peripheral\scb/cy_scb_ezi2c.c **** *
 399:Generated_Source\PSoC6\pdl\drivers\peripheral\scb/cy_scb_ezi2c.c **** * This function must be called during execution of \ref Cy_SysPm_SystemEnterHibernate.
 400:Generated_Source\PSoC6\pdl\drivers\peripheral\scb/cy_scb_ezi2c.c **** * To do this, register this function as a callback before calling
 401:Generated_Source\PSoC6\pdl\drivers\peripheral\scb/cy_scb_ezi2c.c **** * \ref Cy_SysPm_SystemEnterHibernate : specify \ref CY_SYSPM_HIBERNATE as the callback
 402:Generated_Source\PSoC6\pdl\drivers\peripheral\scb/cy_scb_ezi2c.c **** * type and call \ref Cy_SysPm_RegisterCallback.
 403:Generated_Source\PSoC6\pdl\drivers\peripheral\scb/cy_scb_ezi2c.c **** *
 404:Generated_Source\PSoC6\pdl\drivers\peripheral\scb/cy_scb_ezi2c.c **** * \param callbackParams
 405:Generated_Source\PSoC6\pdl\drivers\peripheral\scb/cy_scb_ezi2c.c **** * The pointer to the callback parameters structure
 406:Generated_Source\PSoC6\pdl\drivers\peripheral\scb/cy_scb_ezi2c.c **** * \ref cy_stc_syspm_callback_params_t.
 407:Generated_Source\PSoC6\pdl\drivers\peripheral\scb/cy_scb_ezi2c.c **** *
 408:Generated_Source\PSoC6\pdl\drivers\peripheral\scb/cy_scb_ezi2c.c **** * \param mode
 409:Generated_Source\PSoC6\pdl\drivers\peripheral\scb/cy_scb_ezi2c.c **** * Callback mode, see \ref cy_en_syspm_callback_mode_t
 410:Generated_Source\PSoC6\pdl\drivers\peripheral\scb/cy_scb_ezi2c.c **** *
 411:Generated_Source\PSoC6\pdl\drivers\peripheral\scb/cy_scb_ezi2c.c **** * \return
 412:Generated_Source\PSoC6\pdl\drivers\peripheral\scb/cy_scb_ezi2c.c **** * \ref cy_en_syspm_status_t
 413:Generated_Source\PSoC6\pdl\drivers\peripheral\scb/cy_scb_ezi2c.c **** *
 414:Generated_Source\PSoC6\pdl\drivers\peripheral\scb/cy_scb_ezi2c.c **** *******************************************************************************/
 415:Generated_Source\PSoC6\pdl\drivers\peripheral\scb/cy_scb_ezi2c.c **** cy_en_syspm_status_t Cy_SCB_EZI2C_HibernateCallback(cy_stc_syspm_callback_params_t *callbackParams,
 416:Generated_Source\PSoC6\pdl\drivers\peripheral\scb/cy_scb_ezi2c.c **** {
 417:Generated_Source\PSoC6\pdl\drivers\peripheral\scb/cy_scb_ezi2c.c ****     CySCB_Type *locBase = (CySCB_Type *) callbackParams->base;
 418:Generated_Source\PSoC6\pdl\drivers\peripheral\scb/cy_scb_ezi2c.c ****     cy_stc_scb_ezi2c_context_t *locContext = (cy_stc_scb_ezi2c_context_t *) callbackParams->context
 419:Generated_Source\PSoC6\pdl\drivers\peripheral\scb/cy_scb_ezi2c.c **** 
 420:Generated_Source\PSoC6\pdl\drivers\peripheral\scb/cy_scb_ezi2c.c ****     cy_en_syspm_status_t retStatus = CY_SYSPM_FAIL;
ARM GAS  C:\Users\pearlstl\AppData\Local\Temp\ccHsEs7Z.s 			page 10


 421:Generated_Source\PSoC6\pdl\drivers\peripheral\scb/cy_scb_ezi2c.c **** 
 422:Generated_Source\PSoC6\pdl\drivers\peripheral\scb/cy_scb_ezi2c.c ****     switch (mode)
 423:Generated_Source\PSoC6\pdl\drivers\peripheral\scb/cy_scb_ezi2c.c ****     {
 424:Generated_Source\PSoC6\pdl\drivers\peripheral\scb/cy_scb_ezi2c.c ****         case CY_SYSPM_CHECK_READY:
 425:Generated_Source\PSoC6\pdl\drivers\peripheral\scb/cy_scb_ezi2c.c ****         {
 426:Generated_Source\PSoC6\pdl\drivers\peripheral\scb/cy_scb_ezi2c.c ****             /* Disable the slave interrupt sources to protect the state */
 427:Generated_Source\PSoC6\pdl\drivers\peripheral\scb/cy_scb_ezi2c.c ****             Cy_SCB_SetSlaveInterruptMask(locBase, CY_SCB_CLEAR_ALL_INTR_SRC);
 428:Generated_Source\PSoC6\pdl\drivers\peripheral\scb/cy_scb_ezi2c.c **** 
 429:Generated_Source\PSoC6\pdl\drivers\peripheral\scb/cy_scb_ezi2c.c ****             /* If the EZI2C is in the IDLE state, it is ready for Hibernate mode.
 430:Generated_Source\PSoC6\pdl\drivers\peripheral\scb/cy_scb_ezi2c.c ****             * Otherwise, returns fail and restores the slave interrupt sources.
 431:Generated_Source\PSoC6\pdl\drivers\peripheral\scb/cy_scb_ezi2c.c ****             */
 432:Generated_Source\PSoC6\pdl\drivers\peripheral\scb/cy_scb_ezi2c.c ****             if (CY_SCB_EZI2C_STATE_IDLE == locContext->state)
 433:Generated_Source\PSoC6\pdl\drivers\peripheral\scb/cy_scb_ezi2c.c ****             {
 434:Generated_Source\PSoC6\pdl\drivers\peripheral\scb/cy_scb_ezi2c.c ****                 /* Disable the EZI2C. It stops responding to the master until
 435:Generated_Source\PSoC6\pdl\drivers\peripheral\scb/cy_scb_ezi2c.c ****                 * the EZI2C is enabled. This happens if the device fails to
 436:Generated_Source\PSoC6\pdl\drivers\peripheral\scb/cy_scb_ezi2c.c ****                 * enter Hibernate mode.
 437:Generated_Source\PSoC6\pdl\drivers\peripheral\scb/cy_scb_ezi2c.c ****                 */
 438:Generated_Source\PSoC6\pdl\drivers\peripheral\scb/cy_scb_ezi2c.c ****                 Cy_SCB_EZI2C_Disable(locBase, locContext);
 439:Generated_Source\PSoC6\pdl\drivers\peripheral\scb/cy_scb_ezi2c.c **** 
 440:Generated_Source\PSoC6\pdl\drivers\peripheral\scb/cy_scb_ezi2c.c ****                 retStatus = CY_SYSPM_SUCCESS;
 441:Generated_Source\PSoC6\pdl\drivers\peripheral\scb/cy_scb_ezi2c.c ****             }
 442:Generated_Source\PSoC6\pdl\drivers\peripheral\scb/cy_scb_ezi2c.c **** 
 443:Generated_Source\PSoC6\pdl\drivers\peripheral\scb/cy_scb_ezi2c.c ****             /* Restore the slave interrupt sources */
 444:Generated_Source\PSoC6\pdl\drivers\peripheral\scb/cy_scb_ezi2c.c ****             Cy_SCB_SetSlaveInterruptMask(locBase, CY_SCB_EZI2C_SLAVE_INTR);
 445:Generated_Source\PSoC6\pdl\drivers\peripheral\scb/cy_scb_ezi2c.c ****         }
 446:Generated_Source\PSoC6\pdl\drivers\peripheral\scb/cy_scb_ezi2c.c ****         break;
 447:Generated_Source\PSoC6\pdl\drivers\peripheral\scb/cy_scb_ezi2c.c **** 
 448:Generated_Source\PSoC6\pdl\drivers\peripheral\scb/cy_scb_ezi2c.c ****         case CY_SYSPM_CHECK_FAIL:
 449:Generated_Source\PSoC6\pdl\drivers\peripheral\scb/cy_scb_ezi2c.c ****         {
 450:Generated_Source\PSoC6\pdl\drivers\peripheral\scb/cy_scb_ezi2c.c ****             /* The other driver is not ready for Hibernate mode. Restore the
 451:Generated_Source\PSoC6\pdl\drivers\peripheral\scb/cy_scb_ezi2c.c ****             * Active mode configuration.
 452:Generated_Source\PSoC6\pdl\drivers\peripheral\scb/cy_scb_ezi2c.c ****             */
 453:Generated_Source\PSoC6\pdl\drivers\peripheral\scb/cy_scb_ezi2c.c **** 
 454:Generated_Source\PSoC6\pdl\drivers\peripheral\scb/cy_scb_ezi2c.c ****             /* Enable the slave to operate */
 455:Generated_Source\PSoC6\pdl\drivers\peripheral\scb/cy_scb_ezi2c.c ****             Cy_SCB_EZI2C_Enable(locBase);
 456:Generated_Source\PSoC6\pdl\drivers\peripheral\scb/cy_scb_ezi2c.c **** 
 457:Generated_Source\PSoC6\pdl\drivers\peripheral\scb/cy_scb_ezi2c.c ****             retStatus = CY_SYSPM_SUCCESS;
 458:Generated_Source\PSoC6\pdl\drivers\peripheral\scb/cy_scb_ezi2c.c ****         }
 459:Generated_Source\PSoC6\pdl\drivers\peripheral\scb/cy_scb_ezi2c.c ****         break;
 460:Generated_Source\PSoC6\pdl\drivers\peripheral\scb/cy_scb_ezi2c.c **** 
 461:Generated_Source\PSoC6\pdl\drivers\peripheral\scb/cy_scb_ezi2c.c ****         case CY_SYSPM_BEFORE_TRANSITION:
 462:Generated_Source\PSoC6\pdl\drivers\peripheral\scb/cy_scb_ezi2c.c ****         case CY_SYSPM_AFTER_TRANSITION:
 463:Generated_Source\PSoC6\pdl\drivers\peripheral\scb/cy_scb_ezi2c.c ****         {
 464:Generated_Source\PSoC6\pdl\drivers\peripheral\scb/cy_scb_ezi2c.c ****             /* The SCB is not capable of waking up from Hibernate mode: do nothing */
 465:Generated_Source\PSoC6\pdl\drivers\peripheral\scb/cy_scb_ezi2c.c ****             retStatus = CY_SYSPM_SUCCESS;
 466:Generated_Source\PSoC6\pdl\drivers\peripheral\scb/cy_scb_ezi2c.c ****         }
 467:Generated_Source\PSoC6\pdl\drivers\peripheral\scb/cy_scb_ezi2c.c ****         break;
 468:Generated_Source\PSoC6\pdl\drivers\peripheral\scb/cy_scb_ezi2c.c **** 
 469:Generated_Source\PSoC6\pdl\drivers\peripheral\scb/cy_scb_ezi2c.c ****         default:
 470:Generated_Source\PSoC6\pdl\drivers\peripheral\scb/cy_scb_ezi2c.c ****         break;
 471:Generated_Source\PSoC6\pdl\drivers\peripheral\scb/cy_scb_ezi2c.c ****     }
 472:Generated_Source\PSoC6\pdl\drivers\peripheral\scb/cy_scb_ezi2c.c **** 
 473:Generated_Source\PSoC6\pdl\drivers\peripheral\scb/cy_scb_ezi2c.c ****     return (retStatus);
 474:Generated_Source\PSoC6\pdl\drivers\peripheral\scb/cy_scb_ezi2c.c **** }
 475:Generated_Source\PSoC6\pdl\drivers\peripheral\scb/cy_scb_ezi2c.c **** 
 476:Generated_Source\PSoC6\pdl\drivers\peripheral\scb/cy_scb_ezi2c.c **** 
 477:Generated_Source\PSoC6\pdl\drivers\peripheral\scb/cy_scb_ezi2c.c **** /*******************************************************************************
ARM GAS  C:\Users\pearlstl\AppData\Local\Temp\ccHsEs7Z.s 			page 11


 478:Generated_Source\PSoC6\pdl\drivers\peripheral\scb/cy_scb_ezi2c.c **** * Function Name: Cy_SCB_EZI2C_GetActivity
 479:Generated_Source\PSoC6\pdl\drivers\peripheral\scb/cy_scb_ezi2c.c **** ****************************************************************************//**
 480:Generated_Source\PSoC6\pdl\drivers\peripheral\scb/cy_scb_ezi2c.c **** *
 481:Generated_Source\PSoC6\pdl\drivers\peripheral\scb/cy_scb_ezi2c.c **** * Returns a non-zero value if an I2C Read or Write cycle has occurred since the
 482:Generated_Source\PSoC6\pdl\drivers\peripheral\scb/cy_scb_ezi2c.c **** * last time this function was called. All flags are reset to zero at the end of
 483:Generated_Source\PSoC6\pdl\drivers\peripheral\scb/cy_scb_ezi2c.c **** * this function call, except the \ref CY_SCB_EZI2C_STATUS_BUSY.
 484:Generated_Source\PSoC6\pdl\drivers\peripheral\scb/cy_scb_ezi2c.c **** *
 485:Generated_Source\PSoC6\pdl\drivers\peripheral\scb/cy_scb_ezi2c.c **** * \param base
 486:Generated_Source\PSoC6\pdl\drivers\peripheral\scb/cy_scb_ezi2c.c **** * The pointer to the EZI2C SCB instance.
 487:Generated_Source\PSoC6\pdl\drivers\peripheral\scb/cy_scb_ezi2c.c **** *
 488:Generated_Source\PSoC6\pdl\drivers\peripheral\scb/cy_scb_ezi2c.c **** * \param context
 489:Generated_Source\PSoC6\pdl\drivers\peripheral\scb/cy_scb_ezi2c.c **** * The pointer to the context structure \ref cy_stc_scb_ezi2c_context_t
 490:Generated_Source\PSoC6\pdl\drivers\peripheral\scb/cy_scb_ezi2c.c **** * allocated by the user. The structure is used during the EZI2C operation for
 491:Generated_Source\PSoC6\pdl\drivers\peripheral\scb/cy_scb_ezi2c.c **** * internal configuration and data retention. The user must not modify anything
 492:Generated_Source\PSoC6\pdl\drivers\peripheral\scb/cy_scb_ezi2c.c **** * in this structure.
 493:Generated_Source\PSoC6\pdl\drivers\peripheral\scb/cy_scb_ezi2c.c **** *
 494:Generated_Source\PSoC6\pdl\drivers\peripheral\scb/cy_scb_ezi2c.c **** * \return
 495:Generated_Source\PSoC6\pdl\drivers\peripheral\scb/cy_scb_ezi2c.c **** * \ref group_scb_ezi2c_macros_get_activity.
 496:Generated_Source\PSoC6\pdl\drivers\peripheral\scb/cy_scb_ezi2c.c **** *
 497:Generated_Source\PSoC6\pdl\drivers\peripheral\scb/cy_scb_ezi2c.c **** *******************************************************************************/
 498:Generated_Source\PSoC6\pdl\drivers\peripheral\scb/cy_scb_ezi2c.c **** uint32_t Cy_SCB_EZI2C_GetActivity(CySCB_Type const *base, cy_stc_scb_ezi2c_context_t *context)
 499:Generated_Source\PSoC6\pdl\drivers\peripheral\scb/cy_scb_ezi2c.c **** {
 500:Generated_Source\PSoC6\pdl\drivers\peripheral\scb/cy_scb_ezi2c.c ****     uint32_t intrState;
 501:Generated_Source\PSoC6\pdl\drivers\peripheral\scb/cy_scb_ezi2c.c ****     uint32_t retStatus;
 502:Generated_Source\PSoC6\pdl\drivers\peripheral\scb/cy_scb_ezi2c.c **** 
 503:Generated_Source\PSoC6\pdl\drivers\peripheral\scb/cy_scb_ezi2c.c ****     /* Suppress a compiler warning about unused variables */
 504:Generated_Source\PSoC6\pdl\drivers\peripheral\scb/cy_scb_ezi2c.c ****     (void) base;
 505:Generated_Source\PSoC6\pdl\drivers\peripheral\scb/cy_scb_ezi2c.c **** 
 506:Generated_Source\PSoC6\pdl\drivers\peripheral\scb/cy_scb_ezi2c.c ****     intrState = Cy_SysLib_EnterCriticalSection();
 507:Generated_Source\PSoC6\pdl\drivers\peripheral\scb/cy_scb_ezi2c.c **** 
 508:Generated_Source\PSoC6\pdl\drivers\peripheral\scb/cy_scb_ezi2c.c ****     retStatus = context->status;
 509:Generated_Source\PSoC6\pdl\drivers\peripheral\scb/cy_scb_ezi2c.c ****     context->status &= CY_SCB_EZI2C_STATUS_BUSY;
 510:Generated_Source\PSoC6\pdl\drivers\peripheral\scb/cy_scb_ezi2c.c **** 
 511:Generated_Source\PSoC6\pdl\drivers\peripheral\scb/cy_scb_ezi2c.c ****     Cy_SysLib_ExitCriticalSection(intrState);
 512:Generated_Source\PSoC6\pdl\drivers\peripheral\scb/cy_scb_ezi2c.c **** 
 513:Generated_Source\PSoC6\pdl\drivers\peripheral\scb/cy_scb_ezi2c.c ****     return (retStatus);
 514:Generated_Source\PSoC6\pdl\drivers\peripheral\scb/cy_scb_ezi2c.c **** }
 515:Generated_Source\PSoC6\pdl\drivers\peripheral\scb/cy_scb_ezi2c.c **** 
 516:Generated_Source\PSoC6\pdl\drivers\peripheral\scb/cy_scb_ezi2c.c **** 
 517:Generated_Source\PSoC6\pdl\drivers\peripheral\scb/cy_scb_ezi2c.c **** /*******************************************************************************
 518:Generated_Source\PSoC6\pdl\drivers\peripheral\scb/cy_scb_ezi2c.c **** * Function Name: Cy_SCB_EZI2C_SetAddress1
 519:Generated_Source\PSoC6\pdl\drivers\peripheral\scb/cy_scb_ezi2c.c **** ****************************************************************************//**
 520:Generated_Source\PSoC6\pdl\drivers\peripheral\scb/cy_scb_ezi2c.c **** *
 521:Generated_Source\PSoC6\pdl\drivers\peripheral\scb/cy_scb_ezi2c.c **** * Sets the primary EZI2C slave address.
 522:Generated_Source\PSoC6\pdl\drivers\peripheral\scb/cy_scb_ezi2c.c **** *
 523:Generated_Source\PSoC6\pdl\drivers\peripheral\scb/cy_scb_ezi2c.c **** * \param base
 524:Generated_Source\PSoC6\pdl\drivers\peripheral\scb/cy_scb_ezi2c.c **** * The pointer to the EZI2C SCB instance.
 525:Generated_Source\PSoC6\pdl\drivers\peripheral\scb/cy_scb_ezi2c.c **** *
 526:Generated_Source\PSoC6\pdl\drivers\peripheral\scb/cy_scb_ezi2c.c **** * \param addr
 527:Generated_Source\PSoC6\pdl\drivers\peripheral\scb/cy_scb_ezi2c.c **** * The 7-bit right justified slave address.
 528:Generated_Source\PSoC6\pdl\drivers\peripheral\scb/cy_scb_ezi2c.c **** *
 529:Generated_Source\PSoC6\pdl\drivers\peripheral\scb/cy_scb_ezi2c.c **** * \param context
 530:Generated_Source\PSoC6\pdl\drivers\peripheral\scb/cy_scb_ezi2c.c **** * The pointer to the context structure \ref cy_stc_scb_ezi2c_context_t
 531:Generated_Source\PSoC6\pdl\drivers\peripheral\scb/cy_scb_ezi2c.c **** * allocated by the user. The structure is used during the EZI2C operation for
 532:Generated_Source\PSoC6\pdl\drivers\peripheral\scb/cy_scb_ezi2c.c **** * internal configuration and data retention. The user must not modify anything
 533:Generated_Source\PSoC6\pdl\drivers\peripheral\scb/cy_scb_ezi2c.c **** * in this structure.
 534:Generated_Source\PSoC6\pdl\drivers\peripheral\scb/cy_scb_ezi2c.c **** *
ARM GAS  C:\Users\pearlstl\AppData\Local\Temp\ccHsEs7Z.s 			page 12


 535:Generated_Source\PSoC6\pdl\drivers\peripheral\scb/cy_scb_ezi2c.c **** *******************************************************************************/
 536:Generated_Source\PSoC6\pdl\drivers\peripheral\scb/cy_scb_ezi2c.c **** void Cy_SCB_EZI2C_SetAddress1(CySCB_Type *base, uint8_t addr, cy_stc_scb_ezi2c_context_t *context)
 537:Generated_Source\PSoC6\pdl\drivers\peripheral\scb/cy_scb_ezi2c.c **** {
 538:Generated_Source\PSoC6\pdl\drivers\peripheral\scb/cy_scb_ezi2c.c ****     CY_ASSERT_L2(CY_SCB_IS_I2C_ADDR_VALID(addr));
 539:Generated_Source\PSoC6\pdl\drivers\peripheral\scb/cy_scb_ezi2c.c ****     CY_ASSERT_L2(addr != context->address2);
 540:Generated_Source\PSoC6\pdl\drivers\peripheral\scb/cy_scb_ezi2c.c **** 
 541:Generated_Source\PSoC6\pdl\drivers\peripheral\scb/cy_scb_ezi2c.c ****     context->address1 = addr;
  89              		.loc 1 541 0
  90 0040 1072     		strb	r0, [r2, #8]
 542:Generated_Source\PSoC6\pdl\drivers\peripheral\scb/cy_scb_ezi2c.c **** 
 543:Generated_Source\PSoC6\pdl\drivers\peripheral\scb/cy_scb_ezi2c.c ****     CY_REG32_CLR_SET(SCB_RX_MATCH(base), SCB_RX_MATCH_ADDR, ((uint32_t)((uint32_t) addr << 1UL)));
  91              		.loc 1 543 0
  92 0042 D3F81043 		ldr	r4, [r3, #784]
  93 0046 4000     		lsls	r0, r0, #1
  94              	.LVL3:
  95 0048 24F0FF04 		bic	r4, r4, #255
  96 004c C0B2     		uxtb	r0, r0
  97 004e 2043     		orrs	r0, r0, r4
  98 0050 C3F81003 		str	r0, [r3, #784]
  99              	.LVL4:
 100              	.LBB145:
 101              	.LBB146:
 544:Generated_Source\PSoC6\pdl\drivers\peripheral\scb/cy_scb_ezi2c.c **** 
 545:Generated_Source\PSoC6\pdl\drivers\peripheral\scb/cy_scb_ezi2c.c ****     UpdateAddressMask(base, context);
 546:Generated_Source\PSoC6\pdl\drivers\peripheral\scb/cy_scb_ezi2c.c **** }
 547:Generated_Source\PSoC6\pdl\drivers\peripheral\scb/cy_scb_ezi2c.c **** 
 548:Generated_Source\PSoC6\pdl\drivers\peripheral\scb/cy_scb_ezi2c.c **** 
 549:Generated_Source\PSoC6\pdl\drivers\peripheral\scb/cy_scb_ezi2c.c **** /*******************************************************************************
 550:Generated_Source\PSoC6\pdl\drivers\peripheral\scb/cy_scb_ezi2c.c **** * Function Name: Cy_SCB_EZI2C_GetAddress1
 551:Generated_Source\PSoC6\pdl\drivers\peripheral\scb/cy_scb_ezi2c.c **** ****************************************************************************//**
 552:Generated_Source\PSoC6\pdl\drivers\peripheral\scb/cy_scb_ezi2c.c **** *
 553:Generated_Source\PSoC6\pdl\drivers\peripheral\scb/cy_scb_ezi2c.c **** * Returns the primary the EZI2C slave address.
 554:Generated_Source\PSoC6\pdl\drivers\peripheral\scb/cy_scb_ezi2c.c **** *
 555:Generated_Source\PSoC6\pdl\drivers\peripheral\scb/cy_scb_ezi2c.c **** * \param base
 556:Generated_Source\PSoC6\pdl\drivers\peripheral\scb/cy_scb_ezi2c.c **** * The pointer to the EZI2C SCB instance.
 557:Generated_Source\PSoC6\pdl\drivers\peripheral\scb/cy_scb_ezi2c.c **** *
 558:Generated_Source\PSoC6\pdl\drivers\peripheral\scb/cy_scb_ezi2c.c **** * * \param context
 559:Generated_Source\PSoC6\pdl\drivers\peripheral\scb/cy_scb_ezi2c.c **** * The pointer to the context structure \ref cy_stc_scb_ezi2c_context_t
 560:Generated_Source\PSoC6\pdl\drivers\peripheral\scb/cy_scb_ezi2c.c **** * allocated by the user. The structure is used during the EZI2C operation for
 561:Generated_Source\PSoC6\pdl\drivers\peripheral\scb/cy_scb_ezi2c.c **** * internal configuration and data retention. The user must not modify anything
 562:Generated_Source\PSoC6\pdl\drivers\peripheral\scb/cy_scb_ezi2c.c **** * in this structure.
 563:Generated_Source\PSoC6\pdl\drivers\peripheral\scb/cy_scb_ezi2c.c **** *
 564:Generated_Source\PSoC6\pdl\drivers\peripheral\scb/cy_scb_ezi2c.c **** * \return
 565:Generated_Source\PSoC6\pdl\drivers\peripheral\scb/cy_scb_ezi2c.c **** * The 7-bit right justified slave address.
 566:Generated_Source\PSoC6\pdl\drivers\peripheral\scb/cy_scb_ezi2c.c **** *
 567:Generated_Source\PSoC6\pdl\drivers\peripheral\scb/cy_scb_ezi2c.c **** *******************************************************************************/
 568:Generated_Source\PSoC6\pdl\drivers\peripheral\scb/cy_scb_ezi2c.c **** uint32_t Cy_SCB_EZI2C_GetAddress1(CySCB_Type const *base, cy_stc_scb_ezi2c_context_t const *context
 569:Generated_Source\PSoC6\pdl\drivers\peripheral\scb/cy_scb_ezi2c.c **** {
 570:Generated_Source\PSoC6\pdl\drivers\peripheral\scb/cy_scb_ezi2c.c ****     /* Suppress a compiler warning about unused variables */
 571:Generated_Source\PSoC6\pdl\drivers\peripheral\scb/cy_scb_ezi2c.c ****     (void) base;
 572:Generated_Source\PSoC6\pdl\drivers\peripheral\scb/cy_scb_ezi2c.c **** 
 573:Generated_Source\PSoC6\pdl\drivers\peripheral\scb/cy_scb_ezi2c.c ****     return ((uint32_t) context->address1);
 574:Generated_Source\PSoC6\pdl\drivers\peripheral\scb/cy_scb_ezi2c.c **** }
 575:Generated_Source\PSoC6\pdl\drivers\peripheral\scb/cy_scb_ezi2c.c **** 
 576:Generated_Source\PSoC6\pdl\drivers\peripheral\scb/cy_scb_ezi2c.c **** 
 577:Generated_Source\PSoC6\pdl\drivers\peripheral\scb/cy_scb_ezi2c.c **** /*******************************************************************************
 578:Generated_Source\PSoC6\pdl\drivers\peripheral\scb/cy_scb_ezi2c.c **** * Function Name: Cy_SCB_EZI2C_SetBuffer1
ARM GAS  C:\Users\pearlstl\AppData\Local\Temp\ccHsEs7Z.s 			page 13


 579:Generated_Source\PSoC6\pdl\drivers\peripheral\scb/cy_scb_ezi2c.c **** ****************************************************************************//**
 580:Generated_Source\PSoC6\pdl\drivers\peripheral\scb/cy_scb_ezi2c.c **** *
 581:Generated_Source\PSoC6\pdl\drivers\peripheral\scb/cy_scb_ezi2c.c **** * Sets up the data buffer to be exposed to the I2C master on the primary slave
 582:Generated_Source\PSoC6\pdl\drivers\peripheral\scb/cy_scb_ezi2c.c **** * address request.
 583:Generated_Source\PSoC6\pdl\drivers\peripheral\scb/cy_scb_ezi2c.c **** *
 584:Generated_Source\PSoC6\pdl\drivers\peripheral\scb/cy_scb_ezi2c.c **** * \param base
 585:Generated_Source\PSoC6\pdl\drivers\peripheral\scb/cy_scb_ezi2c.c **** * The pointer to the EZI2C SCB instance.
 586:Generated_Source\PSoC6\pdl\drivers\peripheral\scb/cy_scb_ezi2c.c **** *
 587:Generated_Source\PSoC6\pdl\drivers\peripheral\scb/cy_scb_ezi2c.c **** * \param buffer
 588:Generated_Source\PSoC6\pdl\drivers\peripheral\scb/cy_scb_ezi2c.c **** * The pointer to the data buffer.
 589:Generated_Source\PSoC6\pdl\drivers\peripheral\scb/cy_scb_ezi2c.c **** *
 590:Generated_Source\PSoC6\pdl\drivers\peripheral\scb/cy_scb_ezi2c.c **** * \param size
 591:Generated_Source\PSoC6\pdl\drivers\peripheral\scb/cy_scb_ezi2c.c **** * The size of the buffer in bytes.
 592:Generated_Source\PSoC6\pdl\drivers\peripheral\scb/cy_scb_ezi2c.c **** *
 593:Generated_Source\PSoC6\pdl\drivers\peripheral\scb/cy_scb_ezi2c.c **** * \param rwBoundary
 594:Generated_Source\PSoC6\pdl\drivers\peripheral\scb/cy_scb_ezi2c.c **** * The number of data bytes starting from the beginning of the buffer with Read and
 595:Generated_Source\PSoC6\pdl\drivers\peripheral\scb/cy_scb_ezi2c.c **** * Write access. The data bytes located at rwBoundary or greater are read only.
 596:Generated_Source\PSoC6\pdl\drivers\peripheral\scb/cy_scb_ezi2c.c **** *
 597:Generated_Source\PSoC6\pdl\drivers\peripheral\scb/cy_scb_ezi2c.c **** * \param context
 598:Generated_Source\PSoC6\pdl\drivers\peripheral\scb/cy_scb_ezi2c.c **** * The pointer to the context structure \ref cy_stc_scb_ezi2c_context_t
 599:Generated_Source\PSoC6\pdl\drivers\peripheral\scb/cy_scb_ezi2c.c **** * allocated by the user. The structure is used during the EZI2C operation for
 600:Generated_Source\PSoC6\pdl\drivers\peripheral\scb/cy_scb_ezi2c.c **** * internal configuration and data retention. The user must not modify anything
 601:Generated_Source\PSoC6\pdl\drivers\peripheral\scb/cy_scb_ezi2c.c **** * in this structure.
 602:Generated_Source\PSoC6\pdl\drivers\peripheral\scb/cy_scb_ezi2c.c **** *
 603:Generated_Source\PSoC6\pdl\drivers\peripheral\scb/cy_scb_ezi2c.c **** * \note
 604:Generated_Source\PSoC6\pdl\drivers\peripheral\scb/cy_scb_ezi2c.c **** * * This function is not interrupt-protected and to prevent a race condition,
 605:Generated_Source\PSoC6\pdl\drivers\peripheral\scb/cy_scb_ezi2c.c **** *   it must be protected from the EZI2C interruption in the place where it
 606:Generated_Source\PSoC6\pdl\drivers\peripheral\scb/cy_scb_ezi2c.c **** *   is called.
 607:Generated_Source\PSoC6\pdl\drivers\peripheral\scb/cy_scb_ezi2c.c **** * * Calling this function in the middle of a transaction intended for the
 608:Generated_Source\PSoC6\pdl\drivers\peripheral\scb/cy_scb_ezi2c.c **** *   secondary slave address leads to unexpected behavior.
 609:Generated_Source\PSoC6\pdl\drivers\peripheral\scb/cy_scb_ezi2c.c **** *
 610:Generated_Source\PSoC6\pdl\drivers\peripheral\scb/cy_scb_ezi2c.c **** *******************************************************************************/
 611:Generated_Source\PSoC6\pdl\drivers\peripheral\scb/cy_scb_ezi2c.c **** void Cy_SCB_EZI2C_SetBuffer1(CySCB_Type const *base, uint8_t *buffer, uint32_t size, uint32_t rwBou
 612:Generated_Source\PSoC6\pdl\drivers\peripheral\scb/cy_scb_ezi2c.c ****                              cy_stc_scb_ezi2c_context_t *context)
 613:Generated_Source\PSoC6\pdl\drivers\peripheral\scb/cy_scb_ezi2c.c **** {
 614:Generated_Source\PSoC6\pdl\drivers\peripheral\scb/cy_scb_ezi2c.c ****     CY_ASSERT_L1(CY_SCB_IS_I2C_BUFFER_VALID(buffer, size));
 615:Generated_Source\PSoC6\pdl\drivers\peripheral\scb/cy_scb_ezi2c.c ****     CY_ASSERT_L2(rwBoundary <= size);
 616:Generated_Source\PSoC6\pdl\drivers\peripheral\scb/cy_scb_ezi2c.c **** 
 617:Generated_Source\PSoC6\pdl\drivers\peripheral\scb/cy_scb_ezi2c.c ****     /* Suppress a compiler warning about unused variables */
 618:Generated_Source\PSoC6\pdl\drivers\peripheral\scb/cy_scb_ezi2c.c ****     (void) base;
 619:Generated_Source\PSoC6\pdl\drivers\peripheral\scb/cy_scb_ezi2c.c **** 
 620:Generated_Source\PSoC6\pdl\drivers\peripheral\scb/cy_scb_ezi2c.c ****     context->buf1          = buffer;
 621:Generated_Source\PSoC6\pdl\drivers\peripheral\scb/cy_scb_ezi2c.c ****     context->buf1Size      = size;
 622:Generated_Source\PSoC6\pdl\drivers\peripheral\scb/cy_scb_ezi2c.c ****     context->buf1rwBondary = rwBoundary;
 623:Generated_Source\PSoC6\pdl\drivers\peripheral\scb/cy_scb_ezi2c.c **** }
 624:Generated_Source\PSoC6\pdl\drivers\peripheral\scb/cy_scb_ezi2c.c **** 
 625:Generated_Source\PSoC6\pdl\drivers\peripheral\scb/cy_scb_ezi2c.c **** 
 626:Generated_Source\PSoC6\pdl\drivers\peripheral\scb/cy_scb_ezi2c.c **** /*******************************************************************************
 627:Generated_Source\PSoC6\pdl\drivers\peripheral\scb/cy_scb_ezi2c.c **** * Function Name: Cy_SCB_EZI2C_SetAddress2
 628:Generated_Source\PSoC6\pdl\drivers\peripheral\scb/cy_scb_ezi2c.c **** ****************************************************************************//**
 629:Generated_Source\PSoC6\pdl\drivers\peripheral\scb/cy_scb_ezi2c.c **** *
 630:Generated_Source\PSoC6\pdl\drivers\peripheral\scb/cy_scb_ezi2c.c **** * Sets the secondary EZI2C slave address.
 631:Generated_Source\PSoC6\pdl\drivers\peripheral\scb/cy_scb_ezi2c.c **** *
 632:Generated_Source\PSoC6\pdl\drivers\peripheral\scb/cy_scb_ezi2c.c **** * \param base
 633:Generated_Source\PSoC6\pdl\drivers\peripheral\scb/cy_scb_ezi2c.c **** * The pointer to the EZI2C SCB instance.
 634:Generated_Source\PSoC6\pdl\drivers\peripheral\scb/cy_scb_ezi2c.c **** *
 635:Generated_Source\PSoC6\pdl\drivers\peripheral\scb/cy_scb_ezi2c.c **** * \param addr
ARM GAS  C:\Users\pearlstl\AppData\Local\Temp\ccHsEs7Z.s 			page 14


 636:Generated_Source\PSoC6\pdl\drivers\peripheral\scb/cy_scb_ezi2c.c **** * The 7-bit right justified slave address.
 637:Generated_Source\PSoC6\pdl\drivers\peripheral\scb/cy_scb_ezi2c.c **** *
 638:Generated_Source\PSoC6\pdl\drivers\peripheral\scb/cy_scb_ezi2c.c **** * \param context
 639:Generated_Source\PSoC6\pdl\drivers\peripheral\scb/cy_scb_ezi2c.c **** * The pointer to the context structure \ref cy_stc_scb_ezi2c_context_t
 640:Generated_Source\PSoC6\pdl\drivers\peripheral\scb/cy_scb_ezi2c.c **** * allocated by the user. The structure is used during the EZI2C operation for
 641:Generated_Source\PSoC6\pdl\drivers\peripheral\scb/cy_scb_ezi2c.c **** * internal configuration and data retention. The user must not modify anything
 642:Generated_Source\PSoC6\pdl\drivers\peripheral\scb/cy_scb_ezi2c.c **** * in this structure.
 643:Generated_Source\PSoC6\pdl\drivers\peripheral\scb/cy_scb_ezi2c.c **** *
 644:Generated_Source\PSoC6\pdl\drivers\peripheral\scb/cy_scb_ezi2c.c **** * \note
 645:Generated_Source\PSoC6\pdl\drivers\peripheral\scb/cy_scb_ezi2c.c **** * Calling this function when the EZI2C slave is configured for one-address
 646:Generated_Source\PSoC6\pdl\drivers\peripheral\scb/cy_scb_ezi2c.c **** * operation leads to unexpected behavior because it updates the address mask.
 647:Generated_Source\PSoC6\pdl\drivers\peripheral\scb/cy_scb_ezi2c.c **** *
 648:Generated_Source\PSoC6\pdl\drivers\peripheral\scb/cy_scb_ezi2c.c **** *******************************************************************************/
 649:Generated_Source\PSoC6\pdl\drivers\peripheral\scb/cy_scb_ezi2c.c **** void Cy_SCB_EZI2C_SetAddress2(CySCB_Type *base, uint8_t addr, cy_stc_scb_ezi2c_context_t *context)
 650:Generated_Source\PSoC6\pdl\drivers\peripheral\scb/cy_scb_ezi2c.c **** {
 651:Generated_Source\PSoC6\pdl\drivers\peripheral\scb/cy_scb_ezi2c.c ****     CY_ASSERT_L2(CY_SCB_IS_I2C_ADDR_VALID(addr));
 652:Generated_Source\PSoC6\pdl\drivers\peripheral\scb/cy_scb_ezi2c.c ****     CY_ASSERT_L2(addr != context->address1);
 653:Generated_Source\PSoC6\pdl\drivers\peripheral\scb/cy_scb_ezi2c.c **** 
 654:Generated_Source\PSoC6\pdl\drivers\peripheral\scb/cy_scb_ezi2c.c ****     context->address2 = addr;
 655:Generated_Source\PSoC6\pdl\drivers\peripheral\scb/cy_scb_ezi2c.c **** 
 656:Generated_Source\PSoC6\pdl\drivers\peripheral\scb/cy_scb_ezi2c.c ****     UpdateAddressMask(base, context);
 657:Generated_Source\PSoC6\pdl\drivers\peripheral\scb/cy_scb_ezi2c.c **** }
 658:Generated_Source\PSoC6\pdl\drivers\peripheral\scb/cy_scb_ezi2c.c **** 
 659:Generated_Source\PSoC6\pdl\drivers\peripheral\scb/cy_scb_ezi2c.c **** 
 660:Generated_Source\PSoC6\pdl\drivers\peripheral\scb/cy_scb_ezi2c.c **** /*******************************************************************************
 661:Generated_Source\PSoC6\pdl\drivers\peripheral\scb/cy_scb_ezi2c.c **** * Function Name: Cy_SCB_EZI2C_GetAddress2
 662:Generated_Source\PSoC6\pdl\drivers\peripheral\scb/cy_scb_ezi2c.c **** ****************************************************************************//**
 663:Generated_Source\PSoC6\pdl\drivers\peripheral\scb/cy_scb_ezi2c.c **** *
 664:Generated_Source\PSoC6\pdl\drivers\peripheral\scb/cy_scb_ezi2c.c **** * Returns the secondary EZI2C slave address.
 665:Generated_Source\PSoC6\pdl\drivers\peripheral\scb/cy_scb_ezi2c.c **** *
 666:Generated_Source\PSoC6\pdl\drivers\peripheral\scb/cy_scb_ezi2c.c **** * \param base
 667:Generated_Source\PSoC6\pdl\drivers\peripheral\scb/cy_scb_ezi2c.c **** * The pointer to the EZI2C SCB instance.
 668:Generated_Source\PSoC6\pdl\drivers\peripheral\scb/cy_scb_ezi2c.c **** *
 669:Generated_Source\PSoC6\pdl\drivers\peripheral\scb/cy_scb_ezi2c.c **** * \param context
 670:Generated_Source\PSoC6\pdl\drivers\peripheral\scb/cy_scb_ezi2c.c **** * The pointer to the context structure \ref cy_stc_scb_ezi2c_context_t
 671:Generated_Source\PSoC6\pdl\drivers\peripheral\scb/cy_scb_ezi2c.c **** * allocated by the user. The structure is used during the EZI2C operation for
 672:Generated_Source\PSoC6\pdl\drivers\peripheral\scb/cy_scb_ezi2c.c **** * internal configuration and data retention. The user must not modify anything
 673:Generated_Source\PSoC6\pdl\drivers\peripheral\scb/cy_scb_ezi2c.c **** * in this structure.
 674:Generated_Source\PSoC6\pdl\drivers\peripheral\scb/cy_scb_ezi2c.c **** *
 675:Generated_Source\PSoC6\pdl\drivers\peripheral\scb/cy_scb_ezi2c.c **** * \return
 676:Generated_Source\PSoC6\pdl\drivers\peripheral\scb/cy_scb_ezi2c.c **** * The 7-bit right justified slave address.
 677:Generated_Source\PSoC6\pdl\drivers\peripheral\scb/cy_scb_ezi2c.c **** *
 678:Generated_Source\PSoC6\pdl\drivers\peripheral\scb/cy_scb_ezi2c.c **** *******************************************************************************/
 679:Generated_Source\PSoC6\pdl\drivers\peripheral\scb/cy_scb_ezi2c.c **** uint32_t Cy_SCB_EZI2C_GetAddress2(CySCB_Type const *base, cy_stc_scb_ezi2c_context_t const *context
 680:Generated_Source\PSoC6\pdl\drivers\peripheral\scb/cy_scb_ezi2c.c **** {
 681:Generated_Source\PSoC6\pdl\drivers\peripheral\scb/cy_scb_ezi2c.c ****     /* Suppress a compiler warning about unused variables */
 682:Generated_Source\PSoC6\pdl\drivers\peripheral\scb/cy_scb_ezi2c.c ****     (void) base;
 683:Generated_Source\PSoC6\pdl\drivers\peripheral\scb/cy_scb_ezi2c.c **** 
 684:Generated_Source\PSoC6\pdl\drivers\peripheral\scb/cy_scb_ezi2c.c ****     return ((uint32_t) context->address2);
 685:Generated_Source\PSoC6\pdl\drivers\peripheral\scb/cy_scb_ezi2c.c **** }
 686:Generated_Source\PSoC6\pdl\drivers\peripheral\scb/cy_scb_ezi2c.c **** 
 687:Generated_Source\PSoC6\pdl\drivers\peripheral\scb/cy_scb_ezi2c.c **** 
 688:Generated_Source\PSoC6\pdl\drivers\peripheral\scb/cy_scb_ezi2c.c **** /*******************************************************************************
 689:Generated_Source\PSoC6\pdl\drivers\peripheral\scb/cy_scb_ezi2c.c **** * Function Name: Cy_SCB_EZI2C_SetBuffer2
 690:Generated_Source\PSoC6\pdl\drivers\peripheral\scb/cy_scb_ezi2c.c **** ****************************************************************************//**
 691:Generated_Source\PSoC6\pdl\drivers\peripheral\scb/cy_scb_ezi2c.c **** *
 692:Generated_Source\PSoC6\pdl\drivers\peripheral\scb/cy_scb_ezi2c.c **** * Sets up the data buffer to be exposed to the I2C master on the secondary
ARM GAS  C:\Users\pearlstl\AppData\Local\Temp\ccHsEs7Z.s 			page 15


 693:Generated_Source\PSoC6\pdl\drivers\peripheral\scb/cy_scb_ezi2c.c **** * slave address request.
 694:Generated_Source\PSoC6\pdl\drivers\peripheral\scb/cy_scb_ezi2c.c **** *
 695:Generated_Source\PSoC6\pdl\drivers\peripheral\scb/cy_scb_ezi2c.c **** * \param base
 696:Generated_Source\PSoC6\pdl\drivers\peripheral\scb/cy_scb_ezi2c.c **** * The pointer to the EZI2C SCB instance.
 697:Generated_Source\PSoC6\pdl\drivers\peripheral\scb/cy_scb_ezi2c.c **** *
 698:Generated_Source\PSoC6\pdl\drivers\peripheral\scb/cy_scb_ezi2c.c **** * \param buffer
 699:Generated_Source\PSoC6\pdl\drivers\peripheral\scb/cy_scb_ezi2c.c **** * The pointer to the data buffer.
 700:Generated_Source\PSoC6\pdl\drivers\peripheral\scb/cy_scb_ezi2c.c **** *
 701:Generated_Source\PSoC6\pdl\drivers\peripheral\scb/cy_scb_ezi2c.c **** * \param size
 702:Generated_Source\PSoC6\pdl\drivers\peripheral\scb/cy_scb_ezi2c.c **** * The size of the buffer in bytes.
 703:Generated_Source\PSoC6\pdl\drivers\peripheral\scb/cy_scb_ezi2c.c **** *
 704:Generated_Source\PSoC6\pdl\drivers\peripheral\scb/cy_scb_ezi2c.c **** * \param rwBoundary
 705:Generated_Source\PSoC6\pdl\drivers\peripheral\scb/cy_scb_ezi2c.c **** * The number of data bytes starting from the beginning of the buffer with Read and
 706:Generated_Source\PSoC6\pdl\drivers\peripheral\scb/cy_scb_ezi2c.c **** * Write access. The data bytes located at rwBoundary or greater are read only.
 707:Generated_Source\PSoC6\pdl\drivers\peripheral\scb/cy_scb_ezi2c.c **** *
 708:Generated_Source\PSoC6\pdl\drivers\peripheral\scb/cy_scb_ezi2c.c **** * \param context
 709:Generated_Source\PSoC6\pdl\drivers\peripheral\scb/cy_scb_ezi2c.c **** * The pointer to the context structure \ref cy_stc_scb_ezi2c_context_t
 710:Generated_Source\PSoC6\pdl\drivers\peripheral\scb/cy_scb_ezi2c.c **** * allocated by the user. The structure is used during the EZI2C operation for
 711:Generated_Source\PSoC6\pdl\drivers\peripheral\scb/cy_scb_ezi2c.c **** * internal configuration and data retention. The user must not modify anything
 712:Generated_Source\PSoC6\pdl\drivers\peripheral\scb/cy_scb_ezi2c.c **** * in this structure.
 713:Generated_Source\PSoC6\pdl\drivers\peripheral\scb/cy_scb_ezi2c.c **** *
 714:Generated_Source\PSoC6\pdl\drivers\peripheral\scb/cy_scb_ezi2c.c **** * \note
 715:Generated_Source\PSoC6\pdl\drivers\peripheral\scb/cy_scb_ezi2c.c **** * * This function is not interrupt-protected. To prevent a race condition,
 716:Generated_Source\PSoC6\pdl\drivers\peripheral\scb/cy_scb_ezi2c.c **** *   it must be protected from the EZI2C interruption in the place where it
 717:Generated_Source\PSoC6\pdl\drivers\peripheral\scb/cy_scb_ezi2c.c **** *   is called.
 718:Generated_Source\PSoC6\pdl\drivers\peripheral\scb/cy_scb_ezi2c.c **** * * Calling this function in the middle of a transaction intended for the
 719:Generated_Source\PSoC6\pdl\drivers\peripheral\scb/cy_scb_ezi2c.c **** *   secondary slave address leads to unexpected behavior.
 720:Generated_Source\PSoC6\pdl\drivers\peripheral\scb/cy_scb_ezi2c.c **** *
 721:Generated_Source\PSoC6\pdl\drivers\peripheral\scb/cy_scb_ezi2c.c **** *******************************************************************************/
 722:Generated_Source\PSoC6\pdl\drivers\peripheral\scb/cy_scb_ezi2c.c **** void Cy_SCB_EZI2C_SetBuffer2(CySCB_Type const *base, uint8_t *buffer, uint32_t size, uint32_t rwBou
 723:Generated_Source\PSoC6\pdl\drivers\peripheral\scb/cy_scb_ezi2c.c ****                              cy_stc_scb_ezi2c_context_t *context)
 724:Generated_Source\PSoC6\pdl\drivers\peripheral\scb/cy_scb_ezi2c.c **** {
 725:Generated_Source\PSoC6\pdl\drivers\peripheral\scb/cy_scb_ezi2c.c ****     CY_ASSERT_L1(CY_SCB_IS_I2C_BUFFER_VALID(buffer, size));
 726:Generated_Source\PSoC6\pdl\drivers\peripheral\scb/cy_scb_ezi2c.c ****     CY_ASSERT_L2(rwBoundary <= size);
 727:Generated_Source\PSoC6\pdl\drivers\peripheral\scb/cy_scb_ezi2c.c **** 
 728:Generated_Source\PSoC6\pdl\drivers\peripheral\scb/cy_scb_ezi2c.c ****     /* Suppress a compiler warning about unused variables */
 729:Generated_Source\PSoC6\pdl\drivers\peripheral\scb/cy_scb_ezi2c.c ****     (void) base;
 730:Generated_Source\PSoC6\pdl\drivers\peripheral\scb/cy_scb_ezi2c.c **** 
 731:Generated_Source\PSoC6\pdl\drivers\peripheral\scb/cy_scb_ezi2c.c ****     context->buf2          = buffer;
 732:Generated_Source\PSoC6\pdl\drivers\peripheral\scb/cy_scb_ezi2c.c ****     context->buf2Size      = size;
 733:Generated_Source\PSoC6\pdl\drivers\peripheral\scb/cy_scb_ezi2c.c ****     context->buf2rwBondary = rwBoundary;
 734:Generated_Source\PSoC6\pdl\drivers\peripheral\scb/cy_scb_ezi2c.c **** }
 735:Generated_Source\PSoC6\pdl\drivers\peripheral\scb/cy_scb_ezi2c.c **** 
 736:Generated_Source\PSoC6\pdl\drivers\peripheral\scb/cy_scb_ezi2c.c **** 
 737:Generated_Source\PSoC6\pdl\drivers\peripheral\scb/cy_scb_ezi2c.c **** /*******************************************************************************
 738:Generated_Source\PSoC6\pdl\drivers\peripheral\scb/cy_scb_ezi2c.c **** * Function Name: Cy_SCB_EZI2C_Interrupt
 739:Generated_Source\PSoC6\pdl\drivers\peripheral\scb/cy_scb_ezi2c.c **** ****************************************************************************//**
 740:Generated_Source\PSoC6\pdl\drivers\peripheral\scb/cy_scb_ezi2c.c **** *
 741:Generated_Source\PSoC6\pdl\drivers\peripheral\scb/cy_scb_ezi2c.c **** * This is the interrupt function for the SCB configured in the EZI2C mode.
 742:Generated_Source\PSoC6\pdl\drivers\peripheral\scb/cy_scb_ezi2c.c **** * This function must be called inside the user-defined interrupt service
 743:Generated_Source\PSoC6\pdl\drivers\peripheral\scb/cy_scb_ezi2c.c **** * routine to make the EZI2C slave work.
 744:Generated_Source\PSoC6\pdl\drivers\peripheral\scb/cy_scb_ezi2c.c **** *
 745:Generated_Source\PSoC6\pdl\drivers\peripheral\scb/cy_scb_ezi2c.c **** * \param base
 746:Generated_Source\PSoC6\pdl\drivers\peripheral\scb/cy_scb_ezi2c.c **** * The pointer to the EZI2C SCB instance.
 747:Generated_Source\PSoC6\pdl\drivers\peripheral\scb/cy_scb_ezi2c.c **** *
 748:Generated_Source\PSoC6\pdl\drivers\peripheral\scb/cy_scb_ezi2c.c **** * \param context
 749:Generated_Source\PSoC6\pdl\drivers\peripheral\scb/cy_scb_ezi2c.c **** * The pointer to the context structure \ref cy_stc_scb_ezi2c_context_t allocated
ARM GAS  C:\Users\pearlstl\AppData\Local\Temp\ccHsEs7Z.s 			page 16


 750:Generated_Source\PSoC6\pdl\drivers\peripheral\scb/cy_scb_ezi2c.c **** * by the user. The structure is used during the EZI2C operation for internal
 751:Generated_Source\PSoC6\pdl\drivers\peripheral\scb/cy_scb_ezi2c.c **** * configuration and data retention. The user must not modify anything
 752:Generated_Source\PSoC6\pdl\drivers\peripheral\scb/cy_scb_ezi2c.c **** * in this structure.
 753:Generated_Source\PSoC6\pdl\drivers\peripheral\scb/cy_scb_ezi2c.c **** *
 754:Generated_Source\PSoC6\pdl\drivers\peripheral\scb/cy_scb_ezi2c.c **** *******************************************************************************/
 755:Generated_Source\PSoC6\pdl\drivers\peripheral\scb/cy_scb_ezi2c.c **** void Cy_SCB_EZI2C_Interrupt(CySCB_Type *base, cy_stc_scb_ezi2c_context_t *context)
 756:Generated_Source\PSoC6\pdl\drivers\peripheral\scb/cy_scb_ezi2c.c **** {
 757:Generated_Source\PSoC6\pdl\drivers\peripheral\scb/cy_scb_ezi2c.c ****     uint32_t slaveIntrStatus;
 758:Generated_Source\PSoC6\pdl\drivers\peripheral\scb/cy_scb_ezi2c.c **** 
 759:Generated_Source\PSoC6\pdl\drivers\peripheral\scb/cy_scb_ezi2c.c ****     /* Handle an I2C wake-up event */
 760:Generated_Source\PSoC6\pdl\drivers\peripheral\scb/cy_scb_ezi2c.c ****     if (0UL != (CY_SCB_I2C_INTR_WAKEUP & Cy_SCB_GetI2CInterruptStatusMasked(base)))
 761:Generated_Source\PSoC6\pdl\drivers\peripheral\scb/cy_scb_ezi2c.c ****     {
 762:Generated_Source\PSoC6\pdl\drivers\peripheral\scb/cy_scb_ezi2c.c ****         /* Move from IDLE state, the slave was addressed. Following address match 
 763:Generated_Source\PSoC6\pdl\drivers\peripheral\scb/cy_scb_ezi2c.c ****         * interrupt continue transfer.
 764:Generated_Source\PSoC6\pdl\drivers\peripheral\scb/cy_scb_ezi2c.c ****         */
 765:Generated_Source\PSoC6\pdl\drivers\peripheral\scb/cy_scb_ezi2c.c ****         context->state = CY_SCB_EZI2C_STATE_ADDR;
 766:Generated_Source\PSoC6\pdl\drivers\peripheral\scb/cy_scb_ezi2c.c ****         
 767:Generated_Source\PSoC6\pdl\drivers\peripheral\scb/cy_scb_ezi2c.c ****         Cy_SCB_ClearI2CInterrupt(base, CY_SCB_I2C_INTR_WAKEUP);
 768:Generated_Source\PSoC6\pdl\drivers\peripheral\scb/cy_scb_ezi2c.c ****     }
 769:Generated_Source\PSoC6\pdl\drivers\peripheral\scb/cy_scb_ezi2c.c **** 
 770:Generated_Source\PSoC6\pdl\drivers\peripheral\scb/cy_scb_ezi2c.c ****     /* Get the slave interrupt sources */
 771:Generated_Source\PSoC6\pdl\drivers\peripheral\scb/cy_scb_ezi2c.c ****     slaveIntrStatus = Cy_SCB_GetSlaveInterruptStatusMasked(base);
 772:Generated_Source\PSoC6\pdl\drivers\peripheral\scb/cy_scb_ezi2c.c **** 
 773:Generated_Source\PSoC6\pdl\drivers\peripheral\scb/cy_scb_ezi2c.c ****     /* Handle the error conditions */
 774:Generated_Source\PSoC6\pdl\drivers\peripheral\scb/cy_scb_ezi2c.c ****     if (0UL != (CY_SCB_EZI2C_SLAVE_INTR_ERROR & slaveIntrStatus))
 775:Generated_Source\PSoC6\pdl\drivers\peripheral\scb/cy_scb_ezi2c.c ****     {
 776:Generated_Source\PSoC6\pdl\drivers\peripheral\scb/cy_scb_ezi2c.c ****         HandleErrors(base, context);
 777:Generated_Source\PSoC6\pdl\drivers\peripheral\scb/cy_scb_ezi2c.c **** 
 778:Generated_Source\PSoC6\pdl\drivers\peripheral\scb/cy_scb_ezi2c.c ****         Cy_SCB_ClearSlaveInterrupt(base, CY_SCB_EZI2C_SLAVE_INTR_ERROR);
 779:Generated_Source\PSoC6\pdl\drivers\peripheral\scb/cy_scb_ezi2c.c **** 
 780:Generated_Source\PSoC6\pdl\drivers\peripheral\scb/cy_scb_ezi2c.c ****         /* Trigger the stop handling to complete the transaction */
 781:Generated_Source\PSoC6\pdl\drivers\peripheral\scb/cy_scb_ezi2c.c ****         slaveIntrStatus |= CY_SCB_SLAVE_INTR_I2C_STOP;
 782:Generated_Source\PSoC6\pdl\drivers\peripheral\scb/cy_scb_ezi2c.c ****     }
 783:Generated_Source\PSoC6\pdl\drivers\peripheral\scb/cy_scb_ezi2c.c ****     else
 784:Generated_Source\PSoC6\pdl\drivers\peripheral\scb/cy_scb_ezi2c.c ****     {
 785:Generated_Source\PSoC6\pdl\drivers\peripheral\scb/cy_scb_ezi2c.c ****         if ((CY_SCB_EZI2C_STATE_RX_DATA1 == context->state) &&
 786:Generated_Source\PSoC6\pdl\drivers\peripheral\scb/cy_scb_ezi2c.c ****             (0UL != (CY_SCB_SLAVE_INTR_I2C_STOP & slaveIntrStatus)))
 787:Generated_Source\PSoC6\pdl\drivers\peripheral\scb/cy_scb_ezi2c.c ****         {
 788:Generated_Source\PSoC6\pdl\drivers\peripheral\scb/cy_scb_ezi2c.c ****             /* Get data from the RX FIFO after Stop is generated */
 789:Generated_Source\PSoC6\pdl\drivers\peripheral\scb/cy_scb_ezi2c.c ****             Cy_SCB_SetRxInterrupt    (base, CY_SCB_RX_INTR_LEVEL);
 790:Generated_Source\PSoC6\pdl\drivers\peripheral\scb/cy_scb_ezi2c.c ****             Cy_SCB_SetRxInterruptMask(base, CY_SCB_RX_INTR_LEVEL);
 791:Generated_Source\PSoC6\pdl\drivers\peripheral\scb/cy_scb_ezi2c.c ****         }
 792:Generated_Source\PSoC6\pdl\drivers\peripheral\scb/cy_scb_ezi2c.c ****     }
 793:Generated_Source\PSoC6\pdl\drivers\peripheral\scb/cy_scb_ezi2c.c **** 
 794:Generated_Source\PSoC6\pdl\drivers\peripheral\scb/cy_scb_ezi2c.c ****     /* Handle the receive direction (master writes data) */
 795:Generated_Source\PSoC6\pdl\drivers\peripheral\scb/cy_scb_ezi2c.c ****     if (0UL != (CY_SCB_RX_INTR_LEVEL & Cy_SCB_GetRxInterruptStatusMasked(base)))
 796:Generated_Source\PSoC6\pdl\drivers\peripheral\scb/cy_scb_ezi2c.c ****     {
 797:Generated_Source\PSoC6\pdl\drivers\peripheral\scb/cy_scb_ezi2c.c ****         HandleDataReceive(base, context);
 798:Generated_Source\PSoC6\pdl\drivers\peripheral\scb/cy_scb_ezi2c.c **** 
 799:Generated_Source\PSoC6\pdl\drivers\peripheral\scb/cy_scb_ezi2c.c ****         Cy_SCB_ClearRxInterrupt(base, CY_SCB_RX_INTR_LEVEL);
 800:Generated_Source\PSoC6\pdl\drivers\peripheral\scb/cy_scb_ezi2c.c ****     }
 801:Generated_Source\PSoC6\pdl\drivers\peripheral\scb/cy_scb_ezi2c.c **** 
 802:Generated_Source\PSoC6\pdl\drivers\peripheral\scb/cy_scb_ezi2c.c ****     /* Handle the transaction completion */
 803:Generated_Source\PSoC6\pdl\drivers\peripheral\scb/cy_scb_ezi2c.c ****     if (0UL != (CY_SCB_SLAVE_INTR_I2C_STOP & slaveIntrStatus))
 804:Generated_Source\PSoC6\pdl\drivers\peripheral\scb/cy_scb_ezi2c.c ****     {
 805:Generated_Source\PSoC6\pdl\drivers\peripheral\scb/cy_scb_ezi2c.c ****         HandleStop(base, context);
 806:Generated_Source\PSoC6\pdl\drivers\peripheral\scb/cy_scb_ezi2c.c **** 
ARM GAS  C:\Users\pearlstl\AppData\Local\Temp\ccHsEs7Z.s 			page 17


 807:Generated_Source\PSoC6\pdl\drivers\peripheral\scb/cy_scb_ezi2c.c ****         Cy_SCB_ClearSlaveInterrupt(base, CY_SCB_SLAVE_INTR_I2C_STOP);
 808:Generated_Source\PSoC6\pdl\drivers\peripheral\scb/cy_scb_ezi2c.c **** 
 809:Generated_Source\PSoC6\pdl\drivers\peripheral\scb/cy_scb_ezi2c.c ****         /* Update the slave interrupt status */
 810:Generated_Source\PSoC6\pdl\drivers\peripheral\scb/cy_scb_ezi2c.c ****         slaveIntrStatus = Cy_SCB_GetSlaveInterruptStatusMasked(base);
 811:Generated_Source\PSoC6\pdl\drivers\peripheral\scb/cy_scb_ezi2c.c ****     }
 812:Generated_Source\PSoC6\pdl\drivers\peripheral\scb/cy_scb_ezi2c.c **** 
 813:Generated_Source\PSoC6\pdl\drivers\peripheral\scb/cy_scb_ezi2c.c ****     /* Handle the address byte */
 814:Generated_Source\PSoC6\pdl\drivers\peripheral\scb/cy_scb_ezi2c.c ****     if (0UL != (CY_SCB_SLAVE_INTR_I2C_ADDR_MATCH & slaveIntrStatus))
 815:Generated_Source\PSoC6\pdl\drivers\peripheral\scb/cy_scb_ezi2c.c ****     {
 816:Generated_Source\PSoC6\pdl\drivers\peripheral\scb/cy_scb_ezi2c.c ****         HandleAddress(base, context);
 817:Generated_Source\PSoC6\pdl\drivers\peripheral\scb/cy_scb_ezi2c.c **** 
 818:Generated_Source\PSoC6\pdl\drivers\peripheral\scb/cy_scb_ezi2c.c ****         Cy_SCB_ClearI2CInterrupt  (base, CY_SCB_I2C_INTR_WAKEUP);
 819:Generated_Source\PSoC6\pdl\drivers\peripheral\scb/cy_scb_ezi2c.c ****         Cy_SCB_ClearSlaveInterrupt(base, CY_SCB_SLAVE_INTR_I2C_ADDR_MATCH);
 820:Generated_Source\PSoC6\pdl\drivers\peripheral\scb/cy_scb_ezi2c.c ****     }
 821:Generated_Source\PSoC6\pdl\drivers\peripheral\scb/cy_scb_ezi2c.c **** 
 822:Generated_Source\PSoC6\pdl\drivers\peripheral\scb/cy_scb_ezi2c.c ****     /* Handle the transmit direction (master reads data) */
 823:Generated_Source\PSoC6\pdl\drivers\peripheral\scb/cy_scb_ezi2c.c ****     if (0UL != (CY_SCB_TX_INTR_LEVEL & Cy_SCB_GetTxInterruptStatusMasked(base)))
 824:Generated_Source\PSoC6\pdl\drivers\peripheral\scb/cy_scb_ezi2c.c ****     {
 825:Generated_Source\PSoC6\pdl\drivers\peripheral\scb/cy_scb_ezi2c.c ****         HandleDataTransmit(base, context);
 826:Generated_Source\PSoC6\pdl\drivers\peripheral\scb/cy_scb_ezi2c.c **** 
 827:Generated_Source\PSoC6\pdl\drivers\peripheral\scb/cy_scb_ezi2c.c ****         Cy_SCB_ClearTxInterrupt(base, CY_SCB_TX_INTR_LEVEL);
 828:Generated_Source\PSoC6\pdl\drivers\peripheral\scb/cy_scb_ezi2c.c ****     }
 829:Generated_Source\PSoC6\pdl\drivers\peripheral\scb/cy_scb_ezi2c.c **** }
 830:Generated_Source\PSoC6\pdl\drivers\peripheral\scb/cy_scb_ezi2c.c **** 
 831:Generated_Source\PSoC6\pdl\drivers\peripheral\scb/cy_scb_ezi2c.c **** 
 832:Generated_Source\PSoC6\pdl\drivers\peripheral\scb/cy_scb_ezi2c.c **** 
 833:Generated_Source\PSoC6\pdl\drivers\peripheral\scb/cy_scb_ezi2c.c **** /*******************************************************************************
 834:Generated_Source\PSoC6\pdl\drivers\peripheral\scb/cy_scb_ezi2c.c **** * Function Name: HandleErrors
 835:Generated_Source\PSoC6\pdl\drivers\peripheral\scb/cy_scb_ezi2c.c **** ****************************************************************************//**
 836:Generated_Source\PSoC6\pdl\drivers\peripheral\scb/cy_scb_ezi2c.c **** *
 837:Generated_Source\PSoC6\pdl\drivers\peripheral\scb/cy_scb_ezi2c.c **** * Handles an error conditions.
 838:Generated_Source\PSoC6\pdl\drivers\peripheral\scb/cy_scb_ezi2c.c **** *
 839:Generated_Source\PSoC6\pdl\drivers\peripheral\scb/cy_scb_ezi2c.c **** * \param base
 840:Generated_Source\PSoC6\pdl\drivers\peripheral\scb/cy_scb_ezi2c.c **** * The pointer to the EZI2C SCB instance.
 841:Generated_Source\PSoC6\pdl\drivers\peripheral\scb/cy_scb_ezi2c.c **** *
 842:Generated_Source\PSoC6\pdl\drivers\peripheral\scb/cy_scb_ezi2c.c **** * \param context
 843:Generated_Source\PSoC6\pdl\drivers\peripheral\scb/cy_scb_ezi2c.c **** * The pointer to the context structure \ref cy_stc_scb_ezi2c_context_t allocated
 844:Generated_Source\PSoC6\pdl\drivers\peripheral\scb/cy_scb_ezi2c.c **** * by the user. The structure is used during the EZI2C operation for internal
 845:Generated_Source\PSoC6\pdl\drivers\peripheral\scb/cy_scb_ezi2c.c **** * configuration and data retention. The user must not modify anything
 846:Generated_Source\PSoC6\pdl\drivers\peripheral\scb/cy_scb_ezi2c.c **** * in this structure.
 847:Generated_Source\PSoC6\pdl\drivers\peripheral\scb/cy_scb_ezi2c.c **** *
 848:Generated_Source\PSoC6\pdl\drivers\peripheral\scb/cy_scb_ezi2c.c **** *******************************************************************************/
 849:Generated_Source\PSoC6\pdl\drivers\peripheral\scb/cy_scb_ezi2c.c **** static void HandleErrors(CySCB_Type *base, cy_stc_scb_ezi2c_context_t *context)
 850:Generated_Source\PSoC6\pdl\drivers\peripheral\scb/cy_scb_ezi2c.c **** {
 851:Generated_Source\PSoC6\pdl\drivers\peripheral\scb/cy_scb_ezi2c.c ****     context->status |= CY_SCB_EZI2C_STATUS_ERR;
 852:Generated_Source\PSoC6\pdl\drivers\peripheral\scb/cy_scb_ezi2c.c **** 
 853:Generated_Source\PSoC6\pdl\drivers\peripheral\scb/cy_scb_ezi2c.c ****     /* Drop any data available in the RX FIFO */
 854:Generated_Source\PSoC6\pdl\drivers\peripheral\scb/cy_scb_ezi2c.c ****     Cy_SCB_ClearRxFifo(base);
 855:Generated_Source\PSoC6\pdl\drivers\peripheral\scb/cy_scb_ezi2c.c **** 
 856:Generated_Source\PSoC6\pdl\drivers\peripheral\scb/cy_scb_ezi2c.c ****     /* Stop the TX and RX processing */
 857:Generated_Source\PSoC6\pdl\drivers\peripheral\scb/cy_scb_ezi2c.c ****     Cy_SCB_SetRxInterruptMask(base, CY_SCB_CLEAR_ALL_INTR_SRC);
 858:Generated_Source\PSoC6\pdl\drivers\peripheral\scb/cy_scb_ezi2c.c ****     Cy_SCB_SetTxInterruptMask(base, CY_SCB_CLEAR_ALL_INTR_SRC);
 859:Generated_Source\PSoC6\pdl\drivers\peripheral\scb/cy_scb_ezi2c.c **** }
 860:Generated_Source\PSoC6\pdl\drivers\peripheral\scb/cy_scb_ezi2c.c **** 
 861:Generated_Source\PSoC6\pdl\drivers\peripheral\scb/cy_scb_ezi2c.c **** 
 862:Generated_Source\PSoC6\pdl\drivers\peripheral\scb/cy_scb_ezi2c.c **** /*******************************************************************************
 863:Generated_Source\PSoC6\pdl\drivers\peripheral\scb/cy_scb_ezi2c.c **** * Function Name: HandleAddress
ARM GAS  C:\Users\pearlstl\AppData\Local\Temp\ccHsEs7Z.s 			page 18


 864:Generated_Source\PSoC6\pdl\drivers\peripheral\scb/cy_scb_ezi2c.c **** ****************************************************************************//**
 865:Generated_Source\PSoC6\pdl\drivers\peripheral\scb/cy_scb_ezi2c.c **** *
 866:Generated_Source\PSoC6\pdl\drivers\peripheral\scb/cy_scb_ezi2c.c **** * Prepares the EZI2C slave for the following read or write transfer after the
 867:Generated_Source\PSoC6\pdl\drivers\peripheral\scb/cy_scb_ezi2c.c **** * matched address was received.
 868:Generated_Source\PSoC6\pdl\drivers\peripheral\scb/cy_scb_ezi2c.c **** *
 869:Generated_Source\PSoC6\pdl\drivers\peripheral\scb/cy_scb_ezi2c.c **** * \param base
 870:Generated_Source\PSoC6\pdl\drivers\peripheral\scb/cy_scb_ezi2c.c **** * The pointer to the EZI2C SCB instance.
 871:Generated_Source\PSoC6\pdl\drivers\peripheral\scb/cy_scb_ezi2c.c **** *
 872:Generated_Source\PSoC6\pdl\drivers\peripheral\scb/cy_scb_ezi2c.c **** * \param context
 873:Generated_Source\PSoC6\pdl\drivers\peripheral\scb/cy_scb_ezi2c.c **** * The pointer to the context structure \ref cy_stc_scb_ezi2c_context_t allocated
 874:Generated_Source\PSoC6\pdl\drivers\peripheral\scb/cy_scb_ezi2c.c **** * by the user. The structure is used during the EZI2C operation for internal
 875:Generated_Source\PSoC6\pdl\drivers\peripheral\scb/cy_scb_ezi2c.c **** * configuration and data retention. The user must not modify anything
 876:Generated_Source\PSoC6\pdl\drivers\peripheral\scb/cy_scb_ezi2c.c **** * in this structure.
 877:Generated_Source\PSoC6\pdl\drivers\peripheral\scb/cy_scb_ezi2c.c **** *
 878:Generated_Source\PSoC6\pdl\drivers\peripheral\scb/cy_scb_ezi2c.c **** *******************************************************************************/
 879:Generated_Source\PSoC6\pdl\drivers\peripheral\scb/cy_scb_ezi2c.c **** static void HandleAddress(CySCB_Type *base, cy_stc_scb_ezi2c_context_t *context)
 880:Generated_Source\PSoC6\pdl\drivers\peripheral\scb/cy_scb_ezi2c.c **** {
 881:Generated_Source\PSoC6\pdl\drivers\peripheral\scb/cy_scb_ezi2c.c ****     /* Default actions: ACK address 1 */
 882:Generated_Source\PSoC6\pdl\drivers\peripheral\scb/cy_scb_ezi2c.c ****     uint32_t cmd = SCB_I2C_S_CMD_S_ACK_Msk;
 883:Generated_Source\PSoC6\pdl\drivers\peripheral\scb/cy_scb_ezi2c.c ****     context->addr1Active = true;
 884:Generated_Source\PSoC6\pdl\drivers\peripheral\scb/cy_scb_ezi2c.c **** 
 885:Generated_Source\PSoC6\pdl\drivers\peripheral\scb/cy_scb_ezi2c.c ****     if (0U != context->address2)
 886:Generated_Source\PSoC6\pdl\drivers\peripheral\scb/cy_scb_ezi2c.c ****     {
 887:Generated_Source\PSoC6\pdl\drivers\peripheral\scb/cy_scb_ezi2c.c ****         /* Get an address from the RX FIFO and make it a 7-bit address */
 888:Generated_Source\PSoC6\pdl\drivers\peripheral\scb/cy_scb_ezi2c.c ****         uint32_t address = (Cy_SCB_ReadRxFifo(base) >> 1UL);
 889:Generated_Source\PSoC6\pdl\drivers\peripheral\scb/cy_scb_ezi2c.c ****         Cy_SCB_ClearRxInterrupt(base, CY_SCB_RX_INTR_LEVEL);
 890:Generated_Source\PSoC6\pdl\drivers\peripheral\scb/cy_scb_ezi2c.c **** 
 891:Generated_Source\PSoC6\pdl\drivers\peripheral\scb/cy_scb_ezi2c.c ****         /* Decide whether the address matches */
 892:Generated_Source\PSoC6\pdl\drivers\peripheral\scb/cy_scb_ezi2c.c ****         if ((address == context->address1) || (address == context->address2))
 893:Generated_Source\PSoC6\pdl\drivers\peripheral\scb/cy_scb_ezi2c.c ****         {
 894:Generated_Source\PSoC6\pdl\drivers\peripheral\scb/cy_scb_ezi2c.c ****             /* ACK the address */
 895:Generated_Source\PSoC6\pdl\drivers\peripheral\scb/cy_scb_ezi2c.c ****             if (address == context->address2)
 896:Generated_Source\PSoC6\pdl\drivers\peripheral\scb/cy_scb_ezi2c.c ****             {
 897:Generated_Source\PSoC6\pdl\drivers\peripheral\scb/cy_scb_ezi2c.c ****                 context->addr1Active = false;
 898:Generated_Source\PSoC6\pdl\drivers\peripheral\scb/cy_scb_ezi2c.c ****             }
 899:Generated_Source\PSoC6\pdl\drivers\peripheral\scb/cy_scb_ezi2c.c **** 
 900:Generated_Source\PSoC6\pdl\drivers\peripheral\scb/cy_scb_ezi2c.c ****             /* Clear and enable the stop interrupt source */
 901:Generated_Source\PSoC6\pdl\drivers\peripheral\scb/cy_scb_ezi2c.c ****             Cy_SCB_ClearSlaveInterrupt  (base, CY_SCB_SLAVE_INTR_I2C_STOP);
 902:Generated_Source\PSoC6\pdl\drivers\peripheral\scb/cy_scb_ezi2c.c ****             Cy_SCB_SetSlaveInterruptMask(base, CY_SCB_EZI2C_SLAVE_INTR);
 903:Generated_Source\PSoC6\pdl\drivers\peripheral\scb/cy_scb_ezi2c.c ****         }
 904:Generated_Source\PSoC6\pdl\drivers\peripheral\scb/cy_scb_ezi2c.c ****         else
 905:Generated_Source\PSoC6\pdl\drivers\peripheral\scb/cy_scb_ezi2c.c ****         {
 906:Generated_Source\PSoC6\pdl\drivers\peripheral\scb/cy_scb_ezi2c.c ****             /* NACK the address */
 907:Generated_Source\PSoC6\pdl\drivers\peripheral\scb/cy_scb_ezi2c.c ****             cmd = SCB_I2C_S_CMD_S_NACK_Msk;
 908:Generated_Source\PSoC6\pdl\drivers\peripheral\scb/cy_scb_ezi2c.c **** 
 909:Generated_Source\PSoC6\pdl\drivers\peripheral\scb/cy_scb_ezi2c.c ****             /* Disable the stop interrupt source */
 910:Generated_Source\PSoC6\pdl\drivers\peripheral\scb/cy_scb_ezi2c.c ****             Cy_SCB_SetI2CInterruptMask(base, CY_SCB_EZI2C_SLAVE_INTR_NO_STOP);
 911:Generated_Source\PSoC6\pdl\drivers\peripheral\scb/cy_scb_ezi2c.c ****         }
 912:Generated_Source\PSoC6\pdl\drivers\peripheral\scb/cy_scb_ezi2c.c ****     }
 913:Generated_Source\PSoC6\pdl\drivers\peripheral\scb/cy_scb_ezi2c.c **** 
 914:Generated_Source\PSoC6\pdl\drivers\peripheral\scb/cy_scb_ezi2c.c ****     /* Clear the TX FIFO before continuing the transaction */
 915:Generated_Source\PSoC6\pdl\drivers\peripheral\scb/cy_scb_ezi2c.c ****     Cy_SCB_ClearTxFifo(base);
 916:Generated_Source\PSoC6\pdl\drivers\peripheral\scb/cy_scb_ezi2c.c **** 
 917:Generated_Source\PSoC6\pdl\drivers\peripheral\scb/cy_scb_ezi2c.c ****     /* Set the command to an ACK or NACK address */
 918:Generated_Source\PSoC6\pdl\drivers\peripheral\scb/cy_scb_ezi2c.c ****     SCB_I2C_S_CMD(base) = cmd;
 919:Generated_Source\PSoC6\pdl\drivers\peripheral\scb/cy_scb_ezi2c.c **** 
 920:Generated_Source\PSoC6\pdl\drivers\peripheral\scb/cy_scb_ezi2c.c ****     if (cmd == SCB_I2C_S_CMD_S_ACK_Msk)
ARM GAS  C:\Users\pearlstl\AppData\Local\Temp\ccHsEs7Z.s 			page 19


 921:Generated_Source\PSoC6\pdl\drivers\peripheral\scb/cy_scb_ezi2c.c ****     {
 922:Generated_Source\PSoC6\pdl\drivers\peripheral\scb/cy_scb_ezi2c.c ****         context->status |= CY_SCB_EZI2C_STATUS_BUSY;
 923:Generated_Source\PSoC6\pdl\drivers\peripheral\scb/cy_scb_ezi2c.c **** 
 924:Generated_Source\PSoC6\pdl\drivers\peripheral\scb/cy_scb_ezi2c.c ****         /* Prepare for a transaction */
 925:Generated_Source\PSoC6\pdl\drivers\peripheral\scb/cy_scb_ezi2c.c ****         if (_FLD2BOOL(SCB_I2C_STATUS_S_READ, SCB_I2C_STATUS(base)))
 926:Generated_Source\PSoC6\pdl\drivers\peripheral\scb/cy_scb_ezi2c.c ****         {
 927:Generated_Source\PSoC6\pdl\drivers\peripheral\scb/cy_scb_ezi2c.c ****             /* The master reads data from the slave */
 928:Generated_Source\PSoC6\pdl\drivers\peripheral\scb/cy_scb_ezi2c.c ****             context->state = CY_SCB_EZI2C_STATE_TX_DATA;
 929:Generated_Source\PSoC6\pdl\drivers\peripheral\scb/cy_scb_ezi2c.c **** 
 930:Generated_Source\PSoC6\pdl\drivers\peripheral\scb/cy_scb_ezi2c.c ****             /* Prepare the buffer for transmit */
 931:Generated_Source\PSoC6\pdl\drivers\peripheral\scb/cy_scb_ezi2c.c ****             if (context->addr1Active)
 932:Generated_Source\PSoC6\pdl\drivers\peripheral\scb/cy_scb_ezi2c.c ****             {
 933:Generated_Source\PSoC6\pdl\drivers\peripheral\scb/cy_scb_ezi2c.c ****                 context->curBuf  = &context->buf1[context->baseAddr1];
 934:Generated_Source\PSoC6\pdl\drivers\peripheral\scb/cy_scb_ezi2c.c ****                 context->bufSize = context->buf1Size - context->baseAddr1;
 935:Generated_Source\PSoC6\pdl\drivers\peripheral\scb/cy_scb_ezi2c.c ****             }
 936:Generated_Source\PSoC6\pdl\drivers\peripheral\scb/cy_scb_ezi2c.c ****             else
 937:Generated_Source\PSoC6\pdl\drivers\peripheral\scb/cy_scb_ezi2c.c ****             {
 938:Generated_Source\PSoC6\pdl\drivers\peripheral\scb/cy_scb_ezi2c.c ****                 context->curBuf  = &context->buf2[context->baseAddr2];
 939:Generated_Source\PSoC6\pdl\drivers\peripheral\scb/cy_scb_ezi2c.c ****                 context->bufSize = context->buf2Size - context->baseAddr2;
 940:Generated_Source\PSoC6\pdl\drivers\peripheral\scb/cy_scb_ezi2c.c ****             }
 941:Generated_Source\PSoC6\pdl\drivers\peripheral\scb/cy_scb_ezi2c.c **** 
 942:Generated_Source\PSoC6\pdl\drivers\peripheral\scb/cy_scb_ezi2c.c ****             Cy_SCB_SetTxInterruptMask(base, CY_SCB_TX_INTR_LEVEL);
 943:Generated_Source\PSoC6\pdl\drivers\peripheral\scb/cy_scb_ezi2c.c ****         }
 944:Generated_Source\PSoC6\pdl\drivers\peripheral\scb/cy_scb_ezi2c.c ****         else
 945:Generated_Source\PSoC6\pdl\drivers\peripheral\scb/cy_scb_ezi2c.c ****         {
 946:Generated_Source\PSoC6\pdl\drivers\peripheral\scb/cy_scb_ezi2c.c ****             /* The master writes data into the slave */
 947:Generated_Source\PSoC6\pdl\drivers\peripheral\scb/cy_scb_ezi2c.c ****             context->state = CY_SCB_EZI2C_STATE_RX_OFFSET_MSB;
 948:Generated_Source\PSoC6\pdl\drivers\peripheral\scb/cy_scb_ezi2c.c **** 
 949:Generated_Source\PSoC6\pdl\drivers\peripheral\scb/cy_scb_ezi2c.c ****             context->bufSize = ((context->addr1Active) ? context->buf1Size : context->buf2Size);
 950:Generated_Source\PSoC6\pdl\drivers\peripheral\scb/cy_scb_ezi2c.c **** 
 951:Generated_Source\PSoC6\pdl\drivers\peripheral\scb/cy_scb_ezi2c.c ****             Cy_SCB_SetRxFifoLevel    (base, 0UL);
 952:Generated_Source\PSoC6\pdl\drivers\peripheral\scb/cy_scb_ezi2c.c ****             Cy_SCB_SetRxInterruptMask(base, CY_SCB_RX_INTR_LEVEL);
 953:Generated_Source\PSoC6\pdl\drivers\peripheral\scb/cy_scb_ezi2c.c ****         }
 954:Generated_Source\PSoC6\pdl\drivers\peripheral\scb/cy_scb_ezi2c.c ****     }
 955:Generated_Source\PSoC6\pdl\drivers\peripheral\scb/cy_scb_ezi2c.c **** }
 956:Generated_Source\PSoC6\pdl\drivers\peripheral\scb/cy_scb_ezi2c.c **** 
 957:Generated_Source\PSoC6\pdl\drivers\peripheral\scb/cy_scb_ezi2c.c **** 
 958:Generated_Source\PSoC6\pdl\drivers\peripheral\scb/cy_scb_ezi2c.c **** /*******************************************************************************
 959:Generated_Source\PSoC6\pdl\drivers\peripheral\scb/cy_scb_ezi2c.c **** * Function Name: HandleDataReceive
 960:Generated_Source\PSoC6\pdl\drivers\peripheral\scb/cy_scb_ezi2c.c **** ****************************************************************************//**
 961:Generated_Source\PSoC6\pdl\drivers\peripheral\scb/cy_scb_ezi2c.c **** *
 962:Generated_Source\PSoC6\pdl\drivers\peripheral\scb/cy_scb_ezi2c.c **** * Updates the RX FIFO level to trigger the next read from it. It also manages
 963:Generated_Source\PSoC6\pdl\drivers\peripheral\scb/cy_scb_ezi2c.c **** * the auto-data NACK feature.
 964:Generated_Source\PSoC6\pdl\drivers\peripheral\scb/cy_scb_ezi2c.c **** *
 965:Generated_Source\PSoC6\pdl\drivers\peripheral\scb/cy_scb_ezi2c.c **** * \param base
 966:Generated_Source\PSoC6\pdl\drivers\peripheral\scb/cy_scb_ezi2c.c **** * The pointer to the EZI2C SCB instance.
 967:Generated_Source\PSoC6\pdl\drivers\peripheral\scb/cy_scb_ezi2c.c **** *
 968:Generated_Source\PSoC6\pdl\drivers\peripheral\scb/cy_scb_ezi2c.c **** * \param bufSize
 969:Generated_Source\PSoC6\pdl\drivers\peripheral\scb/cy_scb_ezi2c.c **** * The size of the buffer in bytes.
 970:Generated_Source\PSoC6\pdl\drivers\peripheral\scb/cy_scb_ezi2c.c **** *
 971:Generated_Source\PSoC6\pdl\drivers\peripheral\scb/cy_scb_ezi2c.c **** *******************************************************************************/
 972:Generated_Source\PSoC6\pdl\drivers\peripheral\scb/cy_scb_ezi2c.c **** static void UpdateRxFifoLevel(CySCB_Type *base, uint32_t bufSize)
 973:Generated_Source\PSoC6\pdl\drivers\peripheral\scb/cy_scb_ezi2c.c **** {
 974:Generated_Source\PSoC6\pdl\drivers\peripheral\scb/cy_scb_ezi2c.c ****     uint32_t level;
 975:Generated_Source\PSoC6\pdl\drivers\peripheral\scb/cy_scb_ezi2c.c ****     uint32_t fifoSize = CY_SCB_EZI2C_FIFO_SIZE;
 976:Generated_Source\PSoC6\pdl\drivers\peripheral\scb/cy_scb_ezi2c.c **** 
 977:Generated_Source\PSoC6\pdl\drivers\peripheral\scb/cy_scb_ezi2c.c ****     if (bufSize > fifoSize)
ARM GAS  C:\Users\pearlstl\AppData\Local\Temp\ccHsEs7Z.s 			page 20


 978:Generated_Source\PSoC6\pdl\drivers\peripheral\scb/cy_scb_ezi2c.c ****     {
 979:Generated_Source\PSoC6\pdl\drivers\peripheral\scb/cy_scb_ezi2c.c ****         /* Continue the transaction: there is space in the buffer */
 980:Generated_Source\PSoC6\pdl\drivers\peripheral\scb/cy_scb_ezi2c.c ****         level = (bufSize - fifoSize);
 981:Generated_Source\PSoC6\pdl\drivers\peripheral\scb/cy_scb_ezi2c.c ****         level = ((level > fifoSize) ? (fifoSize / 2UL) : level) - 1UL;
 982:Generated_Source\PSoC6\pdl\drivers\peripheral\scb/cy_scb_ezi2c.c ****     }
 983:Generated_Source\PSoC6\pdl\drivers\peripheral\scb/cy_scb_ezi2c.c ****     else
 984:Generated_Source\PSoC6\pdl\drivers\peripheral\scb/cy_scb_ezi2c.c ****     {
 985:Generated_Source\PSoC6\pdl\drivers\peripheral\scb/cy_scb_ezi2c.c ****         /* Prepare to end the transaction: after the FIFO becomes full, NACK the next byte.
 986:Generated_Source\PSoC6\pdl\drivers\peripheral\scb/cy_scb_ezi2c.c ****         * The NACKed byte is dropped by the hardware.
 987:Generated_Source\PSoC6\pdl\drivers\peripheral\scb/cy_scb_ezi2c.c ****         */
 988:Generated_Source\PSoC6\pdl\drivers\peripheral\scb/cy_scb_ezi2c.c ****         SCB_I2C_CTRL(base) |= SCB_I2C_CTRL_S_NOT_READY_DATA_NACK_Msk;
 989:Generated_Source\PSoC6\pdl\drivers\peripheral\scb/cy_scb_ezi2c.c **** 
 990:Generated_Source\PSoC6\pdl\drivers\peripheral\scb/cy_scb_ezi2c.c ****         level = ((bufSize == 0UL) ? (0UL) : (bufSize - 1UL));
 991:Generated_Source\PSoC6\pdl\drivers\peripheral\scb/cy_scb_ezi2c.c ****         Cy_SCB_SetRxInterruptMask(base, CY_SCB_CLEAR_ALL_INTR_SRC);
 992:Generated_Source\PSoC6\pdl\drivers\peripheral\scb/cy_scb_ezi2c.c ****     }
 993:Generated_Source\PSoC6\pdl\drivers\peripheral\scb/cy_scb_ezi2c.c **** 
 994:Generated_Source\PSoC6\pdl\drivers\peripheral\scb/cy_scb_ezi2c.c ****     Cy_SCB_SetRxFifoLevel(base, level);
 995:Generated_Source\PSoC6\pdl\drivers\peripheral\scb/cy_scb_ezi2c.c **** }
 996:Generated_Source\PSoC6\pdl\drivers\peripheral\scb/cy_scb_ezi2c.c **** 
 997:Generated_Source\PSoC6\pdl\drivers\peripheral\scb/cy_scb_ezi2c.c **** 
 998:Generated_Source\PSoC6\pdl\drivers\peripheral\scb/cy_scb_ezi2c.c **** /*******************************************************************************
 999:Generated_Source\PSoC6\pdl\drivers\peripheral\scb/cy_scb_ezi2c.c **** * Function Name: HandleDataReceive
1000:Generated_Source\PSoC6\pdl\drivers\peripheral\scb/cy_scb_ezi2c.c **** ****************************************************************************//**
1001:Generated_Source\PSoC6\pdl\drivers\peripheral\scb/cy_scb_ezi2c.c **** *
1002:Generated_Source\PSoC6\pdl\drivers\peripheral\scb/cy_scb_ezi2c.c **** * Handles the data read from the RX FIFO.
1003:Generated_Source\PSoC6\pdl\drivers\peripheral\scb/cy_scb_ezi2c.c **** *
1004:Generated_Source\PSoC6\pdl\drivers\peripheral\scb/cy_scb_ezi2c.c **** * \param base
1005:Generated_Source\PSoC6\pdl\drivers\peripheral\scb/cy_scb_ezi2c.c **** * The pointer to the EZI2C SCB instance.
1006:Generated_Source\PSoC6\pdl\drivers\peripheral\scb/cy_scb_ezi2c.c **** *
1007:Generated_Source\PSoC6\pdl\drivers\peripheral\scb/cy_scb_ezi2c.c **** * \param context
1008:Generated_Source\PSoC6\pdl\drivers\peripheral\scb/cy_scb_ezi2c.c **** * The pointer to the context structure \ref cy_stc_scb_ezi2c_context_t allocated
1009:Generated_Source\PSoC6\pdl\drivers\peripheral\scb/cy_scb_ezi2c.c **** * by the user. The structure is used during the EZI2C operation for internal
1010:Generated_Source\PSoC6\pdl\drivers\peripheral\scb/cy_scb_ezi2c.c **** * configuration and data retention. The user must not modify anything
1011:Generated_Source\PSoC6\pdl\drivers\peripheral\scb/cy_scb_ezi2c.c **** * in this structure.
1012:Generated_Source\PSoC6\pdl\drivers\peripheral\scb/cy_scb_ezi2c.c **** *
1013:Generated_Source\PSoC6\pdl\drivers\peripheral\scb/cy_scb_ezi2c.c **** *******************************************************************************/
1014:Generated_Source\PSoC6\pdl\drivers\peripheral\scb/cy_scb_ezi2c.c **** static void HandleDataReceive(CySCB_Type *base, cy_stc_scb_ezi2c_context_t *context)
1015:Generated_Source\PSoC6\pdl\drivers\peripheral\scb/cy_scb_ezi2c.c **** {
1016:Generated_Source\PSoC6\pdl\drivers\peripheral\scb/cy_scb_ezi2c.c ****     switch(context->state)
1017:Generated_Source\PSoC6\pdl\drivers\peripheral\scb/cy_scb_ezi2c.c ****     {
1018:Generated_Source\PSoC6\pdl\drivers\peripheral\scb/cy_scb_ezi2c.c ****         case CY_SCB_EZI2C_STATE_RX_OFFSET_MSB:
1019:Generated_Source\PSoC6\pdl\drivers\peripheral\scb/cy_scb_ezi2c.c ****         case CY_SCB_EZI2C_STATE_RX_OFFSET_LSB:
1020:Generated_Source\PSoC6\pdl\drivers\peripheral\scb/cy_scb_ezi2c.c ****         {
1021:Generated_Source\PSoC6\pdl\drivers\peripheral\scb/cy_scb_ezi2c.c ****             /* Default actions: compare the base address and ACK it */
1022:Generated_Source\PSoC6\pdl\drivers\peripheral\scb/cy_scb_ezi2c.c ****             bool checkBaseAddr = true;
1023:Generated_Source\PSoC6\pdl\drivers\peripheral\scb/cy_scb_ezi2c.c **** 
1024:Generated_Source\PSoC6\pdl\drivers\peripheral\scb/cy_scb_ezi2c.c ****             /* Get the base address from the RX FIFO */
1025:Generated_Source\PSoC6\pdl\drivers\peripheral\scb/cy_scb_ezi2c.c ****             uint32_t baseAddr = Cy_SCB_ReadRxFifo(base);
1026:Generated_Source\PSoC6\pdl\drivers\peripheral\scb/cy_scb_ezi2c.c **** 
1027:Generated_Source\PSoC6\pdl\drivers\peripheral\scb/cy_scb_ezi2c.c ****             if (context->subAddrSize == CY_SCB_EZI2C_SUB_ADDR16_BITS)
1028:Generated_Source\PSoC6\pdl\drivers\peripheral\scb/cy_scb_ezi2c.c ****             {
1029:Generated_Source\PSoC6\pdl\drivers\peripheral\scb/cy_scb_ezi2c.c ****                 if (context->state == CY_SCB_EZI2C_STATE_RX_OFFSET_MSB)
1030:Generated_Source\PSoC6\pdl\drivers\peripheral\scb/cy_scb_ezi2c.c ****                 {
1031:Generated_Source\PSoC6\pdl\drivers\peripheral\scb/cy_scb_ezi2c.c ****                     /* ACK base address MSB */
1032:Generated_Source\PSoC6\pdl\drivers\peripheral\scb/cy_scb_ezi2c.c ****                     SCB_I2C_S_CMD(base) = SCB_I2C_S_CMD_S_ACK_Msk;
1033:Generated_Source\PSoC6\pdl\drivers\peripheral\scb/cy_scb_ezi2c.c **** 
1034:Generated_Source\PSoC6\pdl\drivers\peripheral\scb/cy_scb_ezi2c.c ****                     /* Temporary store base address MSB */
ARM GAS  C:\Users\pearlstl\AppData\Local\Temp\ccHsEs7Z.s 			page 21


1035:Generated_Source\PSoC6\pdl\drivers\peripheral\scb/cy_scb_ezi2c.c ****                     context->idx = (uint32_t) (baseAddr << 8UL);
1036:Generated_Source\PSoC6\pdl\drivers\peripheral\scb/cy_scb_ezi2c.c **** 
1037:Generated_Source\PSoC6\pdl\drivers\peripheral\scb/cy_scb_ezi2c.c ****                     /* Do not compare until 16 bits are received */
1038:Generated_Source\PSoC6\pdl\drivers\peripheral\scb/cy_scb_ezi2c.c ****                     checkBaseAddr = false;
1039:Generated_Source\PSoC6\pdl\drivers\peripheral\scb/cy_scb_ezi2c.c ****                     context->state = CY_SCB_EZI2C_STATE_RX_OFFSET_LSB;
1040:Generated_Source\PSoC6\pdl\drivers\peripheral\scb/cy_scb_ezi2c.c ****                 }
1041:Generated_Source\PSoC6\pdl\drivers\peripheral\scb/cy_scb_ezi2c.c ****                 else
1042:Generated_Source\PSoC6\pdl\drivers\peripheral\scb/cy_scb_ezi2c.c ****                 {
1043:Generated_Source\PSoC6\pdl\drivers\peripheral\scb/cy_scb_ezi2c.c ****                     /* Get the base address (MSB | LSB) */
1044:Generated_Source\PSoC6\pdl\drivers\peripheral\scb/cy_scb_ezi2c.c ****                     baseAddr |= context->idx;
1045:Generated_Source\PSoC6\pdl\drivers\peripheral\scb/cy_scb_ezi2c.c ****                 }
1046:Generated_Source\PSoC6\pdl\drivers\peripheral\scb/cy_scb_ezi2c.c ****             }
1047:Generated_Source\PSoC6\pdl\drivers\peripheral\scb/cy_scb_ezi2c.c **** 
1048:Generated_Source\PSoC6\pdl\drivers\peripheral\scb/cy_scb_ezi2c.c ****             /* Check whether the received base address is valid */
1049:Generated_Source\PSoC6\pdl\drivers\peripheral\scb/cy_scb_ezi2c.c ****             if (checkBaseAddr)
1050:Generated_Source\PSoC6\pdl\drivers\peripheral\scb/cy_scb_ezi2c.c ****             {
1051:Generated_Source\PSoC6\pdl\drivers\peripheral\scb/cy_scb_ezi2c.c ****                 uint32_t cmd = SCB_I2C_S_CMD_S_ACK_Msk;
1052:Generated_Source\PSoC6\pdl\drivers\peripheral\scb/cy_scb_ezi2c.c **** 
1053:Generated_Source\PSoC6\pdl\drivers\peripheral\scb/cy_scb_ezi2c.c ****                 /* Decide whether the base address within the buffer range */
1054:Generated_Source\PSoC6\pdl\drivers\peripheral\scb/cy_scb_ezi2c.c ****                 if (baseAddr < context->bufSize)
1055:Generated_Source\PSoC6\pdl\drivers\peripheral\scb/cy_scb_ezi2c.c ****                 {
1056:Generated_Source\PSoC6\pdl\drivers\peripheral\scb/cy_scb_ezi2c.c ****                     /* Accept the new base address */
1057:Generated_Source\PSoC6\pdl\drivers\peripheral\scb/cy_scb_ezi2c.c ****                     if (context->addr1Active)
1058:Generated_Source\PSoC6\pdl\drivers\peripheral\scb/cy_scb_ezi2c.c ****                     {
1059:Generated_Source\PSoC6\pdl\drivers\peripheral\scb/cy_scb_ezi2c.c ****                         context->baseAddr1 = baseAddr;
1060:Generated_Source\PSoC6\pdl\drivers\peripheral\scb/cy_scb_ezi2c.c ****                     }
1061:Generated_Source\PSoC6\pdl\drivers\peripheral\scb/cy_scb_ezi2c.c ****                     else
1062:Generated_Source\PSoC6\pdl\drivers\peripheral\scb/cy_scb_ezi2c.c ****                     {
1063:Generated_Source\PSoC6\pdl\drivers\peripheral\scb/cy_scb_ezi2c.c ****                         context->baseAddr2 = baseAddr;
1064:Generated_Source\PSoC6\pdl\drivers\peripheral\scb/cy_scb_ezi2c.c ****                     }
1065:Generated_Source\PSoC6\pdl\drivers\peripheral\scb/cy_scb_ezi2c.c **** 
1066:Generated_Source\PSoC6\pdl\drivers\peripheral\scb/cy_scb_ezi2c.c ****                     /* Store the base address to use it later */
1067:Generated_Source\PSoC6\pdl\drivers\peripheral\scb/cy_scb_ezi2c.c ****                     context->idx = baseAddr;
1068:Generated_Source\PSoC6\pdl\drivers\peripheral\scb/cy_scb_ezi2c.c ****                 }
1069:Generated_Source\PSoC6\pdl\drivers\peripheral\scb/cy_scb_ezi2c.c ****                 else
1070:Generated_Source\PSoC6\pdl\drivers\peripheral\scb/cy_scb_ezi2c.c ****                 {
1071:Generated_Source\PSoC6\pdl\drivers\peripheral\scb/cy_scb_ezi2c.c ****                     /* Restore the valid base address */
1072:Generated_Source\PSoC6\pdl\drivers\peripheral\scb/cy_scb_ezi2c.c ****                     context->idx = ((context->addr1Active) ? context->baseAddr1 : context->baseAddr
1073:Generated_Source\PSoC6\pdl\drivers\peripheral\scb/cy_scb_ezi2c.c **** 
1074:Generated_Source\PSoC6\pdl\drivers\peripheral\scb/cy_scb_ezi2c.c ****                     /* The base address is out of range - NACK it */
1075:Generated_Source\PSoC6\pdl\drivers\peripheral\scb/cy_scb_ezi2c.c ****                     cmd = SCB_I2C_S_CMD_S_NACK_Msk;
1076:Generated_Source\PSoC6\pdl\drivers\peripheral\scb/cy_scb_ezi2c.c ****                 }
1077:Generated_Source\PSoC6\pdl\drivers\peripheral\scb/cy_scb_ezi2c.c **** 
1078:Generated_Source\PSoC6\pdl\drivers\peripheral\scb/cy_scb_ezi2c.c ****                 /* Set the command to an ACK or NACK address */
1079:Generated_Source\PSoC6\pdl\drivers\peripheral\scb/cy_scb_ezi2c.c ****                 SCB_I2C_S_CMD(base) = cmd;
1080:Generated_Source\PSoC6\pdl\drivers\peripheral\scb/cy_scb_ezi2c.c **** 
1081:Generated_Source\PSoC6\pdl\drivers\peripheral\scb/cy_scb_ezi2c.c ****                 if (cmd == SCB_I2C_S_CMD_S_ACK_Msk)
1082:Generated_Source\PSoC6\pdl\drivers\peripheral\scb/cy_scb_ezi2c.c ****                 {
1083:Generated_Source\PSoC6\pdl\drivers\peripheral\scb/cy_scb_ezi2c.c ****                     /* Prepare the buffer for a write */
1084:Generated_Source\PSoC6\pdl\drivers\peripheral\scb/cy_scb_ezi2c.c ****                     if (context->addr1Active)
1085:Generated_Source\PSoC6\pdl\drivers\peripheral\scb/cy_scb_ezi2c.c ****                     {
1086:Generated_Source\PSoC6\pdl\drivers\peripheral\scb/cy_scb_ezi2c.c ****                         context->curBuf  = &context->buf1[context->baseAddr1];
1087:Generated_Source\PSoC6\pdl\drivers\peripheral\scb/cy_scb_ezi2c.c ****                         context->bufSize = ((context->baseAddr1 < context->buf1rwBondary) ?
1088:Generated_Source\PSoC6\pdl\drivers\peripheral\scb/cy_scb_ezi2c.c ****                                                     (context->buf1rwBondary - context->baseAddr1) :
1089:Generated_Source\PSoC6\pdl\drivers\peripheral\scb/cy_scb_ezi2c.c ****                     }
1090:Generated_Source\PSoC6\pdl\drivers\peripheral\scb/cy_scb_ezi2c.c ****                     else
1091:Generated_Source\PSoC6\pdl\drivers\peripheral\scb/cy_scb_ezi2c.c ****                     {
ARM GAS  C:\Users\pearlstl\AppData\Local\Temp\ccHsEs7Z.s 			page 22


1092:Generated_Source\PSoC6\pdl\drivers\peripheral\scb/cy_scb_ezi2c.c ****                         context->curBuf  = &context->buf2[context->baseAddr2];
1093:Generated_Source\PSoC6\pdl\drivers\peripheral\scb/cy_scb_ezi2c.c ****                         context->bufSize = ((context->baseAddr2 < context->buf2rwBondary) ?
1094:Generated_Source\PSoC6\pdl\drivers\peripheral\scb/cy_scb_ezi2c.c ****                                                     (context->buf2rwBondary - context->baseAddr2) :
1095:Generated_Source\PSoC6\pdl\drivers\peripheral\scb/cy_scb_ezi2c.c ****                     }
1096:Generated_Source\PSoC6\pdl\drivers\peripheral\scb/cy_scb_ezi2c.c **** 
1097:Generated_Source\PSoC6\pdl\drivers\peripheral\scb/cy_scb_ezi2c.c ****                     /* Choice receive scheme  */
1098:Generated_Source\PSoC6\pdl\drivers\peripheral\scb/cy_scb_ezi2c.c ****                     if ((0U != context->address2) || (context->bufSize < CY_SCB_EZI2C_FIFO_SIZE))
1099:Generated_Source\PSoC6\pdl\drivers\peripheral\scb/cy_scb_ezi2c.c ****                     {
1100:Generated_Source\PSoC6\pdl\drivers\peripheral\scb/cy_scb_ezi2c.c ****                         /* Handle each byte separately */
1101:Generated_Source\PSoC6\pdl\drivers\peripheral\scb/cy_scb_ezi2c.c ****                         context->state = CY_SCB_EZI2C_STATE_RX_DATA0;
1102:Generated_Source\PSoC6\pdl\drivers\peripheral\scb/cy_scb_ezi2c.c ****                     }
1103:Generated_Source\PSoC6\pdl\drivers\peripheral\scb/cy_scb_ezi2c.c ****                     else
1104:Generated_Source\PSoC6\pdl\drivers\peripheral\scb/cy_scb_ezi2c.c ****                     {
1105:Generated_Source\PSoC6\pdl\drivers\peripheral\scb/cy_scb_ezi2c.c ****                         /* Use the RX FIFO and the auto-ACK/NACK features */
1106:Generated_Source\PSoC6\pdl\drivers\peripheral\scb/cy_scb_ezi2c.c ****                         SCB_I2C_CTRL(base) |= SCB_I2C_CTRL_S_READY_DATA_ACK_Msk;
1107:Generated_Source\PSoC6\pdl\drivers\peripheral\scb/cy_scb_ezi2c.c ****                         UpdateRxFifoLevel(base, context->bufSize);
1108:Generated_Source\PSoC6\pdl\drivers\peripheral\scb/cy_scb_ezi2c.c **** 
1109:Generated_Source\PSoC6\pdl\drivers\peripheral\scb/cy_scb_ezi2c.c ****                         context->state = CY_SCB_EZI2C_STATE_RX_DATA1;
1110:Generated_Source\PSoC6\pdl\drivers\peripheral\scb/cy_scb_ezi2c.c ****                     }
1111:Generated_Source\PSoC6\pdl\drivers\peripheral\scb/cy_scb_ezi2c.c ****                 }
1112:Generated_Source\PSoC6\pdl\drivers\peripheral\scb/cy_scb_ezi2c.c ****             }
1113:Generated_Source\PSoC6\pdl\drivers\peripheral\scb/cy_scb_ezi2c.c ****         }
1114:Generated_Source\PSoC6\pdl\drivers\peripheral\scb/cy_scb_ezi2c.c ****         break;
1115:Generated_Source\PSoC6\pdl\drivers\peripheral\scb/cy_scb_ezi2c.c **** 
1116:Generated_Source\PSoC6\pdl\drivers\peripheral\scb/cy_scb_ezi2c.c ****         case CY_SCB_EZI2C_STATE_RX_DATA0:
1117:Generated_Source\PSoC6\pdl\drivers\peripheral\scb/cy_scb_ezi2c.c ****         {
1118:Generated_Source\PSoC6\pdl\drivers\peripheral\scb/cy_scb_ezi2c.c ****             uint32_t byte = Cy_SCB_ReadRxFifo(base);
1119:Generated_Source\PSoC6\pdl\drivers\peripheral\scb/cy_scb_ezi2c.c **** 
1120:Generated_Source\PSoC6\pdl\drivers\peripheral\scb/cy_scb_ezi2c.c ****             /* Check whether there is space to store the byte */
1121:Generated_Source\PSoC6\pdl\drivers\peripheral\scb/cy_scb_ezi2c.c ****             if (context->bufSize > 0UL)
1122:Generated_Source\PSoC6\pdl\drivers\peripheral\scb/cy_scb_ezi2c.c ****             {
1123:Generated_Source\PSoC6\pdl\drivers\peripheral\scb/cy_scb_ezi2c.c ****                 /* Continue the transfer: send an ACK */
1124:Generated_Source\PSoC6\pdl\drivers\peripheral\scb/cy_scb_ezi2c.c ****                 SCB_I2C_S_CMD(base) = SCB_I2C_S_CMD_S_ACK_Msk;
1125:Generated_Source\PSoC6\pdl\drivers\peripheral\scb/cy_scb_ezi2c.c **** 
1126:Generated_Source\PSoC6\pdl\drivers\peripheral\scb/cy_scb_ezi2c.c ****                 /* Store the byte in the buffer */
1127:Generated_Source\PSoC6\pdl\drivers\peripheral\scb/cy_scb_ezi2c.c ****                 context->curBuf[0UL] = (uint8_t) byte;
1128:Generated_Source\PSoC6\pdl\drivers\peripheral\scb/cy_scb_ezi2c.c ****                 context->bufSize--;
1129:Generated_Source\PSoC6\pdl\drivers\peripheral\scb/cy_scb_ezi2c.c ****                 context->curBuf++;
1130:Generated_Source\PSoC6\pdl\drivers\peripheral\scb/cy_scb_ezi2c.c **** 
1131:Generated_Source\PSoC6\pdl\drivers\peripheral\scb/cy_scb_ezi2c.c ****                 /* Update the base address to notice that the buffer is modified */
1132:Generated_Source\PSoC6\pdl\drivers\peripheral\scb/cy_scb_ezi2c.c ****                 context->idx++;
1133:Generated_Source\PSoC6\pdl\drivers\peripheral\scb/cy_scb_ezi2c.c ****             }
1134:Generated_Source\PSoC6\pdl\drivers\peripheral\scb/cy_scb_ezi2c.c ****             else
1135:Generated_Source\PSoC6\pdl\drivers\peripheral\scb/cy_scb_ezi2c.c ****             {
1136:Generated_Source\PSoC6\pdl\drivers\peripheral\scb/cy_scb_ezi2c.c ****                 /* Finish the transfer: send a NACK. Drop the received byte */
1137:Generated_Source\PSoC6\pdl\drivers\peripheral\scb/cy_scb_ezi2c.c ****                 SCB_I2C_S_CMD(base) = SCB_I2C_S_CMD_S_NACK_Msk;
1138:Generated_Source\PSoC6\pdl\drivers\peripheral\scb/cy_scb_ezi2c.c ****                 Cy_SCB_SetRxInterruptMask(base, CY_SCB_CLEAR_ALL_INTR_SRC);
1139:Generated_Source\PSoC6\pdl\drivers\peripheral\scb/cy_scb_ezi2c.c ****             }
1140:Generated_Source\PSoC6\pdl\drivers\peripheral\scb/cy_scb_ezi2c.c ****         }
1141:Generated_Source\PSoC6\pdl\drivers\peripheral\scb/cy_scb_ezi2c.c ****         break;
1142:Generated_Source\PSoC6\pdl\drivers\peripheral\scb/cy_scb_ezi2c.c **** 
1143:Generated_Source\PSoC6\pdl\drivers\peripheral\scb/cy_scb_ezi2c.c ****         case CY_SCB_EZI2C_STATE_RX_DATA1:
1144:Generated_Source\PSoC6\pdl\drivers\peripheral\scb/cy_scb_ezi2c.c ****         {
1145:Generated_Source\PSoC6\pdl\drivers\peripheral\scb/cy_scb_ezi2c.c ****             /* Get the number of bytes to read from the RX FIFO */
1146:Generated_Source\PSoC6\pdl\drivers\peripheral\scb/cy_scb_ezi2c.c ****             uint32_t numToCopy = Cy_SCB_GetRxFifoLevel(base) + 1UL;
1147:Generated_Source\PSoC6\pdl\drivers\peripheral\scb/cy_scb_ezi2c.c **** 
1148:Generated_Source\PSoC6\pdl\drivers\peripheral\scb/cy_scb_ezi2c.c ****             /* Get data from the RX FIFO */
ARM GAS  C:\Users\pearlstl\AppData\Local\Temp\ccHsEs7Z.s 			page 23


1149:Generated_Source\PSoC6\pdl\drivers\peripheral\scb/cy_scb_ezi2c.c ****             numToCopy = Cy_SCB_ReadArray(base, context->curBuf, numToCopy);
1150:Generated_Source\PSoC6\pdl\drivers\peripheral\scb/cy_scb_ezi2c.c ****             context->bufSize -= numToCopy;
1151:Generated_Source\PSoC6\pdl\drivers\peripheral\scb/cy_scb_ezi2c.c ****             context->curBuf  += numToCopy;
1152:Generated_Source\PSoC6\pdl\drivers\peripheral\scb/cy_scb_ezi2c.c **** 
1153:Generated_Source\PSoC6\pdl\drivers\peripheral\scb/cy_scb_ezi2c.c ****             /* Configure the next RX FIFO read event */
1154:Generated_Source\PSoC6\pdl\drivers\peripheral\scb/cy_scb_ezi2c.c ****             UpdateRxFifoLevel(base, context->bufSize);
1155:Generated_Source\PSoC6\pdl\drivers\peripheral\scb/cy_scb_ezi2c.c **** 
1156:Generated_Source\PSoC6\pdl\drivers\peripheral\scb/cy_scb_ezi2c.c ****             /* Update the base address to notice that the buffer is modified */
1157:Generated_Source\PSoC6\pdl\drivers\peripheral\scb/cy_scb_ezi2c.c ****             context->idx++;
1158:Generated_Source\PSoC6\pdl\drivers\peripheral\scb/cy_scb_ezi2c.c ****         }
1159:Generated_Source\PSoC6\pdl\drivers\peripheral\scb/cy_scb_ezi2c.c ****         break;
1160:Generated_Source\PSoC6\pdl\drivers\peripheral\scb/cy_scb_ezi2c.c **** 
1161:Generated_Source\PSoC6\pdl\drivers\peripheral\scb/cy_scb_ezi2c.c ****         default:
1162:Generated_Source\PSoC6\pdl\drivers\peripheral\scb/cy_scb_ezi2c.c ****         break;
1163:Generated_Source\PSoC6\pdl\drivers\peripheral\scb/cy_scb_ezi2c.c ****     }
1164:Generated_Source\PSoC6\pdl\drivers\peripheral\scb/cy_scb_ezi2c.c **** }
1165:Generated_Source\PSoC6\pdl\drivers\peripheral\scb/cy_scb_ezi2c.c **** 
1166:Generated_Source\PSoC6\pdl\drivers\peripheral\scb/cy_scb_ezi2c.c **** 
1167:Generated_Source\PSoC6\pdl\drivers\peripheral\scb/cy_scb_ezi2c.c **** /*******************************************************************************
1168:Generated_Source\PSoC6\pdl\drivers\peripheral\scb/cy_scb_ezi2c.c **** * Function Name: HandleDataTransmit
1169:Generated_Source\PSoC6\pdl\drivers\peripheral\scb/cy_scb_ezi2c.c **** ****************************************************************************//**
1170:Generated_Source\PSoC6\pdl\drivers\peripheral\scb/cy_scb_ezi2c.c **** *
1171:Generated_Source\PSoC6\pdl\drivers\peripheral\scb/cy_scb_ezi2c.c **** * Loads the TX FIFO with data from the buffer.
1172:Generated_Source\PSoC6\pdl\drivers\peripheral\scb/cy_scb_ezi2c.c **** *
1173:Generated_Source\PSoC6\pdl\drivers\peripheral\scb/cy_scb_ezi2c.c **** * \param base
1174:Generated_Source\PSoC6\pdl\drivers\peripheral\scb/cy_scb_ezi2c.c **** * The pointer to the EZI2C SCB instance.
1175:Generated_Source\PSoC6\pdl\drivers\peripheral\scb/cy_scb_ezi2c.c **** *
1176:Generated_Source\PSoC6\pdl\drivers\peripheral\scb/cy_scb_ezi2c.c **** * \param context
1177:Generated_Source\PSoC6\pdl\drivers\peripheral\scb/cy_scb_ezi2c.c **** * The pointer to the context structure \ref cy_stc_scb_ezi2c_context_t allocated
1178:Generated_Source\PSoC6\pdl\drivers\peripheral\scb/cy_scb_ezi2c.c **** * by the user. The structure is used during the EZI2C operation for internal
1179:Generated_Source\PSoC6\pdl\drivers\peripheral\scb/cy_scb_ezi2c.c **** * configuration and data retention. The user must not modify anything
1180:Generated_Source\PSoC6\pdl\drivers\peripheral\scb/cy_scb_ezi2c.c **** * in this structure.
1181:Generated_Source\PSoC6\pdl\drivers\peripheral\scb/cy_scb_ezi2c.c **** *
1182:Generated_Source\PSoC6\pdl\drivers\peripheral\scb/cy_scb_ezi2c.c **** *******************************************************************************/
1183:Generated_Source\PSoC6\pdl\drivers\peripheral\scb/cy_scb_ezi2c.c **** static void HandleDataTransmit(CySCB_Type *base, cy_stc_scb_ezi2c_context_t *context)
1184:Generated_Source\PSoC6\pdl\drivers\peripheral\scb/cy_scb_ezi2c.c **** {
1185:Generated_Source\PSoC6\pdl\drivers\peripheral\scb/cy_scb_ezi2c.c ****     if (context->bufSize > 0UL)
1186:Generated_Source\PSoC6\pdl\drivers\peripheral\scb/cy_scb_ezi2c.c ****     {
1187:Generated_Source\PSoC6\pdl\drivers\peripheral\scb/cy_scb_ezi2c.c ****         /* Write data into the TX FIFO from the buffer */
1188:Generated_Source\PSoC6\pdl\drivers\peripheral\scb/cy_scb_ezi2c.c ****         uint32_t numToCopy = Cy_SCB_WriteArray(base, context->curBuf, context->bufSize);
1189:Generated_Source\PSoC6\pdl\drivers\peripheral\scb/cy_scb_ezi2c.c ****         context->bufSize  -= numToCopy;
1190:Generated_Source\PSoC6\pdl\drivers\peripheral\scb/cy_scb_ezi2c.c ****         context->curBuf   += numToCopy;
1191:Generated_Source\PSoC6\pdl\drivers\peripheral\scb/cy_scb_ezi2c.c ****     }
1192:Generated_Source\PSoC6\pdl\drivers\peripheral\scb/cy_scb_ezi2c.c **** 
1193:Generated_Source\PSoC6\pdl\drivers\peripheral\scb/cy_scb_ezi2c.c ****     if (0UL == context->bufSize)
1194:Generated_Source\PSoC6\pdl\drivers\peripheral\scb/cy_scb_ezi2c.c ****     {
1195:Generated_Source\PSoC6\pdl\drivers\peripheral\scb/cy_scb_ezi2c.c ****         /* Write the default bytes into the TX FIFO */
1196:Generated_Source\PSoC6\pdl\drivers\peripheral\scb/cy_scb_ezi2c.c ****         (void) Cy_SCB_WriteDefaultArray(base, CY_SCB_EZI2C_DEFAULT_TX, CY_SCB_EZI2C_FIFO_SIZE);
1197:Generated_Source\PSoC6\pdl\drivers\peripheral\scb/cy_scb_ezi2c.c ****     }
1198:Generated_Source\PSoC6\pdl\drivers\peripheral\scb/cy_scb_ezi2c.c **** }
1199:Generated_Source\PSoC6\pdl\drivers\peripheral\scb/cy_scb_ezi2c.c **** 
1200:Generated_Source\PSoC6\pdl\drivers\peripheral\scb/cy_scb_ezi2c.c **** 
1201:Generated_Source\PSoC6\pdl\drivers\peripheral\scb/cy_scb_ezi2c.c **** /*******************************************************************************
1202:Generated_Source\PSoC6\pdl\drivers\peripheral\scb/cy_scb_ezi2c.c **** * Function Name: HandleStop
1203:Generated_Source\PSoC6\pdl\drivers\peripheral\scb/cy_scb_ezi2c.c **** ****************************************************************************//**
1204:Generated_Source\PSoC6\pdl\drivers\peripheral\scb/cy_scb_ezi2c.c **** *
1205:Generated_Source\PSoC6\pdl\drivers\peripheral\scb/cy_scb_ezi2c.c **** * Handles the transfer completion.
ARM GAS  C:\Users\pearlstl\AppData\Local\Temp\ccHsEs7Z.s 			page 24


1206:Generated_Source\PSoC6\pdl\drivers\peripheral\scb/cy_scb_ezi2c.c **** * It is triggered by a Stop or Restart condition on the bus.
1207:Generated_Source\PSoC6\pdl\drivers\peripheral\scb/cy_scb_ezi2c.c **** *
1208:Generated_Source\PSoC6\pdl\drivers\peripheral\scb/cy_scb_ezi2c.c **** * \param base
1209:Generated_Source\PSoC6\pdl\drivers\peripheral\scb/cy_scb_ezi2c.c **** * The pointer to the EZI2C SCB instance.
1210:Generated_Source\PSoC6\pdl\drivers\peripheral\scb/cy_scb_ezi2c.c **** *
1211:Generated_Source\PSoC6\pdl\drivers\peripheral\scb/cy_scb_ezi2c.c **** * \param context
1212:Generated_Source\PSoC6\pdl\drivers\peripheral\scb/cy_scb_ezi2c.c **** * The pointer to the context structure \ref cy_stc_scb_ezi2c_context_t allocated
1213:Generated_Source\PSoC6\pdl\drivers\peripheral\scb/cy_scb_ezi2c.c **** * by the user. The structure is used during the EZI2C operation for internal
1214:Generated_Source\PSoC6\pdl\drivers\peripheral\scb/cy_scb_ezi2c.c **** * configuration and data retention. The user must not modify anything
1215:Generated_Source\PSoC6\pdl\drivers\peripheral\scb/cy_scb_ezi2c.c **** * in this structure.
1216:Generated_Source\PSoC6\pdl\drivers\peripheral\scb/cy_scb_ezi2c.c **** *
1217:Generated_Source\PSoC6\pdl\drivers\peripheral\scb/cy_scb_ezi2c.c **** *******************************************************************************/
1218:Generated_Source\PSoC6\pdl\drivers\peripheral\scb/cy_scb_ezi2c.c **** static void HandleStop(CySCB_Type *base, cy_stc_scb_ezi2c_context_t *context)
1219:Generated_Source\PSoC6\pdl\drivers\peripheral\scb/cy_scb_ezi2c.c **** {
1220:Generated_Source\PSoC6\pdl\drivers\peripheral\scb/cy_scb_ezi2c.c ****     /* Check for errors */
1221:Generated_Source\PSoC6\pdl\drivers\peripheral\scb/cy_scb_ezi2c.c ****     if (0UL != (CY_SCB_EZI2C_STATUS_ERR & context->status))
1222:Generated_Source\PSoC6\pdl\drivers\peripheral\scb/cy_scb_ezi2c.c ****     {
1223:Generated_Source\PSoC6\pdl\drivers\peripheral\scb/cy_scb_ezi2c.c ****         /* Re-enable the SCB to recover from errors */
1224:Generated_Source\PSoC6\pdl\drivers\peripheral\scb/cy_scb_ezi2c.c ****         Cy_SCB_FwBlockReset(base);
1225:Generated_Source\PSoC6\pdl\drivers\peripheral\scb/cy_scb_ezi2c.c ****     }
1226:Generated_Source\PSoC6\pdl\drivers\peripheral\scb/cy_scb_ezi2c.c **** 
1227:Generated_Source\PSoC6\pdl\drivers\peripheral\scb/cy_scb_ezi2c.c ****     /* Clean up the hardware to be ready for the next transaction */
1228:Generated_Source\PSoC6\pdl\drivers\peripheral\scb/cy_scb_ezi2c.c ****     if (CY_SCB_EZI2C_STATE_TX_DATA == context->state)
1229:Generated_Source\PSoC6\pdl\drivers\peripheral\scb/cy_scb_ezi2c.c ****     {
1230:Generated_Source\PSoC6\pdl\drivers\peripheral\scb/cy_scb_ezi2c.c ****         Cy_SCB_SetTxInterruptMask(base, CY_SCB_CLEAR_ALL_INTR_SRC);
1231:Generated_Source\PSoC6\pdl\drivers\peripheral\scb/cy_scb_ezi2c.c ****     }
1232:Generated_Source\PSoC6\pdl\drivers\peripheral\scb/cy_scb_ezi2c.c ****     else
1233:Generated_Source\PSoC6\pdl\drivers\peripheral\scb/cy_scb_ezi2c.c ****     {
1234:Generated_Source\PSoC6\pdl\drivers\peripheral\scb/cy_scb_ezi2c.c ****         Cy_SCB_SetRxInterruptMask(base, CY_SCB_CLEAR_ALL_INTR_SRC);
1235:Generated_Source\PSoC6\pdl\drivers\peripheral\scb/cy_scb_ezi2c.c **** 
1236:Generated_Source\PSoC6\pdl\drivers\peripheral\scb/cy_scb_ezi2c.c ****         SCB_I2C_CTRL(base) &= (uint32_t) ~(SCB_I2C_CTRL_S_READY_DATA_ACK_Msk |
1237:Generated_Source\PSoC6\pdl\drivers\peripheral\scb/cy_scb_ezi2c.c ****                                            SCB_I2C_CTRL_S_NOT_READY_DATA_NACK_Msk);
1238:Generated_Source\PSoC6\pdl\drivers\peripheral\scb/cy_scb_ezi2c.c ****     }
1239:Generated_Source\PSoC6\pdl\drivers\peripheral\scb/cy_scb_ezi2c.c **** 
1240:Generated_Source\PSoC6\pdl\drivers\peripheral\scb/cy_scb_ezi2c.c ****     /* Update the statuses */
1241:Generated_Source\PSoC6\pdl\drivers\peripheral\scb/cy_scb_ezi2c.c ****     context->status &= (uint32_t) ~CY_SCB_EZI2C_STATUS_BUSY;
1242:Generated_Source\PSoC6\pdl\drivers\peripheral\scb/cy_scb_ezi2c.c **** 
1243:Generated_Source\PSoC6\pdl\drivers\peripheral\scb/cy_scb_ezi2c.c ****     if (context->addr1Active)
1244:Generated_Source\PSoC6\pdl\drivers\peripheral\scb/cy_scb_ezi2c.c ****     {
1245:Generated_Source\PSoC6\pdl\drivers\peripheral\scb/cy_scb_ezi2c.c ****         context->status |= ((CY_SCB_EZI2C_STATE_TX_DATA == context->state) ? CY_SCB_EZI2C_STATUS_RE
1246:Generated_Source\PSoC6\pdl\drivers\peripheral\scb/cy_scb_ezi2c.c ****                              ((context->baseAddr1 != context->idx) ?  CY_SCB_EZI2C_STATUS_WRITE1 : 
1247:Generated_Source\PSoC6\pdl\drivers\peripheral\scb/cy_scb_ezi2c.c ****     }
1248:Generated_Source\PSoC6\pdl\drivers\peripheral\scb/cy_scb_ezi2c.c ****     else
1249:Generated_Source\PSoC6\pdl\drivers\peripheral\scb/cy_scb_ezi2c.c ****     {
1250:Generated_Source\PSoC6\pdl\drivers\peripheral\scb/cy_scb_ezi2c.c ****         context->status |= ((CY_SCB_EZI2C_STATE_TX_DATA == context->state) ? CY_SCB_EZI2C_STATUS_RE
1251:Generated_Source\PSoC6\pdl\drivers\peripheral\scb/cy_scb_ezi2c.c ****                              ((context->baseAddr2 != context->idx) ? CY_SCB_EZI2C_STATUS_WRITE2 : 0
1252:Generated_Source\PSoC6\pdl\drivers\peripheral\scb/cy_scb_ezi2c.c ****     }
1253:Generated_Source\PSoC6\pdl\drivers\peripheral\scb/cy_scb_ezi2c.c **** 
1254:Generated_Source\PSoC6\pdl\drivers\peripheral\scb/cy_scb_ezi2c.c ****     /* Back to the idle state */
1255:Generated_Source\PSoC6\pdl\drivers\peripheral\scb/cy_scb_ezi2c.c ****     context->state = CY_SCB_EZI2C_STATE_IDLE;
1256:Generated_Source\PSoC6\pdl\drivers\peripheral\scb/cy_scb_ezi2c.c **** }
1257:Generated_Source\PSoC6\pdl\drivers\peripheral\scb/cy_scb_ezi2c.c **** 
1258:Generated_Source\PSoC6\pdl\drivers\peripheral\scb/cy_scb_ezi2c.c **** 
1259:Generated_Source\PSoC6\pdl\drivers\peripheral\scb/cy_scb_ezi2c.c **** /*******************************************************************************
1260:Generated_Source\PSoC6\pdl\drivers\peripheral\scb/cy_scb_ezi2c.c **** * Function Name: UpdateAddressMask
1261:Generated_Source\PSoC6\pdl\drivers\peripheral\scb/cy_scb_ezi2c.c **** ****************************************************************************//**
1262:Generated_Source\PSoC6\pdl\drivers\peripheral\scb/cy_scb_ezi2c.c **** *
ARM GAS  C:\Users\pearlstl\AppData\Local\Temp\ccHsEs7Z.s 			page 25


1263:Generated_Source\PSoC6\pdl\drivers\peripheral\scb/cy_scb_ezi2c.c **** * Updates the slave address mask to enable the SCB hardware to receive matching
1264:Generated_Source\PSoC6\pdl\drivers\peripheral\scb/cy_scb_ezi2c.c **** * slave addresses.
1265:Generated_Source\PSoC6\pdl\drivers\peripheral\scb/cy_scb_ezi2c.c **** *
1266:Generated_Source\PSoC6\pdl\drivers\peripheral\scb/cy_scb_ezi2c.c **** * \param base
1267:Generated_Source\PSoC6\pdl\drivers\peripheral\scb/cy_scb_ezi2c.c **** * The pointer to the EZI2C SCB instance.
1268:Generated_Source\PSoC6\pdl\drivers\peripheral\scb/cy_scb_ezi2c.c **** *
1269:Generated_Source\PSoC6\pdl\drivers\peripheral\scb/cy_scb_ezi2c.c **** * \param context
1270:Generated_Source\PSoC6\pdl\drivers\peripheral\scb/cy_scb_ezi2c.c **** * The pointer to the context structure \ref cy_stc_scb_ezi2c_context_t allocated
1271:Generated_Source\PSoC6\pdl\drivers\peripheral\scb/cy_scb_ezi2c.c **** * by the user. The structure is used during the EZI2C operation for internal
1272:Generated_Source\PSoC6\pdl\drivers\peripheral\scb/cy_scb_ezi2c.c **** * configuration and data retention. The user must not modify anything
1273:Generated_Source\PSoC6\pdl\drivers\peripheral\scb/cy_scb_ezi2c.c **** * in this structure.
1274:Generated_Source\PSoC6\pdl\drivers\peripheral\scb/cy_scb_ezi2c.c **** *
1275:Generated_Source\PSoC6\pdl\drivers\peripheral\scb/cy_scb_ezi2c.c **** *******************************************************************************/
1276:Generated_Source\PSoC6\pdl\drivers\peripheral\scb/cy_scb_ezi2c.c **** static void UpdateAddressMask(CySCB_Type *base, cy_stc_scb_ezi2c_context_t const *context)
1277:Generated_Source\PSoC6\pdl\drivers\peripheral\scb/cy_scb_ezi2c.c **** {
1278:Generated_Source\PSoC6\pdl\drivers\peripheral\scb/cy_scb_ezi2c.c ****     uint32_t addrMask;
1279:Generated_Source\PSoC6\pdl\drivers\peripheral\scb/cy_scb_ezi2c.c **** 
1280:Generated_Source\PSoC6\pdl\drivers\peripheral\scb/cy_scb_ezi2c.c ****     /* Check how many addresses are used: */
1281:Generated_Source\PSoC6\pdl\drivers\peripheral\scb/cy_scb_ezi2c.c ****     if (0U != context->address2)
 102              		.loc 1 1281 0
 103 0054 547A     		ldrb	r4, [r2, #9]	@ zero_extendqisi2
 104 0056 002C     		cmp	r4, #0
 105 0058 59D0     		beq	.L17
 106              	.LVL5:
 107              	.L21:
 108 005a 107A     		ldrb	r0, [r2, #8]	@ zero_extendqisi2
 109 005c 6040     		eors	r0, r0, r4
 110 005e C043     		mvns	r0, r0
 111 0060 4004     		lsls	r0, r0, #17
 112 0062 00F47F04 		and	r4, r0, #16711680
 113              	.LVL6:
 114              	.L9:
 115              	.LBE146:
 116              	.LBE145:
 117              	.LBE144:
 118              	.LBE143:
 119              	.LBB147:
 120              	.LBB148:
 121              	.LBB149:
 122              	.LBB150:
1282:Generated_Source\PSoC6\pdl\drivers\peripheral\scb/cy_scb_ezi2c.c ****     {
1283:Generated_Source\PSoC6\pdl\drivers\peripheral\scb/cy_scb_ezi2c.c ****         /* If (addr1 and addr2) bits match - mask bit equals 1; otherwise 0 */
1284:Generated_Source\PSoC6\pdl\drivers\peripheral\scb/cy_scb_ezi2c.c ****         addrMask  = (uint32_t) ~((uint32_t) context->address1 ^ (uint32_t) context->address2);
1285:Generated_Source\PSoC6\pdl\drivers\peripheral\scb/cy_scb_ezi2c.c ****     }
1286:Generated_Source\PSoC6\pdl\drivers\peripheral\scb/cy_scb_ezi2c.c ****     else
1287:Generated_Source\PSoC6\pdl\drivers\peripheral\scb/cy_scb_ezi2c.c ****     {
1288:Generated_Source\PSoC6\pdl\drivers\peripheral\scb/cy_scb_ezi2c.c ****         addrMask = CY_SCB_EZI2C_ONE_ADDRESS_MASK;
1289:Generated_Source\PSoC6\pdl\drivers\peripheral\scb/cy_scb_ezi2c.c ****     }
1290:Generated_Source\PSoC6\pdl\drivers\peripheral\scb/cy_scb_ezi2c.c **** 
1291:Generated_Source\PSoC6\pdl\drivers\peripheral\scb/cy_scb_ezi2c.c ****     /* Update the hardware address match */
1292:Generated_Source\PSoC6\pdl\drivers\peripheral\scb/cy_scb_ezi2c.c ****     CY_REG32_CLR_SET(SCB_RX_MATCH(base), SCB_RX_MATCH_MASK, ((uint32_t) addrMask << 1UL));
 123              		.loc 1 1292 0
 124 0066 D3F81003 		ldr	r0, [r3, #784]
 125 006a 20F47F00 		bic	r0, r0, #16711680
 126 006e 2043     		orrs	r0, r0, r4
 127              	.LBE150:
 128              	.LBE149:
ARM GAS  C:\Users\pearlstl\AppData\Local\Temp\ccHsEs7Z.s 			page 26


 129              	.LBE148:
 130              	.LBE147:
 116:Generated_Source\PSoC6\pdl\drivers\peripheral\scb/cy_scb_ezi2c.c **** 
 131              		.loc 1 116 0
 132 0070 CC78     		ldrb	r4, [r1, #3]	@ zero_extendqisi2
 101:Generated_Source\PSoC6\pdl\drivers\peripheral\scb/cy_scb_ezi2c.c ****     SCB_TX_FIFO_CTRL(base) = CY_SCB_EZI2C_HALF_FIFO_SIZE;
 133              		.loc 1 101 0
 134 0072 3149     		ldr	r1, .L23+4
 135              	.LVL7:
 136              	.LBB157:
 137              	.LBB155:
 138              	.LBB153:
 139              	.LBB151:
 140              		.loc 1 1292 0
 141 0074 C3F81003 		str	r0, [r3, #784]
 142              	.LBE151:
 143              	.LBE153:
 144              	.LBE155:
 145              	.LBE157:
 110:Generated_Source\PSoC6\pdl\drivers\peripheral\scb/cy_scb_ezi2c.c **** 
 146              		.loc 1 110 0
 147 0078 40F25115 		movw	r5, #337
 101:Generated_Source\PSoC6\pdl\drivers\peripheral\scb/cy_scb_ezi2c.c ****     SCB_TX_FIFO_CTRL(base) = CY_SCB_EZI2C_HALF_FIFO_SIZE;
 148              		.loc 1 101 0
 149 007c C3F80012 		str	r1, [r3, #512]
 102:Generated_Source\PSoC6\pdl\drivers\peripheral\scb/cy_scb_ezi2c.c **** 
 150              		.loc 1 102 0
 151 0080 4020     		movs	r0, #64
 105:Generated_Source\PSoC6\pdl\drivers\peripheral\scb/cy_scb_ezi2c.c ****     SCB_INTR_I2C_EC_MASK(base) = 0UL;
 152              		.loc 1 105 0
 153 0082 0021     		movs	r1, #0
 102:Generated_Source\PSoC6\pdl\drivers\peripheral\scb/cy_scb_ezi2c.c **** 
 154              		.loc 1 102 0
 155 0084 C3F80402 		str	r0, [r3, #516]
 105:Generated_Source\PSoC6\pdl\drivers\peripheral\scb/cy_scb_ezi2c.c ****     SCB_INTR_I2C_EC_MASK(base) = 0UL;
 156              		.loc 1 105 0
 157 0088 C3F8C81E 		str	r1, [r3, #3784]
 126:Generated_Source\PSoC6\pdl\drivers\peripheral\scb/cy_scb_ezi2c.c **** }
 158              		.loc 1 126 0
 159 008c 0846     		mov	r0, r1
 106:Generated_Source\PSoC6\pdl\drivers\peripheral\scb/cy_scb_ezi2c.c ****     SCB_INTR_RX_MASK(base)     = 0UL;
 160              		.loc 1 106 0
 161 008e C3F8881E 		str	r1, [r3, #3720]
 107:Generated_Source\PSoC6\pdl\drivers\peripheral\scb/cy_scb_ezi2c.c ****     SCB_INTR_TX_MASK(base)     = 0UL;
 162              		.loc 1 107 0
 163 0092 C3F8C81F 		str	r1, [r3, #4040]
 108:Generated_Source\PSoC6\pdl\drivers\peripheral\scb/cy_scb_ezi2c.c ****     SCB_INTR_M_MASK(base)      = 0UL;
 164              		.loc 1 108 0
 165 0096 C3F8881F 		str	r1, [r3, #3976]
 109:Generated_Source\PSoC6\pdl\drivers\peripheral\scb/cy_scb_ezi2c.c ****     SCB_INTR_S_MASK(base)      = CY_SCB_EZI2C_SLAVE_INTR;
 166              		.loc 1 109 0
 167 009a C3F8081F 		str	r1, [r3, #3848]
 110:Generated_Source\PSoC6\pdl\drivers\peripheral\scb/cy_scb_ezi2c.c **** 
 168              		.loc 1 110 0
 169 009e C3F8485F 		str	r5, [r3, #3912]
 116:Generated_Source\PSoC6\pdl\drivers\peripheral\scb/cy_scb_ezi2c.c **** 
 170              		.loc 1 116 0
ARM GAS  C:\Users\pearlstl\AppData\Local\Temp\ccHsEs7Z.s 			page 27


 171 00a2 9472     		strb	r4, [r2, #10]
 113:Generated_Source\PSoC6\pdl\drivers\peripheral\scb/cy_scb_ezi2c.c ****     context->state  = CY_SCB_EZI2C_STATE_IDLE;
 172              		.loc 1 113 0
 173 00a4 5160     		str	r1, [r2, #4]
 118:Generated_Source\PSoC6\pdl\drivers\peripheral\scb/cy_scb_ezi2c.c ****     context->buf1rwBondary = 0UL;
 174              		.loc 1 118 0
 175 00a6 9162     		str	r1, [r2, #40]
 114:Generated_Source\PSoC6\pdl\drivers\peripheral\scb/cy_scb_ezi2c.c **** 
 176              		.loc 1 114 0
 177 00a8 1170     		strb	r1, [r2]
 119:Generated_Source\PSoC6\pdl\drivers\peripheral\scb/cy_scb_ezi2c.c ****     context->baseAddr1     = 0UL;
 178              		.loc 1 119 0
 179 00aa D162     		str	r1, [r2, #44]
 120:Generated_Source\PSoC6\pdl\drivers\peripheral\scb/cy_scb_ezi2c.c **** 
 180              		.loc 1 120 0
 181 00ac 1161     		str	r1, [r2, #16]
 124:Generated_Source\PSoC6\pdl\drivers\peripheral\scb/cy_scb_ezi2c.c **** 
 182              		.loc 1 124 0
 183 00ae 5161     		str	r1, [r2, #20]
 127:Generated_Source\PSoC6\pdl\drivers\peripheral\scb/cy_scb_ezi2c.c **** 
 184              		.loc 1 127 0
 185 00b0 F0BC     		pop	{r4, r5, r6, r7}
 186              		.cfi_restore 7
 187              		.cfi_restore 6
 188              		.cfi_restore 5
 189              		.cfi_restore 4
 190              		.cfi_def_cfa_offset 0
 191 00b2 7047     		bx	lr
 192              	.LVL8:
 193              	.L13:
  68:Generated_Source\PSoC6\pdl\drivers\peripheral\scb/cy_scb_ezi2c.c ****     }
 194              		.loc 1 68 0
 195 00b4 2148     		ldr	r0, .L23+8
 196              	.LVL9:
 197 00b6 7047     		bx	lr
 198              	.LVL10:
 199              	.L3:
 200              		.cfi_def_cfa_offset 16
 201              		.cfi_offset 4, -16
 202              		.cfi_offset 5, -12
 203              		.cfi_offset 6, -8
 204              		.cfi_offset 7, -4
  79:Generated_Source\PSoC6\pdl\drivers\peripheral\scb/cy_scb_ezi2c.c ****                  SCB_CTRL_BYTE_MODE_Msk;
 205              		.loc 1 79 0
 206 00b8 0879     		ldrb	r0, [r1, #4]	@ zero_extendqisi2
 207 00ba 70BB     		cbnz	r0, .L10
  78:Generated_Source\PSoC6\pdl\drivers\peripheral\scb/cy_scb_ezi2c.c ****                  _BOOL2FLD(SCB_CTRL_EC_AM_MODE, config->enableWakeFromSleep) |
 208              		.loc 1 78 0
 209 00bc 4FF48434 		mov	r4, #67584
 210 00c0 1C60     		str	r4, [r3]
  82:Generated_Source\PSoC6\pdl\drivers\peripheral\scb/cy_scb_ezi2c.c **** 
 211              		.loc 1 82 0
 212 00c2 1C4D     		ldr	r5, .L23
 213 00c4 1D66     		str	r5, [r3, #96]
  85:Generated_Source\PSoC6\pdl\drivers\peripheral\scb/cy_scb_ezi2c.c ****     SCB_RX_FIFO_CTRL(base) = 0UL;
 214              		.loc 1 85 0
 215 00c6 40F20714 		movw	r4, #263
ARM GAS  C:\Users\pearlstl\AppData\Local\Temp\ccHsEs7Z.s 			page 28


 216 00ca C3F80043 		str	r4, [r3, #768]
  86:Generated_Source\PSoC6\pdl\drivers\peripheral\scb/cy_scb_ezi2c.c **** 
 217              		.loc 1 86 0
 218 00ce C3F80403 		str	r0, [r3, #772]
 219              	.L5:
  96:Generated_Source\PSoC6\pdl\drivers\peripheral\scb/cy_scb_ezi2c.c ****         Cy_SCB_EZI2C_SetAddress2(base, config->slaveAddress2, context);
 220              		.loc 1 96 0
 221 00d2 4878     		ldrb	r0, [r1, #1]	@ zero_extendqisi2
 222              	.LVL11:
 223              	.LBB158:
 224              	.LBB159:
 541:Generated_Source\PSoC6\pdl\drivers\peripheral\scb/cy_scb_ezi2c.c **** 
 225              		.loc 1 541 0
 226 00d4 1072     		strb	r0, [r2, #8]
 543:Generated_Source\PSoC6\pdl\drivers\peripheral\scb/cy_scb_ezi2c.c **** 
 227              		.loc 1 543 0
 228 00d6 D3F81043 		ldr	r4, [r3, #784]
 229 00da 4000     		lsls	r0, r0, #1
 230              	.LVL12:
 231 00dc 24F0FF04 		bic	r4, r4, #255
 232 00e0 C0B2     		uxtb	r0, r0
 233 00e2 2043     		orrs	r0, r0, r4
 234 00e4 C3F81003 		str	r0, [r3, #784]
 235              	.LVL13:
 236              	.LBB160:
 237              	.LBB161:
1281:Generated_Source\PSoC6\pdl\drivers\peripheral\scb/cy_scb_ezi2c.c ****     {
 238              		.loc 1 1281 0
 239 00e8 547A     		ldrb	r4, [r2, #9]	@ zero_extendqisi2
 240 00ea 9CB1     		cbz	r4, .L16
 241              	.LVL14:
 242 00ec 107A     		ldrb	r0, [r2, #8]	@ zero_extendqisi2
 243 00ee 6040     		eors	r0, r0, r4
 244 00f0 C043     		mvns	r0, r0
 245 00f2 4004     		lsls	r0, r0, #17
 246 00f4 00F47F04 		and	r4, r0, #16711680
 247              	.LVL15:
 248              	.L8:
 249              		.loc 1 1292 0
 250 00f8 D3F81003 		ldr	r0, [r3, #784]
 251 00fc 20F47F00 		bic	r0, r0, #16711680
 252 0100 2043     		orrs	r0, r0, r4
 253 0102 C3F81003 		str	r0, [r3, #784]
 254              	.LVL16:
 255              	.LBE161:
 256              	.LBE160:
 257              	.LBE159:
 258              	.LBE158:
  97:Generated_Source\PSoC6\pdl\drivers\peripheral\scb/cy_scb_ezi2c.c ****     }
 259              		.loc 1 97 0
 260 0106 8C78     		ldrb	r4, [r1, #2]	@ zero_extendqisi2
 261              	.LVL17:
 262              	.LBB165:
 263              	.LBB156:
 654:Generated_Source\PSoC6\pdl\drivers\peripheral\scb/cy_scb_ezi2c.c **** 
 264              		.loc 1 654 0
 265 0108 5472     		strb	r4, [r2, #9]
ARM GAS  C:\Users\pearlstl\AppData\Local\Temp\ccHsEs7Z.s 			page 29


 266              	.LVL18:
 267              	.LBB154:
 268              	.LBB152:
1281:Generated_Source\PSoC6\pdl\drivers\peripheral\scb/cy_scb_ezi2c.c ****     {
 269              		.loc 1 1281 0
 270 010a 002C     		cmp	r4, #0
 271 010c A5D1     		bne	.L21
 272              	.LVL19:
 273              	.L17:
 274 010e 4FF47E04 		mov	r4, #16646144
 275 0112 A8E7     		b	.L9
 276              	.LVL20:
 277              	.L16:
 278              	.LBE152:
 279              	.LBE154:
 280              	.LBE156:
 281              	.LBE165:
 282              	.LBB166:
 283              	.LBB164:
 284              	.LBB163:
 285              	.LBB162:
 286 0114 4FF47E04 		mov	r4, #16646144
 287 0118 EEE7     		b	.L8
 288              	.LVL21:
 289              	.L10:
 290              	.LBE162:
 291              	.LBE163:
 292              	.LBE164:
 293              	.LBE166:
  78:Generated_Source\PSoC6\pdl\drivers\peripheral\scb/cy_scb_ezi2c.c ****                  _BOOL2FLD(SCB_CTRL_EC_AM_MODE, config->enableWakeFromSleep) |
 294              		.loc 1 78 0
 295 011a 0948     		ldr	r0, .L23+12
 296 011c 1860     		str	r0, [r3]
  82:Generated_Source\PSoC6\pdl\drivers\peripheral\scb/cy_scb_ezi2c.c **** 
 297              		.loc 1 82 0
 298 011e 054D     		ldr	r5, .L23
 299 0120 1D66     		str	r5, [r3, #96]
  85:Generated_Source\PSoC6\pdl\drivers\peripheral\scb/cy_scb_ezi2c.c ****     SCB_RX_FIFO_CTRL(base) = 0UL;
 300              		.loc 1 85 0
 301 0122 40F20714 		movw	r4, #263
  86:Generated_Source\PSoC6\pdl\drivers\peripheral\scb/cy_scb_ezi2c.c **** 
 302              		.loc 1 86 0
 303 0126 0020     		movs	r0, #0
  85:Generated_Source\PSoC6\pdl\drivers\peripheral\scb/cy_scb_ezi2c.c ****     SCB_RX_FIFO_CTRL(base) = 0UL;
 304              		.loc 1 85 0
 305 0128 C3F80043 		str	r4, [r3, #768]
  86:Generated_Source\PSoC6\pdl\drivers\peripheral\scb/cy_scb_ezi2c.c **** 
 306              		.loc 1 86 0
 307 012c C3F80403 		str	r0, [r3, #772]
 308 0130 CFE7     		b	.L5
 309              	.L24:
 310 0132 00BF     		.align	2
 311              	.L23:
 312 0134 00080040 		.word	1073743872
 313 0138 07010100 		.word	65799
 314 013c 0100AA00 		.word	11141121
 315 0140 00090100 		.word	67840
ARM GAS  C:\Users\pearlstl\AppData\Local\Temp\ccHsEs7Z.s 			page 30


 316              		.cfi_endproc
 317              	.LFE219:
 318              		.size	Cy_SCB_EZI2C_Init, .-Cy_SCB_EZI2C_Init
 319              		.section	.text.Cy_SCB_EZI2C_DeInit,"ax",%progbits
 320              		.align	2
 321              		.global	Cy_SCB_EZI2C_DeInit
 322              		.thumb
 323              		.thumb_func
 324              		.type	Cy_SCB_EZI2C_DeInit, %function
 325              	Cy_SCB_EZI2C_DeInit:
 326              	.LFB220:
 144:Generated_Source\PSoC6\pdl\drivers\peripheral\scb/cy_scb_ezi2c.c ****     /* Return the block registers into the default state */
 327              		.loc 1 144 0
 328              		.cfi_startproc
 329              		@ args = 0, pretend = 0, frame = 0
 330              		@ frame_needed = 0, uses_anonymous_args = 0
 331              		@ link register save eliminated.
 332              	.LVL22:
 146:Generated_Source\PSoC6\pdl\drivers\peripheral\scb/cy_scb_ezi2c.c ****     SCB_I2C_CTRL(base) = CY_SCB_I2C_CTRL_DEF_VAL;
 333              		.loc 1 146 0
 334 0000 0F4B     		ldr	r3, .L26
 335 0002 0360     		str	r3, [r0]
 149:Generated_Source\PSoC6\pdl\drivers\peripheral\scb/cy_scb_ezi2c.c ****     SCB_RX_FIFO_CTRL(base) = 0UL;
 336              		.loc 1 149 0
 337 0004 40F20712 		movw	r2, #263
 150:Generated_Source\PSoC6\pdl\drivers\peripheral\scb/cy_scb_ezi2c.c ****     SCB_RX_MATCH(base)     = 0UL;
 338              		.loc 1 150 0
 339 0008 0023     		movs	r3, #0
 147:Generated_Source\PSoC6\pdl\drivers\peripheral\scb/cy_scb_ezi2c.c **** 
 340              		.loc 1 147 0
 341 000a 4FF60831 		movw	r1, #64264
 342 000e 0166     		str	r1, [r0, #96]
 149:Generated_Source\PSoC6\pdl\drivers\peripheral\scb/cy_scb_ezi2c.c ****     SCB_RX_FIFO_CTRL(base) = 0UL;
 343              		.loc 1 149 0
 344 0010 C0F80023 		str	r2, [r0, #768]
 150:Generated_Source\PSoC6\pdl\drivers\peripheral\scb/cy_scb_ezi2c.c ****     SCB_RX_MATCH(base)     = 0UL;
 345              		.loc 1 150 0
 346 0014 C0F80433 		str	r3, [r0, #772]
 151:Generated_Source\PSoC6\pdl\drivers\peripheral\scb/cy_scb_ezi2c.c **** 
 347              		.loc 1 151 0
 348 0018 C0F81033 		str	r3, [r0, #784]
 153:Generated_Source\PSoC6\pdl\drivers\peripheral\scb/cy_scb_ezi2c.c ****     SCB_TX_FIFO_CTRL(base) = 0UL;
 349              		.loc 1 153 0
 350 001c C0F80022 		str	r2, [r0, #512]
 154:Generated_Source\PSoC6\pdl\drivers\peripheral\scb/cy_scb_ezi2c.c **** 
 351              		.loc 1 154 0
 352 0020 C0F80432 		str	r3, [r0, #516]
 156:Generated_Source\PSoC6\pdl\drivers\peripheral\scb/cy_scb_ezi2c.c ****     SCB_INTR_I2C_EC_MASK(base) = 0UL;
 353              		.loc 1 156 0
 354 0024 C0F8C83E 		str	r3, [r0, #3784]
 157:Generated_Source\PSoC6\pdl\drivers\peripheral\scb/cy_scb_ezi2c.c ****     SCB_INTR_RX_MASK(base)     = 0UL;
 355              		.loc 1 157 0
 356 0028 C0F8883E 		str	r3, [r0, #3720]
 158:Generated_Source\PSoC6\pdl\drivers\peripheral\scb/cy_scb_ezi2c.c ****     SCB_INTR_TX_MASK(base)     = 0UL;
 357              		.loc 1 158 0
 358 002c C0F8C83F 		str	r3, [r0, #4040]
 159:Generated_Source\PSoC6\pdl\drivers\peripheral\scb/cy_scb_ezi2c.c ****     SCB_INTR_M_MASK(base)      = 0UL;
ARM GAS  C:\Users\pearlstl\AppData\Local\Temp\ccHsEs7Z.s 			page 31


 359              		.loc 1 159 0
 360 0030 C0F8883F 		str	r3, [r0, #3976]
 160:Generated_Source\PSoC6\pdl\drivers\peripheral\scb/cy_scb_ezi2c.c ****     SCB_INTR_S_MASK(base)      = 0UL;
 361              		.loc 1 160 0
 362 0034 C0F8083F 		str	r3, [r0, #3848]
 161:Generated_Source\PSoC6\pdl\drivers\peripheral\scb/cy_scb_ezi2c.c **** }
 363              		.loc 1 161 0
 364 0038 C0F8483F 		str	r3, [r0, #3912]
 365 003c 7047     		bx	lr
 366              	.L27:
 367 003e 00BF     		.align	2
 368              	.L26:
 369 0040 0F000003 		.word	50331663
 370              		.cfi_endproc
 371              	.LFE220:
 372              		.size	Cy_SCB_EZI2C_DeInit, .-Cy_SCB_EZI2C_DeInit
 373              		.section	.text.Cy_SCB_EZI2C_Disable,"ax",%progbits
 374              		.align	2
 375              		.global	Cy_SCB_EZI2C_Disable
 376              		.thumb
 377              		.thumb_func
 378              		.type	Cy_SCB_EZI2C_Disable, %function
 379              	Cy_SCB_EZI2C_Disable:
 380              	.LFB221:
 191:Generated_Source\PSoC6\pdl\drivers\peripheral\scb/cy_scb_ezi2c.c ****     SCB_CTRL(base) &= (uint32_t) ~SCB_CTRL_ENABLED_Msk;
 381              		.loc 1 191 0
 382              		.cfi_startproc
 383              		@ args = 0, pretend = 0, frame = 0
 384              		@ frame_needed = 0, uses_anonymous_args = 0
 385              		@ link register save eliminated.
 386              	.LVL23:
 192:Generated_Source\PSoC6\pdl\drivers\peripheral\scb/cy_scb_ezi2c.c **** 
 387              		.loc 1 192 0
 388 0000 0368     		ldr	r3, [r0]
 195:Generated_Source\PSoC6\pdl\drivers\peripheral\scb/cy_scb_ezi2c.c ****     context->state  = CY_SCB_EZI2C_STATE_IDLE;
 389              		.loc 1 195 0
 390 0002 0022     		movs	r2, #0
 192:Generated_Source\PSoC6\pdl\drivers\peripheral\scb/cy_scb_ezi2c.c **** 
 391              		.loc 1 192 0
 392 0004 23F00043 		bic	r3, r3, #-2147483648
 393 0008 0360     		str	r3, [r0]
 195:Generated_Source\PSoC6\pdl\drivers\peripheral\scb/cy_scb_ezi2c.c ****     context->state  = CY_SCB_EZI2C_STATE_IDLE;
 394              		.loc 1 195 0
 395 000a 4A60     		str	r2, [r1, #4]
 196:Generated_Source\PSoC6\pdl\drivers\peripheral\scb/cy_scb_ezi2c.c **** }
 396              		.loc 1 196 0
 397 000c 0A70     		strb	r2, [r1]
 398 000e 7047     		bx	lr
 399              		.cfi_endproc
 400              	.LFE221:
 401              		.size	Cy_SCB_EZI2C_Disable, .-Cy_SCB_EZI2C_Disable
 402              		.section	.text.Cy_SCB_EZI2C_DeepSleepCallback,"ax",%progbits
 403              		.align	2
 404              		.global	Cy_SCB_EZI2C_DeepSleepCallback
 405              		.thumb
 406              		.thumb_func
 407              		.type	Cy_SCB_EZI2C_DeepSleepCallback, %function
ARM GAS  C:\Users\pearlstl\AppData\Local\Temp\ccHsEs7Z.s 			page 32


 408              	Cy_SCB_EZI2C_DeepSleepCallback:
 409              	.LFB222:
 243:Generated_Source\PSoC6\pdl\drivers\peripheral\scb/cy_scb_ezi2c.c ****     CySCB_Type *locBase = (CySCB_Type *) callbackParams->base;
 410              		.loc 1 243 0
 411              		.cfi_startproc
 412              		@ args = 0, pretend = 0, frame = 0
 413              		@ frame_needed = 0, uses_anonymous_args = 0
 414              		@ link register save eliminated.
 415              	.LVL24:
 249:Generated_Source\PSoC6\pdl\drivers\peripheral\scb/cy_scb_ezi2c.c ****     {
 416              		.loc 1 249 0
 417 0000 0139     		subs	r1, r1, #1
 418              	.LVL25:
 243:Generated_Source\PSoC6\pdl\drivers\peripheral\scb/cy_scb_ezi2c.c ****     CySCB_Type *locBase = (CySCB_Type *) callbackParams->base;
 419              		.loc 1 243 0
 420 0002 10B4     		push	{r4}
 421              		.cfi_def_cfa_offset 4
 422              		.cfi_offset 4, -4
 244:Generated_Source\PSoC6\pdl\drivers\peripheral\scb/cy_scb_ezi2c.c ****     cy_stc_scb_ezi2c_context_t *locContext = (cy_stc_scb_ezi2c_context_t *) callbackParams->context
 423              		.loc 1 244 0
 424 0004 0368     		ldr	r3, [r0]
 425              	.LVL26:
 249:Generated_Source\PSoC6\pdl\drivers\peripheral\scb/cy_scb_ezi2c.c ****     {
 426              		.loc 1 249 0
 427 0006 0729     		cmp	r1, #7
 428 0008 3BD8     		bhi	.L40
 429 000a DFE801F0 		tbb	[pc, r1]
 430              	.L32:
 431 000e 1E       		.byte	(.L31-.L32)/2
 432 000f 2E       		.byte	(.L33-.L32)/2
 433 0010 3A       		.byte	(.L40-.L32)/2
 434 0011 0F       		.byte	(.L34-.L32)/2
 435 0012 3A       		.byte	(.L40-.L32)/2
 436 0013 3A       		.byte	(.L40-.L32)/2
 437 0014 3A       		.byte	(.L40-.L32)/2
 438 0015 04       		.byte	(.L35-.L32)/2
 439              		.p2align 1
 440              	.L35:
 352:Generated_Source\PSoC6\pdl\drivers\peripheral\scb/cy_scb_ezi2c.c ****             {
 441              		.loc 1 352 0
 442 0016 1868     		ldr	r0, [r3]
 443              	.LVL27:
 444 0018 10F48070 		ands	r0, r0, #256
 445 001c 35D1     		bne	.L43
 446              	.L39:
 447              	.LVL28:
 448              	.LBB167:
 449              	.LBB168:
 450              		.file 2 "Generated_Source\\PSoC6\\pdl\\drivers\\peripheral\\scb\\cy_scb_ezi2c.h"
   1:Generated_Source\PSoC6\pdl\drivers\peripheral\scb/cy_scb_ezi2c.h **** /***************************************************************************//**
   2:Generated_Source\PSoC6\pdl\drivers\peripheral\scb/cy_scb_ezi2c.h **** * \file cy_scb_ezi2c.h
   3:Generated_Source\PSoC6\pdl\drivers\peripheral\scb/cy_scb_ezi2c.h **** * \version 2.20
   4:Generated_Source\PSoC6\pdl\drivers\peripheral\scb/cy_scb_ezi2c.h **** *
   5:Generated_Source\PSoC6\pdl\drivers\peripheral\scb/cy_scb_ezi2c.h **** * Provides EZI2C API declarations of the SCB driver.
   6:Generated_Source\PSoC6\pdl\drivers\peripheral\scb/cy_scb_ezi2c.h **** *
   7:Generated_Source\PSoC6\pdl\drivers\peripheral\scb/cy_scb_ezi2c.h **** ********************************************************************************
   8:Generated_Source\PSoC6\pdl\drivers\peripheral\scb/cy_scb_ezi2c.h **** * \copyright
ARM GAS  C:\Users\pearlstl\AppData\Local\Temp\ccHsEs7Z.s 			page 33


   9:Generated_Source\PSoC6\pdl\drivers\peripheral\scb/cy_scb_ezi2c.h **** * Copyright 2016-2018, Cypress Semiconductor Corporation.  All rights reserved.
  10:Generated_Source\PSoC6\pdl\drivers\peripheral\scb/cy_scb_ezi2c.h **** * You may use this file only in accordance with the license, terms, conditions,
  11:Generated_Source\PSoC6\pdl\drivers\peripheral\scb/cy_scb_ezi2c.h **** * disclaimers, and limitations in the end user license agreement accompanying
  12:Generated_Source\PSoC6\pdl\drivers\peripheral\scb/cy_scb_ezi2c.h **** * the software package with which this file was provided.
  13:Generated_Source\PSoC6\pdl\drivers\peripheral\scb/cy_scb_ezi2c.h **** *******************************************************************************/
  14:Generated_Source\PSoC6\pdl\drivers\peripheral\scb/cy_scb_ezi2c.h **** 
  15:Generated_Source\PSoC6\pdl\drivers\peripheral\scb/cy_scb_ezi2c.h **** /**
  16:Generated_Source\PSoC6\pdl\drivers\peripheral\scb/cy_scb_ezi2c.h **** * \addtogroup group_scb_ezi2c
  17:Generated_Source\PSoC6\pdl\drivers\peripheral\scb/cy_scb_ezi2c.h **** * \{
  18:Generated_Source\PSoC6\pdl\drivers\peripheral\scb/cy_scb_ezi2c.h **** * Driver API for EZI2C Slave Peripheral
  19:Generated_Source\PSoC6\pdl\drivers\peripheral\scb/cy_scb_ezi2c.h **** *
  20:Generated_Source\PSoC6\pdl\drivers\peripheral\scb/cy_scb_ezi2c.h **** * The functions and other declarations used in this part of the driver are in 
  21:Generated_Source\PSoC6\pdl\drivers\peripheral\scb/cy_scb_ezi2c.h **** * cy_scb_ezi2c.h. You can also include cy_pdl.h (ModusToolbox only) to get access 
  22:Generated_Source\PSoC6\pdl\drivers\peripheral\scb/cy_scb_ezi2c.h **** * to all functions and declarations in the PDL.
  23:Generated_Source\PSoC6\pdl\drivers\peripheral\scb/cy_scb_ezi2c.h **** *
  24:Generated_Source\PSoC6\pdl\drivers\peripheral\scb/cy_scb_ezi2c.h **** * I2C - The Inter-Integrated Circuit (I2C) bus is an industry-standard.
  25:Generated_Source\PSoC6\pdl\drivers\peripheral\scb/cy_scb_ezi2c.h **** *
  26:Generated_Source\PSoC6\pdl\drivers\peripheral\scb/cy_scb_ezi2c.h **** * The EZI2C slave peripheral driver provides an API to implement the I2C slave
  27:Generated_Source\PSoC6\pdl\drivers\peripheral\scb/cy_scb_ezi2c.h **** * device based on the SCB hardware block. This slave device emulates a common
  28:Generated_Source\PSoC6\pdl\drivers\peripheral\scb/cy_scb_ezi2c.h **** * I2C EEPROM interface that acts like dual-port memory between the external
  29:Generated_Source\PSoC6\pdl\drivers\peripheral\scb/cy_scb_ezi2c.h **** * master and your code. I2C devices based on the SCB hardware are compatible
  30:Generated_Source\PSoC6\pdl\drivers\peripheral\scb/cy_scb_ezi2c.h **** * with the I2C Standard mode, Fast mode, and Fast mode Plus specifications, as
  31:Generated_Source\PSoC6\pdl\drivers\peripheral\scb/cy_scb_ezi2c.h **** * defined in the I2C bus specification.
  32:Generated_Source\PSoC6\pdl\drivers\peripheral\scb/cy_scb_ezi2c.h **** *
  33:Generated_Source\PSoC6\pdl\drivers\peripheral\scb/cy_scb_ezi2c.h **** * Features:
  34:Generated_Source\PSoC6\pdl\drivers\peripheral\scb/cy_scb_ezi2c.h **** * * An industry-standard I2C bus interface
  35:Generated_Source\PSoC6\pdl\drivers\peripheral\scb/cy_scb_ezi2c.h **** * * Supports standard data rates of 100/400/1000 kbps
  36:Generated_Source\PSoC6\pdl\drivers\peripheral\scb/cy_scb_ezi2c.h **** * * Emulates a common I2C EEPROM Interface
  37:Generated_Source\PSoC6\pdl\drivers\peripheral\scb/cy_scb_ezi2c.h **** * * Acts like dual-port memory between the external master and your code
  38:Generated_Source\PSoC6\pdl\drivers\peripheral\scb/cy_scb_ezi2c.h **** * * Supports Hardware Address Match
  39:Generated_Source\PSoC6\pdl\drivers\peripheral\scb/cy_scb_ezi2c.h **** * * Supports two hardware addresses with separate buffers
  40:Generated_Source\PSoC6\pdl\drivers\peripheral\scb/cy_scb_ezi2c.h **** * * Supports Wake from Deep Sleep on address match
  41:Generated_Source\PSoC6\pdl\drivers\peripheral\scb/cy_scb_ezi2c.h **** * * Simple to set up and use; does not require calling EZI2C API
  42:Generated_Source\PSoC6\pdl\drivers\peripheral\scb/cy_scb_ezi2c.h **** *   at run time.
  43:Generated_Source\PSoC6\pdl\drivers\peripheral\scb/cy_scb_ezi2c.h **** *
  44:Generated_Source\PSoC6\pdl\drivers\peripheral\scb/cy_scb_ezi2c.h **** ********************************************************************************
  45:Generated_Source\PSoC6\pdl\drivers\peripheral\scb/cy_scb_ezi2c.h **** * \section group_scb_ezi2c_configuration Configuration Considerations
  46:Generated_Source\PSoC6\pdl\drivers\peripheral\scb/cy_scb_ezi2c.h **** ********************************************************************************
  47:Generated_Source\PSoC6\pdl\drivers\peripheral\scb/cy_scb_ezi2c.h **** * The EZI2C slave driver configuration can be divided to number of sequential 
  48:Generated_Source\PSoC6\pdl\drivers\peripheral\scb/cy_scb_ezi2c.h **** * steps listed below: 
  49:Generated_Source\PSoC6\pdl\drivers\peripheral\scb/cy_scb_ezi2c.h **** * * \ref group_scb_ezi2c_config
  50:Generated_Source\PSoC6\pdl\drivers\peripheral\scb/cy_scb_ezi2c.h **** * * \ref group_scb_ezi2c_pins
  51:Generated_Source\PSoC6\pdl\drivers\peripheral\scb/cy_scb_ezi2c.h **** * * \ref group_scb_ezi2c_clock
  52:Generated_Source\PSoC6\pdl\drivers\peripheral\scb/cy_scb_ezi2c.h **** * * \ref group_scb_ezi2c_data_rate
  53:Generated_Source\PSoC6\pdl\drivers\peripheral\scb/cy_scb_ezi2c.h **** * * \ref group_scb_ezi2c_intr
  54:Generated_Source\PSoC6\pdl\drivers\peripheral\scb/cy_scb_ezi2c.h **** * * \ref group_scb_ezi2c_enable
  55:Generated_Source\PSoC6\pdl\drivers\peripheral\scb/cy_scb_ezi2c.h **** * 
  56:Generated_Source\PSoC6\pdl\drivers\peripheral\scb/cy_scb_ezi2c.h **** * \note 
  57:Generated_Source\PSoC6\pdl\drivers\peripheral\scb/cy_scb_ezi2c.h **** * EZI2C slave driver is built on top of the SCB hardware block. The SCB3 
  58:Generated_Source\PSoC6\pdl\drivers\peripheral\scb/cy_scb_ezi2c.h **** * instance is used as an example for all code snippets. Modify the code to 
  59:Generated_Source\PSoC6\pdl\drivers\peripheral\scb/cy_scb_ezi2c.h **** * match your design.
  60:Generated_Source\PSoC6\pdl\drivers\peripheral\scb/cy_scb_ezi2c.h **** *
  61:Generated_Source\PSoC6\pdl\drivers\peripheral\scb/cy_scb_ezi2c.h **** ********************************************************************************
  62:Generated_Source\PSoC6\pdl\drivers\peripheral\scb/cy_scb_ezi2c.h **** * \subsection group_scb_ezi2c_config Configure EZI2C slave
  63:Generated_Source\PSoC6\pdl\drivers\peripheral\scb/cy_scb_ezi2c.h **** ********************************************************************************
  64:Generated_Source\PSoC6\pdl\drivers\peripheral\scb/cy_scb_ezi2c.h **** * To set up the EZI2C slave driver, provide the configuration parameters in the 
  65:Generated_Source\PSoC6\pdl\drivers\peripheral\scb/cy_scb_ezi2c.h **** * \ref cy_stc_scb_ezi2c_config_t structure. The primary slave address 
ARM GAS  C:\Users\pearlstl\AppData\Local\Temp\ccHsEs7Z.s 			page 34


  66:Generated_Source\PSoC6\pdl\drivers\peripheral\scb/cy_scb_ezi2c.h **** * slaveAddress1 must be provided. The other parameters are optional for 
  67:Generated_Source\PSoC6\pdl\drivers\peripheral\scb/cy_scb_ezi2c.h **** * operation. To initialize the driver, call \ref Cy_SCB_EZI2C_Init 
  68:Generated_Source\PSoC6\pdl\drivers\peripheral\scb/cy_scb_ezi2c.h **** * function providing a pointer to the populated \ref cy_stc_scb_ezi2c_config_t 
  69:Generated_Source\PSoC6\pdl\drivers\peripheral\scb/cy_scb_ezi2c.h **** * structure and the allocated \ref cy_stc_scb_ezi2c_context_t structure.
  70:Generated_Source\PSoC6\pdl\drivers\peripheral\scb/cy_scb_ezi2c.h **** *
  71:Generated_Source\PSoC6\pdl\drivers\peripheral\scb/cy_scb_ezi2c.h **** * \snippet SCB_CompDatasheet_sut_01_revA.cydsn\ezi2c_snippets.c EZI2C_CFG
  72:Generated_Source\PSoC6\pdl\drivers\peripheral\scb/cy_scb_ezi2c.h **** *
  73:Generated_Source\PSoC6\pdl\drivers\peripheral\scb/cy_scb_ezi2c.h **** * Set up the EZI2C slave buffer before enabling its 
  74:Generated_Source\PSoC6\pdl\drivers\peripheral\scb/cy_scb_ezi2c.h **** * operation by using \ref Cy_SCB_EZI2C_SetBuffer1 for the primary slave address  
  75:Generated_Source\PSoC6\pdl\drivers\peripheral\scb/cy_scb_ezi2c.h **** * and \ref Cy_SCB_EZI2C_SetBuffer2 for the secondary (if the secondary is enabled).
  76:Generated_Source\PSoC6\pdl\drivers\peripheral\scb/cy_scb_ezi2c.h **** *
  77:Generated_Source\PSoC6\pdl\drivers\peripheral\scb/cy_scb_ezi2c.h **** * \snippet SCB_CompDatasheet_sut_01_revA.cydsn\ezi2c_snippets.c EZI2C_CFG_BUFFER
  78:Generated_Source\PSoC6\pdl\drivers\peripheral\scb/cy_scb_ezi2c.h **** *
  79:Generated_Source\PSoC6\pdl\drivers\peripheral\scb/cy_scb_ezi2c.h **** ********************************************************************************
  80:Generated_Source\PSoC6\pdl\drivers\peripheral\scb/cy_scb_ezi2c.h **** * \subsection group_scb_ezi2c_pins Assign and Configure Pins
  81:Generated_Source\PSoC6\pdl\drivers\peripheral\scb/cy_scb_ezi2c.h **** ********************************************************************************
  82:Generated_Source\PSoC6\pdl\drivers\peripheral\scb/cy_scb_ezi2c.h **** * Only dedicated SCB pins can be used for I2C operation. The HSIOM 
  83:Generated_Source\PSoC6\pdl\drivers\peripheral\scb/cy_scb_ezi2c.h **** * register must be configured to connect dedicated SCB I2C pins to the 
  84:Generated_Source\PSoC6\pdl\drivers\peripheral\scb/cy_scb_ezi2c.h **** * SCB block. Also the I2C pins must be configured in Open-Drain, Drives Low mode 
  85:Generated_Source\PSoC6\pdl\drivers\peripheral\scb/cy_scb_ezi2c.h **** * (this pin configuration implies usage of external pull-up resistors):
  86:Generated_Source\PSoC6\pdl\drivers\peripheral\scb/cy_scb_ezi2c.h **** *
  87:Generated_Source\PSoC6\pdl\drivers\peripheral\scb/cy_scb_ezi2c.h **** * \snippet SCB_CompDatasheet_sut_01_revA.cydsn\ezi2c_snippets.c EZI2C_CFG_PINS
  88:Generated_Source\PSoC6\pdl\drivers\peripheral\scb/cy_scb_ezi2c.h **** *
  89:Generated_Source\PSoC6\pdl\drivers\peripheral\scb/cy_scb_ezi2c.h **** * \note
  90:Generated_Source\PSoC6\pdl\drivers\peripheral\scb/cy_scb_ezi2c.h **** * The alternative pins configuration is Resistive Pull-ups which implies usage 
  91:Generated_Source\PSoC6\pdl\drivers\peripheral\scb/cy_scb_ezi2c.h **** * internal pull-up resistors. This configuration is not recommended because 
  92:Generated_Source\PSoC6\pdl\drivers\peripheral\scb/cy_scb_ezi2c.h **** * resistor value is fixed and cannot be used for all supported data rates. 
  93:Generated_Source\PSoC6\pdl\drivers\peripheral\scb/cy_scb_ezi2c.h **** * Refer to device datasheet parameter RPULLUP for resistor value specifications.
  94:Generated_Source\PSoC6\pdl\drivers\peripheral\scb/cy_scb_ezi2c.h **** *
  95:Generated_Source\PSoC6\pdl\drivers\peripheral\scb/cy_scb_ezi2c.h **** ********************************************************************************
  96:Generated_Source\PSoC6\pdl\drivers\peripheral\scb/cy_scb_ezi2c.h **** * \subsection group_scb_ezi2c_clock Assign Clock Divider
  97:Generated_Source\PSoC6\pdl\drivers\peripheral\scb/cy_scb_ezi2c.h **** ********************************************************************************
  98:Generated_Source\PSoC6\pdl\drivers\peripheral\scb/cy_scb_ezi2c.h **** * A clock source must be connected to the SCB block to oversample input and
  99:Generated_Source\PSoC6\pdl\drivers\peripheral\scb/cy_scb_ezi2c.h **** * output signals, in this document this clock will be referred as clk_scb.
 100:Generated_Source\PSoC6\pdl\drivers\peripheral\scb/cy_scb_ezi2c.h **** * You must use one of the 8-bit or 16-bit dividers. Use the \ref group_sysclk 
 101:Generated_Source\PSoC6\pdl\drivers\peripheral\scb/cy_scb_ezi2c.h **** * driver API to do this.
 102:Generated_Source\PSoC6\pdl\drivers\peripheral\scb/cy_scb_ezi2c.h **** *
 103:Generated_Source\PSoC6\pdl\drivers\peripheral\scb/cy_scb_ezi2c.h **** * \snippet SCB_CompDatasheet_sut_01_revA.cydsn\ezi2c_snippets.c EZI2C_CFG_ASSIGN_CLOCK
 104:Generated_Source\PSoC6\pdl\drivers\peripheral\scb/cy_scb_ezi2c.h **** *
 105:Generated_Source\PSoC6\pdl\drivers\peripheral\scb/cy_scb_ezi2c.h **** ********************************************************************************
 106:Generated_Source\PSoC6\pdl\drivers\peripheral\scb/cy_scb_ezi2c.h **** * \subsection group_scb_ezi2c_data_rate Configure Data Rate
 107:Generated_Source\PSoC6\pdl\drivers\peripheral\scb/cy_scb_ezi2c.h **** ********************************************************************************
 108:Generated_Source\PSoC6\pdl\drivers\peripheral\scb/cy_scb_ezi2c.h **** * To get EZI2C slave to operate at the desired data rate, the clk_scb must be 
 109:Generated_Source\PSoC6\pdl\drivers\peripheral\scb/cy_scb_ezi2c.h **** * fast enough to provide sufficient oversampling. Use the 
 110:Generated_Source\PSoC6\pdl\drivers\peripheral\scb/cy_scb_ezi2c.h **** * \ref group_sysclk driver API to do this. 
 111:Generated_Source\PSoC6\pdl\drivers\peripheral\scb/cy_scb_ezi2c.h **** *
 112:Generated_Source\PSoC6\pdl\drivers\peripheral\scb/cy_scb_ezi2c.h **** * <b>Refer to the technical reference manual (TRM) section I2C sub-section 
 113:Generated_Source\PSoC6\pdl\drivers\peripheral\scb/cy_scb_ezi2c.h **** * Oversampling and Bit Rate to get information about how to configure the 
 114:Generated_Source\PSoC6\pdl\drivers\peripheral\scb/cy_scb_ezi2c.h **** * I2C to run at the desired data rate</b>.
 115:Generated_Source\PSoC6\pdl\drivers\peripheral\scb/cy_scb_ezi2c.h **** *
 116:Generated_Source\PSoC6\pdl\drivers\peripheral\scb/cy_scb_ezi2c.h **** * \snippet SCB_CompDatasheet_sut_01_revA.cydsn\ezi2c_snippets.c EZI2C_CFG_DATA_RATE
 117:Generated_Source\PSoC6\pdl\drivers\peripheral\scb/cy_scb_ezi2c.h **** *
 118:Generated_Source\PSoC6\pdl\drivers\peripheral\scb/cy_scb_ezi2c.h **** ********************************************************************************
 119:Generated_Source\PSoC6\pdl\drivers\peripheral\scb/cy_scb_ezi2c.h **** * \subsection group_scb_ezi2c_intr Configure Interrupt
 120:Generated_Source\PSoC6\pdl\drivers\peripheral\scb/cy_scb_ezi2c.h **** ********************************************************************************
 121:Generated_Source\PSoC6\pdl\drivers\peripheral\scb/cy_scb_ezi2c.h **** * The interrupt is mandatory for the EZI2C slave operation. 
 122:Generated_Source\PSoC6\pdl\drivers\peripheral\scb/cy_scb_ezi2c.h **** * The \ref Cy_SCB_EZI2C_Interrupt function must be called in the interrupt 
ARM GAS  C:\Users\pearlstl\AppData\Local\Temp\ccHsEs7Z.s 			page 35


 123:Generated_Source\PSoC6\pdl\drivers\peripheral\scb/cy_scb_ezi2c.h **** * handler for the selected SCB instance. Also, this interrupt must be enabled 
 124:Generated_Source\PSoC6\pdl\drivers\peripheral\scb/cy_scb_ezi2c.h **** * in the NVIC or it will not work.
 125:Generated_Source\PSoC6\pdl\drivers\peripheral\scb/cy_scb_ezi2c.h **** *
 126:Generated_Source\PSoC6\pdl\drivers\peripheral\scb/cy_scb_ezi2c.h **** * \snippet SCB_CompDatasheet_sut_01_revA.cydsn\ezi2c_snippets.c EZI2C_INTR_A
 127:Generated_Source\PSoC6\pdl\drivers\peripheral\scb/cy_scb_ezi2c.h **** * \snippet SCB_CompDatasheet_sut_01_revA.cydsn\ezi2c_snippets.c EZI2C_INTR_B
 128:Generated_Source\PSoC6\pdl\drivers\peripheral\scb/cy_scb_ezi2c.h **** *
 129:Generated_Source\PSoC6\pdl\drivers\peripheral\scb/cy_scb_ezi2c.h **** ********************************************************************************
 130:Generated_Source\PSoC6\pdl\drivers\peripheral\scb/cy_scb_ezi2c.h **** * \subsection group_scb_ezi2c_enable Enable EZI2C slave
 131:Generated_Source\PSoC6\pdl\drivers\peripheral\scb/cy_scb_ezi2c.h **** ********************************************************************************
 132:Generated_Source\PSoC6\pdl\drivers\peripheral\scb/cy_scb_ezi2c.h **** * Finally, enable the EZI2C slave operation by calling \ref Cy_SCB_EZI2C_Enable. 
 133:Generated_Source\PSoC6\pdl\drivers\peripheral\scb/cy_scb_ezi2c.h **** * Now the I2C device responds to the assigned address.
 134:Generated_Source\PSoC6\pdl\drivers\peripheral\scb/cy_scb_ezi2c.h **** * \snippet SCB_CompDatasheet_sut_01_revA.cydsn\ezi2c_snippets.c EZI2C_ENABLE
 135:Generated_Source\PSoC6\pdl\drivers\peripheral\scb/cy_scb_ezi2c.h **** *
 136:Generated_Source\PSoC6\pdl\drivers\peripheral\scb/cy_scb_ezi2c.h **** ********************************************************************************
 137:Generated_Source\PSoC6\pdl\drivers\peripheral\scb/cy_scb_ezi2c.h **** * \section group_scb_ezi2c_use_cases Common Use Cases 
 138:Generated_Source\PSoC6\pdl\drivers\peripheral\scb/cy_scb_ezi2c.h **** ********************************************************************************
 139:Generated_Source\PSoC6\pdl\drivers\peripheral\scb/cy_scb_ezi2c.h **** * The EZI2C slave operation might not require calling any EZI2C slave function
 140:Generated_Source\PSoC6\pdl\drivers\peripheral\scb/cy_scb_ezi2c.h **** * because the I2C master is able to access the slave buffer. The application
 141:Generated_Source\PSoC6\pdl\drivers\peripheral\scb/cy_scb_ezi2c.h **** * can directly access it as well. Note that this is an application-level task
 142:Generated_Source\PSoC6\pdl\drivers\peripheral\scb/cy_scb_ezi2c.h **** * to ensure the buffer content integrity.
 143:Generated_Source\PSoC6\pdl\drivers\peripheral\scb/cy_scb_ezi2c.h **** * 
 144:Generated_Source\PSoC6\pdl\drivers\peripheral\scb/cy_scb_ezi2c.h **** ********************************************************************************
 145:Generated_Source\PSoC6\pdl\drivers\peripheral\scb/cy_scb_ezi2c.h **** * \subsection group_scb_ezi2c_master_wr Master Write operation
 146:Generated_Source\PSoC6\pdl\drivers\peripheral\scb/cy_scb_ezi2c.h **** ********************************************************************************
 147:Generated_Source\PSoC6\pdl\drivers\peripheral\scb/cy_scb_ezi2c.h **** * This operation starts with sending a base address that is one
 148:Generated_Source\PSoC6\pdl\drivers\peripheral\scb/cy_scb_ezi2c.h **** * or two bytes, depending on the sub-address size configuration. This base
 149:Generated_Source\PSoC6\pdl\drivers\peripheral\scb/cy_scb_ezi2c.h **** * address is retained and will be used for later read operations. Following
 150:Generated_Source\PSoC6\pdl\drivers\peripheral\scb/cy_scb_ezi2c.h **** * the base address, there is a sequence of bytes written into the buffer
 151:Generated_Source\PSoC6\pdl\drivers\peripheral\scb/cy_scb_ezi2c.h **** * starting from the base address location. The buffer index is incremented
 152:Generated_Source\PSoC6\pdl\drivers\peripheral\scb/cy_scb_ezi2c.h **** * for each written byte, but this does not affect the base address that is
 153:Generated_Source\PSoC6\pdl\drivers\peripheral\scb/cy_scb_ezi2c.h **** * retained. The length of a write operation is limited by the maximum buffer
 154:Generated_Source\PSoC6\pdl\drivers\peripheral\scb/cy_scb_ezi2c.h **** * read/write region size.\n
 155:Generated_Source\PSoC6\pdl\drivers\peripheral\scb/cy_scb_ezi2c.h **** * When a master attempts to write outside the read/write region or past the
 156:Generated_Source\PSoC6\pdl\drivers\peripheral\scb/cy_scb_ezi2c.h **** * end of the buffer, the last byte is NACKed.
 157:Generated_Source\PSoC6\pdl\drivers\peripheral\scb/cy_scb_ezi2c.h **** * 
 158:Generated_Source\PSoC6\pdl\drivers\peripheral\scb/cy_scb_ezi2c.h **** * \image html scb_ezi2c_write.png
 159:Generated_Source\PSoC6\pdl\drivers\peripheral\scb/cy_scb_ezi2c.h **** * 
 160:Generated_Source\PSoC6\pdl\drivers\peripheral\scb/cy_scb_ezi2c.h **** ********************************************************************************
 161:Generated_Source\PSoC6\pdl\drivers\peripheral\scb/cy_scb_ezi2c.h **** * \subsection group_scb_ezi2c_master_rd Master Read operation
 162:Generated_Source\PSoC6\pdl\drivers\peripheral\scb/cy_scb_ezi2c.h **** ********************************************************************************
 163:Generated_Source\PSoC6\pdl\drivers\peripheral\scb/cy_scb_ezi2c.h **** * This operation always starts from the base address set by the most
 164:Generated_Source\PSoC6\pdl\drivers\peripheral\scb/cy_scb_ezi2c.h **** * recent write operation. The buffer index is incremented for each read byte.
 165:Generated_Source\PSoC6\pdl\drivers\peripheral\scb/cy_scb_ezi2c.h **** * Two sequential read operations start from the same base address no matter
 166:Generated_Source\PSoC6\pdl\drivers\peripheral\scb/cy_scb_ezi2c.h **** * how many bytes are read. The length of a read operation is not limited by
 167:Generated_Source\PSoC6\pdl\drivers\peripheral\scb/cy_scb_ezi2c.h **** * the maximum size of the data buffer. The EZI2C slave returns 0xFF bytes
 168:Generated_Source\PSoC6\pdl\drivers\peripheral\scb/cy_scb_ezi2c.h **** * if the read operation passes the end of the buffer.\n
 169:Generated_Source\PSoC6\pdl\drivers\peripheral\scb/cy_scb_ezi2c.h **** * Typically, a read operation requires the base address to be updated before
 170:Generated_Source\PSoC6\pdl\drivers\peripheral\scb/cy_scb_ezi2c.h **** * starting the read. In this case, the write and read operations must be
 171:Generated_Source\PSoC6\pdl\drivers\peripheral\scb/cy_scb_ezi2c.h **** * combined together.
 172:Generated_Source\PSoC6\pdl\drivers\peripheral\scb/cy_scb_ezi2c.h **** *
 173:Generated_Source\PSoC6\pdl\drivers\peripheral\scb/cy_scb_ezi2c.h **** * \image html scb_ezi2c_read.png
 174:Generated_Source\PSoC6\pdl\drivers\peripheral\scb/cy_scb_ezi2c.h **** *
 175:Generated_Source\PSoC6\pdl\drivers\peripheral\scb/cy_scb_ezi2c.h **** * The I2C master may use the ReStart or Stop/Start conditions to combine the 
 176:Generated_Source\PSoC6\pdl\drivers\peripheral\scb/cy_scb_ezi2c.h **** * operations. The write operation sets only the base address and the following
 177:Generated_Source\PSoC6\pdl\drivers\peripheral\scb/cy_scb_ezi2c.h **** * read operation will start from the new base address. In cases where the base
 178:Generated_Source\PSoC6\pdl\drivers\peripheral\scb/cy_scb_ezi2c.h **** * address remains the same, there is no need for a write operation.
 179:Generated_Source\PSoC6\pdl\drivers\peripheral\scb/cy_scb_ezi2c.h **** * \image html scb_ezi2c_set_ba_read.png
ARM GAS  C:\Users\pearlstl\AppData\Local\Temp\ccHsEs7Z.s 			page 36


 180:Generated_Source\PSoC6\pdl\drivers\peripheral\scb/cy_scb_ezi2c.h **** *
 181:Generated_Source\PSoC6\pdl\drivers\peripheral\scb/cy_scb_ezi2c.h **** ********************************************************************************
 182:Generated_Source\PSoC6\pdl\drivers\peripheral\scb/cy_scb_ezi2c.h **** * \section group_scb_ezi2c_lp Low Power Support
 183:Generated_Source\PSoC6\pdl\drivers\peripheral\scb/cy_scb_ezi2c.h **** ********************************************************************************
 184:Generated_Source\PSoC6\pdl\drivers\peripheral\scb/cy_scb_ezi2c.h **** * The EZI2C slave provides the callback functions to handle power mode 
 185:Generated_Source\PSoC6\pdl\drivers\peripheral\scb/cy_scb_ezi2c.h **** * transition. The callback \ref Cy_SCB_EZI2C_DeepSleepCallback must be called 
 186:Generated_Source\PSoC6\pdl\drivers\peripheral\scb/cy_scb_ezi2c.h **** * during execution of \ref Cy_SysPm_CpuEnterDeepSleep; 
 187:Generated_Source\PSoC6\pdl\drivers\peripheral\scb/cy_scb_ezi2c.h **** * \ref Cy_SCB_EZI2C_HibernateCallback must be called during execution of 
 188:Generated_Source\PSoC6\pdl\drivers\peripheral\scb/cy_scb_ezi2c.h **** * \ref Cy_SysPm_SystemEnterHibernate. To trigger the callback execution, the 
 189:Generated_Source\PSoC6\pdl\drivers\peripheral\scb/cy_scb_ezi2c.h **** * callback must be registered before calling the power mode transition function. 
 190:Generated_Source\PSoC6\pdl\drivers\peripheral\scb/cy_scb_ezi2c.h **** * Refer to  \ref group_syspm driver for more information about power mode 
 191:Generated_Source\PSoC6\pdl\drivers\peripheral\scb/cy_scb_ezi2c.h **** * transitions and callback registration.
 192:Generated_Source\PSoC6\pdl\drivers\peripheral\scb/cy_scb_ezi2c.h **** *
 193:Generated_Source\PSoC6\pdl\drivers\peripheral\scb/cy_scb_ezi2c.h **** * The EZI2C configured to support two addresses can wakeup the device on 
 194:Generated_Source\PSoC6\pdl\drivers\peripheral\scb/cy_scb_ezi2c.h **** * address match to NACK not supported address. This happens because the 
 195:Generated_Source\PSoC6\pdl\drivers\peripheral\scb/cy_scb_ezi2c.h **** * hardware address-match-logic uses address bit masking to support to two 
 196:Generated_Source\PSoC6\pdl\drivers\peripheral\scb/cy_scb_ezi2c.h **** * addresses. The address mask defines which bits in the address are treated 
 197:Generated_Source\PSoC6\pdl\drivers\peripheral\scb/cy_scb_ezi2c.h **** * as non-significant while performing an address match. One non-significant 
 198:Generated_Source\PSoC6\pdl\drivers\peripheral\scb/cy_scb_ezi2c.h **** * bit results in two matching addresses; two bits will match 4 and so on. 
 199:Generated_Source\PSoC6\pdl\drivers\peripheral\scb/cy_scb_ezi2c.h **** * If the two addresses differ by more than a single bit, then the extra 
 200:Generated_Source\PSoC6\pdl\drivers\peripheral\scb/cy_scb_ezi2c.h **** * addresses that will pass the hardware match and wakeup the device from 
 201:Generated_Source\PSoC6\pdl\drivers\peripheral\scb/cy_scb_ezi2c.h **** * Deep Sleep mode. Then firmware address matching will to generate a NAK. 
 202:Generated_Source\PSoC6\pdl\drivers\peripheral\scb/cy_scb_ezi2c.h **** * Due to this reason, it is preferable to select a secondary address that 
 203:Generated_Source\PSoC6\pdl\drivers\peripheral\scb/cy_scb_ezi2c.h **** * is different from the primary by one bit. The address mask in this case 
 204:Generated_Source\PSoC6\pdl\drivers\peripheral\scb/cy_scb_ezi2c.h **** * makes one bit non-significant.
 205:Generated_Source\PSoC6\pdl\drivers\peripheral\scb/cy_scb_ezi2c.h **** * For example:
 206:Generated_Source\PSoC6\pdl\drivers\peripheral\scb/cy_scb_ezi2c.h **** * * Primary address = 0x24 and secondary address = 0x34, only one bit differs. 
 207:Generated_Source\PSoC6\pdl\drivers\peripheral\scb/cy_scb_ezi2c.h **** *   Only the two addresses are treated as matching by the hardware.
 208:Generated_Source\PSoC6\pdl\drivers\peripheral\scb/cy_scb_ezi2c.h **** * * Primary address = 0x24 and secondary address = 0x30, two bits differ. 
 209:Generated_Source\PSoC6\pdl\drivers\peripheral\scb/cy_scb_ezi2c.h **** *   Four addresses are treated as matching by the hardware: 0x24, 0x34, 0x20 
 210:Generated_Source\PSoC6\pdl\drivers\peripheral\scb/cy_scb_ezi2c.h **** *   and 0x30. Firmware is required to ACK only the primary and secondary 
 211:Generated_Source\PSoC6\pdl\drivers\peripheral\scb/cy_scb_ezi2c.h **** *   addresses 0x24 and 0x30 and NAK all others 0x20 and 0x34.
 212:Generated_Source\PSoC6\pdl\drivers\peripheral\scb/cy_scb_ezi2c.h **** *
 213:Generated_Source\PSoC6\pdl\drivers\peripheral\scb/cy_scb_ezi2c.h **** * \note
 214:Generated_Source\PSoC6\pdl\drivers\peripheral\scb/cy_scb_ezi2c.h **** * Only applicable for <b>rev-08 of the CY8CKIT-062-BLE</b>.
 215:Generated_Source\PSoC6\pdl\drivers\peripheral\scb/cy_scb_ezi2c.h **** * For proper operation, when the EZI2C slave is configured to be a wakeup 
 216:Generated_Source\PSoC6\pdl\drivers\peripheral\scb/cy_scb_ezi2c.h **** * source from Deep Sleep mode, the \ref Cy_SCB_EZI2C_DeepSleepCallback must 
 217:Generated_Source\PSoC6\pdl\drivers\peripheral\scb/cy_scb_ezi2c.h **** * be copied and modified. Refer to the function description to get the details.
 218:Generated_Source\PSoC6\pdl\drivers\peripheral\scb/cy_scb_ezi2c.h **** *
 219:Generated_Source\PSoC6\pdl\drivers\peripheral\scb/cy_scb_ezi2c.h **** ********************************************************************************
 220:Generated_Source\PSoC6\pdl\drivers\peripheral\scb/cy_scb_ezi2c.h **** * \section group_scb_ezi2c_more_information More Information
 221:Generated_Source\PSoC6\pdl\drivers\peripheral\scb/cy_scb_ezi2c.h **** ********************************************************************************
 222:Generated_Source\PSoC6\pdl\drivers\peripheral\scb/cy_scb_ezi2c.h **** * For more information on the SCB peripheral, refer to the technical reference
 223:Generated_Source\PSoC6\pdl\drivers\peripheral\scb/cy_scb_ezi2c.h **** * manual (TRM).
 224:Generated_Source\PSoC6\pdl\drivers\peripheral\scb/cy_scb_ezi2c.h **** *
 225:Generated_Source\PSoC6\pdl\drivers\peripheral\scb/cy_scb_ezi2c.h **** ********************************************************************************
 226:Generated_Source\PSoC6\pdl\drivers\peripheral\scb/cy_scb_ezi2c.h **** * \section group_scb_ezi2c_MISRA MISRA-C Compliance
 227:Generated_Source\PSoC6\pdl\drivers\peripheral\scb/cy_scb_ezi2c.h **** ********************************************************************************
 228:Generated_Source\PSoC6\pdl\drivers\peripheral\scb/cy_scb_ezi2c.h **** * <table class="doxtable">
 229:Generated_Source\PSoC6\pdl\drivers\peripheral\scb/cy_scb_ezi2c.h **** *   <tr>
 230:Generated_Source\PSoC6\pdl\drivers\peripheral\scb/cy_scb_ezi2c.h **** *     <th>MISRA Rule</th>
 231:Generated_Source\PSoC6\pdl\drivers\peripheral\scb/cy_scb_ezi2c.h **** *     <th>Rule Class (Required/Advisory)</th>
 232:Generated_Source\PSoC6\pdl\drivers\peripheral\scb/cy_scb_ezi2c.h **** *     <th>Rule Description</th>
 233:Generated_Source\PSoC6\pdl\drivers\peripheral\scb/cy_scb_ezi2c.h **** *     <th>Description of Deviation(s)</th>
 234:Generated_Source\PSoC6\pdl\drivers\peripheral\scb/cy_scb_ezi2c.h **** *   </tr>
 235:Generated_Source\PSoC6\pdl\drivers\peripheral\scb/cy_scb_ezi2c.h **** *   <tr>
 236:Generated_Source\PSoC6\pdl\drivers\peripheral\scb/cy_scb_ezi2c.h **** *     <td>11.4</td>
ARM GAS  C:\Users\pearlstl\AppData\Local\Temp\ccHsEs7Z.s 			page 37


 237:Generated_Source\PSoC6\pdl\drivers\peripheral\scb/cy_scb_ezi2c.h **** *     <td>A</td>
 238:Generated_Source\PSoC6\pdl\drivers\peripheral\scb/cy_scb_ezi2c.h **** *     <td>A cast should not be performed between a pointer to object type and
 239:Generated_Source\PSoC6\pdl\drivers\peripheral\scb/cy_scb_ezi2c.h **** *         a different pointer to object type.</td>
 240:Generated_Source\PSoC6\pdl\drivers\peripheral\scb/cy_scb_ezi2c.h **** *     <td>The functions \ref Cy_SCB_EZI2C_DeepSleepCallback and
 241:Generated_Source\PSoC6\pdl\drivers\peripheral\scb/cy_scb_ezi2c.h **** *         \ref Cy_SCB_EZI2C_HibernateCallback are callback of
 242:Generated_Source\PSoC6\pdl\drivers\peripheral\scb/cy_scb_ezi2c.h **** *         \ref cy_en_syspm_status_t type. The cast operation safety in these
 243:Generated_Source\PSoC6\pdl\drivers\peripheral\scb/cy_scb_ezi2c.h **** *         functions becomes the user's responsibility because pointers are
 244:Generated_Source\PSoC6\pdl\drivers\peripheral\scb/cy_scb_ezi2c.h **** *         initialized when callback is registered in SysPm driver.</td>
 245:Generated_Source\PSoC6\pdl\drivers\peripheral\scb/cy_scb_ezi2c.h **** *   </tr>
 246:Generated_Source\PSoC6\pdl\drivers\peripheral\scb/cy_scb_ezi2c.h **** *   <tr>
 247:Generated_Source\PSoC6\pdl\drivers\peripheral\scb/cy_scb_ezi2c.h **** *     <td>14.1</td>
 248:Generated_Source\PSoC6\pdl\drivers\peripheral\scb/cy_scb_ezi2c.h **** *     <td>R</td>
 249:Generated_Source\PSoC6\pdl\drivers\peripheral\scb/cy_scb_ezi2c.h **** *     <td>There shall be no unreachable code.</td>
 250:Generated_Source\PSoC6\pdl\drivers\peripheral\scb/cy_scb_ezi2c.h **** *     <td>The SCB block parameters can be a constant false or true depending on
 251:Generated_Source\PSoC6\pdl\drivers\peripheral\scb/cy_scb_ezi2c.h **** *         the selected device and cause code to be unreachable.</td>
 252:Generated_Source\PSoC6\pdl\drivers\peripheral\scb/cy_scb_ezi2c.h **** *   </tr>
 253:Generated_Source\PSoC6\pdl\drivers\peripheral\scb/cy_scb_ezi2c.h **** *   <tr>
 254:Generated_Source\PSoC6\pdl\drivers\peripheral\scb/cy_scb_ezi2c.h **** *     <td>14.2</td>
 255:Generated_Source\PSoC6\pdl\drivers\peripheral\scb/cy_scb_ezi2c.h **** *     <td>R</td>
 256:Generated_Source\PSoC6\pdl\drivers\peripheral\scb/cy_scb_ezi2c.h **** *     <td>All non-null statements shall either: a) have at least one side-effect
 257:Generated_Source\PSoC6\pdl\drivers\peripheral\scb/cy_scb_ezi2c.h **** *         however executed, or b) cause control flow to change.</td>
 258:Generated_Source\PSoC6\pdl\drivers\peripheral\scb/cy_scb_ezi2c.h **** *     <td>The unused function parameters are cast to void. This statement
 259:Generated_Source\PSoC6\pdl\drivers\peripheral\scb/cy_scb_ezi2c.h **** *         has no side-effect and is used to suppress a compiler warning.</td>
 260:Generated_Source\PSoC6\pdl\drivers\peripheral\scb/cy_scb_ezi2c.h **** *   </tr>
 261:Generated_Source\PSoC6\pdl\drivers\peripheral\scb/cy_scb_ezi2c.h **** *   <tr>
 262:Generated_Source\PSoC6\pdl\drivers\peripheral\scb/cy_scb_ezi2c.h **** *     <td>14.7</td>
 263:Generated_Source\PSoC6\pdl\drivers\peripheral\scb/cy_scb_ezi2c.h **** *     <td>R</td>
 264:Generated_Source\PSoC6\pdl\drivers\peripheral\scb/cy_scb_ezi2c.h **** *     <td>A function shall have a single point of exit at the end of the
 265:Generated_Source\PSoC6\pdl\drivers\peripheral\scb/cy_scb_ezi2c.h **** *         function.</td>
 266:Generated_Source\PSoC6\pdl\drivers\peripheral\scb/cy_scb_ezi2c.h **** *     <td>The functions can return from several points. This is done to improve
 267:Generated_Source\PSoC6\pdl\drivers\peripheral\scb/cy_scb_ezi2c.h **** *         code clarity when returning error status code if input parameter
 268:Generated_Source\PSoC6\pdl\drivers\peripheral\scb/cy_scb_ezi2c.h **** *         validation fails.</td>
 269:Generated_Source\PSoC6\pdl\drivers\peripheral\scb/cy_scb_ezi2c.h **** *   </tr>
 270:Generated_Source\PSoC6\pdl\drivers\peripheral\scb/cy_scb_ezi2c.h **** * </table>
 271:Generated_Source\PSoC6\pdl\drivers\peripheral\scb/cy_scb_ezi2c.h **** *
 272:Generated_Source\PSoC6\pdl\drivers\peripheral\scb/cy_scb_ezi2c.h **** * \section group_scb_ezi2c_changelog Changelog
 273:Generated_Source\PSoC6\pdl\drivers\peripheral\scb/cy_scb_ezi2c.h **** * <table class="doxtable">
 274:Generated_Source\PSoC6\pdl\drivers\peripheral\scb/cy_scb_ezi2c.h **** *   <tr><th>Version</th><th>Changes</th><th>Reason for Change</th></tr>
 275:Generated_Source\PSoC6\pdl\drivers\peripheral\scb/cy_scb_ezi2c.h **** *   <tr>
 276:Generated_Source\PSoC6\pdl\drivers\peripheral\scb/cy_scb_ezi2c.h **** *     <td rowspan="2">2.20</td>
 277:Generated_Source\PSoC6\pdl\drivers\peripheral\scb/cy_scb_ezi2c.h **** *     <td>Flattened the organization of the driver source code into the single 
 278:Generated_Source\PSoC6\pdl\drivers\peripheral\scb/cy_scb_ezi2c.h **** *         source directory and the single include directory.
 279:Generated_Source\PSoC6\pdl\drivers\peripheral\scb/cy_scb_ezi2c.h **** *     </td>
 280:Generated_Source\PSoC6\pdl\drivers\peripheral\scb/cy_scb_ezi2c.h **** *     <td>Driver library directory-structure simplification.</td>
 281:Generated_Source\PSoC6\pdl\drivers\peripheral\scb/cy_scb_ezi2c.h **** *   </tr>
 282:Generated_Source\PSoC6\pdl\drivers\peripheral\scb/cy_scb_ezi2c.h **** *   <tr>
 283:Generated_Source\PSoC6\pdl\drivers\peripheral\scb/cy_scb_ezi2c.h **** *     <td>Added register access layer. Use register access macros instead
 284:Generated_Source\PSoC6\pdl\drivers\peripheral\scb/cy_scb_ezi2c.h **** *         of direct register access using dereferenced pointers.</td>
 285:Generated_Source\PSoC6\pdl\drivers\peripheral\scb/cy_scb_ezi2c.h **** *     <td>Makes register access device-independent, so that the PDL does 
 286:Generated_Source\PSoC6\pdl\drivers\peripheral\scb/cy_scb_ezi2c.h **** *         not need to be recompiled for each supported part number.</td>
 287:Generated_Source\PSoC6\pdl\drivers\peripheral\scb/cy_scb_ezi2c.h **** *   </tr>
 288:Generated_Source\PSoC6\pdl\drivers\peripheral\scb/cy_scb_ezi2c.h **** *   <tr>
 289:Generated_Source\PSoC6\pdl\drivers\peripheral\scb/cy_scb_ezi2c.h **** *     <td>2.10</td>
 290:Generated_Source\PSoC6\pdl\drivers\peripheral\scb/cy_scb_ezi2c.h **** *     <td>None.</td>
 291:Generated_Source\PSoC6\pdl\drivers\peripheral\scb/cy_scb_ezi2c.h **** *     <td>SCB I2C driver updated.</td>
 292:Generated_Source\PSoC6\pdl\drivers\peripheral\scb/cy_scb_ezi2c.h **** *   </tr>
 293:Generated_Source\PSoC6\pdl\drivers\peripheral\scb/cy_scb_ezi2c.h **** *   <tr>
ARM GAS  C:\Users\pearlstl\AppData\Local\Temp\ccHsEs7Z.s 			page 38


 294:Generated_Source\PSoC6\pdl\drivers\peripheral\scb/cy_scb_ezi2c.h **** *     <td rowspan="2"> 2.0</td>
 295:Generated_Source\PSoC6\pdl\drivers\peripheral\scb/cy_scb_ezi2c.h **** *     <td>Added parameters validation for public API.</td>
 296:Generated_Source\PSoC6\pdl\drivers\peripheral\scb/cy_scb_ezi2c.h **** *     <td></td>
 297:Generated_Source\PSoC6\pdl\drivers\peripheral\scb/cy_scb_ezi2c.h **** *   </tr>
 298:Generated_Source\PSoC6\pdl\drivers\peripheral\scb/cy_scb_ezi2c.h **** *   <tr>
 299:Generated_Source\PSoC6\pdl\drivers\peripheral\scb/cy_scb_ezi2c.h **** *     <td>Replaced variables that have limited range of values with enumerated
 300:Generated_Source\PSoC6\pdl\drivers\peripheral\scb/cy_scb_ezi2c.h **** *         types.</td>
 301:Generated_Source\PSoC6\pdl\drivers\peripheral\scb/cy_scb_ezi2c.h **** *     <td></td>
 302:Generated_Source\PSoC6\pdl\drivers\peripheral\scb/cy_scb_ezi2c.h **** *   </tr>
 303:Generated_Source\PSoC6\pdl\drivers\peripheral\scb/cy_scb_ezi2c.h **** *   <tr>
 304:Generated_Source\PSoC6\pdl\drivers\peripheral\scb/cy_scb_ezi2c.h **** *     <td>1.0</td>
 305:Generated_Source\PSoC6\pdl\drivers\peripheral\scb/cy_scb_ezi2c.h **** *     <td>Initial version.</td>
 306:Generated_Source\PSoC6\pdl\drivers\peripheral\scb/cy_scb_ezi2c.h **** *     <td></td>
 307:Generated_Source\PSoC6\pdl\drivers\peripheral\scb/cy_scb_ezi2c.h **** *   </tr>
 308:Generated_Source\PSoC6\pdl\drivers\peripheral\scb/cy_scb_ezi2c.h **** * </table>
 309:Generated_Source\PSoC6\pdl\drivers\peripheral\scb/cy_scb_ezi2c.h **** *
 310:Generated_Source\PSoC6\pdl\drivers\peripheral\scb/cy_scb_ezi2c.h **** * \defgroup group_scb_ezi2c_macros Macros
 311:Generated_Source\PSoC6\pdl\drivers\peripheral\scb/cy_scb_ezi2c.h **** * \defgroup group_scb_ezi2c_functions Functions
 312:Generated_Source\PSoC6\pdl\drivers\peripheral\scb/cy_scb_ezi2c.h **** * \{
 313:Generated_Source\PSoC6\pdl\drivers\peripheral\scb/cy_scb_ezi2c.h **** * \defgroup group_scb_ezi2c_general_functions General
 314:Generated_Source\PSoC6\pdl\drivers\peripheral\scb/cy_scb_ezi2c.h **** * \defgroup group_scb_ezi2c_slave_functions Slave
 315:Generated_Source\PSoC6\pdl\drivers\peripheral\scb/cy_scb_ezi2c.h **** * \defgroup group_scb_ezi2c_low_power_functions Low Power Callbacks
 316:Generated_Source\PSoC6\pdl\drivers\peripheral\scb/cy_scb_ezi2c.h **** * \}
 317:Generated_Source\PSoC6\pdl\drivers\peripheral\scb/cy_scb_ezi2c.h **** * \defgroup group_scb_ezi2c_data_structures Data Structures
 318:Generated_Source\PSoC6\pdl\drivers\peripheral\scb/cy_scb_ezi2c.h **** * \defgroup group_scb_ezi2c_enums Enumerated Types
 319:Generated_Source\PSoC6\pdl\drivers\peripheral\scb/cy_scb_ezi2c.h **** */
 320:Generated_Source\PSoC6\pdl\drivers\peripheral\scb/cy_scb_ezi2c.h **** 
 321:Generated_Source\PSoC6\pdl\drivers\peripheral\scb/cy_scb_ezi2c.h **** #if !defined(CY_SCB_EZI2C_H)
 322:Generated_Source\PSoC6\pdl\drivers\peripheral\scb/cy_scb_ezi2c.h **** #define CY_SCB_EZI2C_H
 323:Generated_Source\PSoC6\pdl\drivers\peripheral\scb/cy_scb_ezi2c.h **** 
 324:Generated_Source\PSoC6\pdl\drivers\peripheral\scb/cy_scb_ezi2c.h **** #include "cy_scb_common.h"
 325:Generated_Source\PSoC6\pdl\drivers\peripheral\scb/cy_scb_ezi2c.h **** 
 326:Generated_Source\PSoC6\pdl\drivers\peripheral\scb/cy_scb_ezi2c.h **** #if defined(__cplusplus)
 327:Generated_Source\PSoC6\pdl\drivers\peripheral\scb/cy_scb_ezi2c.h **** extern "C" {
 328:Generated_Source\PSoC6\pdl\drivers\peripheral\scb/cy_scb_ezi2c.h **** #endif
 329:Generated_Source\PSoC6\pdl\drivers\peripheral\scb/cy_scb_ezi2c.h **** 
 330:Generated_Source\PSoC6\pdl\drivers\peripheral\scb/cy_scb_ezi2c.h **** /*******************************************************************************
 331:Generated_Source\PSoC6\pdl\drivers\peripheral\scb/cy_scb_ezi2c.h **** *                            Enumerated Types
 332:Generated_Source\PSoC6\pdl\drivers\peripheral\scb/cy_scb_ezi2c.h **** *******************************************************************************/
 333:Generated_Source\PSoC6\pdl\drivers\peripheral\scb/cy_scb_ezi2c.h **** 
 334:Generated_Source\PSoC6\pdl\drivers\peripheral\scb/cy_scb_ezi2c.h **** /**
 335:Generated_Source\PSoC6\pdl\drivers\peripheral\scb/cy_scb_ezi2c.h **** * \addtogroup group_scb_ezi2c_enums
 336:Generated_Source\PSoC6\pdl\drivers\peripheral\scb/cy_scb_ezi2c.h **** * \{
 337:Generated_Source\PSoC6\pdl\drivers\peripheral\scb/cy_scb_ezi2c.h **** */
 338:Generated_Source\PSoC6\pdl\drivers\peripheral\scb/cy_scb_ezi2c.h **** 
 339:Generated_Source\PSoC6\pdl\drivers\peripheral\scb/cy_scb_ezi2c.h **** /** EZI2C slave status codes */
 340:Generated_Source\PSoC6\pdl\drivers\peripheral\scb/cy_scb_ezi2c.h **** typedef enum
 341:Generated_Source\PSoC6\pdl\drivers\peripheral\scb/cy_scb_ezi2c.h **** {
 342:Generated_Source\PSoC6\pdl\drivers\peripheral\scb/cy_scb_ezi2c.h ****     /** Operation completed successfully */
 343:Generated_Source\PSoC6\pdl\drivers\peripheral\scb/cy_scb_ezi2c.h ****     CY_SCB_EZI2C_SUCCESS = 0U,
 344:Generated_Source\PSoC6\pdl\drivers\peripheral\scb/cy_scb_ezi2c.h **** 
 345:Generated_Source\PSoC6\pdl\drivers\peripheral\scb/cy_scb_ezi2c.h ****     /** One or more of input parameters are invalid */
 346:Generated_Source\PSoC6\pdl\drivers\peripheral\scb/cy_scb_ezi2c.h ****     CY_SCB_EZI2C_BAD_PARAM = (CY_SCB_ID | CY_PDL_STATUS_ERROR | CY_SCB_EZI2C_ID | 1U),
 347:Generated_Source\PSoC6\pdl\drivers\peripheral\scb/cy_scb_ezi2c.h **** } cy_en_scb_ezi2c_status_t;
 348:Generated_Source\PSoC6\pdl\drivers\peripheral\scb/cy_scb_ezi2c.h **** 
 349:Generated_Source\PSoC6\pdl\drivers\peripheral\scb/cy_scb_ezi2c.h **** /** Number of Addresses */
 350:Generated_Source\PSoC6\pdl\drivers\peripheral\scb/cy_scb_ezi2c.h **** typedef enum
ARM GAS  C:\Users\pearlstl\AppData\Local\Temp\ccHsEs7Z.s 			page 39


 351:Generated_Source\PSoC6\pdl\drivers\peripheral\scb/cy_scb_ezi2c.h **** {
 352:Generated_Source\PSoC6\pdl\drivers\peripheral\scb/cy_scb_ezi2c.h ****     CY_SCB_EZI2C_ONE_ADDRESS,   /**< Only one address */
 353:Generated_Source\PSoC6\pdl\drivers\peripheral\scb/cy_scb_ezi2c.h ****     CY_SCB_EZI2C_TWO_ADDRESSES  /**< Two addresses */
 354:Generated_Source\PSoC6\pdl\drivers\peripheral\scb/cy_scb_ezi2c.h **** } cy_en_scb_ezi2c_num_of_addr_t;
 355:Generated_Source\PSoC6\pdl\drivers\peripheral\scb/cy_scb_ezi2c.h **** 
 356:Generated_Source\PSoC6\pdl\drivers\peripheral\scb/cy_scb_ezi2c.h **** /** Size of Sub-Address */
 357:Generated_Source\PSoC6\pdl\drivers\peripheral\scb/cy_scb_ezi2c.h **** typedef enum
 358:Generated_Source\PSoC6\pdl\drivers\peripheral\scb/cy_scb_ezi2c.h **** {
 359:Generated_Source\PSoC6\pdl\drivers\peripheral\scb/cy_scb_ezi2c.h ****     CY_SCB_EZI2C_SUB_ADDR8_BITS,    /**< Sub-address is 8 bits  */
 360:Generated_Source\PSoC6\pdl\drivers\peripheral\scb/cy_scb_ezi2c.h ****     CY_SCB_EZI2C_SUB_ADDR16_BITS    /**< Sub-address is 16 bits */
 361:Generated_Source\PSoC6\pdl\drivers\peripheral\scb/cy_scb_ezi2c.h **** } cy_en_scb_ezi2c_sub_addr_size_t;
 362:Generated_Source\PSoC6\pdl\drivers\peripheral\scb/cy_scb_ezi2c.h **** 
 363:Generated_Source\PSoC6\pdl\drivers\peripheral\scb/cy_scb_ezi2c.h **** /** \cond INTERNAL */
 364:Generated_Source\PSoC6\pdl\drivers\peripheral\scb/cy_scb_ezi2c.h **** /** EZI2C slave FSM states */
 365:Generated_Source\PSoC6\pdl\drivers\peripheral\scb/cy_scb_ezi2c.h **** typedef enum
 366:Generated_Source\PSoC6\pdl\drivers\peripheral\scb/cy_scb_ezi2c.h **** {
 367:Generated_Source\PSoC6\pdl\drivers\peripheral\scb/cy_scb_ezi2c.h ****     CY_SCB_EZI2C_STATE_IDLE,
 368:Generated_Source\PSoC6\pdl\drivers\peripheral\scb/cy_scb_ezi2c.h ****     CY_SCB_EZI2C_STATE_ADDR,
 369:Generated_Source\PSoC6\pdl\drivers\peripheral\scb/cy_scb_ezi2c.h ****     CY_SCB_EZI2C_STATE_RX_OFFSET_MSB,
 370:Generated_Source\PSoC6\pdl\drivers\peripheral\scb/cy_scb_ezi2c.h ****     CY_SCB_EZI2C_STATE_RX_OFFSET_LSB,
 371:Generated_Source\PSoC6\pdl\drivers\peripheral\scb/cy_scb_ezi2c.h ****     CY_SCB_EZI2C_STATE_RX_DATA0,
 372:Generated_Source\PSoC6\pdl\drivers\peripheral\scb/cy_scb_ezi2c.h ****     CY_SCB_EZI2C_STATE_RX_DATA1,
 373:Generated_Source\PSoC6\pdl\drivers\peripheral\scb/cy_scb_ezi2c.h ****     CY_SCB_EZI2C_STATE_TX_DATA
 374:Generated_Source\PSoC6\pdl\drivers\peripheral\scb/cy_scb_ezi2c.h **** } cy_en_scb_ezi2c_state_t;
 375:Generated_Source\PSoC6\pdl\drivers\peripheral\scb/cy_scb_ezi2c.h **** /** \endcond */
 376:Generated_Source\PSoC6\pdl\drivers\peripheral\scb/cy_scb_ezi2c.h **** /** \} group_scb_ezi2c_enums */
 377:Generated_Source\PSoC6\pdl\drivers\peripheral\scb/cy_scb_ezi2c.h **** 
 378:Generated_Source\PSoC6\pdl\drivers\peripheral\scb/cy_scb_ezi2c.h **** 
 379:Generated_Source\PSoC6\pdl\drivers\peripheral\scb/cy_scb_ezi2c.h **** /*******************************************************************************
 380:Generated_Source\PSoC6\pdl\drivers\peripheral\scb/cy_scb_ezi2c.h **** *                            Type Definitions
 381:Generated_Source\PSoC6\pdl\drivers\peripheral\scb/cy_scb_ezi2c.h **** *******************************************************************************/
 382:Generated_Source\PSoC6\pdl\drivers\peripheral\scb/cy_scb_ezi2c.h **** 
 383:Generated_Source\PSoC6\pdl\drivers\peripheral\scb/cy_scb_ezi2c.h **** /**
 384:Generated_Source\PSoC6\pdl\drivers\peripheral\scb/cy_scb_ezi2c.h **** * \addtogroup group_scb_ezi2c_data_structures
 385:Generated_Source\PSoC6\pdl\drivers\peripheral\scb/cy_scb_ezi2c.h **** * \{
 386:Generated_Source\PSoC6\pdl\drivers\peripheral\scb/cy_scb_ezi2c.h **** */
 387:Generated_Source\PSoC6\pdl\drivers\peripheral\scb/cy_scb_ezi2c.h **** 
 388:Generated_Source\PSoC6\pdl\drivers\peripheral\scb/cy_scb_ezi2c.h **** /** EZI2C slave configuration structure */
 389:Generated_Source\PSoC6\pdl\drivers\peripheral\scb/cy_scb_ezi2c.h **** typedef struct cy_stc_scb_ezi2c_config
 390:Generated_Source\PSoC6\pdl\drivers\peripheral\scb/cy_scb_ezi2c.h **** {
 391:Generated_Source\PSoC6\pdl\drivers\peripheral\scb/cy_scb_ezi2c.h ****     /** The number of supported addresses either */
 392:Generated_Source\PSoC6\pdl\drivers\peripheral\scb/cy_scb_ezi2c.h ****     cy_en_scb_ezi2c_num_of_addr_t numberOfAddresses;
 393:Generated_Source\PSoC6\pdl\drivers\peripheral\scb/cy_scb_ezi2c.h **** 
 394:Generated_Source\PSoC6\pdl\drivers\peripheral\scb/cy_scb_ezi2c.h ****     /** The 7-bit right justified primary slave address */
 395:Generated_Source\PSoC6\pdl\drivers\peripheral\scb/cy_scb_ezi2c.h ****     uint8_t slaveAddress1;
 396:Generated_Source\PSoC6\pdl\drivers\peripheral\scb/cy_scb_ezi2c.h **** 
 397:Generated_Source\PSoC6\pdl\drivers\peripheral\scb/cy_scb_ezi2c.h ****     /** The 7-bit right justified secondary slave address */
 398:Generated_Source\PSoC6\pdl\drivers\peripheral\scb/cy_scb_ezi2c.h ****     uint8_t slaveAddress2;
 399:Generated_Source\PSoC6\pdl\drivers\peripheral\scb/cy_scb_ezi2c.h **** 
 400:Generated_Source\PSoC6\pdl\drivers\peripheral\scb/cy_scb_ezi2c.h ****     /** The size of the sub-address, can either be 8 or 16 bits */
 401:Generated_Source\PSoC6\pdl\drivers\peripheral\scb/cy_scb_ezi2c.h ****     cy_en_scb_ezi2c_sub_addr_size_t subAddressSize;
 402:Generated_Source\PSoC6\pdl\drivers\peripheral\scb/cy_scb_ezi2c.h **** 
 403:Generated_Source\PSoC6\pdl\drivers\peripheral\scb/cy_scb_ezi2c.h ****     /**
 404:Generated_Source\PSoC6\pdl\drivers\peripheral\scb/cy_scb_ezi2c.h ****     * When set, the slave will wake the device from Deep Sleep on an address
 405:Generated_Source\PSoC6\pdl\drivers\peripheral\scb/cy_scb_ezi2c.h ****     * match (The device datasheet must be consulted to determine which SCBs
 406:Generated_Source\PSoC6\pdl\drivers\peripheral\scb/cy_scb_ezi2c.h ****     * support this mode)
 407:Generated_Source\PSoC6\pdl\drivers\peripheral\scb/cy_scb_ezi2c.h ****     */
ARM GAS  C:\Users\pearlstl\AppData\Local\Temp\ccHsEs7Z.s 			page 40


 408:Generated_Source\PSoC6\pdl\drivers\peripheral\scb/cy_scb_ezi2c.h ****     bool enableWakeFromSleep;
 409:Generated_Source\PSoC6\pdl\drivers\peripheral\scb/cy_scb_ezi2c.h **** } cy_stc_scb_ezi2c_config_t;
 410:Generated_Source\PSoC6\pdl\drivers\peripheral\scb/cy_scb_ezi2c.h **** 
 411:Generated_Source\PSoC6\pdl\drivers\peripheral\scb/cy_scb_ezi2c.h **** /** EZI2C slave context structure.
 412:Generated_Source\PSoC6\pdl\drivers\peripheral\scb/cy_scb_ezi2c.h **** * All fields for the context structure are internal. Firmware never reads or 
 413:Generated_Source\PSoC6\pdl\drivers\peripheral\scb/cy_scb_ezi2c.h **** * writes these values. Firmware allocates the structure and provides the 
 414:Generated_Source\PSoC6\pdl\drivers\peripheral\scb/cy_scb_ezi2c.h **** * address of the structure to the driver in function calls. Firmware must 
 415:Generated_Source\PSoC6\pdl\drivers\peripheral\scb/cy_scb_ezi2c.h **** * ensure that the defined instance of this structure remains in scope 
 416:Generated_Source\PSoC6\pdl\drivers\peripheral\scb/cy_scb_ezi2c.h **** * while the drive is in use.
 417:Generated_Source\PSoC6\pdl\drivers\peripheral\scb/cy_scb_ezi2c.h **** */
 418:Generated_Source\PSoC6\pdl\drivers\peripheral\scb/cy_scb_ezi2c.h **** typedef struct cy_stc_scb_ezi2c_context
 419:Generated_Source\PSoC6\pdl\drivers\peripheral\scb/cy_scb_ezi2c.h **** {
 420:Generated_Source\PSoC6\pdl\drivers\peripheral\scb/cy_scb_ezi2c.h ****     /** \cond INTERNAL */
 421:Generated_Source\PSoC6\pdl\drivers\peripheral\scb/cy_scb_ezi2c.h ****     volatile cy_en_scb_ezi2c_state_t state;  /**< The driver state */
 422:Generated_Source\PSoC6\pdl\drivers\peripheral\scb/cy_scb_ezi2c.h ****     volatile uint32_t status;                /**< The slave status */
 423:Generated_Source\PSoC6\pdl\drivers\peripheral\scb/cy_scb_ezi2c.h **** 
 424:Generated_Source\PSoC6\pdl\drivers\peripheral\scb/cy_scb_ezi2c.h ****     uint8_t  address1;      /**< The primary slave address (7-bits right justified) */
 425:Generated_Source\PSoC6\pdl\drivers\peripheral\scb/cy_scb_ezi2c.h ****     uint8_t  address2;      /**< The secondary slave address (7-bits right justified) */
 426:Generated_Source\PSoC6\pdl\drivers\peripheral\scb/cy_scb_ezi2c.h ****     cy_en_scb_ezi2c_sub_addr_size_t subAddrSize;   /**< The sub-address size */
 427:Generated_Source\PSoC6\pdl\drivers\peripheral\scb/cy_scb_ezi2c.h **** 
 428:Generated_Source\PSoC6\pdl\drivers\peripheral\scb/cy_scb_ezi2c.h ****     uint32_t idx;       /**< The index within the buffer during operation */
 429:Generated_Source\PSoC6\pdl\drivers\peripheral\scb/cy_scb_ezi2c.h ****     uint32_t baseAddr1; /**< The valid base address for the primary slave address */
 430:Generated_Source\PSoC6\pdl\drivers\peripheral\scb/cy_scb_ezi2c.h ****     uint32_t baseAddr2; /**< The valid base address for the secondary slave address */
 431:Generated_Source\PSoC6\pdl\drivers\peripheral\scb/cy_scb_ezi2c.h **** 
 432:Generated_Source\PSoC6\pdl\drivers\peripheral\scb/cy_scb_ezi2c.h ****     bool     addr1Active; /**< Defines whether the request is intended for the primary slave addres
 433:Generated_Source\PSoC6\pdl\drivers\peripheral\scb/cy_scb_ezi2c.h ****     uint8_t  *curBuf;     /**< The pointer to the current location in the buffer (while it is acces
 434:Generated_Source\PSoC6\pdl\drivers\peripheral\scb/cy_scb_ezi2c.h ****     uint32_t bufSize;     /**< Specifies how many bytes are left in the current buffer */
 435:Generated_Source\PSoC6\pdl\drivers\peripheral\scb/cy_scb_ezi2c.h **** 
 436:Generated_Source\PSoC6\pdl\drivers\peripheral\scb/cy_scb_ezi2c.h ****     uint8_t *buf1;          /**< The pointer to the buffer exposed  on the request intended for the
 437:Generated_Source\PSoC6\pdl\drivers\peripheral\scb/cy_scb_ezi2c.h ****     uint32_t buf1Size;      /**< The buffer size assigned to the primary slave address */
 438:Generated_Source\PSoC6\pdl\drivers\peripheral\scb/cy_scb_ezi2c.h ****     uint32_t buf1rwBondary; /**< The Read/Write boundary within the buffer assigned to the primary 
 439:Generated_Source\PSoC6\pdl\drivers\peripheral\scb/cy_scb_ezi2c.h **** 
 440:Generated_Source\PSoC6\pdl\drivers\peripheral\scb/cy_scb_ezi2c.h ****     uint8_t *buf2;          /**< The pointer to the buffer exposed on the request intended for the 
 441:Generated_Source\PSoC6\pdl\drivers\peripheral\scb/cy_scb_ezi2c.h ****     uint32_t buf2Size;      /**< The buffer size assigned to the secondary slave address */
 442:Generated_Source\PSoC6\pdl\drivers\peripheral\scb/cy_scb_ezi2c.h ****     uint32_t buf2rwBondary; /**< The Read/Write boundary within the buffer assigned for the seconda
 443:Generated_Source\PSoC6\pdl\drivers\peripheral\scb/cy_scb_ezi2c.h ****     /** \endcond */
 444:Generated_Source\PSoC6\pdl\drivers\peripheral\scb/cy_scb_ezi2c.h **** } cy_stc_scb_ezi2c_context_t;
 445:Generated_Source\PSoC6\pdl\drivers\peripheral\scb/cy_scb_ezi2c.h **** /** \} group_scb_ezi2c_data_structures */
 446:Generated_Source\PSoC6\pdl\drivers\peripheral\scb/cy_scb_ezi2c.h **** 
 447:Generated_Source\PSoC6\pdl\drivers\peripheral\scb/cy_scb_ezi2c.h **** 
 448:Generated_Source\PSoC6\pdl\drivers\peripheral\scb/cy_scb_ezi2c.h **** /*******************************************************************************
 449:Generated_Source\PSoC6\pdl\drivers\peripheral\scb/cy_scb_ezi2c.h **** *                           Function Prototypes
 450:Generated_Source\PSoC6\pdl\drivers\peripheral\scb/cy_scb_ezi2c.h **** *******************************************************************************/
 451:Generated_Source\PSoC6\pdl\drivers\peripheral\scb/cy_scb_ezi2c.h **** 
 452:Generated_Source\PSoC6\pdl\drivers\peripheral\scb/cy_scb_ezi2c.h **** /**
 453:Generated_Source\PSoC6\pdl\drivers\peripheral\scb/cy_scb_ezi2c.h **** * \addtogroup group_scb_ezi2c_general_functions
 454:Generated_Source\PSoC6\pdl\drivers\peripheral\scb/cy_scb_ezi2c.h **** * \{
 455:Generated_Source\PSoC6\pdl\drivers\peripheral\scb/cy_scb_ezi2c.h **** */
 456:Generated_Source\PSoC6\pdl\drivers\peripheral\scb/cy_scb_ezi2c.h **** cy_en_scb_ezi2c_status_t Cy_SCB_EZI2C_Init(CySCB_Type *base, cy_stc_scb_ezi2c_config_t const *confi
 457:Generated_Source\PSoC6\pdl\drivers\peripheral\scb/cy_scb_ezi2c.h ****                                            cy_stc_scb_ezi2c_context_t *context);
 458:Generated_Source\PSoC6\pdl\drivers\peripheral\scb/cy_scb_ezi2c.h **** void     Cy_SCB_EZI2C_DeInit(CySCB_Type *base);
 459:Generated_Source\PSoC6\pdl\drivers\peripheral\scb/cy_scb_ezi2c.h **** __STATIC_INLINE void Cy_SCB_EZI2C_Enable(CySCB_Type *base);
 460:Generated_Source\PSoC6\pdl\drivers\peripheral\scb/cy_scb_ezi2c.h **** void     Cy_SCB_EZI2C_Disable(CySCB_Type *base, cy_stc_scb_ezi2c_context_t *context);
 461:Generated_Source\PSoC6\pdl\drivers\peripheral\scb/cy_scb_ezi2c.h **** 
 462:Generated_Source\PSoC6\pdl\drivers\peripheral\scb/cy_scb_ezi2c.h **** void     Cy_SCB_EZI2C_SetAddress1(CySCB_Type *base, uint8_t addr, cy_stc_scb_ezi2c_context_t *conte
 463:Generated_Source\PSoC6\pdl\drivers\peripheral\scb/cy_scb_ezi2c.h **** uint32_t Cy_SCB_EZI2C_GetAddress1(CySCB_Type const *base, cy_stc_scb_ezi2c_context_t const *context
 464:Generated_Source\PSoC6\pdl\drivers\peripheral\scb/cy_scb_ezi2c.h **** 
ARM GAS  C:\Users\pearlstl\AppData\Local\Temp\ccHsEs7Z.s 			page 41


 465:Generated_Source\PSoC6\pdl\drivers\peripheral\scb/cy_scb_ezi2c.h **** void     Cy_SCB_EZI2C_SetAddress2(CySCB_Type *base, uint8_t addr, cy_stc_scb_ezi2c_context_t *conte
 466:Generated_Source\PSoC6\pdl\drivers\peripheral\scb/cy_scb_ezi2c.h **** uint32_t Cy_SCB_EZI2C_GetAddress2(CySCB_Type const *base, cy_stc_scb_ezi2c_context_t const *context
 467:Generated_Source\PSoC6\pdl\drivers\peripheral\scb/cy_scb_ezi2c.h **** /** \} group_scb_ezi2c_general_functions */
 468:Generated_Source\PSoC6\pdl\drivers\peripheral\scb/cy_scb_ezi2c.h **** 
 469:Generated_Source\PSoC6\pdl\drivers\peripheral\scb/cy_scb_ezi2c.h **** /**
 470:Generated_Source\PSoC6\pdl\drivers\peripheral\scb/cy_scb_ezi2c.h **** * \addtogroup group_scb_ezi2c_slave_functions
 471:Generated_Source\PSoC6\pdl\drivers\peripheral\scb/cy_scb_ezi2c.h **** * \{
 472:Generated_Source\PSoC6\pdl\drivers\peripheral\scb/cy_scb_ezi2c.h **** */
 473:Generated_Source\PSoC6\pdl\drivers\peripheral\scb/cy_scb_ezi2c.h **** void Cy_SCB_EZI2C_SetBuffer1(CySCB_Type const *base, uint8_t *buffer, uint32_t size, uint32_t rwBou
 474:Generated_Source\PSoC6\pdl\drivers\peripheral\scb/cy_scb_ezi2c.h ****                              cy_stc_scb_ezi2c_context_t *context);
 475:Generated_Source\PSoC6\pdl\drivers\peripheral\scb/cy_scb_ezi2c.h **** void Cy_SCB_EZI2C_SetBuffer2(CySCB_Type const *base, uint8_t *buffer, uint32_t size, uint32_t rwBou
 476:Generated_Source\PSoC6\pdl\drivers\peripheral\scb/cy_scb_ezi2c.h ****                              cy_stc_scb_ezi2c_context_t *context);
 477:Generated_Source\PSoC6\pdl\drivers\peripheral\scb/cy_scb_ezi2c.h **** 
 478:Generated_Source\PSoC6\pdl\drivers\peripheral\scb/cy_scb_ezi2c.h **** uint32_t Cy_SCB_EZI2C_GetActivity(CySCB_Type const *base, cy_stc_scb_ezi2c_context_t *context);
 479:Generated_Source\PSoC6\pdl\drivers\peripheral\scb/cy_scb_ezi2c.h **** 
 480:Generated_Source\PSoC6\pdl\drivers\peripheral\scb/cy_scb_ezi2c.h **** void Cy_SCB_EZI2C_Interrupt(CySCB_Type *base, cy_stc_scb_ezi2c_context_t *context);
 481:Generated_Source\PSoC6\pdl\drivers\peripheral\scb/cy_scb_ezi2c.h **** /** \} group_scb_ezi2c_slave_functions */
 482:Generated_Source\PSoC6\pdl\drivers\peripheral\scb/cy_scb_ezi2c.h **** 
 483:Generated_Source\PSoC6\pdl\drivers\peripheral\scb/cy_scb_ezi2c.h **** /**
 484:Generated_Source\PSoC6\pdl\drivers\peripheral\scb/cy_scb_ezi2c.h **** * \addtogroup group_scb_ezi2c_low_power_functions
 485:Generated_Source\PSoC6\pdl\drivers\peripheral\scb/cy_scb_ezi2c.h **** * \{
 486:Generated_Source\PSoC6\pdl\drivers\peripheral\scb/cy_scb_ezi2c.h **** */
 487:Generated_Source\PSoC6\pdl\drivers\peripheral\scb/cy_scb_ezi2c.h **** cy_en_syspm_status_t Cy_SCB_EZI2C_DeepSleepCallback(cy_stc_syspm_callback_params_t *callbackParams,
 488:Generated_Source\PSoC6\pdl\drivers\peripheral\scb/cy_scb_ezi2c.h **** cy_en_syspm_status_t Cy_SCB_EZI2C_HibernateCallback(cy_stc_syspm_callback_params_t *callbackParams,
 489:Generated_Source\PSoC6\pdl\drivers\peripheral\scb/cy_scb_ezi2c.h **** /** \} group_scb_ezi2c_low_power_functions */
 490:Generated_Source\PSoC6\pdl\drivers\peripheral\scb/cy_scb_ezi2c.h **** 
 491:Generated_Source\PSoC6\pdl\drivers\peripheral\scb/cy_scb_ezi2c.h **** 
 492:Generated_Source\PSoC6\pdl\drivers\peripheral\scb/cy_scb_ezi2c.h **** /*******************************************************************************
 493:Generated_Source\PSoC6\pdl\drivers\peripheral\scb/cy_scb_ezi2c.h **** *                              API Constants
 494:Generated_Source\PSoC6\pdl\drivers\peripheral\scb/cy_scb_ezi2c.h **** *******************************************************************************/
 495:Generated_Source\PSoC6\pdl\drivers\peripheral\scb/cy_scb_ezi2c.h **** 
 496:Generated_Source\PSoC6\pdl\drivers\peripheral\scb/cy_scb_ezi2c.h **** /**
 497:Generated_Source\PSoC6\pdl\drivers\peripheral\scb/cy_scb_ezi2c.h **** * \addtogroup group_scb_ezi2c_macros
 498:Generated_Source\PSoC6\pdl\drivers\peripheral\scb/cy_scb_ezi2c.h **** * \{
 499:Generated_Source\PSoC6\pdl\drivers\peripheral\scb/cy_scb_ezi2c.h **** */
 500:Generated_Source\PSoC6\pdl\drivers\peripheral\scb/cy_scb_ezi2c.h **** 
 501:Generated_Source\PSoC6\pdl\drivers\peripheral\scb/cy_scb_ezi2c.h **** /**
 502:Generated_Source\PSoC6\pdl\drivers\peripheral\scb/cy_scb_ezi2c.h **** * \defgroup group_scb_ezi2c_macros_get_activity EZI2C Activity Status
 503:Generated_Source\PSoC6\pdl\drivers\peripheral\scb/cy_scb_ezi2c.h **** * Macros to check current EZI2C activity slave status returned by 
 504:Generated_Source\PSoC6\pdl\drivers\peripheral\scb/cy_scb_ezi2c.h **** * \ref Cy_SCB_EZI2C_GetActivity function. Each EZI2C slave status is encoded 
 505:Generated_Source\PSoC6\pdl\drivers\peripheral\scb/cy_scb_ezi2c.h **** * in a separate bit, therefore multiple bits may be set to indicate the 
 506:Generated_Source\PSoC6\pdl\drivers\peripheral\scb/cy_scb_ezi2c.h **** * current status.
 507:Generated_Source\PSoC6\pdl\drivers\peripheral\scb/cy_scb_ezi2c.h **** * \{
 508:Generated_Source\PSoC6\pdl\drivers\peripheral\scb/cy_scb_ezi2c.h **** */
 509:Generated_Source\PSoC6\pdl\drivers\peripheral\scb/cy_scb_ezi2c.h **** 
 510:Generated_Source\PSoC6\pdl\drivers\peripheral\scb/cy_scb_ezi2c.h **** /**
 511:Generated_Source\PSoC6\pdl\drivers\peripheral\scb/cy_scb_ezi2c.h **** * The Read transfer intended for the primary slave address is complete.
 512:Generated_Source\PSoC6\pdl\drivers\peripheral\scb/cy_scb_ezi2c.h **** * The error condition status bit must be checked to ensure that the Read
 513:Generated_Source\PSoC6\pdl\drivers\peripheral\scb/cy_scb_ezi2c.h **** * transfer was completed successfully.
 514:Generated_Source\PSoC6\pdl\drivers\peripheral\scb/cy_scb_ezi2c.h **** */
 515:Generated_Source\PSoC6\pdl\drivers\peripheral\scb/cy_scb_ezi2c.h **** #define CY_SCB_EZI2C_STATUS_READ1       (0x01UL)
 516:Generated_Source\PSoC6\pdl\drivers\peripheral\scb/cy_scb_ezi2c.h **** 
 517:Generated_Source\PSoC6\pdl\drivers\peripheral\scb/cy_scb_ezi2c.h **** /**
 518:Generated_Source\PSoC6\pdl\drivers\peripheral\scb/cy_scb_ezi2c.h **** * The Write transfer intended for the primary slave address is complete.
 519:Generated_Source\PSoC6\pdl\drivers\peripheral\scb/cy_scb_ezi2c.h **** * The buffer content was modified.
 520:Generated_Source\PSoC6\pdl\drivers\peripheral\scb/cy_scb_ezi2c.h **** * The error condition status bit must be checked to ensure that the Write
 521:Generated_Source\PSoC6\pdl\drivers\peripheral\scb/cy_scb_ezi2c.h **** * transfer was completed successfully.
ARM GAS  C:\Users\pearlstl\AppData\Local\Temp\ccHsEs7Z.s 			page 42


 522:Generated_Source\PSoC6\pdl\drivers\peripheral\scb/cy_scb_ezi2c.h **** */
 523:Generated_Source\PSoC6\pdl\drivers\peripheral\scb/cy_scb_ezi2c.h **** #define CY_SCB_EZI2C_STATUS_WRITE1      (0x02UL)
 524:Generated_Source\PSoC6\pdl\drivers\peripheral\scb/cy_scb_ezi2c.h **** 
 525:Generated_Source\PSoC6\pdl\drivers\peripheral\scb/cy_scb_ezi2c.h **** /**
 526:Generated_Source\PSoC6\pdl\drivers\peripheral\scb/cy_scb_ezi2c.h **** * The Read transfer intended for the secondary slave address is complete.
 527:Generated_Source\PSoC6\pdl\drivers\peripheral\scb/cy_scb_ezi2c.h **** * The error condition status bit must be checked to ensure that the Read
 528:Generated_Source\PSoC6\pdl\drivers\peripheral\scb/cy_scb_ezi2c.h **** * transfer was completed successfully.
 529:Generated_Source\PSoC6\pdl\drivers\peripheral\scb/cy_scb_ezi2c.h **** */
 530:Generated_Source\PSoC6\pdl\drivers\peripheral\scb/cy_scb_ezi2c.h **** #define CY_SCB_EZI2C_STATUS_READ2       (0x04UL)
 531:Generated_Source\PSoC6\pdl\drivers\peripheral\scb/cy_scb_ezi2c.h **** 
 532:Generated_Source\PSoC6\pdl\drivers\peripheral\scb/cy_scb_ezi2c.h **** /**
 533:Generated_Source\PSoC6\pdl\drivers\peripheral\scb/cy_scb_ezi2c.h **** * The Write transfer intended for the secondary slave address is complete.
 534:Generated_Source\PSoC6\pdl\drivers\peripheral\scb/cy_scb_ezi2c.h **** * The buffer content was modified.
 535:Generated_Source\PSoC6\pdl\drivers\peripheral\scb/cy_scb_ezi2c.h **** * The error condition status bit must be checked to ensure that the Write
 536:Generated_Source\PSoC6\pdl\drivers\peripheral\scb/cy_scb_ezi2c.h **** * transfer was completed successfully.
 537:Generated_Source\PSoC6\pdl\drivers\peripheral\scb/cy_scb_ezi2c.h **** */
 538:Generated_Source\PSoC6\pdl\drivers\peripheral\scb/cy_scb_ezi2c.h **** #define CY_SCB_EZI2C_STATUS_WRITE2       (0x08UL)
 539:Generated_Source\PSoC6\pdl\drivers\peripheral\scb/cy_scb_ezi2c.h **** 
 540:Generated_Source\PSoC6\pdl\drivers\peripheral\scb/cy_scb_ezi2c.h **** /**
 541:Generated_Source\PSoC6\pdl\drivers\peripheral\scb/cy_scb_ezi2c.h **** * A transfer intended for the primary address or secondary address is in
 542:Generated_Source\PSoC6\pdl\drivers\peripheral\scb/cy_scb_ezi2c.h **** * progress. The status bit is set after an address match and cleared
 543:Generated_Source\PSoC6\pdl\drivers\peripheral\scb/cy_scb_ezi2c.h **** * on a Stop or ReStart condition.
 544:Generated_Source\PSoC6\pdl\drivers\peripheral\scb/cy_scb_ezi2c.h **** */
 545:Generated_Source\PSoC6\pdl\drivers\peripheral\scb/cy_scb_ezi2c.h **** #define CY_SCB_EZI2C_STATUS_BUSY        (0x10UL)
 546:Generated_Source\PSoC6\pdl\drivers\peripheral\scb/cy_scb_ezi2c.h **** 
 547:Generated_Source\PSoC6\pdl\drivers\peripheral\scb/cy_scb_ezi2c.h **** /**
 548:Generated_Source\PSoC6\pdl\drivers\peripheral\scb/cy_scb_ezi2c.h **** * An error occurred during a transfer intended for the primary or secondary
 549:Generated_Source\PSoC6\pdl\drivers\peripheral\scb/cy_scb_ezi2c.h **** * slave address. The sources of the error are: a misplaced Start or Stop
 550:Generated_Source\PSoC6\pdl\drivers\peripheral\scb/cy_scb_ezi2c.h **** * condition or lost arbitration while the slave drives SDA.
 551:Generated_Source\PSoC6\pdl\drivers\peripheral\scb/cy_scb_ezi2c.h **** * When CY_SCB_EZI2C_STATUS_ERR is set, the slave buffer may contain an
 552:Generated_Source\PSoC6\pdl\drivers\peripheral\scb/cy_scb_ezi2c.h **** * invalid byte. Discard the buffer content in this case.
 553:Generated_Source\PSoC6\pdl\drivers\peripheral\scb/cy_scb_ezi2c.h **** */
 554:Generated_Source\PSoC6\pdl\drivers\peripheral\scb/cy_scb_ezi2c.h **** #define CY_SCB_EZI2C_STATUS_ERR         (0x20UL)
 555:Generated_Source\PSoC6\pdl\drivers\peripheral\scb/cy_scb_ezi2c.h **** /** \} group_scb_ezi2c_macros_get_activity */
 556:Generated_Source\PSoC6\pdl\drivers\peripheral\scb/cy_scb_ezi2c.h **** 
 557:Generated_Source\PSoC6\pdl\drivers\peripheral\scb/cy_scb_ezi2c.h **** /**
 558:Generated_Source\PSoC6\pdl\drivers\peripheral\scb/cy_scb_ezi2c.h **** * This value is returned by the slave when the buffer is not configured or
 559:Generated_Source\PSoC6\pdl\drivers\peripheral\scb/cy_scb_ezi2c.h **** * the master requests more bytes than are available in the buffer.
 560:Generated_Source\PSoC6\pdl\drivers\peripheral\scb/cy_scb_ezi2c.h **** */
 561:Generated_Source\PSoC6\pdl\drivers\peripheral\scb/cy_scb_ezi2c.h **** #define CY_SCB_EZI2C_DEFAULT_TX  (0xFFUL)
 562:Generated_Source\PSoC6\pdl\drivers\peripheral\scb/cy_scb_ezi2c.h **** 
 563:Generated_Source\PSoC6\pdl\drivers\peripheral\scb/cy_scb_ezi2c.h **** 
 564:Generated_Source\PSoC6\pdl\drivers\peripheral\scb/cy_scb_ezi2c.h **** /*******************************************************************************
 565:Generated_Source\PSoC6\pdl\drivers\peripheral\scb/cy_scb_ezi2c.h **** *                          Internal Constants
 566:Generated_Source\PSoC6\pdl\drivers\peripheral\scb/cy_scb_ezi2c.h **** *******************************************************************************/
 567:Generated_Source\PSoC6\pdl\drivers\peripheral\scb/cy_scb_ezi2c.h **** 
 568:Generated_Source\PSoC6\pdl\drivers\peripheral\scb/cy_scb_ezi2c.h **** /** \cond INTERNAL */
 569:Generated_Source\PSoC6\pdl\drivers\peripheral\scb/cy_scb_ezi2c.h **** /* Default registers values */
 570:Generated_Source\PSoC6\pdl\drivers\peripheral\scb/cy_scb_ezi2c.h **** #define CY_SCB_EZI2C_I2C_CTRL   (SCB_I2C_CTRL_S_GENERAL_IGNORE_Msk | SCB_I2C_CTRL_SLAVE_MODE_Msk)
 571:Generated_Source\PSoC6\pdl\drivers\peripheral\scb/cy_scb_ezi2c.h **** #define CY_SCB_EZI2C_RX_CTRL    (CY_SCB_I2C_RX_CTRL)
 572:Generated_Source\PSoC6\pdl\drivers\peripheral\scb/cy_scb_ezi2c.h **** #define CY_SCB_EZI2C_TX_CTRL    (CY_SCB_I2C_TX_CTRL)
 573:Generated_Source\PSoC6\pdl\drivers\peripheral\scb/cy_scb_ezi2c.h **** 
 574:Generated_Source\PSoC6\pdl\drivers\peripheral\scb/cy_scb_ezi2c.h **** #define CY_SCB_EZI2C_SLAVE_INTR     (CY_SCB_SLAVE_INTR_I2C_ADDR_MATCH | CY_SCB_SLAVE_INTR_I2C_STOP 
 575:Generated_Source\PSoC6\pdl\drivers\peripheral\scb/cy_scb_ezi2c.h ****                                      CY_SCB_SLAVE_INTR_I2C_BUS_ERROR  | CY_SCB_SLAVE_INTR_I2C_ARB_L
 576:Generated_Source\PSoC6\pdl\drivers\peripheral\scb/cy_scb_ezi2c.h **** /* Error interrupt sources */
 577:Generated_Source\PSoC6\pdl\drivers\peripheral\scb/cy_scb_ezi2c.h **** #define CY_SCB_EZI2C_SLAVE_INTR_ERROR   (CY_SCB_SLAVE_INTR_I2C_BUS_ERROR  | CY_SCB_SLAVE_INTR_I2C_A
 578:Generated_Source\PSoC6\pdl\drivers\peripheral\scb/cy_scb_ezi2c.h **** 
ARM GAS  C:\Users\pearlstl\AppData\Local\Temp\ccHsEs7Z.s 			page 43


 579:Generated_Source\PSoC6\pdl\drivers\peripheral\scb/cy_scb_ezi2c.h **** /* Disables Stop interrupt source */
 580:Generated_Source\PSoC6\pdl\drivers\peripheral\scb/cy_scb_ezi2c.h **** #define CY_SCB_EZI2C_SLAVE_INTR_NO_STOP (CY_SCB_EZI2C_SLAVE_INTR & ((uint32_t) ~CY_SCB_SLAVE_INTR_I
 581:Generated_Source\PSoC6\pdl\drivers\peripheral\scb/cy_scb_ezi2c.h **** 
 582:Generated_Source\PSoC6\pdl\drivers\peripheral\scb/cy_scb_ezi2c.h **** /* Disable Address interrupt source */
 583:Generated_Source\PSoC6\pdl\drivers\peripheral\scb/cy_scb_ezi2c.h **** #define CY_SCB_EZI2C_SLAVE_INTR_NO_ADDR (CY_SCB_EZI2C_SLAVE_INTR & ((uint32_t) ~CY_SCB_SLAVE_INTR_I
 584:Generated_Source\PSoC6\pdl\drivers\peripheral\scb/cy_scb_ezi2c.h **** 
 585:Generated_Source\PSoC6\pdl\drivers\peripheral\scb/cy_scb_ezi2c.h **** /* FIFO size */
 586:Generated_Source\PSoC6\pdl\drivers\peripheral\scb/cy_scb_ezi2c.h **** #define CY_SCB_EZI2C_FIFO_SIZE          CY_SCB_FIFO_SIZE
 587:Generated_Source\PSoC6\pdl\drivers\peripheral\scb/cy_scb_ezi2c.h **** #define CY_SCB_EZI2C_HALF_FIFO_SIZE    (CY_SCB_FIFO_SIZE / 2UL)
 588:Generated_Source\PSoC6\pdl\drivers\peripheral\scb/cy_scb_ezi2c.h **** 
 589:Generated_Source\PSoC6\pdl\drivers\peripheral\scb/cy_scb_ezi2c.h **** #define CY_SCB_EZI2C_ONE_ADDRESS_MASK   (0xFFUL)
 590:Generated_Source\PSoC6\pdl\drivers\peripheral\scb/cy_scb_ezi2c.h **** 
 591:Generated_Source\PSoC6\pdl\drivers\peripheral\scb/cy_scb_ezi2c.h **** #define CY_SCB_EZI2C_IS_NUM_OF_ADDR_VALID(numAddr)  ( (CY_SCB_EZI2C_ONE_ADDRESS   == (numAddr)) || 
 592:Generated_Source\PSoC6\pdl\drivers\peripheral\scb/cy_scb_ezi2c.h ****                                                       (CY_SCB_EZI2C_TWO_ADDRESSES == (numAddr)) )
 593:Generated_Source\PSoC6\pdl\drivers\peripheral\scb/cy_scb_ezi2c.h **** 
 594:Generated_Source\PSoC6\pdl\drivers\peripheral\scb/cy_scb_ezi2c.h **** #define CY_SCB_EZI2C_IS_SUB_ADDR_SIZE_VALID(subAddrSize)    ( (CY_SCB_EZI2C_SUB_ADDR8_BITS  == (sub
 595:Generated_Source\PSoC6\pdl\drivers\peripheral\scb/cy_scb_ezi2c.h ****                                                               (CY_SCB_EZI2C_SUB_ADDR16_BITS == (sub
 596:Generated_Source\PSoC6\pdl\drivers\peripheral\scb/cy_scb_ezi2c.h **** /** \endcond */
 597:Generated_Source\PSoC6\pdl\drivers\peripheral\scb/cy_scb_ezi2c.h **** /** \} group_scb_ezi2c_macros */
 598:Generated_Source\PSoC6\pdl\drivers\peripheral\scb/cy_scb_ezi2c.h **** 
 599:Generated_Source\PSoC6\pdl\drivers\peripheral\scb/cy_scb_ezi2c.h **** 
 600:Generated_Source\PSoC6\pdl\drivers\peripheral\scb/cy_scb_ezi2c.h **** /*******************************************************************************
 601:Generated_Source\PSoC6\pdl\drivers\peripheral\scb/cy_scb_ezi2c.h **** *                  In-line Function Implementation
 602:Generated_Source\PSoC6\pdl\drivers\peripheral\scb/cy_scb_ezi2c.h **** *******************************************************************************/
 603:Generated_Source\PSoC6\pdl\drivers\peripheral\scb/cy_scb_ezi2c.h **** 
 604:Generated_Source\PSoC6\pdl\drivers\peripheral\scb/cy_scb_ezi2c.h **** /**
 605:Generated_Source\PSoC6\pdl\drivers\peripheral\scb/cy_scb_ezi2c.h **** * \addtogroup group_scb_ezi2c_general_functions
 606:Generated_Source\PSoC6\pdl\drivers\peripheral\scb/cy_scb_ezi2c.h **** * \{
 607:Generated_Source\PSoC6\pdl\drivers\peripheral\scb/cy_scb_ezi2c.h **** */
 608:Generated_Source\PSoC6\pdl\drivers\peripheral\scb/cy_scb_ezi2c.h **** /*******************************************************************************
 609:Generated_Source\PSoC6\pdl\drivers\peripheral\scb/cy_scb_ezi2c.h **** * Function Name: Cy_SCB_EZI2C_Enable
 610:Generated_Source\PSoC6\pdl\drivers\peripheral\scb/cy_scb_ezi2c.h **** ****************************************************************************//**
 611:Generated_Source\PSoC6\pdl\drivers\peripheral\scb/cy_scb_ezi2c.h **** *
 612:Generated_Source\PSoC6\pdl\drivers\peripheral\scb/cy_scb_ezi2c.h **** * Enables the SCB block for the EZI2C operation
 613:Generated_Source\PSoC6\pdl\drivers\peripheral\scb/cy_scb_ezi2c.h **** *
 614:Generated_Source\PSoC6\pdl\drivers\peripheral\scb/cy_scb_ezi2c.h **** * \param base
 615:Generated_Source\PSoC6\pdl\drivers\peripheral\scb/cy_scb_ezi2c.h **** * The pointer to the EZI2C SCB instance.
 616:Generated_Source\PSoC6\pdl\drivers\peripheral\scb/cy_scb_ezi2c.h **** *
 617:Generated_Source\PSoC6\pdl\drivers\peripheral\scb/cy_scb_ezi2c.h **** *******************************************************************************/
 618:Generated_Source\PSoC6\pdl\drivers\peripheral\scb/cy_scb_ezi2c.h **** __STATIC_INLINE void Cy_SCB_EZI2C_Enable(CySCB_Type *base)
 619:Generated_Source\PSoC6\pdl\drivers\peripheral\scb/cy_scb_ezi2c.h **** {
 620:Generated_Source\PSoC6\pdl\drivers\peripheral\scb/cy_scb_ezi2c.h ****     SCB_CTRL(base) |= SCB_CTRL_ENABLED_Msk;
 451              		.loc 2 620 0
 452 001e 1A68     		ldr	r2, [r3]
 453 0020 42F00042 		orr	r2, r2, #-2147483648
 454 0024 1A60     		str	r2, [r3]
 455              	.LVL29:
 456              	.L30:
 457              	.LBE168:
 458              	.LBE167:
 384:Generated_Source\PSoC6\pdl\drivers\peripheral\scb/cy_scb_ezi2c.c **** 
 459              		.loc 1 384 0
 460 0026 5DF8044B 		ldr	r4, [sp], #4
 461              		.cfi_remember_state
 462              		.cfi_restore 4
 463              		.cfi_def_cfa_offset 0
 464 002a 7047     		bx	lr
ARM GAS  C:\Users\pearlstl\AppData\Local\Temp\ccHsEs7Z.s 			page 44


 465              	.LVL30:
 466              	.L34:
 467              		.cfi_restore_state
 326:Generated_Source\PSoC6\pdl\drivers\peripheral\scb/cy_scb_ezi2c.c ****             {
 468              		.loc 1 326 0
 469 002c 1868     		ldr	r0, [r3]
 470              	.LVL31:
 471 002e 10F48070 		ands	r0, r0, #256
 472 0032 F8D0     		beq	.L30
 473              	.LVL32:
 474              	.LBB169:
 475              	.LBB170:
 476              		.file 3 "Generated_Source\\PSoC6\\pdl\\drivers\\peripheral\\scb\\cy_scb_common.h"
   1:Generated_Source\PSoC6\pdl\drivers\peripheral\scb/cy_scb_common.h **** /***************************************************************************//**
   2:Generated_Source\PSoC6\pdl\drivers\peripheral\scb/cy_scb_common.h **** * \file cy_scb_common.h
   3:Generated_Source\PSoC6\pdl\drivers\peripheral\scb/cy_scb_common.h **** * \version 2.20
   4:Generated_Source\PSoC6\pdl\drivers\peripheral\scb/cy_scb_common.h **** *
   5:Generated_Source\PSoC6\pdl\drivers\peripheral\scb/cy_scb_common.h **** * Provides common API declarations of the SCB driver.
   6:Generated_Source\PSoC6\pdl\drivers\peripheral\scb/cy_scb_common.h **** *
   7:Generated_Source\PSoC6\pdl\drivers\peripheral\scb/cy_scb_common.h **** ********************************************************************************
   8:Generated_Source\PSoC6\pdl\drivers\peripheral\scb/cy_scb_common.h **** * \copyright
   9:Generated_Source\PSoC6\pdl\drivers\peripheral\scb/cy_scb_common.h **** * Copyright 2016-2018, Cypress Semiconductor Corporation.  All rights reserved.
  10:Generated_Source\PSoC6\pdl\drivers\peripheral\scb/cy_scb_common.h **** * You may use this file only in accordance with the license, terms, conditions,
  11:Generated_Source\PSoC6\pdl\drivers\peripheral\scb/cy_scb_common.h **** * disclaimers, and limitations in the end user license agreement accompanying
  12:Generated_Source\PSoC6\pdl\drivers\peripheral\scb/cy_scb_common.h **** * the software package with which this file was provided.
  13:Generated_Source\PSoC6\pdl\drivers\peripheral\scb/cy_scb_common.h **** *******************************************************************************/
  14:Generated_Source\PSoC6\pdl\drivers\peripheral\scb/cy_scb_common.h **** 
  15:Generated_Source\PSoC6\pdl\drivers\peripheral\scb/cy_scb_common.h **** /**
  16:Generated_Source\PSoC6\pdl\drivers\peripheral\scb/cy_scb_common.h **** * \addtogroup group_scb
  17:Generated_Source\PSoC6\pdl\drivers\peripheral\scb/cy_scb_common.h **** * \{
  18:Generated_Source\PSoC6\pdl\drivers\peripheral\scb/cy_scb_common.h **** * The Serial Communications Block (SCB) supports three serial communication 
  19:Generated_Source\PSoC6\pdl\drivers\peripheral\scb/cy_scb_common.h **** * protocols: Serial Peripheral Interface (SPI), Universal Asynchronous Receiver 
  20:Generated_Source\PSoC6\pdl\drivers\peripheral\scb/cy_scb_common.h **** * Transmitter (UART), and Inter Integrated Circuit (I2C or IIC). Only one of 
  21:Generated_Source\PSoC6\pdl\drivers\peripheral\scb/cy_scb_common.h **** * the protocols is supported by an SCB at any given time.
  22:Generated_Source\PSoC6\pdl\drivers\peripheral\scb/cy_scb_common.h **** *
  23:Generated_Source\PSoC6\pdl\drivers\peripheral\scb/cy_scb_common.h **** * The functions and other declarations used in this driver are in cy_scb_spi.h, 
  24:Generated_Source\PSoC6\pdl\drivers\peripheral\scb/cy_scb_common.h **** * cy_scb_uart.h, cy_scb_ezi2c.h, cy_scb_i2c.h respectively. Include cy_pdl.h 
  25:Generated_Source\PSoC6\pdl\drivers\peripheral\scb/cy_scb_common.h **** * (ModusToolbox only) to get access to all functions and declarations in the PDL.
  26:Generated_Source\PSoC6\pdl\drivers\peripheral\scb/cy_scb_common.h **** 
  27:Generated_Source\PSoC6\pdl\drivers\peripheral\scb/cy_scb_common.h **** * \defgroup group_scb_common Common
  28:Generated_Source\PSoC6\pdl\drivers\peripheral\scb/cy_scb_common.h **** * \defgroup group_scb_ezi2c  EZI2C (SCB)
  29:Generated_Source\PSoC6\pdl\drivers\peripheral\scb/cy_scb_common.h **** * \defgroup group_scb_i2c    I2C (SCB)
  30:Generated_Source\PSoC6\pdl\drivers\peripheral\scb/cy_scb_common.h **** * \defgroup group_scb_spi    SPI (SCB)
  31:Generated_Source\PSoC6\pdl\drivers\peripheral\scb/cy_scb_common.h **** * \defgroup group_scb_uart   UART (SCB)
  32:Generated_Source\PSoC6\pdl\drivers\peripheral\scb/cy_scb_common.h **** * \} */
  33:Generated_Source\PSoC6\pdl\drivers\peripheral\scb/cy_scb_common.h **** 
  34:Generated_Source\PSoC6\pdl\drivers\peripheral\scb/cy_scb_common.h **** /**
  35:Generated_Source\PSoC6\pdl\drivers\peripheral\scb/cy_scb_common.h **** * \addtogroup group_scb_common
  36:Generated_Source\PSoC6\pdl\drivers\peripheral\scb/cy_scb_common.h **** * \{
  37:Generated_Source\PSoC6\pdl\drivers\peripheral\scb/cy_scb_common.h **** *
  38:Generated_Source\PSoC6\pdl\drivers\peripheral\scb/cy_scb_common.h **** * Common API for the Serial Communication Block.
  39:Generated_Source\PSoC6\pdl\drivers\peripheral\scb/cy_scb_common.h **** *
