ARM GAS  C:\Users\pearlstl\AppData\Local\Temp\cc5nRXLs.s 			page 1


   1              		.syntax unified
   2              		.cpu cortex-m4
   3              		.eabi_attribute 27, 1
   4              		.fpu fpv4-sp-d16
   5              		.eabi_attribute 20, 1
   6              		.eabi_attribute 21, 1
   7              		.eabi_attribute 23, 3
   8              		.eabi_attribute 24, 1
   9              		.eabi_attribute 25, 1
  10              		.eabi_attribute 26, 1
  11              		.eabi_attribute 30, 2
  12              		.eabi_attribute 34, 1
  13              		.eabi_attribute 18, 4
  14              		.thumb
  15              		.syntax unified
  16              		.file	"cy_trigmux.c"
  17              		.text
  18              	.Ltext0:
  19              		.cfi_sections	.debug_frame
  20              		.section	.text.Cy_TrigMux_Connect,"ax",%progbits
  21              		.align	2
  22              		.global	Cy_TrigMux_Connect
  23              		.thumb
  24              		.thumb_func
  25              		.type	Cy_TrigMux_Connect, %function
  26              	Cy_TrigMux_Connect:
  27              	.LFB132:
  28              		.file 1 "Generated_Source\\PSoC6\\pdl\\drivers\\peripheral\\trigmux\\cy_trigmux.c"
   1:Generated_Source\PSoC6\pdl\drivers\peripheral\trigmux/cy_trigmux.c **** /***************************************************************************//**
   2:Generated_Source\PSoC6\pdl\drivers\peripheral\trigmux/cy_trigmux.c **** * \file cy_trigmux.c
   3:Generated_Source\PSoC6\pdl\drivers\peripheral\trigmux/cy_trigmux.c **** * \version 1.20
   4:Generated_Source\PSoC6\pdl\drivers\peripheral\trigmux/cy_trigmux.c **** *
   5:Generated_Source\PSoC6\pdl\drivers\peripheral\trigmux/cy_trigmux.c **** * \brief Trigger mux API.
   6:Generated_Source\PSoC6\pdl\drivers\peripheral\trigmux/cy_trigmux.c **** *
   7:Generated_Source\PSoC6\pdl\drivers\peripheral\trigmux/cy_trigmux.c **** ********************************************************************************
   8:Generated_Source\PSoC6\pdl\drivers\peripheral\trigmux/cy_trigmux.c **** * \copyright
   9:Generated_Source\PSoC6\pdl\drivers\peripheral\trigmux/cy_trigmux.c **** * Copyright 2016-2018, Cypress Semiconductor Corporation.  All rights reserved.
  10:Generated_Source\PSoC6\pdl\drivers\peripheral\trigmux/cy_trigmux.c **** * You may use this file only in accordance with the license, terms, conditions,
  11:Generated_Source\PSoC6\pdl\drivers\peripheral\trigmux/cy_trigmux.c **** * disclaimers, and limitations in the end user license agreement accompanying
  12:Generated_Source\PSoC6\pdl\drivers\peripheral\trigmux/cy_trigmux.c **** * the software package with which this file was provided.
  13:Generated_Source\PSoC6\pdl\drivers\peripheral\trigmux/cy_trigmux.c **** *******************************************************************************/
  14:Generated_Source\PSoC6\pdl\drivers\peripheral\trigmux/cy_trigmux.c **** 
  15:Generated_Source\PSoC6\pdl\drivers\peripheral\trigmux/cy_trigmux.c **** #include "cy_trigmux.h"
  16:Generated_Source\PSoC6\pdl\drivers\peripheral\trigmux/cy_trigmux.c **** #include "cy_device.h"
  17:Generated_Source\PSoC6\pdl\drivers\peripheral\trigmux/cy_trigmux.c **** 
  18:Generated_Source\PSoC6\pdl\drivers\peripheral\trigmux/cy_trigmux.c **** 
  19:Generated_Source\PSoC6\pdl\drivers\peripheral\trigmux/cy_trigmux.c **** #define CY_TRIGMUX_IS_TRIGTYPE_VALID(trigType)  (((trigType) == TRIGGER_TYPE_EDGE) || \
  20:Generated_Source\PSoC6\pdl\drivers\peripheral\trigmux/cy_trigmux.c ****                                                  ((trigType) == TRIGGER_TYPE_LEVEL))
  21:Generated_Source\PSoC6\pdl\drivers\peripheral\trigmux/cy_trigmux.c **** 
  22:Generated_Source\PSoC6\pdl\drivers\peripheral\trigmux/cy_trigmux.c **** #define CY_TRIGMUX_V1_IS_CYCLES_VALID(cycles)   (CY_TRIGGER_INFINITE >= (cycles))
  23:Generated_Source\PSoC6\pdl\drivers\peripheral\trigmux/cy_trigmux.c **** #define CY_TRIGMUX_V2_IS_CYCLES_VALID(cycles)   ((CY_TRIGGER_DEACTIVATE == (cycles)) || \
  24:Generated_Source\PSoC6\pdl\drivers\peripheral\trigmux/cy_trigmux.c ****                                                  (CY_TRIGGER_TWO_CYCLES == (cycles)) || \
  25:Generated_Source\PSoC6\pdl\drivers\peripheral\trigmux/cy_trigmux.c ****                                                  (CY_TRIGGER_INFINITE   == (cycles)))
  26:Generated_Source\PSoC6\pdl\drivers\peripheral\trigmux/cy_trigmux.c **** #define CY_TRIGMUX_IS_CYCLES_VALID(cycles)      ((CY_PERI_V1 && CY_TRIGMUX_V1_IS_CYCLES_VALID(cycle
  27:Generated_Source\PSoC6\pdl\drivers\peripheral\trigmux/cy_trigmux.c ****                                                                 CY_TRIGMUX_V2_IS_CYCLES_VALID(cycle
  28:Generated_Source\PSoC6\pdl\drivers\peripheral\trigmux/cy_trigmux.c **** 
  29:Generated_Source\PSoC6\pdl\drivers\peripheral\trigmux/cy_trigmux.c **** #define CY_TRIGMUX_INTRIG_MASK                  (PERI_TR_CMD_GROUP_SEL_Msk | PERI_TR_GR_TR_OUT_CTL_
ARM GAS  C:\Users\pearlstl\AppData\Local\Temp\cc5nRXLs.s 			page 2


  30:Generated_Source\PSoC6\pdl\drivers\peripheral\trigmux/cy_trigmux.c **** #define CY_TRIGMUX_IS_INTRIG_VALID(inTrg)       (0UL == ((inTrg) & (uint32_t)~CY_TRIGMUX_INTRIG_MAS
  31:Generated_Source\PSoC6\pdl\drivers\peripheral\trigmux/cy_trigmux.c **** 
  32:Generated_Source\PSoC6\pdl\drivers\peripheral\trigmux/cy_trigmux.c **** #define CY_TRIGMUX_OUTTRIG_MASK                 (PERI_TR_CMD_OUT_SEL_Msk | PERI_TR_CMD_GROUP_SEL_Ms
  33:Generated_Source\PSoC6\pdl\drivers\peripheral\trigmux/cy_trigmux.c **** #define CY_TRIGMUX_IS_OUTTRIG_VALID(outTrg)     ((0UL == ((outTrg) & (uint32_t)~CY_TRIGMUX_OUTTRIG_
  34:Generated_Source\PSoC6\pdl\drivers\peripheral\trigmux/cy_trigmux.c ****                                                  (0UL != ((outTrg) & PERI_TR_CMD_OUT_SEL_Msk)))
  35:Generated_Source\PSoC6\pdl\drivers\peripheral\trigmux/cy_trigmux.c **** 
  36:Generated_Source\PSoC6\pdl\drivers\peripheral\trigmux/cy_trigmux.c **** #define CY_TRIGMUX_ONETRIG_MASK                 (PERI_V2_TR_CMD_OUT_SEL_Msk | PERI_V2_TR_CMD_GROUP_
  37:Generated_Source\PSoC6\pdl\drivers\peripheral\trigmux/cy_trigmux.c **** #define CY_TRIGMUX_IS_ONETRIG_VALID(oneTrg)     ((0UL == ((oneTrg) & (uint32_t)~CY_TRIGMUX_ONETRIG_
  38:Generated_Source\PSoC6\pdl\drivers\peripheral\trigmux/cy_trigmux.c ****                                                  (0UL != ((oneTrg) & PERI_V2_TR_CMD_OUT_SEL_Msk)) &
  39:Generated_Source\PSoC6\pdl\drivers\peripheral\trigmux/cy_trigmux.c ****                                                  (0UL != ((oneTrg) & (PERI_V2_TR_CMD_GROUP_SEL_Msk 
  40:Generated_Source\PSoC6\pdl\drivers\peripheral\trigmux/cy_trigmux.c **** 
  41:Generated_Source\PSoC6\pdl\drivers\peripheral\trigmux/cy_trigmux.c **** #define CY_TRIGMUX_TRIGLINE_MASK                (PERI_TR_CMD_OUT_SEL_Msk | CY_PERI_TR_CMD_GROUP_SEL
  42:Generated_Source\PSoC6\pdl\drivers\peripheral\trigmux/cy_trigmux.c **** #define CY_TRIGMUX_IS_TRIGLINE_VALID(trgLn)     (0U == ((trgLn) & (uint32_t)~CY_TRIGMUX_TRIGLINE_MA
  43:Generated_Source\PSoC6\pdl\drivers\peripheral\trigmux/cy_trigmux.c **** 
  44:Generated_Source\PSoC6\pdl\drivers\peripheral\trigmux/cy_trigmux.c **** #define CY_TRIGMUX_TR_CTL(outTrig)              (PERI_TR_GR_TR_CTL(_FLD2VAL(CY_PERI_TR_CMD_GROUP_SE
  45:Generated_Source\PSoC6\pdl\drivers\peripheral\trigmux/cy_trigmux.c ****                                                                    _FLD2VAL(CY_PERI_TR_CTL_SEL,    
  46:Generated_Source\PSoC6\pdl\drivers\peripheral\trigmux/cy_trigmux.c **** 
  47:Generated_Source\PSoC6\pdl\drivers\peripheral\trigmux/cy_trigmux.c **** 
  48:Generated_Source\PSoC6\pdl\drivers\peripheral\trigmux/cy_trigmux.c **** /*******************************************************************************
  49:Generated_Source\PSoC6\pdl\drivers\peripheral\trigmux/cy_trigmux.c **** * Function Name: Cy_TrigMux_Connect
  50:Generated_Source\PSoC6\pdl\drivers\peripheral\trigmux/cy_trigmux.c **** ****************************************************************************//**
  51:Generated_Source\PSoC6\pdl\drivers\peripheral\trigmux/cy_trigmux.c **** *
  52:Generated_Source\PSoC6\pdl\drivers\peripheral\trigmux/cy_trigmux.c **** * Connects an input trigger source and output trigger.
  53:Generated_Source\PSoC6\pdl\drivers\peripheral\trigmux/cy_trigmux.c **** *
  54:Generated_Source\PSoC6\pdl\drivers\peripheral\trigmux/cy_trigmux.c **** * \param inTrig
  55:Generated_Source\PSoC6\pdl\drivers\peripheral\trigmux/cy_trigmux.c **** * An input selection for the trigger mux.
  56:Generated_Source\PSoC6\pdl\drivers\peripheral\trigmux/cy_trigmux.c **** * - Bit 30 should be cleared.
  57:Generated_Source\PSoC6\pdl\drivers\peripheral\trigmux/cy_trigmux.c **** * - Bit 12 should be cleared.
  58:Generated_Source\PSoC6\pdl\drivers\peripheral\trigmux/cy_trigmux.c **** * - Bits 11:8 represent the trigger group selection.
  59:Generated_Source\PSoC6\pdl\drivers\peripheral\trigmux/cy_trigmux.c **** * - Bits 7:0 select the input trigger signal for the specified trigger multiplexer.
  60:Generated_Source\PSoC6\pdl\drivers\peripheral\trigmux/cy_trigmux.c **** *
  61:Generated_Source\PSoC6\pdl\drivers\peripheral\trigmux/cy_trigmux.c **** * \param outTrig
  62:Generated_Source\PSoC6\pdl\drivers\peripheral\trigmux/cy_trigmux.c **** * The output of the trigger mux. This refers to the consumer of the trigger mux.
  63:Generated_Source\PSoC6\pdl\drivers\peripheral\trigmux/cy_trigmux.c **** * - Bit 30 should be set.
  64:Generated_Source\PSoC6\pdl\drivers\peripheral\trigmux/cy_trigmux.c **** * - Bit 12 should be cleared.
  65:Generated_Source\PSoC6\pdl\drivers\peripheral\trigmux/cy_trigmux.c **** * - Bits 11:8 represent the trigger group selection.<br>
  66:Generated_Source\PSoC6\pdl\drivers\peripheral\trigmux/cy_trigmux.c **** *  For PERI_ver1:
  67:Generated_Source\PSoC6\pdl\drivers\peripheral\trigmux/cy_trigmux.c **** * - Bits 6:0 select the output trigger number in the trigger group.<br>
  68:Generated_Source\PSoC6\pdl\drivers\peripheral\trigmux/cy_trigmux.c **** *  For PERI_ver2:
  69:Generated_Source\PSoC6\pdl\drivers\peripheral\trigmux/cy_trigmux.c **** * - Bits 7:0 select the output trigger number in the trigger group.
  70:Generated_Source\PSoC6\pdl\drivers\peripheral\trigmux/cy_trigmux.c **** *
  71:Generated_Source\PSoC6\pdl\drivers\peripheral\trigmux/cy_trigmux.c **** * \param invert
  72:Generated_Source\PSoC6\pdl\drivers\peripheral\trigmux/cy_trigmux.c **** * - true: The output trigger is inverted.
  73:Generated_Source\PSoC6\pdl\drivers\peripheral\trigmux/cy_trigmux.c **** * - false: The output trigger is not inverted.
  74:Generated_Source\PSoC6\pdl\drivers\peripheral\trigmux/cy_trigmux.c **** *
  75:Generated_Source\PSoC6\pdl\drivers\peripheral\trigmux/cy_trigmux.c **** * \param trigType The trigger signal type.
  76:Generated_Source\PSoC6\pdl\drivers\peripheral\trigmux/cy_trigmux.c **** * - TRIGGER_TYPE_EDGE: The trigger is synchronized to the consumer blocks clock
  77:Generated_Source\PSoC6\pdl\drivers\peripheral\trigmux/cy_trigmux.c **** *   and a two-cycle pulse is generated on this clock.
  78:Generated_Source\PSoC6\pdl\drivers\peripheral\trigmux/cy_trigmux.c **** * - TRIGGER_TYPE_LEVEL: The trigger is a simple level output.
  79:Generated_Source\PSoC6\pdl\drivers\peripheral\trigmux/cy_trigmux.c **** *
  80:Generated_Source\PSoC6\pdl\drivers\peripheral\trigmux/cy_trigmux.c **** * \return status:
  81:Generated_Source\PSoC6\pdl\drivers\peripheral\trigmux/cy_trigmux.c **** * - CY_TRIGMUX_SUCCESS: The connection is made successfully.
  82:Generated_Source\PSoC6\pdl\drivers\peripheral\trigmux/cy_trigmux.c **** * - CY_TRIGMUX_BAD_PARAM: Some parameter is invalid.
  83:Generated_Source\PSoC6\pdl\drivers\peripheral\trigmux/cy_trigmux.c **** *
  84:Generated_Source\PSoC6\pdl\drivers\peripheral\trigmux/cy_trigmux.c **** * \funcusage
  85:Generated_Source\PSoC6\pdl\drivers\peripheral\trigmux/cy_trigmux.c **** * \snippet trigmux\1.20\snippet\main.c snippet_Cy_TrigMux_Connect
  86:Generated_Source\PSoC6\pdl\drivers\peripheral\trigmux/cy_trigmux.c **** *  
ARM GAS  C:\Users\pearlstl\AppData\Local\Temp\cc5nRXLs.s 			page 3


  87:Generated_Source\PSoC6\pdl\drivers\peripheral\trigmux/cy_trigmux.c **** *******************************************************************************/
  88:Generated_Source\PSoC6\pdl\drivers\peripheral\trigmux/cy_trigmux.c **** cy_en_trigmux_status_t Cy_TrigMux_Connect(uint32_t inTrig, uint32_t outTrig, bool invert, en_trig_t
  89:Generated_Source\PSoC6\pdl\drivers\peripheral\trigmux/cy_trigmux.c **** {
  29              		.loc 1 89 0
  30              		.cfi_startproc
  31              		@ args = 0, pretend = 0, frame = 0
  32              		@ frame_needed = 0, uses_anonymous_args = 0
  33              	.LVL0:
  34 0000 2DE9F041 		push	{r4, r5, r6, r7, r8, lr}
  35              		.cfi_def_cfa_offset 24
  36              		.cfi_offset 4, -24
  37              		.cfi_offset 5, -20
  38              		.cfi_offset 6, -16
  39              		.cfi_offset 7, -12
  40              		.cfi_offset 8, -8
  41              		.cfi_offset 14, -4
  90:Generated_Source\PSoC6\pdl\drivers\peripheral\trigmux/cy_trigmux.c ****     cy_en_trigmux_status_t retVal = CY_TRIGMUX_BAD_PARAM;
  91:Generated_Source\PSoC6\pdl\drivers\peripheral\trigmux/cy_trigmux.c ****     CY_ASSERT_L3(CY_TRIGMUX_IS_TRIGTYPE_VALID(trigType));
  92:Generated_Source\PSoC6\pdl\drivers\peripheral\trigmux/cy_trigmux.c ****     CY_ASSERT_L2(CY_TRIGMUX_IS_INTRIG_VALID(inTrig));
  93:Generated_Source\PSoC6\pdl\drivers\peripheral\trigmux/cy_trigmux.c ****     CY_ASSERT_L2(CY_TRIGMUX_IS_OUTTRIG_VALID(outTrig));
  94:Generated_Source\PSoC6\pdl\drivers\peripheral\trigmux/cy_trigmux.c **** 
  95:Generated_Source\PSoC6\pdl\drivers\peripheral\trigmux/cy_trigmux.c ****     /* inTrig and outTrig should be in the same group */
  96:Generated_Source\PSoC6\pdl\drivers\peripheral\trigmux/cy_trigmux.c ****     if ((inTrig & PERI_TR_CMD_GROUP_SEL_Msk) == (outTrig & PERI_TR_CMD_GROUP_SEL_Msk))
  42              		.loc 1 96 0
  43 0004 80EA0104 		eor	r4, r0, r1
  44 0008 14F47064 		ands	r4, r4, #3840
  45 000c 02D0     		beq	.L8
  90:Generated_Source\PSoC6\pdl\drivers\peripheral\trigmux/cy_trigmux.c ****     cy_en_trigmux_status_t retVal = CY_TRIGMUX_BAD_PARAM;
  46              		.loc 1 90 0
  47 000e 1A48     		ldr	r0, .L9
  48              	.LVL1:
  97:Generated_Source\PSoC6\pdl\drivers\peripheral\trigmux/cy_trigmux.c ****     {
  98:Generated_Source\PSoC6\pdl\drivers\peripheral\trigmux/cy_trigmux.c ****         uint32_t interruptState = Cy_SysLib_EnterCriticalSection();
  99:Generated_Source\PSoC6\pdl\drivers\peripheral\trigmux/cy_trigmux.c **** 
 100:Generated_Source\PSoC6\pdl\drivers\peripheral\trigmux/cy_trigmux.c ****         CY_TRIGMUX_TR_CTL(outTrig) = (CY_TRIGMUX_TR_CTL(outTrig) &
 101:Generated_Source\PSoC6\pdl\drivers\peripheral\trigmux/cy_trigmux.c ****                                       (uint32_t)~(PERI_TR_GR_TR_OUT_CTL_TR_SEL_Msk |
 102:Generated_Source\PSoC6\pdl\drivers\peripheral\trigmux/cy_trigmux.c ****                                                   PERI_TR_GR_TR_OUT_CTL_TR_INV_Msk |
 103:Generated_Source\PSoC6\pdl\drivers\peripheral\trigmux/cy_trigmux.c ****                                                   PERI_TR_GR_TR_OUT_CTL_TR_EDGE_Msk)) |
 104:Generated_Source\PSoC6\pdl\drivers\peripheral\trigmux/cy_trigmux.c ****                                         (_VAL2FLD(PERI_TR_GR_TR_OUT_CTL_TR_SEL, inTrig) |
 105:Generated_Source\PSoC6\pdl\drivers\peripheral\trigmux/cy_trigmux.c ****                                         _BOOL2FLD(PERI_TR_GR_TR_OUT_CTL_TR_INV, invert) |
 106:Generated_Source\PSoC6\pdl\drivers\peripheral\trigmux/cy_trigmux.c ****                                          _VAL2FLD(PERI_TR_GR_TR_OUT_CTL_TR_EDGE, trigType));
 107:Generated_Source\PSoC6\pdl\drivers\peripheral\trigmux/cy_trigmux.c **** 
 108:Generated_Source\PSoC6\pdl\drivers\peripheral\trigmux/cy_trigmux.c ****         Cy_SysLib_ExitCriticalSection(interruptState);
 109:Generated_Source\PSoC6\pdl\drivers\peripheral\trigmux/cy_trigmux.c **** 
 110:Generated_Source\PSoC6\pdl\drivers\peripheral\trigmux/cy_trigmux.c ****         retVal = CY_TRIGMUX_SUCCESS;
 111:Generated_Source\PSoC6\pdl\drivers\peripheral\trigmux/cy_trigmux.c ****     }
 112:Generated_Source\PSoC6\pdl\drivers\peripheral\trigmux/cy_trigmux.c **** 
 113:Generated_Source\PSoC6\pdl\drivers\peripheral\trigmux/cy_trigmux.c ****     return retVal;
 114:Generated_Source\PSoC6\pdl\drivers\peripheral\trigmux/cy_trigmux.c **** }
  49              		.loc 1 114 0
  50 0010 BDE8F081 		pop	{r4, r5, r6, r7, r8, pc}
  51              	.LVL2:
  52              	.L8:
  53 0014 0E46     		mov	r6, r1
  54 0016 1F46     		mov	r7, r3
  55 0018 9046     		mov	r8, r2
  56 001a 0546     		mov	r5, r0
ARM GAS  C:\Users\pearlstl\AppData\Local\Temp\cc5nRXLs.s 			page 4


  57              	.LBB2:
  98:Generated_Source\PSoC6\pdl\drivers\peripheral\trigmux/cy_trigmux.c **** 
  58              		.loc 1 98 0
  59 001c FFF7FEFF 		bl	Cy_SysLib_EnterCriticalSection
  60              	.LVL3:
 100:Generated_Source\PSoC6\pdl\drivers\peripheral\trigmux/cy_trigmux.c ****                                       (uint32_t)~(PERI_TR_GR_TR_OUT_CTL_TR_SEL_Msk |
  61              		.loc 1 100 0
  62 0020 164B     		ldr	r3, .L9+4
  63 0022 1A68     		ldr	r2, [r3]
  64 0024 B2F86EE0 		ldrh	lr, [r2, #110]
  65 0028 B2F86C10 		ldrh	r1, [r2, #108]
  66 002c B2F86A30 		ldrh	r3, [r2, #106]
  67 0030 9268     		ldr	r2, [r2, #8]
  68 0032 0A44     		add	r2, r2, r1
  69 0034 4FEA9E01 		lsr	r1, lr, #2
  70 0038 3340     		ands	r3, r3, r6
  71 003a 0139     		subs	r1, r1, #1
  72 003c 3140     		ands	r1, r1, r6
  73 003e 1B0A     		lsrs	r3, r3, #8
  74 0040 02EB8101 		add	r1, r2, r1, lsl #2
  75 0044 0EFB03F6 		mul	r6, lr, r3
  76              	.LVL4:
 103:Generated_Source\PSoC6\pdl\drivers\peripheral\trigmux/cy_trigmux.c ****                                         (_VAL2FLD(PERI_TR_GR_TR_OUT_CTL_TR_SEL, inTrig) |
  77              		.loc 1 103 0
  78 0048 7B02     		lsls	r3, r7, #9
 100:Generated_Source\PSoC6\pdl\drivers\peripheral\trigmux/cy_trigmux.c ****                                       (uint32_t)~(PERI_TR_GR_TR_OUT_CTL_TR_SEL_Msk |
  79              		.loc 1 100 0
  80 004a 8F59     		ldr	r7, [r1, r6]
 103:Generated_Source\PSoC6\pdl\drivers\peripheral\trigmux/cy_trigmux.c ****                                         (_VAL2FLD(PERI_TR_GR_TR_OUT_CTL_TR_SEL, inTrig) |
  81              		.loc 1 103 0
  82 004c 03F40072 		and	r2, r3, #512
 104:Generated_Source\PSoC6\pdl\drivers\peripheral\trigmux/cy_trigmux.c ****                                         _BOOL2FLD(PERI_TR_GR_TR_OUT_CTL_TR_INV, invert) |
  83              		.loc 1 104 0
  84 0050 EDB2     		uxtb	r5, r5
  85              	.LVL5:
 100:Generated_Source\PSoC6\pdl\drivers\peripheral\trigmux/cy_trigmux.c ****                                       (uint32_t)~(PERI_TR_GR_TR_OUT_CTL_TR_SEL_Msk |
  86              		.loc 1 100 0
  87 0052 27F47F73 		bic	r3, r7, #1020
 103:Generated_Source\PSoC6\pdl\drivers\peripheral\trigmux/cy_trigmux.c ****                                         (_VAL2FLD(PERI_TR_GR_TR_OUT_CTL_TR_SEL, inTrig) |
  88              		.loc 1 103 0
  89 0056 1543     		orrs	r5, r5, r2
 105:Generated_Source\PSoC6\pdl\drivers\peripheral\trigmux/cy_trigmux.c ****                                          _VAL2FLD(PERI_TR_GR_TR_OUT_CTL_TR_EDGE, trigType));
  90              		.loc 1 105 0
  91 0058 B8F1000F 		cmp	r8, #0
 100:Generated_Source\PSoC6\pdl\drivers\peripheral\trigmux/cy_trigmux.c ****                                       (uint32_t)~(PERI_TR_GR_TR_OUT_CTL_TR_SEL_Msk |
  92              		.loc 1 100 0
  93 005c 23F00303 		bic	r3, r3, #3
 105:Generated_Source\PSoC6\pdl\drivers\peripheral\trigmux/cy_trigmux.c ****                                          _VAL2FLD(PERI_TR_GR_TR_OUT_CTL_TR_EDGE, trigType));
  94              		.loc 1 105 0
  95 0060 18BF     		it	ne
  96 0062 4FF48074 		movne	r4, #256
 103:Generated_Source\PSoC6\pdl\drivers\peripheral\trigmux/cy_trigmux.c ****                                         (_VAL2FLD(PERI_TR_GR_TR_OUT_CTL_TR_SEL, inTrig) |
  97              		.loc 1 103 0
  98 0066 2B43     		orrs	r3, r3, r5
  99 0068 1C43     		orrs	r4, r4, r3
 100:Generated_Source\PSoC6\pdl\drivers\peripheral\trigmux/cy_trigmux.c ****                                       (uint32_t)~(PERI_TR_GR_TR_OUT_CTL_TR_SEL_Msk |
 100              		.loc 1 100 0
ARM GAS  C:\Users\pearlstl\AppData\Local\Temp\cc5nRXLs.s 			page 5


 101 006a 8C51     		str	r4, [r1, r6]
 108:Generated_Source\PSoC6\pdl\drivers\peripheral\trigmux/cy_trigmux.c **** 
 102              		.loc 1 108 0
 103 006c FFF7FEFF 		bl	Cy_SysLib_ExitCriticalSection
 104              	.LVL6:
 110:Generated_Source\PSoC6\pdl\drivers\peripheral\trigmux/cy_trigmux.c ****     }
 105              		.loc 1 110 0
 106 0070 0020     		movs	r0, #0
 107 0072 BDE8F081 		pop	{r4, r5, r6, r7, r8, pc}
 108              	.L10:
 109 0076 00BF     		.align	2
 110              	.L9:
 111 0078 0100CE00 		.word	13500417
 112 007c 00000000 		.word	cy_device
 113              	.LBE2:
 114              		.cfi_endproc
 115              	.LFE132:
 116              		.size	Cy_TrigMux_Connect, .-Cy_TrigMux_Connect
 117              		.section	.text.Cy_TrigMux_Select,"ax",%progbits
 118              		.align	2
 119              		.global	Cy_TrigMux_Select
 120              		.thumb
 121              		.thumb_func
 122              		.type	Cy_TrigMux_Select, %function
 123              	Cy_TrigMux_Select:
 124              	.LFB133:
 115:Generated_Source\PSoC6\pdl\drivers\peripheral\trigmux/cy_trigmux.c **** 
 116:Generated_Source\PSoC6\pdl\drivers\peripheral\trigmux/cy_trigmux.c **** 
 117:Generated_Source\PSoC6\pdl\drivers\peripheral\trigmux/cy_trigmux.c **** /*******************************************************************************
 118:Generated_Source\PSoC6\pdl\drivers\peripheral\trigmux/cy_trigmux.c **** * Function Name: Cy_TrigMux_Select
 119:Generated_Source\PSoC6\pdl\drivers\peripheral\trigmux/cy_trigmux.c **** ****************************************************************************//**
 120:Generated_Source\PSoC6\pdl\drivers\peripheral\trigmux/cy_trigmux.c **** *
 121:Generated_Source\PSoC6\pdl\drivers\peripheral\trigmux/cy_trigmux.c **** * Enables and configures the specified 1-to-1 trigger line. For PERI_ver2 only.
 122:Generated_Source\PSoC6\pdl\drivers\peripheral\trigmux/cy_trigmux.c **** *
 123:Generated_Source\PSoC6\pdl\drivers\peripheral\trigmux/cy_trigmux.c **** * \param outTrig
 124:Generated_Source\PSoC6\pdl\drivers\peripheral\trigmux/cy_trigmux.c **** * The 1to1 trigger line.
 125:Generated_Source\PSoC6\pdl\drivers\peripheral\trigmux/cy_trigmux.c **** * - Bit 30 should be set.
 126:Generated_Source\PSoC6\pdl\drivers\peripheral\trigmux/cy_trigmux.c **** * - Bit 12 should be set.
 127:Generated_Source\PSoC6\pdl\drivers\peripheral\trigmux/cy_trigmux.c **** * - Bits 11:8 represent the 1-to-1 trigger group selection.
 128:Generated_Source\PSoC6\pdl\drivers\peripheral\trigmux/cy_trigmux.c **** * - Bits 7:0 select the trigger line number in the trigger group.
 129:Generated_Source\PSoC6\pdl\drivers\peripheral\trigmux/cy_trigmux.c **** *
 130:Generated_Source\PSoC6\pdl\drivers\peripheral\trigmux/cy_trigmux.c **** * \param invert
 131:Generated_Source\PSoC6\pdl\drivers\peripheral\trigmux/cy_trigmux.c **** * - true: The trigger signal is inverted.
 132:Generated_Source\PSoC6\pdl\drivers\peripheral\trigmux/cy_trigmux.c **** * - false: The trigger signal is not inverted.
 133:Generated_Source\PSoC6\pdl\drivers\peripheral\trigmux/cy_trigmux.c **** *
 134:Generated_Source\PSoC6\pdl\drivers\peripheral\trigmux/cy_trigmux.c **** * \param trigType The trigger signal type.
 135:Generated_Source\PSoC6\pdl\drivers\peripheral\trigmux/cy_trigmux.c **** * - TRIGGER_TYPE_EDGE: The trigger is synchronized to the consumer blocks clock
 136:Generated_Source\PSoC6\pdl\drivers\peripheral\trigmux/cy_trigmux.c **** *   and a two-cycle pulse is generated on this clock.
 137:Generated_Source\PSoC6\pdl\drivers\peripheral\trigmux/cy_trigmux.c **** * - TRIGGER_TYPE_LEVEL: The trigger is a simple level output.
 138:Generated_Source\PSoC6\pdl\drivers\peripheral\trigmux/cy_trigmux.c **** *
 139:Generated_Source\PSoC6\pdl\drivers\peripheral\trigmux/cy_trigmux.c **** * \return status:
 140:Generated_Source\PSoC6\pdl\drivers\peripheral\trigmux/cy_trigmux.c **** * - CY_TRIGMUX_SUCCESS: The selection is made successfully.
 141:Generated_Source\PSoC6\pdl\drivers\peripheral\trigmux/cy_trigmux.c **** * - CY_TRIGMUX_BAD_PARAM: Some parameter is invalid.
 142:Generated_Source\PSoC6\pdl\drivers\peripheral\trigmux/cy_trigmux.c **** *
 143:Generated_Source\PSoC6\pdl\drivers\peripheral\trigmux/cy_trigmux.c **** * \funcusage
 144:Generated_Source\PSoC6\pdl\drivers\peripheral\trigmux/cy_trigmux.c **** * \snippet trigmux\1.20\snippet\main.c snippet_Cy_TrigMux_Select
 145:Generated_Source\PSoC6\pdl\drivers\peripheral\trigmux/cy_trigmux.c **** *  
ARM GAS  C:\Users\pearlstl\AppData\Local\Temp\cc5nRXLs.s 			page 6


 146:Generated_Source\PSoC6\pdl\drivers\peripheral\trigmux/cy_trigmux.c **** *******************************************************************************/
 147:Generated_Source\PSoC6\pdl\drivers\peripheral\trigmux/cy_trigmux.c **** cy_en_trigmux_status_t Cy_TrigMux_Select(uint32_t outTrig, bool invert, en_trig_type_t trigType)
 148:Generated_Source\PSoC6\pdl\drivers\peripheral\trigmux/cy_trigmux.c **** {
 125              		.loc 1 148 0
 126              		.cfi_startproc
 127              		@ args = 0, pretend = 0, frame = 0
 128              		@ frame_needed = 0, uses_anonymous_args = 0
 129              	.LVL7:
 130 0000 2DE9F041 		push	{r4, r5, r6, r7, r8, lr}
 131              		.cfi_def_cfa_offset 24
 132              		.cfi_offset 4, -24
 133              		.cfi_offset 5, -20
 134              		.cfi_offset 6, -16
 135              		.cfi_offset 7, -12
 136              		.cfi_offset 8, -8
 137              		.cfi_offset 14, -4
 149:Generated_Source\PSoC6\pdl\drivers\peripheral\trigmux/cy_trigmux.c ****     cy_en_trigmux_status_t retVal = CY_TRIGMUX_BAD_PARAM;
 150:Generated_Source\PSoC6\pdl\drivers\peripheral\trigmux/cy_trigmux.c ****     
 151:Generated_Source\PSoC6\pdl\drivers\peripheral\trigmux/cy_trigmux.c ****     CY_ASSERT_L3(CY_TRIGMUX_IS_TRIGTYPE_VALID(trigType));
 152:Generated_Source\PSoC6\pdl\drivers\peripheral\trigmux/cy_trigmux.c ****     CY_ASSERT_L2(CY_TRIGMUX_IS_ONETRIG_VALID(outTrig));
 153:Generated_Source\PSoC6\pdl\drivers\peripheral\trigmux/cy_trigmux.c **** 
 154:Generated_Source\PSoC6\pdl\drivers\peripheral\trigmux/cy_trigmux.c ****     if (!CY_PERI_V1)
 138              		.loc 1 154 0
 139 0004 1A4D     		ldr	r5, .L18
 140 0006 2B68     		ldr	r3, [r5]
 141 0008 93F82F30 		ldrb	r3, [r3, #47]	@ zero_extendqisi2
 142 000c 012B     		cmp	r3, #1
 143 000e 02D1     		bne	.L17
 149:Generated_Source\PSoC6\pdl\drivers\peripheral\trigmux/cy_trigmux.c ****     cy_en_trigmux_status_t retVal = CY_TRIGMUX_BAD_PARAM;
 144              		.loc 1 149 0
 145 0010 1848     		ldr	r0, .L18+4
 146              	.LVL8:
 155:Generated_Source\PSoC6\pdl\drivers\peripheral\trigmux/cy_trigmux.c ****     {
 156:Generated_Source\PSoC6\pdl\drivers\peripheral\trigmux/cy_trigmux.c ****         uint32_t interruptState;
 157:Generated_Source\PSoC6\pdl\drivers\peripheral\trigmux/cy_trigmux.c **** 
 158:Generated_Source\PSoC6\pdl\drivers\peripheral\trigmux/cy_trigmux.c ****         interruptState = Cy_SysLib_EnterCriticalSection();
 159:Generated_Source\PSoC6\pdl\drivers\peripheral\trigmux/cy_trigmux.c **** 
 160:Generated_Source\PSoC6\pdl\drivers\peripheral\trigmux/cy_trigmux.c ****         CY_TRIGMUX_TR_CTL(outTrig) = (CY_TRIGMUX_TR_CTL(outTrig) &
 161:Generated_Source\PSoC6\pdl\drivers\peripheral\trigmux/cy_trigmux.c ****                           (uint32_t)~(PERI_TR_1TO1_GR_V2_TR_CTL_TR_INV_Msk |
 162:Generated_Source\PSoC6\pdl\drivers\peripheral\trigmux/cy_trigmux.c ****                                       PERI_TR_1TO1_GR_V2_TR_CTL_TR_EDGE_Msk)) |
 163:Generated_Source\PSoC6\pdl\drivers\peripheral\trigmux/cy_trigmux.c ****                                      (PERI_TR_1TO1_GR_V2_TR_CTL_TR_SEL_Msk      |
 164:Generated_Source\PSoC6\pdl\drivers\peripheral\trigmux/cy_trigmux.c ****                             _BOOL2FLD(PERI_TR_1TO1_GR_V2_TR_CTL_TR_INV, invert) |
 165:Generated_Source\PSoC6\pdl\drivers\peripheral\trigmux/cy_trigmux.c ****                              _VAL2FLD(PERI_TR_1TO1_GR_V2_TR_CTL_TR_EDGE, trigType));
 166:Generated_Source\PSoC6\pdl\drivers\peripheral\trigmux/cy_trigmux.c **** 
 167:Generated_Source\PSoC6\pdl\drivers\peripheral\trigmux/cy_trigmux.c ****         Cy_SysLib_ExitCriticalSection(interruptState);
 168:Generated_Source\PSoC6\pdl\drivers\peripheral\trigmux/cy_trigmux.c **** 
 169:Generated_Source\PSoC6\pdl\drivers\peripheral\trigmux/cy_trigmux.c ****         retVal = CY_TRIGMUX_SUCCESS;
 170:Generated_Source\PSoC6\pdl\drivers\peripheral\trigmux/cy_trigmux.c ****     }
 171:Generated_Source\PSoC6\pdl\drivers\peripheral\trigmux/cy_trigmux.c **** 
 172:Generated_Source\PSoC6\pdl\drivers\peripheral\trigmux/cy_trigmux.c ****     return retVal;
 173:Generated_Source\PSoC6\pdl\drivers\peripheral\trigmux/cy_trigmux.c **** }
 147              		.loc 1 173 0
 148 0012 BDE8F081 		pop	{r4, r5, r6, r7, r8, pc}
 149              	.LVL9:
 150              	.L17:
 151 0016 0E46     		mov	r6, r1
 152 0018 8046     		mov	r8, r0
ARM GAS  C:\Users\pearlstl\AppData\Local\Temp\cc5nRXLs.s 			page 7


 153 001a 1446     		mov	r4, r2
 154              	.LBB3:
 158:Generated_Source\PSoC6\pdl\drivers\peripheral\trigmux/cy_trigmux.c **** 
 155              		.loc 1 158 0
 156 001c FFF7FEFF 		bl	Cy_SysLib_EnterCriticalSection
 157              	.LVL10:
 160:Generated_Source\PSoC6\pdl\drivers\peripheral\trigmux/cy_trigmux.c ****                           (uint32_t)~(PERI_TR_1TO1_GR_V2_TR_CTL_TR_INV_Msk |
 158              		.loc 1 160 0
 159 0020 2968     		ldr	r1, [r5]
 160 0022 B1F86E70 		ldrh	r7, [r1, #110]
 161 0026 B1F86A30 		ldrh	r3, [r1, #106]
 162 002a B1F86CE0 		ldrh	lr, [r1, #108]
 163 002e 8968     		ldr	r1, [r1, #8]
 164 0030 BD08     		lsrs	r5, r7, #2
 165 0032 013D     		subs	r5, r5, #1
 166 0034 03EA0803 		and	r3, r3, r8
 167 0038 7144     		add	r1, r1, lr
 168 003a 05EA0802 		and	r2, r5, r8
 169 003e 1B0A     		lsrs	r3, r3, #8
 170 0040 01EB8202 		add	r2, r1, r2, lsl #2
 171 0044 07FB03F3 		mul	r3, r7, r3
 162:Generated_Source\PSoC6\pdl\drivers\peripheral\trigmux/cy_trigmux.c ****                                      (PERI_TR_1TO1_GR_V2_TR_CTL_TR_SEL_Msk      |
 172              		.loc 1 162 0
 173 0048 6402     		lsls	r4, r4, #9
 160:Generated_Source\PSoC6\pdl\drivers\peripheral\trigmux/cy_trigmux.c ****                           (uint32_t)~(PERI_TR_1TO1_GR_V2_TR_CTL_TR_INV_Msk |
 174              		.loc 1 160 0
 175 004a D558     		ldr	r5, [r2, r3]
 163:Generated_Source\PSoC6\pdl\drivers\peripheral\trigmux/cy_trigmux.c ****                             _BOOL2FLD(PERI_TR_1TO1_GR_V2_TR_CTL_TR_INV, invert) |
 176              		.loc 1 163 0
 177 004c 002E     		cmp	r6, #0
 160:Generated_Source\PSoC6\pdl\drivers\peripheral\trigmux/cy_trigmux.c ****                           (uint32_t)~(PERI_TR_1TO1_GR_V2_TR_CTL_TR_INV_Msk |
 178              		.loc 1 160 0
 179 004e 25F44075 		bic	r5, r5, #768
 162:Generated_Source\PSoC6\pdl\drivers\peripheral\trigmux/cy_trigmux.c ****                                      (PERI_TR_1TO1_GR_V2_TR_CTL_TR_SEL_Msk      |
 180              		.loc 1 162 0
 181 0052 04F40074 		and	r4, r4, #512
 163:Generated_Source\PSoC6\pdl\drivers\peripheral\trigmux/cy_trigmux.c ****                             _BOOL2FLD(PERI_TR_1TO1_GR_V2_TR_CTL_TR_INV, invert) |
 182              		.loc 1 163 0
 183 0056 40F20111 		movw	r1, #257
 162:Generated_Source\PSoC6\pdl\drivers\peripheral\trigmux/cy_trigmux.c ****                                      (PERI_TR_1TO1_GR_V2_TR_CTL_TR_SEL_Msk      |
 184              		.loc 1 162 0
 185 005a 44EA0504 		orr	r4, r4, r5
 163:Generated_Source\PSoC6\pdl\drivers\peripheral\trigmux/cy_trigmux.c ****                             _BOOL2FLD(PERI_TR_1TO1_GR_V2_TR_CTL_TR_INV, invert) |
 186              		.loc 1 163 0
 187 005e 08BF     		it	eq
 188 0060 0121     		moveq	r1, #1
 162:Generated_Source\PSoC6\pdl\drivers\peripheral\trigmux/cy_trigmux.c ****                                      (PERI_TR_1TO1_GR_V2_TR_CTL_TR_SEL_Msk      |
 189              		.loc 1 162 0
 190 0062 0C43     		orrs	r4, r4, r1
 160:Generated_Source\PSoC6\pdl\drivers\peripheral\trigmux/cy_trigmux.c ****                           (uint32_t)~(PERI_TR_1TO1_GR_V2_TR_CTL_TR_INV_Msk |
 191              		.loc 1 160 0
 192 0064 D450     		str	r4, [r2, r3]
 167:Generated_Source\PSoC6\pdl\drivers\peripheral\trigmux/cy_trigmux.c **** 
 193              		.loc 1 167 0
 194 0066 FFF7FEFF 		bl	Cy_SysLib_ExitCriticalSection
 195              	.LVL11:
 169:Generated_Source\PSoC6\pdl\drivers\peripheral\trigmux/cy_trigmux.c ****     }
ARM GAS  C:\Users\pearlstl\AppData\Local\Temp\cc5nRXLs.s 			page 8


 196              		.loc 1 169 0
 197 006a 0020     		movs	r0, #0
 198 006c BDE8F081 		pop	{r4, r5, r6, r7, r8, pc}
 199              	.LVL12:
 200              	.L19:
 201              		.align	2
 202              	.L18:
 203 0070 00000000 		.word	cy_device
 204 0074 0100CE00 		.word	13500417
 205              	.LBE3:
 206              		.cfi_endproc
 207              	.LFE133:
 208              		.size	Cy_TrigMux_Select, .-Cy_TrigMux_Select
 209              		.section	.text.Cy_TrigMux_Deselect,"ax",%progbits
 210              		.align	2
 211              		.global	Cy_TrigMux_Deselect
 212              		.thumb
 213              		.thumb_func
 214              		.type	Cy_TrigMux_Deselect, %function
 215              	Cy_TrigMux_Deselect:
 216              	.LFB134:
 174:Generated_Source\PSoC6\pdl\drivers\peripheral\trigmux/cy_trigmux.c **** 
 175:Generated_Source\PSoC6\pdl\drivers\peripheral\trigmux/cy_trigmux.c **** 
 176:Generated_Source\PSoC6\pdl\drivers\peripheral\trigmux/cy_trigmux.c **** /*******************************************************************************
 177:Generated_Source\PSoC6\pdl\drivers\peripheral\trigmux/cy_trigmux.c **** * Function Name: Cy_TrigMux_Deselect
 178:Generated_Source\PSoC6\pdl\drivers\peripheral\trigmux/cy_trigmux.c **** ****************************************************************************//**
 179:Generated_Source\PSoC6\pdl\drivers\peripheral\trigmux/cy_trigmux.c **** *
 180:Generated_Source\PSoC6\pdl\drivers\peripheral\trigmux/cy_trigmux.c **** * Disables the specified 1-to-1 trigger line. For PERI_ver2 only.
 181:Generated_Source\PSoC6\pdl\drivers\peripheral\trigmux/cy_trigmux.c **** *
 182:Generated_Source\PSoC6\pdl\drivers\peripheral\trigmux/cy_trigmux.c **** * \param outTrig
 183:Generated_Source\PSoC6\pdl\drivers\peripheral\trigmux/cy_trigmux.c **** * The 1to1 trigger line.
 184:Generated_Source\PSoC6\pdl\drivers\peripheral\trigmux/cy_trigmux.c **** * - Bit 30 should be set.
 185:Generated_Source\PSoC6\pdl\drivers\peripheral\trigmux/cy_trigmux.c **** * - Bit 12 should be set.
 186:Generated_Source\PSoC6\pdl\drivers\peripheral\trigmux/cy_trigmux.c **** * - Bits 11:8 represent the 1-to-1 trigger group selection.
 187:Generated_Source\PSoC6\pdl\drivers\peripheral\trigmux/cy_trigmux.c **** * - Bits 7:0 select the trigger line number in the trigger group.
 188:Generated_Source\PSoC6\pdl\drivers\peripheral\trigmux/cy_trigmux.c **** *
 189:Generated_Source\PSoC6\pdl\drivers\peripheral\trigmux/cy_trigmux.c **** * \return status:
 190:Generated_Source\PSoC6\pdl\drivers\peripheral\trigmux/cy_trigmux.c **** * - CY_TRIGMUX_SUCCESS: The deselection is made successfully.
 191:Generated_Source\PSoC6\pdl\drivers\peripheral\trigmux/cy_trigmux.c **** * - CY_TRIGMUX_BAD_PARAM: Some parameter is invalid.
 192:Generated_Source\PSoC6\pdl\drivers\peripheral\trigmux/cy_trigmux.c **** *
 193:Generated_Source\PSoC6\pdl\drivers\peripheral\trigmux/cy_trigmux.c **** * \funcusage
 194:Generated_Source\PSoC6\pdl\drivers\peripheral\trigmux/cy_trigmux.c **** * \snippet trigmux\1.20\snippet\main.c snippet_Cy_TrigMux_Deselect
 195:Generated_Source\PSoC6\pdl\drivers\peripheral\trigmux/cy_trigmux.c **** *  
 196:Generated_Source\PSoC6\pdl\drivers\peripheral\trigmux/cy_trigmux.c **** *******************************************************************************/
 197:Generated_Source\PSoC6\pdl\drivers\peripheral\trigmux/cy_trigmux.c **** cy_en_trigmux_status_t Cy_TrigMux_Deselect(uint32_t outTrig)
 198:Generated_Source\PSoC6\pdl\drivers\peripheral\trigmux/cy_trigmux.c **** {
 217              		.loc 1 198 0
 218              		.cfi_startproc
 219              		@ args = 0, pretend = 0, frame = 0
 220              		@ frame_needed = 0, uses_anonymous_args = 0
 221              	.LVL13:
 222 0000 70B5     		push	{r4, r5, r6, lr}
 223              		.cfi_def_cfa_offset 16
 224              		.cfi_offset 4, -16
 225              		.cfi_offset 5, -12
 226              		.cfi_offset 6, -8
 227              		.cfi_offset 14, -4
ARM GAS  C:\Users\pearlstl\AppData\Local\Temp\cc5nRXLs.s 			page 9


 199:Generated_Source\PSoC6\pdl\drivers\peripheral\trigmux/cy_trigmux.c ****     cy_en_trigmux_status_t retVal = CY_TRIGMUX_BAD_PARAM;
 200:Generated_Source\PSoC6\pdl\drivers\peripheral\trigmux/cy_trigmux.c **** 
 201:Generated_Source\PSoC6\pdl\drivers\peripheral\trigmux/cy_trigmux.c ****     CY_ASSERT_L2(CY_TRIGMUX_IS_ONETRIG_VALID(outTrig));
 202:Generated_Source\PSoC6\pdl\drivers\peripheral\trigmux/cy_trigmux.c **** 
 203:Generated_Source\PSoC6\pdl\drivers\peripheral\trigmux/cy_trigmux.c ****     if (!CY_PERI_V1)
 228              		.loc 1 203 0
 229 0002 134D     		ldr	r5, .L25
 230 0004 2B68     		ldr	r3, [r5]
 231 0006 93F82F30 		ldrb	r3, [r3, #47]	@ zero_extendqisi2
 232 000a 012B     		cmp	r3, #1
 233 000c 01D1     		bne	.L24
 199:Generated_Source\PSoC6\pdl\drivers\peripheral\trigmux/cy_trigmux.c ****     cy_en_trigmux_status_t retVal = CY_TRIGMUX_BAD_PARAM;
 234              		.loc 1 199 0
 235 000e 1148     		ldr	r0, .L25+4
 236              	.LVL14:
 204:Generated_Source\PSoC6\pdl\drivers\peripheral\trigmux/cy_trigmux.c ****     {
 205:Generated_Source\PSoC6\pdl\drivers\peripheral\trigmux/cy_trigmux.c ****         uint32_t interruptState;
 206:Generated_Source\PSoC6\pdl\drivers\peripheral\trigmux/cy_trigmux.c **** 
 207:Generated_Source\PSoC6\pdl\drivers\peripheral\trigmux/cy_trigmux.c ****         interruptState = Cy_SysLib_EnterCriticalSection();
 208:Generated_Source\PSoC6\pdl\drivers\peripheral\trigmux/cy_trigmux.c **** 
 209:Generated_Source\PSoC6\pdl\drivers\peripheral\trigmux/cy_trigmux.c ****         CY_TRIGMUX_TR_CTL(outTrig) &= (uint32_t)~(PERI_TR_1TO1_GR_V2_TR_CTL_TR_SEL_Msk |
 210:Generated_Source\PSoC6\pdl\drivers\peripheral\trigmux/cy_trigmux.c ****                                                   PERI_TR_1TO1_GR_V2_TR_CTL_TR_INV_Msk |
 211:Generated_Source\PSoC6\pdl\drivers\peripheral\trigmux/cy_trigmux.c ****                                                   PERI_TR_1TO1_GR_V2_TR_CTL_TR_EDGE_Msk);
 212:Generated_Source\PSoC6\pdl\drivers\peripheral\trigmux/cy_trigmux.c **** 
 213:Generated_Source\PSoC6\pdl\drivers\peripheral\trigmux/cy_trigmux.c ****         Cy_SysLib_ExitCriticalSection(interruptState);
 214:Generated_Source\PSoC6\pdl\drivers\peripheral\trigmux/cy_trigmux.c **** 
 215:Generated_Source\PSoC6\pdl\drivers\peripheral\trigmux/cy_trigmux.c ****         retVal = CY_TRIGMUX_SUCCESS;
 216:Generated_Source\PSoC6\pdl\drivers\peripheral\trigmux/cy_trigmux.c ****     }
 217:Generated_Source\PSoC6\pdl\drivers\peripheral\trigmux/cy_trigmux.c **** 
 218:Generated_Source\PSoC6\pdl\drivers\peripheral\trigmux/cy_trigmux.c ****     return retVal;
 219:Generated_Source\PSoC6\pdl\drivers\peripheral\trigmux/cy_trigmux.c **** }
 237              		.loc 1 219 0
 238 0010 70BD     		pop	{r4, r5, r6, pc}
 239              	.LVL15:
 240              	.L24:
 241 0012 0446     		mov	r4, r0
 242              	.LBB4:
 207:Generated_Source\PSoC6\pdl\drivers\peripheral\trigmux/cy_trigmux.c **** 
 243              		.loc 1 207 0
 244 0014 FFF7FEFF 		bl	Cy_SysLib_EnterCriticalSection
 245              	.LVL16:
 209:Generated_Source\PSoC6\pdl\drivers\peripheral\trigmux/cy_trigmux.c ****                                                   PERI_TR_1TO1_GR_V2_TR_CTL_TR_INV_Msk |
 246              		.loc 1 209 0
 247 0018 2D68     		ldr	r5, [r5]
 248 001a B5F86E20 		ldrh	r2, [r5, #110]
 249 001e B5F86A10 		ldrh	r1, [r5, #106]
 250 0022 B5F86C60 		ldrh	r6, [r5, #108]
 251 0026 AB68     		ldr	r3, [r5, #8]
 252 0028 9508     		lsrs	r5, r2, #2
 253 002a 013D     		subs	r5, r5, #1
 254 002c 2140     		ands	r1, r1, r4
 255 002e 3344     		add	r3, r3, r6
 256 0030 090A     		lsrs	r1, r1, #8
 257 0032 2C40     		ands	r4, r4, r5
 258              	.LVL17:
 259 0034 03EB8404 		add	r4, r3, r4, lsl #2
 260 0038 02FB01F3 		mul	r3, r2, r1
ARM GAS  C:\Users\pearlstl\AppData\Local\Temp\cc5nRXLs.s 			page 10


 261 003c E258     		ldr	r2, [r4, r3]
 262 003e 22F44072 		bic	r2, r2, #768
 263 0042 22F00102 		bic	r2, r2, #1
 264 0046 E250     		str	r2, [r4, r3]
 213:Generated_Source\PSoC6\pdl\drivers\peripheral\trigmux/cy_trigmux.c **** 
 265              		.loc 1 213 0
 266 0048 FFF7FEFF 		bl	Cy_SysLib_ExitCriticalSection
 267              	.LVL18:
 215:Generated_Source\PSoC6\pdl\drivers\peripheral\trigmux/cy_trigmux.c ****     }
 268              		.loc 1 215 0
 269 004c 0020     		movs	r0, #0
 270 004e 70BD     		pop	{r4, r5, r6, pc}
 271              	.L26:
 272              		.align	2
 273              	.L25:
 274 0050 00000000 		.word	cy_device
 275 0054 0100CE00 		.word	13500417
 276              	.LBE4:
 277              		.cfi_endproc
 278              	.LFE134:
 279              		.size	Cy_TrigMux_Deselect, .-Cy_TrigMux_Deselect
 280              		.section	.text.Cy_TrigMux_SetDebugFreeze,"ax",%progbits
 281              		.align	2
 282              		.global	Cy_TrigMux_SetDebugFreeze
 283              		.thumb
 284              		.thumb_func
 285              		.type	Cy_TrigMux_SetDebugFreeze, %function
 286              	Cy_TrigMux_SetDebugFreeze:
 287              	.LFB135:
 220:Generated_Source\PSoC6\pdl\drivers\peripheral\trigmux/cy_trigmux.c **** 
 221:Generated_Source\PSoC6\pdl\drivers\peripheral\trigmux/cy_trigmux.c **** 
 222:Generated_Source\PSoC6\pdl\drivers\peripheral\trigmux/cy_trigmux.c **** /*******************************************************************************
 223:Generated_Source\PSoC6\pdl\drivers\peripheral\trigmux/cy_trigmux.c **** * Function Name: Cy_TrigMux_SetDebugFreeze
 224:Generated_Source\PSoC6\pdl\drivers\peripheral\trigmux/cy_trigmux.c **** ****************************************************************************//**
 225:Generated_Source\PSoC6\pdl\drivers\peripheral\trigmux/cy_trigmux.c **** *
 226:Generated_Source\PSoC6\pdl\drivers\peripheral\trigmux/cy_trigmux.c **** * Enables/disables the Debug Freeze feature for the specified trigger 
 227:Generated_Source\PSoC6\pdl\drivers\peripheral\trigmux/cy_trigmux.c **** * multiplexer or 1-to-1 trigger line. For PERI_ver2 only.
 228:Generated_Source\PSoC6\pdl\drivers\peripheral\trigmux/cy_trigmux.c **** *
 229:Generated_Source\PSoC6\pdl\drivers\peripheral\trigmux/cy_trigmux.c **** * \param outTrig
 230:Generated_Source\PSoC6\pdl\drivers\peripheral\trigmux/cy_trigmux.c **** * The output of the trigger mux or dedicated 1-to-1 trigger line.
 231:Generated_Source\PSoC6\pdl\drivers\peripheral\trigmux/cy_trigmux.c **** * - Bit 30 should be set.
 232:Generated_Source\PSoC6\pdl\drivers\peripheral\trigmux/cy_trigmux.c **** * - Bits 12:8 represent the trigger group selection.
 233:Generated_Source\PSoC6\pdl\drivers\peripheral\trigmux/cy_trigmux.c **** * - Bits 7:0 select the output trigger number in the trigger group.
 234:Generated_Source\PSoC6\pdl\drivers\peripheral\trigmux/cy_trigmux.c **** *
 235:Generated_Source\PSoC6\pdl\drivers\peripheral\trigmux/cy_trigmux.c **** * \param enable
 236:Generated_Source\PSoC6\pdl\drivers\peripheral\trigmux/cy_trigmux.c **** * - true: The Debug Freeze feature is enabled.
 237:Generated_Source\PSoC6\pdl\drivers\peripheral\trigmux/cy_trigmux.c **** * - false: The Debug Freeze feature is disabled.
 238:Generated_Source\PSoC6\pdl\drivers\peripheral\trigmux/cy_trigmux.c **** *
 239:Generated_Source\PSoC6\pdl\drivers\peripheral\trigmux/cy_trigmux.c **** * \return status:
 240:Generated_Source\PSoC6\pdl\drivers\peripheral\trigmux/cy_trigmux.c **** * - CY_TRIGMUX_SUCCESS: The operation is made successfully.
 241:Generated_Source\PSoC6\pdl\drivers\peripheral\trigmux/cy_trigmux.c **** * - CY_TRIGMUX_BAD_PARAM: The outTrig parameter is invalid.
 242:Generated_Source\PSoC6\pdl\drivers\peripheral\trigmux/cy_trigmux.c **** *
 243:Generated_Source\PSoC6\pdl\drivers\peripheral\trigmux/cy_trigmux.c **** * \funcusage
 244:Generated_Source\PSoC6\pdl\drivers\peripheral\trigmux/cy_trigmux.c **** * \snippet trigmux\1.20\snippet\main.c snippet_Cy_TrigMux_SetDebugFreeze
 245:Generated_Source\PSoC6\pdl\drivers\peripheral\trigmux/cy_trigmux.c **** *  
 246:Generated_Source\PSoC6\pdl\drivers\peripheral\trigmux/cy_trigmux.c **** *******************************************************************************/
 247:Generated_Source\PSoC6\pdl\drivers\peripheral\trigmux/cy_trigmux.c **** cy_en_trigmux_status_t Cy_TrigMux_SetDebugFreeze(uint32_t outTrig, bool enable)
ARM GAS  C:\Users\pearlstl\AppData\Local\Temp\cc5nRXLs.s 			page 11


 248:Generated_Source\PSoC6\pdl\drivers\peripheral\trigmux/cy_trigmux.c **** {    
 288              		.loc 1 248 0
 289              		.cfi_startproc
 290              		@ args = 0, pretend = 0, frame = 0
 291              		@ frame_needed = 0, uses_anonymous_args = 0
 292              	.LVL19:
 293 0000 F8B5     		push	{r3, r4, r5, r6, r7, lr}
 294              		.cfi_def_cfa_offset 24
 295              		.cfi_offset 3, -24
 296              		.cfi_offset 4, -20
 297              		.cfi_offset 5, -16
 298              		.cfi_offset 6, -12
 299              		.cfi_offset 7, -8
 300              		.cfi_offset 14, -4
 249:Generated_Source\PSoC6\pdl\drivers\peripheral\trigmux/cy_trigmux.c ****     cy_en_trigmux_status_t retVal = CY_TRIGMUX_BAD_PARAM;
 250:Generated_Source\PSoC6\pdl\drivers\peripheral\trigmux/cy_trigmux.c **** 
 251:Generated_Source\PSoC6\pdl\drivers\peripheral\trigmux/cy_trigmux.c ****     if (!CY_PERI_V1)
 301              		.loc 1 251 0
 302 0002 214C     		ldr	r4, .L35
 303 0004 2368     		ldr	r3, [r4]
 304 0006 93F82F30 		ldrb	r3, [r3, #47]	@ zero_extendqisi2
 305 000a 012B     		cmp	r3, #1
 306 000c 01D1     		bne	.L33
 249:Generated_Source\PSoC6\pdl\drivers\peripheral\trigmux/cy_trigmux.c ****     cy_en_trigmux_status_t retVal = CY_TRIGMUX_BAD_PARAM;
 307              		.loc 1 249 0
 308 000e 1F48     		ldr	r0, .L35+4
 309              	.LVL20:
 252:Generated_Source\PSoC6\pdl\drivers\peripheral\trigmux/cy_trigmux.c ****     {
 253:Generated_Source\PSoC6\pdl\drivers\peripheral\trigmux/cy_trigmux.c ****         uint32_t interruptState;
 254:Generated_Source\PSoC6\pdl\drivers\peripheral\trigmux/cy_trigmux.c **** 
 255:Generated_Source\PSoC6\pdl\drivers\peripheral\trigmux/cy_trigmux.c ****         interruptState = Cy_SysLib_EnterCriticalSection();
 256:Generated_Source\PSoC6\pdl\drivers\peripheral\trigmux/cy_trigmux.c **** 
 257:Generated_Source\PSoC6\pdl\drivers\peripheral\trigmux/cy_trigmux.c ****         if (enable)
 258:Generated_Source\PSoC6\pdl\drivers\peripheral\trigmux/cy_trigmux.c ****         {
 259:Generated_Source\PSoC6\pdl\drivers\peripheral\trigmux/cy_trigmux.c ****             CY_TRIGMUX_TR_CTL(outTrig) |= PERI_TR_GR_V2_TR_CTL_DBG_FREEZE_EN_Msk;
 260:Generated_Source\PSoC6\pdl\drivers\peripheral\trigmux/cy_trigmux.c ****         }
 261:Generated_Source\PSoC6\pdl\drivers\peripheral\trigmux/cy_trigmux.c ****         else
 262:Generated_Source\PSoC6\pdl\drivers\peripheral\trigmux/cy_trigmux.c ****         {
 263:Generated_Source\PSoC6\pdl\drivers\peripheral\trigmux/cy_trigmux.c ****             CY_TRIGMUX_TR_CTL(outTrig) &= (uint32_t)~PERI_TR_GR_V2_TR_CTL_DBG_FREEZE_EN_Msk;
 264:Generated_Source\PSoC6\pdl\drivers\peripheral\trigmux/cy_trigmux.c ****         }
 265:Generated_Source\PSoC6\pdl\drivers\peripheral\trigmux/cy_trigmux.c **** 
 266:Generated_Source\PSoC6\pdl\drivers\peripheral\trigmux/cy_trigmux.c ****         Cy_SysLib_ExitCriticalSection(interruptState);
 267:Generated_Source\PSoC6\pdl\drivers\peripheral\trigmux/cy_trigmux.c **** 
 268:Generated_Source\PSoC6\pdl\drivers\peripheral\trigmux/cy_trigmux.c ****         retVal = CY_TRIGMUX_SUCCESS;
 269:Generated_Source\PSoC6\pdl\drivers\peripheral\trigmux/cy_trigmux.c ****     }
 270:Generated_Source\PSoC6\pdl\drivers\peripheral\trigmux/cy_trigmux.c **** 
 271:Generated_Source\PSoC6\pdl\drivers\peripheral\trigmux/cy_trigmux.c ****     return retVal;
 272:Generated_Source\PSoC6\pdl\drivers\peripheral\trigmux/cy_trigmux.c **** }
 310              		.loc 1 272 0
 311 0010 F8BD     		pop	{r3, r4, r5, r6, r7, pc}
 312              	.LVL21:
 313              	.L33:
 314 0012 0D46     		mov	r5, r1
 315 0014 0646     		mov	r6, r0
 316              	.LBB5:
 255:Generated_Source\PSoC6\pdl\drivers\peripheral\trigmux/cy_trigmux.c **** 
 317              		.loc 1 255 0
ARM GAS  C:\Users\pearlstl\AppData\Local\Temp\cc5nRXLs.s 			page 12


 318 0016 FFF7FEFF 		bl	Cy_SysLib_EnterCriticalSection
 319              	.LVL22:
 257:Generated_Source\PSoC6\pdl\drivers\peripheral\trigmux/cy_trigmux.c ****         {
 320              		.loc 1 257 0
 321 001a D5B9     		cbnz	r5, .L34
 263:Generated_Source\PSoC6\pdl\drivers\peripheral\trigmux/cy_trigmux.c ****         }
 322              		.loc 1 263 0
 323 001c 2568     		ldr	r5, [r4]
 324 001e B5F86E10 		ldrh	r1, [r5, #110]
 325 0022 B5F86A40 		ldrh	r4, [r5, #106]
 326 0026 B5F86C70 		ldrh	r7, [r5, #108]
 327 002a AA68     		ldr	r2, [r5, #8]
 328 002c 8D08     		lsrs	r5, r1, #2
 329 002e 013D     		subs	r5, r5, #1
 330 0030 3440     		ands	r4, r4, r6
 331 0032 3A44     		add	r2, r2, r7
 332 0034 05EA0603 		and	r3, r5, r6
 333 0038 240A     		lsrs	r4, r4, #8
 334 003a 02EB8303 		add	r3, r2, r3, lsl #2
 335 003e 01FB04F2 		mul	r2, r1, r4
 336 0042 9958     		ldr	r1, [r3, r2]
 337 0044 21F48051 		bic	r1, r1, #4096
 338 0048 9950     		str	r1, [r3, r2]
 266:Generated_Source\PSoC6\pdl\drivers\peripheral\trigmux/cy_trigmux.c **** 
 339              		.loc 1 266 0
 340 004a FFF7FEFF 		bl	Cy_SysLib_ExitCriticalSection
 341              	.LVL23:
 268:Generated_Source\PSoC6\pdl\drivers\peripheral\trigmux/cy_trigmux.c ****     }
 342              		.loc 1 268 0
 343 004e 0020     		movs	r0, #0
 344 0050 F8BD     		pop	{r3, r4, r5, r6, r7, pc}
 345              	.LVL24:
 346              	.L34:
 259:Generated_Source\PSoC6\pdl\drivers\peripheral\trigmux/cy_trigmux.c ****         }
 347              		.loc 1 259 0
 348 0052 2368     		ldr	r3, [r4]
 349 0054 B3F86E10 		ldrh	r1, [r3, #110]
 350 0058 B3F86A40 		ldrh	r4, [r3, #106]
 351 005c B3F86C50 		ldrh	r5, [r3, #108]
 352 0060 9A68     		ldr	r2, [r3, #8]
 353 0062 8B08     		lsrs	r3, r1, #2
 354 0064 3440     		ands	r4, r4, r6
 355 0066 013B     		subs	r3, r3, #1
 356 0068 2A44     		add	r2, r2, r5
 357 006a 3340     		ands	r3, r3, r6
 358 006c 240A     		lsrs	r4, r4, #8
 359 006e 02EB8306 		add	r6, r2, r3, lsl #2
 360              	.LVL25:
 361 0072 01FB04F3 		mul	r3, r1, r4
 362 0076 F258     		ldr	r2, [r6, r3]
 363 0078 42F48052 		orr	r2, r2, #4096
 364 007c F250     		str	r2, [r6, r3]
 266:Generated_Source\PSoC6\pdl\drivers\peripheral\trigmux/cy_trigmux.c **** 
 365              		.loc 1 266 0
 366 007e FFF7FEFF 		bl	Cy_SysLib_ExitCriticalSection
 367              	.LVL26:
 268:Generated_Source\PSoC6\pdl\drivers\peripheral\trigmux/cy_trigmux.c ****     }
ARM GAS  C:\Users\pearlstl\AppData\Local\Temp\cc5nRXLs.s 			page 13


 368              		.loc 1 268 0
 369 0082 0020     		movs	r0, #0
 370 0084 F8BD     		pop	{r3, r4, r5, r6, r7, pc}
 371              	.L36:
 372 0086 00BF     		.align	2
 373              	.L35:
 374 0088 00000000 		.word	cy_device
 375 008c 0100CE00 		.word	13500417
 376              	.LBE5:
 377              		.cfi_endproc
 378              	.LFE135:
 379              		.size	Cy_TrigMux_SetDebugFreeze, .-Cy_TrigMux_SetDebugFreeze
 380              		.section	.text.Cy_TrigMux_SwTrigger,"ax",%progbits
 381              		.align	2
 382              		.global	Cy_TrigMux_SwTrigger
 383              		.thumb
 384              		.thumb_func
 385              		.type	Cy_TrigMux_SwTrigger, %function
 386              	Cy_TrigMux_SwTrigger:
 387              	.LFB136:
 273:Generated_Source\PSoC6\pdl\drivers\peripheral\trigmux/cy_trigmux.c **** 
 274:Generated_Source\PSoC6\pdl\drivers\peripheral\trigmux/cy_trigmux.c **** 
 275:Generated_Source\PSoC6\pdl\drivers\peripheral\trigmux/cy_trigmux.c **** /*******************************************************************************
 276:Generated_Source\PSoC6\pdl\drivers\peripheral\trigmux/cy_trigmux.c **** * Function Name: Cy_TrigMux_SwTrigger
 277:Generated_Source\PSoC6\pdl\drivers\peripheral\trigmux/cy_trigmux.c **** ****************************************************************************//**
 278:Generated_Source\PSoC6\pdl\drivers\peripheral\trigmux/cy_trigmux.c **** *
 279:Generated_Source\PSoC6\pdl\drivers\peripheral\trigmux/cy_trigmux.c **** * This function generates a software trigger on an input trigger line. 
 280:Generated_Source\PSoC6\pdl\drivers\peripheral\trigmux/cy_trigmux.c **** * All output triggers connected to this input trigger will be triggered. 
 281:Generated_Source\PSoC6\pdl\drivers\peripheral\trigmux/cy_trigmux.c **** * The function also verifies that there is no activated trigger before 
 282:Generated_Source\PSoC6\pdl\drivers\peripheral\trigmux/cy_trigmux.c **** * generating another activation. 
 283:Generated_Source\PSoC6\pdl\drivers\peripheral\trigmux/cy_trigmux.c **** *
 284:Generated_Source\PSoC6\pdl\drivers\peripheral\trigmux/cy_trigmux.c **** * \param trigLine
 285:Generated_Source\PSoC6\pdl\drivers\peripheral\trigmux/cy_trigmux.c **** * The input of the trigger mux.
 286:Generated_Source\PSoC6\pdl\drivers\peripheral\trigmux/cy_trigmux.c **** * - Bit 30 represents if the signal is an input/output. When this bit is set, 
 287:Generated_Source\PSoC6\pdl\drivers\peripheral\trigmux/cy_trigmux.c **** *   the trigger activation is for an output trigger from the trigger multiplexer.
 288:Generated_Source\PSoC6\pdl\drivers\peripheral\trigmux/cy_trigmux.c **** *   When this bit is reset, the trigger activation is for an input trigger to 
 289:Generated_Source\PSoC6\pdl\drivers\peripheral\trigmux/cy_trigmux.c **** *   the trigger multiplexer.
 290:Generated_Source\PSoC6\pdl\drivers\peripheral\trigmux/cy_trigmux.c **** * - Bits 12:8 represent the trigger group selection.<br>
 291:Generated_Source\PSoC6\pdl\drivers\peripheral\trigmux/cy_trigmux.c **** * In case of output trigger line (bit 30 is set):
 292:Generated_Source\PSoC6\pdl\drivers\peripheral\trigmux/cy_trigmux.c **** *  For PERI_ver1:
 293:Generated_Source\PSoC6\pdl\drivers\peripheral\trigmux/cy_trigmux.c **** * - Bits 6:0 select the output trigger number in the trigger group.<br>
 294:Generated_Source\PSoC6\pdl\drivers\peripheral\trigmux/cy_trigmux.c **** *  For PERI_ver2:
 295:Generated_Source\PSoC6\pdl\drivers\peripheral\trigmux/cy_trigmux.c **** * - Bits 7:0 select the output trigger number in the trigger group.
 296:Generated_Source\PSoC6\pdl\drivers\peripheral\trigmux/cy_trigmux.c **** * In case of input trigger line (bit 30 is unset):
 297:Generated_Source\PSoC6\pdl\drivers\peripheral\trigmux/cy_trigmux.c **** * - Bits 7:0 select the input trigger signal for the trigger multiplexer.
 298:Generated_Source\PSoC6\pdl\drivers\peripheral\trigmux/cy_trigmux.c **** *
 299:Generated_Source\PSoC6\pdl\drivers\peripheral\trigmux/cy_trigmux.c **** * \param cycles
 300:Generated_Source\PSoC6\pdl\drivers\peripheral\trigmux/cy_trigmux.c **** *  The number of "Clk_Peri" cycles during which the trigger remains activated.<br>
 301:Generated_Source\PSoC6\pdl\drivers\peripheral\trigmux/cy_trigmux.c **** *  For PERI_ver1: The valid range of cycles is 1 ... 254.<br>
 302:Generated_Source\PSoC6\pdl\drivers\peripheral\trigmux/cy_trigmux.c **** *  For PERI_ver2: The only valid value of cycles is 2 (\ref CY_TRIGGER_TWO_CYCLES).<br>
 303:Generated_Source\PSoC6\pdl\drivers\peripheral\trigmux/cy_trigmux.c **** *  Also there are special values (supported with both PERI_ver1 and PERI_ver2):
 304:Generated_Source\PSoC6\pdl\drivers\peripheral\trigmux/cy_trigmux.c **** *   - CY_TRIGGER_INFINITE - trigger remains activated until the user deactivates it by
 305:Generated_Source\PSoC6\pdl\drivers\peripheral\trigmux/cy_trigmux.c **** *   calling this function with CY_TRIGGER_DEACTIVATE parameter.
 306:Generated_Source\PSoC6\pdl\drivers\peripheral\trigmux/cy_trigmux.c **** *   - CY_TRIGGER_DEACTIVATE - this is used to deactivate the trigger activated by
 307:Generated_Source\PSoC6\pdl\drivers\peripheral\trigmux/cy_trigmux.c **** *   calling this function with CY_TRIGGER_INFINITE parameter.
 308:Generated_Source\PSoC6\pdl\drivers\peripheral\trigmux/cy_trigmux.c **** * 
 309:Generated_Source\PSoC6\pdl\drivers\peripheral\trigmux/cy_trigmux.c **** * \return status:
ARM GAS  C:\Users\pearlstl\AppData\Local\Temp\cc5nRXLs.s 			page 14


 310:Generated_Source\PSoC6\pdl\drivers\peripheral\trigmux/cy_trigmux.c **** * - CY_TRIGMUX_SUCCESS: The trigger is successfully activated/deactivated.
 311:Generated_Source\PSoC6\pdl\drivers\peripheral\trigmux/cy_trigmux.c **** * - CY_TRIGMUX_INVALID_STATE: The trigger is already activated/not active.
 312:Generated_Source\PSoC6\pdl\drivers\peripheral\trigmux/cy_trigmux.c **** * - CY_TRIGMUX_BAD_PARAM: Some parameter is invalid.
 313:Generated_Source\PSoC6\pdl\drivers\peripheral\trigmux/cy_trigmux.c **** *
 314:Generated_Source\PSoC6\pdl\drivers\peripheral\trigmux/cy_trigmux.c **** * \funcusage
 315:Generated_Source\PSoC6\pdl\drivers\peripheral\trigmux/cy_trigmux.c **** * \snippet trigmux\1.20\snippet\main.c snippet_Cy_TrigMux_SwTrigger
 316:Generated_Source\PSoC6\pdl\drivers\peripheral\trigmux/cy_trigmux.c **** *
 317:Generated_Source\PSoC6\pdl\drivers\peripheral\trigmux/cy_trigmux.c **** *******************************************************************************/
 318:Generated_Source\PSoC6\pdl\drivers\peripheral\trigmux/cy_trigmux.c **** cy_en_trigmux_status_t Cy_TrigMux_SwTrigger(uint32_t trigLine, uint32_t cycles)
 319:Generated_Source\PSoC6\pdl\drivers\peripheral\trigmux/cy_trigmux.c **** {
 388              		.loc 1 319 0
 389              		.cfi_startproc
 390              		@ args = 0, pretend = 0, frame = 0
 391              		@ frame_needed = 0, uses_anonymous_args = 0
 392              		@ link register save eliminated.
 393              	.LVL27:
 320:Generated_Source\PSoC6\pdl\drivers\peripheral\trigmux/cy_trigmux.c ****     cy_en_trigmux_status_t retVal = CY_TRIGMUX_INVALID_STATE;
 321:Generated_Source\PSoC6\pdl\drivers\peripheral\trigmux/cy_trigmux.c **** 
 322:Generated_Source\PSoC6\pdl\drivers\peripheral\trigmux/cy_trigmux.c ****     CY_ASSERT_L2(CY_TRIGMUX_IS_TRIGLINE_VALID(trigLine));
 323:Generated_Source\PSoC6\pdl\drivers\peripheral\trigmux/cy_trigmux.c ****     CY_ASSERT_L2(CY_TRIGMUX_IS_CYCLES_VALID(cycles));
 324:Generated_Source\PSoC6\pdl\drivers\peripheral\trigmux/cy_trigmux.c **** 
 325:Generated_Source\PSoC6\pdl\drivers\peripheral\trigmux/cy_trigmux.c ****     if (CY_TRIGGER_DEACTIVATE != cycles)
 394              		.loc 1 325 0
 395 0000 E1B1     		cbz	r1, .L38
 326:Generated_Source\PSoC6\pdl\drivers\peripheral\trigmux/cy_trigmux.c ****     {
 327:Generated_Source\PSoC6\pdl\drivers\peripheral\trigmux/cy_trigmux.c ****         /* Activate the trigger if it is not in the active state. */
 328:Generated_Source\PSoC6\pdl\drivers\peripheral\trigmux/cy_trigmux.c ****         if (PERI_TR_CMD_ACTIVATE_Msk != (PERI_TR_CMD & PERI_TR_CMD_ACTIVATE_Msk))
 396              		.loc 1 328 0
 397 0002 1E4B     		ldr	r3, .L51
 398 0004 1B68     		ldr	r3, [r3]
 319:Generated_Source\PSoC6\pdl\drivers\peripheral\trigmux/cy_trigmux.c ****     cy_en_trigmux_status_t retVal = CY_TRIGMUX_INVALID_STATE;
 399              		.loc 1 319 0
 400 0006 70B4     		push	{r4, r5, r6}
 401              		.cfi_def_cfa_offset 12
 402              		.cfi_offset 4, -12
 403              		.cfi_offset 5, -8
 404              		.cfi_offset 6, -4
 405              		.loc 1 328 0
 406 0008 B3F86850 		ldrh	r5, [r3, #104]
 407 000c 9C68     		ldr	r4, [r3, #8]
 408 000e 2A59     		ldr	r2, [r5, r4]
 409 0010 002A     		cmp	r2, #0
 410 0012 1DDB     		blt	.L42
 411              	.LBB6:
 329:Generated_Source\PSoC6\pdl\drivers\peripheral\trigmux/cy_trigmux.c ****         {
 330:Generated_Source\PSoC6\pdl\drivers\peripheral\trigmux/cy_trigmux.c **** 
 331:Generated_Source\PSoC6\pdl\drivers\peripheral\trigmux/cy_trigmux.c ****             uint32_t trCmd = (trigLine & (PERI_TR_CMD_TR_SEL_Msk |
 412              		.loc 1 331 0
 413 0014 B3F86A20 		ldrh	r2, [r3, #106]
 332:Generated_Source\PSoC6\pdl\drivers\peripheral\trigmux/cy_trigmux.c ****                                           PERI_TR_CMD_OUT_SEL_Msk |
 333:Generated_Source\PSoC6\pdl\drivers\peripheral\trigmux/cy_trigmux.c ****                                        CY_PERI_TR_CMD_GROUP_SEL_Msk)) |
 334:Generated_Source\PSoC6\pdl\drivers\peripheral\trigmux/cy_trigmux.c ****                                           PERI_TR_CMD_ACTIVATE_Msk;
 335:Generated_Source\PSoC6\pdl\drivers\peripheral\trigmux/cy_trigmux.c ****             
 336:Generated_Source\PSoC6\pdl\drivers\peripheral\trigmux/cy_trigmux.c ****             retVal = CY_TRIGMUX_SUCCESS;
 337:Generated_Source\PSoC6\pdl\drivers\peripheral\trigmux/cy_trigmux.c ****             
 338:Generated_Source\PSoC6\pdl\drivers\peripheral\trigmux/cy_trigmux.c ****             if (CY_PERI_V1) /* mxperi_v1 */
 414              		.loc 1 338 0
ARM GAS  C:\Users\pearlstl\AppData\Local\Temp\cc5nRXLs.s 			page 15


 415 0018 93F82F60 		ldrb	r6, [r3, #47]	@ zero_extendqisi2
 331:Generated_Source\PSoC6\pdl\drivers\peripheral\trigmux/cy_trigmux.c ****                                           PERI_TR_CMD_OUT_SEL_Msk |
 416              		.loc 1 331 0
 417 001c 42F08043 		orr	r3, r2, #1073741824
 418 0020 43F0FF03 		orr	r3, r3, #255
 419 0024 1840     		ands	r0, r0, r3
 420              	.LVL28:
 421              		.loc 1 338 0
 422 0026 012E     		cmp	r6, #1
 331:Generated_Source\PSoC6\pdl\drivers\peripheral\trigmux/cy_trigmux.c ****                                           PERI_TR_CMD_OUT_SEL_Msk |
 423              		.loc 1 331 0
 424 0028 40F00043 		orr	r3, r0, #-2147483648
 425              	.LVL29:
 426              		.loc 1 338 0
 427 002c 16D0     		beq	.L47
 339:Generated_Source\PSoC6\pdl\drivers\peripheral\trigmux/cy_trigmux.c ****             {
 340:Generated_Source\PSoC6\pdl\drivers\peripheral\trigmux/cy_trigmux.c ****                 PERI_TR_CMD = trCmd | _VAL2FLD(PERI_TR_CMD_COUNT, cycles);
 341:Generated_Source\PSoC6\pdl\drivers\peripheral\trigmux/cy_trigmux.c ****             }
 342:Generated_Source\PSoC6\pdl\drivers\peripheral\trigmux/cy_trigmux.c ****             else if (CY_TRIGGER_TWO_CYCLES == cycles) /* mxperi_v2 or later, 2 cycles pulse */
 428              		.loc 1 342 0
 429 002e 0229     		cmp	r1, #2
 430 0030 1BD0     		beq	.L48
 343:Generated_Source\PSoC6\pdl\drivers\peripheral\trigmux/cy_trigmux.c ****             {
 344:Generated_Source\PSoC6\pdl\drivers\peripheral\trigmux/cy_trigmux.c ****                 PERI_TR_CMD = trCmd | PERI_V2_TR_CMD_TR_EDGE_Msk;
 345:Generated_Source\PSoC6\pdl\drivers\peripheral\trigmux/cy_trigmux.c ****             }
 346:Generated_Source\PSoC6\pdl\drivers\peripheral\trigmux/cy_trigmux.c ****             else if (CY_TRIGGER_INFINITE == cycles) /* mxperi_v2 or later, infinite activating */
 431              		.loc 1 346 0
 432 0032 FF29     		cmp	r1, #255
 433 0034 1ED0     		beq	.L49
 347:Generated_Source\PSoC6\pdl\drivers\peripheral\trigmux/cy_trigmux.c ****             {
 348:Generated_Source\PSoC6\pdl\drivers\peripheral\trigmux/cy_trigmux.c ****                 PERI_TR_CMD = trCmd;
 349:Generated_Source\PSoC6\pdl\drivers\peripheral\trigmux/cy_trigmux.c ****             }
 350:Generated_Source\PSoC6\pdl\drivers\peripheral\trigmux/cy_trigmux.c ****             else /* mxperi_v2 or later, invalid cycles value */
 351:Generated_Source\PSoC6\pdl\drivers\peripheral\trigmux/cy_trigmux.c ****             {
 352:Generated_Source\PSoC6\pdl\drivers\peripheral\trigmux/cy_trigmux.c ****                 retVal = CY_TRIGMUX_BAD_PARAM;
 434              		.loc 1 352 0
 435 0036 1248     		ldr	r0, .L51+4
 436              	.LVL30:
 437              	.LBE6:
 353:Generated_Source\PSoC6\pdl\drivers\peripheral\trigmux/cy_trigmux.c ****             }
 354:Generated_Source\PSoC6\pdl\drivers\peripheral\trigmux/cy_trigmux.c ****         }
 355:Generated_Source\PSoC6\pdl\drivers\peripheral\trigmux/cy_trigmux.c ****     }
 356:Generated_Source\PSoC6\pdl\drivers\peripheral\trigmux/cy_trigmux.c ****     else
 357:Generated_Source\PSoC6\pdl\drivers\peripheral\trigmux/cy_trigmux.c ****     {
 358:Generated_Source\PSoC6\pdl\drivers\peripheral\trigmux/cy_trigmux.c ****         /* Forcibly deactivate the trigger if it is in the active state. */
 359:Generated_Source\PSoC6\pdl\drivers\peripheral\trigmux/cy_trigmux.c ****         if (PERI_TR_CMD_ACTIVATE_Msk == (PERI_TR_CMD & PERI_TR_CMD_ACTIVATE_Msk))
 360:Generated_Source\PSoC6\pdl\drivers\peripheral\trigmux/cy_trigmux.c ****         {
 361:Generated_Source\PSoC6\pdl\drivers\peripheral\trigmux/cy_trigmux.c ****             PERI_TR_CMD = 0UL;
 362:Generated_Source\PSoC6\pdl\drivers\peripheral\trigmux/cy_trigmux.c **** 
 363:Generated_Source\PSoC6\pdl\drivers\peripheral\trigmux/cy_trigmux.c ****             retVal = CY_TRIGMUX_SUCCESS;
 364:Generated_Source\PSoC6\pdl\drivers\peripheral\trigmux/cy_trigmux.c ****         }
 365:Generated_Source\PSoC6\pdl\drivers\peripheral\trigmux/cy_trigmux.c ****     }
 366:Generated_Source\PSoC6\pdl\drivers\peripheral\trigmux/cy_trigmux.c **** 
 367:Generated_Source\PSoC6\pdl\drivers\peripheral\trigmux/cy_trigmux.c ****     return retVal;
 368:Generated_Source\PSoC6\pdl\drivers\peripheral\trigmux/cy_trigmux.c **** }
 438              		.loc 1 368 0
 439 0038 70BC     		pop	{r4, r5, r6}
ARM GAS  C:\Users\pearlstl\AppData\Local\Temp\cc5nRXLs.s 			page 16


 440              		.cfi_restore 4
 441              		.cfi_restore 5
 442              		.cfi_restore 6
 443              		.cfi_def_cfa_offset 0
 444 003a 7047     		bx	lr
 445              	.LVL31:
 446              	.L38:
 359:Generated_Source\PSoC6\pdl\drivers\peripheral\trigmux/cy_trigmux.c ****         {
 447              		.loc 1 359 0
 448 003c 0F4B     		ldr	r3, .L51
 449 003e 1B68     		ldr	r3, [r3]
 450 0040 B3F86820 		ldrh	r2, [r3, #104]
 451 0044 9B68     		ldr	r3, [r3, #8]
 452 0046 D058     		ldr	r0, [r2, r3]
 453              	.LVL32:
 454 0048 0028     		cmp	r0, #0
 455 004a 04DB     		blt	.L50
 320:Generated_Source\PSoC6\pdl\drivers\peripheral\trigmux/cy_trigmux.c **** 
 456              		.loc 1 320 0
 457 004c 0D48     		ldr	r0, .L51+8
 458 004e 7047     		bx	lr
 459              	.LVL33:
 460              	.L42:
 461              		.cfi_def_cfa_offset 12
 462              		.cfi_offset 4, -12
 463              		.cfi_offset 5, -8
 464              		.cfi_offset 6, -4
 465 0050 0C48     		ldr	r0, .L51+8
 466              	.LVL34:
 467              	.L39:
 468              		.loc 1 368 0
 469 0052 70BC     		pop	{r4, r5, r6}
 470              		.cfi_restore 6
 471              		.cfi_restore 5
 472              		.cfi_restore 4
 473              		.cfi_def_cfa_offset 0
 474 0054 7047     		bx	lr
 475              	.LVL35:
 476              	.L50:
 361:Generated_Source\PSoC6\pdl\drivers\peripheral\trigmux/cy_trigmux.c **** 
 477              		.loc 1 361 0
 478 0056 D150     		str	r1, [r2, r3]
 479              	.LVL36:
 363:Generated_Source\PSoC6\pdl\drivers\peripheral\trigmux/cy_trigmux.c ****         }
 480              		.loc 1 363 0
 481 0058 0846     		mov	r0, r1
 482 005a 7047     		bx	lr
 483              	.LVL37:
 484              	.L47:
 485              		.cfi_def_cfa_offset 12
 486              		.cfi_offset 4, -12
 487              		.cfi_offset 5, -8
 488              		.cfi_offset 6, -4
 489              	.LBB7:
 340:Generated_Source\PSoC6\pdl\drivers\peripheral\trigmux/cy_trigmux.c ****             }
 490              		.loc 1 340 0
 491 005c 0904     		lsls	r1, r1, #16
ARM GAS  C:\Users\pearlstl\AppData\Local\Temp\cc5nRXLs.s 			page 17


 492              	.LVL38:
 493 005e 01F47F01 		and	r1, r1, #16711680
 494 0062 0B43     		orrs	r3, r3, r1
 495              	.LVL39:
 496 0064 2B51     		str	r3, [r5, r4]
 336:Generated_Source\PSoC6\pdl\drivers\peripheral\trigmux/cy_trigmux.c ****             
 497              		.loc 1 336 0
 498 0066 0020     		movs	r0, #0
 499              	.LVL40:
 500 0068 F3E7     		b	.L39
 501              	.LVL41:
 502              	.L48:
 344:Generated_Source\PSoC6\pdl\drivers\peripheral\trigmux/cy_trigmux.c ****             }
 503              		.loc 1 344 0
 504 006a 40F02040 		orr	r0, r0, #-1610612736
 505 006e 2851     		str	r0, [r5, r4]
 336:Generated_Source\PSoC6\pdl\drivers\peripheral\trigmux/cy_trigmux.c ****             
 506              		.loc 1 336 0
 507 0070 0020     		movs	r0, #0
 508 0072 EEE7     		b	.L39
 509              	.L49:
 348:Generated_Source\PSoC6\pdl\drivers\peripheral\trigmux/cy_trigmux.c ****             }
 510              		.loc 1 348 0
 511 0074 2B51     		str	r3, [r5, r4]
 336:Generated_Source\PSoC6\pdl\drivers\peripheral\trigmux/cy_trigmux.c ****             
 512              		.loc 1 336 0
 513 0076 0020     		movs	r0, #0
 514 0078 EBE7     		b	.L39
 515              	.L52:
 516 007a 00BF     		.align	2
 517              	.L51:
 518 007c 00000000 		.word	cy_device
 519 0080 0100CE00 		.word	13500417
 520 0084 0200CE00 		.word	13500418
 521              	.LBE7:
 522              		.cfi_endproc
 523              	.LFE136:
 524              		.size	Cy_TrigMux_SwTrigger, .-Cy_TrigMux_SwTrigger
 525              		.text
 526              	.Letext0:
 527              		.file 2 "c:\\program files (x86)\\cypress\\psoc creator\\4.2\\psoc creator\\import\\gnu\\arm\\5.4.
 528              		.file 3 "c:\\program files (x86)\\cypress\\psoc creator\\4.2\\psoc creator\\import\\gnu\\arm\\5.4.
 529              		.file 4 "Generated_Source\\PSoC6\\pdl\\drivers/peripheral/device/cy_device.h"
 530              		.file 5 "Generated_Source\\PSoC6\\pdl\\devices/psoc6/include/psoc6_01_config.h"
 531              		.file 6 "Generated_Source\\PSoC6\\pdl\\drivers\\peripheral\\trigmux\\cy_trigmux.h"
 532              		.file 7 "Generated_Source\\PSoC6\\pdl\\cmsis/include/core_cm4.h"
 533              		.file 8 "Generated_Source\\PSoC6\\pdl\\drivers/peripheral/syslib/cy_syslib.h"