ARM GAS  C:\Users\pearlstl\AppData\Local\Temp\ccLalVtj.s 			page 1


   1              		.syntax unified
   2              		.cpu cortex-m4
   3              		.eabi_attribute 27, 1
   4              		.fpu fpv4-sp-d16
   5              		.eabi_attribute 20, 1
   6              		.eabi_attribute 21, 1
   7              		.eabi_attribute 23, 3
   8              		.eabi_attribute 24, 1
   9              		.eabi_attribute 25, 1
  10              		.eabi_attribute 26, 1
  11              		.eabi_attribute 30, 2
  12              		.eabi_attribute 34, 1
  13              		.eabi_attribute 18, 4
  14              		.thumb
  15              		.syntax unified
  16              		.file	"LCD_INTERFACE.c"
  17              		.text
  18              	.Ltext0:
  19              		.cfi_sections	.debug_frame
  20              		.section	.text.LCD_INTERFACE_Enable,"ax",%progbits
  21              		.align	2
  22              		.global	LCD_INTERFACE_Enable
  23              		.thumb
  24              		.thumb_func
  25              		.type	LCD_INTERFACE_Enable, %function
  26              	LCD_INTERFACE_Enable:
  27              	.LFB147:
  28              		.cfi_startproc
  29              		@ args = 0, pretend = 0, frame = 0
  30              		@ frame_needed = 0, uses_anonymous_args = 0
  31              		@ link register save eliminated.
  32 0000 7047     		bx	lr
  33              		.cfi_endproc
  34              	.LFE147:
  35              		.size	LCD_INTERFACE_Enable, .-LCD_INTERFACE_Enable
  36 0002 00BF     		.section	.text.LCD_INTERFACE_Init,"ax",%progbits
  37              		.align	2
  38              		.global	LCD_INTERFACE_Init
  39              		.thumb
  40              		.thumb_func
  41              		.type	LCD_INTERFACE_Init, %function
  42              	LCD_INTERFACE_Init:
  43              	.LFB133:
  44              		.file 1 "Generated_Source\\PSoC6\\LCD_INTERFACE.c"
   1:Generated_Source\PSoC6/LCD_INTERFACE.c **** /*******************************************************************************
   2:Generated_Source\PSoC6/LCD_INTERFACE.c **** * File Name: LCD_INTERFACE.c  
   3:Generated_Source\PSoC6/LCD_INTERFACE.c **** * Version 1.80
   4:Generated_Source\PSoC6/LCD_INTERFACE.c **** *
   5:Generated_Source\PSoC6/LCD_INTERFACE.c **** * Description:
   6:Generated_Source\PSoC6/LCD_INTERFACE.c **** *  This file contains the setup, control and status commands for the 
   7:Generated_Source\PSoC6/LCD_INTERFACE.c **** *  GraphicLCDIntf component.   
   8:Generated_Source\PSoC6/LCD_INTERFACE.c **** *
   9:Generated_Source\PSoC6/LCD_INTERFACE.c **** *******************************************************************************
  10:Generated_Source\PSoC6/LCD_INTERFACE.c **** * Copyright 2008-2018, Cypress Semiconductor Corporation.  All rights reserved.
  11:Generated_Source\PSoC6/LCD_INTERFACE.c **** * You may use this file only in accordance with the license, terms, conditions, 
  12:Generated_Source\PSoC6/LCD_INTERFACE.c **** * disclaimers, and limitations in the end user license agreement accompanying 
  13:Generated_Source\PSoC6/LCD_INTERFACE.c **** * the software package with which this file was provided.
ARM GAS  C:\Users\pearlstl\AppData\Local\Temp\ccLalVtj.s 			page 2


  14:Generated_Source\PSoC6/LCD_INTERFACE.c **** ********************************************************************************/
  15:Generated_Source\PSoC6/LCD_INTERFACE.c **** 
  16:Generated_Source\PSoC6/LCD_INTERFACE.c **** #include "LCD_INTERFACE.h"  
  17:Generated_Source\PSoC6/LCD_INTERFACE.c **** 
  18:Generated_Source\PSoC6/LCD_INTERFACE.c **** uint8 LCD_INTERFACE_initVar = 0u;
  19:Generated_Source\PSoC6/LCD_INTERFACE.c **** 
  20:Generated_Source\PSoC6/LCD_INTERFACE.c **** 
  21:Generated_Source\PSoC6/LCD_INTERFACE.c **** /*******************************************************************************
  22:Generated_Source\PSoC6/LCD_INTERFACE.c **** * Function Name: LCD_INTERFACE_Enable
  23:Generated_Source\PSoC6/LCD_INTERFACE.c **** ********************************************************************************
  24:Generated_Source\PSoC6/LCD_INTERFACE.c **** *
  25:Generated_Source\PSoC6/LCD_INTERFACE.c **** * Summary:
  26:Generated_Source\PSoC6/LCD_INTERFACE.c **** *  There is no need to reset or enable this component.  This component is 
  27:Generated_Source\PSoC6/LCD_INTERFACE.c **** *  naturally a slave that waits for the API calls to perform any 
  28:Generated_Source\PSoC6/LCD_INTERFACE.c **** *  function and after a request is made that request will always complete in 
  29:Generated_Source\PSoC6/LCD_INTERFACE.c **** *  finite time as long as a clock is provided. The only thing provided
  30:Generated_Source\PSoC6/LCD_INTERFACE.c **** *  by this API is setting the Command FIFO to drive at least the half-empty status
  31:Generated_Source\PSoC6/LCD_INTERFACE.c **** *  from the FIFO.
  32:Generated_Source\PSoC6/LCD_INTERFACE.c **** *
  33:Generated_Source\PSoC6/LCD_INTERFACE.c **** *******************************************************************************/
  34:Generated_Source\PSoC6/LCD_INTERFACE.c **** void LCD_INTERFACE_Enable(void) 
  35:Generated_Source\PSoC6/LCD_INTERFACE.c **** {   
  36:Generated_Source\PSoC6/LCD_INTERFACE.c ****     /* Nothing to enable */
  37:Generated_Source\PSoC6/LCD_INTERFACE.c **** }
  38:Generated_Source\PSoC6/LCD_INTERFACE.c **** 
  39:Generated_Source\PSoC6/LCD_INTERFACE.c **** 
  40:Generated_Source\PSoC6/LCD_INTERFACE.c **** /*******************************************************************************
  41:Generated_Source\PSoC6/LCD_INTERFACE.c **** * Function Name: LCD_INTERFACE_Init
  42:Generated_Source\PSoC6/LCD_INTERFACE.c **** ********************************************************************************
  43:Generated_Source\PSoC6/LCD_INTERFACE.c **** *
  44:Generated_Source\PSoC6/LCD_INTERFACE.c **** * Summary:
  45:Generated_Source\PSoC6/LCD_INTERFACE.c **** *  Inits/Restores default GraphicLCDIntf configuration provided with the customizer.
  46:Generated_Source\PSoC6/LCD_INTERFACE.c **** * 
  47:Generated_Source\PSoC6/LCD_INTERFACE.c **** *******************************************************************************/
  48:Generated_Source\PSoC6/LCD_INTERFACE.c **** void LCD_INTERFACE_Init(void) 
  49:Generated_Source\PSoC6/LCD_INTERFACE.c **** {
  45              		.loc 1 49 0
  46              		.cfi_startproc
  47              		@ args = 0, pretend = 0, frame = 0
  48              		@ frame_needed = 0, uses_anonymous_args = 0
  49              		@ link register save eliminated.
  50:Generated_Source\PSoC6/LCD_INTERFACE.c ****     /* Set low and high pulse widths for a read transaction */
  51:Generated_Source\PSoC6/LCD_INTERFACE.c ****     LCD_INTERFACE_READ_LO_PULSE_REG = LCD_INTERFACE_READ_LOW_PULSE;
  50              		.loc 1 51 0
  51 0000 0349     		ldr	r1, .L3
  52:Generated_Source\PSoC6/LCD_INTERFACE.c ****     LCD_INTERFACE_READ_HI_PULSE_REG = LCD_INTERFACE_READ_HIGH_PULSE;
  52              		.loc 1 52 0
  53 0002 044B     		ldr	r3, .L3+4
  51:Generated_Source\PSoC6/LCD_INTERFACE.c ****     LCD_INTERFACE_READ_HI_PULSE_REG = LCD_INTERFACE_READ_HIGH_PULSE;
  54              		.loc 1 51 0
  55 0004 1020     		movs	r0, #16
  56              		.loc 1 52 0
  57 0006 0422     		movs	r2, #4
  51:Generated_Source\PSoC6/LCD_INTERFACE.c ****     LCD_INTERFACE_READ_HI_PULSE_REG = LCD_INTERFACE_READ_HIGH_PULSE;
  58              		.loc 1 51 0
  59 0008 0870     		strb	r0, [r1]
  60              		.loc 1 52 0
ARM GAS  C:\Users\pearlstl\AppData\Local\Temp\ccLalVtj.s 			page 3


  61 000a 1A70     		strb	r2, [r3]
  62 000c 7047     		bx	lr
  63              	.L4:
  64 000e 00BF     		.align	2
  65              	.L3:
  66 0010 20123440 		.word	1077154336
  67 0014 20133440 		.word	1077154592
  68              		.cfi_endproc
  69              	.LFE133:
  70              		.size	LCD_INTERFACE_Init, .-LCD_INTERFACE_Init
  71              		.section	.text.LCD_INTERFACE_Start,"ax",%progbits
  72              		.align	2
  73              		.global	LCD_INTERFACE_Start
  74              		.thumb
  75              		.thumb_func
  76              		.type	LCD_INTERFACE_Start, %function
  77              	LCD_INTERFACE_Start:
  78              	.LFB134:
  53:Generated_Source\PSoC6/LCD_INTERFACE.c **** }
  54:Generated_Source\PSoC6/LCD_INTERFACE.c **** 
  55:Generated_Source\PSoC6/LCD_INTERFACE.c **** 
  56:Generated_Source\PSoC6/LCD_INTERFACE.c **** /*******************************************************************************
  57:Generated_Source\PSoC6/LCD_INTERFACE.c **** * Function Name: LCD_INTERFACE_Start
  58:Generated_Source\PSoC6/LCD_INTERFACE.c **** ********************************************************************************
  59:Generated_Source\PSoC6/LCD_INTERFACE.c **** *
  60:Generated_Source\PSoC6/LCD_INTERFACE.c **** * Summary:
  61:Generated_Source\PSoC6/LCD_INTERFACE.c **** *  Starts the GraphicLCDIntf interface.
  62:Generated_Source\PSoC6/LCD_INTERFACE.c **** *
  63:Generated_Source\PSoC6/LCD_INTERFACE.c **** * Global Variables:
  64:Generated_Source\PSoC6/LCD_INTERFACE.c **** *  LCD_INTERFACE_initVar - Used to check the initial configuration, modified on 
  65:Generated_Source\PSoC6/LCD_INTERFACE.c **** *  the first function call.
  66:Generated_Source\PSoC6/LCD_INTERFACE.c **** *
  67:Generated_Source\PSoC6/LCD_INTERFACE.c **** *******************************************************************************/
  68:Generated_Source\PSoC6/LCD_INTERFACE.c **** void LCD_INTERFACE_Start(void) 
  69:Generated_Source\PSoC6/LCD_INTERFACE.c **** {
  79              		.loc 1 69 0
  80              		.cfi_startproc
  81              		@ args = 0, pretend = 0, frame = 0
  82              		@ frame_needed = 0, uses_anonymous_args = 0
  83              		@ link register save eliminated.
  70:Generated_Source\PSoC6/LCD_INTERFACE.c ****     if (LCD_INTERFACE_initVar == 0u)
  84              		.loc 1 70 0
  85 0000 064B     		ldr	r3, .L11
  86 0002 1A78     		ldrb	r2, [r3]	@ zero_extendqisi2
  87 0004 4AB9     		cbnz	r2, .L9
  69:Generated_Source\PSoC6/LCD_INTERFACE.c ****     if (LCD_INTERFACE_initVar == 0u)
  88              		.loc 1 69 0
  89 0006 30B4     		push	{r4, r5}
  90              		.cfi_def_cfa_offset 8
  91              		.cfi_offset 4, -8
  92              		.cfi_offset 5, -4
  93              	.LBB18:
  94              	.LBB19:
  52:Generated_Source\PSoC6/LCD_INTERFACE.c **** }
  95              		.loc 1 52 0
  96 0008 0549     		ldr	r1, .L11+4
  51:Generated_Source\PSoC6/LCD_INTERFACE.c ****     LCD_INTERFACE_READ_HI_PULSE_REG = LCD_INTERFACE_READ_HIGH_PULSE;
ARM GAS  C:\Users\pearlstl\AppData\Local\Temp\ccLalVtj.s 			page 4


  97              		.loc 1 51 0
  98 000a 064C     		ldr	r4, .L11+8
  99 000c 1025     		movs	r5, #16
  52:Generated_Source\PSoC6/LCD_INTERFACE.c **** }
 100              		.loc 1 52 0
 101 000e 0420     		movs	r0, #4
 102              	.LBE19:
 103              	.LBE18:
  71:Generated_Source\PSoC6/LCD_INTERFACE.c ****     {
  72:Generated_Source\PSoC6/LCD_INTERFACE.c ****         LCD_INTERFACE_Init();
  73:Generated_Source\PSoC6/LCD_INTERFACE.c ****         LCD_INTERFACE_initVar = 1u;
 104              		.loc 1 73 0
 105 0010 0122     		movs	r2, #1
 106              	.LBB21:
 107              	.LBB20:
  51:Generated_Source\PSoC6/LCD_INTERFACE.c ****     LCD_INTERFACE_READ_HI_PULSE_REG = LCD_INTERFACE_READ_HIGH_PULSE;
 108              		.loc 1 51 0
 109 0012 2570     		strb	r5, [r4]
  52:Generated_Source\PSoC6/LCD_INTERFACE.c **** }
 110              		.loc 1 52 0
 111 0014 0870     		strb	r0, [r1]
 112              	.LBE20:
 113              	.LBE21:
 114              		.loc 1 73 0
 115 0016 1A70     		strb	r2, [r3]
  74:Generated_Source\PSoC6/LCD_INTERFACE.c ****     }
  75:Generated_Source\PSoC6/LCD_INTERFACE.c ****       
  76:Generated_Source\PSoC6/LCD_INTERFACE.c ****     LCD_INTERFACE_Enable();
  77:Generated_Source\PSoC6/LCD_INTERFACE.c **** }
 116              		.loc 1 77 0
 117 0018 30BC     		pop	{r4, r5}
 118              		.cfi_restore 5
 119              		.cfi_restore 4
 120              		.cfi_def_cfa_offset 0
 121              	.L9:
 122 001a 7047     		bx	lr
 123              	.L12:
 124              		.align	2
 125              	.L11:
 126 001c 00000000 		.word	.LANCHOR0
 127 0020 20133440 		.word	1077154592
 128 0024 20123440 		.word	1077154336
 129              		.cfi_endproc
 130              	.LFE134:
 131              		.size	LCD_INTERFACE_Start, .-LCD_INTERFACE_Start
 132              		.section	.text.LCD_INTERFACE_Stop,"ax",%progbits
 133              		.align	2
 134              		.global	LCD_INTERFACE_Stop
 135              		.thumb
 136              		.thumb_func
 137              		.type	LCD_INTERFACE_Stop, %function
 138              	LCD_INTERFACE_Stop:
 139              	.LFB135:
  78:Generated_Source\PSoC6/LCD_INTERFACE.c **** 
  79:Generated_Source\PSoC6/LCD_INTERFACE.c **** 
  80:Generated_Source\PSoC6/LCD_INTERFACE.c **** /*******************************************************************************
  81:Generated_Source\PSoC6/LCD_INTERFACE.c **** * Function Name: LCD_INTERFACE_Stop
ARM GAS  C:\Users\pearlstl\AppData\Local\Temp\ccLalVtj.s 			page 5


  82:Generated_Source\PSoC6/LCD_INTERFACE.c **** ********************************************************************************
  83:Generated_Source\PSoC6/LCD_INTERFACE.c **** *
  84:Generated_Source\PSoC6/LCD_INTERFACE.c **** * Summary:
  85:Generated_Source\PSoC6/LCD_INTERFACE.c **** *  Disables the GraphicLCDIntf interface.
  86:Generated_Source\PSoC6/LCD_INTERFACE.c **** *
  87:Generated_Source\PSoC6/LCD_INTERFACE.c **** *******************************************************************************/
  88:Generated_Source\PSoC6/LCD_INTERFACE.c **** void LCD_INTERFACE_Stop(void) 
  89:Generated_Source\PSoC6/LCD_INTERFACE.c **** {
 140              		.loc 1 89 0
 141              		.cfi_startproc
 142              		@ args = 0, pretend = 0, frame = 0
 143              		@ frame_needed = 0, uses_anonymous_args = 0
 144              		@ link register save eliminated.
 145 0000 7047     		bx	lr
 146              		.cfi_endproc
 147              	.LFE135:
 148              		.size	LCD_INTERFACE_Stop, .-LCD_INTERFACE_Stop
 149 0002 00BF     		.section	.text.LCD_INTERFACE_Write8,"ax",%progbits
 150              		.align	2
 151              		.global	LCD_INTERFACE_Write8
 152              		.thumb
 153              		.thumb_func
 154              		.type	LCD_INTERFACE_Write8, %function
 155              	LCD_INTERFACE_Write8:
 156              	.LFB136:
  90:Generated_Source\PSoC6/LCD_INTERFACE.c ****     /* Nothing to stop */
  91:Generated_Source\PSoC6/LCD_INTERFACE.c **** }
  92:Generated_Source\PSoC6/LCD_INTERFACE.c **** 
  93:Generated_Source\PSoC6/LCD_INTERFACE.c **** 
  94:Generated_Source\PSoC6/LCD_INTERFACE.c **** /*******************************************************************************
  95:Generated_Source\PSoC6/LCD_INTERFACE.c **** * Function Name: LCD_INTERFACE_Write8
  96:Generated_Source\PSoC6/LCD_INTERFACE.c **** ********************************************************************************
  97:Generated_Source\PSoC6/LCD_INTERFACE.c **** *
  98:Generated_Source\PSoC6/LCD_INTERFACE.c **** * Summary:
  99:Generated_Source\PSoC6/LCD_INTERFACE.c **** *  Initiates a write transaction on the 8-bit parallel
 100:Generated_Source\PSoC6/LCD_INTERFACE.c **** *  interface.
 101:Generated_Source\PSoC6/LCD_INTERFACE.c **** *  The write is a posted write, so this function will return before the write 
 102:Generated_Source\PSoC6/LCD_INTERFACE.c **** *  has actually completed on the interface. If the command queue is full, this 
 103:Generated_Source\PSoC6/LCD_INTERFACE.c **** *  function will not return until space is available to queue this write request.
 104:Generated_Source\PSoC6/LCD_INTERFACE.c **** *
 105:Generated_Source\PSoC6/LCD_INTERFACE.c **** * Parameters:
 106:Generated_Source\PSoC6/LCD_INTERFACE.c **** *  d_c:  Data(1) or Command(0) indication. Passed to the d_c pin.
 107:Generated_Source\PSoC6/LCD_INTERFACE.c **** *
 108:Generated_Source\PSoC6/LCD_INTERFACE.c **** *  wrData: Data sent to the do_msb[7:0] (most significant byte) 
 109:Generated_Source\PSoC6/LCD_INTERFACE.c **** *          and do_lsb[7:0] (least significant byte) pins. do_msb[7:0]
 110:Generated_Source\PSoC6/LCD_INTERFACE.c **** *          presents only for the 16-bit interface.
 111:Generated_Source\PSoC6/LCD_INTERFACE.c **** *
 112:Generated_Source\PSoC6/LCD_INTERFACE.c **** *******************************************************************************/
 113:Generated_Source\PSoC6/LCD_INTERFACE.c **** void LCD_INTERFACE_Write8(uint8 d_c, uint8 wrData) 
 114:Generated_Source\PSoC6/LCD_INTERFACE.c **** {
 157              		.loc 1 114 0
 158              		.cfi_startproc
 159              		@ args = 0, pretend = 0, frame = 0
 160              		@ frame_needed = 0, uses_anonymous_args = 0
 161              		@ link register save eliminated.
 162              	.LVL0:
 115:Generated_Source\PSoC6/LCD_INTERFACE.c ****     while((LCD_INTERFACE_STATUS_REG & LCD_INTERFACE_CMD_QUEUE_FULL) != 0u)
ARM GAS  C:\Users\pearlstl\AppData\Local\Temp\ccLalVtj.s 			page 6


 163              		.loc 1 115 0
 164 0000 044A     		ldr	r2, .L17
 165              	.L15:
 166              		.loc 1 115 0 is_stmt 0 discriminator 1
 167 0002 1378     		ldrb	r3, [r2]	@ zero_extendqisi2
 168 0004 DB07     		lsls	r3, r3, #31
 169 0006 FCD4     		bmi	.L15
 116:Generated_Source\PSoC6/LCD_INTERFACE.c ****     {
 117:Generated_Source\PSoC6/LCD_INTERFACE.c ****         /* The command queue is full */
 118:Generated_Source\PSoC6/LCD_INTERFACE.c ****     }   
 119:Generated_Source\PSoC6/LCD_INTERFACE.c ****     LCD_INTERFACE_CMD_FIFO_REG = d_c;
 170              		.loc 1 119 0 is_stmt 1
 171 0008 034A     		ldr	r2, .L17+4
 120:Generated_Source\PSoC6/LCD_INTERFACE.c ****     #if (LCD_INTERFACE_BUS_WIDTH == 16u)
 121:Generated_Source\PSoC6/LCD_INTERFACE.c ****         CY_SET_REG16(LCD_INTERFACE_DATA_FIFO_PTR, wrData);
 122:Generated_Source\PSoC6/LCD_INTERFACE.c ****     #else /* 8-bit interface */
 123:Generated_Source\PSoC6/LCD_INTERFACE.c ****         LCD_INTERFACE_DATA_FIFO_REG = wrData;
 172              		.loc 1 123 0
 173 000a 044B     		ldr	r3, .L17+8
 119:Generated_Source\PSoC6/LCD_INTERFACE.c ****     #if (LCD_INTERFACE_BUS_WIDTH == 16u)
 174              		.loc 1 119 0
 175 000c 1070     		strb	r0, [r2]
 176              		.loc 1 123 0
 177 000e 1970     		strb	r1, [r3]
 178 0010 7047     		bx	lr
 179              	.L18:
 180 0012 00BF     		.align	2
 181              	.L17:
 182 0014 24163440 		.word	1077155364
 183 0018 20143440 		.word	1077154848
 184 001c 20153440 		.word	1077155104
 185              		.cfi_endproc
 186              	.LFE136:
 187              		.size	LCD_INTERFACE_Write8, .-LCD_INTERFACE_Write8
 188              		.section	.text.LCD_INTERFACE_WriteM8,"ax",%progbits
 189              		.align	2
 190              		.global	LCD_INTERFACE_WriteM8
 191              		.thumb
 192              		.thumb_func
 193              		.type	LCD_INTERFACE_WriteM8, %function
 194              	LCD_INTERFACE_WriteM8:
 195              	.LFB137:
 124:Generated_Source\PSoC6/LCD_INTERFACE.c ****     #endif /* LCD_INTERFACE_BUS_WIDTH == 16u */
 125:Generated_Source\PSoC6/LCD_INTERFACE.c **** }
 126:Generated_Source\PSoC6/LCD_INTERFACE.c **** 	
 127:Generated_Source\PSoC6/LCD_INTERFACE.c **** 
 128:Generated_Source\PSoC6/LCD_INTERFACE.c **** /*******************************************************************************
 129:Generated_Source\PSoC6/LCD_INTERFACE.c **** * Function Name: LCD_INTERFACE_WriteM8
 130:Generated_Source\PSoC6/LCD_INTERFACE.c **** ********************************************************************************
 131:Generated_Source\PSoC6/LCD_INTERFACE.c **** *
 132:Generated_Source\PSoC6/LCD_INTERFACE.c **** * Summary:
 133:Generated_Source\PSoC6/LCD_INTERFACE.c **** *  Initiates multiple write transactions on the 8-bit 
 134:Generated_Source\PSoC6/LCD_INTERFACE.c **** *  parallel interface. The write is a posted write, so this function will return
 135:Generated_Source\PSoC6/LCD_INTERFACE.c **** *  before the write has actually completed on the interface. If the command 
 136:Generated_Source\PSoC6/LCD_INTERFACE.c **** *  queue is full, this function will not return until space is available to queue
 137:Generated_Source\PSoC6/LCD_INTERFACE.c **** *  this write request.
 138:Generated_Source\PSoC6/LCD_INTERFACE.c **** *
ARM GAS  C:\Users\pearlstl\AppData\Local\Temp\ccLalVtj.s 			page 7


 139:Generated_Source\PSoC6/LCD_INTERFACE.c **** * Parameters:
 140:Generated_Source\PSoC6/LCD_INTERFACE.c **** *  d_c:    The Data(1) or Command(0) indication. Passed to the d_c pin.
 141:Generated_Source\PSoC6/LCD_INTERFACE.c **** *
 142:Generated_Source\PSoC6/LCD_INTERFACE.c **** *  wrData: The pointer to the the first element of a data buffer sent to the do_msb[7:0]
 143:Generated_Source\PSoC6/LCD_INTERFACE.c **** *          (most significant byte) and do_lsb[7:0] (least significant byte) pins. 
 144:Generated_Source\PSoC6/LCD_INTERFACE.c **** *          do_msb[7:0] presents only for the 16-bit interface.
 145:Generated_Source\PSoC6/LCD_INTERFACE.c **** *
 146:Generated_Source\PSoC6/LCD_INTERFACE.c **** *  num:    The number of words/bytes to write.
 147:Generated_Source\PSoC6/LCD_INTERFACE.c **** *
 148:Generated_Source\PSoC6/LCD_INTERFACE.c **** *******************************************************************************/
 149:Generated_Source\PSoC6/LCD_INTERFACE.c **** void LCD_INTERFACE_WriteM8(uint8 d_c, uint8 wrData[], uint16 num) 
 150:Generated_Source\PSoC6/LCD_INTERFACE.c **** {
 196              		.loc 1 150 0
 197              		.cfi_startproc
 198              		@ args = 0, pretend = 0, frame = 0
 199              		@ frame_needed = 0, uses_anonymous_args = 0
 200              		@ link register save eliminated.
 201              	.LVL1:
 151:Generated_Source\PSoC6/LCD_INTERFACE.c ****     uint32 i;
 152:Generated_Source\PSoC6/LCD_INTERFACE.c ****     
 153:Generated_Source\PSoC6/LCD_INTERFACE.c ****     for(i = 0u; i < num; i++)
 202              		.loc 1 153 0
 203 0000 72B1     		cbz	r2, .L28
 150:Generated_Source\PSoC6/LCD_INTERFACE.c ****     uint32 i;
 204              		.loc 1 150 0
 205 0002 70B4     		push	{r4, r5, r6}
 206              		.cfi_def_cfa_offset 12
 207              		.cfi_offset 4, -12
 208              		.cfi_offset 5, -8
 209              		.cfi_offset 6, -4
 154:Generated_Source\PSoC6/LCD_INTERFACE.c ****     {
 155:Generated_Source\PSoC6/LCD_INTERFACE.c ****         while((LCD_INTERFACE_STATUS_REG & LCD_INTERFACE_CMD_QUEUE_FULL) != 0u)
 210              		.loc 1 155 0
 211 0004 074C     		ldr	r4, .L29
 156:Generated_Source\PSoC6/LCD_INTERFACE.c ****         {
 157:Generated_Source\PSoC6/LCD_INTERFACE.c ****             /* The command queue is full */
 158:Generated_Source\PSoC6/LCD_INTERFACE.c ****         }   
 159:Generated_Source\PSoC6/LCD_INTERFACE.c ****         LCD_INTERFACE_CMD_FIFO_REG = d_c;  
 212              		.loc 1 159 0
 213 0006 084E     		ldr	r6, .L29+4
 160:Generated_Source\PSoC6/LCD_INTERFACE.c ****  
 161:Generated_Source\PSoC6/LCD_INTERFACE.c ****         #if (LCD_INTERFACE_BUS_WIDTH == 16u)
 162:Generated_Source\PSoC6/LCD_INTERFACE.c ****             CY_SET_REG16(LCD_INTERFACE_DATA_FIFO_PTR, wrData[i]);
 163:Generated_Source\PSoC6/LCD_INTERFACE.c ****         #else /* 8-bit interface */
 164:Generated_Source\PSoC6/LCD_INTERFACE.c ****             LCD_INTERFACE_DATA_FIFO_REG = wrData[i];
 214              		.loc 1 164 0
 215 0008 084D     		ldr	r5, .L29+8
 216 000a 0A44     		add	r2, r2, r1
 217              	.LVL2:
 218              	.L21:
 155:Generated_Source\PSoC6/LCD_INTERFACE.c ****         {
 219              		.loc 1 155 0 discriminator 1
 220 000c 2378     		ldrb	r3, [r4]	@ zero_extendqisi2
 221 000e DB07     		lsls	r3, r3, #31
 222 0010 FCD4     		bmi	.L21
 159:Generated_Source\PSoC6/LCD_INTERFACE.c ****  
 223              		.loc 1 159 0 discriminator 2
ARM GAS  C:\Users\pearlstl\AppData\Local\Temp\ccLalVtj.s 			page 8


 224 0012 3070     		strb	r0, [r6]
 225              		.loc 1 164 0 discriminator 2
 226 0014 11F8013B 		ldrb	r3, [r1], #1	@ zero_extendqisi2
 227 0018 2B70     		strb	r3, [r5]
 228              	.LVL3:
 153:Generated_Source\PSoC6/LCD_INTERFACE.c ****     {
 229              		.loc 1 153 0 discriminator 2
 230 001a 9142     		cmp	r1, r2
 231 001c F6D1     		bne	.L21
 165:Generated_Source\PSoC6/LCD_INTERFACE.c ****         #endif /* LCD_INTERFACE_BUS_WIDTH == 16u */
 166:Generated_Source\PSoC6/LCD_INTERFACE.c ****     }
 167:Generated_Source\PSoC6/LCD_INTERFACE.c **** }
 232              		.loc 1 167 0
 233 001e 70BC     		pop	{r4, r5, r6}
 234              		.cfi_restore 6
 235              		.cfi_restore 5
 236              		.cfi_restore 4
 237              		.cfi_def_cfa_offset 0
 238              	.LVL4:
 239              	.L28:
 240 0020 7047     		bx	lr
 241              	.L30:
 242 0022 00BF     		.align	2
 243              	.L29:
 244 0024 24163440 		.word	1077155364
 245 0028 20143440 		.word	1077154848
 246 002c 20153440 		.word	1077155104
 247              		.cfi_endproc
 248              	.LFE137:
 249              		.size	LCD_INTERFACE_WriteM8, .-LCD_INTERFACE_WriteM8
 250              		.section	.text.LCD_INTERFACE_Read8,"ax",%progbits
 251              		.align	2
 252              		.global	LCD_INTERFACE_Read8
 253              		.thumb
 254              		.thumb_func
 255              		.type	LCD_INTERFACE_Read8, %function
 256              	LCD_INTERFACE_Read8:
 257              	.LFB138:
 168:Generated_Source\PSoC6/LCD_INTERFACE.c **** 
 169:Generated_Source\PSoC6/LCD_INTERFACE.c **** 
 170:Generated_Source\PSoC6/LCD_INTERFACE.c **** /*******************************************************************************
 171:Generated_Source\PSoC6/LCD_INTERFACE.c **** * Function Name: LCD_INTERFACE_Read8
 172:Generated_Source\PSoC6/LCD_INTERFACE.c **** ********************************************************************************
 173:Generated_Source\PSoC6/LCD_INTERFACE.c **** *
 174:Generated_Source\PSoC6/LCD_INTERFACE.c **** * Summary:
 175:Generated_Source\PSoC6/LCD_INTERFACE.c **** *  Initiates a read transaction on the 8-bit parallel interface.
 176:Generated_Source\PSoC6/LCD_INTERFACE.c **** *  The read will execute after all currently posted writes have completed. This 
 177:Generated_Source\PSoC6/LCD_INTERFACE.c **** *  function will wait until the read completes and then returns the read value.
 178:Generated_Source\PSoC6/LCD_INTERFACE.c **** *
 179:Generated_Source\PSoC6/LCD_INTERFACE.c **** * Parameters:
 180:Generated_Source\PSoC6/LCD_INTERFACE.c **** *  d_c: Data(1) or Command(0) indication. Passed to the d_c pin.
 181:Generated_Source\PSoC6/LCD_INTERFACE.c **** *
 182:Generated_Source\PSoC6/LCD_INTERFACE.c **** * Return:
 183:Generated_Source\PSoC6/LCD_INTERFACE.c **** *  The 16-bit read value from the di_msb[7:0] (most significant byte) and 
 184:Generated_Source\PSoC6/LCD_INTERFACE.c **** *  di_lsb[7:0] (least significant byte) pins for the 16-bit interface or the 
 185:Generated_Source\PSoC6/LCD_INTERFACE.c **** *  8-bit read value from the di_lsb[7:0] for 8-bit interface.
 186:Generated_Source\PSoC6/LCD_INTERFACE.c **** *
ARM GAS  C:\Users\pearlstl\AppData\Local\Temp\ccLalVtj.s 			page 9


 187:Generated_Source\PSoC6/LCD_INTERFACE.c **** *******************************************************************************/
 188:Generated_Source\PSoC6/LCD_INTERFACE.c **** uint8 LCD_INTERFACE_Read8(uint8 d_c) 
 189:Generated_Source\PSoC6/LCD_INTERFACE.c **** {
 258              		.loc 1 189 0
 259              		.cfi_startproc
 260              		@ args = 0, pretend = 0, frame = 0
 261              		@ frame_needed = 0, uses_anonymous_args = 0
 262              		@ link register save eliminated.
 263              	.LVL5:
 190:Generated_Source\PSoC6/LCD_INTERFACE.c ****     while((LCD_INTERFACE_STATUS_REG & LCD_INTERFACE_CMD_QUEUE_FULL) != 0u)
 264              		.loc 1 190 0
 265 0000 074A     		ldr	r2, .L37
 266              	.L32:
 267              		.loc 1 190 0 is_stmt 0 discriminator 1
 268 0002 1378     		ldrb	r3, [r2]	@ zero_extendqisi2
 269 0004 D907     		lsls	r1, r3, #31
 270 0006 FCD4     		bmi	.L32
 191:Generated_Source\PSoC6/LCD_INTERFACE.c ****     {
 192:Generated_Source\PSoC6/LCD_INTERFACE.c ****         /* The command queue is full */
 193:Generated_Source\PSoC6/LCD_INTERFACE.c ****     }   
 194:Generated_Source\PSoC6/LCD_INTERFACE.c ****     LCD_INTERFACE_CMD_FIFO_REG = d_c | LCD_INTERFACE_READ_COMMAND;
 271              		.loc 1 194 0 is_stmt 1
 272 0008 064B     		ldr	r3, .L37+4
 195:Generated_Source\PSoC6/LCD_INTERFACE.c ****     
 196:Generated_Source\PSoC6/LCD_INTERFACE.c ****     while((LCD_INTERFACE_STATUS_REG & LCD_INTERFACE_DATA_VALID) != LCD_INTERFACE_DATA_VALID)
 273              		.loc 1 196 0
 274 000a 054A     		ldr	r2, .L37
 194:Generated_Source\PSoC6/LCD_INTERFACE.c ****     
 275              		.loc 1 194 0
 276 000c 40F00200 		orr	r0, r0, #2
 277              	.LVL6:
 278 0010 1870     		strb	r0, [r3]
 279              	.L33:
 280              		.loc 1 196 0 discriminator 1
 281 0012 1378     		ldrb	r3, [r2]	@ zero_extendqisi2
 282 0014 9B07     		lsls	r3, r3, #30
 283 0016 FCD5     		bpl	.L33
 197:Generated_Source\PSoC6/LCD_INTERFACE.c ****     {
 198:Generated_Source\PSoC6/LCD_INTERFACE.c ****         /* Wait until input data is valid */
 199:Generated_Source\PSoC6/LCD_INTERFACE.c ****     }
 200:Generated_Source\PSoC6/LCD_INTERFACE.c ****     
 201:Generated_Source\PSoC6/LCD_INTERFACE.c ****     #if (LCD_INTERFACE_BUS_WIDTH == 8u)  /* 8-bit interface */
 202:Generated_Source\PSoC6/LCD_INTERFACE.c ****         return (LCD_INTERFACE_DIN_LSB_DATA_REG);
 284              		.loc 1 202 0
 285 0018 034B     		ldr	r3, .L37+8
 286 001a 1878     		ldrb	r0, [r3]	@ zero_extendqisi2
 203:Generated_Source\PSoC6/LCD_INTERFACE.c ****     #else   /* 16-bit interface */
 204:Generated_Source\PSoC6/LCD_INTERFACE.c ****         return (uint16)((uint16)LCD_INTERFACE_DIN_MSB_DATA_REG << 8u) | LCD_INTERFACE_DIN_LSB_DATA_
 205:Generated_Source\PSoC6/LCD_INTERFACE.c ****     #endif /* LCD_INTERFACE_BUS_WIDTH == 8u */
 206:Generated_Source\PSoC6/LCD_INTERFACE.c **** }
 287              		.loc 1 206 0
 288 001c 7047     		bx	lr
 289              	.L38:
 290 001e 00BF     		.align	2
 291              	.L37:
 292 0020 24163440 		.word	1077155364
 293 0024 20143440 		.word	1077154848
ARM GAS  C:\Users\pearlstl\AppData\Local\Temp\ccLalVtj.s 			page 10


 294 0028 20163440 		.word	1077155360
 295              		.cfi_endproc
 296              	.LFE138:
 297              		.size	LCD_INTERFACE_Read8, .-LCD_INTERFACE_Read8
 298              		.section	.text.LCD_INTERFACE_ReadM8,"ax",%progbits
 299              		.align	2
 300              		.global	LCD_INTERFACE_ReadM8
 301              		.thumb
 302              		.thumb_func
 303              		.type	LCD_INTERFACE_ReadM8, %function
 304              	LCD_INTERFACE_ReadM8:
 305              	.LFB139:
 207:Generated_Source\PSoC6/LCD_INTERFACE.c **** 
 208:Generated_Source\PSoC6/LCD_INTERFACE.c **** 
 209:Generated_Source\PSoC6/LCD_INTERFACE.c **** /*******************************************************************************
 210:Generated_Source\PSoC6/LCD_INTERFACE.c **** * Function Name: LCD_INTERFACE_ReadM8
 211:Generated_Source\PSoC6/LCD_INTERFACE.c **** ********************************************************************************
 212:Generated_Source\PSoC6/LCD_INTERFACE.c **** *
 213:Generated_Source\PSoC6/LCD_INTERFACE.c **** * Summary:
 214:Generated_Source\PSoC6/LCD_INTERFACE.c **** *  Initiates multiple read transactions on the 8-bit 
 215:Generated_Source\PSoC6/LCD_INTERFACE.c **** *  parallel interface. The read will execute after all currently posted writes 
 216:Generated_Source\PSoC6/LCD_INTERFACE.c **** *  have completed. This function will wait until the read completes and then 
 217:Generated_Source\PSoC6/LCD_INTERFACE.c **** *  returns the read value.
 218:Generated_Source\PSoC6/LCD_INTERFACE.c **** *
 219:Generated_Source\PSoC6/LCD_INTERFACE.c **** * Parameters:
 220:Generated_Source\PSoC6/LCD_INTERFACE.c **** *  d_c:    The Data(1) or Command(0) indication. Passed to the d_c pin.
 221:Generated_Source\PSoC6/LCD_INTERFACE.c **** *
 222:Generated_Source\PSoC6/LCD_INTERFACE.c **** *  rdData: The pointer to the the first element of a data buffer read from the do_msb[7:0]
 223:Generated_Source\PSoC6/LCD_INTERFACE.c **** *          (most significant byte) and do_lsb[7:0] (least significant byte) pins. 
 224:Generated_Source\PSoC6/LCD_INTERFACE.c **** *          do_msb[7:0] presents only for the 16-bit interface.
 225:Generated_Source\PSoC6/LCD_INTERFACE.c **** *
 226:Generated_Source\PSoC6/LCD_INTERFACE.c **** *  num:    The number of words/bytes to read.
 227:Generated_Source\PSoC6/LCD_INTERFACE.c **** *
 228:Generated_Source\PSoC6/LCD_INTERFACE.c **** *******************************************************************************/
 229:Generated_Source\PSoC6/LCD_INTERFACE.c **** void LCD_INTERFACE_ReadM8(uint8 d_c, uint8 rdData[], uint16 num) 
 230:Generated_Source\PSoC6/LCD_INTERFACE.c **** {
 306              		.loc 1 230 0
 307              		.cfi_startproc
 308              		@ args = 0, pretend = 0, frame = 0
 309              		@ frame_needed = 0, uses_anonymous_args = 0
 310              		@ link register save eliminated.
 311              	.LVL7:
 231:Generated_Source\PSoC6/LCD_INTERFACE.c ****     uint32 i;
 232:Generated_Source\PSoC6/LCD_INTERFACE.c ****     
 233:Generated_Source\PSoC6/LCD_INTERFACE.c ****     for(i = 0u; i < num; i++)
 312              		.loc 1 233 0
 313 0000 9AB1     		cbz	r2, .L51
 230:Generated_Source\PSoC6/LCD_INTERFACE.c ****     uint32 i;
 314              		.loc 1 230 0
 315 0002 70B4     		push	{r4, r5, r6}
 316              		.cfi_def_cfa_offset 12
 317              		.cfi_offset 4, -12
 318              		.cfi_offset 5, -8
 319              		.cfi_offset 6, -4
 320              	.LBB22:
 321              	.LBB23:
 190:Generated_Source\PSoC6/LCD_INTERFACE.c ****     {
ARM GAS  C:\Users\pearlstl\AppData\Local\Temp\ccLalVtj.s 			page 11


 322              		.loc 1 190 0
 323 0004 094B     		ldr	r3, .L52
 194:Generated_Source\PSoC6/LCD_INTERFACE.c ****     
 324              		.loc 1 194 0
 325 0006 0A4E     		ldr	r6, .L52+4
 202:Generated_Source\PSoC6/LCD_INTERFACE.c ****     #else   /* 16-bit interface */
 326              		.loc 1 202 0
 327 0008 0A4D     		ldr	r5, .L52+8
 328 000a 8C18     		adds	r4, r1, r2
 329 000c 40F00200 		orr	r0, r0, #2
 330              	.LVL8:
 331              	.L41:
 190:Generated_Source\PSoC6/LCD_INTERFACE.c ****     {
 332              		.loc 1 190 0
 333 0010 1A78     		ldrb	r2, [r3]	@ zero_extendqisi2
 334 0012 D207     		lsls	r2, r2, #31
 335 0014 FCD4     		bmi	.L41
 194:Generated_Source\PSoC6/LCD_INTERFACE.c ****     
 336              		.loc 1 194 0
 337 0016 3070     		strb	r0, [r6]
 338              	.L42:
 196:Generated_Source\PSoC6/LCD_INTERFACE.c ****     {
 339              		.loc 1 196 0
 340 0018 1A78     		ldrb	r2, [r3]	@ zero_extendqisi2
 341 001a 9207     		lsls	r2, r2, #30
 342 001c FCD5     		bpl	.L42
 202:Generated_Source\PSoC6/LCD_INTERFACE.c ****     #else   /* 16-bit interface */
 343              		.loc 1 202 0
 344 001e 2A78     		ldrb	r2, [r5]	@ zero_extendqisi2
 345              	.LBE23:
 346              	.LBE22:
 234:Generated_Source\PSoC6/LCD_INTERFACE.c ****     {
 235:Generated_Source\PSoC6/LCD_INTERFACE.c ****         rdData[i] = LCD_INTERFACE_Read8(d_c);
 347              		.loc 1 235 0
 348 0020 01F8012B 		strb	r2, [r1], #1
 349              	.LVL9:
 233:Generated_Source\PSoC6/LCD_INTERFACE.c ****     {
 350              		.loc 1 233 0
 351 0024 A142     		cmp	r1, r4
 352 0026 F3D1     		bne	.L41
 236:Generated_Source\PSoC6/LCD_INTERFACE.c ****     }
 237:Generated_Source\PSoC6/LCD_INTERFACE.c **** }
 353              		.loc 1 237 0
 354 0028 70BC     		pop	{r4, r5, r6}
 355              		.cfi_restore 6
 356              		.cfi_restore 5
 357              		.cfi_restore 4
 358              		.cfi_def_cfa_offset 0
 359              	.LVL10:
 360              	.L51:
 361 002a 7047     		bx	lr
 362              	.L53:
 363              		.align	2
 364              	.L52:
 365 002c 24163440 		.word	1077155364
 366 0030 20143440 		.word	1077154848
 367 0034 20163440 		.word	1077155360
ARM GAS  C:\Users\pearlstl\AppData\Local\Temp\ccLalVtj.s 			page 12


 368              		.cfi_endproc
 369              	.LFE139:
 370              		.size	LCD_INTERFACE_ReadM8, .-LCD_INTERFACE_ReadM8
 371              		.section	.text.LCD_INTERFACE_Write8_A0,"ax",%progbits
 372              		.align	2
 373              		.global	LCD_INTERFACE_Write8_A0
 374              		.thumb
 375              		.thumb_func
 376              		.type	LCD_INTERFACE_Write8_A0, %function
 377              	LCD_INTERFACE_Write8_A0:
 378              	.LFB140:
 238:Generated_Source\PSoC6/LCD_INTERFACE.c **** 
 239:Generated_Source\PSoC6/LCD_INTERFACE.c **** 
 240:Generated_Source\PSoC6/LCD_INTERFACE.c **** /*******************************************************************************
 241:Generated_Source\PSoC6/LCD_INTERFACE.c **** * Function Name: LCD_INTERFACE_Write8_A0
 242:Generated_Source\PSoC6/LCD_INTERFACE.c **** ********************************************************************************
 243:Generated_Source\PSoC6/LCD_INTERFACE.c **** *
 244:Generated_Source\PSoC6/LCD_INTERFACE.c **** * Summary:
 245:Generated_Source\PSoC6/LCD_INTERFACE.c **** *  Initiates a write transaction on the 8-bit parallel
 246:Generated_Source\PSoC6/LCD_INTERFACE.c **** *  interface with the d_c pin set to 0.
 247:Generated_Source\PSoC6/LCD_INTERFACE.c **** *  The write is a posted write, so this function will return before the write 
 248:Generated_Source\PSoC6/LCD_INTERFACE.c **** *  has actually completed on the interface. If the command queue is full, this 
 249:Generated_Source\PSoC6/LCD_INTERFACE.c **** *  function will not return until space is availale to queue this write request.
 250:Generated_Source\PSoC6/LCD_INTERFACE.c **** *
 251:Generated_Source\PSoC6/LCD_INTERFACE.c **** * Parameters:
 252:Generated_Source\PSoC6/LCD_INTERFACE.c **** *  wrData: Data sent on the do_msb[7:0] (most significant byte) 
 253:Generated_Source\PSoC6/LCD_INTERFACE.c **** *         and do_lsb[7:0] (least significant byte) pins. do_msb[7:0]
 254:Generated_Source\PSoC6/LCD_INTERFACE.c **** *         presents only for 16-bit interface.
 255:Generated_Source\PSoC6/LCD_INTERFACE.c **** *
 256:Generated_Source\PSoC6/LCD_INTERFACE.c **** *******************************************************************************/
 257:Generated_Source\PSoC6/LCD_INTERFACE.c **** void LCD_INTERFACE_Write8_A0(uint8 wrData) 
 258:Generated_Source\PSoC6/LCD_INTERFACE.c **** {
 379              		.loc 1 258 0
 380              		.cfi_startproc
 381              		@ args = 0, pretend = 0, frame = 0
 382              		@ frame_needed = 0, uses_anonymous_args = 0
 383              		@ link register save eliminated.
 384              	.LVL11:
 259:Generated_Source\PSoC6/LCD_INTERFACE.c ****     while((LCD_INTERFACE_STATUS_REG & LCD_INTERFACE_CMD_QUEUE_FULL) != 0u)
 385              		.loc 1 259 0
 386 0000 044A     		ldr	r2, .L57
 387              	.L55:
 388              		.loc 1 259 0 is_stmt 0 discriminator 1
 389 0002 1378     		ldrb	r3, [r2]	@ zero_extendqisi2
 390 0004 13F00103 		ands	r3, r3, #1
 391 0008 FBD1     		bne	.L55
 260:Generated_Source\PSoC6/LCD_INTERFACE.c ****     {
 261:Generated_Source\PSoC6/LCD_INTERFACE.c ****         /* Command queue is full */
 262:Generated_Source\PSoC6/LCD_INTERFACE.c ****     }   
 263:Generated_Source\PSoC6/LCD_INTERFACE.c ****     LCD_INTERFACE_CMD_FIFO_REG = 0u;
 392              		.loc 1 263 0 is_stmt 1
 393 000a 0349     		ldr	r1, .L57+4
 264:Generated_Source\PSoC6/LCD_INTERFACE.c ****     #if (LCD_INTERFACE_BUS_WIDTH == 16u)
 265:Generated_Source\PSoC6/LCD_INTERFACE.c ****         CY_SET_REG16(LCD_INTERFACE_DATA_FIFO_PTR, wrData);
 266:Generated_Source\PSoC6/LCD_INTERFACE.c ****     #else /* 8-bit interface */
 267:Generated_Source\PSoC6/LCD_INTERFACE.c ****         LCD_INTERFACE_DATA_FIFO_REG = wrData;
 394              		.loc 1 267 0
ARM GAS  C:\Users\pearlstl\AppData\Local\Temp\ccLalVtj.s 			page 13


 395 000c 034A     		ldr	r2, .L57+8
 263:Generated_Source\PSoC6/LCD_INTERFACE.c ****     #if (LCD_INTERFACE_BUS_WIDTH == 16u)
 396              		.loc 1 263 0
 397 000e 0B70     		strb	r3, [r1]
 398              		.loc 1 267 0
 399 0010 1070     		strb	r0, [r2]
 400 0012 7047     		bx	lr
 401              	.L58:
 402              		.align	2
 403              	.L57:
 404 0014 24163440 		.word	1077155364
 405 0018 20143440 		.word	1077154848
 406 001c 20153440 		.word	1077155104
 407              		.cfi_endproc
 408              	.LFE140:
 409              		.size	LCD_INTERFACE_Write8_A0, .-LCD_INTERFACE_Write8_A0
 410              		.section	.text.LCD_INTERFACE_Write8_A1,"ax",%progbits
 411              		.align	2
 412              		.global	LCD_INTERFACE_Write8_A1
 413              		.thumb
 414              		.thumb_func
 415              		.type	LCD_INTERFACE_Write8_A1, %function
 416              	LCD_INTERFACE_Write8_A1:
 417              	.LFB141:
 268:Generated_Source\PSoC6/LCD_INTERFACE.c ****     #endif /* LCD_INTERFACE_BUS_WIDTH == 16u */
 269:Generated_Source\PSoC6/LCD_INTERFACE.c **** }
 270:Generated_Source\PSoC6/LCD_INTERFACE.c **** 
 271:Generated_Source\PSoC6/LCD_INTERFACE.c **** 
 272:Generated_Source\PSoC6/LCD_INTERFACE.c **** /*******************************************************************************
 273:Generated_Source\PSoC6/LCD_INTERFACE.c **** * Function Name: LCD_INTERFACE_Write8_A1
 274:Generated_Source\PSoC6/LCD_INTERFACE.c **** ********************************************************************************
 275:Generated_Source\PSoC6/LCD_INTERFACE.c **** *
 276:Generated_Source\PSoC6/LCD_INTERFACE.c **** * Summary:
 277:Generated_Source\PSoC6/LCD_INTERFACE.c **** *  Initiates a write transaction on the 8-bit 
 278:Generated_Source\PSoC6/LCD_INTERFACE.c **** *  parallel interface with the d_c pin set to 1. The write is a posted write, 
 279:Generated_Source\PSoC6/LCD_INTERFACE.c **** *  so this function will return before the write has actually completed on the 
 280:Generated_Source\PSoC6/LCD_INTERFACE.c **** *  interface. If the command queue is full, this function will not return until
 281:Generated_Source\PSoC6/LCD_INTERFACE.c **** *  space is availale to queue this write request.
 282:Generated_Source\PSoC6/LCD_INTERFACE.c **** *
 283:Generated_Source\PSoC6/LCD_INTERFACE.c **** * Parameters:
 284:Generated_Source\PSoC6/LCD_INTERFACE.c **** *  wrData: Data sent on the do_msb[7:0] (most significant byte) 
 285:Generated_Source\PSoC6/LCD_INTERFACE.c **** *          and do_lsb[7:0] (least significant byte) pins. do_msb[7:0]
 286:Generated_Source\PSoC6/LCD_INTERFACE.c **** *          presents only for 16-bit interface.
 287:Generated_Source\PSoC6/LCD_INTERFACE.c **** *
 288:Generated_Source\PSoC6/LCD_INTERFACE.c **** *******************************************************************************/
 289:Generated_Source\PSoC6/LCD_INTERFACE.c **** void LCD_INTERFACE_Write8_A1(uint8 wrData) 
 290:Generated_Source\PSoC6/LCD_INTERFACE.c **** {
 418              		.loc 1 290 0
 419              		.cfi_startproc
 420              		@ args = 0, pretend = 0, frame = 0
 421              		@ frame_needed = 0, uses_anonymous_args = 0
 422              		@ link register save eliminated.
 423              	.LVL12:
 291:Generated_Source\PSoC6/LCD_INTERFACE.c ****     while((LCD_INTERFACE_STATUS_REG & LCD_INTERFACE_CMD_QUEUE_FULL) != 0u)
 424              		.loc 1 291 0
 425 0000 044A     		ldr	r2, .L62
 426              	.L60:
ARM GAS  C:\Users\pearlstl\AppData\Local\Temp\ccLalVtj.s 			page 14


 427              		.loc 1 291 0 is_stmt 0 discriminator 1
 428 0002 1378     		ldrb	r3, [r2]	@ zero_extendqisi2
 429 0004 DB07     		lsls	r3, r3, #31
 430 0006 FCD4     		bmi	.L60
 292:Generated_Source\PSoC6/LCD_INTERFACE.c ****     {
 293:Generated_Source\PSoC6/LCD_INTERFACE.c ****         /* Command queue is full */
 294:Generated_Source\PSoC6/LCD_INTERFACE.c ****     }   
 295:Generated_Source\PSoC6/LCD_INTERFACE.c ****     LCD_INTERFACE_CMD_FIFO_REG = 1u;
 431              		.loc 1 295 0 is_stmt 1
 432 0008 034A     		ldr	r2, .L62+4
 296:Generated_Source\PSoC6/LCD_INTERFACE.c ****     #if (LCD_INTERFACE_BUS_WIDTH == 16u)
 297:Generated_Source\PSoC6/LCD_INTERFACE.c ****         CY_SET_REG16(LCD_INTERFACE_DATA_FIFO_PTR, wrData);
 298:Generated_Source\PSoC6/LCD_INTERFACE.c ****     #else /* 8-bit interface */
 299:Generated_Source\PSoC6/LCD_INTERFACE.c ****         LCD_INTERFACE_DATA_FIFO_REG = wrData;
 433              		.loc 1 299 0
 434 000a 044B     		ldr	r3, .L62+8
 295:Generated_Source\PSoC6/LCD_INTERFACE.c ****     #if (LCD_INTERFACE_BUS_WIDTH == 16u)
 435              		.loc 1 295 0
 436 000c 0121     		movs	r1, #1
 437 000e 1170     		strb	r1, [r2]
 438              		.loc 1 299 0
 439 0010 1870     		strb	r0, [r3]
 440 0012 7047     		bx	lr
 441              	.L63:
 442              		.align	2
 443              	.L62:
 444 0014 24163440 		.word	1077155364
 445 0018 20143440 		.word	1077154848
 446 001c 20153440 		.word	1077155104
 447              		.cfi_endproc
 448              	.LFE141:
 449              		.size	LCD_INTERFACE_Write8_A1, .-LCD_INTERFACE_Write8_A1
 450              		.section	.text.LCD_INTERFACE_WriteM8_A0,"ax",%progbits
 451              		.align	2
 452              		.global	LCD_INTERFACE_WriteM8_A0
 453              		.thumb
 454              		.thumb_func
 455              		.type	LCD_INTERFACE_WriteM8_A0, %function
 456              	LCD_INTERFACE_WriteM8_A0:
 457              	.LFB142:
 300:Generated_Source\PSoC6/LCD_INTERFACE.c ****     #endif /* LCD_INTERFACE_BUS_WIDTH == 16u */
 301:Generated_Source\PSoC6/LCD_INTERFACE.c **** }
 302:Generated_Source\PSoC6/LCD_INTERFACE.c **** 
 303:Generated_Source\PSoC6/LCD_INTERFACE.c **** 
 304:Generated_Source\PSoC6/LCD_INTERFACE.c **** /*******************************************************************************
 305:Generated_Source\PSoC6/LCD_INTERFACE.c **** * Function Name: LCD_INTERFACE_WriteM8_A0
 306:Generated_Source\PSoC6/LCD_INTERFACE.c **** ********************************************************************************
 307:Generated_Source\PSoC6/LCD_INTERFACE.c **** *
 308:Generated_Source\PSoC6/LCD_INTERFACE.c **** * Summary:
 309:Generated_Source\PSoC6/LCD_INTERFACE.c **** *  Initiates multiple write transactions on the 8-bit 
 310:Generated_Source\PSoC6/LCD_INTERFACE.c **** *  parallel interface with the d_c pin set to 0. The write is a posted write, 
 311:Generated_Source\PSoC6/LCD_INTERFACE.c **** *  so this function will return before the write has actually completed on the 
 312:Generated_Source\PSoC6/LCD_INTERFACE.c **** *  interface. If the command queue is full, this function will not return until
 313:Generated_Source\PSoC6/LCD_INTERFACE.c **** *  space is availale to queue this write request.
 314:Generated_Source\PSoC6/LCD_INTERFACE.c **** *
 315:Generated_Source\PSoC6/LCD_INTERFACE.c **** * Parameters:
 316:Generated_Source\PSoC6/LCD_INTERFACE.c **** *  wrData: Pointer to the the first element of a data buffer sent on the 
ARM GAS  C:\Users\pearlstl\AppData\Local\Temp\ccLalVtj.s 			page 15


 317:Generated_Source\PSoC6/LCD_INTERFACE.c **** *          do_msb[7:0] (most significant byte) and do_lsb[7:0] (least significant
 318:Generated_Source\PSoC6/LCD_INTERFACE.c **** *          byte) pins. do_msb[7:0] presents only for 16-bit interface.
 319:Generated_Source\PSoC6/LCD_INTERFACE.c **** *
 320:Generated_Source\PSoC6/LCD_INTERFACE.c **** *  num:  Number of words/bytes to write.
 321:Generated_Source\PSoC6/LCD_INTERFACE.c **** *
 322:Generated_Source\PSoC6/LCD_INTERFACE.c **** *******************************************************************************/
 323:Generated_Source\PSoC6/LCD_INTERFACE.c **** void LCD_INTERFACE_WriteM8_A0(uint8 wrData[], int num) 
 324:Generated_Source\PSoC6/LCD_INTERFACE.c **** {
 458              		.loc 1 324 0
 459              		.cfi_startproc
 460              		@ args = 0, pretend = 0, frame = 0
 461              		@ frame_needed = 0, uses_anonymous_args = 0
 462              		@ link register save eliminated.
 463              	.LVL13:
 464 0000 89B2     		uxth	r1, r1
 465              	.LVL14:
 466              	.LBB24:
 467              	.LBB25:
 153:Generated_Source\PSoC6/LCD_INTERFACE.c ****     {
 468              		.loc 1 153 0
 469 0002 79B1     		cbz	r1, .L73
 470              	.LBE25:
 471              	.LBE24:
 472              		.loc 1 324 0
 473 0004 30B4     		push	{r4, r5}
 474              		.cfi_def_cfa_offset 8
 475              		.cfi_offset 4, -8
 476              		.cfi_offset 5, -4
 477              	.LBB27:
 478              	.LBB26:
 155:Generated_Source\PSoC6/LCD_INTERFACE.c ****         {
 479              		.loc 1 155 0
 480 0006 084A     		ldr	r2, .L74
 159:Generated_Source\PSoC6/LCD_INTERFACE.c ****  
 481              		.loc 1 159 0
 482 0008 084D     		ldr	r5, .L74+4
 164:Generated_Source\PSoC6/LCD_INTERFACE.c ****         #endif /* LCD_INTERFACE_BUS_WIDTH == 16u */
 483              		.loc 1 164 0
 484 000a 094C     		ldr	r4, .L74+8
 485 000c 0144     		add	r1, r1, r0
 486              	.LVL15:
 487              	.L66:
 155:Generated_Source\PSoC6/LCD_INTERFACE.c ****         {
 488              		.loc 1 155 0
 489 000e 1378     		ldrb	r3, [r2]	@ zero_extendqisi2
 490 0010 13F00103 		ands	r3, r3, #1
 491 0014 FBD1     		bne	.L66
 159:Generated_Source\PSoC6/LCD_INTERFACE.c ****  
 492              		.loc 1 159 0
 493 0016 2B70     		strb	r3, [r5]
 164:Generated_Source\PSoC6/LCD_INTERFACE.c ****         #endif /* LCD_INTERFACE_BUS_WIDTH == 16u */
 494              		.loc 1 164 0
 495 0018 10F8013B 		ldrb	r3, [r0], #1	@ zero_extendqisi2
 496 001c 2370     		strb	r3, [r4]
 497              	.LVL16:
 153:Generated_Source\PSoC6/LCD_INTERFACE.c ****     {
 498              		.loc 1 153 0
ARM GAS  C:\Users\pearlstl\AppData\Local\Temp\ccLalVtj.s 			page 16


 499 001e 8842     		cmp	r0, r1
 500 0020 F5D1     		bne	.L66
 501              	.LBE26:
 502              	.LBE27:
 325:Generated_Source\PSoC6/LCD_INTERFACE.c ****     LCD_INTERFACE_WriteM8(0u, wrData, (uint16)num);
 326:Generated_Source\PSoC6/LCD_INTERFACE.c **** }
 503              		.loc 1 326 0
 504 0022 30BC     		pop	{r4, r5}
 505              		.cfi_restore 5
 506              		.cfi_restore 4
 507              		.cfi_def_cfa_offset 0
 508              	.LVL17:
 509              	.L73:
 510 0024 7047     		bx	lr
 511              	.L75:
 512 0026 00BF     		.align	2
 513              	.L74:
 514 0028 24163440 		.word	1077155364
 515 002c 20143440 		.word	1077154848
 516 0030 20153440 		.word	1077155104
 517              		.cfi_endproc
 518              	.LFE142:
 519              		.size	LCD_INTERFACE_WriteM8_A0, .-LCD_INTERFACE_WriteM8_A0
 520              		.section	.text.LCD_INTERFACE_WriteM8_A1,"ax",%progbits
 521              		.align	2
 522              		.global	LCD_INTERFACE_WriteM8_A1
 523              		.thumb
 524              		.thumb_func
 525              		.type	LCD_INTERFACE_WriteM8_A1, %function
 526              	LCD_INTERFACE_WriteM8_A1:
 527              	.LFB143:
 327:Generated_Source\PSoC6/LCD_INTERFACE.c **** 
 328:Generated_Source\PSoC6/LCD_INTERFACE.c **** 
 329:Generated_Source\PSoC6/LCD_INTERFACE.c **** /*******************************************************************************
 330:Generated_Source\PSoC6/LCD_INTERFACE.c **** * Function Name: LCD_INTERFACE_WriteM8_A1
 331:Generated_Source\PSoC6/LCD_INTERFACE.c **** ********************************************************************************
 332:Generated_Source\PSoC6/LCD_INTERFACE.c **** *
 333:Generated_Source\PSoC6/LCD_INTERFACE.c **** * Summary:
 334:Generated_Source\PSoC6/LCD_INTERFACE.c **** *  Initiates multiple data write transactions on the 8-bit 
 335:Generated_Source\PSoC6/LCD_INTERFACE.c **** *  parallel interface with the d_c pin set to 1. The write is a posted write, 
 336:Generated_Source\PSoC6/LCD_INTERFACE.c **** *  so this function will return before the write has actually completed on the 
 337:Generated_Source\PSoC6/LCD_INTERFACE.c **** *  interface. If the command queue is full, this function will not return until
 338:Generated_Source\PSoC6/LCD_INTERFACE.c **** *  space is availale to queue this write request.
 339:Generated_Source\PSoC6/LCD_INTERFACE.c **** *
 340:Generated_Source\PSoC6/LCD_INTERFACE.c **** * Parameters:
 341:Generated_Source\PSoC6/LCD_INTERFACE.c **** *  wrData: Pointer to the the first element of a data buffer sent on the 
 342:Generated_Source\PSoC6/LCD_INTERFACE.c **** *          do_msb[7:0] (most significant byte) and do_lsb[7:0] (least significant
 343:Generated_Source\PSoC6/LCD_INTERFACE.c **** *          byte) pins. do_msb[7:0] presents only for 16-bit interface.
 344:Generated_Source\PSoC6/LCD_INTERFACE.c **** *
 345:Generated_Source\PSoC6/LCD_INTERFACE.c **** *  num:  Number of words/bytes to write.
 346:Generated_Source\PSoC6/LCD_INTERFACE.c **** *
 347:Generated_Source\PSoC6/LCD_INTERFACE.c **** *******************************************************************************/
 348:Generated_Source\PSoC6/LCD_INTERFACE.c **** void LCD_INTERFACE_WriteM8_A1(uint8 wrData[], int num) 
 349:Generated_Source\PSoC6/LCD_INTERFACE.c **** {
 528              		.loc 1 349 0
 529              		.cfi_startproc
 530              		@ args = 0, pretend = 0, frame = 0
ARM GAS  C:\Users\pearlstl\AppData\Local\Temp\ccLalVtj.s 			page 17


 531              		@ frame_needed = 0, uses_anonymous_args = 0
 532              		@ link register save eliminated.
 533              	.LVL18:
 534 0000 89B2     		uxth	r1, r1
 535              	.LVL19:
 536              	.LBB28:
 537              	.LBB29:
 153:Generated_Source\PSoC6/LCD_INTERFACE.c ****     {
 538              		.loc 1 153 0
 539 0002 81B1     		cbz	r1, .L85
 540              	.LBE29:
 541              	.LBE28:
 542              		.loc 1 349 0
 543 0004 70B4     		push	{r4, r5, r6}
 544              		.cfi_def_cfa_offset 12
 545              		.cfi_offset 4, -12
 546              		.cfi_offset 5, -8
 547              		.cfi_offset 6, -4
 548              	.LBB31:
 549              	.LBB30:
 155:Generated_Source\PSoC6/LCD_INTERFACE.c ****         {
 550              		.loc 1 155 0
 551 0006 084A     		ldr	r2, .L86
 159:Generated_Source\PSoC6/LCD_INTERFACE.c ****  
 552              		.loc 1 159 0
 553 0008 084E     		ldr	r6, .L86+4
 164:Generated_Source\PSoC6/LCD_INTERFACE.c ****         #endif /* LCD_INTERFACE_BUS_WIDTH == 16u */
 554              		.loc 1 164 0
 555 000a 094D     		ldr	r5, .L86+8
 556 000c 0144     		add	r1, r1, r0
 557              	.LVL20:
 159:Generated_Source\PSoC6/LCD_INTERFACE.c ****  
 558              		.loc 1 159 0
 559 000e 4FF00104 		mov	r4, #1
 560              	.LVL21:
 561              	.L78:
 155:Generated_Source\PSoC6/LCD_INTERFACE.c ****         {
 562              		.loc 1 155 0
 563 0012 1378     		ldrb	r3, [r2]	@ zero_extendqisi2
 564 0014 DB07     		lsls	r3, r3, #31
 565 0016 FCD4     		bmi	.L78
 159:Generated_Source\PSoC6/LCD_INTERFACE.c ****  
 566              		.loc 1 159 0
 567 0018 3470     		strb	r4, [r6]
 164:Generated_Source\PSoC6/LCD_INTERFACE.c ****         #endif /* LCD_INTERFACE_BUS_WIDTH == 16u */
 568              		.loc 1 164 0
 569 001a 10F8013B 		ldrb	r3, [r0], #1	@ zero_extendqisi2
 570 001e 2B70     		strb	r3, [r5]
 571              	.LVL22:
 153:Generated_Source\PSoC6/LCD_INTERFACE.c ****     {
 572              		.loc 1 153 0
 573 0020 8842     		cmp	r0, r1
 574 0022 F6D1     		bne	.L78
 575              	.LBE30:
 576              	.LBE31:
 350:Generated_Source\PSoC6/LCD_INTERFACE.c ****     LCD_INTERFACE_WriteM8(1u, wrData, (uint16)num);
 351:Generated_Source\PSoC6/LCD_INTERFACE.c **** }
ARM GAS  C:\Users\pearlstl\AppData\Local\Temp\ccLalVtj.s 			page 18


 577              		.loc 1 351 0
 578 0024 70BC     		pop	{r4, r5, r6}
 579              		.cfi_restore 6
 580              		.cfi_restore 5
 581              		.cfi_restore 4
 582              		.cfi_def_cfa_offset 0
 583              	.LVL23:
 584              	.L85:
 585 0026 7047     		bx	lr
 586              	.L87:
 587              		.align	2
 588              	.L86:
 589 0028 24163440 		.word	1077155364
 590 002c 20143440 		.word	1077154848
 591 0030 20153440 		.word	1077155104
 592              		.cfi_endproc
 593              	.LFE143:
 594              		.size	LCD_INTERFACE_WriteM8_A1, .-LCD_INTERFACE_WriteM8_A1
 595              		.section	.text.LCD_INTERFACE_Read8_A1,"ax",%progbits
 596              		.align	2
 597              		.global	LCD_INTERFACE_Read8_A1
 598              		.thumb
 599              		.thumb_func
 600              		.type	LCD_INTERFACE_Read8_A1, %function
 601              	LCD_INTERFACE_Read8_A1:
 602              	.LFB144:
 352:Generated_Source\PSoC6/LCD_INTERFACE.c **** 
 353:Generated_Source\PSoC6/LCD_INTERFACE.c **** 
 354:Generated_Source\PSoC6/LCD_INTERFACE.c **** /*******************************************************************************
 355:Generated_Source\PSoC6/LCD_INTERFACE.c **** * Function Name: LCD_INTERFACE_Read8_A1
 356:Generated_Source\PSoC6/LCD_INTERFACE.c **** ********************************************************************************
 357:Generated_Source\PSoC6/LCD_INTERFACE.c **** *
 358:Generated_Source\PSoC6/LCD_INTERFACE.c **** * Summary:
 359:Generated_Source\PSoC6/LCD_INTERFACE.c **** *  Initiates data read transaction on the 8-bit 
 360:Generated_Source\PSoC6/LCD_INTERFACE.c **** *  parallel interface with the d_c pin set to 1. The read will execute after 
 361:Generated_Source\PSoC6/LCD_INTERFACE.c **** *  all currently posted writes have completed. This function will wait until 
 362:Generated_Source\PSoC6/LCD_INTERFACE.c **** *  the read completes and then returns the read value.
 363:Generated_Source\PSoC6/LCD_INTERFACE.c **** *
 364:Generated_Source\PSoC6/LCD_INTERFACE.c **** * Return:
 365:Generated_Source\PSoC6/LCD_INTERFACE.c **** *  The 16-bit read value from the di_msb[7:0] (most significant byte) and 
 366:Generated_Source\PSoC6/LCD_INTERFACE.c **** *  di_lsb[7:0] (least significant byte) pins for the 16-bit interface or the 
 367:Generated_Source\PSoC6/LCD_INTERFACE.c **** *  8-bit read value from the di_lsb[7:0] for 8-bit interface.
 368:Generated_Source\PSoC6/LCD_INTERFACE.c **** *
 369:Generated_Source\PSoC6/LCD_INTERFACE.c **** *******************************************************************************/
 370:Generated_Source\PSoC6/LCD_INTERFACE.c **** uint8 LCD_INTERFACE_Read8_A1(void) 
 371:Generated_Source\PSoC6/LCD_INTERFACE.c **** {
 603              		.loc 1 371 0
 604              		.cfi_startproc
 605              		@ args = 0, pretend = 0, frame = 0
 606              		@ frame_needed = 0, uses_anonymous_args = 0
 607              		@ link register save eliminated.
 608              	.LVL24:
 609              	.LBB32:
 610              	.LBB33:
 190:Generated_Source\PSoC6/LCD_INTERFACE.c ****     {
 611              		.loc 1 190 0
 612 0000 064A     		ldr	r2, .L94
ARM GAS  C:\Users\pearlstl\AppData\Local\Temp\ccLalVtj.s 			page 19


 613              	.L89:
 614 0002 1378     		ldrb	r3, [r2]	@ zero_extendqisi2
 615 0004 D907     		lsls	r1, r3, #31
 616 0006 FCD4     		bmi	.L89
 194:Generated_Source\PSoC6/LCD_INTERFACE.c ****     
 617              		.loc 1 194 0
 618 0008 054B     		ldr	r3, .L94+4
 196:Generated_Source\PSoC6/LCD_INTERFACE.c ****     {
 619              		.loc 1 196 0
 620 000a 044A     		ldr	r2, .L94
 194:Generated_Source\PSoC6/LCD_INTERFACE.c ****     
 621              		.loc 1 194 0
 622 000c 0321     		movs	r1, #3
 623 000e 1970     		strb	r1, [r3]
 624              	.L90:
 196:Generated_Source\PSoC6/LCD_INTERFACE.c ****     {
 625              		.loc 1 196 0
 626 0010 1378     		ldrb	r3, [r2]	@ zero_extendqisi2
 627 0012 9B07     		lsls	r3, r3, #30
 628 0014 FCD5     		bpl	.L90
 629              	.LVL25:
 202:Generated_Source\PSoC6/LCD_INTERFACE.c ****     #else   /* 16-bit interface */
 630              		.loc 1 202 0
 631 0016 034B     		ldr	r3, .L94+8
 632 0018 1878     		ldrb	r0, [r3]	@ zero_extendqisi2
 633              	.LBE33:
 634              	.LBE32:
 372:Generated_Source\PSoC6/LCD_INTERFACE.c ****     return LCD_INTERFACE_Read8(1u);
 373:Generated_Source\PSoC6/LCD_INTERFACE.c **** }
 635              		.loc 1 373 0
 636 001a 7047     		bx	lr
 637              	.L95:
 638              		.align	2
 639              	.L94:
 640 001c 24163440 		.word	1077155364
 641 0020 20143440 		.word	1077154848
 642 0024 20163440 		.word	1077155360
 643              		.cfi_endproc
 644              	.LFE144:
 645              		.size	LCD_INTERFACE_Read8_A1, .-LCD_INTERFACE_Read8_A1
 646              		.section	.text.LCD_INTERFACE_ReadM8_A1,"ax",%progbits
 647              		.align	2
 648              		.global	LCD_INTERFACE_ReadM8_A1
 649              		.thumb
 650              		.thumb_func
 651              		.type	LCD_INTERFACE_ReadM8_A1, %function
 652              	LCD_INTERFACE_ReadM8_A1:
 653              	.LFB145:
 374:Generated_Source\PSoC6/LCD_INTERFACE.c **** 
 375:Generated_Source\PSoC6/LCD_INTERFACE.c **** 
 376:Generated_Source\PSoC6/LCD_INTERFACE.c **** /*******************************************************************************
 377:Generated_Source\PSoC6/LCD_INTERFACE.c **** * Function Name: LCD_INTERFACE_ReadM8_A1
 378:Generated_Source\PSoC6/LCD_INTERFACE.c **** ********************************************************************************
 379:Generated_Source\PSoC6/LCD_INTERFACE.c **** *
 380:Generated_Source\PSoC6/LCD_INTERFACE.c **** * Summary:
 381:Generated_Source\PSoC6/LCD_INTERFACE.c **** *  Initiates multiple data read transactions on the 8-bit 
 382:Generated_Source\PSoC6/LCD_INTERFACE.c **** *  parallel interface with the d_c pin set to 1. The read will execute after all 
ARM GAS  C:\Users\pearlstl\AppData\Local\Temp\ccLalVtj.s 			page 20


 383:Generated_Source\PSoC6/LCD_INTERFACE.c **** *  currently posted writes have completed. This function will wait until the 
 384:Generated_Source\PSoC6/LCD_INTERFACE.c **** *  read completes and then returns the read value.
 385:Generated_Source\PSoC6/LCD_INTERFACE.c **** *
 386:Generated_Source\PSoC6/LCD_INTERFACE.c **** * Parameters:
 387:Generated_Source\PSoC6/LCD_INTERFACE.c **** *  rdData: Pointer to the the first element of a data buffer read from the do_msb[7:0]
 388:Generated_Source\PSoC6/LCD_INTERFACE.c **** *        (most significant byte) and do_lsb[7:0] (least significant byte) pins. 
 389:Generated_Source\PSoC6/LCD_INTERFACE.c **** *        do_msb[7:0] presents only for 16-bit interface.
 390:Generated_Source\PSoC6/LCD_INTERFACE.c **** *
 391:Generated_Source\PSoC6/LCD_INTERFACE.c **** *  num:  Number of words/bytes to read.
 392:Generated_Source\PSoC6/LCD_INTERFACE.c **** *
 393:Generated_Source\PSoC6/LCD_INTERFACE.c **** *******************************************************************************/
 394:Generated_Source\PSoC6/LCD_INTERFACE.c **** void LCD_INTERFACE_ReadM8_A1(uint8 rdData[], int num) 
 395:Generated_Source\PSoC6/LCD_INTERFACE.c **** {
 654              		.loc 1 395 0
 655              		.cfi_startproc
 656              		@ args = 0, pretend = 0, frame = 0
 657              		@ frame_needed = 0, uses_anonymous_args = 0
 658              		@ link register save eliminated.
 659              	.LVL26:
 660 0000 89B2     		uxth	r1, r1
 661              	.LVL27:
 662              	.LBB34:
 663              	.LBB35:
 233:Generated_Source\PSoC6/LCD_INTERFACE.c ****     {
 664              		.loc 1 233 0
 665 0002 99B1     		cbz	r1, .L108
 666              	.LBE35:
 667              	.LBE34:
 668              		.loc 1 395 0
 669 0004 70B4     		push	{r4, r5, r6}
 670              		.cfi_def_cfa_offset 12
 671              		.cfi_offset 4, -12
 672              		.cfi_offset 5, -8
 673              		.cfi_offset 6, -4
 674              	.LBB39:
 675              	.LBB38:
 676              	.LBB36:
 677              	.LBB37:
 190:Generated_Source\PSoC6/LCD_INTERFACE.c ****     {
 678              		.loc 1 190 0
 679 0006 0A4B     		ldr	r3, .L109
 194:Generated_Source\PSoC6/LCD_INTERFACE.c ****     
 680              		.loc 1 194 0
 681 0008 0A4E     		ldr	r6, .L109+4
 202:Generated_Source\PSoC6/LCD_INTERFACE.c ****     #else   /* 16-bit interface */
 682              		.loc 1 202 0
 683 000a 0B4D     		ldr	r5, .L109+8
 684 000c 0144     		add	r1, r1, r0
 685              	.LVL28:
 194:Generated_Source\PSoC6/LCD_INTERFACE.c ****     
 686              		.loc 1 194 0
 687 000e 4FF00304 		mov	r4, #3
 688              	.LVL29:
 689              	.L98:
 190:Generated_Source\PSoC6/LCD_INTERFACE.c ****     {
 690              		.loc 1 190 0
 691 0012 1A78     		ldrb	r2, [r3]	@ zero_extendqisi2
ARM GAS  C:\Users\pearlstl\AppData\Local\Temp\ccLalVtj.s 			page 21


 692 0014 D207     		lsls	r2, r2, #31
 693 0016 FCD4     		bmi	.L98
 194:Generated_Source\PSoC6/LCD_INTERFACE.c ****     
 694              		.loc 1 194 0
 695 0018 3470     		strb	r4, [r6]
 696              	.L99:
 196:Generated_Source\PSoC6/LCD_INTERFACE.c ****     {
 697              		.loc 1 196 0
 698 001a 1A78     		ldrb	r2, [r3]	@ zero_extendqisi2
 699 001c 9207     		lsls	r2, r2, #30
 700 001e FCD5     		bpl	.L99
 202:Generated_Source\PSoC6/LCD_INTERFACE.c ****     #else   /* 16-bit interface */
 701              		.loc 1 202 0
 702 0020 2A78     		ldrb	r2, [r5]	@ zero_extendqisi2
 703              	.LBE37:
 704              	.LBE36:
 235:Generated_Source\PSoC6/LCD_INTERFACE.c ****     }
 705              		.loc 1 235 0
 706 0022 00F8012B 		strb	r2, [r0], #1
 707              	.LVL30:
 233:Generated_Source\PSoC6/LCD_INTERFACE.c ****     {
 708              		.loc 1 233 0
 709 0026 8842     		cmp	r0, r1
 710 0028 F3D1     		bne	.L98
 711              	.LBE38:
 712              	.LBE39:
 396:Generated_Source\PSoC6/LCD_INTERFACE.c ****     LCD_INTERFACE_ReadM8(1u, rdData, (uint16)num);
 397:Generated_Source\PSoC6/LCD_INTERFACE.c **** }
 713              		.loc 1 397 0
 714 002a 70BC     		pop	{r4, r5, r6}
 715              		.cfi_restore 6
 716              		.cfi_restore 5
 717              		.cfi_restore 4
 718              		.cfi_def_cfa_offset 0
 719              	.LVL31:
 720              	.L108:
 721 002c 7047     		bx	lr
 722              	.L110:
 723 002e 00BF     		.align	2
 724              	.L109:
 725 0030 24163440 		.word	1077155364
 726 0034 20143440 		.word	1077154848
 727 0038 20163440 		.word	1077155360
 728              		.cfi_endproc
 729              	.LFE145:
 730              		.size	LCD_INTERFACE_ReadM8_A1, .-LCD_INTERFACE_ReadM8_A1
 731              		.global	LCD_INTERFACE_initVar
 732              		.bss
 733              		.set	.LANCHOR0,. + 0
 734              		.type	LCD_INTERFACE_initVar, %object
 735              		.size	LCD_INTERFACE_initVar, 1
 736              	LCD_INTERFACE_initVar:
 737 0000 00       		.space	1
 738              		.text
 739              	.Letext0:
 740              		.file 2 "c:\\program files (x86)\\cypress\\psoc creator\\4.2\\psoc creator\\import\\gnu\\arm\\5.4.
 741              		.file 3 "c:\\program files (x86)\\cypress\\psoc creator\\4.2\\psoc creator\\import\\gnu\\arm\\5.4.
ARM GAS  C:\Users\pearlstl\AppData\Local\Temp\ccLalVtj.s 			page 22


 742              		.file 4 "Generated_Source\\PSoC6\\pdl\\drivers/peripheral/syslib/cy_syslib.h"
 743              		.file 5 "Generated_Source\\PSoC6\\pdl\\cmsis/include/core_cm4.h"