ARM GAS  C:\Users\pearlstl\AppData\Local\Temp\ccRrapnb.s 			page 1


   1              		.syntax unified
   2              		.cpu cortex-m4
   3              		.eabi_attribute 27, 1
   4              		.fpu fpv4-sp-d16
   5              		.eabi_attribute 20, 1
   6              		.eabi_attribute 21, 1
   7              		.eabi_attribute 23, 3
   8              		.eabi_attribute 24, 1
   9              		.eabi_attribute 25, 1
  10              		.eabi_attribute 26, 1
  11              		.eabi_attribute 30, 2
  12              		.eabi_attribute 34, 1
  13              		.eabi_attribute 18, 4
  14              		.thumb
  15              		.syntax unified
  16              		.file	"lv_async.c"
  17              		.text
  18              	.Ltext0:
  19              		.cfi_sections	.debug_frame
  20              		.section	.text.lv_async_task_cb,"ax",%progbits
  21              		.align	2
  22              		.thumb
  23              		.thumb_func
  24              		.type	lv_async_task_cb, %function
  25              	lv_async_task_cb:
  26              	.LFB1:
  27              		.file 1 "..\\..\\..\\lvgl\\version_6.1.2\\lvgl\\src\\lv_misc\\lv_async.c"
   1:..\..\..\lvgl\version_6.1.2\lvgl\src\lv_misc/lv_async.c **** /**
   2:..\..\..\lvgl\version_6.1.2\lvgl\src\lv_misc/lv_async.c ****  * @file lv_async.c
   3:..\..\..\lvgl\version_6.1.2\lvgl\src\lv_misc/lv_async.c ****  *
   4:..\..\..\lvgl\version_6.1.2\lvgl\src\lv_misc/lv_async.c ****  */
   5:..\..\..\lvgl\version_6.1.2\lvgl\src\lv_misc/lv_async.c **** 
   6:..\..\..\lvgl\version_6.1.2\lvgl\src\lv_misc/lv_async.c **** /*********************
   7:..\..\..\lvgl\version_6.1.2\lvgl\src\lv_misc/lv_async.c ****  *      INCLUDES
   8:..\..\..\lvgl\version_6.1.2\lvgl\src\lv_misc/lv_async.c ****  *********************/
   9:..\..\..\lvgl\version_6.1.2\lvgl\src\lv_misc/lv_async.c **** 
  10:..\..\..\lvgl\version_6.1.2\lvgl\src\lv_misc/lv_async.c **** #include "lv_async.h"
  11:..\..\..\lvgl\version_6.1.2\lvgl\src\lv_misc/lv_async.c **** 
  12:..\..\..\lvgl\version_6.1.2\lvgl\src\lv_misc/lv_async.c **** /*********************
  13:..\..\..\lvgl\version_6.1.2\lvgl\src\lv_misc/lv_async.c ****  *      DEFINES
  14:..\..\..\lvgl\version_6.1.2\lvgl\src\lv_misc/lv_async.c ****  *********************/
  15:..\..\..\lvgl\version_6.1.2\lvgl\src\lv_misc/lv_async.c **** 
  16:..\..\..\lvgl\version_6.1.2\lvgl\src\lv_misc/lv_async.c **** /**********************
  17:..\..\..\lvgl\version_6.1.2\lvgl\src\lv_misc/lv_async.c ****  *      TYPEDEFS
  18:..\..\..\lvgl\version_6.1.2\lvgl\src\lv_misc/lv_async.c ****  **********************/
  19:..\..\..\lvgl\version_6.1.2\lvgl\src\lv_misc/lv_async.c **** 
  20:..\..\..\lvgl\version_6.1.2\lvgl\src\lv_misc/lv_async.c **** /**********************
  21:..\..\..\lvgl\version_6.1.2\lvgl\src\lv_misc/lv_async.c ****  *  STATIC PROTOTYPES
  22:..\..\..\lvgl\version_6.1.2\lvgl\src\lv_misc/lv_async.c ****  **********************/
  23:..\..\..\lvgl\version_6.1.2\lvgl\src\lv_misc/lv_async.c **** 
  24:..\..\..\lvgl\version_6.1.2\lvgl\src\lv_misc/lv_async.c **** static void lv_async_task_cb(lv_task_t *task);
  25:..\..\..\lvgl\version_6.1.2\lvgl\src\lv_misc/lv_async.c **** 
  26:..\..\..\lvgl\version_6.1.2\lvgl\src\lv_misc/lv_async.c **** /**********************
  27:..\..\..\lvgl\version_6.1.2\lvgl\src\lv_misc/lv_async.c ****  *  STATIC VARIABLES
  28:..\..\..\lvgl\version_6.1.2\lvgl\src\lv_misc/lv_async.c ****  **********************/
  29:..\..\..\lvgl\version_6.1.2\lvgl\src\lv_misc/lv_async.c **** 
  30:..\..\..\lvgl\version_6.1.2\lvgl\src\lv_misc/lv_async.c **** /**********************
ARM GAS  C:\Users\pearlstl\AppData\Local\Temp\ccRrapnb.s 			page 2


  31:..\..\..\lvgl\version_6.1.2\lvgl\src\lv_misc/lv_async.c ****  *      MACROS
  32:..\..\..\lvgl\version_6.1.2\lvgl\src\lv_misc/lv_async.c ****  **********************/
  33:..\..\..\lvgl\version_6.1.2\lvgl\src\lv_misc/lv_async.c **** 
  34:..\..\..\lvgl\version_6.1.2\lvgl\src\lv_misc/lv_async.c **** /**********************
  35:..\..\..\lvgl\version_6.1.2\lvgl\src\lv_misc/lv_async.c ****  *   GLOBAL FUNCTIONS
  36:..\..\..\lvgl\version_6.1.2\lvgl\src\lv_misc/lv_async.c ****  **********************/
  37:..\..\..\lvgl\version_6.1.2\lvgl\src\lv_misc/lv_async.c **** 
  38:..\..\..\lvgl\version_6.1.2\lvgl\src\lv_misc/lv_async.c **** lv_res_t lv_async_call(lv_async_cb_t async_xcb, void * user_data)
  39:..\..\..\lvgl\version_6.1.2\lvgl\src\lv_misc/lv_async.c **** {
  40:..\..\..\lvgl\version_6.1.2\lvgl\src\lv_misc/lv_async.c ****     /*Allocate an info structure */
  41:..\..\..\lvgl\version_6.1.2\lvgl\src\lv_misc/lv_async.c ****     lv_async_info_t *info = lv_mem_alloc(sizeof(lv_async_info_t));
  42:..\..\..\lvgl\version_6.1.2\lvgl\src\lv_misc/lv_async.c ****     
  43:..\..\..\lvgl\version_6.1.2\lvgl\src\lv_misc/lv_async.c ****     if(info == NULL)
  44:..\..\..\lvgl\version_6.1.2\lvgl\src\lv_misc/lv_async.c ****         return LV_RES_INV;
  45:..\..\..\lvgl\version_6.1.2\lvgl\src\lv_misc/lv_async.c ****     
  46:..\..\..\lvgl\version_6.1.2\lvgl\src\lv_misc/lv_async.c ****     /* Create a new task */
  47:..\..\..\lvgl\version_6.1.2\lvgl\src\lv_misc/lv_async.c ****     /* Use highest priority so that it will run before a refresh */
  48:..\..\..\lvgl\version_6.1.2\lvgl\src\lv_misc/lv_async.c ****     lv_task_t *task = lv_task_create(lv_async_task_cb, 0, LV_TASK_PRIO_HIGHEST, info);
  49:..\..\..\lvgl\version_6.1.2\lvgl\src\lv_misc/lv_async.c ****     
  50:..\..\..\lvgl\version_6.1.2\lvgl\src\lv_misc/lv_async.c ****     if(task == NULL) {
  51:..\..\..\lvgl\version_6.1.2\lvgl\src\lv_misc/lv_async.c ****         lv_mem_free(info);
  52:..\..\..\lvgl\version_6.1.2\lvgl\src\lv_misc/lv_async.c ****         return LV_RES_INV;
  53:..\..\..\lvgl\version_6.1.2\lvgl\src\lv_misc/lv_async.c ****     }
  54:..\..\..\lvgl\version_6.1.2\lvgl\src\lv_misc/lv_async.c ****     
  55:..\..\..\lvgl\version_6.1.2\lvgl\src\lv_misc/lv_async.c ****     info->cb = async_xcb;
  56:..\..\..\lvgl\version_6.1.2\lvgl\src\lv_misc/lv_async.c ****     info->user_data = user_data;
  57:..\..\..\lvgl\version_6.1.2\lvgl\src\lv_misc/lv_async.c **** 
  58:..\..\..\lvgl\version_6.1.2\lvgl\src\lv_misc/lv_async.c ****     /* Set the task's user data */
  59:..\..\..\lvgl\version_6.1.2\lvgl\src\lv_misc/lv_async.c ****     task->user_data = info;
  60:..\..\..\lvgl\version_6.1.2\lvgl\src\lv_misc/lv_async.c ****     lv_task_once(task);
  61:..\..\..\lvgl\version_6.1.2\lvgl\src\lv_misc/lv_async.c ****     return LV_RES_OK;
  62:..\..\..\lvgl\version_6.1.2\lvgl\src\lv_misc/lv_async.c **** }
  63:..\..\..\lvgl\version_6.1.2\lvgl\src\lv_misc/lv_async.c **** 
  64:..\..\..\lvgl\version_6.1.2\lvgl\src\lv_misc/lv_async.c **** /**********************
  65:..\..\..\lvgl\version_6.1.2\lvgl\src\lv_misc/lv_async.c ****  *   STATIC FUNCTIONS
  66:..\..\..\lvgl\version_6.1.2\lvgl\src\lv_misc/lv_async.c ****  **********************/
  67:..\..\..\lvgl\version_6.1.2\lvgl\src\lv_misc/lv_async.c **** 
  68:..\..\..\lvgl\version_6.1.2\lvgl\src\lv_misc/lv_async.c **** static void lv_async_task_cb(lv_task_t *task)
  69:..\..\..\lvgl\version_6.1.2\lvgl\src\lv_misc/lv_async.c **** {
  28              		.loc 1 69 0
  29              		.cfi_startproc
  30              		@ args = 0, pretend = 0, frame = 0
  31              		@ frame_needed = 0, uses_anonymous_args = 0
  32              	.LVL0:
  33 0000 10B5     		push	{r4, lr}
  34              		.cfi_def_cfa_offset 8
  35              		.cfi_offset 4, -8
  36              		.cfi_offset 14, -4
  70:..\..\..\lvgl\version_6.1.2\lvgl\src\lv_misc/lv_async.c ****     lv_async_info_t *info = (lv_async_info_t *)task->user_data;
  37              		.loc 1 70 0
  38 0002 C468     		ldr	r4, [r0, #12]
  39              	.LVL1:
  71:..\..\..\lvgl\version_6.1.2\lvgl\src\lv_misc/lv_async.c ****     
  72:..\..\..\lvgl\version_6.1.2\lvgl\src\lv_misc/lv_async.c ****     info->cb(info->user_data);
  40              		.loc 1 72 0
  41 0004 6068     		ldr	r0, [r4, #4]
  42              	.LVL2:
ARM GAS  C:\Users\pearlstl\AppData\Local\Temp\ccRrapnb.s 			page 3


  43 0006 2368     		ldr	r3, [r4]
  44 0008 9847     		blx	r3
  45              	.LVL3:
  73:..\..\..\lvgl\version_6.1.2\lvgl\src\lv_misc/lv_async.c ****     
  74:..\..\..\lvgl\version_6.1.2\lvgl\src\lv_misc/lv_async.c ****     lv_mem_free(info);
  46              		.loc 1 74 0
  47 000a 2046     		mov	r0, r4
  75:..\..\..\lvgl\version_6.1.2\lvgl\src\lv_misc/lv_async.c **** }
  48              		.loc 1 75 0
  49 000c BDE81040 		pop	{r4, lr}
  50              		.cfi_restore 14
  51              		.cfi_restore 4
  52              		.cfi_def_cfa_offset 0
  53              	.LVL4:
  74:..\..\..\lvgl\version_6.1.2\lvgl\src\lv_misc/lv_async.c **** }
  54              		.loc 1 74 0
  55 0010 FFF7FEBF 		b	lv_mem_free
  56              	.LVL5:
  57              		.cfi_endproc
  58              	.LFE1:
  59              		.size	lv_async_task_cb, .-lv_async_task_cb
  60              		.section	.text.lv_async_call,"ax",%progbits
  61              		.align	2
  62              		.global	lv_async_call
  63              		.thumb
  64              		.thumb_func
  65              		.type	lv_async_call, %function
  66              	lv_async_call:
  67              	.LFB0:
  39:..\..\..\lvgl\version_6.1.2\lvgl\src\lv_misc/lv_async.c ****     /*Allocate an info structure */
  68              		.loc 1 39 0
  69              		.cfi_startproc
  70              		@ args = 0, pretend = 0, frame = 0
  71              		@ frame_needed = 0, uses_anonymous_args = 0
  72              	.LVL6:
  73 0000 F8B5     		push	{r3, r4, r5, r6, r7, lr}
  74              		.cfi_def_cfa_offset 24
  75              		.cfi_offset 3, -24
  76              		.cfi_offset 4, -20
  77              		.cfi_offset 5, -16
  78              		.cfi_offset 6, -12
  79              		.cfi_offset 7, -8
  80              		.cfi_offset 14, -4
  39:..\..\..\lvgl\version_6.1.2\lvgl\src\lv_misc/lv_async.c ****     /*Allocate an info structure */
  81              		.loc 1 39 0
  82 0002 0646     		mov	r6, r0
  41:..\..\..\lvgl\version_6.1.2\lvgl\src\lv_misc/lv_async.c ****     
  83              		.loc 1 41 0
  84 0004 0820     		movs	r0, #8
  85              	.LVL7:
  39:..\..\..\lvgl\version_6.1.2\lvgl\src\lv_misc/lv_async.c ****     /*Allocate an info structure */
  86              		.loc 1 39 0
  87 0006 0D46     		mov	r5, r1
  41:..\..\..\lvgl\version_6.1.2\lvgl\src\lv_misc/lv_async.c ****     
  88              		.loc 1 41 0
  89 0008 FFF7FEFF 		bl	lv_mem_alloc
  90              	.LVL8:
ARM GAS  C:\Users\pearlstl\AppData\Local\Temp\ccRrapnb.s 			page 4


  43:..\..\..\lvgl\version_6.1.2\lvgl\src\lv_misc/lv_async.c ****         return LV_RES_INV;
  91              		.loc 1 43 0
  92 000c 0446     		mov	r4, r0
  93 000e 70B1     		cbz	r0, .L6
  48:..\..\..\lvgl\version_6.1.2\lvgl\src\lv_misc/lv_async.c ****     
  94              		.loc 1 48 0
  95 0010 0346     		mov	r3, r0
  96 0012 0522     		movs	r2, #5
  97 0014 0021     		movs	r1, #0
  98 0016 0948     		ldr	r0, .L10
  99              	.LVL9:
 100 0018 FFF7FEFF 		bl	lv_task_create
 101              	.LVL10:
  50:..\..\..\lvgl\version_6.1.2\lvgl\src\lv_misc/lv_async.c ****         lv_mem_free(info);
 102              		.loc 1 50 0
 103 001c 0746     		mov	r7, r0
 104 001e 38B1     		cbz	r0, .L9
  55:..\..\..\lvgl\version_6.1.2\lvgl\src\lv_misc/lv_async.c ****     info->user_data = user_data;
 105              		.loc 1 55 0
 106 0020 2660     		str	r6, [r4]
  56:..\..\..\lvgl\version_6.1.2\lvgl\src\lv_misc/lv_async.c **** 
 107              		.loc 1 56 0
 108 0022 6560     		str	r5, [r4, #4]
  59:..\..\..\lvgl\version_6.1.2\lvgl\src\lv_misc/lv_async.c ****     lv_task_once(task);
 109              		.loc 1 59 0
 110 0024 C460     		str	r4, [r0, #12]
  60:..\..\..\lvgl\version_6.1.2\lvgl\src\lv_misc/lv_async.c ****     return LV_RES_OK;
 111              		.loc 1 60 0
 112 0026 FFF7FEFF 		bl	lv_task_once
 113              	.LVL11:
  61:..\..\..\lvgl\version_6.1.2\lvgl\src\lv_misc/lv_async.c **** }
 114              		.loc 1 61 0
 115 002a 0120     		movs	r0, #1
 116 002c F8BD     		pop	{r3, r4, r5, r6, r7, pc}
 117              	.LVL12:
 118              	.L6:
  62:..\..\..\lvgl\version_6.1.2\lvgl\src\lv_misc/lv_async.c **** 
 119              		.loc 1 62 0
 120 002e F8BD     		pop	{r3, r4, r5, r6, r7, pc}
 121              	.LVL13:
 122              	.L9:
  51:..\..\..\lvgl\version_6.1.2\lvgl\src\lv_misc/lv_async.c ****         return LV_RES_INV;
 123              		.loc 1 51 0
 124 0030 2046     		mov	r0, r4
 125              	.LVL14:
 126 0032 FFF7FEFF 		bl	lv_mem_free
 127              	.LVL15:
  52:..\..\..\lvgl\version_6.1.2\lvgl\src\lv_misc/lv_async.c ****     }
 128              		.loc 1 52 0
 129 0036 3846     		mov	r0, r7
 130 0038 F8BD     		pop	{r3, r4, r5, r6, r7, pc}
 131              	.LVL16:
 132              	.L11:
 133 003a 00BF     		.align	2
 134              	.L10:
 135 003c 00000000 		.word	lv_async_task_cb
 136              		.cfi_endproc
ARM GAS  C:\Users\pearlstl\AppData\Local\Temp\ccRrapnb.s 			page 5


 137              	.LFE0:
 138              		.size	lv_async_call, .-lv_async_call
 139              		.text
 140              	.Letext0:
 141              		.file 2 "c:\\program files (x86)\\cypress\\psoc creator\\4.2\\psoc creator\\import\\gnu\\arm\\5.4.
 142              		.file 3 "c:\\program files (x86)\\cypress\\psoc creator\\4.2\\psoc creator\\import\\gnu\\arm\\5.4.
 143              		.file 4 "..\\..\\..\\lvgl\\version_6.1.2\\lvgl\\src\\lv_misc\\lv_types.h"
 144              		.file 5 "..\\..\\..\\lvgl\\version_6.1.2\\lvgl\\src\\lv_misc\\lv_task.h"
 145              		.file 6 "..\\..\\..\\lvgl\\version_6.1.2\\lvgl\\src\\lv_misc\\lv_async.h"
 146              		.file 7 "..\\..\\..\\lvgl\\version_6.1.2\\lvgl\\src\\lv_misc\\lv_mem.h"