ARM GAS  C:\Users\pearlstl\AppData\Local\Temp\ccYTDl6E.s 			page 1


   1              		.syntax unified
   2              		.cpu cortex-m4
   3              		.eabi_attribute 27, 1
   4              		.fpu fpv4-sp-d16
   5              		.eabi_attribute 20, 1
   6              		.eabi_attribute 21, 1
   7              		.eabi_attribute 23, 3
   8              		.eabi_attribute 24, 1
   9              		.eabi_attribute 25, 1
  10              		.eabi_attribute 26, 1
  11              		.eabi_attribute 30, 2
  12              		.eabi_attribute 34, 1
  13              		.eabi_attribute 18, 4
  14              		.thumb
  15              		.syntax unified
  16              		.file	"lv_anim.c"
  17              		.text
  18              	.Ltext0:
  19              		.cfi_sections	.debug_frame
  20              		.section	.text.lv_anim_path_linear,"ax",%progbits
  21              		.align	2
  22              		.global	lv_anim_path_linear
  23              		.thumb
  24              		.thumb_func
  25              		.type	lv_anim_path_linear, %function
  26              	lv_anim_path_linear:
  27              	.LFB37:
  28              		.file 1 "..\\..\\..\\lvgl\\version_6.1.2\\lvgl\\src\\lv_misc\\lv_anim.c"
   1:..\..\..\lvgl\version_6.1.2\lvgl\src\lv_misc/lv_anim.c **** /**
   2:..\..\..\lvgl\version_6.1.2\lvgl\src\lv_misc/lv_anim.c ****  * @file anim.c
   3:..\..\..\lvgl\version_6.1.2\lvgl\src\lv_misc/lv_anim.c ****  *
   4:..\..\..\lvgl\version_6.1.2\lvgl\src\lv_misc/lv_anim.c ****  */
   5:..\..\..\lvgl\version_6.1.2\lvgl\src\lv_misc/lv_anim.c **** 
   6:..\..\..\lvgl\version_6.1.2\lvgl\src\lv_misc/lv_anim.c **** /*********************
   7:..\..\..\lvgl\version_6.1.2\lvgl\src\lv_misc/lv_anim.c ****  *      INCLUDES
   8:..\..\..\lvgl\version_6.1.2\lvgl\src\lv_misc/lv_anim.c ****  *********************/
   9:..\..\..\lvgl\version_6.1.2\lvgl\src\lv_misc/lv_anim.c **** #include "lv_anim.h"
  10:..\..\..\lvgl\version_6.1.2\lvgl\src\lv_misc/lv_anim.c **** 
  11:..\..\..\lvgl\version_6.1.2\lvgl\src\lv_misc/lv_anim.c **** #if LV_USE_ANIMATION
  12:..\..\..\lvgl\version_6.1.2\lvgl\src\lv_misc/lv_anim.c **** #include <stddef.h>
  13:..\..\..\lvgl\version_6.1.2\lvgl\src\lv_misc/lv_anim.c **** #include <string.h>
  14:..\..\..\lvgl\version_6.1.2\lvgl\src\lv_misc/lv_anim.c **** #include "../lv_core/lv_debug.h"
  15:..\..\..\lvgl\version_6.1.2\lvgl\src\lv_misc/lv_anim.c **** #include "../lv_hal/lv_hal_tick.h"
  16:..\..\..\lvgl\version_6.1.2\lvgl\src\lv_misc/lv_anim.c **** #include "lv_task.h"
  17:..\..\..\lvgl\version_6.1.2\lvgl\src\lv_misc/lv_anim.c **** #include "lv_math.h"
  18:..\..\..\lvgl\version_6.1.2\lvgl\src\lv_misc/lv_anim.c **** #include "lv_gc.h"
  19:..\..\..\lvgl\version_6.1.2\lvgl\src\lv_misc/lv_anim.c **** 
  20:..\..\..\lvgl\version_6.1.2\lvgl\src\lv_misc/lv_anim.c **** #if defined(LV_GC_INCLUDE)
  21:..\..\..\lvgl\version_6.1.2\lvgl\src\lv_misc/lv_anim.c **** #include LV_GC_INCLUDE
  22:..\..\..\lvgl\version_6.1.2\lvgl\src\lv_misc/lv_anim.c **** #endif /* LV_ENABLE_GC */
  23:..\..\..\lvgl\version_6.1.2\lvgl\src\lv_misc/lv_anim.c **** 
  24:..\..\..\lvgl\version_6.1.2\lvgl\src\lv_misc/lv_anim.c **** /*********************
  25:..\..\..\lvgl\version_6.1.2\lvgl\src\lv_misc/lv_anim.c ****  *      DEFINES
  26:..\..\..\lvgl\version_6.1.2\lvgl\src\lv_misc/lv_anim.c ****  *********************/
  27:..\..\..\lvgl\version_6.1.2\lvgl\src\lv_misc/lv_anim.c **** #define LV_ANIM_RESOLUTION 1024
  28:..\..\..\lvgl\version_6.1.2\lvgl\src\lv_misc/lv_anim.c **** #define LV_ANIM_RES_SHIFT 10
  29:..\..\..\lvgl\version_6.1.2\lvgl\src\lv_misc/lv_anim.c **** 
ARM GAS  C:\Users\pearlstl\AppData\Local\Temp\ccYTDl6E.s 			page 2


  30:..\..\..\lvgl\version_6.1.2\lvgl\src\lv_misc/lv_anim.c **** /**********************
  31:..\..\..\lvgl\version_6.1.2\lvgl\src\lv_misc/lv_anim.c ****  *      TYPEDEFS
  32:..\..\..\lvgl\version_6.1.2\lvgl\src\lv_misc/lv_anim.c ****  **********************/
  33:..\..\..\lvgl\version_6.1.2\lvgl\src\lv_misc/lv_anim.c **** 
  34:..\..\..\lvgl\version_6.1.2\lvgl\src\lv_misc/lv_anim.c **** /**********************
  35:..\..\..\lvgl\version_6.1.2\lvgl\src\lv_misc/lv_anim.c ****  *  STATIC PROTOTYPES
  36:..\..\..\lvgl\version_6.1.2\lvgl\src\lv_misc/lv_anim.c ****  **********************/
  37:..\..\..\lvgl\version_6.1.2\lvgl\src\lv_misc/lv_anim.c **** static void anim_task(lv_task_t * param);
  38:..\..\..\lvgl\version_6.1.2\lvgl\src\lv_misc/lv_anim.c **** static bool anim_ready_handler(lv_anim_t * a);
  39:..\..\..\lvgl\version_6.1.2\lvgl\src\lv_misc/lv_anim.c **** 
  40:..\..\..\lvgl\version_6.1.2\lvgl\src\lv_misc/lv_anim.c **** /**********************
  41:..\..\..\lvgl\version_6.1.2\lvgl\src\lv_misc/lv_anim.c ****  *  STATIC VARIABLES
  42:..\..\..\lvgl\version_6.1.2\lvgl\src\lv_misc/lv_anim.c ****  **********************/
  43:..\..\..\lvgl\version_6.1.2\lvgl\src\lv_misc/lv_anim.c **** static uint32_t last_task_run;
  44:..\..\..\lvgl\version_6.1.2\lvgl\src\lv_misc/lv_anim.c **** static bool anim_list_changed;
  45:..\..\..\lvgl\version_6.1.2\lvgl\src\lv_misc/lv_anim.c **** 
  46:..\..\..\lvgl\version_6.1.2\lvgl\src\lv_misc/lv_anim.c **** /**********************
  47:..\..\..\lvgl\version_6.1.2\lvgl\src\lv_misc/lv_anim.c ****  *      MACROS
  48:..\..\..\lvgl\version_6.1.2\lvgl\src\lv_misc/lv_anim.c ****  **********************/
  49:..\..\..\lvgl\version_6.1.2\lvgl\src\lv_misc/lv_anim.c **** 
  50:..\..\..\lvgl\version_6.1.2\lvgl\src\lv_misc/lv_anim.c **** /**********************
  51:..\..\..\lvgl\version_6.1.2\lvgl\src\lv_misc/lv_anim.c ****  *   GLOBAL FUNCTIONS
  52:..\..\..\lvgl\version_6.1.2\lvgl\src\lv_misc/lv_anim.c ****  **********************/
  53:..\..\..\lvgl\version_6.1.2\lvgl\src\lv_misc/lv_anim.c **** 
  54:..\..\..\lvgl\version_6.1.2\lvgl\src\lv_misc/lv_anim.c **** /**
  55:..\..\..\lvgl\version_6.1.2\lvgl\src\lv_misc/lv_anim.c ****  * Init. the animation module
  56:..\..\..\lvgl\version_6.1.2\lvgl\src\lv_misc/lv_anim.c ****  */
  57:..\..\..\lvgl\version_6.1.2\lvgl\src\lv_misc/lv_anim.c **** void lv_anim_core_init(void)
  58:..\..\..\lvgl\version_6.1.2\lvgl\src\lv_misc/lv_anim.c **** {
  59:..\..\..\lvgl\version_6.1.2\lvgl\src\lv_misc/lv_anim.c ****     lv_ll_init(&LV_GC_ROOT(_lv_anim_ll), sizeof(lv_anim_t));
  60:..\..\..\lvgl\version_6.1.2\lvgl\src\lv_misc/lv_anim.c ****     last_task_run = lv_tick_get();
  61:..\..\..\lvgl\version_6.1.2\lvgl\src\lv_misc/lv_anim.c ****     lv_task_create(anim_task, LV_DISP_DEF_REFR_PERIOD, LV_TASK_PRIO_MID, NULL);
  62:..\..\..\lvgl\version_6.1.2\lvgl\src\lv_misc/lv_anim.c **** }
  63:..\..\..\lvgl\version_6.1.2\lvgl\src\lv_misc/lv_anim.c **** 
  64:..\..\..\lvgl\version_6.1.2\lvgl\src\lv_misc/lv_anim.c **** /**
  65:..\..\..\lvgl\version_6.1.2\lvgl\src\lv_misc/lv_anim.c ****  * Initialize an animation variable.
  66:..\..\..\lvgl\version_6.1.2\lvgl\src\lv_misc/lv_anim.c ****  * E.g.:
  67:..\..\..\lvgl\version_6.1.2\lvgl\src\lv_misc/lv_anim.c ****  * lv_anim_t a;
  68:..\..\..\lvgl\version_6.1.2\lvgl\src\lv_misc/lv_anim.c ****  * lv_anim_init(&a);
  69:..\..\..\lvgl\version_6.1.2\lvgl\src\lv_misc/lv_anim.c ****  * lv_anim_set_...(&a);
  70:..\..\..\lvgl\version_6.1.2\lvgl\src\lv_misc/lv_anim.c ****  * lv_anim_craete(&a);
  71:..\..\..\lvgl\version_6.1.2\lvgl\src\lv_misc/lv_anim.c ****  * @param a pointer to an `lv_anim_t` variable to initialize
  72:..\..\..\lvgl\version_6.1.2\lvgl\src\lv_misc/lv_anim.c ****  */
  73:..\..\..\lvgl\version_6.1.2\lvgl\src\lv_misc/lv_anim.c **** void lv_anim_init(lv_anim_t * a)
  74:..\..\..\lvgl\version_6.1.2\lvgl\src\lv_misc/lv_anim.c **** {
  75:..\..\..\lvgl\version_6.1.2\lvgl\src\lv_misc/lv_anim.c ****     memset(a, 0, sizeof(lv_anim_t));
  76:..\..\..\lvgl\version_6.1.2\lvgl\src\lv_misc/lv_anim.c ****     a->time    = 500;
  77:..\..\..\lvgl\version_6.1.2\lvgl\src\lv_misc/lv_anim.c ****     a->start   = 0;
  78:..\..\..\lvgl\version_6.1.2\lvgl\src\lv_misc/lv_anim.c ****     a->end     = 100;
  79:..\..\..\lvgl\version_6.1.2\lvgl\src\lv_misc/lv_anim.c ****     a->path_cb = lv_anim_path_linear;
  80:..\..\..\lvgl\version_6.1.2\lvgl\src\lv_misc/lv_anim.c **** }
  81:..\..\..\lvgl\version_6.1.2\lvgl\src\lv_misc/lv_anim.c **** /**
  82:..\..\..\lvgl\version_6.1.2\lvgl\src\lv_misc/lv_anim.c ****  * Create an animation
  83:..\..\..\lvgl\version_6.1.2\lvgl\src\lv_misc/lv_anim.c ****  * @param a an initialized 'anim_t' variable. Not required after call.
  84:..\..\..\lvgl\version_6.1.2\lvgl\src\lv_misc/lv_anim.c ****  */
  85:..\..\..\lvgl\version_6.1.2\lvgl\src\lv_misc/lv_anim.c **** void lv_anim_create(lv_anim_t * a)
  86:..\..\..\lvgl\version_6.1.2\lvgl\src\lv_misc/lv_anim.c **** {
ARM GAS  C:\Users\pearlstl\AppData\Local\Temp\ccYTDl6E.s 			page 3


  87:..\..\..\lvgl\version_6.1.2\lvgl\src\lv_misc/lv_anim.c ****     LV_LOG_TRACE("animation create started")
  88:..\..\..\lvgl\version_6.1.2\lvgl\src\lv_misc/lv_anim.c ****     /* Do not let two animations for the  same 'var' with the same 'fp'*/
  89:..\..\..\lvgl\version_6.1.2\lvgl\src\lv_misc/lv_anim.c ****     if(a->exec_cb != NULL) lv_anim_del(a->var, a->exec_cb); /*fp == NULL would delete all animation
  90:..\..\..\lvgl\version_6.1.2\lvgl\src\lv_misc/lv_anim.c **** 
  91:..\..\..\lvgl\version_6.1.2\lvgl\src\lv_misc/lv_anim.c ****     /*Add the new animation to the animation linked list*/
  92:..\..\..\lvgl\version_6.1.2\lvgl\src\lv_misc/lv_anim.c ****     lv_anim_t * new_anim = lv_ll_ins_head(&LV_GC_ROOT(_lv_anim_ll));
  93:..\..\..\lvgl\version_6.1.2\lvgl\src\lv_misc/lv_anim.c ****     LV_ASSERT_MEM(new_anim);
  94:..\..\..\lvgl\version_6.1.2\lvgl\src\lv_misc/lv_anim.c ****     if(new_anim == NULL) return;
  95:..\..\..\lvgl\version_6.1.2\lvgl\src\lv_misc/lv_anim.c **** 
  96:..\..\..\lvgl\version_6.1.2\lvgl\src\lv_misc/lv_anim.c ****     /*Initialize the animation descriptor*/
  97:..\..\..\lvgl\version_6.1.2\lvgl\src\lv_misc/lv_anim.c ****     a->playback_now = 0;
  98:..\..\..\lvgl\version_6.1.2\lvgl\src\lv_misc/lv_anim.c ****     memcpy(new_anim, a, sizeof(lv_anim_t));
  99:..\..\..\lvgl\version_6.1.2\lvgl\src\lv_misc/lv_anim.c **** 
 100:..\..\..\lvgl\version_6.1.2\lvgl\src\lv_misc/lv_anim.c ****     /*Set the start value*/
 101:..\..\..\lvgl\version_6.1.2\lvgl\src\lv_misc/lv_anim.c ****     if(new_anim->exec_cb) new_anim->exec_cb(new_anim->var, new_anim->start);
 102:..\..\..\lvgl\version_6.1.2\lvgl\src\lv_misc/lv_anim.c **** 
 103:..\..\..\lvgl\version_6.1.2\lvgl\src\lv_misc/lv_anim.c ****     /* Creating an animation changed the linked list.
 104:..\..\..\lvgl\version_6.1.2\lvgl\src\lv_misc/lv_anim.c ****      * It's important if it happens in a ready callback. (see `anim_task`)*/
 105:..\..\..\lvgl\version_6.1.2\lvgl\src\lv_misc/lv_anim.c ****     anim_list_changed = true;
 106:..\..\..\lvgl\version_6.1.2\lvgl\src\lv_misc/lv_anim.c **** 
 107:..\..\..\lvgl\version_6.1.2\lvgl\src\lv_misc/lv_anim.c ****     LV_LOG_TRACE("animation created")
 108:..\..\..\lvgl\version_6.1.2\lvgl\src\lv_misc/lv_anim.c **** }
 109:..\..\..\lvgl\version_6.1.2\lvgl\src\lv_misc/lv_anim.c **** 
 110:..\..\..\lvgl\version_6.1.2\lvgl\src\lv_misc/lv_anim.c **** /**
 111:..\..\..\lvgl\version_6.1.2\lvgl\src\lv_misc/lv_anim.c ****  * Delete an animation of a variable with a given animator function
 112:..\..\..\lvgl\version_6.1.2\lvgl\src\lv_misc/lv_anim.c ****  * @param var pointer to variable
 113:..\..\..\lvgl\version_6.1.2\lvgl\src\lv_misc/lv_anim.c ****  * @param exec_cb a function pointer which is animating 'var',
 114:..\..\..\lvgl\version_6.1.2\lvgl\src\lv_misc/lv_anim.c ****  *           or NULL to delete all the animations of 'var'
 115:..\..\..\lvgl\version_6.1.2\lvgl\src\lv_misc/lv_anim.c ****  * @return true: at least 1 animation is deleted, false: no animation is deleted
 116:..\..\..\lvgl\version_6.1.2\lvgl\src\lv_misc/lv_anim.c ****  */
 117:..\..\..\lvgl\version_6.1.2\lvgl\src\lv_misc/lv_anim.c **** bool lv_anim_del(void * var, lv_anim_exec_xcb_t exec_cb)
 118:..\..\..\lvgl\version_6.1.2\lvgl\src\lv_misc/lv_anim.c **** {
 119:..\..\..\lvgl\version_6.1.2\lvgl\src\lv_misc/lv_anim.c ****     lv_anim_t * a;
 120:..\..\..\lvgl\version_6.1.2\lvgl\src\lv_misc/lv_anim.c ****     lv_anim_t * a_next;
 121:..\..\..\lvgl\version_6.1.2\lvgl\src\lv_misc/lv_anim.c ****     bool del = false;
 122:..\..\..\lvgl\version_6.1.2\lvgl\src\lv_misc/lv_anim.c ****     a        = lv_ll_get_head(&LV_GC_ROOT(_lv_anim_ll));
 123:..\..\..\lvgl\version_6.1.2\lvgl\src\lv_misc/lv_anim.c ****     while(a != NULL) {
 124:..\..\..\lvgl\version_6.1.2\lvgl\src\lv_misc/lv_anim.c ****         /*'a' might be deleted, so get the next object while 'a' is valid*/
 125:..\..\..\lvgl\version_6.1.2\lvgl\src\lv_misc/lv_anim.c ****         a_next = lv_ll_get_next(&LV_GC_ROOT(_lv_anim_ll), a);
 126:..\..\..\lvgl\version_6.1.2\lvgl\src\lv_misc/lv_anim.c **** 
 127:..\..\..\lvgl\version_6.1.2\lvgl\src\lv_misc/lv_anim.c ****         if(a->var == var && (a->exec_cb == exec_cb || exec_cb == NULL)) {
 128:..\..\..\lvgl\version_6.1.2\lvgl\src\lv_misc/lv_anim.c ****             lv_ll_rem(&LV_GC_ROOT(_lv_anim_ll), a);
 129:..\..\..\lvgl\version_6.1.2\lvgl\src\lv_misc/lv_anim.c ****             lv_mem_free(a);
 130:..\..\..\lvgl\version_6.1.2\lvgl\src\lv_misc/lv_anim.c ****             anim_list_changed = true; /*Read by `anim_task`. It need to know if a delete occurred i
 131:..\..\..\lvgl\version_6.1.2\lvgl\src\lv_misc/lv_anim.c ****                                          the linked list*/
 132:..\..\..\lvgl\version_6.1.2\lvgl\src\lv_misc/lv_anim.c ****             del = true;
 133:..\..\..\lvgl\version_6.1.2\lvgl\src\lv_misc/lv_anim.c ****         }
 134:..\..\..\lvgl\version_6.1.2\lvgl\src\lv_misc/lv_anim.c **** 
 135:..\..\..\lvgl\version_6.1.2\lvgl\src\lv_misc/lv_anim.c ****         a = a_next;
 136:..\..\..\lvgl\version_6.1.2\lvgl\src\lv_misc/lv_anim.c ****     }
 137:..\..\..\lvgl\version_6.1.2\lvgl\src\lv_misc/lv_anim.c **** 
 138:..\..\..\lvgl\version_6.1.2\lvgl\src\lv_misc/lv_anim.c ****     return del;
 139:..\..\..\lvgl\version_6.1.2\lvgl\src\lv_misc/lv_anim.c **** }
 140:..\..\..\lvgl\version_6.1.2\lvgl\src\lv_misc/lv_anim.c **** 
 141:..\..\..\lvgl\version_6.1.2\lvgl\src\lv_misc/lv_anim.c **** /**
 142:..\..\..\lvgl\version_6.1.2\lvgl\src\lv_misc/lv_anim.c ****  * Get the number of currently running animations
 143:..\..\..\lvgl\version_6.1.2\lvgl\src\lv_misc/lv_anim.c ****  * @return the number of running animations
ARM GAS  C:\Users\pearlstl\AppData\Local\Temp\ccYTDl6E.s 			page 4


 144:..\..\..\lvgl\version_6.1.2\lvgl\src\lv_misc/lv_anim.c ****  */
 145:..\..\..\lvgl\version_6.1.2\lvgl\src\lv_misc/lv_anim.c **** uint16_t lv_anim_count_running(void)
 146:..\..\..\lvgl\version_6.1.2\lvgl\src\lv_misc/lv_anim.c **** {
 147:..\..\..\lvgl\version_6.1.2\lvgl\src\lv_misc/lv_anim.c ****     uint16_t cnt = 0;
 148:..\..\..\lvgl\version_6.1.2\lvgl\src\lv_misc/lv_anim.c ****     lv_anim_t * a;
 149:..\..\..\lvgl\version_6.1.2\lvgl\src\lv_misc/lv_anim.c ****     LV_LL_READ(LV_GC_ROOT(_lv_anim_ll), a) cnt++;
 150:..\..\..\lvgl\version_6.1.2\lvgl\src\lv_misc/lv_anim.c **** 
 151:..\..\..\lvgl\version_6.1.2\lvgl\src\lv_misc/lv_anim.c ****     return cnt++;
 152:..\..\..\lvgl\version_6.1.2\lvgl\src\lv_misc/lv_anim.c **** }
 153:..\..\..\lvgl\version_6.1.2\lvgl\src\lv_misc/lv_anim.c **** 
 154:..\..\..\lvgl\version_6.1.2\lvgl\src\lv_misc/lv_anim.c **** /**
 155:..\..\..\lvgl\version_6.1.2\lvgl\src\lv_misc/lv_anim.c ****  * Calculate the time of an animation with a given speed and the start and end values
 156:..\..\..\lvgl\version_6.1.2\lvgl\src\lv_misc/lv_anim.c ****  * @param speed speed of animation in unit/sec
 157:..\..\..\lvgl\version_6.1.2\lvgl\src\lv_misc/lv_anim.c ****  * @param start start value of the animation
 158:..\..\..\lvgl\version_6.1.2\lvgl\src\lv_misc/lv_anim.c ****  * @param end end value of the animation
 159:..\..\..\lvgl\version_6.1.2\lvgl\src\lv_misc/lv_anim.c ****  * @return the required time [ms] for the animation with the given parameters
 160:..\..\..\lvgl\version_6.1.2\lvgl\src\lv_misc/lv_anim.c ****  */
 161:..\..\..\lvgl\version_6.1.2\lvgl\src\lv_misc/lv_anim.c **** uint16_t lv_anim_speed_to_time(uint16_t speed, lv_anim_value_t start, lv_anim_value_t end)
 162:..\..\..\lvgl\version_6.1.2\lvgl\src\lv_misc/lv_anim.c **** {
 163:..\..\..\lvgl\version_6.1.2\lvgl\src\lv_misc/lv_anim.c ****     int32_t d     = LV_MATH_ABS((int32_t)start - end);
 164:..\..\..\lvgl\version_6.1.2\lvgl\src\lv_misc/lv_anim.c ****     uint32_t time = (int32_t)((int32_t)(d * 1000) / speed);
 165:..\..\..\lvgl\version_6.1.2\lvgl\src\lv_misc/lv_anim.c **** 
 166:..\..\..\lvgl\version_6.1.2\lvgl\src\lv_misc/lv_anim.c ****     if(time > UINT16_MAX) time = UINT16_MAX;
 167:..\..\..\lvgl\version_6.1.2\lvgl\src\lv_misc/lv_anim.c **** 
 168:..\..\..\lvgl\version_6.1.2\lvgl\src\lv_misc/lv_anim.c ****     if(time == 0) {
 169:..\..\..\lvgl\version_6.1.2\lvgl\src\lv_misc/lv_anim.c ****         time++;
 170:..\..\..\lvgl\version_6.1.2\lvgl\src\lv_misc/lv_anim.c ****     }
 171:..\..\..\lvgl\version_6.1.2\lvgl\src\lv_misc/lv_anim.c **** 
 172:..\..\..\lvgl\version_6.1.2\lvgl\src\lv_misc/lv_anim.c ****     return time;
 173:..\..\..\lvgl\version_6.1.2\lvgl\src\lv_misc/lv_anim.c **** }
 174:..\..\..\lvgl\version_6.1.2\lvgl\src\lv_misc/lv_anim.c **** 
 175:..\..\..\lvgl\version_6.1.2\lvgl\src\lv_misc/lv_anim.c **** /**
 176:..\..\..\lvgl\version_6.1.2\lvgl\src\lv_misc/lv_anim.c ****  * Calculate the current value of an animation applying linear characteristic
 177:..\..\..\lvgl\version_6.1.2\lvgl\src\lv_misc/lv_anim.c ****  * @param a pointer to an animation
 178:..\..\..\lvgl\version_6.1.2\lvgl\src\lv_misc/lv_anim.c ****  * @return the current value to set
 179:..\..\..\lvgl\version_6.1.2\lvgl\src\lv_misc/lv_anim.c ****  */
 180:..\..\..\lvgl\version_6.1.2\lvgl\src\lv_misc/lv_anim.c **** lv_anim_value_t lv_anim_path_linear(const lv_anim_t * a)
 181:..\..\..\lvgl\version_6.1.2\lvgl\src\lv_misc/lv_anim.c **** {
  29              		.loc 1 181 0
  30              		.cfi_startproc
  31              		@ args = 0, pretend = 0, frame = 0
  32              		@ frame_needed = 0, uses_anonymous_args = 0
  33              		@ link register save eliminated.
  34              	.LVL0:
 182:..\..\..\lvgl\version_6.1.2\lvgl\src\lv_misc/lv_anim.c ****     /*Calculate the current step*/
 183:..\..\..\lvgl\version_6.1.2\lvgl\src\lv_misc/lv_anim.c ****     uint32_t step;
 184:..\..\..\lvgl\version_6.1.2\lvgl\src\lv_misc/lv_anim.c ****     if(a->time == a->act_time) {
  35              		.loc 1 184 0
  36 0000 028B     		ldrh	r2, [r0, #24]
  37 0002 B0F91A30 		ldrsh	r3, [r0, #26]
 185:..\..\..\lvgl\version_6.1.2\lvgl\src\lv_misc/lv_anim.c ****         step = LV_ANIM_RESOLUTION; /*Use the last value if the time fully elapsed*/
 186:..\..\..\lvgl\version_6.1.2\lvgl\src\lv_misc/lv_anim.c ****     } else {
 187:..\..\..\lvgl\version_6.1.2\lvgl\src\lv_misc/lv_anim.c ****         step = ((int32_t)a->act_time * LV_ANIM_RESOLUTION) / a->time;
 188:..\..\..\lvgl\version_6.1.2\lvgl\src\lv_misc/lv_anim.c ****     }
 189:..\..\..\lvgl\version_6.1.2\lvgl\src\lv_misc/lv_anim.c **** 
 190:..\..\..\lvgl\version_6.1.2\lvgl\src\lv_misc/lv_anim.c ****     /* Get the new value which will be proportional to `step`
 191:..\..\..\lvgl\version_6.1.2\lvgl\src\lv_misc/lv_anim.c ****      * and the `start` and `end` values*/
ARM GAS  C:\Users\pearlstl\AppData\Local\Temp\ccYTDl6E.s 			page 5


 192:..\..\..\lvgl\version_6.1.2\lvgl\src\lv_misc/lv_anim.c ****     int32_t new_value;
 193:..\..\..\lvgl\version_6.1.2\lvgl\src\lv_misc/lv_anim.c ****     new_value = (int32_t)step * (a->end - a->start);
  38              		.loc 1 193 0
  39 0006 0169     		ldr	r1, [r0, #16]
 184:..\..\..\lvgl\version_6.1.2\lvgl\src\lv_misc/lv_anim.c ****         step = LV_ANIM_RESOLUTION; /*Use the last value if the time fully elapsed*/
  40              		.loc 1 184 0
  41 0008 9A42     		cmp	r2, r3
 187:..\..\..\lvgl\version_6.1.2\lvgl\src\lv_misc/lv_anim.c ****     }
  42              		.loc 1 187 0
  43 000a 1CBF     		itt	ne
  44 000c 9B02     		lslne	r3, r3, #10
  45 000e 93FBF2F2 		sdivne	r2, r3, r2
  46              	.LVL1:
  47              		.loc 1 193 0
  48 0012 4369     		ldr	r3, [r0, #20]
  49 0014 08BF     		it	eq
  50 0016 4FF48062 		moveq	r2, #1024
  51 001a 5B1A     		subs	r3, r3, r1
  52 001c 02FB03F3 		mul	r3, r2, r3
  53              	.LVL2:
 194:..\..\..\lvgl\version_6.1.2\lvgl\src\lv_misc/lv_anim.c ****     new_value = new_value >> LV_ANIM_RES_SHIFT;
 195:..\..\..\lvgl\version_6.1.2\lvgl\src\lv_misc/lv_anim.c ****     new_value += a->start;
 196:..\..\..\lvgl\version_6.1.2\lvgl\src\lv_misc/lv_anim.c **** 
 197:..\..\..\lvgl\version_6.1.2\lvgl\src\lv_misc/lv_anim.c ****     return (lv_anim_value_t)new_value;
  54              		.loc 1 197 0
  55 0020 01EBA320 		add	r0, r1, r3, asr #10
  56              	.LVL3:
 198:..\..\..\lvgl\version_6.1.2\lvgl\src\lv_misc/lv_anim.c **** }
  57              		.loc 1 198 0
  58 0024 00B2     		sxth	r0, r0
  59              	.LVL4:
  60 0026 7047     		bx	lr
  61              		.cfi_endproc
  62              	.LFE37:
  63              		.size	lv_anim_path_linear, .-lv_anim_path_linear
  64              		.section	.text.anim_task,"ax",%progbits
  65              		.align	2
  66              		.thumb
  67              		.thumb_func
  68              		.type	anim_task, %function
  69              	anim_task:
  70              	.LFB44:
 199:..\..\..\lvgl\version_6.1.2\lvgl\src\lv_misc/lv_anim.c **** 
 200:..\..\..\lvgl\version_6.1.2\lvgl\src\lv_misc/lv_anim.c **** /**
 201:..\..\..\lvgl\version_6.1.2\lvgl\src\lv_misc/lv_anim.c ****  * Calculate the current value of an animation slowing down the start phase
 202:..\..\..\lvgl\version_6.1.2\lvgl\src\lv_misc/lv_anim.c ****  * @param a pointer to an animation
 203:..\..\..\lvgl\version_6.1.2\lvgl\src\lv_misc/lv_anim.c ****  * @return the current value to set
 204:..\..\..\lvgl\version_6.1.2\lvgl\src\lv_misc/lv_anim.c ****  */
 205:..\..\..\lvgl\version_6.1.2\lvgl\src\lv_misc/lv_anim.c **** lv_anim_value_t lv_anim_path_ease_in(const lv_anim_t * a)
 206:..\..\..\lvgl\version_6.1.2\lvgl\src\lv_misc/lv_anim.c **** {
 207:..\..\..\lvgl\version_6.1.2\lvgl\src\lv_misc/lv_anim.c ****     /*Calculate the current step*/
 208:..\..\..\lvgl\version_6.1.2\lvgl\src\lv_misc/lv_anim.c ****     uint32_t t;
 209:..\..\..\lvgl\version_6.1.2\lvgl\src\lv_misc/lv_anim.c ****     if(a->time == a->act_time)
 210:..\..\..\lvgl\version_6.1.2\lvgl\src\lv_misc/lv_anim.c ****         t = 1024;
 211:..\..\..\lvgl\version_6.1.2\lvgl\src\lv_misc/lv_anim.c ****     else
 212:..\..\..\lvgl\version_6.1.2\lvgl\src\lv_misc/lv_anim.c ****         t = (uint32_t)((uint32_t)a->act_time * 1024) / a->time;
 213:..\..\..\lvgl\version_6.1.2\lvgl\src\lv_misc/lv_anim.c **** 
ARM GAS  C:\Users\pearlstl\AppData\Local\Temp\ccYTDl6E.s 			page 6


 214:..\..\..\lvgl\version_6.1.2\lvgl\src\lv_misc/lv_anim.c ****     int32_t step = lv_bezier3(t, 0, 1, 1, 1024);
 215:..\..\..\lvgl\version_6.1.2\lvgl\src\lv_misc/lv_anim.c **** 
 216:..\..\..\lvgl\version_6.1.2\lvgl\src\lv_misc/lv_anim.c ****     int32_t new_value;
 217:..\..\..\lvgl\version_6.1.2\lvgl\src\lv_misc/lv_anim.c ****     new_value = (int32_t)step * (a->end - a->start);
 218:..\..\..\lvgl\version_6.1.2\lvgl\src\lv_misc/lv_anim.c ****     new_value = new_value >> 10;
 219:..\..\..\lvgl\version_6.1.2\lvgl\src\lv_misc/lv_anim.c ****     new_value += a->start;
 220:..\..\..\lvgl\version_6.1.2\lvgl\src\lv_misc/lv_anim.c **** 
 221:..\..\..\lvgl\version_6.1.2\lvgl\src\lv_misc/lv_anim.c ****     return (lv_anim_value_t)new_value;
 222:..\..\..\lvgl\version_6.1.2\lvgl\src\lv_misc/lv_anim.c **** }
 223:..\..\..\lvgl\version_6.1.2\lvgl\src\lv_misc/lv_anim.c **** 
 224:..\..\..\lvgl\version_6.1.2\lvgl\src\lv_misc/lv_anim.c **** /**
 225:..\..\..\lvgl\version_6.1.2\lvgl\src\lv_misc/lv_anim.c ****  * Calculate the current value of an animation slowing down the end phase
 226:..\..\..\lvgl\version_6.1.2\lvgl\src\lv_misc/lv_anim.c ****  * @param a pointer to an animation
 227:..\..\..\lvgl\version_6.1.2\lvgl\src\lv_misc/lv_anim.c ****  * @return the current value to set
 228:..\..\..\lvgl\version_6.1.2\lvgl\src\lv_misc/lv_anim.c ****  */
 229:..\..\..\lvgl\version_6.1.2\lvgl\src\lv_misc/lv_anim.c **** lv_anim_value_t lv_anim_path_ease_out(const lv_anim_t * a)
 230:..\..\..\lvgl\version_6.1.2\lvgl\src\lv_misc/lv_anim.c **** {
 231:..\..\..\lvgl\version_6.1.2\lvgl\src\lv_misc/lv_anim.c ****     /*Calculate the current step*/
 232:..\..\..\lvgl\version_6.1.2\lvgl\src\lv_misc/lv_anim.c **** 
 233:..\..\..\lvgl\version_6.1.2\lvgl\src\lv_misc/lv_anim.c ****     uint32_t t;
 234:..\..\..\lvgl\version_6.1.2\lvgl\src\lv_misc/lv_anim.c ****     if(a->time == a->act_time)
 235:..\..\..\lvgl\version_6.1.2\lvgl\src\lv_misc/lv_anim.c ****         t = 1024;
 236:..\..\..\lvgl\version_6.1.2\lvgl\src\lv_misc/lv_anim.c ****     else
 237:..\..\..\lvgl\version_6.1.2\lvgl\src\lv_misc/lv_anim.c ****         t = (uint32_t)((uint32_t)a->act_time * 1024) / a->time;
 238:..\..\..\lvgl\version_6.1.2\lvgl\src\lv_misc/lv_anim.c **** 
 239:..\..\..\lvgl\version_6.1.2\lvgl\src\lv_misc/lv_anim.c ****     int32_t step = lv_bezier3(t, 0, 1023, 1023, 1024);
 240:..\..\..\lvgl\version_6.1.2\lvgl\src\lv_misc/lv_anim.c **** 
 241:..\..\..\lvgl\version_6.1.2\lvgl\src\lv_misc/lv_anim.c ****     int32_t new_value;
 242:..\..\..\lvgl\version_6.1.2\lvgl\src\lv_misc/lv_anim.c ****     new_value = (int32_t)step * (a->end - a->start);
 243:..\..\..\lvgl\version_6.1.2\lvgl\src\lv_misc/lv_anim.c ****     new_value = new_value >> 10;
 244:..\..\..\lvgl\version_6.1.2\lvgl\src\lv_misc/lv_anim.c ****     new_value += a->start;
 245:..\..\..\lvgl\version_6.1.2\lvgl\src\lv_misc/lv_anim.c **** 
 246:..\..\..\lvgl\version_6.1.2\lvgl\src\lv_misc/lv_anim.c ****     return (lv_anim_value_t)new_value;
 247:..\..\..\lvgl\version_6.1.2\lvgl\src\lv_misc/lv_anim.c **** }
 248:..\..\..\lvgl\version_6.1.2\lvgl\src\lv_misc/lv_anim.c **** 
 249:..\..\..\lvgl\version_6.1.2\lvgl\src\lv_misc/lv_anim.c **** /**
 250:..\..\..\lvgl\version_6.1.2\lvgl\src\lv_misc/lv_anim.c ****  * Calculate the current value of an animation applying an "S" characteristic (cosine)
 251:..\..\..\lvgl\version_6.1.2\lvgl\src\lv_misc/lv_anim.c ****  * @param a pointer to an animation
 252:..\..\..\lvgl\version_6.1.2\lvgl\src\lv_misc/lv_anim.c ****  * @return the current value to set
 253:..\..\..\lvgl\version_6.1.2\lvgl\src\lv_misc/lv_anim.c ****  */
 254:..\..\..\lvgl\version_6.1.2\lvgl\src\lv_misc/lv_anim.c **** lv_anim_value_t lv_anim_path_ease_in_out(const lv_anim_t * a)
 255:..\..\..\lvgl\version_6.1.2\lvgl\src\lv_misc/lv_anim.c **** {
 256:..\..\..\lvgl\version_6.1.2\lvgl\src\lv_misc/lv_anim.c ****     /*Calculate the current step*/
 257:..\..\..\lvgl\version_6.1.2\lvgl\src\lv_misc/lv_anim.c **** 
 258:..\..\..\lvgl\version_6.1.2\lvgl\src\lv_misc/lv_anim.c ****     uint32_t t;
 259:..\..\..\lvgl\version_6.1.2\lvgl\src\lv_misc/lv_anim.c ****     if(a->time == a->act_time)
 260:..\..\..\lvgl\version_6.1.2\lvgl\src\lv_misc/lv_anim.c ****         t = 1024;
 261:..\..\..\lvgl\version_6.1.2\lvgl\src\lv_misc/lv_anim.c ****     else
 262:..\..\..\lvgl\version_6.1.2\lvgl\src\lv_misc/lv_anim.c ****         t = (uint32_t)((uint32_t)a->act_time * 1024) / a->time;
 263:..\..\..\lvgl\version_6.1.2\lvgl\src\lv_misc/lv_anim.c **** 
 264:..\..\..\lvgl\version_6.1.2\lvgl\src\lv_misc/lv_anim.c ****     int32_t step = lv_bezier3(t, 0, 100, 924, 1024);
 265:..\..\..\lvgl\version_6.1.2\lvgl\src\lv_misc/lv_anim.c **** 
 266:..\..\..\lvgl\version_6.1.2\lvgl\src\lv_misc/lv_anim.c ****     int32_t new_value;
 267:..\..\..\lvgl\version_6.1.2\lvgl\src\lv_misc/lv_anim.c ****     new_value = (int32_t)step * (a->end - a->start);
 268:..\..\..\lvgl\version_6.1.2\lvgl\src\lv_misc/lv_anim.c ****     new_value = new_value >> 10;
 269:..\..\..\lvgl\version_6.1.2\lvgl\src\lv_misc/lv_anim.c ****     new_value += a->start;
 270:..\..\..\lvgl\version_6.1.2\lvgl\src\lv_misc/lv_anim.c **** 
ARM GAS  C:\Users\pearlstl\AppData\Local\Temp\ccYTDl6E.s 			page 7


 271:..\..\..\lvgl\version_6.1.2\lvgl\src\lv_misc/lv_anim.c ****     return (lv_anim_value_t)new_value;
 272:..\..\..\lvgl\version_6.1.2\lvgl\src\lv_misc/lv_anim.c **** }
 273:..\..\..\lvgl\version_6.1.2\lvgl\src\lv_misc/lv_anim.c **** 
 274:..\..\..\lvgl\version_6.1.2\lvgl\src\lv_misc/lv_anim.c **** /**
 275:..\..\..\lvgl\version_6.1.2\lvgl\src\lv_misc/lv_anim.c ****  * Calculate the current value of an animation with overshoot at the end
 276:..\..\..\lvgl\version_6.1.2\lvgl\src\lv_misc/lv_anim.c ****  * @param a pointer to an animation
 277:..\..\..\lvgl\version_6.1.2\lvgl\src\lv_misc/lv_anim.c ****  * @return the current value to set
 278:..\..\..\lvgl\version_6.1.2\lvgl\src\lv_misc/lv_anim.c ****  */
 279:..\..\..\lvgl\version_6.1.2\lvgl\src\lv_misc/lv_anim.c **** lv_anim_value_t lv_anim_path_overshoot(const lv_anim_t * a)
 280:..\..\..\lvgl\version_6.1.2\lvgl\src\lv_misc/lv_anim.c **** {
 281:..\..\..\lvgl\version_6.1.2\lvgl\src\lv_misc/lv_anim.c ****     /*Calculate the current step*/
 282:..\..\..\lvgl\version_6.1.2\lvgl\src\lv_misc/lv_anim.c **** 
 283:..\..\..\lvgl\version_6.1.2\lvgl\src\lv_misc/lv_anim.c ****     uint32_t t;
 284:..\..\..\lvgl\version_6.1.2\lvgl\src\lv_misc/lv_anim.c ****     if(a->time == a->act_time)
 285:..\..\..\lvgl\version_6.1.2\lvgl\src\lv_misc/lv_anim.c ****         t = 1024;
 286:..\..\..\lvgl\version_6.1.2\lvgl\src\lv_misc/lv_anim.c ****     else
 287:..\..\..\lvgl\version_6.1.2\lvgl\src\lv_misc/lv_anim.c ****         t = (uint32_t)((uint32_t)a->act_time * 1024) / a->time;
 288:..\..\..\lvgl\version_6.1.2\lvgl\src\lv_misc/lv_anim.c **** 
 289:..\..\..\lvgl\version_6.1.2\lvgl\src\lv_misc/lv_anim.c ****     int32_t step = lv_bezier3(t, 0, 600, 1300, 1024);
 290:..\..\..\lvgl\version_6.1.2\lvgl\src\lv_misc/lv_anim.c **** 
 291:..\..\..\lvgl\version_6.1.2\lvgl\src\lv_misc/lv_anim.c ****     int32_t new_value;
 292:..\..\..\lvgl\version_6.1.2\lvgl\src\lv_misc/lv_anim.c ****     new_value = (int32_t)step * (a->end - a->start);
 293:..\..\..\lvgl\version_6.1.2\lvgl\src\lv_misc/lv_anim.c ****     new_value = new_value >> 10;
 294:..\..\..\lvgl\version_6.1.2\lvgl\src\lv_misc/lv_anim.c ****     new_value += a->start;
 295:..\..\..\lvgl\version_6.1.2\lvgl\src\lv_misc/lv_anim.c **** 
 296:..\..\..\lvgl\version_6.1.2\lvgl\src\lv_misc/lv_anim.c ****     return (lv_anim_value_t)new_value;
 297:..\..\..\lvgl\version_6.1.2\lvgl\src\lv_misc/lv_anim.c **** }
 298:..\..\..\lvgl\version_6.1.2\lvgl\src\lv_misc/lv_anim.c **** 
 299:..\..\..\lvgl\version_6.1.2\lvgl\src\lv_misc/lv_anim.c **** /**
 300:..\..\..\lvgl\version_6.1.2\lvgl\src\lv_misc/lv_anim.c ****  * Calculate the current value of an animation with 3 bounces
 301:..\..\..\lvgl\version_6.1.2\lvgl\src\lv_misc/lv_anim.c ****  * @param a pointer to an animation
 302:..\..\..\lvgl\version_6.1.2\lvgl\src\lv_misc/lv_anim.c ****  * @return the current value to set
 303:..\..\..\lvgl\version_6.1.2\lvgl\src\lv_misc/lv_anim.c ****  */
 304:..\..\..\lvgl\version_6.1.2\lvgl\src\lv_misc/lv_anim.c **** lv_anim_value_t lv_anim_path_bounce(const lv_anim_t * a)
 305:..\..\..\lvgl\version_6.1.2\lvgl\src\lv_misc/lv_anim.c **** {
 306:..\..\..\lvgl\version_6.1.2\lvgl\src\lv_misc/lv_anim.c ****     /*Calculate the current step*/
 307:..\..\..\lvgl\version_6.1.2\lvgl\src\lv_misc/lv_anim.c ****     uint32_t t;
 308:..\..\..\lvgl\version_6.1.2\lvgl\src\lv_misc/lv_anim.c ****     if(a->time == a->act_time)
 309:..\..\..\lvgl\version_6.1.2\lvgl\src\lv_misc/lv_anim.c ****         t = 1024;
 310:..\..\..\lvgl\version_6.1.2\lvgl\src\lv_misc/lv_anim.c ****     else
 311:..\..\..\lvgl\version_6.1.2\lvgl\src\lv_misc/lv_anim.c ****         t = (uint32_t)((uint32_t)a->act_time * 1024) / a->time;
 312:..\..\..\lvgl\version_6.1.2\lvgl\src\lv_misc/lv_anim.c **** 
 313:..\..\..\lvgl\version_6.1.2\lvgl\src\lv_misc/lv_anim.c ****     int32_t diff = (a->end - a->start);
 314:..\..\..\lvgl\version_6.1.2\lvgl\src\lv_misc/lv_anim.c **** 
 315:..\..\..\lvgl\version_6.1.2\lvgl\src\lv_misc/lv_anim.c ****     /*3 bounces has 5 parts: 3 down and 2 up. One part is t / 5 long*/
 316:..\..\..\lvgl\version_6.1.2\lvgl\src\lv_misc/lv_anim.c **** 
 317:..\..\..\lvgl\version_6.1.2\lvgl\src\lv_misc/lv_anim.c ****     if(t < 408) {
 318:..\..\..\lvgl\version_6.1.2\lvgl\src\lv_misc/lv_anim.c ****         /*Go down*/
 319:..\..\..\lvgl\version_6.1.2\lvgl\src\lv_misc/lv_anim.c ****         t = (t * 2500) >> 10; /*[0..1024] range*/
 320:..\..\..\lvgl\version_6.1.2\lvgl\src\lv_misc/lv_anim.c ****     } else if(t >= 408 && t < 614) {
 321:..\..\..\lvgl\version_6.1.2\lvgl\src\lv_misc/lv_anim.c ****         /*First bounce back*/
 322:..\..\..\lvgl\version_6.1.2\lvgl\src\lv_misc/lv_anim.c ****         t -= 408;
 323:..\..\..\lvgl\version_6.1.2\lvgl\src\lv_misc/lv_anim.c ****         t    = t * 5; /*to [0..1024] range*/
 324:..\..\..\lvgl\version_6.1.2\lvgl\src\lv_misc/lv_anim.c ****         t    = 1024 - t;
 325:..\..\..\lvgl\version_6.1.2\lvgl\src\lv_misc/lv_anim.c ****         diff = diff / 6;
 326:..\..\..\lvgl\version_6.1.2\lvgl\src\lv_misc/lv_anim.c ****     } else if(t >= 614 && t < 819) {
 327:..\..\..\lvgl\version_6.1.2\lvgl\src\lv_misc/lv_anim.c ****         /*Fall back*/
ARM GAS  C:\Users\pearlstl\AppData\Local\Temp\ccYTDl6E.s 			page 8


 328:..\..\..\lvgl\version_6.1.2\lvgl\src\lv_misc/lv_anim.c ****         t -= 614;
 329:..\..\..\lvgl\version_6.1.2\lvgl\src\lv_misc/lv_anim.c ****         t    = t * 5; /*to [0..1024] range*/
 330:..\..\..\lvgl\version_6.1.2\lvgl\src\lv_misc/lv_anim.c ****         diff = diff / 6;
 331:..\..\..\lvgl\version_6.1.2\lvgl\src\lv_misc/lv_anim.c ****     } else if(t >= 819 && t < 921) {
 332:..\..\..\lvgl\version_6.1.2\lvgl\src\lv_misc/lv_anim.c ****         /*Second bounce back*/
 333:..\..\..\lvgl\version_6.1.2\lvgl\src\lv_misc/lv_anim.c ****         t -= 819;
 334:..\..\..\lvgl\version_6.1.2\lvgl\src\lv_misc/lv_anim.c ****         t    = t * 10; /*to [0..1024] range*/
 335:..\..\..\lvgl\version_6.1.2\lvgl\src\lv_misc/lv_anim.c ****         t    = 1024 - t;
 336:..\..\..\lvgl\version_6.1.2\lvgl\src\lv_misc/lv_anim.c ****         diff = diff / 16;
 337:..\..\..\lvgl\version_6.1.2\lvgl\src\lv_misc/lv_anim.c ****     } else if(t >= 921 && t <= 1024) {
 338:..\..\..\lvgl\version_6.1.2\lvgl\src\lv_misc/lv_anim.c ****         /*Fall back*/
 339:..\..\..\lvgl\version_6.1.2\lvgl\src\lv_misc/lv_anim.c ****         t -= 921;
 340:..\..\..\lvgl\version_6.1.2\lvgl\src\lv_misc/lv_anim.c ****         t    = t * 10; /*to [0..1024] range*/
 341:..\..\..\lvgl\version_6.1.2\lvgl\src\lv_misc/lv_anim.c ****         diff = diff / 16;
 342:..\..\..\lvgl\version_6.1.2\lvgl\src\lv_misc/lv_anim.c ****     }
 343:..\..\..\lvgl\version_6.1.2\lvgl\src\lv_misc/lv_anim.c **** 
 344:..\..\..\lvgl\version_6.1.2\lvgl\src\lv_misc/lv_anim.c ****     if(t > 1024) t = 1024;
 345:..\..\..\lvgl\version_6.1.2\lvgl\src\lv_misc/lv_anim.c **** 
 346:..\..\..\lvgl\version_6.1.2\lvgl\src\lv_misc/lv_anim.c ****     int32_t step = lv_bezier3(t, 1024, 1024, 800, 0);
 347:..\..\..\lvgl\version_6.1.2\lvgl\src\lv_misc/lv_anim.c **** 
 348:..\..\..\lvgl\version_6.1.2\lvgl\src\lv_misc/lv_anim.c ****     int32_t new_value;
 349:..\..\..\lvgl\version_6.1.2\lvgl\src\lv_misc/lv_anim.c ****     new_value = (int32_t)step * diff;
 350:..\..\..\lvgl\version_6.1.2\lvgl\src\lv_misc/lv_anim.c ****     new_value = new_value >> 10;
 351:..\..\..\lvgl\version_6.1.2\lvgl\src\lv_misc/lv_anim.c ****     new_value = a->end - new_value;
 352:..\..\..\lvgl\version_6.1.2\lvgl\src\lv_misc/lv_anim.c **** 
 353:..\..\..\lvgl\version_6.1.2\lvgl\src\lv_misc/lv_anim.c ****     return (lv_anim_value_t)new_value;
 354:..\..\..\lvgl\version_6.1.2\lvgl\src\lv_misc/lv_anim.c **** }
 355:..\..\..\lvgl\version_6.1.2\lvgl\src\lv_misc/lv_anim.c **** 
 356:..\..\..\lvgl\version_6.1.2\lvgl\src\lv_misc/lv_anim.c **** /**
 357:..\..\..\lvgl\version_6.1.2\lvgl\src\lv_misc/lv_anim.c ****  * Calculate the current value of an animation applying step characteristic.
 358:..\..\..\lvgl\version_6.1.2\lvgl\src\lv_misc/lv_anim.c ****  * (Set end value on the end of the animation)
 359:..\..\..\lvgl\version_6.1.2\lvgl\src\lv_misc/lv_anim.c ****  * @param a pointer to an animation
 360:..\..\..\lvgl\version_6.1.2\lvgl\src\lv_misc/lv_anim.c ****  * @return the current value to set
 361:..\..\..\lvgl\version_6.1.2\lvgl\src\lv_misc/lv_anim.c ****  */
 362:..\..\..\lvgl\version_6.1.2\lvgl\src\lv_misc/lv_anim.c **** lv_anim_value_t lv_anim_path_step(const lv_anim_t * a)
 363:..\..\..\lvgl\version_6.1.2\lvgl\src\lv_misc/lv_anim.c **** {
 364:..\..\..\lvgl\version_6.1.2\lvgl\src\lv_misc/lv_anim.c ****     if(a->act_time >= a->time)
 365:..\..\..\lvgl\version_6.1.2\lvgl\src\lv_misc/lv_anim.c ****         return a->end;
 366:..\..\..\lvgl\version_6.1.2\lvgl\src\lv_misc/lv_anim.c ****     else
 367:..\..\..\lvgl\version_6.1.2\lvgl\src\lv_misc/lv_anim.c ****         return a->start;
 368:..\..\..\lvgl\version_6.1.2\lvgl\src\lv_misc/lv_anim.c **** }
 369:..\..\..\lvgl\version_6.1.2\lvgl\src\lv_misc/lv_anim.c **** 
 370:..\..\..\lvgl\version_6.1.2\lvgl\src\lv_misc/lv_anim.c **** /**********************
 371:..\..\..\lvgl\version_6.1.2\lvgl\src\lv_misc/lv_anim.c ****  *   STATIC FUNCTIONS
 372:..\..\..\lvgl\version_6.1.2\lvgl\src\lv_misc/lv_anim.c ****  **********************/
 373:..\..\..\lvgl\version_6.1.2\lvgl\src\lv_misc/lv_anim.c **** 
 374:..\..\..\lvgl\version_6.1.2\lvgl\src\lv_misc/lv_anim.c **** /**
 375:..\..\..\lvgl\version_6.1.2\lvgl\src\lv_misc/lv_anim.c ****  * Periodically handle the animations.
 376:..\..\..\lvgl\version_6.1.2\lvgl\src\lv_misc/lv_anim.c ****  * @param param unused
 377:..\..\..\lvgl\version_6.1.2\lvgl\src\lv_misc/lv_anim.c ****  */
 378:..\..\..\lvgl\version_6.1.2\lvgl\src\lv_misc/lv_anim.c **** static void anim_task(lv_task_t * param)
 379:..\..\..\lvgl\version_6.1.2\lvgl\src\lv_misc/lv_anim.c **** {
  71              		.loc 1 379 0
  72              		.cfi_startproc
  73              		@ args = 0, pretend = 0, frame = 40
  74              		@ frame_needed = 0, uses_anonymous_args = 0
  75              	.LVL5:
ARM GAS  C:\Users\pearlstl\AppData\Local\Temp\ccYTDl6E.s 			page 9


  76 0000 2DE9F047 		push	{r4, r5, r6, r7, r8, r9, r10, lr}
  77              		.cfi_def_cfa_offset 32
  78              		.cfi_offset 4, -32
  79              		.cfi_offset 5, -28
  80              		.cfi_offset 6, -24
  81              		.cfi_offset 7, -20
  82              		.cfi_offset 8, -16
  83              		.cfi_offset 9, -12
  84              		.cfi_offset 10, -8
  85              		.cfi_offset 14, -4
 380:..\..\..\lvgl\version_6.1.2\lvgl\src\lv_misc/lv_anim.c ****     (void)param;
 381:..\..\..\lvgl\version_6.1.2\lvgl\src\lv_misc/lv_anim.c **** 
 382:..\..\..\lvgl\version_6.1.2\lvgl\src\lv_misc/lv_anim.c ****     lv_anim_t * a;
 383:..\..\..\lvgl\version_6.1.2\lvgl\src\lv_misc/lv_anim.c ****     LV_LL_READ(LV_GC_ROOT(_lv_anim_ll), a)
  86              		.loc 1 383 0
  87 0004 5048     		ldr	r0, .L46
  88              	.LVL6:
 379:..\..\..\lvgl\version_6.1.2\lvgl\src\lv_misc/lv_anim.c ****     (void)param;
  89              		.loc 1 379 0
  90 0006 8AB0     		sub	sp, sp, #40
  91              		.cfi_def_cfa_offset 72
  92              		.loc 1 383 0
  93 0008 FFF7FEFF 		bl	lv_ll_get_head
  94              	.LVL7:
  95 000c 0146     		mov	r1, r0
  96 000e 58B1     		cbz	r0, .L10
  97              	.L9:
 384:..\..\..\lvgl\version_6.1.2\lvgl\src\lv_misc/lv_anim.c ****     {
 385:..\..\..\lvgl\version_6.1.2\lvgl\src\lv_misc/lv_anim.c ****         a->has_run = 0;
  98              		.loc 1 385 0 discriminator 3
  99 0010 91F82030 		ldrb	r3, [r1, #32]	@ zero_extendqisi2
 383:..\..\..\lvgl\version_6.1.2\lvgl\src\lv_misc/lv_anim.c ****     {
 100              		.loc 1 383 0 discriminator 3
 101 0014 4C48     		ldr	r0, .L46
 102              	.LVL8:
 103              		.loc 1 385 0 discriminator 3
 104 0016 6FF3C303 		bfc	r3, #3, #1
 105 001a 81F82030 		strb	r3, [r1, #32]
 383:..\..\..\lvgl\version_6.1.2\lvgl\src\lv_misc/lv_anim.c ****     {
 106              		.loc 1 383 0 discriminator 3
 107 001e FFF7FEFF 		bl	lv_ll_get_next
 108              	.LVL9:
 109 0022 0146     		mov	r1, r0
 110 0024 0028     		cmp	r0, #0
 111 0026 F3D1     		bne	.L9
 112              	.L10:
 386:..\..\..\lvgl\version_6.1.2\lvgl\src\lv_misc/lv_anim.c ****     }
 387:..\..\..\lvgl\version_6.1.2\lvgl\src\lv_misc/lv_anim.c **** 
 388:..\..\..\lvgl\version_6.1.2\lvgl\src\lv_misc/lv_anim.c ****     uint32_t elaps = lv_tick_elaps(last_task_run);
 113              		.loc 1 388 0
 114 0028 484D     		ldr	r5, .L46+4
 115 002a 2868     		ldr	r0, [r5]
 116              	.LVL10:
 117 002c FFF7FEFF 		bl	lv_tick_elaps
 118              	.LVL11:
 119 0030 0746     		mov	r7, r0
 120              	.LVL12:
ARM GAS  C:\Users\pearlstl\AppData\Local\Temp\ccYTDl6E.s 			page 10


 389:..\..\..\lvgl\version_6.1.2\lvgl\src\lv_misc/lv_anim.c **** 
 390:..\..\..\lvgl\version_6.1.2\lvgl\src\lv_misc/lv_anim.c ****     a = lv_ll_get_head(&LV_GC_ROOT(_lv_anim_ll));
 121              		.loc 1 390 0
 122 0032 4548     		ldr	r0, .L46
 123              	.LVL13:
 124 0034 FFF7FEFF 		bl	lv_ll_get_head
 125              	.LVL14:
 391:..\..\..\lvgl\version_6.1.2\lvgl\src\lv_misc/lv_anim.c **** 
 392:..\..\..\lvgl\version_6.1.2\lvgl\src\lv_misc/lv_anim.c ****     while(a != NULL) {
 126              		.loc 1 392 0
 127 0038 0446     		mov	r4, r0
 128 003a 48B3     		cbz	r0, .L8
 393:..\..\..\lvgl\version_6.1.2\lvgl\src\lv_misc/lv_anim.c ****         /*It can be set by `lv_anim_del()` typically in `end_cb`. If set then an animation delete
 394:..\..\..\lvgl\version_6.1.2\lvgl\src\lv_misc/lv_anim.c ****          * happened in `anim_ready_handler` which could make this linked list reading corrupt
 395:..\..\..\lvgl\version_6.1.2\lvgl\src\lv_misc/lv_anim.c ****          * because the list is changed meanwhile
 396:..\..\..\lvgl\version_6.1.2\lvgl\src\lv_misc/lv_anim.c ****          */
 397:..\..\..\lvgl\version_6.1.2\lvgl\src\lv_misc/lv_anim.c ****         anim_list_changed = false;
 129              		.loc 1 397 0
 130 003c 0026     		movs	r6, #0
 131              	.LBB7:
 132              	.LBB8:
 133              	.LBB9:
 134              	.LBB10:
 398:..\..\..\lvgl\version_6.1.2\lvgl\src\lv_misc/lv_anim.c **** 
 399:..\..\..\lvgl\version_6.1.2\lvgl\src\lv_misc/lv_anim.c ****         if(!a->has_run) {
 400:..\..\..\lvgl\version_6.1.2\lvgl\src\lv_misc/lv_anim.c ****             a->has_run = 1; /*The list readying might be reseted so need to know which anim has run
 401:..\..\..\lvgl\version_6.1.2\lvgl\src\lv_misc/lv_anim.c ****             a->act_time += elaps;
 402:..\..\..\lvgl\version_6.1.2\lvgl\src\lv_misc/lv_anim.c ****             if(a->act_time >= 0) {
 403:..\..\..\lvgl\version_6.1.2\lvgl\src\lv_misc/lv_anim.c ****                 if(a->act_time > a->time) a->act_time = a->time;
 404:..\..\..\lvgl\version_6.1.2\lvgl\src\lv_misc/lv_anim.c **** 
 405:..\..\..\lvgl\version_6.1.2\lvgl\src\lv_misc/lv_anim.c ****                 int32_t new_value;
 406:..\..\..\lvgl\version_6.1.2\lvgl\src\lv_misc/lv_anim.c ****                 new_value = a->path_cb(a);
 407:..\..\..\lvgl\version_6.1.2\lvgl\src\lv_misc/lv_anim.c **** 
 408:..\..\..\lvgl\version_6.1.2\lvgl\src\lv_misc/lv_anim.c ****                 /*Apply the calculated value*/
 409:..\..\..\lvgl\version_6.1.2\lvgl\src\lv_misc/lv_anim.c ****                 if(a->exec_cb) a->exec_cb(a->var, new_value);
 410:..\..\..\lvgl\version_6.1.2\lvgl\src\lv_misc/lv_anim.c **** 
 411:..\..\..\lvgl\version_6.1.2\lvgl\src\lv_misc/lv_anim.c ****                 /*If the time is elapsed the animation is ready*/
 412:..\..\..\lvgl\version_6.1.2\lvgl\src\lv_misc/lv_anim.c ****                 if(a->act_time >= a->time) {
 413:..\..\..\lvgl\version_6.1.2\lvgl\src\lv_misc/lv_anim.c ****                     anim_ready_handler(a);
 414:..\..\..\lvgl\version_6.1.2\lvgl\src\lv_misc/lv_anim.c ****                 }
 415:..\..\..\lvgl\version_6.1.2\lvgl\src\lv_misc/lv_anim.c ****             }
 416:..\..\..\lvgl\version_6.1.2\lvgl\src\lv_misc/lv_anim.c ****         }
 417:..\..\..\lvgl\version_6.1.2\lvgl\src\lv_misc/lv_anim.c **** 
 418:..\..\..\lvgl\version_6.1.2\lvgl\src\lv_misc/lv_anim.c ****         /* If the linked list changed due to anim. delete then it's not safe to continue
 419:..\..\..\lvgl\version_6.1.2\lvgl\src\lv_misc/lv_anim.c ****          * the reading of the list from here -> start from the head*/
 420:..\..\..\lvgl\version_6.1.2\lvgl\src\lv_misc/lv_anim.c ****         if(anim_list_changed)
 421:..\..\..\lvgl\version_6.1.2\lvgl\src\lv_misc/lv_anim.c ****             a = lv_ll_get_head(&LV_GC_ROOT(_lv_anim_ll));
 422:..\..\..\lvgl\version_6.1.2\lvgl\src\lv_misc/lv_anim.c ****         else
 423:..\..\..\lvgl\version_6.1.2\lvgl\src\lv_misc/lv_anim.c ****             a = lv_ll_get_next(&LV_GC_ROOT(_lv_anim_ll), a);
 424:..\..\..\lvgl\version_6.1.2\lvgl\src\lv_misc/lv_anim.c ****     }
 425:..\..\..\lvgl\version_6.1.2\lvgl\src\lv_misc/lv_anim.c **** 
 426:..\..\..\lvgl\version_6.1.2\lvgl\src\lv_misc/lv_anim.c ****     last_task_run = lv_tick_get();
 427:..\..\..\lvgl\version_6.1.2\lvgl\src\lv_misc/lv_anim.c **** }
 428:..\..\..\lvgl\version_6.1.2\lvgl\src\lv_misc/lv_anim.c **** 
 429:..\..\..\lvgl\version_6.1.2\lvgl\src\lv_misc/lv_anim.c **** /**
 430:..\..\..\lvgl\version_6.1.2\lvgl\src\lv_misc/lv_anim.c ****  * Called when an animation is ready to do the necessary thinks
 431:..\..\..\lvgl\version_6.1.2\lvgl\src\lv_misc/lv_anim.c ****  * e.g. repeat, play back, delete etc.
ARM GAS  C:\Users\pearlstl\AppData\Local\Temp\ccYTDl6E.s 			page 11


 432:..\..\..\lvgl\version_6.1.2\lvgl\src\lv_misc/lv_anim.c ****  * @param a pointer to an animation descriptor
 433:..\..\..\lvgl\version_6.1.2\lvgl\src\lv_misc/lv_anim.c ****  * @return true: animation delete occurred nnd the `LV_GC_ROOT(_lv_anim_ll)` has changed
 434:..\..\..\lvgl\version_6.1.2\lvgl\src\lv_misc/lv_anim.c ****  * */
 435:..\..\..\lvgl\version_6.1.2\lvgl\src\lv_misc/lv_anim.c **** static bool anim_ready_handler(lv_anim_t * a)
 436:..\..\..\lvgl\version_6.1.2\lvgl\src\lv_misc/lv_anim.c **** {
 437:..\..\..\lvgl\version_6.1.2\lvgl\src\lv_misc/lv_anim.c **** 
 438:..\..\..\lvgl\version_6.1.2\lvgl\src\lv_misc/lv_anim.c ****     /*Delete the animation if
 439:..\..\..\lvgl\version_6.1.2\lvgl\src\lv_misc/lv_anim.c ****      * - no repeat and no play back (simple one shot animation)
 440:..\..\..\lvgl\version_6.1.2\lvgl\src\lv_misc/lv_anim.c ****      * - no repeat, play back is enabled and play back is ready */
 441:..\..\..\lvgl\version_6.1.2\lvgl\src\lv_misc/lv_anim.c ****     if((a->repeat == 0 && a->playback == 0) || (a->repeat == 0 && a->playback == 1 && a->playback_n
 442:..\..\..\lvgl\version_6.1.2\lvgl\src\lv_misc/lv_anim.c **** 
 443:..\..\..\lvgl\version_6.1.2\lvgl\src\lv_misc/lv_anim.c ****         /*Create copy from the animation and delete the animation from the list.
 444:..\..\..\lvgl\version_6.1.2\lvgl\src\lv_misc/lv_anim.c ****          * This way the `ready_cb` will see the animations like it's animation is ready deleted*/
 445:..\..\..\lvgl\version_6.1.2\lvgl\src\lv_misc/lv_anim.c ****         lv_anim_t a_tmp;
 446:..\..\..\lvgl\version_6.1.2\lvgl\src\lv_misc/lv_anim.c ****         memcpy(&a_tmp, a, sizeof(lv_anim_t));
 447:..\..\..\lvgl\version_6.1.2\lvgl\src\lv_misc/lv_anim.c ****         lv_ll_rem(&LV_GC_ROOT(_lv_anim_ll), a);
 448:..\..\..\lvgl\version_6.1.2\lvgl\src\lv_misc/lv_anim.c ****         lv_mem_free(a);
 449:..\..\..\lvgl\version_6.1.2\lvgl\src\lv_misc/lv_anim.c ****         anim_list_changed = true;
 135              		.loc 1 449 0
 136 003e A846     		mov	r8, r5
 137              	.L24:
 138              	.LBE10:
 139              	.LBE9:
 140              	.LBE8:
 141              	.LBE7:
 399:..\..\..\lvgl\version_6.1.2\lvgl\src\lv_misc/lv_anim.c ****             a->has_run = 1; /*The list readying might be reseted so need to know which anim has run
 142              		.loc 1 399 0
 143 0040 94F82020 		ldrb	r2, [r4, #32]	@ zero_extendqisi2
 397:..\..\..\lvgl\version_6.1.2\lvgl\src\lv_misc/lv_anim.c **** 
 144              		.loc 1 397 0
 145 0044 2E71     		strb	r6, [r5, #4]
 399:..\..\..\lvgl\version_6.1.2\lvgl\src\lv_misc/lv_anim.c ****             a->has_run = 1; /*The list readying might be reseted so need to know which anim has run
 146              		.loc 1 399 0
 147 0046 1007     		lsls	r0, r2, #28
 148              	.LVL15:
 149 0048 28D4     		bmi	.L23
 401:..\..\..\lvgl\version_6.1.2\lvgl\src\lv_misc/lv_anim.c ****             if(a->act_time >= 0) {
 150              		.loc 1 401 0
 151 004a 638B     		ldrh	r3, [r4, #26]
 152 004c 3B44     		add	r3, r3, r7
 153 004e 1BB2     		sxth	r3, r3
 400:..\..\..\lvgl\version_6.1.2\lvgl\src\lv_misc/lv_anim.c ****             a->act_time += elaps;
 154              		.loc 1 400 0
 155 0050 42F00802 		orr	r2, r2, #8
 402:..\..\..\lvgl\version_6.1.2\lvgl\src\lv_misc/lv_anim.c ****                 if(a->act_time > a->time) a->act_time = a->time;
 156              		.loc 1 402 0
 157 0054 002B     		cmp	r3, #0
 400:..\..\..\lvgl\version_6.1.2\lvgl\src\lv_misc/lv_anim.c ****             a->act_time += elaps;
 158              		.loc 1 400 0
 159 0056 84F82020 		strb	r2, [r4, #32]
 401:..\..\..\lvgl\version_6.1.2\lvgl\src\lv_misc/lv_anim.c ****             if(a->act_time >= 0) {
 160              		.loc 1 401 0
 161 005a 6383     		strh	r3, [r4, #26]	@ movhi
 402:..\..\..\lvgl\version_6.1.2\lvgl\src\lv_misc/lv_anim.c ****                 if(a->act_time > a->time) a->act_time = a->time;
 162              		.loc 1 402 0
 163 005c 1EDB     		blt	.L23
 164              	.LBB15:
ARM GAS  C:\Users\pearlstl\AppData\Local\Temp\ccYTDl6E.s 			page 12


 403:..\..\..\lvgl\version_6.1.2\lvgl\src\lv_misc/lv_anim.c **** 
 165              		.loc 1 403 0
 166 005e 228B     		ldrh	r2, [r4, #24]
 167 0060 9342     		cmp	r3, r2
 168 0062 C8BF     		it	gt
 169 0064 6283     		strhgt	r2, [r4, #26]	@ movhi
 406:..\..\..\lvgl\version_6.1.2\lvgl\src\lv_misc/lv_anim.c **** 
 170              		.loc 1 406 0
 171 0066 A368     		ldr	r3, [r4, #8]
 172 0068 2046     		mov	r0, r4
 173 006a 9847     		blx	r3
 174              	.LVL16:
 409:..\..\..\lvgl\version_6.1.2\lvgl\src\lv_misc/lv_anim.c **** 
 175              		.loc 1 409 0
 176 006c 6368     		ldr	r3, [r4, #4]
 177 006e 13B1     		cbz	r3, .L13
 409:..\..\..\lvgl\version_6.1.2\lvgl\src\lv_misc/lv_anim.c **** 
 178              		.loc 1 409 0 is_stmt 0 discriminator 1
 179 0070 0146     		mov	r1, r0
 180 0072 2068     		ldr	r0, [r4]
 181              	.LVL17:
 182 0074 9847     		blx	r3
 183              	.LVL18:
 184              	.L13:
 412:..\..\..\lvgl\version_6.1.2\lvgl\src\lv_misc/lv_anim.c ****                     anim_ready_handler(a);
 185              		.loc 1 412 0 is_stmt 1
 186 0076 B4F91A20 		ldrsh	r2, [r4, #26]
 187 007a 238B     		ldrh	r3, [r4, #24]
 188 007c 9A42     		cmp	r2, r3
 189 007e 15DA     		bge	.L45
 190              	.L44:
 191 0080 2B79     		ldrb	r3, [r5, #4]	@ zero_extendqisi2
 192              	.L15:
 193              	.LBE15:
 420:..\..\..\lvgl\version_6.1.2\lvgl\src\lv_misc/lv_anim.c ****             a = lv_ll_get_head(&LV_GC_ROOT(_lv_anim_ll));
 194              		.loc 1 420 0
 195 0082 5BB1     		cbz	r3, .L23
 196              	.L33:
 421:..\..\..\lvgl\version_6.1.2\lvgl\src\lv_misc/lv_anim.c ****         else
 197              		.loc 1 421 0
 198 0084 3048     		ldr	r0, .L46
 199 0086 FFF7FEFF 		bl	lv_ll_get_head
 200              	.LVL19:
 201 008a 0446     		mov	r4, r0
 202              	.LVL20:
 392:..\..\..\lvgl\version_6.1.2\lvgl\src\lv_misc/lv_anim.c ****         /*It can be set by `lv_anim_del()` typically in `end_cb`. If set then an animation delete
 203              		.loc 1 392 0
 204 008c 002C     		cmp	r4, #0
 205 008e D7D1     		bne	.L24
 206              	.L8:
 426:..\..\..\lvgl\version_6.1.2\lvgl\src\lv_misc/lv_anim.c **** }
 207              		.loc 1 426 0
 208 0090 FFF7FEFF 		bl	lv_tick_get
 209              	.LVL21:
 210 0094 2860     		str	r0, [r5]
 427:..\..\..\lvgl\version_6.1.2\lvgl\src\lv_misc/lv_anim.c **** 
 211              		.loc 1 427 0
ARM GAS  C:\Users\pearlstl\AppData\Local\Temp\ccYTDl6E.s 			page 13


 212 0096 0AB0     		add	sp, sp, #40
 213              		.cfi_remember_state
 214              		.cfi_def_cfa_offset 32
 215              		@ sp needed
 216 0098 BDE8F087 		pop	{r4, r5, r6, r7, r8, r9, r10, pc}
 217              	.LVL22:
 218              	.L23:
 219              		.cfi_restore_state
 423:..\..\..\lvgl\version_6.1.2\lvgl\src\lv_misc/lv_anim.c ****     }
 220              		.loc 1 423 0
 221 009c 2146     		mov	r1, r4
 222 009e 2A48     		ldr	r0, .L46
 223 00a0 FFF7FEFF 		bl	lv_ll_get_next
 224              	.LVL23:
 225 00a4 0446     		mov	r4, r0
 226              	.LVL24:
 392:..\..\..\lvgl\version_6.1.2\lvgl\src\lv_misc/lv_anim.c ****         /*It can be set by `lv_anim_del()` typically in `end_cb`. If set then an animation delete
 227              		.loc 1 392 0
 228 00a6 002C     		cmp	r4, #0
 229 00a8 CAD1     		bne	.L24
 230 00aa F1E7     		b	.L8
 231              	.LVL25:
 232              	.L45:
 233              	.LBB16:
 234              	.LBB14:
 235              	.LBB13:
 441:..\..\..\lvgl\version_6.1.2\lvgl\src\lv_misc/lv_anim.c **** 
 236              		.loc 1 441 0
 237 00ac 94F82030 		ldrb	r3, [r4, #32]	@ zero_extendqisi2
 238 00b0 9907     		lsls	r1, r3, #30
 239 00b2 1FD0     		beq	.L16
 240 00b4 03F00702 		and	r2, r3, #7
 241 00b8 052A     		cmp	r2, #5
 242 00ba 1BD0     		beq	.L16
 450:..\..\..\lvgl\version_6.1.2\lvgl\src\lv_misc/lv_anim.c **** 
 451:..\..\..\lvgl\version_6.1.2\lvgl\src\lv_misc/lv_anim.c ****         /* Call the callback function at the end*/
 452:..\..\..\lvgl\version_6.1.2\lvgl\src\lv_misc/lv_anim.c ****         if(a_tmp.ready_cb != NULL) a_tmp.ready_cb(&a_tmp);
 453:..\..\..\lvgl\version_6.1.2\lvgl\src\lv_misc/lv_anim.c ****     }
 454:..\..\..\lvgl\version_6.1.2\lvgl\src\lv_misc/lv_anim.c ****     /*If the animation is not deleted then restart it*/
 455:..\..\..\lvgl\version_6.1.2\lvgl\src\lv_misc/lv_anim.c ****     else {
 456:..\..\..\lvgl\version_6.1.2\lvgl\src\lv_misc/lv_anim.c ****         a->act_time = -a->repeat_pause; /*Restart the animation*/
 243              		.loc 1 456 0
 244 00bc E28B     		ldrh	r2, [r4, #30]
 245 00be 5242     		negs	r2, r2
 246 00c0 6283     		strh	r2, [r4, #26]	@ movhi
 457:..\..\..\lvgl\version_6.1.2\lvgl\src\lv_misc/lv_anim.c ****         /*Swap the start and end values in play back mode*/
 458:..\..\..\lvgl\version_6.1.2\lvgl\src\lv_misc/lv_anim.c ****         if(a->playback != 0) {
 247              		.loc 1 458 0
 248 00c2 DA07     		lsls	r2, r3, #31
 249 00c4 DCD5     		bpl	.L44
 250              	.LBB11:
 459:..\..\..\lvgl\version_6.1.2\lvgl\src\lv_misc/lv_anim.c ****             /*If now turning back use the 'playback_pause*/
 460:..\..\..\lvgl\version_6.1.2\lvgl\src\lv_misc/lv_anim.c ****             if(a->playback_now == 0) a->act_time = -a->playback_pause;
 251              		.loc 1 460 0
 252 00c6 03F00403 		and	r3, r3, #4
 253 00ca 03F0FF02 		and	r2, r3, #255
 254 00ce 13B9     		cbnz	r3, .L22
ARM GAS  C:\Users\pearlstl\AppData\Local\Temp\ccYTDl6E.s 			page 14


 255 00d0 A38B     		ldrh	r3, [r4, #28]
 256 00d2 5B42     		negs	r3, r3
 257 00d4 6383     		strh	r3, [r4, #26]	@ movhi
 258              	.L22:
 461:..\..\..\lvgl\version_6.1.2\lvgl\src\lv_misc/lv_anim.c **** 
 462:..\..\..\lvgl\version_6.1.2\lvgl\src\lv_misc/lv_anim.c ****             /*Toggle the play back state*/
 463:..\..\..\lvgl\version_6.1.2\lvgl\src\lv_misc/lv_anim.c ****             a->playback_now = a->playback_now == 0 ? 1 : 0;
 259              		.loc 1 463 0
 260 00d6 B2FA82F3 		clz	r3, r2
 261 00da 94F82020 		ldrb	r2, [r4, #32]	@ zero_extendqisi2
 464:..\..\..\lvgl\version_6.1.2\lvgl\src\lv_misc/lv_anim.c ****             /*Swap the start and end values*/
 465:..\..\..\lvgl\version_6.1.2\lvgl\src\lv_misc/lv_anim.c ****             int32_t tmp;
 466:..\..\..\lvgl\version_6.1.2\lvgl\src\lv_misc/lv_anim.c ****             tmp      = a->start;
 262              		.loc 1 466 0
 263 00de 2169     		ldr	r1, [r4, #16]
 264              	.LVL26:
 467:..\..\..\lvgl\version_6.1.2\lvgl\src\lv_misc/lv_anim.c ****             a->start = a->end;
 265              		.loc 1 467 0
 266 00e0 6069     		ldr	r0, [r4, #20]
 267 00e2 2061     		str	r0, [r4, #16]
 463:..\..\..\lvgl\version_6.1.2\lvgl\src\lv_misc/lv_anim.c ****             /*Swap the start and end values*/
 268              		.loc 1 463 0
 269 00e4 5B09     		lsrs	r3, r3, #5
 270 00e6 63F38202 		bfi	r2, r3, #2, #1
 271 00ea 84F82020 		strb	r2, [r4, #32]
 272 00ee 2B79     		ldrb	r3, [r5, #4]	@ zero_extendqisi2
 468:..\..\..\lvgl\version_6.1.2\lvgl\src\lv_misc/lv_anim.c ****             a->end   = tmp;
 273              		.loc 1 468 0
 274 00f0 6161     		str	r1, [r4, #20]
 275 00f2 C6E7     		b	.L15
 276              	.LVL27:
 277              	.L16:
 278              	.LBE11:
 279              	.LBB12:
 446:..\..\..\lvgl\version_6.1.2\lvgl\src\lv_misc/lv_anim.c ****         lv_ll_rem(&LV_GC_ROOT(_lv_anim_ll), a);
 280              		.loc 1 446 0
 281 00f4 0DF10409 		add	r9, sp, #4
 282 00f8 A646     		mov	lr, r4
 283 00fa 04F1200A 		add	r10, r4, #32
 284              	.L18:
 285 00fe DEF80000 		ldr	r0, [lr]	@ unaligned
 286 0102 DEF80410 		ldr	r1, [lr, #4]	@ unaligned
 287 0106 DEF80820 		ldr	r2, [lr, #8]	@ unaligned
 288 010a DEF80C30 		ldr	r3, [lr, #12]	@ unaligned
 289 010e CC46     		mov	ip, r9
 290 0110 ACE80F00 		stmia	ip!, {r0, r1, r2, r3}
 291 0114 0EF1100E 		add	lr, lr, #16
 292 0118 D645     		cmp	lr, r10
 293 011a E146     		mov	r9, ip
 294 011c EFD1     		bne	.L18
 295 011e DEF80000 		ldr	r0, [lr]	@ unaligned
 296 0122 CCF80000 		str	r0, [ip]	@ unaligned
 447:..\..\..\lvgl\version_6.1.2\lvgl\src\lv_misc/lv_anim.c ****         lv_mem_free(a);
 297              		.loc 1 447 0
 298 0126 2146     		mov	r1, r4
 299 0128 0748     		ldr	r0, .L46
 300 012a FFF7FEFF 		bl	lv_ll_rem
ARM GAS  C:\Users\pearlstl\AppData\Local\Temp\ccYTDl6E.s 			page 15


 301              	.LVL28:
 448:..\..\..\lvgl\version_6.1.2\lvgl\src\lv_misc/lv_anim.c ****         anim_list_changed = true;
 302              		.loc 1 448 0
 303 012e 2046     		mov	r0, r4
 304 0130 FFF7FEFF 		bl	lv_mem_free
 305              	.LVL29:
 452:..\..\..\lvgl\version_6.1.2\lvgl\src\lv_misc/lv_anim.c ****     }
 306              		.loc 1 452 0
 307 0134 049B     		ldr	r3, [sp, #16]
 449:..\..\..\lvgl\version_6.1.2\lvgl\src\lv_misc/lv_anim.c **** 
 308              		.loc 1 449 0
 309 0136 0122     		movs	r2, #1
 310 0138 2A71     		strb	r2, [r5, #4]
 452:..\..\..\lvgl\version_6.1.2\lvgl\src\lv_misc/lv_anim.c ****     }
 311              		.loc 1 452 0
 312 013a 002B     		cmp	r3, #0
 313 013c A2D0     		beq	.L33
 314 013e 01A8     		add	r0, sp, #4
 315 0140 9847     		blx	r3
 316              	.LVL30:
 317 0142 98F80430 		ldrb	r3, [r8, #4]	@ zero_extendqisi2
 318 0146 9CE7     		b	.L15
 319              	.L47:
 320              		.align	2
 321              	.L46:
 322 0148 00000000 		.word	_lv_anim_ll
 323 014c 00000000 		.word	.LANCHOR0
 324              	.LBE12:
 325              	.LBE13:
 326              	.LBE14:
 327              	.LBE16:
 328              		.cfi_endproc
 329              	.LFE44:
 330              		.size	anim_task, .-anim_task
 331              		.section	.text.lv_anim_core_init,"ax",%progbits
 332              		.align	2
 333              		.global	lv_anim_core_init
 334              		.thumb
 335              		.thumb_func
 336              		.type	lv_anim_core_init, %function
 337              	lv_anim_core_init:
 338              	.LFB31:
  58:..\..\..\lvgl\version_6.1.2\lvgl\src\lv_misc/lv_anim.c ****     lv_ll_init(&LV_GC_ROOT(_lv_anim_ll), sizeof(lv_anim_t));
 339              		.loc 1 58 0
 340              		.cfi_startproc
 341              		@ args = 0, pretend = 0, frame = 0
 342              		@ frame_needed = 0, uses_anonymous_args = 0
 343 0000 10B5     		push	{r4, lr}
 344              		.cfi_def_cfa_offset 8
 345              		.cfi_offset 4, -8
 346              		.cfi_offset 14, -4
  59:..\..\..\lvgl\version_6.1.2\lvgl\src\lv_misc/lv_anim.c ****     last_task_run = lv_tick_get();
 347              		.loc 1 59 0
 348 0002 2421     		movs	r1, #36
 349 0004 0748     		ldr	r0, .L50
 350 0006 FFF7FEFF 		bl	lv_ll_init
 351              	.LVL31:
ARM GAS  C:\Users\pearlstl\AppData\Local\Temp\ccYTDl6E.s 			page 16


  60:..\..\..\lvgl\version_6.1.2\lvgl\src\lv_misc/lv_anim.c ****     lv_task_create(anim_task, LV_DISP_DEF_REFR_PERIOD, LV_TASK_PRIO_MID, NULL);
 352              		.loc 1 60 0
 353 000a FFF7FEFF 		bl	lv_tick_get
 354              	.LVL32:
 355 000e 064A     		ldr	r2, .L50+4
  61:..\..\..\lvgl\version_6.1.2\lvgl\src\lv_misc/lv_anim.c **** }
 356              		.loc 1 61 0
 357 0010 0023     		movs	r3, #0
  60:..\..\..\lvgl\version_6.1.2\lvgl\src\lv_misc/lv_anim.c ****     lv_task_create(anim_task, LV_DISP_DEF_REFR_PERIOD, LV_TASK_PRIO_MID, NULL);
 358              		.loc 1 60 0
 359 0012 1060     		str	r0, [r2]
  61:..\..\..\lvgl\version_6.1.2\lvgl\src\lv_misc/lv_anim.c **** }
 360              		.loc 1 61 0
 361 0014 1E21     		movs	r1, #30
 362 0016 0322     		movs	r2, #3
 363 0018 0448     		ldr	r0, .L50+8
  62:..\..\..\lvgl\version_6.1.2\lvgl\src\lv_misc/lv_anim.c **** 
 364              		.loc 1 62 0
 365 001a BDE81040 		pop	{r4, lr}
 366              		.cfi_restore 14
 367              		.cfi_restore 4
 368              		.cfi_def_cfa_offset 0
  61:..\..\..\lvgl\version_6.1.2\lvgl\src\lv_misc/lv_anim.c **** }
 369              		.loc 1 61 0
 370 001e FFF7FEBF 		b	lv_task_create
 371              	.LVL33:
 372              	.L51:
 373 0022 00BF     		.align	2
 374              	.L50:
 375 0024 00000000 		.word	_lv_anim_ll
 376 0028 00000000 		.word	.LANCHOR0
 377 002c 00000000 		.word	anim_task
 378              		.cfi_endproc
 379              	.LFE31:
 380              		.size	lv_anim_core_init, .-lv_anim_core_init
 381              		.section	.text.lv_anim_init,"ax",%progbits
 382              		.align	2
 383              		.global	lv_anim_init
 384              		.thumb
 385              		.thumb_func
 386              		.type	lv_anim_init, %function
 387              	lv_anim_init:
 388              	.LFB32:
  74:..\..\..\lvgl\version_6.1.2\lvgl\src\lv_misc/lv_anim.c ****     memset(a, 0, sizeof(lv_anim_t));
 389              		.loc 1 74 0
 390              		.cfi_startproc
 391              		@ args = 0, pretend = 0, frame = 0
 392              		@ frame_needed = 0, uses_anonymous_args = 0
 393              	.LVL34:
 394 0000 10B5     		push	{r4, lr}
 395              		.cfi_def_cfa_offset 8
 396              		.cfi_offset 4, -8
 397              		.cfi_offset 14, -4
  75:..\..\..\lvgl\version_6.1.2\lvgl\src\lv_misc/lv_anim.c ****     a->time    = 500;
 398              		.loc 1 75 0
 399 0002 2422     		movs	r2, #36
  74:..\..\..\lvgl\version_6.1.2\lvgl\src\lv_misc/lv_anim.c ****     memset(a, 0, sizeof(lv_anim_t));
ARM GAS  C:\Users\pearlstl\AppData\Local\Temp\ccYTDl6E.s 			page 17


 400              		.loc 1 74 0
 401 0004 0446     		mov	r4, r0
  75:..\..\..\lvgl\version_6.1.2\lvgl\src\lv_misc/lv_anim.c ****     a->time    = 500;
 402              		.loc 1 75 0
 403 0006 0021     		movs	r1, #0
 404 0008 FFF7FEFF 		bl	memset
 405              	.LVL35:
  76:..\..\..\lvgl\version_6.1.2\lvgl\src\lv_misc/lv_anim.c ****     a->start   = 0;
 406              		.loc 1 76 0
 407 000c 4FF4FA71 		mov	r1, #500
  78:..\..\..\lvgl\version_6.1.2\lvgl\src\lv_misc/lv_anim.c ****     a->path_cb = lv_anim_path_linear;
 408              		.loc 1 78 0
 409 0010 6422     		movs	r2, #100
  79:..\..\..\lvgl\version_6.1.2\lvgl\src\lv_misc/lv_anim.c **** }
 410              		.loc 1 79 0
 411 0012 024B     		ldr	r3, .L54
  76:..\..\..\lvgl\version_6.1.2\lvgl\src\lv_misc/lv_anim.c ****     a->start   = 0;
 412              		.loc 1 76 0
 413 0014 2183     		strh	r1, [r4, #24]	@ movhi
  78:..\..\..\lvgl\version_6.1.2\lvgl\src\lv_misc/lv_anim.c ****     a->path_cb = lv_anim_path_linear;
 414              		.loc 1 78 0
 415 0016 6261     		str	r2, [r4, #20]
  79:..\..\..\lvgl\version_6.1.2\lvgl\src\lv_misc/lv_anim.c **** }
 416              		.loc 1 79 0
 417 0018 A360     		str	r3, [r4, #8]
 418 001a 10BD     		pop	{r4, pc}
 419              	.LVL36:
 420              	.L55:
 421              		.align	2
 422              	.L54:
 423 001c 00000000 		.word	lv_anim_path_linear
 424              		.cfi_endproc
 425              	.LFE32:
 426              		.size	lv_anim_init, .-lv_anim_init
 427              		.section	.text.lv_anim_create,"ax",%progbits
 428              		.align	2
 429              		.global	lv_anim_create
 430              		.thumb
 431              		.thumb_func
 432              		.type	lv_anim_create, %function
 433              	lv_anim_create:
 434              	.LFB33:
  86:..\..\..\lvgl\version_6.1.2\lvgl\src\lv_misc/lv_anim.c ****     LV_LOG_TRACE("animation create started")
 435              		.loc 1 86 0
 436              		.cfi_startproc
 437              		@ args = 0, pretend = 0, frame = 0
 438              		@ frame_needed = 0, uses_anonymous_args = 0
 439              	.LVL37:
 440 0000 2DE9F047 		push	{r4, r5, r6, r7, r8, r9, r10, lr}
 441              		.cfi_def_cfa_offset 32
 442              		.cfi_offset 4, -32
 443              		.cfi_offset 5, -28
 444              		.cfi_offset 6, -24
 445              		.cfi_offset 7, -20
 446              		.cfi_offset 8, -16
 447              		.cfi_offset 9, -12
 448              		.cfi_offset 10, -8
ARM GAS  C:\Users\pearlstl\AppData\Local\Temp\ccYTDl6E.s 			page 18


 449              		.cfi_offset 14, -4
  89:..\..\..\lvgl\version_6.1.2\lvgl\src\lv_misc/lv_anim.c **** 
 450              		.loc 1 89 0
 451 0004 D0F80480 		ldr	r8, [r0, #4]
  86:..\..\..\lvgl\version_6.1.2\lvgl\src\lv_misc/lv_anim.c ****     LV_LOG_TRACE("animation create started")
 452              		.loc 1 86 0
 453 0008 0746     		mov	r7, r0
  89:..\..\..\lvgl\version_6.1.2\lvgl\src\lv_misc/lv_anim.c **** 
 454              		.loc 1 89 0
 455 000a B8F1000F 		cmp	r8, #0
 456 000e 23D0     		beq	.L60
 457              	.LBB19:
 458              	.LBB20:
 122:..\..\..\lvgl\version_6.1.2\lvgl\src\lv_misc/lv_anim.c ****     while(a != NULL) {
 459              		.loc 1 122 0 discriminator 1
 460 0010 2648     		ldr	r0, .L79
 461              	.LVL38:
 462              	.LBE20:
 463              	.LBE19:
  89:..\..\..\lvgl\version_6.1.2\lvgl\src\lv_misc/lv_anim.c **** 
 464              		.loc 1 89 0 discriminator 1
 465 0012 3E68     		ldr	r6, [r7]
 466              	.LVL39:
 467              	.LBB22:
 468              	.LBB21:
 122:..\..\..\lvgl\version_6.1.2\lvgl\src\lv_misc/lv_anim.c ****     while(a != NULL) {
 469              		.loc 1 122 0 discriminator 1
 470 0014 FFF7FEFF 		bl	lv_ll_get_head
 471              	.LVL40:
 123:..\..\..\lvgl\version_6.1.2\lvgl\src\lv_misc/lv_anim.c ****         /*'a' might be deleted, so get the next object while 'a' is valid*/
 472              		.loc 1 123 0 discriminator 1
 473 0018 0446     		mov	r4, r0
 474 001a E8B1     		cbz	r0, .L60
 130:..\..\..\lvgl\version_6.1.2\lvgl\src\lv_misc/lv_anim.c ****                                          the linked list*/
 475              		.loc 1 130 0
 476 001c DFF890A0 		ldr	r10, .L79+4
 477 0020 4FF00109 		mov	r9, #1
 478 0024 01E0     		b	.L62
 479              	.LVL41:
 480              	.L61:
 123:..\..\..\lvgl\version_6.1.2\lvgl\src\lv_misc/lv_anim.c ****         /*'a' might be deleted, so get the next object while 'a' is valid*/
 481              		.loc 1 123 0
 482 0026 2C46     		mov	r4, r5
 483 0028 B5B1     		cbz	r5, .L60
 484              	.LVL42:
 485              	.L62:
 125:..\..\..\lvgl\version_6.1.2\lvgl\src\lv_misc/lv_anim.c **** 
 486              		.loc 1 125 0
 487 002a 2146     		mov	r1, r4
 488 002c 1F48     		ldr	r0, .L79
 489 002e FFF7FEFF 		bl	lv_ll_get_next
 490              	.LVL43:
 127:..\..\..\lvgl\version_6.1.2\lvgl\src\lv_misc/lv_anim.c ****             lv_ll_rem(&LV_GC_ROOT(_lv_anim_ll), a);
 491              		.loc 1 127 0
 492 0032 2368     		ldr	r3, [r4]
 493 0034 9E42     		cmp	r6, r3
 125:..\..\..\lvgl\version_6.1.2\lvgl\src\lv_misc/lv_anim.c **** 
ARM GAS  C:\Users\pearlstl\AppData\Local\Temp\ccYTDl6E.s 			page 19


 494              		.loc 1 125 0
 495 0036 0546     		mov	r5, r0
 496              	.LVL44:
 127:..\..\..\lvgl\version_6.1.2\lvgl\src\lv_misc/lv_anim.c ****             lv_ll_rem(&LV_GC_ROOT(_lv_anim_ll), a);
 497              		.loc 1 127 0
 498 0038 F5D1     		bne	.L61
 499 003a 6368     		ldr	r3, [r4, #4]
 500 003c 9845     		cmp	r8, r3
 501 003e F2D1     		bne	.L61
 128:..\..\..\lvgl\version_6.1.2\lvgl\src\lv_misc/lv_anim.c ****             lv_mem_free(a);
 502              		.loc 1 128 0
 503 0040 2146     		mov	r1, r4
 504 0042 1A48     		ldr	r0, .L79
 505              	.LVL45:
 506 0044 FFF7FEFF 		bl	lv_ll_rem
 507              	.LVL46:
 129:..\..\..\lvgl\version_6.1.2\lvgl\src\lv_misc/lv_anim.c ****             anim_list_changed = true; /*Read by `anim_task`. It need to know if a delete occurred i
 508              		.loc 1 129 0
 509 0048 2046     		mov	r0, r4
 510 004a FFF7FEFF 		bl	lv_mem_free
 511              	.LVL47:
 123:..\..\..\lvgl\version_6.1.2\lvgl\src\lv_misc/lv_anim.c ****         /*'a' might be deleted, so get the next object while 'a' is valid*/
 512              		.loc 1 123 0
 513 004e 2C46     		mov	r4, r5
 514              	.LVL48:
 130:..\..\..\lvgl\version_6.1.2\lvgl\src\lv_misc/lv_anim.c ****                                          the linked list*/
 515              		.loc 1 130 0
 516 0050 8AF80490 		strb	r9, [r10, #4]
 517              	.LVL49:
 123:..\..\..\lvgl\version_6.1.2\lvgl\src\lv_misc/lv_anim.c ****         /*'a' might be deleted, so get the next object while 'a' is valid*/
 518              		.loc 1 123 0
 519 0054 002D     		cmp	r5, #0
 520 0056 E8D1     		bne	.L62
 521              	.LVL50:
 522              	.L60:
 523              	.LBE21:
 524              	.LBE22:
  92:..\..\..\lvgl\version_6.1.2\lvgl\src\lv_misc/lv_anim.c ****     LV_ASSERT_MEM(new_anim);
 525              		.loc 1 92 0
 526 0058 1448     		ldr	r0, .L79
 527 005a FFF7FEFF 		bl	lv_ll_ins_head
 528              	.LVL51:
  94:..\..\..\lvgl\version_6.1.2\lvgl\src\lv_misc/lv_anim.c **** 
 529              		.loc 1 94 0
 530 005e 18B3     		cbz	r0, .L78
  97:..\..\..\lvgl\version_6.1.2\lvgl\src\lv_misc/lv_anim.c ****     memcpy(new_anim, a, sizeof(lv_anim_t));
 531              		.loc 1 97 0
 532 0060 97F82020 		ldrb	r2, [r7, #32]	@ zero_extendqisi2
 533 0064 6FF38202 		bfc	r2, #2, #1
 534 0068 87F82020 		strb	r2, [r7, #32]
  98:..\..\..\lvgl\version_6.1.2\lvgl\src\lv_misc/lv_anim.c **** 
 535              		.loc 1 98 0
 536 006c 3B46     		mov	r3, r7
 537 006e 07F12001 		add	r1, r7, #32
 538 0072 0246     		mov	r2, r0
 539              	.LVL52:
 540              	.L63:
ARM GAS  C:\Users\pearlstl\AppData\Local\Temp\ccYTDl6E.s 			page 20


 541 0074 1E68     		ldr	r6, [r3]	@ unaligned
 542 0076 5D68     		ldr	r5, [r3, #4]	@ unaligned
 543 0078 9C68     		ldr	r4, [r3, #8]	@ unaligned
 544 007a DF68     		ldr	r7, [r3, #12]	@ unaligned
 545 007c D760     		str	r7, [r2, #12]	@ unaligned
 546 007e 1033     		adds	r3, r3, #16
 547 0080 8B42     		cmp	r3, r1
 548 0082 1660     		str	r6, [r2]	@ unaligned
 549 0084 5560     		str	r5, [r2, #4]	@ unaligned
 550 0086 9460     		str	r4, [r2, #8]	@ unaligned
 551 0088 02F11002 		add	r2, r2, #16
 552 008c F2D1     		bne	.L63
 553 008e 1B68     		ldr	r3, [r3]	@ unaligned
 554 0090 1360     		str	r3, [r2]	@ unaligned
 101:..\..\..\lvgl\version_6.1.2\lvgl\src\lv_misc/lv_anim.c **** 
 555              		.loc 1 101 0
 556 0092 4368     		ldr	r3, [r0, #4]
 557 0094 1BB1     		cbz	r3, .L64
 101:..\..\..\lvgl\version_6.1.2\lvgl\src\lv_misc/lv_anim.c **** 
 558              		.loc 1 101 0 is_stmt 0 discriminator 1
 559 0096 B0F91010 		ldrsh	r1, [r0, #16]
 560              	.LVL53:
 561 009a 0068     		ldr	r0, [r0]
 562              	.LVL54:
 563 009c 9847     		blx	r3
 564              	.LVL55:
 565              	.L64:
 105:..\..\..\lvgl\version_6.1.2\lvgl\src\lv_misc/lv_anim.c **** 
 566              		.loc 1 105 0 is_stmt 1
 567 009e 044B     		ldr	r3, .L79+4
 568 00a0 0122     		movs	r2, #1
 569 00a2 1A71     		strb	r2, [r3, #4]
 570 00a4 BDE8F087 		pop	{r4, r5, r6, r7, r8, r9, r10, pc}
 571              	.LVL56:
 572              	.L78:
 573 00a8 BDE8F087 		pop	{r4, r5, r6, r7, r8, r9, r10, pc}
 574              	.LVL57:
 575              	.L80:
 576              		.align	2
 577              	.L79:
 578 00ac 00000000 		.word	_lv_anim_ll
 579 00b0 00000000 		.word	.LANCHOR0
 580              		.cfi_endproc
 581              	.LFE33:
 582              		.size	lv_anim_create, .-lv_anim_create
 583              		.section	.text.lv_anim_del,"ax",%progbits
 584              		.align	2
 585              		.global	lv_anim_del
 586              		.thumb
 587              		.thumb_func
 588              		.type	lv_anim_del, %function
 589              	lv_anim_del:
 590              	.LFB34:
 118:..\..\..\lvgl\version_6.1.2\lvgl\src\lv_misc/lv_anim.c ****     lv_anim_t * a;
 591              		.loc 1 118 0
 592              		.cfi_startproc
 593              		@ args = 0, pretend = 0, frame = 0
ARM GAS  C:\Users\pearlstl\AppData\Local\Temp\ccYTDl6E.s 			page 21


 594              		@ frame_needed = 0, uses_anonymous_args = 0
 595              	.LVL58:
 596 0000 2DE9F047 		push	{r4, r5, r6, r7, r8, r9, r10, lr}
 597              		.cfi_def_cfa_offset 32
 598              		.cfi_offset 4, -32
 599              		.cfi_offset 5, -28
 600              		.cfi_offset 6, -24
 601              		.cfi_offset 7, -20
 602              		.cfi_offset 8, -16
 603              		.cfi_offset 9, -12
 604              		.cfi_offset 10, -8
 605              		.cfi_offset 14, -4
 118:..\..\..\lvgl\version_6.1.2\lvgl\src\lv_misc/lv_anim.c ****     lv_anim_t * a;
 606              		.loc 1 118 0
 607 0004 0646     		mov	r6, r0
 122:..\..\..\lvgl\version_6.1.2\lvgl\src\lv_misc/lv_anim.c ****     while(a != NULL) {
 608              		.loc 1 122 0
 609 0006 2548     		ldr	r0, .L93
 610              	.LVL59:
 118:..\..\..\lvgl\version_6.1.2\lvgl\src\lv_misc/lv_anim.c ****     lv_anim_t * a;
 611              		.loc 1 118 0
 612 0008 0F46     		mov	r7, r1
 122:..\..\..\lvgl\version_6.1.2\lvgl\src\lv_misc/lv_anim.c ****     while(a != NULL) {
 613              		.loc 1 122 0
 614 000a FFF7FEFF 		bl	lv_ll_get_head
 615              	.LVL60:
 123:..\..\..\lvgl\version_6.1.2\lvgl\src\lv_misc/lv_anim.c ****         /*'a' might be deleted, so get the next object while 'a' is valid*/
 616              		.loc 1 123 0
 617 000e 0446     		mov	r4, r0
 618 0010 0028     		cmp	r0, #0
 619 0012 41D0     		beq	.L89
 620 0014 27B3     		cbz	r7, .L83
 130:..\..\..\lvgl\version_6.1.2\lvgl\src\lv_misc/lv_anim.c ****                                          the linked list*/
 621              		.loc 1 130 0
 622 0016 DFF888A0 		ldr	r10, .L93+4
 123:..\..\..\lvgl\version_6.1.2\lvgl\src\lv_misc/lv_anim.c ****         /*'a' might be deleted, so get the next object while 'a' is valid*/
 623              		.loc 1 123 0
 624 001a 4FF00008 		mov	r8, #0
 130:..\..\..\lvgl\version_6.1.2\lvgl\src\lv_misc/lv_anim.c ****                                          the linked list*/
 625              		.loc 1 130 0
 626 001e 4FF00109 		mov	r9, #1
 627 0022 01E0     		b	.L85
 628              	.LVL61:
 629              	.L84:
 123:..\..\..\lvgl\version_6.1.2\lvgl\src\lv_misc/lv_anim.c ****         /*'a' might be deleted, so get the next object while 'a' is valid*/
 630              		.loc 1 123 0
 631 0024 2C46     		mov	r4, r5
 632 0026 C5B1     		cbz	r5, .L82
 633              	.LVL62:
 634              	.L85:
 125:..\..\..\lvgl\version_6.1.2\lvgl\src\lv_misc/lv_anim.c **** 
 635              		.loc 1 125 0
 636 0028 2146     		mov	r1, r4
 637 002a 1C48     		ldr	r0, .L93
 638 002c FFF7FEFF 		bl	lv_ll_get_next
 639              	.LVL63:
 127:..\..\..\lvgl\version_6.1.2\lvgl\src\lv_misc/lv_anim.c ****             lv_ll_rem(&LV_GC_ROOT(_lv_anim_ll), a);
ARM GAS  C:\Users\pearlstl\AppData\Local\Temp\ccYTDl6E.s 			page 22


 640              		.loc 1 127 0
 641 0030 2368     		ldr	r3, [r4]
 642 0032 9E42     		cmp	r6, r3
 125:..\..\..\lvgl\version_6.1.2\lvgl\src\lv_misc/lv_anim.c **** 
 643              		.loc 1 125 0
 644 0034 0546     		mov	r5, r0
 645              	.LVL64:
 127:..\..\..\lvgl\version_6.1.2\lvgl\src\lv_misc/lv_anim.c ****             lv_ll_rem(&LV_GC_ROOT(_lv_anim_ll), a);
 646              		.loc 1 127 0
 647 0036 F5D1     		bne	.L84
 648 0038 6368     		ldr	r3, [r4, #4]
 649 003a 9F42     		cmp	r7, r3
 650 003c F2D1     		bne	.L84
 128:..\..\..\lvgl\version_6.1.2\lvgl\src\lv_misc/lv_anim.c ****             lv_mem_free(a);
 651              		.loc 1 128 0
 652 003e 2146     		mov	r1, r4
 653 0040 1648     		ldr	r0, .L93
 654              	.LVL65:
 655 0042 FFF7FEFF 		bl	lv_ll_rem
 656              	.LVL66:
 129:..\..\..\lvgl\version_6.1.2\lvgl\src\lv_misc/lv_anim.c ****             anim_list_changed = true; /*Read by `anim_task`. It need to know if a delete occurred i
 657              		.loc 1 129 0
 658 0046 2046     		mov	r0, r4
 659 0048 FFF7FEFF 		bl	lv_mem_free
 660              	.LVL67:
 132:..\..\..\lvgl\version_6.1.2\lvgl\src\lv_misc/lv_anim.c ****         }
 661              		.loc 1 132 0
 662 004c 4FF00108 		mov	r8, #1
 130:..\..\..\lvgl\version_6.1.2\lvgl\src\lv_misc/lv_anim.c ****                                          the linked list*/
 663              		.loc 1 130 0
 664 0050 8AF80490 		strb	r9, [r10, #4]
 665              	.LVL68:
 123:..\..\..\lvgl\version_6.1.2\lvgl\src\lv_misc/lv_anim.c ****         /*'a' might be deleted, so get the next object while 'a' is valid*/
 666              		.loc 1 123 0
 667 0054 2C46     		mov	r4, r5
 668 0056 002D     		cmp	r5, #0
 669 0058 E6D1     		bne	.L85
 670              	.LVL69:
 671              	.L82:
 139:..\..\..\lvgl\version_6.1.2\lvgl\src\lv_misc/lv_anim.c **** 
 672              		.loc 1 139 0
 673 005a 4046     		mov	r0, r8
 674 005c BDE8F087 		pop	{r4, r5, r6, r7, r8, r9, r10, pc}
 675              	.LVL70:
 676              	.L83:
 123:..\..\..\lvgl\version_6.1.2\lvgl\src\lv_misc/lv_anim.c ****         /*'a' might be deleted, so get the next object while 'a' is valid*/
 677              		.loc 1 123 0
 678 0060 B846     		mov	r8, r7
 130:..\..\..\lvgl\version_6.1.2\lvgl\src\lv_misc/lv_anim.c ****                                          the linked list*/
 679              		.loc 1 130 0
 680 0062 DFF83C90 		ldr	r9, .L93+4
 681 0066 0127     		movs	r7, #1
 682              	.LVL71:
 683 0068 02E0     		b	.L88
 684              	.LVL72:
 685              	.L87:
 123:..\..\..\lvgl\version_6.1.2\lvgl\src\lv_misc/lv_anim.c ****         /*'a' might be deleted, so get the next object while 'a' is valid*/
ARM GAS  C:\Users\pearlstl\AppData\Local\Temp\ccYTDl6E.s 			page 23


 686              		.loc 1 123 0
 687 006a 2C46     		mov	r4, r5
 688 006c 002D     		cmp	r5, #0
 689 006e F4D0     		beq	.L82
 690              	.LVL73:
 691              	.L88:
 125:..\..\..\lvgl\version_6.1.2\lvgl\src\lv_misc/lv_anim.c **** 
 692              		.loc 1 125 0
 693 0070 2146     		mov	r1, r4
 694 0072 0A48     		ldr	r0, .L93
 695 0074 FFF7FEFF 		bl	lv_ll_get_next
 696              	.LVL74:
 127:..\..\..\lvgl\version_6.1.2\lvgl\src\lv_misc/lv_anim.c ****             lv_ll_rem(&LV_GC_ROOT(_lv_anim_ll), a);
 697              		.loc 1 127 0
 698 0078 2368     		ldr	r3, [r4]
 699 007a B342     		cmp	r3, r6
 125:..\..\..\lvgl\version_6.1.2\lvgl\src\lv_misc/lv_anim.c **** 
 700              		.loc 1 125 0
 701 007c 0546     		mov	r5, r0
 702              	.LVL75:
 127:..\..\..\lvgl\version_6.1.2\lvgl\src\lv_misc/lv_anim.c ****             lv_ll_rem(&LV_GC_ROOT(_lv_anim_ll), a);
 703              		.loc 1 127 0
 704 007e F4D1     		bne	.L87
 128:..\..\..\lvgl\version_6.1.2\lvgl\src\lv_misc/lv_anim.c ****             lv_mem_free(a);
 705              		.loc 1 128 0 discriminator 1
 706 0080 2146     		mov	r1, r4
 707 0082 0648     		ldr	r0, .L93
 708              	.LVL76:
 709 0084 FFF7FEFF 		bl	lv_ll_rem
 710              	.LVL77:
 129:..\..\..\lvgl\version_6.1.2\lvgl\src\lv_misc/lv_anim.c ****             anim_list_changed = true; /*Read by `anim_task`. It need to know if a delete occurred i
 711              		.loc 1 129 0 discriminator 1
 712 0088 2046     		mov	r0, r4
 713 008a FFF7FEFF 		bl	lv_mem_free
 714              	.LVL78:
 132:..\..\..\lvgl\version_6.1.2\lvgl\src\lv_misc/lv_anim.c ****         }
 715              		.loc 1 132 0 discriminator 1
 716 008e 4FF00108 		mov	r8, #1
 130:..\..\..\lvgl\version_6.1.2\lvgl\src\lv_misc/lv_anim.c ****                                          the linked list*/
 717              		.loc 1 130 0 discriminator 1
 718 0092 89F80470 		strb	r7, [r9, #4]
 719              	.LVL79:
 720 0096 E8E7     		b	.L87
 721              	.LVL80:
 722              	.L89:
 121:..\..\..\lvgl\version_6.1.2\lvgl\src\lv_misc/lv_anim.c ****     a        = lv_ll_get_head(&LV_GC_ROOT(_lv_anim_ll));
 723              		.loc 1 121 0
 724 0098 8046     		mov	r8, r0
 725 009a DEE7     		b	.L82
 726              	.L94:
 727              		.align	2
 728              	.L93:
 729 009c 00000000 		.word	_lv_anim_ll
 730 00a0 00000000 		.word	.LANCHOR0
 731              		.cfi_endproc
 732              	.LFE34:
 733              		.size	lv_anim_del, .-lv_anim_del
ARM GAS  C:\Users\pearlstl\AppData\Local\Temp\ccYTDl6E.s 			page 24


 734              		.section	.text.lv_anim_count_running,"ax",%progbits
 735              		.align	2
 736              		.global	lv_anim_count_running
 737              		.thumb
 738              		.thumb_func
 739              		.type	lv_anim_count_running, %function
 740              	lv_anim_count_running:
 741              	.LFB35:
 146:..\..\..\lvgl\version_6.1.2\lvgl\src\lv_misc/lv_anim.c ****     uint16_t cnt = 0;
 742              		.loc 1 146 0
 743              		.cfi_startproc
 744              		@ args = 0, pretend = 0, frame = 0
 745              		@ frame_needed = 0, uses_anonymous_args = 0
 746              	.LVL81:
 747 0000 10B5     		push	{r4, lr}
 748              		.cfi_def_cfa_offset 8
 749              		.cfi_offset 4, -8
 750              		.cfi_offset 14, -4
 149:..\..\..\lvgl\version_6.1.2\lvgl\src\lv_misc/lv_anim.c **** 
 751              		.loc 1 149 0
 752 0002 0848     		ldr	r0, .L101
 753 0004 FFF7FEFF 		bl	lv_ll_get_head
 754              	.LVL82:
 755 0008 50B1     		cbz	r0, .L98
 149:..\..\..\lvgl\version_6.1.2\lvgl\src\lv_misc/lv_anim.c **** 
 756              		.loc 1 149 0 is_stmt 0 discriminator 3
 757 000a 0024     		movs	r4, #0
 758              	.LVL83:
 759              	.L97:
 760 000c 0134     		adds	r4, r4, #1
 761              	.LVL84:
 762 000e 0146     		mov	r1, r0
 763 0010 0448     		ldr	r0, .L101
 764              	.LVL85:
 765 0012 A4B2     		uxth	r4, r4
 766              	.LVL86:
 767 0014 FFF7FEFF 		bl	lv_ll_get_next
 768              	.LVL87:
 769 0018 0028     		cmp	r0, #0
 770 001a F7D1     		bne	.L97
 771              	.LVL88:
 772              	.L96:
 152:..\..\..\lvgl\version_6.1.2\lvgl\src\lv_misc/lv_anim.c **** 
 773              		.loc 1 152 0 is_stmt 1
 774 001c 2046     		mov	r0, r4
 775              	.LVL89:
 776 001e 10BD     		pop	{r4, pc}
 777              	.LVL90:
 778              	.L98:
 147:..\..\..\lvgl\version_6.1.2\lvgl\src\lv_misc/lv_anim.c ****     lv_anim_t * a;
 779              		.loc 1 147 0
 780 0020 0446     		mov	r4, r0
 781 0022 FBE7     		b	.L96
 782              	.L102:
 783              		.align	2
 784              	.L101:
 785 0024 00000000 		.word	_lv_anim_ll
ARM GAS  C:\Users\pearlstl\AppData\Local\Temp\ccYTDl6E.s 			page 25


 786              		.cfi_endproc
 787              	.LFE35:
 788              		.size	lv_anim_count_running, .-lv_anim_count_running
 789              		.section	.text.lv_anim_speed_to_time,"ax",%progbits
 790              		.align	2
 791              		.global	lv_anim_speed_to_time
 792              		.thumb
 793              		.thumb_func
 794              		.type	lv_anim_speed_to_time, %function
 795              	lv_anim_speed_to_time:
 796              	.LFB36:
 162:..\..\..\lvgl\version_6.1.2\lvgl\src\lv_misc/lv_anim.c ****     int32_t d     = LV_MATH_ABS((int32_t)start - end);
 797              		.loc 1 162 0
 798              		.cfi_startproc
 799              		@ args = 0, pretend = 0, frame = 0
 800              		@ frame_needed = 0, uses_anonymous_args = 0
 801              		@ link register save eliminated.
 802              	.LVL91:
 164:..\..\..\lvgl\version_6.1.2\lvgl\src\lv_misc/lv_anim.c **** 
 803              		.loc 1 164 0
 804 0000 8A1A     		subs	r2, r1, r2
 805              	.LVL92:
 806 0002 002A     		cmp	r2, #0
 807 0004 B8BF     		it	lt
 808 0006 5242     		rsblt	r2, r2, #0
 809 0008 4FF47A73 		mov	r3, #1000
 810 000c 03FB02F2 		mul	r2, r3, r2
 811 0010 92FBF0F0 		sdiv	r0, r2, r0
 812              	.LVL93:
 166:..\..\..\lvgl\version_6.1.2\lvgl\src\lv_misc/lv_anim.c **** 
 813              		.loc 1 166 0
 814 0014 B0F5803F 		cmp	r0, #65536
 815 0018 02DA     		bge	.L105
 168:..\..\..\lvgl\version_6.1.2\lvgl\src\lv_misc/lv_anim.c ****         time++;
 816              		.loc 1 168 0
 817 001a 20B9     		cbnz	r0, .L107
 818 001c 0120     		movs	r0, #1
 819              	.LVL94:
 173:..\..\..\lvgl\version_6.1.2\lvgl\src\lv_misc/lv_anim.c **** 
 820              		.loc 1 173 0
 821 001e 7047     		bx	lr
 822              	.LVL95:
 823              	.L105:
 824 0020 4FF6FF70 		movw	r0, #65535
 825              	.LVL96:
 826 0024 7047     		bx	lr
 827              	.LVL97:
 828              	.L107:
 829 0026 80B2     		uxth	r0, r0
 830              	.LVL98:
 831 0028 7047     		bx	lr
 832              		.cfi_endproc
 833              	.LFE36:
 834              		.size	lv_anim_speed_to_time, .-lv_anim_speed_to_time
 835 002a 00BF     		.section	.text.lv_anim_path_ease_in,"ax",%progbits
 836              		.align	2
 837              		.global	lv_anim_path_ease_in
ARM GAS  C:\Users\pearlstl\AppData\Local\Temp\ccYTDl6E.s 			page 26


 838              		.thumb
 839              		.thumb_func
 840              		.type	lv_anim_path_ease_in, %function
 841              	lv_anim_path_ease_in:
 842              	.LFB38:
 206:..\..\..\lvgl\version_6.1.2\lvgl\src\lv_misc/lv_anim.c ****     /*Calculate the current step*/
 843              		.loc 1 206 0
 844              		.cfi_startproc
 845              		@ args = 0, pretend = 0, frame = 0
 846              		@ frame_needed = 0, uses_anonymous_args = 0
 847              	.LVL99:
 848 0000 10B5     		push	{r4, lr}
 849              		.cfi_def_cfa_offset 8
 850              		.cfi_offset 4, -8
 851              		.cfi_offset 14, -4
 852 0002 0446     		mov	r4, r0
 209:..\..\..\lvgl\version_6.1.2\lvgl\src\lv_misc/lv_anim.c ****         t = 1024;
 853              		.loc 1 209 0
 854 0004 008B     		ldrh	r0, [r0, #24]
 855              	.LVL100:
 856 0006 B4F91A30 		ldrsh	r3, [r4, #26]
 206:..\..\..\lvgl\version_6.1.2\lvgl\src\lv_misc/lv_anim.c ****     /*Calculate the current step*/
 857              		.loc 1 206 0
 858 000a 82B0     		sub	sp, sp, #8
 859              		.cfi_def_cfa_offset 16
 209:..\..\..\lvgl\version_6.1.2\lvgl\src\lv_misc/lv_anim.c ****         t = 1024;
 860              		.loc 1 209 0
 861 000c 9842     		cmp	r0, r3
 212:..\..\..\lvgl\version_6.1.2\lvgl\src\lv_misc/lv_anim.c **** 
 862              		.loc 1 212 0
 863 000e 18BF     		it	ne
 864 0010 9B02     		lslne	r3, r3, #10
 214:..\..\..\lvgl\version_6.1.2\lvgl\src\lv_misc/lv_anim.c **** 
 865              		.loc 1 214 0
 866 0012 4FF48062 		mov	r2, #1024
 212:..\..\..\lvgl\version_6.1.2\lvgl\src\lv_misc/lv_anim.c **** 
 867              		.loc 1 212 0
 868 0016 18BF     		it	ne
 869 0018 B3FBF0F0 		udivne	r0, r3, r0
 870              	.LVL101:
 214:..\..\..\lvgl\version_6.1.2\lvgl\src\lv_misc/lv_anim.c **** 
 871              		.loc 1 214 0
 872 001c 4FF00103 		mov	r3, #1
 873 0020 0092     		str	r2, [sp]
 210:..\..\..\lvgl\version_6.1.2\lvgl\src\lv_misc/lv_anim.c ****     else
 874              		.loc 1 210 0
 875 0022 08BF     		it	eq
 876 0024 4FF48060 		moveq	r0, #1024
 877              	.LVL102:
 214:..\..\..\lvgl\version_6.1.2\lvgl\src\lv_misc/lv_anim.c **** 
 878              		.loc 1 214 0
 879 0028 1A46     		mov	r2, r3
 880 002a 0021     		movs	r1, #0
 881 002c FFF7FEFF 		bl	lv_bezier3
 882              	.LVL103:
 217:..\..\..\lvgl\version_6.1.2\lvgl\src\lv_misc/lv_anim.c ****     new_value = new_value >> 10;
 883              		.loc 1 217 0
ARM GAS  C:\Users\pearlstl\AppData\Local\Temp\ccYTDl6E.s 			page 27


 884 0030 2269     		ldr	r2, [r4, #16]
 885 0032 6369     		ldr	r3, [r4, #20]
 886 0034 9B1A     		subs	r3, r3, r2
 887 0036 00FB03F0 		mul	r0, r0, r3
 888              	.LVL104:
 221:..\..\..\lvgl\version_6.1.2\lvgl\src\lv_misc/lv_anim.c **** }
 889              		.loc 1 221 0
 890 003a 02EBA020 		add	r0, r2, r0, asr #10
 891              	.LVL105:
 222:..\..\..\lvgl\version_6.1.2\lvgl\src\lv_misc/lv_anim.c **** 
 892              		.loc 1 222 0
 893 003e 00B2     		sxth	r0, r0
 894              	.LVL106:
 895 0040 02B0     		add	sp, sp, #8
 896              		.cfi_def_cfa_offset 8
 897              		@ sp needed
 898 0042 10BD     		pop	{r4, pc}
 899              		.cfi_endproc
 900              	.LFE38:
 901              		.size	lv_anim_path_ease_in, .-lv_anim_path_ease_in
 902              		.section	.text.lv_anim_path_ease_out,"ax",%progbits
 903              		.align	2
 904              		.global	lv_anim_path_ease_out
 905              		.thumb
 906              		.thumb_func
 907              		.type	lv_anim_path_ease_out, %function
 908              	lv_anim_path_ease_out:
 909              	.LFB39:
 230:..\..\..\lvgl\version_6.1.2\lvgl\src\lv_misc/lv_anim.c ****     /*Calculate the current step*/
 910              		.loc 1 230 0
 911              		.cfi_startproc
 912              		@ args = 0, pretend = 0, frame = 0
 913              		@ frame_needed = 0, uses_anonymous_args = 0
 914              	.LVL107:
 915 0000 10B5     		push	{r4, lr}
 916              		.cfi_def_cfa_offset 8
 917              		.cfi_offset 4, -8
 918              		.cfi_offset 14, -4
 919 0002 0446     		mov	r4, r0
 234:..\..\..\lvgl\version_6.1.2\lvgl\src\lv_misc/lv_anim.c ****         t = 1024;
 920              		.loc 1 234 0
 921 0004 008B     		ldrh	r0, [r0, #24]
 922              	.LVL108:
 923 0006 B4F91A30 		ldrsh	r3, [r4, #26]
 230:..\..\..\lvgl\version_6.1.2\lvgl\src\lv_misc/lv_anim.c ****     /*Calculate the current step*/
 924              		.loc 1 230 0
 925 000a 82B0     		sub	sp, sp, #8
 926              		.cfi_def_cfa_offset 16
 234:..\..\..\lvgl\version_6.1.2\lvgl\src\lv_misc/lv_anim.c ****         t = 1024;
 927              		.loc 1 234 0
 928 000c 9842     		cmp	r0, r3
 237:..\..\..\lvgl\version_6.1.2\lvgl\src\lv_misc/lv_anim.c **** 
 929              		.loc 1 237 0
 930 000e 18BF     		it	ne
 931 0010 9B02     		lslne	r3, r3, #10
 239:..\..\..\lvgl\version_6.1.2\lvgl\src\lv_misc/lv_anim.c **** 
 932              		.loc 1 239 0
ARM GAS  C:\Users\pearlstl\AppData\Local\Temp\ccYTDl6E.s 			page 28


 933 0012 4FF48062 		mov	r2, #1024
 237:..\..\..\lvgl\version_6.1.2\lvgl\src\lv_misc/lv_anim.c **** 
 934              		.loc 1 237 0
 935 0016 18BF     		it	ne
 936 0018 B3FBF0F0 		udivne	r0, r3, r0
 937              	.LVL109:
 239:..\..\..\lvgl\version_6.1.2\lvgl\src\lv_misc/lv_anim.c **** 
 938              		.loc 1 239 0
 939 001c 40F2FF33 		movw	r3, #1023
 940 0020 0092     		str	r2, [sp]
 235:..\..\..\lvgl\version_6.1.2\lvgl\src\lv_misc/lv_anim.c ****     else
 941              		.loc 1 235 0
 942 0022 08BF     		it	eq
 943 0024 4FF48060 		moveq	r0, #1024
 944              	.LVL110:
 239:..\..\..\lvgl\version_6.1.2\lvgl\src\lv_misc/lv_anim.c **** 
 945              		.loc 1 239 0
 946 0028 1A46     		mov	r2, r3
 947 002a 0021     		movs	r1, #0
 948 002c FFF7FEFF 		bl	lv_bezier3
 949              	.LVL111:
 242:..\..\..\lvgl\version_6.1.2\lvgl\src\lv_misc/lv_anim.c ****     new_value = new_value >> 10;
 950              		.loc 1 242 0
 951 0030 2269     		ldr	r2, [r4, #16]
 952 0032 6369     		ldr	r3, [r4, #20]
 953 0034 9B1A     		subs	r3, r3, r2
 954 0036 00FB03F0 		mul	r0, r0, r3
 955              	.LVL112:
 246:..\..\..\lvgl\version_6.1.2\lvgl\src\lv_misc/lv_anim.c **** }
 956              		.loc 1 246 0
 957 003a 02EBA020 		add	r0, r2, r0, asr #10
 958              	.LVL113:
 247:..\..\..\lvgl\version_6.1.2\lvgl\src\lv_misc/lv_anim.c **** 
 959              		.loc 1 247 0
 960 003e 00B2     		sxth	r0, r0
 961              	.LVL114:
 962 0040 02B0     		add	sp, sp, #8
 963              		.cfi_def_cfa_offset 8
 964              		@ sp needed
 965 0042 10BD     		pop	{r4, pc}
 966              		.cfi_endproc
 967              	.LFE39:
 968              		.size	lv_anim_path_ease_out, .-lv_anim_path_ease_out
 969              		.section	.text.lv_anim_path_ease_in_out,"ax",%progbits
 970              		.align	2
 971              		.global	lv_anim_path_ease_in_out
 972              		.thumb
 973              		.thumb_func
 974              		.type	lv_anim_path_ease_in_out, %function
 975              	lv_anim_path_ease_in_out:
 976              	.LFB40:
 255:..\..\..\lvgl\version_6.1.2\lvgl\src\lv_misc/lv_anim.c ****     /*Calculate the current step*/
 977              		.loc 1 255 0
 978              		.cfi_startproc
 979              		@ args = 0, pretend = 0, frame = 0
 980              		@ frame_needed = 0, uses_anonymous_args = 0
 981              	.LVL115:
ARM GAS  C:\Users\pearlstl\AppData\Local\Temp\ccYTDl6E.s 			page 29


 982 0000 10B5     		push	{r4, lr}
 983              		.cfi_def_cfa_offset 8
 984              		.cfi_offset 4, -8
 985              		.cfi_offset 14, -4
 986 0002 0446     		mov	r4, r0
 259:..\..\..\lvgl\version_6.1.2\lvgl\src\lv_misc/lv_anim.c ****         t = 1024;
 987              		.loc 1 259 0
 988 0004 008B     		ldrh	r0, [r0, #24]
 989              	.LVL116:
 990 0006 B4F91A30 		ldrsh	r3, [r4, #26]
 255:..\..\..\lvgl\version_6.1.2\lvgl\src\lv_misc/lv_anim.c ****     /*Calculate the current step*/
 991              		.loc 1 255 0
 992 000a 82B0     		sub	sp, sp, #8
 993              		.cfi_def_cfa_offset 16
 259:..\..\..\lvgl\version_6.1.2\lvgl\src\lv_misc/lv_anim.c ****         t = 1024;
 994              		.loc 1 259 0
 995 000c 9842     		cmp	r0, r3
 262:..\..\..\lvgl\version_6.1.2\lvgl\src\lv_misc/lv_anim.c **** 
 996              		.loc 1 262 0
 997 000e 1CBF     		itt	ne
 998 0010 9B02     		lslne	r3, r3, #10
 999 0012 B3FBF0F0 		udivne	r0, r3, r0
 1000              	.LVL117:
 264:..\..\..\lvgl\version_6.1.2\lvgl\src\lv_misc/lv_anim.c **** 
 1001              		.loc 1 264 0
 1002 0016 4FF48063 		mov	r3, #1024
 1003 001a 0093     		str	r3, [sp]
 260:..\..\..\lvgl\version_6.1.2\lvgl\src\lv_misc/lv_anim.c ****     else
 1004              		.loc 1 260 0
 1005 001c 08BF     		it	eq
 1006 001e 4FF48060 		moveq	r0, #1024
 1007              	.LVL118:
 264:..\..\..\lvgl\version_6.1.2\lvgl\src\lv_misc/lv_anim.c **** 
 1008              		.loc 1 264 0
 1009 0022 4FF46773 		mov	r3, #924
 1010 0026 6422     		movs	r2, #100
 1011 0028 0021     		movs	r1, #0
 1012 002a FFF7FEFF 		bl	lv_bezier3
 1013              	.LVL119:
 267:..\..\..\lvgl\version_6.1.2\lvgl\src\lv_misc/lv_anim.c ****     new_value = new_value >> 10;
 1014              		.loc 1 267 0
 1015 002e 2269     		ldr	r2, [r4, #16]
 1016 0030 6369     		ldr	r3, [r4, #20]
 1017 0032 9B1A     		subs	r3, r3, r2
 1018 0034 00FB03F0 		mul	r0, r0, r3
 1019              	.LVL120:
 271:..\..\..\lvgl\version_6.1.2\lvgl\src\lv_misc/lv_anim.c **** }
 1020              		.loc 1 271 0
 1021 0038 02EBA020 		add	r0, r2, r0, asr #10
 1022              	.LVL121:
 272:..\..\..\lvgl\version_6.1.2\lvgl\src\lv_misc/lv_anim.c **** 
 1023              		.loc 1 272 0
 1024 003c 00B2     		sxth	r0, r0
 1025              	.LVL122:
 1026 003e 02B0     		add	sp, sp, #8
 1027              		.cfi_def_cfa_offset 8
 1028              		@ sp needed
ARM GAS  C:\Users\pearlstl\AppData\Local\Temp\ccYTDl6E.s 			page 30


 1029 0040 10BD     		pop	{r4, pc}
 1030              		.cfi_endproc
 1031              	.LFE40:
 1032              		.size	lv_anim_path_ease_in_out, .-lv_anim_path_ease_in_out
 1033 0042 00BF     		.section	.text.lv_anim_path_overshoot,"ax",%progbits
 1034              		.align	2
 1035              		.global	lv_anim_path_overshoot
 1036              		.thumb
 1037              		.thumb_func
 1038              		.type	lv_anim_path_overshoot, %function
 1039              	lv_anim_path_overshoot:
 1040              	.LFB41:
 280:..\..\..\lvgl\version_6.1.2\lvgl\src\lv_misc/lv_anim.c ****     /*Calculate the current step*/
 1041              		.loc 1 280 0
 1042              		.cfi_startproc
 1043              		@ args = 0, pretend = 0, frame = 0
 1044              		@ frame_needed = 0, uses_anonymous_args = 0
 1045              	.LVL123:
 1046 0000 10B5     		push	{r4, lr}
 1047              		.cfi_def_cfa_offset 8
 1048              		.cfi_offset 4, -8
 1049              		.cfi_offset 14, -4
 1050 0002 0446     		mov	r4, r0
 284:..\..\..\lvgl\version_6.1.2\lvgl\src\lv_misc/lv_anim.c ****         t = 1024;
 1051              		.loc 1 284 0
 1052 0004 008B     		ldrh	r0, [r0, #24]
 1053              	.LVL124:
 1054 0006 B4F91A30 		ldrsh	r3, [r4, #26]
 280:..\..\..\lvgl\version_6.1.2\lvgl\src\lv_misc/lv_anim.c ****     /*Calculate the current step*/
 1055              		.loc 1 280 0
 1056 000a 82B0     		sub	sp, sp, #8
 1057              		.cfi_def_cfa_offset 16
 284:..\..\..\lvgl\version_6.1.2\lvgl\src\lv_misc/lv_anim.c ****         t = 1024;
 1058              		.loc 1 284 0
 1059 000c 9842     		cmp	r0, r3
 287:..\..\..\lvgl\version_6.1.2\lvgl\src\lv_misc/lv_anim.c **** 
 1060              		.loc 1 287 0
 1061 000e 1CBF     		itt	ne
 1062 0010 9B02     		lslne	r3, r3, #10
 1063 0012 B3FBF0F0 		udivne	r0, r3, r0
 1064              	.LVL125:
 289:..\..\..\lvgl\version_6.1.2\lvgl\src\lv_misc/lv_anim.c **** 
 1065              		.loc 1 289 0
 1066 0016 4FF48063 		mov	r3, #1024
 1067 001a 0093     		str	r3, [sp]
 285:..\..\..\lvgl\version_6.1.2\lvgl\src\lv_misc/lv_anim.c ****     else
 1068              		.loc 1 285 0
 1069 001c 08BF     		it	eq
 1070 001e 4FF48060 		moveq	r0, #1024
 1071              	.LVL126:
 289:..\..\..\lvgl\version_6.1.2\lvgl\src\lv_misc/lv_anim.c **** 
 1072              		.loc 1 289 0
 1073 0022 40F21453 		movw	r3, #1300
 1074 0026 4FF41672 		mov	r2, #600
 1075 002a 0021     		movs	r1, #0
 1076 002c FFF7FEFF 		bl	lv_bezier3
 1077              	.LVL127:
ARM GAS  C:\Users\pearlstl\AppData\Local\Temp\ccYTDl6E.s 			page 31


 292:..\..\..\lvgl\version_6.1.2\lvgl\src\lv_misc/lv_anim.c ****     new_value = new_value >> 10;
 1078              		.loc 1 292 0
 1079 0030 2269     		ldr	r2, [r4, #16]
 1080 0032 6369     		ldr	r3, [r4, #20]
 1081 0034 9B1A     		subs	r3, r3, r2
 1082 0036 00FB03F0 		mul	r0, r0, r3
 1083              	.LVL128:
 296:..\..\..\lvgl\version_6.1.2\lvgl\src\lv_misc/lv_anim.c **** }
 1084              		.loc 1 296 0
 1085 003a 02EBA020 		add	r0, r2, r0, asr #10
 1086              	.LVL129:
 297:..\..\..\lvgl\version_6.1.2\lvgl\src\lv_misc/lv_anim.c **** 
 1087              		.loc 1 297 0
 1088 003e 00B2     		sxth	r0, r0
 1089              	.LVL130:
 1090 0040 02B0     		add	sp, sp, #8
 1091              		.cfi_def_cfa_offset 8
 1092              		@ sp needed
 1093 0042 10BD     		pop	{r4, pc}
 1094              		.cfi_endproc
 1095              	.LFE41:
 1096              		.size	lv_anim_path_overshoot, .-lv_anim_path_overshoot
 1097              		.section	.text.lv_anim_path_bounce,"ax",%progbits
 1098              		.align	2
 1099              		.global	lv_anim_path_bounce
 1100              		.thumb
 1101              		.thumb_func
 1102              		.type	lv_anim_path_bounce, %function
 1103              	lv_anim_path_bounce:
 1104              	.LFB42:
 305:..\..\..\lvgl\version_6.1.2\lvgl\src\lv_misc/lv_anim.c ****     /*Calculate the current step*/
 1105              		.loc 1 305 0
 1106              		.cfi_startproc
 1107              		@ args = 0, pretend = 0, frame = 0
 1108              		@ frame_needed = 0, uses_anonymous_args = 0
 1109              	.LVL131:
 1110 0000 30B5     		push	{r4, r5, lr}
 1111              		.cfi_def_cfa_offset 12
 1112              		.cfi_offset 4, -12
 1113              		.cfi_offset 5, -8
 1114              		.cfi_offset 14, -4
 308:..\..\..\lvgl\version_6.1.2\lvgl\src\lv_misc/lv_anim.c ****         t = 1024;
 1115              		.loc 1 308 0
 1116 0002 028B     		ldrh	r2, [r0, #24]
 1117 0004 B0F91A30 		ldrsh	r3, [r0, #26]
 313:..\..\..\lvgl\version_6.1.2\lvgl\src\lv_misc/lv_anim.c **** 
 1118              		.loc 1 313 0
 1119 0008 4469     		ldr	r4, [r0, #20]
 308:..\..\..\lvgl\version_6.1.2\lvgl\src\lv_misc/lv_anim.c ****         t = 1024;
 1120              		.loc 1 308 0
 1121 000a 9A42     		cmp	r2, r3
 305:..\..\..\lvgl\version_6.1.2\lvgl\src\lv_misc/lv_anim.c ****     /*Calculate the current step*/
 1122              		.loc 1 305 0
 1123 000c 83B0     		sub	sp, sp, #12
 1124              		.cfi_def_cfa_offset 24
 305:..\..\..\lvgl\version_6.1.2\lvgl\src\lv_misc/lv_anim.c ****     /*Calculate the current step*/
 1125              		.loc 1 305 0
ARM GAS  C:\Users\pearlstl\AppData\Local\Temp\ccYTDl6E.s 			page 32


 1126 000e 0546     		mov	r5, r0
 308:..\..\..\lvgl\version_6.1.2\lvgl\src\lv_misc/lv_anim.c ****         t = 1024;
 1127              		.loc 1 308 0
 1128 0010 1ED0     		beq	.L125
 313:..\..\..\lvgl\version_6.1.2\lvgl\src\lv_misc/lv_anim.c **** 
 1129              		.loc 1 313 0
 1130 0012 0169     		ldr	r1, [r0, #16]
 311:..\..\..\lvgl\version_6.1.2\lvgl\src\lv_misc/lv_anim.c **** 
 1131              		.loc 1 311 0
 1132 0014 9B02     		lsls	r3, r3, #10
 1133 0016 B3FBF2F3 		udiv	r3, r3, r2
 1134              	.LVL132:
 317:..\..\..\lvgl\version_6.1.2\lvgl\src\lv_misc/lv_anim.c ****         /*Go down*/
 1135              		.loc 1 317 0
 1136 001a B3F5CC7F 		cmp	r3, #408
 313:..\..\..\lvgl\version_6.1.2\lvgl\src\lv_misc/lv_anim.c **** 
 1137              		.loc 1 313 0
 1138 001e A4EB0104 		sub	r4, r4, r1
 1139              	.LVL133:
 317:..\..\..\lvgl\version_6.1.2\lvgl\src\lv_misc/lv_anim.c ****         /*Go down*/
 1140              		.loc 1 317 0
 1141 0022 26D2     		bcs	.L126
 319:..\..\..\lvgl\version_6.1.2\lvgl\src\lv_misc/lv_anim.c ****     } else if(t >= 408 && t < 614) {
 1142              		.loc 1 319 0
 1143 0024 40F6C410 		movw	r0, #2500
 1144              	.LVL134:
 1145 0028 00FB03F3 		mul	r3, r0, r3
 1146              	.LVL135:
 1147 002c 980A     		lsrs	r0, r3, #10
 1148              	.LVL136:
 1149              	.L133:
 346:..\..\..\lvgl\version_6.1.2\lvgl\src\lv_misc/lv_anim.c **** 
 1150              		.loc 1 346 0
 1151 002e 4FF48062 		mov	r2, #1024
 1152 0032 0023     		movs	r3, #0
 1153 0034 0093     		str	r3, [sp]
 1154 0036 1146     		mov	r1, r2
 1155 0038 4FF44873 		mov	r3, #800
 1156 003c FFF7FEFF 		bl	lv_bezier3
 1157              	.LVL137:
 353:..\..\..\lvgl\version_6.1.2\lvgl\src\lv_misc/lv_anim.c **** }
 1158              		.loc 1 353 0
 1159 0040 6B69     		ldr	r3, [r5, #20]
 349:..\..\..\lvgl\version_6.1.2\lvgl\src\lv_misc/lv_anim.c ****     new_value = new_value >> 10;
 1160              		.loc 1 349 0
 1161 0042 04FB00F0 		mul	r0, r4, r0
 1162              	.LVL138:
 353:..\..\..\lvgl\version_6.1.2\lvgl\src\lv_misc/lv_anim.c **** }
 1163              		.loc 1 353 0
 1164 0046 A3EBA020 		sub	r0, r3, r0, asr #10
 1165              	.LVL139:
 1166 004a 00B2     		sxth	r0, r0
 354:..\..\..\lvgl\version_6.1.2\lvgl\src\lv_misc/lv_anim.c **** 
 1167              		.loc 1 354 0
 1168 004c 03B0     		add	sp, sp, #12
 1169              		.cfi_remember_state
 1170              		.cfi_def_cfa_offset 12
ARM GAS  C:\Users\pearlstl\AppData\Local\Temp\ccYTDl6E.s 			page 33


 1171              		@ sp needed
 1172 004e 30BD     		pop	{r4, r5, pc}
 1173              	.LVL140:
 1174              	.L125:
 1175              		.cfi_restore_state
 313:..\..\..\lvgl\version_6.1.2\lvgl\src\lv_misc/lv_anim.c **** 
 1176              		.loc 1 313 0
 1177 0050 0269     		ldr	r2, [r0, #16]
 309:..\..\..\lvgl\version_6.1.2\lvgl\src\lv_misc/lv_anim.c ****     else
 1178              		.loc 1 309 0
 1179 0052 4FF48063 		mov	r3, #1024
 313:..\..\..\lvgl\version_6.1.2\lvgl\src\lv_misc/lv_anim.c **** 
 1180              		.loc 1 313 0
 1181 0056 A41A     		subs	r4, r4, r2
 1182              	.LVL141:
 1183              	.L131:
 337:..\..\..\lvgl\version_6.1.2\lvgl\src\lv_misc/lv_anim.c ****         /*Fall back*/
 1184              		.loc 1 337 0
 1185 0058 6FF46672 		mvn	r2, #920
 1186 005c 1344     		add	r3, r3, r2
 1187 005e 672B     		cmp	r3, #103
 1188 0060 1AD8     		bhi	.L136
 1189              	.LVL142:
 341:..\..\..\lvgl\version_6.1.2\lvgl\src\lv_misc/lv_anim.c ****     }
 1190              		.loc 1 341 0
 1191 0062 002C     		cmp	r4, #0
 340:..\..\..\lvgl\version_6.1.2\lvgl\src\lv_misc/lv_anim.c ****         diff = diff / 16;
 1192              		.loc 1 340 0
 1193 0064 03EB8303 		add	r3, r3, r3, lsl #2
 1194              	.LVL143:
 341:..\..\..\lvgl\version_6.1.2\lvgl\src\lv_misc/lv_anim.c ****     }
 1195              		.loc 1 341 0
 1196 0068 B8BF     		it	lt
 1197 006a 0F34     		addlt	r4, r4, #15
 1198              	.LVL144:
 340:..\..\..\lvgl\version_6.1.2\lvgl\src\lv_misc/lv_anim.c ****         diff = diff / 16;
 1199              		.loc 1 340 0
 1200 006c 5800     		lsls	r0, r3, #1
 1201              	.LVL145:
 341:..\..\..\lvgl\version_6.1.2\lvgl\src\lv_misc/lv_anim.c ****     }
 1202              		.loc 1 341 0
 1203 006e 2411     		asrs	r4, r4, #4
 1204              	.LVL146:
 1205 0070 0CE0     		b	.L129
 1206              	.LVL147:
 1207              	.L126:
 320:..\..\..\lvgl\version_6.1.2\lvgl\src\lv_misc/lv_anim.c ****         /*First bounce back*/
 1208              		.loc 1 320 0
 1209 0072 A3F5CC70 		sub	r0, r3, #408
 1210              	.LVL148:
 1211 0076 CD28     		cmp	r0, #205
 1212 0078 11D8     		bhi	.L128
 1213              	.LVL149:
 325:..\..\..\lvgl\version_6.1.2\lvgl\src\lv_misc/lv_anim.c ****     } else if(t >= 614 && t < 819) {
 1214              		.loc 1 325 0
 1215 007a 164B     		ldr	r3, .L140
 323:..\..\..\lvgl\version_6.1.2\lvgl\src\lv_misc/lv_anim.c ****         t    = 1024 - t;
ARM GAS  C:\Users\pearlstl\AppData\Local\Temp\ccYTDl6E.s 			page 34


 1216              		.loc 1 323 0
 1217 007c 00EB8000 		add	r0, r0, r0, lsl #2
 1218              	.LVL150:
 325:..\..\..\lvgl\version_6.1.2\lvgl\src\lv_misc/lv_anim.c ****     } else if(t >= 614 && t < 819) {
 1219              		.loc 1 325 0
 1220 0080 83FB0423 		smull	r2, r3, r3, r4
 324:..\..\..\lvgl\version_6.1.2\lvgl\src\lv_misc/lv_anim.c ****         diff = diff / 6;
 1221              		.loc 1 324 0
 1222 0084 C0F58060 		rsb	r0, r0, #1024
 1223              	.LVL151:
 325:..\..\..\lvgl\version_6.1.2\lvgl\src\lv_misc/lv_anim.c ****     } else if(t >= 614 && t < 819) {
 1224              		.loc 1 325 0
 1225 0088 A3EBE474 		sub	r4, r3, r4, asr #31
 1226              	.LVL152:
 1227              	.L129:
 344:..\..\..\lvgl\version_6.1.2\lvgl\src\lv_misc/lv_anim.c **** 
 1228              		.loc 1 344 0
 1229 008c B0F5806F 		cmp	r0, #1024
 1230 0090 88BF     		it	hi
 1231 0092 4FF48060 		movhi	r0, #1024
 1232              	.LVL153:
 1233 0096 CAE7     		b	.L133
 1234              	.L136:
 1235 0098 4FF48060 		mov	r0, #1024
 1236 009c C7E7     		b	.L133
 1237              	.LVL154:
 1238              	.L128:
 1239 009e A3F26620 		subw	r0, r3, #614
 326:..\..\..\lvgl\version_6.1.2\lvgl\src\lv_misc/lv_anim.c ****         /*Fall back*/
 1240              		.loc 1 326 0
 1241 00a2 CC28     		cmp	r0, #204
 1242 00a4 07D8     		bhi	.L130
 1243              	.LVL155:
 330:..\..\..\lvgl\version_6.1.2\lvgl\src\lv_misc/lv_anim.c ****     } else if(t >= 819 && t < 921) {
 1244              		.loc 1 330 0
 1245 00a6 0B4B     		ldr	r3, .L140
 1246              	.LVL156:
 1247 00a8 83FB0423 		smull	r2, r3, r3, r4
 329:..\..\..\lvgl\version_6.1.2\lvgl\src\lv_misc/lv_anim.c ****         diff = diff / 6;
 1248              		.loc 1 329 0
 1249 00ac 00EB8000 		add	r0, r0, r0, lsl #2
 1250              	.LVL157:
 330:..\..\..\lvgl\version_6.1.2\lvgl\src\lv_misc/lv_anim.c ****     } else if(t >= 819 && t < 921) {
 1251              		.loc 1 330 0
 1252 00b0 A3EBE474 		sub	r4, r3, r4, asr #31
 1253              	.LVL158:
 1254 00b4 BBE7     		b	.L133
 1255              	.LVL159:
 1256              	.L130:
 331:..\..\..\lvgl\version_6.1.2\lvgl\src\lv_misc/lv_anim.c ****         /*Second bounce back*/
 1257              		.loc 1 331 0
 1258 00b6 A3F23330 		subw	r0, r3, #819
 1259 00ba 6528     		cmp	r0, #101
 1260 00bc CCD8     		bhi	.L131
 1261              	.LVL160:
 334:..\..\..\lvgl\version_6.1.2\lvgl\src\lv_misc/lv_anim.c ****         t    = 1024 - t;
 1262              		.loc 1 334 0
ARM GAS  C:\Users\pearlstl\AppData\Local\Temp\ccYTDl6E.s 			page 35


 1263 00be 00EB8000 		add	r0, r0, r0, lsl #2
 1264              	.LVL161:
 336:..\..\..\lvgl\version_6.1.2\lvgl\src\lv_misc/lv_anim.c ****     } else if(t >= 921 && t <= 1024) {
 1265              		.loc 1 336 0
 1266 00c2 002C     		cmp	r4, #0
 334:..\..\..\lvgl\version_6.1.2\lvgl\src\lv_misc/lv_anim.c ****         t    = 1024 - t;
 1267              		.loc 1 334 0
 1268 00c4 4FEA4003 		lsl	r3, r0, #1
 1269              	.LVL162:
 336:..\..\..\lvgl\version_6.1.2\lvgl\src\lv_misc/lv_anim.c ****     } else if(t >= 921 && t <= 1024) {
 1270              		.loc 1 336 0
 1271 00c8 B8BF     		it	lt
 1272 00ca 0F34     		addlt	r4, r4, #15
 1273              	.LVL163:
 335:..\..\..\lvgl\version_6.1.2\lvgl\src\lv_misc/lv_anim.c ****         diff = diff / 16;
 1274              		.loc 1 335 0
 1275 00cc C3F58060 		rsb	r0, r3, #1024
 1276              	.LVL164:
 336:..\..\..\lvgl\version_6.1.2\lvgl\src\lv_misc/lv_anim.c ****     } else if(t >= 921 && t <= 1024) {
 1277              		.loc 1 336 0
 1278 00d0 2411     		asrs	r4, r4, #4
 1279              	.LVL165:
 1280 00d2 ACE7     		b	.L133
 1281              	.L141:
 1282              		.align	2
 1283              	.L140:
 1284 00d4 ABAAAA2A 		.word	715827883
 1285              		.cfi_endproc
 1286              	.LFE42:
 1287              		.size	lv_anim_path_bounce, .-lv_anim_path_bounce
 1288              		.section	.text.lv_anim_path_step,"ax",%progbits
 1289              		.align	2
 1290              		.global	lv_anim_path_step
 1291              		.thumb
 1292              		.thumb_func
 1293              		.type	lv_anim_path_step, %function
 1294              	lv_anim_path_step:
 1295              	.LFB43:
 363:..\..\..\lvgl\version_6.1.2\lvgl\src\lv_misc/lv_anim.c ****     if(a->act_time >= a->time)
 1296              		.loc 1 363 0
 1297              		.cfi_startproc
 1298              		@ args = 0, pretend = 0, frame = 0
 1299              		@ frame_needed = 0, uses_anonymous_args = 0
 1300              		@ link register save eliminated.
 1301              	.LVL166:
 364:..\..\..\lvgl\version_6.1.2\lvgl\src\lv_misc/lv_anim.c ****         return a->end;
 1302              		.loc 1 364 0
 1303 0000 B0F91A20 		ldrsh	r2, [r0, #26]
 1304 0004 038B     		ldrh	r3, [r0, #24]
 1305 0006 9A42     		cmp	r2, r3
 365:..\..\..\lvgl\version_6.1.2\lvgl\src\lv_misc/lv_anim.c ****     else
 1306              		.loc 1 365 0
 1307 0008 ACBF     		ite	ge
 1308 000a B0F91400 		ldrshge	r0, [r0, #20]
 1309              	.LVL167:
 367:..\..\..\lvgl\version_6.1.2\lvgl\src\lv_misc/lv_anim.c **** }
 1310              		.loc 1 367 0
ARM GAS  C:\Users\pearlstl\AppData\Local\Temp\ccYTDl6E.s 			page 36


 1311 000e B0F91000 		ldrshlt	r0, [r0, #16]
 368:..\..\..\lvgl\version_6.1.2\lvgl\src\lv_misc/lv_anim.c **** 
 1312              		.loc 1 368 0
 1313 0012 7047     		bx	lr
 1314              		.cfi_endproc
 1315              	.LFE43:
 1316              		.size	lv_anim_path_step, .-lv_anim_path_step
 1317              		.bss
 1318              		.align	2
 1319              		.set	.LANCHOR0,. + 0
 1320              		.type	last_task_run, %object
 1321              		.size	last_task_run, 4
 1322              	last_task_run:
 1323 0000 00000000 		.space	4
 1324              		.type	anim_list_changed, %object
 1325              		.size	anim_list_changed, 1
 1326              	anim_list_changed:
 1327 0004 00       		.space	1
 1328              		.text
 1329              	.Letext0:
 1330              		.file 2 "c:\\program files (x86)\\cypress\\psoc creator\\4.2\\psoc creator\\import\\gnu\\arm\\5.4.
 1331              		.file 3 "c:\\program files (x86)\\cypress\\psoc creator\\4.2\\psoc creator\\import\\gnu\\arm\\5.4.
 1332              		.file 4 "..\\..\\..\\lvgl\\version_6.1.2\\lvgl\\src\\lv_misc\\../../../lv_conf.h"
 1333              		.file 5 "..\\..\\..\\lvgl\\version_6.1.2\\lvgl\\src\\lv_misc\\lv_anim.h"
 1334              		.file 6 "..\\..\\..\\lvgl\\version_6.1.2\\lvgl\\src\\lv_misc\\../lv_core/../lv_misc/lv_ll.h"
 1335              		.file 7 "..\\..\\..\\lvgl\\version_6.1.2\\lvgl\\src\\lv_misc\\../lv_core/../lv_hal/../lv_misc/lv_t
 1336              		.file 8 "..\\..\\..\\lvgl\\version_6.1.2\\lvgl\\src\\lv_misc\\../lv_core/../lv_misc/lv_mem.h"
 1337              		.file 9 "..\\..\\..\\lvgl\\version_6.1.2\\lvgl\\src\\lv_misc\\../lv_core/../lv_hal/lv_hal_tick.h"
 1338              		.file 10 "..\\..\\..\\lvgl\\version_6.1.2\\lvgl\\src\\lv_misc\\lv_math.h"
 1339              		.file 11 "..\\..\\..\\lvgl\\version_6.1.2\\lvgl\\src\\lv_misc\\lv_gc.h"