ARM GAS  C:\Users\pearlstl\AppData\Local\Temp\ccotkl75.s 			page 1


   1              		.syntax unified
   2              		.cpu cortex-m4
   3              		.eabi_attribute 27, 1
   4              		.fpu fpv4-sp-d16
   5              		.eabi_attribute 20, 1
   6              		.eabi_attribute 21, 1
   7              		.eabi_attribute 23, 3
   8              		.eabi_attribute 24, 1
   9              		.eabi_attribute 25, 1
  10              		.eabi_attribute 26, 1
  11              		.eabi_attribute 30, 2
  12              		.eabi_attribute 34, 1
  13              		.eabi_attribute 18, 4
  14              		.thumb
  15              		.syntax unified
  16              		.file	"lv_area.c"
  17              		.text
  18              	.Ltext0:
  19              		.cfi_sections	.debug_frame
  20              		.section	.text.lv_area_set,"ax",%progbits
  21              		.align	2
  22              		.global	lv_area_set
  23              		.thumb
  24              		.thumb_func
  25              		.type	lv_area_set, %function
  26              	lv_area_set:
  27              	.LFB3:
  28              		.file 1 "..\\..\\..\\lvgl\\version_6.1.2\\lvgl\\src\\lv_misc\\lv_area.c"
   1:..\..\..\lvgl\version_6.1.2\lvgl\src\lv_misc/lv_area.c **** /**
   2:..\..\..\lvgl\version_6.1.2\lvgl\src\lv_misc/lv_area.c ****  * @file lv_area.c
   3:..\..\..\lvgl\version_6.1.2\lvgl\src\lv_misc/lv_area.c ****  *
   4:..\..\..\lvgl\version_6.1.2\lvgl\src\lv_misc/lv_area.c ****  */
   5:..\..\..\lvgl\version_6.1.2\lvgl\src\lv_misc/lv_area.c **** 
   6:..\..\..\lvgl\version_6.1.2\lvgl\src\lv_misc/lv_area.c **** /*********************
   7:..\..\..\lvgl\version_6.1.2\lvgl\src\lv_misc/lv_area.c ****  *      INCLUDES
   8:..\..\..\lvgl\version_6.1.2\lvgl\src\lv_misc/lv_area.c ****  *********************/
   9:..\..\..\lvgl\version_6.1.2\lvgl\src\lv_misc/lv_area.c **** #ifdef LV_CONF_INCLUDE_SIMPLE
  10:..\..\..\lvgl\version_6.1.2\lvgl\src\lv_misc/lv_area.c **** #include "lv_conf.h"
  11:..\..\..\lvgl\version_6.1.2\lvgl\src\lv_misc/lv_area.c **** #else
  12:..\..\..\lvgl\version_6.1.2\lvgl\src\lv_misc/lv_area.c **** #include "../../../lv_conf.h"
  13:..\..\..\lvgl\version_6.1.2\lvgl\src\lv_misc/lv_area.c **** #endif
  14:..\..\..\lvgl\version_6.1.2\lvgl\src\lv_misc/lv_area.c **** 
  15:..\..\..\lvgl\version_6.1.2\lvgl\src\lv_misc/lv_area.c **** #include "lv_area.h"
  16:..\..\..\lvgl\version_6.1.2\lvgl\src\lv_misc/lv_area.c **** #include "lv_math.h"
  17:..\..\..\lvgl\version_6.1.2\lvgl\src\lv_misc/lv_area.c **** 
  18:..\..\..\lvgl\version_6.1.2\lvgl\src\lv_misc/lv_area.c **** /*********************
  19:..\..\..\lvgl\version_6.1.2\lvgl\src\lv_misc/lv_area.c ****  *      DEFINES
  20:..\..\..\lvgl\version_6.1.2\lvgl\src\lv_misc/lv_area.c ****  *********************/
  21:..\..\..\lvgl\version_6.1.2\lvgl\src\lv_misc/lv_area.c **** 
  22:..\..\..\lvgl\version_6.1.2\lvgl\src\lv_misc/lv_area.c **** /**********************
  23:..\..\..\lvgl\version_6.1.2\lvgl\src\lv_misc/lv_area.c ****  *      TYPEDEFS
  24:..\..\..\lvgl\version_6.1.2\lvgl\src\lv_misc/lv_area.c ****  **********************/
  25:..\..\..\lvgl\version_6.1.2\lvgl\src\lv_misc/lv_area.c **** 
  26:..\..\..\lvgl\version_6.1.2\lvgl\src\lv_misc/lv_area.c **** /**********************
  27:..\..\..\lvgl\version_6.1.2\lvgl\src\lv_misc/lv_area.c ****  *  STATIC PROTOTYPES
  28:..\..\..\lvgl\version_6.1.2\lvgl\src\lv_misc/lv_area.c ****  **********************/
  29:..\..\..\lvgl\version_6.1.2\lvgl\src\lv_misc/lv_area.c **** 
ARM GAS  C:\Users\pearlstl\AppData\Local\Temp\ccotkl75.s 			page 2


  30:..\..\..\lvgl\version_6.1.2\lvgl\src\lv_misc/lv_area.c **** /**********************
  31:..\..\..\lvgl\version_6.1.2\lvgl\src\lv_misc/lv_area.c ****  *  STATIC VARIABLES
  32:..\..\..\lvgl\version_6.1.2\lvgl\src\lv_misc/lv_area.c ****  **********************/
  33:..\..\..\lvgl\version_6.1.2\lvgl\src\lv_misc/lv_area.c **** 
  34:..\..\..\lvgl\version_6.1.2\lvgl\src\lv_misc/lv_area.c **** /**********************
  35:..\..\..\lvgl\version_6.1.2\lvgl\src\lv_misc/lv_area.c ****  *      MACROS
  36:..\..\..\lvgl\version_6.1.2\lvgl\src\lv_misc/lv_area.c ****  **********************/
  37:..\..\..\lvgl\version_6.1.2\lvgl\src\lv_misc/lv_area.c **** 
  38:..\..\..\lvgl\version_6.1.2\lvgl\src\lv_misc/lv_area.c **** /**********************
  39:..\..\..\lvgl\version_6.1.2\lvgl\src\lv_misc/lv_area.c ****  *   GLOBAL FUNCTIONS
  40:..\..\..\lvgl\version_6.1.2\lvgl\src\lv_misc/lv_area.c ****  **********************/
  41:..\..\..\lvgl\version_6.1.2\lvgl\src\lv_misc/lv_area.c **** 
  42:..\..\..\lvgl\version_6.1.2\lvgl\src\lv_misc/lv_area.c **** /**
  43:..\..\..\lvgl\version_6.1.2\lvgl\src\lv_misc/lv_area.c ****  * Initialize an area
  44:..\..\..\lvgl\version_6.1.2\lvgl\src\lv_misc/lv_area.c ****  * @param area_p pointer to an area
  45:..\..\..\lvgl\version_6.1.2\lvgl\src\lv_misc/lv_area.c ****  * @param x1 left coordinate of the area
  46:..\..\..\lvgl\version_6.1.2\lvgl\src\lv_misc/lv_area.c ****  * @param y1 top coordinate of the area
  47:..\..\..\lvgl\version_6.1.2\lvgl\src\lv_misc/lv_area.c ****  * @param x2 right coordinate of the area
  48:..\..\..\lvgl\version_6.1.2\lvgl\src\lv_misc/lv_area.c ****  * @param y2 bottom coordinate of the area
  49:..\..\..\lvgl\version_6.1.2\lvgl\src\lv_misc/lv_area.c ****  */
  50:..\..\..\lvgl\version_6.1.2\lvgl\src\lv_misc/lv_area.c **** void lv_area_set(lv_area_t * area_p, lv_coord_t x1, lv_coord_t y1, lv_coord_t x2, lv_coord_t y2)
  51:..\..\..\lvgl\version_6.1.2\lvgl\src\lv_misc/lv_area.c **** {
  29              		.loc 1 51 0
  30              		.cfi_startproc
  31              		@ args = 4, pretend = 0, frame = 0
  32              		@ frame_needed = 0, uses_anonymous_args = 0
  33              		@ link register save eliminated.
  34              	.LVL0:
  35 0000 10B4     		push	{r4}
  36              		.cfi_def_cfa_offset 4
  37              		.cfi_offset 4, -4
  38              		.loc 1 51 0
  39 0002 BDF90440 		ldrsh	r4, [sp, #4]
  52:..\..\..\lvgl\version_6.1.2\lvgl\src\lv_misc/lv_area.c ****     area_p->x1 = x1;
  53:..\..\..\lvgl\version_6.1.2\lvgl\src\lv_misc/lv_area.c ****     area_p->y1 = y1;
  54:..\..\..\lvgl\version_6.1.2\lvgl\src\lv_misc/lv_area.c ****     area_p->x2 = x2;
  55:..\..\..\lvgl\version_6.1.2\lvgl\src\lv_misc/lv_area.c ****     area_p->y2 = y2;
  40              		.loc 1 55 0
  41 0006 C480     		strh	r4, [r0, #6]	@ movhi
  52:..\..\..\lvgl\version_6.1.2\lvgl\src\lv_misc/lv_area.c ****     area_p->x1 = x1;
  42              		.loc 1 52 0
  43 0008 0180     		strh	r1, [r0]	@ movhi
  53:..\..\..\lvgl\version_6.1.2\lvgl\src\lv_misc/lv_area.c ****     area_p->x2 = x2;
  44              		.loc 1 53 0
  45 000a 4280     		strh	r2, [r0, #2]	@ movhi
  54:..\..\..\lvgl\version_6.1.2\lvgl\src\lv_misc/lv_area.c ****     area_p->y2 = y2;
  46              		.loc 1 54 0
  47 000c 8380     		strh	r3, [r0, #4]	@ movhi
  56:..\..\..\lvgl\version_6.1.2\lvgl\src\lv_misc/lv_area.c **** }
  48              		.loc 1 56 0
  49 000e 5DF8044B 		ldr	r4, [sp], #4
  50              		.cfi_restore 4
  51              		.cfi_def_cfa_offset 0
  52              	.LVL1:
  53 0012 7047     		bx	lr
  54              		.cfi_endproc
  55              	.LFE3:
ARM GAS  C:\Users\pearlstl\AppData\Local\Temp\ccotkl75.s 			page 3


  56              		.size	lv_area_set, .-lv_area_set
  57              		.section	.text.lv_area_set_width,"ax",%progbits
  58              		.align	2
  59              		.global	lv_area_set_width
  60              		.thumb
  61              		.thumb_func
  62              		.type	lv_area_set_width, %function
  63              	lv_area_set_width:
  64              	.LFB4:
  57:..\..\..\lvgl\version_6.1.2\lvgl\src\lv_misc/lv_area.c **** 
  58:..\..\..\lvgl\version_6.1.2\lvgl\src\lv_misc/lv_area.c **** /**
  59:..\..\..\lvgl\version_6.1.2\lvgl\src\lv_misc/lv_area.c ****  * Set the width of an area
  60:..\..\..\lvgl\version_6.1.2\lvgl\src\lv_misc/lv_area.c ****  * @param area_p pointer to an area
  61:..\..\..\lvgl\version_6.1.2\lvgl\src\lv_misc/lv_area.c ****  * @param w the new width of the area (w == 1 makes x1 == x2)
  62:..\..\..\lvgl\version_6.1.2\lvgl\src\lv_misc/lv_area.c ****  */
  63:..\..\..\lvgl\version_6.1.2\lvgl\src\lv_misc/lv_area.c **** void lv_area_set_width(lv_area_t * area_p, lv_coord_t w)
  64:..\..\..\lvgl\version_6.1.2\lvgl\src\lv_misc/lv_area.c **** {
  65              		.loc 1 64 0
  66              		.cfi_startproc
  67              		@ args = 0, pretend = 0, frame = 0
  68              		@ frame_needed = 0, uses_anonymous_args = 0
  69              		@ link register save eliminated.
  70              	.LVL2:
  65:..\..\..\lvgl\version_6.1.2\lvgl\src\lv_misc/lv_area.c ****     area_p->x2 = area_p->x1 + w - 1;
  71              		.loc 1 65 0
  72 0000 0388     		ldrh	r3, [r0]
  73 0002 013B     		subs	r3, r3, #1
  74 0004 1944     		add	r1, r1, r3
  75              	.LVL3:
  76 0006 8180     		strh	r1, [r0, #4]	@ movhi
  77 0008 7047     		bx	lr
  78              		.cfi_endproc
  79              	.LFE4:
  80              		.size	lv_area_set_width, .-lv_area_set_width
  81 000a 00BF     		.section	.text.lv_area_set_height,"ax",%progbits
  82              		.align	2
  83              		.global	lv_area_set_height
  84              		.thumb
  85              		.thumb_func
  86              		.type	lv_area_set_height, %function
  87              	lv_area_set_height:
  88              	.LFB5:
  66:..\..\..\lvgl\version_6.1.2\lvgl\src\lv_misc/lv_area.c **** }
  67:..\..\..\lvgl\version_6.1.2\lvgl\src\lv_misc/lv_area.c **** 
  68:..\..\..\lvgl\version_6.1.2\lvgl\src\lv_misc/lv_area.c **** /**
  69:..\..\..\lvgl\version_6.1.2\lvgl\src\lv_misc/lv_area.c ****  * Set the height of an area
  70:..\..\..\lvgl\version_6.1.2\lvgl\src\lv_misc/lv_area.c ****  * @param area_p pointer to an area
  71:..\..\..\lvgl\version_6.1.2\lvgl\src\lv_misc/lv_area.c ****  * @param h the new height of the area (h == 1 makes y1 == y2)
  72:..\..\..\lvgl\version_6.1.2\lvgl\src\lv_misc/lv_area.c ****  */
  73:..\..\..\lvgl\version_6.1.2\lvgl\src\lv_misc/lv_area.c **** void lv_area_set_height(lv_area_t * area_p, lv_coord_t h)
  74:..\..\..\lvgl\version_6.1.2\lvgl\src\lv_misc/lv_area.c **** {
  89              		.loc 1 74 0
  90              		.cfi_startproc
  91              		@ args = 0, pretend = 0, frame = 0
  92              		@ frame_needed = 0, uses_anonymous_args = 0
  93              		@ link register save eliminated.
  94              	.LVL4:
ARM GAS  C:\Users\pearlstl\AppData\Local\Temp\ccotkl75.s 			page 4


  75:..\..\..\lvgl\version_6.1.2\lvgl\src\lv_misc/lv_area.c ****     area_p->y2 = area_p->y1 + h - 1;
  95              		.loc 1 75 0
  96 0000 4388     		ldrh	r3, [r0, #2]
  97 0002 013B     		subs	r3, r3, #1
  98 0004 1944     		add	r1, r1, r3
  99              	.LVL5:
 100 0006 C180     		strh	r1, [r0, #6]	@ movhi
 101 0008 7047     		bx	lr
 102              		.cfi_endproc
 103              	.LFE5:
 104              		.size	lv_area_set_height, .-lv_area_set_height
 105 000a 00BF     		.section	.text.lv_area_set_pos,"ax",%progbits
 106              		.align	2
 107              		.global	lv_area_set_pos
 108              		.thumb
 109              		.thumb_func
 110              		.type	lv_area_set_pos, %function
 111              	lv_area_set_pos:
 112              	.LFB6:
  76:..\..\..\lvgl\version_6.1.2\lvgl\src\lv_misc/lv_area.c **** }
  77:..\..\..\lvgl\version_6.1.2\lvgl\src\lv_misc/lv_area.c **** 
  78:..\..\..\lvgl\version_6.1.2\lvgl\src\lv_misc/lv_area.c **** /**
  79:..\..\..\lvgl\version_6.1.2\lvgl\src\lv_misc/lv_area.c ****  * Set the position of an area (width and height will be kept)
  80:..\..\..\lvgl\version_6.1.2\lvgl\src\lv_misc/lv_area.c ****  * @param area_p pointer to an area
  81:..\..\..\lvgl\version_6.1.2\lvgl\src\lv_misc/lv_area.c ****  * @param x the new x coordinate of the area
  82:..\..\..\lvgl\version_6.1.2\lvgl\src\lv_misc/lv_area.c ****  * @param y the new y coordinate of the area
  83:..\..\..\lvgl\version_6.1.2\lvgl\src\lv_misc/lv_area.c ****  */
  84:..\..\..\lvgl\version_6.1.2\lvgl\src\lv_misc/lv_area.c **** void lv_area_set_pos(lv_area_t * area_p, lv_coord_t x, lv_coord_t y)
  85:..\..\..\lvgl\version_6.1.2\lvgl\src\lv_misc/lv_area.c **** {
 113              		.loc 1 85 0
 114              		.cfi_startproc
 115              		@ args = 0, pretend = 0, frame = 0
 116              		@ frame_needed = 0, uses_anonymous_args = 0
 117              		@ link register save eliminated.
 118              	.LVL6:
 119 0000 70B4     		push	{r4, r5, r6}
 120              		.cfi_def_cfa_offset 12
 121              		.cfi_offset 4, -12
 122              		.cfi_offset 5, -8
 123              		.cfi_offset 6, -4
 124              	.LBB10:
 125              	.LBB11:
 126              		.file 2 "..\\..\\..\\lvgl\\version_6.1.2\\lvgl\\src\\lv_misc\\lv_area.h"
   1:..\..\..\lvgl\version_6.1.2\lvgl\src\lv_misc/lv_area.h **** /**
   2:..\..\..\lvgl\version_6.1.2\lvgl\src\lv_misc/lv_area.h ****  * @file lv_area.h
   3:..\..\..\lvgl\version_6.1.2\lvgl\src\lv_misc/lv_area.h ****  *
   4:..\..\..\lvgl\version_6.1.2\lvgl\src\lv_misc/lv_area.h ****  */
   5:..\..\..\lvgl\version_6.1.2\lvgl\src\lv_misc/lv_area.h **** 
   6:..\..\..\lvgl\version_6.1.2\lvgl\src\lv_misc/lv_area.h **** #ifndef LV_AREA_H
   7:..\..\..\lvgl\version_6.1.2\lvgl\src\lv_misc/lv_area.h **** #define LV_AREA_H
   8:..\..\..\lvgl\version_6.1.2\lvgl\src\lv_misc/lv_area.h **** 
   9:..\..\..\lvgl\version_6.1.2\lvgl\src\lv_misc/lv_area.h **** #ifdef __cplusplus
  10:..\..\..\lvgl\version_6.1.2\lvgl\src\lv_misc/lv_area.h **** extern "C" {
  11:..\..\..\lvgl\version_6.1.2\lvgl\src\lv_misc/lv_area.h **** #endif
  12:..\..\..\lvgl\version_6.1.2\lvgl\src\lv_misc/lv_area.h **** 
  13:..\..\..\lvgl\version_6.1.2\lvgl\src\lv_misc/lv_area.h **** /*********************
  14:..\..\..\lvgl\version_6.1.2\lvgl\src\lv_misc/lv_area.h ****  *      INCLUDES
ARM GAS  C:\Users\pearlstl\AppData\Local\Temp\ccotkl75.s 			page 5


  15:..\..\..\lvgl\version_6.1.2\lvgl\src\lv_misc/lv_area.h ****  *********************/
  16:..\..\..\lvgl\version_6.1.2\lvgl\src\lv_misc/lv_area.h **** #include <string.h>
  17:..\..\..\lvgl\version_6.1.2\lvgl\src\lv_misc/lv_area.h **** #include <stdbool.h>
  18:..\..\..\lvgl\version_6.1.2\lvgl\src\lv_misc/lv_area.h **** #include <stdint.h>
  19:..\..\..\lvgl\version_6.1.2\lvgl\src\lv_misc/lv_area.h **** #ifdef LV_CONF_INCLUDE_SIMPLE
  20:..\..\..\lvgl\version_6.1.2\lvgl\src\lv_misc/lv_area.h **** #include "lv_conf.h"
  21:..\..\..\lvgl\version_6.1.2\lvgl\src\lv_misc/lv_area.h **** #else
  22:..\..\..\lvgl\version_6.1.2\lvgl\src\lv_misc/lv_area.h **** #include "../../../lv_conf.h"
  23:..\..\..\lvgl\version_6.1.2\lvgl\src\lv_misc/lv_area.h **** #endif
  24:..\..\..\lvgl\version_6.1.2\lvgl\src\lv_misc/lv_area.h **** 
  25:..\..\..\lvgl\version_6.1.2\lvgl\src\lv_misc/lv_area.h **** /*********************
  26:..\..\..\lvgl\version_6.1.2\lvgl\src\lv_misc/lv_area.h ****  *      DEFINES
  27:..\..\..\lvgl\version_6.1.2\lvgl\src\lv_misc/lv_area.h ****  *********************/
  28:..\..\..\lvgl\version_6.1.2\lvgl\src\lv_misc/lv_area.h **** /*To avoid overflow don't let the max ranges (reduce with 1000) */
  29:..\..\..\lvgl\version_6.1.2\lvgl\src\lv_misc/lv_area.h **** #define LV_COORD_MAX ((lv_coord_t)((uint32_t)((uint32_t)1 << (8 * sizeof(lv_coord_t) - 1)) - 1000))
  30:..\..\..\lvgl\version_6.1.2\lvgl\src\lv_misc/lv_area.h **** #define LV_COORD_MIN (-LV_COORD_MAX)
  31:..\..\..\lvgl\version_6.1.2\lvgl\src\lv_misc/lv_area.h **** 
  32:..\..\..\lvgl\version_6.1.2\lvgl\src\lv_misc/lv_area.h **** LV_EXPORT_CONST_INT(LV_COORD_MAX);
  33:..\..\..\lvgl\version_6.1.2\lvgl\src\lv_misc/lv_area.h **** LV_EXPORT_CONST_INT(LV_COORD_MIN);
  34:..\..\..\lvgl\version_6.1.2\lvgl\src\lv_misc/lv_area.h **** 
  35:..\..\..\lvgl\version_6.1.2\lvgl\src\lv_misc/lv_area.h **** /**********************
  36:..\..\..\lvgl\version_6.1.2\lvgl\src\lv_misc/lv_area.h ****  *      TYPEDEFS
  37:..\..\..\lvgl\version_6.1.2\lvgl\src\lv_misc/lv_area.h ****  **********************/
  38:..\..\..\lvgl\version_6.1.2\lvgl\src\lv_misc/lv_area.h **** 
  39:..\..\..\lvgl\version_6.1.2\lvgl\src\lv_misc/lv_area.h **** /**
  40:..\..\..\lvgl\version_6.1.2\lvgl\src\lv_misc/lv_area.h ****  * Represents a point on the screen.
  41:..\..\..\lvgl\version_6.1.2\lvgl\src\lv_misc/lv_area.h ****  */
  42:..\..\..\lvgl\version_6.1.2\lvgl\src\lv_misc/lv_area.h **** typedef struct
  43:..\..\..\lvgl\version_6.1.2\lvgl\src\lv_misc/lv_area.h **** {
  44:..\..\..\lvgl\version_6.1.2\lvgl\src\lv_misc/lv_area.h ****     lv_coord_t x;
  45:..\..\..\lvgl\version_6.1.2\lvgl\src\lv_misc/lv_area.h ****     lv_coord_t y;
  46:..\..\..\lvgl\version_6.1.2\lvgl\src\lv_misc/lv_area.h **** } lv_point_t;
  47:..\..\..\lvgl\version_6.1.2\lvgl\src\lv_misc/lv_area.h **** 
  48:..\..\..\lvgl\version_6.1.2\lvgl\src\lv_misc/lv_area.h **** /** Represents an area of the screen. */
  49:..\..\..\lvgl\version_6.1.2\lvgl\src\lv_misc/lv_area.h **** typedef struct
  50:..\..\..\lvgl\version_6.1.2\lvgl\src\lv_misc/lv_area.h **** {
  51:..\..\..\lvgl\version_6.1.2\lvgl\src\lv_misc/lv_area.h ****     lv_coord_t x1;
  52:..\..\..\lvgl\version_6.1.2\lvgl\src\lv_misc/lv_area.h ****     lv_coord_t y1;
  53:..\..\..\lvgl\version_6.1.2\lvgl\src\lv_misc/lv_area.h ****     lv_coord_t x2;
  54:..\..\..\lvgl\version_6.1.2\lvgl\src\lv_misc/lv_area.h ****     lv_coord_t y2;
  55:..\..\..\lvgl\version_6.1.2\lvgl\src\lv_misc/lv_area.h **** } lv_area_t;
  56:..\..\..\lvgl\version_6.1.2\lvgl\src\lv_misc/lv_area.h **** 
  57:..\..\..\lvgl\version_6.1.2\lvgl\src\lv_misc/lv_area.h **** /**********************
  58:..\..\..\lvgl\version_6.1.2\lvgl\src\lv_misc/lv_area.h ****  * GLOBAL PROTOTYPES
  59:..\..\..\lvgl\version_6.1.2\lvgl\src\lv_misc/lv_area.h ****  **********************/
  60:..\..\..\lvgl\version_6.1.2\lvgl\src\lv_misc/lv_area.h **** 
  61:..\..\..\lvgl\version_6.1.2\lvgl\src\lv_misc/lv_area.h **** /**
  62:..\..\..\lvgl\version_6.1.2\lvgl\src\lv_misc/lv_area.h ****  * Initialize an area
  63:..\..\..\lvgl\version_6.1.2\lvgl\src\lv_misc/lv_area.h ****  * @param area_p pointer to an area
  64:..\..\..\lvgl\version_6.1.2\lvgl\src\lv_misc/lv_area.h ****  * @param x1 left coordinate of the area
  65:..\..\..\lvgl\version_6.1.2\lvgl\src\lv_misc/lv_area.h ****  * @param y1 top coordinate of the area
  66:..\..\..\lvgl\version_6.1.2\lvgl\src\lv_misc/lv_area.h ****  * @param x2 right coordinate of the area
  67:..\..\..\lvgl\version_6.1.2\lvgl\src\lv_misc/lv_area.h ****  * @param y2 bottom coordinate of the area
  68:..\..\..\lvgl\version_6.1.2\lvgl\src\lv_misc/lv_area.h ****  */
  69:..\..\..\lvgl\version_6.1.2\lvgl\src\lv_misc/lv_area.h **** void lv_area_set(lv_area_t * area_p, lv_coord_t x1, lv_coord_t y1, lv_coord_t x2, lv_coord_t y2);
  70:..\..\..\lvgl\version_6.1.2\lvgl\src\lv_misc/lv_area.h **** 
  71:..\..\..\lvgl\version_6.1.2\lvgl\src\lv_misc/lv_area.h **** /**
ARM GAS  C:\Users\pearlstl\AppData\Local\Temp\ccotkl75.s 			page 6


  72:..\..\..\lvgl\version_6.1.2\lvgl\src\lv_misc/lv_area.h ****  * Copy an area
  73:..\..\..\lvgl\version_6.1.2\lvgl\src\lv_misc/lv_area.h ****  * @param dest pointer to the destination area
  74:..\..\..\lvgl\version_6.1.2\lvgl\src\lv_misc/lv_area.h ****  * @param src pointer to the source area
  75:..\..\..\lvgl\version_6.1.2\lvgl\src\lv_misc/lv_area.h ****  */
  76:..\..\..\lvgl\version_6.1.2\lvgl\src\lv_misc/lv_area.h **** inline static void lv_area_copy(lv_area_t * dest, const lv_area_t * src)
  77:..\..\..\lvgl\version_6.1.2\lvgl\src\lv_misc/lv_area.h **** {
  78:..\..\..\lvgl\version_6.1.2\lvgl\src\lv_misc/lv_area.h ****     memcpy(dest, src, sizeof(lv_area_t));
  79:..\..\..\lvgl\version_6.1.2\lvgl\src\lv_misc/lv_area.h **** }
  80:..\..\..\lvgl\version_6.1.2\lvgl\src\lv_misc/lv_area.h **** 
  81:..\..\..\lvgl\version_6.1.2\lvgl\src\lv_misc/lv_area.h **** /**
  82:..\..\..\lvgl\version_6.1.2\lvgl\src\lv_misc/lv_area.h ****  * Get the width of an area
  83:..\..\..\lvgl\version_6.1.2\lvgl\src\lv_misc/lv_area.h ****  * @param area_p pointer to an area
  84:..\..\..\lvgl\version_6.1.2\lvgl\src\lv_misc/lv_area.h ****  * @return the width of the area (if x1 == x2 -> width = 1)
  85:..\..\..\lvgl\version_6.1.2\lvgl\src\lv_misc/lv_area.h ****  */
  86:..\..\..\lvgl\version_6.1.2\lvgl\src\lv_misc/lv_area.h **** static inline lv_coord_t lv_area_get_width(const lv_area_t * area_p)
  87:..\..\..\lvgl\version_6.1.2\lvgl\src\lv_misc/lv_area.h **** {
  88:..\..\..\lvgl\version_6.1.2\lvgl\src\lv_misc/lv_area.h ****     return (lv_coord_t)(area_p->x2 - area_p->x1 + 1);
  89:..\..\..\lvgl\version_6.1.2\lvgl\src\lv_misc/lv_area.h **** }
  90:..\..\..\lvgl\version_6.1.2\lvgl\src\lv_misc/lv_area.h **** 
  91:..\..\..\lvgl\version_6.1.2\lvgl\src\lv_misc/lv_area.h **** /**
  92:..\..\..\lvgl\version_6.1.2\lvgl\src\lv_misc/lv_area.h ****  * Get the height of an area
  93:..\..\..\lvgl\version_6.1.2\lvgl\src\lv_misc/lv_area.h ****  * @param area_p pointer to an area
  94:..\..\..\lvgl\version_6.1.2\lvgl\src\lv_misc/lv_area.h ****  * @return the height of the area (if y1 == y2 -> height = 1)
  95:..\..\..\lvgl\version_6.1.2\lvgl\src\lv_misc/lv_area.h ****  */
  96:..\..\..\lvgl\version_6.1.2\lvgl\src\lv_misc/lv_area.h **** static inline lv_coord_t lv_area_get_height(const lv_area_t * area_p)
  97:..\..\..\lvgl\version_6.1.2\lvgl\src\lv_misc/lv_area.h **** {
  98:..\..\..\lvgl\version_6.1.2\lvgl\src\lv_misc/lv_area.h ****     return (lv_coord_t)(area_p->y2 - area_p->y1 + 1);
 127              		.loc 2 98 0
 128 0002 C388     		ldrh	r3, [r0, #6]
 129              	.LBE11:
 130              	.LBE10:
 131              	.LBB13:
 132              	.LBB14:
  88:..\..\..\lvgl\version_6.1.2\lvgl\src\lv_misc/lv_area.h **** }
 133              		.loc 2 88 0
 134 0004 8688     		ldrh	r6, [r0, #4]
 135 0006 0588     		ldrh	r5, [r0]
 136              	.LVL7:
 137              	.LBE14:
 138              	.LBE13:
 139              	.LBB15:
 140              	.LBB12:
 141              		.loc 2 98 0
 142 0008 4488     		ldrh	r4, [r0, #2]
 143              	.LBE12:
 144              	.LBE15:
  86:..\..\..\lvgl\version_6.1.2\lvgl\src\lv_misc/lv_area.c ****     lv_coord_t w = lv_area_get_width(area_p);
  87:..\..\..\lvgl\version_6.1.2\lvgl\src\lv_misc/lv_area.c ****     lv_coord_t h = lv_area_get_height(area_p);
  88:..\..\..\lvgl\version_6.1.2\lvgl\src\lv_misc/lv_area.c ****     area_p->x1   = x;
 145              		.loc 1 88 0
 146 000a 0180     		strh	r1, [r0]	@ movhi
 147              	.LBB16:
 148              	.LBB17:
  75:..\..\..\lvgl\version_6.1.2\lvgl\src\lv_misc/lv_area.c **** }
 149              		.loc 1 75 0
 150 000c 1344     		add	r3, r3, r2
 151              	.LBE17:
ARM GAS  C:\Users\pearlstl\AppData\Local\Temp\ccotkl75.s 			page 7


 152              	.LBE16:
 153              	.LBB20:
 154              	.LBB21:
  65:..\..\..\lvgl\version_6.1.2\lvgl\src\lv_misc/lv_area.c **** }
 155              		.loc 1 65 0
 156 000e 3144     		add	r1, r1, r6
 157              	.LVL8:
 158 0010 491B     		subs	r1, r1, r5
 159              	.LBE21:
 160              	.LBE20:
 161              	.LBB23:
 162              	.LBB18:
  75:..\..\..\lvgl\version_6.1.2\lvgl\src\lv_misc/lv_area.c **** }
 163              		.loc 1 75 0
 164 0012 1B1B     		subs	r3, r3, r4
 165              	.LBE18:
 166              	.LBE23:
 167              	.LBB24:
 168              	.LBB22:
  65:..\..\..\lvgl\version_6.1.2\lvgl\src\lv_misc/lv_area.c **** }
 169              		.loc 1 65 0
 170 0014 8180     		strh	r1, [r0, #4]	@ movhi
 171              	.LBE22:
 172              	.LBE24:
 173              	.LBB25:
 174              	.LBB19:
  75:..\..\..\lvgl\version_6.1.2\lvgl\src\lv_misc/lv_area.c **** }
 175              		.loc 1 75 0
 176 0016 C380     		strh	r3, [r0, #6]	@ movhi
 177              	.LBE19:
 178              	.LBE25:
  89:..\..\..\lvgl\version_6.1.2\lvgl\src\lv_misc/lv_area.c ****     area_p->y1   = y;
 179              		.loc 1 89 0
 180 0018 4280     		strh	r2, [r0, #2]	@ movhi
  90:..\..\..\lvgl\version_6.1.2\lvgl\src\lv_misc/lv_area.c ****     lv_area_set_width(area_p, w);
  91:..\..\..\lvgl\version_6.1.2\lvgl\src\lv_misc/lv_area.c ****     lv_area_set_height(area_p, h);
  92:..\..\..\lvgl\version_6.1.2\lvgl\src\lv_misc/lv_area.c **** }
 181              		.loc 1 92 0
 182 001a 70BC     		pop	{r4, r5, r6}
 183              		.cfi_restore 6
 184              		.cfi_restore 5
 185              		.cfi_restore 4
 186              		.cfi_def_cfa_offset 0
 187 001c 7047     		bx	lr
 188              		.cfi_endproc
 189              	.LFE6:
 190              		.size	lv_area_set_pos, .-lv_area_set_pos
 191 001e 00BF     		.section	.text.lv_area_get_size,"ax",%progbits
 192              		.align	2
 193              		.global	lv_area_get_size
 194              		.thumb
 195              		.thumb_func
 196              		.type	lv_area_get_size, %function
 197              	lv_area_get_size:
 198              	.LFB7:
  93:..\..\..\lvgl\version_6.1.2\lvgl\src\lv_misc/lv_area.c **** 
  94:..\..\..\lvgl\version_6.1.2\lvgl\src\lv_misc/lv_area.c **** /**
ARM GAS  C:\Users\pearlstl\AppData\Local\Temp\ccotkl75.s 			page 8


  95:..\..\..\lvgl\version_6.1.2\lvgl\src\lv_misc/lv_area.c ****  * Return with area of an area (x * y)
  96:..\..\..\lvgl\version_6.1.2\lvgl\src\lv_misc/lv_area.c ****  * @param area_p pointer to an area
  97:..\..\..\lvgl\version_6.1.2\lvgl\src\lv_misc/lv_area.c ****  * @return size of area
  98:..\..\..\lvgl\version_6.1.2\lvgl\src\lv_misc/lv_area.c ****  */
  99:..\..\..\lvgl\version_6.1.2\lvgl\src\lv_misc/lv_area.c **** uint32_t lv_area_get_size(const lv_area_t * area_p)
 100:..\..\..\lvgl\version_6.1.2\lvgl\src\lv_misc/lv_area.c **** {
 199              		.loc 1 100 0
 200              		.cfi_startproc
 201              		@ args = 0, pretend = 0, frame = 0
 202              		@ frame_needed = 0, uses_anonymous_args = 0
 203              		@ link register save eliminated.
 204              	.LVL9:
 205 0000 10B4     		push	{r4}
 206              		.cfi_def_cfa_offset 4
 207              		.cfi_offset 4, -4
 101:..\..\..\lvgl\version_6.1.2\lvgl\src\lv_misc/lv_area.c ****     uint32_t size;
 102:..\..\..\lvgl\version_6.1.2\lvgl\src\lv_misc/lv_area.c **** 
 103:..\..\..\lvgl\version_6.1.2\lvgl\src\lv_misc/lv_area.c ****     size = (uint32_t)(area_p->x2 - area_p->x1 + 1) * (area_p->y2 - area_p->y1 + 1);
 104:..\..\..\lvgl\version_6.1.2\lvgl\src\lv_misc/lv_area.c **** 
 105:..\..\..\lvgl\version_6.1.2\lvgl\src\lv_misc/lv_area.c ****     return size;
 208              		.loc 1 105 0
 209 0002 B0F90630 		ldrsh	r3, [r0, #6]
 210 0006 B0F90240 		ldrsh	r4, [r0, #2]
 211 000a B0F90420 		ldrsh	r2, [r0, #4]
 212 000e B0F90010 		ldrsh	r1, [r0]
 213 0012 181B     		subs	r0, r3, r4
 214              	.LVL10:
 215 0014 0130     		adds	r0, r0, #1
 216 0016 531A     		subs	r3, r2, r1
 106:..\..\..\lvgl\version_6.1.2\lvgl\src\lv_misc/lv_area.c **** }
 217              		.loc 1 106 0
 218 0018 03FB0000 		mla	r0, r3, r0, r0
 219 001c 5DF8044B 		ldr	r4, [sp], #4
 220              		.cfi_restore 4
 221              		.cfi_def_cfa_offset 0
 222 0020 7047     		bx	lr
 223              		.cfi_endproc
 224              	.LFE7:
 225              		.size	lv_area_get_size, .-lv_area_get_size
 226 0022 00BF     		.section	.text.lv_area_intersect,"ax",%progbits
 227              		.align	2
 228              		.global	lv_area_intersect
 229              		.thumb
 230              		.thumb_func
 231              		.type	lv_area_intersect, %function
 232              	lv_area_intersect:
 233              	.LFB8:
 107:..\..\..\lvgl\version_6.1.2\lvgl\src\lv_misc/lv_area.c **** 
 108:..\..\..\lvgl\version_6.1.2\lvgl\src\lv_misc/lv_area.c **** /**
 109:..\..\..\lvgl\version_6.1.2\lvgl\src\lv_misc/lv_area.c ****  * Get the common parts of two areas
 110:..\..\..\lvgl\version_6.1.2\lvgl\src\lv_misc/lv_area.c ****  * @param res_p pointer to an area, the result will be stored here
 111:..\..\..\lvgl\version_6.1.2\lvgl\src\lv_misc/lv_area.c ****  * @param a1_p pointer to the first area
 112:..\..\..\lvgl\version_6.1.2\lvgl\src\lv_misc/lv_area.c ****  * @param a2_p pointer to the second area
 113:..\..\..\lvgl\version_6.1.2\lvgl\src\lv_misc/lv_area.c ****  * @return false: the two area has NO common parts, res_p is invalid
 114:..\..\..\lvgl\version_6.1.2\lvgl\src\lv_misc/lv_area.c ****  */
 115:..\..\..\lvgl\version_6.1.2\lvgl\src\lv_misc/lv_area.c **** bool lv_area_intersect(lv_area_t * res_p, const lv_area_t * a1_p, const lv_area_t * a2_p)
 116:..\..\..\lvgl\version_6.1.2\lvgl\src\lv_misc/lv_area.c **** {
ARM GAS  C:\Users\pearlstl\AppData\Local\Temp\ccotkl75.s 			page 9


 234              		.loc 1 116 0
 235              		.cfi_startproc
 236              		@ args = 0, pretend = 0, frame = 0
 237              		@ frame_needed = 0, uses_anonymous_args = 0
 238              	.LVL11:
 239 0000 F0B5     		push	{r4, r5, r6, r7, lr}
 240              		.cfi_def_cfa_offset 20
 241              		.cfi_offset 4, -20
 242              		.cfi_offset 5, -16
 243              		.cfi_offset 6, -12
 244              		.cfi_offset 7, -8
 245              		.cfi_offset 14, -4
 117:..\..\..\lvgl\version_6.1.2\lvgl\src\lv_misc/lv_area.c ****     /* Get the smaller area from 'a1_p' and 'a2_p' */
 118:..\..\..\lvgl\version_6.1.2\lvgl\src\lv_misc/lv_area.c ****     res_p->x1 = LV_MATH_MAX(a1_p->x1, a2_p->x1);
 246              		.loc 1 118 0
 247 0002 B2F900C0 		ldrsh	ip, [r2]
 248 0006 B1F90050 		ldrsh	r5, [r1]
 119:..\..\..\lvgl\version_6.1.2\lvgl\src\lv_misc/lv_area.c ****     res_p->y1 = LV_MATH_MAX(a1_p->y1, a2_p->y1);
 249              		.loc 1 119 0
 250 000a B1F90240 		ldrsh	r4, [r1, #2]
 251 000e B2F90230 		ldrsh	r3, [r2, #2]
 120:..\..\..\lvgl\version_6.1.2\lvgl\src\lv_misc/lv_area.c ****     res_p->x2 = LV_MATH_MIN(a1_p->x2, a2_p->x2);
 252              		.loc 1 120 0
 253 0012 B2F904E0 		ldrsh	lr, [r2, #4]
 121:..\..\..\lvgl\version_6.1.2\lvgl\src\lv_misc/lv_area.c ****     res_p->y2 = LV_MATH_MIN(a1_p->y2, a2_p->y2);
 254              		.loc 1 121 0
 255 0016 B2F90670 		ldrsh	r7, [r2, #6]
 120:..\..\..\lvgl\version_6.1.2\lvgl\src\lv_misc/lv_area.c ****     res_p->x2 = LV_MATH_MIN(a1_p->x2, a2_p->x2);
 256              		.loc 1 120 0
 257 001a B1F90420 		ldrsh	r2, [r1, #4]
 258              	.LVL12:
 259              		.loc 1 121 0
 260 001e B1F90660 		ldrsh	r6, [r1, #6]
 118:..\..\..\lvgl\version_6.1.2\lvgl\src\lv_misc/lv_area.c ****     res_p->y1 = LV_MATH_MAX(a1_p->y1, a2_p->y1);
 261              		.loc 1 118 0
 262 0022 AC45     		cmp	ip, r5
 263 0024 6146     		mov	r1, ip
 264              	.LVL13:
 265 0026 B8BF     		it	lt
 266 0028 2946     		movlt	r1, r5
 119:..\..\..\lvgl\version_6.1.2\lvgl\src\lv_misc/lv_area.c ****     res_p->x2 = LV_MATH_MIN(a1_p->x2, a2_p->x2);
 267              		.loc 1 119 0
 268 002a A342     		cmp	r3, r4
 269 002c B8BF     		it	lt
 270 002e 2346     		movlt	r3, r4
 120:..\..\..\lvgl\version_6.1.2\lvgl\src\lv_misc/lv_area.c ****     res_p->y2 = LV_MATH_MIN(a1_p->y2, a2_p->y2);
 271              		.loc 1 120 0
 272 0030 7245     		cmp	r2, lr
 273 0032 A8BF     		it	ge
 274 0034 7246     		movge	r2, lr
 275              		.loc 1 121 0
 276 0036 B742     		cmp	r7, r6
 277 0038 3C46     		mov	r4, r7
 278 003a A8BF     		it	ge
 279 003c 3446     		movge	r4, r6
 122:..\..\..\lvgl\version_6.1.2\lvgl\src\lv_misc/lv_area.c **** 
 123:..\..\..\lvgl\version_6.1.2\lvgl\src\lv_misc/lv_area.c ****     /*If x1 or y1 greater then x2 or y2 then the areas union is empty*/
ARM GAS  C:\Users\pearlstl\AppData\Local\Temp\ccotkl75.s 			page 10


 124:..\..\..\lvgl\version_6.1.2\lvgl\src\lv_misc/lv_area.c ****     bool union_ok = true;
 125:..\..\..\lvgl\version_6.1.2\lvgl\src\lv_misc/lv_area.c ****     if((res_p->x1 > res_p->x2) || (res_p->y1 > res_p->y2)) {
 280              		.loc 1 125 0
 281 003e 9142     		cmp	r1, r2
 118:..\..\..\lvgl\version_6.1.2\lvgl\src\lv_misc/lv_area.c ****     res_p->y1 = LV_MATH_MAX(a1_p->y1, a2_p->y1);
 282              		.loc 1 118 0
 283 0040 0180     		strh	r1, [r0]	@ movhi
 119:..\..\..\lvgl\version_6.1.2\lvgl\src\lv_misc/lv_area.c ****     res_p->x2 = LV_MATH_MIN(a1_p->x2, a2_p->x2);
 284              		.loc 1 119 0
 285 0042 4380     		strh	r3, [r0, #2]	@ movhi
 120:..\..\..\lvgl\version_6.1.2\lvgl\src\lv_misc/lv_area.c ****     res_p->y2 = LV_MATH_MIN(a1_p->y2, a2_p->y2);
 286              		.loc 1 120 0
 287 0044 8280     		strh	r2, [r0, #4]	@ movhi
 121:..\..\..\lvgl\version_6.1.2\lvgl\src\lv_misc/lv_area.c **** 
 288              		.loc 1 121 0
 289 0046 C480     		strh	r4, [r0, #6]	@ movhi
 290              	.LVL14:
 291              		.loc 1 125 0
 292 0048 04DC     		bgt	.L11
 293              		.loc 1 125 0 is_stmt 0 discriminator 1
 294 004a A342     		cmp	r3, r4
 295 004c CCBF     		ite	gt
 296 004e 0020     		movgt	r0, #0
 297              	.LVL15:
 298 0050 0120     		movle	r0, #1
 299 0052 F0BD     		pop	{r4, r5, r6, r7, pc}
 300              	.LVL16:
 301              	.L11:
 126:..\..\..\lvgl\version_6.1.2\lvgl\src\lv_misc/lv_area.c ****         union_ok = false;
 302              		.loc 1 126 0 is_stmt 1
 303 0054 0020     		movs	r0, #0
 304              	.LVL17:
 127:..\..\..\lvgl\version_6.1.2\lvgl\src\lv_misc/lv_area.c ****     }
 128:..\..\..\lvgl\version_6.1.2\lvgl\src\lv_misc/lv_area.c **** 
 129:..\..\..\lvgl\version_6.1.2\lvgl\src\lv_misc/lv_area.c ****     return union_ok;
 130:..\..\..\lvgl\version_6.1.2\lvgl\src\lv_misc/lv_area.c **** }
 305              		.loc 1 130 0
 306 0056 F0BD     		pop	{r4, r5, r6, r7, pc}
 307              		.cfi_endproc
 308              	.LFE8:
 309              		.size	lv_area_intersect, .-lv_area_intersect
 310              		.section	.text.lv_area_join,"ax",%progbits
 311              		.align	2
 312              		.global	lv_area_join
 313              		.thumb
 314              		.thumb_func
 315              		.type	lv_area_join, %function
 316              	lv_area_join:
 317              	.LFB9:
 131:..\..\..\lvgl\version_6.1.2\lvgl\src\lv_misc/lv_area.c **** /**
 132:..\..\..\lvgl\version_6.1.2\lvgl\src\lv_misc/lv_area.c ****  * Join two areas into a third which involves the other two
 133:..\..\..\lvgl\version_6.1.2\lvgl\src\lv_misc/lv_area.c ****  * @param res_p pointer to an area, the result will be stored here
 134:..\..\..\lvgl\version_6.1.2\lvgl\src\lv_misc/lv_area.c ****  * @param a1_p pointer to the first area
 135:..\..\..\lvgl\version_6.1.2\lvgl\src\lv_misc/lv_area.c ****  * @param a2_p pointer to the second area
 136:..\..\..\lvgl\version_6.1.2\lvgl\src\lv_misc/lv_area.c ****  */
 137:..\..\..\lvgl\version_6.1.2\lvgl\src\lv_misc/lv_area.c **** void lv_area_join(lv_area_t * a_res_p, const lv_area_t * a1_p, const lv_area_t * a2_p)
 138:..\..\..\lvgl\version_6.1.2\lvgl\src\lv_misc/lv_area.c **** {
ARM GAS  C:\Users\pearlstl\AppData\Local\Temp\ccotkl75.s 			page 11


 318              		.loc 1 138 0
 319              		.cfi_startproc
 320              		@ args = 0, pretend = 0, frame = 0
 321              		@ frame_needed = 0, uses_anonymous_args = 0
 322              	.LVL18:
 139:..\..\..\lvgl\version_6.1.2\lvgl\src\lv_misc/lv_area.c ****     a_res_p->x1 = LV_MATH_MIN(a1_p->x1, a2_p->x1);
 323              		.loc 1 139 0
 324 0000 B2F900C0 		ldrsh	ip, [r2]
 140:..\..\..\lvgl\version_6.1.2\lvgl\src\lv_misc/lv_area.c ****     a_res_p->y1 = LV_MATH_MIN(a1_p->y1, a2_p->y1);
 141:..\..\..\lvgl\version_6.1.2\lvgl\src\lv_misc/lv_area.c ****     a_res_p->x2 = LV_MATH_MAX(a1_p->x2, a2_p->x2);
 142:..\..\..\lvgl\version_6.1.2\lvgl\src\lv_misc/lv_area.c ****     a_res_p->y2 = LV_MATH_MAX(a1_p->y2, a2_p->y2);
 325              		.loc 1 142 0
 326 0004 B1F90630 		ldrsh	r3, [r1, #6]
 138:..\..\..\lvgl\version_6.1.2\lvgl\src\lv_misc/lv_area.c ****     a_res_p->x1 = LV_MATH_MIN(a1_p->x1, a2_p->x1);
 327              		.loc 1 138 0
 328 0008 F0B5     		push	{r4, r5, r6, r7, lr}
 329              		.cfi_def_cfa_offset 20
 330              		.cfi_offset 4, -20
 331              		.cfi_offset 5, -16
 332              		.cfi_offset 6, -12
 333              		.cfi_offset 7, -8
 334              		.cfi_offset 14, -4
 139:..\..\..\lvgl\version_6.1.2\lvgl\src\lv_misc/lv_area.c ****     a_res_p->x1 = LV_MATH_MIN(a1_p->x1, a2_p->x1);
 335              		.loc 1 139 0
 336 000a B1F90050 		ldrsh	r5, [r1]
 140:..\..\..\lvgl\version_6.1.2\lvgl\src\lv_misc/lv_area.c ****     a_res_p->y1 = LV_MATH_MIN(a1_p->y1, a2_p->y1);
 337              		.loc 1 140 0
 338 000e B2F902E0 		ldrsh	lr, [r2, #2]
 339 0012 B1F90240 		ldrsh	r4, [r1, #2]
 141:..\..\..\lvgl\version_6.1.2\lvgl\src\lv_misc/lv_area.c ****     a_res_p->y2 = LV_MATH_MAX(a1_p->y2, a2_p->y2);
 340              		.loc 1 141 0
 341 0016 B2F90470 		ldrsh	r7, [r2, #4]
 342              		.loc 1 142 0
 343 001a B2F90660 		ldrsh	r6, [r2, #6]
 141:..\..\..\lvgl\version_6.1.2\lvgl\src\lv_misc/lv_area.c ****     a_res_p->y2 = LV_MATH_MAX(a1_p->y2, a2_p->y2);
 344              		.loc 1 141 0
 345 001e B1F90420 		ldrsh	r2, [r1, #4]
 346              	.LVL19:
 139:..\..\..\lvgl\version_6.1.2\lvgl\src\lv_misc/lv_area.c ****     a_res_p->y1 = LV_MATH_MIN(a1_p->y1, a2_p->y1);
 347              		.loc 1 139 0
 348 0022 6545     		cmp	r5, ip
 349 0024 A8BF     		it	ge
 350 0026 6546     		movge	r5, ip
 140:..\..\..\lvgl\version_6.1.2\lvgl\src\lv_misc/lv_area.c ****     a_res_p->x2 = LV_MATH_MAX(a1_p->x2, a2_p->x2);
 351              		.loc 1 140 0
 352 0028 7445     		cmp	r4, lr
 353 002a A8BF     		it	ge
 354 002c 7446     		movge	r4, lr
 141:..\..\..\lvgl\version_6.1.2\lvgl\src\lv_misc/lv_area.c ****     a_res_p->y2 = LV_MATH_MAX(a1_p->y2, a2_p->y2);
 355              		.loc 1 141 0
 356 002e BA42     		cmp	r2, r7
 357 0030 B8BF     		it	lt
 358 0032 3A46     		movlt	r2, r7
 359              		.loc 1 142 0
 360 0034 B342     		cmp	r3, r6
 361 0036 B8BF     		it	lt
 362 0038 3346     		movlt	r3, r6
ARM GAS  C:\Users\pearlstl\AppData\Local\Temp\ccotkl75.s 			page 12


 139:..\..\..\lvgl\version_6.1.2\lvgl\src\lv_misc/lv_area.c ****     a_res_p->y1 = LV_MATH_MIN(a1_p->y1, a2_p->y1);
 363              		.loc 1 139 0
 364 003a 0580     		strh	r5, [r0]	@ movhi
 140:..\..\..\lvgl\version_6.1.2\lvgl\src\lv_misc/lv_area.c ****     a_res_p->x2 = LV_MATH_MAX(a1_p->x2, a2_p->x2);
 365              		.loc 1 140 0
 366 003c 4480     		strh	r4, [r0, #2]	@ movhi
 141:..\..\..\lvgl\version_6.1.2\lvgl\src\lv_misc/lv_area.c ****     a_res_p->y2 = LV_MATH_MAX(a1_p->y2, a2_p->y2);
 367              		.loc 1 141 0
 368 003e 8280     		strh	r2, [r0, #4]	@ movhi
 369              		.loc 1 142 0
 370 0040 C380     		strh	r3, [r0, #6]	@ movhi
 371 0042 F0BD     		pop	{r4, r5, r6, r7, pc}
 372              		.cfi_endproc
 373              	.LFE9:
 374              		.size	lv_area_join, .-lv_area_join
 375              		.section	.text.lv_area_is_point_on,"ax",%progbits
 376              		.align	2
 377              		.global	lv_area_is_point_on
 378              		.thumb
 379              		.thumb_func
 380              		.type	lv_area_is_point_on, %function
 381              	lv_area_is_point_on:
 382              	.LFB10:
 143:..\..\..\lvgl\version_6.1.2\lvgl\src\lv_misc/lv_area.c **** }
 144:..\..\..\lvgl\version_6.1.2\lvgl\src\lv_misc/lv_area.c **** 
 145:..\..\..\lvgl\version_6.1.2\lvgl\src\lv_misc/lv_area.c **** /**
 146:..\..\..\lvgl\version_6.1.2\lvgl\src\lv_misc/lv_area.c ****  * Check if a point is on an area
 147:..\..\..\lvgl\version_6.1.2\lvgl\src\lv_misc/lv_area.c ****  * @param a_p pointer to an area
 148:..\..\..\lvgl\version_6.1.2\lvgl\src\lv_misc/lv_area.c ****  * @param p_p pointer to a point
 149:..\..\..\lvgl\version_6.1.2\lvgl\src\lv_misc/lv_area.c ****  * @return false:the point is out of the area
 150:..\..\..\lvgl\version_6.1.2\lvgl\src\lv_misc/lv_area.c ****  */
 151:..\..\..\lvgl\version_6.1.2\lvgl\src\lv_misc/lv_area.c **** bool lv_area_is_point_on(const lv_area_t * a_p, const lv_point_t * p_p)
 152:..\..\..\lvgl\version_6.1.2\lvgl\src\lv_misc/lv_area.c **** {
 383              		.loc 1 152 0
 384              		.cfi_startproc
 385              		@ args = 0, pretend = 0, frame = 0
 386              		@ frame_needed = 0, uses_anonymous_args = 0
 387              		@ link register save eliminated.
 388              	.LVL20:
 153:..\..\..\lvgl\version_6.1.2\lvgl\src\lv_misc/lv_area.c ****     bool is_on = false;
 154:..\..\..\lvgl\version_6.1.2\lvgl\src\lv_misc/lv_area.c **** 
 155:..\..\..\lvgl\version_6.1.2\lvgl\src\lv_misc/lv_area.c ****     if((p_p->x >= a_p->x1 && p_p->x <= a_p->x2) && ((p_p->y >= a_p->y1 && p_p->y <= a_p->y2))) {
 389              		.loc 1 155 0
 390 0000 B0F90020 		ldrsh	r2, [r0]
 391 0004 B1F90030 		ldrsh	r3, [r1]
 392 0008 9A42     		cmp	r2, r3
 393 000a 10DC     		bgt	.L20
 394              		.loc 1 155 0 is_stmt 0 discriminator 1
 395 000c B0F90420 		ldrsh	r2, [r0, #4]
 396 0010 9A42     		cmp	r2, r3
 397 0012 0CDB     		blt	.L20
 398              		.loc 1 155 0 discriminator 2
 399 0014 B1F90220 		ldrsh	r2, [r1, #2]
 400 0018 B0F90230 		ldrsh	r3, [r0, #2]
 401 001c 9342     		cmp	r3, r2
 402 001e 06DC     		bgt	.L20
 403              		.loc 1 155 0 discriminator 3
ARM GAS  C:\Users\pearlstl\AppData\Local\Temp\ccotkl75.s 			page 13


 404 0020 B0F90630 		ldrsh	r3, [r0, #6]
 405 0024 9342     		cmp	r3, r2
 406 0026 B4BF     		ite	lt
 407 0028 0020     		movlt	r0, #0
 408              	.LVL21:
 409 002a 0120     		movge	r0, #1
 410 002c 7047     		bx	lr
 411              	.LVL22:
 412              	.L20:
 153:..\..\..\lvgl\version_6.1.2\lvgl\src\lv_misc/lv_area.c ****     bool is_on = false;
 413              		.loc 1 153 0 is_stmt 1
 414 002e 0020     		movs	r0, #0
 415              	.LVL23:
 156:..\..\..\lvgl\version_6.1.2\lvgl\src\lv_misc/lv_area.c ****         is_on = true;
 157:..\..\..\lvgl\version_6.1.2\lvgl\src\lv_misc/lv_area.c ****     }
 158:..\..\..\lvgl\version_6.1.2\lvgl\src\lv_misc/lv_area.c **** 
 159:..\..\..\lvgl\version_6.1.2\lvgl\src\lv_misc/lv_area.c ****     return is_on;
 160:..\..\..\lvgl\version_6.1.2\lvgl\src\lv_misc/lv_area.c **** }
 416              		.loc 1 160 0
 417 0030 7047     		bx	lr
 418              		.cfi_endproc
 419              	.LFE10:
 420              		.size	lv_area_is_point_on, .-lv_area_is_point_on
 421 0032 00BF     		.section	.text.lv_area_is_on,"ax",%progbits
 422              		.align	2
 423              		.global	lv_area_is_on
 424              		.thumb
 425              		.thumb_func
 426              		.type	lv_area_is_on, %function
 427              	lv_area_is_on:
 428              	.LFB11:
 161:..\..\..\lvgl\version_6.1.2\lvgl\src\lv_misc/lv_area.c **** 
 162:..\..\..\lvgl\version_6.1.2\lvgl\src\lv_misc/lv_area.c **** /**
 163:..\..\..\lvgl\version_6.1.2\lvgl\src\lv_misc/lv_area.c ****  * Check if two area has common parts
 164:..\..\..\lvgl\version_6.1.2\lvgl\src\lv_misc/lv_area.c ****  * @param a1_p pointer to an area.
 165:..\..\..\lvgl\version_6.1.2\lvgl\src\lv_misc/lv_area.c ****  * @param a2_p pointer to an other area
 166:..\..\..\lvgl\version_6.1.2\lvgl\src\lv_misc/lv_area.c ****  * @return false: a1_p and a2_p has no common parts
 167:..\..\..\lvgl\version_6.1.2\lvgl\src\lv_misc/lv_area.c ****  */
 168:..\..\..\lvgl\version_6.1.2\lvgl\src\lv_misc/lv_area.c **** bool lv_area_is_on(const lv_area_t * a1_p, const lv_area_t * a2_p)
 169:..\..\..\lvgl\version_6.1.2\lvgl\src\lv_misc/lv_area.c **** {
 429              		.loc 1 169 0
 430              		.cfi_startproc
 431              		@ args = 0, pretend = 0, frame = 0
 432              		@ frame_needed = 0, uses_anonymous_args = 0
 433              		@ link register save eliminated.
 434              	.LVL24:
 170:..\..\..\lvgl\version_6.1.2\lvgl\src\lv_misc/lv_area.c ****     if((a1_p->x1 <= a2_p->x2) && (a1_p->x2 >= a2_p->x1) && (a1_p->y1 <= a2_p->y2) && (a1_p->y2 >= a
 435              		.loc 1 170 0
 436 0000 B0F90020 		ldrsh	r2, [r0]
 437 0004 B1F90430 		ldrsh	r3, [r1, #4]
 438 0008 9A42     		cmp	r2, r3
 439 000a 14DC     		bgt	.L25
 440              		.loc 1 170 0 is_stmt 0 discriminator 1
 441 000c B0F90420 		ldrsh	r2, [r0, #4]
 442 0010 B1F90030 		ldrsh	r3, [r1]
 443 0014 9A42     		cmp	r2, r3
 444 0016 0EDB     		blt	.L25
ARM GAS  C:\Users\pearlstl\AppData\Local\Temp\ccotkl75.s 			page 14


 445              		.loc 1 170 0 discriminator 2
 446 0018 B0F90220 		ldrsh	r2, [r0, #2]
 447 001c B1F90630 		ldrsh	r3, [r1, #6]
 448 0020 9A42     		cmp	r2, r3
 449 0022 08DC     		bgt	.L25
 450              		.loc 1 170 0 discriminator 3
 451 0024 B0F90630 		ldrsh	r3, [r0, #6]
 452 0028 B1F90200 		ldrsh	r0, [r1, #2]
 453              	.LVL25:
 454 002c 8342     		cmp	r3, r0
 455 002e B4BF     		ite	lt
 456 0030 0020     		movlt	r0, #0
 457 0032 0120     		movge	r0, #1
 458 0034 7047     		bx	lr
 459              	.LVL26:
 460              	.L25:
 171:..\..\..\lvgl\version_6.1.2\lvgl\src\lv_misc/lv_area.c ****         return true;
 172:..\..\..\lvgl\version_6.1.2\lvgl\src\lv_misc/lv_area.c ****     } else {
 173:..\..\..\lvgl\version_6.1.2\lvgl\src\lv_misc/lv_area.c ****         return false;
 461              		.loc 1 173 0 is_stmt 1
 462 0036 0020     		movs	r0, #0
 463              	.LVL27:
 174:..\..\..\lvgl\version_6.1.2\lvgl\src\lv_misc/lv_area.c ****     }
 175:..\..\..\lvgl\version_6.1.2\lvgl\src\lv_misc/lv_area.c **** }
 464              		.loc 1 175 0
 465 0038 7047     		bx	lr
 466              		.cfi_endproc
 467              	.LFE11:
 468              		.size	lv_area_is_on, .-lv_area_is_on
 469 003a 00BF     		.section	.text.lv_area_is_in,"ax",%progbits
 470              		.align	2
 471              		.global	lv_area_is_in
 472              		.thumb
 473              		.thumb_func
 474              		.type	lv_area_is_in, %function
 475              	lv_area_is_in:
 476              	.LFB12:
 176:..\..\..\lvgl\version_6.1.2\lvgl\src\lv_misc/lv_area.c **** 
 177:..\..\..\lvgl\version_6.1.2\lvgl\src\lv_misc/lv_area.c **** /**
 178:..\..\..\lvgl\version_6.1.2\lvgl\src\lv_misc/lv_area.c ****  * Check if an area is fully on an other
 179:..\..\..\lvgl\version_6.1.2\lvgl\src\lv_misc/lv_area.c ****  * @param ain_p pointer to an area which could be in 'aholder_p'
 180:..\..\..\lvgl\version_6.1.2\lvgl\src\lv_misc/lv_area.c ****  * @param aholder pointer to an area which could involve 'ain_p'
 181:..\..\..\lvgl\version_6.1.2\lvgl\src\lv_misc/lv_area.c ****  * @return
 182:..\..\..\lvgl\version_6.1.2\lvgl\src\lv_misc/lv_area.c ****  */
 183:..\..\..\lvgl\version_6.1.2\lvgl\src\lv_misc/lv_area.c **** bool lv_area_is_in(const lv_area_t * ain_p, const lv_area_t * aholder_p)
 184:..\..\..\lvgl\version_6.1.2\lvgl\src\lv_misc/lv_area.c **** {
 477              		.loc 1 184 0
 478              		.cfi_startproc
 479              		@ args = 0, pretend = 0, frame = 0
 480              		@ frame_needed = 0, uses_anonymous_args = 0
 481              		@ link register save eliminated.
 482              	.LVL28:
 185:..\..\..\lvgl\version_6.1.2\lvgl\src\lv_misc/lv_area.c ****     bool is_in = false;
 186:..\..\..\lvgl\version_6.1.2\lvgl\src\lv_misc/lv_area.c **** 
 187:..\..\..\lvgl\version_6.1.2\lvgl\src\lv_misc/lv_area.c ****     if(ain_p->x1 >= aholder_p->x1 && ain_p->y1 >= aholder_p->y1 && ain_p->x2 <= aholder_p->x2 &&
 483              		.loc 1 187 0
 484 0000 B0F90020 		ldrsh	r2, [r0]
ARM GAS  C:\Users\pearlstl\AppData\Local\Temp\ccotkl75.s 			page 15


 485 0004 B1F90030 		ldrsh	r3, [r1]
 486 0008 9A42     		cmp	r2, r3
 487 000a 14DB     		blt	.L30
 488              		.loc 1 187 0 is_stmt 0 discriminator 1
 489 000c B0F90220 		ldrsh	r2, [r0, #2]
 490 0010 B1F90230 		ldrsh	r3, [r1, #2]
 491 0014 9A42     		cmp	r2, r3
 492 0016 0EDB     		blt	.L30
 493              		.loc 1 187 0 discriminator 2
 494 0018 B0F90420 		ldrsh	r2, [r0, #4]
 495 001c B1F90430 		ldrsh	r3, [r1, #4]
 496 0020 9A42     		cmp	r2, r3
 497 0022 08DC     		bgt	.L30
 498              		.loc 1 187 0 discriminator 3
 499 0024 B0F90630 		ldrsh	r3, [r0, #6]
 500 0028 B1F90600 		ldrsh	r0, [r1, #6]
 501              	.LVL29:
 502 002c 8342     		cmp	r3, r0
 503 002e CCBF     		ite	gt
 504 0030 0020     		movgt	r0, #0
 505 0032 0120     		movle	r0, #1
 506 0034 7047     		bx	lr
 507              	.LVL30:
 508              	.L30:
 185:..\..\..\lvgl\version_6.1.2\lvgl\src\lv_misc/lv_area.c ****     bool is_in = false;
 509              		.loc 1 185 0 is_stmt 1
 510 0036 0020     		movs	r0, #0
 511              	.LVL31:
 188:..\..\..\lvgl\version_6.1.2\lvgl\src\lv_misc/lv_area.c ****        ain_p->y2 <= aholder_p->y2) {
 189:..\..\..\lvgl\version_6.1.2\lvgl\src\lv_misc/lv_area.c ****         is_in = true;
 190:..\..\..\lvgl\version_6.1.2\lvgl\src\lv_misc/lv_area.c ****     }
 191:..\..\..\lvgl\version_6.1.2\lvgl\src\lv_misc/lv_area.c **** 
 192:..\..\..\lvgl\version_6.1.2\lvgl\src\lv_misc/lv_area.c ****     return is_in;
 193:..\..\..\lvgl\version_6.1.2\lvgl\src\lv_misc/lv_area.c **** }
 512              		.loc 1 193 0
 513 0038 7047     		bx	lr
 514              		.cfi_endproc
 515              	.LFE12:
 516              		.size	lv_area_is_in, .-lv_area_is_in
 517 003a 00BF     		.section	.text.lv_area_increment,"ax",%progbits
 518              		.align	2
 519              		.global	lv_area_increment
 520              		.thumb
 521              		.thumb_func
 522              		.type	lv_area_increment, %function
 523              	lv_area_increment:
 524              	.LFB13:
 194:..\..\..\lvgl\version_6.1.2\lvgl\src\lv_misc/lv_area.c **** 
 195:..\..\..\lvgl\version_6.1.2\lvgl\src\lv_misc/lv_area.c **** /**
 196:..\..\..\lvgl\version_6.1.2\lvgl\src\lv_misc/lv_area.c ****  * Increment or decrement an area's size by a single amount
 197:..\..\..\lvgl\version_6.1.2\lvgl\src\lv_misc/lv_area.c ****  * @param a_p pointer to an area to grow
 198:..\..\..\lvgl\version_6.1.2\lvgl\src\lv_misc/lv_area.c ****  * @param amount amount to increment the area, or negative to decrement
 199:..\..\..\lvgl\version_6.1.2\lvgl\src\lv_misc/lv_area.c ****  */
 200:..\..\..\lvgl\version_6.1.2\lvgl\src\lv_misc/lv_area.c **** void lv_area_increment(lv_area_t * a_p, const lv_coord_t amount)
 201:..\..\..\lvgl\version_6.1.2\lvgl\src\lv_misc/lv_area.c **** {
 525              		.loc 1 201 0
 526              		.cfi_startproc
ARM GAS  C:\Users\pearlstl\AppData\Local\Temp\ccotkl75.s 			page 16


 527              		@ args = 0, pretend = 0, frame = 0
 528              		@ frame_needed = 0, uses_anonymous_args = 0
 529              		@ link register save eliminated.
 530              	.LVL32:
 531 0000 30B4     		push	{r4, r5}
 532              		.cfi_def_cfa_offset 8
 533              		.cfi_offset 4, -8
 534              		.cfi_offset 5, -4
 202:..\..\..\lvgl\version_6.1.2\lvgl\src\lv_misc/lv_area.c ****     a_p->x1 -= amount;
 203:..\..\..\lvgl\version_6.1.2\lvgl\src\lv_misc/lv_area.c ****     a_p->y1 -= amount;
 204:..\..\..\lvgl\version_6.1.2\lvgl\src\lv_misc/lv_area.c ****     a_p->x2 += amount;
 535              		.loc 1 204 0
 536 0002 8288     		ldrh	r2, [r0, #4]
 202:..\..\..\lvgl\version_6.1.2\lvgl\src\lv_misc/lv_area.c ****     a_p->x1 -= amount;
 537              		.loc 1 202 0
 538 0004 0588     		ldrh	r5, [r0]
 203:..\..\..\lvgl\version_6.1.2\lvgl\src\lv_misc/lv_area.c ****     a_p->x2 += amount;
 539              		.loc 1 203 0
 540 0006 4488     		ldrh	r4, [r0, #2]
 205:..\..\..\lvgl\version_6.1.2\lvgl\src\lv_misc/lv_area.c ****     a_p->y2 += amount;
 541              		.loc 1 205 0
 542 0008 C388     		ldrh	r3, [r0, #6]
 202:..\..\..\lvgl\version_6.1.2\lvgl\src\lv_misc/lv_area.c ****     a_p->x1 -= amount;
 543              		.loc 1 202 0
 544 000a 89B2     		uxth	r1, r1
 545 000c 6D1A     		subs	r5, r5, r1
 203:..\..\..\lvgl\version_6.1.2\lvgl\src\lv_misc/lv_area.c ****     a_p->x2 += amount;
 546              		.loc 1 203 0
 547 000e 641A     		subs	r4, r4, r1
 204:..\..\..\lvgl\version_6.1.2\lvgl\src\lv_misc/lv_area.c ****     a_p->y2 += amount;
 548              		.loc 1 204 0
 549 0010 0A44     		add	r2, r2, r1
 550              		.loc 1 205 0
 551 0012 1944     		add	r1, r1, r3
 552              	.LVL33:
 202:..\..\..\lvgl\version_6.1.2\lvgl\src\lv_misc/lv_area.c ****     a_p->y1 -= amount;
 553              		.loc 1 202 0
 554 0014 0580     		strh	r5, [r0]	@ movhi
 203:..\..\..\lvgl\version_6.1.2\lvgl\src\lv_misc/lv_area.c ****     a_p->x2 += amount;
 555              		.loc 1 203 0
 556 0016 4480     		strh	r4, [r0, #2]	@ movhi
 204:..\..\..\lvgl\version_6.1.2\lvgl\src\lv_misc/lv_area.c ****     a_p->y2 += amount;
 557              		.loc 1 204 0
 558 0018 8280     		strh	r2, [r0, #4]	@ movhi
 559              		.loc 1 205 0
 560 001a C180     		strh	r1, [r0, #6]	@ movhi
 206:..\..\..\lvgl\version_6.1.2\lvgl\src\lv_misc/lv_area.c **** }
 561              		.loc 1 206 0
 562 001c 30BC     		pop	{r4, r5}
 563              		.cfi_restore 5
 564              		.cfi_restore 4
 565              		.cfi_def_cfa_offset 0
 566 001e 7047     		bx	lr
 567              		.cfi_endproc
 568              	.LFE13:
 569              		.size	lv_area_increment, .-lv_area_increment
 570              		.text
ARM GAS  C:\Users\pearlstl\AppData\Local\Temp\ccotkl75.s 			page 17


 571              	.Letext0:
 572              		.file 3 "c:\\program files (x86)\\cypress\\psoc creator\\4.2\\psoc creator\\import\\gnu\\arm\\5.4.
 573              		.file 4 "c:\\program files (x86)\\cypress\\psoc creator\\4.2\\psoc creator\\import\\gnu\\arm\\5.4.
 574              		.file 5 "..\\..\\..\\lvgl\\version_6.1.2\\lvgl\\src\\lv_misc\\../../../lv_conf.h"