ARM GAS  C:\Users\pearlstl\AppData\Local\Temp\ccbEAAPX.s 			page 1


   1              		.syntax unified
   2              		.cpu cortex-m4
   3              		.eabi_attribute 27, 1
   4              		.fpu fpv4-sp-d16
   5              		.eabi_attribute 20, 1
   6              		.eabi_attribute 21, 1
   7              		.eabi_attribute 23, 3
   8              		.eabi_attribute 24, 1
   9              		.eabi_attribute 25, 1
  10              		.eabi_attribute 26, 1
  11              		.eabi_attribute 30, 2
  12              		.eabi_attribute 34, 1
  13              		.eabi_attribute 18, 4
  14              		.thumb
  15              		.syntax unified
  16              		.file	"lv_btn.c"
  17              		.text
  18              	.Ltext0:
  19              		.cfi_sections	.debug_frame
  20              		.section	.text.lv_btn_design,"ax",%progbits
  21              		.align	2
  22              		.thumb
  23              		.thumb_func
  24              		.type	lv_btn_design, %function
  25              	lv_btn_design:
  26              	.LFB58:
  27              		.file 1 "..\\..\\..\\lvgl\\version_6.1.2\\lvgl\\src\\lv_objx\\lv_btn.c"
   1:..\..\..\lvgl\version_6.1.2\lvgl\src\lv_objx/lv_btn.c **** /**
   2:..\..\..\lvgl\version_6.1.2\lvgl\src\lv_objx/lv_btn.c ****  * @file lv_btn.c
   3:..\..\..\lvgl\version_6.1.2\lvgl\src\lv_objx/lv_btn.c ****  *
   4:..\..\..\lvgl\version_6.1.2\lvgl\src\lv_objx/lv_btn.c ****  */
   5:..\..\..\lvgl\version_6.1.2\lvgl\src\lv_objx/lv_btn.c **** 
   6:..\..\..\lvgl\version_6.1.2\lvgl\src\lv_objx/lv_btn.c **** /*********************
   7:..\..\..\lvgl\version_6.1.2\lvgl\src\lv_objx/lv_btn.c ****  *      INCLUDES
   8:..\..\..\lvgl\version_6.1.2\lvgl\src\lv_objx/lv_btn.c ****  *********************/
   9:..\..\..\lvgl\version_6.1.2\lvgl\src\lv_objx/lv_btn.c **** 
  10:..\..\..\lvgl\version_6.1.2\lvgl\src\lv_objx/lv_btn.c **** #include "lv_btn.h"
  11:..\..\..\lvgl\version_6.1.2\lvgl\src\lv_objx/lv_btn.c **** #if LV_USE_BTN != 0
  12:..\..\..\lvgl\version_6.1.2\lvgl\src\lv_objx/lv_btn.c **** 
  13:..\..\..\lvgl\version_6.1.2\lvgl\src\lv_objx/lv_btn.c **** #include <string.h>
  14:..\..\..\lvgl\version_6.1.2\lvgl\src\lv_objx/lv_btn.c **** #include "../lv_core/lv_group.h"
  15:..\..\..\lvgl\version_6.1.2\lvgl\src\lv_objx/lv_btn.c **** #include "../lv_core/lv_debug.h"
  16:..\..\..\lvgl\version_6.1.2\lvgl\src\lv_objx/lv_btn.c **** #include "../lv_draw/lv_draw.h"
  17:..\..\..\lvgl\version_6.1.2\lvgl\src\lv_objx/lv_btn.c **** #include "../lv_themes/lv_theme.h"
  18:..\..\..\lvgl\version_6.1.2\lvgl\src\lv_objx/lv_btn.c **** #include "../lv_misc/lv_area.h"
  19:..\..\..\lvgl\version_6.1.2\lvgl\src\lv_objx/lv_btn.c **** #include "../lv_misc/lv_color.h"
  20:..\..\..\lvgl\version_6.1.2\lvgl\src\lv_objx/lv_btn.c **** #include "../lv_misc/lv_math.h"
  21:..\..\..\lvgl\version_6.1.2\lvgl\src\lv_objx/lv_btn.c **** 
  22:..\..\..\lvgl\version_6.1.2\lvgl\src\lv_objx/lv_btn.c **** /*********************
  23:..\..\..\lvgl\version_6.1.2\lvgl\src\lv_objx/lv_btn.c ****  *      DEFINES
  24:..\..\..\lvgl\version_6.1.2\lvgl\src\lv_objx/lv_btn.c ****  *********************/
  25:..\..\..\lvgl\version_6.1.2\lvgl\src\lv_objx/lv_btn.c **** #define LV_OBJX_NAME "lv_btn"
  26:..\..\..\lvgl\version_6.1.2\lvgl\src\lv_objx/lv_btn.c **** #define LV_BTN_INK_VALUE_MAX 256
  27:..\..\..\lvgl\version_6.1.2\lvgl\src\lv_objx/lv_btn.c **** #define LV_BTN_INK_VALUE_MAX_SHIFT 8
  28:..\..\..\lvgl\version_6.1.2\lvgl\src\lv_objx/lv_btn.c **** 
  29:..\..\..\lvgl\version_6.1.2\lvgl\src\lv_objx/lv_btn.c **** /**********************
  30:..\..\..\lvgl\version_6.1.2\lvgl\src\lv_objx/lv_btn.c ****  *      TYPEDEFS
ARM GAS  C:\Users\pearlstl\AppData\Local\Temp\ccbEAAPX.s 			page 2


  31:..\..\..\lvgl\version_6.1.2\lvgl\src\lv_objx/lv_btn.c ****  **********************/
  32:..\..\..\lvgl\version_6.1.2\lvgl\src\lv_objx/lv_btn.c **** 
  33:..\..\..\lvgl\version_6.1.2\lvgl\src\lv_objx/lv_btn.c **** /**********************
  34:..\..\..\lvgl\version_6.1.2\lvgl\src\lv_objx/lv_btn.c ****  *  STATIC PROTOTYPES
  35:..\..\..\lvgl\version_6.1.2\lvgl\src\lv_objx/lv_btn.c ****  **********************/
  36:..\..\..\lvgl\version_6.1.2\lvgl\src\lv_objx/lv_btn.c **** static bool lv_btn_design(lv_obj_t * btn, const lv_area_t * mask, lv_design_mode_t mode);
  37:..\..\..\lvgl\version_6.1.2\lvgl\src\lv_objx/lv_btn.c **** static lv_res_t lv_btn_signal(lv_obj_t * btn, lv_signal_t sign, void * param);
  38:..\..\..\lvgl\version_6.1.2\lvgl\src\lv_objx/lv_btn.c **** 
  39:..\..\..\lvgl\version_6.1.2\lvgl\src\lv_objx/lv_btn.c **** #if LV_USE_ANIMATION && LV_BTN_INK_EFFECT
  40:..\..\..\lvgl\version_6.1.2\lvgl\src\lv_objx/lv_btn.c **** static void lv_btn_ink_effect_anim(lv_obj_t * btn, lv_anim_value_t val);
  41:..\..\..\lvgl\version_6.1.2\lvgl\src\lv_objx/lv_btn.c **** static void lv_btn_ink_effect_anim_ready(lv_anim_t * a);
  42:..\..\..\lvgl\version_6.1.2\lvgl\src\lv_objx/lv_btn.c **** #endif
  43:..\..\..\lvgl\version_6.1.2\lvgl\src\lv_objx/lv_btn.c **** 
  44:..\..\..\lvgl\version_6.1.2\lvgl\src\lv_objx/lv_btn.c **** /**********************
  45:..\..\..\lvgl\version_6.1.2\lvgl\src\lv_objx/lv_btn.c ****  *  STATIC VARIABLES
  46:..\..\..\lvgl\version_6.1.2\lvgl\src\lv_objx/lv_btn.c ****  **********************/
  47:..\..\..\lvgl\version_6.1.2\lvgl\src\lv_objx/lv_btn.c **** static lv_signal_cb_t ancestor_signal;
  48:..\..\..\lvgl\version_6.1.2\lvgl\src\lv_objx/lv_btn.c **** static lv_design_cb_t ancestor_design;
  49:..\..\..\lvgl\version_6.1.2\lvgl\src\lv_objx/lv_btn.c **** 
  50:..\..\..\lvgl\version_6.1.2\lvgl\src\lv_objx/lv_btn.c **** #if LV_USE_ANIMATION && LV_BTN_INK_EFFECT
  51:..\..\..\lvgl\version_6.1.2\lvgl\src\lv_objx/lv_btn.c **** static lv_coord_t ink_act_value;
  52:..\..\..\lvgl\version_6.1.2\lvgl\src\lv_objx/lv_btn.c **** static lv_obj_t * ink_obj;
  53:..\..\..\lvgl\version_6.1.2\lvgl\src\lv_objx/lv_btn.c **** static lv_btn_state_t ink_bg_state;
  54:..\..\..\lvgl\version_6.1.2\lvgl\src\lv_objx/lv_btn.c **** static lv_btn_state_t ink_top_state;
  55:..\..\..\lvgl\version_6.1.2\lvgl\src\lv_objx/lv_btn.c **** static bool ink_ready;
  56:..\..\..\lvgl\version_6.1.2\lvgl\src\lv_objx/lv_btn.c **** static bool ink_playback;
  57:..\..\..\lvgl\version_6.1.2\lvgl\src\lv_objx/lv_btn.c **** static lv_point_t ink_point;
  58:..\..\..\lvgl\version_6.1.2\lvgl\src\lv_objx/lv_btn.c **** #endif
  59:..\..\..\lvgl\version_6.1.2\lvgl\src\lv_objx/lv_btn.c **** 
  60:..\..\..\lvgl\version_6.1.2\lvgl\src\lv_objx/lv_btn.c **** /**********************
  61:..\..\..\lvgl\version_6.1.2\lvgl\src\lv_objx/lv_btn.c ****  *      MACROS
  62:..\..\..\lvgl\version_6.1.2\lvgl\src\lv_objx/lv_btn.c ****  **********************/
  63:..\..\..\lvgl\version_6.1.2\lvgl\src\lv_objx/lv_btn.c **** 
  64:..\..\..\lvgl\version_6.1.2\lvgl\src\lv_objx/lv_btn.c **** /**********************
  65:..\..\..\lvgl\version_6.1.2\lvgl\src\lv_objx/lv_btn.c ****  *   GLOBAL FUNCTIONS
  66:..\..\..\lvgl\version_6.1.2\lvgl\src\lv_objx/lv_btn.c ****  **********************/
  67:..\..\..\lvgl\version_6.1.2\lvgl\src\lv_objx/lv_btn.c **** 
  68:..\..\..\lvgl\version_6.1.2\lvgl\src\lv_objx/lv_btn.c **** /**
  69:..\..\..\lvgl\version_6.1.2\lvgl\src\lv_objx/lv_btn.c ****  * Create a button object
  70:..\..\..\lvgl\version_6.1.2\lvgl\src\lv_objx/lv_btn.c ****  * @param par pointer to an object, it will be the parent of the new button
  71:..\..\..\lvgl\version_6.1.2\lvgl\src\lv_objx/lv_btn.c ****  * @param copy pointer to a button object, if not NULL then the new object will be copied from it
  72:..\..\..\lvgl\version_6.1.2\lvgl\src\lv_objx/lv_btn.c ****  * @return pointer to the created button
  73:..\..\..\lvgl\version_6.1.2\lvgl\src\lv_objx/lv_btn.c ****  */
  74:..\..\..\lvgl\version_6.1.2\lvgl\src\lv_objx/lv_btn.c **** lv_obj_t * lv_btn_create(lv_obj_t * par, const lv_obj_t * copy)
  75:..\..\..\lvgl\version_6.1.2\lvgl\src\lv_objx/lv_btn.c **** {
  76:..\..\..\lvgl\version_6.1.2\lvgl\src\lv_objx/lv_btn.c ****     LV_LOG_TRACE("button create started");
  77:..\..\..\lvgl\version_6.1.2\lvgl\src\lv_objx/lv_btn.c **** 
  78:..\..\..\lvgl\version_6.1.2\lvgl\src\lv_objx/lv_btn.c ****     lv_obj_t * new_btn;
  79:..\..\..\lvgl\version_6.1.2\lvgl\src\lv_objx/lv_btn.c **** 
  80:..\..\..\lvgl\version_6.1.2\lvgl\src\lv_objx/lv_btn.c ****     new_btn = lv_cont_create(par, copy);
  81:..\..\..\lvgl\version_6.1.2\lvgl\src\lv_objx/lv_btn.c ****     LV_ASSERT_MEM(new_btn);
  82:..\..\..\lvgl\version_6.1.2\lvgl\src\lv_objx/lv_btn.c ****     if(new_btn == NULL) return NULL;
  83:..\..\..\lvgl\version_6.1.2\lvgl\src\lv_objx/lv_btn.c **** 
  84:..\..\..\lvgl\version_6.1.2\lvgl\src\lv_objx/lv_btn.c ****     if(ancestor_signal == NULL) ancestor_signal = lv_obj_get_signal_cb(new_btn);
  85:..\..\..\lvgl\version_6.1.2\lvgl\src\lv_objx/lv_btn.c ****     if(ancestor_design == NULL) ancestor_design = lv_obj_get_design_cb(new_btn);
  86:..\..\..\lvgl\version_6.1.2\lvgl\src\lv_objx/lv_btn.c **** 
  87:..\..\..\lvgl\version_6.1.2\lvgl\src\lv_objx/lv_btn.c ****     /*Allocate the extended data*/
ARM GAS  C:\Users\pearlstl\AppData\Local\Temp\ccbEAAPX.s 			page 3


  88:..\..\..\lvgl\version_6.1.2\lvgl\src\lv_objx/lv_btn.c ****     lv_btn_ext_t * ext = lv_obj_allocate_ext_attr(new_btn, sizeof(lv_btn_ext_t));
  89:..\..\..\lvgl\version_6.1.2\lvgl\src\lv_objx/lv_btn.c ****     LV_ASSERT_MEM(ext);
  90:..\..\..\lvgl\version_6.1.2\lvgl\src\lv_objx/lv_btn.c ****     if(ext == NULL) return NULL;
  91:..\..\..\lvgl\version_6.1.2\lvgl\src\lv_objx/lv_btn.c **** 
  92:..\..\..\lvgl\version_6.1.2\lvgl\src\lv_objx/lv_btn.c ****     ext->state = LV_BTN_STATE_REL;
  93:..\..\..\lvgl\version_6.1.2\lvgl\src\lv_objx/lv_btn.c **** 
  94:..\..\..\lvgl\version_6.1.2\lvgl\src\lv_objx/lv_btn.c ****     ext->styles[LV_BTN_STATE_REL]     = &lv_style_btn_rel;
  95:..\..\..\lvgl\version_6.1.2\lvgl\src\lv_objx/lv_btn.c ****     ext->styles[LV_BTN_STATE_PR]      = &lv_style_btn_pr;
  96:..\..\..\lvgl\version_6.1.2\lvgl\src\lv_objx/lv_btn.c ****     ext->styles[LV_BTN_STATE_TGL_REL] = &lv_style_btn_tgl_rel;
  97:..\..\..\lvgl\version_6.1.2\lvgl\src\lv_objx/lv_btn.c ****     ext->styles[LV_BTN_STATE_TGL_PR]  = &lv_style_btn_tgl_pr;
  98:..\..\..\lvgl\version_6.1.2\lvgl\src\lv_objx/lv_btn.c ****     ext->styles[LV_BTN_STATE_INA]     = &lv_style_btn_ina;
  99:..\..\..\lvgl\version_6.1.2\lvgl\src\lv_objx/lv_btn.c **** 
 100:..\..\..\lvgl\version_6.1.2\lvgl\src\lv_objx/lv_btn.c ****     ext->toggle = 0;
 101:..\..\..\lvgl\version_6.1.2\lvgl\src\lv_objx/lv_btn.c **** #if LV_USE_ANIMATION && LV_BTN_INK_EFFECT
 102:..\..\..\lvgl\version_6.1.2\lvgl\src\lv_objx/lv_btn.c ****     ext->ink_in_time   = 0;
 103:..\..\..\lvgl\version_6.1.2\lvgl\src\lv_objx/lv_btn.c ****     ext->ink_wait_time = 0;
 104:..\..\..\lvgl\version_6.1.2\lvgl\src\lv_objx/lv_btn.c ****     ext->ink_out_time  = 0;
 105:..\..\..\lvgl\version_6.1.2\lvgl\src\lv_objx/lv_btn.c **** #endif
 106:..\..\..\lvgl\version_6.1.2\lvgl\src\lv_objx/lv_btn.c **** 
 107:..\..\..\lvgl\version_6.1.2\lvgl\src\lv_objx/lv_btn.c ****     lv_obj_set_signal_cb(new_btn, lv_btn_signal);
 108:..\..\..\lvgl\version_6.1.2\lvgl\src\lv_objx/lv_btn.c ****     lv_obj_set_design_cb(new_btn, lv_btn_design);
 109:..\..\..\lvgl\version_6.1.2\lvgl\src\lv_objx/lv_btn.c **** 
 110:..\..\..\lvgl\version_6.1.2\lvgl\src\lv_objx/lv_btn.c ****     /*If no copy do the basic initialization*/
 111:..\..\..\lvgl\version_6.1.2\lvgl\src\lv_objx/lv_btn.c ****     if(copy == NULL) {
 112:..\..\..\lvgl\version_6.1.2\lvgl\src\lv_objx/lv_btn.c ****         /*Set layout if the button is not a screen*/
 113:..\..\..\lvgl\version_6.1.2\lvgl\src\lv_objx/lv_btn.c ****         if(par != NULL) {
 114:..\..\..\lvgl\version_6.1.2\lvgl\src\lv_objx/lv_btn.c ****             lv_btn_set_layout(new_btn, LV_LAYOUT_CENTER);
 115:..\..\..\lvgl\version_6.1.2\lvgl\src\lv_objx/lv_btn.c ****         }
 116:..\..\..\lvgl\version_6.1.2\lvgl\src\lv_objx/lv_btn.c **** 
 117:..\..\..\lvgl\version_6.1.2\lvgl\src\lv_objx/lv_btn.c ****         lv_obj_set_click(new_btn, true); /*Be sure the button is clickable*/
 118:..\..\..\lvgl\version_6.1.2\lvgl\src\lv_objx/lv_btn.c **** 
 119:..\..\..\lvgl\version_6.1.2\lvgl\src\lv_objx/lv_btn.c ****         /*Set the default styles*/
 120:..\..\..\lvgl\version_6.1.2\lvgl\src\lv_objx/lv_btn.c ****         lv_theme_t * th = lv_theme_get_current();
 121:..\..\..\lvgl\version_6.1.2\lvgl\src\lv_objx/lv_btn.c ****         if(th) {
 122:..\..\..\lvgl\version_6.1.2\lvgl\src\lv_objx/lv_btn.c ****             lv_btn_set_style(new_btn, LV_BTN_STYLE_REL, th->style.btn.rel);
 123:..\..\..\lvgl\version_6.1.2\lvgl\src\lv_objx/lv_btn.c ****             lv_btn_set_style(new_btn, LV_BTN_STYLE_PR, th->style.btn.pr);
 124:..\..\..\lvgl\version_6.1.2\lvgl\src\lv_objx/lv_btn.c ****             lv_btn_set_style(new_btn, LV_BTN_STYLE_TGL_REL, th->style.btn.tgl_rel);
 125:..\..\..\lvgl\version_6.1.2\lvgl\src\lv_objx/lv_btn.c ****             lv_btn_set_style(new_btn, LV_BTN_STYLE_TGL_PR, th->style.btn.tgl_pr);
 126:..\..\..\lvgl\version_6.1.2\lvgl\src\lv_objx/lv_btn.c ****             lv_btn_set_style(new_btn, LV_BTN_STYLE_INA, th->style.btn.ina);
 127:..\..\..\lvgl\version_6.1.2\lvgl\src\lv_objx/lv_btn.c ****         } else {
 128:..\..\..\lvgl\version_6.1.2\lvgl\src\lv_objx/lv_btn.c ****             lv_obj_set_style(new_btn, ext->styles[LV_BTN_STATE_REL]);
 129:..\..\..\lvgl\version_6.1.2\lvgl\src\lv_objx/lv_btn.c ****         }
 130:..\..\..\lvgl\version_6.1.2\lvgl\src\lv_objx/lv_btn.c ****     }
 131:..\..\..\lvgl\version_6.1.2\lvgl\src\lv_objx/lv_btn.c ****     /*Copy 'copy'*/
 132:..\..\..\lvgl\version_6.1.2\lvgl\src\lv_objx/lv_btn.c ****     else {
 133:..\..\..\lvgl\version_6.1.2\lvgl\src\lv_objx/lv_btn.c ****         lv_btn_ext_t * copy_ext = lv_obj_get_ext_attr(copy);
 134:..\..\..\lvgl\version_6.1.2\lvgl\src\lv_objx/lv_btn.c ****         ext->state              = copy_ext->state;
 135:..\..\..\lvgl\version_6.1.2\lvgl\src\lv_objx/lv_btn.c ****         ext->toggle             = copy_ext->toggle;
 136:..\..\..\lvgl\version_6.1.2\lvgl\src\lv_objx/lv_btn.c **** #if LV_USE_ANIMATION && LV_BTN_INK_EFFECT
 137:..\..\..\lvgl\version_6.1.2\lvgl\src\lv_objx/lv_btn.c ****         ext->ink_in_time   = copy_ext->ink_in_time;
 138:..\..\..\lvgl\version_6.1.2\lvgl\src\lv_objx/lv_btn.c ****         ext->ink_wait_time = copy_ext->ink_wait_time;
 139:..\..\..\lvgl\version_6.1.2\lvgl\src\lv_objx/lv_btn.c ****         ext->ink_out_time  = copy_ext->ink_out_time;
 140:..\..\..\lvgl\version_6.1.2\lvgl\src\lv_objx/lv_btn.c **** #endif
 141:..\..\..\lvgl\version_6.1.2\lvgl\src\lv_objx/lv_btn.c ****         memcpy((void*) ext->styles, copy_ext->styles, sizeof(ext->styles));
 142:..\..\..\lvgl\version_6.1.2\lvgl\src\lv_objx/lv_btn.c **** 
 143:..\..\..\lvgl\version_6.1.2\lvgl\src\lv_objx/lv_btn.c ****         /*Refresh the style with new signal function*/
 144:..\..\..\lvgl\version_6.1.2\lvgl\src\lv_objx/lv_btn.c ****         lv_obj_refresh_style(new_btn);
ARM GAS  C:\Users\pearlstl\AppData\Local\Temp\ccbEAAPX.s 			page 4


 145:..\..\..\lvgl\version_6.1.2\lvgl\src\lv_objx/lv_btn.c ****     }
 146:..\..\..\lvgl\version_6.1.2\lvgl\src\lv_objx/lv_btn.c **** 
 147:..\..\..\lvgl\version_6.1.2\lvgl\src\lv_objx/lv_btn.c ****     LV_LOG_INFO("button created");
 148:..\..\..\lvgl\version_6.1.2\lvgl\src\lv_objx/lv_btn.c **** 
 149:..\..\..\lvgl\version_6.1.2\lvgl\src\lv_objx/lv_btn.c ****     return new_btn;
 150:..\..\..\lvgl\version_6.1.2\lvgl\src\lv_objx/lv_btn.c **** }
 151:..\..\..\lvgl\version_6.1.2\lvgl\src\lv_objx/lv_btn.c **** 
 152:..\..\..\lvgl\version_6.1.2\lvgl\src\lv_objx/lv_btn.c **** /*=====================
 153:..\..\..\lvgl\version_6.1.2\lvgl\src\lv_objx/lv_btn.c ****  * Setter functions
 154:..\..\..\lvgl\version_6.1.2\lvgl\src\lv_objx/lv_btn.c ****  *====================*/
 155:..\..\..\lvgl\version_6.1.2\lvgl\src\lv_objx/lv_btn.c **** 
 156:..\..\..\lvgl\version_6.1.2\lvgl\src\lv_objx/lv_btn.c **** /**
 157:..\..\..\lvgl\version_6.1.2\lvgl\src\lv_objx/lv_btn.c ****  * Enable the toggled states
 158:..\..\..\lvgl\version_6.1.2\lvgl\src\lv_objx/lv_btn.c ****  * @param btn pointer to a button object
 159:..\..\..\lvgl\version_6.1.2\lvgl\src\lv_objx/lv_btn.c ****  * @param tgl true: enable toggled states, false: disable
 160:..\..\..\lvgl\version_6.1.2\lvgl\src\lv_objx/lv_btn.c ****  */
 161:..\..\..\lvgl\version_6.1.2\lvgl\src\lv_objx/lv_btn.c **** void lv_btn_set_toggle(lv_obj_t * btn, bool tgl)
 162:..\..\..\lvgl\version_6.1.2\lvgl\src\lv_objx/lv_btn.c **** {
 163:..\..\..\lvgl\version_6.1.2\lvgl\src\lv_objx/lv_btn.c ****     LV_ASSERT_OBJ(btn, LV_OBJX_NAME);
 164:..\..\..\lvgl\version_6.1.2\lvgl\src\lv_objx/lv_btn.c **** 
 165:..\..\..\lvgl\version_6.1.2\lvgl\src\lv_objx/lv_btn.c ****     lv_btn_ext_t * ext = lv_obj_get_ext_attr(btn);
 166:..\..\..\lvgl\version_6.1.2\lvgl\src\lv_objx/lv_btn.c **** 
 167:..\..\..\lvgl\version_6.1.2\lvgl\src\lv_objx/lv_btn.c ****     ext->toggle = tgl != false ? 1 : 0;
 168:..\..\..\lvgl\version_6.1.2\lvgl\src\lv_objx/lv_btn.c **** }
 169:..\..\..\lvgl\version_6.1.2\lvgl\src\lv_objx/lv_btn.c **** 
 170:..\..\..\lvgl\version_6.1.2\lvgl\src\lv_objx/lv_btn.c **** /**
 171:..\..\..\lvgl\version_6.1.2\lvgl\src\lv_objx/lv_btn.c ****  * Set the state of the button
 172:..\..\..\lvgl\version_6.1.2\lvgl\src\lv_objx/lv_btn.c ****  * @param btn pointer to a button object
 173:..\..\..\lvgl\version_6.1.2\lvgl\src\lv_objx/lv_btn.c ****  * @param state the new state of the button (from lv_btn_state_t enum)
 174:..\..\..\lvgl\version_6.1.2\lvgl\src\lv_objx/lv_btn.c ****  */
 175:..\..\..\lvgl\version_6.1.2\lvgl\src\lv_objx/lv_btn.c **** void lv_btn_set_state(lv_obj_t * btn, lv_btn_state_t state)
 176:..\..\..\lvgl\version_6.1.2\lvgl\src\lv_objx/lv_btn.c **** {
 177:..\..\..\lvgl\version_6.1.2\lvgl\src\lv_objx/lv_btn.c ****     LV_ASSERT_OBJ(btn, LV_OBJX_NAME);
 178:..\..\..\lvgl\version_6.1.2\lvgl\src\lv_objx/lv_btn.c **** 
 179:..\..\..\lvgl\version_6.1.2\lvgl\src\lv_objx/lv_btn.c ****     lv_btn_ext_t * ext = lv_obj_get_ext_attr(btn);
 180:..\..\..\lvgl\version_6.1.2\lvgl\src\lv_objx/lv_btn.c ****     if(ext->state != state) {
 181:..\..\..\lvgl\version_6.1.2\lvgl\src\lv_objx/lv_btn.c ****         ext->state = state;
 182:..\..\..\lvgl\version_6.1.2\lvgl\src\lv_objx/lv_btn.c ****         lv_obj_set_style(btn, ext->styles[state]);
 183:..\..\..\lvgl\version_6.1.2\lvgl\src\lv_objx/lv_btn.c ****     }
 184:..\..\..\lvgl\version_6.1.2\lvgl\src\lv_objx/lv_btn.c **** }
 185:..\..\..\lvgl\version_6.1.2\lvgl\src\lv_objx/lv_btn.c **** 
 186:..\..\..\lvgl\version_6.1.2\lvgl\src\lv_objx/lv_btn.c **** /**
 187:..\..\..\lvgl\version_6.1.2\lvgl\src\lv_objx/lv_btn.c ****  * Toggle the state of the button (ON->OFF, OFF->ON)
 188:..\..\..\lvgl\version_6.1.2\lvgl\src\lv_objx/lv_btn.c ****  * @param btn pointer to a button object
 189:..\..\..\lvgl\version_6.1.2\lvgl\src\lv_objx/lv_btn.c ****  */
 190:..\..\..\lvgl\version_6.1.2\lvgl\src\lv_objx/lv_btn.c **** void lv_btn_toggle(lv_obj_t * btn)
 191:..\..\..\lvgl\version_6.1.2\lvgl\src\lv_objx/lv_btn.c **** {
 192:..\..\..\lvgl\version_6.1.2\lvgl\src\lv_objx/lv_btn.c ****     LV_ASSERT_OBJ(btn, LV_OBJX_NAME);
 193:..\..\..\lvgl\version_6.1.2\lvgl\src\lv_objx/lv_btn.c **** 
 194:..\..\..\lvgl\version_6.1.2\lvgl\src\lv_objx/lv_btn.c ****     lv_btn_ext_t * ext = lv_obj_get_ext_attr(btn);
 195:..\..\..\lvgl\version_6.1.2\lvgl\src\lv_objx/lv_btn.c ****     switch(ext->state) {
 196:..\..\..\lvgl\version_6.1.2\lvgl\src\lv_objx/lv_btn.c ****         case LV_BTN_STATE_REL: lv_btn_set_state(btn, LV_BTN_STATE_TGL_REL); break;
 197:..\..\..\lvgl\version_6.1.2\lvgl\src\lv_objx/lv_btn.c ****         case LV_BTN_STATE_PR: lv_btn_set_state(btn, LV_BTN_STATE_TGL_PR); break;
 198:..\..\..\lvgl\version_6.1.2\lvgl\src\lv_objx/lv_btn.c ****         case LV_BTN_STATE_TGL_REL: lv_btn_set_state(btn, LV_BTN_STATE_REL); break;
 199:..\..\..\lvgl\version_6.1.2\lvgl\src\lv_objx/lv_btn.c ****         case LV_BTN_STATE_TGL_PR: lv_btn_set_state(btn, LV_BTN_STATE_PR); break;
 200:..\..\..\lvgl\version_6.1.2\lvgl\src\lv_objx/lv_btn.c ****         default: break;
 201:..\..\..\lvgl\version_6.1.2\lvgl\src\lv_objx/lv_btn.c ****     }
ARM GAS  C:\Users\pearlstl\AppData\Local\Temp\ccbEAAPX.s 			page 5


 202:..\..\..\lvgl\version_6.1.2\lvgl\src\lv_objx/lv_btn.c **** }
 203:..\..\..\lvgl\version_6.1.2\lvgl\src\lv_objx/lv_btn.c **** 
 204:..\..\..\lvgl\version_6.1.2\lvgl\src\lv_objx/lv_btn.c **** /**
 205:..\..\..\lvgl\version_6.1.2\lvgl\src\lv_objx/lv_btn.c ****  * Set time of the ink effect (draw a circle on click to animate in the new state)
 206:..\..\..\lvgl\version_6.1.2\lvgl\src\lv_objx/lv_btn.c ****  * @param btn pointer to a button object
 207:..\..\..\lvgl\version_6.1.2\lvgl\src\lv_objx/lv_btn.c ****  * @param time the time of the ink animation
 208:..\..\..\lvgl\version_6.1.2\lvgl\src\lv_objx/lv_btn.c ****  */
 209:..\..\..\lvgl\version_6.1.2\lvgl\src\lv_objx/lv_btn.c **** void lv_btn_set_ink_in_time(lv_obj_t * btn, uint16_t time)
 210:..\..\..\lvgl\version_6.1.2\lvgl\src\lv_objx/lv_btn.c **** {
 211:..\..\..\lvgl\version_6.1.2\lvgl\src\lv_objx/lv_btn.c ****     LV_ASSERT_OBJ(btn, LV_OBJX_NAME);
 212:..\..\..\lvgl\version_6.1.2\lvgl\src\lv_objx/lv_btn.c **** 
 213:..\..\..\lvgl\version_6.1.2\lvgl\src\lv_objx/lv_btn.c **** #if LV_USE_ANIMATION && LV_BTN_INK_EFFECT
 214:..\..\..\lvgl\version_6.1.2\lvgl\src\lv_objx/lv_btn.c ****     lv_btn_ext_t * ext = lv_obj_get_ext_attr(btn);
 215:..\..\..\lvgl\version_6.1.2\lvgl\src\lv_objx/lv_btn.c ****     ext->ink_in_time   = time;
 216:..\..\..\lvgl\version_6.1.2\lvgl\src\lv_objx/lv_btn.c **** #else
 217:..\..\..\lvgl\version_6.1.2\lvgl\src\lv_objx/lv_btn.c ****     (void)btn;  /*Unused*/
 218:..\..\..\lvgl\version_6.1.2\lvgl\src\lv_objx/lv_btn.c ****     (void)time; /*Unused*/
 219:..\..\..\lvgl\version_6.1.2\lvgl\src\lv_objx/lv_btn.c ****     LV_LOG_WARN("`lv_btn_set_ink_ink_time` has no effect if LV_BTN_INK_EFEFCT or LV_USE_ANIMATION "
 220:..\..\..\lvgl\version_6.1.2\lvgl\src\lv_objx/lv_btn.c ****                 "is disabled")
 221:..\..\..\lvgl\version_6.1.2\lvgl\src\lv_objx/lv_btn.c **** #endif
 222:..\..\..\lvgl\version_6.1.2\lvgl\src\lv_objx/lv_btn.c **** }
 223:..\..\..\lvgl\version_6.1.2\lvgl\src\lv_objx/lv_btn.c **** 
 224:..\..\..\lvgl\version_6.1.2\lvgl\src\lv_objx/lv_btn.c **** /**
 225:..\..\..\lvgl\version_6.1.2\lvgl\src\lv_objx/lv_btn.c ****  * Set the wait time before the ink disappears
 226:..\..\..\lvgl\version_6.1.2\lvgl\src\lv_objx/lv_btn.c ****  * @param btn pointer to a button object
 227:..\..\..\lvgl\version_6.1.2\lvgl\src\lv_objx/lv_btn.c ****  * @param time the time of the ink animation
 228:..\..\..\lvgl\version_6.1.2\lvgl\src\lv_objx/lv_btn.c ****  */
 229:..\..\..\lvgl\version_6.1.2\lvgl\src\lv_objx/lv_btn.c **** void lv_btn_set_ink_wait_time(lv_obj_t * btn, uint16_t time)
 230:..\..\..\lvgl\version_6.1.2\lvgl\src\lv_objx/lv_btn.c **** {
 231:..\..\..\lvgl\version_6.1.2\lvgl\src\lv_objx/lv_btn.c ****     LV_ASSERT_OBJ(btn, LV_OBJX_NAME);
 232:..\..\..\lvgl\version_6.1.2\lvgl\src\lv_objx/lv_btn.c **** 
 233:..\..\..\lvgl\version_6.1.2\lvgl\src\lv_objx/lv_btn.c **** 
 234:..\..\..\lvgl\version_6.1.2\lvgl\src\lv_objx/lv_btn.c **** #if LV_USE_ANIMATION && LV_BTN_INK_EFFECT
 235:..\..\..\lvgl\version_6.1.2\lvgl\src\lv_objx/lv_btn.c ****     lv_btn_ext_t * ext = lv_obj_get_ext_attr(btn);
 236:..\..\..\lvgl\version_6.1.2\lvgl\src\lv_objx/lv_btn.c ****     ext->ink_wait_time = time;
 237:..\..\..\lvgl\version_6.1.2\lvgl\src\lv_objx/lv_btn.c **** #else
 238:..\..\..\lvgl\version_6.1.2\lvgl\src\lv_objx/lv_btn.c ****     (void)btn;  /*Unused*/
 239:..\..\..\lvgl\version_6.1.2\lvgl\src\lv_objx/lv_btn.c ****     (void)time; /*Unused*/
 240:..\..\..\lvgl\version_6.1.2\lvgl\src\lv_objx/lv_btn.c ****     LV_LOG_WARN("`lv_btn_set_ink_wait_time` has no effect if LV_BTN_INK_EFEFCT or LV_USE_ANIMATION 
 241:..\..\..\lvgl\version_6.1.2\lvgl\src\lv_objx/lv_btn.c ****                 "is disabled")
 242:..\..\..\lvgl\version_6.1.2\lvgl\src\lv_objx/lv_btn.c **** #endif
 243:..\..\..\lvgl\version_6.1.2\lvgl\src\lv_objx/lv_btn.c **** }
 244:..\..\..\lvgl\version_6.1.2\lvgl\src\lv_objx/lv_btn.c **** 
 245:..\..\..\lvgl\version_6.1.2\lvgl\src\lv_objx/lv_btn.c **** /**
 246:..\..\..\lvgl\version_6.1.2\lvgl\src\lv_objx/lv_btn.c ****  * Set time of the ink out effect (animate to the released state)
 247:..\..\..\lvgl\version_6.1.2\lvgl\src\lv_objx/lv_btn.c ****  * @param btn pointer to a button object
 248:..\..\..\lvgl\version_6.1.2\lvgl\src\lv_objx/lv_btn.c ****  * @param time the time of the ink animation
 249:..\..\..\lvgl\version_6.1.2\lvgl\src\lv_objx/lv_btn.c ****  */
 250:..\..\..\lvgl\version_6.1.2\lvgl\src\lv_objx/lv_btn.c **** void lv_btn_set_ink_out_time(lv_obj_t * btn, uint16_t time)
 251:..\..\..\lvgl\version_6.1.2\lvgl\src\lv_objx/lv_btn.c **** {
 252:..\..\..\lvgl\version_6.1.2\lvgl\src\lv_objx/lv_btn.c ****     LV_ASSERT_OBJ(btn, LV_OBJX_NAME);
 253:..\..\..\lvgl\version_6.1.2\lvgl\src\lv_objx/lv_btn.c **** 
 254:..\..\..\lvgl\version_6.1.2\lvgl\src\lv_objx/lv_btn.c **** #if LV_USE_ANIMATION && LV_BTN_INK_EFFECT
 255:..\..\..\lvgl\version_6.1.2\lvgl\src\lv_objx/lv_btn.c ****     lv_btn_ext_t * ext = lv_obj_get_ext_attr(btn);
 256:..\..\..\lvgl\version_6.1.2\lvgl\src\lv_objx/lv_btn.c ****     ext->ink_out_time  = time;
 257:..\..\..\lvgl\version_6.1.2\lvgl\src\lv_objx/lv_btn.c **** #else
 258:..\..\..\lvgl\version_6.1.2\lvgl\src\lv_objx/lv_btn.c ****     (void)btn;  /*Unused*/
ARM GAS  C:\Users\pearlstl\AppData\Local\Temp\ccbEAAPX.s 			page 6


 259:..\..\..\lvgl\version_6.1.2\lvgl\src\lv_objx/lv_btn.c ****     (void)time; /*Unused*/
 260:..\..\..\lvgl\version_6.1.2\lvgl\src\lv_objx/lv_btn.c ****     LV_LOG_WARN("`lv_btn_set_ink_out_time` has no effect if LV_BTN_INK_EFEFCT or LV_USE_ANIMATION "
 261:..\..\..\lvgl\version_6.1.2\lvgl\src\lv_objx/lv_btn.c ****                 "is disabled")
 262:..\..\..\lvgl\version_6.1.2\lvgl\src\lv_objx/lv_btn.c **** #endif
 263:..\..\..\lvgl\version_6.1.2\lvgl\src\lv_objx/lv_btn.c **** }
 264:..\..\..\lvgl\version_6.1.2\lvgl\src\lv_objx/lv_btn.c **** 
 265:..\..\..\lvgl\version_6.1.2\lvgl\src\lv_objx/lv_btn.c **** /**
 266:..\..\..\lvgl\version_6.1.2\lvgl\src\lv_objx/lv_btn.c ****  * Set a style of a button
 267:..\..\..\lvgl\version_6.1.2\lvgl\src\lv_objx/lv_btn.c ****  * @param btn pointer to a button object
 268:..\..\..\lvgl\version_6.1.2\lvgl\src\lv_objx/lv_btn.c ****  * @param type which style should be set
 269:..\..\..\lvgl\version_6.1.2\lvgl\src\lv_objx/lv_btn.c ****  * @param style pointer to a style
 270:..\..\..\lvgl\version_6.1.2\lvgl\src\lv_objx/lv_btn.c ****  */
 271:..\..\..\lvgl\version_6.1.2\lvgl\src\lv_objx/lv_btn.c **** void lv_btn_set_style(lv_obj_t * btn, lv_btn_style_t type, const lv_style_t * style)
 272:..\..\..\lvgl\version_6.1.2\lvgl\src\lv_objx/lv_btn.c **** {
 273:..\..\..\lvgl\version_6.1.2\lvgl\src\lv_objx/lv_btn.c ****     LV_ASSERT_OBJ(btn, LV_OBJX_NAME);
 274:..\..\..\lvgl\version_6.1.2\lvgl\src\lv_objx/lv_btn.c **** 
 275:..\..\..\lvgl\version_6.1.2\lvgl\src\lv_objx/lv_btn.c ****     lv_btn_ext_t * ext = lv_obj_get_ext_attr(btn);
 276:..\..\..\lvgl\version_6.1.2\lvgl\src\lv_objx/lv_btn.c **** 
 277:..\..\..\lvgl\version_6.1.2\lvgl\src\lv_objx/lv_btn.c ****     switch(type) {
 278:..\..\..\lvgl\version_6.1.2\lvgl\src\lv_objx/lv_btn.c ****         case LV_BTN_STYLE_REL: ext->styles[LV_BTN_STATE_REL] = style; break;
 279:..\..\..\lvgl\version_6.1.2\lvgl\src\lv_objx/lv_btn.c ****         case LV_BTN_STYLE_PR: ext->styles[LV_BTN_STATE_PR] = style; break;
 280:..\..\..\lvgl\version_6.1.2\lvgl\src\lv_objx/lv_btn.c ****         case LV_BTN_STYLE_TGL_REL: ext->styles[LV_BTN_STATE_TGL_REL] = style; break;
 281:..\..\..\lvgl\version_6.1.2\lvgl\src\lv_objx/lv_btn.c ****         case LV_BTN_STYLE_TGL_PR: ext->styles[LV_BTN_STATE_TGL_PR] = style; break;
 282:..\..\..\lvgl\version_6.1.2\lvgl\src\lv_objx/lv_btn.c ****         case LV_BTN_STYLE_INA: ext->styles[LV_BTN_STATE_INA] = style; break;
 283:..\..\..\lvgl\version_6.1.2\lvgl\src\lv_objx/lv_btn.c ****     }
 284:..\..\..\lvgl\version_6.1.2\lvgl\src\lv_objx/lv_btn.c **** 
 285:..\..\..\lvgl\version_6.1.2\lvgl\src\lv_objx/lv_btn.c ****     /*Refresh the object with the new style*/
 286:..\..\..\lvgl\version_6.1.2\lvgl\src\lv_objx/lv_btn.c ****     lv_obj_set_style(btn, ext->styles[ext->state]);
 287:..\..\..\lvgl\version_6.1.2\lvgl\src\lv_objx/lv_btn.c **** }
 288:..\..\..\lvgl\version_6.1.2\lvgl\src\lv_objx/lv_btn.c **** 
 289:..\..\..\lvgl\version_6.1.2\lvgl\src\lv_objx/lv_btn.c **** /*=====================
 290:..\..\..\lvgl\version_6.1.2\lvgl\src\lv_objx/lv_btn.c ****  * Getter functions
 291:..\..\..\lvgl\version_6.1.2\lvgl\src\lv_objx/lv_btn.c ****  *====================*/
 292:..\..\..\lvgl\version_6.1.2\lvgl\src\lv_objx/lv_btn.c **** 
 293:..\..\..\lvgl\version_6.1.2\lvgl\src\lv_objx/lv_btn.c **** /**
 294:..\..\..\lvgl\version_6.1.2\lvgl\src\lv_objx/lv_btn.c ****  * Get the current state of the button
 295:..\..\..\lvgl\version_6.1.2\lvgl\src\lv_objx/lv_btn.c ****  * @param btn pointer to a button object
 296:..\..\..\lvgl\version_6.1.2\lvgl\src\lv_objx/lv_btn.c ****  * @return the state of the button (from lv_btn_state_t enum)
 297:..\..\..\lvgl\version_6.1.2\lvgl\src\lv_objx/lv_btn.c ****  */
 298:..\..\..\lvgl\version_6.1.2\lvgl\src\lv_objx/lv_btn.c **** lv_btn_state_t lv_btn_get_state(const lv_obj_t * btn)
 299:..\..\..\lvgl\version_6.1.2\lvgl\src\lv_objx/lv_btn.c **** {
 300:..\..\..\lvgl\version_6.1.2\lvgl\src\lv_objx/lv_btn.c ****     LV_ASSERT_OBJ(btn, LV_OBJX_NAME);
 301:..\..\..\lvgl\version_6.1.2\lvgl\src\lv_objx/lv_btn.c **** 
 302:..\..\..\lvgl\version_6.1.2\lvgl\src\lv_objx/lv_btn.c ****     lv_btn_ext_t * ext = lv_obj_get_ext_attr(btn);
 303:..\..\..\lvgl\version_6.1.2\lvgl\src\lv_objx/lv_btn.c ****     return ext->state;
 304:..\..\..\lvgl\version_6.1.2\lvgl\src\lv_objx/lv_btn.c **** }
 305:..\..\..\lvgl\version_6.1.2\lvgl\src\lv_objx/lv_btn.c **** 
 306:..\..\..\lvgl\version_6.1.2\lvgl\src\lv_objx/lv_btn.c **** /**
 307:..\..\..\lvgl\version_6.1.2\lvgl\src\lv_objx/lv_btn.c ****  * Get the toggle enable attribute of the button
 308:..\..\..\lvgl\version_6.1.2\lvgl\src\lv_objx/lv_btn.c ****  * @param btn pointer to a button object
 309:..\..\..\lvgl\version_6.1.2\lvgl\src\lv_objx/lv_btn.c ****  * @return true: toggle enabled, false: disabled
 310:..\..\..\lvgl\version_6.1.2\lvgl\src\lv_objx/lv_btn.c ****  */
 311:..\..\..\lvgl\version_6.1.2\lvgl\src\lv_objx/lv_btn.c **** bool lv_btn_get_toggle(const lv_obj_t * btn)
 312:..\..\..\lvgl\version_6.1.2\lvgl\src\lv_objx/lv_btn.c **** {
 313:..\..\..\lvgl\version_6.1.2\lvgl\src\lv_objx/lv_btn.c ****     LV_ASSERT_OBJ(btn, LV_OBJX_NAME);
 314:..\..\..\lvgl\version_6.1.2\lvgl\src\lv_objx/lv_btn.c **** 
 315:..\..\..\lvgl\version_6.1.2\lvgl\src\lv_objx/lv_btn.c ****     lv_btn_ext_t * ext = lv_obj_get_ext_attr(btn);
ARM GAS  C:\Users\pearlstl\AppData\Local\Temp\ccbEAAPX.s 			page 7


 316:..\..\..\lvgl\version_6.1.2\lvgl\src\lv_objx/lv_btn.c **** 
 317:..\..\..\lvgl\version_6.1.2\lvgl\src\lv_objx/lv_btn.c ****     return ext->toggle != 0 ? true : false;
 318:..\..\..\lvgl\version_6.1.2\lvgl\src\lv_objx/lv_btn.c **** }
 319:..\..\..\lvgl\version_6.1.2\lvgl\src\lv_objx/lv_btn.c **** 
 320:..\..\..\lvgl\version_6.1.2\lvgl\src\lv_objx/lv_btn.c **** /**
 321:..\..\..\lvgl\version_6.1.2\lvgl\src\lv_objx/lv_btn.c ****  * Get time of the ink in effect (draw a circle on click to animate in the new state)
 322:..\..\..\lvgl\version_6.1.2\lvgl\src\lv_objx/lv_btn.c ****  * @param btn pointer to a button object
 323:..\..\..\lvgl\version_6.1.2\lvgl\src\lv_objx/lv_btn.c ****  * @return the time of the ink animation
 324:..\..\..\lvgl\version_6.1.2\lvgl\src\lv_objx/lv_btn.c ****  */
 325:..\..\..\lvgl\version_6.1.2\lvgl\src\lv_objx/lv_btn.c **** uint16_t lv_btn_get_ink_in_time(const lv_obj_t * btn)
 326:..\..\..\lvgl\version_6.1.2\lvgl\src\lv_objx/lv_btn.c **** {
 327:..\..\..\lvgl\version_6.1.2\lvgl\src\lv_objx/lv_btn.c ****     LV_ASSERT_OBJ(btn, LV_OBJX_NAME);
 328:..\..\..\lvgl\version_6.1.2\lvgl\src\lv_objx/lv_btn.c **** 
 329:..\..\..\lvgl\version_6.1.2\lvgl\src\lv_objx/lv_btn.c **** #if LV_USE_ANIMATION && LV_BTN_INK_EFFECT
 330:..\..\..\lvgl\version_6.1.2\lvgl\src\lv_objx/lv_btn.c ****     lv_btn_ext_t * ext = lv_obj_get_ext_attr(btn);
 331:..\..\..\lvgl\version_6.1.2\lvgl\src\lv_objx/lv_btn.c ****     return ext->ink_in_time;
 332:..\..\..\lvgl\version_6.1.2\lvgl\src\lv_objx/lv_btn.c **** #else
 333:..\..\..\lvgl\version_6.1.2\lvgl\src\lv_objx/lv_btn.c ****     (void)btn; /*Unused*/
 334:..\..\..\lvgl\version_6.1.2\lvgl\src\lv_objx/lv_btn.c ****     return 0;
 335:..\..\..\lvgl\version_6.1.2\lvgl\src\lv_objx/lv_btn.c **** #endif
 336:..\..\..\lvgl\version_6.1.2\lvgl\src\lv_objx/lv_btn.c **** }
 337:..\..\..\lvgl\version_6.1.2\lvgl\src\lv_objx/lv_btn.c **** 
 338:..\..\..\lvgl\version_6.1.2\lvgl\src\lv_objx/lv_btn.c **** /**
 339:..\..\..\lvgl\version_6.1.2\lvgl\src\lv_objx/lv_btn.c ****  * Get the wait time before the ink disappears
 340:..\..\..\lvgl\version_6.1.2\lvgl\src\lv_objx/lv_btn.c ****  * @param btn pointer to a button object
 341:..\..\..\lvgl\version_6.1.2\lvgl\src\lv_objx/lv_btn.c ****  * @return the time of the ink animation
 342:..\..\..\lvgl\version_6.1.2\lvgl\src\lv_objx/lv_btn.c ****  */
 343:..\..\..\lvgl\version_6.1.2\lvgl\src\lv_objx/lv_btn.c **** uint16_t lv_btn_get_ink_wait_time(const lv_obj_t * btn)
 344:..\..\..\lvgl\version_6.1.2\lvgl\src\lv_objx/lv_btn.c **** {
 345:..\..\..\lvgl\version_6.1.2\lvgl\src\lv_objx/lv_btn.c ****     LV_ASSERT_OBJ(btn, LV_OBJX_NAME);
 346:..\..\..\lvgl\version_6.1.2\lvgl\src\lv_objx/lv_btn.c **** 
 347:..\..\..\lvgl\version_6.1.2\lvgl\src\lv_objx/lv_btn.c **** #if LV_USE_ANIMATION && LV_BTN_INK_EFFECT
 348:..\..\..\lvgl\version_6.1.2\lvgl\src\lv_objx/lv_btn.c ****     lv_btn_ext_t * ext = lv_obj_get_ext_attr(btn);
 349:..\..\..\lvgl\version_6.1.2\lvgl\src\lv_objx/lv_btn.c ****     return ext->ink_wait_time;
 350:..\..\..\lvgl\version_6.1.2\lvgl\src\lv_objx/lv_btn.c **** #else
 351:..\..\..\lvgl\version_6.1.2\lvgl\src\lv_objx/lv_btn.c ****     (void)btn; /*Unused*/
 352:..\..\..\lvgl\version_6.1.2\lvgl\src\lv_objx/lv_btn.c ****     return 0;
 353:..\..\..\lvgl\version_6.1.2\lvgl\src\lv_objx/lv_btn.c **** #endif
 354:..\..\..\lvgl\version_6.1.2\lvgl\src\lv_objx/lv_btn.c **** }
 355:..\..\..\lvgl\version_6.1.2\lvgl\src\lv_objx/lv_btn.c **** /**
 356:..\..\..\lvgl\version_6.1.2\lvgl\src\lv_objx/lv_btn.c ****  * Get time of the ink out effect (animate to the releases state)
 357:..\..\..\lvgl\version_6.1.2\lvgl\src\lv_objx/lv_btn.c ****  * @param btn pointer to a button object
 358:..\..\..\lvgl\version_6.1.2\lvgl\src\lv_objx/lv_btn.c ****  * @return the time of the ink animation
 359:..\..\..\lvgl\version_6.1.2\lvgl\src\lv_objx/lv_btn.c ****  */
 360:..\..\..\lvgl\version_6.1.2\lvgl\src\lv_objx/lv_btn.c **** uint16_t lv_btn_get_ink_out_time(const lv_obj_t * btn)
 361:..\..\..\lvgl\version_6.1.2\lvgl\src\lv_objx/lv_btn.c **** {
 362:..\..\..\lvgl\version_6.1.2\lvgl\src\lv_objx/lv_btn.c ****     LV_ASSERT_OBJ(btn, LV_OBJX_NAME);
 363:..\..\..\lvgl\version_6.1.2\lvgl\src\lv_objx/lv_btn.c **** 
 364:..\..\..\lvgl\version_6.1.2\lvgl\src\lv_objx/lv_btn.c **** #if LV_USE_ANIMATION && LV_BTN_INK_EFFECT
 365:..\..\..\lvgl\version_6.1.2\lvgl\src\lv_objx/lv_btn.c ****     lv_btn_ext_t * ext = lv_obj_get_ext_attr(btn);
 366:..\..\..\lvgl\version_6.1.2\lvgl\src\lv_objx/lv_btn.c ****     return ext->ink_out_time;
 367:..\..\..\lvgl\version_6.1.2\lvgl\src\lv_objx/lv_btn.c **** #else
 368:..\..\..\lvgl\version_6.1.2\lvgl\src\lv_objx/lv_btn.c ****     (void)btn; /*Unused*/
 369:..\..\..\lvgl\version_6.1.2\lvgl\src\lv_objx/lv_btn.c ****     return 0;
 370:..\..\..\lvgl\version_6.1.2\lvgl\src\lv_objx/lv_btn.c **** #endif
 371:..\..\..\lvgl\version_6.1.2\lvgl\src\lv_objx/lv_btn.c **** }
 372:..\..\..\lvgl\version_6.1.2\lvgl\src\lv_objx/lv_btn.c **** 
ARM GAS  C:\Users\pearlstl\AppData\Local\Temp\ccbEAAPX.s 			page 8


 373:..\..\..\lvgl\version_6.1.2\lvgl\src\lv_objx/lv_btn.c **** /**
 374:..\..\..\lvgl\version_6.1.2\lvgl\src\lv_objx/lv_btn.c ****  * Get a style of a button
 375:..\..\..\lvgl\version_6.1.2\lvgl\src\lv_objx/lv_btn.c ****  * @param btn pointer to a button object
 376:..\..\..\lvgl\version_6.1.2\lvgl\src\lv_objx/lv_btn.c ****  * @param type which style should be get
 377:..\..\..\lvgl\version_6.1.2\lvgl\src\lv_objx/lv_btn.c ****  * @return style pointer to a style
 378:..\..\..\lvgl\version_6.1.2\lvgl\src\lv_objx/lv_btn.c ****  */
 379:..\..\..\lvgl\version_6.1.2\lvgl\src\lv_objx/lv_btn.c **** const lv_style_t * lv_btn_get_style(const lv_obj_t * btn, lv_btn_style_t type)
 380:..\..\..\lvgl\version_6.1.2\lvgl\src\lv_objx/lv_btn.c **** {
 381:..\..\..\lvgl\version_6.1.2\lvgl\src\lv_objx/lv_btn.c ****     LV_ASSERT_OBJ(btn, LV_OBJX_NAME);
 382:..\..\..\lvgl\version_6.1.2\lvgl\src\lv_objx/lv_btn.c **** 
 383:..\..\..\lvgl\version_6.1.2\lvgl\src\lv_objx/lv_btn.c ****     const lv_style_t * style = NULL;
 384:..\..\..\lvgl\version_6.1.2\lvgl\src\lv_objx/lv_btn.c ****     lv_btn_ext_t * ext       = lv_obj_get_ext_attr(btn);
 385:..\..\..\lvgl\version_6.1.2\lvgl\src\lv_objx/lv_btn.c ****     lv_btn_state_t state     = lv_btn_get_state(btn);
 386:..\..\..\lvgl\version_6.1.2\lvgl\src\lv_objx/lv_btn.c **** 
 387:..\..\..\lvgl\version_6.1.2\lvgl\src\lv_objx/lv_btn.c ****     /* If the style of the current state is asked then return object style.
 388:..\..\..\lvgl\version_6.1.2\lvgl\src\lv_objx/lv_btn.c ****      * If the button is focused then this style is updated by the group's
 389:..\..\..\lvgl\version_6.1.2\lvgl\src\lv_objx/lv_btn.c ****      * `style_mod_cb` function */
 390:..\..\..\lvgl\version_6.1.2\lvgl\src\lv_objx/lv_btn.c ****     if((type == LV_BTN_STYLE_REL && state == LV_BTN_STATE_REL) ||
 391:..\..\..\lvgl\version_6.1.2\lvgl\src\lv_objx/lv_btn.c ****        (type == LV_BTN_STYLE_PR && state == LV_BTN_STATE_PR) ||
 392:..\..\..\lvgl\version_6.1.2\lvgl\src\lv_objx/lv_btn.c ****        (type == LV_BTN_STYLE_TGL_REL && state == LV_BTN_STATE_TGL_REL) ||
 393:..\..\..\lvgl\version_6.1.2\lvgl\src\lv_objx/lv_btn.c ****        (type == LV_BTN_STYLE_TGL_PR && state == LV_BTN_STATE_TGL_PR) ||
 394:..\..\..\lvgl\version_6.1.2\lvgl\src\lv_objx/lv_btn.c ****        (type == LV_BTN_STYLE_INA && state == LV_BTN_STATE_INA)) {
 395:..\..\..\lvgl\version_6.1.2\lvgl\src\lv_objx/lv_btn.c **** 
 396:..\..\..\lvgl\version_6.1.2\lvgl\src\lv_objx/lv_btn.c ****         style = lv_obj_get_style(btn);
 397:..\..\..\lvgl\version_6.1.2\lvgl\src\lv_objx/lv_btn.c ****     } else {
 398:..\..\..\lvgl\version_6.1.2\lvgl\src\lv_objx/lv_btn.c ****         switch(type) {
 399:..\..\..\lvgl\version_6.1.2\lvgl\src\lv_objx/lv_btn.c ****             case LV_BTN_STYLE_REL: style = ext->styles[LV_BTN_STATE_REL]; break;
 400:..\..\..\lvgl\version_6.1.2\lvgl\src\lv_objx/lv_btn.c ****             case LV_BTN_STYLE_PR: style = ext->styles[LV_BTN_STATE_PR]; break;
 401:..\..\..\lvgl\version_6.1.2\lvgl\src\lv_objx/lv_btn.c ****             case LV_BTN_STYLE_TGL_REL: style = ext->styles[LV_BTN_STATE_TGL_REL]; break;
 402:..\..\..\lvgl\version_6.1.2\lvgl\src\lv_objx/lv_btn.c ****             case LV_BTN_STYLE_TGL_PR: style = ext->styles[LV_BTN_STATE_TGL_PR]; break;
 403:..\..\..\lvgl\version_6.1.2\lvgl\src\lv_objx/lv_btn.c ****             case LV_BTN_STYLE_INA: style = ext->styles[LV_BTN_STATE_INA]; break;
 404:..\..\..\lvgl\version_6.1.2\lvgl\src\lv_objx/lv_btn.c ****             default: style = NULL; break;
 405:..\..\..\lvgl\version_6.1.2\lvgl\src\lv_objx/lv_btn.c ****         }
 406:..\..\..\lvgl\version_6.1.2\lvgl\src\lv_objx/lv_btn.c ****     }
 407:..\..\..\lvgl\version_6.1.2\lvgl\src\lv_objx/lv_btn.c **** 
 408:..\..\..\lvgl\version_6.1.2\lvgl\src\lv_objx/lv_btn.c ****     return style;
 409:..\..\..\lvgl\version_6.1.2\lvgl\src\lv_objx/lv_btn.c **** }
 410:..\..\..\lvgl\version_6.1.2\lvgl\src\lv_objx/lv_btn.c **** 
 411:..\..\..\lvgl\version_6.1.2\lvgl\src\lv_objx/lv_btn.c **** /**********************
 412:..\..\..\lvgl\version_6.1.2\lvgl\src\lv_objx/lv_btn.c ****  *   STATIC FUNCTIONS
 413:..\..\..\lvgl\version_6.1.2\lvgl\src\lv_objx/lv_btn.c ****  **********************/
 414:..\..\..\lvgl\version_6.1.2\lvgl\src\lv_objx/lv_btn.c **** 
 415:..\..\..\lvgl\version_6.1.2\lvgl\src\lv_objx/lv_btn.c **** /**
 416:..\..\..\lvgl\version_6.1.2\lvgl\src\lv_objx/lv_btn.c ****  * Handle the drawing related tasks of the drop down lists
 417:..\..\..\lvgl\version_6.1.2\lvgl\src\lv_objx/lv_btn.c ****  * @param btn pointer to an object
 418:..\..\..\lvgl\version_6.1.2\lvgl\src\lv_objx/lv_btn.c ****  * @param mask the object will be drawn only in this area
 419:..\..\..\lvgl\version_6.1.2\lvgl\src\lv_objx/lv_btn.c ****  * @param mode LV_DESIGN_COVER_CHK: only check if the object fully covers the 'mask_p' area
 420:..\..\..\lvgl\version_6.1.2\lvgl\src\lv_objx/lv_btn.c ****  *                                  (return 'true' if yes)
 421:..\..\..\lvgl\version_6.1.2\lvgl\src\lv_objx/lv_btn.c ****  *             LV_DESIGN_DRAW: draw the object (always return 'true')
 422:..\..\..\lvgl\version_6.1.2\lvgl\src\lv_objx/lv_btn.c ****  *             LV_DESIGN_DRAW_POST: drawing after every children are drawn
 423:..\..\..\lvgl\version_6.1.2\lvgl\src\lv_objx/lv_btn.c ****  * @param return true/false, depends on 'mode'
 424:..\..\..\lvgl\version_6.1.2\lvgl\src\lv_objx/lv_btn.c ****  */
 425:..\..\..\lvgl\version_6.1.2\lvgl\src\lv_objx/lv_btn.c **** static bool lv_btn_design(lv_obj_t * btn, const lv_area_t * mask, lv_design_mode_t mode)
 426:..\..\..\lvgl\version_6.1.2\lvgl\src\lv_objx/lv_btn.c **** {
  28              		.loc 1 426 0
  29              		.cfi_startproc
  30              		@ args = 0, pretend = 0, frame = 0
ARM GAS  C:\Users\pearlstl\AppData\Local\Temp\ccbEAAPX.s 			page 9


  31              		@ frame_needed = 0, uses_anonymous_args = 0
  32              	.LVL0:
 427:..\..\..\lvgl\version_6.1.2\lvgl\src\lv_objx/lv_btn.c ****     if(mode == LV_DESIGN_COVER_CHK) {
  33              		.loc 1 427 0
  34 0000 022A     		cmp	r2, #2
  35 0002 06D0     		beq	.L4
 426:..\..\..\lvgl\version_6.1.2\lvgl\src\lv_objx/lv_btn.c ****     if(mode == LV_DESIGN_COVER_CHK) {
  36              		.loc 1 426 0
  37 0004 10B5     		push	{r4, lr}
  38              		.cfi_def_cfa_offset 8
  39              		.cfi_offset 4, -8
  40              		.cfi_offset 14, -4
  41 0006 1446     		mov	r4, r2
 428:..\..\..\lvgl\version_6.1.2\lvgl\src\lv_objx/lv_btn.c ****         return false;
 429:..\..\..\lvgl\version_6.1.2\lvgl\src\lv_objx/lv_btn.c ****     } else if(mode == LV_DESIGN_DRAW_MAIN) {
  42              		.loc 1 429 0
  43 0008 2AB1     		cbz	r2, .L8
 430:..\..\..\lvgl\version_6.1.2\lvgl\src\lv_objx/lv_btn.c **** 
 431:..\..\..\lvgl\version_6.1.2\lvgl\src\lv_objx/lv_btn.c **** #if LV_USE_ANIMATION && LV_BTN_INK_EFFECT
 432:..\..\..\lvgl\version_6.1.2\lvgl\src\lv_objx/lv_btn.c ****         if(btn != ink_obj) {
 433:..\..\..\lvgl\version_6.1.2\lvgl\src\lv_objx/lv_btn.c ****             ancestor_design(btn, mask, mode);
 434:..\..\..\lvgl\version_6.1.2\lvgl\src\lv_objx/lv_btn.c ****         } else {
 435:..\..\..\lvgl\version_6.1.2\lvgl\src\lv_objx/lv_btn.c ****             lv_opa_t opa_scale = lv_obj_get_opa_scale(btn);
 436:..\..\..\lvgl\version_6.1.2\lvgl\src\lv_objx/lv_btn.c ****             lv_btn_ext_t * ext = lv_obj_get_ext_attr(btn);
 437:..\..\..\lvgl\version_6.1.2\lvgl\src\lv_objx/lv_btn.c **** 
 438:..\..\..\lvgl\version_6.1.2\lvgl\src\lv_objx/lv_btn.c ****             /*Draw the normal button*/
 439:..\..\..\lvgl\version_6.1.2\lvgl\src\lv_objx/lv_btn.c ****             if(ink_playback == false) {
 440:..\..\..\lvgl\version_6.1.2\lvgl\src\lv_objx/lv_btn.c ****                 lv_style_t style_tmp;
 441:..\..\..\lvgl\version_6.1.2\lvgl\src\lv_objx/lv_btn.c ****                 lv_style_copy(&style_tmp, ext->styles[ink_bg_state]);
 442:..\..\..\lvgl\version_6.1.2\lvgl\src\lv_objx/lv_btn.c ****                 style_tmp.body.shadow.width = ext->styles[ink_top_state]->body.shadow.width;
 443:..\..\..\lvgl\version_6.1.2\lvgl\src\lv_objx/lv_btn.c ****                 lv_draw_rect(&btn->coords, mask, &style_tmp, opa_scale);
 444:..\..\..\lvgl\version_6.1.2\lvgl\src\lv_objx/lv_btn.c **** 
 445:..\..\..\lvgl\version_6.1.2\lvgl\src\lv_objx/lv_btn.c ****                 lv_coord_t w     = lv_obj_get_width(btn);
 446:..\..\..\lvgl\version_6.1.2\lvgl\src\lv_objx/lv_btn.c ****                 lv_coord_t h     = lv_obj_get_height(btn);
 447:..\..\..\lvgl\version_6.1.2\lvgl\src\lv_objx/lv_btn.c ****                 lv_coord_t r_max = LV_MATH_MIN(w, h) / 2;
 448:..\..\..\lvgl\version_6.1.2\lvgl\src\lv_objx/lv_btn.c **** 
 449:..\..\..\lvgl\version_6.1.2\lvgl\src\lv_objx/lv_btn.c ****                 /*In the first part of the animation increase the size of the circle (ink effect) *
 450:..\..\..\lvgl\version_6.1.2\lvgl\src\lv_objx/lv_btn.c ****                 lv_area_t cir_area;
 451:..\..\..\lvgl\version_6.1.2\lvgl\src\lv_objx/lv_btn.c **** 
 452:..\..\..\lvgl\version_6.1.2\lvgl\src\lv_objx/lv_btn.c ****                 lv_coord_t coord_state =
 453:..\..\..\lvgl\version_6.1.2\lvgl\src\lv_objx/lv_btn.c ****                     ink_act_value < LV_BTN_INK_VALUE_MAX / 2 ? ink_act_value : LV_BTN_INK_VALUE_MAX
 454:..\..\..\lvgl\version_6.1.2\lvgl\src\lv_objx/lv_btn.c ****                 lv_point_t p_act;
 455:..\..\..\lvgl\version_6.1.2\lvgl\src\lv_objx/lv_btn.c ****                 p_act.x          = ink_point.x;
 456:..\..\..\lvgl\version_6.1.2\lvgl\src\lv_objx/lv_btn.c ****                 p_act.y          = ink_point.y;
 457:..\..\..\lvgl\version_6.1.2\lvgl\src\lv_objx/lv_btn.c ****                 lv_coord_t x_err = (btn->coords.x1 + w / 2) - p_act.x;
 458:..\..\..\lvgl\version_6.1.2\lvgl\src\lv_objx/lv_btn.c ****                 lv_coord_t y_err = (btn->coords.y1 + h / 2) - p_act.y;
 459:..\..\..\lvgl\version_6.1.2\lvgl\src\lv_objx/lv_btn.c **** 
 460:..\..\..\lvgl\version_6.1.2\lvgl\src\lv_objx/lv_btn.c ****                 p_act.x += (x_err * coord_state) >> (LV_BTN_INK_VALUE_MAX_SHIFT - 1);
 461:..\..\..\lvgl\version_6.1.2\lvgl\src\lv_objx/lv_btn.c ****                 p_act.y += (y_err * coord_state) >> (LV_BTN_INK_VALUE_MAX_SHIFT - 1);
 462:..\..\..\lvgl\version_6.1.2\lvgl\src\lv_objx/lv_btn.c **** 
 463:..\..\..\lvgl\version_6.1.2\lvgl\src\lv_objx/lv_btn.c ****                 lv_coord_t half_side = LV_MATH_MAX(w, h) / 2;
 464:..\..\..\lvgl\version_6.1.2\lvgl\src\lv_objx/lv_btn.c ****                 cir_area.x1          = p_act.x - ((half_side * coord_state) >> (LV_BTN_INK_VALUE_MA
 465:..\..\..\lvgl\version_6.1.2\lvgl\src\lv_objx/lv_btn.c ****                 cir_area.y1          = p_act.y - ((half_side * coord_state) >> (LV_BTN_INK_VALUE_MA
 466:..\..\..\lvgl\version_6.1.2\lvgl\src\lv_objx/lv_btn.c ****                 cir_area.x2          = p_act.x + ((half_side * coord_state) >> (LV_BTN_INK_VALUE_MA
 467:..\..\..\lvgl\version_6.1.2\lvgl\src\lv_objx/lv_btn.c ****                 cir_area.y2          = p_act.y + ((half_side * coord_state) >> (LV_BTN_INK_VALUE_MA
 468:..\..\..\lvgl\version_6.1.2\lvgl\src\lv_objx/lv_btn.c **** 
 469:..\..\..\lvgl\version_6.1.2\lvgl\src\lv_objx/lv_btn.c ****                 lv_area_intersect(&cir_area, &btn->coords,
ARM GAS  C:\Users\pearlstl\AppData\Local\Temp\ccbEAAPX.s 			page 10


 470:..\..\..\lvgl\version_6.1.2\lvgl\src\lv_objx/lv_btn.c ****                                   &cir_area); /*Limit the area. (It might be too big on the smaller
 471:..\..\..\lvgl\version_6.1.2\lvgl\src\lv_objx/lv_btn.c **** 
 472:..\..\..\lvgl\version_6.1.2\lvgl\src\lv_objx/lv_btn.c ****                 /*In the second part animate the radius. Circle -> body.radius*/
 473:..\..\..\lvgl\version_6.1.2\lvgl\src\lv_objx/lv_btn.c ****                 lv_coord_t r_state =
 474:..\..\..\lvgl\version_6.1.2\lvgl\src\lv_objx/lv_btn.c ****                     ink_act_value > LV_BTN_INK_VALUE_MAX / 2 ? ink_act_value - LV_BTN_INK_VALUE_MAX
 475:..\..\..\lvgl\version_6.1.2\lvgl\src\lv_objx/lv_btn.c **** 
 476:..\..\..\lvgl\version_6.1.2\lvgl\src\lv_objx/lv_btn.c ****                 lv_style_copy(&style_tmp, ext->styles[ink_top_state]);
 477:..\..\..\lvgl\version_6.1.2\lvgl\src\lv_objx/lv_btn.c ****                 style_tmp.body.radius       = r_max + (((ext->styles[ink_bg_state]->body.radius - r
 478:..\..\..\lvgl\version_6.1.2\lvgl\src\lv_objx/lv_btn.c ****                                                  (LV_BTN_INK_VALUE_MAX_SHIFT - 1));
 479:..\..\..\lvgl\version_6.1.2\lvgl\src\lv_objx/lv_btn.c ****                 style_tmp.body.border.width = 0;
 480:..\..\..\lvgl\version_6.1.2\lvgl\src\lv_objx/lv_btn.c **** 
 481:..\..\..\lvgl\version_6.1.2\lvgl\src\lv_objx/lv_btn.c ****                 /*Draw the circle*/
 482:..\..\..\lvgl\version_6.1.2\lvgl\src\lv_objx/lv_btn.c ****                 lv_draw_rect(&cir_area, mask, &style_tmp, opa_scale);
 483:..\..\..\lvgl\version_6.1.2\lvgl\src\lv_objx/lv_btn.c ****             } else {
 484:..\..\..\lvgl\version_6.1.2\lvgl\src\lv_objx/lv_btn.c ****                 lv_style_t res;
 485:..\..\..\lvgl\version_6.1.2\lvgl\src\lv_objx/lv_btn.c ****                 lv_style_copy(&res, ext->styles[ink_bg_state]);
 486:..\..\..\lvgl\version_6.1.2\lvgl\src\lv_objx/lv_btn.c ****                 lv_style_mix(ext->styles[ink_bg_state], ext->styles[ink_top_state], &res, ink_act_v
 487:..\..\..\lvgl\version_6.1.2\lvgl\src\lv_objx/lv_btn.c ****                 lv_draw_rect(&btn->coords, mask, &res, opa_scale);
 488:..\..\..\lvgl\version_6.1.2\lvgl\src\lv_objx/lv_btn.c ****             }
 489:..\..\..\lvgl\version_6.1.2\lvgl\src\lv_objx/lv_btn.c ****         }
 490:..\..\..\lvgl\version_6.1.2\lvgl\src\lv_objx/lv_btn.c **** #else
 491:..\..\..\lvgl\version_6.1.2\lvgl\src\lv_objx/lv_btn.c ****         ancestor_design(btn, mask, mode);
 492:..\..\..\lvgl\version_6.1.2\lvgl\src\lv_objx/lv_btn.c **** #endif
 493:..\..\..\lvgl\version_6.1.2\lvgl\src\lv_objx/lv_btn.c ****     } else if(mode == LV_DESIGN_DRAW_POST) {
  44              		.loc 1 493 0
  45 000a 012A     		cmp	r2, #1
  46 000c 08D0     		beq	.L9
 494:..\..\..\lvgl\version_6.1.2\lvgl\src\lv_objx/lv_btn.c ****         ancestor_design(btn, mask, mode);
 495:..\..\..\lvgl\version_6.1.2\lvgl\src\lv_objx/lv_btn.c ****     }
 496:..\..\..\lvgl\version_6.1.2\lvgl\src\lv_objx/lv_btn.c **** 
 497:..\..\..\lvgl\version_6.1.2\lvgl\src\lv_objx/lv_btn.c ****     return true;
  47              		.loc 1 497 0
  48 000e 0120     		movs	r0, #1
  49              	.LVL1:
 498:..\..\..\lvgl\version_6.1.2\lvgl\src\lv_objx/lv_btn.c **** }
  50              		.loc 1 498 0
  51 0010 10BD     		pop	{r4, pc}
  52              	.LVL2:
  53              	.L4:
  54              		.cfi_def_cfa_offset 0
  55              		.cfi_restore 4
  56              		.cfi_restore 14
 428:..\..\..\lvgl\version_6.1.2\lvgl\src\lv_objx/lv_btn.c ****     } else if(mode == LV_DESIGN_DRAW_MAIN) {
  57              		.loc 1 428 0
  58 0012 0020     		movs	r0, #0
  59              	.LVL3:
  60              		.loc 1 498 0
  61 0014 7047     		bx	lr
  62              	.LVL4:
  63              	.L8:
  64              		.cfi_def_cfa_offset 8
  65              		.cfi_offset 4, -8
  66              		.cfi_offset 14, -4
 491:..\..\..\lvgl\version_6.1.2\lvgl\src\lv_objx/lv_btn.c **** #endif
  67              		.loc 1 491 0
  68 0016 054B     		ldr	r3, .L10
  69 0018 1B68     		ldr	r3, [r3]
ARM GAS  C:\Users\pearlstl\AppData\Local\Temp\ccbEAAPX.s 			page 11


  70 001a 9847     		blx	r3
  71              	.LVL5:
 497:..\..\..\lvgl\version_6.1.2\lvgl\src\lv_objx/lv_btn.c **** }
  72              		.loc 1 497 0
  73 001c 0120     		movs	r0, #1
  74 001e 10BD     		pop	{r4, pc}
  75              	.LVL6:
  76              	.L9:
  77              	.LBB20:
  78              	.LBB21:
 494:..\..\..\lvgl\version_6.1.2\lvgl\src\lv_objx/lv_btn.c ****     }
  79              		.loc 1 494 0
  80 0020 024B     		ldr	r3, .L10
  81 0022 1B68     		ldr	r3, [r3]
  82 0024 9847     		blx	r3
  83              	.LVL7:
  84 0026 2046     		mov	r0, r4
  85 0028 10BD     		pop	{r4, pc}
  86              	.L11:
  87 002a 00BF     		.align	2
  88              	.L10:
  89 002c 00000000 		.word	.LANCHOR0
  90              	.LBE21:
  91              	.LBE20:
  92              		.cfi_endproc
  93              	.LFE58:
  94              		.size	lv_btn_design, .-lv_btn_design
  95              		.section	.text.lv_btn_set_state.constprop.3,"ax",%progbits
  96              		.align	2
  97              		.thumb
  98              		.thumb_func
  99              		.type	lv_btn_set_state.constprop.3, %function
 100              	lv_btn_set_state.constprop.3:
 101              	.LFB70:
 175:..\..\..\lvgl\version_6.1.2\lvgl\src\lv_objx/lv_btn.c **** {
 102              		.loc 1 175 0
 103              		.cfi_startproc
 104              		@ args = 0, pretend = 0, frame = 0
 105              		@ frame_needed = 0, uses_anonymous_args = 0
 106              	.LVL8:
 107 0000 10B5     		push	{r4, lr}
 108              		.cfi_def_cfa_offset 8
 109              		.cfi_offset 4, -8
 110              		.cfi_offset 14, -4
 175:..\..\..\lvgl\version_6.1.2\lvgl\src\lv_objx/lv_btn.c **** {
 111              		.loc 1 175 0
 112 0002 0446     		mov	r4, r0
 179:..\..\..\lvgl\version_6.1.2\lvgl\src\lv_objx/lv_btn.c ****     if(ext->state != state) {
 113              		.loc 1 179 0
 114 0004 FFF7FEFF 		bl	lv_obj_get_ext_attr
 115              	.LVL9:
 180:..\..\..\lvgl\version_6.1.2\lvgl\src\lv_objx/lv_btn.c ****         ext->state = state;
 116              		.loc 1 180 0
 117 0008 037E     		ldrb	r3, [r0, #24]	@ zero_extendqisi2
 118 000a 03F00701 		and	r1, r3, #7
 119 000e 0229     		cmp	r1, #2
 120 0010 0AD0     		beq	.L12
ARM GAS  C:\Users\pearlstl\AppData\Local\Temp\ccbEAAPX.s 			page 12


 121 0012 0246     		mov	r2, r0
 181:..\..\..\lvgl\version_6.1.2\lvgl\src\lv_objx/lv_btn.c ****         lv_obj_set_style(btn, ext->styles[state]);
 122              		.loc 1 181 0
 123 0014 0221     		movs	r1, #2
 124 0016 61F30203 		bfi	r3, r1, #0, #3
 182:..\..\..\lvgl\version_6.1.2\lvgl\src\lv_objx/lv_btn.c ****     }
 125              		.loc 1 182 0
 126 001a 2046     		mov	r0, r4
 127              	.LVL10:
 181:..\..\..\lvgl\version_6.1.2\lvgl\src\lv_objx/lv_btn.c ****         lv_obj_set_style(btn, ext->styles[state]);
 128              		.loc 1 181 0
 129 001c 1376     		strb	r3, [r2, #24]
 182:..\..\..\lvgl\version_6.1.2\lvgl\src\lv_objx/lv_btn.c ****     }
 130              		.loc 1 182 0
 131 001e D168     		ldr	r1, [r2, #12]
 184:..\..\..\lvgl\version_6.1.2\lvgl\src\lv_objx/lv_btn.c **** 
 132              		.loc 1 184 0
 133 0020 BDE81040 		pop	{r4, lr}
 134              		.cfi_remember_state
 135              		.cfi_restore 14
 136              		.cfi_restore 4
 137              		.cfi_def_cfa_offset 0
 138              	.LVL11:
 182:..\..\..\lvgl\version_6.1.2\lvgl\src\lv_objx/lv_btn.c ****     }
 139              		.loc 1 182 0
 140 0024 FFF7FEBF 		b	lv_obj_set_style
 141              	.LVL12:
 142              	.L12:
 143              		.cfi_restore_state
 144 0028 10BD     		pop	{r4, pc}
 145              		.cfi_endproc
 146              	.LFE70:
 147              		.size	lv_btn_set_state.constprop.3, .-lv_btn_set_state.constprop.3
 148 002a 00BF     		.section	.text.lv_btn_set_state.constprop.4,"ax",%progbits
 149              		.align	2
 150              		.thumb
 151              		.thumb_func
 152              		.type	lv_btn_set_state.constprop.4, %function
 153              	lv_btn_set_state.constprop.4:
 154              	.LFB69:
 175:..\..\..\lvgl\version_6.1.2\lvgl\src\lv_objx/lv_btn.c **** {
 155              		.loc 1 175 0
 156              		.cfi_startproc
 157              		@ args = 0, pretend = 0, frame = 0
 158              		@ frame_needed = 0, uses_anonymous_args = 0
 159              	.LVL13:
 160 0000 10B5     		push	{r4, lr}
 161              		.cfi_def_cfa_offset 8
 162              		.cfi_offset 4, -8
 163              		.cfi_offset 14, -4
 175:..\..\..\lvgl\version_6.1.2\lvgl\src\lv_objx/lv_btn.c **** {
 164              		.loc 1 175 0
 165 0002 0446     		mov	r4, r0
 179:..\..\..\lvgl\version_6.1.2\lvgl\src\lv_objx/lv_btn.c ****     if(ext->state != state) {
 166              		.loc 1 179 0
 167 0004 FFF7FEFF 		bl	lv_obj_get_ext_attr
 168              	.LVL14:
ARM GAS  C:\Users\pearlstl\AppData\Local\Temp\ccbEAAPX.s 			page 13


 180:..\..\..\lvgl\version_6.1.2\lvgl\src\lv_objx/lv_btn.c ****         ext->state = state;
 169              		.loc 1 180 0
 170 0008 037E     		ldrb	r3, [r0, #24]	@ zero_extendqisi2
 171 000a 5A07     		lsls	r2, r3, #29
 172 000c 08D0     		beq	.L15
 181:..\..\..\lvgl\version_6.1.2\lvgl\src\lv_objx/lv_btn.c ****         lv_obj_set_style(btn, ext->styles[state]);
 173              		.loc 1 181 0
 174 000e 6FF30203 		bfc	r3, #0, #3
 175 0012 0376     		strb	r3, [r0, #24]
 182:..\..\..\lvgl\version_6.1.2\lvgl\src\lv_objx/lv_btn.c ****     }
 176              		.loc 1 182 0
 177 0014 4168     		ldr	r1, [r0, #4]
 178 0016 2046     		mov	r0, r4
 179              	.LVL15:
 184:..\..\..\lvgl\version_6.1.2\lvgl\src\lv_objx/lv_btn.c **** 
 180              		.loc 1 184 0
 181 0018 BDE81040 		pop	{r4, lr}
 182              		.cfi_remember_state
 183              		.cfi_restore 14
 184              		.cfi_restore 4
 185              		.cfi_def_cfa_offset 0
 186              	.LVL16:
 182:..\..\..\lvgl\version_6.1.2\lvgl\src\lv_objx/lv_btn.c ****     }
 187              		.loc 1 182 0
 188 001c FFF7FEBF 		b	lv_obj_set_style
 189              	.LVL17:
 190              	.L15:
 191              		.cfi_restore_state
 192 0020 10BD     		pop	{r4, pc}
 193              		.cfi_endproc
 194              	.LFE69:
 195              		.size	lv_btn_set_state.constprop.4, .-lv_btn_set_state.constprop.4
 196 0022 00BF     		.section	.text.lv_btn_signal,"ax",%progbits
 197              		.align	2
 198              		.thumb
 199              		.thumb_func
 200              		.type	lv_btn_signal, %function
 201              	lv_btn_signal:
 202              	.LFB59:
 499:..\..\..\lvgl\version_6.1.2\lvgl\src\lv_objx/lv_btn.c **** 
 500:..\..\..\lvgl\version_6.1.2\lvgl\src\lv_objx/lv_btn.c **** /**
 501:..\..\..\lvgl\version_6.1.2\lvgl\src\lv_objx/lv_btn.c ****  * Signal function of the button
 502:..\..\..\lvgl\version_6.1.2\lvgl\src\lv_objx/lv_btn.c ****  * @param btn pointer to a button object
 503:..\..\..\lvgl\version_6.1.2\lvgl\src\lv_objx/lv_btn.c ****  * @param sign a signal type from lv_signal_t enum
 504:..\..\..\lvgl\version_6.1.2\lvgl\src\lv_objx/lv_btn.c ****  * @param param pointer to a signal specific variable
 505:..\..\..\lvgl\version_6.1.2\lvgl\src\lv_objx/lv_btn.c ****  * @return LV_RES_OK: the object is not deleted in the function; LV_RES_INV: the object is deleted
 506:..\..\..\lvgl\version_6.1.2\lvgl\src\lv_objx/lv_btn.c ****  */
 507:..\..\..\lvgl\version_6.1.2\lvgl\src\lv_objx/lv_btn.c **** static lv_res_t lv_btn_signal(lv_obj_t * btn, lv_signal_t sign, void * param)
 508:..\..\..\lvgl\version_6.1.2\lvgl\src\lv_objx/lv_btn.c **** {
 203              		.loc 1 508 0
 204              		.cfi_startproc
 205              		@ args = 0, pretend = 0, frame = 8
 206              		@ frame_needed = 0, uses_anonymous_args = 0
 207              	.LVL18:
 208 0000 2DE9F041 		push	{r4, r5, r6, r7, r8, lr}
 209              		.cfi_def_cfa_offset 24
 210              		.cfi_offset 4, -24
ARM GAS  C:\Users\pearlstl\AppData\Local\Temp\ccbEAAPX.s 			page 14


 211              		.cfi_offset 5, -20
 212              		.cfi_offset 6, -16
 213              		.cfi_offset 7, -12
 214              		.cfi_offset 8, -8
 215              		.cfi_offset 14, -4
 509:..\..\..\lvgl\version_6.1.2\lvgl\src\lv_objx/lv_btn.c ****     lv_res_t res;
 510:..\..\..\lvgl\version_6.1.2\lvgl\src\lv_objx/lv_btn.c **** 
 511:..\..\..\lvgl\version_6.1.2\lvgl\src\lv_objx/lv_btn.c ****     /* Include the ancient signal function */
 512:..\..\..\lvgl\version_6.1.2\lvgl\src\lv_objx/lv_btn.c ****     res = ancestor_signal(btn, sign, param);
 216              		.loc 1 512 0
 217 0004 874B     		ldr	r3, .L102
 508:..\..\..\lvgl\version_6.1.2\lvgl\src\lv_objx/lv_btn.c ****     lv_res_t res;
 218              		.loc 1 508 0
 219 0006 82B0     		sub	sp, sp, #8
 220              		.cfi_def_cfa_offset 32
 221              		.loc 1 512 0
 222 0008 5B68     		ldr	r3, [r3, #4]
 508:..\..\..\lvgl\version_6.1.2\lvgl\src\lv_objx/lv_btn.c ****     lv_res_t res;
 223              		.loc 1 508 0
 224 000a 0646     		mov	r6, r0
 225 000c 0D46     		mov	r5, r1
 226 000e 1746     		mov	r7, r2
 227              		.loc 1 512 0
 228 0010 9847     		blx	r3
 229              	.LVL19:
 513:..\..\..\lvgl\version_6.1.2\lvgl\src\lv_objx/lv_btn.c ****     if(res != LV_RES_OK) return res;
 230              		.loc 1 513 0
 231 0012 0128     		cmp	r0, #1
 512:..\..\..\lvgl\version_6.1.2\lvgl\src\lv_objx/lv_btn.c ****     if(res != LV_RES_OK) return res;
 232              		.loc 1 512 0
 233 0014 0446     		mov	r4, r0
 234              	.LVL20:
 235              		.loc 1 513 0
 236 0016 04D0     		beq	.L87
 237 0018 0546     		mov	r5, r0
 238              	.LVL21:
 239              	.L80:
 514:..\..\..\lvgl\version_6.1.2\lvgl\src\lv_objx/lv_btn.c ****     if(sign == LV_SIGNAL_GET_TYPE) return lv_obj_handle_get_type_signal(param, LV_OBJX_NAME);
 515:..\..\..\lvgl\version_6.1.2\lvgl\src\lv_objx/lv_btn.c **** 
 516:..\..\..\lvgl\version_6.1.2\lvgl\src\lv_objx/lv_btn.c ****     lv_btn_ext_t * ext = lv_obj_get_ext_attr(btn);
 517:..\..\..\lvgl\version_6.1.2\lvgl\src\lv_objx/lv_btn.c ****     bool tgl           = lv_btn_get_toggle(btn);
 518:..\..\..\lvgl\version_6.1.2\lvgl\src\lv_objx/lv_btn.c **** 
 519:..\..\..\lvgl\version_6.1.2\lvgl\src\lv_objx/lv_btn.c ****     if(sign == LV_SIGNAL_PRESSED) {
 520:..\..\..\lvgl\version_6.1.2\lvgl\src\lv_objx/lv_btn.c ****         /*Refresh the state*/
 521:..\..\..\lvgl\version_6.1.2\lvgl\src\lv_objx/lv_btn.c ****         if(ext->state == LV_BTN_STATE_REL) {
 522:..\..\..\lvgl\version_6.1.2\lvgl\src\lv_objx/lv_btn.c ****             lv_btn_set_state(btn, LV_BTN_STATE_PR);
 523:..\..\..\lvgl\version_6.1.2\lvgl\src\lv_objx/lv_btn.c **** #if LV_USE_ANIMATION && LV_BTN_INK_EFFECT
 524:..\..\..\lvgl\version_6.1.2\lvgl\src\lv_objx/lv_btn.c ****             ink_bg_state  = LV_BTN_STATE_REL;
 525:..\..\..\lvgl\version_6.1.2\lvgl\src\lv_objx/lv_btn.c ****             ink_top_state = LV_BTN_STATE_PR;
 526:..\..\..\lvgl\version_6.1.2\lvgl\src\lv_objx/lv_btn.c **** #endif
 527:..\..\..\lvgl\version_6.1.2\lvgl\src\lv_objx/lv_btn.c ****         } else if(ext->state == LV_BTN_STATE_TGL_REL) {
 528:..\..\..\lvgl\version_6.1.2\lvgl\src\lv_objx/lv_btn.c ****             lv_btn_set_state(btn, LV_BTN_STATE_TGL_PR);
 529:..\..\..\lvgl\version_6.1.2\lvgl\src\lv_objx/lv_btn.c **** #if LV_USE_ANIMATION && LV_BTN_INK_EFFECT
 530:..\..\..\lvgl\version_6.1.2\lvgl\src\lv_objx/lv_btn.c ****             ink_bg_state  = LV_BTN_STATE_TGL_REL;
 531:..\..\..\lvgl\version_6.1.2\lvgl\src\lv_objx/lv_btn.c ****             ink_top_state = LV_BTN_STATE_TGL_PR;
 532:..\..\..\lvgl\version_6.1.2\lvgl\src\lv_objx/lv_btn.c **** #endif
 533:..\..\..\lvgl\version_6.1.2\lvgl\src\lv_objx/lv_btn.c ****         }
ARM GAS  C:\Users\pearlstl\AppData\Local\Temp\ccbEAAPX.s 			page 15


 534:..\..\..\lvgl\version_6.1.2\lvgl\src\lv_objx/lv_btn.c **** 
 535:..\..\..\lvgl\version_6.1.2\lvgl\src\lv_objx/lv_btn.c **** #if LV_USE_ANIMATION && LV_BTN_INK_EFFECT
 536:..\..\..\lvgl\version_6.1.2\lvgl\src\lv_objx/lv_btn.c ****         /*Forget the old inked button*/
 537:..\..\..\lvgl\version_6.1.2\lvgl\src\lv_objx/lv_btn.c ****         if(ink_obj != NULL && ink_obj != btn) {
 538:..\..\..\lvgl\version_6.1.2\lvgl\src\lv_objx/lv_btn.c ****             lv_anim_del(ink_obj, (lv_anim_exec_xcb_t)lv_btn_ink_effect_anim);
 539:..\..\..\lvgl\version_6.1.2\lvgl\src\lv_objx/lv_btn.c ****             lv_obj_invalidate(ink_obj);
 540:..\..\..\lvgl\version_6.1.2\lvgl\src\lv_objx/lv_btn.c ****             ink_obj = NULL;
 541:..\..\..\lvgl\version_6.1.2\lvgl\src\lv_objx/lv_btn.c ****         }
 542:..\..\..\lvgl\version_6.1.2\lvgl\src\lv_objx/lv_btn.c ****         /*Save the new data for inking and start it's animation if enabled*/
 543:..\..\..\lvgl\version_6.1.2\lvgl\src\lv_objx/lv_btn.c ****         if(ext->ink_in_time > 0) {
 544:..\..\..\lvgl\version_6.1.2\lvgl\src\lv_objx/lv_btn.c ****             ink_obj      = btn;
 545:..\..\..\lvgl\version_6.1.2\lvgl\src\lv_objx/lv_btn.c ****             ink_playback = false;
 546:..\..\..\lvgl\version_6.1.2\lvgl\src\lv_objx/lv_btn.c ****             ink_ready    = false;
 547:..\..\..\lvgl\version_6.1.2\lvgl\src\lv_objx/lv_btn.c ****             lv_indev_get_point(lv_indev_get_act(), &ink_point);
 548:..\..\..\lvgl\version_6.1.2\lvgl\src\lv_objx/lv_btn.c **** 
 549:..\..\..\lvgl\version_6.1.2\lvgl\src\lv_objx/lv_btn.c ****             lv_anim_t a;
 550:..\..\..\lvgl\version_6.1.2\lvgl\src\lv_objx/lv_btn.c ****             a.var            = btn;
 551:..\..\..\lvgl\version_6.1.2\lvgl\src\lv_objx/lv_btn.c ****             a.start          = 0;
 552:..\..\..\lvgl\version_6.1.2\lvgl\src\lv_objx/lv_btn.c ****             a.end            = LV_BTN_INK_VALUE_MAX;
 553:..\..\..\lvgl\version_6.1.2\lvgl\src\lv_objx/lv_btn.c ****             a.exec_cb        = (lv_anim_exec_xcb_t)lv_btn_ink_effect_anim;
 554:..\..\..\lvgl\version_6.1.2\lvgl\src\lv_objx/lv_btn.c ****             a.path_cb        = lv_anim_path_linear;
 555:..\..\..\lvgl\version_6.1.2\lvgl\src\lv_objx/lv_btn.c ****             a.ready_cb       = lv_btn_ink_effect_anim_ready;
 556:..\..\..\lvgl\version_6.1.2\lvgl\src\lv_objx/lv_btn.c ****             a.act_time       = 0;
 557:..\..\..\lvgl\version_6.1.2\lvgl\src\lv_objx/lv_btn.c ****             a.time           = ext->ink_in_time;
 558:..\..\..\lvgl\version_6.1.2\lvgl\src\lv_objx/lv_btn.c ****             a.playback       = 0;
 559:..\..\..\lvgl\version_6.1.2\lvgl\src\lv_objx/lv_btn.c ****             a.playback_pause = 0;
 560:..\..\..\lvgl\version_6.1.2\lvgl\src\lv_objx/lv_btn.c ****             a.repeat         = 0;
 561:..\..\..\lvgl\version_6.1.2\lvgl\src\lv_objx/lv_btn.c ****             a.repeat_pause   = 0;
 562:..\..\..\lvgl\version_6.1.2\lvgl\src\lv_objx/lv_btn.c ****             lv_anim_create(&a);
 563:..\..\..\lvgl\version_6.1.2\lvgl\src\lv_objx/lv_btn.c ****         }
 564:..\..\..\lvgl\version_6.1.2\lvgl\src\lv_objx/lv_btn.c **** #endif
 565:..\..\..\lvgl\version_6.1.2\lvgl\src\lv_objx/lv_btn.c ****     } else if(sign == LV_SIGNAL_PRESS_LOST) {
 566:..\..\..\lvgl\version_6.1.2\lvgl\src\lv_objx/lv_btn.c ****         /*Refresh the state*/
 567:..\..\..\lvgl\version_6.1.2\lvgl\src\lv_objx/lv_btn.c ****         if(ext->state == LV_BTN_STATE_PR)
 568:..\..\..\lvgl\version_6.1.2\lvgl\src\lv_objx/lv_btn.c ****             lv_btn_set_state(btn, LV_BTN_STATE_REL);
 569:..\..\..\lvgl\version_6.1.2\lvgl\src\lv_objx/lv_btn.c ****         else if(ext->state == LV_BTN_STATE_TGL_PR)
 570:..\..\..\lvgl\version_6.1.2\lvgl\src\lv_objx/lv_btn.c ****             lv_btn_set_state(btn, LV_BTN_STATE_TGL_REL);
 571:..\..\..\lvgl\version_6.1.2\lvgl\src\lv_objx/lv_btn.c ****     } else if(sign == LV_SIGNAL_PRESSING) {
 572:..\..\..\lvgl\version_6.1.2\lvgl\src\lv_objx/lv_btn.c ****         /*When the button begins to drag revert pressed states to released*/
 573:..\..\..\lvgl\version_6.1.2\lvgl\src\lv_objx/lv_btn.c ****         if(lv_indev_is_dragging(param) != false) {
 574:..\..\..\lvgl\version_6.1.2\lvgl\src\lv_objx/lv_btn.c ****             if(ext->state == LV_BTN_STATE_PR)
 575:..\..\..\lvgl\version_6.1.2\lvgl\src\lv_objx/lv_btn.c ****                 lv_btn_set_state(btn, LV_BTN_STATE_REL);
 576:..\..\..\lvgl\version_6.1.2\lvgl\src\lv_objx/lv_btn.c ****             else if(ext->state == LV_BTN_STATE_TGL_PR)
 577:..\..\..\lvgl\version_6.1.2\lvgl\src\lv_objx/lv_btn.c ****                 lv_btn_set_state(btn, LV_BTN_STATE_TGL_REL);
 578:..\..\..\lvgl\version_6.1.2\lvgl\src\lv_objx/lv_btn.c ****         }
 579:..\..\..\lvgl\version_6.1.2\lvgl\src\lv_objx/lv_btn.c ****     } else if(sign == LV_SIGNAL_RELEASED) {
 580:..\..\..\lvgl\version_6.1.2\lvgl\src\lv_objx/lv_btn.c ****         /*If not dragged and it was not long press action then
 581:..\..\..\lvgl\version_6.1.2\lvgl\src\lv_objx/lv_btn.c ****          *change state and run the action*/
 582:..\..\..\lvgl\version_6.1.2\lvgl\src\lv_objx/lv_btn.c ****         if(lv_indev_is_dragging(param) == false) {
 583:..\..\..\lvgl\version_6.1.2\lvgl\src\lv_objx/lv_btn.c ****             uint32_t toggled = 0;
 584:..\..\..\lvgl\version_6.1.2\lvgl\src\lv_objx/lv_btn.c ****             if(ext->state == LV_BTN_STATE_PR && tgl == false) {
 585:..\..\..\lvgl\version_6.1.2\lvgl\src\lv_objx/lv_btn.c ****                 lv_btn_set_state(btn, LV_BTN_STATE_REL);
 586:..\..\..\lvgl\version_6.1.2\lvgl\src\lv_objx/lv_btn.c ****                 toggled = 0;
 587:..\..\..\lvgl\version_6.1.2\lvgl\src\lv_objx/lv_btn.c ****             } else if(ext->state == LV_BTN_STATE_TGL_PR && tgl == false) {
 588:..\..\..\lvgl\version_6.1.2\lvgl\src\lv_objx/lv_btn.c ****                 lv_btn_set_state(btn, LV_BTN_STATE_TGL_REL);
 589:..\..\..\lvgl\version_6.1.2\lvgl\src\lv_objx/lv_btn.c ****                 toggled = 1;
 590:..\..\..\lvgl\version_6.1.2\lvgl\src\lv_objx/lv_btn.c ****             } else if(ext->state == LV_BTN_STATE_PR && tgl == true) {
ARM GAS  C:\Users\pearlstl\AppData\Local\Temp\ccbEAAPX.s 			page 16


 591:..\..\..\lvgl\version_6.1.2\lvgl\src\lv_objx/lv_btn.c ****                 lv_btn_set_state(btn, LV_BTN_STATE_TGL_REL);
 592:..\..\..\lvgl\version_6.1.2\lvgl\src\lv_objx/lv_btn.c ****                 toggled = 1;
 593:..\..\..\lvgl\version_6.1.2\lvgl\src\lv_objx/lv_btn.c ****             } else if(ext->state == LV_BTN_STATE_TGL_PR && tgl == true) {
 594:..\..\..\lvgl\version_6.1.2\lvgl\src\lv_objx/lv_btn.c ****                 lv_btn_set_state(btn, LV_BTN_STATE_REL);
 595:..\..\..\lvgl\version_6.1.2\lvgl\src\lv_objx/lv_btn.c ****                 toggled = 0;
 596:..\..\..\lvgl\version_6.1.2\lvgl\src\lv_objx/lv_btn.c ****             }
 597:..\..\..\lvgl\version_6.1.2\lvgl\src\lv_objx/lv_btn.c **** 
 598:..\..\..\lvgl\version_6.1.2\lvgl\src\lv_objx/lv_btn.c ****             if(tgl) {
 599:..\..\..\lvgl\version_6.1.2\lvgl\src\lv_objx/lv_btn.c ****                 res = lv_event_send(btn, LV_EVENT_VALUE_CHANGED, &toggled);
 600:..\..\..\lvgl\version_6.1.2\lvgl\src\lv_objx/lv_btn.c ****                 if(res != LV_RES_OK) return res;
 601:..\..\..\lvgl\version_6.1.2\lvgl\src\lv_objx/lv_btn.c ****             }
 602:..\..\..\lvgl\version_6.1.2\lvgl\src\lv_objx/lv_btn.c **** 
 603:..\..\..\lvgl\version_6.1.2\lvgl\src\lv_objx/lv_btn.c ****         } else { /*If dragged change back the state*/
 604:..\..\..\lvgl\version_6.1.2\lvgl\src\lv_objx/lv_btn.c ****             if(ext->state == LV_BTN_STATE_PR) {
 605:..\..\..\lvgl\version_6.1.2\lvgl\src\lv_objx/lv_btn.c ****                 lv_btn_set_state(btn, LV_BTN_STATE_REL);
 606:..\..\..\lvgl\version_6.1.2\lvgl\src\lv_objx/lv_btn.c ****             } else if(ext->state == LV_BTN_STATE_TGL_PR) {
 607:..\..\..\lvgl\version_6.1.2\lvgl\src\lv_objx/lv_btn.c ****                 lv_btn_set_state(btn, LV_BTN_STATE_TGL_REL);
 608:..\..\..\lvgl\version_6.1.2\lvgl\src\lv_objx/lv_btn.c ****             }
 609:..\..\..\lvgl\version_6.1.2\lvgl\src\lv_objx/lv_btn.c ****         }
 610:..\..\..\lvgl\version_6.1.2\lvgl\src\lv_objx/lv_btn.c **** 
 611:..\..\..\lvgl\version_6.1.2\lvgl\src\lv_objx/lv_btn.c **** #if LV_USE_ANIMATION && LV_BTN_INK_EFFECT
 612:..\..\..\lvgl\version_6.1.2\lvgl\src\lv_objx/lv_btn.c ****         /*Draw the toggled state in the inking instead*/
 613:..\..\..\lvgl\version_6.1.2\lvgl\src\lv_objx/lv_btn.c ****         if(ext->toggle) {
 614:..\..\..\lvgl\version_6.1.2\lvgl\src\lv_objx/lv_btn.c ****             ink_top_state = ext->state;
 615:..\..\..\lvgl\version_6.1.2\lvgl\src\lv_objx/lv_btn.c ****         }
 616:..\..\..\lvgl\version_6.1.2\lvgl\src\lv_objx/lv_btn.c ****         /*If not a toggle button and the "IN" inking is ready then start an "OUT" inking*/
 617:..\..\..\lvgl\version_6.1.2\lvgl\src\lv_objx/lv_btn.c ****         else if(ink_ready && ext->ink_out_time > 0) {
 618:..\..\..\lvgl\version_6.1.2\lvgl\src\lv_objx/lv_btn.c ****             ink_obj      = btn;
 619:..\..\..\lvgl\version_6.1.2\lvgl\src\lv_objx/lv_btn.c ****             ink_playback = true; /*It is the playback. If not set `lv_btn_ink_effect_anim_ready`
 620:..\..\..\lvgl\version_6.1.2\lvgl\src\lv_objx/lv_btn.c ****                                     will start its own playback*/
 621:..\..\..\lvgl\version_6.1.2\lvgl\src\lv_objx/lv_btn.c ****             lv_indev_get_point(lv_indev_get_act(), &ink_point);
 622:..\..\..\lvgl\version_6.1.2\lvgl\src\lv_objx/lv_btn.c **** 
 623:..\..\..\lvgl\version_6.1.2\lvgl\src\lv_objx/lv_btn.c ****             lv_anim_t a;
 624:..\..\..\lvgl\version_6.1.2\lvgl\src\lv_objx/lv_btn.c ****             a.var            = ink_obj;
 625:..\..\..\lvgl\version_6.1.2\lvgl\src\lv_objx/lv_btn.c ****             a.start          = LV_BTN_INK_VALUE_MAX;
 626:..\..\..\lvgl\version_6.1.2\lvgl\src\lv_objx/lv_btn.c ****             a.end            = 0;
 627:..\..\..\lvgl\version_6.1.2\lvgl\src\lv_objx/lv_btn.c ****             a.exec_cb        = (lv_anim_exec_xcb_t)lv_btn_ink_effect_anim;
 628:..\..\..\lvgl\version_6.1.2\lvgl\src\lv_objx/lv_btn.c ****             a.path_cb        = lv_anim_path_linear;
 629:..\..\..\lvgl\version_6.1.2\lvgl\src\lv_objx/lv_btn.c ****             a.ready_cb       = lv_btn_ink_effect_anim_ready;
 630:..\..\..\lvgl\version_6.1.2\lvgl\src\lv_objx/lv_btn.c ****             a.act_time       = 0;
 631:..\..\..\lvgl\version_6.1.2\lvgl\src\lv_objx/lv_btn.c ****             a.time           = ext->ink_out_time;
 632:..\..\..\lvgl\version_6.1.2\lvgl\src\lv_objx/lv_btn.c ****             a.playback       = 0;
 633:..\..\..\lvgl\version_6.1.2\lvgl\src\lv_objx/lv_btn.c ****             a.playback_pause = 0;
 634:..\..\..\lvgl\version_6.1.2\lvgl\src\lv_objx/lv_btn.c ****             a.repeat         = 0;
 635:..\..\..\lvgl\version_6.1.2\lvgl\src\lv_objx/lv_btn.c ****             a.repeat_pause   = 0;
 636:..\..\..\lvgl\version_6.1.2\lvgl\src\lv_objx/lv_btn.c ****             lv_anim_create(&a);
 637:..\..\..\lvgl\version_6.1.2\lvgl\src\lv_objx/lv_btn.c ****         }
 638:..\..\..\lvgl\version_6.1.2\lvgl\src\lv_objx/lv_btn.c **** #endif
 639:..\..\..\lvgl\version_6.1.2\lvgl\src\lv_objx/lv_btn.c ****     } else if(sign == LV_SIGNAL_CONTROL) {
 640:..\..\..\lvgl\version_6.1.2\lvgl\src\lv_objx/lv_btn.c ****         char c = *((char *)param);
 641:..\..\..\lvgl\version_6.1.2\lvgl\src\lv_objx/lv_btn.c ****         if(c == LV_KEY_RIGHT || c == LV_KEY_UP) {
 642:..\..\..\lvgl\version_6.1.2\lvgl\src\lv_objx/lv_btn.c ****             if(lv_btn_get_toggle(btn)) {
 643:..\..\..\lvgl\version_6.1.2\lvgl\src\lv_objx/lv_btn.c ****                 lv_btn_set_state(btn, LV_BTN_STATE_TGL_REL);
 644:..\..\..\lvgl\version_6.1.2\lvgl\src\lv_objx/lv_btn.c **** 
 645:..\..\..\lvgl\version_6.1.2\lvgl\src\lv_objx/lv_btn.c ****                 uint32_t state = 1;
 646:..\..\..\lvgl\version_6.1.2\lvgl\src\lv_objx/lv_btn.c ****                 res            = lv_event_send(btn, LV_EVENT_VALUE_CHANGED, &state);
 647:..\..\..\lvgl\version_6.1.2\lvgl\src\lv_objx/lv_btn.c ****                 if(res != LV_RES_OK) return res;
ARM GAS  C:\Users\pearlstl\AppData\Local\Temp\ccbEAAPX.s 			page 17


 648:..\..\..\lvgl\version_6.1.2\lvgl\src\lv_objx/lv_btn.c ****             }
 649:..\..\..\lvgl\version_6.1.2\lvgl\src\lv_objx/lv_btn.c **** 
 650:..\..\..\lvgl\version_6.1.2\lvgl\src\lv_objx/lv_btn.c ****         } else if(c == LV_KEY_LEFT || c == LV_KEY_DOWN) {
 651:..\..\..\lvgl\version_6.1.2\lvgl\src\lv_objx/lv_btn.c ****             if(lv_btn_get_toggle(btn)) {
 652:..\..\..\lvgl\version_6.1.2\lvgl\src\lv_objx/lv_btn.c ****                 lv_btn_set_state(btn, LV_BTN_STATE_REL);
 653:..\..\..\lvgl\version_6.1.2\lvgl\src\lv_objx/lv_btn.c **** 
 654:..\..\..\lvgl\version_6.1.2\lvgl\src\lv_objx/lv_btn.c ****                 uint32_t state = 0;
 655:..\..\..\lvgl\version_6.1.2\lvgl\src\lv_objx/lv_btn.c ****                 res            = lv_event_send(btn, LV_EVENT_VALUE_CHANGED, &state);
 656:..\..\..\lvgl\version_6.1.2\lvgl\src\lv_objx/lv_btn.c ****                 if(res != LV_RES_OK) return res;
 657:..\..\..\lvgl\version_6.1.2\lvgl\src\lv_objx/lv_btn.c ****             }
 658:..\..\..\lvgl\version_6.1.2\lvgl\src\lv_objx/lv_btn.c ****         }
 659:..\..\..\lvgl\version_6.1.2\lvgl\src\lv_objx/lv_btn.c ****     } else if(sign == LV_SIGNAL_CLEANUP) {
 660:..\..\..\lvgl\version_6.1.2\lvgl\src\lv_objx/lv_btn.c **** #if LV_USE_ANIMATION && LV_BTN_INK_EFFECT
 661:..\..\..\lvgl\version_6.1.2\lvgl\src\lv_objx/lv_btn.c ****         if(btn == ink_obj) {
 662:..\..\..\lvgl\version_6.1.2\lvgl\src\lv_objx/lv_btn.c ****             lv_anim_del(ink_obj, (lv_anim_exec_xcb_t)lv_btn_ink_effect_anim);
 663:..\..\..\lvgl\version_6.1.2\lvgl\src\lv_objx/lv_btn.c ****             ink_obj = NULL;
 664:..\..\..\lvgl\version_6.1.2\lvgl\src\lv_objx/lv_btn.c ****         }
 665:..\..\..\lvgl\version_6.1.2\lvgl\src\lv_objx/lv_btn.c **** #endif
 666:..\..\..\lvgl\version_6.1.2\lvgl\src\lv_objx/lv_btn.c ****     }
 667:..\..\..\lvgl\version_6.1.2\lvgl\src\lv_objx/lv_btn.c **** 
 668:..\..\..\lvgl\version_6.1.2\lvgl\src\lv_objx/lv_btn.c ****     return res;
 669:..\..\..\lvgl\version_6.1.2\lvgl\src\lv_objx/lv_btn.c **** }
 240              		.loc 1 669 0
 241 001a 2846     		mov	r0, r5
 242 001c 02B0     		add	sp, sp, #8
 243              		.cfi_remember_state
 244              		.cfi_def_cfa_offset 24
 245              		@ sp needed
 246 001e BDE8F081 		pop	{r4, r5, r6, r7, r8, pc}
 247              	.LVL22:
 248              	.L87:
 249              		.cfi_restore_state
 514:..\..\..\lvgl\version_6.1.2\lvgl\src\lv_objx/lv_btn.c ****     if(sign == LV_SIGNAL_GET_TYPE) return lv_obj_handle_get_type_signal(param, LV_OBJX_NAME);
 250              		.loc 1 514 0
 251 0022 072D     		cmp	r5, #7
 252 0024 4CD0     		beq	.L88
 516:..\..\..\lvgl\version_6.1.2\lvgl\src\lv_objx/lv_btn.c ****     bool tgl           = lv_btn_get_toggle(btn);
 253              		.loc 1 516 0
 254 0026 3046     		mov	r0, r6
 255              	.LVL23:
 256 0028 FFF7FEFF 		bl	lv_obj_get_ext_attr
 257              	.LVL24:
 258 002c 8046     		mov	r8, r0
 259              	.LVL25:
 260              	.LBB44:
 261              	.LBB45:
 315:..\..\..\lvgl\version_6.1.2\lvgl\src\lv_objx/lv_btn.c **** 
 262              		.loc 1 315 0
 263 002e 3046     		mov	r0, r6
 264              	.LVL26:
 265 0030 FFF7FEFF 		bl	lv_obj_get_ext_attr
 266              	.LVL27:
 267              	.LBE45:
 268              	.LBE44:
 519:..\..\..\lvgl\version_6.1.2\lvgl\src\lv_objx/lv_btn.c ****         /*Refresh the state*/
 269              		.loc 1 519 0
 270 0034 082D     		cmp	r5, #8
ARM GAS  C:\Users\pearlstl\AppData\Local\Temp\ccbEAAPX.s 			page 18


 271              	.LBB50:
 272              	.LBB46:
 315:..\..\..\lvgl\version_6.1.2\lvgl\src\lv_objx/lv_btn.c **** 
 273              		.loc 1 315 0
 274 0036 0346     		mov	r3, r0
 275              	.LVL28:
 276              	.LBE46:
 277              	.LBE50:
 519:..\..\..\lvgl\version_6.1.2\lvgl\src\lv_objx/lv_btn.c ****         /*Refresh the state*/
 278              		.loc 1 519 0
 279 0038 28D0     		beq	.L89
 565:..\..\..\lvgl\version_6.1.2\lvgl\src\lv_objx/lv_btn.c ****         /*Refresh the state*/
 280              		.loc 1 565 0
 281 003a 0A2D     		cmp	r5, #10
 282 003c 0AD0     		beq	.L90
 571:..\..\..\lvgl\version_6.1.2\lvgl\src\lv_objx/lv_btn.c ****         /*When the button begins to drag revert pressed states to released*/
 283              		.loc 1 571 0
 284 003e 092D     		cmp	r5, #9
 285 0040 6AD0     		beq	.L91
 579:..\..\..\lvgl\version_6.1.2\lvgl\src\lv_objx/lv_btn.c ****         /*If not dragged and it was not long press action then
 286              		.loc 1 579 0
 287 0042 0B2D     		cmp	r5, #11
 288 0044 7AD0     		beq	.L92
 639:..\..\..\lvgl\version_6.1.2\lvgl\src\lv_objx/lv_btn.c ****         char c = *((char *)param);
 289              		.loc 1 639 0
 290 0046 122D     		cmp	r5, #18
 291 0048 40D0     		beq	.L93
 292              	.L33:
 293              	.LVL29:
 294 004a 0125     		movs	r5, #1
 295              		.loc 1 669 0
 296 004c 2846     		mov	r0, r5
 297 004e 02B0     		add	sp, sp, #8
 298              		.cfi_remember_state
 299              		.cfi_def_cfa_offset 24
 300              		@ sp needed
 301 0050 BDE8F081 		pop	{r4, r5, r6, r7, r8, pc}
 302              	.LVL30:
 303              	.L90:
 304              		.cfi_restore_state
 567:..\..\..\lvgl\version_6.1.2\lvgl\src\lv_objx/lv_btn.c ****             lv_btn_set_state(btn, LV_BTN_STATE_REL);
 305              		.loc 1 567 0
 306 0054 98F81850 		ldrb	r5, [r8, #24]	@ zero_extendqisi2
 307 0058 05F00705 		and	r5, r5, #7
 308 005c 012D     		cmp	r5, #1
 309 005e 00F0B980 		beq	.L94
 569:..\..\..\lvgl\version_6.1.2\lvgl\src\lv_objx/lv_btn.c ****             lv_btn_set_state(btn, LV_BTN_STATE_TGL_REL);
 310              		.loc 1 569 0
 311 0062 032D     		cmp	r5, #3
 312 0064 F1D1     		bne	.L33
 313              	.LVL31:
 314              	.LBB51:
 315              	.LBB52:
 179:..\..\..\lvgl\version_6.1.2\lvgl\src\lv_objx/lv_btn.c ****     if(ext->state != state) {
 316              		.loc 1 179 0
 317 0066 3046     		mov	r0, r6
 318 0068 FFF7FEFF 		bl	lv_obj_get_ext_attr
ARM GAS  C:\Users\pearlstl\AppData\Local\Temp\ccbEAAPX.s 			page 19


 319              	.LVL32:
 180:..\..\..\lvgl\version_6.1.2\lvgl\src\lv_objx/lv_btn.c ****         ext->state = state;
 320              		.loc 1 180 0
 321 006c 037E     		ldrb	r3, [r0, #24]	@ zero_extendqisi2
 322 006e 03F00701 		and	r1, r3, #7
 323 0072 0229     		cmp	r1, #2
 179:..\..\..\lvgl\version_6.1.2\lvgl\src\lv_objx/lv_btn.c ****     if(ext->state != state) {
 324              		.loc 1 179 0
 325 0074 0246     		mov	r2, r0
 326              	.LVL33:
 180:..\..\..\lvgl\version_6.1.2\lvgl\src\lv_objx/lv_btn.c ****         ext->state = state;
 327              		.loc 1 180 0
 328 0076 E8D0     		beq	.L33
 181:..\..\..\lvgl\version_6.1.2\lvgl\src\lv_objx/lv_btn.c ****         lv_obj_set_style(btn, ext->styles[state]);
 329              		.loc 1 181 0
 330 0078 0221     		movs	r1, #2
 331 007a 61F30203 		bfi	r3, r1, #0, #3
 182:..\..\..\lvgl\version_6.1.2\lvgl\src\lv_objx/lv_btn.c ****     }
 332              		.loc 1 182 0
 333 007e 3046     		mov	r0, r6
 334              	.LVL34:
 181:..\..\..\lvgl\version_6.1.2\lvgl\src\lv_objx/lv_btn.c ****         lv_obj_set_style(btn, ext->styles[state]);
 335              		.loc 1 181 0
 336 0080 1376     		strb	r3, [r2, #24]
 182:..\..\..\lvgl\version_6.1.2\lvgl\src\lv_objx/lv_btn.c ****     }
 337              		.loc 1 182 0
 338 0082 D168     		ldr	r1, [r2, #12]
 339 0084 2546     		mov	r5, r4
 340 0086 FFF7FEFF 		bl	lv_obj_set_style
 341              	.LVL35:
 342 008a C6E7     		b	.L80
 343              	.LVL36:
 344              	.L89:
 345              	.LBE52:
 346              	.LBE51:
 521:..\..\..\lvgl\version_6.1.2\lvgl\src\lv_objx/lv_btn.c ****             lv_btn_set_state(btn, LV_BTN_STATE_PR);
 347              		.loc 1 521 0
 348 008c 98F81830 		ldrb	r3, [r8, #24]	@ zero_extendqisi2
 349 0090 13F00703 		ands	r3, r3, #7
 350 0094 71D0     		beq	.L95
 527:..\..\..\lvgl\version_6.1.2\lvgl\src\lv_objx/lv_btn.c ****             lv_btn_set_state(btn, LV_BTN_STATE_TGL_PR);
 351              		.loc 1 527 0
 352 0096 022B     		cmp	r3, #2
 353 0098 D7D1     		bne	.L33
 354              	.LVL37:
 355              	.LBB53:
 356              	.LBB54:
 179:..\..\..\lvgl\version_6.1.2\lvgl\src\lv_objx/lv_btn.c ****     if(ext->state != state) {
 357              		.loc 1 179 0
 358 009a 3046     		mov	r0, r6
 359 009c FFF7FEFF 		bl	lv_obj_get_ext_attr
 360              	.LVL38:
 180:..\..\..\lvgl\version_6.1.2\lvgl\src\lv_objx/lv_btn.c ****         ext->state = state;
 361              		.loc 1 180 0
 362 00a0 037E     		ldrb	r3, [r0, #24]	@ zero_extendqisi2
 363 00a2 03F00701 		and	r1, r3, #7
 364 00a6 0329     		cmp	r1, #3
ARM GAS  C:\Users\pearlstl\AppData\Local\Temp\ccbEAAPX.s 			page 20


 179:..\..\..\lvgl\version_6.1.2\lvgl\src\lv_objx/lv_btn.c ****     if(ext->state != state) {
 365              		.loc 1 179 0
 366 00a8 0246     		mov	r2, r0
 367              	.LVL39:
 180:..\..\..\lvgl\version_6.1.2\lvgl\src\lv_objx/lv_btn.c ****         ext->state = state;
 368              		.loc 1 180 0
 369 00aa CED0     		beq	.L33
 181:..\..\..\lvgl\version_6.1.2\lvgl\src\lv_objx/lv_btn.c ****         lv_obj_set_style(btn, ext->styles[state]);
 370              		.loc 1 181 0
 371 00ac 0321     		movs	r1, #3
 372 00ae 61F30203 		bfi	r3, r1, #0, #3
 182:..\..\..\lvgl\version_6.1.2\lvgl\src\lv_objx/lv_btn.c ****     }
 373              		.loc 1 182 0
 374 00b2 3046     		mov	r0, r6
 375              	.LVL40:
 181:..\..\..\lvgl\version_6.1.2\lvgl\src\lv_objx/lv_btn.c ****         lv_obj_set_style(btn, ext->styles[state]);
 376              		.loc 1 181 0
 377 00b4 1376     		strb	r3, [r2, #24]
 182:..\..\..\lvgl\version_6.1.2\lvgl\src\lv_objx/lv_btn.c ****     }
 378              		.loc 1 182 0
 379 00b6 1169     		ldr	r1, [r2, #16]
 380 00b8 2546     		mov	r5, r4
 381 00ba FFF7FEFF 		bl	lv_obj_set_style
 382              	.LVL41:
 383 00be ACE7     		b	.L80
 384              	.LVL42:
 385              	.L88:
 386              	.LBE54:
 387              	.LBE53:
 514:..\..\..\lvgl\version_6.1.2\lvgl\src\lv_objx/lv_btn.c **** 
 388              		.loc 1 514 0 discriminator 1
 389 00c0 3846     		mov	r0, r7
 390              	.LVL43:
 391 00c2 5949     		ldr	r1, .L102+4
 392 00c4 FFF7FEFF 		bl	lv_obj_handle_get_type_signal
 393              	.LVL44:
 394 00c8 0546     		mov	r5, r0
 395 00ca A6E7     		b	.L80
 396              	.LVL45:
 397              	.L93:
 398              	.LBB55:
 640:..\..\..\lvgl\version_6.1.2\lvgl\src\lv_objx/lv_btn.c ****         if(c == LV_KEY_RIGHT || c == LV_KEY_UP) {
 399              		.loc 1 640 0
 400 00cc 3B78     		ldrb	r3, [r7]	@ zero_extendqisi2
 401              	.LVL46:
 641:..\..\..\lvgl\version_6.1.2\lvgl\src\lv_objx/lv_btn.c ****             if(lv_btn_get_toggle(btn)) {
 402              		.loc 1 641 0
 403 00ce 03F0FD02 		and	r2, r3, #253
 404 00d2 112A     		cmp	r2, #17
 405 00d4 63D0     		beq	.L96
 650:..\..\..\lvgl\version_6.1.2\lvgl\src\lv_objx/lv_btn.c ****             if(lv_btn_get_toggle(btn)) {
 406              		.loc 1 650 0
 407 00d6 142B     		cmp	r3, #20
 408 00d8 01D0     		beq	.L42
 650:..\..\..\lvgl\version_6.1.2\lvgl\src\lv_objx/lv_btn.c ****             if(lv_btn_get_toggle(btn)) {
 409              		.loc 1 650 0 is_stmt 0 discriminator 1
 410 00da 122B     		cmp	r3, #18
ARM GAS  C:\Users\pearlstl\AppData\Local\Temp\ccbEAAPX.s 			page 21


 411 00dc B5D1     		bne	.L33
 412              	.L42:
 413              	.LVL47:
 414              	.LBB56:
 415              	.LBB57:
 315:..\..\..\lvgl\version_6.1.2\lvgl\src\lv_objx/lv_btn.c **** 
 416              		.loc 1 315 0 is_stmt 1
 417 00de 3046     		mov	r0, r6
 418 00e0 FFF7FEFF 		bl	lv_obj_get_ext_attr
 419              	.LVL48:
 420              	.LBE57:
 421              	.LBE56:
 651:..\..\..\lvgl\version_6.1.2\lvgl\src\lv_objx/lv_btn.c ****                 lv_btn_set_state(btn, LV_BTN_STATE_REL);
 422              		.loc 1 651 0
 423 00e4 037E     		ldrb	r3, [r0, #24]	@ zero_extendqisi2
 424 00e6 1907     		lsls	r1, r3, #28
 425 00e8 AFD5     		bpl	.L33
 426              	.LVL49:
 427              	.LBB58:
 428              	.LBB59:
 429              	.LBB60:
 179:..\..\..\lvgl\version_6.1.2\lvgl\src\lv_objx/lv_btn.c ****     if(ext->state != state) {
 430              		.loc 1 179 0
 431 00ea 3046     		mov	r0, r6
 432 00ec FFF7FEFF 		bl	lv_obj_get_ext_attr
 433              	.LVL50:
 180:..\..\..\lvgl\version_6.1.2\lvgl\src\lv_objx/lv_btn.c ****         ext->state = state;
 434              		.loc 1 180 0
 435 00f0 037E     		ldrb	r3, [r0, #24]	@ zero_extendqisi2
 436 00f2 5A07     		lsls	r2, r3, #29
 437 00f4 06D0     		beq	.L43
 181:..\..\..\lvgl\version_6.1.2\lvgl\src\lv_objx/lv_btn.c ****         lv_obj_set_style(btn, ext->styles[state]);
 438              		.loc 1 181 0
 439 00f6 6FF30203 		bfc	r3, #0, #3
 440 00fa 0376     		strb	r3, [r0, #24]
 182:..\..\..\lvgl\version_6.1.2\lvgl\src\lv_objx/lv_btn.c ****     }
 441              		.loc 1 182 0
 442 00fc 4168     		ldr	r1, [r0, #4]
 443 00fe 3046     		mov	r0, r6
 444              	.LVL51:
 445 0100 FFF7FEFF 		bl	lv_obj_set_style
 446              	.LVL52:
 447              	.L43:
 448              	.LBE60:
 449              	.LBE59:
 654:..\..\..\lvgl\version_6.1.2\lvgl\src\lv_objx/lv_btn.c ****                 res            = lv_event_send(btn, LV_EVENT_VALUE_CHANGED, &state);
 450              		.loc 1 654 0
 451 0104 02AA     		add	r2, sp, #8
 452 0106 0023     		movs	r3, #0
 453              	.L83:
 454 0108 42F8043D 		str	r3, [r2, #-4]!
 655:..\..\..\lvgl\version_6.1.2\lvgl\src\lv_objx/lv_btn.c ****                 if(res != LV_RES_OK) return res;
 455              		.loc 1 655 0
 456 010c 3046     		mov	r0, r6
 457 010e 0E21     		movs	r1, #14
 458 0110 FFF7FEFF 		bl	lv_event_send
 459              	.LVL53:
ARM GAS  C:\Users\pearlstl\AppData\Local\Temp\ccbEAAPX.s 			page 22


 656:..\..\..\lvgl\version_6.1.2\lvgl\src\lv_objx/lv_btn.c ****             }
 460              		.loc 1 656 0
 461 0114 0546     		mov	r5, r0
 462 0116 80E7     		b	.L80
 463              	.LVL54:
 464              	.L91:
 465              	.LBE58:
 466              	.LBE55:
 573:..\..\..\lvgl\version_6.1.2\lvgl\src\lv_objx/lv_btn.c ****             if(ext->state == LV_BTN_STATE_PR)
 467              		.loc 1 573 0
 468 0118 3846     		mov	r0, r7
 469 011a FFF7FEFF 		bl	lv_indev_is_dragging
 470              	.LVL55:
 471 011e 0028     		cmp	r0, #0
 472 0120 93D0     		beq	.L33
 473              	.L85:
 574:..\..\..\lvgl\version_6.1.2\lvgl\src\lv_objx/lv_btn.c ****                 lv_btn_set_state(btn, LV_BTN_STATE_REL);
 474              		.loc 1 574 0
 475 0122 98F81830 		ldrb	r3, [r8, #24]	@ zero_extendqisi2
 476 0126 03F00703 		and	r3, r3, #7
 477 012a 012B     		cmp	r3, #1
 478 012c 6ED0     		beq	.L97
 576:..\..\..\lvgl\version_6.1.2\lvgl\src\lv_objx/lv_btn.c ****                 lv_btn_set_state(btn, LV_BTN_STATE_TGL_REL);
 479              		.loc 1 576 0
 480 012e 032B     		cmp	r3, #3
 481 0130 8BD1     		bne	.L33
 577:..\..\..\lvgl\version_6.1.2\lvgl\src\lv_objx/lv_btn.c ****         }
 482              		.loc 1 577 0
 483 0132 3046     		mov	r0, r6
 484 0134 FFF7FEFF 		bl	lv_btn_set_state.constprop.3
 485              	.LVL56:
 486 0138 0125     		movs	r5, #1
 487 013a 6EE7     		b	.L80
 488              	.L92:
 582:..\..\..\lvgl\version_6.1.2\lvgl\src\lv_objx/lv_btn.c ****             uint32_t toggled = 0;
 489              		.loc 1 582 0
 490 013c 3846     		mov	r0, r7
 491              	.LBB67:
 492              	.LBB47:
 317:..\..\..\lvgl\version_6.1.2\lvgl\src\lv_objx/lv_btn.c **** }
 493              		.loc 1 317 0
 494 013e 1C7E     		ldrb	r4, [r3, #24]	@ zero_extendqisi2
 495              	.LBE47:
 496              	.LBE67:
 582:..\..\..\lvgl\version_6.1.2\lvgl\src\lv_objx/lv_btn.c ****             uint32_t toggled = 0;
 497              		.loc 1 582 0
 498 0140 FFF7FEFF 		bl	lv_indev_is_dragging
 499              	.LVL57:
 500 0144 0028     		cmp	r0, #0
 501 0146 ECD1     		bne	.L85
 502              	.LBB68:
 584:..\..\..\lvgl\version_6.1.2\lvgl\src\lv_objx/lv_btn.c ****                 lv_btn_set_state(btn, LV_BTN_STATE_REL);
 503              		.loc 1 584 0
 504 0148 98F81850 		ldrb	r5, [r8, #24]	@ zero_extendqisi2
 583:..\..\..\lvgl\version_6.1.2\lvgl\src\lv_objx/lv_btn.c ****             if(ext->state == LV_BTN_STATE_PR && tgl == false) {
 505              		.loc 1 583 0
 506 014c 0190     		str	r0, [sp, #4]
ARM GAS  C:\Users\pearlstl\AppData\Local\Temp\ccbEAAPX.s 			page 23


 584:..\..\..\lvgl\version_6.1.2\lvgl\src\lv_objx/lv_btn.c ****                 lv_btn_set_state(btn, LV_BTN_STATE_REL);
 507              		.loc 1 584 0
 508 014e 05F00705 		and	r5, r5, #7
 509              	.LBE68:
 510              	.LBB69:
 511              	.LBB48:
 317:..\..\..\lvgl\version_6.1.2\lvgl\src\lv_objx/lv_btn.c **** }
 512              		.loc 1 317 0
 513 0152 04F00804 		and	r4, r4, #8
 514              	.LBE48:
 515              	.LBE69:
 516              	.LBB70:
 584:..\..\..\lvgl\version_6.1.2\lvgl\src\lv_objx/lv_btn.c ****                 lv_btn_set_state(btn, LV_BTN_STATE_REL);
 517              		.loc 1 584 0
 518 0156 012D     		cmp	r5, #1
 519              	.LBE70:
 520              	.LBB71:
 521              	.LBB49:
 317:..\..\..\lvgl\version_6.1.2\lvgl\src\lv_objx/lv_btn.c **** }
 522              		.loc 1 317 0
 523 0158 E4B2     		uxtb	r4, r4
 524              	.LBE49:
 525              	.LBE71:
 526              	.LBB72:
 584:..\..\..\lvgl\version_6.1.2\lvgl\src\lv_objx/lv_btn.c ****                 lv_btn_set_state(btn, LV_BTN_STATE_REL);
 527              		.loc 1 584 0
 528 015a 4AD0     		beq	.L98
 587:..\..\..\lvgl\version_6.1.2\lvgl\src\lv_objx/lv_btn.c ****                 lv_btn_set_state(btn, LV_BTN_STATE_TGL_REL);
 529              		.loc 1 587 0
 530 015c 032D     		cmp	r5, #3
 531 015e 4ED0     		beq	.L99
 598:..\..\..\lvgl\version_6.1.2\lvgl\src\lv_objx/lv_btn.c ****                 res = lv_event_send(btn, LV_EVENT_VALUE_CHANGED, &toggled);
 532              		.loc 1 598 0
 533 0160 002C     		cmp	r4, #0
 534 0162 3FF472AF 		beq	.L33
 535              	.L36:
 599:..\..\..\lvgl\version_6.1.2\lvgl\src\lv_objx/lv_btn.c ****                 if(res != LV_RES_OK) return res;
 536              		.loc 1 599 0
 537 0166 3046     		mov	r0, r6
 538 0168 01AA     		add	r2, sp, #4
 539 016a 0E21     		movs	r1, #14
 540 016c FFF7FEFF 		bl	lv_event_send
 541              	.LVL58:
 600:..\..\..\lvgl\version_6.1.2\lvgl\src\lv_objx/lv_btn.c ****             }
 542              		.loc 1 600 0
 543 0170 0128     		cmp	r0, #1
 544 0172 3FF46AAF 		beq	.L33
 545              	.LBE72:
 546              	.LBB73:
 547              	.LBB61:
 656:..\..\..\lvgl\version_6.1.2\lvgl\src\lv_objx/lv_btn.c ****             }
 548              		.loc 1 656 0
 549 0176 0546     		mov	r5, r0
 550 0178 4FE7     		b	.L80
 551              	.LVL59:
 552              	.L95:
 553              	.LBE61:
ARM GAS  C:\Users\pearlstl\AppData\Local\Temp\ccbEAAPX.s 			page 24


 554              	.LBE73:
 555              	.LBB74:
 556              	.LBB75:
 179:..\..\..\lvgl\version_6.1.2\lvgl\src\lv_objx/lv_btn.c ****     if(ext->state != state) {
 557              		.loc 1 179 0
 558 017a 3046     		mov	r0, r6
 559 017c FFF7FEFF 		bl	lv_obj_get_ext_attr
 560              	.LVL60:
 180:..\..\..\lvgl\version_6.1.2\lvgl\src\lv_objx/lv_btn.c ****         ext->state = state;
 561              		.loc 1 180 0
 562 0180 037E     		ldrb	r3, [r0, #24]	@ zero_extendqisi2
 563 0182 03F00702 		and	r2, r3, #7
 564 0186 012A     		cmp	r2, #1
 565 0188 3FF45FAF 		beq	.L33
 181:..\..\..\lvgl\version_6.1.2\lvgl\src\lv_objx/lv_btn.c ****         lv_obj_set_style(btn, ext->styles[state]);
 566              		.loc 1 181 0
 567 018c 64F30203 		bfi	r3, r4, #0, #3
 568 0190 0376     		strb	r3, [r0, #24]
 182:..\..\..\lvgl\version_6.1.2\lvgl\src\lv_objx/lv_btn.c ****     }
 569              		.loc 1 182 0
 570 0192 8168     		ldr	r1, [r0, #8]
 571 0194 3046     		mov	r0, r6
 572              	.LVL61:
 573 0196 FFF7FEFF 		bl	lv_obj_set_style
 574              	.LVL62:
 575 019a 2546     		mov	r5, r4
 576 019c 3DE7     		b	.L80
 577              	.LVL63:
 578              	.L96:
 579              	.LBE75:
 580              	.LBE74:
 581              	.LBB76:
 582              	.LBB62:
 583              	.LBB63:
 315:..\..\..\lvgl\version_6.1.2\lvgl\src\lv_objx/lv_btn.c **** 
 584              		.loc 1 315 0
 585 019e 3046     		mov	r0, r6
 586 01a0 FFF7FEFF 		bl	lv_obj_get_ext_attr
 587              	.LVL64:
 588              	.LBE63:
 589              	.LBE62:
 642:..\..\..\lvgl\version_6.1.2\lvgl\src\lv_objx/lv_btn.c ****                 lv_btn_set_state(btn, LV_BTN_STATE_TGL_REL);
 590              		.loc 1 642 0
 591 01a4 037E     		ldrb	r3, [r0, #24]	@ zero_extendqisi2
 592 01a6 1807     		lsls	r0, r3, #28
 593 01a8 7FF54FAF 		bpl	.L33
 594              	.LVL65:
 595              	.LBB64:
 596              	.LBB65:
 597              	.LBB66:
 179:..\..\..\lvgl\version_6.1.2\lvgl\src\lv_objx/lv_btn.c ****     if(ext->state != state) {
 598              		.loc 1 179 0
 599 01ac 3046     		mov	r0, r6
 600 01ae FFF7FEFF 		bl	lv_obj_get_ext_attr
 601              	.LVL66:
 180:..\..\..\lvgl\version_6.1.2\lvgl\src\lv_objx/lv_btn.c ****         ext->state = state;
 602              		.loc 1 180 0
ARM GAS  C:\Users\pearlstl\AppData\Local\Temp\ccbEAAPX.s 			page 25


 603 01b2 037E     		ldrb	r3, [r0, #24]	@ zero_extendqisi2
 604 01b4 03F00703 		and	r3, r3, #7
 605 01b8 022B     		cmp	r3, #2
 606 01ba 08D0     		beq	.L40
 181:..\..\..\lvgl\version_6.1.2\lvgl\src\lv_objx/lv_btn.c ****         lv_obj_set_style(btn, ext->styles[state]);
 607              		.loc 1 181 0
 608 01bc 037E     		ldrb	r3, [r0, #24]	@ zero_extendqisi2
 182:..\..\..\lvgl\version_6.1.2\lvgl\src\lv_objx/lv_btn.c ****     }
 609              		.loc 1 182 0
 610 01be C168     		ldr	r1, [r0, #12]
 181:..\..\..\lvgl\version_6.1.2\lvgl\src\lv_objx/lv_btn.c ****         lv_obj_set_style(btn, ext->styles[state]);
 611              		.loc 1 181 0
 612 01c0 0222     		movs	r2, #2
 613 01c2 62F30203 		bfi	r3, r2, #0, #3
 614 01c6 0376     		strb	r3, [r0, #24]
 182:..\..\..\lvgl\version_6.1.2\lvgl\src\lv_objx/lv_btn.c ****     }
 615              		.loc 1 182 0
 616 01c8 3046     		mov	r0, r6
 617              	.LVL67:
 618 01ca FFF7FEFF 		bl	lv_obj_set_style
 619              	.LVL68:
 620              	.L40:
 621              	.LBE66:
 622              	.LBE65:
 645:..\..\..\lvgl\version_6.1.2\lvgl\src\lv_objx/lv_btn.c ****                 res            = lv_event_send(btn, LV_EVENT_VALUE_CHANGED, &state);
 623              		.loc 1 645 0
 624 01ce 02AA     		add	r2, sp, #8
 625 01d0 0123     		movs	r3, #1
 626 01d2 99E7     		b	.L83
 627              	.L94:
 628              	.LVL69:
 629              	.LBE64:
 630              	.LBE76:
 631              	.LBB77:
 632              	.LBB78:
 179:..\..\..\lvgl\version_6.1.2\lvgl\src\lv_objx/lv_btn.c ****     if(ext->state != state) {
 633              		.loc 1 179 0
 634 01d4 3046     		mov	r0, r6
 635 01d6 FFF7FEFF 		bl	lv_obj_get_ext_attr
 636              	.LVL70:
 180:..\..\..\lvgl\version_6.1.2\lvgl\src\lv_objx/lv_btn.c ****         ext->state = state;
 637              		.loc 1 180 0
 638 01da 037E     		ldrb	r3, [r0, #24]	@ zero_extendqisi2
 639 01dc 5C07     		lsls	r4, r3, #29
 640 01de 3FF434AF 		beq	.L33
 181:..\..\..\lvgl\version_6.1.2\lvgl\src\lv_objx/lv_btn.c ****         lv_obj_set_style(btn, ext->styles[state]);
 641              		.loc 1 181 0
 642 01e2 6FF30203 		bfc	r3, #0, #3
 643 01e6 0376     		strb	r3, [r0, #24]
 182:..\..\..\lvgl\version_6.1.2\lvgl\src\lv_objx/lv_btn.c ****     }
 644              		.loc 1 182 0
 645 01e8 4168     		ldr	r1, [r0, #4]
 646 01ea 3046     		mov	r0, r6
 647              	.LVL71:
 648 01ec FFF7FEFF 		bl	lv_obj_set_style
 649              	.LVL72:
 650 01f0 13E7     		b	.L80
ARM GAS  C:\Users\pearlstl\AppData\Local\Temp\ccbEAAPX.s 			page 26


 651              	.LVL73:
 652              	.L98:
 653              	.LBE78:
 654              	.LBE77:
 655              	.LBB79:
 585:..\..\..\lvgl\version_6.1.2\lvgl\src\lv_objx/lv_btn.c ****                 toggled = 0;
 656              		.loc 1 585 0 discriminator 1
 657 01f2 3046     		mov	r0, r6
 584:..\..\..\lvgl\version_6.1.2\lvgl\src\lv_objx/lv_btn.c ****                 lv_btn_set_state(btn, LV_BTN_STATE_REL);
 658              		.loc 1 584 0 discriminator 1
 659 01f4 7CB1     		cbz	r4, .L100
 660              	.LVL74:
 591:..\..\..\lvgl\version_6.1.2\lvgl\src\lv_objx/lv_btn.c ****                 toggled = 1;
 661              		.loc 1 591 0
 662 01f6 FFF7FEFF 		bl	lv_btn_set_state.constprop.3
 663              	.LVL75:
 592:..\..\..\lvgl\version_6.1.2\lvgl\src\lv_objx/lv_btn.c ****             } else if(ext->state == LV_BTN_STATE_TGL_PR && tgl == true) {
 664              		.loc 1 592 0
 665 01fa 0195     		str	r5, [sp, #4]
 666 01fc B3E7     		b	.L36
 667              	.L99:
 588:..\..\..\lvgl\version_6.1.2\lvgl\src\lv_objx/lv_btn.c ****                 toggled = 1;
 668              		.loc 1 588 0 discriminator 1
 669 01fe 3046     		mov	r0, r6
 587:..\..\..\lvgl\version_6.1.2\lvgl\src\lv_objx/lv_btn.c ****                 lv_btn_set_state(btn, LV_BTN_STATE_TGL_REL);
 670              		.loc 1 587 0 discriminator 1
 671 0200 64B1     		cbz	r4, .L101
 672              	.LVL76:
 594:..\..\..\lvgl\version_6.1.2\lvgl\src\lv_objx/lv_btn.c ****                 toggled = 0;
 673              		.loc 1 594 0
 674 0202 FFF7FEFF 		bl	lv_btn_set_state.constprop.4
 675              	.LVL77:
 595:..\..\..\lvgl\version_6.1.2\lvgl\src\lv_objx/lv_btn.c ****             }
 676              		.loc 1 595 0
 677 0206 0023     		movs	r3, #0
 678 0208 0193     		str	r3, [sp, #4]
 679 020a ACE7     		b	.L36
 680              	.L97:
 681              	.LBE79:
 575:..\..\..\lvgl\version_6.1.2\lvgl\src\lv_objx/lv_btn.c ****             else if(ext->state == LV_BTN_STATE_TGL_PR)
 682              		.loc 1 575 0
 683 020c 3046     		mov	r0, r6
 684 020e FFF7FEFF 		bl	lv_btn_set_state.constprop.4
 685              	.LVL78:
 686 0212 0125     		movs	r5, #1
 687 0214 01E7     		b	.L80
 688              	.LVL79:
 689              	.L100:
 690              	.LBB80:
 585:..\..\..\lvgl\version_6.1.2\lvgl\src\lv_objx/lv_btn.c ****                 toggled = 0;
 691              		.loc 1 585 0
 692 0216 FFF7FEFF 		bl	lv_btn_set_state.constprop.4
 693              	.LVL80:
 586:..\..\..\lvgl\version_6.1.2\lvgl\src\lv_objx/lv_btn.c ****             } else if(ext->state == LV_BTN_STATE_TGL_PR && tgl == false) {
 694              		.loc 1 586 0
 695 021a 16E7     		b	.L33
 696              	.LVL81:
ARM GAS  C:\Users\pearlstl\AppData\Local\Temp\ccbEAAPX.s 			page 27


 697              	.L101:
 588:..\..\..\lvgl\version_6.1.2\lvgl\src\lv_objx/lv_btn.c ****                 toggled = 1;
 698              		.loc 1 588 0
 699 021c FFF7FEFF 		bl	lv_btn_set_state.constprop.3
 700              	.LVL82:
 589:..\..\..\lvgl\version_6.1.2\lvgl\src\lv_objx/lv_btn.c ****             } else if(ext->state == LV_BTN_STATE_PR && tgl == true) {
 701              		.loc 1 589 0
 702 0220 13E7     		b	.L33
 703              	.L103:
 704 0222 00BF     		.align	2
 705              	.L102:
 706 0224 00000000 		.word	.LANCHOR0
 707 0228 00000000 		.word	.LC0
 708              	.LBE80:
 709              		.cfi_endproc
 710              	.LFE59:
 711              		.size	lv_btn_signal, .-lv_btn_signal
 712              		.section	.text.lv_btn_create,"ax",%progbits
 713              		.align	2
 714              		.global	lv_btn_create
 715              		.thumb
 716              		.thumb_func
 717              		.type	lv_btn_create, %function
 718              	lv_btn_create:
 719              	.LFB44:
  75:..\..\..\lvgl\version_6.1.2\lvgl\src\lv_objx/lv_btn.c ****     LV_LOG_TRACE("button create started");
 720              		.loc 1 75 0
 721              		.cfi_startproc
 722              		@ args = 0, pretend = 0, frame = 0
 723              		@ frame_needed = 0, uses_anonymous_args = 0
 724              	.LVL83:
 725 0000 F8B5     		push	{r3, r4, r5, r6, r7, lr}
 726              		.cfi_def_cfa_offset 24
 727              		.cfi_offset 3, -24
 728              		.cfi_offset 4, -20
 729              		.cfi_offset 5, -16
 730              		.cfi_offset 6, -12
 731              		.cfi_offset 7, -8
 732              		.cfi_offset 14, -4
  75:..\..\..\lvgl\version_6.1.2\lvgl\src\lv_objx/lv_btn.c ****     LV_LOG_TRACE("button create started");
 733              		.loc 1 75 0
 734 0002 0746     		mov	r7, r0
 735 0004 0E46     		mov	r6, r1
  80:..\..\..\lvgl\version_6.1.2\lvgl\src\lv_objx/lv_btn.c ****     LV_ASSERT_MEM(new_btn);
 736              		.loc 1 80 0
 737 0006 FFF7FEFF 		bl	lv_cont_create
 738              	.LVL84:
  82:..\..\..\lvgl\version_6.1.2\lvgl\src\lv_objx/lv_btn.c **** 
 739              		.loc 1 82 0
 740 000a 0028     		cmp	r0, #0
 741 000c 00F0AF80 		beq	.L109
  84:..\..\..\lvgl\version_6.1.2\lvgl\src\lv_objx/lv_btn.c ****     if(ancestor_design == NULL) ancestor_design = lv_obj_get_design_cb(new_btn);
 742              		.loc 1 84 0
 743 0010 5B4C     		ldr	r4, .L123
 744 0012 6368     		ldr	r3, [r4, #4]
 745 0014 0546     		mov	r5, r0
 746 0016 002B     		cmp	r3, #0
ARM GAS  C:\Users\pearlstl\AppData\Local\Temp\ccbEAAPX.s 			page 28


 747 0018 00F0A080 		beq	.L120
 748              	.LVL85:
 749              	.L107:
  85:..\..\..\lvgl\version_6.1.2\lvgl\src\lv_objx/lv_btn.c **** 
 750              		.loc 1 85 0
 751 001c 2368     		ldr	r3, [r4]
 752 001e 584C     		ldr	r4, .L123
 753 0020 002B     		cmp	r3, #0
 754 0022 00F09F80 		beq	.L121
 755              	.L108:
  88:..\..\..\lvgl\version_6.1.2\lvgl\src\lv_objx/lv_btn.c ****     LV_ASSERT_MEM(ext);
 756              		.loc 1 88 0
 757 0026 1C21     		movs	r1, #28
 758 0028 2846     		mov	r0, r5
 759 002a FFF7FEFF 		bl	lv_obj_allocate_ext_attr
 760              	.LVL86:
  90:..\..\..\lvgl\version_6.1.2\lvgl\src\lv_objx/lv_btn.c **** 
 761              		.loc 1 90 0
 762 002e 0446     		mov	r4, r0
 763 0030 0028     		cmp	r0, #0
 764 0032 00F09C80 		beq	.L109
  92:..\..\..\lvgl\version_6.1.2\lvgl\src\lv_objx/lv_btn.c **** 
 765              		.loc 1 92 0
 766 0036 037E     		ldrb	r3, [r0, #24]	@ zero_extendqisi2
  94:..\..\..\lvgl\version_6.1.2\lvgl\src\lv_objx/lv_btn.c ****     ext->styles[LV_BTN_STATE_PR]      = &lv_style_btn_pr;
 767              		.loc 1 94 0
 768 0038 524A     		ldr	r2, .L123+4
  95:..\..\..\lvgl\version_6.1.2\lvgl\src\lv_objx/lv_btn.c ****     ext->styles[LV_BTN_STATE_TGL_REL] = &lv_style_btn_tgl_rel;
 769              		.loc 1 95 0
 770 003a 5348     		ldr	r0, .L123+8
 771              	.LVL87:
  94:..\..\..\lvgl\version_6.1.2\lvgl\src\lv_objx/lv_btn.c ****     ext->styles[LV_BTN_STATE_PR]      = &lv_style_btn_pr;
 772              		.loc 1 94 0
 773 003c 6260     		str	r2, [r4, #4]
 100:..\..\..\lvgl\version_6.1.2\lvgl\src\lv_objx/lv_btn.c **** #if LV_USE_ANIMATION && LV_BTN_INK_EFFECT
 774              		.loc 1 100 0
 775 003e 03F0F803 		and	r3, r3, #248
 776 0042 6FF3C303 		bfc	r3, #3, #1
  96:..\..\..\lvgl\version_6.1.2\lvgl\src\lv_objx/lv_btn.c ****     ext->styles[LV_BTN_STATE_TGL_PR]  = &lv_style_btn_tgl_pr;
 777              		.loc 1 96 0
 778 0046 5149     		ldr	r1, .L123+12
  97:..\..\..\lvgl\version_6.1.2\lvgl\src\lv_objx/lv_btn.c ****     ext->styles[LV_BTN_STATE_INA]     = &lv_style_btn_ina;
 779              		.loc 1 97 0
 780 0048 514A     		ldr	r2, .L123+16
 100:..\..\..\lvgl\version_6.1.2\lvgl\src\lv_objx/lv_btn.c **** #if LV_USE_ANIMATION && LV_BTN_INK_EFFECT
 781              		.loc 1 100 0
 782 004a 2376     		strb	r3, [r4, #24]
  98:..\..\..\lvgl\version_6.1.2\lvgl\src\lv_objx/lv_btn.c **** 
 783              		.loc 1 98 0
 784 004c 514B     		ldr	r3, .L123+20
  95:..\..\..\lvgl\version_6.1.2\lvgl\src\lv_objx/lv_btn.c ****     ext->styles[LV_BTN_STATE_TGL_REL] = &lv_style_btn_tgl_rel;
 785              		.loc 1 95 0
 786 004e A060     		str	r0, [r4, #8]
  96:..\..\..\lvgl\version_6.1.2\lvgl\src\lv_objx/lv_btn.c ****     ext->styles[LV_BTN_STATE_TGL_PR]  = &lv_style_btn_tgl_pr;
 787              		.loc 1 96 0
 788 0050 E160     		str	r1, [r4, #12]
 107:..\..\..\lvgl\version_6.1.2\lvgl\src\lv_objx/lv_btn.c ****     lv_obj_set_design_cb(new_btn, lv_btn_design);
ARM GAS  C:\Users\pearlstl\AppData\Local\Temp\ccbEAAPX.s 			page 29


 789              		.loc 1 107 0
 790 0052 2846     		mov	r0, r5
 791 0054 5049     		ldr	r1, .L123+24
  97:..\..\..\lvgl\version_6.1.2\lvgl\src\lv_objx/lv_btn.c ****     ext->styles[LV_BTN_STATE_INA]     = &lv_style_btn_ina;
 792              		.loc 1 97 0
 793 0056 2261     		str	r2, [r4, #16]
  98:..\..\..\lvgl\version_6.1.2\lvgl\src\lv_objx/lv_btn.c **** 
 794              		.loc 1 98 0
 795 0058 6361     		str	r3, [r4, #20]
 107:..\..\..\lvgl\version_6.1.2\lvgl\src\lv_objx/lv_btn.c ****     lv_obj_set_design_cb(new_btn, lv_btn_design);
 796              		.loc 1 107 0
 797 005a FFF7FEFF 		bl	lv_obj_set_signal_cb
 798              	.LVL88:
 108:..\..\..\lvgl\version_6.1.2\lvgl\src\lv_objx/lv_btn.c **** 
 799              		.loc 1 108 0
 800 005e 4F49     		ldr	r1, .L123+28
 801 0060 2846     		mov	r0, r5
 802 0062 FFF7FEFF 		bl	lv_obj_set_design_cb
 803              	.LVL89:
 111:..\..\..\lvgl\version_6.1.2\lvgl\src\lv_objx/lv_btn.c ****         /*Set layout if the button is not a screen*/
 804              		.loc 1 111 0
 805 0066 F6B1     		cbz	r6, .L122
 806              	.LBB95:
 133:..\..\..\lvgl\version_6.1.2\lvgl\src\lv_objx/lv_btn.c ****         ext->state              = copy_ext->state;
 807              		.loc 1 133 0
 808 0068 3046     		mov	r0, r6
 809 006a FFF7FEFF 		bl	lv_obj_get_ext_attr
 810              	.LVL90:
 134:..\..\..\lvgl\version_6.1.2\lvgl\src\lv_objx/lv_btn.c ****         ext->toggle             = copy_ext->toggle;
 811              		.loc 1 134 0
 812 006e 237E     		ldrb	r3, [r4, #24]	@ zero_extendqisi2
 813 0070 027E     		ldrb	r2, [r0, #24]	@ zero_extendqisi2
 814 0072 62F30203 		bfi	r3, r2, #0, #3
 815 0076 2376     		strb	r3, [r4, #24]
 135:..\..\..\lvgl\version_6.1.2\lvgl\src\lv_objx/lv_btn.c **** #if LV_USE_ANIMATION && LV_BTN_INK_EFFECT
 816              		.loc 1 135 0
 817 0078 037E     		ldrb	r3, [r0, #24]	@ zero_extendqisi2
 818 007a 227E     		ldrb	r2, [r4, #24]	@ zero_extendqisi2
 819 007c C3F3C003 		ubfx	r3, r3, #3, #1
 820 0080 63F3C302 		bfi	r2, r3, #3, #1
 821 0084 2276     		strb	r2, [r4, #24]
 141:..\..\..\lvgl\version_6.1.2\lvgl\src\lv_objx/lv_btn.c **** 
 822              		.loc 1 141 0
 823 0086 50F8042F 		ldr	r2, [r0, #4]!	@ unaligned
 824              	.LVL91:
 825 008a 4768     		ldr	r7, [r0, #4]	@ unaligned
 826              	.LVL92:
 827 008c 8668     		ldr	r6, [r0, #8]	@ unaligned
 828              	.LVL93:
 829 008e C168     		ldr	r1, [r0, #12]	@ unaligned
 830 0090 2161     		str	r1, [r4, #16]	@ unaligned
 831 0092 6260     		str	r2, [r4, #4]	@ unaligned
 832 0094 A760     		str	r7, [r4, #8]	@ unaligned
 833 0096 E660     		str	r6, [r4, #12]	@ unaligned
 834 0098 0269     		ldr	r2, [r0, #16]	@ unaligned
 835 009a 6261     		str	r2, [r4, #20]	@ unaligned
 144:..\..\..\lvgl\version_6.1.2\lvgl\src\lv_objx/lv_btn.c ****     }
ARM GAS  C:\Users\pearlstl\AppData\Local\Temp\ccbEAAPX.s 			page 30


 836              		.loc 1 144 0
 837 009c 2846     		mov	r0, r5
 838              	.LVL94:
 839 009e FFF7FEFF 		bl	lv_obj_refresh_style
 840              	.LVL95:
 841 00a2 2846     		mov	r0, r5
 842              	.LBE95:
 150:..\..\..\lvgl\version_6.1.2\lvgl\src\lv_objx/lv_btn.c **** 
 843              		.loc 1 150 0
 844 00a4 F8BD     		pop	{r3, r4, r5, r6, r7, pc}
 845              	.LVL96:
 846              	.L122:
 847              	.LBB96:
 113:..\..\..\lvgl\version_6.1.2\lvgl\src\lv_objx/lv_btn.c ****             lv_btn_set_layout(new_btn, LV_LAYOUT_CENTER);
 848              		.loc 1 113 0
 849 00a6 1FB1     		cbz	r7, .L111
 850              	.LVL97:
 851              	.LBB97:
 852              	.LBB98:
 853              		.file 2 "..\\..\\..\\lvgl\\version_6.1.2\\lvgl\\src\\lv_objx\\lv_btn.h"
   1:..\..\..\lvgl\version_6.1.2\lvgl\src\lv_objx/lv_btn.h **** /**
   2:..\..\..\lvgl\version_6.1.2\lvgl\src\lv_objx/lv_btn.h ****  * @file lv_btn.h
   3:..\..\..\lvgl\version_6.1.2\lvgl\src\lv_objx/lv_btn.h ****  *
   4:..\..\..\lvgl\version_6.1.2\lvgl\src\lv_objx/lv_btn.h ****  */
   5:..\..\..\lvgl\version_6.1.2\lvgl\src\lv_objx/lv_btn.h **** 
   6:..\..\..\lvgl\version_6.1.2\lvgl\src\lv_objx/lv_btn.h **** #ifndef LV_BTN_H
   7:..\..\..\lvgl\version_6.1.2\lvgl\src\lv_objx/lv_btn.h **** #define LV_BTN_H
   8:..\..\..\lvgl\version_6.1.2\lvgl\src\lv_objx/lv_btn.h **** 
   9:..\..\..\lvgl\version_6.1.2\lvgl\src\lv_objx/lv_btn.h **** #ifdef __cplusplus
  10:..\..\..\lvgl\version_6.1.2\lvgl\src\lv_objx/lv_btn.h **** extern "C" {
  11:..\..\..\lvgl\version_6.1.2\lvgl\src\lv_objx/lv_btn.h **** #endif
  12:..\..\..\lvgl\version_6.1.2\lvgl\src\lv_objx/lv_btn.h **** 
  13:..\..\..\lvgl\version_6.1.2\lvgl\src\lv_objx/lv_btn.h **** /*********************
  14:..\..\..\lvgl\version_6.1.2\lvgl\src\lv_objx/lv_btn.h ****  *      INCLUDES
  15:..\..\..\lvgl\version_6.1.2\lvgl\src\lv_objx/lv_btn.h ****  *********************/
  16:..\..\..\lvgl\version_6.1.2\lvgl\src\lv_objx/lv_btn.h **** #ifdef LV_CONF_INCLUDE_SIMPLE
  17:..\..\..\lvgl\version_6.1.2\lvgl\src\lv_objx/lv_btn.h **** #include "lv_conf.h"
  18:..\..\..\lvgl\version_6.1.2\lvgl\src\lv_objx/lv_btn.h **** #else
  19:..\..\..\lvgl\version_6.1.2\lvgl\src\lv_objx/lv_btn.h **** #include "../../../lv_conf.h"
  20:..\..\..\lvgl\version_6.1.2\lvgl\src\lv_objx/lv_btn.h **** #endif
  21:..\..\..\lvgl\version_6.1.2\lvgl\src\lv_objx/lv_btn.h **** 
  22:..\..\..\lvgl\version_6.1.2\lvgl\src\lv_objx/lv_btn.h **** #if LV_USE_BTN != 0
  23:..\..\..\lvgl\version_6.1.2\lvgl\src\lv_objx/lv_btn.h **** 
  24:..\..\..\lvgl\version_6.1.2\lvgl\src\lv_objx/lv_btn.h **** /*Testing of dependencies*/
  25:..\..\..\lvgl\version_6.1.2\lvgl\src\lv_objx/lv_btn.h **** #if LV_USE_CONT == 0
  26:..\..\..\lvgl\version_6.1.2\lvgl\src\lv_objx/lv_btn.h **** #error "lv_btn: lv_cont is required. Enable it in lv_conf.h (LV_USE_CONT  1) "
  27:..\..\..\lvgl\version_6.1.2\lvgl\src\lv_objx/lv_btn.h **** #endif
  28:..\..\..\lvgl\version_6.1.2\lvgl\src\lv_objx/lv_btn.h **** 
  29:..\..\..\lvgl\version_6.1.2\lvgl\src\lv_objx/lv_btn.h **** #include "lv_cont.h"
  30:..\..\..\lvgl\version_6.1.2\lvgl\src\lv_objx/lv_btn.h **** #include "../lv_core/lv_indev.h"
  31:..\..\..\lvgl\version_6.1.2\lvgl\src\lv_objx/lv_btn.h **** 
  32:..\..\..\lvgl\version_6.1.2\lvgl\src\lv_objx/lv_btn.h **** /*********************
  33:..\..\..\lvgl\version_6.1.2\lvgl\src\lv_objx/lv_btn.h ****  *      DEFINES
  34:..\..\..\lvgl\version_6.1.2\lvgl\src\lv_objx/lv_btn.h ****  *********************/
  35:..\..\..\lvgl\version_6.1.2\lvgl\src\lv_objx/lv_btn.h **** 
  36:..\..\..\lvgl\version_6.1.2\lvgl\src\lv_objx/lv_btn.h **** /**********************
  37:..\..\..\lvgl\version_6.1.2\lvgl\src\lv_objx/lv_btn.h ****  *      TYPEDEFS
ARM GAS  C:\Users\pearlstl\AppData\Local\Temp\ccbEAAPX.s 			page 31


  38:..\..\..\lvgl\version_6.1.2\lvgl\src\lv_objx/lv_btn.h ****  **********************/
  39:..\..\..\lvgl\version_6.1.2\lvgl\src\lv_objx/lv_btn.h **** 
  40:..\..\..\lvgl\version_6.1.2\lvgl\src\lv_objx/lv_btn.h **** /** Possible states of a button.
  41:..\..\..\lvgl\version_6.1.2\lvgl\src\lv_objx/lv_btn.h ****  * It can be used not only by buttons but other button-like objects too*/
  42:..\..\..\lvgl\version_6.1.2\lvgl\src\lv_objx/lv_btn.h **** enum {
  43:..\..\..\lvgl\version_6.1.2\lvgl\src\lv_objx/lv_btn.h ****     /**Released*/
  44:..\..\..\lvgl\version_6.1.2\lvgl\src\lv_objx/lv_btn.h ****     LV_BTN_STATE_REL,
  45:..\..\..\lvgl\version_6.1.2\lvgl\src\lv_objx/lv_btn.h **** 
  46:..\..\..\lvgl\version_6.1.2\lvgl\src\lv_objx/lv_btn.h ****     /**Pressed*/
  47:..\..\..\lvgl\version_6.1.2\lvgl\src\lv_objx/lv_btn.h ****     LV_BTN_STATE_PR,
  48:..\..\..\lvgl\version_6.1.2\lvgl\src\lv_objx/lv_btn.h **** 
  49:..\..\..\lvgl\version_6.1.2\lvgl\src\lv_objx/lv_btn.h ****     /**Toggled released*/
  50:..\..\..\lvgl\version_6.1.2\lvgl\src\lv_objx/lv_btn.h ****     LV_BTN_STATE_TGL_REL,
  51:..\..\..\lvgl\version_6.1.2\lvgl\src\lv_objx/lv_btn.h **** 
  52:..\..\..\lvgl\version_6.1.2\lvgl\src\lv_objx/lv_btn.h ****     /**Toggled pressed*/
  53:..\..\..\lvgl\version_6.1.2\lvgl\src\lv_objx/lv_btn.h ****     LV_BTN_STATE_TGL_PR,
  54:..\..\..\lvgl\version_6.1.2\lvgl\src\lv_objx/lv_btn.h **** 
  55:..\..\..\lvgl\version_6.1.2\lvgl\src\lv_objx/lv_btn.h ****     /**Inactive*/
  56:..\..\..\lvgl\version_6.1.2\lvgl\src\lv_objx/lv_btn.h ****     LV_BTN_STATE_INA,
  57:..\..\..\lvgl\version_6.1.2\lvgl\src\lv_objx/lv_btn.h **** 
  58:..\..\..\lvgl\version_6.1.2\lvgl\src\lv_objx/lv_btn.h ****     /**Number of states*/
  59:..\..\..\lvgl\version_6.1.2\lvgl\src\lv_objx/lv_btn.h ****     _LV_BTN_STATE_NUM,
  60:..\..\..\lvgl\version_6.1.2\lvgl\src\lv_objx/lv_btn.h **** };
  61:..\..\..\lvgl\version_6.1.2\lvgl\src\lv_objx/lv_btn.h **** typedef uint8_t lv_btn_state_t;
  62:..\..\..\lvgl\version_6.1.2\lvgl\src\lv_objx/lv_btn.h **** 
  63:..\..\..\lvgl\version_6.1.2\lvgl\src\lv_objx/lv_btn.h **** /** Extended data of button*/
  64:..\..\..\lvgl\version_6.1.2\lvgl\src\lv_objx/lv_btn.h **** typedef struct
  65:..\..\..\lvgl\version_6.1.2\lvgl\src\lv_objx/lv_btn.h **** {
  66:..\..\..\lvgl\version_6.1.2\lvgl\src\lv_objx/lv_btn.h ****     /** Ext. of ancestor*/
  67:..\..\..\lvgl\version_6.1.2\lvgl\src\lv_objx/lv_btn.h ****     lv_cont_ext_t cont;
  68:..\..\..\lvgl\version_6.1.2\lvgl\src\lv_objx/lv_btn.h **** 
  69:..\..\..\lvgl\version_6.1.2\lvgl\src\lv_objx/lv_btn.h ****     /*New data for this type */
  70:..\..\..\lvgl\version_6.1.2\lvgl\src\lv_objx/lv_btn.h **** 
  71:..\..\..\lvgl\version_6.1.2\lvgl\src\lv_objx/lv_btn.h ****     /**Styles in each state*/
  72:..\..\..\lvgl\version_6.1.2\lvgl\src\lv_objx/lv_btn.h ****     const lv_style_t * styles[_LV_BTN_STATE_NUM];
  73:..\..\..\lvgl\version_6.1.2\lvgl\src\lv_objx/lv_btn.h **** #if LV_BTN_INK_EFFECT
  74:..\..\..\lvgl\version_6.1.2\lvgl\src\lv_objx/lv_btn.h ****     /** [ms] Time of ink fill effect (0: disable ink effect)*/
  75:..\..\..\lvgl\version_6.1.2\lvgl\src\lv_objx/lv_btn.h ****     uint16_t ink_in_time;
  76:..\..\..\lvgl\version_6.1.2\lvgl\src\lv_objx/lv_btn.h **** 
  77:..\..\..\lvgl\version_6.1.2\lvgl\src\lv_objx/lv_btn.h ****     /** [ms] Wait before the ink disappears */
  78:..\..\..\lvgl\version_6.1.2\lvgl\src\lv_objx/lv_btn.h ****     uint16_t ink_wait_time;
  79:..\..\..\lvgl\version_6.1.2\lvgl\src\lv_objx/lv_btn.h **** 
  80:..\..\..\lvgl\version_6.1.2\lvgl\src\lv_objx/lv_btn.h ****     /** [ms] Time of ink disappearing*/
  81:..\..\..\lvgl\version_6.1.2\lvgl\src\lv_objx/lv_btn.h ****     uint16_t ink_out_time;
  82:..\..\..\lvgl\version_6.1.2\lvgl\src\lv_objx/lv_btn.h **** #endif
  83:..\..\..\lvgl\version_6.1.2\lvgl\src\lv_objx/lv_btn.h **** 
  84:..\..\..\lvgl\version_6.1.2\lvgl\src\lv_objx/lv_btn.h ****     /** Current state of the button from 'lv_btn_state_t' enum*/
  85:..\..\..\lvgl\version_6.1.2\lvgl\src\lv_objx/lv_btn.h ****     lv_btn_state_t state : 3;
  86:..\..\..\lvgl\version_6.1.2\lvgl\src\lv_objx/lv_btn.h **** 
  87:..\..\..\lvgl\version_6.1.2\lvgl\src\lv_objx/lv_btn.h ****     /** 1: Toggle enabled*/
  88:..\..\..\lvgl\version_6.1.2\lvgl\src\lv_objx/lv_btn.h ****     uint8_t toggle : 1;
  89:..\..\..\lvgl\version_6.1.2\lvgl\src\lv_objx/lv_btn.h **** } lv_btn_ext_t;
  90:..\..\..\lvgl\version_6.1.2\lvgl\src\lv_objx/lv_btn.h **** 
  91:..\..\..\lvgl\version_6.1.2\lvgl\src\lv_objx/lv_btn.h **** /**Styles*/
  92:..\..\..\lvgl\version_6.1.2\lvgl\src\lv_objx/lv_btn.h **** enum {
  93:..\..\..\lvgl\version_6.1.2\lvgl\src\lv_objx/lv_btn.h ****     /** Release style */
  94:..\..\..\lvgl\version_6.1.2\lvgl\src\lv_objx/lv_btn.h ****     LV_BTN_STYLE_REL,
ARM GAS  C:\Users\pearlstl\AppData\Local\Temp\ccbEAAPX.s 			page 32


  95:..\..\..\lvgl\version_6.1.2\lvgl\src\lv_objx/lv_btn.h **** 
  96:..\..\..\lvgl\version_6.1.2\lvgl\src\lv_objx/lv_btn.h ****     /**Pressed style*/
  97:..\..\..\lvgl\version_6.1.2\lvgl\src\lv_objx/lv_btn.h ****     LV_BTN_STYLE_PR,
  98:..\..\..\lvgl\version_6.1.2\lvgl\src\lv_objx/lv_btn.h **** 
  99:..\..\..\lvgl\version_6.1.2\lvgl\src\lv_objx/lv_btn.h ****     /** Toggle released style*/
 100:..\..\..\lvgl\version_6.1.2\lvgl\src\lv_objx/lv_btn.h ****     LV_BTN_STYLE_TGL_REL,
 101:..\..\..\lvgl\version_6.1.2\lvgl\src\lv_objx/lv_btn.h **** 
 102:..\..\..\lvgl\version_6.1.2\lvgl\src\lv_objx/lv_btn.h ****     /** Toggle pressed style */
 103:..\..\..\lvgl\version_6.1.2\lvgl\src\lv_objx/lv_btn.h ****     LV_BTN_STYLE_TGL_PR,
 104:..\..\..\lvgl\version_6.1.2\lvgl\src\lv_objx/lv_btn.h **** 
 105:..\..\..\lvgl\version_6.1.2\lvgl\src\lv_objx/lv_btn.h ****     /** Inactive style*/
 106:..\..\..\lvgl\version_6.1.2\lvgl\src\lv_objx/lv_btn.h ****     LV_BTN_STYLE_INA,
 107:..\..\..\lvgl\version_6.1.2\lvgl\src\lv_objx/lv_btn.h **** };
 108:..\..\..\lvgl\version_6.1.2\lvgl\src\lv_objx/lv_btn.h **** typedef uint8_t lv_btn_style_t;
 109:..\..\..\lvgl\version_6.1.2\lvgl\src\lv_objx/lv_btn.h **** 
 110:..\..\..\lvgl\version_6.1.2\lvgl\src\lv_objx/lv_btn.h **** /**********************
 111:..\..\..\lvgl\version_6.1.2\lvgl\src\lv_objx/lv_btn.h ****  * GLOBAL PROTOTYPES
 112:..\..\..\lvgl\version_6.1.2\lvgl\src\lv_objx/lv_btn.h ****  **********************/
 113:..\..\..\lvgl\version_6.1.2\lvgl\src\lv_objx/lv_btn.h **** 
 114:..\..\..\lvgl\version_6.1.2\lvgl\src\lv_objx/lv_btn.h **** /**
 115:..\..\..\lvgl\version_6.1.2\lvgl\src\lv_objx/lv_btn.h ****  * Create a button object
 116:..\..\..\lvgl\version_6.1.2\lvgl\src\lv_objx/lv_btn.h ****  * @param par pointer to an object, it will be the parent of the new button
 117:..\..\..\lvgl\version_6.1.2\lvgl\src\lv_objx/lv_btn.h ****  * @param copy pointer to a button object, if not NULL then the new object will be copied from it
 118:..\..\..\lvgl\version_6.1.2\lvgl\src\lv_objx/lv_btn.h ****  * @return pointer to the created button
 119:..\..\..\lvgl\version_6.1.2\lvgl\src\lv_objx/lv_btn.h ****  */
 120:..\..\..\lvgl\version_6.1.2\lvgl\src\lv_objx/lv_btn.h **** lv_obj_t * lv_btn_create(lv_obj_t * par, const lv_obj_t * copy);
 121:..\..\..\lvgl\version_6.1.2\lvgl\src\lv_objx/lv_btn.h **** 
 122:..\..\..\lvgl\version_6.1.2\lvgl\src\lv_objx/lv_btn.h **** /*=====================
 123:..\..\..\lvgl\version_6.1.2\lvgl\src\lv_objx/lv_btn.h ****  * Setter functions
 124:..\..\..\lvgl\version_6.1.2\lvgl\src\lv_objx/lv_btn.h ****  *====================*/
 125:..\..\..\lvgl\version_6.1.2\lvgl\src\lv_objx/lv_btn.h **** 
 126:..\..\..\lvgl\version_6.1.2\lvgl\src\lv_objx/lv_btn.h **** /**
 127:..\..\..\lvgl\version_6.1.2\lvgl\src\lv_objx/lv_btn.h ****  * Enable the toggled states. On release the button will change from/to toggled state.
 128:..\..\..\lvgl\version_6.1.2\lvgl\src\lv_objx/lv_btn.h ****  * @param btn pointer to a button object
 129:..\..\..\lvgl\version_6.1.2\lvgl\src\lv_objx/lv_btn.h ****  * @param tgl true: enable toggled states, false: disable
 130:..\..\..\lvgl\version_6.1.2\lvgl\src\lv_objx/lv_btn.h ****  */
 131:..\..\..\lvgl\version_6.1.2\lvgl\src\lv_objx/lv_btn.h **** void lv_btn_set_toggle(lv_obj_t * btn, bool tgl);
 132:..\..\..\lvgl\version_6.1.2\lvgl\src\lv_objx/lv_btn.h **** 
 133:..\..\..\lvgl\version_6.1.2\lvgl\src\lv_objx/lv_btn.h **** /**
 134:..\..\..\lvgl\version_6.1.2\lvgl\src\lv_objx/lv_btn.h ****  * Set the state of the button
 135:..\..\..\lvgl\version_6.1.2\lvgl\src\lv_objx/lv_btn.h ****  * @param btn pointer to a button object
 136:..\..\..\lvgl\version_6.1.2\lvgl\src\lv_objx/lv_btn.h ****  * @param state the new state of the button (from lv_btn_state_t enum)
 137:..\..\..\lvgl\version_6.1.2\lvgl\src\lv_objx/lv_btn.h ****  */
 138:..\..\..\lvgl\version_6.1.2\lvgl\src\lv_objx/lv_btn.h **** void lv_btn_set_state(lv_obj_t * btn, lv_btn_state_t state);
 139:..\..\..\lvgl\version_6.1.2\lvgl\src\lv_objx/lv_btn.h **** 
 140:..\..\..\lvgl\version_6.1.2\lvgl\src\lv_objx/lv_btn.h **** /**
 141:..\..\..\lvgl\version_6.1.2\lvgl\src\lv_objx/lv_btn.h ****  * Toggle the state of the button (ON->OFF, OFF->ON)
 142:..\..\..\lvgl\version_6.1.2\lvgl\src\lv_objx/lv_btn.h ****  * @param btn pointer to a button object
 143:..\..\..\lvgl\version_6.1.2\lvgl\src\lv_objx/lv_btn.h ****  */
 144:..\..\..\lvgl\version_6.1.2\lvgl\src\lv_objx/lv_btn.h **** void lv_btn_toggle(lv_obj_t * btn);
 145:..\..\..\lvgl\version_6.1.2\lvgl\src\lv_objx/lv_btn.h **** 
 146:..\..\..\lvgl\version_6.1.2\lvgl\src\lv_objx/lv_btn.h **** /**
 147:..\..\..\lvgl\version_6.1.2\lvgl\src\lv_objx/lv_btn.h ****  * Set the layout on a button
 148:..\..\..\lvgl\version_6.1.2\lvgl\src\lv_objx/lv_btn.h ****  * @param btn pointer to a button object
 149:..\..\..\lvgl\version_6.1.2\lvgl\src\lv_objx/lv_btn.h ****  * @param layout a layout from 'lv_cont_layout_t'
 150:..\..\..\lvgl\version_6.1.2\lvgl\src\lv_objx/lv_btn.h ****  */
 151:..\..\..\lvgl\version_6.1.2\lvgl\src\lv_objx/lv_btn.h **** static inline void lv_btn_set_layout(lv_obj_t * btn, lv_layout_t layout)
ARM GAS  C:\Users\pearlstl\AppData\Local\Temp\ccbEAAPX.s 			page 33


 152:..\..\..\lvgl\version_6.1.2\lvgl\src\lv_objx/lv_btn.h **** {
 153:..\..\..\lvgl\version_6.1.2\lvgl\src\lv_objx/lv_btn.h ****     lv_cont_set_layout(btn, layout);
 854              		.loc 2 153 0
 855 00a8 0121     		movs	r1, #1
 856 00aa 2846     		mov	r0, r5
 857 00ac FFF7FEFF 		bl	lv_cont_set_layout
 858              	.LVL98:
 859              	.L111:
 860              	.LBE98:
 861              	.LBE97:
 117:..\..\..\lvgl\version_6.1.2\lvgl\src\lv_objx/lv_btn.c **** 
 862              		.loc 1 117 0
 863 00b0 0121     		movs	r1, #1
 864 00b2 2846     		mov	r0, r5
 865 00b4 FFF7FEFF 		bl	lv_obj_set_click
 866              	.LVL99:
 120:..\..\..\lvgl\version_6.1.2\lvgl\src\lv_objx/lv_btn.c ****         if(th) {
 867              		.loc 1 120 0
 868 00b8 FFF7FEFF 		bl	lv_theme_get_current
 869              	.LVL100:
 121:..\..\..\lvgl\version_6.1.2\lvgl\src\lv_objx/lv_btn.c ****             lv_btn_set_style(new_btn, LV_BTN_STYLE_REL, th->style.btn.rel);
 870              		.loc 1 121 0
 871 00bc 0646     		mov	r6, r0
 872              	.LVL101:
 873 00be 0028     		cmp	r0, #0
 874 00c0 57D0     		beq	.L112
 875              	.LBB99:
 876              	.LBB100:
 275:..\..\..\lvgl\version_6.1.2\lvgl\src\lv_objx/lv_btn.c **** 
 877              		.loc 1 275 0
 878 00c2 2846     		mov	r0, r5
 879              	.LVL102:
 880              	.LBE100:
 881              	.LBE99:
 122:..\..\..\lvgl\version_6.1.2\lvgl\src\lv_objx/lv_btn.c ****             lv_btn_set_style(new_btn, LV_BTN_STYLE_PR, th->style.btn.pr);
 882              		.loc 1 122 0
 883 00c4 3469     		ldr	r4, [r6, #16]
 884              	.LVL103:
 885              	.LBB102:
 886              	.LBB101:
 275:..\..\..\lvgl\version_6.1.2\lvgl\src\lv_objx/lv_btn.c **** 
 887              		.loc 1 275 0
 888 00c6 FFF7FEFF 		bl	lv_obj_get_ext_attr
 889              	.LVL104:
 890 00ca 0346     		mov	r3, r0
 891              	.LVL105:
 286:..\..\..\lvgl\version_6.1.2\lvgl\src\lv_objx/lv_btn.c **** }
 892              		.loc 1 286 0
 893 00cc 2846     		mov	r0, r5
 894              	.LVL106:
 895 00ce 1A7E     		ldrb	r2, [r3, #24]	@ zero_extendqisi2
 278:..\..\..\lvgl\version_6.1.2\lvgl\src\lv_objx/lv_btn.c ****         case LV_BTN_STYLE_PR: ext->styles[LV_BTN_STATE_PR] = style; break;
 896              		.loc 1 278 0
 897 00d0 5C60     		str	r4, [r3, #4]
 286:..\..\..\lvgl\version_6.1.2\lvgl\src\lv_objx/lv_btn.c **** }
 898              		.loc 1 286 0
 899 00d2 02F00702 		and	r2, r2, #7
ARM GAS  C:\Users\pearlstl\AppData\Local\Temp\ccbEAAPX.s 			page 34


 900 00d6 03EB8203 		add	r3, r3, r2, lsl #2
 901              	.LVL107:
 902 00da 5968     		ldr	r1, [r3, #4]
 903 00dc FFF7FEFF 		bl	lv_obj_set_style
 904              	.LVL108:
 905              	.LBE101:
 906              	.LBE102:
 907              	.LBB103:
 908              	.LBB104:
 275:..\..\..\lvgl\version_6.1.2\lvgl\src\lv_objx/lv_btn.c **** 
 909              		.loc 1 275 0
 910 00e0 2846     		mov	r0, r5
 911              	.LBE104:
 912              	.LBE103:
 123:..\..\..\lvgl\version_6.1.2\lvgl\src\lv_objx/lv_btn.c ****             lv_btn_set_style(new_btn, LV_BTN_STYLE_TGL_REL, th->style.btn.tgl_rel);
 913              		.loc 1 123 0
 914 00e2 7469     		ldr	r4, [r6, #20]
 915              	.LVL109:
 916              	.LBB106:
 917              	.LBB105:
 275:..\..\..\lvgl\version_6.1.2\lvgl\src\lv_objx/lv_btn.c **** 
 918              		.loc 1 275 0
 919 00e4 FFF7FEFF 		bl	lv_obj_get_ext_attr
 920              	.LVL110:
 921 00e8 0346     		mov	r3, r0
 922              	.LVL111:
 286:..\..\..\lvgl\version_6.1.2\lvgl\src\lv_objx/lv_btn.c **** }
 923              		.loc 1 286 0
 924 00ea 2846     		mov	r0, r5
 925              	.LVL112:
 926 00ec 1A7E     		ldrb	r2, [r3, #24]	@ zero_extendqisi2
 279:..\..\..\lvgl\version_6.1.2\lvgl\src\lv_objx/lv_btn.c ****         case LV_BTN_STYLE_TGL_REL: ext->styles[LV_BTN_STATE_TGL_REL] = style; break;
 927              		.loc 1 279 0
 928 00ee 9C60     		str	r4, [r3, #8]
 286:..\..\..\lvgl\version_6.1.2\lvgl\src\lv_objx/lv_btn.c **** }
 929              		.loc 1 286 0
 930 00f0 02F00702 		and	r2, r2, #7
 931 00f4 03EB8203 		add	r3, r3, r2, lsl #2
 932              	.LVL113:
 933 00f8 5968     		ldr	r1, [r3, #4]
 934 00fa FFF7FEFF 		bl	lv_obj_set_style
 935              	.LVL114:
 936              	.LBE105:
 937              	.LBE106:
 938              	.LBB107:
 939              	.LBB108:
 275:..\..\..\lvgl\version_6.1.2\lvgl\src\lv_objx/lv_btn.c **** 
 940              		.loc 1 275 0
 941 00fe 2846     		mov	r0, r5
 942              	.LBE108:
 943              	.LBE107:
 124:..\..\..\lvgl\version_6.1.2\lvgl\src\lv_objx/lv_btn.c ****             lv_btn_set_style(new_btn, LV_BTN_STYLE_TGL_PR, th->style.btn.tgl_pr);
 944              		.loc 1 124 0
 945 0100 B469     		ldr	r4, [r6, #24]
 946              	.LVL115:
 947              	.LBB110:
 948              	.LBB109:
ARM GAS  C:\Users\pearlstl\AppData\Local\Temp\ccbEAAPX.s 			page 35


 275:..\..\..\lvgl\version_6.1.2\lvgl\src\lv_objx/lv_btn.c **** 
 949              		.loc 1 275 0
 950 0102 FFF7FEFF 		bl	lv_obj_get_ext_attr
 951              	.LVL116:
 952 0106 0346     		mov	r3, r0
 953              	.LVL117:
 286:..\..\..\lvgl\version_6.1.2\lvgl\src\lv_objx/lv_btn.c **** }
 954              		.loc 1 286 0
 955 0108 2846     		mov	r0, r5
 956              	.LVL118:
 957 010a 1A7E     		ldrb	r2, [r3, #24]	@ zero_extendqisi2
 280:..\..\..\lvgl\version_6.1.2\lvgl\src\lv_objx/lv_btn.c ****         case LV_BTN_STYLE_TGL_PR: ext->styles[LV_BTN_STATE_TGL_PR] = style; break;
 958              		.loc 1 280 0
 959 010c DC60     		str	r4, [r3, #12]
 286:..\..\..\lvgl\version_6.1.2\lvgl\src\lv_objx/lv_btn.c **** }
 960              		.loc 1 286 0
 961 010e 02F00702 		and	r2, r2, #7
 962 0112 03EB8203 		add	r3, r3, r2, lsl #2
 963              	.LVL119:
 964 0116 5968     		ldr	r1, [r3, #4]
 965 0118 FFF7FEFF 		bl	lv_obj_set_style
 966              	.LVL120:
 967              	.LBE109:
 968              	.LBE110:
 969              	.LBB111:
 970              	.LBB112:
 275:..\..\..\lvgl\version_6.1.2\lvgl\src\lv_objx/lv_btn.c **** 
 971              		.loc 1 275 0
 972 011c 2846     		mov	r0, r5
 973              	.LBE112:
 974              	.LBE111:
 125:..\..\..\lvgl\version_6.1.2\lvgl\src\lv_objx/lv_btn.c ****             lv_btn_set_style(new_btn, LV_BTN_STYLE_INA, th->style.btn.ina);
 975              		.loc 1 125 0
 976 011e F469     		ldr	r4, [r6, #28]
 977              	.LVL121:
 978              	.LBB114:
 979              	.LBB113:
 275:..\..\..\lvgl\version_6.1.2\lvgl\src\lv_objx/lv_btn.c **** 
 980              		.loc 1 275 0
 981 0120 FFF7FEFF 		bl	lv_obj_get_ext_attr
 982              	.LVL122:
 983 0124 0346     		mov	r3, r0
 984              	.LVL123:
 286:..\..\..\lvgl\version_6.1.2\lvgl\src\lv_objx/lv_btn.c **** }
 985              		.loc 1 286 0
 986 0126 2846     		mov	r0, r5
 987              	.LVL124:
 988 0128 1A7E     		ldrb	r2, [r3, #24]	@ zero_extendqisi2
 281:..\..\..\lvgl\version_6.1.2\lvgl\src\lv_objx/lv_btn.c ****         case LV_BTN_STYLE_INA: ext->styles[LV_BTN_STATE_INA] = style; break;
 989              		.loc 1 281 0
 990 012a 1C61     		str	r4, [r3, #16]
 286:..\..\..\lvgl\version_6.1.2\lvgl\src\lv_objx/lv_btn.c **** }
 991              		.loc 1 286 0
 992 012c 02F00702 		and	r2, r2, #7
 993 0130 03EB8203 		add	r3, r3, r2, lsl #2
 994              	.LVL125:
 995 0134 5968     		ldr	r1, [r3, #4]
ARM GAS  C:\Users\pearlstl\AppData\Local\Temp\ccbEAAPX.s 			page 36


 996 0136 FFF7FEFF 		bl	lv_obj_set_style
 997              	.LVL126:
 998              	.LBE113:
 999              	.LBE114:
 1000              	.LBB115:
 1001              	.LBB116:
 275:..\..\..\lvgl\version_6.1.2\lvgl\src\lv_objx/lv_btn.c **** 
 1002              		.loc 1 275 0
 1003 013a 2846     		mov	r0, r5
 1004              	.LBE116:
 1005              	.LBE115:
 126:..\..\..\lvgl\version_6.1.2\lvgl\src\lv_objx/lv_btn.c ****         } else {
 1006              		.loc 1 126 0
 1007 013c 346A     		ldr	r4, [r6, #32]
 1008              	.LVL127:
 1009              	.LBB118:
 1010              	.LBB117:
 275:..\..\..\lvgl\version_6.1.2\lvgl\src\lv_objx/lv_btn.c **** 
 1011              		.loc 1 275 0
 1012 013e FFF7FEFF 		bl	lv_obj_get_ext_attr
 1013              	.LVL128:
 1014 0142 0346     		mov	r3, r0
 1015              	.LVL129:
 286:..\..\..\lvgl\version_6.1.2\lvgl\src\lv_objx/lv_btn.c **** }
 1016              		.loc 1 286 0
 1017 0144 2846     		mov	r0, r5
 1018              	.LVL130:
 1019 0146 1A7E     		ldrb	r2, [r3, #24]	@ zero_extendqisi2
 282:..\..\..\lvgl\version_6.1.2\lvgl\src\lv_objx/lv_btn.c ****     }
 1020              		.loc 1 282 0
 1021 0148 5C61     		str	r4, [r3, #20]
 286:..\..\..\lvgl\version_6.1.2\lvgl\src\lv_objx/lv_btn.c **** }
 1022              		.loc 1 286 0
 1023 014a 02F00702 		and	r2, r2, #7
 1024 014e 03EB8203 		add	r3, r3, r2, lsl #2
 1025              	.LVL131:
 1026 0152 5968     		ldr	r1, [r3, #4]
 1027 0154 FFF7FEFF 		bl	lv_obj_set_style
 1028              	.LVL132:
 1029 0158 2846     		mov	r0, r5
 1030 015a F8BD     		pop	{r3, r4, r5, r6, r7, pc}
 1031              	.LVL133:
 1032              	.L120:
 1033              	.LBE117:
 1034              	.LBE118:
 1035              	.LBE96:
  84:..\..\..\lvgl\version_6.1.2\lvgl\src\lv_objx/lv_btn.c ****     if(ancestor_design == NULL) ancestor_design = lv_obj_get_design_cb(new_btn);
 1036              		.loc 1 84 0 discriminator 1
 1037 015c FFF7FEFF 		bl	lv_obj_get_signal_cb
 1038              	.LVL134:
 1039 0160 6060     		str	r0, [r4, #4]
 1040 0162 5BE7     		b	.L107
 1041              	.L121:
  85:..\..\..\lvgl\version_6.1.2\lvgl\src\lv_objx/lv_btn.c **** 
 1042              		.loc 1 85 0 discriminator 1
 1043 0164 2846     		mov	r0, r5
 1044 0166 FFF7FEFF 		bl	lv_obj_get_design_cb
ARM GAS  C:\Users\pearlstl\AppData\Local\Temp\ccbEAAPX.s 			page 37


 1045              	.LVL135:
 1046 016a 2060     		str	r0, [r4]
 1047 016c 5BE7     		b	.L108
 1048              	.LVL136:
 1049              	.L109:
  82:..\..\..\lvgl\version_6.1.2\lvgl\src\lv_objx/lv_btn.c **** 
 1050              		.loc 1 82 0
 1051 016e 0020     		movs	r0, #0
 1052 0170 F8BD     		pop	{r3, r4, r5, r6, r7, pc}
 1053              	.LVL137:
 1054              	.L112:
 1055              	.LBB119:
 128:..\..\..\lvgl\version_6.1.2\lvgl\src\lv_objx/lv_btn.c ****         }
 1056              		.loc 1 128 0
 1057 0172 2846     		mov	r0, r5
 1058              	.LVL138:
 1059 0174 6168     		ldr	r1, [r4, #4]
 1060 0176 FFF7FEFF 		bl	lv_obj_set_style
 1061              	.LVL139:
 1062 017a 2846     		mov	r0, r5
 1063 017c F8BD     		pop	{r3, r4, r5, r6, r7, pc}
 1064              	.LVL140:
 1065              	.L124:
 1066 017e 00BF     		.align	2
 1067              	.L123:
 1068 0180 00000000 		.word	.LANCHOR0
 1069 0184 00000000 		.word	lv_style_btn_rel
 1070 0188 00000000 		.word	lv_style_btn_pr
 1071 018c 00000000 		.word	lv_style_btn_tgl_rel
 1072 0190 00000000 		.word	lv_style_btn_tgl_pr
 1073 0194 00000000 		.word	lv_style_btn_ina
 1074 0198 00000000 		.word	lv_btn_signal
 1075 019c 00000000 		.word	lv_btn_design
 1076              	.LBE119:
 1077              		.cfi_endproc
 1078              	.LFE44:
 1079              		.size	lv_btn_create, .-lv_btn_create
 1080              		.section	.text.lv_btn_set_toggle,"ax",%progbits
 1081              		.align	2
 1082              		.global	lv_btn_set_toggle
 1083              		.thumb
 1084              		.thumb_func
 1085              		.type	lv_btn_set_toggle, %function
 1086              	lv_btn_set_toggle:
 1087              	.LFB45:
 162:..\..\..\lvgl\version_6.1.2\lvgl\src\lv_objx/lv_btn.c ****     LV_ASSERT_OBJ(btn, LV_OBJX_NAME);
 1088              		.loc 1 162 0
 1089              		.cfi_startproc
 1090              		@ args = 0, pretend = 0, frame = 0
 1091              		@ frame_needed = 0, uses_anonymous_args = 0
 1092              	.LVL141:
 1093 0000 10B5     		push	{r4, lr}
 1094              		.cfi_def_cfa_offset 8
 1095              		.cfi_offset 4, -8
 1096              		.cfi_offset 14, -4
 162:..\..\..\lvgl\version_6.1.2\lvgl\src\lv_objx/lv_btn.c ****     LV_ASSERT_OBJ(btn, LV_OBJX_NAME);
 1097              		.loc 1 162 0
ARM GAS  C:\Users\pearlstl\AppData\Local\Temp\ccbEAAPX.s 			page 38


 1098 0002 0C46     		mov	r4, r1
 165:..\..\..\lvgl\version_6.1.2\lvgl\src\lv_objx/lv_btn.c **** 
 1099              		.loc 1 165 0
 1100 0004 FFF7FEFF 		bl	lv_obj_get_ext_attr
 1101              	.LVL142:
 167:..\..\..\lvgl\version_6.1.2\lvgl\src\lv_objx/lv_btn.c **** }
 1102              		.loc 1 167 0
 1103 0008 037E     		ldrb	r3, [r0, #24]	@ zero_extendqisi2
 1104 000a 64F3C303 		bfi	r3, r4, #3, #1
 1105 000e 0376     		strb	r3, [r0, #24]
 1106 0010 10BD     		pop	{r4, pc}
 1107              		.cfi_endproc
 1108              	.LFE45:
 1109              		.size	lv_btn_set_toggle, .-lv_btn_set_toggle
 1110 0012 00BF     		.section	.text.lv_btn_set_state,"ax",%progbits
 1111              		.align	2
 1112              		.global	lv_btn_set_state
 1113              		.thumb
 1114              		.thumb_func
 1115              		.type	lv_btn_set_state, %function
 1116              	lv_btn_set_state:
 1117              	.LFB46:
 176:..\..\..\lvgl\version_6.1.2\lvgl\src\lv_objx/lv_btn.c ****     LV_ASSERT_OBJ(btn, LV_OBJX_NAME);
 1118              		.loc 1 176 0
 1119              		.cfi_startproc
 1120              		@ args = 0, pretend = 0, frame = 0
 1121              		@ frame_needed = 0, uses_anonymous_args = 0
 1122              	.LVL143:
 1123 0000 38B5     		push	{r3, r4, r5, lr}
 1124              		.cfi_def_cfa_offset 16
 1125              		.cfi_offset 3, -16
 1126              		.cfi_offset 4, -12
 1127              		.cfi_offset 5, -8
 1128              		.cfi_offset 14, -4
 176:..\..\..\lvgl\version_6.1.2\lvgl\src\lv_objx/lv_btn.c ****     LV_ASSERT_OBJ(btn, LV_OBJX_NAME);
 1129              		.loc 1 176 0
 1130 0002 0C46     		mov	r4, r1
 1131 0004 0546     		mov	r5, r0
 179:..\..\..\lvgl\version_6.1.2\lvgl\src\lv_objx/lv_btn.c ****     if(ext->state != state) {
 1132              		.loc 1 179 0
 1133 0006 FFF7FEFF 		bl	lv_obj_get_ext_attr
 1134              	.LVL144:
 180:..\..\..\lvgl\version_6.1.2\lvgl\src\lv_objx/lv_btn.c ****         ext->state = state;
 1135              		.loc 1 180 0
 1136 000a 037E     		ldrb	r3, [r0, #24]	@ zero_extendqisi2
 1137 000c 03F00702 		and	r2, r3, #7
 1138 0010 A242     		cmp	r2, r4
 1139 0012 0AD0     		beq	.L127
 181:..\..\..\lvgl\version_6.1.2\lvgl\src\lv_objx/lv_btn.c ****         lv_obj_set_style(btn, ext->styles[state]);
 1140              		.loc 1 181 0
 1141 0014 64F30203 		bfi	r3, r4, #0, #3
 182:..\..\..\lvgl\version_6.1.2\lvgl\src\lv_objx/lv_btn.c ****     }
 1142              		.loc 1 182 0
 1143 0018 00EB8404 		add	r4, r0, r4, lsl #2
 181:..\..\..\lvgl\version_6.1.2\lvgl\src\lv_objx/lv_btn.c ****         lv_obj_set_style(btn, ext->styles[state]);
 1144              		.loc 1 181 0
 1145 001c 0376     		strb	r3, [r0, #24]
ARM GAS  C:\Users\pearlstl\AppData\Local\Temp\ccbEAAPX.s 			page 39


 182:..\..\..\lvgl\version_6.1.2\lvgl\src\lv_objx/lv_btn.c ****     }
 1146              		.loc 1 182 0
 1147 001e 6168     		ldr	r1, [r4, #4]
 1148 0020 2846     		mov	r0, r5
 1149              	.LVL145:
 184:..\..\..\lvgl\version_6.1.2\lvgl\src\lv_objx/lv_btn.c **** 
 1150              		.loc 1 184 0
 1151 0022 BDE83840 		pop	{r3, r4, r5, lr}
 1152              		.cfi_remember_state
 1153              		.cfi_restore 14
 1154              		.cfi_restore 5
 1155              		.cfi_restore 4
 1156              		.cfi_restore 3
 1157              		.cfi_def_cfa_offset 0
 1158              	.LVL146:
 182:..\..\..\lvgl\version_6.1.2\lvgl\src\lv_objx/lv_btn.c ****     }
 1159              		.loc 1 182 0
 1160 0026 FFF7FEBF 		b	lv_obj_set_style
 1161              	.LVL147:
 1162              	.L127:
 1163              		.cfi_restore_state
 1164 002a 38BD     		pop	{r3, r4, r5, pc}
 1165              		.cfi_endproc
 1166              	.LFE46:
 1167              		.size	lv_btn_set_state, .-lv_btn_set_state
 1168              		.section	.text.lv_btn_toggle,"ax",%progbits
 1169              		.align	2
 1170              		.global	lv_btn_toggle
 1171              		.thumb
 1172              		.thumb_func
 1173              		.type	lv_btn_toggle, %function
 1174              	lv_btn_toggle:
 1175              	.LFB47:
 191:..\..\..\lvgl\version_6.1.2\lvgl\src\lv_objx/lv_btn.c ****     LV_ASSERT_OBJ(btn, LV_OBJX_NAME);
 1176              		.loc 1 191 0
 1177              		.cfi_startproc
 1178              		@ args = 0, pretend = 0, frame = 0
 1179              		@ frame_needed = 0, uses_anonymous_args = 0
 1180              	.LVL148:
 1181 0000 10B5     		push	{r4, lr}
 1182              		.cfi_def_cfa_offset 8
 1183              		.cfi_offset 4, -8
 1184              		.cfi_offset 14, -4
 191:..\..\..\lvgl\version_6.1.2\lvgl\src\lv_objx/lv_btn.c ****     LV_ASSERT_OBJ(btn, LV_OBJX_NAME);
 1185              		.loc 1 191 0
 1186 0002 0446     		mov	r4, r0
 194:..\..\..\lvgl\version_6.1.2\lvgl\src\lv_objx/lv_btn.c ****     switch(ext->state) {
 1187              		.loc 1 194 0
 1188 0004 FFF7FEFF 		bl	lv_obj_get_ext_attr
 1189              	.LVL149:
 195:..\..\..\lvgl\version_6.1.2\lvgl\src\lv_objx/lv_btn.c ****         case LV_BTN_STATE_REL: lv_btn_set_state(btn, LV_BTN_STATE_TGL_REL); break;
 1190              		.loc 1 195 0
 1191 0008 037E     		ldrb	r3, [r0, #24]	@ zero_extendqisi2
 1192 000a 03F00703 		and	r3, r3, #7
 1193 000e 032B     		cmp	r3, #3
 1194 0010 0CD8     		bhi	.L130
 1195 0012 DFE803F0 		tbb	[pc, r3]
ARM GAS  C:\Users\pearlstl\AppData\Local\Temp\ccbEAAPX.s 			page 40


 1196              	.L133:
 1197 0016 2E       		.byte	(.L132-.L133)/2
 1198 0017 1B       		.byte	(.L134-.L133)/2
 1199 0018 0C       		.byte	(.L135-.L133)/2
 1200 0019 02       		.byte	(.L136-.L133)/2
 1201              		.p2align 1
 1202              	.L136:
 1203              	.LVL150:
 1204              	.LBB128:
 1205              	.LBB129:
 179:..\..\..\lvgl\version_6.1.2\lvgl\src\lv_objx/lv_btn.c ****     if(ext->state != state) {
 1206              		.loc 1 179 0
 1207 001a 2046     		mov	r0, r4
 1208              	.LVL151:
 1209 001c FFF7FEFF 		bl	lv_obj_get_ext_attr
 1210              	.LVL152:
 180:..\..\..\lvgl\version_6.1.2\lvgl\src\lv_objx/lv_btn.c ****         ext->state = state;
 1211              		.loc 1 180 0
 1212 0020 037E     		ldrb	r3, [r0, #24]	@ zero_extendqisi2
 1213 0022 03F00701 		and	r1, r3, #7
 1214 0026 0129     		cmp	r1, #1
 179:..\..\..\lvgl\version_6.1.2\lvgl\src\lv_objx/lv_btn.c ****     if(ext->state != state) {
 1215              		.loc 1 179 0
 1216 0028 0246     		mov	r2, r0
 1217              	.LVL153:
 180:..\..\..\lvgl\version_6.1.2\lvgl\src\lv_objx/lv_btn.c ****         ext->state = state;
 1218              		.loc 1 180 0
 1219 002a 35D1     		bne	.L149
 1220              	.LVL154:
 1221              	.L130:
 1222 002c 10BD     		pop	{r4, pc}
 1223              	.LVL155:
 1224              	.L135:
 1225              	.LBE129:
 1226              	.LBE128:
 1227              	.LBB132:
 1228              	.LBB133:
 179:..\..\..\lvgl\version_6.1.2\lvgl\src\lv_objx/lv_btn.c ****     if(ext->state != state) {
 1229              		.loc 1 179 0
 1230 002e 2046     		mov	r0, r4
 1231              	.LVL156:
 1232 0030 FFF7FEFF 		bl	lv_obj_get_ext_attr
 1233              	.LVL157:
 180:..\..\..\lvgl\version_6.1.2\lvgl\src\lv_objx/lv_btn.c ****         ext->state = state;
 1234              		.loc 1 180 0
 1235 0034 037E     		ldrb	r3, [r0, #24]	@ zero_extendqisi2
 1236 0036 5A07     		lsls	r2, r3, #29
 1237 0038 F8D0     		beq	.L130
 181:..\..\..\lvgl\version_6.1.2\lvgl\src\lv_objx/lv_btn.c ****         lv_obj_set_style(btn, ext->styles[state]);
 1238              		.loc 1 181 0
 1239 003a 6FF30203 		bfc	r3, #0, #3
 1240 003e 0376     		strb	r3, [r0, #24]
 182:..\..\..\lvgl\version_6.1.2\lvgl\src\lv_objx/lv_btn.c ****     }
 1241              		.loc 1 182 0
 1242 0040 4168     		ldr	r1, [r0, #4]
 1243 0042 2046     		mov	r0, r4
 1244              	.LVL158:
ARM GAS  C:\Users\pearlstl\AppData\Local\Temp\ccbEAAPX.s 			page 41


 1245              	.LBE133:
 1246              	.LBE132:
 202:..\..\..\lvgl\version_6.1.2\lvgl\src\lv_objx/lv_btn.c **** 
 1247              		.loc 1 202 0
 1248 0044 BDE81040 		pop	{r4, lr}
 1249              		.cfi_remember_state
 1250              		.cfi_restore 14
 1251              		.cfi_restore 4
 1252              		.cfi_def_cfa_offset 0
 1253              	.LVL159:
 1254              	.LBB135:
 1255              	.LBB134:
 182:..\..\..\lvgl\version_6.1.2\lvgl\src\lv_objx/lv_btn.c ****     }
 1256              		.loc 1 182 0
 1257 0048 FFF7FEBF 		b	lv_obj_set_style
 1258              	.LVL160:
 1259              	.L134:
 1260              		.cfi_restore_state
 1261              	.LBE134:
 1262              	.LBE135:
 1263              	.LBB136:
 1264              	.LBB137:
 179:..\..\..\lvgl\version_6.1.2\lvgl\src\lv_objx/lv_btn.c ****     if(ext->state != state) {
 1265              		.loc 1 179 0
 1266 004c 2046     		mov	r0, r4
 1267              	.LVL161:
 1268 004e FFF7FEFF 		bl	lv_obj_get_ext_attr
 1269              	.LVL162:
 180:..\..\..\lvgl\version_6.1.2\lvgl\src\lv_objx/lv_btn.c ****         ext->state = state;
 1270              		.loc 1 180 0
 1271 0052 037E     		ldrb	r3, [r0, #24]	@ zero_extendqisi2
 1272 0054 03F00701 		and	r1, r3, #7
 1273 0058 0329     		cmp	r1, #3
 179:..\..\..\lvgl\version_6.1.2\lvgl\src\lv_objx/lv_btn.c ****     if(ext->state != state) {
 1274              		.loc 1 179 0
 1275 005a 0246     		mov	r2, r0
 1276              	.LVL163:
 180:..\..\..\lvgl\version_6.1.2\lvgl\src\lv_objx/lv_btn.c ****         ext->state = state;
 1277              		.loc 1 180 0
 1278 005c E6D0     		beq	.L130
 181:..\..\..\lvgl\version_6.1.2\lvgl\src\lv_objx/lv_btn.c ****         lv_obj_set_style(btn, ext->styles[state]);
 1279              		.loc 1 181 0
 1280 005e 0321     		movs	r1, #3
 1281 0060 61F30203 		bfi	r3, r1, #0, #3
 182:..\..\..\lvgl\version_6.1.2\lvgl\src\lv_objx/lv_btn.c ****     }
 1282              		.loc 1 182 0
 1283 0064 2046     		mov	r0, r4
 1284              	.LVL164:
 181:..\..\..\lvgl\version_6.1.2\lvgl\src\lv_objx/lv_btn.c ****         lv_obj_set_style(btn, ext->styles[state]);
 1285              		.loc 1 181 0
 1286 0066 1376     		strb	r3, [r2, #24]
 182:..\..\..\lvgl\version_6.1.2\lvgl\src\lv_objx/lv_btn.c ****     }
 1287              		.loc 1 182 0
 1288 0068 1169     		ldr	r1, [r2, #16]
 1289              	.LBE137:
 1290              	.LBE136:
 202:..\..\..\lvgl\version_6.1.2\lvgl\src\lv_objx/lv_btn.c **** 
ARM GAS  C:\Users\pearlstl\AppData\Local\Temp\ccbEAAPX.s 			page 42


 1291              		.loc 1 202 0
 1292 006a BDE81040 		pop	{r4, lr}
 1293              		.cfi_remember_state
 1294              		.cfi_restore 14
 1295              		.cfi_restore 4
 1296              		.cfi_def_cfa_offset 0
 1297              	.LVL165:
 1298              	.LBB139:
 1299              	.LBB138:
 182:..\..\..\lvgl\version_6.1.2\lvgl\src\lv_objx/lv_btn.c ****     }
 1300              		.loc 1 182 0
 1301 006e FFF7FEBF 		b	lv_obj_set_style
 1302              	.LVL166:
 1303              	.L132:
 1304              		.cfi_restore_state
 1305              	.LBE138:
 1306              	.LBE139:
 1307              	.LBB140:
 1308              	.LBB141:
 179:..\..\..\lvgl\version_6.1.2\lvgl\src\lv_objx/lv_btn.c ****     if(ext->state != state) {
 1309              		.loc 1 179 0
 1310 0072 2046     		mov	r0, r4
 1311              	.LVL167:
 1312 0074 FFF7FEFF 		bl	lv_obj_get_ext_attr
 1313              	.LVL168:
 180:..\..\..\lvgl\version_6.1.2\lvgl\src\lv_objx/lv_btn.c ****         ext->state = state;
 1314              		.loc 1 180 0
 1315 0078 037E     		ldrb	r3, [r0, #24]	@ zero_extendqisi2
 1316 007a 03F00701 		and	r1, r3, #7
 1317 007e 0229     		cmp	r1, #2
 179:..\..\..\lvgl\version_6.1.2\lvgl\src\lv_objx/lv_btn.c ****     if(ext->state != state) {
 1318              		.loc 1 179 0
 1319 0080 0246     		mov	r2, r0
 1320              	.LVL169:
 180:..\..\..\lvgl\version_6.1.2\lvgl\src\lv_objx/lv_btn.c ****         ext->state = state;
 1321              		.loc 1 180 0
 1322 0082 D3D0     		beq	.L130
 181:..\..\..\lvgl\version_6.1.2\lvgl\src\lv_objx/lv_btn.c ****         lv_obj_set_style(btn, ext->styles[state]);
 1323              		.loc 1 181 0
 1324 0084 0221     		movs	r1, #2
 1325 0086 61F30203 		bfi	r3, r1, #0, #3
 182:..\..\..\lvgl\version_6.1.2\lvgl\src\lv_objx/lv_btn.c ****     }
 1326              		.loc 1 182 0
 1327 008a 2046     		mov	r0, r4
 1328              	.LVL170:
 181:..\..\..\lvgl\version_6.1.2\lvgl\src\lv_objx/lv_btn.c ****         lv_obj_set_style(btn, ext->styles[state]);
 1329              		.loc 1 181 0
 1330 008c 1376     		strb	r3, [r2, #24]
 182:..\..\..\lvgl\version_6.1.2\lvgl\src\lv_objx/lv_btn.c ****     }
 1331              		.loc 1 182 0
 1332 008e D168     		ldr	r1, [r2, #12]
 1333              	.LBE141:
 1334              	.LBE140:
 202:..\..\..\lvgl\version_6.1.2\lvgl\src\lv_objx/lv_btn.c **** 
 1335              		.loc 1 202 0
 1336 0090 BDE81040 		pop	{r4, lr}
 1337              		.cfi_remember_state
ARM GAS  C:\Users\pearlstl\AppData\Local\Temp\ccbEAAPX.s 			page 43


 1338              		.cfi_restore 14
 1339              		.cfi_restore 4
 1340              		.cfi_def_cfa_offset 0
 1341              	.LVL171:
 1342              	.LBB143:
 1343              	.LBB142:
 182:..\..\..\lvgl\version_6.1.2\lvgl\src\lv_objx/lv_btn.c ****     }
 1344              		.loc 1 182 0
 1345 0094 FFF7FEBF 		b	lv_obj_set_style
 1346              	.LVL172:
 1347              	.L149:
 1348              		.cfi_restore_state
 1349              	.LBE142:
 1350              	.LBE143:
 1351              	.LBB144:
 1352              	.LBB130:
 181:..\..\..\lvgl\version_6.1.2\lvgl\src\lv_objx/lv_btn.c ****         lv_obj_set_style(btn, ext->styles[state]);
 1353              		.loc 1 181 0
 1354 0098 0121     		movs	r1, #1
 1355 009a 61F30203 		bfi	r3, r1, #0, #3
 182:..\..\..\lvgl\version_6.1.2\lvgl\src\lv_objx/lv_btn.c ****     }
 1356              		.loc 1 182 0
 1357 009e 2046     		mov	r0, r4
 1358              	.LVL173:
 181:..\..\..\lvgl\version_6.1.2\lvgl\src\lv_objx/lv_btn.c ****         lv_obj_set_style(btn, ext->styles[state]);
 1359              		.loc 1 181 0
 1360 00a0 1376     		strb	r3, [r2, #24]
 182:..\..\..\lvgl\version_6.1.2\lvgl\src\lv_objx/lv_btn.c ****     }
 1361              		.loc 1 182 0
 1362 00a2 9168     		ldr	r1, [r2, #8]
 1363              	.LBE130:
 1364              	.LBE144:
 202:..\..\..\lvgl\version_6.1.2\lvgl\src\lv_objx/lv_btn.c **** 
 1365              		.loc 1 202 0
 1366 00a4 BDE81040 		pop	{r4, lr}
 1367              		.cfi_restore 14
 1368              		.cfi_restore 4
 1369              		.cfi_def_cfa_offset 0
 1370              	.LVL174:
 1371              	.LBB145:
 1372              	.LBB131:
 182:..\..\..\lvgl\version_6.1.2\lvgl\src\lv_objx/lv_btn.c ****     }
 1373              		.loc 1 182 0
 1374 00a8 FFF7FEBF 		b	lv_obj_set_style
 1375              	.LVL175:
 1376              	.LBE131:
 1377              	.LBE145:
 1378              		.cfi_endproc
 1379              	.LFE47:
 1380              		.size	lv_btn_toggle, .-lv_btn_toggle
 1381              		.section	.text.lv_btn_set_ink_in_time,"ax",%progbits
 1382              		.align	2
 1383              		.global	lv_btn_set_ink_in_time
 1384              		.thumb
 1385              		.thumb_func
 1386              		.type	lv_btn_set_ink_in_time, %function
 1387              	lv_btn_set_ink_in_time:
ARM GAS  C:\Users\pearlstl\AppData\Local\Temp\ccbEAAPX.s 			page 44


 1388              	.LFB68:
 1389              		.cfi_startproc
 1390              		@ args = 0, pretend = 0, frame = 0
 1391              		@ frame_needed = 0, uses_anonymous_args = 0
 1392              		@ link register save eliminated.
 1393 0000 7047     		bx	lr
 1394              		.cfi_endproc
 1395              	.LFE68:
 1396              		.size	lv_btn_set_ink_in_time, .-lv_btn_set_ink_in_time
 1397 0002 00BF     		.section	.text.lv_btn_set_ink_wait_time,"ax",%progbits
 1398              		.align	2
 1399              		.global	lv_btn_set_ink_wait_time
 1400              		.thumb
 1401              		.thumb_func
 1402              		.type	lv_btn_set_ink_wait_time, %function
 1403              	lv_btn_set_ink_wait_time:
 1404              	.LFB66:
 1405              		.cfi_startproc
 1406              		@ args = 0, pretend = 0, frame = 0
 1407              		@ frame_needed = 0, uses_anonymous_args = 0
 1408              		@ link register save eliminated.
 1409 0000 7047     		bx	lr
 1410              		.cfi_endproc
 1411              	.LFE66:
 1412              		.size	lv_btn_set_ink_wait_time, .-lv_btn_set_ink_wait_time
 1413 0002 00BF     		.section	.text.lv_btn_set_ink_out_time,"ax",%progbits
 1414              		.align	2
 1415              		.global	lv_btn_set_ink_out_time
 1416              		.thumb
 1417              		.thumb_func
 1418              		.type	lv_btn_set_ink_out_time, %function
 1419              	lv_btn_set_ink_out_time:
 1420              	.LFB50:
 251:..\..\..\lvgl\version_6.1.2\lvgl\src\lv_objx/lv_btn.c ****     LV_ASSERT_OBJ(btn, LV_OBJX_NAME);
 1421              		.loc 1 251 0
 1422              		.cfi_startproc
 1423              		@ args = 0, pretend = 0, frame = 0
 1424              		@ frame_needed = 0, uses_anonymous_args = 0
 1425              		@ link register save eliminated.
 1426              	.LVL176:
 1427 0000 7047     		bx	lr
 1428              		.cfi_endproc
 1429              	.LFE50:
 1430              		.size	lv_btn_set_ink_out_time, .-lv_btn_set_ink_out_time
 1431 0002 00BF     		.section	.text.lv_btn_set_style,"ax",%progbits
 1432              		.align	2
 1433              		.global	lv_btn_set_style
 1434              		.thumb
 1435              		.thumb_func
 1436              		.type	lv_btn_set_style, %function
 1437              	lv_btn_set_style:
 1438              	.LFB51:
 272:..\..\..\lvgl\version_6.1.2\lvgl\src\lv_objx/lv_btn.c ****     LV_ASSERT_OBJ(btn, LV_OBJX_NAME);
 1439              		.loc 1 272 0
 1440              		.cfi_startproc
 1441              		@ args = 0, pretend = 0, frame = 0
 1442              		@ frame_needed = 0, uses_anonymous_args = 0
ARM GAS  C:\Users\pearlstl\AppData\Local\Temp\ccbEAAPX.s 			page 45


 1443              	.LVL177:
 272:..\..\..\lvgl\version_6.1.2\lvgl\src\lv_objx/lv_btn.c ****     LV_ASSERT_OBJ(btn, LV_OBJX_NAME);
 1444              		.loc 1 272 0
 1445 0000 70B5     		push	{r4, r5, r6, lr}
 1446              		.cfi_def_cfa_offset 16
 1447              		.cfi_offset 4, -16
 1448              		.cfi_offset 5, -12
 1449              		.cfi_offset 6, -8
 1450              		.cfi_offset 14, -4
 272:..\..\..\lvgl\version_6.1.2\lvgl\src\lv_objx/lv_btn.c ****     LV_ASSERT_OBJ(btn, LV_OBJX_NAME);
 1451              		.loc 1 272 0
 1452 0002 0C46     		mov	r4, r1
 1453 0004 1646     		mov	r6, r2
 1454 0006 0546     		mov	r5, r0
 275:..\..\..\lvgl\version_6.1.2\lvgl\src\lv_objx/lv_btn.c **** 
 1455              		.loc 1 275 0
 1456 0008 FFF7FEFF 		bl	lv_obj_get_ext_attr
 1457              	.LVL178:
 277:..\..\..\lvgl\version_6.1.2\lvgl\src\lv_objx/lv_btn.c ****         case LV_BTN_STYLE_REL: ext->styles[LV_BTN_STATE_REL] = style; break;
 1458              		.loc 1 277 0
 1459 000c 042C     		cmp	r4, #4
 1460 000e 05D8     		bhi	.L154
 1461 0010 DFE804F0 		tbb	[pc, r4]
 1462              	.L156:
 1463 0014 0F       		.byte	(.L155-.L156)/2
 1464 0015 11       		.byte	(.L157-.L156)/2
 1465 0016 13       		.byte	(.L158-.L156)/2
 1466 0017 15       		.byte	(.L159-.L156)/2
 1467 0018 03       		.byte	(.L160-.L156)/2
 1468 0019 00       		.p2align 1
 1469              	.L160:
 282:..\..\..\lvgl\version_6.1.2\lvgl\src\lv_objx/lv_btn.c ****     }
 1470              		.loc 1 282 0
 1471 001a 4661     		str	r6, [r0, #20]
 1472              	.L154:
 286:..\..\..\lvgl\version_6.1.2\lvgl\src\lv_objx/lv_btn.c **** }
 1473              		.loc 1 286 0
 1474 001c 037E     		ldrb	r3, [r0, #24]	@ zero_extendqisi2
 1475 001e 03F00703 		and	r3, r3, #7
 1476 0022 00EB8303 		add	r3, r0, r3, lsl #2
 1477 0026 2846     		mov	r0, r5
 1478              	.LVL179:
 1479 0028 5968     		ldr	r1, [r3, #4]
 287:..\..\..\lvgl\version_6.1.2\lvgl\src\lv_objx/lv_btn.c **** 
 1480              		.loc 1 287 0
 1481 002a BDE87040 		pop	{r4, r5, r6, lr}
 1482              		.cfi_remember_state
 1483              		.cfi_restore 14
 1484              		.cfi_restore 6
 1485              		.cfi_restore 5
 1486              		.cfi_restore 4
 1487              		.cfi_def_cfa_offset 0
 1488              	.LVL180:
 286:..\..\..\lvgl\version_6.1.2\lvgl\src\lv_objx/lv_btn.c **** }
 1489              		.loc 1 286 0
 1490 002e FFF7FEBF 		b	lv_obj_set_style
 1491              	.LVL181:
ARM GAS  C:\Users\pearlstl\AppData\Local\Temp\ccbEAAPX.s 			page 46


 1492              	.L155:
 1493              		.cfi_restore_state
 278:..\..\..\lvgl\version_6.1.2\lvgl\src\lv_objx/lv_btn.c ****         case LV_BTN_STYLE_PR: ext->styles[LV_BTN_STATE_PR] = style; break;
 1494              		.loc 1 278 0
 1495 0032 4660     		str	r6, [r0, #4]
 1496 0034 F2E7     		b	.L154
 1497              	.L157:
 279:..\..\..\lvgl\version_6.1.2\lvgl\src\lv_objx/lv_btn.c ****         case LV_BTN_STYLE_TGL_REL: ext->styles[LV_BTN_STATE_TGL_REL] = style; break;
 1498              		.loc 1 279 0
 1499 0036 8660     		str	r6, [r0, #8]
 1500 0038 F0E7     		b	.L154
 1501              	.L158:
 280:..\..\..\lvgl\version_6.1.2\lvgl\src\lv_objx/lv_btn.c ****         case LV_BTN_STYLE_TGL_PR: ext->styles[LV_BTN_STATE_TGL_PR] = style; break;
 1502              		.loc 1 280 0
 1503 003a C660     		str	r6, [r0, #12]
 1504 003c EEE7     		b	.L154
 1505              	.L159:
 281:..\..\..\lvgl\version_6.1.2\lvgl\src\lv_objx/lv_btn.c ****         case LV_BTN_STYLE_INA: ext->styles[LV_BTN_STATE_INA] = style; break;
 1506              		.loc 1 281 0
 1507 003e 0661     		str	r6, [r0, #16]
 1508 0040 ECE7     		b	.L154
 1509              		.cfi_endproc
 1510              	.LFE51:
 1511              		.size	lv_btn_set_style, .-lv_btn_set_style
 1512 0042 00BF     		.section	.text.lv_btn_get_state,"ax",%progbits
 1513              		.align	2
 1514              		.global	lv_btn_get_state
 1515              		.thumb
 1516              		.thumb_func
 1517              		.type	lv_btn_get_state, %function
 1518              	lv_btn_get_state:
 1519              	.LFB52:
 299:..\..\..\lvgl\version_6.1.2\lvgl\src\lv_objx/lv_btn.c ****     LV_ASSERT_OBJ(btn, LV_OBJX_NAME);
 1520              		.loc 1 299 0
 1521              		.cfi_startproc
 1522              		@ args = 0, pretend = 0, frame = 0
 1523              		@ frame_needed = 0, uses_anonymous_args = 0
 1524              	.LVL182:
 1525 0000 08B5     		push	{r3, lr}
 1526              		.cfi_def_cfa_offset 8
 1527              		.cfi_offset 3, -8
 1528              		.cfi_offset 14, -4
 302:..\..\..\lvgl\version_6.1.2\lvgl\src\lv_objx/lv_btn.c ****     return ext->state;
 1529              		.loc 1 302 0
 1530 0002 FFF7FEFF 		bl	lv_obj_get_ext_attr
 1531              	.LVL183:
 303:..\..\..\lvgl\version_6.1.2\lvgl\src\lv_objx/lv_btn.c **** }
 1532              		.loc 1 303 0
 1533 0006 007E     		ldrb	r0, [r0, #24]	@ zero_extendqisi2
 1534              	.LVL184:
 304:..\..\..\lvgl\version_6.1.2\lvgl\src\lv_objx/lv_btn.c **** 
 1535              		.loc 1 304 0
 1536 0008 00F00700 		and	r0, r0, #7
 1537 000c 08BD     		pop	{r3, pc}
 1538              		.cfi_endproc
 1539              	.LFE52:
 1540              		.size	lv_btn_get_state, .-lv_btn_get_state
ARM GAS  C:\Users\pearlstl\AppData\Local\Temp\ccbEAAPX.s 			page 47


 1541 000e 00BF     		.section	.text.lv_btn_get_toggle,"ax",%progbits
 1542              		.align	2
 1543              		.global	lv_btn_get_toggle
 1544              		.thumb
 1545              		.thumb_func
 1546              		.type	lv_btn_get_toggle, %function
 1547              	lv_btn_get_toggle:
 1548              	.LFB53:
 312:..\..\..\lvgl\version_6.1.2\lvgl\src\lv_objx/lv_btn.c ****     LV_ASSERT_OBJ(btn, LV_OBJX_NAME);
 1549              		.loc 1 312 0
 1550              		.cfi_startproc
 1551              		@ args = 0, pretend = 0, frame = 0
 1552              		@ frame_needed = 0, uses_anonymous_args = 0
 1553              	.LVL185:
 1554 0000 08B5     		push	{r3, lr}
 1555              		.cfi_def_cfa_offset 8
 1556              		.cfi_offset 3, -8
 1557              		.cfi_offset 14, -4
 315:..\..\..\lvgl\version_6.1.2\lvgl\src\lv_objx/lv_btn.c **** 
 1558              		.loc 1 315 0
 1559 0002 FFF7FEFF 		bl	lv_obj_get_ext_attr
 1560              	.LVL186:
 317:..\..\..\lvgl\version_6.1.2\lvgl\src\lv_objx/lv_btn.c **** }
 1561              		.loc 1 317 0
 1562 0006 007E     		ldrb	r0, [r0, #24]	@ zero_extendqisi2
 1563              	.LVL187:
 318:..\..\..\lvgl\version_6.1.2\lvgl\src\lv_objx/lv_btn.c **** 
 1564              		.loc 1 318 0
 1565 0008 C0F3C000 		ubfx	r0, r0, #3, #1
 1566 000c 08BD     		pop	{r3, pc}
 1567              		.cfi_endproc
 1568              	.LFE53:
 1569              		.size	lv_btn_get_toggle, .-lv_btn_get_toggle
 1570 000e 00BF     		.section	.text.lv_btn_get_ink_in_time,"ax",%progbits
 1571              		.align	2
 1572              		.global	lv_btn_get_ink_in_time
 1573              		.thumb
 1574              		.thumb_func
 1575              		.type	lv_btn_get_ink_in_time, %function
 1576              	lv_btn_get_ink_in_time:
 1577              	.LFB64:
 1578              		.cfi_startproc
 1579              		@ args = 0, pretend = 0, frame = 0
 1580              		@ frame_needed = 0, uses_anonymous_args = 0
 1581              		@ link register save eliminated.
 1582 0000 0020     		movs	r0, #0
 1583 0002 7047     		bx	lr
 1584              		.cfi_endproc
 1585              	.LFE64:
 1586              		.size	lv_btn_get_ink_in_time, .-lv_btn_get_ink_in_time
 1587              		.section	.text.lv_btn_get_ink_wait_time,"ax",%progbits
 1588              		.align	2
 1589              		.global	lv_btn_get_ink_wait_time
 1590              		.thumb
 1591              		.thumb_func
 1592              		.type	lv_btn_get_ink_wait_time, %function
 1593              	lv_btn_get_ink_wait_time:
ARM GAS  C:\Users\pearlstl\AppData\Local\Temp\ccbEAAPX.s 			page 48


 1594              	.LFB62:
 1595              		.cfi_startproc
 1596              		@ args = 0, pretend = 0, frame = 0
 1597              		@ frame_needed = 0, uses_anonymous_args = 0
 1598              		@ link register save eliminated.
 1599 0000 0020     		movs	r0, #0
 1600 0002 7047     		bx	lr
 1601              		.cfi_endproc
 1602              	.LFE62:
 1603              		.size	lv_btn_get_ink_wait_time, .-lv_btn_get_ink_wait_time
 1604              		.section	.text.lv_btn_get_ink_out_time,"ax",%progbits
 1605              		.align	2
 1606              		.global	lv_btn_get_ink_out_time
 1607              		.thumb
 1608              		.thumb_func
 1609              		.type	lv_btn_get_ink_out_time, %function
 1610              	lv_btn_get_ink_out_time:
 1611              	.LFB56:
 361:..\..\..\lvgl\version_6.1.2\lvgl\src\lv_objx/lv_btn.c ****     LV_ASSERT_OBJ(btn, LV_OBJX_NAME);
 1612              		.loc 1 361 0
 1613              		.cfi_startproc
 1614              		@ args = 0, pretend = 0, frame = 0
 1615              		@ frame_needed = 0, uses_anonymous_args = 0
 1616              		@ link register save eliminated.
 1617              	.LVL188:
 371:..\..\..\lvgl\version_6.1.2\lvgl\src\lv_objx/lv_btn.c **** 
 1618              		.loc 1 371 0
 1619 0000 0020     		movs	r0, #0
 1620              	.LVL189:
 1621 0002 7047     		bx	lr
 1622              		.cfi_endproc
 1623              	.LFE56:
 1624              		.size	lv_btn_get_ink_out_time, .-lv_btn_get_ink_out_time
 1625              		.section	.text.lv_btn_get_style,"ax",%progbits
 1626              		.align	2
 1627              		.global	lv_btn_get_style
 1628              		.thumb
 1629              		.thumb_func
 1630              		.type	lv_btn_get_style, %function
 1631              	lv_btn_get_style:
 1632              	.LFB57:
 380:..\..\..\lvgl\version_6.1.2\lvgl\src\lv_objx/lv_btn.c ****     LV_ASSERT_OBJ(btn, LV_OBJX_NAME);
 1633              		.loc 1 380 0
 1634              		.cfi_startproc
 1635              		@ args = 0, pretend = 0, frame = 0
 1636              		@ frame_needed = 0, uses_anonymous_args = 0
 1637              	.LVL190:
 1638 0000 70B5     		push	{r4, r5, r6, lr}
 1639              		.cfi_def_cfa_offset 16
 1640              		.cfi_offset 4, -16
 1641              		.cfi_offset 5, -12
 1642              		.cfi_offset 6, -8
 1643              		.cfi_offset 14, -4
 380:..\..\..\lvgl\version_6.1.2\lvgl\src\lv_objx/lv_btn.c ****     LV_ASSERT_OBJ(btn, LV_OBJX_NAME);
 1644              		.loc 1 380 0
 1645 0002 0546     		mov	r5, r0
 1646 0004 0C46     		mov	r4, r1
ARM GAS  C:\Users\pearlstl\AppData\Local\Temp\ccbEAAPX.s 			page 49


 384:..\..\..\lvgl\version_6.1.2\lvgl\src\lv_objx/lv_btn.c ****     lv_btn_state_t state     = lv_btn_get_state(btn);
 1647              		.loc 1 384 0
 1648 0006 FFF7FEFF 		bl	lv_obj_get_ext_attr
 1649              	.LVL191:
 1650 000a 0646     		mov	r6, r0
 1651              	.LVL192:
 1652              	.LBB146:
 1653              	.LBB147:
 302:..\..\..\lvgl\version_6.1.2\lvgl\src\lv_objx/lv_btn.c ****     return ext->state;
 1654              		.loc 1 302 0
 1655 000c 2846     		mov	r0, r5
 1656              	.LVL193:
 1657 000e FFF7FEFF 		bl	lv_obj_get_ext_attr
 1658              	.LVL194:
 303:..\..\..\lvgl\version_6.1.2\lvgl\src\lv_objx/lv_btn.c **** }
 1659              		.loc 1 303 0
 1660 0012 037E     		ldrb	r3, [r0, #24]	@ zero_extendqisi2
 1661 0014 03F00703 		and	r3, r3, #7
 1662              	.LVL195:
 1663              	.LBE147:
 1664              	.LBE146:
 390:..\..\..\lvgl\version_6.1.2\lvgl\src\lv_objx/lv_btn.c ****        (type == LV_BTN_STYLE_PR && state == LV_BTN_STATE_PR) ||
 1665              		.loc 1 390 0
 1666 0018 14B9     		cbnz	r4, .L170
 390:..\..\..\lvgl\version_6.1.2\lvgl\src\lv_objx/lv_btn.c ****        (type == LV_BTN_STYLE_PR && state == LV_BTN_STATE_PR) ||
 1667              		.loc 1 390 0 is_stmt 0 discriminator 1
 1668 001a 8BB1     		cbz	r3, .L171
 399:..\..\..\lvgl\version_6.1.2\lvgl\src\lv_objx/lv_btn.c ****             case LV_BTN_STYLE_PR: style = ext->styles[LV_BTN_STATE_PR]; break;
 1669              		.loc 1 399 0 is_stmt 1
 1670 001c 7068     		ldr	r0, [r6, #4]
 1671              	.LVL196:
 1672 001e 70BD     		pop	{r4, r5, r6, pc}
 1673              	.LVL197:
 1674              	.L170:
 390:..\..\..\lvgl\version_6.1.2\lvgl\src\lv_objx/lv_btn.c ****        (type == LV_BTN_STYLE_PR && state == LV_BTN_STATE_PR) ||
 1675              		.loc 1 390 0 discriminator 3
 1676 0020 012C     		cmp	r4, #1
 1677 0022 07D0     		beq	.L199
 391:..\..\..\lvgl\version_6.1.2\lvgl\src\lv_objx/lv_btn.c ****        (type == LV_BTN_STYLE_TGL_REL && state == LV_BTN_STATE_TGL_REL) ||
 1678              		.loc 1 391 0 discriminator 1
 1679 0024 022C     		cmp	r4, #2
 1680 0026 09D0     		beq	.L200
 392:..\..\..\lvgl\version_6.1.2\lvgl\src\lv_objx/lv_btn.c ****        (type == LV_BTN_STYLE_TGL_PR && state == LV_BTN_STATE_TGL_PR) ||
 1681              		.loc 1 392 0 discriminator 1
 1682 0028 032C     		cmp	r4, #3
 1683 002a 10D1     		bne	.L177
 393:..\..\..\lvgl\version_6.1.2\lvgl\src\lv_objx/lv_btn.c ****        (type == LV_BTN_STYLE_INA && state == LV_BTN_STATE_INA)) {
 1684              		.loc 1 393 0
 1685 002c 032B     		cmp	r3, #3
 1686 002e 07D0     		beq	.L171
 402:..\..\..\lvgl\version_6.1.2\lvgl\src\lv_objx/lv_btn.c ****             case LV_BTN_STYLE_INA: style = ext->styles[LV_BTN_STATE_INA]; break;
 1687              		.loc 1 402 0
 1688 0030 3069     		ldr	r0, [r6, #16]
 1689              	.LVL198:
 1690 0032 70BD     		pop	{r4, r5, r6, pc}
 1691              	.LVL199:
 1692              	.L199:
ARM GAS  C:\Users\pearlstl\AppData\Local\Temp\ccbEAAPX.s 			page 50


 391:..\..\..\lvgl\version_6.1.2\lvgl\src\lv_objx/lv_btn.c ****        (type == LV_BTN_STYLE_TGL_REL && state == LV_BTN_STATE_TGL_REL) ||
 1693              		.loc 1 391 0
 1694 0034 012B     		cmp	r3, #1
 1695 0036 03D0     		beq	.L171
 400:..\..\..\lvgl\version_6.1.2\lvgl\src\lv_objx/lv_btn.c ****             case LV_BTN_STYLE_TGL_REL: style = ext->styles[LV_BTN_STATE_TGL_REL]; break;
 1696              		.loc 1 400 0
 1697 0038 B068     		ldr	r0, [r6, #8]
 1698              	.LVL200:
 1699 003a 70BD     		pop	{r4, r5, r6, pc}
 1700              	.LVL201:
 1701              	.L200:
 392:..\..\..\lvgl\version_6.1.2\lvgl\src\lv_objx/lv_btn.c ****        (type == LV_BTN_STYLE_TGL_PR && state == LV_BTN_STATE_TGL_PR) ||
 1702              		.loc 1 392 0
 1703 003c 022B     		cmp	r3, #2
 1704 003e 04D1     		bne	.L196
 1705              	.L171:
 396:..\..\..\lvgl\version_6.1.2\lvgl\src\lv_objx/lv_btn.c ****     } else {
 1706              		.loc 1 396 0
 1707 0040 2846     		mov	r0, r5
 409:..\..\..\lvgl\version_6.1.2\lvgl\src\lv_objx/lv_btn.c **** 
 1708              		.loc 1 409 0
 1709 0042 BDE87040 		pop	{r4, r5, r6, lr}
 1710              		.cfi_remember_state
 1711              		.cfi_restore 14
 1712              		.cfi_restore 6
 1713              		.cfi_restore 5
 1714              		.cfi_restore 4
 1715              		.cfi_def_cfa_offset 0
 1716              	.LVL202:
 396:..\..\..\lvgl\version_6.1.2\lvgl\src\lv_objx/lv_btn.c ****     } else {
 1717              		.loc 1 396 0
 1718 0046 FFF7FEBF 		b	lv_obj_get_style
 1719              	.LVL203:
 1720              	.L196:
 1721              		.cfi_restore_state
 401:..\..\..\lvgl\version_6.1.2\lvgl\src\lv_objx/lv_btn.c ****             case LV_BTN_STYLE_TGL_PR: style = ext->styles[LV_BTN_STATE_TGL_PR]; break;
 1722              		.loc 1 401 0
 1723 004a F068     		ldr	r0, [r6, #12]
 1724              	.LVL204:
 1725 004c 70BD     		pop	{r4, r5, r6, pc}
 1726              	.LVL205:
 1727              	.L177:
 393:..\..\..\lvgl\version_6.1.2\lvgl\src\lv_objx/lv_btn.c ****        (type == LV_BTN_STYLE_INA && state == LV_BTN_STATE_INA)) {
 1728              		.loc 1 393 0 discriminator 1
 1729 004e 042C     		cmp	r4, #4
 1730 0050 03D1     		bne	.L181
 394:..\..\..\lvgl\version_6.1.2\lvgl\src\lv_objx/lv_btn.c **** 
 1731              		.loc 1 394 0
 1732 0052 042B     		cmp	r3, #4
 1733 0054 F4D0     		beq	.L171
 403:..\..\..\lvgl\version_6.1.2\lvgl\src\lv_objx/lv_btn.c ****             default: style = NULL; break;
 1734              		.loc 1 403 0
 1735 0056 7069     		ldr	r0, [r6, #20]
 1736              	.LVL206:
 1737 0058 70BD     		pop	{r4, r5, r6, pc}
 1738              	.LVL207:
 1739              	.L181:
ARM GAS  C:\Users\pearlstl\AppData\Local\Temp\ccbEAAPX.s 			page 51


 404:..\..\..\lvgl\version_6.1.2\lvgl\src\lv_objx/lv_btn.c ****         }
 1740              		.loc 1 404 0
 1741 005a 0020     		movs	r0, #0
 1742              	.LVL208:
 409:..\..\..\lvgl\version_6.1.2\lvgl\src\lv_objx/lv_btn.c **** 
 1743              		.loc 1 409 0
 1744 005c 70BD     		pop	{r4, r5, r6, pc}
 1745              		.cfi_endproc
 1746              	.LFE57:
 1747              		.size	lv_btn_get_style, .-lv_btn_get_style
 1748 005e 00BF     		.section	.rodata.str1.4,"aMS",%progbits,1
 1749              		.align	2
 1750              	.LC0:
 1751 0000 6C765F62 		.ascii	"lv_btn\000"
 1751      746E00
 1752              		.bss
 1753              		.align	2
 1754              		.set	.LANCHOR0,. + 0
 1755              		.type	ancestor_design, %object
 1756              		.size	ancestor_design, 4
 1757              	ancestor_design:
 1758 0000 00000000 		.space	4
 1759              		.type	ancestor_signal, %object
 1760              		.size	ancestor_signal, 4
 1761              	ancestor_signal:
 1762 0004 00000000 		.space	4
 1763              		.text
 1764              	.Letext0:
 1765              		.file 3 "c:\\program files (x86)\\cypress\\psoc creator\\4.2\\psoc creator\\import\\gnu\\arm\\5.4.
 1766              		.file 4 "c:\\program files (x86)\\cypress\\psoc creator\\4.2\\psoc creator\\import\\gnu\\arm\\5.4.
 1767              		.file 5 "..\\..\\..\\lvgl\\version_6.1.2\\lvgl\\src\\lv_objx\\../../../lv_conf.h"
 1768              		.file 6 "..\\..\\..\\lvgl\\version_6.1.2\\lvgl\\src\\lv_objx\\../lv_core/../lv_font/lv_font.h"
 1769              		.file 7 "..\\..\\..\\lvgl\\version_6.1.2\\lvgl\\src\\lv_objx\\../lv_core/../lv_misc/lv_color.h"
 1770              		.file 8 "..\\..\\..\\lvgl\\version_6.1.2\\lvgl\\src\\lv_objx\\../lv_core/../lv_misc/lv_area.h"
 1771              		.file 9 "..\\..\\..\\lvgl\\version_6.1.2\\lvgl\\src\\lv_objx\\../lv_core/lv_style.h"
 1772              		.file 10 "..\\..\\..\\lvgl\\version_6.1.2\\lvgl\\src\\lv_objx\\../lv_core/../lv_misc/lv_types.h"
 1773              		.file 11 "..\\..\\..\\lvgl\\version_6.1.2\\lvgl\\src\\lv_objx\\../lv_core/../lv_misc/lv_ll.h"
 1774              		.file 12 "..\\..\\..\\lvgl\\version_6.1.2\\lvgl\\src\\lv_objx\\../lv_core/../lv_misc/lv_bidi.h"
 1775              		.file 13 "..\\..\\..\\lvgl\\version_6.1.2\\lvgl\\src\\lv_objx\\../lv_core/lv_obj.h"
 1776              		.file 14 "..\\..\\..\\lvgl\\version_6.1.2\\lvgl\\src\\lv_objx\\lv_cont.h"
 1777              		.file 15 "..\\..\\..\\lvgl\\version_6.1.2\\lvgl\\src\\lv_objx\\../lv_core/../lv_core/lv_group.h"
 1778              		.file 16 "..\\..\\..\\lvgl\\version_6.1.2\\lvgl\\src\\lv_objx\\../lv_themes/lv_theme.h"
 1779              		.file 17 "..\\..\\..\\lvgl\\version_6.1.2\\lvgl\\src\\lv_objx\\../lv_core/lv_indev.h"
 1780              		.section	.debug_info,"",%progbits
 1781              	.Ldebug_info0:
 1782 0000 B8220000 		.4byte	0x22b8
 1783 0004 0400     		.2byte	0x4
 1784 0006 00000000 		.4byte	.Ldebug_abbrev0
 1785 000a 04       		.byte	0x4
 1786 000b 01       		.uleb128 0x1
 1787 000c DA010000 		.4byte	.LASF298
 1788 0010 0C       		.byte	0xc
 1789 0011 1C010000 		.4byte	.LASF299
 1790 0015 190D0000 		.4byte	.LASF300
 1791 0019 90010000 		.4byte	.Ldebug_ranges0+0x190
 1792 001d 00000000 		.4byte	0
 1793 0021 00000000 		.4byte	.Ldebug_line0
ARM GAS  C:\Users\pearlstl\AppData\Local\Temp\ccbEAAPX.s 			page 52


 1794 0025 02       		.uleb128 0x2
 1795 0026 A60A0000 		.4byte	.LASF0
 1796 002a 03       		.byte	0x3
 1797 002b 1B       		.byte	0x1b
 1798 002c 30000000 		.4byte	0x30
 1799 0030 03       		.uleb128 0x3
 1800 0031 01       		.byte	0x1
 1801 0032 06       		.byte	0x6
 1802 0033 6B030000 		.4byte	.LASF2
 1803 0037 02       		.uleb128 0x2
 1804 0038 BC020000 		.4byte	.LASF1
 1805 003c 03       		.byte	0x3
 1806 003d 1D       		.byte	0x1d
 1807 003e 42000000 		.4byte	0x42
 1808 0042 03       		.uleb128 0x3
 1809 0043 01       		.byte	0x1
 1810 0044 08       		.byte	0x8
 1811 0045 D4030000 		.4byte	.LASF3
 1812 0049 02       		.uleb128 0x2
 1813 004a C80B0000 		.4byte	.LASF4
 1814 004e 03       		.byte	0x3
 1815 004f 29       		.byte	0x29
 1816 0050 54000000 		.4byte	0x54
 1817 0054 03       		.uleb128 0x3
 1818 0055 02       		.byte	0x2
 1819 0056 05       		.byte	0x5
 1820 0057 E20C0000 		.4byte	.LASF5
 1821 005b 02       		.uleb128 0x2
 1822 005c BB040000 		.4byte	.LASF6
 1823 0060 03       		.byte	0x3
 1824 0061 2B       		.byte	0x2b
 1825 0062 66000000 		.4byte	0x66
 1826 0066 03       		.uleb128 0x3
 1827 0067 02       		.byte	0x2
 1828 0068 07       		.byte	0x7
 1829 0069 A50E0000 		.4byte	.LASF7
 1830 006d 03       		.uleb128 0x3
 1831 006e 04       		.byte	0x4
 1832 006f 05       		.byte	0x5
 1833 0070 E1020000 		.4byte	.LASF8
 1834 0074 02       		.uleb128 0x2
 1835 0075 77070000 		.4byte	.LASF9
 1836 0079 03       		.byte	0x3
 1837 007a 41       		.byte	0x41
 1838 007b 7F000000 		.4byte	0x7f
 1839 007f 03       		.uleb128 0x3
 1840 0080 04       		.byte	0x4
 1841 0081 07       		.byte	0x7
 1842 0082 AD060000 		.4byte	.LASF10
 1843 0086 03       		.uleb128 0x3
 1844 0087 08       		.byte	0x8
 1845 0088 05       		.byte	0x5
 1846 0089 99070000 		.4byte	.LASF11
 1847 008d 03       		.uleb128 0x3
 1848 008e 08       		.byte	0x8
 1849 008f 07       		.byte	0x7
 1850 0090 180B0000 		.4byte	.LASF12
ARM GAS  C:\Users\pearlstl\AppData\Local\Temp\ccbEAAPX.s 			page 53


 1851 0094 04       		.uleb128 0x4
 1852 0095 04       		.byte	0x4
 1853 0096 05       		.byte	0x5
 1854 0097 696E7400 		.ascii	"int\000"
 1855 009b 03       		.uleb128 0x3
 1856 009c 04       		.byte	0x4
 1857 009d 07       		.byte	0x7
 1858 009e 7F080000 		.4byte	.LASF13
 1859 00a2 02       		.uleb128 0x2
 1860 00a3 00000000 		.4byte	.LASF14
 1861 00a7 04       		.byte	0x4
 1862 00a8 14       		.byte	0x14
 1863 00a9 25000000 		.4byte	0x25
 1864 00ad 02       		.uleb128 0x2
 1865 00ae 77030000 		.4byte	.LASF15
 1866 00b2 04       		.byte	0x4
 1867 00b3 18       		.byte	0x18
 1868 00b4 37000000 		.4byte	0x37
 1869 00b8 02       		.uleb128 0x2
 1870 00b9 110D0000 		.4byte	.LASF16
 1871 00bd 04       		.byte	0x4
 1872 00be 20       		.byte	0x20
 1873 00bf 49000000 		.4byte	0x49
 1874 00c3 02       		.uleb128 0x2
 1875 00c4 3D0B0000 		.4byte	.LASF17
 1876 00c8 04       		.byte	0x4
 1877 00c9 24       		.byte	0x24
 1878 00ca 5B000000 		.4byte	0x5b
 1879 00ce 02       		.uleb128 0x2
 1880 00cf 630E0000 		.4byte	.LASF18
 1881 00d3 04       		.byte	0x4
 1882 00d4 30       		.byte	0x30
 1883 00d5 74000000 		.4byte	0x74
 1884 00d9 02       		.uleb128 0x2
 1885 00da C50E0000 		.4byte	.LASF19
 1886 00de 05       		.byte	0x5
 1887 00df 3A       		.byte	0x3a
 1888 00e0 B8000000 		.4byte	0xb8
 1889 00e4 05       		.uleb128 0x5
 1890 00e5 04       		.byte	0x4
 1891 00e6 03       		.uleb128 0x3
 1892 00e7 08       		.byte	0x8
 1893 00e8 04       		.byte	0x4
 1894 00e9 B7090000 		.4byte	.LASF20
 1895 00ed 06       		.uleb128 0x6
 1896 00ee 08       		.byte	0x8
 1897 00ef 06       		.byte	0x6
 1898 00f0 2E       		.byte	0x2e
 1899 00f1 3E010000 		.4byte	0x13e
 1900 00f5 07       		.uleb128 0x7
 1901 00f6 28000000 		.4byte	.LASF21
 1902 00fa 06       		.byte	0x6
 1903 00fb 30       		.byte	0x30
 1904 00fc C3000000 		.4byte	0xc3
 1905 0100 00       		.byte	0
 1906 0101 07       		.uleb128 0x7
 1907 0102 DC0C0000 		.4byte	.LASF22
ARM GAS  C:\Users\pearlstl\AppData\Local\Temp\ccbEAAPX.s 			page 54


 1908 0106 06       		.byte	0x6
 1909 0107 31       		.byte	0x31
 1910 0108 AD000000 		.4byte	0xad
 1911 010c 02       		.byte	0x2
 1912 010d 07       		.uleb128 0x7
 1913 010e A20C0000 		.4byte	.LASF23
 1914 0112 06       		.byte	0x6
 1915 0113 32       		.byte	0x32
 1916 0114 AD000000 		.4byte	0xad
 1917 0118 03       		.byte	0x3
 1918 0119 07       		.uleb128 0x7
 1919 011a 31040000 		.4byte	.LASF24
 1920 011e 06       		.byte	0x6
 1921 011f 33       		.byte	0x33
 1922 0120 A2000000 		.4byte	0xa2
 1923 0124 04       		.byte	0x4
 1924 0125 07       		.uleb128 0x7
 1925 0126 37040000 		.4byte	.LASF25
 1926 012a 06       		.byte	0x6
 1927 012b 34       		.byte	0x34
 1928 012c A2000000 		.4byte	0xa2
 1929 0130 05       		.byte	0x5
 1930 0131 08       		.uleb128 0x8
 1931 0132 62707000 		.ascii	"bpp\000"
 1932 0136 06       		.byte	0x6
 1933 0137 35       		.byte	0x35
 1934 0138 AD000000 		.4byte	0xad
 1935 013c 06       		.byte	0x6
 1936 013d 00       		.byte	0
 1937 013e 02       		.uleb128 0x2
 1938 013f F6080000 		.4byte	.LASF26
 1939 0143 06       		.byte	0x6
 1940 0144 36       		.byte	0x36
 1941 0145 ED000000 		.4byte	0xed
 1942 0149 09       		.uleb128 0x9
 1943 014a 780F0000 		.4byte	.LASF81
 1944 014e 10       		.byte	0x10
 1945 014f 06       		.byte	0x6
 1946 0150 44       		.byte	0x44
 1947 0151 A1010000 		.4byte	0x1a1
 1948 0155 07       		.uleb128 0x7
 1949 0156 020F0000 		.4byte	.LASF27
 1950 015a 06       		.byte	0x6
 1951 015b 47       		.byte	0x47
 1952 015c D7010000 		.4byte	0x1d7
 1953 0160 00       		.byte	0
 1954 0161 07       		.uleb128 0x7
 1955 0162 98030000 		.4byte	.LASF28
 1956 0166 06       		.byte	0x6
 1957 0167 4A       		.byte	0x4a
 1958 0168 FC010000 		.4byte	0x1fc
 1959 016c 04       		.byte	0x4
 1960 016d 07       		.uleb128 0x7
 1961 016e D9000000 		.4byte	.LASF29
 1962 0172 06       		.byte	0x6
 1963 0173 4D       		.byte	0x4d
 1964 0174 AD000000 		.4byte	0xad
ARM GAS  C:\Users\pearlstl\AppData\Local\Temp\ccbEAAPX.s 			page 55


 1965 0178 08       		.byte	0x8
 1966 0179 07       		.uleb128 0x7
 1967 017a EC0C0000 		.4byte	.LASF30
 1968 017e 06       		.byte	0x6
 1969 017f 4E       		.byte	0x4e
 1970 0180 A2000000 		.4byte	0xa2
 1971 0184 09       		.byte	0x9
 1972 0185 0A       		.uleb128 0xa
 1973 0186 020A0000 		.4byte	.LASF64
 1974 018a 06       		.byte	0x6
 1975 018b 4F       		.byte	0x4f
 1976 018c AD000000 		.4byte	0xad
 1977 0190 01       		.byte	0x1
 1978 0191 02       		.byte	0x2
 1979 0192 06       		.byte	0x6
 1980 0193 0A       		.byte	0xa
 1981 0194 08       		.uleb128 0x8
 1982 0195 64736300 		.ascii	"dsc\000"
 1983 0199 06       		.byte	0x6
 1984 019a 50       		.byte	0x50
 1985 019b E4000000 		.4byte	0xe4
 1986 019f 0C       		.byte	0xc
 1987 01a0 00       		.byte	0
 1988 01a1 0B       		.uleb128 0xb
 1989 01a2 BF010000 		.4byte	0x1bf
 1990 01a6 BF010000 		.4byte	0x1bf
 1991 01aa 0C       		.uleb128 0xc
 1992 01ab C6010000 		.4byte	0x1c6
 1993 01af 0C       		.uleb128 0xc
 1994 01b0 D1010000 		.4byte	0x1d1
 1995 01b4 0C       		.uleb128 0xc
 1996 01b5 CE000000 		.4byte	0xce
 1997 01b9 0C       		.uleb128 0xc
 1998 01ba CE000000 		.4byte	0xce
 1999 01be 00       		.byte	0
 2000 01bf 03       		.uleb128 0x3
 2001 01c0 01       		.byte	0x1
 2002 01c1 02       		.byte	0x2
 2003 01c2 6E040000 		.4byte	.LASF31
 2004 01c6 0D       		.uleb128 0xd
 2005 01c7 04       		.byte	0x4
 2006 01c8 CC010000 		.4byte	0x1cc
 2007 01cc 0E       		.uleb128 0xe
 2008 01cd 49010000 		.4byte	0x149
 2009 01d1 0D       		.uleb128 0xd
 2010 01d2 04       		.byte	0x4
 2011 01d3 3E010000 		.4byte	0x13e
 2012 01d7 0D       		.uleb128 0xd
 2013 01d8 04       		.byte	0x4
 2014 01d9 A1010000 		.4byte	0x1a1
 2015 01dd 0B       		.uleb128 0xb
 2016 01de F1010000 		.4byte	0x1f1
 2017 01e2 F1010000 		.4byte	0x1f1
 2018 01e6 0C       		.uleb128 0xc
 2019 01e7 C6010000 		.4byte	0x1c6
 2020 01eb 0C       		.uleb128 0xc
 2021 01ec CE000000 		.4byte	0xce
ARM GAS  C:\Users\pearlstl\AppData\Local\Temp\ccbEAAPX.s 			page 56


 2022 01f0 00       		.byte	0
 2023 01f1 0D       		.uleb128 0xd
 2024 01f2 04       		.byte	0x4
 2025 01f3 F7010000 		.4byte	0x1f7
 2026 01f7 0E       		.uleb128 0xe
 2027 01f8 AD000000 		.4byte	0xad
 2028 01fc 0D       		.uleb128 0xd
 2029 01fd 04       		.byte	0x4
 2030 01fe DD010000 		.4byte	0x1dd
 2031 0202 02       		.uleb128 0x2
 2032 0203 770E0000 		.4byte	.LASF32
 2033 0207 06       		.byte	0x6
 2034 0208 56       		.byte	0x56
 2035 0209 49010000 		.4byte	0x149
 2036 020d 06       		.uleb128 0x6
 2037 020e 04       		.byte	0x4
 2038 020f 07       		.byte	0x7
 2039 0210 F3       		.byte	0xf3
 2040 0211 46020000 		.4byte	0x246
 2041 0215 07       		.uleb128 0x7
 2042 0216 B6030000 		.4byte	.LASF33
 2043 021a 07       		.byte	0x7
 2044 021b F5       		.byte	0xf5
 2045 021c AD000000 		.4byte	0xad
 2046 0220 00       		.byte	0
 2047 0221 07       		.uleb128 0x7
 2048 0222 710E0000 		.4byte	.LASF34
 2049 0226 07       		.byte	0x7
 2050 0227 F6       		.byte	0xf6
 2051 0228 AD000000 		.4byte	0xad
 2052 022c 01       		.byte	0x1
 2053 022d 08       		.uleb128 0x8
 2054 022e 72656400 		.ascii	"red\000"
 2055 0232 07       		.byte	0x7
 2056 0233 F7       		.byte	0xf7
 2057 0234 AD000000 		.4byte	0xad
 2058 0238 02       		.byte	0x2
 2059 0239 07       		.uleb128 0x7
 2060 023a C6020000 		.4byte	.LASF35
 2061 023e 07       		.byte	0x7
 2062 023f F8       		.byte	0xf8
 2063 0240 AD000000 		.4byte	0xad
 2064 0244 03       		.byte	0x3
 2065 0245 00       		.byte	0
 2066 0246 0F       		.uleb128 0xf
 2067 0247 04       		.byte	0x4
 2068 0248 07       		.byte	0x7
 2069 0249 F1       		.byte	0xf1
 2070 024a 64020000 		.4byte	0x264
 2071 024e 10       		.uleb128 0x10
 2072 024f 636800   		.ascii	"ch\000"
 2073 0252 07       		.byte	0x7
 2074 0253 F9       		.byte	0xf9
 2075 0254 0D020000 		.4byte	0x20d
 2076 0258 11       		.uleb128 0x11
 2077 0259 FE0B0000 		.4byte	.LASF36
 2078 025d 07       		.byte	0x7
ARM GAS  C:\Users\pearlstl\AppData\Local\Temp\ccbEAAPX.s 			page 57


 2079 025e FA       		.byte	0xfa
 2080 025f CE000000 		.4byte	0xce
 2081 0263 00       		.byte	0
 2082 0264 02       		.uleb128 0x2
 2083 0265 4E000000 		.4byte	.LASF37
 2084 0269 07       		.byte	0x7
 2085 026a FB       		.byte	0xfb
 2086 026b 46020000 		.4byte	0x246
 2087 026f 12       		.uleb128 0x12
 2088 0270 600B0000 		.4byte	.LASF38
 2089 0274 07       		.byte	0x7
 2090 0275 0801     		.2byte	0x108
 2091 0277 64020000 		.4byte	0x264
 2092 027b 12       		.uleb128 0x12
 2093 027c 79000000 		.4byte	.LASF39
 2094 0280 07       		.byte	0x7
 2095 0281 0D01     		.2byte	0x10d
 2096 0283 AD000000 		.4byte	0xad
 2097 0287 03       		.uleb128 0x3
 2098 0288 04       		.byte	0x4
 2099 0289 07       		.byte	0x7
 2100 028a 38000000 		.4byte	.LASF40
 2101 028e 03       		.uleb128 0x3
 2102 028f 01       		.byte	0x1
 2103 0290 08       		.byte	0x8
 2104 0291 89040000 		.4byte	.LASF41
 2105 0295 06       		.uleb128 0x6
 2106 0296 08       		.byte	0x8
 2107 0297 08       		.byte	0x8
 2108 0298 31       		.byte	0x31
 2109 0299 CA020000 		.4byte	0x2ca
 2110 029d 08       		.uleb128 0x8
 2111 029e 783100   		.ascii	"x1\000"
 2112 02a1 08       		.byte	0x8
 2113 02a2 33       		.byte	0x33
 2114 02a3 D9000000 		.4byte	0xd9
 2115 02a7 00       		.byte	0
 2116 02a8 08       		.uleb128 0x8
 2117 02a9 793100   		.ascii	"y1\000"
 2118 02ac 08       		.byte	0x8
 2119 02ad 34       		.byte	0x34
 2120 02ae D9000000 		.4byte	0xd9
 2121 02b2 02       		.byte	0x2
 2122 02b3 08       		.uleb128 0x8
 2123 02b4 783200   		.ascii	"x2\000"
 2124 02b7 08       		.byte	0x8
 2125 02b8 35       		.byte	0x35
 2126 02b9 D9000000 		.4byte	0xd9
 2127 02bd 04       		.byte	0x4
 2128 02be 08       		.uleb128 0x8
 2129 02bf 793200   		.ascii	"y2\000"
 2130 02c2 08       		.byte	0x8
 2131 02c3 36       		.byte	0x36
 2132 02c4 D9000000 		.4byte	0xd9
 2133 02c8 06       		.byte	0x6
 2134 02c9 00       		.byte	0
 2135 02ca 02       		.uleb128 0x2
ARM GAS  C:\Users\pearlstl\AppData\Local\Temp\ccbEAAPX.s 			page 58


 2136 02cb 0C060000 		.4byte	.LASF42
 2137 02cf 08       		.byte	0x8
 2138 02d0 37       		.byte	0x37
 2139 02d1 95020000 		.4byte	0x295
 2140 02d5 02       		.uleb128 0x2
 2141 02d6 170F0000 		.4byte	.LASF43
 2142 02da 09       		.byte	0x9
 2143 02db 2C       		.byte	0x2c
 2144 02dc AD000000 		.4byte	0xad
 2145 02e0 02       		.uleb128 0x2
 2146 02e1 5E0C0000 		.4byte	.LASF44
 2147 02e5 09       		.byte	0x9
 2148 02e6 33       		.byte	0x33
 2149 02e7 AD000000 		.4byte	0xad
 2150 02eb 06       		.uleb128 0x6
 2151 02ec 08       		.byte	0x8
 2152 02ed 09       		.byte	0x9
 2153 02ee 48       		.byte	0x48
 2154 02ef 24030000 		.4byte	0x324
 2155 02f3 07       		.uleb128 0x7
 2156 02f4 030C0000 		.4byte	.LASF45
 2157 02f8 09       		.byte	0x9
 2158 02f9 4A       		.byte	0x4a
 2159 02fa 6F020000 		.4byte	0x26f
 2160 02fe 00       		.byte	0
 2161 02ff 07       		.uleb128 0x7
 2162 0300 A7070000 		.4byte	.LASF46
 2163 0304 09       		.byte	0x9
 2164 0305 4B       		.byte	0x4b
 2165 0306 D9000000 		.4byte	0xd9
 2166 030a 04       		.byte	0x4
 2167 030b 07       		.uleb128 0x7
 2168 030c 880F0000 		.4byte	.LASF47
 2169 0310 09       		.byte	0x9
 2170 0311 4C       		.byte	0x4c
 2171 0312 D5020000 		.4byte	0x2d5
 2172 0316 06       		.byte	0x6
 2173 0317 08       		.uleb128 0x8
 2174 0318 6F706100 		.ascii	"opa\000"
 2175 031c 09       		.byte	0x9
 2176 031d 4D       		.byte	0x4d
 2177 031e 7B020000 		.4byte	0x27b
 2178 0322 07       		.byte	0x7
 2179 0323 00       		.byte	0
 2180 0324 06       		.uleb128 0x6
 2181 0325 08       		.byte	0x8
 2182 0326 09       		.byte	0x9
 2183 0327 51       		.byte	0x51
 2184 0328 51030000 		.4byte	0x351
 2185 032c 07       		.uleb128 0x7
 2186 032d 030C0000 		.4byte	.LASF45
 2187 0331 09       		.byte	0x9
 2188 0332 53       		.byte	0x53
 2189 0333 6F020000 		.4byte	0x26f
 2190 0337 00       		.byte	0
 2191 0338 07       		.uleb128 0x7
 2192 0339 A7070000 		.4byte	.LASF46
ARM GAS  C:\Users\pearlstl\AppData\Local\Temp\ccbEAAPX.s 			page 59


 2193 033d 09       		.byte	0x9
 2194 033e 54       		.byte	0x54
 2195 033f D9000000 		.4byte	0xd9
 2196 0343 04       		.byte	0x4
 2197 0344 07       		.uleb128 0x7
 2198 0345 A7010000 		.4byte	.LASF48
 2199 0349 09       		.byte	0x9
 2200 034a 55       		.byte	0x55
 2201 034b E0020000 		.4byte	0x2e0
 2202 034f 06       		.byte	0x6
 2203 0350 00       		.byte	0
 2204 0351 06       		.uleb128 0x6
 2205 0352 0A       		.byte	0xa
 2206 0353 09       		.byte	0x9
 2207 0354 58       		.byte	0x58
 2208 0355 96030000 		.4byte	0x396
 2209 0359 08       		.uleb128 0x8
 2210 035a 746F7000 		.ascii	"top\000"
 2211 035e 09       		.byte	0x9
 2212 035f 5A       		.byte	0x5a
 2213 0360 D9000000 		.4byte	0xd9
 2214 0364 00       		.byte	0
 2215 0365 07       		.uleb128 0x7
 2216 0366 CE070000 		.4byte	.LASF49
 2217 036a 09       		.byte	0x9
 2218 036b 5B       		.byte	0x5b
 2219 036c D9000000 		.4byte	0xd9
 2220 0370 02       		.byte	0x2
 2221 0371 07       		.uleb128 0x7
 2222 0372 27060000 		.4byte	.LASF50
 2223 0376 09       		.byte	0x9
 2224 0377 5C       		.byte	0x5c
 2225 0378 D9000000 		.4byte	0xd9
 2226 037c 04       		.byte	0x4
 2227 037d 07       		.uleb128 0x7
 2228 037e 8B070000 		.4byte	.LASF51
 2229 0382 09       		.byte	0x9
 2230 0383 5D       		.byte	0x5d
 2231 0384 D9000000 		.4byte	0xd9
 2232 0388 06       		.byte	0x6
 2233 0389 07       		.uleb128 0x7
 2234 038a 8B060000 		.4byte	.LASF52
 2235 038e 09       		.byte	0x9
 2236 038f 5E       		.byte	0x5e
 2237 0390 D9000000 		.4byte	0xd9
 2238 0394 08       		.byte	0x8
 2239 0395 00       		.byte	0
 2240 0396 06       		.uleb128 0x6
 2241 0397 28       		.byte	0x28
 2242 0398 09       		.byte	0x9
 2243 0399 41       		.byte	0x41
 2244 039a F3030000 		.4byte	0x3f3
 2245 039e 07       		.uleb128 0x7
 2246 039f 9B0A0000 		.4byte	.LASF53
 2247 03a3 09       		.byte	0x9
 2248 03a4 43       		.byte	0x43
 2249 03a5 6F020000 		.4byte	0x26f
ARM GAS  C:\Users\pearlstl\AppData\Local\Temp\ccbEAAPX.s 			page 60


 2250 03a9 00       		.byte	0
 2251 03aa 07       		.uleb128 0x7
 2252 03ab 0F090000 		.4byte	.LASF54
 2253 03af 09       		.byte	0x9
 2254 03b0 44       		.byte	0x44
 2255 03b1 6F020000 		.4byte	0x26f
 2256 03b5 04       		.byte	0x4
 2257 03b6 07       		.uleb128 0x7
 2258 03b7 C5000000 		.4byte	.LASF55
 2259 03bb 09       		.byte	0x9
 2260 03bc 45       		.byte	0x45
 2261 03bd D9000000 		.4byte	0xd9
 2262 03c1 08       		.byte	0x8
 2263 03c2 08       		.uleb128 0x8
 2264 03c3 6F706100 		.ascii	"opa\000"
 2265 03c7 09       		.byte	0x9
 2266 03c8 46       		.byte	0x46
 2267 03c9 7B020000 		.4byte	0x27b
 2268 03cd 0A       		.byte	0xa
 2269 03ce 07       		.uleb128 0x7
 2270 03cf F50E0000 		.4byte	.LASF56
 2271 03d3 09       		.byte	0x9
 2272 03d4 4E       		.byte	0x4e
 2273 03d5 EB020000 		.4byte	0x2eb
 2274 03d9 0C       		.byte	0xc
 2275 03da 07       		.uleb128 0x7
 2276 03db D50D0000 		.4byte	.LASF57
 2277 03df 09       		.byte	0x9
 2278 03e0 56       		.byte	0x56
 2279 03e1 24030000 		.4byte	0x324
 2280 03e5 14       		.byte	0x14
 2281 03e6 07       		.uleb128 0x7
 2282 03e7 510E0000 		.4byte	.LASF58
 2283 03eb 09       		.byte	0x9
 2284 03ec 5F       		.byte	0x5f
 2285 03ed 51030000 		.4byte	0x351
 2286 03f1 1C       		.byte	0x1c
 2287 03f2 00       		.byte	0
 2288 03f3 06       		.uleb128 0x6
 2289 03f4 14       		.byte	0x14
 2290 03f5 09       		.byte	0x9
 2291 03f6 63       		.byte	0x63
 2292 03f7 44040000 		.4byte	0x444
 2293 03fb 07       		.uleb128 0x7
 2294 03fc 030C0000 		.4byte	.LASF45
 2295 0400 09       		.byte	0x9
 2296 0401 65       		.byte	0x65
 2297 0402 6F020000 		.4byte	0x26f
 2298 0406 00       		.byte	0
 2299 0407 07       		.uleb128 0x7
 2300 0408 6E0F0000 		.4byte	.LASF59
 2301 040c 09       		.byte	0x9
 2302 040d 66       		.byte	0x66
 2303 040e 6F020000 		.4byte	0x26f
 2304 0412 04       		.byte	0x4
 2305 0413 07       		.uleb128 0x7
 2306 0414 7E0C0000 		.4byte	.LASF60
ARM GAS  C:\Users\pearlstl\AppData\Local\Temp\ccbEAAPX.s 			page 61


 2307 0418 09       		.byte	0x9
 2308 0419 67       		.byte	0x67
 2309 041a 44040000 		.4byte	0x444
 2310 041e 08       		.byte	0x8
 2311 041f 07       		.uleb128 0x7
 2312 0420 830C0000 		.4byte	.LASF61
 2313 0424 09       		.byte	0x9
 2314 0425 68       		.byte	0x68
 2315 0426 D9000000 		.4byte	0xd9
 2316 042a 0C       		.byte	0xc
 2317 042b 07       		.uleb128 0x7
 2318 042c 0E0C0000 		.4byte	.LASF62
 2319 0430 09       		.byte	0x9
 2320 0431 69       		.byte	0x69
 2321 0432 D9000000 		.4byte	0xd9
 2322 0436 0E       		.byte	0xe
 2323 0437 08       		.uleb128 0x8
 2324 0438 6F706100 		.ascii	"opa\000"
 2325 043c 09       		.byte	0x9
 2326 043d 6A       		.byte	0x6a
 2327 043e 7B020000 		.4byte	0x27b
 2328 0442 10       		.byte	0x10
 2329 0443 00       		.byte	0
 2330 0444 0D       		.uleb128 0xd
 2331 0445 04       		.byte	0x4
 2332 0446 4A040000 		.4byte	0x44a
 2333 044a 0E       		.uleb128 0xe
 2334 044b 02020000 		.4byte	0x202
 2335 044f 06       		.uleb128 0x6
 2336 0450 08       		.byte	0x8
 2337 0451 09       		.byte	0x9
 2338 0452 6E       		.byte	0x6e
 2339 0453 7C040000 		.4byte	0x47c
 2340 0457 07       		.uleb128 0x7
 2341 0458 030C0000 		.4byte	.LASF45
 2342 045c 09       		.byte	0x9
 2343 045d 70       		.byte	0x70
 2344 045e 6F020000 		.4byte	0x26f
 2345 0462 00       		.byte	0
 2346 0463 07       		.uleb128 0x7
 2347 0464 91000000 		.4byte	.LASF63
 2348 0468 09       		.byte	0x9
 2349 0469 71       		.byte	0x71
 2350 046a 7B020000 		.4byte	0x27b
 2351 046e 04       		.byte	0x4
 2352 046f 08       		.uleb128 0x8
 2353 0470 6F706100 		.ascii	"opa\000"
 2354 0474 09       		.byte	0x9
 2355 0475 72       		.byte	0x72
 2356 0476 7B020000 		.4byte	0x27b
 2357 047a 05       		.byte	0x5
 2358 047b 00       		.byte	0
 2359 047c 06       		.uleb128 0x6
 2360 047d 08       		.byte	0x8
 2361 047e 09       		.byte	0x9
 2362 047f 76       		.byte	0x76
 2363 0480 B8040000 		.4byte	0x4b8
ARM GAS  C:\Users\pearlstl\AppData\Local\Temp\ccbEAAPX.s 			page 62


 2364 0484 07       		.uleb128 0x7
 2365 0485 030C0000 		.4byte	.LASF45
 2366 0489 09       		.byte	0x9
 2367 048a 78       		.byte	0x78
 2368 048b 6F020000 		.4byte	0x26f
 2369 048f 00       		.byte	0
 2370 0490 07       		.uleb128 0x7
 2371 0491 A7070000 		.4byte	.LASF46
 2372 0495 09       		.byte	0x9
 2373 0496 79       		.byte	0x79
 2374 0497 D9000000 		.4byte	0xd9
 2375 049b 04       		.byte	0x4
 2376 049c 08       		.uleb128 0x8
 2377 049d 6F706100 		.ascii	"opa\000"
 2378 04a1 09       		.byte	0x9
 2379 04a2 7A       		.byte	0x7a
 2380 04a3 7B020000 		.4byte	0x27b
 2381 04a7 06       		.byte	0x6
 2382 04a8 0A       		.uleb128 0xa
 2383 04a9 D0050000 		.4byte	.LASF65
 2384 04ad 09       		.byte	0x9
 2385 04ae 7B       		.byte	0x7b
 2386 04af AD000000 		.4byte	0xad
 2387 04b3 01       		.byte	0x1
 2388 04b4 01       		.byte	0x1
 2389 04b5 07       		.byte	0x7
 2390 04b6 07       		.byte	0x7
 2391 04b7 00       		.byte	0
 2392 04b8 06       		.uleb128 0x6
 2393 04b9 50       		.byte	0x50
 2394 04ba 09       		.byte	0x9
 2395 04bb 3C       		.byte	0x3c
 2396 04bc 00050000 		.4byte	0x500
 2397 04c0 0A       		.uleb128 0xa
 2398 04c1 4A080000 		.4byte	.LASF66
 2399 04c5 09       		.byte	0x9
 2400 04c6 3E       		.byte	0x3e
 2401 04c7 AD000000 		.4byte	0xad
 2402 04cb 01       		.byte	0x1
 2403 04cc 01       		.byte	0x1
 2404 04cd 07       		.byte	0x7
 2405 04ce 00       		.byte	0
 2406 04cf 07       		.uleb128 0x7
 2407 04d0 B1040000 		.4byte	.LASF67
 2408 04d4 09       		.byte	0x9
 2409 04d5 60       		.byte	0x60
 2410 04d6 96030000 		.4byte	0x396
 2411 04da 04       		.byte	0x4
 2412 04db 07       		.uleb128 0x7
 2413 04dc A3050000 		.4byte	.LASF68
 2414 04e0 09       		.byte	0x9
 2415 04e1 6B       		.byte	0x6b
 2416 04e2 F3030000 		.4byte	0x3f3
 2417 04e6 2C       		.byte	0x2c
 2418 04e7 07       		.uleb128 0x7
 2419 04e8 CA050000 		.4byte	.LASF69
 2420 04ec 09       		.byte	0x9
ARM GAS  C:\Users\pearlstl\AppData\Local\Temp\ccbEAAPX.s 			page 63


 2421 04ed 73       		.byte	0x73
 2422 04ee 4F040000 		.4byte	0x44f
 2423 04f2 40       		.byte	0x40
 2424 04f3 07       		.uleb128 0x7
 2425 04f4 F9060000 		.4byte	.LASF70
 2426 04f8 09       		.byte	0x9
 2427 04f9 7C       		.byte	0x7c
 2428 04fa 7C040000 		.4byte	0x47c
 2429 04fe 48       		.byte	0x48
 2430 04ff 00       		.byte	0
 2431 0500 02       		.uleb128 0x2
 2432 0501 80060000 		.4byte	.LASF71
 2433 0505 09       		.byte	0x9
 2434 0506 84       		.byte	0x84
 2435 0507 B8040000 		.4byte	0x4b8
 2436 050b 0D       		.uleb128 0xd
 2437 050c 04       		.byte	0x4
 2438 050d 00050000 		.4byte	0x500
 2439 0511 13       		.uleb128 0x13
 2440 0512 01       		.byte	0x1
 2441 0513 42000000 		.4byte	0x42
 2442 0517 0A       		.byte	0xa
 2443 0518 27       		.byte	0x27
 2444 0519 2A050000 		.4byte	0x52a
 2445 051d 14       		.uleb128 0x14
 2446 051e 8A010000 		.4byte	.LASF72
 2447 0522 00       		.byte	0
 2448 0523 14       		.uleb128 0x14
 2449 0524 460B0000 		.4byte	.LASF73
 2450 0528 01       		.byte	0x1
 2451 0529 00       		.byte	0
 2452 052a 02       		.uleb128 0x2
 2453 052b AE090000 		.4byte	.LASF74
 2454 052f 0A       		.byte	0xa
 2455 0530 2C       		.byte	0x2c
 2456 0531 AD000000 		.4byte	0xad
 2457 0535 02       		.uleb128 0x2
 2458 0536 07000000 		.4byte	.LASF75
 2459 053a 0B       		.byte	0xb
 2460 053b 1E       		.byte	0x1e
 2461 053c AD000000 		.4byte	0xad
 2462 0540 06       		.uleb128 0x6
 2463 0541 0C       		.byte	0xc
 2464 0542 0B       		.byte	0xb
 2465 0543 21       		.byte	0x21
 2466 0544 6D050000 		.4byte	0x56d
 2467 0548 07       		.uleb128 0x7
 2468 0549 8D0F0000 		.4byte	.LASF76
 2469 054d 0B       		.byte	0xb
 2470 054e 23       		.byte	0x23
 2471 054f CE000000 		.4byte	0xce
 2472 0553 00       		.byte	0
 2473 0554 07       		.uleb128 0x7
 2474 0555 24030000 		.4byte	.LASF77
 2475 0559 0B       		.byte	0xb
 2476 055a 24       		.byte	0x24
 2477 055b 6D050000 		.4byte	0x56d
ARM GAS  C:\Users\pearlstl\AppData\Local\Temp\ccbEAAPX.s 			page 64


 2478 055f 04       		.byte	0x4
 2479 0560 07       		.uleb128 0x7
 2480 0561 60000000 		.4byte	.LASF78
 2481 0565 0B       		.byte	0xb
 2482 0566 25       		.byte	0x25
 2483 0567 6D050000 		.4byte	0x56d
 2484 056b 08       		.byte	0x8
 2485 056c 00       		.byte	0
 2486 056d 0D       		.uleb128 0xd
 2487 056e 04       		.byte	0x4
 2488 056f 35050000 		.4byte	0x535
 2489 0573 02       		.uleb128 0x2
 2490 0574 F60C0000 		.4byte	.LASF79
 2491 0578 0B       		.byte	0xb
 2492 0579 26       		.byte	0x26
 2493 057a 40050000 		.4byte	0x540
 2494 057e 02       		.uleb128 0x2
 2495 057f F1050000 		.4byte	.LASF80
 2496 0583 0C       		.byte	0xc
 2497 0584 30       		.byte	0x30
 2498 0585 AD000000 		.4byte	0xad
 2499 0589 0D       		.uleb128 0xd
 2500 058a 04       		.byte	0x4
 2501 058b 8F050000 		.4byte	0x58f
 2502 058f 0E       		.uleb128 0xe
 2503 0590 CA020000 		.4byte	0x2ca
 2504 0594 09       		.uleb128 0x9
 2505 0595 740C0000 		.4byte	.LASF82
 2506 0599 40       		.byte	0x40
 2507 059a 0D       		.byte	0xd
 2508 059b BB       		.byte	0xbb
 2509 059c D6060000 		.4byte	0x6d6
 2510 05a0 08       		.uleb128 0x8
 2511 05a1 70617200 		.ascii	"par\000"
 2512 05a5 0D       		.byte	0xd
 2513 05a6 BD       		.byte	0xbd
 2514 05a7 D6060000 		.4byte	0x6d6
 2515 05ab 00       		.byte	0
 2516 05ac 07       		.uleb128 0x7
 2517 05ad D5070000 		.4byte	.LASF83
 2518 05b1 0D       		.byte	0xd
 2519 05b2 BE       		.byte	0xbe
 2520 05b3 73050000 		.4byte	0x573
 2521 05b7 04       		.byte	0x4
 2522 05b8 07       		.uleb128 0x7
 2523 05b9 AF0D0000 		.4byte	.LASF84
 2524 05bd 0D       		.byte	0xd
 2525 05be C0       		.byte	0xc0
 2526 05bf CA020000 		.4byte	0x2ca
 2527 05c3 10       		.byte	0x10
 2528 05c4 07       		.uleb128 0x7
 2529 05c5 82070000 		.4byte	.LASF85
 2530 05c9 0D       		.byte	0xd
 2531 05ca C2       		.byte	0xc2
 2532 05cb C0070000 		.4byte	0x7c0
 2533 05cf 18       		.byte	0x18
 2534 05d0 07       		.uleb128 0x7
ARM GAS  C:\Users\pearlstl\AppData\Local\Temp\ccbEAAPX.s 			page 65


 2535 05d1 590E0000 		.4byte	.LASF86
 2536 05d5 0D       		.byte	0xd
 2537 05d6 C3       		.byte	0xc3
 2538 05d7 71080000 		.4byte	0x871
 2539 05db 1C       		.byte	0x1c
 2540 05dc 07       		.uleb128 0x7
 2541 05dd 37050000 		.4byte	.LASF87
 2542 05e1 0D       		.byte	0xd
 2543 05e2 C4       		.byte	0xc4
 2544 05e3 06070000 		.4byte	0x706
 2545 05e7 20       		.byte	0x20
 2546 05e8 07       		.uleb128 0x7
 2547 05e9 D7090000 		.4byte	.LASF88
 2548 05ed 0D       		.byte	0xd
 2549 05ee C6       		.byte	0xc6
 2550 05ef E4000000 		.4byte	0xe4
 2551 05f3 24       		.byte	0x24
 2552 05f4 07       		.uleb128 0x7
 2553 05f5 91070000 		.4byte	.LASF89
 2554 05f9 0D       		.byte	0xd
 2555 05fa C7       		.byte	0xc7
 2556 05fb 1E090000 		.4byte	0x91e
 2557 05ff 28       		.byte	0x28
 2558 0600 0A       		.uleb128 0xa
 2559 0601 E5000000 		.4byte	.LASF90
 2560 0605 0D       		.byte	0xd
 2561 0606 D7       		.byte	0xd7
 2562 0607 AD000000 		.4byte	0xad
 2563 060b 01       		.byte	0x1
 2564 060c 01       		.byte	0x1
 2565 060d 07       		.byte	0x7
 2566 060e 2C       		.byte	0x2c
 2567 060f 0A       		.uleb128 0xa
 2568 0610 6F0C0000 		.4byte	.LASF91
 2569 0614 0D       		.byte	0xd
 2570 0615 D8       		.byte	0xd8
 2571 0616 AD000000 		.4byte	0xad
 2572 061a 01       		.byte	0x1
 2573 061b 01       		.byte	0x1
 2574 061c 06       		.byte	0x6
 2575 061d 2C       		.byte	0x2c
 2576 061e 0A       		.uleb128 0xa
 2577 061f D8050000 		.4byte	.LASF92
 2578 0623 0D       		.byte	0xd
 2579 0624 D9       		.byte	0xd9
 2580 0625 AD000000 		.4byte	0xad
 2581 0629 01       		.byte	0x1
 2582 062a 01       		.byte	0x1
 2583 062b 05       		.byte	0x5
 2584 062c 2C       		.byte	0x2c
 2585 062d 0A       		.uleb128 0xa
 2586 062e FB0D0000 		.4byte	.LASF93
 2587 0632 0D       		.byte	0xd
 2588 0633 DA       		.byte	0xda
 2589 0634 AD000000 		.4byte	0xad
 2590 0638 01       		.byte	0x1
 2591 0639 01       		.byte	0x1
ARM GAS  C:\Users\pearlstl\AppData\Local\Temp\ccbEAAPX.s 			page 66


 2592 063a 04       		.byte	0x4
 2593 063b 2C       		.byte	0x2c
 2594 063c 0A       		.uleb128 0xa
 2595 063d DA020000 		.4byte	.LASF94
 2596 0641 0D       		.byte	0xd
 2597 0642 DB       		.byte	0xdb
 2598 0643 AD000000 		.4byte	0xad
 2599 0647 01       		.byte	0x1
 2600 0648 01       		.byte	0x1
 2601 0649 03       		.byte	0x3
 2602 064a 2C       		.byte	0x2c
 2603 064b 15       		.uleb128 0x15
 2604 064c 746F7000 		.ascii	"top\000"
 2605 0650 0D       		.byte	0xd
 2606 0651 DC       		.byte	0xdc
 2607 0652 AD000000 		.4byte	0xad
 2608 0656 01       		.byte	0x1
 2609 0657 01       		.byte	0x1
 2610 0658 02       		.byte	0x2
 2611 0659 2C       		.byte	0x2c
 2612 065a 0A       		.uleb128 0xa
 2613 065b BE0D0000 		.4byte	.LASF95
 2614 065f 0D       		.byte	0xd
 2615 0660 DD       		.byte	0xdd
 2616 0661 AD000000 		.4byte	0xad
 2617 0665 01       		.byte	0x1
 2618 0666 01       		.byte	0x1
 2619 0667 01       		.byte	0x1
 2620 0668 2C       		.byte	0x2c
 2621 0669 0A       		.uleb128 0xa
 2622 066a 00080000 		.4byte	.LASF96
 2623 066e 0D       		.byte	0xd
 2624 066f DE       		.byte	0xde
 2625 0670 AD000000 		.4byte	0xad
 2626 0674 01       		.byte	0x1
 2627 0675 01       		.byte	0x1
 2628 0676 00       		.byte	0
 2629 0677 2C       		.byte	0x2c
 2630 0678 0A       		.uleb128 0xa
 2631 0679 20040000 		.4byte	.LASF97
 2632 067d 0D       		.byte	0xd
 2633 067e DF       		.byte	0xdf
 2634 067f 13090000 		.4byte	0x913
 2635 0683 01       		.byte	0x1
 2636 0684 02       		.byte	0x2
 2637 0685 06       		.byte	0x6
 2638 0686 2D       		.byte	0x2d
 2639 0687 0A       		.uleb128 0xa
 2640 0688 990C0000 		.4byte	.LASF98
 2641 068c 0D       		.byte	0xd
 2642 068d E0       		.byte	0xe0
 2643 068e 7E050000 		.4byte	0x57e
 2644 0692 01       		.byte	0x1
 2645 0693 02       		.byte	0x2
 2646 0694 04       		.byte	0x4
 2647 0695 2D       		.byte	0x2d
 2648 0696 0A       		.uleb128 0xa
ARM GAS  C:\Users\pearlstl\AppData\Local\Temp\ccbEAAPX.s 			page 67


 2649 0697 810E0000 		.4byte	.LASF99
 2650 069b 0D       		.byte	0xd
 2651 069c E1       		.byte	0xe1
 2652 069d AD000000 		.4byte	0xad
 2653 06a1 01       		.byte	0x1
 2654 06a2 03       		.byte	0x3
 2655 06a3 01       		.byte	0x1
 2656 06a4 2D       		.byte	0x2d
 2657 06a5 07       		.uleb128 0x7
 2658 06a6 E4070000 		.4byte	.LASF100
 2659 06aa 0D       		.byte	0xd
 2660 06ab E2       		.byte	0xe2
 2661 06ac AD000000 		.4byte	0xad
 2662 06b0 2E       		.byte	0x2e
 2663 06b1 07       		.uleb128 0x7
 2664 06b2 E30F0000 		.4byte	.LASF101
 2665 06b6 0D       		.byte	0xd
 2666 06b7 E4       		.byte	0xe4
 2667 06b8 7B020000 		.4byte	0x27b
 2668 06bc 2F       		.byte	0x2f
 2669 06bd 07       		.uleb128 0x7
 2670 06be FF050000 		.4byte	.LASF102
 2671 06c2 0D       		.byte	0xd
 2672 06c3 E6       		.byte	0xe6
 2673 06c4 D9000000 		.4byte	0xd9
 2674 06c8 30       		.byte	0x30
 2675 06c9 07       		.uleb128 0x7
 2676 06ca 46060000 		.4byte	.LASF103
 2677 06ce 0D       		.byte	0xd
 2678 06cf E9       		.byte	0xe9
 2679 06d0 08090000 		.4byte	0x908
 2680 06d4 34       		.byte	0x34
 2681 06d5 00       		.byte	0
 2682 06d6 0D       		.uleb128 0xd
 2683 06d7 04       		.byte	0x4
 2684 06d8 94050000 		.4byte	0x594
 2685 06dc 13       		.uleb128 0x13
 2686 06dd 01       		.byte	0x1
 2687 06de 42000000 		.4byte	0x42
 2688 06e2 0D       		.byte	0xd
 2689 06e3 3D       		.byte	0x3d
 2690 06e4 FB060000 		.4byte	0x6fb
 2691 06e8 14       		.uleb128 0x14
 2692 06e9 E2080000 		.4byte	.LASF104
 2693 06ed 00       		.byte	0
 2694 06ee 14       		.uleb128 0x14
 2695 06ef 9D040000 		.4byte	.LASF105
 2696 06f3 01       		.byte	0x1
 2697 06f4 14       		.uleb128 0x14
 2698 06f5 23050000 		.4byte	.LASF106
 2699 06f9 02       		.byte	0x2
 2700 06fa 00       		.byte	0
 2701 06fb 02       		.uleb128 0x2
 2702 06fc F1090000 		.4byte	.LASF107
 2703 0700 0D       		.byte	0xd
 2704 0701 42       		.byte	0x42
 2705 0702 AD000000 		.4byte	0xad
ARM GAS  C:\Users\pearlstl\AppData\Local\Temp\ccbEAAPX.s 			page 68


 2706 0706 02       		.uleb128 0x2
 2707 0707 BF0F0000 		.4byte	.LASF108
 2708 070b 0D       		.byte	0xd
 2709 070c 48       		.byte	0x48
 2710 070d 11070000 		.4byte	0x711
 2711 0711 0D       		.uleb128 0xd
 2712 0712 04       		.byte	0x4
 2713 0713 17070000 		.4byte	0x717
 2714 0717 0B       		.uleb128 0xb
 2715 0718 BF010000 		.4byte	0x1bf
 2716 071c 30070000 		.4byte	0x730
 2717 0720 0C       		.uleb128 0xc
 2718 0721 D6060000 		.4byte	0x6d6
 2719 0725 0C       		.uleb128 0xc
 2720 0726 89050000 		.4byte	0x589
 2721 072a 0C       		.uleb128 0xc
 2722 072b FB060000 		.4byte	0x6fb
 2723 072f 00       		.byte	0
 2724 0730 13       		.uleb128 0x13
 2725 0731 01       		.byte	0x1
 2726 0732 42000000 		.4byte	0x42
 2727 0736 0D       		.byte	0xd
 2728 0737 4A       		.byte	0x4a
 2729 0738 B5070000 		.4byte	0x7b5
 2730 073c 14       		.uleb128 0x14
 2731 073d 4D0A0000 		.4byte	.LASF109
 2732 0741 00       		.byte	0
 2733 0742 14       		.uleb128 0x14
 2734 0743 23090000 		.4byte	.LASF110
 2735 0747 01       		.byte	0x1
 2736 0748 14       		.uleb128 0x14
 2737 0749 D00E0000 		.4byte	.LASF111
 2738 074d 02       		.byte	0x2
 2739 074e 14       		.uleb128 0x14
 2740 074f 68090000 		.4byte	.LASF112
 2741 0753 03       		.byte	0x3
 2742 0754 14       		.uleb128 0x14
 2743 0755 AC010000 		.4byte	.LASF113
 2744 0759 04       		.byte	0x4
 2745 075a 14       		.uleb128 0x14
 2746 075b 91090000 		.4byte	.LASF114
 2747 075f 05       		.byte	0x5
 2748 0760 14       		.uleb128 0x14
 2749 0761 16060000 		.4byte	.LASF115
 2750 0765 06       		.byte	0x6
 2751 0766 14       		.uleb128 0x14
 2752 0767 AD0F0000 		.4byte	.LASF116
 2753 076b 07       		.byte	0x7
 2754 076c 14       		.uleb128 0x14
 2755 076d B6050000 		.4byte	.LASF117
 2756 0771 08       		.byte	0x8
 2757 0772 14       		.uleb128 0x14
 2758 0773 080A0000 		.4byte	.LASF118
 2759 0777 09       		.byte	0x9
 2760 0778 14       		.uleb128 0x14
 2761 0779 4E060000 		.4byte	.LASF119
 2762 077d 0A       		.byte	0xa
ARM GAS  C:\Users\pearlstl\AppData\Local\Temp\ccbEAAPX.s 			page 69


 2763 077e 14       		.uleb128 0x14
 2764 077f B80E0000 		.4byte	.LASF120
 2765 0783 0B       		.byte	0xb
 2766 0784 14       		.uleb128 0x14
 2767 0785 64050000 		.4byte	.LASF121
 2768 0789 0C       		.byte	0xc
 2769 078a 14       		.uleb128 0x14
 2770 078b DC0D0000 		.4byte	.LASF122
 2771 078f 0D       		.byte	0xd
 2772 0790 14       		.uleb128 0x14
 2773 0791 AD080000 		.4byte	.LASF123
 2774 0795 0E       		.byte	0xe
 2775 0796 14       		.uleb128 0x14
 2776 0797 99000000 		.4byte	.LASF124
 2777 079b 0F       		.byte	0xf
 2778 079c 14       		.uleb128 0x14
 2779 079d 1D070000 		.4byte	.LASF125
 2780 07a1 10       		.byte	0x10
 2781 07a2 14       		.uleb128 0x14
 2782 07a3 37060000 		.4byte	.LASF126
 2783 07a7 11       		.byte	0x11
 2784 07a8 14       		.uleb128 0x14
 2785 07a9 780A0000 		.4byte	.LASF127
 2786 07ad 12       		.byte	0x12
 2787 07ae 14       		.uleb128 0x14
 2788 07af 61080000 		.4byte	.LASF128
 2789 07b3 13       		.byte	0x13
 2790 07b4 00       		.byte	0
 2791 07b5 02       		.uleb128 0x2
 2792 07b6 6C010000 		.4byte	.LASF129
 2793 07ba 0D       		.byte	0xd
 2794 07bb 61       		.byte	0x61
 2795 07bc AD000000 		.4byte	0xad
 2796 07c0 02       		.uleb128 0x2
 2797 07c1 280F0000 		.4byte	.LASF130
 2798 07c5 0D       		.byte	0xd
 2799 07c6 68       		.byte	0x68
 2800 07c7 CB070000 		.4byte	0x7cb
 2801 07cb 0D       		.uleb128 0xd
 2802 07cc 04       		.byte	0x4
 2803 07cd D1070000 		.4byte	0x7d1
 2804 07d1 16       		.uleb128 0x16
 2805 07d2 E1070000 		.4byte	0x7e1
 2806 07d6 0C       		.uleb128 0xc
 2807 07d7 D6060000 		.4byte	0x6d6
 2808 07db 0C       		.uleb128 0xc
 2809 07dc B5070000 		.4byte	0x7b5
 2810 07e0 00       		.byte	0
 2811 07e1 13       		.uleb128 0x13
 2812 07e2 01       		.byte	0x1
 2813 07e3 42000000 		.4byte	0x42
 2814 07e7 0D       		.byte	0xd
 2815 07e8 6D       		.byte	0x6d
 2816 07e9 66080000 		.4byte	0x866
 2817 07ed 14       		.uleb128 0x14
 2818 07ee 0D080000 		.4byte	.LASF131
 2819 07f2 00       		.byte	0
ARM GAS  C:\Users\pearlstl\AppData\Local\Temp\ccbEAAPX.s 			page 70


 2820 07f3 14       		.uleb128 0x14
 2821 07f4 8C080000 		.4byte	.LASF132
 2822 07f8 01       		.byte	0x1
 2823 07f9 14       		.uleb128 0x14
 2824 07fa 9C0D0000 		.4byte	.LASF133
 2825 07fe 02       		.byte	0x2
 2826 07ff 14       		.uleb128 0x14
 2827 0800 5E0A0000 		.4byte	.LASF134
 2828 0804 03       		.byte	0x3
 2829 0805 14       		.uleb128 0x14
 2830 0806 65000000 		.4byte	.LASF135
 2831 080a 04       		.byte	0x4
 2832 080b 14       		.uleb128 0x14
 2833 080c 070E0000 		.4byte	.LASF136
 2834 0810 05       		.byte	0x5
 2835 0811 14       		.uleb128 0x14
 2836 0812 04040000 		.4byte	.LASF137
 2837 0816 06       		.byte	0x6
 2838 0817 14       		.uleb128 0x14
 2839 0818 68060000 		.4byte	.LASF138
 2840 081c 07       		.byte	0x7
 2841 081d 14       		.uleb128 0x14
 2842 081e 95010000 		.4byte	.LASF139
 2843 0822 08       		.byte	0x8
 2844 0823 14       		.uleb128 0x14
 2845 0824 55090000 		.4byte	.LASF140
 2846 0828 09       		.byte	0x9
 2847 0829 14       		.uleb128 0x14
 2848 082a 1A0A0000 		.4byte	.LASF141
 2849 082e 0A       		.byte	0xa
 2850 082f 14       		.uleb128 0x14
 2851 0830 880A0000 		.4byte	.LASF142
 2852 0834 0B       		.byte	0xb
 2853 0835 14       		.uleb128 0x14
 2854 0836 B0000000 		.4byte	.LASF143
 2855 083a 0C       		.byte	0xc
 2856 083b 14       		.uleb128 0x14
 2857 083c BB030000 		.4byte	.LASF144
 2858 0840 0D       		.byte	0xd
 2859 0841 14       		.uleb128 0x14
 2860 0842 F6000000 		.4byte	.LASF145
 2861 0846 0E       		.byte	0xe
 2862 0847 14       		.uleb128 0x14
 2863 0848 3A0A0000 		.4byte	.LASF146
 2864 084c 0F       		.byte	0xf
 2865 084d 14       		.uleb128 0x14
 2866 084e 0D070000 		.4byte	.LASF147
 2867 0852 10       		.byte	0x10
 2868 0853 14       		.uleb128 0x14
 2869 0854 52050000 		.4byte	.LASF148
 2870 0858 11       		.byte	0x11
 2871 0859 14       		.uleb128 0x14
 2872 085a BC070000 		.4byte	.LASF149
 2873 085e 12       		.byte	0x12
 2874 085f 14       		.uleb128 0x14
 2875 0860 43070000 		.4byte	.LASF150
 2876 0864 13       		.byte	0x13
ARM GAS  C:\Users\pearlstl\AppData\Local\Temp\ccbEAAPX.s 			page 71


 2877 0865 00       		.byte	0
 2878 0866 02       		.uleb128 0x2
 2879 0867 CC0A0000 		.4byte	.LASF151
 2880 086b 0D       		.byte	0xd
 2881 086c 88       		.byte	0x88
 2882 086d AD000000 		.4byte	0xad
 2883 0871 02       		.uleb128 0x2
 2884 0872 74040000 		.4byte	.LASF152
 2885 0876 0D       		.byte	0xd
 2886 0877 8A       		.byte	0x8a
 2887 0878 7C080000 		.4byte	0x87c
 2888 087c 0D       		.uleb128 0xd
 2889 087d 04       		.byte	0x4
 2890 087e 82080000 		.4byte	0x882
 2891 0882 0B       		.uleb128 0xb
 2892 0883 2A050000 		.4byte	0x52a
 2893 0887 9B080000 		.4byte	0x89b
 2894 088b 0C       		.uleb128 0xc
 2895 088c D6060000 		.4byte	0x6d6
 2896 0890 0C       		.uleb128 0xc
 2897 0891 66080000 		.4byte	0x866
 2898 0895 0C       		.uleb128 0xc
 2899 0896 E4000000 		.4byte	0xe4
 2900 089a 00       		.byte	0
 2901 089b 02       		.uleb128 0x2
 2902 089c EB000000 		.4byte	.LASF153
 2903 08a0 0D       		.byte	0xd
 2904 08a1 A4       		.byte	0xa4
 2905 08a2 AD000000 		.4byte	0xad
 2906 08a6 06       		.uleb128 0x6
 2907 08a7 0C       		.byte	0xc
 2908 08a8 0D       		.byte	0xd
 2909 08a9 A7       		.byte	0xa7
 2910 08aa FD080000 		.4byte	0x8fd
 2911 08ae 07       		.uleb128 0x7
 2912 08af C50C0000 		.4byte	.LASF154
 2913 08b3 0D       		.byte	0xd
 2914 08b4 A9       		.byte	0xa9
 2915 08b5 FD080000 		.4byte	0x8fd
 2916 08b9 00       		.byte	0
 2917 08ba 07       		.uleb128 0x7
 2918 08bb 190C0000 		.4byte	.LASF155
 2919 08bf 0D       		.byte	0xd
 2920 08c0 AA       		.byte	0xaa
 2921 08c1 D9000000 		.4byte	0xd9
 2922 08c5 04       		.byte	0x4
 2923 08c6 07       		.uleb128 0x7
 2924 08c7 B6040000 		.4byte	.LASF156
 2925 08cb 0D       		.byte	0xd
 2926 08cc AB       		.byte	0xab
 2927 08cd D9000000 		.4byte	0xd9
 2928 08d1 06       		.byte	0x6
 2929 08d2 07       		.uleb128 0x7
 2930 08d3 1F080000 		.4byte	.LASF157
 2931 08d7 0D       		.byte	0xd
 2932 08d8 AC       		.byte	0xac
 2933 08d9 9B080000 		.4byte	0x89b
ARM GAS  C:\Users\pearlstl\AppData\Local\Temp\ccbEAAPX.s 			page 72


 2934 08dd 08       		.byte	0x8
 2935 08de 0A       		.uleb128 0xa
 2936 08df D5080000 		.4byte	.LASF158
 2937 08e3 0D       		.byte	0xd
 2938 08e4 AD       		.byte	0xad
 2939 08e5 AD000000 		.4byte	0xad
 2940 08e9 01       		.byte	0x1
 2941 08ea 01       		.byte	0x1
 2942 08eb 07       		.byte	0x7
 2943 08ec 09       		.byte	0x9
 2944 08ed 0A       		.uleb128 0xa
 2945 08ee 3E0F0000 		.4byte	.LASF159
 2946 08f2 0D       		.byte	0xd
 2947 08f3 AE       		.byte	0xae
 2948 08f4 AD000000 		.4byte	0xad
 2949 08f8 01       		.byte	0x1
 2950 08f9 01       		.byte	0x1
 2951 08fa 06       		.byte	0x6
 2952 08fb 09       		.byte	0x9
 2953 08fc 00       		.byte	0
 2954 08fd 0D       		.uleb128 0xd
 2955 08fe 04       		.byte	0x4
 2956 08ff 03090000 		.4byte	0x903
 2957 0903 0E       		.uleb128 0xe
 2958 0904 94050000 		.4byte	0x594
 2959 0908 02       		.uleb128 0x2
 2960 0909 CC000000 		.4byte	.LASF160
 2961 090d 0D       		.byte	0xd
 2962 090e B0       		.byte	0xb0
 2963 090f A6080000 		.4byte	0x8a6
 2964 0913 02       		.uleb128 0x2
 2965 0914 C3090000 		.4byte	.LASF161
 2966 0918 0D       		.byte	0xd
 2967 0919 B9       		.byte	0xb9
 2968 091a AD000000 		.4byte	0xad
 2969 091e 0D       		.uleb128 0xd
 2970 091f 04       		.byte	0x4
 2971 0920 24090000 		.4byte	0x924
 2972 0924 0E       		.uleb128 0xe
 2973 0925 00050000 		.4byte	0x500
 2974 0929 02       		.uleb128 0x2
 2975 092a 460C0000 		.4byte	.LASF162
 2976 092e 0D       		.byte	0xd
 2977 092f F0       		.byte	0xf0
 2978 0930 94050000 		.4byte	0x594
 2979 0934 13       		.uleb128 0x13
 2980 0935 01       		.byte	0x1
 2981 0936 42000000 		.4byte	0x42
 2982 093a 0E       		.byte	0xe
 2983 093b 23       		.byte	0x23
 2984 093c 83090000 		.4byte	0x983
 2985 0940 14       		.uleb128 0x14
 2986 0941 EB060000 		.4byte	.LASF163
 2987 0945 00       		.byte	0
 2988 0946 14       		.uleb128 0x14
 2989 0947 E40E0000 		.4byte	.LASF164
 2990 094b 01       		.byte	0x1
ARM GAS  C:\Users\pearlstl\AppData\Local\Temp\ccbEAAPX.s 			page 73


 2991 094c 14       		.uleb128 0x14
 2992 094d E3040000 		.4byte	.LASF165
 2993 0951 02       		.byte	0x2
 2994 0952 14       		.uleb128 0x14
 2995 0953 F3040000 		.4byte	.LASF166
 2996 0957 03       		.byte	0x3
 2997 0958 14       		.uleb128 0x14
 2998 0959 03050000 		.4byte	.LASF167
 2999 095d 04       		.byte	0x4
 3000 095e 14       		.uleb128 0x14
 3001 095f 39030000 		.4byte	.LASF168
 3002 0963 05       		.byte	0x5
 3003 0964 14       		.uleb128 0x14
 3004 0965 29030000 		.4byte	.LASF169
 3005 0969 06       		.byte	0x6
 3006 096a 14       		.uleb128 0x14
 3007 096b 03030000 		.4byte	.LASF170
 3008 096f 07       		.byte	0x7
 3009 0970 14       		.uleb128 0x14
 3010 0971 13030000 		.4byte	.LASF171
 3011 0975 08       		.byte	0x8
 3012 0976 14       		.uleb128 0x14
 3013 0977 4F0C0000 		.4byte	.LASF172
 3014 097b 09       		.byte	0x9
 3015 097c 14       		.uleb128 0x14
 3016 097d 8E040000 		.4byte	.LASF173
 3017 0981 0A       		.byte	0xa
 3018 0982 00       		.byte	0
 3019 0983 02       		.uleb128 0x2
 3020 0984 EF0D0000 		.4byte	.LASF174
 3021 0988 0E       		.byte	0xe
 3022 0989 30       		.byte	0x30
 3023 098a AD000000 		.4byte	0xad
 3024 098e 06       		.uleb128 0x6
 3025 098f 02       		.byte	0x2
 3026 0990 0E       		.byte	0xe
 3027 0991 3F       		.byte	0x3f
 3028 0992 E2090000 		.4byte	0x9e2
 3029 0996 0A       		.uleb128 0xa
 3030 0997 EC070000 		.4byte	.LASF175
 3031 099b 0E       		.byte	0xe
 3032 099c 43       		.byte	0x43
 3033 099d AD000000 		.4byte	0xad
 3034 09a1 01       		.byte	0x1
 3035 09a2 04       		.byte	0x4
 3036 09a3 04       		.byte	0x4
 3037 09a4 00       		.byte	0
 3038 09a5 0A       		.uleb128 0xa
 3039 09a6 1A090000 		.4byte	.LASF176
 3040 09aa 0E       		.byte	0xe
 3041 09ab 44       		.byte	0x44
 3042 09ac AD000000 		.4byte	0xad
 3043 09b0 01       		.byte	0x1
 3044 09b1 02       		.byte	0x2
 3045 09b2 02       		.byte	0x2
 3046 09b3 00       		.byte	0
 3047 09b4 0A       		.uleb128 0xa
ARM GAS  C:\Users\pearlstl\AppData\Local\Temp\ccbEAAPX.s 			page 74


 3048 09b5 1E0C0000 		.4byte	.LASF177
 3049 09b9 0E       		.byte	0xe
 3050 09ba 45       		.byte	0x45
 3051 09bb AD000000 		.4byte	0xad
 3052 09bf 01       		.byte	0x1
 3053 09c0 02       		.byte	0x2
 3054 09c1 00       		.byte	0
 3055 09c2 00       		.byte	0
 3056 09c3 0A       		.uleb128 0xa
 3057 09c4 90030000 		.4byte	.LASF178
 3058 09c8 0E       		.byte	0xe
 3059 09c9 46       		.byte	0x46
 3060 09ca AD000000 		.4byte	0xad
 3061 09ce 01       		.byte	0x1
 3062 09cf 02       		.byte	0x2
 3063 09d0 06       		.byte	0x6
 3064 09d1 01       		.byte	0x1
 3065 09d2 0A       		.uleb128 0xa
 3066 09d3 A50B0000 		.4byte	.LASF179
 3067 09d7 0E       		.byte	0xe
 3068 09d8 47       		.byte	0x47
 3069 09d9 AD000000 		.4byte	0xad
 3070 09dd 01       		.byte	0x1
 3071 09de 02       		.byte	0x2
 3072 09df 04       		.byte	0x4
 3073 09e0 01       		.byte	0x1
 3074 09e1 00       		.byte	0
 3075 09e2 02       		.uleb128 0x2
 3076 09e3 71080000 		.4byte	.LASF180
 3077 09e7 0E       		.byte	0xe
 3078 09e8 48       		.byte	0x48
 3079 09e9 8E090000 		.4byte	0x98e
 3080 09ed 13       		.uleb128 0x13
 3081 09ee 01       		.byte	0x1
 3082 09ef 42000000 		.4byte	0x42
 3083 09f3 0F       		.byte	0xf
 3084 09f4 1E       		.byte	0x1e
 3085 09f5 420A0000 		.4byte	0xa42
 3086 09f9 14       		.uleb128 0x14
 3087 09fa 640F0000 		.4byte	.LASF181
 3088 09fe 11       		.byte	0x11
 3089 09ff 14       		.uleb128 0x14
 3090 0a00 990B0000 		.4byte	.LASF182
 3091 0a04 12       		.byte	0x12
 3092 0a05 14       		.uleb128 0x14
 3093 0a06 41000000 		.4byte	.LASF183
 3094 0a0a 13       		.byte	0x13
 3095 0a0b 14       		.uleb128 0x14
 3096 0a0c 5F030000 		.4byte	.LASF184
 3097 0a10 14       		.byte	0x14
 3098 0a11 14       		.uleb128 0x14
 3099 0a12 B00B0000 		.4byte	.LASF185
 3100 0a16 1B       		.byte	0x1b
 3101 0a17 14       		.uleb128 0x14
 3102 0a18 F3020000 		.4byte	.LASF186
 3103 0a1c 7F       		.byte	0x7f
 3104 0a1d 14       		.uleb128 0x14
ARM GAS  C:\Users\pearlstl\AppData\Local\Temp\ccbEAAPX.s 			page 75


 3105 0a1e 3D040000 		.4byte	.LASF187
 3106 0a22 08       		.byte	0x8
 3107 0a23 14       		.uleb128 0x14
 3108 0a24 7D010000 		.4byte	.LASF188
 3109 0a28 0A       		.byte	0xa
 3110 0a29 14       		.uleb128 0x14
 3111 0a2a 49090000 		.4byte	.LASF189
 3112 0a2e 09       		.byte	0x9
 3113 0a2f 14       		.uleb128 0x14
 3114 0a30 B90C0000 		.4byte	.LASF190
 3115 0a34 0B       		.byte	0xb
 3116 0a35 14       		.uleb128 0x14
 3117 0a36 BF060000 		.4byte	.LASF191
 3118 0a3a 02       		.byte	0x2
 3119 0a3b 14       		.uleb128 0x14
 3120 0a3c 2F0A0000 		.4byte	.LASF192
 3121 0a40 03       		.byte	0x3
 3122 0a41 00       		.byte	0
 3123 0a42 13       		.uleb128 0x13
 3124 0a43 01       		.byte	0x1
 3125 0a44 42000000 		.4byte	0x42
 3126 0a48 02       		.byte	0x2
 3127 0a49 2A       		.byte	0x2a
 3128 0a4a 730A0000 		.4byte	0xa73
 3129 0a4e 14       		.uleb128 0x14
 3130 0a4f 92020000 		.4byte	.LASF193
 3131 0a53 00       		.byte	0
 3132 0a54 14       		.uleb128 0x14
 3133 0a55 080B0000 		.4byte	.LASF194
 3134 0a59 01       		.byte	0x1
 3135 0a5a 14       		.uleb128 0x14
 3136 0a5b D6060000 		.4byte	.LASF195
 3137 0a5f 02       		.byte	0x2
 3138 0a60 14       		.uleb128 0x14
 3139 0a61 14000000 		.4byte	.LASF196
 3140 0a65 03       		.byte	0x3
 3141 0a66 14       		.uleb128 0x14
 3142 0a67 C4080000 		.4byte	.LASF197
 3143 0a6b 04       		.byte	0x4
 3144 0a6c 14       		.uleb128 0x14
 3145 0a6d 940F0000 		.4byte	.LASF198
 3146 0a71 05       		.byte	0x5
 3147 0a72 00       		.byte	0
 3148 0a73 02       		.uleb128 0x2
 3149 0a74 82000000 		.4byte	.LASF199
 3150 0a78 02       		.byte	0x2
 3151 0a79 3D       		.byte	0x3d
 3152 0a7a AD000000 		.4byte	0xad
 3153 0a7e 06       		.uleb128 0x6
 3154 0a7f 1C       		.byte	0x1c
 3155 0a80 02       		.byte	0x2
 3156 0a81 40       		.byte	0x40
 3157 0a82 BD0A0000 		.4byte	0xabd
 3158 0a86 07       		.uleb128 0x7
 3159 0a87 D5010000 		.4byte	.LASF200
 3160 0a8b 02       		.byte	0x2
 3161 0a8c 43       		.byte	0x43
ARM GAS  C:\Users\pearlstl\AppData\Local\Temp\ccbEAAPX.s 			page 76


 3162 0a8d E2090000 		.4byte	0x9e2
 3163 0a91 00       		.byte	0
 3164 0a92 07       		.uleb128 0x7
 3165 0a93 91060000 		.4byte	.LASF201
 3166 0a97 02       		.byte	0x2
 3167 0a98 48       		.byte	0x48
 3168 0a99 BD0A0000 		.4byte	0xabd
 3169 0a9d 04       		.byte	0x4
 3170 0a9e 0A       		.uleb128 0xa
 3171 0a9f 77010000 		.4byte	.LASF202
 3172 0aa3 02       		.byte	0x2
 3173 0aa4 55       		.byte	0x55
 3174 0aa5 730A0000 		.4byte	0xa73
 3175 0aa9 01       		.byte	0x1
 3176 0aaa 03       		.byte	0x3
 3177 0aab 05       		.byte	0x5
 3178 0aac 18       		.byte	0x18
 3179 0aad 0A       		.uleb128 0xa
 3180 0aae 8A0E0000 		.4byte	.LASF203
 3181 0ab2 02       		.byte	0x2
 3182 0ab3 58       		.byte	0x58
 3183 0ab4 AD000000 		.4byte	0xad
 3184 0ab8 01       		.byte	0x1
 3185 0ab9 01       		.byte	0x1
 3186 0aba 04       		.byte	0x4
 3187 0abb 18       		.byte	0x18
 3188 0abc 00       		.byte	0
 3189 0abd 17       		.uleb128 0x17
 3190 0abe 1E090000 		.4byte	0x91e
 3191 0ac2 CD0A0000 		.4byte	0xacd
 3192 0ac6 18       		.uleb128 0x18
 3193 0ac7 87020000 		.4byte	0x287
 3194 0acb 04       		.byte	0x4
 3195 0acc 00       		.byte	0
 3196 0acd 02       		.uleb128 0x2
 3197 0ace C8010000 		.4byte	.LASF204
 3198 0ad2 02       		.byte	0x2
 3199 0ad3 59       		.byte	0x59
 3200 0ad4 7E0A0000 		.4byte	0xa7e
 3201 0ad8 13       		.uleb128 0x13
 3202 0ad9 01       		.byte	0x1
 3203 0ada 42000000 		.4byte	0x42
 3204 0ade 02       		.byte	0x2
 3205 0adf 5C       		.byte	0x5c
 3206 0ae0 030B0000 		.4byte	0xb03
 3207 0ae4 14       		.uleb128 0x14
 3208 0ae5 49030000 		.4byte	.LASF205
 3209 0ae9 00       		.byte	0
 3210 0aea 14       		.uleb128 0x14
 3211 0aeb 13050000 		.4byte	.LASF206
 3212 0aef 01       		.byte	0x1
 3213 0af0 14       		.uleb128 0x14
 3214 0af1 4A0F0000 		.4byte	.LASF207
 3215 0af5 02       		.byte	0x2
 3216 0af6 14       		.uleb128 0x14
 3217 0af7 910E0000 		.4byte	.LASF208
 3218 0afb 03       		.byte	0x3
ARM GAS  C:\Users\pearlstl\AppData\Local\Temp\ccbEAAPX.s 			page 77


 3219 0afc 14       		.uleb128 0x14
 3220 0afd 39080000 		.4byte	.LASF209
 3221 0b01 04       		.byte	0x4
 3222 0b02 00       		.byte	0
 3223 0b03 02       		.uleb128 0x2
 3224 0b04 FE060000 		.4byte	.LASF210
 3225 0b08 02       		.byte	0x2
 3226 0b09 6C       		.byte	0x6c
 3227 0b0a AD000000 		.4byte	0xad
 3228 0b0e 06       		.uleb128 0x6
 3229 0b0f 14       		.byte	0x14
 3230 0b10 10       		.byte	0x10
 3231 0b11 34       		.byte	0x34
 3232 0b12 520B0000 		.4byte	0xb52
 3233 0b16 08       		.uleb128 0x8
 3234 0b17 72656C00 		.ascii	"rel\000"
 3235 0b1b 10       		.byte	0x10
 3236 0b1c 36       		.byte	0x36
 3237 0b1d 0B050000 		.4byte	0x50b
 3238 0b21 00       		.byte	0
 3239 0b22 08       		.uleb128 0x8
 3240 0b23 707200   		.ascii	"pr\000"
 3241 0b26 10       		.byte	0x10
 3242 0b27 37       		.byte	0x37
 3243 0b28 0B050000 		.4byte	0x50b
 3244 0b2c 04       		.byte	0x4
 3245 0b2d 07       		.uleb128 0x7
 3246 0b2e A5080000 		.4byte	.LASF211
 3247 0b32 10       		.byte	0x10
 3248 0b33 38       		.byte	0x38
 3249 0b34 0B050000 		.4byte	0x50b
 3250 0b38 08       		.byte	0x8
 3251 0b39 07       		.uleb128 0x7
 3252 0b3a 89030000 		.4byte	.LASF212
 3253 0b3e 10       		.byte	0x10
 3254 0b3f 39       		.byte	0x39
 3255 0b40 0B050000 		.4byte	0x50b
 3256 0b44 0C       		.byte	0xc
 3257 0b45 08       		.uleb128 0x8
 3258 0b46 696E6100 		.ascii	"ina\000"
 3259 0b4a 10       		.byte	0x10
 3260 0b4b 3A       		.byte	0x3a
 3261 0b4c 0B050000 		.4byte	0x50b
 3262 0b50 10       		.byte	0x10
 3263 0b51 00       		.byte	0
 3264 0b52 06       		.uleb128 0x6
 3265 0b53 14       		.byte	0x14
 3266 0b54 10       		.byte	0x10
 3267 0b55 3F       		.byte	0x3f
 3268 0b56 960B0000 		.4byte	0xb96
 3269 0b5a 08       		.uleb128 0x8
 3270 0b5b 72656C00 		.ascii	"rel\000"
 3271 0b5f 10       		.byte	0x10
 3272 0b60 41       		.byte	0x41
 3273 0b61 0B050000 		.4byte	0x50b
 3274 0b65 00       		.byte	0
 3275 0b66 08       		.uleb128 0x8
ARM GAS  C:\Users\pearlstl\AppData\Local\Temp\ccbEAAPX.s 			page 78


 3276 0b67 707200   		.ascii	"pr\000"
 3277 0b6a 10       		.byte	0x10
 3278 0b6b 42       		.byte	0x42
 3279 0b6c 0B050000 		.4byte	0x50b
 3280 0b70 04       		.byte	0x4
 3281 0b71 07       		.uleb128 0x7
 3282 0b72 A5080000 		.4byte	.LASF211
 3283 0b76 10       		.byte	0x10
 3284 0b77 43       		.byte	0x43
 3285 0b78 0B050000 		.4byte	0x50b
 3286 0b7c 08       		.byte	0x8
 3287 0b7d 07       		.uleb128 0x7
 3288 0b7e 89030000 		.4byte	.LASF212
 3289 0b82 10       		.byte	0x10
 3290 0b83 44       		.byte	0x44
 3291 0b84 0B050000 		.4byte	0x50b
 3292 0b88 0C       		.byte	0xc
 3293 0b89 08       		.uleb128 0x8
 3294 0b8a 696E6100 		.ascii	"ina\000"
 3295 0b8e 10       		.byte	0x10
 3296 0b8f 45       		.byte	0x45
 3297 0b90 0B050000 		.4byte	0x50b
 3298 0b94 10       		.byte	0x10
 3299 0b95 00       		.byte	0
 3300 0b96 06       		.uleb128 0x6
 3301 0b97 0C       		.byte	0xc
 3302 0b98 10       		.byte	0x10
 3303 0b99 4A       		.byte	0x4a
 3304 0b9a C30B0000 		.4byte	0xbc3
 3305 0b9e 07       		.uleb128 0x7
 3306 0b9f 8D020000 		.4byte	.LASF213
 3307 0ba3 10       		.byte	0x10
 3308 0ba4 4C       		.byte	0x4c
 3309 0ba5 0B050000 		.4byte	0x50b
 3310 0ba9 00       		.byte	0
 3311 0baa 08       		.uleb128 0x8
 3312 0bab 73656300 		.ascii	"sec\000"
 3313 0baf 10       		.byte	0x10
 3314 0bb0 4D       		.byte	0x4d
 3315 0bb1 0B050000 		.4byte	0x50b
 3316 0bb5 04       		.byte	0x4
 3317 0bb6 07       		.uleb128 0x7
 3318 0bb7 CB060000 		.4byte	.LASF214
 3319 0bbb 10       		.byte	0x10
 3320 0bbc 4E       		.byte	0x4e
 3321 0bbd 0B050000 		.4byte	0x50b
 3322 0bc1 08       		.byte	0x8
 3323 0bc2 00       		.byte	0
 3324 0bc3 06       		.uleb128 0x6
 3325 0bc4 08       		.byte	0x8
 3326 0bc5 10       		.byte	0x10
 3327 0bc6 53       		.byte	0x53
 3328 0bc7 E40B0000 		.4byte	0xbe4
 3329 0bcb 07       		.uleb128 0x7
 3330 0bcc C2010000 		.4byte	.LASF215
 3331 0bd0 10       		.byte	0x10
 3332 0bd1 55       		.byte	0x55
ARM GAS  C:\Users\pearlstl\AppData\Local\Temp\ccbEAAPX.s 			page 79


 3333 0bd2 0B050000 		.4byte	0x50b
 3334 0bd6 00       		.byte	0
 3335 0bd7 07       		.uleb128 0x7
 3336 0bd8 6C0E0000 		.4byte	.LASF216
 3337 0bdc 10       		.byte	0x10
 3338 0bdd 56       		.byte	0x56
 3339 0bde 0B050000 		.4byte	0x50b
 3340 0be2 04       		.byte	0x4
 3341 0be3 00       		.byte	0
 3342 0be4 06       		.uleb128 0x6
 3343 0be5 04       		.byte	0x4
 3344 0be6 10       		.byte	0x10
 3345 0be7 5B       		.byte	0x5b
 3346 0be8 F90B0000 		.4byte	0xbf9
 3347 0bec 07       		.uleb128 0x7
 3348 0bed BB0B0000 		.4byte	.LASF217
 3349 0bf1 10       		.byte	0x10
 3350 0bf2 5D       		.byte	0x5d
 3351 0bf3 0B050000 		.4byte	0x50b
 3352 0bf7 00       		.byte	0
 3353 0bf8 00       		.byte	0
 3354 0bf9 06       		.uleb128 0x6
 3355 0bfa 08       		.byte	0x8
 3356 0bfb 10       		.byte	0x10
 3357 0bfc 66       		.byte	0x66
 3358 0bfd 190C0000 		.4byte	0xc19
 3359 0c01 08       		.uleb128 0x8
 3360 0c02 626700   		.ascii	"bg\000"
 3361 0c05 10       		.byte	0x10
 3362 0c06 68       		.byte	0x68
 3363 0c07 0B050000 		.4byte	0x50b
 3364 0c0b 00       		.byte	0
 3365 0c0c 07       		.uleb128 0x7
 3366 0c0d DE070000 		.4byte	.LASF218
 3367 0c11 10       		.byte	0x10
 3368 0c12 69       		.byte	0x69
 3369 0c13 0B050000 		.4byte	0x50b
 3370 0c17 04       		.byte	0x4
 3371 0c18 00       		.byte	0
 3372 0c19 06       		.uleb128 0x6
 3373 0c1a 0C       		.byte	0xc
 3374 0c1b 10       		.byte	0x10
 3375 0c1c 6E       		.byte	0x6e
 3376 0c1d 450C0000 		.4byte	0xc45
 3377 0c21 08       		.uleb128 0x8
 3378 0c22 626700   		.ascii	"bg\000"
 3379 0c25 10       		.byte	0x10
 3380 0c26 70       		.byte	0x70
 3381 0c27 0B050000 		.4byte	0x50b
 3382 0c2b 00       		.byte	0
 3383 0c2c 07       		.uleb128 0x7
 3384 0c2d DE070000 		.4byte	.LASF218
 3385 0c31 10       		.byte	0x10
 3386 0c32 71       		.byte	0x71
 3387 0c33 0B050000 		.4byte	0x50b
 3388 0c37 04       		.byte	0x4
 3389 0c38 07       		.uleb128 0x7
ARM GAS  C:\Users\pearlstl\AppData\Local\Temp\ccbEAAPX.s 			page 80


 3390 0c39 5F0F0000 		.4byte	.LASF219
 3391 0c3d 10       		.byte	0x10
 3392 0c3e 72       		.byte	0x72
 3393 0c3f 0B050000 		.4byte	0x50b
 3394 0c43 08       		.byte	0x8
 3395 0c44 00       		.byte	0
 3396 0c45 06       		.uleb128 0x6
 3397 0c46 10       		.byte	0x10
 3398 0c47 10       		.byte	0x10
 3399 0c48 87       		.byte	0x87
 3400 0c49 7D0C0000 		.4byte	0xc7d
 3401 0c4d 08       		.uleb128 0x8
 3402 0c4e 626700   		.ascii	"bg\000"
 3403 0c51 10       		.byte	0x10
 3404 0c52 89       		.byte	0x89
 3405 0c53 0B050000 		.4byte	0x50b
 3406 0c57 00       		.byte	0
 3407 0c58 07       		.uleb128 0x7
 3408 0c59 DE070000 		.4byte	.LASF218
 3409 0c5d 10       		.byte	0x10
 3410 0c5e 8A       		.byte	0x8a
 3411 0c5f 0B050000 		.4byte	0x50b
 3412 0c63 04       		.byte	0x4
 3413 0c64 07       		.uleb128 0x7
 3414 0c65 3A090000 		.4byte	.LASF220
 3415 0c69 10       		.byte	0x10
 3416 0c6a 8B       		.byte	0x8b
 3417 0c6b 0B050000 		.4byte	0x50b
 3418 0c6f 08       		.byte	0x8
 3419 0c70 07       		.uleb128 0x7
 3420 0c71 29040000 		.4byte	.LASF221
 3421 0c75 10       		.byte	0x10
 3422 0c76 8C       		.byte	0x8c
 3423 0c77 0B050000 		.4byte	0x50b
 3424 0c7b 0C       		.byte	0xc
 3425 0c7c 00       		.byte	0
 3426 0c7d 06       		.uleb128 0x6
 3427 0c7e 20       		.byte	0x20
 3428 0c7f 10       		.byte	0x10
 3429 0c80 95       		.byte	0x95
 3430 0c81 E50C0000 		.4byte	0xce5
 3431 0c85 08       		.uleb128 0x8
 3432 0c86 626700   		.ascii	"bg\000"
 3433 0c89 10       		.byte	0x10
 3434 0c8a 97       		.byte	0x97
 3435 0c8b 0B050000 		.4byte	0x50b
 3436 0c8f 00       		.byte	0
 3437 0c90 07       		.uleb128 0x7
 3438 0c91 4E040000 		.4byte	.LASF222
 3439 0c95 10       		.byte	0x10
 3440 0c96 98       		.byte	0x98
 3441 0c97 0B050000 		.4byte	0x50b
 3442 0c9b 04       		.byte	0x4
 3443 0c9c 07       		.uleb128 0x7
 3444 0c9d 2E000000 		.4byte	.LASF223
 3445 0ca1 10       		.byte	0x10
 3446 0ca2 99       		.byte	0x99
ARM GAS  C:\Users\pearlstl\AppData\Local\Temp\ccbEAAPX.s 			page 81


 3447 0ca3 0B050000 		.4byte	0x50b
 3448 0ca7 08       		.byte	0x8
 3449 0ca8 07       		.uleb128 0x7
 3450 0ca9 CB0D0000 		.4byte	.LASF224
 3451 0cad 10       		.byte	0x10
 3452 0cae 9A       		.byte	0x9a
 3453 0caf 0B050000 		.4byte	0x50b
 3454 0cb3 0C       		.byte	0xc
 3455 0cb4 07       		.uleb128 0x7
 3456 0cb5 0B010000 		.4byte	.LASF225
 3457 0cb9 10       		.byte	0x10
 3458 0cba 9B       		.byte	0x9b
 3459 0cbb 0B050000 		.4byte	0x50b
 3460 0cbf 10       		.byte	0x10
 3461 0cc0 07       		.uleb128 0x7
 3462 0cc1 E3050000 		.4byte	.LASF226
 3463 0cc5 10       		.byte	0x10
 3464 0cc6 9C       		.byte	0x9c
 3465 0cc7 0B050000 		.4byte	0x50b
 3466 0ccb 14       		.byte	0x14
 3467 0ccc 07       		.uleb128 0x7
 3468 0ccd C6040000 		.4byte	.LASF227
 3469 0cd1 10       		.byte	0x10
 3470 0cd2 9D       		.byte	0x9d
 3471 0cd3 0B050000 		.4byte	0x50b
 3472 0cd7 18       		.byte	0x18
 3473 0cd8 07       		.uleb128 0x7
 3474 0cd9 7F030000 		.4byte	.LASF228
 3475 0cdd 10       		.byte	0x10
 3476 0cde 9E       		.byte	0x9e
 3477 0cdf 0B050000 		.4byte	0x50b
 3478 0ce3 1C       		.byte	0x1c
 3479 0ce4 00       		.byte	0
 3480 0ce5 06       		.uleb128 0x6
 3481 0ce6 14       		.byte	0x14
 3482 0ce7 10       		.byte	0x10
 3483 0ce8 A6       		.byte	0xa6
 3484 0ce9 290D0000 		.4byte	0xd29
 3485 0ced 08       		.uleb128 0x8
 3486 0cee 72656C00 		.ascii	"rel\000"
 3487 0cf2 10       		.byte	0x10
 3488 0cf3 A8       		.byte	0xa8
 3489 0cf4 0B050000 		.4byte	0x50b
 3490 0cf8 00       		.byte	0
 3491 0cf9 08       		.uleb128 0x8
 3492 0cfa 707200   		.ascii	"pr\000"
 3493 0cfd 10       		.byte	0x10
 3494 0cfe A9       		.byte	0xa9
 3495 0cff 0B050000 		.4byte	0x50b
 3496 0d03 04       		.byte	0x4
 3497 0d04 07       		.uleb128 0x7
 3498 0d05 A5080000 		.4byte	.LASF211
 3499 0d09 10       		.byte	0x10
 3500 0d0a AA       		.byte	0xaa
 3501 0d0b 0B050000 		.4byte	0x50b
 3502 0d0f 08       		.byte	0x8
 3503 0d10 07       		.uleb128 0x7
ARM GAS  C:\Users\pearlstl\AppData\Local\Temp\ccbEAAPX.s 			page 82


 3504 0d11 89030000 		.4byte	.LASF212
 3505 0d15 10       		.byte	0x10
 3506 0d16 AB       		.byte	0xab
 3507 0d17 0B050000 		.4byte	0x50b
 3508 0d1b 0C       		.byte	0xc
 3509 0d1c 08       		.uleb128 0x8
 3510 0d1d 696E6100 		.ascii	"ina\000"
 3511 0d21 10       		.byte	0x10
 3512 0d22 AC       		.byte	0xac
 3513 0d23 0B050000 		.4byte	0x50b
 3514 0d27 10       		.byte	0x10
 3515 0d28 00       		.byte	0
 3516 0d29 06       		.uleb128 0x6
 3517 0d2a 18       		.byte	0x18
 3518 0d2b 10       		.byte	0x10
 3519 0d2c A3       		.byte	0xa3
 3520 0d2d 490D0000 		.4byte	0xd49
 3521 0d31 08       		.uleb128 0x8
 3522 0d32 626700   		.ascii	"bg\000"
 3523 0d35 10       		.byte	0x10
 3524 0d36 A5       		.byte	0xa5
 3525 0d37 0B050000 		.4byte	0x50b
 3526 0d3b 00       		.byte	0
 3527 0d3c 08       		.uleb128 0x8
 3528 0d3d 626F7800 		.ascii	"box\000"
 3529 0d41 10       		.byte	0x10
 3530 0d42 AD       		.byte	0xad
 3531 0d43 E50C0000 		.4byte	0xce5
 3532 0d47 04       		.byte	0x4
 3533 0d48 00       		.byte	0
 3534 0d49 06       		.uleb128 0x6
 3535 0d4a 14       		.byte	0x14
 3536 0d4b 10       		.byte	0x10
 3537 0d4c B5       		.byte	0xb5
 3538 0d4d 8D0D0000 		.4byte	0xd8d
 3539 0d51 08       		.uleb128 0x8
 3540 0d52 72656C00 		.ascii	"rel\000"
 3541 0d56 10       		.byte	0x10
 3542 0d57 B7       		.byte	0xb7
 3543 0d58 0B050000 		.4byte	0x50b
 3544 0d5c 00       		.byte	0
 3545 0d5d 08       		.uleb128 0x8
 3546 0d5e 707200   		.ascii	"pr\000"
 3547 0d61 10       		.byte	0x10
 3548 0d62 B8       		.byte	0xb8
 3549 0d63 0B050000 		.4byte	0x50b
 3550 0d67 04       		.byte	0x4
 3551 0d68 07       		.uleb128 0x7
 3552 0d69 A5080000 		.4byte	.LASF211
 3553 0d6d 10       		.byte	0x10
 3554 0d6e B9       		.byte	0xb9
 3555 0d6f 0B050000 		.4byte	0x50b
 3556 0d73 08       		.byte	0x8
 3557 0d74 07       		.uleb128 0x7
 3558 0d75 89030000 		.4byte	.LASF212
 3559 0d79 10       		.byte	0x10
 3560 0d7a BA       		.byte	0xba
ARM GAS  C:\Users\pearlstl\AppData\Local\Temp\ccbEAAPX.s 			page 83


 3561 0d7b 0B050000 		.4byte	0x50b
 3562 0d7f 0C       		.byte	0xc
 3563 0d80 08       		.uleb128 0x8
 3564 0d81 696E6100 		.ascii	"ina\000"
 3565 0d85 10       		.byte	0x10
 3566 0d86 BB       		.byte	0xbb
 3567 0d87 0B050000 		.4byte	0x50b
 3568 0d8b 10       		.byte	0x10
 3569 0d8c 00       		.byte	0
 3570 0d8d 06       		.uleb128 0x6
 3571 0d8e 18       		.byte	0x18
 3572 0d8f 10       		.byte	0x10
 3573 0d90 B2       		.byte	0xb2
 3574 0d91 AD0D0000 		.4byte	0xdad
 3575 0d95 08       		.uleb128 0x8
 3576 0d96 626700   		.ascii	"bg\000"
 3577 0d99 10       		.byte	0x10
 3578 0d9a B4       		.byte	0xb4
 3579 0d9b 0B050000 		.4byte	0x50b
 3580 0d9f 00       		.byte	0
 3581 0da0 08       		.uleb128 0x8
 3582 0da1 62746E00 		.ascii	"btn\000"
 3583 0da5 10       		.byte	0x10
 3584 0da6 BC       		.byte	0xbc
 3585 0da7 490D0000 		.4byte	0xd49
 3586 0dab 04       		.byte	0x4
 3587 0dac 00       		.byte	0
 3588 0dad 06       		.uleb128 0x6
 3589 0dae 14       		.byte	0x14
 3590 0daf 10       		.byte	0x10
 3591 0db0 C4       		.byte	0xc4
 3592 0db1 F10D0000 		.4byte	0xdf1
 3593 0db5 08       		.uleb128 0x8
 3594 0db6 72656C00 		.ascii	"rel\000"
 3595 0dba 10       		.byte	0x10
 3596 0dbb C6       		.byte	0xc6
 3597 0dbc 0B050000 		.4byte	0x50b
 3598 0dc0 00       		.byte	0
 3599 0dc1 08       		.uleb128 0x8
 3600 0dc2 707200   		.ascii	"pr\000"
 3601 0dc5 10       		.byte	0x10
 3602 0dc6 C7       		.byte	0xc7
 3603 0dc7 0B050000 		.4byte	0x50b
 3604 0dcb 04       		.byte	0x4
 3605 0dcc 07       		.uleb128 0x7
 3606 0dcd A5080000 		.4byte	.LASF211
 3607 0dd1 10       		.byte	0x10
 3608 0dd2 C8       		.byte	0xc8
 3609 0dd3 0B050000 		.4byte	0x50b
 3610 0dd7 08       		.byte	0x8
 3611 0dd8 07       		.uleb128 0x7
 3612 0dd9 89030000 		.4byte	.LASF212
 3613 0ddd 10       		.byte	0x10
 3614 0dde C9       		.byte	0xc9
 3615 0ddf 0B050000 		.4byte	0x50b
 3616 0de3 0C       		.byte	0xc
 3617 0de4 08       		.uleb128 0x8
ARM GAS  C:\Users\pearlstl\AppData\Local\Temp\ccbEAAPX.s 			page 84


 3618 0de5 696E6100 		.ascii	"ina\000"
 3619 0de9 10       		.byte	0x10
 3620 0dea CA       		.byte	0xca
 3621 0deb 0B050000 		.4byte	0x50b
 3622 0def 10       		.byte	0x10
 3623 0df0 00       		.byte	0
 3624 0df1 06       		.uleb128 0x6
 3625 0df2 18       		.byte	0x18
 3626 0df3 10       		.byte	0x10
 3627 0df4 C1       		.byte	0xc1
 3628 0df5 110E0000 		.4byte	0xe11
 3629 0df9 08       		.uleb128 0x8
 3630 0dfa 626700   		.ascii	"bg\000"
 3631 0dfd 10       		.byte	0x10
 3632 0dfe C3       		.byte	0xc3
 3633 0dff 0B050000 		.4byte	0x50b
 3634 0e03 00       		.byte	0
 3635 0e04 08       		.uleb128 0x8
 3636 0e05 62746E00 		.ascii	"btn\000"
 3637 0e09 10       		.byte	0x10
 3638 0e0a CB       		.byte	0xcb
 3639 0e0b AD0D0000 		.4byte	0xdad
 3640 0e0f 04       		.byte	0x4
 3641 0e10 00       		.byte	0
 3642 0e11 06       		.uleb128 0x6
 3643 0e12 0C       		.byte	0xc
 3644 0e13 10       		.byte	0x10
 3645 0e14 D3       		.byte	0xd3
 3646 0e15 3C0E0000 		.4byte	0xe3c
 3647 0e19 08       		.uleb128 0x8
 3648 0e1a 626700   		.ascii	"bg\000"
 3649 0e1d 10       		.byte	0x10
 3650 0e1e D5       		.byte	0xd5
 3651 0e1f 0B050000 		.4byte	0x50b
 3652 0e23 00       		.byte	0
 3653 0e24 08       		.uleb128 0x8
 3654 0e25 72656C00 		.ascii	"rel\000"
 3655 0e29 10       		.byte	0x10
 3656 0e2a D6       		.byte	0xd6
 3657 0e2b 0B050000 		.4byte	0x50b
 3658 0e2f 04       		.byte	0x4
 3659 0e30 08       		.uleb128 0x8
 3660 0e31 707200   		.ascii	"pr\000"
 3661 0e34 10       		.byte	0x10
 3662 0e35 D7       		.byte	0xd7
 3663 0e36 0B050000 		.4byte	0x50b
 3664 0e3a 08       		.byte	0x8
 3665 0e3b 00       		.byte	0
 3666 0e3c 06       		.uleb128 0x6
 3667 0e3d 10       		.byte	0x10
 3668 0e3e 10       		.byte	0x10
 3669 0e3f D0       		.byte	0xd0
 3670 0e40 5C0E0000 		.4byte	0xe5c
 3671 0e44 08       		.uleb128 0x8
 3672 0e45 626700   		.ascii	"bg\000"
 3673 0e48 10       		.byte	0x10
 3674 0e49 D2       		.byte	0xd2
ARM GAS  C:\Users\pearlstl\AppData\Local\Temp\ccbEAAPX.s 			page 85


 3675 0e4a 0B050000 		.4byte	0x50b
 3676 0e4e 00       		.byte	0
 3677 0e4f 08       		.uleb128 0x8
 3678 0e50 62746E00 		.ascii	"btn\000"
 3679 0e54 10       		.byte	0x10
 3680 0e55 D8       		.byte	0xd8
 3681 0e56 110E0000 		.4byte	0xe11
 3682 0e5a 04       		.byte	0x4
 3683 0e5b 00       		.byte	0
 3684 0e5c 06       		.uleb128 0x6
 3685 0e5d 0C       		.byte	0xc
 3686 0e5e 10       		.byte	0x10
 3687 0e5f DD       		.byte	0xdd
 3688 0e60 870E0000 		.4byte	0xe87
 3689 0e64 08       		.uleb128 0x8
 3690 0e65 626700   		.ascii	"bg\000"
 3691 0e68 10       		.byte	0x10
 3692 0e69 DF       		.byte	0xdf
 3693 0e6a 0B050000 		.4byte	0x50b
 3694 0e6e 00       		.byte	0
 3695 0e6f 07       		.uleb128 0x7
 3696 0e70 B1030000 		.4byte	.LASF229
 3697 0e74 10       		.byte	0x10
 3698 0e75 E0       		.byte	0xe0
 3699 0e76 0B050000 		.4byte	0x50b
 3700 0e7a 04       		.byte	0x4
 3701 0e7b 08       		.uleb128 0x8
 3702 0e7c 736200   		.ascii	"sb\000"
 3703 0e7f 10       		.byte	0x10
 3704 0e80 E1       		.byte	0xe1
 3705 0e81 0B050000 		.4byte	0x50b
 3706 0e85 08       		.byte	0x8
 3707 0e86 00       		.byte	0
 3708 0e87 06       		.uleb128 0x6
 3709 0e88 10       		.byte	0x10
 3710 0e89 10       		.byte	0x10
 3711 0e8a E6       		.byte	0xe6
 3712 0e8b BF0E0000 		.4byte	0xebf
 3713 0e8f 07       		.uleb128 0x7
 3714 0e90 7B060000 		.4byte	.LASF230
 3715 0e94 10       		.byte	0x10
 3716 0e95 E8       		.byte	0xe8
 3717 0e96 0B050000 		.4byte	0x50b
 3718 0e9a 00       		.byte	0
 3719 0e9b 07       		.uleb128 0x7
 3720 0e9c 6F070000 		.4byte	.LASF231
 3721 0ea0 10       		.byte	0x10
 3722 0ea1 E9       		.byte	0xe9
 3723 0ea2 0B050000 		.4byte	0x50b
 3724 0ea6 04       		.byte	0x4
 3725 0ea7 07       		.uleb128 0x7
 3726 0ea8 A60F0000 		.4byte	.LASF232
 3727 0eac 10       		.byte	0x10
 3728 0ead EA       		.byte	0xea
 3729 0eae 0B050000 		.4byte	0x50b
 3730 0eb2 08       		.byte	0x8
 3731 0eb3 08       		.uleb128 0x8
ARM GAS  C:\Users\pearlstl\AppData\Local\Temp\ccbEAAPX.s 			page 86


 3732 0eb4 736200   		.ascii	"sb\000"
 3733 0eb7 10       		.byte	0x10
 3734 0eb8 EB       		.byte	0xeb
 3735 0eb9 0B050000 		.4byte	0x50b
 3736 0ebd 0C       		.byte	0xc
 3737 0ebe 00       		.byte	0
 3738 0ebf 06       		.uleb128 0x6
 3739 0ec0 0C       		.byte	0xc
 3740 0ec1 10       		.byte	0x10
 3741 0ec2 F0       		.byte	0xf0
 3742 0ec3 EA0E0000 		.4byte	0xeea
 3743 0ec7 08       		.uleb128 0x8
 3744 0ec8 626700   		.ascii	"bg\000"
 3745 0ecb 10       		.byte	0x10
 3746 0ecc F2       		.byte	0xf2
 3747 0ecd 0B050000 		.4byte	0x50b
 3748 0ed1 00       		.byte	0
 3749 0ed2 07       		.uleb128 0x7
 3750 0ed3 A60F0000 		.4byte	.LASF232
 3751 0ed7 10       		.byte	0x10
 3752 0ed8 F3       		.byte	0xf3
 3753 0ed9 0B050000 		.4byte	0x50b
 3754 0edd 04       		.byte	0x4
 3755 0ede 08       		.uleb128 0x8
 3756 0edf 736200   		.ascii	"sb\000"
 3757 0ee2 10       		.byte	0x10
 3758 0ee3 F4       		.byte	0xf4
 3759 0ee4 0B050000 		.4byte	0x50b
 3760 0ee8 08       		.byte	0x8
 3761 0ee9 00       		.byte	0
 3762 0eea 06       		.uleb128 0x6
 3763 0eeb 14       		.byte	0x14
 3764 0eec 10       		.byte	0x10
 3765 0eed FE       		.byte	0xfe
 3766 0eee 330F0000 		.4byte	0xf33
 3767 0ef2 19       		.uleb128 0x19
 3768 0ef3 72656C00 		.ascii	"rel\000"
 3769 0ef7 10       		.byte	0x10
 3770 0ef8 0001     		.2byte	0x100
 3771 0efa 0B050000 		.4byte	0x50b
 3772 0efe 00       		.byte	0
 3773 0eff 19       		.uleb128 0x19
 3774 0f00 707200   		.ascii	"pr\000"
 3775 0f03 10       		.byte	0x10
 3776 0f04 0101     		.2byte	0x101
 3777 0f06 0B050000 		.4byte	0x50b
 3778 0f0a 04       		.byte	0x4
 3779 0f0b 1A       		.uleb128 0x1a
 3780 0f0c A5080000 		.4byte	.LASF211
 3781 0f10 10       		.byte	0x10
 3782 0f11 0201     		.2byte	0x102
 3783 0f13 0B050000 		.4byte	0x50b
 3784 0f17 08       		.byte	0x8
 3785 0f18 1A       		.uleb128 0x1a
 3786 0f19 89030000 		.4byte	.LASF212
 3787 0f1d 10       		.byte	0x10
 3788 0f1e 0301     		.2byte	0x103
ARM GAS  C:\Users\pearlstl\AppData\Local\Temp\ccbEAAPX.s 			page 87


 3789 0f20 0B050000 		.4byte	0x50b
 3790 0f24 0C       		.byte	0xc
 3791 0f25 19       		.uleb128 0x19
 3792 0f26 696E6100 		.ascii	"ina\000"
 3793 0f2a 10       		.byte	0x10
 3794 0f2b 0401     		.2byte	0x104
 3795 0f2d 0B050000 		.4byte	0x50b
 3796 0f31 10       		.byte	0x10
 3797 0f32 00       		.byte	0
 3798 0f33 06       		.uleb128 0x6
 3799 0f34 20       		.byte	0x20
 3800 0f35 10       		.byte	0x10
 3801 0f36 F9       		.byte	0xf9
 3802 0f37 6B0F0000 		.4byte	0xf6b
 3803 0f3b 08       		.uleb128 0x8
 3804 0f3c 626700   		.ascii	"bg\000"
 3805 0f3f 10       		.byte	0x10
 3806 0f40 FB       		.byte	0xfb
 3807 0f41 0B050000 		.4byte	0x50b
 3808 0f45 00       		.byte	0
 3809 0f46 07       		.uleb128 0x7
 3810 0f47 B1030000 		.4byte	.LASF229
 3811 0f4b 10       		.byte	0x10
 3812 0f4c FC       		.byte	0xfc
 3813 0f4d 0B050000 		.4byte	0x50b
 3814 0f51 04       		.byte	0x4
 3815 0f52 08       		.uleb128 0x8
 3816 0f53 736200   		.ascii	"sb\000"
 3817 0f56 10       		.byte	0x10
 3818 0f57 FD       		.byte	0xfd
 3819 0f58 0B050000 		.4byte	0x50b
 3820 0f5c 08       		.byte	0x8
 3821 0f5d 19       		.uleb128 0x19
 3822 0f5e 62746E00 		.ascii	"btn\000"
 3823 0f62 10       		.byte	0x10
 3824 0f63 0501     		.2byte	0x105
 3825 0f65 EA0E0000 		.4byte	0xeea
 3826 0f69 0C       		.byte	0xc
 3827 0f6a 00       		.byte	0
 3828 0f6b 1B       		.uleb128 0x1b
 3829 0f6c 0C       		.byte	0xc
 3830 0f6d 10       		.byte	0x10
 3831 0f6e 0A01     		.2byte	0x10a
 3832 0f70 9A0F0000 		.4byte	0xf9a
 3833 0f74 19       		.uleb128 0x19
 3834 0f75 626700   		.ascii	"bg\000"
 3835 0f78 10       		.byte	0x10
 3836 0f79 0C01     		.2byte	0x10c
 3837 0f7b 0B050000 		.4byte	0x50b
 3838 0f7f 00       		.byte	0
 3839 0f80 19       		.uleb128 0x19
 3840 0f81 73656C00 		.ascii	"sel\000"
 3841 0f85 10       		.byte	0x10
 3842 0f86 0D01     		.2byte	0x10d
 3843 0f88 0B050000 		.4byte	0x50b
 3844 0f8c 04       		.byte	0x4
 3845 0f8d 19       		.uleb128 0x19
ARM GAS  C:\Users\pearlstl\AppData\Local\Temp\ccbEAAPX.s 			page 88


 3846 0f8e 736200   		.ascii	"sb\000"
 3847 0f91 10       		.byte	0x10
 3848 0f92 0E01     		.2byte	0x10e
 3849 0f94 0B050000 		.4byte	0x50b
 3850 0f98 08       		.byte	0x8
 3851 0f99 00       		.byte	0
 3852 0f9a 1B       		.uleb128 0x1b
 3853 0f9b 08       		.byte	0x8
 3854 0f9c 10       		.byte	0x10
 3855 0f9d 1301     		.2byte	0x113
 3856 0f9f BD0F0000 		.4byte	0xfbd
 3857 0fa3 19       		.uleb128 0x19
 3858 0fa4 626700   		.ascii	"bg\000"
 3859 0fa7 10       		.byte	0x10
 3860 0fa8 1501     		.2byte	0x115
 3861 0faa 0B050000 		.4byte	0x50b
 3862 0fae 00       		.byte	0
 3863 0faf 19       		.uleb128 0x19
 3864 0fb0 73656C00 		.ascii	"sel\000"
 3865 0fb4 10       		.byte	0x10
 3866 0fb5 1601     		.2byte	0x116
 3867 0fb7 0B050000 		.4byte	0x50b
 3868 0fbb 04       		.byte	0x4
 3869 0fbc 00       		.byte	0
 3870 0fbd 1B       		.uleb128 0x1b
 3871 0fbe 14       		.byte	0x14
 3872 0fbf 10       		.byte	0x10
 3873 0fc0 1F01     		.2byte	0x11f
 3874 0fc2 06100000 		.4byte	0x1006
 3875 0fc6 19       		.uleb128 0x19
 3876 0fc7 626700   		.ascii	"bg\000"
 3877 0fca 10       		.byte	0x10
 3878 0fcb 2101     		.2byte	0x121
 3879 0fcd 0B050000 		.4byte	0x50b
 3880 0fd1 00       		.byte	0
 3881 0fd2 19       		.uleb128 0x19
 3882 0fd3 72656C00 		.ascii	"rel\000"
 3883 0fd7 10       		.byte	0x10
 3884 0fd8 2201     		.2byte	0x122
 3885 0fda 0B050000 		.4byte	0x50b
 3886 0fde 04       		.byte	0x4
 3887 0fdf 19       		.uleb128 0x19
 3888 0fe0 707200   		.ascii	"pr\000"
 3889 0fe3 10       		.byte	0x10
 3890 0fe4 2301     		.2byte	0x123
 3891 0fe6 0B050000 		.4byte	0x50b
 3892 0fea 08       		.byte	0x8
 3893 0feb 1A       		.uleb128 0x1a
 3894 0fec A5080000 		.4byte	.LASF211
 3895 0ff0 10       		.byte	0x10
 3896 0ff1 2401     		.2byte	0x124
 3897 0ff3 0B050000 		.4byte	0x50b
 3898 0ff7 0C       		.byte	0xc
 3899 0ff8 1A       		.uleb128 0x1a
 3900 0ff9 89030000 		.4byte	.LASF212
 3901 0ffd 10       		.byte	0x10
 3902 0ffe 2501     		.2byte	0x125
ARM GAS  C:\Users\pearlstl\AppData\Local\Temp\ccbEAAPX.s 			page 89


 3903 1000 0B050000 		.4byte	0x50b
 3904 1004 10       		.byte	0x10
 3905 1005 00       		.byte	0
 3906 1006 1B       		.uleb128 0x1b
 3907 1007 1C       		.byte	0x1c
 3908 1008 10       		.byte	0x10
 3909 1009 1B01     		.2byte	0x11b
 3910 100b 36100000 		.4byte	0x1036
 3911 100f 19       		.uleb128 0x19
 3912 1010 626700   		.ascii	"bg\000"
 3913 1013 10       		.byte	0x10
 3914 1014 1D01     		.2byte	0x11d
 3915 1016 0B050000 		.4byte	0x50b
 3916 101a 00       		.byte	0
 3917 101b 1A       		.uleb128 0x1a
 3918 101c DE070000 		.4byte	.LASF218
 3919 1020 10       		.byte	0x10
 3920 1021 1E01     		.2byte	0x11e
 3921 1023 0B050000 		.4byte	0x50b
 3922 1027 04       		.byte	0x4
 3923 1028 19       		.uleb128 0x19
 3924 1029 62746E00 		.ascii	"btn\000"
 3925 102d 10       		.byte	0x10
 3926 102e 2601     		.2byte	0x126
 3927 1030 BD0F0000 		.4byte	0xfbd
 3928 1034 08       		.byte	0x8
 3929 1035 00       		.byte	0
 3930 1036 1B       		.uleb128 0x1b
 3931 1037 0C       		.byte	0xc
 3932 1038 10       		.byte	0x10
 3933 1039 2B01     		.2byte	0x12b
 3934 103b 65100000 		.4byte	0x1065
 3935 103f 19       		.uleb128 0x19
 3936 1040 626700   		.ascii	"bg\000"
 3937 1043 10       		.byte	0x10
 3938 1044 2D01     		.2byte	0x12d
 3939 1046 0B050000 		.4byte	0x50b
 3940 104a 00       		.byte	0
 3941 104b 1A       		.uleb128 0x1a
 3942 104c B1030000 		.4byte	.LASF229
 3943 1050 10       		.byte	0x10
 3944 1051 2E01     		.2byte	0x12e
 3945 1053 0B050000 		.4byte	0x50b
 3946 1057 04       		.byte	0x4
 3947 1058 19       		.uleb128 0x19
 3948 1059 736200   		.ascii	"sb\000"
 3949 105c 10       		.byte	0x10
 3950 105d 2F01     		.2byte	0x12f
 3951 105f 0B050000 		.4byte	0x50b
 3952 1063 08       		.byte	0x8
 3953 1064 00       		.byte	0
 3954 1065 1B       		.uleb128 0x1b
 3955 1066 08       		.byte	0x8
 3956 1067 10       		.byte	0x10
 3957 1068 3401     		.2byte	0x134
 3958 106a 88100000 		.4byte	0x1088
 3959 106e 19       		.uleb128 0x19
ARM GAS  C:\Users\pearlstl\AppData\Local\Temp\ccbEAAPX.s 			page 90


 3960 106f 626700   		.ascii	"bg\000"
 3961 1072 10       		.byte	0x10
 3962 1073 3601     		.2byte	0x136
 3963 1075 0B050000 		.4byte	0x50b
 3964 1079 00       		.byte	0
 3965 107a 1A       		.uleb128 0x1a
 3966 107b 5B000000 		.4byte	.LASF233
 3967 107f 10       		.byte	0x10
 3968 1080 3701     		.2byte	0x137
 3969 1082 0B050000 		.4byte	0x50b
 3970 1086 04       		.byte	0x4
 3971 1087 00       		.byte	0
 3972 1088 1B       		.uleb128 0x1b
 3973 1089 08       		.byte	0x8
 3974 108a 10       		.byte	0x10
 3975 108b 4201     		.2byte	0x142
 3976 108d AB100000 		.4byte	0x10ab
 3977 1091 19       		.uleb128 0x19
 3978 1092 72656C00 		.ascii	"rel\000"
 3979 1096 10       		.byte	0x10
 3980 1097 4401     		.2byte	0x144
 3981 1099 0B050000 		.4byte	0x50b
 3982 109d 00       		.byte	0
 3983 109e 19       		.uleb128 0x19
 3984 109f 707200   		.ascii	"pr\000"
 3985 10a2 10       		.byte	0x10
 3986 10a3 4501     		.2byte	0x145
 3987 10a5 0B050000 		.4byte	0x50b
 3988 10a9 04       		.byte	0x4
 3989 10aa 00       		.byte	0
 3990 10ab 1B       		.uleb128 0x1b
 3991 10ac 18       		.byte	0x18
 3992 10ad 10       		.byte	0x10
 3993 10ae 3C01     		.2byte	0x13c
 3994 10b0 F4100000 		.4byte	0x10f4
 3995 10b4 19       		.uleb128 0x19
 3996 10b5 626700   		.ascii	"bg\000"
 3997 10b8 10       		.byte	0x10
 3998 10b9 3E01     		.2byte	0x13e
 3999 10bb 0B050000 		.4byte	0x50b
 4000 10bf 00       		.byte	0
 4001 10c0 19       		.uleb128 0x19
 4002 10c1 736200   		.ascii	"sb\000"
 4003 10c4 10       		.byte	0x10
 4004 10c5 3F01     		.2byte	0x13f
 4005 10c7 0B050000 		.4byte	0x50b
 4006 10cb 04       		.byte	0x4
 4007 10cc 1A       		.uleb128 0x1a
 4008 10cd 4E040000 		.4byte	.LASF222
 4009 10d1 10       		.byte	0x10
 4010 10d2 4001     		.2byte	0x140
 4011 10d4 0B050000 		.4byte	0x50b
 4012 10d8 08       		.byte	0x8
 4013 10d9 1A       		.uleb128 0x1a
 4014 10da 490E0000 		.4byte	.LASF234
 4015 10de 10       		.byte	0x10
 4016 10df 4101     		.2byte	0x141
ARM GAS  C:\Users\pearlstl\AppData\Local\Temp\ccbEAAPX.s 			page 91


 4017 10e1 0B050000 		.4byte	0x50b
 4018 10e5 0C       		.byte	0xc
 4019 10e6 19       		.uleb128 0x19
 4020 10e7 62746E00 		.ascii	"btn\000"
 4021 10eb 10       		.byte	0x10
 4022 10ec 4601     		.2byte	0x146
 4023 10ee 88100000 		.4byte	0x1088
 4024 10f2 10       		.byte	0x10
 4025 10f3 00       		.byte	0
 4026 10f4 1C       		.uleb128 0x1c
 4027 10f5 A801     		.2byte	0x1a8
 4028 10f7 10       		.byte	0x10
 4029 10f8 29       		.byte	0x29
 4030 10f9 96120000 		.4byte	0x1296
 4031 10fd 08       		.uleb128 0x8
 4032 10fe 73637200 		.ascii	"scr\000"
 4033 1102 10       		.byte	0x10
 4034 1103 2B       		.byte	0x2b
 4035 1104 0B050000 		.4byte	0x50b
 4036 1108 00       		.byte	0
 4037 1109 08       		.uleb128 0x8
 4038 110a 626700   		.ascii	"bg\000"
 4039 110d 10       		.byte	0x10
 4040 110e 2C       		.byte	0x2c
 4041 110f 0B050000 		.4byte	0x50b
 4042 1113 04       		.byte	0x4
 4043 1114 07       		.uleb128 0x7
 4044 1115 D20B0000 		.4byte	.LASF235
 4045 1119 10       		.byte	0x10
 4046 111a 2D       		.byte	0x2d
 4047 111b 0B050000 		.4byte	0x50b
 4048 111f 08       		.byte	0x8
 4049 1120 07       		.uleb128 0x7
 4050 1121 D5010000 		.4byte	.LASF200
 4051 1125 10       		.byte	0x10
 4052 1126 30       		.byte	0x30
 4053 1127 0B050000 		.4byte	0x50b
 4054 112b 0C       		.byte	0xc
 4055 112c 08       		.uleb128 0x8
 4056 112d 62746E00 		.ascii	"btn\000"
 4057 1131 10       		.byte	0x10
 4058 1132 3B       		.byte	0x3b
 4059 1133 0E0B0000 		.4byte	0xb0e
 4060 1137 10       		.byte	0x10
 4061 1138 07       		.uleb128 0x7
 4062 1139 C10B0000 		.4byte	.LASF236
 4063 113d 10       		.byte	0x10
 4064 113e 46       		.byte	0x46
 4065 113f 520B0000 		.4byte	0xb52
 4066 1143 24       		.byte	0x24
 4067 1144 07       		.uleb128 0x7
 4068 1145 FC0E0000 		.4byte	.LASF237
 4069 1149 10       		.byte	0x10
 4070 114a 4F       		.byte	0x4f
 4071 114b 960B0000 		.4byte	0xb96
 4072 114f 38       		.byte	0x38
 4073 1150 08       		.uleb128 0x8
ARM GAS  C:\Users\pearlstl\AppData\Local\Temp\ccbEAAPX.s 			page 92


 4074 1151 696D6700 		.ascii	"img\000"
 4075 1155 10       		.byte	0x10
 4076 1156 57       		.byte	0x57
 4077 1157 C30B0000 		.4byte	0xbc3
 4078 115b 44       		.byte	0x44
 4079 115c 07       		.uleb128 0x7
 4080 115d F9060000 		.4byte	.LASF70
 4081 1161 10       		.byte	0x10
 4082 1162 5E       		.byte	0x5e
 4083 1163 E40B0000 		.4byte	0xbe4
 4084 1167 4C       		.byte	0x4c
 4085 1168 08       		.uleb128 0x8
 4086 1169 6C656400 		.ascii	"led\000"
 4087 116d 10       		.byte	0x10
 4088 116e 62       		.byte	0x62
 4089 116f 0B050000 		.4byte	0x50b
 4090 1173 50       		.byte	0x50
 4091 1174 08       		.uleb128 0x8
 4092 1175 62617200 		.ascii	"bar\000"
 4093 1179 10       		.byte	0x10
 4094 117a 6A       		.byte	0x6a
 4095 117b F90B0000 		.4byte	0xbf9
 4096 117f 54       		.byte	0x54
 4097 1180 07       		.uleb128 0x7
 4098 1181 100F0000 		.4byte	.LASF238
 4099 1185 10       		.byte	0x10
 4100 1186 73       		.byte	0x73
 4101 1187 190C0000 		.4byte	0xc19
 4102 118b 5C       		.byte	0x5c
 4103 118c 07       		.uleb128 0x7
 4104 118d A9000000 		.4byte	.LASF239
 4105 1191 10       		.byte	0x10
 4106 1192 77       		.byte	0x77
 4107 1193 0B050000 		.4byte	0x50b
 4108 1197 68       		.byte	0x68
 4109 1198 07       		.uleb128 0x7
 4110 1199 43090000 		.4byte	.LASF240
 4111 119d 10       		.byte	0x10
 4112 119e 7B       		.byte	0x7b
 4113 119f 0B050000 		.4byte	0x50b
 4114 11a3 6C       		.byte	0x6c
 4115 11a4 08       		.uleb128 0x8
 4116 11a5 61726300 		.ascii	"arc\000"
 4117 11a9 10       		.byte	0x10
 4118 11aa 7F       		.byte	0x7f
 4119 11ab 0B050000 		.4byte	0x50b
 4120 11af 70       		.byte	0x70
 4121 11b0 07       		.uleb128 0x7
 4122 11b1 360F0000 		.4byte	.LASF241
 4123 11b5 10       		.byte	0x10
 4124 11b6 83       		.byte	0x83
 4125 11b7 0B050000 		.4byte	0x50b
 4126 11bb 74       		.byte	0x74
 4127 11bc 08       		.uleb128 0x8
 4128 11bd 737700   		.ascii	"sw\000"
 4129 11c0 10       		.byte	0x10
 4130 11c1 8D       		.byte	0x8d
ARM GAS  C:\Users\pearlstl\AppData\Local\Temp\ccbEAAPX.s 			page 93


 4131 11c2 450C0000 		.4byte	0xc45
 4132 11c6 78       		.byte	0x78
 4133 11c7 07       		.uleb128 0x7
 4134 11c8 A3020000 		.4byte	.LASF242
 4135 11cc 10       		.byte	0x10
 4136 11cd 91       		.byte	0x91
 4137 11ce 0B050000 		.4byte	0x50b
 4138 11d2 88       		.byte	0x88
 4139 11d3 07       		.uleb128 0x7
 4140 11d4 900C0000 		.4byte	.LASF243
 4141 11d8 10       		.byte	0x10
 4142 11d9 9F       		.byte	0x9f
 4143 11da 7D0C0000 		.4byte	0xc7d
 4144 11de 8C       		.byte	0x8c
 4145 11df 08       		.uleb128 0x8
 4146 11e0 636200   		.ascii	"cb\000"
 4147 11e3 10       		.byte	0x10
 4148 11e4 AE       		.byte	0xae
 4149 11e5 290D0000 		.4byte	0xd29
 4150 11e9 AC       		.byte	0xac
 4151 11ea 07       		.uleb128 0x7
 4152 11eb 5A030000 		.4byte	.LASF244
 4153 11ef 10       		.byte	0x10
 4154 11f0 BD       		.byte	0xbd
 4155 11f1 8D0D0000 		.4byte	0xd8d
 4156 11f5 C4       		.byte	0xc4
 4157 11f6 08       		.uleb128 0x8
 4158 11f7 6B6200   		.ascii	"kb\000"
 4159 11fa 10       		.byte	0x10
 4160 11fb CC       		.byte	0xcc
 4161 11fc F10D0000 		.4byte	0xdf1
 4162 1200 DC       		.byte	0xdc
 4163 1201 07       		.uleb128 0x7
 4164 1202 A0080000 		.4byte	.LASF245
 4165 1206 10       		.byte	0x10
 4166 1207 D9       		.byte	0xd9
 4167 1208 3C0E0000 		.4byte	0xe3c
 4168 120c F4       		.byte	0xf4
 4169 120d 1D       		.uleb128 0x1d
 4170 120e 35090000 		.4byte	.LASF246
 4171 1212 10       		.byte	0x10
 4172 1213 E2       		.byte	0xe2
 4173 1214 5C0E0000 		.4byte	0xe5c
 4174 1218 0401     		.2byte	0x104
 4175 121a 1E       		.uleb128 0x1e
 4176 121b 746100   		.ascii	"ta\000"
 4177 121e 10       		.byte	0x10
 4178 121f EC       		.byte	0xec
 4179 1220 870E0000 		.4byte	0xe87
 4180 1224 1001     		.2byte	0x110
 4181 1226 1D       		.uleb128 0x1d
 4182 1227 B60D0000 		.4byte	.LASF247
 4183 122b 10       		.byte	0x10
 4184 122c F5       		.byte	0xf5
 4185 122d BF0E0000 		.4byte	0xebf
 4186 1231 2001     		.2byte	0x120
 4187 1233 1F       		.uleb128 0x1f
ARM GAS  C:\Users\pearlstl\AppData\Local\Temp\ccbEAAPX.s 			page 94


 4188 1234 0A090000 		.4byte	.LASF248
 4189 1238 10       		.byte	0x10
 4190 1239 0601     		.2byte	0x106
 4191 123b 330F0000 		.4byte	0xf33
 4192 123f 2C01     		.2byte	0x12c
 4193 1241 1F       		.uleb128 0x1f
 4194 1242 75050000 		.4byte	.LASF249
 4195 1246 10       		.byte	0x10
 4196 1247 0F01     		.2byte	0x10f
 4197 1249 6B0F0000 		.4byte	0xf6b
 4198 124d 4C01     		.2byte	0x14c
 4199 124f 1F       		.uleb128 0x1f
 4200 1250 ED0F0000 		.4byte	.LASF250
 4201 1254 10       		.byte	0x10
 4202 1255 1701     		.2byte	0x117
 4203 1257 9A0F0000 		.4byte	0xf9a
 4204 125b 5801     		.2byte	0x158
 4205 125d 1F       		.uleb128 0x1f
 4206 125e F8070000 		.4byte	.LASF251
 4207 1262 10       		.byte	0x10
 4208 1263 2701     		.2byte	0x127
 4209 1265 06100000 		.4byte	0x1006
 4210 1269 6001     		.2byte	0x160
 4211 126b 1F       		.uleb128 0x1f
 4212 126c EA020000 		.4byte	.LASF252
 4213 1270 10       		.byte	0x10
 4214 1271 3001     		.2byte	0x130
 4215 1273 36100000 		.4byte	0x1036
 4216 1277 7C01     		.2byte	0x17c
 4217 1279 1F       		.uleb128 0x1f
 4218 127a 83040000 		.4byte	.LASF253
 4219 127e 10       		.byte	0x10
 4220 127f 3801     		.2byte	0x138
 4221 1281 65100000 		.4byte	0x1065
 4222 1285 8801     		.2byte	0x188
 4223 1287 20       		.uleb128 0x20
 4224 1288 77696E00 		.ascii	"win\000"
 4225 128c 10       		.byte	0x10
 4226 128d 4701     		.2byte	0x147
 4227 128f AB100000 		.4byte	0x10ab
 4228 1293 9001     		.2byte	0x190
 4229 1295 00       		.byte	0
 4230 1296 1C       		.uleb128 0x1c
 4231 1297 A801     		.2byte	0x1a8
 4232 1299 10       		.byte	0x10
 4233 129a 27       		.byte	0x27
 4234 129b AD120000 		.4byte	0x12ad
 4235 129f 1A       		.uleb128 0x1a
 4236 12a0 D1090000 		.4byte	.LASF254
 4237 12a4 10       		.byte	0x10
 4238 12a5 4901     		.2byte	0x149
 4239 12a7 F4100000 		.4byte	0x10f4
 4240 12ab 00       		.byte	0
 4241 12ac 00       		.byte	0
 4242 12ad 12       		.uleb128 0x12
 4243 12ae 2C060000 		.4byte	.LASF255
 4244 12b2 10       		.byte	0x10
ARM GAS  C:\Users\pearlstl\AppData\Local\Temp\ccbEAAPX.s 			page 95


 4245 12b3 5401     		.2byte	0x154
 4246 12b5 96120000 		.4byte	0x1296
 4247 12b9 21       		.uleb128 0x21
 4248 12ba 7B0B0000 		.4byte	.LASF301
 4249 12be 01       		.byte	0x1
 4250 12bf A901     		.2byte	0x1a9
 4251 12c1 BF010000 		.4byte	0x1bf
 4252 12c5 01       		.byte	0x1
 4253 12c6 EF120000 		.4byte	0x12ef
 4254 12ca 22       		.uleb128 0x22
 4255 12cb 62746E00 		.ascii	"btn\000"
 4256 12cf 01       		.byte	0x1
 4257 12d0 A901     		.2byte	0x1a9
 4258 12d2 EF120000 		.4byte	0x12ef
 4259 12d6 23       		.uleb128 0x23
 4260 12d7 F3070000 		.4byte	.LASF256
 4261 12db 01       		.byte	0x1
 4262 12dc A901     		.2byte	0x1a9
 4263 12de 89050000 		.4byte	0x589
 4264 12e2 23       		.uleb128 0x23
 4265 12e3 0C0D0000 		.4byte	.LASF257
 4266 12e7 01       		.byte	0x1
 4267 12e8 A901     		.2byte	0x1a9
 4268 12ea FB060000 		.4byte	0x6fb
 4269 12ee 00       		.byte	0
 4270 12ef 0D       		.uleb128 0xd
 4271 12f0 04       		.byte	0x4
 4272 12f1 29090000 		.4byte	0x929
 4273 12f5 24       		.uleb128 0x24
 4274 12f6 7F090000 		.4byte	.LASF302
 4275 12fa 02       		.byte	0x2
 4276 12fb 97       		.byte	0x97
 4277 12fc 03       		.byte	0x3
 4278 12fd 18130000 		.4byte	0x1318
 4279 1301 25       		.uleb128 0x25
 4280 1302 62746E00 		.ascii	"btn\000"
 4281 1306 02       		.byte	0x2
 4282 1307 97       		.byte	0x97
 4283 1308 EF120000 		.4byte	0x12ef
 4284 130c 26       		.uleb128 0x26
 4285 130d EC070000 		.4byte	.LASF175
 4286 1311 02       		.byte	0x2
 4287 1312 97       		.byte	0x97
 4288 1313 83090000 		.4byte	0x983
 4289 1317 00       		.byte	0
 4290 1318 27       		.uleb128 0x27
 4291 1319 CA0C0000 		.4byte	.LASF258
 4292 131d 01       		.byte	0x1
 4293 131e 3701     		.2byte	0x137
 4294 1320 BF010000 		.4byte	0x1bf
 4295 1324 01       		.byte	0x1
 4296 1325 42130000 		.4byte	0x1342
 4297 1329 22       		.uleb128 0x22
 4298 132a 62746E00 		.ascii	"btn\000"
 4299 132e 01       		.byte	0x1
 4300 132f 3701     		.2byte	0x137
 4301 1331 42130000 		.4byte	0x1342
ARM GAS  C:\Users\pearlstl\AppData\Local\Temp\ccbEAAPX.s 			page 96


 4302 1335 28       		.uleb128 0x28
 4303 1336 65787400 		.ascii	"ext\000"
 4304 133a 01       		.byte	0x1
 4305 133b 3B01     		.2byte	0x13b
 4306 133d 4D130000 		.4byte	0x134d
 4307 1341 00       		.byte	0
 4308 1342 0D       		.uleb128 0xd
 4309 1343 04       		.byte	0x4
 4310 1344 48130000 		.4byte	0x1348
 4311 1348 0E       		.uleb128 0xe
 4312 1349 29090000 		.4byte	0x929
 4313 134d 0D       		.uleb128 0xd
 4314 134e 04       		.byte	0x4
 4315 134f CD0A0000 		.4byte	0xacd
 4316 1353 27       		.uleb128 0x27
 4317 1354 E0090000 		.4byte	.LASF259
 4318 1358 01       		.byte	0x1
 4319 1359 2A01     		.2byte	0x12a
 4320 135b 730A0000 		.4byte	0xa73
 4321 135f 01       		.byte	0x1
 4322 1360 7D130000 		.4byte	0x137d
 4323 1364 22       		.uleb128 0x22
 4324 1365 62746E00 		.ascii	"btn\000"
 4325 1369 01       		.byte	0x1
 4326 136a 2A01     		.2byte	0x12a
 4327 136c 42130000 		.4byte	0x1342
 4328 1370 28       		.uleb128 0x28
 4329 1371 65787400 		.ascii	"ext\000"
 4330 1375 01       		.byte	0x1
 4331 1376 2E01     		.2byte	0x12e
 4332 1378 4D130000 		.4byte	0x134d
 4333 137c 00       		.byte	0
 4334 137d 29       		.uleb128 0x29
 4335 137e 41050000 		.4byte	.LASF263
 4336 1382 01       		.byte	0x1
 4337 1383 AF       		.byte	0xaf
 4338 1384 01       		.byte	0x1
 4339 1385 AB130000 		.4byte	0x13ab
 4340 1389 25       		.uleb128 0x25
 4341 138a 62746E00 		.ascii	"btn\000"
 4342 138e 01       		.byte	0x1
 4343 138f AF       		.byte	0xaf
 4344 1390 EF120000 		.4byte	0x12ef
 4345 1394 26       		.uleb128 0x26
 4346 1395 77010000 		.4byte	.LASF202
 4347 1399 01       		.byte	0x1
 4348 139a AF       		.byte	0xaf
 4349 139b 730A0000 		.4byte	0xa73
 4350 139f 2A       		.uleb128 0x2a
 4351 13a0 65787400 		.ascii	"ext\000"
 4352 13a4 01       		.byte	0x1
 4353 13a5 B3       		.byte	0xb3
 4354 13a6 4D130000 		.4byte	0x134d
 4355 13aa 00       		.byte	0
 4356 13ab 2B       		.uleb128 0x2b
 4357 13ac B9120000 		.4byte	0x12b9
 4358 13b0 00000000 		.4byte	.LFB58
ARM GAS  C:\Users\pearlstl\AppData\Local\Temp\ccbEAAPX.s 			page 97


 4359 13b4 30000000 		.4byte	.LFE58-.LFB58
 4360 13b8 01       		.uleb128 0x1
 4361 13b9 9C       		.byte	0x9c
 4362 13ba F7130000 		.4byte	0x13f7
 4363 13be 2C       		.uleb128 0x2c
 4364 13bf CA120000 		.4byte	0x12ca
 4365 13c3 00000000 		.4byte	.LLST0
 4366 13c7 2C       		.uleb128 0x2c
 4367 13c8 D6120000 		.4byte	0x12d6
 4368 13cc 6C000000 		.4byte	.LLST1
 4369 13d0 2C       		.uleb128 0x2c
 4370 13d1 E2120000 		.4byte	0x12e2
 4371 13d5 A6000000 		.4byte	.LLST2
 4372 13d9 2D       		.uleb128 0x2d
 4373 13da 20000000 		.4byte	.LBB20
 4374 13de 10000000 		.4byte	.LBE20-.LBB20
 4375 13e2 2C       		.uleb128 0x2c
 4376 13e3 E2120000 		.4byte	0x12e2
 4377 13e7 E0000000 		.4byte	.LLST3
 4378 13eb 2E       		.uleb128 0x2e
 4379 13ec D6120000 		.4byte	0x12d6
 4380 13f0 2E       		.uleb128 0x2e
 4381 13f1 CA120000 		.4byte	0x12ca
 4382 13f5 00       		.byte	0
 4383 13f6 00       		.byte	0
 4384 13f7 2F       		.uleb128 0x2f
 4385 13f8 7D130000 		.4byte	0x137d
 4386 13fc 00000000 		.4byte	.LFB70
 4387 1400 2A000000 		.4byte	.LFE70-.LFB70
 4388 1404 01       		.uleb128 0x1
 4389 1405 9C       		.byte	0x9c
 4390 1406 48140000 		.4byte	0x1448
 4391 140a 2C       		.uleb128 0x2c
 4392 140b 89130000 		.4byte	0x1389
 4393 140f F4000000 		.4byte	.LLST4
 4394 1413 30       		.uleb128 0x30
 4395 1414 9F130000 		.4byte	0x139f
 4396 1418 36010000 		.4byte	.LLST5
 4397 141c 31       		.uleb128 0x31
 4398 141d 94130000 		.4byte	0x1394
 4399 1421 02       		.byte	0x2
 4400 1422 32       		.uleb128 0x32
 4401 1423 08000000 		.4byte	.LVL9
 4402 1427 FE210000 		.4byte	0x21fe
 4403 142b 36140000 		.4byte	0x1436
 4404 142f 33       		.uleb128 0x33
 4405 1430 01       		.uleb128 0x1
 4406 1431 50       		.byte	0x50
 4407 1432 02       		.uleb128 0x2
 4408 1433 74       		.byte	0x74
 4409 1434 00       		.sleb128 0
 4410 1435 00       		.byte	0
 4411 1436 34       		.uleb128 0x34
 4412 1437 28000000 		.4byte	.LVL12
 4413 143b 0A220000 		.4byte	0x220a
 4414 143f 33       		.uleb128 0x33
 4415 1440 01       		.uleb128 0x1
ARM GAS  C:\Users\pearlstl\AppData\Local\Temp\ccbEAAPX.s 			page 98


 4416 1441 50       		.byte	0x50
 4417 1442 03       		.uleb128 0x3
 4418 1443 F3       		.byte	0xf3
 4419 1444 01       		.uleb128 0x1
 4420 1445 50       		.byte	0x50
 4421 1446 00       		.byte	0
 4422 1447 00       		.byte	0
 4423 1448 2F       		.uleb128 0x2f
 4424 1449 7D130000 		.4byte	0x137d
 4425 144d 00000000 		.4byte	.LFB69
 4426 1451 22000000 		.4byte	.LFE69-.LFB69
 4427 1455 01       		.uleb128 0x1
 4428 1456 9C       		.byte	0x9c
 4429 1457 99140000 		.4byte	0x1499
 4430 145b 2C       		.uleb128 0x2c
 4431 145c 89130000 		.4byte	0x1389
 4432 1460 5F010000 		.4byte	.LLST6
 4433 1464 30       		.uleb128 0x30
 4434 1465 9F130000 		.4byte	0x139f
 4435 1469 A1010000 		.4byte	.LLST7
 4436 146d 31       		.uleb128 0x31
 4437 146e 94130000 		.4byte	0x1394
 4438 1472 00       		.byte	0
 4439 1473 32       		.uleb128 0x32
 4440 1474 08000000 		.4byte	.LVL14
 4441 1478 FE210000 		.4byte	0x21fe
 4442 147c 87140000 		.4byte	0x1487
 4443 1480 33       		.uleb128 0x33
 4444 1481 01       		.uleb128 0x1
 4445 1482 50       		.byte	0x50
 4446 1483 02       		.uleb128 0x2
 4447 1484 74       		.byte	0x74
 4448 1485 00       		.sleb128 0
 4449 1486 00       		.byte	0
 4450 1487 34       		.uleb128 0x34
 4451 1488 20000000 		.4byte	.LVL17
 4452 148c 0A220000 		.4byte	0x220a
 4453 1490 33       		.uleb128 0x33
 4454 1491 01       		.uleb128 0x1
 4455 1492 50       		.byte	0x50
 4456 1493 03       		.uleb128 0x3
 4457 1494 F3       		.byte	0xf3
 4458 1495 01       		.uleb128 0x1
 4459 1496 50       		.byte	0x50
 4460 1497 00       		.byte	0
 4461 1498 00       		.byte	0
 4462 1499 35       		.uleb128 0x35
 4463 149a 2F0B0000 		.4byte	.LASF303
 4464 149e 01       		.byte	0x1
 4465 149f FB01     		.2byte	0x1fb
 4466 14a1 2A050000 		.4byte	0x52a
 4467 14a5 00000000 		.4byte	.LFB59
 4468 14a9 2C020000 		.4byte	.LFE59-.LFB59
 4469 14ad 01       		.uleb128 0x1
 4470 14ae 9C       		.byte	0x9c
 4471 14af 66190000 		.4byte	0x1966
 4472 14b3 36       		.uleb128 0x36
ARM GAS  C:\Users\pearlstl\AppData\Local\Temp\ccbEAAPX.s 			page 99


 4473 14b4 62746E00 		.ascii	"btn\000"
 4474 14b8 01       		.byte	0x1
 4475 14b9 FB01     		.2byte	0x1fb
 4476 14bb EF120000 		.4byte	0x12ef
 4477 14bf BF010000 		.4byte	.LLST8
 4478 14c3 37       		.uleb128 0x37
 4479 14c4 67010000 		.4byte	.LASF260
 4480 14c8 01       		.byte	0x1
 4481 14c9 FB01     		.2byte	0x1fb
 4482 14cb 66080000 		.4byte	0x866
 4483 14cf 35020000 		.4byte	.LLST9
 4484 14d3 37       		.uleb128 0x37
 4485 14d4 D0060000 		.4byte	.LASF261
 4486 14d8 01       		.byte	0x1
 4487 14d9 FB01     		.2byte	0x1fb
 4488 14db E4000000 		.4byte	0xe4
 4489 14df 56020000 		.4byte	.LLST10
 4490 14e3 38       		.uleb128 0x38
 4491 14e4 72657300 		.ascii	"res\000"
 4492 14e8 01       		.byte	0x1
 4493 14e9 FD01     		.2byte	0x1fd
 4494 14eb 2A050000 		.4byte	0x52a
 4495 14ef 74020000 		.4byte	.LLST11
 4496 14f3 38       		.uleb128 0x38
 4497 14f4 65787400 		.ascii	"ext\000"
 4498 14f8 01       		.byte	0x1
 4499 14f9 0402     		.2byte	0x204
 4500 14fb 4D130000 		.4byte	0x134d
 4501 14ff BF020000 		.4byte	.LLST12
 4502 1503 28       		.uleb128 0x28
 4503 1504 74676C00 		.ascii	"tgl\000"
 4504 1508 01       		.byte	0x1
 4505 1509 0502     		.2byte	0x205
 4506 150b BF010000 		.4byte	0x1bf
 4507 150f 39       		.uleb128 0x39
 4508 1510 18130000 		.4byte	0x1318
 4509 1514 2E000000 		.4byte	.LBB44
 4510 1518 00000000 		.4byte	.Ldebug_ranges0+0
 4511 151c 01       		.byte	0x1
 4512 151d 0502     		.2byte	0x205
 4513 151f 4A150000 		.4byte	0x154a
 4514 1523 2C       		.uleb128 0x2c
 4515 1524 29130000 		.4byte	0x1329
 4516 1528 E8020000 		.4byte	.LLST13
 4517 152c 3A       		.uleb128 0x3a
 4518 152d 00000000 		.4byte	.Ldebug_ranges0+0
 4519 1531 3B       		.uleb128 0x3b
 4520 1532 35130000 		.4byte	0x1335
 4521 1536 01       		.uleb128 0x1
 4522 1537 53       		.byte	0x53
 4523 1538 3C       		.uleb128 0x3c
 4524 1539 34000000 		.4byte	.LVL27
 4525 153d FE210000 		.4byte	0x21fe
 4526 1541 33       		.uleb128 0x33
 4527 1542 01       		.uleb128 0x1
 4528 1543 50       		.byte	0x50
 4529 1544 02       		.uleb128 0x2
ARM GAS  C:\Users\pearlstl\AppData\Local\Temp\ccbEAAPX.s 			page 100


 4530 1545 76       		.byte	0x76
 4531 1546 00       		.sleb128 0
 4532 1547 00       		.byte	0
 4533 1548 00       		.byte	0
 4534 1549 00       		.byte	0
 4535 154a 3D       		.uleb128 0x3d
 4536 154b 7D130000 		.4byte	0x137d
 4537 154f 66000000 		.4byte	.LBB51
 4538 1553 26000000 		.4byte	.LBE51-.LBB51
 4539 1557 01       		.byte	0x1
 4540 1558 3A02     		.2byte	0x23a
 4541 155a A8150000 		.4byte	0x15a8
 4542 155e 2C       		.uleb128 0x2c
 4543 155f 94130000 		.4byte	0x1394
 4544 1563 FB020000 		.4byte	.LLST14
 4545 1567 2C       		.uleb128 0x2c
 4546 1568 89130000 		.4byte	0x1389
 4547 156c 0F030000 		.4byte	.LLST15
 4548 1570 2D       		.uleb128 0x2d
 4549 1571 66000000 		.4byte	.LBB52
 4550 1575 26000000 		.4byte	.LBE52-.LBB52
 4551 1579 30       		.uleb128 0x30
 4552 157a 9F130000 		.4byte	0x139f
 4553 157e 22030000 		.4byte	.LLST16
 4554 1582 32       		.uleb128 0x32
 4555 1583 6C000000 		.4byte	.LVL32
 4556 1587 FE210000 		.4byte	0x21fe
 4557 158b 96150000 		.4byte	0x1596
 4558 158f 33       		.uleb128 0x33
 4559 1590 01       		.uleb128 0x1
 4560 1591 50       		.byte	0x50
 4561 1592 02       		.uleb128 0x2
 4562 1593 76       		.byte	0x76
 4563 1594 00       		.sleb128 0
 4564 1595 00       		.byte	0
 4565 1596 3C       		.uleb128 0x3c
 4566 1597 8A000000 		.4byte	.LVL35
 4567 159b 0A220000 		.4byte	0x220a
 4568 159f 33       		.uleb128 0x33
 4569 15a0 01       		.uleb128 0x1
 4570 15a1 50       		.byte	0x50
 4571 15a2 02       		.uleb128 0x2
 4572 15a3 76       		.byte	0x76
 4573 15a4 00       		.sleb128 0
 4574 15a5 00       		.byte	0
 4575 15a6 00       		.byte	0
 4576 15a7 00       		.byte	0
 4577 15a8 3D       		.uleb128 0x3d
 4578 15a9 7D130000 		.4byte	0x137d
 4579 15ad 9A000000 		.4byte	.LBB53
 4580 15b1 26000000 		.4byte	.LBE53-.LBB53
 4581 15b5 01       		.byte	0x1
 4582 15b6 1002     		.2byte	0x210
 4583 15b8 06160000 		.4byte	0x1606
 4584 15bc 2C       		.uleb128 0x2c
 4585 15bd 94130000 		.4byte	0x1394
 4586 15c1 40030000 		.4byte	.LLST17
ARM GAS  C:\Users\pearlstl\AppData\Local\Temp\ccbEAAPX.s 			page 101


 4587 15c5 2C       		.uleb128 0x2c
 4588 15c6 89130000 		.4byte	0x1389
 4589 15ca 54030000 		.4byte	.LLST18
 4590 15ce 2D       		.uleb128 0x2d
 4591 15cf 9A000000 		.4byte	.LBB54
 4592 15d3 26000000 		.4byte	.LBE54-.LBB54
 4593 15d7 30       		.uleb128 0x30
 4594 15d8 9F130000 		.4byte	0x139f
 4595 15dc 67030000 		.4byte	.LLST19
 4596 15e0 32       		.uleb128 0x32
 4597 15e1 A0000000 		.4byte	.LVL38
 4598 15e5 FE210000 		.4byte	0x21fe
 4599 15e9 F4150000 		.4byte	0x15f4
 4600 15ed 33       		.uleb128 0x33
 4601 15ee 01       		.uleb128 0x1
 4602 15ef 50       		.byte	0x50
 4603 15f0 02       		.uleb128 0x2
 4604 15f1 76       		.byte	0x76
 4605 15f2 00       		.sleb128 0
 4606 15f3 00       		.byte	0
 4607 15f4 3C       		.uleb128 0x3c
 4608 15f5 BE000000 		.4byte	.LVL41
 4609 15f9 0A220000 		.4byte	0x220a
 4610 15fd 33       		.uleb128 0x33
 4611 15fe 01       		.uleb128 0x1
 4612 15ff 50       		.byte	0x50
 4613 1600 02       		.uleb128 0x2
 4614 1601 76       		.byte	0x76
 4615 1602 00       		.sleb128 0
 4616 1603 00       		.byte	0
 4617 1604 00       		.byte	0
 4618 1605 00       		.byte	0
 4619 1606 3E       		.uleb128 0x3e
 4620 1607 30000000 		.4byte	.Ldebug_ranges0+0x30
 4621 160b 9D170000 		.4byte	0x179d
 4622 160f 38       		.uleb128 0x38
 4623 1610 6300     		.ascii	"c\000"
 4624 1612 01       		.byte	0x1
 4625 1613 8002     		.2byte	0x280
 4626 1615 8E020000 		.4byte	0x28e
 4627 1619 85030000 		.4byte	.LLST20
 4628 161d 3D       		.uleb128 0x3d
 4629 161e 18130000 		.4byte	0x1318
 4630 1622 DE000000 		.4byte	.LBB56
 4631 1626 06000000 		.4byte	.LBE56-.LBB56
 4632 162a 01       		.byte	0x1
 4633 162b 8B02     		.2byte	0x28b
 4634 162d 5A160000 		.4byte	0x165a
 4635 1631 2C       		.uleb128 0x2c
 4636 1632 29130000 		.4byte	0x1329
 4637 1636 A3030000 		.4byte	.LLST21
 4638 163a 2D       		.uleb128 0x2d
 4639 163b DE000000 		.4byte	.LBB57
 4640 163f 06000000 		.4byte	.LBE57-.LBB57
 4641 1643 3F       		.uleb128 0x3f
 4642 1644 35130000 		.4byte	0x1335
 4643 1648 3C       		.uleb128 0x3c
ARM GAS  C:\Users\pearlstl\AppData\Local\Temp\ccbEAAPX.s 			page 102


 4644 1649 E4000000 		.4byte	.LVL48
 4645 164d FE210000 		.4byte	0x21fe
 4646 1651 33       		.uleb128 0x33
 4647 1652 01       		.uleb128 0x1
 4648 1653 50       		.byte	0x50
 4649 1654 02       		.uleb128 0x2
 4650 1655 76       		.byte	0x76
 4651 1656 00       		.sleb128 0
 4652 1657 00       		.byte	0
 4653 1658 00       		.byte	0
 4654 1659 00       		.byte	0
 4655 165a 3E       		.uleb128 0x3e
 4656 165b 50000000 		.4byte	.Ldebug_ranges0+0x50
 4657 165f EC160000 		.4byte	0x16ec
 4658 1663 40       		.uleb128 0x40
 4659 1664 77010000 		.4byte	.LASF202
 4660 1668 01       		.byte	0x1
 4661 1669 8E02     		.2byte	0x28e
 4662 166b CE000000 		.4byte	0xce
 4663 166f 02       		.uleb128 0x2
 4664 1670 91       		.byte	0x91
 4665 1671 64       		.sleb128 -28
 4666 1672 3D       		.uleb128 0x3d
 4667 1673 7D130000 		.4byte	0x137d
 4668 1677 EA000000 		.4byte	.LBB59
 4669 167b 1A000000 		.4byte	.LBE59-.LBB59
 4670 167f 01       		.byte	0x1
 4671 1680 8C02     		.2byte	0x28c
 4672 1682 D0160000 		.4byte	0x16d0
 4673 1686 2C       		.uleb128 0x2c
 4674 1687 94130000 		.4byte	0x1394
 4675 168b B6030000 		.4byte	.LLST22
 4676 168f 2C       		.uleb128 0x2c
 4677 1690 89130000 		.4byte	0x1389
 4678 1694 CA030000 		.4byte	.LLST23
 4679 1698 2D       		.uleb128 0x2d
 4680 1699 EA000000 		.4byte	.LBB60
 4681 169d 1A000000 		.4byte	.LBE60-.LBB60
 4682 16a1 30       		.uleb128 0x30
 4683 16a2 9F130000 		.4byte	0x139f
 4684 16a6 DD030000 		.4byte	.LLST24
 4685 16aa 32       		.uleb128 0x32
 4686 16ab F0000000 		.4byte	.LVL50
 4687 16af FE210000 		.4byte	0x21fe
 4688 16b3 BE160000 		.4byte	0x16be
 4689 16b7 33       		.uleb128 0x33
 4690 16b8 01       		.uleb128 0x1
 4691 16b9 50       		.byte	0x50
 4692 16ba 02       		.uleb128 0x2
 4693 16bb 76       		.byte	0x76
 4694 16bc 00       		.sleb128 0
 4695 16bd 00       		.byte	0
 4696 16be 3C       		.uleb128 0x3c
 4697 16bf 04010000 		.4byte	.LVL52
 4698 16c3 0A220000 		.4byte	0x220a
 4699 16c7 33       		.uleb128 0x33
 4700 16c8 01       		.uleb128 0x1
ARM GAS  C:\Users\pearlstl\AppData\Local\Temp\ccbEAAPX.s 			page 103


 4701 16c9 50       		.byte	0x50
 4702 16ca 02       		.uleb128 0x2
 4703 16cb 76       		.byte	0x76
 4704 16cc 00       		.sleb128 0
 4705 16cd 00       		.byte	0
 4706 16ce 00       		.byte	0
 4707 16cf 00       		.byte	0
 4708 16d0 3C       		.uleb128 0x3c
 4709 16d1 14010000 		.4byte	.LVL53
 4710 16d5 16220000 		.4byte	0x2216
 4711 16d9 33       		.uleb128 0x33
 4712 16da 01       		.uleb128 0x1
 4713 16db 50       		.byte	0x50
 4714 16dc 02       		.uleb128 0x2
 4715 16dd 76       		.byte	0x76
 4716 16de 00       		.sleb128 0
 4717 16df 33       		.uleb128 0x33
 4718 16e0 01       		.uleb128 0x1
 4719 16e1 51       		.byte	0x51
 4720 16e2 01       		.uleb128 0x1
 4721 16e3 3E       		.byte	0x3e
 4722 16e4 33       		.uleb128 0x33
 4723 16e5 01       		.uleb128 0x1
 4724 16e6 52       		.byte	0x52
 4725 16e7 02       		.uleb128 0x2
 4726 16e8 91       		.byte	0x91
 4727 16e9 64       		.sleb128 -28
 4728 16ea 00       		.byte	0
 4729 16eb 00       		.byte	0
 4730 16ec 3D       		.uleb128 0x3d
 4731 16ed 18130000 		.4byte	0x1318
 4732 16f1 9E010000 		.4byte	.LBB62
 4733 16f5 06000000 		.4byte	.LBE62-.LBB62
 4734 16f9 01       		.byte	0x1
 4735 16fa 8202     		.2byte	0x282
 4736 16fc 29170000 		.4byte	0x1729
 4737 1700 2C       		.uleb128 0x2c
 4738 1701 29130000 		.4byte	0x1329
 4739 1705 F0030000 		.4byte	.LLST25
 4740 1709 2D       		.uleb128 0x2d
 4741 170a 9E010000 		.4byte	.LBB63
 4742 170e 06000000 		.4byte	.LBE63-.LBB63
 4743 1712 3F       		.uleb128 0x3f
 4744 1713 35130000 		.4byte	0x1335
 4745 1717 3C       		.uleb128 0x3c
 4746 1718 A4010000 		.4byte	.LVL64
 4747 171c FE210000 		.4byte	0x21fe
 4748 1720 33       		.uleb128 0x33
 4749 1721 01       		.uleb128 0x1
 4750 1722 50       		.byte	0x50
 4751 1723 02       		.uleb128 0x2
 4752 1724 76       		.byte	0x76
 4753 1725 00       		.sleb128 0
 4754 1726 00       		.byte	0
 4755 1727 00       		.byte	0
 4756 1728 00       		.byte	0
 4757 1729 2D       		.uleb128 0x2d
ARM GAS  C:\Users\pearlstl\AppData\Local\Temp\ccbEAAPX.s 			page 104


 4758 172a AC010000 		.4byte	.LBB64
 4759 172e 28000000 		.4byte	.LBE64-.LBB64
 4760 1732 40       		.uleb128 0x40
 4761 1733 77010000 		.4byte	.LASF202
 4762 1737 01       		.byte	0x1
 4763 1738 8502     		.2byte	0x285
 4764 173a CE000000 		.4byte	0xce
 4765 173e 02       		.uleb128 0x2
 4766 173f 91       		.byte	0x91
 4767 1740 64       		.sleb128 -28
 4768 1741 41       		.uleb128 0x41
 4769 1742 7D130000 		.4byte	0x137d
 4770 1746 AC010000 		.4byte	.LBB65
 4771 174a 22000000 		.4byte	.LBE65-.LBB65
 4772 174e 01       		.byte	0x1
 4773 174f 8302     		.2byte	0x283
 4774 1751 2C       		.uleb128 0x2c
 4775 1752 94130000 		.4byte	0x1394
 4776 1756 03040000 		.4byte	.LLST26
 4777 175a 2C       		.uleb128 0x2c
 4778 175b 89130000 		.4byte	0x1389
 4779 175f 17040000 		.4byte	.LLST27
 4780 1763 2D       		.uleb128 0x2d
 4781 1764 AC010000 		.4byte	.LBB66
 4782 1768 22000000 		.4byte	.LBE66-.LBB66
 4783 176c 30       		.uleb128 0x30
 4784 176d 9F130000 		.4byte	0x139f
 4785 1771 2A040000 		.4byte	.LLST28
 4786 1775 32       		.uleb128 0x32
 4787 1776 B2010000 		.4byte	.LVL66
 4788 177a FE210000 		.4byte	0x21fe
 4789 177e 89170000 		.4byte	0x1789
 4790 1782 33       		.uleb128 0x33
 4791 1783 01       		.uleb128 0x1
 4792 1784 50       		.byte	0x50
 4793 1785 02       		.uleb128 0x2
 4794 1786 76       		.byte	0x76
 4795 1787 00       		.sleb128 0
 4796 1788 00       		.byte	0
 4797 1789 3C       		.uleb128 0x3c
 4798 178a CE010000 		.4byte	.LVL68
 4799 178e 0A220000 		.4byte	0x220a
 4800 1792 33       		.uleb128 0x33
 4801 1793 01       		.uleb128 0x1
 4802 1794 50       		.byte	0x50
 4803 1795 02       		.uleb128 0x2
 4804 1796 76       		.byte	0x76
 4805 1797 00       		.sleb128 0
 4806 1798 00       		.byte	0
 4807 1799 00       		.byte	0
 4808 179a 00       		.byte	0
 4809 179b 00       		.byte	0
 4810 179c 00       		.byte	0
 4811 179d 3E       		.uleb128 0x3e
 4812 179e 68000000 		.4byte	.Ldebug_ranges0+0x68
 4813 17a2 10180000 		.4byte	0x1810
 4814 17a6 42       		.uleb128 0x42
ARM GAS  C:\Users\pearlstl\AppData\Local\Temp\ccbEAAPX.s 			page 105


 4815 17a7 AF0A0000 		.4byte	.LASF262
 4816 17ab 01       		.byte	0x1
 4817 17ac 4702     		.2byte	0x247
 4818 17ae CE000000 		.4byte	0xce
 4819 17b2 3D040000 		.4byte	.LLST29
 4820 17b6 32       		.uleb128 0x32
 4821 17b7 70010000 		.4byte	.LVL58
 4822 17bb 16220000 		.4byte	0x2216
 4823 17bf D5170000 		.4byte	0x17d5
 4824 17c3 33       		.uleb128 0x33
 4825 17c4 01       		.uleb128 0x1
 4826 17c5 50       		.byte	0x50
 4827 17c6 02       		.uleb128 0x2
 4828 17c7 76       		.byte	0x76
 4829 17c8 00       		.sleb128 0
 4830 17c9 33       		.uleb128 0x33
 4831 17ca 01       		.uleb128 0x1
 4832 17cb 51       		.byte	0x51
 4833 17cc 01       		.uleb128 0x1
 4834 17cd 3E       		.byte	0x3e
 4835 17ce 33       		.uleb128 0x33
 4836 17cf 01       		.uleb128 0x1
 4837 17d0 52       		.byte	0x52
 4838 17d1 02       		.uleb128 0x2
 4839 17d2 91       		.byte	0x91
 4840 17d3 64       		.sleb128 -28
 4841 17d4 00       		.byte	0
 4842 17d5 32       		.uleb128 0x32
 4843 17d6 FA010000 		.4byte	.LVL75
 4844 17da F7130000 		.4byte	0x13f7
 4845 17de E9170000 		.4byte	0x17e9
 4846 17e2 33       		.uleb128 0x33
 4847 17e3 01       		.uleb128 0x1
 4848 17e4 50       		.byte	0x50
 4849 17e5 02       		.uleb128 0x2
 4850 17e6 76       		.byte	0x76
 4851 17e7 00       		.sleb128 0
 4852 17e8 00       		.byte	0
 4853 17e9 32       		.uleb128 0x32
 4854 17ea 06020000 		.4byte	.LVL77
 4855 17ee 48140000 		.4byte	0x1448
 4856 17f2 FD170000 		.4byte	0x17fd
 4857 17f6 33       		.uleb128 0x33
 4858 17f7 01       		.uleb128 0x1
 4859 17f8 50       		.byte	0x50
 4860 17f9 02       		.uleb128 0x2
 4861 17fa 76       		.byte	0x76
 4862 17fb 00       		.sleb128 0
 4863 17fc 00       		.byte	0
 4864 17fd 43       		.uleb128 0x43
 4865 17fe 1A020000 		.4byte	.LVL80
 4866 1802 48140000 		.4byte	0x1448
 4867 1806 43       		.uleb128 0x43
 4868 1807 20020000 		.4byte	.LVL82
 4869 180b F7130000 		.4byte	0x13f7
 4870 180f 00       		.byte	0
 4871 1810 3D       		.uleb128 0x3d
ARM GAS  C:\Users\pearlstl\AppData\Local\Temp\ccbEAAPX.s 			page 106


 4872 1811 7D130000 		.4byte	0x137d
 4873 1815 7A010000 		.4byte	.LBB74
 4874 1819 24000000 		.4byte	.LBE74-.LBB74
 4875 181d 01       		.byte	0x1
 4876 181e 0A02     		.2byte	0x20a
 4877 1820 6E180000 		.4byte	0x186e
 4878 1824 2C       		.uleb128 0x2c
 4879 1825 94130000 		.4byte	0x1394
 4880 1829 5D040000 		.4byte	.LLST30
 4881 182d 2C       		.uleb128 0x2c
 4882 182e 89130000 		.4byte	0x1389
 4883 1832 71040000 		.4byte	.LLST31
 4884 1836 2D       		.uleb128 0x2d
 4885 1837 7A010000 		.4byte	.LBB75
 4886 183b 24000000 		.4byte	.LBE75-.LBB75
 4887 183f 30       		.uleb128 0x30
 4888 1840 9F130000 		.4byte	0x139f
 4889 1844 84040000 		.4byte	.LLST32
 4890 1848 32       		.uleb128 0x32
 4891 1849 80010000 		.4byte	.LVL60
 4892 184d FE210000 		.4byte	0x21fe
 4893 1851 5C180000 		.4byte	0x185c
 4894 1855 33       		.uleb128 0x33
 4895 1856 01       		.uleb128 0x1
 4896 1857 50       		.byte	0x50
 4897 1858 02       		.uleb128 0x2
 4898 1859 76       		.byte	0x76
 4899 185a 00       		.sleb128 0
 4900 185b 00       		.byte	0
 4901 185c 3C       		.uleb128 0x3c
 4902 185d 9A010000 		.4byte	.LVL62
 4903 1861 0A220000 		.4byte	0x220a
 4904 1865 33       		.uleb128 0x33
 4905 1866 01       		.uleb128 0x1
 4906 1867 50       		.byte	0x50
 4907 1868 02       		.uleb128 0x2
 4908 1869 76       		.byte	0x76
 4909 186a 00       		.sleb128 0
 4910 186b 00       		.byte	0
 4911 186c 00       		.byte	0
 4912 186d 00       		.byte	0
 4913 186e 3D       		.uleb128 0x3d
 4914 186f 7D130000 		.4byte	0x137d
 4915 1873 D4010000 		.4byte	.LBB77
 4916 1877 1E000000 		.4byte	.LBE77-.LBB77
 4917 187b 01       		.byte	0x1
 4918 187c 3802     		.2byte	0x238
 4919 187e CC180000 		.4byte	0x18cc
 4920 1882 2C       		.uleb128 0x2c
 4921 1883 94130000 		.4byte	0x1394
 4922 1887 97040000 		.4byte	.LLST33
 4923 188b 2C       		.uleb128 0x2c
 4924 188c 89130000 		.4byte	0x1389
 4925 1890 AB040000 		.4byte	.LLST34
 4926 1894 2D       		.uleb128 0x2d
 4927 1895 D4010000 		.4byte	.LBB78
 4928 1899 1E000000 		.4byte	.LBE78-.LBB78
ARM GAS  C:\Users\pearlstl\AppData\Local\Temp\ccbEAAPX.s 			page 107


 4929 189d 30       		.uleb128 0x30
 4930 189e 9F130000 		.4byte	0x139f
 4931 18a2 BE040000 		.4byte	.LLST35
 4932 18a6 32       		.uleb128 0x32
 4933 18a7 DA010000 		.4byte	.LVL70
 4934 18ab FE210000 		.4byte	0x21fe
 4935 18af BA180000 		.4byte	0x18ba
 4936 18b3 33       		.uleb128 0x33
 4937 18b4 01       		.uleb128 0x1
 4938 18b5 50       		.byte	0x50
 4939 18b6 02       		.uleb128 0x2
 4940 18b7 76       		.byte	0x76
 4941 18b8 00       		.sleb128 0
 4942 18b9 00       		.byte	0
 4943 18ba 3C       		.uleb128 0x3c
 4944 18bb F0010000 		.4byte	.LVL72
 4945 18bf 0A220000 		.4byte	0x220a
 4946 18c3 33       		.uleb128 0x33
 4947 18c4 01       		.uleb128 0x1
 4948 18c5 50       		.byte	0x50
 4949 18c6 02       		.uleb128 0x2
 4950 18c7 76       		.byte	0x76
 4951 18c8 00       		.sleb128 0
 4952 18c9 00       		.byte	0
 4953 18ca 00       		.byte	0
 4954 18cb 00       		.byte	0
 4955 18cc 44       		.uleb128 0x44
 4956 18cd 12000000 		.4byte	.LVL19
 4957 18d1 E8180000 		.4byte	0x18e8
 4958 18d5 33       		.uleb128 0x33
 4959 18d6 01       		.uleb128 0x1
 4960 18d7 50       		.byte	0x50
 4961 18d8 02       		.uleb128 0x2
 4962 18d9 76       		.byte	0x76
 4963 18da 00       		.sleb128 0
 4964 18db 33       		.uleb128 0x33
 4965 18dc 01       		.uleb128 0x1
 4966 18dd 51       		.byte	0x51
 4967 18de 02       		.uleb128 0x2
 4968 18df 75       		.byte	0x75
 4969 18e0 00       		.sleb128 0
 4970 18e1 33       		.uleb128 0x33
 4971 18e2 01       		.uleb128 0x1
 4972 18e3 52       		.byte	0x52
 4973 18e4 02       		.uleb128 0x2
 4974 18e5 77       		.byte	0x77
 4975 18e6 00       		.sleb128 0
 4976 18e7 00       		.byte	0
 4977 18e8 32       		.uleb128 0x32
 4978 18e9 2C000000 		.4byte	.LVL24
 4979 18ed FE210000 		.4byte	0x21fe
 4980 18f1 FC180000 		.4byte	0x18fc
 4981 18f5 33       		.uleb128 0x33
 4982 18f6 01       		.uleb128 0x1
 4983 18f7 50       		.byte	0x50
 4984 18f8 02       		.uleb128 0x2
 4985 18f9 76       		.byte	0x76
ARM GAS  C:\Users\pearlstl\AppData\Local\Temp\ccbEAAPX.s 			page 108


 4986 18fa 00       		.sleb128 0
 4987 18fb 00       		.byte	0
 4988 18fc 32       		.uleb128 0x32
 4989 18fd C8000000 		.4byte	.LVL44
 4990 1901 22220000 		.4byte	0x2222
 4991 1905 19190000 		.4byte	0x1919
 4992 1909 33       		.uleb128 0x33
 4993 190a 01       		.uleb128 0x1
 4994 190b 50       		.byte	0x50
 4995 190c 02       		.uleb128 0x2
 4996 190d 77       		.byte	0x77
 4997 190e 00       		.sleb128 0
 4998 190f 33       		.uleb128 0x33
 4999 1910 01       		.uleb128 0x1
 5000 1911 51       		.byte	0x51
 5001 1912 05       		.uleb128 0x5
 5002 1913 03       		.byte	0x3
 5003 1914 00000000 		.4byte	.LC0
 5004 1918 00       		.byte	0
 5005 1919 32       		.uleb128 0x32
 5006 191a 1E010000 		.4byte	.LVL55
 5007 191e 2E220000 		.4byte	0x222e
 5008 1922 2D190000 		.4byte	0x192d
 5009 1926 33       		.uleb128 0x33
 5010 1927 01       		.uleb128 0x1
 5011 1928 50       		.byte	0x50
 5012 1929 02       		.uleb128 0x2
 5013 192a 77       		.byte	0x77
 5014 192b 00       		.sleb128 0
 5015 192c 00       		.byte	0
 5016 192d 32       		.uleb128 0x32
 5017 192e 38010000 		.4byte	.LVL56
 5018 1932 F7130000 		.4byte	0x13f7
 5019 1936 41190000 		.4byte	0x1941
 5020 193a 33       		.uleb128 0x33
 5021 193b 01       		.uleb128 0x1
 5022 193c 50       		.byte	0x50
 5023 193d 02       		.uleb128 0x2
 5024 193e 76       		.byte	0x76
 5025 193f 00       		.sleb128 0
 5026 1940 00       		.byte	0
 5027 1941 32       		.uleb128 0x32
 5028 1942 44010000 		.4byte	.LVL57
 5029 1946 2E220000 		.4byte	0x222e
 5030 194a 55190000 		.4byte	0x1955
 5031 194e 33       		.uleb128 0x33
 5032 194f 01       		.uleb128 0x1
 5033 1950 50       		.byte	0x50
 5034 1951 02       		.uleb128 0x2
 5035 1952 77       		.byte	0x77
 5036 1953 00       		.sleb128 0
 5037 1954 00       		.byte	0
 5038 1955 3C       		.uleb128 0x3c
 5039 1956 12020000 		.4byte	.LVL78
 5040 195a 48140000 		.4byte	0x1448
 5041 195e 33       		.uleb128 0x33
 5042 195f 01       		.uleb128 0x1
ARM GAS  C:\Users\pearlstl\AppData\Local\Temp\ccbEAAPX.s 			page 109


 5043 1960 50       		.byte	0x50
 5044 1961 02       		.uleb128 0x2
 5045 1962 76       		.byte	0x76
 5046 1963 00       		.sleb128 0
 5047 1964 00       		.byte	0
 5048 1965 00       		.byte	0
 5049 1966 45       		.uleb128 0x45
 5050 1967 1E0E0000 		.4byte	.LASF264
 5051 196b 01       		.byte	0x1
 5052 196c 0F01     		.2byte	0x10f
 5053 196e 01       		.byte	0x1
 5054 196f A4190000 		.4byte	0x19a4
 5055 1973 22       		.uleb128 0x22
 5056 1974 62746E00 		.ascii	"btn\000"
 5057 1978 01       		.byte	0x1
 5058 1979 0F01     		.2byte	0x10f
 5059 197b EF120000 		.4byte	0x12ef
 5060 197f 23       		.uleb128 0x23
 5061 1980 A7010000 		.4byte	.LASF48
 5062 1984 01       		.byte	0x1
 5063 1985 0F01     		.2byte	0x10f
 5064 1987 030B0000 		.4byte	0xb03
 5065 198b 23       		.uleb128 0x23
 5066 198c D1090000 		.4byte	.LASF254
 5067 1990 01       		.byte	0x1
 5068 1991 0F01     		.2byte	0x10f
 5069 1993 1E090000 		.4byte	0x91e
 5070 1997 28       		.uleb128 0x28
 5071 1998 65787400 		.ascii	"ext\000"
 5072 199c 01       		.byte	0x1
 5073 199d 1301     		.2byte	0x113
 5074 199f 4D130000 		.4byte	0x134d
 5075 19a3 00       		.byte	0
 5076 19a4 46       		.uleb128 0x46
 5077 19a5 FE0C0000 		.4byte	.LASF273
 5078 19a9 01       		.byte	0x1
 5079 19aa 4A       		.byte	0x4a
 5080 19ab EF120000 		.4byte	0x12ef
 5081 19af 00000000 		.4byte	.LFB44
 5082 19b3 A0010000 		.4byte	.LFE44-.LFB44
 5083 19b7 01       		.uleb128 0x1
 5084 19b8 9C       		.byte	0x9c
 5085 19b9 301D0000 		.4byte	0x1d30
 5086 19bd 47       		.uleb128 0x47
 5087 19be 70617200 		.ascii	"par\000"
 5088 19c2 01       		.byte	0x1
 5089 19c3 4A       		.byte	0x4a
 5090 19c4 EF120000 		.4byte	0x12ef
 5091 19c8 D1040000 		.4byte	.LLST36
 5092 19cc 48       		.uleb128 0x48
 5093 19cd FE020000 		.4byte	.LASF265
 5094 19d1 01       		.byte	0x1
 5095 19d2 4A       		.byte	0x4a
 5096 19d3 42130000 		.4byte	0x1342
 5097 19d7 16050000 		.4byte	.LLST37
 5098 19db 49       		.uleb128 0x49
 5099 19dc A9030000 		.4byte	.LASF266
ARM GAS  C:\Users\pearlstl\AppData\Local\Temp\ccbEAAPX.s 			page 110


 5100 19e0 01       		.byte	0x1
 5101 19e1 4E       		.byte	0x4e
 5102 19e2 EF120000 		.4byte	0x12ef
 5103 19e6 74050000 		.4byte	.LLST38
 5104 19ea 4A       		.uleb128 0x4a
 5105 19eb 65787400 		.ascii	"ext\000"
 5106 19ef 01       		.byte	0x1
 5107 19f0 58       		.byte	0x58
 5108 19f1 4D130000 		.4byte	0x134d
 5109 19f5 BE050000 		.4byte	.LLST39
 5110 19f9 4B       		.uleb128 0x4b
 5111 19fa 68000000 		.4byte	.LBB95
 5112 19fe 3C000000 		.4byte	.LBE95-.LBB95
 5113 1a02 3A1A0000 		.4byte	0x1a3a
 5114 1a06 49       		.uleb128 0x49
 5115 1a07 2F0E0000 		.4byte	.LASF267
 5116 1a0b 01       		.byte	0x1
 5117 1a0c 85       		.byte	0x85
 5118 1a0d 4D130000 		.4byte	0x134d
 5119 1a11 E7050000 		.4byte	.LLST40
 5120 1a15 32       		.uleb128 0x32
 5121 1a16 6E000000 		.4byte	.LVL90
 5122 1a1a FE210000 		.4byte	0x21fe
 5123 1a1e 291A0000 		.4byte	0x1a29
 5124 1a22 33       		.uleb128 0x33
 5125 1a23 01       		.uleb128 0x1
 5126 1a24 50       		.byte	0x50
 5127 1a25 02       		.uleb128 0x2
 5128 1a26 76       		.byte	0x76
 5129 1a27 00       		.sleb128 0
 5130 1a28 00       		.byte	0
 5131 1a29 3C       		.uleb128 0x3c
 5132 1a2a A2000000 		.4byte	.LVL95
 5133 1a2e 39220000 		.4byte	0x2239
 5134 1a32 33       		.uleb128 0x33
 5135 1a33 01       		.uleb128 0x1
 5136 1a34 50       		.byte	0x50
 5137 1a35 02       		.uleb128 0x2
 5138 1a36 75       		.byte	0x75
 5139 1a37 00       		.sleb128 0
 5140 1a38 00       		.byte	0
 5141 1a39 00       		.byte	0
 5142 1a3a 3E       		.uleb128 0x3e
 5143 1a3b 98000000 		.4byte	.Ldebug_ranges0+0x98
 5144 1a3f A91C0000 		.4byte	0x1ca9
 5145 1a43 4A       		.uleb128 0x4a
 5146 1a44 746800   		.ascii	"th\000"
 5147 1a47 01       		.byte	0x1
 5148 1a48 78       		.byte	0x78
 5149 1a49 301D0000 		.4byte	0x1d30
 5150 1a4d 07060000 		.4byte	.LLST41
 5151 1a51 4C       		.uleb128 0x4c
 5152 1a52 F5120000 		.4byte	0x12f5
 5153 1a56 A8000000 		.4byte	.LBB97
 5154 1a5a 08000000 		.4byte	.LBE97-.LBB97
 5155 1a5e 01       		.byte	0x1
 5156 1a5f 72       		.byte	0x72
ARM GAS  C:\Users\pearlstl\AppData\Local\Temp\ccbEAAPX.s 			page 111


 5157 1a60 8C1A0000 		.4byte	0x1a8c
 5158 1a64 2C       		.uleb128 0x2c
 5159 1a65 0C130000 		.4byte	0x130c
 5160 1a69 3B060000 		.4byte	.LLST42
 5161 1a6d 2C       		.uleb128 0x2c
 5162 1a6e 01130000 		.4byte	0x1301
 5163 1a72 4F060000 		.4byte	.LLST43
 5164 1a76 3C       		.uleb128 0x3c
 5165 1a77 B0000000 		.4byte	.LVL98
 5166 1a7b 45220000 		.4byte	0x2245
 5167 1a7f 33       		.uleb128 0x33
 5168 1a80 01       		.uleb128 0x1
 5169 1a81 50       		.byte	0x50
 5170 1a82 02       		.uleb128 0x2
 5171 1a83 75       		.byte	0x75
 5172 1a84 00       		.sleb128 0
 5173 1a85 33       		.uleb128 0x33
 5174 1a86 01       		.uleb128 0x1
 5175 1a87 51       		.byte	0x51
 5176 1a88 01       		.uleb128 0x1
 5177 1a89 31       		.byte	0x31
 5178 1a8a 00       		.byte	0
 5179 1a8b 00       		.byte	0
 5180 1a8c 4D       		.uleb128 0x4d
 5181 1a8d 66190000 		.4byte	0x1966
 5182 1a91 C2000000 		.4byte	.LBB99
 5183 1a95 B0000000 		.4byte	.Ldebug_ranges0+0xb0
 5184 1a99 01       		.byte	0x1
 5185 1a9a 7A       		.byte	0x7a
 5186 1a9b EE1A0000 		.4byte	0x1aee
 5187 1a9f 2C       		.uleb128 0x2c
 5188 1aa0 8B190000 		.4byte	0x198b
 5189 1aa4 62060000 		.4byte	.LLST44
 5190 1aa8 2C       		.uleb128 0x2c
 5191 1aa9 7F190000 		.4byte	0x197f
 5192 1aad 75060000 		.4byte	.LLST45
 5193 1ab1 2C       		.uleb128 0x2c
 5194 1ab2 73190000 		.4byte	0x1973
 5195 1ab6 89060000 		.4byte	.LLST46
 5196 1aba 3A       		.uleb128 0x3a
 5197 1abb B0000000 		.4byte	.Ldebug_ranges0+0xb0
 5198 1abf 30       		.uleb128 0x30
 5199 1ac0 97190000 		.4byte	0x1997
 5200 1ac4 9C060000 		.4byte	.LLST47
 5201 1ac8 32       		.uleb128 0x32
 5202 1ac9 CA000000 		.4byte	.LVL104
 5203 1acd FE210000 		.4byte	0x21fe
 5204 1ad1 DC1A0000 		.4byte	0x1adc
 5205 1ad5 33       		.uleb128 0x33
 5206 1ad6 01       		.uleb128 0x1
 5207 1ad7 50       		.byte	0x50
 5208 1ad8 02       		.uleb128 0x2
 5209 1ad9 75       		.byte	0x75
 5210 1ada 00       		.sleb128 0
 5211 1adb 00       		.byte	0
 5212 1adc 3C       		.uleb128 0x3c
 5213 1add E0000000 		.4byte	.LVL108
ARM GAS  C:\Users\pearlstl\AppData\Local\Temp\ccbEAAPX.s 			page 112


 5214 1ae1 0A220000 		.4byte	0x220a
 5215 1ae5 33       		.uleb128 0x33
 5216 1ae6 01       		.uleb128 0x1
 5217 1ae7 50       		.byte	0x50
 5218 1ae8 02       		.uleb128 0x2
 5219 1ae9 75       		.byte	0x75
 5220 1aea 00       		.sleb128 0
 5221 1aeb 00       		.byte	0
 5222 1aec 00       		.byte	0
 5223 1aed 00       		.byte	0
 5224 1aee 4D       		.uleb128 0x4d
 5225 1aef 66190000 		.4byte	0x1966
 5226 1af3 E0000000 		.4byte	.LBB103
 5227 1af7 C8000000 		.4byte	.Ldebug_ranges0+0xc8
 5228 1afb 01       		.byte	0x1
 5229 1afc 7B       		.byte	0x7b
 5230 1afd 501B0000 		.4byte	0x1b50
 5231 1b01 2C       		.uleb128 0x2c
 5232 1b02 8B190000 		.4byte	0x198b
 5233 1b06 BA060000 		.4byte	.LLST48
 5234 1b0a 2C       		.uleb128 0x2c
 5235 1b0b 7F190000 		.4byte	0x197f
 5236 1b0f CD060000 		.4byte	.LLST49
 5237 1b13 2C       		.uleb128 0x2c
 5238 1b14 73190000 		.4byte	0x1973
 5239 1b18 E1060000 		.4byte	.LLST50
 5240 1b1c 3A       		.uleb128 0x3a
 5241 1b1d C8000000 		.4byte	.Ldebug_ranges0+0xc8
 5242 1b21 30       		.uleb128 0x30
 5243 1b22 97190000 		.4byte	0x1997
 5244 1b26 F4060000 		.4byte	.LLST51
 5245 1b2a 32       		.uleb128 0x32
 5246 1b2b E8000000 		.4byte	.LVL110
 5247 1b2f FE210000 		.4byte	0x21fe
 5248 1b33 3E1B0000 		.4byte	0x1b3e
 5249 1b37 33       		.uleb128 0x33
 5250 1b38 01       		.uleb128 0x1
 5251 1b39 50       		.byte	0x50
 5252 1b3a 02       		.uleb128 0x2
 5253 1b3b 75       		.byte	0x75
 5254 1b3c 00       		.sleb128 0
 5255 1b3d 00       		.byte	0
 5256 1b3e 3C       		.uleb128 0x3c
 5257 1b3f FE000000 		.4byte	.LVL114
 5258 1b43 0A220000 		.4byte	0x220a
 5259 1b47 33       		.uleb128 0x33
 5260 1b48 01       		.uleb128 0x1
 5261 1b49 50       		.byte	0x50
 5262 1b4a 02       		.uleb128 0x2
 5263 1b4b 75       		.byte	0x75
 5264 1b4c 00       		.sleb128 0
 5265 1b4d 00       		.byte	0
 5266 1b4e 00       		.byte	0
 5267 1b4f 00       		.byte	0
 5268 1b50 4D       		.uleb128 0x4d
 5269 1b51 66190000 		.4byte	0x1966
 5270 1b55 FE000000 		.4byte	.LBB107
ARM GAS  C:\Users\pearlstl\AppData\Local\Temp\ccbEAAPX.s 			page 113


 5271 1b59 E0000000 		.4byte	.Ldebug_ranges0+0xe0
 5272 1b5d 01       		.byte	0x1
 5273 1b5e 7C       		.byte	0x7c
 5274 1b5f B21B0000 		.4byte	0x1bb2
 5275 1b63 2C       		.uleb128 0x2c
 5276 1b64 8B190000 		.4byte	0x198b
 5277 1b68 12070000 		.4byte	.LLST52
 5278 1b6c 2C       		.uleb128 0x2c
 5279 1b6d 7F190000 		.4byte	0x197f
 5280 1b71 25070000 		.4byte	.LLST53
 5281 1b75 2C       		.uleb128 0x2c
 5282 1b76 73190000 		.4byte	0x1973
 5283 1b7a 39070000 		.4byte	.LLST54
 5284 1b7e 3A       		.uleb128 0x3a
 5285 1b7f E0000000 		.4byte	.Ldebug_ranges0+0xe0
 5286 1b83 30       		.uleb128 0x30
 5287 1b84 97190000 		.4byte	0x1997
 5288 1b88 4C070000 		.4byte	.LLST55
 5289 1b8c 32       		.uleb128 0x32
 5290 1b8d 06010000 		.4byte	.LVL116
 5291 1b91 FE210000 		.4byte	0x21fe
 5292 1b95 A01B0000 		.4byte	0x1ba0
 5293 1b99 33       		.uleb128 0x33
 5294 1b9a 01       		.uleb128 0x1
 5295 1b9b 50       		.byte	0x50
 5296 1b9c 02       		.uleb128 0x2
 5297 1b9d 75       		.byte	0x75
 5298 1b9e 00       		.sleb128 0
 5299 1b9f 00       		.byte	0
 5300 1ba0 3C       		.uleb128 0x3c
 5301 1ba1 1C010000 		.4byte	.LVL120
 5302 1ba5 0A220000 		.4byte	0x220a
 5303 1ba9 33       		.uleb128 0x33
 5304 1baa 01       		.uleb128 0x1
 5305 1bab 50       		.byte	0x50
 5306 1bac 02       		.uleb128 0x2
 5307 1bad 75       		.byte	0x75
 5308 1bae 00       		.sleb128 0
 5309 1baf 00       		.byte	0
 5310 1bb0 00       		.byte	0
 5311 1bb1 00       		.byte	0
 5312 1bb2 4D       		.uleb128 0x4d
 5313 1bb3 66190000 		.4byte	0x1966
 5314 1bb7 1C010000 		.4byte	.LBB111
 5315 1bbb F8000000 		.4byte	.Ldebug_ranges0+0xf8
 5316 1bbf 01       		.byte	0x1
 5317 1bc0 7D       		.byte	0x7d
 5318 1bc1 141C0000 		.4byte	0x1c14
 5319 1bc5 2C       		.uleb128 0x2c
 5320 1bc6 8B190000 		.4byte	0x198b
 5321 1bca 6A070000 		.4byte	.LLST56
 5322 1bce 2C       		.uleb128 0x2c
 5323 1bcf 7F190000 		.4byte	0x197f
 5324 1bd3 7D070000 		.4byte	.LLST57
 5325 1bd7 2C       		.uleb128 0x2c
 5326 1bd8 73190000 		.4byte	0x1973
 5327 1bdc 91070000 		.4byte	.LLST58
ARM GAS  C:\Users\pearlstl\AppData\Local\Temp\ccbEAAPX.s 			page 114


 5328 1be0 3A       		.uleb128 0x3a
 5329 1be1 F8000000 		.4byte	.Ldebug_ranges0+0xf8
 5330 1be5 30       		.uleb128 0x30
 5331 1be6 97190000 		.4byte	0x1997
 5332 1bea A4070000 		.4byte	.LLST59
 5333 1bee 32       		.uleb128 0x32
 5334 1bef 24010000 		.4byte	.LVL122
 5335 1bf3 FE210000 		.4byte	0x21fe
 5336 1bf7 021C0000 		.4byte	0x1c02
 5337 1bfb 33       		.uleb128 0x33
 5338 1bfc 01       		.uleb128 0x1
 5339 1bfd 50       		.byte	0x50
 5340 1bfe 02       		.uleb128 0x2
 5341 1bff 75       		.byte	0x75
 5342 1c00 00       		.sleb128 0
 5343 1c01 00       		.byte	0
 5344 1c02 3C       		.uleb128 0x3c
 5345 1c03 3A010000 		.4byte	.LVL126
 5346 1c07 0A220000 		.4byte	0x220a
 5347 1c0b 33       		.uleb128 0x33
 5348 1c0c 01       		.uleb128 0x1
 5349 1c0d 50       		.byte	0x50
 5350 1c0e 02       		.uleb128 0x2
 5351 1c0f 75       		.byte	0x75
 5352 1c10 00       		.sleb128 0
 5353 1c11 00       		.byte	0
 5354 1c12 00       		.byte	0
 5355 1c13 00       		.byte	0
 5356 1c14 4D       		.uleb128 0x4d
 5357 1c15 66190000 		.4byte	0x1966
 5358 1c19 3A010000 		.4byte	.LBB115
 5359 1c1d 10010000 		.4byte	.Ldebug_ranges0+0x110
 5360 1c21 01       		.byte	0x1
 5361 1c22 7E       		.byte	0x7e
 5362 1c23 761C0000 		.4byte	0x1c76
 5363 1c27 2C       		.uleb128 0x2c
 5364 1c28 8B190000 		.4byte	0x198b
 5365 1c2c C2070000 		.4byte	.LLST60
 5366 1c30 2C       		.uleb128 0x2c
 5367 1c31 7F190000 		.4byte	0x197f
 5368 1c35 D5070000 		.4byte	.LLST61
 5369 1c39 2C       		.uleb128 0x2c
 5370 1c3a 73190000 		.4byte	0x1973
 5371 1c3e E9070000 		.4byte	.LLST62
 5372 1c42 3A       		.uleb128 0x3a
 5373 1c43 10010000 		.4byte	.Ldebug_ranges0+0x110
 5374 1c47 30       		.uleb128 0x30
 5375 1c48 97190000 		.4byte	0x1997
 5376 1c4c FC070000 		.4byte	.LLST63
 5377 1c50 32       		.uleb128 0x32
 5378 1c51 42010000 		.4byte	.LVL128
 5379 1c55 FE210000 		.4byte	0x21fe
 5380 1c59 641C0000 		.4byte	0x1c64
 5381 1c5d 33       		.uleb128 0x33
 5382 1c5e 01       		.uleb128 0x1
 5383 1c5f 50       		.byte	0x50
 5384 1c60 02       		.uleb128 0x2
ARM GAS  C:\Users\pearlstl\AppData\Local\Temp\ccbEAAPX.s 			page 115


 5385 1c61 75       		.byte	0x75
 5386 1c62 00       		.sleb128 0
 5387 1c63 00       		.byte	0
 5388 1c64 3C       		.uleb128 0x3c
 5389 1c65 58010000 		.4byte	.LVL132
 5390 1c69 0A220000 		.4byte	0x220a
 5391 1c6d 33       		.uleb128 0x33
 5392 1c6e 01       		.uleb128 0x1
 5393 1c6f 50       		.byte	0x50
 5394 1c70 02       		.uleb128 0x2
 5395 1c71 75       		.byte	0x75
 5396 1c72 00       		.sleb128 0
 5397 1c73 00       		.byte	0
 5398 1c74 00       		.byte	0
 5399 1c75 00       		.byte	0
 5400 1c76 32       		.uleb128 0x32
 5401 1c77 B8000000 		.4byte	.LVL99
 5402 1c7b 50220000 		.4byte	0x2250
 5403 1c7f 8F1C0000 		.4byte	0x1c8f
 5404 1c83 33       		.uleb128 0x33
 5405 1c84 01       		.uleb128 0x1
 5406 1c85 50       		.byte	0x50
 5407 1c86 02       		.uleb128 0x2
 5408 1c87 75       		.byte	0x75
 5409 1c88 00       		.sleb128 0
 5410 1c89 33       		.uleb128 0x33
 5411 1c8a 01       		.uleb128 0x1
 5412 1c8b 51       		.byte	0x51
 5413 1c8c 01       		.uleb128 0x1
 5414 1c8d 31       		.byte	0x31
 5415 1c8e 00       		.byte	0
 5416 1c8f 43       		.uleb128 0x43
 5417 1c90 BC000000 		.4byte	.LVL100
 5418 1c94 5C220000 		.4byte	0x225c
 5419 1c98 3C       		.uleb128 0x3c
 5420 1c99 7A010000 		.4byte	.LVL139
 5421 1c9d 0A220000 		.4byte	0x220a
 5422 1ca1 33       		.uleb128 0x33
 5423 1ca2 01       		.uleb128 0x1
 5424 1ca3 50       		.byte	0x50
 5425 1ca4 02       		.uleb128 0x2
 5426 1ca5 75       		.byte	0x75
 5427 1ca6 00       		.sleb128 0
 5428 1ca7 00       		.byte	0
 5429 1ca8 00       		.byte	0
 5430 1ca9 32       		.uleb128 0x32
 5431 1caa 0A000000 		.4byte	.LVL84
 5432 1cae 68220000 		.4byte	0x2268
 5433 1cb2 C31C0000 		.4byte	0x1cc3
 5434 1cb6 33       		.uleb128 0x33
 5435 1cb7 01       		.uleb128 0x1
 5436 1cb8 50       		.byte	0x50
 5437 1cb9 02       		.uleb128 0x2
 5438 1cba 77       		.byte	0x77
 5439 1cbb 00       		.sleb128 0
 5440 1cbc 33       		.uleb128 0x33
 5441 1cbd 01       		.uleb128 0x1
ARM GAS  C:\Users\pearlstl\AppData\Local\Temp\ccbEAAPX.s 			page 116


 5442 1cbe 51       		.byte	0x51
 5443 1cbf 02       		.uleb128 0x2
 5444 1cc0 76       		.byte	0x76
 5445 1cc1 00       		.sleb128 0
 5446 1cc2 00       		.byte	0
 5447 1cc3 32       		.uleb128 0x32
 5448 1cc4 2E000000 		.4byte	.LVL86
 5449 1cc8 73220000 		.4byte	0x2273
 5450 1ccc DC1C0000 		.4byte	0x1cdc
 5451 1cd0 33       		.uleb128 0x33
 5452 1cd1 01       		.uleb128 0x1
 5453 1cd2 50       		.byte	0x50
 5454 1cd3 02       		.uleb128 0x2
 5455 1cd4 75       		.byte	0x75
 5456 1cd5 00       		.sleb128 0
 5457 1cd6 33       		.uleb128 0x33
 5458 1cd7 01       		.uleb128 0x1
 5459 1cd8 51       		.byte	0x51
 5460 1cd9 01       		.uleb128 0x1
 5461 1cda 4C       		.byte	0x4c
 5462 1cdb 00       		.byte	0
 5463 1cdc 32       		.uleb128 0x32
 5464 1cdd 5E000000 		.4byte	.LVL88
 5465 1ce1 7F220000 		.4byte	0x227f
 5466 1ce5 F91C0000 		.4byte	0x1cf9
 5467 1ce9 33       		.uleb128 0x33
 5468 1cea 01       		.uleb128 0x1
 5469 1ceb 50       		.byte	0x50
 5470 1cec 02       		.uleb128 0x2
 5471 1ced 75       		.byte	0x75
 5472 1cee 00       		.sleb128 0
 5473 1cef 33       		.uleb128 0x33
 5474 1cf0 01       		.uleb128 0x1
 5475 1cf1 51       		.byte	0x51
 5476 1cf2 05       		.uleb128 0x5
 5477 1cf3 03       		.byte	0x3
 5478 1cf4 00000000 		.4byte	lv_btn_signal
 5479 1cf8 00       		.byte	0
 5480 1cf9 32       		.uleb128 0x32
 5481 1cfa 66000000 		.4byte	.LVL89
 5482 1cfe 8B220000 		.4byte	0x228b
 5483 1d02 161D0000 		.4byte	0x1d16
 5484 1d06 33       		.uleb128 0x33
 5485 1d07 01       		.uleb128 0x1
 5486 1d08 50       		.byte	0x50
 5487 1d09 02       		.uleb128 0x2
 5488 1d0a 75       		.byte	0x75
 5489 1d0b 00       		.sleb128 0
 5490 1d0c 33       		.uleb128 0x33
 5491 1d0d 01       		.uleb128 0x1
 5492 1d0e 51       		.byte	0x51
 5493 1d0f 05       		.uleb128 0x5
 5494 1d10 03       		.byte	0x3
 5495 1d11 00000000 		.4byte	lv_btn_design
 5496 1d15 00       		.byte	0
 5497 1d16 43       		.uleb128 0x43
 5498 1d17 60010000 		.4byte	.LVL134
ARM GAS  C:\Users\pearlstl\AppData\Local\Temp\ccbEAAPX.s 			page 117


 5499 1d1b 97220000 		.4byte	0x2297
 5500 1d1f 3C       		.uleb128 0x3c
 5501 1d20 6A010000 		.4byte	.LVL135
 5502 1d24 A3220000 		.4byte	0x22a3
 5503 1d28 33       		.uleb128 0x33
 5504 1d29 01       		.uleb128 0x1
 5505 1d2a 50       		.byte	0x50
 5506 1d2b 02       		.uleb128 0x2
 5507 1d2c 75       		.byte	0x75
 5508 1d2d 00       		.sleb128 0
 5509 1d2e 00       		.byte	0
 5510 1d2f 00       		.byte	0
 5511 1d30 0D       		.uleb128 0xd
 5512 1d31 04       		.byte	0x4
 5513 1d32 AD120000 		.4byte	0x12ad
 5514 1d36 4E       		.uleb128 0x4e
 5515 1d37 7C050000 		.4byte	.LASF268
 5516 1d3b 01       		.byte	0x1
 5517 1d3c A1       		.byte	0xa1
 5518 1d3d 00000000 		.4byte	.LFB45
 5519 1d41 12000000 		.4byte	.LFE45-.LFB45
 5520 1d45 01       		.uleb128 0x1
 5521 1d46 9C       		.byte	0x9c
 5522 1d47 881D0000 		.4byte	0x1d88
 5523 1d4b 47       		.uleb128 0x47
 5524 1d4c 62746E00 		.ascii	"btn\000"
 5525 1d50 01       		.byte	0x1
 5526 1d51 A1       		.byte	0xa1
 5527 1d52 EF120000 		.4byte	0x12ef
 5528 1d56 1A080000 		.4byte	.LLST64
 5529 1d5a 47       		.uleb128 0x47
 5530 1d5b 74676C00 		.ascii	"tgl\000"
 5531 1d5f 01       		.byte	0x1
 5532 1d60 A1       		.byte	0xa1
 5533 1d61 BF010000 		.4byte	0x1bf
 5534 1d65 3B080000 		.4byte	.LLST65
 5535 1d69 4F       		.uleb128 0x4f
 5536 1d6a 65787400 		.ascii	"ext\000"
 5537 1d6e 01       		.byte	0x1
 5538 1d6f A5       		.byte	0xa5
 5539 1d70 4D130000 		.4byte	0x134d
 5540 1d74 01       		.uleb128 0x1
 5541 1d75 50       		.byte	0x50
 5542 1d76 3C       		.uleb128 0x3c
 5543 1d77 08000000 		.4byte	.LVL142
 5544 1d7b FE210000 		.4byte	0x21fe
 5545 1d7f 33       		.uleb128 0x33
 5546 1d80 01       		.uleb128 0x1
 5547 1d81 50       		.byte	0x50
 5548 1d82 03       		.uleb128 0x3
 5549 1d83 F3       		.byte	0xf3
 5550 1d84 01       		.uleb128 0x1
 5551 1d85 50       		.byte	0x50
 5552 1d86 00       		.byte	0
 5553 1d87 00       		.byte	0
 5554 1d88 2F       		.uleb128 0x2f
 5555 1d89 7D130000 		.4byte	0x137d
ARM GAS  C:\Users\pearlstl\AppData\Local\Temp\ccbEAAPX.s 			page 118


 5556 1d8d 00000000 		.4byte	.LFB46
 5557 1d91 2C000000 		.4byte	.LFE46-.LFB46
 5558 1d95 01       		.uleb128 0x1
 5559 1d96 9C       		.byte	0x9c
 5560 1d97 DC1D0000 		.4byte	0x1ddc
 5561 1d9b 2C       		.uleb128 0x2c
 5562 1d9c 89130000 		.4byte	0x1389
 5563 1da0 5C080000 		.4byte	.LLST66
 5564 1da4 2C       		.uleb128 0x2c
 5565 1da5 94130000 		.4byte	0x1394
 5566 1da9 9E080000 		.4byte	.LLST67
 5567 1dad 30       		.uleb128 0x30
 5568 1dae 9F130000 		.4byte	0x139f
 5569 1db2 BF080000 		.4byte	.LLST68
 5570 1db6 32       		.uleb128 0x32
 5571 1db7 0A000000 		.4byte	.LVL144
 5572 1dbb FE210000 		.4byte	0x21fe
 5573 1dbf CA1D0000 		.4byte	0x1dca
 5574 1dc3 33       		.uleb128 0x33
 5575 1dc4 01       		.uleb128 0x1
 5576 1dc5 50       		.byte	0x50
 5577 1dc6 02       		.uleb128 0x2
 5578 1dc7 75       		.byte	0x75
 5579 1dc8 00       		.sleb128 0
 5580 1dc9 00       		.byte	0
 5581 1dca 34       		.uleb128 0x34
 5582 1dcb 2A000000 		.4byte	.LVL147
 5583 1dcf 0A220000 		.4byte	0x220a
 5584 1dd3 33       		.uleb128 0x33
 5585 1dd4 01       		.uleb128 0x1
 5586 1dd5 50       		.byte	0x50
 5587 1dd6 03       		.uleb128 0x3
 5588 1dd7 F3       		.byte	0xf3
 5589 1dd8 01       		.uleb128 0x1
 5590 1dd9 50       		.byte	0x50
 5591 1dda 00       		.byte	0
 5592 1ddb 00       		.byte	0
 5593 1ddc 4E       		.uleb128 0x4e
 5594 1ddd A8050000 		.4byte	.LASF269
 5595 1de1 01       		.byte	0x1
 5596 1de2 BE       		.byte	0xbe
 5597 1de3 00000000 		.4byte	.LFB47
 5598 1de7 AC000000 		.4byte	.LFE47-.LFB47
 5599 1deb 01       		.uleb128 0x1
 5600 1dec 9C       		.byte	0x9c
 5601 1ded 881F0000 		.4byte	0x1f88
 5602 1df1 47       		.uleb128 0x47
 5603 1df2 62746E00 		.ascii	"btn\000"
 5604 1df6 01       		.byte	0x1
 5605 1df7 BE       		.byte	0xbe
 5606 1df8 EF120000 		.4byte	0x12ef
 5607 1dfc DD080000 		.4byte	.LLST69
 5608 1e00 4A       		.uleb128 0x4a
 5609 1e01 65787400 		.ascii	"ext\000"
 5610 1e05 01       		.byte	0x1
 5611 1e06 C2       		.byte	0xc2
 5612 1e07 4D130000 		.4byte	0x134d
ARM GAS  C:\Users\pearlstl\AppData\Local\Temp\ccbEAAPX.s 			page 119


 5613 1e0b 80090000 		.4byte	.LLST70
 5614 1e0f 4D       		.uleb128 0x4d
 5615 1e10 7D130000 		.4byte	0x137d
 5616 1e14 1A000000 		.4byte	.LBB128
 5617 1e18 28010000 		.4byte	.Ldebug_ranges0+0x128
 5618 1e1c 01       		.byte	0x1
 5619 1e1d C7       		.byte	0xc7
 5620 1e1e 691E0000 		.4byte	0x1e69
 5621 1e22 2C       		.uleb128 0x2c
 5622 1e23 94130000 		.4byte	0x1394
 5623 1e27 B4090000 		.4byte	.LLST71
 5624 1e2b 2C       		.uleb128 0x2c
 5625 1e2c 89130000 		.4byte	0x1389
 5626 1e30 D4090000 		.4byte	.LLST72
 5627 1e34 3A       		.uleb128 0x3a
 5628 1e35 28010000 		.4byte	.Ldebug_ranges0+0x128
 5629 1e39 30       		.uleb128 0x30
 5630 1e3a 9F130000 		.4byte	0x139f
 5631 1e3e 0B0A0000 		.4byte	.LLST73
 5632 1e42 32       		.uleb128 0x32
 5633 1e43 20000000 		.4byte	.LVL152
 5634 1e47 FE210000 		.4byte	0x21fe
 5635 1e4b 561E0000 		.4byte	0x1e56
 5636 1e4f 33       		.uleb128 0x33
 5637 1e50 01       		.uleb128 0x1
 5638 1e51 50       		.byte	0x50
 5639 1e52 02       		.uleb128 0x2
 5640 1e53 74       		.byte	0x74
 5641 1e54 00       		.sleb128 0
 5642 1e55 00       		.byte	0
 5643 1e56 34       		.uleb128 0x34
 5644 1e57 AC000000 		.4byte	.LVL175
 5645 1e5b 0A220000 		.4byte	0x220a
 5646 1e5f 33       		.uleb128 0x33
 5647 1e60 01       		.uleb128 0x1
 5648 1e61 50       		.byte	0x50
 5649 1e62 03       		.uleb128 0x3
 5650 1e63 F3       		.byte	0xf3
 5651 1e64 01       		.uleb128 0x1
 5652 1e65 50       		.byte	0x50
 5653 1e66 00       		.byte	0
 5654 1e67 00       		.byte	0
 5655 1e68 00       		.byte	0
 5656 1e69 4D       		.uleb128 0x4d
 5657 1e6a 7D130000 		.4byte	0x137d
 5658 1e6e 2E000000 		.4byte	.LBB132
 5659 1e72 48010000 		.4byte	.Ldebug_ranges0+0x148
 5660 1e76 01       		.byte	0x1
 5661 1e77 C6       		.byte	0xc6
 5662 1e78 C31E0000 		.4byte	0x1ec3
 5663 1e7c 2C       		.uleb128 0x2c
 5664 1e7d 94130000 		.4byte	0x1394
 5665 1e81 340A0000 		.4byte	.LLST74
 5666 1e85 2C       		.uleb128 0x2c
 5667 1e86 89130000 		.4byte	0x1389
 5668 1e8a 480A0000 		.4byte	.LLST75
 5669 1e8e 3A       		.uleb128 0x3a
ARM GAS  C:\Users\pearlstl\AppData\Local\Temp\ccbEAAPX.s 			page 120


 5670 1e8f 48010000 		.4byte	.Ldebug_ranges0+0x148
 5671 1e93 30       		.uleb128 0x30
 5672 1e94 9F130000 		.4byte	0x139f
 5673 1e98 740A0000 		.4byte	.LLST76
 5674 1e9c 32       		.uleb128 0x32
 5675 1e9d 34000000 		.4byte	.LVL157
 5676 1ea1 FE210000 		.4byte	0x21fe
 5677 1ea5 B01E0000 		.4byte	0x1eb0
 5678 1ea9 33       		.uleb128 0x33
 5679 1eaa 01       		.uleb128 0x1
 5680 1eab 50       		.byte	0x50
 5681 1eac 02       		.uleb128 0x2
 5682 1ead 74       		.byte	0x74
 5683 1eae 00       		.sleb128 0
 5684 1eaf 00       		.byte	0
 5685 1eb0 34       		.uleb128 0x34
 5686 1eb1 4C000000 		.4byte	.LVL160
 5687 1eb5 0A220000 		.4byte	0x220a
 5688 1eb9 33       		.uleb128 0x33
 5689 1eba 01       		.uleb128 0x1
 5690 1ebb 50       		.byte	0x50
 5691 1ebc 03       		.uleb128 0x3
 5692 1ebd F3       		.byte	0xf3
 5693 1ebe 01       		.uleb128 0x1
 5694 1ebf 50       		.byte	0x50
 5695 1ec0 00       		.byte	0
 5696 1ec1 00       		.byte	0
 5697 1ec2 00       		.byte	0
 5698 1ec3 4D       		.uleb128 0x4d
 5699 1ec4 7D130000 		.4byte	0x137d
 5700 1ec8 4C000000 		.4byte	.LBB136
 5701 1ecc 60010000 		.4byte	.Ldebug_ranges0+0x160
 5702 1ed0 01       		.byte	0x1
 5703 1ed1 C5       		.byte	0xc5
 5704 1ed2 1D1F0000 		.4byte	0x1f1d
 5705 1ed6 2C       		.uleb128 0x2c
 5706 1ed7 94130000 		.4byte	0x1394
 5707 1edb 870A0000 		.4byte	.LLST77
 5708 1edf 2C       		.uleb128 0x2c
 5709 1ee0 89130000 		.4byte	0x1389
 5710 1ee4 9B0A0000 		.4byte	.LLST78
 5711 1ee8 3A       		.uleb128 0x3a
 5712 1ee9 60010000 		.4byte	.Ldebug_ranges0+0x160
 5713 1eed 30       		.uleb128 0x30
 5714 1eee 9F130000 		.4byte	0x139f
 5715 1ef2 C70A0000 		.4byte	.LLST79
 5716 1ef6 32       		.uleb128 0x32
 5717 1ef7 52000000 		.4byte	.LVL162
 5718 1efb FE210000 		.4byte	0x21fe
 5719 1eff 0A1F0000 		.4byte	0x1f0a
 5720 1f03 33       		.uleb128 0x33
 5721 1f04 01       		.uleb128 0x1
 5722 1f05 50       		.byte	0x50
 5723 1f06 02       		.uleb128 0x2
 5724 1f07 74       		.byte	0x74
 5725 1f08 00       		.sleb128 0
 5726 1f09 00       		.byte	0
ARM GAS  C:\Users\pearlstl\AppData\Local\Temp\ccbEAAPX.s 			page 121


 5727 1f0a 34       		.uleb128 0x34
 5728 1f0b 72000000 		.4byte	.LVL166
 5729 1f0f 0A220000 		.4byte	0x220a
 5730 1f13 33       		.uleb128 0x33
 5731 1f14 01       		.uleb128 0x1
 5732 1f15 50       		.byte	0x50
 5733 1f16 03       		.uleb128 0x3
 5734 1f17 F3       		.byte	0xf3
 5735 1f18 01       		.uleb128 0x1
 5736 1f19 50       		.byte	0x50
 5737 1f1a 00       		.byte	0
 5738 1f1b 00       		.byte	0
 5739 1f1c 00       		.byte	0
 5740 1f1d 4D       		.uleb128 0x4d
 5741 1f1e 7D130000 		.4byte	0x137d
 5742 1f22 72000000 		.4byte	.LBB140
 5743 1f26 78010000 		.4byte	.Ldebug_ranges0+0x178
 5744 1f2a 01       		.byte	0x1
 5745 1f2b C4       		.byte	0xc4
 5746 1f2c 771F0000 		.4byte	0x1f77
 5747 1f30 2C       		.uleb128 0x2c
 5748 1f31 94130000 		.4byte	0x1394
 5749 1f35 E50A0000 		.4byte	.LLST80
 5750 1f39 2C       		.uleb128 0x2c
 5751 1f3a 89130000 		.4byte	0x1389
 5752 1f3e F90A0000 		.4byte	.LLST81
 5753 1f42 3A       		.uleb128 0x3a
 5754 1f43 78010000 		.4byte	.Ldebug_ranges0+0x178
 5755 1f47 30       		.uleb128 0x30
 5756 1f48 9F130000 		.4byte	0x139f
 5757 1f4c 250B0000 		.4byte	.LLST82
 5758 1f50 32       		.uleb128 0x32
 5759 1f51 78000000 		.4byte	.LVL168
 5760 1f55 FE210000 		.4byte	0x21fe
 5761 1f59 641F0000 		.4byte	0x1f64
 5762 1f5d 33       		.uleb128 0x33
 5763 1f5e 01       		.uleb128 0x1
 5764 1f5f 50       		.byte	0x50
 5765 1f60 02       		.uleb128 0x2
 5766 1f61 74       		.byte	0x74
 5767 1f62 00       		.sleb128 0
 5768 1f63 00       		.byte	0
 5769 1f64 34       		.uleb128 0x34
 5770 1f65 98000000 		.4byte	.LVL172
 5771 1f69 0A220000 		.4byte	0x220a
 5772 1f6d 33       		.uleb128 0x33
 5773 1f6e 01       		.uleb128 0x1
 5774 1f6f 50       		.byte	0x50
 5775 1f70 03       		.uleb128 0x3
 5776 1f71 F3       		.byte	0xf3
 5777 1f72 01       		.uleb128 0x1
 5778 1f73 50       		.byte	0x50
 5779 1f74 00       		.byte	0
 5780 1f75 00       		.byte	0
 5781 1f76 00       		.byte	0
 5782 1f77 3C       		.uleb128 0x3c
 5783 1f78 08000000 		.4byte	.LVL149
ARM GAS  C:\Users\pearlstl\AppData\Local\Temp\ccbEAAPX.s 			page 122


 5784 1f7c FE210000 		.4byte	0x21fe
 5785 1f80 33       		.uleb128 0x33
 5786 1f81 01       		.uleb128 0x1
 5787 1f82 50       		.byte	0x50
 5788 1f83 02       		.uleb128 0x2
 5789 1f84 74       		.byte	0x74
 5790 1f85 00       		.sleb128 0
 5791 1f86 00       		.byte	0
 5792 1f87 00       		.byte	0
 5793 1f88 29       		.uleb128 0x29
 5794 1f89 F00A0000 		.4byte	.LASF270
 5795 1f8d 01       		.byte	0x1
 5796 1f8e FA       		.byte	0xfa
 5797 1f8f 01       		.byte	0x1
 5798 1f90 AB1F0000 		.4byte	0x1fab
 5799 1f94 25       		.uleb128 0x25
 5800 1f95 62746E00 		.ascii	"btn\000"
 5801 1f99 01       		.byte	0x1
 5802 1f9a FA       		.byte	0xfa
 5803 1f9b EF120000 		.4byte	0x12ef
 5804 1f9f 26       		.uleb128 0x26
 5805 1fa0 090C0000 		.4byte	.LASF271
 5806 1fa4 01       		.byte	0x1
 5807 1fa5 FA       		.byte	0xfa
 5808 1fa6 C3000000 		.4byte	0xc3
 5809 1faa 00       		.byte	0
 5810 1fab 2F       		.uleb128 0x2f
 5811 1fac 881F0000 		.4byte	0x1f88
 5812 1fb0 00000000 		.4byte	.LFB50
 5813 1fb4 02000000 		.4byte	.LFE50-.LFB50
 5814 1fb8 01       		.uleb128 0x1
 5815 1fb9 9C       		.byte	0x9c
 5816 1fba CD1F0000 		.4byte	0x1fcd
 5817 1fbe 50       		.uleb128 0x50
 5818 1fbf 941F0000 		.4byte	0x1f94
 5819 1fc3 01       		.uleb128 0x1
 5820 1fc4 50       		.byte	0x50
 5821 1fc5 50       		.uleb128 0x50
 5822 1fc6 9F1F0000 		.4byte	0x1f9f
 5823 1fca 01       		.uleb128 0x1
 5824 1fcb 51       		.byte	0x51
 5825 1fcc 00       		.byte	0
 5826 1fcd 2F       		.uleb128 0x2f
 5827 1fce 66190000 		.4byte	0x1966
 5828 1fd2 00000000 		.4byte	.LFB51
 5829 1fd6 42000000 		.4byte	.LFE51-.LFB51
 5830 1fda 01       		.uleb128 0x1
 5831 1fdb 9C       		.byte	0x9c
 5832 1fdc 2A200000 		.4byte	0x202a
 5833 1fe0 2C       		.uleb128 0x2c
 5834 1fe1 73190000 		.4byte	0x1973
 5835 1fe5 430B0000 		.4byte	.LLST83
 5836 1fe9 2C       		.uleb128 0x2c
 5837 1fea 7F190000 		.4byte	0x197f
 5838 1fee 850B0000 		.4byte	.LLST84
 5839 1ff2 2C       		.uleb128 0x2c
 5840 1ff3 8B190000 		.4byte	0x198b
ARM GAS  C:\Users\pearlstl\AppData\Local\Temp\ccbEAAPX.s 			page 123


 5841 1ff7 A60B0000 		.4byte	.LLST85
 5842 1ffb 30       		.uleb128 0x30
 5843 1ffc 97190000 		.4byte	0x1997
 5844 2000 DD0B0000 		.4byte	.LLST86
 5845 2004 32       		.uleb128 0x32
 5846 2005 0C000000 		.4byte	.LVL178
 5847 2009 FE210000 		.4byte	0x21fe
 5848 200d 18200000 		.4byte	0x2018
 5849 2011 33       		.uleb128 0x33
 5850 2012 01       		.uleb128 0x1
 5851 2013 50       		.byte	0x50
 5852 2014 02       		.uleb128 0x2
 5853 2015 75       		.byte	0x75
 5854 2016 00       		.sleb128 0
 5855 2017 00       		.byte	0
 5856 2018 34       		.uleb128 0x34
 5857 2019 32000000 		.4byte	.LVL181
 5858 201d 0A220000 		.4byte	0x220a
 5859 2021 33       		.uleb128 0x33
 5860 2022 01       		.uleb128 0x1
 5861 2023 50       		.byte	0x50
 5862 2024 03       		.uleb128 0x3
 5863 2025 F3       		.byte	0xf3
 5864 2026 01       		.uleb128 0x1
 5865 2027 50       		.byte	0x50
 5866 2028 00       		.byte	0
 5867 2029 00       		.byte	0
 5868 202a 2F       		.uleb128 0x2f
 5869 202b 53130000 		.4byte	0x1353
 5870 202f 00000000 		.4byte	.LFB52
 5871 2033 0E000000 		.4byte	.LFE52-.LFB52
 5872 2037 01       		.uleb128 0x1
 5873 2038 9C       		.byte	0x9c
 5874 2039 61200000 		.4byte	0x2061
 5875 203d 2C       		.uleb128 0x2c
 5876 203e 64130000 		.4byte	0x1364
 5877 2042 FB0B0000 		.4byte	.LLST87
 5878 2046 30       		.uleb128 0x30
 5879 2047 70130000 		.4byte	0x1370
 5880 204b 1C0C0000 		.4byte	.LLST88
 5881 204f 3C       		.uleb128 0x3c
 5882 2050 06000000 		.4byte	.LVL183
 5883 2054 FE210000 		.4byte	0x21fe
 5884 2058 33       		.uleb128 0x33
 5885 2059 01       		.uleb128 0x1
 5886 205a 50       		.byte	0x50
 5887 205b 03       		.uleb128 0x3
 5888 205c F3       		.byte	0xf3
 5889 205d 01       		.uleb128 0x1
 5890 205e 50       		.byte	0x50
 5891 205f 00       		.byte	0
 5892 2060 00       		.byte	0
 5893 2061 2F       		.uleb128 0x2f
 5894 2062 18130000 		.4byte	0x1318
 5895 2066 00000000 		.4byte	.LFB53
 5896 206a 0E000000 		.4byte	.LFE53-.LFB53
 5897 206e 01       		.uleb128 0x1
ARM GAS  C:\Users\pearlstl\AppData\Local\Temp\ccbEAAPX.s 			page 124


 5898 206f 9C       		.byte	0x9c
 5899 2070 98200000 		.4byte	0x2098
 5900 2074 2C       		.uleb128 0x2c
 5901 2075 29130000 		.4byte	0x1329
 5902 2079 2F0C0000 		.4byte	.LLST89
 5903 207d 30       		.uleb128 0x30
 5904 207e 35130000 		.4byte	0x1335
 5905 2082 500C0000 		.4byte	.LLST90
 5906 2086 3C       		.uleb128 0x3c
 5907 2087 06000000 		.4byte	.LVL186
 5908 208b FE210000 		.4byte	0x21fe
 5909 208f 33       		.uleb128 0x33
 5910 2090 01       		.uleb128 0x1
 5911 2091 50       		.byte	0x50
 5912 2092 03       		.uleb128 0x3
 5913 2093 F3       		.byte	0xf3
 5914 2094 01       		.uleb128 0x1
 5915 2095 50       		.byte	0x50
 5916 2096 00       		.byte	0
 5917 2097 00       		.byte	0
 5918 2098 27       		.uleb128 0x27
 5919 2099 D80A0000 		.4byte	.LASF272
 5920 209d 01       		.byte	0x1
 5921 209e 6801     		.2byte	0x168
 5922 20a0 C3000000 		.4byte	0xc3
 5923 20a4 01       		.byte	0x1
 5924 20a5 B6200000 		.4byte	0x20b6
 5925 20a9 22       		.uleb128 0x22
 5926 20aa 62746E00 		.ascii	"btn\000"
 5927 20ae 01       		.byte	0x1
 5928 20af 6801     		.2byte	0x168
 5929 20b1 42130000 		.4byte	0x1342
 5930 20b5 00       		.byte	0
 5931 20b6 2F       		.uleb128 0x2f
 5932 20b7 98200000 		.4byte	0x2098
 5933 20bb 00000000 		.4byte	.LFB56
 5934 20bf 04000000 		.4byte	.LFE56-.LFB56
 5935 20c3 01       		.uleb128 0x1
 5936 20c4 9C       		.byte	0x9c
 5937 20c5 D3200000 		.4byte	0x20d3
 5938 20c9 2C       		.uleb128 0x2c
 5939 20ca A9200000 		.4byte	0x20a9
 5940 20ce 630C0000 		.4byte	.LLST91
 5941 20d2 00       		.byte	0
 5942 20d3 51       		.uleb128 0x51
 5943 20d4 E2030000 		.4byte	.LASF274
 5944 20d8 01       		.byte	0x1
 5945 20d9 7B01     		.2byte	0x17b
 5946 20db 1E090000 		.4byte	0x91e
 5947 20df 00000000 		.4byte	.LFB57
 5948 20e3 5E000000 		.4byte	.LFE57-.LFB57
 5949 20e7 01       		.uleb128 0x1
 5950 20e8 9C       		.byte	0x9c
 5951 20e9 A0210000 		.4byte	0x21a0
 5952 20ed 36       		.uleb128 0x36
 5953 20ee 62746E00 		.ascii	"btn\000"
 5954 20f2 01       		.byte	0x1
ARM GAS  C:\Users\pearlstl\AppData\Local\Temp\ccbEAAPX.s 			page 125


 5955 20f3 7B01     		.2byte	0x17b
 5956 20f5 42130000 		.4byte	0x1342
 5957 20f9 840C0000 		.4byte	.LLST92
 5958 20fd 37       		.uleb128 0x37
 5959 20fe A7010000 		.4byte	.LASF48
 5960 2102 01       		.byte	0x1
 5961 2103 7B01     		.2byte	0x17b
 5962 2105 030B0000 		.4byte	0xb03
 5963 2109 C60C0000 		.4byte	.LLST93
 5964 210d 42       		.uleb128 0x42
 5965 210e D1090000 		.4byte	.LASF254
 5966 2112 01       		.byte	0x1
 5967 2113 7F01     		.2byte	0x17f
 5968 2115 1E090000 		.4byte	0x91e
 5969 2119 E70C0000 		.4byte	.LLST94
 5970 211d 38       		.uleb128 0x38
 5971 211e 65787400 		.ascii	"ext\000"
 5972 2122 01       		.byte	0x1
 5973 2123 8001     		.2byte	0x180
 5974 2125 4D130000 		.4byte	0x134d
 5975 2129 790D0000 		.4byte	.LLST95
 5976 212d 52       		.uleb128 0x52
 5977 212e 77010000 		.4byte	.LASF202
 5978 2132 01       		.byte	0x1
 5979 2133 8101     		.2byte	0x181
 5980 2135 730A0000 		.4byte	0xa73
 5981 2139 3D       		.uleb128 0x3d
 5982 213a 53130000 		.4byte	0x1353
 5983 213e 0C000000 		.4byte	.LBB146
 5984 2142 0C000000 		.4byte	.LBE146-.LBB146
 5985 2146 01       		.byte	0x1
 5986 2147 8101     		.2byte	0x181
 5987 2149 7A210000 		.4byte	0x217a
 5988 214d 2C       		.uleb128 0x2c
 5989 214e 64130000 		.4byte	0x1364
 5990 2152 A20D0000 		.4byte	.LLST96
 5991 2156 2D       		.uleb128 0x2d
 5992 2157 0C000000 		.4byte	.LBB147
 5993 215b 0C000000 		.4byte	.LBE147-.LBB147
 5994 215f 30       		.uleb128 0x30
 5995 2160 70130000 		.4byte	0x1370
 5996 2164 B50D0000 		.4byte	.LLST97
 5997 2168 3C       		.uleb128 0x3c
 5998 2169 12000000 		.4byte	.LVL194
 5999 216d FE210000 		.4byte	0x21fe
 6000 2171 33       		.uleb128 0x33
 6001 2172 01       		.uleb128 0x1
 6002 2173 50       		.byte	0x50
 6003 2174 02       		.uleb128 0x2
 6004 2175 75       		.byte	0x75
 6005 2176 00       		.sleb128 0
 6006 2177 00       		.byte	0
 6007 2178 00       		.byte	0
 6008 2179 00       		.byte	0
 6009 217a 32       		.uleb128 0x32
 6010 217b 0A000000 		.4byte	.LVL191
 6011 217f FE210000 		.4byte	0x21fe
ARM GAS  C:\Users\pearlstl\AppData\Local\Temp\ccbEAAPX.s 			page 126


 6012 2183 8E210000 		.4byte	0x218e
 6013 2187 33       		.uleb128 0x33
 6014 2188 01       		.uleb128 0x1
 6015 2189 50       		.byte	0x50
 6016 218a 02       		.uleb128 0x2
 6017 218b 75       		.byte	0x75
 6018 218c 00       		.sleb128 0
 6019 218d 00       		.byte	0
 6020 218e 34       		.uleb128 0x34
 6021 218f 4A000000 		.4byte	.LVL203
 6022 2193 AF220000 		.4byte	0x22af
 6023 2197 33       		.uleb128 0x33
 6024 2198 01       		.uleb128 0x1
 6025 2199 50       		.byte	0x50
 6026 219a 03       		.uleb128 0x3
 6027 219b F3       		.byte	0xf3
 6028 219c 01       		.uleb128 0x1
 6029 219d 50       		.byte	0x50
 6030 219e 00       		.byte	0
 6031 219f 00       		.byte	0
 6032 21a0 53       		.uleb128 0x53
 6033 21a1 6B0B0000 		.4byte	.LASF275
 6034 21a5 01       		.byte	0x1
 6035 21a6 2F       		.byte	0x2f
 6036 21a7 71080000 		.4byte	0x871
 6037 21ab 05       		.uleb128 0x5
 6038 21ac 03       		.byte	0x3
 6039 21ad 04000000 		.4byte	ancestor_signal
 6040 21b1 53       		.uleb128 0x53
 6041 21b2 890B0000 		.4byte	.LASF276
 6042 21b6 01       		.byte	0x1
 6043 21b7 30       		.byte	0x30
 6044 21b8 06070000 		.4byte	0x706
 6045 21bc 05       		.uleb128 0x5
 6046 21bd 03       		.byte	0x3
 6047 21be 00000000 		.4byte	ancestor_design
 6048 21c2 54       		.uleb128 0x54
 6049 21c3 50080000 		.4byte	.LASF277
 6050 21c7 09       		.byte	0x9
 6051 21c8 1301     		.2byte	0x113
 6052 21ca 00050000 		.4byte	0x500
 6053 21ce 54       		.uleb128 0x54
 6054 21cf 500B0000 		.4byte	.LASF278
 6055 21d3 09       		.byte	0x9
 6056 21d4 1401     		.2byte	0x114
 6057 21d6 00050000 		.4byte	0x500
 6058 21da 54       		.uleb128 0x54
 6059 21db 8E050000 		.4byte	.LASF279
 6060 21df 09       		.byte	0x9
 6061 21e0 1501     		.2byte	0x115
 6062 21e2 00050000 		.4byte	0x500
 6063 21e6 54       		.uleb128 0x54
 6064 21e7 25080000 		.4byte	.LASF280
 6065 21eb 09       		.byte	0x9
 6066 21ec 1601     		.2byte	0x116
 6067 21ee 00050000 		.4byte	0x500
 6068 21f2 54       		.uleb128 0x54
ARM GAS  C:\Users\pearlstl\AppData\Local\Temp\ccbEAAPX.s 			page 127


 6069 21f3 ED0B0000 		.4byte	.LASF281
 6070 21f7 09       		.byte	0x9
 6071 21f8 1701     		.2byte	0x117
 6072 21fa 00050000 		.4byte	0x500
 6073 21fe 55       		.uleb128 0x55
 6074 21ff CF040000 		.4byte	.LASF282
 6075 2203 CF040000 		.4byte	.LASF282
 6076 2207 0D       		.byte	0xd
 6077 2208 AA03     		.2byte	0x3aa
 6078 220a 55       		.uleb128 0x55
 6079 220b 380E0000 		.4byte	.LASF283
 6080 220f 380E0000 		.4byte	.LASF283
 6081 2213 0D       		.byte	0xd
 6082 2214 CA01     		.2byte	0x1ca
 6083 2216 55       		.uleb128 0x55
 6084 2217 CC020000 		.4byte	.LASF284
 6085 221b CC020000 		.4byte	.LASF284
 6086 221f 0D       		.byte	0xd
 6087 2220 4602     		.2byte	0x246
 6088 2222 55       		.uleb128 0x55
 6089 2223 280C0000 		.4byte	.LASF285
 6090 2227 280C0000 		.4byte	.LASF285
 6091 222b 0D       		.byte	0xd
 6092 222c E703     		.2byte	0x3e7
 6093 222e 56       		.uleb128 0x56
 6094 222f 98060000 		.4byte	.LASF286
 6095 2233 98060000 		.4byte	.LASF286
 6096 2237 11       		.byte	0x11
 6097 2238 78       		.byte	0x78
 6098 2239 55       		.uleb128 0x55
 6099 223a 2E070000 		.4byte	.LASF287
 6100 223e 2E070000 		.4byte	.LASF287
 6101 2242 0D       		.byte	0xd
 6102 2243 D001     		.2byte	0x1d0
 6103 2245 56       		.uleb128 0x56
 6104 2246 A9020000 		.4byte	.LASF288
 6105 224a A9020000 		.4byte	.LASF288
 6106 224e 0E       		.byte	0xe
 6107 224f 65       		.byte	0x65
 6108 2250 55       		.uleb128 0x55
 6109 2251 A80C0000 		.4byte	.LASF289
 6110 2255 A80C0000 		.4byte	.LASF289
 6111 2259 0D       		.byte	0xd
 6112 225a E901     		.2byte	0x1e9
 6113 225c 55       		.uleb128 0x55
 6114 225d CE0F0000 		.4byte	.LASF290
 6115 2261 CE0F0000 		.4byte	.LASF290
 6116 2265 10       		.byte	0x10
 6117 2266 6501     		.2byte	0x165
 6118 2268 56       		.uleb128 0x56
 6119 2269 AD070000 		.4byte	.LASF291
 6120 226d AD070000 		.4byte	.LASF291
 6121 2271 0E       		.byte	0xe
 6122 2272 5A       		.byte	0x5a
 6123 2273 55       		.uleb128 0x55
 6124 2274 55040000 		.4byte	.LASF292
 6125 2278 55040000 		.4byte	.LASF292
ARM GAS  C:\Users\pearlstl\AppData\Local\Temp\ccbEAAPX.s 			page 128


 6126 227c 0D       		.byte	0xd
 6127 227d 7A02     		.2byte	0x27a
 6128 227f 55       		.uleb128 0x55
 6129 2280 52010000 		.4byte	.LASF293
 6130 2284 52010000 		.4byte	.LASF293
 6131 2288 0D       		.byte	0xd
 6132 2289 6002     		.2byte	0x260
 6133 228b 55       		.uleb128 0x55
 6134 228c 5A070000 		.4byte	.LASF294
 6135 2290 5A070000 		.4byte	.LASF294
 6136 2294 0D       		.byte	0xd
 6137 2295 6E02     		.2byte	0x26e
 6138 2297 55       		.uleb128 0x55
 6139 2298 D80B0000 		.4byte	.LASF295
 6140 229c D80B0000 		.4byte	.LASF295
 6141 22a0 0D       		.byte	0xd
 6142 22a1 9003     		.2byte	0x390
 6143 22a3 55       		.uleb128 0x55
 6144 22a4 B70A0000 		.4byte	.LASF296
 6145 22a8 B70A0000 		.4byte	.LASF296
 6146 22ac 0D       		.byte	0xd
 6147 22ad 9703     		.2byte	0x397
 6148 22af 55       		.uleb128 0x55
 6149 22b0 F3030000 		.4byte	.LASF297
 6150 22b4 F3030000 		.4byte	.LASF297
 6151 22b8 0D       		.byte	0xd
 6152 22b9 2D03     		.2byte	0x32d
 6153 22bb 00       		.byte	0
 6154              		.section	.debug_abbrev,"",%progbits
 6155              	.Ldebug_abbrev0:
 6156 0000 01       		.uleb128 0x1
 6157 0001 11       		.uleb128 0x11
 6158 0002 01       		.byte	0x1
 6159 0003 25       		.uleb128 0x25
 6160 0004 0E       		.uleb128 0xe
 6161 0005 13       		.uleb128 0x13
 6162 0006 0B       		.uleb128 0xb
 6163 0007 03       		.uleb128 0x3
 6164 0008 0E       		.uleb128 0xe
 6165 0009 1B       		.uleb128 0x1b
 6166 000a 0E       		.uleb128 0xe
 6167 000b 55       		.uleb128 0x55
 6168 000c 17       		.uleb128 0x17
 6169 000d 11       		.uleb128 0x11
 6170 000e 01       		.uleb128 0x1
 6171 000f 10       		.uleb128 0x10
 6172 0010 17       		.uleb128 0x17
 6173 0011 00       		.byte	0
 6174 0012 00       		.byte	0
 6175 0013 02       		.uleb128 0x2
 6176 0014 16       		.uleb128 0x16
 6177 0015 00       		.byte	0
 6178 0016 03       		.uleb128 0x3
 6179 0017 0E       		.uleb128 0xe
 6180 0018 3A       		.uleb128 0x3a
 6181 0019 0B       		.uleb128 0xb
 6182 001a 3B       		.uleb128 0x3b
ARM GAS  C:\Users\pearlstl\AppData\Local\Temp\ccbEAAPX.s 			page 129


 6183 001b 0B       		.uleb128 0xb
 6184 001c 49       		.uleb128 0x49
 6185 001d 13       		.uleb128 0x13
 6186 001e 00       		.byte	0
 6187 001f 00       		.byte	0
 6188 0020 03       		.uleb128 0x3
 6189 0021 24       		.uleb128 0x24
 6190 0022 00       		.byte	0
 6191 0023 0B       		.uleb128 0xb
 6192 0024 0B       		.uleb128 0xb
 6193 0025 3E       		.uleb128 0x3e
 6194 0026 0B       		.uleb128 0xb
 6195 0027 03       		.uleb128 0x3
 6196 0028 0E       		.uleb128 0xe
 6197 0029 00       		.byte	0
 6198 002a 00       		.byte	0
 6199 002b 04       		.uleb128 0x4
 6200 002c 24       		.uleb128 0x24
 6201 002d 00       		.byte	0
 6202 002e 0B       		.uleb128 0xb
 6203 002f 0B       		.uleb128 0xb
 6204 0030 3E       		.uleb128 0x3e
 6205 0031 0B       		.uleb128 0xb
 6206 0032 03       		.uleb128 0x3
 6207 0033 08       		.uleb128 0x8
 6208 0034 00       		.byte	0
 6209 0035 00       		.byte	0
 6210 0036 05       		.uleb128 0x5
 6211 0037 0F       		.uleb128 0xf
 6212 0038 00       		.byte	0
 6213 0039 0B       		.uleb128 0xb
 6214 003a 0B       		.uleb128 0xb
 6215 003b 00       		.byte	0
 6216 003c 00       		.byte	0
 6217 003d 06       		.uleb128 0x6
 6218 003e 13       		.uleb128 0x13
 6219 003f 01       		.byte	0x1
 6220 0040 0B       		.uleb128 0xb
 6221 0041 0B       		.uleb128 0xb
 6222 0042 3A       		.uleb128 0x3a
 6223 0043 0B       		.uleb128 0xb
 6224 0044 3B       		.uleb128 0x3b
 6225 0045 0B       		.uleb128 0xb
 6226 0046 01       		.uleb128 0x1
 6227 0047 13       		.uleb128 0x13
 6228 0048 00       		.byte	0
 6229 0049 00       		.byte	0
 6230 004a 07       		.uleb128 0x7
 6231 004b 0D       		.uleb128 0xd
 6232 004c 00       		.byte	0
 6233 004d 03       		.uleb128 0x3
 6234 004e 0E       		.uleb128 0xe
 6235 004f 3A       		.uleb128 0x3a
 6236 0050 0B       		.uleb128 0xb
 6237 0051 3B       		.uleb128 0x3b
 6238 0052 0B       		.uleb128 0xb
 6239 0053 49       		.uleb128 0x49
ARM GAS  C:\Users\pearlstl\AppData\Local\Temp\ccbEAAPX.s 			page 130


 6240 0054 13       		.uleb128 0x13
 6241 0055 38       		.uleb128 0x38
 6242 0056 0B       		.uleb128 0xb
 6243 0057 00       		.byte	0
 6244 0058 00       		.byte	0
 6245 0059 08       		.uleb128 0x8
 6246 005a 0D       		.uleb128 0xd
 6247 005b 00       		.byte	0
 6248 005c 03       		.uleb128 0x3
 6249 005d 08       		.uleb128 0x8
 6250 005e 3A       		.uleb128 0x3a
 6251 005f 0B       		.uleb128 0xb
 6252 0060 3B       		.uleb128 0x3b
 6253 0061 0B       		.uleb128 0xb
 6254 0062 49       		.uleb128 0x49
 6255 0063 13       		.uleb128 0x13
 6256 0064 38       		.uleb128 0x38
 6257 0065 0B       		.uleb128 0xb
 6258 0066 00       		.byte	0
 6259 0067 00       		.byte	0
 6260 0068 09       		.uleb128 0x9
 6261 0069 13       		.uleb128 0x13
 6262 006a 01       		.byte	0x1
 6263 006b 03       		.uleb128 0x3
 6264 006c 0E       		.uleb128 0xe
 6265 006d 0B       		.uleb128 0xb
 6266 006e 0B       		.uleb128 0xb
 6267 006f 3A       		.uleb128 0x3a
 6268 0070 0B       		.uleb128 0xb
 6269 0071 3B       		.uleb128 0x3b
 6270 0072 0B       		.uleb128 0xb
 6271 0073 01       		.uleb128 0x1
 6272 0074 13       		.uleb128 0x13
 6273 0075 00       		.byte	0
 6274 0076 00       		.byte	0
 6275 0077 0A       		.uleb128 0xa
 6276 0078 0D       		.uleb128 0xd
 6277 0079 00       		.byte	0
 6278 007a 03       		.uleb128 0x3
 6279 007b 0E       		.uleb128 0xe
 6280 007c 3A       		.uleb128 0x3a
 6281 007d 0B       		.uleb128 0xb
 6282 007e 3B       		.uleb128 0x3b
 6283 007f 0B       		.uleb128 0xb
 6284 0080 49       		.uleb128 0x49
 6285 0081 13       		.uleb128 0x13
 6286 0082 0B       		.uleb128 0xb
 6287 0083 0B       		.uleb128 0xb
 6288 0084 0D       		.uleb128 0xd
 6289 0085 0B       		.uleb128 0xb
 6290 0086 0C       		.uleb128 0xc
 6291 0087 0B       		.uleb128 0xb
 6292 0088 38       		.uleb128 0x38
 6293 0089 0B       		.uleb128 0xb
 6294 008a 00       		.byte	0
 6295 008b 00       		.byte	0
 6296 008c 0B       		.uleb128 0xb
ARM GAS  C:\Users\pearlstl\AppData\Local\Temp\ccbEAAPX.s 			page 131


 6297 008d 15       		.uleb128 0x15
 6298 008e 01       		.byte	0x1
 6299 008f 27       		.uleb128 0x27
 6300 0090 19       		.uleb128 0x19
 6301 0091 49       		.uleb128 0x49
 6302 0092 13       		.uleb128 0x13
 6303 0093 01       		.uleb128 0x1
 6304 0094 13       		.uleb128 0x13
 6305 0095 00       		.byte	0
 6306 0096 00       		.byte	0
 6307 0097 0C       		.uleb128 0xc
 6308 0098 05       		.uleb128 0x5
 6309 0099 00       		.byte	0
 6310 009a 49       		.uleb128 0x49
 6311 009b 13       		.uleb128 0x13
 6312 009c 00       		.byte	0
 6313 009d 00       		.byte	0
 6314 009e 0D       		.uleb128 0xd
 6315 009f 0F       		.uleb128 0xf
 6316 00a0 00       		.byte	0
 6317 00a1 0B       		.uleb128 0xb
 6318 00a2 0B       		.uleb128 0xb
 6319 00a3 49       		.uleb128 0x49
 6320 00a4 13       		.uleb128 0x13
 6321 00a5 00       		.byte	0
 6322 00a6 00       		.byte	0
 6323 00a7 0E       		.uleb128 0xe
 6324 00a8 26       		.uleb128 0x26
 6325 00a9 00       		.byte	0
 6326 00aa 49       		.uleb128 0x49
 6327 00ab 13       		.uleb128 0x13
 6328 00ac 00       		.byte	0
 6329 00ad 00       		.byte	0
 6330 00ae 0F       		.uleb128 0xf
 6331 00af 17       		.uleb128 0x17
 6332 00b0 01       		.byte	0x1
 6333 00b1 0B       		.uleb128 0xb
 6334 00b2 0B       		.uleb128 0xb
 6335 00b3 3A       		.uleb128 0x3a
 6336 00b4 0B       		.uleb128 0xb
 6337 00b5 3B       		.uleb128 0x3b
 6338 00b6 0B       		.uleb128 0xb
 6339 00b7 01       		.uleb128 0x1
 6340 00b8 13       		.uleb128 0x13
 6341 00b9 00       		.byte	0
 6342 00ba 00       		.byte	0
 6343 00bb 10       		.uleb128 0x10
 6344 00bc 0D       		.uleb128 0xd
 6345 00bd 00       		.byte	0
 6346 00be 03       		.uleb128 0x3
 6347 00bf 08       		.uleb128 0x8
 6348 00c0 3A       		.uleb128 0x3a
 6349 00c1 0B       		.uleb128 0xb
 6350 00c2 3B       		.uleb128 0x3b
 6351 00c3 0B       		.uleb128 0xb
 6352 00c4 49       		.uleb128 0x49
 6353 00c5 13       		.uleb128 0x13
ARM GAS  C:\Users\pearlstl\AppData\Local\Temp\ccbEAAPX.s 			page 132


 6354 00c6 00       		.byte	0
 6355 00c7 00       		.byte	0
 6356 00c8 11       		.uleb128 0x11
 6357 00c9 0D       		.uleb128 0xd
 6358 00ca 00       		.byte	0
 6359 00cb 03       		.uleb128 0x3
 6360 00cc 0E       		.uleb128 0xe
 6361 00cd 3A       		.uleb128 0x3a
 6362 00ce 0B       		.uleb128 0xb
 6363 00cf 3B       		.uleb128 0x3b
 6364 00d0 0B       		.uleb128 0xb
 6365 00d1 49       		.uleb128 0x49
 6366 00d2 13       		.uleb128 0x13
 6367 00d3 00       		.byte	0
 6368 00d4 00       		.byte	0
 6369 00d5 12       		.uleb128 0x12
 6370 00d6 16       		.uleb128 0x16
 6371 00d7 00       		.byte	0
 6372 00d8 03       		.uleb128 0x3
 6373 00d9 0E       		.uleb128 0xe
 6374 00da 3A       		.uleb128 0x3a
 6375 00db 0B       		.uleb128 0xb
 6376 00dc 3B       		.uleb128 0x3b
 6377 00dd 05       		.uleb128 0x5
 6378 00de 49       		.uleb128 0x49
 6379 00df 13       		.uleb128 0x13
 6380 00e0 00       		.byte	0
 6381 00e1 00       		.byte	0
 6382 00e2 13       		.uleb128 0x13
 6383 00e3 04       		.uleb128 0x4
 6384 00e4 01       		.byte	0x1
 6385 00e5 0B       		.uleb128 0xb
 6386 00e6 0B       		.uleb128 0xb
 6387 00e7 49       		.uleb128 0x49
 6388 00e8 13       		.uleb128 0x13
 6389 00e9 3A       		.uleb128 0x3a
 6390 00ea 0B       		.uleb128 0xb
 6391 00eb 3B       		.uleb128 0x3b
 6392 00ec 0B       		.uleb128 0xb
 6393 00ed 01       		.uleb128 0x1
 6394 00ee 13       		.uleb128 0x13
 6395 00ef 00       		.byte	0
 6396 00f0 00       		.byte	0
 6397 00f1 14       		.uleb128 0x14
 6398 00f2 28       		.uleb128 0x28
 6399 00f3 00       		.byte	0
 6400 00f4 03       		.uleb128 0x3
 6401 00f5 0E       		.uleb128 0xe
 6402 00f6 1C       		.uleb128 0x1c
 6403 00f7 0B       		.uleb128 0xb
 6404 00f8 00       		.byte	0
 6405 00f9 00       		.byte	0
 6406 00fa 15       		.uleb128 0x15
 6407 00fb 0D       		.uleb128 0xd
 6408 00fc 00       		.byte	0
 6409 00fd 03       		.uleb128 0x3
 6410 00fe 08       		.uleb128 0x8
ARM GAS  C:\Users\pearlstl\AppData\Local\Temp\ccbEAAPX.s 			page 133


 6411 00ff 3A       		.uleb128 0x3a
 6412 0100 0B       		.uleb128 0xb
 6413 0101 3B       		.uleb128 0x3b
 6414 0102 0B       		.uleb128 0xb
 6415 0103 49       		.uleb128 0x49
 6416 0104 13       		.uleb128 0x13
 6417 0105 0B       		.uleb128 0xb
 6418 0106 0B       		.uleb128 0xb
 6419 0107 0D       		.uleb128 0xd
 6420 0108 0B       		.uleb128 0xb
 6421 0109 0C       		.uleb128 0xc
 6422 010a 0B       		.uleb128 0xb
 6423 010b 38       		.uleb128 0x38
 6424 010c 0B       		.uleb128 0xb
 6425 010d 00       		.byte	0
 6426 010e 00       		.byte	0
 6427 010f 16       		.uleb128 0x16
 6428 0110 15       		.uleb128 0x15
 6429 0111 01       		.byte	0x1
 6430 0112 27       		.uleb128 0x27
 6431 0113 19       		.uleb128 0x19
 6432 0114 01       		.uleb128 0x1
 6433 0115 13       		.uleb128 0x13
 6434 0116 00       		.byte	0
 6435 0117 00       		.byte	0
 6436 0118 17       		.uleb128 0x17
 6437 0119 01       		.uleb128 0x1
 6438 011a 01       		.byte	0x1
 6439 011b 49       		.uleb128 0x49
 6440 011c 13       		.uleb128 0x13
 6441 011d 01       		.uleb128 0x1
 6442 011e 13       		.uleb128 0x13
 6443 011f 00       		.byte	0
 6444 0120 00       		.byte	0
 6445 0121 18       		.uleb128 0x18
 6446 0122 21       		.uleb128 0x21
 6447 0123 00       		.byte	0
 6448 0124 49       		.uleb128 0x49
 6449 0125 13       		.uleb128 0x13
 6450 0126 2F       		.uleb128 0x2f
 6451 0127 0B       		.uleb128 0xb
 6452 0128 00       		.byte	0
 6453 0129 00       		.byte	0
 6454 012a 19       		.uleb128 0x19
 6455 012b 0D       		.uleb128 0xd
 6456 012c 00       		.byte	0
 6457 012d 03       		.uleb128 0x3
 6458 012e 08       		.uleb128 0x8
 6459 012f 3A       		.uleb128 0x3a
 6460 0130 0B       		.uleb128 0xb
 6461 0131 3B       		.uleb128 0x3b
 6462 0132 05       		.uleb128 0x5
 6463 0133 49       		.uleb128 0x49
 6464 0134 13       		.uleb128 0x13
 6465 0135 38       		.uleb128 0x38
 6466 0136 0B       		.uleb128 0xb
 6467 0137 00       		.byte	0
ARM GAS  C:\Users\pearlstl\AppData\Local\Temp\ccbEAAPX.s 			page 134


 6468 0138 00       		.byte	0
 6469 0139 1A       		.uleb128 0x1a
 6470 013a 0D       		.uleb128 0xd
 6471 013b 00       		.byte	0
 6472 013c 03       		.uleb128 0x3
 6473 013d 0E       		.uleb128 0xe
 6474 013e 3A       		.uleb128 0x3a
 6475 013f 0B       		.uleb128 0xb
 6476 0140 3B       		.uleb128 0x3b
 6477 0141 05       		.uleb128 0x5
 6478 0142 49       		.uleb128 0x49
 6479 0143 13       		.uleb128 0x13
 6480 0144 38       		.uleb128 0x38
 6481 0145 0B       		.uleb128 0xb
 6482 0146 00       		.byte	0
 6483 0147 00       		.byte	0
 6484 0148 1B       		.uleb128 0x1b
 6485 0149 13       		.uleb128 0x13
 6486 014a 01       		.byte	0x1
 6487 014b 0B       		.uleb128 0xb
 6488 014c 0B       		.uleb128 0xb
 6489 014d 3A       		.uleb128 0x3a
 6490 014e 0B       		.uleb128 0xb
 6491 014f 3B       		.uleb128 0x3b
 6492 0150 05       		.uleb128 0x5
 6493 0151 01       		.uleb128 0x1
 6494 0152 13       		.uleb128 0x13
 6495 0153 00       		.byte	0
 6496 0154 00       		.byte	0
 6497 0155 1C       		.uleb128 0x1c
 6498 0156 13       		.uleb128 0x13
 6499 0157 01       		.byte	0x1
 6500 0158 0B       		.uleb128 0xb
 6501 0159 05       		.uleb128 0x5
 6502 015a 3A       		.uleb128 0x3a
 6503 015b 0B       		.uleb128 0xb
 6504 015c 3B       		.uleb128 0x3b
 6505 015d 0B       		.uleb128 0xb
 6506 015e 01       		.uleb128 0x1
 6507 015f 13       		.uleb128 0x13
 6508 0160 00       		.byte	0
 6509 0161 00       		.byte	0
 6510 0162 1D       		.uleb128 0x1d
 6511 0163 0D       		.uleb128 0xd
 6512 0164 00       		.byte	0
 6513 0165 03       		.uleb128 0x3
 6514 0166 0E       		.uleb128 0xe
 6515 0167 3A       		.uleb128 0x3a
 6516 0168 0B       		.uleb128 0xb
 6517 0169 3B       		.uleb128 0x3b
 6518 016a 0B       		.uleb128 0xb
 6519 016b 49       		.uleb128 0x49
 6520 016c 13       		.uleb128 0x13
 6521 016d 38       		.uleb128 0x38
 6522 016e 05       		.uleb128 0x5
 6523 016f 00       		.byte	0
 6524 0170 00       		.byte	0
ARM GAS  C:\Users\pearlstl\AppData\Local\Temp\ccbEAAPX.s 			page 135


 6525 0171 1E       		.uleb128 0x1e
 6526 0172 0D       		.uleb128 0xd
 6527 0173 00       		.byte	0
 6528 0174 03       		.uleb128 0x3
 6529 0175 08       		.uleb128 0x8
 6530 0176 3A       		.uleb128 0x3a
 6531 0177 0B       		.uleb128 0xb
 6532 0178 3B       		.uleb128 0x3b
 6533 0179 0B       		.uleb128 0xb
 6534 017a 49       		.uleb128 0x49
 6535 017b 13       		.uleb128 0x13
 6536 017c 38       		.uleb128 0x38
 6537 017d 05       		.uleb128 0x5
 6538 017e 00       		.byte	0
 6539 017f 00       		.byte	0
 6540 0180 1F       		.uleb128 0x1f
 6541 0181 0D       		.uleb128 0xd
 6542 0182 00       		.byte	0
 6543 0183 03       		.uleb128 0x3
 6544 0184 0E       		.uleb128 0xe
 6545 0185 3A       		.uleb128 0x3a
 6546 0186 0B       		.uleb128 0xb
 6547 0187 3B       		.uleb128 0x3b
 6548 0188 05       		.uleb128 0x5
 6549 0189 49       		.uleb128 0x49
 6550 018a 13       		.uleb128 0x13
 6551 018b 38       		.uleb128 0x38
 6552 018c 05       		.uleb128 0x5
 6553 018d 00       		.byte	0
 6554 018e 00       		.byte	0
 6555 018f 20       		.uleb128 0x20
 6556 0190 0D       		.uleb128 0xd
 6557 0191 00       		.byte	0
 6558 0192 03       		.uleb128 0x3
 6559 0193 08       		.uleb128 0x8
 6560 0194 3A       		.uleb128 0x3a
 6561 0195 0B       		.uleb128 0xb
 6562 0196 3B       		.uleb128 0x3b
 6563 0197 05       		.uleb128 0x5
 6564 0198 49       		.uleb128 0x49
 6565 0199 13       		.uleb128 0x13
 6566 019a 38       		.uleb128 0x38
 6567 019b 05       		.uleb128 0x5
 6568 019c 00       		.byte	0
 6569 019d 00       		.byte	0
 6570 019e 21       		.uleb128 0x21
 6571 019f 2E       		.uleb128 0x2e
 6572 01a0 01       		.byte	0x1
 6573 01a1 03       		.uleb128 0x3
 6574 01a2 0E       		.uleb128 0xe
 6575 01a3 3A       		.uleb128 0x3a
 6576 01a4 0B       		.uleb128 0xb
 6577 01a5 3B       		.uleb128 0x3b
 6578 01a6 05       		.uleb128 0x5
 6579 01a7 27       		.uleb128 0x27
 6580 01a8 19       		.uleb128 0x19
 6581 01a9 49       		.uleb128 0x49
ARM GAS  C:\Users\pearlstl\AppData\Local\Temp\ccbEAAPX.s 			page 136


 6582 01aa 13       		.uleb128 0x13
 6583 01ab 20       		.uleb128 0x20
 6584 01ac 0B       		.uleb128 0xb
 6585 01ad 01       		.uleb128 0x1
 6586 01ae 13       		.uleb128 0x13
 6587 01af 00       		.byte	0
 6588 01b0 00       		.byte	0
 6589 01b1 22       		.uleb128 0x22
 6590 01b2 05       		.uleb128 0x5
 6591 01b3 00       		.byte	0
 6592 01b4 03       		.uleb128 0x3
 6593 01b5 08       		.uleb128 0x8
 6594 01b6 3A       		.uleb128 0x3a
 6595 01b7 0B       		.uleb128 0xb
 6596 01b8 3B       		.uleb128 0x3b
 6597 01b9 05       		.uleb128 0x5
 6598 01ba 49       		.uleb128 0x49
 6599 01bb 13       		.uleb128 0x13
 6600 01bc 00       		.byte	0
 6601 01bd 00       		.byte	0
 6602 01be 23       		.uleb128 0x23
 6603 01bf 05       		.uleb128 0x5
 6604 01c0 00       		.byte	0
 6605 01c1 03       		.uleb128 0x3
 6606 01c2 0E       		.uleb128 0xe
 6607 01c3 3A       		.uleb128 0x3a
 6608 01c4 0B       		.uleb128 0xb
 6609 01c5 3B       		.uleb128 0x3b
 6610 01c6 05       		.uleb128 0x5
 6611 01c7 49       		.uleb128 0x49
 6612 01c8 13       		.uleb128 0x13
 6613 01c9 00       		.byte	0
 6614 01ca 00       		.byte	0
 6615 01cb 24       		.uleb128 0x24
 6616 01cc 2E       		.uleb128 0x2e
 6617 01cd 01       		.byte	0x1
 6618 01ce 03       		.uleb128 0x3
 6619 01cf 0E       		.uleb128 0xe
 6620 01d0 3A       		.uleb128 0x3a
 6621 01d1 0B       		.uleb128 0xb
 6622 01d2 3B       		.uleb128 0x3b
 6623 01d3 0B       		.uleb128 0xb
 6624 01d4 27       		.uleb128 0x27
 6625 01d5 19       		.uleb128 0x19
 6626 01d6 20       		.uleb128 0x20
 6627 01d7 0B       		.uleb128 0xb
 6628 01d8 01       		.uleb128 0x1
 6629 01d9 13       		.uleb128 0x13
 6630 01da 00       		.byte	0
 6631 01db 00       		.byte	0
 6632 01dc 25       		.uleb128 0x25
 6633 01dd 05       		.uleb128 0x5
 6634 01de 00       		.byte	0
 6635 01df 03       		.uleb128 0x3
 6636 01e0 08       		.uleb128 0x8
 6637 01e1 3A       		.uleb128 0x3a
 6638 01e2 0B       		.uleb128 0xb
ARM GAS  C:\Users\pearlstl\AppData\Local\Temp\ccbEAAPX.s 			page 137


 6639 01e3 3B       		.uleb128 0x3b
 6640 01e4 0B       		.uleb128 0xb
 6641 01e5 49       		.uleb128 0x49
 6642 01e6 13       		.uleb128 0x13
 6643 01e7 00       		.byte	0
 6644 01e8 00       		.byte	0
 6645 01e9 26       		.uleb128 0x26
 6646 01ea 05       		.uleb128 0x5
 6647 01eb 00       		.byte	0
 6648 01ec 03       		.uleb128 0x3
 6649 01ed 0E       		.uleb128 0xe
 6650 01ee 3A       		.uleb128 0x3a
 6651 01ef 0B       		.uleb128 0xb
 6652 01f0 3B       		.uleb128 0x3b
 6653 01f1 0B       		.uleb128 0xb
 6654 01f2 49       		.uleb128 0x49
 6655 01f3 13       		.uleb128 0x13
 6656 01f4 00       		.byte	0
 6657 01f5 00       		.byte	0
 6658 01f6 27       		.uleb128 0x27
 6659 01f7 2E       		.uleb128 0x2e
 6660 01f8 01       		.byte	0x1
 6661 01f9 3F       		.uleb128 0x3f
 6662 01fa 19       		.uleb128 0x19
 6663 01fb 03       		.uleb128 0x3
 6664 01fc 0E       		.uleb128 0xe
 6665 01fd 3A       		.uleb128 0x3a
 6666 01fe 0B       		.uleb128 0xb
 6667 01ff 3B       		.uleb128 0x3b
 6668 0200 05       		.uleb128 0x5
 6669 0201 27       		.uleb128 0x27
 6670 0202 19       		.uleb128 0x19
 6671 0203 49       		.uleb128 0x49
 6672 0204 13       		.uleb128 0x13
 6673 0205 20       		.uleb128 0x20
 6674 0206 0B       		.uleb128 0xb
 6675 0207 01       		.uleb128 0x1
 6676 0208 13       		.uleb128 0x13
 6677 0209 00       		.byte	0
 6678 020a 00       		.byte	0
 6679 020b 28       		.uleb128 0x28
 6680 020c 34       		.uleb128 0x34
 6681 020d 00       		.byte	0
 6682 020e 03       		.uleb128 0x3
 6683 020f 08       		.uleb128 0x8
 6684 0210 3A       		.uleb128 0x3a
 6685 0211 0B       		.uleb128 0xb
 6686 0212 3B       		.uleb128 0x3b
 6687 0213 05       		.uleb128 0x5
 6688 0214 49       		.uleb128 0x49
 6689 0215 13       		.uleb128 0x13
 6690 0216 00       		.byte	0
 6691 0217 00       		.byte	0
 6692 0218 29       		.uleb128 0x29
 6693 0219 2E       		.uleb128 0x2e
 6694 021a 01       		.byte	0x1
 6695 021b 3F       		.uleb128 0x3f
ARM GAS  C:\Users\pearlstl\AppData\Local\Temp\ccbEAAPX.s 			page 138


 6696 021c 19       		.uleb128 0x19
 6697 021d 03       		.uleb128 0x3
 6698 021e 0E       		.uleb128 0xe
 6699 021f 3A       		.uleb128 0x3a
 6700 0220 0B       		.uleb128 0xb
 6701 0221 3B       		.uleb128 0x3b
 6702 0222 0B       		.uleb128 0xb
 6703 0223 27       		.uleb128 0x27
 6704 0224 19       		.uleb128 0x19
 6705 0225 20       		.uleb128 0x20
 6706 0226 0B       		.uleb128 0xb
 6707 0227 01       		.uleb128 0x1
 6708 0228 13       		.uleb128 0x13
 6709 0229 00       		.byte	0
 6710 022a 00       		.byte	0
 6711 022b 2A       		.uleb128 0x2a
 6712 022c 34       		.uleb128 0x34
 6713 022d 00       		.byte	0
 6714 022e 03       		.uleb128 0x3
 6715 022f 08       		.uleb128 0x8
 6716 0230 3A       		.uleb128 0x3a
 6717 0231 0B       		.uleb128 0xb
 6718 0232 3B       		.uleb128 0x3b
 6719 0233 0B       		.uleb128 0xb
 6720 0234 49       		.uleb128 0x49
 6721 0235 13       		.uleb128 0x13
 6722 0236 00       		.byte	0
 6723 0237 00       		.byte	0
 6724 0238 2B       		.uleb128 0x2b
 6725 0239 2E       		.uleb128 0x2e
 6726 023a 01       		.byte	0x1
 6727 023b 31       		.uleb128 0x31
 6728 023c 13       		.uleb128 0x13
 6729 023d 11       		.uleb128 0x11
 6730 023e 01       		.uleb128 0x1
 6731 023f 12       		.uleb128 0x12
 6732 0240 06       		.uleb128 0x6
 6733 0241 40       		.uleb128 0x40
 6734 0242 18       		.uleb128 0x18
 6735 0243 9642     		.uleb128 0x2116
 6736 0245 19       		.uleb128 0x19
 6737 0246 01       		.uleb128 0x1
 6738 0247 13       		.uleb128 0x13
 6739 0248 00       		.byte	0
 6740 0249 00       		.byte	0
 6741 024a 2C       		.uleb128 0x2c
 6742 024b 05       		.uleb128 0x5
 6743 024c 00       		.byte	0
 6744 024d 31       		.uleb128 0x31
 6745 024e 13       		.uleb128 0x13
 6746 024f 02       		.uleb128 0x2
 6747 0250 17       		.uleb128 0x17
 6748 0251 00       		.byte	0
 6749 0252 00       		.byte	0
 6750 0253 2D       		.uleb128 0x2d
 6751 0254 0B       		.uleb128 0xb
 6752 0255 01       		.byte	0x1
ARM GAS  C:\Users\pearlstl\AppData\Local\Temp\ccbEAAPX.s 			page 139


 6753 0256 11       		.uleb128 0x11
 6754 0257 01       		.uleb128 0x1
 6755 0258 12       		.uleb128 0x12
 6756 0259 06       		.uleb128 0x6
 6757 025a 00       		.byte	0
 6758 025b 00       		.byte	0
 6759 025c 2E       		.uleb128 0x2e
 6760 025d 05       		.uleb128 0x5
 6761 025e 00       		.byte	0
 6762 025f 31       		.uleb128 0x31
 6763 0260 13       		.uleb128 0x13
 6764 0261 00       		.byte	0
 6765 0262 00       		.byte	0
 6766 0263 2F       		.uleb128 0x2f
 6767 0264 2E       		.uleb128 0x2e
 6768 0265 01       		.byte	0x1
 6769 0266 31       		.uleb128 0x31
 6770 0267 13       		.uleb128 0x13
 6771 0268 11       		.uleb128 0x11
 6772 0269 01       		.uleb128 0x1
 6773 026a 12       		.uleb128 0x12
 6774 026b 06       		.uleb128 0x6
 6775 026c 40       		.uleb128 0x40
 6776 026d 18       		.uleb128 0x18
 6777 026e 9742     		.uleb128 0x2117
 6778 0270 19       		.uleb128 0x19
 6779 0271 01       		.uleb128 0x1
 6780 0272 13       		.uleb128 0x13
 6781 0273 00       		.byte	0
 6782 0274 00       		.byte	0
 6783 0275 30       		.uleb128 0x30
 6784 0276 34       		.uleb128 0x34
 6785 0277 00       		.byte	0
 6786 0278 31       		.uleb128 0x31
 6787 0279 13       		.uleb128 0x13
 6788 027a 02       		.uleb128 0x2
 6789 027b 17       		.uleb128 0x17
 6790 027c 00       		.byte	0
 6791 027d 00       		.byte	0
 6792 027e 31       		.uleb128 0x31
 6793 027f 05       		.uleb128 0x5
 6794 0280 00       		.byte	0
 6795 0281 31       		.uleb128 0x31
 6796 0282 13       		.uleb128 0x13
 6797 0283 1C       		.uleb128 0x1c
 6798 0284 0B       		.uleb128 0xb
 6799 0285 00       		.byte	0
 6800 0286 00       		.byte	0
 6801 0287 32       		.uleb128 0x32
 6802 0288 898201   		.uleb128 0x4109
 6803 028b 01       		.byte	0x1
 6804 028c 11       		.uleb128 0x11
 6805 028d 01       		.uleb128 0x1
 6806 028e 31       		.uleb128 0x31
 6807 028f 13       		.uleb128 0x13
 6808 0290 01       		.uleb128 0x1
 6809 0291 13       		.uleb128 0x13
ARM GAS  C:\Users\pearlstl\AppData\Local\Temp\ccbEAAPX.s 			page 140


 6810 0292 00       		.byte	0
 6811 0293 00       		.byte	0
 6812 0294 33       		.uleb128 0x33
 6813 0295 8A8201   		.uleb128 0x410a
 6814 0298 00       		.byte	0
 6815 0299 02       		.uleb128 0x2
 6816 029a 18       		.uleb128 0x18
 6817 029b 9142     		.uleb128 0x2111
 6818 029d 18       		.uleb128 0x18
 6819 029e 00       		.byte	0
 6820 029f 00       		.byte	0
 6821 02a0 34       		.uleb128 0x34
 6822 02a1 898201   		.uleb128 0x4109
 6823 02a4 01       		.byte	0x1
 6824 02a5 11       		.uleb128 0x11
 6825 02a6 01       		.uleb128 0x1
 6826 02a7 9542     		.uleb128 0x2115
 6827 02a9 19       		.uleb128 0x19
 6828 02aa 31       		.uleb128 0x31
 6829 02ab 13       		.uleb128 0x13
 6830 02ac 00       		.byte	0
 6831 02ad 00       		.byte	0
 6832 02ae 35       		.uleb128 0x35
 6833 02af 2E       		.uleb128 0x2e
 6834 02b0 01       		.byte	0x1
 6835 02b1 03       		.uleb128 0x3
 6836 02b2 0E       		.uleb128 0xe
 6837 02b3 3A       		.uleb128 0x3a
 6838 02b4 0B       		.uleb128 0xb
 6839 02b5 3B       		.uleb128 0x3b
 6840 02b6 05       		.uleb128 0x5
 6841 02b7 27       		.uleb128 0x27
 6842 02b8 19       		.uleb128 0x19
 6843 02b9 49       		.uleb128 0x49
 6844 02ba 13       		.uleb128 0x13
 6845 02bb 11       		.uleb128 0x11
 6846 02bc 01       		.uleb128 0x1
 6847 02bd 12       		.uleb128 0x12
 6848 02be 06       		.uleb128 0x6
 6849 02bf 40       		.uleb128 0x40
 6850 02c0 18       		.uleb128 0x18
 6851 02c1 9742     		.uleb128 0x2117
 6852 02c3 19       		.uleb128 0x19
 6853 02c4 01       		.uleb128 0x1
 6854 02c5 13       		.uleb128 0x13
 6855 02c6 00       		.byte	0
 6856 02c7 00       		.byte	0
 6857 02c8 36       		.uleb128 0x36
 6858 02c9 05       		.uleb128 0x5
 6859 02ca 00       		.byte	0
 6860 02cb 03       		.uleb128 0x3
 6861 02cc 08       		.uleb128 0x8
 6862 02cd 3A       		.uleb128 0x3a
 6863 02ce 0B       		.uleb128 0xb
 6864 02cf 3B       		.uleb128 0x3b
 6865 02d0 05       		.uleb128 0x5
 6866 02d1 49       		.uleb128 0x49
ARM GAS  C:\Users\pearlstl\AppData\Local\Temp\ccbEAAPX.s 			page 141


 6867 02d2 13       		.uleb128 0x13
 6868 02d3 02       		.uleb128 0x2
 6869 02d4 17       		.uleb128 0x17
 6870 02d5 00       		.byte	0
 6871 02d6 00       		.byte	0
 6872 02d7 37       		.uleb128 0x37
 6873 02d8 05       		.uleb128 0x5
 6874 02d9 00       		.byte	0
 6875 02da 03       		.uleb128 0x3
 6876 02db 0E       		.uleb128 0xe
 6877 02dc 3A       		.uleb128 0x3a
 6878 02dd 0B       		.uleb128 0xb
 6879 02de 3B       		.uleb128 0x3b
 6880 02df 05       		.uleb128 0x5
 6881 02e0 49       		.uleb128 0x49
 6882 02e1 13       		.uleb128 0x13
 6883 02e2 02       		.uleb128 0x2
 6884 02e3 17       		.uleb128 0x17
 6885 02e4 00       		.byte	0
 6886 02e5 00       		.byte	0
 6887 02e6 38       		.uleb128 0x38
 6888 02e7 34       		.uleb128 0x34
 6889 02e8 00       		.byte	0
 6890 02e9 03       		.uleb128 0x3
 6891 02ea 08       		.uleb128 0x8
 6892 02eb 3A       		.uleb128 0x3a
 6893 02ec 0B       		.uleb128 0xb
 6894 02ed 3B       		.uleb128 0x3b
 6895 02ee 05       		.uleb128 0x5
 6896 02ef 49       		.uleb128 0x49
 6897 02f0 13       		.uleb128 0x13
 6898 02f1 02       		.uleb128 0x2
 6899 02f2 17       		.uleb128 0x17
 6900 02f3 00       		.byte	0
 6901 02f4 00       		.byte	0
 6902 02f5 39       		.uleb128 0x39
 6903 02f6 1D       		.uleb128 0x1d
 6904 02f7 01       		.byte	0x1
 6905 02f8 31       		.uleb128 0x31
 6906 02f9 13       		.uleb128 0x13
 6907 02fa 52       		.uleb128 0x52
 6908 02fb 01       		.uleb128 0x1
 6909 02fc 55       		.uleb128 0x55
 6910 02fd 17       		.uleb128 0x17
 6911 02fe 58       		.uleb128 0x58
 6912 02ff 0B       		.uleb128 0xb
 6913 0300 59       		.uleb128 0x59
 6914 0301 05       		.uleb128 0x5
 6915 0302 01       		.uleb128 0x1
 6916 0303 13       		.uleb128 0x13
 6917 0304 00       		.byte	0
 6918 0305 00       		.byte	0
 6919 0306 3A       		.uleb128 0x3a
 6920 0307 0B       		.uleb128 0xb
 6921 0308 01       		.byte	0x1
 6922 0309 55       		.uleb128 0x55
 6923 030a 17       		.uleb128 0x17
ARM GAS  C:\Users\pearlstl\AppData\Local\Temp\ccbEAAPX.s 			page 142


 6924 030b 00       		.byte	0
 6925 030c 00       		.byte	0
 6926 030d 3B       		.uleb128 0x3b
 6927 030e 34       		.uleb128 0x34
 6928 030f 00       		.byte	0
 6929 0310 31       		.uleb128 0x31
 6930 0311 13       		.uleb128 0x13
 6931 0312 02       		.uleb128 0x2
 6932 0313 18       		.uleb128 0x18
 6933 0314 00       		.byte	0
 6934 0315 00       		.byte	0
 6935 0316 3C       		.uleb128 0x3c
 6936 0317 898201   		.uleb128 0x4109
 6937 031a 01       		.byte	0x1
 6938 031b 11       		.uleb128 0x11
 6939 031c 01       		.uleb128 0x1
 6940 031d 31       		.uleb128 0x31
 6941 031e 13       		.uleb128 0x13
 6942 031f 00       		.byte	0
 6943 0320 00       		.byte	0
 6944 0321 3D       		.uleb128 0x3d
 6945 0322 1D       		.uleb128 0x1d
 6946 0323 01       		.byte	0x1
 6947 0324 31       		.uleb128 0x31
 6948 0325 13       		.uleb128 0x13
 6949 0326 11       		.uleb128 0x11
 6950 0327 01       		.uleb128 0x1
 6951 0328 12       		.uleb128 0x12
 6952 0329 06       		.uleb128 0x6
 6953 032a 58       		.uleb128 0x58
 6954 032b 0B       		.uleb128 0xb
 6955 032c 59       		.uleb128 0x59
 6956 032d 05       		.uleb128 0x5
 6957 032e 01       		.uleb128 0x1
 6958 032f 13       		.uleb128 0x13
 6959 0330 00       		.byte	0
 6960 0331 00       		.byte	0
 6961 0332 3E       		.uleb128 0x3e
 6962 0333 0B       		.uleb128 0xb
 6963 0334 01       		.byte	0x1
 6964 0335 55       		.uleb128 0x55
 6965 0336 17       		.uleb128 0x17
 6966 0337 01       		.uleb128 0x1
 6967 0338 13       		.uleb128 0x13
 6968 0339 00       		.byte	0
 6969 033a 00       		.byte	0
 6970 033b 3F       		.uleb128 0x3f
 6971 033c 34       		.uleb128 0x34
 6972 033d 00       		.byte	0
 6973 033e 31       		.uleb128 0x31
 6974 033f 13       		.uleb128 0x13
 6975 0340 00       		.byte	0
 6976 0341 00       		.byte	0
 6977 0342 40       		.uleb128 0x40
 6978 0343 34       		.uleb128 0x34
 6979 0344 00       		.byte	0
 6980 0345 03       		.uleb128 0x3
ARM GAS  C:\Users\pearlstl\AppData\Local\Temp\ccbEAAPX.s 			page 143


 6981 0346 0E       		.uleb128 0xe
 6982 0347 3A       		.uleb128 0x3a
 6983 0348 0B       		.uleb128 0xb
 6984 0349 3B       		.uleb128 0x3b
 6985 034a 05       		.uleb128 0x5
 6986 034b 49       		.uleb128 0x49
 6987 034c 13       		.uleb128 0x13
 6988 034d 02       		.uleb128 0x2
 6989 034e 18       		.uleb128 0x18
 6990 034f 00       		.byte	0
 6991 0350 00       		.byte	0
 6992 0351 41       		.uleb128 0x41
 6993 0352 1D       		.uleb128 0x1d
 6994 0353 01       		.byte	0x1
 6995 0354 31       		.uleb128 0x31
 6996 0355 13       		.uleb128 0x13
 6997 0356 11       		.uleb128 0x11
 6998 0357 01       		.uleb128 0x1
 6999 0358 12       		.uleb128 0x12
 7000 0359 06       		.uleb128 0x6
 7001 035a 58       		.uleb128 0x58
 7002 035b 0B       		.uleb128 0xb
 7003 035c 59       		.uleb128 0x59
 7004 035d 05       		.uleb128 0x5
 7005 035e 00       		.byte	0
 7006 035f 00       		.byte	0
 7007 0360 42       		.uleb128 0x42
 7008 0361 34       		.uleb128 0x34
 7009 0362 00       		.byte	0
 7010 0363 03       		.uleb128 0x3
 7011 0364 0E       		.uleb128 0xe
 7012 0365 3A       		.uleb128 0x3a
 7013 0366 0B       		.uleb128 0xb
 7014 0367 3B       		.uleb128 0x3b
 7015 0368 05       		.uleb128 0x5
 7016 0369 49       		.uleb128 0x49
 7017 036a 13       		.uleb128 0x13
 7018 036b 02       		.uleb128 0x2
 7019 036c 17       		.uleb128 0x17
 7020 036d 00       		.byte	0
 7021 036e 00       		.byte	0
 7022 036f 43       		.uleb128 0x43
 7023 0370 898201   		.uleb128 0x4109
 7024 0373 00       		.byte	0
 7025 0374 11       		.uleb128 0x11
 7026 0375 01       		.uleb128 0x1
 7027 0376 31       		.uleb128 0x31
 7028 0377 13       		.uleb128 0x13
 7029 0378 00       		.byte	0
 7030 0379 00       		.byte	0
 7031 037a 44       		.uleb128 0x44
 7032 037b 898201   		.uleb128 0x4109
 7033 037e 01       		.byte	0x1
 7034 037f 11       		.uleb128 0x11
 7035 0380 01       		.uleb128 0x1
 7036 0381 01       		.uleb128 0x1
 7037 0382 13       		.uleb128 0x13
ARM GAS  C:\Users\pearlstl\AppData\Local\Temp\ccbEAAPX.s 			page 144


 7038 0383 00       		.byte	0
 7039 0384 00       		.byte	0
 7040 0385 45       		.uleb128 0x45
 7041 0386 2E       		.uleb128 0x2e
 7042 0387 01       		.byte	0x1
 7043 0388 3F       		.uleb128 0x3f
 7044 0389 19       		.uleb128 0x19
 7045 038a 03       		.uleb128 0x3
 7046 038b 0E       		.uleb128 0xe
 7047 038c 3A       		.uleb128 0x3a
 7048 038d 0B       		.uleb128 0xb
 7049 038e 3B       		.uleb128 0x3b
 7050 038f 05       		.uleb128 0x5
 7051 0390 27       		.uleb128 0x27
 7052 0391 19       		.uleb128 0x19
 7053 0392 20       		.uleb128 0x20
 7054 0393 0B       		.uleb128 0xb
 7055 0394 01       		.uleb128 0x1
 7056 0395 13       		.uleb128 0x13
 7057 0396 00       		.byte	0
 7058 0397 00       		.byte	0
 7059 0398 46       		.uleb128 0x46
 7060 0399 2E       		.uleb128 0x2e
 7061 039a 01       		.byte	0x1
 7062 039b 3F       		.uleb128 0x3f
 7063 039c 19       		.uleb128 0x19
 7064 039d 03       		.uleb128 0x3
 7065 039e 0E       		.uleb128 0xe
 7066 039f 3A       		.uleb128 0x3a
 7067 03a0 0B       		.uleb128 0xb
 7068 03a1 3B       		.uleb128 0x3b
 7069 03a2 0B       		.uleb128 0xb
 7070 03a3 27       		.uleb128 0x27
 7071 03a4 19       		.uleb128 0x19
 7072 03a5 49       		.uleb128 0x49
 7073 03a6 13       		.uleb128 0x13
 7074 03a7 11       		.uleb128 0x11
 7075 03a8 01       		.uleb128 0x1
 7076 03a9 12       		.uleb128 0x12
 7077 03aa 06       		.uleb128 0x6
 7078 03ab 40       		.uleb128 0x40
 7079 03ac 18       		.uleb128 0x18
 7080 03ad 9742     		.uleb128 0x2117
 7081 03af 19       		.uleb128 0x19
 7082 03b0 01       		.uleb128 0x1
 7083 03b1 13       		.uleb128 0x13
 7084 03b2 00       		.byte	0
 7085 03b3 00       		.byte	0
 7086 03b4 47       		.uleb128 0x47
 7087 03b5 05       		.uleb128 0x5
 7088 03b6 00       		.byte	0
 7089 03b7 03       		.uleb128 0x3
 7090 03b8 08       		.uleb128 0x8
 7091 03b9 3A       		.uleb128 0x3a
 7092 03ba 0B       		.uleb128 0xb
 7093 03bb 3B       		.uleb128 0x3b
 7094 03bc 0B       		.uleb128 0xb
ARM GAS  C:\Users\pearlstl\AppData\Local\Temp\ccbEAAPX.s 			page 145


 7095 03bd 49       		.uleb128 0x49
 7096 03be 13       		.uleb128 0x13
 7097 03bf 02       		.uleb128 0x2
 7098 03c0 17       		.uleb128 0x17
 7099 03c1 00       		.byte	0
 7100 03c2 00       		.byte	0
 7101 03c3 48       		.uleb128 0x48
 7102 03c4 05       		.uleb128 0x5
 7103 03c5 00       		.byte	0
 7104 03c6 03       		.uleb128 0x3
 7105 03c7 0E       		.uleb128 0xe
 7106 03c8 3A       		.uleb128 0x3a
 7107 03c9 0B       		.uleb128 0xb
 7108 03ca 3B       		.uleb128 0x3b
 7109 03cb 0B       		.uleb128 0xb
 7110 03cc 49       		.uleb128 0x49
 7111 03cd 13       		.uleb128 0x13
 7112 03ce 02       		.uleb128 0x2
 7113 03cf 17       		.uleb128 0x17
 7114 03d0 00       		.byte	0
 7115 03d1 00       		.byte	0
 7116 03d2 49       		.uleb128 0x49
 7117 03d3 34       		.uleb128 0x34
 7118 03d4 00       		.byte	0
 7119 03d5 03       		.uleb128 0x3
 7120 03d6 0E       		.uleb128 0xe
 7121 03d7 3A       		.uleb128 0x3a
 7122 03d8 0B       		.uleb128 0xb
 7123 03d9 3B       		.uleb128 0x3b
 7124 03da 0B       		.uleb128 0xb
 7125 03db 49       		.uleb128 0x49
 7126 03dc 13       		.uleb128 0x13
 7127 03dd 02       		.uleb128 0x2
 7128 03de 17       		.uleb128 0x17
 7129 03df 00       		.byte	0
 7130 03e0 00       		.byte	0
 7131 03e1 4A       		.uleb128 0x4a
 7132 03e2 34       		.uleb128 0x34
 7133 03e3 00       		.byte	0
 7134 03e4 03       		.uleb128 0x3
 7135 03e5 08       		.uleb128 0x8
 7136 03e6 3A       		.uleb128 0x3a
 7137 03e7 0B       		.uleb128 0xb
 7138 03e8 3B       		.uleb128 0x3b
 7139 03e9 0B       		.uleb128 0xb
 7140 03ea 49       		.uleb128 0x49
 7141 03eb 13       		.uleb128 0x13
 7142 03ec 02       		.uleb128 0x2
 7143 03ed 17       		.uleb128 0x17
 7144 03ee 00       		.byte	0
 7145 03ef 00       		.byte	0
 7146 03f0 4B       		.uleb128 0x4b
 7147 03f1 0B       		.uleb128 0xb
 7148 03f2 01       		.byte	0x1
 7149 03f3 11       		.uleb128 0x11
 7150 03f4 01       		.uleb128 0x1
 7151 03f5 12       		.uleb128 0x12
ARM GAS  C:\Users\pearlstl\AppData\Local\Temp\ccbEAAPX.s 			page 146


 7152 03f6 06       		.uleb128 0x6
 7153 03f7 01       		.uleb128 0x1
 7154 03f8 13       		.uleb128 0x13
 7155 03f9 00       		.byte	0
 7156 03fa 00       		.byte	0
 7157 03fb 4C       		.uleb128 0x4c
 7158 03fc 1D       		.uleb128 0x1d
 7159 03fd 01       		.byte	0x1
 7160 03fe 31       		.uleb128 0x31
 7161 03ff 13       		.uleb128 0x13
 7162 0400 11       		.uleb128 0x11
 7163 0401 01       		.uleb128 0x1
 7164 0402 12       		.uleb128 0x12
 7165 0403 06       		.uleb128 0x6
 7166 0404 58       		.uleb128 0x58
 7167 0405 0B       		.uleb128 0xb
 7168 0406 59       		.uleb128 0x59
 7169 0407 0B       		.uleb128 0xb
 7170 0408 01       		.uleb128 0x1
 7171 0409 13       		.uleb128 0x13
 7172 040a 00       		.byte	0
 7173 040b 00       		.byte	0
 7174 040c 4D       		.uleb128 0x4d
 7175 040d 1D       		.uleb128 0x1d
 7176 040e 01       		.byte	0x1
 7177 040f 31       		.uleb128 0x31
 7178 0410 13       		.uleb128 0x13
 7179 0411 52       		.uleb128 0x52
 7180 0412 01       		.uleb128 0x1
 7181 0413 55       		.uleb128 0x55
 7182 0414 17       		.uleb128 0x17
 7183 0415 58       		.uleb128 0x58
 7184 0416 0B       		.uleb128 0xb
 7185 0417 59       		.uleb128 0x59
 7186 0418 0B       		.uleb128 0xb
 7187 0419 01       		.uleb128 0x1
 7188 041a 13       		.uleb128 0x13
 7189 041b 00       		.byte	0
 7190 041c 00       		.byte	0
 7191 041d 4E       		.uleb128 0x4e
 7192 041e 2E       		.uleb128 0x2e
 7193 041f 01       		.byte	0x1
 7194 0420 3F       		.uleb128 0x3f
 7195 0421 19       		.uleb128 0x19
 7196 0422 03       		.uleb128 0x3
 7197 0423 0E       		.uleb128 0xe
 7198 0424 3A       		.uleb128 0x3a
 7199 0425 0B       		.uleb128 0xb
 7200 0426 3B       		.uleb128 0x3b
 7201 0427 0B       		.uleb128 0xb
 7202 0428 27       		.uleb128 0x27
 7203 0429 19       		.uleb128 0x19
 7204 042a 11       		.uleb128 0x11
 7205 042b 01       		.uleb128 0x1
 7206 042c 12       		.uleb128 0x12
 7207 042d 06       		.uleb128 0x6
 7208 042e 40       		.uleb128 0x40
ARM GAS  C:\Users\pearlstl\AppData\Local\Temp\ccbEAAPX.s 			page 147


 7209 042f 18       		.uleb128 0x18
 7210 0430 9742     		.uleb128 0x2117
 7211 0432 19       		.uleb128 0x19
 7212 0433 01       		.uleb128 0x1
 7213 0434 13       		.uleb128 0x13
 7214 0435 00       		.byte	0
 7215 0436 00       		.byte	0
 7216 0437 4F       		.uleb128 0x4f
 7217 0438 34       		.uleb128 0x34
 7218 0439 00       		.byte	0
 7219 043a 03       		.uleb128 0x3
 7220 043b 08       		.uleb128 0x8
 7221 043c 3A       		.uleb128 0x3a
 7222 043d 0B       		.uleb128 0xb
 7223 043e 3B       		.uleb128 0x3b
 7224 043f 0B       		.uleb128 0xb
 7225 0440 49       		.uleb128 0x49
 7226 0441 13       		.uleb128 0x13
 7227 0442 02       		.uleb128 0x2
 7228 0443 18       		.uleb128 0x18
 7229 0444 00       		.byte	0
 7230 0445 00       		.byte	0
 7231 0446 50       		.uleb128 0x50
 7232 0447 05       		.uleb128 0x5
 7233 0448 00       		.byte	0
 7234 0449 31       		.uleb128 0x31
 7235 044a 13       		.uleb128 0x13
 7236 044b 02       		.uleb128 0x2
 7237 044c 18       		.uleb128 0x18
 7238 044d 00       		.byte	0
 7239 044e 00       		.byte	0
 7240 044f 51       		.uleb128 0x51
 7241 0450 2E       		.uleb128 0x2e
 7242 0451 01       		.byte	0x1
 7243 0452 3F       		.uleb128 0x3f
 7244 0453 19       		.uleb128 0x19
 7245 0454 03       		.uleb128 0x3
 7246 0455 0E       		.uleb128 0xe
 7247 0456 3A       		.uleb128 0x3a
 7248 0457 0B       		.uleb128 0xb
 7249 0458 3B       		.uleb128 0x3b
 7250 0459 05       		.uleb128 0x5
 7251 045a 27       		.uleb128 0x27
 7252 045b 19       		.uleb128 0x19
 7253 045c 49       		.uleb128 0x49
 7254 045d 13       		.uleb128 0x13
 7255 045e 11       		.uleb128 0x11
 7256 045f 01       		.uleb128 0x1
 7257 0460 12       		.uleb128 0x12
 7258 0461 06       		.uleb128 0x6
 7259 0462 40       		.uleb128 0x40
 7260 0463 18       		.uleb128 0x18
 7261 0464 9742     		.uleb128 0x2117
 7262 0466 19       		.uleb128 0x19
 7263 0467 01       		.uleb128 0x1
 7264 0468 13       		.uleb128 0x13
 7265 0469 00       		.byte	0
ARM GAS  C:\Users\pearlstl\AppData\Local\Temp\ccbEAAPX.s 			page 148


 7266 046a 00       		.byte	0
 7267 046b 52       		.uleb128 0x52
 7268 046c 34       		.uleb128 0x34
 7269 046d 00       		.byte	0
 7270 046e 03       		.uleb128 0x3
 7271 046f 0E       		.uleb128 0xe
 7272 0470 3A       		.uleb128 0x3a
 7273 0471 0B       		.uleb128 0xb
 7274 0472 3B       		.uleb128 0x3b
 7275 0473 05       		.uleb128 0x5
 7276 0474 49       		.uleb128 0x49
 7277 0475 13       		.uleb128 0x13
 7278 0476 00       		.byte	0
 7279 0477 00       		.byte	0
 7280 0478 53       		.uleb128 0x53
 7281 0479 34       		.uleb128 0x34
 7282 047a 00       		.byte	0
 7283 047b 03       		.uleb128 0x3
 7284 047c 0E       		.uleb128 0xe
 7285 047d 3A       		.uleb128 0x3a
 7286 047e 0B       		.uleb128 0xb
 7287 047f 3B       		.uleb128 0x3b
 7288 0480 0B       		.uleb128 0xb
 7289 0481 49       		.uleb128 0x49
 7290 0482 13       		.uleb128 0x13
 7291 0483 02       		.uleb128 0x2
 7292 0484 18       		.uleb128 0x18
 7293 0485 00       		.byte	0
 7294 0486 00       		.byte	0
 7295 0487 54       		.uleb128 0x54
 7296 0488 34       		.uleb128 0x34
 7297 0489 00       		.byte	0
 7298 048a 03       		.uleb128 0x3
 7299 048b 0E       		.uleb128 0xe
 7300 048c 3A       		.uleb128 0x3a
 7301 048d 0B       		.uleb128 0xb
 7302 048e 3B       		.uleb128 0x3b
 7303 048f 05       		.uleb128 0x5
 7304 0490 49       		.uleb128 0x49
 7305 0491 13       		.uleb128 0x13
 7306 0492 3F       		.uleb128 0x3f
 7307 0493 19       		.uleb128 0x19
 7308 0494 3C       		.uleb128 0x3c
 7309 0495 19       		.uleb128 0x19
 7310 0496 00       		.byte	0
 7311 0497 00       		.byte	0
 7312 0498 55       		.uleb128 0x55
 7313 0499 2E       		.uleb128 0x2e
 7314 049a 00       		.byte	0
 7315 049b 3F       		.uleb128 0x3f
 7316 049c 19       		.uleb128 0x19
 7317 049d 3C       		.uleb128 0x3c
 7318 049e 19       		.uleb128 0x19
 7319 049f 6E       		.uleb128 0x6e
 7320 04a0 0E       		.uleb128 0xe
 7321 04a1 03       		.uleb128 0x3
 7322 04a2 0E       		.uleb128 0xe
ARM GAS  C:\Users\pearlstl\AppData\Local\Temp\ccbEAAPX.s 			page 149


 7323 04a3 3A       		.uleb128 0x3a
 7324 04a4 0B       		.uleb128 0xb
 7325 04a5 3B       		.uleb128 0x3b
 7326 04a6 05       		.uleb128 0x5
 7327 04a7 00       		.byte	0
 7328 04a8 00       		.byte	0
 7329 04a9 56       		.uleb128 0x56
 7330 04aa 2E       		.uleb128 0x2e
 7331 04ab 00       		.byte	0
 7332 04ac 3F       		.uleb128 0x3f
 7333 04ad 19       		.uleb128 0x19
 7334 04ae 3C       		.uleb128 0x3c
 7335 04af 19       		.uleb128 0x19
 7336 04b0 6E       		.uleb128 0x6e
 7337 04b1 0E       		.uleb128 0xe
 7338 04b2 03       		.uleb128 0x3
 7339 04b3 0E       		.uleb128 0xe
 7340 04b4 3A       		.uleb128 0x3a
 7341 04b5 0B       		.uleb128 0xb
 7342 04b6 3B       		.uleb128 0x3b
 7343 04b7 0B       		.uleb128 0xb
 7344 04b8 00       		.byte	0
 7345 04b9 00       		.byte	0
 7346 04ba 00       		.byte	0
 7347              		.section	.debug_loc,"",%progbits
 7348              	.Ldebug_loc0:
 7349              	.LLST0:
 7350 0000 00000000 		.4byte	.LVL0
 7351 0004 10000000 		.4byte	.LVL1
 7352 0008 0100     		.2byte	0x1
 7353 000a 50       		.byte	0x50
 7354 000b 10000000 		.4byte	.LVL1
 7355 000f 12000000 		.4byte	.LVL2
 7356 0013 0400     		.2byte	0x4
 7357 0015 F3       		.byte	0xf3
 7358 0016 01       		.uleb128 0x1
 7359 0017 50       		.byte	0x50
 7360 0018 9F       		.byte	0x9f
 7361 0019 12000000 		.4byte	.LVL2
 7362 001d 14000000 		.4byte	.LVL3
 7363 0021 0100     		.2byte	0x1
 7364 0023 50       		.byte	0x50
 7365 0024 14000000 		.4byte	.LVL3
 7366 0028 16000000 		.4byte	.LVL4
 7367 002c 0400     		.2byte	0x4
 7368 002e F3       		.byte	0xf3
 7369 002f 01       		.uleb128 0x1
 7370 0030 50       		.byte	0x50
 7371 0031 9F       		.byte	0x9f
 7372 0032 16000000 		.4byte	.LVL4
 7373 0036 1B000000 		.4byte	.LVL5-1
 7374 003a 0100     		.2byte	0x1
 7375 003c 50       		.byte	0x50
 7376 003d 1B000000 		.4byte	.LVL5-1
 7377 0041 20000000 		.4byte	.LVL6
 7378 0045 0400     		.2byte	0x4
 7379 0047 F3       		.byte	0xf3
ARM GAS  C:\Users\pearlstl\AppData\Local\Temp\ccbEAAPX.s 			page 150


 7380 0048 01       		.uleb128 0x1
 7381 0049 50       		.byte	0x50
 7382 004a 9F       		.byte	0x9f
 7383 004b 20000000 		.4byte	.LVL6
 7384 004f 25000000 		.4byte	.LVL7-1
 7385 0053 0100     		.2byte	0x1
 7386 0055 50       		.byte	0x50
 7387 0056 25000000 		.4byte	.LVL7-1
 7388 005a 30000000 		.4byte	.LFE58
 7389 005e 0400     		.2byte	0x4
 7390 0060 F3       		.byte	0xf3
 7391 0061 01       		.uleb128 0x1
 7392 0062 50       		.byte	0x50
 7393 0063 9F       		.byte	0x9f
 7394 0064 00000000 		.4byte	0
 7395 0068 00000000 		.4byte	0
 7396              	.LLST1:
 7397 006c 00000000 		.4byte	.LVL0
 7398 0070 1B000000 		.4byte	.LVL5-1
 7399 0074 0100     		.2byte	0x1
 7400 0076 51       		.byte	0x51
 7401 0077 1B000000 		.4byte	.LVL5-1
 7402 007b 20000000 		.4byte	.LVL6
 7403 007f 0400     		.2byte	0x4
 7404 0081 F3       		.byte	0xf3
 7405 0082 01       		.uleb128 0x1
 7406 0083 51       		.byte	0x51
 7407 0084 9F       		.byte	0x9f
 7408 0085 20000000 		.4byte	.LVL6
 7409 0089 25000000 		.4byte	.LVL7-1
 7410 008d 0100     		.2byte	0x1
 7411 008f 51       		.byte	0x51
 7412 0090 25000000 		.4byte	.LVL7-1
 7413 0094 30000000 		.4byte	.LFE58
 7414 0098 0400     		.2byte	0x4
 7415 009a F3       		.byte	0xf3
 7416 009b 01       		.uleb128 0x1
 7417 009c 51       		.byte	0x51
 7418 009d 9F       		.byte	0x9f
 7419 009e 00000000 		.4byte	0
 7420 00a2 00000000 		.4byte	0
 7421              	.LLST2:
 7422 00a6 00000000 		.4byte	.LVL0
 7423 00aa 1B000000 		.4byte	.LVL5-1
 7424 00ae 0100     		.2byte	0x1
 7425 00b0 52       		.byte	0x52
 7426 00b1 1B000000 		.4byte	.LVL5-1
 7427 00b5 20000000 		.4byte	.LVL6
 7428 00b9 0400     		.2byte	0x4
 7429 00bb F3       		.byte	0xf3
 7430 00bc 01       		.uleb128 0x1
 7431 00bd 52       		.byte	0x52
 7432 00be 9F       		.byte	0x9f
 7433 00bf 20000000 		.4byte	.LVL6
 7434 00c3 25000000 		.4byte	.LVL7-1
 7435 00c7 0100     		.2byte	0x1
 7436 00c9 52       		.byte	0x52
ARM GAS  C:\Users\pearlstl\AppData\Local\Temp\ccbEAAPX.s 			page 151


 7437 00ca 25000000 		.4byte	.LVL7-1
 7438 00ce 30000000 		.4byte	.LFE58
 7439 00d2 0400     		.2byte	0x4
 7440 00d4 F3       		.byte	0xf3
 7441 00d5 01       		.uleb128 0x1
 7442 00d6 52       		.byte	0x52
 7443 00d7 9F       		.byte	0x9f
 7444 00d8 00000000 		.4byte	0
 7445 00dc 00000000 		.4byte	0
 7446              	.LLST3:
 7447 00e0 20000000 		.4byte	.LVL6
 7448 00e4 26000000 		.4byte	.LVL7
 7449 00e8 0200     		.2byte	0x2
 7450 00ea 31       		.byte	0x31
 7451 00eb 9F       		.byte	0x9f
 7452 00ec 00000000 		.4byte	0
 7453 00f0 00000000 		.4byte	0
 7454              	.LLST4:
 7455 00f4 00000000 		.4byte	.LVL8
 7456 00f8 07000000 		.4byte	.LVL9-1
 7457 00fc 0100     		.2byte	0x1
 7458 00fe 50       		.byte	0x50
 7459 00ff 07000000 		.4byte	.LVL9-1
 7460 0103 24000000 		.4byte	.LVL11
 7461 0107 0100     		.2byte	0x1
 7462 0109 54       		.byte	0x54
 7463 010a 24000000 		.4byte	.LVL11
 7464 010e 27000000 		.4byte	.LVL12-1
 7465 0112 0100     		.2byte	0x1
 7466 0114 50       		.byte	0x50
 7467 0115 27000000 		.4byte	.LVL12-1
 7468 0119 28000000 		.4byte	.LVL12
 7469 011d 0400     		.2byte	0x4
 7470 011f F3       		.byte	0xf3
 7471 0120 01       		.uleb128 0x1
 7472 0121 50       		.byte	0x50
 7473 0122 9F       		.byte	0x9f
 7474 0123 28000000 		.4byte	.LVL12
 7475 0127 2A000000 		.4byte	.LFE70
 7476 012b 0100     		.2byte	0x1
 7477 012d 54       		.byte	0x54
 7478 012e 00000000 		.4byte	0
 7479 0132 00000000 		.4byte	0
 7480              	.LLST5:
 7481 0136 08000000 		.4byte	.LVL9
 7482 013a 1C000000 		.4byte	.LVL10
 7483 013e 0100     		.2byte	0x1
 7484 0140 50       		.byte	0x50
 7485 0141 1C000000 		.4byte	.LVL10
 7486 0145 27000000 		.4byte	.LVL12-1
 7487 0149 0100     		.2byte	0x1
 7488 014b 52       		.byte	0x52
 7489 014c 28000000 		.4byte	.LVL12
 7490 0150 2A000000 		.4byte	.LFE70
 7491 0154 0100     		.2byte	0x1
 7492 0156 50       		.byte	0x50
 7493 0157 00000000 		.4byte	0
ARM GAS  C:\Users\pearlstl\AppData\Local\Temp\ccbEAAPX.s 			page 152


 7494 015b 00000000 		.4byte	0
 7495              	.LLST6:
 7496 015f 00000000 		.4byte	.LVL13
 7497 0163 07000000 		.4byte	.LVL14-1
 7498 0167 0100     		.2byte	0x1
 7499 0169 50       		.byte	0x50
 7500 016a 07000000 		.4byte	.LVL14-1
 7501 016e 1C000000 		.4byte	.LVL16
 7502 0172 0100     		.2byte	0x1
 7503 0174 54       		.byte	0x54
 7504 0175 1C000000 		.4byte	.LVL16
 7505 0179 1F000000 		.4byte	.LVL17-1
 7506 017d 0100     		.2byte	0x1
 7507 017f 50       		.byte	0x50
 7508 0180 1F000000 		.4byte	.LVL17-1
 7509 0184 20000000 		.4byte	.LVL17
 7510 0188 0400     		.2byte	0x4
 7511 018a F3       		.byte	0xf3
 7512 018b 01       		.uleb128 0x1
 7513 018c 50       		.byte	0x50
 7514 018d 9F       		.byte	0x9f
 7515 018e 20000000 		.4byte	.LVL17
 7516 0192 22000000 		.4byte	.LFE69
 7517 0196 0100     		.2byte	0x1
 7518 0198 54       		.byte	0x54
 7519 0199 00000000 		.4byte	0
 7520 019d 00000000 		.4byte	0
 7521              	.LLST7:
 7522 01a1 08000000 		.4byte	.LVL14
 7523 01a5 18000000 		.4byte	.LVL15
 7524 01a9 0100     		.2byte	0x1
 7525 01ab 50       		.byte	0x50
 7526 01ac 20000000 		.4byte	.LVL17
 7527 01b0 22000000 		.4byte	.LFE69
 7528 01b4 0100     		.2byte	0x1
 7529 01b6 50       		.byte	0x50
 7530 01b7 00000000 		.4byte	0
 7531 01bb 00000000 		.4byte	0
 7532              	.LLST8:
 7533 01bf 00000000 		.4byte	.LVL18
 7534 01c3 11000000 		.4byte	.LVL19-1
 7535 01c7 0100     		.2byte	0x1
 7536 01c9 50       		.byte	0x50
 7537 01ca 11000000 		.4byte	.LVL19-1
 7538 01ce F6010000 		.4byte	.LVL74
 7539 01d2 0100     		.2byte	0x1
 7540 01d4 56       		.byte	0x56
 7541 01d5 F6010000 		.4byte	.LVL74
 7542 01d9 F9010000 		.4byte	.LVL75-1
 7543 01dd 0100     		.2byte	0x1
 7544 01df 50       		.byte	0x50
 7545 01e0 F9010000 		.4byte	.LVL75-1
 7546 01e4 02020000 		.4byte	.LVL76
 7547 01e8 0100     		.2byte	0x1
 7548 01ea 56       		.byte	0x56
 7549 01eb 02020000 		.4byte	.LVL76
 7550 01ef 05020000 		.4byte	.LVL77-1
ARM GAS  C:\Users\pearlstl\AppData\Local\Temp\ccbEAAPX.s 			page 153


 7551 01f3 0100     		.2byte	0x1
 7552 01f5 50       		.byte	0x50
 7553 01f6 05020000 		.4byte	.LVL77-1
 7554 01fa 16020000 		.4byte	.LVL79
 7555 01fe 0100     		.2byte	0x1
 7556 0200 56       		.byte	0x56
 7557 0201 16020000 		.4byte	.LVL79
 7558 0205 19020000 		.4byte	.LVL80-1
 7559 0209 0100     		.2byte	0x1
 7560 020b 50       		.byte	0x50
 7561 020c 19020000 		.4byte	.LVL80-1
 7562 0210 1C020000 		.4byte	.LVL81
 7563 0214 0100     		.2byte	0x1
 7564 0216 56       		.byte	0x56
 7565 0217 1C020000 		.4byte	.LVL81
 7566 021b 1F020000 		.4byte	.LVL82-1
 7567 021f 0100     		.2byte	0x1
 7568 0221 50       		.byte	0x50
 7569 0222 1F020000 		.4byte	.LVL82-1
 7570 0226 2C020000 		.4byte	.LFE59
 7571 022a 0100     		.2byte	0x1
 7572 022c 56       		.byte	0x56
 7573 022d 00000000 		.4byte	0
 7574 0231 00000000 		.4byte	0
 7575              	.LLST9:
 7576 0235 00000000 		.4byte	.LVL18
 7577 0239 11000000 		.4byte	.LVL19-1
 7578 023d 0100     		.2byte	0x1
 7579 023f 51       		.byte	0x51
 7580 0240 11000000 		.4byte	.LVL19-1
 7581 0244 2C020000 		.4byte	.LFE59
 7582 0248 0400     		.2byte	0x4
 7583 024a F3       		.byte	0xf3
 7584 024b 01       		.uleb128 0x1
 7585 024c 51       		.byte	0x51
 7586 024d 9F       		.byte	0x9f
 7587 024e 00000000 		.4byte	0
 7588 0252 00000000 		.4byte	0
 7589              	.LLST10:
 7590 0256 00000000 		.4byte	.LVL18
 7591 025a 11000000 		.4byte	.LVL19-1
 7592 025e 0100     		.2byte	0x1
 7593 0260 52       		.byte	0x52
 7594 0261 11000000 		.4byte	.LVL19-1
 7595 0265 2C020000 		.4byte	.LFE59
 7596 0269 0100     		.2byte	0x1
 7597 026b 57       		.byte	0x57
 7598 026c 00000000 		.4byte	0
 7599 0270 00000000 		.4byte	0
 7600              	.LLST11:
 7601 0274 16000000 		.4byte	.LVL20
 7602 0278 1A000000 		.4byte	.LVL21
 7603 027c 0100     		.2byte	0x1
 7604 027e 50       		.byte	0x50
 7605 027f 22000000 		.4byte	.LVL22
 7606 0283 28000000 		.4byte	.LVL23
 7607 0287 0100     		.2byte	0x1
ARM GAS  C:\Users\pearlstl\AppData\Local\Temp\ccbEAAPX.s 			page 154


 7608 0289 50       		.byte	0x50
 7609 028a 4A000000 		.4byte	.LVL29
 7610 028e 54000000 		.4byte	.LVL30
 7611 0292 0200     		.2byte	0x2
 7612 0294 31       		.byte	0x31
 7613 0295 9F       		.byte	0x9f
 7614 0296 C0000000 		.4byte	.LVL42
 7615 029a C2000000 		.4byte	.LVL43
 7616 029e 0100     		.2byte	0x1
 7617 02a0 50       		.byte	0x50
 7618 02a1 14010000 		.4byte	.LVL53
 7619 02a5 18010000 		.4byte	.LVL54
 7620 02a9 0100     		.2byte	0x1
 7621 02ab 50       		.byte	0x50
 7622 02ac 70010000 		.4byte	.LVL58
 7623 02b0 7A010000 		.4byte	.LVL59
 7624 02b4 0100     		.2byte	0x1
 7625 02b6 50       		.byte	0x50
 7626 02b7 00000000 		.4byte	0
 7627 02bb 00000000 		.4byte	0
 7628              	.LLST12:
 7629 02bf 2E000000 		.4byte	.LVL25
 7630 02c3 30000000 		.4byte	.LVL26
 7631 02c7 0100     		.2byte	0x1
 7632 02c9 50       		.byte	0x50
 7633 02ca 30000000 		.4byte	.LVL26
 7634 02ce C0000000 		.4byte	.LVL42
 7635 02d2 0100     		.2byte	0x1
 7636 02d4 58       		.byte	0x58
 7637 02d5 CC000000 		.4byte	.LVL45
 7638 02d9 2C020000 		.4byte	.LFE59
 7639 02dd 0100     		.2byte	0x1
 7640 02df 58       		.byte	0x58
 7641 02e0 00000000 		.4byte	0
 7642 02e4 00000000 		.4byte	0
 7643              	.LLST13:
 7644 02e8 2E000000 		.4byte	.LVL25
 7645 02ec 38000000 		.4byte	.LVL28
 7646 02f0 0100     		.2byte	0x1
 7647 02f2 56       		.byte	0x56
 7648 02f3 00000000 		.4byte	0
 7649 02f7 00000000 		.4byte	0
 7650              	.LLST14:
 7651 02fb 66000000 		.4byte	.LVL31
 7652 02ff 8C000000 		.4byte	.LVL36
 7653 0303 0200     		.2byte	0x2
 7654 0305 32       		.byte	0x32
 7655 0306 9F       		.byte	0x9f
 7656 0307 00000000 		.4byte	0
 7657 030b 00000000 		.4byte	0
 7658              	.LLST15:
 7659 030f 66000000 		.4byte	.LVL31
 7660 0313 8C000000 		.4byte	.LVL36
 7661 0317 0100     		.2byte	0x1
 7662 0319 56       		.byte	0x56
 7663 031a 00000000 		.4byte	0
 7664 031e 00000000 		.4byte	0
ARM GAS  C:\Users\pearlstl\AppData\Local\Temp\ccbEAAPX.s 			page 155


 7665              	.LLST16:
 7666 0322 76000000 		.4byte	.LVL33
 7667 0326 80000000 		.4byte	.LVL34
 7668 032a 0100     		.2byte	0x1
 7669 032c 50       		.byte	0x50
 7670 032d 80000000 		.4byte	.LVL34
 7671 0331 89000000 		.4byte	.LVL35-1
 7672 0335 0100     		.2byte	0x1
 7673 0337 52       		.byte	0x52
 7674 0338 00000000 		.4byte	0
 7675 033c 00000000 		.4byte	0
 7676              	.LLST17:
 7677 0340 9A000000 		.4byte	.LVL37
 7678 0344 C0000000 		.4byte	.LVL42
 7679 0348 0200     		.2byte	0x2
 7680 034a 33       		.byte	0x33
 7681 034b 9F       		.byte	0x9f
 7682 034c 00000000 		.4byte	0
 7683 0350 00000000 		.4byte	0
 7684              	.LLST18:
 7685 0354 9A000000 		.4byte	.LVL37
 7686 0358 C0000000 		.4byte	.LVL42
 7687 035c 0100     		.2byte	0x1
 7688 035e 56       		.byte	0x56
 7689 035f 00000000 		.4byte	0
 7690 0363 00000000 		.4byte	0
 7691              	.LLST19:
 7692 0367 AA000000 		.4byte	.LVL39
 7693 036b B4000000 		.4byte	.LVL40
 7694 036f 0100     		.2byte	0x1
 7695 0371 50       		.byte	0x50
 7696 0372 B4000000 		.4byte	.LVL40
 7697 0376 BD000000 		.4byte	.LVL41-1
 7698 037a 0100     		.2byte	0x1
 7699 037c 52       		.byte	0x52
 7700 037d 00000000 		.4byte	0
 7701 0381 00000000 		.4byte	0
 7702              	.LLST20:
 7703 0385 CE000000 		.4byte	.LVL46
 7704 0389 E3000000 		.4byte	.LVL48-1
 7705 038d 0100     		.2byte	0x1
 7706 038f 53       		.byte	0x53
 7707 0390 9E010000 		.4byte	.LVL63
 7708 0394 A3010000 		.4byte	.LVL64-1
 7709 0398 0100     		.2byte	0x1
 7710 039a 53       		.byte	0x53
 7711 039b 00000000 		.4byte	0
 7712 039f 00000000 		.4byte	0
 7713              	.LLST21:
 7714 03a3 DE000000 		.4byte	.LVL47
 7715 03a7 E4000000 		.4byte	.LVL48
 7716 03ab 0100     		.2byte	0x1
 7717 03ad 56       		.byte	0x56
 7718 03ae 00000000 		.4byte	0
 7719 03b2 00000000 		.4byte	0
 7720              	.LLST22:
 7721 03b6 EA000000 		.4byte	.LVL49
ARM GAS  C:\Users\pearlstl\AppData\Local\Temp\ccbEAAPX.s 			page 156


 7722 03ba 04010000 		.4byte	.LVL52
 7723 03be 0200     		.2byte	0x2
 7724 03c0 30       		.byte	0x30
 7725 03c1 9F       		.byte	0x9f
 7726 03c2 00000000 		.4byte	0
 7727 03c6 00000000 		.4byte	0
 7728              	.LLST23:
 7729 03ca EA000000 		.4byte	.LVL49
 7730 03ce 04010000 		.4byte	.LVL52
 7731 03d2 0100     		.2byte	0x1
 7732 03d4 56       		.byte	0x56
 7733 03d5 00000000 		.4byte	0
 7734 03d9 00000000 		.4byte	0
 7735              	.LLST24:
 7736 03dd F0000000 		.4byte	.LVL50
 7737 03e1 00010000 		.4byte	.LVL51
 7738 03e5 0100     		.2byte	0x1
 7739 03e7 50       		.byte	0x50
 7740 03e8 00000000 		.4byte	0
 7741 03ec 00000000 		.4byte	0
 7742              	.LLST25:
 7743 03f0 9E010000 		.4byte	.LVL63
 7744 03f4 A4010000 		.4byte	.LVL64
 7745 03f8 0100     		.2byte	0x1
 7746 03fa 56       		.byte	0x56
 7747 03fb 00000000 		.4byte	0
 7748 03ff 00000000 		.4byte	0
 7749              	.LLST26:
 7750 0403 AC010000 		.4byte	.LVL65
 7751 0407 CE010000 		.4byte	.LVL68
 7752 040b 0200     		.2byte	0x2
 7753 040d 32       		.byte	0x32
 7754 040e 9F       		.byte	0x9f
 7755 040f 00000000 		.4byte	0
 7756 0413 00000000 		.4byte	0
 7757              	.LLST27:
 7758 0417 AC010000 		.4byte	.LVL65
 7759 041b CE010000 		.4byte	.LVL68
 7760 041f 0100     		.2byte	0x1
 7761 0421 56       		.byte	0x56
 7762 0422 00000000 		.4byte	0
 7763 0426 00000000 		.4byte	0
 7764              	.LLST28:
 7765 042a B2010000 		.4byte	.LVL66
 7766 042e CA010000 		.4byte	.LVL67
 7767 0432 0100     		.2byte	0x1
 7768 0434 50       		.byte	0x50
 7769 0435 00000000 		.4byte	0
 7770 0439 00000000 		.4byte	0
 7771              	.LLST29:
 7772 043d 1A020000 		.4byte	.LVL80
 7773 0441 1C020000 		.4byte	.LVL81
 7774 0445 0200     		.2byte	0x2
 7775 0447 30       		.byte	0x30
 7776 0448 9F       		.byte	0x9f
 7777 0449 20020000 		.4byte	.LVL82
 7778 044d 2C020000 		.4byte	.LFE59
ARM GAS  C:\Users\pearlstl\AppData\Local\Temp\ccbEAAPX.s 			page 157


 7779 0451 0200     		.2byte	0x2
 7780 0453 31       		.byte	0x31
 7781 0454 9F       		.byte	0x9f
 7782 0455 00000000 		.4byte	0
 7783 0459 00000000 		.4byte	0
 7784              	.LLST30:
 7785 045d 7A010000 		.4byte	.LVL59
 7786 0461 9E010000 		.4byte	.LVL63
 7787 0465 0200     		.2byte	0x2
 7788 0467 31       		.byte	0x31
 7789 0468 9F       		.byte	0x9f
 7790 0469 00000000 		.4byte	0
 7791 046d 00000000 		.4byte	0
 7792              	.LLST31:
 7793 0471 7A010000 		.4byte	.LVL59
 7794 0475 9E010000 		.4byte	.LVL63
 7795 0479 0100     		.2byte	0x1
 7796 047b 56       		.byte	0x56
 7797 047c 00000000 		.4byte	0
 7798 0480 00000000 		.4byte	0
 7799              	.LLST32:
 7800 0484 80010000 		.4byte	.LVL60
 7801 0488 96010000 		.4byte	.LVL61
 7802 048c 0100     		.2byte	0x1
 7803 048e 50       		.byte	0x50
 7804 048f 00000000 		.4byte	0
 7805 0493 00000000 		.4byte	0
 7806              	.LLST33:
 7807 0497 D4010000 		.4byte	.LVL69
 7808 049b F2010000 		.4byte	.LVL73
 7809 049f 0200     		.2byte	0x2
 7810 04a1 30       		.byte	0x30
 7811 04a2 9F       		.byte	0x9f
 7812 04a3 00000000 		.4byte	0
 7813 04a7 00000000 		.4byte	0
 7814              	.LLST34:
 7815 04ab D4010000 		.4byte	.LVL69
 7816 04af F2010000 		.4byte	.LVL73
 7817 04b3 0100     		.2byte	0x1
 7818 04b5 56       		.byte	0x56
 7819 04b6 00000000 		.4byte	0
 7820 04ba 00000000 		.4byte	0
 7821              	.LLST35:
 7822 04be DA010000 		.4byte	.LVL70
 7823 04c2 EC010000 		.4byte	.LVL71
 7824 04c6 0100     		.2byte	0x1
 7825 04c8 50       		.byte	0x50
 7826 04c9 00000000 		.4byte	0
 7827 04cd 00000000 		.4byte	0
 7828              	.LLST36:
 7829 04d1 00000000 		.4byte	.LVL83
 7830 04d5 09000000 		.4byte	.LVL84-1
 7831 04d9 0100     		.2byte	0x1
 7832 04db 50       		.byte	0x50
 7833 04dc 09000000 		.4byte	.LVL84-1
 7834 04e0 8C000000 		.4byte	.LVL92
 7835 04e4 0100     		.2byte	0x1
ARM GAS  C:\Users\pearlstl\AppData\Local\Temp\ccbEAAPX.s 			page 158


 7836 04e6 57       		.byte	0x57
 7837 04e7 8C000000 		.4byte	.LVL92
 7838 04eb A6000000 		.4byte	.LVL96
 7839 04ef 0400     		.2byte	0x4
 7840 04f1 F3       		.byte	0xf3
 7841 04f2 01       		.uleb128 0x1
 7842 04f3 50       		.byte	0x50
 7843 04f4 9F       		.byte	0x9f
 7844 04f5 A6000000 		.4byte	.LVL96
 7845 04f9 7E010000 		.4byte	.LVL140
 7846 04fd 0100     		.2byte	0x1
 7847 04ff 57       		.byte	0x57
 7848 0500 7E010000 		.4byte	.LVL140
 7849 0504 A0010000 		.4byte	.LFE44
 7850 0508 0400     		.2byte	0x4
 7851 050a F3       		.byte	0xf3
 7852 050b 01       		.uleb128 0x1
 7853 050c 50       		.byte	0x50
 7854 050d 9F       		.byte	0x9f
 7855 050e 00000000 		.4byte	0
 7856 0512 00000000 		.4byte	0
 7857              	.LLST37:
 7858 0516 00000000 		.4byte	.LVL83
 7859 051a 09000000 		.4byte	.LVL84-1
 7860 051e 0100     		.2byte	0x1
 7861 0520 51       		.byte	0x51
 7862 0521 09000000 		.4byte	.LVL84-1
 7863 0525 8E000000 		.4byte	.LVL93
 7864 0529 0100     		.2byte	0x1
 7865 052b 56       		.byte	0x56
 7866 052c 8E000000 		.4byte	.LVL93
 7867 0530 A6000000 		.4byte	.LVL96
 7868 0534 0400     		.2byte	0x4
 7869 0536 F3       		.byte	0xf3
 7870 0537 01       		.uleb128 0x1
 7871 0538 51       		.byte	0x51
 7872 0539 9F       		.byte	0x9f
 7873 053a A6000000 		.4byte	.LVL96
 7874 053e BE000000 		.4byte	.LVL101
 7875 0542 0100     		.2byte	0x1
 7876 0544 56       		.byte	0x56
 7877 0545 BE000000 		.4byte	.LVL101
 7878 0549 5C010000 		.4byte	.LVL133
 7879 054d 0400     		.2byte	0x4
 7880 054f F3       		.byte	0xf3
 7881 0550 01       		.uleb128 0x1
 7882 0551 51       		.byte	0x51
 7883 0552 9F       		.byte	0x9f
 7884 0553 5C010000 		.4byte	.LVL133
 7885 0557 72010000 		.4byte	.LVL137
 7886 055b 0100     		.2byte	0x1
 7887 055d 56       		.byte	0x56
 7888 055e 72010000 		.4byte	.LVL137
 7889 0562 A0010000 		.4byte	.LFE44
 7890 0566 0400     		.2byte	0x4
 7891 0568 F3       		.byte	0xf3
 7892 0569 01       		.uleb128 0x1
ARM GAS  C:\Users\pearlstl\AppData\Local\Temp\ccbEAAPX.s 			page 159


 7893 056a 51       		.byte	0x51
 7894 056b 9F       		.byte	0x9f
 7895 056c 00000000 		.4byte	0
 7896 0570 00000000 		.4byte	0
 7897              	.LLST38:
 7898 0574 0A000000 		.4byte	.LVL84
 7899 0578 1C000000 		.4byte	.LVL85
 7900 057c 0100     		.2byte	0x1
 7901 057e 50       		.byte	0x50
 7902 057f 1C000000 		.4byte	.LVL85
 7903 0583 5C010000 		.4byte	.LVL133
 7904 0587 0100     		.2byte	0x1
 7905 0589 55       		.byte	0x55
 7906 058a 5C010000 		.4byte	.LVL133
 7907 058e 5F010000 		.4byte	.LVL134-1
 7908 0592 0100     		.2byte	0x1
 7909 0594 50       		.byte	0x50
 7910 0595 5F010000 		.4byte	.LVL134-1
 7911 0599 6E010000 		.4byte	.LVL136
 7912 059d 0100     		.2byte	0x1
 7913 059f 55       		.byte	0x55
 7914 05a0 72010000 		.4byte	.LVL137
 7915 05a4 7E010000 		.4byte	.LVL140
 7916 05a8 0100     		.2byte	0x1
 7917 05aa 55       		.byte	0x55
 7918 05ab 7E010000 		.4byte	.LVL140
 7919 05af A0010000 		.4byte	.LFE44
 7920 05b3 0100     		.2byte	0x1
 7921 05b5 50       		.byte	0x50
 7922 05b6 00000000 		.4byte	0
 7923 05ba 00000000 		.4byte	0
 7924              	.LLST39:
 7925 05be 2E000000 		.4byte	.LVL86
 7926 05c2 3C000000 		.4byte	.LVL87
 7927 05c6 0100     		.2byte	0x1
 7928 05c8 50       		.byte	0x50
 7929 05c9 3C000000 		.4byte	.LVL87
 7930 05cd C6000000 		.4byte	.LVL103
 7931 05d1 0100     		.2byte	0x1
 7932 05d3 54       		.byte	0x54
 7933 05d4 72010000 		.4byte	.LVL137
 7934 05d8 7E010000 		.4byte	.LVL140
 7935 05dc 0100     		.2byte	0x1
 7936 05de 54       		.byte	0x54
 7937 05df 00000000 		.4byte	0
 7938 05e3 00000000 		.4byte	0
 7939              	.LLST40:
 7940 05e7 6E000000 		.4byte	.LVL90
 7941 05eb 8A000000 		.4byte	.LVL91
 7942 05ef 0100     		.2byte	0x1
 7943 05f1 50       		.byte	0x50
 7944 05f2 8A000000 		.4byte	.LVL91
 7945 05f6 9E000000 		.4byte	.LVL94
 7946 05fa 0300     		.2byte	0x3
 7947 05fc 70       		.byte	0x70
 7948 05fd 7C       		.sleb128 -4
 7949 05fe 9F       		.byte	0x9f
ARM GAS  C:\Users\pearlstl\AppData\Local\Temp\ccbEAAPX.s 			page 160


 7950 05ff 00000000 		.4byte	0
 7951 0603 00000000 		.4byte	0
 7952              	.LLST41:
 7953 0607 BC000000 		.4byte	.LVL100
 7954 060b C4000000 		.4byte	.LVL102
 7955 060f 0100     		.2byte	0x1
 7956 0611 50       		.byte	0x50
 7957 0612 C4000000 		.4byte	.LVL102
 7958 0616 5C010000 		.4byte	.LVL133
 7959 061a 0100     		.2byte	0x1
 7960 061c 56       		.byte	0x56
 7961 061d 72010000 		.4byte	.LVL137
 7962 0621 74010000 		.4byte	.LVL138
 7963 0625 0100     		.2byte	0x1
 7964 0627 50       		.byte	0x50
 7965 0628 74010000 		.4byte	.LVL138
 7966 062c 7E010000 		.4byte	.LVL140
 7967 0630 0100     		.2byte	0x1
 7968 0632 56       		.byte	0x56
 7969 0633 00000000 		.4byte	0
 7970 0637 00000000 		.4byte	0
 7971              	.LLST42:
 7972 063b A8000000 		.4byte	.LVL97
 7973 063f B0000000 		.4byte	.LVL98
 7974 0643 0200     		.2byte	0x2
 7975 0645 31       		.byte	0x31
 7976 0646 9F       		.byte	0x9f
 7977 0647 00000000 		.4byte	0
 7978 064b 00000000 		.4byte	0
 7979              	.LLST43:
 7980 064f A8000000 		.4byte	.LVL97
 7981 0653 B0000000 		.4byte	.LVL98
 7982 0657 0100     		.2byte	0x1
 7983 0659 55       		.byte	0x55
 7984 065a 00000000 		.4byte	0
 7985 065e 00000000 		.4byte	0
 7986              	.LLST44:
 7987 0662 C6000000 		.4byte	.LVL103
 7988 0666 E0000000 		.4byte	.LVL108
 7989 066a 0100     		.2byte	0x1
 7990 066c 54       		.byte	0x54
 7991 066d 00000000 		.4byte	0
 7992 0671 00000000 		.4byte	0
 7993              	.LLST45:
 7994 0675 C6000000 		.4byte	.LVL103
 7995 0679 E0000000 		.4byte	.LVL108
 7996 067d 0200     		.2byte	0x2
 7997 067f 30       		.byte	0x30
 7998 0680 9F       		.byte	0x9f
 7999 0681 00000000 		.4byte	0
 8000 0685 00000000 		.4byte	0
 8001              	.LLST46:
 8002 0689 C6000000 		.4byte	.LVL103
 8003 068d E0000000 		.4byte	.LVL108
 8004 0691 0100     		.2byte	0x1
 8005 0693 55       		.byte	0x55
 8006 0694 00000000 		.4byte	0
ARM GAS  C:\Users\pearlstl\AppData\Local\Temp\ccbEAAPX.s 			page 161


 8007 0698 00000000 		.4byte	0
 8008              	.LLST47:
 8009 069c CC000000 		.4byte	.LVL105
 8010 06a0 CE000000 		.4byte	.LVL106
 8011 06a4 0100     		.2byte	0x1
 8012 06a6 50       		.byte	0x50
 8013 06a7 CE000000 		.4byte	.LVL106
 8014 06ab DA000000 		.4byte	.LVL107
 8015 06af 0100     		.2byte	0x1
 8016 06b1 53       		.byte	0x53
 8017 06b2 00000000 		.4byte	0
 8018 06b6 00000000 		.4byte	0
 8019              	.LLST48:
 8020 06ba E4000000 		.4byte	.LVL109
 8021 06be FE000000 		.4byte	.LVL114
 8022 06c2 0100     		.2byte	0x1
 8023 06c4 54       		.byte	0x54
 8024 06c5 00000000 		.4byte	0
 8025 06c9 00000000 		.4byte	0
 8026              	.LLST49:
 8027 06cd E4000000 		.4byte	.LVL109
 8028 06d1 FE000000 		.4byte	.LVL114
 8029 06d5 0200     		.2byte	0x2
 8030 06d7 31       		.byte	0x31
 8031 06d8 9F       		.byte	0x9f
 8032 06d9 00000000 		.4byte	0
 8033 06dd 00000000 		.4byte	0
 8034              	.LLST50:
 8035 06e1 E4000000 		.4byte	.LVL109
 8036 06e5 FE000000 		.4byte	.LVL114
 8037 06e9 0100     		.2byte	0x1
 8038 06eb 55       		.byte	0x55
 8039 06ec 00000000 		.4byte	0
 8040 06f0 00000000 		.4byte	0
 8041              	.LLST51:
 8042 06f4 EA000000 		.4byte	.LVL111
 8043 06f8 EC000000 		.4byte	.LVL112
 8044 06fc 0100     		.2byte	0x1
 8045 06fe 50       		.byte	0x50
 8046 06ff EC000000 		.4byte	.LVL112
 8047 0703 F8000000 		.4byte	.LVL113
 8048 0707 0100     		.2byte	0x1
 8049 0709 53       		.byte	0x53
 8050 070a 00000000 		.4byte	0
 8051 070e 00000000 		.4byte	0
 8052              	.LLST52:
 8053 0712 02010000 		.4byte	.LVL115
 8054 0716 1C010000 		.4byte	.LVL120
 8055 071a 0100     		.2byte	0x1
 8056 071c 54       		.byte	0x54
 8057 071d 00000000 		.4byte	0
 8058 0721 00000000 		.4byte	0
 8059              	.LLST53:
 8060 0725 02010000 		.4byte	.LVL115
 8061 0729 1C010000 		.4byte	.LVL120
 8062 072d 0200     		.2byte	0x2
 8063 072f 32       		.byte	0x32
ARM GAS  C:\Users\pearlstl\AppData\Local\Temp\ccbEAAPX.s 			page 162


 8064 0730 9F       		.byte	0x9f
 8065 0731 00000000 		.4byte	0
 8066 0735 00000000 		.4byte	0
 8067              	.LLST54:
 8068 0739 02010000 		.4byte	.LVL115
 8069 073d 1C010000 		.4byte	.LVL120
 8070 0741 0100     		.2byte	0x1
 8071 0743 55       		.byte	0x55
 8072 0744 00000000 		.4byte	0
 8073 0748 00000000 		.4byte	0
 8074              	.LLST55:
 8075 074c 08010000 		.4byte	.LVL117
 8076 0750 0A010000 		.4byte	.LVL118
 8077 0754 0100     		.2byte	0x1
 8078 0756 50       		.byte	0x50
 8079 0757 0A010000 		.4byte	.LVL118
 8080 075b 16010000 		.4byte	.LVL119
 8081 075f 0100     		.2byte	0x1
 8082 0761 53       		.byte	0x53
 8083 0762 00000000 		.4byte	0
 8084 0766 00000000 		.4byte	0
 8085              	.LLST56:
 8086 076a 20010000 		.4byte	.LVL121
 8087 076e 3A010000 		.4byte	.LVL126
 8088 0772 0100     		.2byte	0x1
 8089 0774 54       		.byte	0x54
 8090 0775 00000000 		.4byte	0
 8091 0779 00000000 		.4byte	0
 8092              	.LLST57:
 8093 077d 20010000 		.4byte	.LVL121
 8094 0781 3A010000 		.4byte	.LVL126
 8095 0785 0200     		.2byte	0x2
 8096 0787 33       		.byte	0x33
 8097 0788 9F       		.byte	0x9f
 8098 0789 00000000 		.4byte	0
 8099 078d 00000000 		.4byte	0
 8100              	.LLST58:
 8101 0791 20010000 		.4byte	.LVL121
 8102 0795 3A010000 		.4byte	.LVL126
 8103 0799 0100     		.2byte	0x1
 8104 079b 55       		.byte	0x55
 8105 079c 00000000 		.4byte	0
 8106 07a0 00000000 		.4byte	0
 8107              	.LLST59:
 8108 07a4 26010000 		.4byte	.LVL123
 8109 07a8 28010000 		.4byte	.LVL124
 8110 07ac 0100     		.2byte	0x1
 8111 07ae 50       		.byte	0x50
 8112 07af 28010000 		.4byte	.LVL124
 8113 07b3 34010000 		.4byte	.LVL125
 8114 07b7 0100     		.2byte	0x1
 8115 07b9 53       		.byte	0x53
 8116 07ba 00000000 		.4byte	0
 8117 07be 00000000 		.4byte	0
 8118              	.LLST60:
 8119 07c2 3E010000 		.4byte	.LVL127
 8120 07c6 5C010000 		.4byte	.LVL133
ARM GAS  C:\Users\pearlstl\AppData\Local\Temp\ccbEAAPX.s 			page 163


 8121 07ca 0100     		.2byte	0x1
 8122 07cc 54       		.byte	0x54
 8123 07cd 00000000 		.4byte	0
 8124 07d1 00000000 		.4byte	0
 8125              	.LLST61:
 8126 07d5 3E010000 		.4byte	.LVL127
 8127 07d9 5C010000 		.4byte	.LVL133
 8128 07dd 0200     		.2byte	0x2
 8129 07df 34       		.byte	0x34
 8130 07e0 9F       		.byte	0x9f
 8131 07e1 00000000 		.4byte	0
 8132 07e5 00000000 		.4byte	0
 8133              	.LLST62:
 8134 07e9 3E010000 		.4byte	.LVL127
 8135 07ed 5C010000 		.4byte	.LVL133
 8136 07f1 0100     		.2byte	0x1
 8137 07f3 55       		.byte	0x55
 8138 07f4 00000000 		.4byte	0
 8139 07f8 00000000 		.4byte	0
 8140              	.LLST63:
 8141 07fc 44010000 		.4byte	.LVL129
 8142 0800 46010000 		.4byte	.LVL130
 8143 0804 0100     		.2byte	0x1
 8144 0806 50       		.byte	0x50
 8145 0807 46010000 		.4byte	.LVL130
 8146 080b 52010000 		.4byte	.LVL131
 8147 080f 0100     		.2byte	0x1
 8148 0811 53       		.byte	0x53
 8149 0812 00000000 		.4byte	0
 8150 0816 00000000 		.4byte	0
 8151              	.LLST64:
 8152 081a 00000000 		.4byte	.LVL141
 8153 081e 07000000 		.4byte	.LVL142-1
 8154 0822 0100     		.2byte	0x1
 8155 0824 50       		.byte	0x50
 8156 0825 07000000 		.4byte	.LVL142-1
 8157 0829 12000000 		.4byte	.LFE45
 8158 082d 0400     		.2byte	0x4
 8159 082f F3       		.byte	0xf3
 8160 0830 01       		.uleb128 0x1
 8161 0831 50       		.byte	0x50
 8162 0832 9F       		.byte	0x9f
 8163 0833 00000000 		.4byte	0
 8164 0837 00000000 		.4byte	0
 8165              	.LLST65:
 8166 083b 00000000 		.4byte	.LVL141
 8167 083f 07000000 		.4byte	.LVL142-1
 8168 0843 0100     		.2byte	0x1
 8169 0845 51       		.byte	0x51
 8170 0846 07000000 		.4byte	.LVL142-1
 8171 084a 12000000 		.4byte	.LFE45
 8172 084e 0400     		.2byte	0x4
 8173 0850 F3       		.byte	0xf3
 8174 0851 01       		.uleb128 0x1
 8175 0852 51       		.byte	0x51
 8176 0853 9F       		.byte	0x9f
 8177 0854 00000000 		.4byte	0
ARM GAS  C:\Users\pearlstl\AppData\Local\Temp\ccbEAAPX.s 			page 164


 8178 0858 00000000 		.4byte	0
 8179              	.LLST66:
 8180 085c 00000000 		.4byte	.LVL143
 8181 0860 09000000 		.4byte	.LVL144-1
 8182 0864 0100     		.2byte	0x1
 8183 0866 50       		.byte	0x50
 8184 0867 09000000 		.4byte	.LVL144-1
 8185 086b 26000000 		.4byte	.LVL146
 8186 086f 0100     		.2byte	0x1
 8187 0871 55       		.byte	0x55
 8188 0872 26000000 		.4byte	.LVL146
 8189 0876 29000000 		.4byte	.LVL147-1
 8190 087a 0100     		.2byte	0x1
 8191 087c 50       		.byte	0x50
 8192 087d 29000000 		.4byte	.LVL147-1
 8193 0881 2A000000 		.4byte	.LVL147
 8194 0885 0400     		.2byte	0x4
 8195 0887 F3       		.byte	0xf3
 8196 0888 01       		.uleb128 0x1
 8197 0889 50       		.byte	0x50
 8198 088a 9F       		.byte	0x9f
 8199 088b 2A000000 		.4byte	.LVL147
 8200 088f 2C000000 		.4byte	.LFE46
 8201 0893 0100     		.2byte	0x1
 8202 0895 55       		.byte	0x55
 8203 0896 00000000 		.4byte	0
 8204 089a 00000000 		.4byte	0
 8205              	.LLST67:
 8206 089e 00000000 		.4byte	.LVL143
 8207 08a2 09000000 		.4byte	.LVL144-1
 8208 08a6 0100     		.2byte	0x1
 8209 08a8 51       		.byte	0x51
 8210 08a9 09000000 		.4byte	.LVL144-1
 8211 08ad 2C000000 		.4byte	.LFE46
 8212 08b1 0400     		.2byte	0x4
 8213 08b3 F3       		.byte	0xf3
 8214 08b4 01       		.uleb128 0x1
 8215 08b5 51       		.byte	0x51
 8216 08b6 9F       		.byte	0x9f
 8217 08b7 00000000 		.4byte	0
 8218 08bb 00000000 		.4byte	0
 8219              	.LLST68:
 8220 08bf 0A000000 		.4byte	.LVL144
 8221 08c3 22000000 		.4byte	.LVL145
 8222 08c7 0100     		.2byte	0x1
 8223 08c9 50       		.byte	0x50
 8224 08ca 2A000000 		.4byte	.LVL147
 8225 08ce 2C000000 		.4byte	.LFE46
 8226 08d2 0100     		.2byte	0x1
 8227 08d4 50       		.byte	0x50
 8228 08d5 00000000 		.4byte	0
 8229 08d9 00000000 		.4byte	0
 8230              	.LLST69:
 8231 08dd 00000000 		.4byte	.LVL148
 8232 08e1 07000000 		.4byte	.LVL149-1
 8233 08e5 0100     		.2byte	0x1
 8234 08e7 50       		.byte	0x50
ARM GAS  C:\Users\pearlstl\AppData\Local\Temp\ccbEAAPX.s 			page 165


 8235 08e8 07000000 		.4byte	.LVL149-1
 8236 08ec 48000000 		.4byte	.LVL159
 8237 08f0 0100     		.2byte	0x1
 8238 08f2 54       		.byte	0x54
 8239 08f3 48000000 		.4byte	.LVL159
 8240 08f7 4B000000 		.4byte	.LVL160-1
 8241 08fb 0100     		.2byte	0x1
 8242 08fd 50       		.byte	0x50
 8243 08fe 4B000000 		.4byte	.LVL160-1
 8244 0902 4C000000 		.4byte	.LVL160
 8245 0906 0400     		.2byte	0x4
 8246 0908 F3       		.byte	0xf3
 8247 0909 01       		.uleb128 0x1
 8248 090a 50       		.byte	0x50
 8249 090b 9F       		.byte	0x9f
 8250 090c 4C000000 		.4byte	.LVL160
 8251 0910 6E000000 		.4byte	.LVL165
 8252 0914 0100     		.2byte	0x1
 8253 0916 54       		.byte	0x54
 8254 0917 6E000000 		.4byte	.LVL165
 8255 091b 71000000 		.4byte	.LVL166-1
 8256 091f 0100     		.2byte	0x1
 8257 0921 50       		.byte	0x50
 8258 0922 71000000 		.4byte	.LVL166-1
 8259 0926 72000000 		.4byte	.LVL166
 8260 092a 0400     		.2byte	0x4
 8261 092c F3       		.byte	0xf3
 8262 092d 01       		.uleb128 0x1
 8263 092e 50       		.byte	0x50
 8264 092f 9F       		.byte	0x9f
 8265 0930 72000000 		.4byte	.LVL166
 8266 0934 94000000 		.4byte	.LVL171
 8267 0938 0100     		.2byte	0x1
 8268 093a 54       		.byte	0x54
 8269 093b 94000000 		.4byte	.LVL171
 8270 093f 97000000 		.4byte	.LVL172-1
 8271 0943 0100     		.2byte	0x1
 8272 0945 50       		.byte	0x50
 8273 0946 97000000 		.4byte	.LVL172-1
 8274 094a 98000000 		.4byte	.LVL172
 8275 094e 0400     		.2byte	0x4
 8276 0950 F3       		.byte	0xf3
 8277 0951 01       		.uleb128 0x1
 8278 0952 50       		.byte	0x50
 8279 0953 9F       		.byte	0x9f
 8280 0954 98000000 		.4byte	.LVL172
 8281 0958 A8000000 		.4byte	.LVL174
 8282 095c 0100     		.2byte	0x1
 8283 095e 54       		.byte	0x54
 8284 095f A8000000 		.4byte	.LVL174
 8285 0963 AB000000 		.4byte	.LVL175-1
 8286 0967 0100     		.2byte	0x1
 8287 0969 50       		.byte	0x50
 8288 096a AB000000 		.4byte	.LVL175-1
 8289 096e AC000000 		.4byte	.LFE47
 8290 0972 0400     		.2byte	0x4
 8291 0974 F3       		.byte	0xf3
ARM GAS  C:\Users\pearlstl\AppData\Local\Temp\ccbEAAPX.s 			page 166


 8292 0975 01       		.uleb128 0x1
 8293 0976 50       		.byte	0x50
 8294 0977 9F       		.byte	0x9f
 8295 0978 00000000 		.4byte	0
 8296 097c 00000000 		.4byte	0
 8297              	.LLST70:
 8298 0980 08000000 		.4byte	.LVL149
 8299 0984 1C000000 		.4byte	.LVL151
 8300 0988 0100     		.2byte	0x1
 8301 098a 50       		.byte	0x50
 8302 098b 2E000000 		.4byte	.LVL155
 8303 098f 30000000 		.4byte	.LVL156
 8304 0993 0100     		.2byte	0x1
 8305 0995 50       		.byte	0x50
 8306 0996 4C000000 		.4byte	.LVL160
 8307 099a 4E000000 		.4byte	.LVL161
 8308 099e 0100     		.2byte	0x1
 8309 09a0 50       		.byte	0x50
 8310 09a1 72000000 		.4byte	.LVL166
 8311 09a5 74000000 		.4byte	.LVL167
 8312 09a9 0100     		.2byte	0x1
 8313 09ab 50       		.byte	0x50
 8314 09ac 00000000 		.4byte	0
 8315 09b0 00000000 		.4byte	0
 8316              	.LLST71:
 8317 09b4 1A000000 		.4byte	.LVL150
 8318 09b8 2C000000 		.4byte	.LVL154
 8319 09bc 0200     		.2byte	0x2
 8320 09be 31       		.byte	0x31
 8321 09bf 9F       		.byte	0x9f
 8322 09c0 98000000 		.4byte	.LVL172
 8323 09c4 AC000000 		.4byte	.LFE47
 8324 09c8 0200     		.2byte	0x2
 8325 09ca 31       		.byte	0x31
 8326 09cb 9F       		.byte	0x9f
 8327 09cc 00000000 		.4byte	0
 8328 09d0 00000000 		.4byte	0
 8329              	.LLST72:
 8330 09d4 1A000000 		.4byte	.LVL150
 8331 09d8 2C000000 		.4byte	.LVL154
 8332 09dc 0100     		.2byte	0x1
 8333 09de 54       		.byte	0x54
 8334 09df 98000000 		.4byte	.LVL172
 8335 09e3 A8000000 		.4byte	.LVL174
 8336 09e7 0100     		.2byte	0x1
 8337 09e9 54       		.byte	0x54
 8338 09ea A8000000 		.4byte	.LVL174
 8339 09ee AB000000 		.4byte	.LVL175-1
 8340 09f2 0100     		.2byte	0x1
 8341 09f4 50       		.byte	0x50
 8342 09f5 AB000000 		.4byte	.LVL175-1
 8343 09f9 AC000000 		.4byte	.LFE47
 8344 09fd 0400     		.2byte	0x4
 8345 09ff F3       		.byte	0xf3
 8346 0a00 01       		.uleb128 0x1
 8347 0a01 50       		.byte	0x50
 8348 0a02 9F       		.byte	0x9f
ARM GAS  C:\Users\pearlstl\AppData\Local\Temp\ccbEAAPX.s 			page 167


 8349 0a03 00000000 		.4byte	0
 8350 0a07 00000000 		.4byte	0
 8351              	.LLST73:
 8352 0a0b 2A000000 		.4byte	.LVL153
 8353 0a0f 2C000000 		.4byte	.LVL154
 8354 0a13 0100     		.2byte	0x1
 8355 0a15 50       		.byte	0x50
 8356 0a16 98000000 		.4byte	.LVL172
 8357 0a1a A0000000 		.4byte	.LVL173
 8358 0a1e 0100     		.2byte	0x1
 8359 0a20 50       		.byte	0x50
 8360 0a21 A0000000 		.4byte	.LVL173
 8361 0a25 AB000000 		.4byte	.LVL175-1
 8362 0a29 0100     		.2byte	0x1
 8363 0a2b 52       		.byte	0x52
 8364 0a2c 00000000 		.4byte	0
 8365 0a30 00000000 		.4byte	0
 8366              	.LLST74:
 8367 0a34 2E000000 		.4byte	.LVL155
 8368 0a38 4C000000 		.4byte	.LVL160
 8369 0a3c 0200     		.2byte	0x2
 8370 0a3e 30       		.byte	0x30
 8371 0a3f 9F       		.byte	0x9f
 8372 0a40 00000000 		.4byte	0
 8373 0a44 00000000 		.4byte	0
 8374              	.LLST75:
 8375 0a48 2E000000 		.4byte	.LVL155
 8376 0a4c 48000000 		.4byte	.LVL159
 8377 0a50 0100     		.2byte	0x1
 8378 0a52 54       		.byte	0x54
 8379 0a53 48000000 		.4byte	.LVL159
 8380 0a57 4B000000 		.4byte	.LVL160-1
 8381 0a5b 0100     		.2byte	0x1
 8382 0a5d 50       		.byte	0x50
 8383 0a5e 4B000000 		.4byte	.LVL160-1
 8384 0a62 4C000000 		.4byte	.LVL160
 8385 0a66 0400     		.2byte	0x4
 8386 0a68 F3       		.byte	0xf3
 8387 0a69 01       		.uleb128 0x1
 8388 0a6a 50       		.byte	0x50
 8389 0a6b 9F       		.byte	0x9f
 8390 0a6c 00000000 		.4byte	0
 8391 0a70 00000000 		.4byte	0
 8392              	.LLST76:
 8393 0a74 34000000 		.4byte	.LVL157
 8394 0a78 44000000 		.4byte	.LVL158
 8395 0a7c 0100     		.2byte	0x1
 8396 0a7e 50       		.byte	0x50
 8397 0a7f 00000000 		.4byte	0
 8398 0a83 00000000 		.4byte	0
 8399              	.LLST77:
 8400 0a87 4C000000 		.4byte	.LVL160
 8401 0a8b 72000000 		.4byte	.LVL166
 8402 0a8f 0200     		.2byte	0x2
 8403 0a91 33       		.byte	0x33
 8404 0a92 9F       		.byte	0x9f
 8405 0a93 00000000 		.4byte	0
ARM GAS  C:\Users\pearlstl\AppData\Local\Temp\ccbEAAPX.s 			page 168


 8406 0a97 00000000 		.4byte	0
 8407              	.LLST78:
 8408 0a9b 4C000000 		.4byte	.LVL160
 8409 0a9f 6E000000 		.4byte	.LVL165
 8410 0aa3 0100     		.2byte	0x1
 8411 0aa5 54       		.byte	0x54
 8412 0aa6 6E000000 		.4byte	.LVL165
 8413 0aaa 71000000 		.4byte	.LVL166-1
 8414 0aae 0100     		.2byte	0x1
 8415 0ab0 50       		.byte	0x50
 8416 0ab1 71000000 		.4byte	.LVL166-1
 8417 0ab5 72000000 		.4byte	.LVL166
 8418 0ab9 0400     		.2byte	0x4
 8419 0abb F3       		.byte	0xf3
 8420 0abc 01       		.uleb128 0x1
 8421 0abd 50       		.byte	0x50
 8422 0abe 9F       		.byte	0x9f
 8423 0abf 00000000 		.4byte	0
 8424 0ac3 00000000 		.4byte	0
 8425              	.LLST79:
 8426 0ac7 5C000000 		.4byte	.LVL163
 8427 0acb 66000000 		.4byte	.LVL164
 8428 0acf 0100     		.2byte	0x1
 8429 0ad1 50       		.byte	0x50
 8430 0ad2 66000000 		.4byte	.LVL164
 8431 0ad6 71000000 		.4byte	.LVL166-1
 8432 0ada 0100     		.2byte	0x1
 8433 0adc 52       		.byte	0x52
 8434 0add 00000000 		.4byte	0
 8435 0ae1 00000000 		.4byte	0
 8436              	.LLST80:
 8437 0ae5 72000000 		.4byte	.LVL166
 8438 0ae9 98000000 		.4byte	.LVL172
 8439 0aed 0200     		.2byte	0x2
 8440 0aef 32       		.byte	0x32
 8441 0af0 9F       		.byte	0x9f
 8442 0af1 00000000 		.4byte	0
 8443 0af5 00000000 		.4byte	0
 8444              	.LLST81:
 8445 0af9 72000000 		.4byte	.LVL166
 8446 0afd 94000000 		.4byte	.LVL171
 8447 0b01 0100     		.2byte	0x1
 8448 0b03 54       		.byte	0x54
 8449 0b04 94000000 		.4byte	.LVL171
 8450 0b08 97000000 		.4byte	.LVL172-1
 8451 0b0c 0100     		.2byte	0x1
 8452 0b0e 50       		.byte	0x50
 8453 0b0f 97000000 		.4byte	.LVL172-1
 8454 0b13 98000000 		.4byte	.LVL172
 8455 0b17 0400     		.2byte	0x4
 8456 0b19 F3       		.byte	0xf3
 8457 0b1a 01       		.uleb128 0x1
 8458 0b1b 50       		.byte	0x50
 8459 0b1c 9F       		.byte	0x9f
 8460 0b1d 00000000 		.4byte	0
 8461 0b21 00000000 		.4byte	0
 8462              	.LLST82:
ARM GAS  C:\Users\pearlstl\AppData\Local\Temp\ccbEAAPX.s 			page 169


 8463 0b25 82000000 		.4byte	.LVL169
 8464 0b29 8C000000 		.4byte	.LVL170
 8465 0b2d 0100     		.2byte	0x1
 8466 0b2f 50       		.byte	0x50
 8467 0b30 8C000000 		.4byte	.LVL170
 8468 0b34 97000000 		.4byte	.LVL172-1
 8469 0b38 0100     		.2byte	0x1
 8470 0b3a 52       		.byte	0x52
 8471 0b3b 00000000 		.4byte	0
 8472 0b3f 00000000 		.4byte	0
 8473              	.LLST83:
 8474 0b43 00000000 		.4byte	.LVL177
 8475 0b47 0B000000 		.4byte	.LVL178-1
 8476 0b4b 0100     		.2byte	0x1
 8477 0b4d 50       		.byte	0x50
 8478 0b4e 0B000000 		.4byte	.LVL178-1
 8479 0b52 2E000000 		.4byte	.LVL180
 8480 0b56 0100     		.2byte	0x1
 8481 0b58 55       		.byte	0x55
 8482 0b59 2E000000 		.4byte	.LVL180
 8483 0b5d 31000000 		.4byte	.LVL181-1
 8484 0b61 0100     		.2byte	0x1
 8485 0b63 50       		.byte	0x50
 8486 0b64 31000000 		.4byte	.LVL181-1
 8487 0b68 32000000 		.4byte	.LVL181
 8488 0b6c 0400     		.2byte	0x4
 8489 0b6e F3       		.byte	0xf3
 8490 0b6f 01       		.uleb128 0x1
 8491 0b70 50       		.byte	0x50
 8492 0b71 9F       		.byte	0x9f
 8493 0b72 32000000 		.4byte	.LVL181
 8494 0b76 42000000 		.4byte	.LFE51
 8495 0b7a 0100     		.2byte	0x1
 8496 0b7c 55       		.byte	0x55
 8497 0b7d 00000000 		.4byte	0
 8498 0b81 00000000 		.4byte	0
 8499              	.LLST84:
 8500 0b85 00000000 		.4byte	.LVL177
 8501 0b89 0B000000 		.4byte	.LVL178-1
 8502 0b8d 0100     		.2byte	0x1
 8503 0b8f 51       		.byte	0x51
 8504 0b90 0B000000 		.4byte	.LVL178-1
 8505 0b94 42000000 		.4byte	.LFE51
 8506 0b98 0400     		.2byte	0x4
 8507 0b9a F3       		.byte	0xf3
 8508 0b9b 01       		.uleb128 0x1
 8509 0b9c 51       		.byte	0x51
 8510 0b9d 9F       		.byte	0x9f
 8511 0b9e 00000000 		.4byte	0
 8512 0ba2 00000000 		.4byte	0
 8513              	.LLST85:
 8514 0ba6 00000000 		.4byte	.LVL177
 8515 0baa 0B000000 		.4byte	.LVL178-1
 8516 0bae 0100     		.2byte	0x1
 8517 0bb0 52       		.byte	0x52
 8518 0bb1 0B000000 		.4byte	.LVL178-1
 8519 0bb5 2E000000 		.4byte	.LVL180
ARM GAS  C:\Users\pearlstl\AppData\Local\Temp\ccbEAAPX.s 			page 170


 8520 0bb9 0100     		.2byte	0x1
 8521 0bbb 56       		.byte	0x56
 8522 0bbc 2E000000 		.4byte	.LVL180
 8523 0bc0 32000000 		.4byte	.LVL181
 8524 0bc4 0400     		.2byte	0x4
 8525 0bc6 F3       		.byte	0xf3
 8526 0bc7 01       		.uleb128 0x1
 8527 0bc8 52       		.byte	0x52
 8528 0bc9 9F       		.byte	0x9f
 8529 0bca 32000000 		.4byte	.LVL181
 8530 0bce 42000000 		.4byte	.LFE51
 8531 0bd2 0100     		.2byte	0x1
 8532 0bd4 56       		.byte	0x56
 8533 0bd5 00000000 		.4byte	0
 8534 0bd9 00000000 		.4byte	0
 8535              	.LLST86:
 8536 0bdd 0C000000 		.4byte	.LVL178
 8537 0be1 28000000 		.4byte	.LVL179
 8538 0be5 0100     		.2byte	0x1
 8539 0be7 50       		.byte	0x50
 8540 0be8 32000000 		.4byte	.LVL181
 8541 0bec 42000000 		.4byte	.LFE51
 8542 0bf0 0100     		.2byte	0x1
 8543 0bf2 50       		.byte	0x50
 8544 0bf3 00000000 		.4byte	0
 8545 0bf7 00000000 		.4byte	0
 8546              	.LLST87:
 8547 0bfb 00000000 		.4byte	.LVL182
 8548 0bff 05000000 		.4byte	.LVL183-1
 8549 0c03 0100     		.2byte	0x1
 8550 0c05 50       		.byte	0x50
 8551 0c06 05000000 		.4byte	.LVL183-1
 8552 0c0a 0E000000 		.4byte	.LFE52
 8553 0c0e 0400     		.2byte	0x4
 8554 0c10 F3       		.byte	0xf3
 8555 0c11 01       		.uleb128 0x1
 8556 0c12 50       		.byte	0x50
 8557 0c13 9F       		.byte	0x9f
 8558 0c14 00000000 		.4byte	0
 8559 0c18 00000000 		.4byte	0
 8560              	.LLST88:
 8561 0c1c 06000000 		.4byte	.LVL183
 8562 0c20 08000000 		.4byte	.LVL184
 8563 0c24 0100     		.2byte	0x1
 8564 0c26 50       		.byte	0x50
 8565 0c27 00000000 		.4byte	0
 8566 0c2b 00000000 		.4byte	0
 8567              	.LLST89:
 8568 0c2f 00000000 		.4byte	.LVL185
 8569 0c33 05000000 		.4byte	.LVL186-1
 8570 0c37 0100     		.2byte	0x1
 8571 0c39 50       		.byte	0x50
 8572 0c3a 05000000 		.4byte	.LVL186-1
 8573 0c3e 0E000000 		.4byte	.LFE53
 8574 0c42 0400     		.2byte	0x4
 8575 0c44 F3       		.byte	0xf3
 8576 0c45 01       		.uleb128 0x1
ARM GAS  C:\Users\pearlstl\AppData\Local\Temp\ccbEAAPX.s 			page 171


 8577 0c46 50       		.byte	0x50
 8578 0c47 9F       		.byte	0x9f
 8579 0c48 00000000 		.4byte	0
 8580 0c4c 00000000 		.4byte	0
 8581              	.LLST90:
 8582 0c50 06000000 		.4byte	.LVL186
 8583 0c54 08000000 		.4byte	.LVL187
 8584 0c58 0100     		.2byte	0x1
 8585 0c5a 50       		.byte	0x50
 8586 0c5b 00000000 		.4byte	0
 8587 0c5f 00000000 		.4byte	0
 8588              	.LLST91:
 8589 0c63 00000000 		.4byte	.LVL188
 8590 0c67 02000000 		.4byte	.LVL189
 8591 0c6b 0100     		.2byte	0x1
 8592 0c6d 50       		.byte	0x50
 8593 0c6e 02000000 		.4byte	.LVL189
 8594 0c72 04000000 		.4byte	.LFE56
 8595 0c76 0400     		.2byte	0x4
 8596 0c78 F3       		.byte	0xf3
 8597 0c79 01       		.uleb128 0x1
 8598 0c7a 50       		.byte	0x50
 8599 0c7b 9F       		.byte	0x9f
 8600 0c7c 00000000 		.4byte	0
 8601 0c80 00000000 		.4byte	0
 8602              	.LLST92:
 8603 0c84 00000000 		.4byte	.LVL190
 8604 0c88 09000000 		.4byte	.LVL191-1
 8605 0c8c 0100     		.2byte	0x1
 8606 0c8e 50       		.byte	0x50
 8607 0c8f 09000000 		.4byte	.LVL191-1
 8608 0c93 46000000 		.4byte	.LVL202
 8609 0c97 0100     		.2byte	0x1
 8610 0c99 55       		.byte	0x55
 8611 0c9a 46000000 		.4byte	.LVL202
 8612 0c9e 49000000 		.4byte	.LVL203-1
 8613 0ca2 0100     		.2byte	0x1
 8614 0ca4 50       		.byte	0x50
 8615 0ca5 49000000 		.4byte	.LVL203-1
 8616 0ca9 4A000000 		.4byte	.LVL203
 8617 0cad 0400     		.2byte	0x4
 8618 0caf F3       		.byte	0xf3
 8619 0cb0 01       		.uleb128 0x1
 8620 0cb1 50       		.byte	0x50
 8621 0cb2 9F       		.byte	0x9f
 8622 0cb3 4A000000 		.4byte	.LVL203
 8623 0cb7 5E000000 		.4byte	.LFE57
 8624 0cbb 0100     		.2byte	0x1
 8625 0cbd 55       		.byte	0x55
 8626 0cbe 00000000 		.4byte	0
 8627 0cc2 00000000 		.4byte	0
 8628              	.LLST93:
 8629 0cc6 00000000 		.4byte	.LVL190
 8630 0cca 09000000 		.4byte	.LVL191-1
 8631 0cce 0100     		.2byte	0x1
 8632 0cd0 51       		.byte	0x51
 8633 0cd1 09000000 		.4byte	.LVL191-1
ARM GAS  C:\Users\pearlstl\AppData\Local\Temp\ccbEAAPX.s 			page 172


 8634 0cd5 5E000000 		.4byte	.LFE57
 8635 0cd9 0400     		.2byte	0x4
 8636 0cdb F3       		.byte	0xf3
 8637 0cdc 01       		.uleb128 0x1
 8638 0cdd 51       		.byte	0x51
 8639 0cde 9F       		.byte	0x9f
 8640 0cdf 00000000 		.4byte	0
 8641 0ce3 00000000 		.4byte	0
 8642              	.LLST94:
 8643 0ce7 00000000 		.4byte	.LVL190
 8644 0ceb 1E000000 		.4byte	.LVL196
 8645 0cef 0200     		.2byte	0x2
 8646 0cf1 30       		.byte	0x30
 8647 0cf2 9F       		.byte	0x9f
 8648 0cf3 1E000000 		.4byte	.LVL196
 8649 0cf7 20000000 		.4byte	.LVL197
 8650 0cfb 0100     		.2byte	0x1
 8651 0cfd 50       		.byte	0x50
 8652 0cfe 20000000 		.4byte	.LVL197
 8653 0d02 32000000 		.4byte	.LVL198
 8654 0d06 0200     		.2byte	0x2
 8655 0d08 30       		.byte	0x30
 8656 0d09 9F       		.byte	0x9f
 8657 0d0a 32000000 		.4byte	.LVL198
 8658 0d0e 34000000 		.4byte	.LVL199
 8659 0d12 0100     		.2byte	0x1
 8660 0d14 50       		.byte	0x50
 8661 0d15 34000000 		.4byte	.LVL199
 8662 0d19 3A000000 		.4byte	.LVL200
 8663 0d1d 0200     		.2byte	0x2
 8664 0d1f 30       		.byte	0x30
 8665 0d20 9F       		.byte	0x9f
 8666 0d21 3A000000 		.4byte	.LVL200
 8667 0d25 3C000000 		.4byte	.LVL201
 8668 0d29 0100     		.2byte	0x1
 8669 0d2b 50       		.byte	0x50
 8670 0d2c 3C000000 		.4byte	.LVL201
 8671 0d30 4C000000 		.4byte	.LVL204
 8672 0d34 0200     		.2byte	0x2
 8673 0d36 30       		.byte	0x30
 8674 0d37 9F       		.byte	0x9f
 8675 0d38 4C000000 		.4byte	.LVL204
 8676 0d3c 4E000000 		.4byte	.LVL205
 8677 0d40 0100     		.2byte	0x1
 8678 0d42 50       		.byte	0x50
 8679 0d43 4E000000 		.4byte	.LVL205
 8680 0d47 58000000 		.4byte	.LVL206
 8681 0d4b 0200     		.2byte	0x2
 8682 0d4d 30       		.byte	0x30
 8683 0d4e 9F       		.byte	0x9f
 8684 0d4f 58000000 		.4byte	.LVL206
 8685 0d53 5A000000 		.4byte	.LVL207
 8686 0d57 0100     		.2byte	0x1
 8687 0d59 50       		.byte	0x50
 8688 0d5a 5A000000 		.4byte	.LVL207
 8689 0d5e 5C000000 		.4byte	.LVL208
 8690 0d62 0200     		.2byte	0x2
ARM GAS  C:\Users\pearlstl\AppData\Local\Temp\ccbEAAPX.s 			page 173


 8691 0d64 30       		.byte	0x30
 8692 0d65 9F       		.byte	0x9f
 8693 0d66 5C000000 		.4byte	.LVL208
 8694 0d6a 5E000000 		.4byte	.LFE57
 8695 0d6e 0100     		.2byte	0x1
 8696 0d70 50       		.byte	0x50
 8697 0d71 00000000 		.4byte	0
 8698 0d75 00000000 		.4byte	0
 8699              	.LLST95:
 8700 0d79 0C000000 		.4byte	.LVL192
 8701 0d7d 0E000000 		.4byte	.LVL193
 8702 0d81 0100     		.2byte	0x1
 8703 0d83 50       		.byte	0x50
 8704 0d84 0E000000 		.4byte	.LVL193
 8705 0d88 46000000 		.4byte	.LVL202
 8706 0d8c 0100     		.2byte	0x1
 8707 0d8e 56       		.byte	0x56
 8708 0d8f 4A000000 		.4byte	.LVL203
 8709 0d93 5E000000 		.4byte	.LFE57
 8710 0d97 0100     		.2byte	0x1
 8711 0d99 56       		.byte	0x56
 8712 0d9a 00000000 		.4byte	0
 8713 0d9e 00000000 		.4byte	0
 8714              	.LLST96:
 8715 0da2 0C000000 		.4byte	.LVL192
 8716 0da6 18000000 		.4byte	.LVL195
 8717 0daa 0100     		.2byte	0x1
 8718 0dac 55       		.byte	0x55
 8719 0dad 00000000 		.4byte	0
 8720 0db1 00000000 		.4byte	0
 8721              	.LLST97:
 8722 0db5 12000000 		.4byte	.LVL194
 8723 0db9 18000000 		.4byte	.LVL195
 8724 0dbd 0100     		.2byte	0x1
 8725 0dbf 50       		.byte	0x50
 8726 0dc0 00000000 		.4byte	0
 8727 0dc4 00000000 		.4byte	0
 8728              		.section	.debug_aranges,"",%progbits
 8729 0000 84000000 		.4byte	0x84
 8730 0004 0200     		.2byte	0x2
 8731 0006 00000000 		.4byte	.Ldebug_info0
 8732 000a 04       		.byte	0x4
 8733 000b 00       		.byte	0
 8734 000c 0000     		.2byte	0
 8735 000e 0000     		.2byte	0
 8736 0010 00000000 		.4byte	.LFB58
 8737 0014 30000000 		.4byte	.LFE58-.LFB58
 8738 0018 00000000 		.4byte	.LFB70
 8739 001c 2A000000 		.4byte	.LFE70-.LFB70
 8740 0020 00000000 		.4byte	.LFB69
 8741 0024 22000000 		.4byte	.LFE69-.LFB69
 8742 0028 00000000 		.4byte	.LFB59
 8743 002c 2C020000 		.4byte	.LFE59-.LFB59
 8744 0030 00000000 		.4byte	.LFB44
 8745 0034 A0010000 		.4byte	.LFE44-.LFB44
 8746 0038 00000000 		.4byte	.LFB45
 8747 003c 12000000 		.4byte	.LFE45-.LFB45
ARM GAS  C:\Users\pearlstl\AppData\Local\Temp\ccbEAAPX.s 			page 174


 8748 0040 00000000 		.4byte	.LFB46
 8749 0044 2C000000 		.4byte	.LFE46-.LFB46
 8750 0048 00000000 		.4byte	.LFB47
 8751 004c AC000000 		.4byte	.LFE47-.LFB47
 8752 0050 00000000 		.4byte	.LFB50
 8753 0054 02000000 		.4byte	.LFE50-.LFB50
 8754 0058 00000000 		.4byte	.LFB51
 8755 005c 42000000 		.4byte	.LFE51-.LFB51
 8756 0060 00000000 		.4byte	.LFB52
 8757 0064 0E000000 		.4byte	.LFE52-.LFB52
 8758 0068 00000000 		.4byte	.LFB53
 8759 006c 0E000000 		.4byte	.LFE53-.LFB53
 8760 0070 00000000 		.4byte	.LFB56
 8761 0074 04000000 		.4byte	.LFE56-.LFB56
 8762 0078 00000000 		.4byte	.LFB57
 8763 007c 5E000000 		.4byte	.LFE57-.LFB57
 8764 0080 00000000 		.4byte	0
 8765 0084 00000000 		.4byte	0
 8766              		.section	.debug_ranges,"",%progbits
 8767              	.Ldebug_ranges0:
 8768 0000 2E000000 		.4byte	.LBB44
 8769 0004 34000000 		.4byte	.LBE44
 8770 0008 36000000 		.4byte	.LBB50
 8771 000c 38000000 		.4byte	.LBE50
 8772 0010 3E010000 		.4byte	.LBB67
 8773 0014 40010000 		.4byte	.LBE67
 8774 0018 52010000 		.4byte	.LBB69
 8775 001c 56010000 		.4byte	.LBE69
 8776 0020 58010000 		.4byte	.LBB71
 8777 0024 5A010000 		.4byte	.LBE71
 8778 0028 00000000 		.4byte	0
 8779 002c 00000000 		.4byte	0
 8780 0030 CC000000 		.4byte	.LBB55
 8781 0034 18010000 		.4byte	.LBE55
 8782 0038 76010000 		.4byte	.LBB73
 8783 003c 7A010000 		.4byte	.LBE73
 8784 0040 9E010000 		.4byte	.LBB76
 8785 0044 D4010000 		.4byte	.LBE76
 8786 0048 00000000 		.4byte	0
 8787 004c 00000000 		.4byte	0
 8788 0050 EA000000 		.4byte	.LBB58
 8789 0054 18010000 		.4byte	.LBE58
 8790 0058 76010000 		.4byte	.LBB61
 8791 005c 7A010000 		.4byte	.LBE61
 8792 0060 00000000 		.4byte	0
 8793 0064 00000000 		.4byte	0
 8794 0068 48010000 		.4byte	.LBB68
 8795 006c 52010000 		.4byte	.LBE68
 8796 0070 56010000 		.4byte	.LBB70
 8797 0074 58010000 		.4byte	.LBE70
 8798 0078 5A010000 		.4byte	.LBB72
 8799 007c 76010000 		.4byte	.LBE72
 8800 0080 F2010000 		.4byte	.LBB79
 8801 0084 0C020000 		.4byte	.LBE79
 8802 0088 16020000 		.4byte	.LBB80
 8803 008c 2C020000 		.4byte	.LBE80
 8804 0090 00000000 		.4byte	0
ARM GAS  C:\Users\pearlstl\AppData\Local\Temp\ccbEAAPX.s 			page 175


 8805 0094 00000000 		.4byte	0
 8806 0098 A6000000 		.4byte	.LBB96
 8807 009c 5C010000 		.4byte	.LBE96
 8808 00a0 72010000 		.4byte	.LBB119
 8809 00a4 A0010000 		.4byte	.LBE119
 8810 00a8 00000000 		.4byte	0
 8811 00ac 00000000 		.4byte	0
 8812 00b0 C2000000 		.4byte	.LBB99
 8813 00b4 C4000000 		.4byte	.LBE99
 8814 00b8 C6000000 		.4byte	.LBB102
 8815 00bc E0000000 		.4byte	.LBE102
 8816 00c0 00000000 		.4byte	0
 8817 00c4 00000000 		.4byte	0
 8818 00c8 E0000000 		.4byte	.LBB103
 8819 00cc E2000000 		.4byte	.LBE103
 8820 00d0 E4000000 		.4byte	.LBB106
 8821 00d4 FE000000 		.4byte	.LBE106
 8822 00d8 00000000 		.4byte	0
 8823 00dc 00000000 		.4byte	0
 8824 00e0 FE000000 		.4byte	.LBB107
 8825 00e4 00010000 		.4byte	.LBE107
 8826 00e8 02010000 		.4byte	.LBB110
 8827 00ec 1C010000 		.4byte	.LBE110
 8828 00f0 00000000 		.4byte	0
 8829 00f4 00000000 		.4byte	0
 8830 00f8 1C010000 		.4byte	.LBB111
 8831 00fc 1E010000 		.4byte	.LBE111
 8832 0100 20010000 		.4byte	.LBB114
 8833 0104 3A010000 		.4byte	.LBE114
 8834 0108 00000000 		.4byte	0
 8835 010c 00000000 		.4byte	0
 8836 0110 3A010000 		.4byte	.LBB115
 8837 0114 3C010000 		.4byte	.LBE115
 8838 0118 3E010000 		.4byte	.LBB118
 8839 011c 5C010000 		.4byte	.LBE118
 8840 0120 00000000 		.4byte	0
 8841 0124 00000000 		.4byte	0
 8842 0128 1A000000 		.4byte	.LBB128
 8843 012c 2E000000 		.4byte	.LBE128
 8844 0130 98000000 		.4byte	.LBB144
 8845 0134 A4000000 		.4byte	.LBE144
 8846 0138 A8000000 		.4byte	.LBB145
 8847 013c AC000000 		.4byte	.LBE145
 8848 0140 00000000 		.4byte	0
 8849 0144 00000000 		.4byte	0
 8850 0148 2E000000 		.4byte	.LBB132
 8851 014c 44000000 		.4byte	.LBE132
 8852 0150 48000000 		.4byte	.LBB135
 8853 0154 4C000000 		.4byte	.LBE135
 8854 0158 00000000 		.4byte	0
 8855 015c 00000000 		.4byte	0
 8856 0160 4C000000 		.4byte	.LBB136
 8857 0164 6A000000 		.4byte	.LBE136
 8858 0168 6E000000 		.4byte	.LBB139
 8859 016c 72000000 		.4byte	.LBE139
 8860 0170 00000000 		.4byte	0
 8861 0174 00000000 		.4byte	0
ARM GAS  C:\Users\pearlstl\AppData\Local\Temp\ccbEAAPX.s 			page 176


 8862 0178 72000000 		.4byte	.LBB140
 8863 017c 90000000 		.4byte	.LBE140
 8864 0180 94000000 		.4byte	.LBB143
 8865 0184 98000000 		.4byte	.LBE143
 8866 0188 00000000 		.4byte	0
 8867 018c 00000000 		.4byte	0
 8868 0190 00000000 		.4byte	.LFB58
 8869 0194 30000000 		.4byte	.LFE58
 8870 0198 00000000 		.4byte	.LFB70
 8871 019c 2A000000 		.4byte	.LFE70
 8872 01a0 00000000 		.4byte	.LFB69
 8873 01a4 22000000 		.4byte	.LFE69
 8874 01a8 00000000 		.4byte	.LFB59
 8875 01ac 2C020000 		.4byte	.LFE59
 8876 01b0 00000000 		.4byte	.LFB44
 8877 01b4 A0010000 		.4byte	.LFE44
 8878 01b8 00000000 		.4byte	.LFB45
 8879 01bc 12000000 		.4byte	.LFE45
 8880 01c0 00000000 		.4byte	.LFB46
 8881 01c4 2C000000 		.4byte	.LFE46
 8882 01c8 00000000 		.4byte	.LFB47
 8883 01cc AC000000 		.4byte	.LFE47
 8884 01d0 00000000 		.4byte	.LFB50
 8885 01d4 02000000 		.4byte	.LFE50
 8886 01d8 00000000 		.4byte	.LFB51
 8887 01dc 42000000 		.4byte	.LFE51
 8888 01e0 00000000 		.4byte	.LFB52
 8889 01e4 0E000000 		.4byte	.LFE52
 8890 01e8 00000000 		.4byte	.LFB53
 8891 01ec 0E000000 		.4byte	.LFE53
 8892 01f0 00000000 		.4byte	.LFB56
 8893 01f4 04000000 		.4byte	.LFE56
 8894 01f8 00000000 		.4byte	.LFB57
 8895 01fc 5E000000 		.4byte	.LFE57
 8896 0200 00000000 		.4byte	0
 8897 0204 00000000 		.4byte	0
 8898              		.section	.debug_line,"",%progbits
 8899              	.Ldebug_line0:
 8900 0000 AA060000 		.section	.debug_str,"MS",%progbits,1
 8900      02007203 
 8900      00000201 
 8900      FB0E0D00 
 8900      01010101 
 8901              	.LASF14:
 8902 0000 696E7438 		.ascii	"int8_t\000"
 8902      5F7400
 8903              	.LASF75:
 8904 0007 6C765F6C 		.ascii	"lv_ll_node_t\000"
 8904      6C5F6E6F 
 8904      64655F74 
 8904      00
 8905              	.LASF196:
 8906 0014 4C565F42 		.ascii	"LV_BTN_STATE_TGL_PR\000"
 8906      544E5F53 
 8906      54415445 
 8906      5F54474C 
 8906      5F505200 
ARM GAS  C:\Users\pearlstl\AppData\Local\Temp\ccbEAAPX.s 			page 177


 8907              	.LASF21:
 8908 0028 6164765F 		.ascii	"adv_w\000"
 8908      7700
 8909              	.LASF223:
 8910 002e 68656164 		.ascii	"header_pr\000"
 8910      65725F70 
 8910      7200
 8911              	.LASF40:
 8912 0038 73697A65 		.ascii	"sizetype\000"
 8912      74797065 
 8912      00
 8913              	.LASF183:
 8914 0041 4C565F4B 		.ascii	"LV_KEY_RIGHT\000"
 8914      45595F52 
 8914      49474854 
 8914      00
 8915              	.LASF37:
 8916 004e 6C765F63 		.ascii	"lv_color32_t\000"
 8916      6F6C6F72 
 8916      33325F74 
 8916      00
 8917              	.LASF233:
 8918 005b 63656C6C 		.ascii	"cell\000"
 8918      00
 8919              	.LASF78:
 8920 0060 7461696C 		.ascii	"tail\000"
 8920      00
 8921              	.LASF135:
 8922 0065 4C565F53 		.ascii	"LV_SIGNAL_STYLE_CHG\000"
 8922      49474E41 
 8922      4C5F5354 
 8922      594C455F 
 8922      43484700 
 8923              	.LASF39:
 8924 0079 6C765F6F 		.ascii	"lv_opa_t\000"
 8924      70615F74 
 8924      00
 8925              	.LASF199:
 8926 0082 6C765F62 		.ascii	"lv_btn_state_t\000"
 8926      746E5F73 
 8926      74617465 
 8926      5F7400
 8927              	.LASF63:
 8928 0091 696E7465 		.ascii	"intense\000"
 8928      6E736500 
 8929              	.LASF124:
 8930 0099 4C565F45 		.ascii	"LV_EVENT_INSERT\000"
 8930      56454E54 
 8930      5F494E53 
 8930      45525400 
 8931              	.LASF239:
 8932 00a9 6C6D6574 		.ascii	"lmeter\000"
 8932      657200
 8933              	.LASF143:
 8934 00b0 4C565F53 		.ascii	"LV_SIGNAL_LONG_PRESS\000"
 8934      49474E41 
 8934      4C5F4C4F 
ARM GAS  C:\Users\pearlstl\AppData\Local\Temp\ccbEAAPX.s 			page 178


 8934      4E475F50 
 8934      52455353 
 8935              	.LASF55:
 8936 00c5 72616469 		.ascii	"radius\000"
 8936      757300
 8937              	.LASF160:
 8938 00cc 6C765F72 		.ascii	"lv_reailgn_t\000"
 8938      6561696C 
 8938      676E5F74 
 8938      00
 8939              	.LASF29:
 8940 00d9 6C696E65 		.ascii	"line_height\000"
 8940      5F686569 
 8940      67687400 
 8941              	.LASF90:
 8942 00e5 636C6963 		.ascii	"click\000"
 8942      6B00
 8943              	.LASF153:
 8944 00eb 6C765F61 		.ascii	"lv_align_t\000"
 8944      6C69676E 
 8944      5F7400
 8945              	.LASF145:
 8946 00f6 4C565F53 		.ascii	"LV_SIGNAL_DRAG_BEGIN\000"
 8946      49474E41 
 8946      4C5F4452 
 8946      41475F42 
 8946      4547494E 
 8947              	.LASF225:
 8948 010b 68696768 		.ascii	"highlighted_days\000"
 8948      6C696768 
 8948      7465645F 
 8948      64617973 
 8948      00
 8949              	.LASF299:
 8950 011c 2E2E5C2E 		.ascii	"..\\..\\..\\lvgl\\version_6.1.2\\lvgl\\src\\lv_objx"
 8950      2E5C2E2E 
 8950      5C6C7667 
 8950      6C5C7665 
 8950      7273696F 
 8951 0148 5C6C765F 		.ascii	"\\lv_btn.c\000"
 8951      62746E2E 
 8951      6300
 8952              	.LASF293:
 8953 0152 6C765F6F 		.ascii	"lv_obj_set_signal_cb\000"
 8953      626A5F73 
 8953      65745F73 
 8953      69676E61 
 8953      6C5F6362 
 8954              	.LASF260:
 8955 0167 7369676E 		.ascii	"sign\000"
 8955      00
 8956              	.LASF129:
 8957 016c 6C765F65 		.ascii	"lv_event_t\000"
 8957      76656E74 
 8957      5F7400
 8958              	.LASF202:
 8959 0177 73746174 		.ascii	"state\000"
ARM GAS  C:\Users\pearlstl\AppData\Local\Temp\ccbEAAPX.s 			page 179


 8959      6500
 8960              	.LASF188:
 8961 017d 4C565F4B 		.ascii	"LV_KEY_ENTER\000"
 8961      45595F45 
 8961      4E544552 
 8961      00
 8962              	.LASF72:
 8963 018a 4C565F52 		.ascii	"LV_RES_INV\000"
 8963      45535F49 
 8963      4E5600
 8964              	.LASF139:
 8965 0195 4C565F53 		.ascii	"LV_SIGNAL_PRESSED\000"
 8965      49474E41 
 8965      4C5F5052 
 8965      45535345 
 8965      4400
 8966              	.LASF48:
 8967 01a7 74797065 		.ascii	"type\000"
 8967      00
 8968              	.LASF113:
 8969 01ac 4C565F45 		.ascii	"LV_EVENT_LONG_PRESSED\000"
 8969      56454E54 
 8969      5F4C4F4E 
 8969      475F5052 
 8969      45535345 
 8970              	.LASF215:
 8971 01c2 6C696768 		.ascii	"light\000"
 8971      7400
 8972              	.LASF204:
 8973 01c8 6C765F62 		.ascii	"lv_btn_ext_t\000"
 8973      746E5F65 
 8973      78745F74 
 8973      00
 8974              	.LASF200:
 8975 01d5 636F6E74 		.ascii	"cont\000"
 8975      00
 8976              	.LASF298:
 8977 01da 474E5520 		.ascii	"GNU C11 5.4.1 20160609 (release) [ARM/embedded-5-br"
 8977      43313120 
 8977      352E342E 
 8977      31203230 
 8977      31363036 
 8978 020d 616E6368 		.ascii	"anch revision 237715] -mcpu=cortex-m4 -mfloat-abi=s"
 8978      20726576 
 8978      6973696F 
 8978      6E203233 
 8978      37373135 
 8979 0240 6F667466 		.ascii	"oftfp -mfpu=fpv4-sp-d16 -mthumb -g -O3 -ffunction-s"
 8979      70202D6D 
 8979      6670753D 
 8979      66707634 
 8979      2D73702D 
 8980 0273 65637469 		.ascii	"ections -ffat-lto-objects\000"
 8980      6F6E7320 
 8980      2D666661 
 8980      742D6C74 
 8980      6F2D6F62 
ARM GAS  C:\Users\pearlstl\AppData\Local\Temp\ccbEAAPX.s 			page 180


 8981              	.LASF213:
 8982 028d 7072696D 		.ascii	"prim\000"
 8982      00
 8983              	.LASF193:
 8984 0292 4C565F42 		.ascii	"LV_BTN_STATE_REL\000"
 8984      544E5F53 
 8984      54415445 
 8984      5F52454C 
 8984      00
 8985              	.LASF242:
 8986 02a3 63686172 		.ascii	"chart\000"
 8986      7400
 8987              	.LASF288:
 8988 02a9 6C765F63 		.ascii	"lv_cont_set_layout\000"
 8988      6F6E745F 
 8988      7365745F 
 8988      6C61796F 
 8988      757400
 8989              	.LASF1:
 8990 02bc 5F5F7569 		.ascii	"__uint8_t\000"
 8990      6E74385F 
 8990      7400
 8991              	.LASF35:
 8992 02c6 616C7068 		.ascii	"alpha\000"
 8992      6100
 8993              	.LASF284:
 8994 02cc 6C765F65 		.ascii	"lv_event_send\000"
 8994      76656E74 
 8994      5F73656E 
 8994      6400
 8995              	.LASF94:
 8996 02da 68696464 		.ascii	"hidden\000"
 8996      656E00
 8997              	.LASF8:
 8998 02e1 6C6F6E67 		.ascii	"long int\000"
 8998      20696E74 
 8998      00
 8999              	.LASF252:
 9000 02ea 74696C65 		.ascii	"tileview\000"
 9000      76696577 
 9000      00
 9001              	.LASF186:
 9002 02f3 4C565F4B 		.ascii	"LV_KEY_DEL\000"
 9002      45595F44 
 9002      454C00
 9003              	.LASF265:
 9004 02fe 636F7079 		.ascii	"copy\000"
 9004      00
 9005              	.LASF170:
 9006 0303 4C565F4C 		.ascii	"LV_LAYOUT_ROW_B\000"
 9006      41594F55 
 9006      545F524F 
 9006      575F4200 
 9007              	.LASF171:
 9008 0313 4C565F4C 		.ascii	"LV_LAYOUT_PRETTY\000"
 9008      41594F55 
 9008      545F5052 
ARM GAS  C:\Users\pearlstl\AppData\Local\Temp\ccbEAAPX.s 			page 181


 9008      45545459 
 9008      00
 9009              	.LASF77:
 9010 0324 68656164 		.ascii	"head\000"
 9010      00
 9011              	.LASF169:
 9012 0329 4C565F4C 		.ascii	"LV_LAYOUT_ROW_M\000"
 9012      41594F55 
 9012      545F524F 
 9012      575F4D00 
 9013              	.LASF168:
 9014 0339 4C565F4C 		.ascii	"LV_LAYOUT_ROW_T\000"
 9014      41594F55 
 9014      545F524F 
 9014      575F5400 
 9015              	.LASF205:
 9016 0349 4C565F42 		.ascii	"LV_BTN_STYLE_REL\000"
 9016      544E5F53 
 9016      54594C45 
 9016      5F52454C 
 9016      00
 9017              	.LASF244:
 9018 035a 62746E6D 		.ascii	"btnm\000"
 9018      00
 9019              	.LASF184:
 9020 035f 4C565F4B 		.ascii	"LV_KEY_LEFT\000"
 9020      45595F4C 
 9020      45465400 
 9021              	.LASF2:
 9022 036b 7369676E 		.ascii	"signed char\000"
 9022      65642063 
 9022      68617200 
 9023              	.LASF15:
 9024 0377 75696E74 		.ascii	"uint8_t\000"
 9024      385F7400 
 9025              	.LASF228:
 9026 037f 746F6461 		.ascii	"today_box\000"
 9026      795F626F 
 9026      7800
 9027              	.LASF212:
 9028 0389 74676C5F 		.ascii	"tgl_pr\000"
 9028      707200
 9029              	.LASF178:
 9030 0390 6669745F 		.ascii	"fit_top\000"
 9030      746F7000 
 9031              	.LASF28:
 9032 0398 6765745F 		.ascii	"get_glyph_bitmap\000"
 9032      676C7970 
 9032      685F6269 
 9032      746D6170 
 9032      00
 9033              	.LASF266:
 9034 03a9 6E65775F 		.ascii	"new_btn\000"
 9034      62746E00 
 9035              	.LASF229:
 9036 03b1 7363726C 		.ascii	"scrl\000"
 9036      00
ARM GAS  C:\Users\pearlstl\AppData\Local\Temp\ccbEAAPX.s 			page 182


 9037              	.LASF33:
 9038 03b6 626C7565 		.ascii	"blue\000"
 9038      00
 9039              	.LASF144:
 9040 03bb 4C565F53 		.ascii	"LV_SIGNAL_LONG_PRESS_REP\000"
 9040      49474E41 
 9040      4C5F4C4F 
 9040      4E475F50 
 9040      52455353 
 9041              	.LASF3:
 9042 03d4 756E7369 		.ascii	"unsigned char\000"
 9042      676E6564 
 9042      20636861 
 9042      7200
 9043              	.LASF274:
 9044 03e2 6C765F62 		.ascii	"lv_btn_get_style\000"
 9044      746E5F67 
 9044      65745F73 
 9044      74796C65 
 9044      00
 9045              	.LASF297:
 9046 03f3 6C765F6F 		.ascii	"lv_obj_get_style\000"
 9046      626A5F67 
 9046      65745F73 
 9046      74796C65 
 9046      00
 9047              	.LASF137:
 9048 0404 4C565F53 		.ascii	"LV_SIGNAL_REFR_EXT_DRAW_PAD\000"
 9048      49474E41 
 9048      4C5F5245 
 9048      46525F45 
 9048      58545F44 
 9049              	.LASF97:
 9050 0420 64726167 		.ascii	"drag_dir\000"
 9050      5F646972 
 9050      00
 9051              	.LASF221:
 9052 0429 6B6E6F62 		.ascii	"knob_on\000"
 9052      5F6F6E00 
 9053              	.LASF24:
 9054 0431 6F66735F 		.ascii	"ofs_x\000"
 9054      7800
 9055              	.LASF25:
 9056 0437 6F66735F 		.ascii	"ofs_y\000"
 9056      7900
 9057              	.LASF187:
 9058 043d 4C565F4B 		.ascii	"LV_KEY_BACKSPACE\000"
 9058      45595F42 
 9058      41434B53 
 9058      50414345 
 9058      00
 9059              	.LASF222:
 9060 044e 68656164 		.ascii	"header\000"
 9060      657200
 9061              	.LASF292:
 9062 0455 6C765F6F 		.ascii	"lv_obj_allocate_ext_attr\000"
 9062      626A5F61 
ARM GAS  C:\Users\pearlstl\AppData\Local\Temp\ccbEAAPX.s 			page 183


 9062      6C6C6F63 
 9062      6174655F 
 9062      6578745F 
 9063              	.LASF31:
 9064 046e 5F426F6F 		.ascii	"_Bool\000"
 9064      6C00
 9065              	.LASF152:
 9066 0474 6C765F73 		.ascii	"lv_signal_cb_t\000"
 9066      69676E61 
 9066      6C5F6362 
 9066      5F7400
 9067              	.LASF253:
 9068 0483 7461626C 		.ascii	"table\000"
 9068      6500
 9069              	.LASF41:
 9070 0489 63686172 		.ascii	"char\000"
 9070      00
 9071              	.LASF173:
 9072 048e 5F4C565F 		.ascii	"_LV_LAYOUT_NUM\000"
 9072      4C41594F 
 9072      55545F4E 
 9072      554D00
 9073              	.LASF105:
 9074 049d 4C565F44 		.ascii	"LV_DESIGN_DRAW_POST\000"
 9074      45534947 
 9074      4E5F4452 
 9074      41575F50 
 9074      4F535400 
 9075              	.LASF67:
 9076 04b1 626F6479 		.ascii	"body\000"
 9076      00
 9077              	.LASF156:
 9078 04b6 796F6673 		.ascii	"yofs\000"
 9078      00
 9079              	.LASF6:
 9080 04bb 5F5F7569 		.ascii	"__uint16_t\000"
 9080      6E743136 
 9080      5F7400
 9081              	.LASF227:
 9082 04c6 7765656B 		.ascii	"week_box\000"
 9082      5F626F78 
 9082      00
 9083              	.LASF282:
 9084 04cf 6C765F6F 		.ascii	"lv_obj_get_ext_attr\000"
 9084      626A5F67 
 9084      65745F65 
 9084      78745F61 
 9084      74747200 
 9085              	.LASF165:
 9086 04e3 4C565F4C 		.ascii	"LV_LAYOUT_COL_L\000"
 9086      41594F55 
 9086      545F434F 
 9086      4C5F4C00 
 9087              	.LASF166:
 9088 04f3 4C565F4C 		.ascii	"LV_LAYOUT_COL_M\000"
 9088      41594F55 
 9088      545F434F 
ARM GAS  C:\Users\pearlstl\AppData\Local\Temp\ccbEAAPX.s 			page 184


 9088      4C5F4D00 
 9089              	.LASF167:
 9090 0503 4C565F4C 		.ascii	"LV_LAYOUT_COL_R\000"
 9090      41594F55 
 9090      545F434F 
 9090      4C5F5200 
 9091              	.LASF206:
 9092 0513 4C565F42 		.ascii	"LV_BTN_STYLE_PR\000"
 9092      544E5F53 
 9092      54594C45 
 9092      5F505200 
 9093              	.LASF106:
 9094 0523 4C565F44 		.ascii	"LV_DESIGN_COVER_CHK\000"
 9094      45534947 
 9094      4E5F434F 
 9094      5645525F 
 9094      43484B00 
 9095              	.LASF87:
 9096 0537 64657369 		.ascii	"design_cb\000"
 9096      676E5F63 
 9096      6200
 9097              	.LASF263:
 9098 0541 6C765F62 		.ascii	"lv_btn_set_state\000"
 9098      746E5F73 
 9098      65745F73 
 9098      74617465 
 9098      00
 9099              	.LASF148:
 9100 0552 4C565F53 		.ascii	"LV_SIGNAL_DEFOCUS\000"
 9100      49474E41 
 9100      4C5F4445 
 9100      464F4355 
 9100      5300
 9101              	.LASF121:
 9102 0564 4C565F45 		.ascii	"LV_EVENT_FOCUSED\000"
 9102      56454E54 
 9102      5F464F43 
 9102      55534544 
 9102      00
 9103              	.LASF249:
 9104 0575 64646C69 		.ascii	"ddlist\000"
 9104      737400
 9105              	.LASF268:
 9106 057c 6C765F62 		.ascii	"lv_btn_set_toggle\000"
 9106      746E5F73 
 9106      65745F74 
 9106      6F67676C 
 9106      6500
 9107              	.LASF279:
 9108 058e 6C765F73 		.ascii	"lv_style_btn_tgl_rel\000"
 9108      74796C65 
 9108      5F62746E 
 9108      5F74676C 
 9108      5F72656C 
 9109              	.LASF68:
 9110 05a3 74657874 		.ascii	"text\000"
 9110      00
ARM GAS  C:\Users\pearlstl\AppData\Local\Temp\ccbEAAPX.s 			page 185


 9111              	.LASF269:
 9112 05a8 6C765F62 		.ascii	"lv_btn_toggle\000"
 9112      746E5F74 
 9112      6F67676C 
 9112      6500
 9113              	.LASF117:
 9114 05b6 4C565F45 		.ascii	"LV_EVENT_DRAG_BEGIN\000"
 9114      56454E54 
 9114      5F445241 
 9114      475F4245 
 9114      47494E00 
 9115              	.LASF69:
 9116 05ca 696D6167 		.ascii	"image\000"
 9116      6500
 9117              	.LASF65:
 9118 05d0 726F756E 		.ascii	"rounded\000"
 9118      64656400 
 9119              	.LASF92:
 9120 05d8 64726167 		.ascii	"drag_throw\000"
 9120      5F746872 
 9120      6F7700
 9121              	.LASF226:
 9122 05e3 696E6163 		.ascii	"inactive_days\000"
 9122      74697665 
 9122      5F646179 
 9122      7300
 9123              	.LASF80:
 9124 05f1 6C765F62 		.ascii	"lv_bidi_dir_t\000"
 9124      6964695F 
 9124      6469725F 
 9124      7400
 9125              	.LASF102:
 9126 05ff 6578745F 		.ascii	"ext_draw_pad\000"
 9126      64726177 
 9126      5F706164 
 9126      00
 9127              	.LASF42:
 9128 060c 6C765F61 		.ascii	"lv_area_t\000"
 9128      7265615F 
 9128      7400
 9129              	.LASF115:
 9130 0616 4C565F45 		.ascii	"LV_EVENT_CLICKED\000"
 9130      56454E54 
 9130      5F434C49 
 9130      434B4544 
 9130      00
 9131              	.LASF50:
 9132 0627 6C656674 		.ascii	"left\000"
 9132      00
 9133              	.LASF255:
 9134 062c 6C765F74 		.ascii	"lv_theme_t\000"
 9134      68656D65 
 9134      5F7400
 9135              	.LASF126:
 9136 0637 4C565F45 		.ascii	"LV_EVENT_APPLY\000"
 9136      56454E54 
 9136      5F415050 
ARM GAS  C:\Users\pearlstl\AppData\Local\Temp\ccbEAAPX.s 			page 186


 9136      4C5900
 9137              	.LASF103:
 9138 0646 7265616C 		.ascii	"realign\000"
 9138      69676E00 
 9139              	.LASF119:
 9140 064e 4C565F45 		.ascii	"LV_EVENT_DRAG_THROW_BEGIN\000"
 9140      56454E54 
 9140      5F445241 
 9140      475F5448 
 9140      524F575F 
 9141              	.LASF138:
 9142 0668 4C565F53 		.ascii	"LV_SIGNAL_GET_TYPE\000"
 9142      49474E41 
 9142      4C5F4745 
 9142      545F5459 
 9142      504500
 9143              	.LASF230:
 9144 067b 61726561 		.ascii	"area\000"
 9144      00
 9145              	.LASF71:
 9146 0680 6C765F73 		.ascii	"lv_style_t\000"
 9146      74796C65 
 9146      5F7400
 9147              	.LASF52:
 9148 068b 696E6E65 		.ascii	"inner\000"
 9148      7200
 9149              	.LASF201:
 9150 0691 7374796C 		.ascii	"styles\000"
 9150      657300
 9151              	.LASF286:
 9152 0698 6C765F69 		.ascii	"lv_indev_is_dragging\000"
 9152      6E646576 
 9152      5F69735F 
 9152      64726167 
 9152      67696E67 
 9153              	.LASF10:
 9154 06ad 6C6F6E67 		.ascii	"long unsigned int\000"
 9154      20756E73 
 9154      69676E65 
 9154      6420696E 
 9154      7400
 9155              	.LASF191:
 9156 06bf 4C565F4B 		.ascii	"LV_KEY_HOME\000"
 9156      45595F48 
 9156      4F4D4500 
 9157              	.LASF214:
 9158 06cb 68696E74 		.ascii	"hint\000"
 9158      00
 9159              	.LASF261:
 9160 06d0 70617261 		.ascii	"param\000"
 9160      6D00
 9161              	.LASF195:
 9162 06d6 4C565F42 		.ascii	"LV_BTN_STATE_TGL_REL\000"
 9162      544E5F53 
 9162      54415445 
 9162      5F54474C 
 9162      5F52454C 
ARM GAS  C:\Users\pearlstl\AppData\Local\Temp\ccbEAAPX.s 			page 187


 9163              	.LASF163:
 9164 06eb 4C565F4C 		.ascii	"LV_LAYOUT_OFF\000"
 9164      41594F55 
 9164      545F4F46 
 9164      4600
 9165              	.LASF70:
 9166 06f9 6C696E65 		.ascii	"line\000"
 9166      00
 9167              	.LASF210:
 9168 06fe 6C765F62 		.ascii	"lv_btn_style_t\000"
 9168      746E5F73 
 9168      74796C65 
 9168      5F7400
 9169              	.LASF147:
 9170 070d 4C565F53 		.ascii	"LV_SIGNAL_FOCUS\000"
 9170      49474E41 
 9170      4C5F464F 
 9170      43555300 
 9171              	.LASF125:
 9172 071d 4C565F45 		.ascii	"LV_EVENT_REFRESH\000"
 9172      56454E54 
 9172      5F524546 
 9172      52455348 
 9172      00
 9173              	.LASF287:
 9174 072e 6C765F6F 		.ascii	"lv_obj_refresh_style\000"
 9174      626A5F72 
 9174      65667265 
 9174      73685F73 
 9174      74796C65 
 9175              	.LASF150:
 9176 0743 4C565F53 		.ascii	"LV_SIGNAL_GET_EDITABLE\000"
 9176      49474E41 
 9176      4C5F4745 
 9176      545F4544 
 9176      49544142 
 9177              	.LASF294:
 9178 075a 6C765F6F 		.ascii	"lv_obj_set_design_cb\000"
 9178      626A5F73 
 9178      65745F64 
 9178      65736967 
 9178      6E5F6362 
 9179              	.LASF231:
 9180 076f 6F6E656C 		.ascii	"oneline\000"
 9180      696E6500 
 9181              	.LASF9:
 9182 0777 5F5F7569 		.ascii	"__uint32_t\000"
 9182      6E743332 
 9182      5F7400
 9183              	.LASF85:
 9184 0782 6576656E 		.ascii	"event_cb\000"
 9184      745F6362 
 9184      00
 9185              	.LASF51:
 9186 078b 72696768 		.ascii	"right\000"
 9186      7400
 9187              	.LASF89:
ARM GAS  C:\Users\pearlstl\AppData\Local\Temp\ccbEAAPX.s 			page 188


 9188 0791 7374796C 		.ascii	"style_p\000"
 9188      655F7000 
 9189              	.LASF11:
 9190 0799 6C6F6E67 		.ascii	"long long int\000"
 9190      206C6F6E 
 9190      6720696E 
 9190      7400
 9191              	.LASF46:
 9192 07a7 77696474 		.ascii	"width\000"
 9192      6800
 9193              	.LASF291:
 9194 07ad 6C765F63 		.ascii	"lv_cont_create\000"
 9194      6F6E745F 
 9194      63726561 
 9194      746500
 9195              	.LASF149:
 9196 07bc 4C565F53 		.ascii	"LV_SIGNAL_CONTROL\000"
 9196      49474E41 
 9196      4C5F434F 
 9196      4E54524F 
 9196      4C00
 9197              	.LASF49:
 9198 07ce 626F7474 		.ascii	"bottom\000"
 9198      6F6D00
 9199              	.LASF83:
 9200 07d5 6368696C 		.ascii	"child_ll\000"
 9200      645F6C6C 
 9200      00
 9201              	.LASF218:
 9202 07de 696E6469 		.ascii	"indic\000"
 9202      6300
 9203              	.LASF100:
 9204 07e4 70726F74 		.ascii	"protect\000"
 9204      65637400 
 9205              	.LASF175:
 9206 07ec 6C61796F 		.ascii	"layout\000"
 9206      757400
 9207              	.LASF256:
 9208 07f3 6D61736B 		.ascii	"mask\000"
 9208      00
 9209              	.LASF251:
 9210 07f8 74616276 		.ascii	"tabview\000"
 9210      69657700 
 9211              	.LASF96:
 9212 0800 70617265 		.ascii	"parent_event\000"
 9212      6E745F65 
 9212      76656E74 
 9212      00
 9213              	.LASF131:
 9214 080d 4C565F53 		.ascii	"LV_SIGNAL_CLEANUP\000"
 9214      49474E41 
 9214      4C5F434C 
 9214      45414E55 
 9214      5000
 9215              	.LASF157:
 9216 081f 616C6967 		.ascii	"align\000"
 9216      6E00
ARM GAS  C:\Users\pearlstl\AppData\Local\Temp\ccbEAAPX.s 			page 189


 9217              	.LASF280:
 9218 0825 6C765F73 		.ascii	"lv_style_btn_tgl_pr\000"
 9218      74796C65 
 9218      5F62746E 
 9218      5F74676C 
 9218      5F707200 
 9219              	.LASF209:
 9220 0839 4C565F42 		.ascii	"LV_BTN_STYLE_INA\000"
 9220      544E5F53 
 9220      54594C45 
 9220      5F494E41 
 9220      00
 9221              	.LASF66:
 9222 084a 676C6173 		.ascii	"glass\000"
 9222      7300
 9223              	.LASF277:
 9224 0850 6C765F73 		.ascii	"lv_style_btn_rel\000"
 9224      74796C65 
 9224      5F62746E 
 9224      5F72656C 
 9224      00
 9225              	.LASF128:
 9226 0861 4C565F45 		.ascii	"LV_EVENT_DELETE\000"
 9226      56454E54 
 9226      5F44454C 
 9226      45544500 
 9227              	.LASF180:
 9228 0871 6C765F63 		.ascii	"lv_cont_ext_t\000"
 9228      6F6E745F 
 9228      6578745F 
 9228      7400
 9229              	.LASF13:
 9230 087f 756E7369 		.ascii	"unsigned int\000"
 9230      676E6564 
 9230      20696E74 
 9230      00
 9231              	.LASF132:
 9232 088c 4C565F53 		.ascii	"LV_SIGNAL_CHILD_CHG\000"
 9232      49474E41 
 9232      4C5F4348 
 9232      494C445F 
 9232      43484700 
 9233              	.LASF245:
 9234 08a0 6D626F78 		.ascii	"mbox\000"
 9234      00
 9235              	.LASF211:
 9236 08a5 74676C5F 		.ascii	"tgl_rel\000"
 9236      72656C00 
 9237              	.LASF123:
 9238 08ad 4C565F45 		.ascii	"LV_EVENT_VALUE_CHANGED\000"
 9238      56454E54 
 9238      5F56414C 
 9238      55455F43 
 9238      48414E47 
 9239              	.LASF197:
 9240 08c4 4C565F42 		.ascii	"LV_BTN_STATE_INA\000"
 9240      544E5F53 
ARM GAS  C:\Users\pearlstl\AppData\Local\Temp\ccbEAAPX.s 			page 190


 9240      54415445 
 9240      5F494E41 
 9240      00
 9241              	.LASF158:
 9242 08d5 6175746F 		.ascii	"auto_realign\000"
 9242      5F726561 
 9242      6C69676E 
 9242      00
 9243              	.LASF104:
 9244 08e2 4C565F44 		.ascii	"LV_DESIGN_DRAW_MAIN\000"
 9244      45534947 
 9244      4E5F4452 
 9244      41575F4D 
 9244      41494E00 
 9245              	.LASF26:
 9246 08f6 6C765F66 		.ascii	"lv_font_glyph_dsc_t\000"
 9246      6F6E745F 
 9246      676C7970 
 9246      685F6473 
 9246      635F7400 
 9247              	.LASF248:
 9248 090a 6C697374 		.ascii	"list\000"
 9248      00
 9249              	.LASF54:
 9250 090f 67726164 		.ascii	"grad_color\000"
 9250      5F636F6C 
 9250      6F7200
 9251              	.LASF176:
 9252 091a 6669745F 		.ascii	"fit_left\000"
 9252      6C656674 
 9252      00
 9253              	.LASF110:
 9254 0923 4C565F45 		.ascii	"LV_EVENT_PRESSING\000"
 9254      56454E54 
 9254      5F505245 
 9254      5353494E 
 9254      4700
 9255              	.LASF246:
 9256 0935 70616765 		.ascii	"page\000"
 9256      00
 9257              	.LASF220:
 9258 093a 6B6E6F62 		.ascii	"knob_off\000"
 9258      5F6F6666 
 9258      00
 9259              	.LASF240:
 9260 0943 67617567 		.ascii	"gauge\000"
 9260      6500
 9261              	.LASF189:
 9262 0949 4C565F4B 		.ascii	"LV_KEY_NEXT\000"
 9262      45595F4E 
 9262      45585400 
 9263              	.LASF140:
 9264 0955 4C565F53 		.ascii	"LV_SIGNAL_PRESSING\000"
 9264      49474E41 
 9264      4C5F5052 
 9264      45535349 
 9264      4E4700
ARM GAS  C:\Users\pearlstl\AppData\Local\Temp\ccbEAAPX.s 			page 191


 9265              	.LASF112:
 9266 0968 4C565F45 		.ascii	"LV_EVENT_SHORT_CLICKED\000"
 9266      56454E54 
 9266      5F53484F 
 9266      52545F43 
 9266      4C49434B 
 9267              	.LASF302:
 9268 097f 6C765F62 		.ascii	"lv_btn_set_layout\000"
 9268      746E5F73 
 9268      65745F6C 
 9268      61796F75 
 9268      7400
 9269              	.LASF114:
 9270 0991 4C565F45 		.ascii	"LV_EVENT_LONG_PRESSED_REPEAT\000"
 9270      56454E54 
 9270      5F4C4F4E 
 9270      475F5052 
 9270      45535345 
 9271              	.LASF74:
 9272 09ae 6C765F72 		.ascii	"lv_res_t\000"
 9272      65735F74 
 9272      00
 9273              	.LASF20:
 9274 09b7 6C6F6E67 		.ascii	"long double\000"
 9274      20646F75 
 9274      626C6500 
 9275              	.LASF161:
 9276 09c3 6C765F64 		.ascii	"lv_drag_dir_t\000"
 9276      7261675F 
 9276      6469725F 
 9276      7400
 9277              	.LASF254:
 9278 09d1 7374796C 		.ascii	"style\000"
 9278      6500
 9279              	.LASF88:
 9280 09d7 6578745F 		.ascii	"ext_attr\000"
 9280      61747472 
 9280      00
 9281              	.LASF259:
 9282 09e0 6C765F62 		.ascii	"lv_btn_get_state\000"
 9282      746E5F67 
 9282      65745F73 
 9282      74617465 
 9282      00
 9283              	.LASF107:
 9284 09f1 6C765F64 		.ascii	"lv_design_mode_t\000"
 9284      65736967 
 9284      6E5F6D6F 
 9284      64655F74 
 9284      00
 9285              	.LASF64:
 9286 0a02 73756270 		.ascii	"subpx\000"
 9286      7800
 9287              	.LASF118:
 9288 0a08 4C565F45 		.ascii	"LV_EVENT_DRAG_END\000"
 9288      56454E54 
 9288      5F445241 
ARM GAS  C:\Users\pearlstl\AppData\Local\Temp\ccbEAAPX.s 			page 192


 9288      475F454E 
 9288      4400
 9289              	.LASF141:
 9290 0a1a 4C565F53 		.ascii	"LV_SIGNAL_PRESS_LOST\000"
 9290      49474E41 
 9290      4C5F5052 
 9290      4553535F 
 9290      4C4F5354 
 9291              	.LASF192:
 9292 0a2f 4C565F4B 		.ascii	"LV_KEY_END\000"
 9292      45595F45 
 9292      4E4400
 9293              	.LASF146:
 9294 0a3a 4C565F53 		.ascii	"LV_SIGNAL_DRAG_END\000"
 9294      49474E41 
 9294      4C5F4452 
 9294      41475F45 
 9294      4E4400
 9295              	.LASF109:
 9296 0a4d 4C565F45 		.ascii	"LV_EVENT_PRESSED\000"
 9296      56454E54 
 9296      5F505245 
 9296      53534544 
 9296      00
 9297              	.LASF134:
 9298 0a5e 4C565F53 		.ascii	"LV_SIGNAL_PARENT_SIZE_CHG\000"
 9298      49474E41 
 9298      4C5F5041 
 9298      52454E54 
 9298      5F53495A 
 9299              	.LASF127:
 9300 0a78 4C565F45 		.ascii	"LV_EVENT_CANCEL\000"
 9300      56454E54 
 9300      5F43414E 
 9300      43454C00 
 9301              	.LASF142:
 9302 0a88 4C565F53 		.ascii	"LV_SIGNAL_RELEASED\000"
 9302      49474E41 
 9302      4C5F5245 
 9302      4C454153 
 9302      454400
 9303              	.LASF53:
 9304 0a9b 6D61696E 		.ascii	"main_color\000"
 9304      5F636F6C 
 9304      6F7200
 9305              	.LASF0:
 9306 0aa6 5F5F696E 		.ascii	"__int8_t\000"
 9306      74385F74 
 9306      00
 9307              	.LASF262:
 9308 0aaf 746F6767 		.ascii	"toggled\000"
 9308      6C656400 
 9309              	.LASF296:
 9310 0ab7 6C765F6F 		.ascii	"lv_obj_get_design_cb\000"
 9310      626A5F67 
 9310      65745F64 
 9310      65736967 
ARM GAS  C:\Users\pearlstl\AppData\Local\Temp\ccbEAAPX.s 			page 193


 9310      6E5F6362 
 9311              	.LASF151:
 9312 0acc 6C765F73 		.ascii	"lv_signal_t\000"
 9312      69676E61 
 9312      6C5F7400 
 9313              	.LASF272:
 9314 0ad8 6C765F62 		.ascii	"lv_btn_get_ink_out_time\000"
 9314      746E5F67 
 9314      65745F69 
 9314      6E6B5F6F 
 9314      75745F74 
 9315              	.LASF270:
 9316 0af0 6C765F62 		.ascii	"lv_btn_set_ink_out_time\000"
 9316      746E5F73 
 9316      65745F69 
 9316      6E6B5F6F 
 9316      75745F74 
 9317              	.LASF194:
 9318 0b08 4C565F42 		.ascii	"LV_BTN_STATE_PR\000"
 9318      544E5F53 
 9318      54415445 
 9318      5F505200 
 9319              	.LASF12:
 9320 0b18 6C6F6E67 		.ascii	"long long unsigned int\000"
 9320      206C6F6E 
 9320      6720756E 
 9320      7369676E 
 9320      65642069 
 9321              	.LASF303:
 9322 0b2f 6C765F62 		.ascii	"lv_btn_signal\000"
 9322      746E5F73 
 9322      69676E61 
 9322      6C00
 9323              	.LASF17:
 9324 0b3d 75696E74 		.ascii	"uint16_t\000"
 9324      31365F74 
 9324      00
 9325              	.LASF73:
 9326 0b46 4C565F52 		.ascii	"LV_RES_OK\000"
 9326      45535F4F 
 9326      4B00
 9327              	.LASF278:
 9328 0b50 6C765F73 		.ascii	"lv_style_btn_pr\000"
 9328      74796C65 
 9328      5F62746E 
 9328      5F707200 
 9329              	.LASF38:
 9330 0b60 6C765F63 		.ascii	"lv_color_t\000"
 9330      6F6C6F72 
 9330      5F7400
 9331              	.LASF275:
 9332 0b6b 616E6365 		.ascii	"ancestor_signal\000"
 9332      73746F72 
 9332      5F736967 
 9332      6E616C00 
 9333              	.LASF301:
 9334 0b7b 6C765F62 		.ascii	"lv_btn_design\000"
ARM GAS  C:\Users\pearlstl\AppData\Local\Temp\ccbEAAPX.s 			page 194


 9334      746E5F64 
 9334      65736967 
 9334      6E00
 9335              	.LASF276:
 9336 0b89 616E6365 		.ascii	"ancestor_design\000"
 9336      73746F72 
 9336      5F646573 
 9336      69676E00 
 9337              	.LASF182:
 9338 0b99 4C565F4B 		.ascii	"LV_KEY_DOWN\000"
 9338      45595F44 
 9338      4F574E00 
 9339              	.LASF179:
 9340 0ba5 6669745F 		.ascii	"fit_bottom\000"
 9340      626F7474 
 9340      6F6D00
 9341              	.LASF185:
 9342 0bb0 4C565F4B 		.ascii	"LV_KEY_ESC\000"
 9342      45595F45 
 9342      534300
 9343              	.LASF217:
 9344 0bbb 6465636F 		.ascii	"decor\000"
 9344      7200
 9345              	.LASF236:
 9346 0bc1 696D6762 		.ascii	"imgbtn\000"
 9346      746E00
 9347              	.LASF4:
 9348 0bc8 5F5F696E 		.ascii	"__int16_t\000"
 9348      7431365F 
 9348      7400
 9349              	.LASF235:
 9350 0bd2 70616E65 		.ascii	"panel\000"
 9350      6C00
 9351              	.LASF295:
 9352 0bd8 6C765F6F 		.ascii	"lv_obj_get_signal_cb\000"
 9352      626A5F67 
 9352      65745F73 
 9352      69676E61 
 9352      6C5F6362 
 9353              	.LASF281:
 9354 0bed 6C765F73 		.ascii	"lv_style_btn_ina\000"
 9354      74796C65 
 9354      5F62746E 
 9354      5F696E61 
 9354      00
 9355              	.LASF36:
 9356 0bfe 66756C6C 		.ascii	"full\000"
 9356      00
 9357              	.LASF45:
 9358 0c03 636F6C6F 		.ascii	"color\000"
 9358      7200
 9359              	.LASF271:
 9360 0c09 74696D65 		.ascii	"time\000"
 9360      00
 9361              	.LASF62:
 9362 0c0e 6C696E65 		.ascii	"line_space\000"
 9362      5F737061 
ARM GAS  C:\Users\pearlstl\AppData\Local\Temp\ccbEAAPX.s 			page 195


 9362      636500
 9363              	.LASF155:
 9364 0c19 786F6673 		.ascii	"xofs\000"
 9364      00
 9365              	.LASF177:
 9366 0c1e 6669745F 		.ascii	"fit_right\000"
 9366      72696768 
 9366      7400
 9367              	.LASF285:
 9368 0c28 6C765F6F 		.ascii	"lv_obj_handle_get_type_signal\000"
 9368      626A5F68 
 9368      616E646C 
 9368      655F6765 
 9368      745F7479 
 9369              	.LASF162:
 9370 0c46 6C765F6F 		.ascii	"lv_obj_t\000"
 9370      626A5F74 
 9370      00
 9371              	.LASF172:
 9372 0c4f 4C565F4C 		.ascii	"LV_LAYOUT_GRID\000"
 9372      41594F55 
 9372      545F4752 
 9372      494400
 9373              	.LASF44:
 9374 0c5e 6C765F73 		.ascii	"lv_shadow_type_t\000"
 9374      6861646F 
 9374      775F7479 
 9374      70655F74 
 9374      00
 9375              	.LASF91:
 9376 0c6f 64726167 		.ascii	"drag\000"
 9376      00
 9377              	.LASF82:
 9378 0c74 5F6C765F 		.ascii	"_lv_obj_t\000"
 9378      6F626A5F 
 9378      7400
 9379              	.LASF60:
 9380 0c7e 666F6E74 		.ascii	"font\000"
 9380      00
 9381              	.LASF61:
 9382 0c83 6C657474 		.ascii	"letter_space\000"
 9382      65725F73 
 9382      70616365 
 9382      00
 9383              	.LASF243:
 9384 0c90 63616C65 		.ascii	"calendar\000"
 9384      6E646172 
 9384      00
 9385              	.LASF98:
 9386 0c99 62617365 		.ascii	"base_dir\000"
 9386      5F646972 
 9386      00
 9387              	.LASF23:
 9388 0ca2 626F785F 		.ascii	"box_h\000"
 9388      6800
 9389              	.LASF289:
 9390 0ca8 6C765F6F 		.ascii	"lv_obj_set_click\000"
ARM GAS  C:\Users\pearlstl\AppData\Local\Temp\ccbEAAPX.s 			page 196


 9390      626A5F73 
 9390      65745F63 
 9390      6C69636B 
 9390      00
 9391              	.LASF190:
 9392 0cb9 4C565F4B 		.ascii	"LV_KEY_PREV\000"
 9392      45595F50 
 9392      52455600 
 9393              	.LASF154:
 9394 0cc5 62617365 		.ascii	"base\000"
 9394      00
 9395              	.LASF258:
 9396 0cca 6C765F62 		.ascii	"lv_btn_get_toggle\000"
 9396      746E5F67 
 9396      65745F74 
 9396      6F67676C 
 9396      6500
 9397              	.LASF22:
 9398 0cdc 626F785F 		.ascii	"box_w\000"
 9398      7700
 9399              	.LASF5:
 9400 0ce2 73686F72 		.ascii	"short int\000"
 9400      7420696E 
 9400      7400
 9401              	.LASF30:
 9402 0cec 62617365 		.ascii	"base_line\000"
 9402      5F6C696E 
 9402      6500
 9403              	.LASF79:
 9404 0cf6 6C765F6C 		.ascii	"lv_ll_t\000"
 9404      6C5F7400 
 9405              	.LASF273:
 9406 0cfe 6C765F62 		.ascii	"lv_btn_create\000"
 9406      746E5F63 
 9406      72656174 
 9406      6500
 9407              	.LASF257:
 9408 0d0c 6D6F6465 		.ascii	"mode\000"
 9408      00
 9409              	.LASF16:
 9410 0d11 696E7431 		.ascii	"int16_t\000"
 9410      365F7400 
 9411              	.LASF300:
 9412 0d19 433A5C55 		.ascii	"C:\\Users\\pearlstl\\Documents\\_Research\\projects"
 9412      73657273 
 9412      5C706561 
 9412      726C7374 
 9412      6C5C446F 
 9413 0d47 5C74636F 		.ascii	"\\tcom_engineering\\embed_sw\\tcom_app\\tcom_app_ps"
 9413      6D5F656E 
 9413      67696E65 
 9413      6572696E 
 9413      675C656D 
 9414 0d76 6F63365F 		.ascii	"oc6_lvgl6\\tcom_displ_test_psoc6.cydsn\000"
 9414      6C76676C 
 9414      365C7463 
 9414      6F6D5F64 
ARM GAS  C:\Users\pearlstl\AppData\Local\Temp\ccbEAAPX.s 			page 197


 9414      6973706C 
 9415              	.LASF133:
 9416 0d9c 4C565F53 		.ascii	"LV_SIGNAL_CORD_CHG\000"
 9416      49474E41 
 9416      4C5F434F 
 9416      52445F43 
 9416      484700
 9417              	.LASF84:
 9418 0daf 636F6F72 		.ascii	"coords\000"
 9418      647300
 9419              	.LASF247:
 9420 0db6 7370696E 		.ascii	"spinbox\000"
 9420      626F7800 
 9421              	.LASF95:
 9422 0dbe 6F70615F 		.ascii	"opa_scale_en\000"
 9422      7363616C 
 9422      655F656E 
 9422      00
 9423              	.LASF224:
 9424 0dcb 6461795F 		.ascii	"day_names\000"
 9424      6E616D65 
 9424      7300
 9425              	.LASF57:
 9426 0dd5 73686164 		.ascii	"shadow\000"
 9426      6F7700
 9427              	.LASF122:
 9428 0ddc 4C565F45 		.ascii	"LV_EVENT_DEFOCUSED\000"
 9428      56454E54 
 9428      5F444546 
 9428      4F435553 
 9428      454400
 9429              	.LASF174:
 9430 0def 6C765F6C 		.ascii	"lv_layout_t\000"
 9430      61796F75 
 9430      745F7400 
 9431              	.LASF93:
 9432 0dfb 64726167 		.ascii	"drag_parent\000"
 9432      5F706172 
 9432      656E7400 
 9433              	.LASF136:
 9434 0e07 4C565F53 		.ascii	"LV_SIGNAL_BASE_DIR_CHG\000"
 9434      49474E41 
 9434      4C5F4241 
 9434      53455F44 
 9434      49525F43 
 9435              	.LASF264:
 9436 0e1e 6C765F62 		.ascii	"lv_btn_set_style\000"
 9436      746E5F73 
 9436      65745F73 
 9436      74796C65 
 9436      00
 9437              	.LASF267:
 9438 0e2f 636F7079 		.ascii	"copy_ext\000"
 9438      5F657874 
 9438      00
 9439              	.LASF283:
 9440 0e38 6C765F6F 		.ascii	"lv_obj_set_style\000"
ARM GAS  C:\Users\pearlstl\AppData\Local\Temp\ccbEAAPX.s 			page 198


 9440      626A5F73 
 9440      65745F73 
 9440      74796C65 
 9440      00
 9441              	.LASF234:
 9442 0e49 636F6E74 		.ascii	"content\000"
 9442      656E7400 
 9443              	.LASF58:
 9444 0e51 70616464 		.ascii	"padding\000"
 9444      696E6700 
 9445              	.LASF86:
 9446 0e59 7369676E 		.ascii	"signal_cb\000"
 9446      616C5F63 
 9446      6200
 9447              	.LASF18:
 9448 0e63 75696E74 		.ascii	"uint32_t\000"
 9448      33325F74 
 9448      00
 9449              	.LASF216:
 9450 0e6c 6461726B 		.ascii	"dark\000"
 9450      00
 9451              	.LASF34:
 9452 0e71 67726565 		.ascii	"green\000"
 9452      6E00
 9453              	.LASF32:
 9454 0e77 6C765F66 		.ascii	"lv_font_t\000"
 9454      6F6E745F 
 9454      7400
 9455              	.LASF99:
 9456 0e81 72657365 		.ascii	"reserved\000"
 9456      72766564 
 9456      00
 9457              	.LASF203:
 9458 0e8a 746F6767 		.ascii	"toggle\000"
 9458      6C6500
 9459              	.LASF208:
 9460 0e91 4C565F42 		.ascii	"LV_BTN_STYLE_TGL_PR\000"
 9460      544E5F53 
 9460      54594C45 
 9460      5F54474C 
 9460      5F505200 
 9461              	.LASF7:
 9462 0ea5 73686F72 		.ascii	"short unsigned int\000"
 9462      7420756E 
 9462      7369676E 
 9462      65642069 
 9462      6E7400
 9463              	.LASF120:
 9464 0eb8 4C565F45 		.ascii	"LV_EVENT_KEY\000"
 9464      56454E54 
 9464      5F4B4559 
 9464      00
 9465              	.LASF19:
 9466 0ec5 6C765F63 		.ascii	"lv_coord_t\000"
 9466      6F6F7264 
 9466      5F7400
 9467              	.LASF111:
ARM GAS  C:\Users\pearlstl\AppData\Local\Temp\ccbEAAPX.s 			page 199


 9468 0ed0 4C565F45 		.ascii	"LV_EVENT_PRESS_LOST\000"
 9468      56454E54 
 9468      5F505245 
 9468      53535F4C 
 9468      4F535400 
 9469              	.LASF164:
 9470 0ee4 4C565F4C 		.ascii	"LV_LAYOUT_CENTER\000"
 9470      41594F55 
 9470      545F4345 
 9470      4E544552 
 9470      00
 9471              	.LASF56:
 9472 0ef5 626F7264 		.ascii	"border\000"
 9472      657200
 9473              	.LASF237:
 9474 0efc 6C616265 		.ascii	"label\000"
 9474      6C00
 9475              	.LASF27:
 9476 0f02 6765745F 		.ascii	"get_glyph_dsc\000"
 9476      676C7970 
 9476      685F6473 
 9476      6300
 9477              	.LASF238:
 9478 0f10 736C6964 		.ascii	"slider\000"
 9478      657200
 9479              	.LASF43:
 9480 0f17 6C765F62 		.ascii	"lv_border_part_t\000"
 9480      6F726465 
 9480      725F7061 
 9480      72745F74 
 9480      00
 9481              	.LASF130:
 9482 0f28 6C765F65 		.ascii	"lv_event_cb_t\000"
 9482      76656E74 
 9482      5F63625F 
 9482      7400
 9483              	.LASF241:
 9484 0f36 7072656C 		.ascii	"preload\000"
 9484      6F616400 
 9485              	.LASF159:
 9486 0f3e 6F726967 		.ascii	"origo_align\000"
 9486      6F5F616C 
 9486      69676E00 
 9487              	.LASF207:
 9488 0f4a 4C565F42 		.ascii	"LV_BTN_STYLE_TGL_REL\000"
 9488      544E5F53 
 9488      54594C45 
 9488      5F54474C 
 9488      5F52454C 
 9489              	.LASF219:
 9490 0f5f 6B6E6F62 		.ascii	"knob\000"
 9490      00
 9491              	.LASF181:
 9492 0f64 4C565F4B 		.ascii	"LV_KEY_UP\000"
 9492      45595F55 
 9492      5000
 9493              	.LASF59:
ARM GAS  C:\Users\pearlstl\AppData\Local\Temp\ccbEAAPX.s 			page 200


 9494 0f6e 73656C5F 		.ascii	"sel_color\000"
 9494      636F6C6F 
 9494      7200
 9495              	.LASF81:
 9496 0f78 5F6C765F 		.ascii	"_lv_font_struct\000"
 9496      666F6E74 
 9496      5F737472 
 9496      75637400 
 9497              	.LASF47:
 9498 0f88 70617274 		.ascii	"part\000"
 9498      00
 9499              	.LASF76:
 9500 0f8d 6E5F7369 		.ascii	"n_size\000"
 9500      7A6500
 9501              	.LASF198:
 9502 0f94 5F4C565F 		.ascii	"_LV_BTN_STATE_NUM\000"
 9502      42544E5F 
 9502      53544154 
 9502      455F4E55 
 9502      4D00
 9503              	.LASF232:
 9504 0fa6 63757273 		.ascii	"cursor\000"
 9504      6F7200
 9505              	.LASF116:
 9506 0fad 4C565F45 		.ascii	"LV_EVENT_RELEASED\000"
 9506      56454E54 
 9506      5F52454C 
 9506      45415345 
 9506      4400
 9507              	.LASF108:
 9508 0fbf 6C765F64 		.ascii	"lv_design_cb_t\000"
 9508      65736967 
 9508      6E5F6362 
 9508      5F7400
 9509              	.LASF290:
 9510 0fce 6C765F74 		.ascii	"lv_theme_get_current\000"
 9510      68656D65 
 9510      5F676574 
 9510      5F637572 
 9510      72656E74 
 9511              	.LASF101:
 9512 0fe3 6F70615F 		.ascii	"opa_scale\000"
 9512      7363616C 
 9512      6500
 9513              	.LASF250:
 9514 0fed 726F6C6C 		.ascii	"roller\000"
 9514      657200
 9515              		.ident	"GCC: (GNU Tools for ARM Embedded Processors) 5.4.1 20160609 (release) [ARM/embedded-5-bran
