ARM GAS  C:\Users\pearlstl\AppData\Local\Temp\ccUkXBYk.s 			page 1


   1              		.syntax unified
   2              		.cpu cortex-m4
   3              		.eabi_attribute 27, 1
   4              		.fpu fpv4-sp-d16
   5              		.eabi_attribute 20, 1
   6              		.eabi_attribute 21, 1
   7              		.eabi_attribute 23, 3
   8              		.eabi_attribute 24, 1
   9              		.eabi_attribute 25, 1
  10              		.eabi_attribute 26, 1
  11              		.eabi_attribute 30, 2
  12              		.eabi_attribute 34, 1
  13              		.eabi_attribute 18, 4
  14              		.thumb
  15              		.syntax unified
  16              		.file	"lv_btnm.c"
  17              		.text
  18              	.Ltext0:
  19              		.cfi_sections	.debug_frame
  20              		.section	.text.lv_btnm_design,"ax",%progbits
  21              		.align	2
  22              		.thumb
  23              		.thumb_func
  24              		.type	lv_btnm_design, %function
  25              	lv_btnm_design:
  26              	.LFB67:
  27              		.file 1 "..\\..\\..\\lvgl\\version_6.1.2\\lvgl\\src\\lv_objx\\lv_btnm.c"
   1:..\..\..\lvgl\version_6.1.2\lvgl\src\lv_objx/lv_btnm.c **** /**
   2:..\..\..\lvgl\version_6.1.2\lvgl\src\lv_objx/lv_btnm.c ****  * @file lv_btnm.c
   3:..\..\..\lvgl\version_6.1.2\lvgl\src\lv_objx/lv_btnm.c ****  *
   4:..\..\..\lvgl\version_6.1.2\lvgl\src\lv_objx/lv_btnm.c ****  */
   5:..\..\..\lvgl\version_6.1.2\lvgl\src\lv_objx/lv_btnm.c **** 
   6:..\..\..\lvgl\version_6.1.2\lvgl\src\lv_objx/lv_btnm.c **** /*********************
   7:..\..\..\lvgl\version_6.1.2\lvgl\src\lv_objx/lv_btnm.c ****  *      INCLUDES
   8:..\..\..\lvgl\version_6.1.2\lvgl\src\lv_objx/lv_btnm.c ****  *********************/
   9:..\..\..\lvgl\version_6.1.2\lvgl\src\lv_objx/lv_btnm.c **** #include "lv_btnm.h"
  10:..\..\..\lvgl\version_6.1.2\lvgl\src\lv_objx/lv_btnm.c **** #if LV_USE_BTNM != 0
  11:..\..\..\lvgl\version_6.1.2\lvgl\src\lv_objx/lv_btnm.c **** 
  12:..\..\..\lvgl\version_6.1.2\lvgl\src\lv_objx/lv_btnm.c **** #include "../lv_core/lv_debug.h"
  13:..\..\..\lvgl\version_6.1.2\lvgl\src\lv_objx/lv_btnm.c **** #include "../lv_core/lv_group.h"
  14:..\..\..\lvgl\version_6.1.2\lvgl\src\lv_objx/lv_btnm.c **** #include "../lv_draw/lv_draw.h"
  15:..\..\..\lvgl\version_6.1.2\lvgl\src\lv_objx/lv_btnm.c **** #include "../lv_core/lv_refr.h"
  16:..\..\..\lvgl\version_6.1.2\lvgl\src\lv_objx/lv_btnm.c **** #include "../lv_themes/lv_theme.h"
  17:..\..\..\lvgl\version_6.1.2\lvgl\src\lv_objx/lv_btnm.c **** #include "../lv_misc/lv_txt.h"
  18:..\..\..\lvgl\version_6.1.2\lvgl\src\lv_objx/lv_btnm.c **** 
  19:..\..\..\lvgl\version_6.1.2\lvgl\src\lv_objx/lv_btnm.c **** /*********************
  20:..\..\..\lvgl\version_6.1.2\lvgl\src\lv_objx/lv_btnm.c ****  *      DEFINES
  21:..\..\..\lvgl\version_6.1.2\lvgl\src\lv_objx/lv_btnm.c ****  *********************/
  22:..\..\..\lvgl\version_6.1.2\lvgl\src\lv_objx/lv_btnm.c **** #define LV_OBJX_NAME "lv_btnm"
  23:..\..\..\lvgl\version_6.1.2\lvgl\src\lv_objx/lv_btnm.c **** 
  24:..\..\..\lvgl\version_6.1.2\lvgl\src\lv_objx/lv_btnm.c **** /**********************
  25:..\..\..\lvgl\version_6.1.2\lvgl\src\lv_objx/lv_btnm.c ****  *      TYPEDEFS
  26:..\..\..\lvgl\version_6.1.2\lvgl\src\lv_objx/lv_btnm.c ****  **********************/
  27:..\..\..\lvgl\version_6.1.2\lvgl\src\lv_objx/lv_btnm.c **** 
  28:..\..\..\lvgl\version_6.1.2\lvgl\src\lv_objx/lv_btnm.c **** /**********************
  29:..\..\..\lvgl\version_6.1.2\lvgl\src\lv_objx/lv_btnm.c ****  *  STATIC PROTOTYPES
  30:..\..\..\lvgl\version_6.1.2\lvgl\src\lv_objx/lv_btnm.c ****  **********************/
ARM GAS  C:\Users\pearlstl\AppData\Local\Temp\ccUkXBYk.s 			page 2


  31:..\..\..\lvgl\version_6.1.2\lvgl\src\lv_objx/lv_btnm.c **** static lv_res_t lv_btnm_signal(lv_obj_t * btnm, lv_signal_t sign, void * param);
  32:..\..\..\lvgl\version_6.1.2\lvgl\src\lv_objx/lv_btnm.c **** static bool lv_btnm_design(lv_obj_t * btnm, const lv_area_t * mask, lv_design_mode_t mode);
  33:..\..\..\lvgl\version_6.1.2\lvgl\src\lv_objx/lv_btnm.c **** static uint8_t get_button_width(lv_btnm_ctrl_t ctrl_bits);
  34:..\..\..\lvgl\version_6.1.2\lvgl\src\lv_objx/lv_btnm.c **** static bool button_is_hidden(lv_btnm_ctrl_t ctrl_bits);
  35:..\..\..\lvgl\version_6.1.2\lvgl\src\lv_objx/lv_btnm.c **** static bool button_is_repeat_disabled(lv_btnm_ctrl_t ctrl_bits);
  36:..\..\..\lvgl\version_6.1.2\lvgl\src\lv_objx/lv_btnm.c **** static bool button_is_inactive(lv_btnm_ctrl_t ctrl_bits);
  37:..\..\..\lvgl\version_6.1.2\lvgl\src\lv_objx/lv_btnm.c **** static bool button_is_click_trig(lv_btnm_ctrl_t ctrl_bits);
  38:..\..\..\lvgl\version_6.1.2\lvgl\src\lv_objx/lv_btnm.c **** static bool button_is_tgl_enabled(lv_btnm_ctrl_t ctrl_bits);
  39:..\..\..\lvgl\version_6.1.2\lvgl\src\lv_objx/lv_btnm.c **** static bool button_get_tgl_state(lv_btnm_ctrl_t ctrl_bits);
  40:..\..\..\lvgl\version_6.1.2\lvgl\src\lv_objx/lv_btnm.c **** static uint16_t get_button_from_point(lv_obj_t * btnm, lv_point_t * p);
  41:..\..\..\lvgl\version_6.1.2\lvgl\src\lv_objx/lv_btnm.c **** static void allocate_btn_areas_and_controls(const lv_obj_t * btnm, const char ** map);
  42:..\..\..\lvgl\version_6.1.2\lvgl\src\lv_objx/lv_btnm.c **** static void invalidate_button_area(const lv_obj_t * btnm, uint16_t btn_idx);
  43:..\..\..\lvgl\version_6.1.2\lvgl\src\lv_objx/lv_btnm.c **** static bool maps_are_identical(const char ** map1, const char ** map2);
  44:..\..\..\lvgl\version_6.1.2\lvgl\src\lv_objx/lv_btnm.c **** static void make_one_button_toggled(lv_obj_t * btnm, uint16_t btn_idx);
  45:..\..\..\lvgl\version_6.1.2\lvgl\src\lv_objx/lv_btnm.c **** 
  46:..\..\..\lvgl\version_6.1.2\lvgl\src\lv_objx/lv_btnm.c **** /**********************
  47:..\..\..\lvgl\version_6.1.2\lvgl\src\lv_objx/lv_btnm.c ****  *  STATIC VARIABLES
  48:..\..\..\lvgl\version_6.1.2\lvgl\src\lv_objx/lv_btnm.c ****  **********************/
  49:..\..\..\lvgl\version_6.1.2\lvgl\src\lv_objx/lv_btnm.c **** static const char * lv_btnm_def_map[] = {"Btn1", "Btn2", "Btn3", "\n", "Btn4", "Btn5", ""};
  50:..\..\..\lvgl\version_6.1.2\lvgl\src\lv_objx/lv_btnm.c **** 
  51:..\..\..\lvgl\version_6.1.2\lvgl\src\lv_objx/lv_btnm.c **** static lv_design_cb_t ancestor_design_f;
  52:..\..\..\lvgl\version_6.1.2\lvgl\src\lv_objx/lv_btnm.c **** static lv_signal_cb_t ancestor_signal;
  53:..\..\..\lvgl\version_6.1.2\lvgl\src\lv_objx/lv_btnm.c **** 
  54:..\..\..\lvgl\version_6.1.2\lvgl\src\lv_objx/lv_btnm.c **** /**********************
  55:..\..\..\lvgl\version_6.1.2\lvgl\src\lv_objx/lv_btnm.c ****  *      MACROS
  56:..\..\..\lvgl\version_6.1.2\lvgl\src\lv_objx/lv_btnm.c ****  **********************/
  57:..\..\..\lvgl\version_6.1.2\lvgl\src\lv_objx/lv_btnm.c **** 
  58:..\..\..\lvgl\version_6.1.2\lvgl\src\lv_objx/lv_btnm.c **** /**********************
  59:..\..\..\lvgl\version_6.1.2\lvgl\src\lv_objx/lv_btnm.c ****  *   GLOBAL FUNCTIONS
  60:..\..\..\lvgl\version_6.1.2\lvgl\src\lv_objx/lv_btnm.c ****  **********************/
  61:..\..\..\lvgl\version_6.1.2\lvgl\src\lv_objx/lv_btnm.c **** 
  62:..\..\..\lvgl\version_6.1.2\lvgl\src\lv_objx/lv_btnm.c **** /**
  63:..\..\..\lvgl\version_6.1.2\lvgl\src\lv_objx/lv_btnm.c ****  * Create a button matrix objects
  64:..\..\..\lvgl\version_6.1.2\lvgl\src\lv_objx/lv_btnm.c ****  * @param par pointer to an object, it will be the parent of the new button matrix
  65:..\..\..\lvgl\version_6.1.2\lvgl\src\lv_objx/lv_btnm.c ****  * @param copy pointer to a button matrix object, if not NULL then the new object will be copied
  66:..\..\..\lvgl\version_6.1.2\lvgl\src\lv_objx/lv_btnm.c ****  * from it
  67:..\..\..\lvgl\version_6.1.2\lvgl\src\lv_objx/lv_btnm.c ****  * @return pointer to the created button matrix
  68:..\..\..\lvgl\version_6.1.2\lvgl\src\lv_objx/lv_btnm.c ****  */
  69:..\..\..\lvgl\version_6.1.2\lvgl\src\lv_objx/lv_btnm.c **** lv_obj_t * lv_btnm_create(lv_obj_t * par, const lv_obj_t * copy)
  70:..\..\..\lvgl\version_6.1.2\lvgl\src\lv_objx/lv_btnm.c **** {
  71:..\..\..\lvgl\version_6.1.2\lvgl\src\lv_objx/lv_btnm.c ****     LV_LOG_TRACE("button matrix create started");
  72:..\..\..\lvgl\version_6.1.2\lvgl\src\lv_objx/lv_btnm.c **** 
  73:..\..\..\lvgl\version_6.1.2\lvgl\src\lv_objx/lv_btnm.c ****     /*Create the ancestor object*/
  74:..\..\..\lvgl\version_6.1.2\lvgl\src\lv_objx/lv_btnm.c ****     lv_obj_t * new_btnm = lv_obj_create(par, copy);
  75:..\..\..\lvgl\version_6.1.2\lvgl\src\lv_objx/lv_btnm.c ****     LV_ASSERT_MEM(new_btnm);
  76:..\..\..\lvgl\version_6.1.2\lvgl\src\lv_objx/lv_btnm.c ****     if(new_btnm == NULL) return NULL;
  77:..\..\..\lvgl\version_6.1.2\lvgl\src\lv_objx/lv_btnm.c **** 
  78:..\..\..\lvgl\version_6.1.2\lvgl\src\lv_objx/lv_btnm.c ****     if(ancestor_signal == NULL) ancestor_signal = lv_obj_get_signal_cb(new_btnm);
  79:..\..\..\lvgl\version_6.1.2\lvgl\src\lv_objx/lv_btnm.c **** 
  80:..\..\..\lvgl\version_6.1.2\lvgl\src\lv_objx/lv_btnm.c ****     /*Allocate the object type specific extended data*/
  81:..\..\..\lvgl\version_6.1.2\lvgl\src\lv_objx/lv_btnm.c ****     lv_btnm_ext_t * ext = lv_obj_allocate_ext_attr(new_btnm, sizeof(lv_btnm_ext_t));
  82:..\..\..\lvgl\version_6.1.2\lvgl\src\lv_objx/lv_btnm.c ****     LV_ASSERT_MEM(ext);
  83:..\..\..\lvgl\version_6.1.2\lvgl\src\lv_objx/lv_btnm.c ****     if(ext == NULL) return NULL;
  84:..\..\..\lvgl\version_6.1.2\lvgl\src\lv_objx/lv_btnm.c **** 
  85:..\..\..\lvgl\version_6.1.2\lvgl\src\lv_objx/lv_btnm.c ****     ext->btn_cnt                          = 0;
  86:..\..\..\lvgl\version_6.1.2\lvgl\src\lv_objx/lv_btnm.c ****     ext->btn_id_pr                        = LV_BTNM_BTN_NONE;
  87:..\..\..\lvgl\version_6.1.2\lvgl\src\lv_objx/lv_btnm.c ****     ext->btn_id_act                       = LV_BTNM_BTN_NONE;
ARM GAS  C:\Users\pearlstl\AppData\Local\Temp\ccUkXBYk.s 			page 3


  88:..\..\..\lvgl\version_6.1.2\lvgl\src\lv_objx/lv_btnm.c ****     ext->button_areas                     = NULL;
  89:..\..\..\lvgl\version_6.1.2\lvgl\src\lv_objx/lv_btnm.c ****     ext->ctrl_bits                        = NULL;
  90:..\..\..\lvgl\version_6.1.2\lvgl\src\lv_objx/lv_btnm.c ****     ext->map_p                            = NULL;
  91:..\..\..\lvgl\version_6.1.2\lvgl\src\lv_objx/lv_btnm.c ****     ext->recolor                          = 0;
  92:..\..\..\lvgl\version_6.1.2\lvgl\src\lv_objx/lv_btnm.c ****     ext->one_toggle                       = 0;
  93:..\..\..\lvgl\version_6.1.2\lvgl\src\lv_objx/lv_btnm.c ****     ext->styles_btn[LV_BTN_STATE_REL]     = &lv_style_btn_rel;
  94:..\..\..\lvgl\version_6.1.2\lvgl\src\lv_objx/lv_btnm.c ****     ext->styles_btn[LV_BTN_STATE_PR]      = &lv_style_btn_pr;
  95:..\..\..\lvgl\version_6.1.2\lvgl\src\lv_objx/lv_btnm.c ****     ext->styles_btn[LV_BTN_STATE_TGL_REL] = &lv_style_btn_tgl_rel;
  96:..\..\..\lvgl\version_6.1.2\lvgl\src\lv_objx/lv_btnm.c ****     ext->styles_btn[LV_BTN_STATE_TGL_PR]  = &lv_style_btn_tgl_pr;
  97:..\..\..\lvgl\version_6.1.2\lvgl\src\lv_objx/lv_btnm.c ****     ext->styles_btn[LV_BTN_STATE_INA]     = &lv_style_btn_ina;
  98:..\..\..\lvgl\version_6.1.2\lvgl\src\lv_objx/lv_btnm.c **** 
  99:..\..\..\lvgl\version_6.1.2\lvgl\src\lv_objx/lv_btnm.c ****     if(ancestor_design_f == NULL) ancestor_design_f = lv_obj_get_design_cb(new_btnm);
 100:..\..\..\lvgl\version_6.1.2\lvgl\src\lv_objx/lv_btnm.c **** 
 101:..\..\..\lvgl\version_6.1.2\lvgl\src\lv_objx/lv_btnm.c ****     lv_obj_set_signal_cb(new_btnm, lv_btnm_signal);
 102:..\..\..\lvgl\version_6.1.2\lvgl\src\lv_objx/lv_btnm.c ****     lv_obj_set_design_cb(new_btnm, lv_btnm_design);
 103:..\..\..\lvgl\version_6.1.2\lvgl\src\lv_objx/lv_btnm.c **** 
 104:..\..\..\lvgl\version_6.1.2\lvgl\src\lv_objx/lv_btnm.c ****     /*Init the new button matrix object*/
 105:..\..\..\lvgl\version_6.1.2\lvgl\src\lv_objx/lv_btnm.c ****     if(copy == NULL) {
 106:..\..\..\lvgl\version_6.1.2\lvgl\src\lv_objx/lv_btnm.c ****         lv_btnm_set_map(new_btnm, lv_btnm_def_map);
 107:..\..\..\lvgl\version_6.1.2\lvgl\src\lv_objx/lv_btnm.c ****         lv_obj_set_size(new_btnm, LV_DPI * 3, LV_DPI * 2);
 108:..\..\..\lvgl\version_6.1.2\lvgl\src\lv_objx/lv_btnm.c **** 
 109:..\..\..\lvgl\version_6.1.2\lvgl\src\lv_objx/lv_btnm.c ****         /*Set the default styles*/
 110:..\..\..\lvgl\version_6.1.2\lvgl\src\lv_objx/lv_btnm.c ****         lv_theme_t * th = lv_theme_get_current();
 111:..\..\..\lvgl\version_6.1.2\lvgl\src\lv_objx/lv_btnm.c ****         if(th) {
 112:..\..\..\lvgl\version_6.1.2\lvgl\src\lv_objx/lv_btnm.c ****             lv_btnm_set_style(new_btnm, LV_BTNM_STYLE_BG, th->style.btnm.bg);
 113:..\..\..\lvgl\version_6.1.2\lvgl\src\lv_objx/lv_btnm.c ****             lv_btnm_set_style(new_btnm, LV_BTNM_STYLE_BTN_REL, th->style.btnm.btn.rel);
 114:..\..\..\lvgl\version_6.1.2\lvgl\src\lv_objx/lv_btnm.c ****             lv_btnm_set_style(new_btnm, LV_BTNM_STYLE_BTN_PR, th->style.btnm.btn.pr);
 115:..\..\..\lvgl\version_6.1.2\lvgl\src\lv_objx/lv_btnm.c ****             lv_btnm_set_style(new_btnm, LV_BTNM_STYLE_BTN_TGL_REL, th->style.btnm.btn.tgl_rel);
 116:..\..\..\lvgl\version_6.1.2\lvgl\src\lv_objx/lv_btnm.c ****             lv_btnm_set_style(new_btnm, LV_BTNM_STYLE_BTN_TGL_PR, th->style.btnm.btn.tgl_pr);
 117:..\..\..\lvgl\version_6.1.2\lvgl\src\lv_objx/lv_btnm.c ****             lv_btnm_set_style(new_btnm, LV_BTNM_STYLE_BTN_INA, th->style.btnm.btn.ina);
 118:..\..\..\lvgl\version_6.1.2\lvgl\src\lv_objx/lv_btnm.c ****         } else {
 119:..\..\..\lvgl\version_6.1.2\lvgl\src\lv_objx/lv_btnm.c ****             lv_obj_set_style(new_btnm, &lv_style_pretty);
 120:..\..\..\lvgl\version_6.1.2\lvgl\src\lv_objx/lv_btnm.c ****         }
 121:..\..\..\lvgl\version_6.1.2\lvgl\src\lv_objx/lv_btnm.c ****     }
 122:..\..\..\lvgl\version_6.1.2\lvgl\src\lv_objx/lv_btnm.c ****     /*Copy an existing object*/
 123:..\..\..\lvgl\version_6.1.2\lvgl\src\lv_objx/lv_btnm.c ****     else {
 124:..\..\..\lvgl\version_6.1.2\lvgl\src\lv_objx/lv_btnm.c ****         lv_btnm_ext_t * copy_ext = lv_obj_get_ext_attr(copy);
 125:..\..\..\lvgl\version_6.1.2\lvgl\src\lv_objx/lv_btnm.c ****         memcpy((void*)ext->styles_btn, copy_ext->styles_btn, sizeof(ext->styles_btn));
 126:..\..\..\lvgl\version_6.1.2\lvgl\src\lv_objx/lv_btnm.c ****         lv_btnm_set_map(new_btnm, lv_btnm_get_map_array(copy));
 127:..\..\..\lvgl\version_6.1.2\lvgl\src\lv_objx/lv_btnm.c ****     }
 128:..\..\..\lvgl\version_6.1.2\lvgl\src\lv_objx/lv_btnm.c **** 
 129:..\..\..\lvgl\version_6.1.2\lvgl\src\lv_objx/lv_btnm.c ****     LV_LOG_INFO("button matrix created");
 130:..\..\..\lvgl\version_6.1.2\lvgl\src\lv_objx/lv_btnm.c **** 
 131:..\..\..\lvgl\version_6.1.2\lvgl\src\lv_objx/lv_btnm.c ****     return new_btnm;
 132:..\..\..\lvgl\version_6.1.2\lvgl\src\lv_objx/lv_btnm.c **** }
 133:..\..\..\lvgl\version_6.1.2\lvgl\src\lv_objx/lv_btnm.c **** 
 134:..\..\..\lvgl\version_6.1.2\lvgl\src\lv_objx/lv_btnm.c **** /*=====================
 135:..\..\..\lvgl\version_6.1.2\lvgl\src\lv_objx/lv_btnm.c ****  * Setter functions
 136:..\..\..\lvgl\version_6.1.2\lvgl\src\lv_objx/lv_btnm.c ****  *====================*/
 137:..\..\..\lvgl\version_6.1.2\lvgl\src\lv_objx/lv_btnm.c **** 
 138:..\..\..\lvgl\version_6.1.2\lvgl\src\lv_objx/lv_btnm.c **** /**
 139:..\..\..\lvgl\version_6.1.2\lvgl\src\lv_objx/lv_btnm.c ****  * Set a new map. Buttons will be created/deleted according to the map. The
 140:..\..\..\lvgl\version_6.1.2\lvgl\src\lv_objx/lv_btnm.c ****  * button matrix keeps a reference to the map and so the string array must not
 141:..\..\..\lvgl\version_6.1.2\lvgl\src\lv_objx/lv_btnm.c ****  * be deallocated during the life of the matrix.
 142:..\..\..\lvgl\version_6.1.2\lvgl\src\lv_objx/lv_btnm.c ****  * @param btnm pointer to a button matrix object
 143:..\..\..\lvgl\version_6.1.2\lvgl\src\lv_objx/lv_btnm.c ****  * @param map pointer a string array. The last string has to be: "". Use "\n" to make a line break.
 144:..\..\..\lvgl\version_6.1.2\lvgl\src\lv_objx/lv_btnm.c ****  */
ARM GAS  C:\Users\pearlstl\AppData\Local\Temp\ccUkXBYk.s 			page 4


 145:..\..\..\lvgl\version_6.1.2\lvgl\src\lv_objx/lv_btnm.c **** void lv_btnm_set_map(const lv_obj_t * btnm, const char * map[])
 146:..\..\..\lvgl\version_6.1.2\lvgl\src\lv_objx/lv_btnm.c **** {
 147:..\..\..\lvgl\version_6.1.2\lvgl\src\lv_objx/lv_btnm.c ****     LV_ASSERT_OBJ(btnm, LV_OBJX_NAME);
 148:..\..\..\lvgl\version_6.1.2\lvgl\src\lv_objx/lv_btnm.c ****     LV_ASSERT_NULL(map);
 149:..\..\..\lvgl\version_6.1.2\lvgl\src\lv_objx/lv_btnm.c **** 
 150:..\..\..\lvgl\version_6.1.2\lvgl\src\lv_objx/lv_btnm.c ****     /*
 151:..\..\..\lvgl\version_6.1.2\lvgl\src\lv_objx/lv_btnm.c ****      * lv_btnm_set_map is called on receipt of signals such as
 152:..\..\..\lvgl\version_6.1.2\lvgl\src\lv_objx/lv_btnm.c ****      * LV_SIGNAL_CORD_CHG regardless of whether the map has changed (e.g.
 153:..\..\..\lvgl\version_6.1.2\lvgl\src\lv_objx/lv_btnm.c ****      * calling lv_obj_align on the map will trigger this).
 154:..\..\..\lvgl\version_6.1.2\lvgl\src\lv_objx/lv_btnm.c ****      *
 155:..\..\..\lvgl\version_6.1.2\lvgl\src\lv_objx/lv_btnm.c ****      * We check if the map has changed here to avoid overwriting changes made
 156:..\..\..\lvgl\version_6.1.2\lvgl\src\lv_objx/lv_btnm.c ****      * to hidden/longpress/disabled states after the map was originally set.
 157:..\..\..\lvgl\version_6.1.2\lvgl\src\lv_objx/lv_btnm.c ****      *
 158:..\..\..\lvgl\version_6.1.2\lvgl\src\lv_objx/lv_btnm.c ****      * TODO: separate all map set/allocation from layout code below and skip
 159:..\..\..\lvgl\version_6.1.2\lvgl\src\lv_objx/lv_btnm.c ****      * set/allocation when map hasn't changed.
 160:..\..\..\lvgl\version_6.1.2\lvgl\src\lv_objx/lv_btnm.c ****      */
 161:..\..\..\lvgl\version_6.1.2\lvgl\src\lv_objx/lv_btnm.c ****     lv_btnm_ext_t * ext = lv_obj_get_ext_attr(btnm);
 162:..\..\..\lvgl\version_6.1.2\lvgl\src\lv_objx/lv_btnm.c ****     if(!maps_are_identical(ext->map_p, map)) {
 163:..\..\..\lvgl\version_6.1.2\lvgl\src\lv_objx/lv_btnm.c **** 
 164:..\..\..\lvgl\version_6.1.2\lvgl\src\lv_objx/lv_btnm.c ****         /*Analyze the map and create the required number of buttons*/
 165:..\..\..\lvgl\version_6.1.2\lvgl\src\lv_objx/lv_btnm.c ****         allocate_btn_areas_and_controls(btnm, map);
 166:..\..\..\lvgl\version_6.1.2\lvgl\src\lv_objx/lv_btnm.c ****     }
 167:..\..\..\lvgl\version_6.1.2\lvgl\src\lv_objx/lv_btnm.c ****     ext->map_p = map;
 168:..\..\..\lvgl\version_6.1.2\lvgl\src\lv_objx/lv_btnm.c **** 
 169:..\..\..\lvgl\version_6.1.2\lvgl\src\lv_objx/lv_btnm.c ****     /*Set size and positions of the buttons*/
 170:..\..\..\lvgl\version_6.1.2\lvgl\src\lv_objx/lv_btnm.c ****     const lv_style_t * style_bg = lv_btnm_get_style(btnm, LV_BTNM_STYLE_BG);
 171:..\..\..\lvgl\version_6.1.2\lvgl\src\lv_objx/lv_btnm.c ****     lv_coord_t max_w            = lv_obj_get_width(btnm) - style_bg->body.padding.left - style_bg->
 172:..\..\..\lvgl\version_6.1.2\lvgl\src\lv_objx/lv_btnm.c ****     lv_coord_t max_h            = lv_obj_get_height(btnm) - style_bg->body.padding.top - style_bg->
 173:..\..\..\lvgl\version_6.1.2\lvgl\src\lv_objx/lv_btnm.c ****     lv_coord_t act_y            = style_bg->body.padding.top;
 174:..\..\..\lvgl\version_6.1.2\lvgl\src\lv_objx/lv_btnm.c **** 
 175:..\..\..\lvgl\version_6.1.2\lvgl\src\lv_objx/lv_btnm.c ****     /*Count the lines to calculate button height*/
 176:..\..\..\lvgl\version_6.1.2\lvgl\src\lv_objx/lv_btnm.c ****     uint8_t line_cnt = 1;
 177:..\..\..\lvgl\version_6.1.2\lvgl\src\lv_objx/lv_btnm.c ****     uint8_t li;
 178:..\..\..\lvgl\version_6.1.2\lvgl\src\lv_objx/lv_btnm.c ****     for(li = 0; strlen(map[li]) != 0; li++) {
 179:..\..\..\lvgl\version_6.1.2\lvgl\src\lv_objx/lv_btnm.c ****         if(strcmp(map[li], "\n") == 0) line_cnt++;
 180:..\..\..\lvgl\version_6.1.2\lvgl\src\lv_objx/lv_btnm.c ****     }
 181:..\..\..\lvgl\version_6.1.2\lvgl\src\lv_objx/lv_btnm.c **** 
 182:..\..\..\lvgl\version_6.1.2\lvgl\src\lv_objx/lv_btnm.c ****     lv_coord_t btn_h = max_h - ((line_cnt - 1) * style_bg->body.padding.inner);
 183:..\..\..\lvgl\version_6.1.2\lvgl\src\lv_objx/lv_btnm.c ****     btn_h            = btn_h / line_cnt;
 184:..\..\..\lvgl\version_6.1.2\lvgl\src\lv_objx/lv_btnm.c ****     btn_h--; /*-1 because e.g. height = 100 means 101 pixels (0..100)*/
 185:..\..\..\lvgl\version_6.1.2\lvgl\src\lv_objx/lv_btnm.c **** 
 186:..\..\..\lvgl\version_6.1.2\lvgl\src\lv_objx/lv_btnm.c ****     /* Count the units and the buttons in a line
 187:..\..\..\lvgl\version_6.1.2\lvgl\src\lv_objx/lv_btnm.c ****      * (A button can be 1,2,3... unit wide)*/
 188:..\..\..\lvgl\version_6.1.2\lvgl\src\lv_objx/lv_btnm.c ****     uint16_t unit_cnt;           /*Number of units in a row*/
 189:..\..\..\lvgl\version_6.1.2\lvgl\src\lv_objx/lv_btnm.c ****     uint16_t unit_act_cnt;       /*Number of units currently put in a row*/
 190:..\..\..\lvgl\version_6.1.2\lvgl\src\lv_objx/lv_btnm.c ****     uint16_t btn_cnt;            /*Number of buttons in a row*/
 191:..\..\..\lvgl\version_6.1.2\lvgl\src\lv_objx/lv_btnm.c ****     uint16_t i_tot          = 0; /*Act. index in the str map*/
 192:..\..\..\lvgl\version_6.1.2\lvgl\src\lv_objx/lv_btnm.c ****     uint16_t btn_i          = 0; /*Act. index of button areas*/
 193:..\..\..\lvgl\version_6.1.2\lvgl\src\lv_objx/lv_btnm.c ****     const char ** map_p_tmp = map;
 194:..\..\..\lvgl\version_6.1.2\lvgl\src\lv_objx/lv_btnm.c **** 
 195:..\..\..\lvgl\version_6.1.2\lvgl\src\lv_objx/lv_btnm.c ****     /*Count the units and the buttons in a line*/
 196:..\..\..\lvgl\version_6.1.2\lvgl\src\lv_objx/lv_btnm.c ****     while(1) {
 197:..\..\..\lvgl\version_6.1.2\lvgl\src\lv_objx/lv_btnm.c ****         unit_cnt = 0;
 198:..\..\..\lvgl\version_6.1.2\lvgl\src\lv_objx/lv_btnm.c ****         btn_cnt  = 0;
 199:..\..\..\lvgl\version_6.1.2\lvgl\src\lv_objx/lv_btnm.c ****         /*Count the buttons in a line*/
 200:..\..\..\lvgl\version_6.1.2\lvgl\src\lv_objx/lv_btnm.c ****         while(strcmp(map_p_tmp[btn_cnt], "\n") != 0 && strlen(map_p_tmp[btn_cnt]) != 0) { /*Check a
 201:..\..\..\lvgl\version_6.1.2\lvgl\src\lv_objx/lv_btnm.c ****             unit_cnt += get_button_width(ext->ctrl_bits[btn_i + btn_cnt]);
ARM GAS  C:\Users\pearlstl\AppData\Local\Temp\ccUkXBYk.s 			page 5


 202:..\..\..\lvgl\version_6.1.2\lvgl\src\lv_objx/lv_btnm.c ****             btn_cnt++;
 203:..\..\..\lvgl\version_6.1.2\lvgl\src\lv_objx/lv_btnm.c ****         }
 204:..\..\..\lvgl\version_6.1.2\lvgl\src\lv_objx/lv_btnm.c **** 
 205:..\..\..\lvgl\version_6.1.2\lvgl\src\lv_objx/lv_btnm.c ****         /*Make sure the last row is at the bottom of 'btnm'*/
 206:..\..\..\lvgl\version_6.1.2\lvgl\src\lv_objx/lv_btnm.c ****         if(map_p_tmp[btn_cnt][0] == '\0') { /*Last row?*/
 207:..\..\..\lvgl\version_6.1.2\lvgl\src\lv_objx/lv_btnm.c ****             btn_h = lv_obj_get_height(btnm)- act_y - style_bg->body.padding.bottom - 1;
 208:..\..\..\lvgl\version_6.1.2\lvgl\src\lv_objx/lv_btnm.c ****         }
 209:..\..\..\lvgl\version_6.1.2\lvgl\src\lv_objx/lv_btnm.c **** 
 210:..\..\..\lvgl\version_6.1.2\lvgl\src\lv_objx/lv_btnm.c ****         lv_bidi_dir_t base_dir = lv_obj_get_base_dir(btnm);
 211:..\..\..\lvgl\version_6.1.2\lvgl\src\lv_objx/lv_btnm.c **** 
 212:..\..\..\lvgl\version_6.1.2\lvgl\src\lv_objx/lv_btnm.c ****         /*Only deal with the non empty lines*/
 213:..\..\..\lvgl\version_6.1.2\lvgl\src\lv_objx/lv_btnm.c ****         if(btn_cnt != 0) {
 214:..\..\..\lvgl\version_6.1.2\lvgl\src\lv_objx/lv_btnm.c ****             /*Calculate the width of all units*/
 215:..\..\..\lvgl\version_6.1.2\lvgl\src\lv_objx/lv_btnm.c ****             lv_coord_t all_unit_w = max_w - ((btn_cnt - 1) * style_bg->body.padding.inner);
 216:..\..\..\lvgl\version_6.1.2\lvgl\src\lv_objx/lv_btnm.c **** 
 217:..\..\..\lvgl\version_6.1.2\lvgl\src\lv_objx/lv_btnm.c ****             /*Set the button size and positions and set the texts*/
 218:..\..\..\lvgl\version_6.1.2\lvgl\src\lv_objx/lv_btnm.c ****             uint16_t i;
 219:..\..\..\lvgl\version_6.1.2\lvgl\src\lv_objx/lv_btnm.c ****             lv_coord_t act_x;
 220:..\..\..\lvgl\version_6.1.2\lvgl\src\lv_objx/lv_btnm.c **** 
 221:..\..\..\lvgl\version_6.1.2\lvgl\src\lv_objx/lv_btnm.c ****             lv_coord_t act_unit_w;
 222:..\..\..\lvgl\version_6.1.2\lvgl\src\lv_objx/lv_btnm.c ****             unit_act_cnt = 0;
 223:..\..\..\lvgl\version_6.1.2\lvgl\src\lv_objx/lv_btnm.c ****             for(i = 0; i < btn_cnt; i++) {
 224:..\..\..\lvgl\version_6.1.2\lvgl\src\lv_objx/lv_btnm.c ****                 /* one_unit_w = all_unit_w / unit_cnt
 225:..\..\..\lvgl\version_6.1.2\lvgl\src\lv_objx/lv_btnm.c ****                  * act_unit_w = one_unit_w * button_width
 226:..\..\..\lvgl\version_6.1.2\lvgl\src\lv_objx/lv_btnm.c ****                  * do this two operations but the multiply first to divide a greater number */
 227:..\..\..\lvgl\version_6.1.2\lvgl\src\lv_objx/lv_btnm.c ****                 act_unit_w = (all_unit_w * get_button_width(ext->ctrl_bits[btn_i])) / unit_cnt;
 228:..\..\..\lvgl\version_6.1.2\lvgl\src\lv_objx/lv_btnm.c ****                 act_unit_w--; /*-1 because e.g. width = 100 means 101 pixels (0..100)*/
 229:..\..\..\lvgl\version_6.1.2\lvgl\src\lv_objx/lv_btnm.c **** 
 230:..\..\..\lvgl\version_6.1.2\lvgl\src\lv_objx/lv_btnm.c ****                 /*Always recalculate act_x because of rounding errors */
 231:..\..\..\lvgl\version_6.1.2\lvgl\src\lv_objx/lv_btnm.c ****                 if(base_dir == LV_BIDI_DIR_RTL)  {
 232:..\..\..\lvgl\version_6.1.2\lvgl\src\lv_objx/lv_btnm.c ****                     act_x = (unit_act_cnt * all_unit_w) / unit_cnt + i * style_bg->body.padding.inn
 233:..\..\..\lvgl\version_6.1.2\lvgl\src\lv_objx/lv_btnm.c ****                     act_x = lv_obj_get_width(btnm) - style_bg->body.padding.right - act_x - act_uni
 234:..\..\..\lvgl\version_6.1.2\lvgl\src\lv_objx/lv_btnm.c ****                 } else {
 235:..\..\..\lvgl\version_6.1.2\lvgl\src\lv_objx/lv_btnm.c ****                     act_x = (unit_act_cnt * all_unit_w) / unit_cnt + i * style_bg->body.padding.inn
 236:..\..\..\lvgl\version_6.1.2\lvgl\src\lv_objx/lv_btnm.c ****                             style_bg->body.padding.left;
 237:..\..\..\lvgl\version_6.1.2\lvgl\src\lv_objx/lv_btnm.c ****                 }
 238:..\..\..\lvgl\version_6.1.2\lvgl\src\lv_objx/lv_btnm.c ****                 /* Set the button's area.
 239:..\..\..\lvgl\version_6.1.2\lvgl\src\lv_objx/lv_btnm.c ****                  * If inner padding is zero then use the prev. button x2 as x1 to avoid rounding
 240:..\..\..\lvgl\version_6.1.2\lvgl\src\lv_objx/lv_btnm.c ****                  * errors*/
 241:..\..\..\lvgl\version_6.1.2\lvgl\src\lv_objx/lv_btnm.c ****                 if(style_bg->body.padding.inner == 0 && act_x != style_bg->body.padding.left) {
 242:..\..\..\lvgl\version_6.1.2\lvgl\src\lv_objx/lv_btnm.c ****                     lv_area_set(&ext->button_areas[btn_i], ext->button_areas[btn_i - 1].x2, act_y, 
 243:..\..\..\lvgl\version_6.1.2\lvgl\src\lv_objx/lv_btnm.c ****                                 act_y + btn_h);
 244:..\..\..\lvgl\version_6.1.2\lvgl\src\lv_objx/lv_btnm.c ****                 } else {
 245:..\..\..\lvgl\version_6.1.2\lvgl\src\lv_objx/lv_btnm.c ****                     lv_area_set(&ext->button_areas[btn_i], act_x, act_y, act_x + act_unit_w, act_y 
 246:..\..\..\lvgl\version_6.1.2\lvgl\src\lv_objx/lv_btnm.c ****                 }
 247:..\..\..\lvgl\version_6.1.2\lvgl\src\lv_objx/lv_btnm.c **** 
 248:..\..\..\lvgl\version_6.1.2\lvgl\src\lv_objx/lv_btnm.c ****                 unit_act_cnt += get_button_width(ext->ctrl_bits[btn_i]);
 249:..\..\..\lvgl\version_6.1.2\lvgl\src\lv_objx/lv_btnm.c **** 
 250:..\..\..\lvgl\version_6.1.2\lvgl\src\lv_objx/lv_btnm.c ****                 i_tot++;
 251:..\..\..\lvgl\version_6.1.2\lvgl\src\lv_objx/lv_btnm.c ****                 btn_i++;
 252:..\..\..\lvgl\version_6.1.2\lvgl\src\lv_objx/lv_btnm.c ****             }
 253:..\..\..\lvgl\version_6.1.2\lvgl\src\lv_objx/lv_btnm.c ****         }
 254:..\..\..\lvgl\version_6.1.2\lvgl\src\lv_objx/lv_btnm.c ****         act_y += btn_h + style_bg->body.padding.inner + 1;
 255:..\..\..\lvgl\version_6.1.2\lvgl\src\lv_objx/lv_btnm.c **** 
 256:..\..\..\lvgl\version_6.1.2\lvgl\src\lv_objx/lv_btnm.c ****         if(strlen(map_p_tmp[btn_cnt]) == 0) break; /*Break on end of map*/
 257:..\..\..\lvgl\version_6.1.2\lvgl\src\lv_objx/lv_btnm.c ****         map_p_tmp = &map_p_tmp[btn_cnt + 1];       /*Set the map to the next line*/
 258:..\..\..\lvgl\version_6.1.2\lvgl\src\lv_objx/lv_btnm.c ****         i_tot++;                                   /*Skip the '\n'*/
ARM GAS  C:\Users\pearlstl\AppData\Local\Temp\ccUkXBYk.s 			page 6


 259:..\..\..\lvgl\version_6.1.2\lvgl\src\lv_objx/lv_btnm.c ****     }
 260:..\..\..\lvgl\version_6.1.2\lvgl\src\lv_objx/lv_btnm.c **** 
 261:..\..\..\lvgl\version_6.1.2\lvgl\src\lv_objx/lv_btnm.c ****     lv_obj_invalidate(btnm);
 262:..\..\..\lvgl\version_6.1.2\lvgl\src\lv_objx/lv_btnm.c **** }
 263:..\..\..\lvgl\version_6.1.2\lvgl\src\lv_objx/lv_btnm.c **** 
 264:..\..\..\lvgl\version_6.1.2\lvgl\src\lv_objx/lv_btnm.c **** /**
 265:..\..\..\lvgl\version_6.1.2\lvgl\src\lv_objx/lv_btnm.c ****  * Set the button control map (hidden, disabled etc.) for a button matrix. The
 266:..\..\..\lvgl\version_6.1.2\lvgl\src\lv_objx/lv_btnm.c ****  * control map array will be copied and so may be deallocated after this
 267:..\..\..\lvgl\version_6.1.2\lvgl\src\lv_objx/lv_btnm.c ****  * function returns.
 268:..\..\..\lvgl\version_6.1.2\lvgl\src\lv_objx/lv_btnm.c ****  * @param btnm pointer to a button matrix object
 269:..\..\..\lvgl\version_6.1.2\lvgl\src\lv_objx/lv_btnm.c ****  * @param ctrl_map pointer to an array of `lv_btn_ctrl_t` control bytes. The
 270:..\..\..\lvgl\version_6.1.2\lvgl\src\lv_objx/lv_btnm.c ****  *                 length of the array and position of the elements must match
 271:..\..\..\lvgl\version_6.1.2\lvgl\src\lv_objx/lv_btnm.c ****  *                 the number and order of the individual buttons (i.e. excludes
 272:..\..\..\lvgl\version_6.1.2\lvgl\src\lv_objx/lv_btnm.c ****  *                 newline entries).
 273:..\..\..\lvgl\version_6.1.2\lvgl\src\lv_objx/lv_btnm.c ****  *                 An element of the map should look like e.g.:
 274:..\..\..\lvgl\version_6.1.2\lvgl\src\lv_objx/lv_btnm.c ****  *                 `ctrl_map[0] = width | LV_BTNM_CTRL_NO_REPEAT |  LV_BTNM_CTRL_TGL_ENABLE`
 275:..\..\..\lvgl\version_6.1.2\lvgl\src\lv_objx/lv_btnm.c ****  */
 276:..\..\..\lvgl\version_6.1.2\lvgl\src\lv_objx/lv_btnm.c **** void lv_btnm_set_ctrl_map(const lv_obj_t * btnm, const lv_btnm_ctrl_t ctrl_map[])
 277:..\..\..\lvgl\version_6.1.2\lvgl\src\lv_objx/lv_btnm.c **** {
 278:..\..\..\lvgl\version_6.1.2\lvgl\src\lv_objx/lv_btnm.c ****     LV_ASSERT_OBJ(btnm, LV_OBJX_NAME);
 279:..\..\..\lvgl\version_6.1.2\lvgl\src\lv_objx/lv_btnm.c **** 
 280:..\..\..\lvgl\version_6.1.2\lvgl\src\lv_objx/lv_btnm.c ****     lv_btnm_ext_t * ext = lv_obj_get_ext_attr(btnm);
 281:..\..\..\lvgl\version_6.1.2\lvgl\src\lv_objx/lv_btnm.c ****     memcpy(ext->ctrl_bits, ctrl_map, sizeof(lv_btnm_ctrl_t) * ext->btn_cnt);
 282:..\..\..\lvgl\version_6.1.2\lvgl\src\lv_objx/lv_btnm.c **** 
 283:..\..\..\lvgl\version_6.1.2\lvgl\src\lv_objx/lv_btnm.c ****     lv_btnm_set_map(btnm, ext->map_p);
 284:..\..\..\lvgl\version_6.1.2\lvgl\src\lv_objx/lv_btnm.c **** }
 285:..\..\..\lvgl\version_6.1.2\lvgl\src\lv_objx/lv_btnm.c **** 
 286:..\..\..\lvgl\version_6.1.2\lvgl\src\lv_objx/lv_btnm.c **** /**
 287:..\..\..\lvgl\version_6.1.2\lvgl\src\lv_objx/lv_btnm.c ****  * Set the pressed button i.e. visually highlight it.
 288:..\..\..\lvgl\version_6.1.2\lvgl\src\lv_objx/lv_btnm.c ****  * Mainly used a when the btnm is in a group to show the selected button
 289:..\..\..\lvgl\version_6.1.2\lvgl\src\lv_objx/lv_btnm.c ****  * @param btnm pointer to button matrix object
 290:..\..\..\lvgl\version_6.1.2\lvgl\src\lv_objx/lv_btnm.c ****  * @param id index of the currently pressed button (`LV_BTNM_BTN_NONE` to unpress)
 291:..\..\..\lvgl\version_6.1.2\lvgl\src\lv_objx/lv_btnm.c ****  */
 292:..\..\..\lvgl\version_6.1.2\lvgl\src\lv_objx/lv_btnm.c **** void lv_btnm_set_pressed(const lv_obj_t * btnm, uint16_t id)
 293:..\..\..\lvgl\version_6.1.2\lvgl\src\lv_objx/lv_btnm.c **** {
 294:..\..\..\lvgl\version_6.1.2\lvgl\src\lv_objx/lv_btnm.c ****     LV_ASSERT_OBJ(btnm, LV_OBJX_NAME);
 295:..\..\..\lvgl\version_6.1.2\lvgl\src\lv_objx/lv_btnm.c **** 
 296:..\..\..\lvgl\version_6.1.2\lvgl\src\lv_objx/lv_btnm.c ****     lv_btnm_ext_t * ext = lv_obj_get_ext_attr(btnm);
 297:..\..\..\lvgl\version_6.1.2\lvgl\src\lv_objx/lv_btnm.c **** 
 298:..\..\..\lvgl\version_6.1.2\lvgl\src\lv_objx/lv_btnm.c ****     if(id >= ext->btn_cnt && id != LV_BTNM_BTN_NONE) return;
 299:..\..\..\lvgl\version_6.1.2\lvgl\src\lv_objx/lv_btnm.c **** 
 300:..\..\..\lvgl\version_6.1.2\lvgl\src\lv_objx/lv_btnm.c ****     if(id == ext->btn_id_pr) return;
 301:..\..\..\lvgl\version_6.1.2\lvgl\src\lv_objx/lv_btnm.c **** 
 302:..\..\..\lvgl\version_6.1.2\lvgl\src\lv_objx/lv_btnm.c ****     ext->btn_id_pr = id;
 303:..\..\..\lvgl\version_6.1.2\lvgl\src\lv_objx/lv_btnm.c ****     lv_obj_invalidate(btnm);
 304:..\..\..\lvgl\version_6.1.2\lvgl\src\lv_objx/lv_btnm.c **** }
 305:..\..\..\lvgl\version_6.1.2\lvgl\src\lv_objx/lv_btnm.c **** 
 306:..\..\..\lvgl\version_6.1.2\lvgl\src\lv_objx/lv_btnm.c **** /**
 307:..\..\..\lvgl\version_6.1.2\lvgl\src\lv_objx/lv_btnm.c ****  * Set a style of a button matrix
 308:..\..\..\lvgl\version_6.1.2\lvgl\src\lv_objx/lv_btnm.c ****  * @param btnm pointer to a button matrix object
 309:..\..\..\lvgl\version_6.1.2\lvgl\src\lv_objx/lv_btnm.c ****  * @param type which style should be set
 310:..\..\..\lvgl\version_6.1.2\lvgl\src\lv_objx/lv_btnm.c ****  * @param style pointer to a style
 311:..\..\..\lvgl\version_6.1.2\lvgl\src\lv_objx/lv_btnm.c ****  */
 312:..\..\..\lvgl\version_6.1.2\lvgl\src\lv_objx/lv_btnm.c **** void lv_btnm_set_style(lv_obj_t * btnm, lv_btnm_style_t type, const lv_style_t * style)
 313:..\..\..\lvgl\version_6.1.2\lvgl\src\lv_objx/lv_btnm.c **** {
 314:..\..\..\lvgl\version_6.1.2\lvgl\src\lv_objx/lv_btnm.c ****     LV_ASSERT_OBJ(btnm, LV_OBJX_NAME);
 315:..\..\..\lvgl\version_6.1.2\lvgl\src\lv_objx/lv_btnm.c **** 
ARM GAS  C:\Users\pearlstl\AppData\Local\Temp\ccUkXBYk.s 			page 7


 316:..\..\..\lvgl\version_6.1.2\lvgl\src\lv_objx/lv_btnm.c ****     lv_btnm_ext_t * ext = lv_obj_get_ext_attr(btnm);
 317:..\..\..\lvgl\version_6.1.2\lvgl\src\lv_objx/lv_btnm.c **** 
 318:..\..\..\lvgl\version_6.1.2\lvgl\src\lv_objx/lv_btnm.c ****     switch(type) {
 319:..\..\..\lvgl\version_6.1.2\lvgl\src\lv_objx/lv_btnm.c ****         case LV_BTNM_STYLE_BG: lv_obj_set_style(btnm, style); break;
 320:..\..\..\lvgl\version_6.1.2\lvgl\src\lv_objx/lv_btnm.c ****         case LV_BTNM_STYLE_BTN_REL:
 321:..\..\..\lvgl\version_6.1.2\lvgl\src\lv_objx/lv_btnm.c ****             ext->styles_btn[LV_BTN_STATE_REL] = style;
 322:..\..\..\lvgl\version_6.1.2\lvgl\src\lv_objx/lv_btnm.c ****             lv_obj_invalidate(btnm);
 323:..\..\..\lvgl\version_6.1.2\lvgl\src\lv_objx/lv_btnm.c ****             break;
 324:..\..\..\lvgl\version_6.1.2\lvgl\src\lv_objx/lv_btnm.c ****         case LV_BTNM_STYLE_BTN_PR:
 325:..\..\..\lvgl\version_6.1.2\lvgl\src\lv_objx/lv_btnm.c ****             ext->styles_btn[LV_BTN_STATE_PR] = style;
 326:..\..\..\lvgl\version_6.1.2\lvgl\src\lv_objx/lv_btnm.c ****             lv_obj_invalidate(btnm);
 327:..\..\..\lvgl\version_6.1.2\lvgl\src\lv_objx/lv_btnm.c ****             break;
 328:..\..\..\lvgl\version_6.1.2\lvgl\src\lv_objx/lv_btnm.c ****         case LV_BTNM_STYLE_BTN_TGL_REL:
 329:..\..\..\lvgl\version_6.1.2\lvgl\src\lv_objx/lv_btnm.c ****             ext->styles_btn[LV_BTN_STATE_TGL_REL] = style;
 330:..\..\..\lvgl\version_6.1.2\lvgl\src\lv_objx/lv_btnm.c ****             lv_obj_invalidate(btnm);
 331:..\..\..\lvgl\version_6.1.2\lvgl\src\lv_objx/lv_btnm.c ****             break;
 332:..\..\..\lvgl\version_6.1.2\lvgl\src\lv_objx/lv_btnm.c ****         case LV_BTNM_STYLE_BTN_TGL_PR:
 333:..\..\..\lvgl\version_6.1.2\lvgl\src\lv_objx/lv_btnm.c ****             ext->styles_btn[LV_BTN_STATE_TGL_PR] = style;
 334:..\..\..\lvgl\version_6.1.2\lvgl\src\lv_objx/lv_btnm.c ****             lv_obj_invalidate(btnm);
 335:..\..\..\lvgl\version_6.1.2\lvgl\src\lv_objx/lv_btnm.c ****             break;
 336:..\..\..\lvgl\version_6.1.2\lvgl\src\lv_objx/lv_btnm.c ****         case LV_BTNM_STYLE_BTN_INA:
 337:..\..\..\lvgl\version_6.1.2\lvgl\src\lv_objx/lv_btnm.c ****             ext->styles_btn[LV_BTN_STATE_INA] = style;
 338:..\..\..\lvgl\version_6.1.2\lvgl\src\lv_objx/lv_btnm.c ****             lv_obj_invalidate(btnm);
 339:..\..\..\lvgl\version_6.1.2\lvgl\src\lv_objx/lv_btnm.c ****             break;
 340:..\..\..\lvgl\version_6.1.2\lvgl\src\lv_objx/lv_btnm.c ****     }
 341:..\..\..\lvgl\version_6.1.2\lvgl\src\lv_objx/lv_btnm.c **** }
 342:..\..\..\lvgl\version_6.1.2\lvgl\src\lv_objx/lv_btnm.c **** 
 343:..\..\..\lvgl\version_6.1.2\lvgl\src\lv_objx/lv_btnm.c **** /**
 344:..\..\..\lvgl\version_6.1.2\lvgl\src\lv_objx/lv_btnm.c ****  * Enable recoloring of button's texts
 345:..\..\..\lvgl\version_6.1.2\lvgl\src\lv_objx/lv_btnm.c ****  * @param btnm pointer to button matrix object
 346:..\..\..\lvgl\version_6.1.2\lvgl\src\lv_objx/lv_btnm.c ****  * @param en true: enable recoloring; false: disable
 347:..\..\..\lvgl\version_6.1.2\lvgl\src\lv_objx/lv_btnm.c ****  */
 348:..\..\..\lvgl\version_6.1.2\lvgl\src\lv_objx/lv_btnm.c **** void lv_btnm_set_recolor(const lv_obj_t * btnm, bool en)
 349:..\..\..\lvgl\version_6.1.2\lvgl\src\lv_objx/lv_btnm.c **** {
 350:..\..\..\lvgl\version_6.1.2\lvgl\src\lv_objx/lv_btnm.c ****     LV_ASSERT_OBJ(btnm, LV_OBJX_NAME);
 351:..\..\..\lvgl\version_6.1.2\lvgl\src\lv_objx/lv_btnm.c **** 
 352:..\..\..\lvgl\version_6.1.2\lvgl\src\lv_objx/lv_btnm.c ****     lv_btnm_ext_t * ext = lv_obj_get_ext_attr(btnm);
 353:..\..\..\lvgl\version_6.1.2\lvgl\src\lv_objx/lv_btnm.c **** 
 354:..\..\..\lvgl\version_6.1.2\lvgl\src\lv_objx/lv_btnm.c ****     ext->recolor = en;
 355:..\..\..\lvgl\version_6.1.2\lvgl\src\lv_objx/lv_btnm.c ****     lv_obj_invalidate(btnm);
 356:..\..\..\lvgl\version_6.1.2\lvgl\src\lv_objx/lv_btnm.c **** }
 357:..\..\..\lvgl\version_6.1.2\lvgl\src\lv_objx/lv_btnm.c **** 
 358:..\..\..\lvgl\version_6.1.2\lvgl\src\lv_objx/lv_btnm.c **** /**
 359:..\..\..\lvgl\version_6.1.2\lvgl\src\lv_objx/lv_btnm.c ****  * Set the attributes of a button of the button matrix
 360:..\..\..\lvgl\version_6.1.2\lvgl\src\lv_objx/lv_btnm.c ****  * @param btnm pointer to button matrix object
 361:..\..\..\lvgl\version_6.1.2\lvgl\src\lv_objx/lv_btnm.c ****  * @param btn_id 0 based index of the button to modify. (Not counting new lines)
 362:..\..\..\lvgl\version_6.1.2\lvgl\src\lv_objx/lv_btnm.c ****  */
 363:..\..\..\lvgl\version_6.1.2\lvgl\src\lv_objx/lv_btnm.c **** void lv_btnm_set_btn_ctrl(const lv_obj_t * btnm, uint16_t btn_id, lv_btnm_ctrl_t ctrl)
 364:..\..\..\lvgl\version_6.1.2\lvgl\src\lv_objx/lv_btnm.c **** {
 365:..\..\..\lvgl\version_6.1.2\lvgl\src\lv_objx/lv_btnm.c ****     LV_ASSERT_OBJ(btnm, LV_OBJX_NAME);
 366:..\..\..\lvgl\version_6.1.2\lvgl\src\lv_objx/lv_btnm.c **** 
 367:..\..\..\lvgl\version_6.1.2\lvgl\src\lv_objx/lv_btnm.c ****     lv_btnm_ext_t * ext = lv_obj_get_ext_attr(btnm);
 368:..\..\..\lvgl\version_6.1.2\lvgl\src\lv_objx/lv_btnm.c **** 
 369:..\..\..\lvgl\version_6.1.2\lvgl\src\lv_objx/lv_btnm.c ****     if(btn_id >= ext->btn_cnt) return;
 370:..\..\..\lvgl\version_6.1.2\lvgl\src\lv_objx/lv_btnm.c **** 
 371:..\..\..\lvgl\version_6.1.2\lvgl\src\lv_objx/lv_btnm.c ****     ext->ctrl_bits[btn_id] |= ctrl;
 372:..\..\..\lvgl\version_6.1.2\lvgl\src\lv_objx/lv_btnm.c ****     invalidate_button_area(btnm, btn_id);
ARM GAS  C:\Users\pearlstl\AppData\Local\Temp\ccUkXBYk.s 			page 8


 373:..\..\..\lvgl\version_6.1.2\lvgl\src\lv_objx/lv_btnm.c **** }
 374:..\..\..\lvgl\version_6.1.2\lvgl\src\lv_objx/lv_btnm.c **** 
 375:..\..\..\lvgl\version_6.1.2\lvgl\src\lv_objx/lv_btnm.c **** /**
 376:..\..\..\lvgl\version_6.1.2\lvgl\src\lv_objx/lv_btnm.c ****  * Clear the attributes of a button of the button matrix
 377:..\..\..\lvgl\version_6.1.2\lvgl\src\lv_objx/lv_btnm.c ****  * @param btnm pointer to button matrix object
 378:..\..\..\lvgl\version_6.1.2\lvgl\src\lv_objx/lv_btnm.c ****  * @param btn_id 0 based index of the button to modify. (Not counting new lines)
 379:..\..\..\lvgl\version_6.1.2\lvgl\src\lv_objx/lv_btnm.c ****  */
 380:..\..\..\lvgl\version_6.1.2\lvgl\src\lv_objx/lv_btnm.c **** void lv_btnm_clear_btn_ctrl(const lv_obj_t * btnm, uint16_t btn_id, lv_btnm_ctrl_t ctrl)
 381:..\..\..\lvgl\version_6.1.2\lvgl\src\lv_objx/lv_btnm.c **** {
 382:..\..\..\lvgl\version_6.1.2\lvgl\src\lv_objx/lv_btnm.c ****     LV_ASSERT_OBJ(btnm, LV_OBJX_NAME);
 383:..\..\..\lvgl\version_6.1.2\lvgl\src\lv_objx/lv_btnm.c **** 
 384:..\..\..\lvgl\version_6.1.2\lvgl\src\lv_objx/lv_btnm.c ****     lv_btnm_ext_t * ext = lv_obj_get_ext_attr(btnm);
 385:..\..\..\lvgl\version_6.1.2\lvgl\src\lv_objx/lv_btnm.c **** 
 386:..\..\..\lvgl\version_6.1.2\lvgl\src\lv_objx/lv_btnm.c ****     if(btn_id >= ext->btn_cnt) return;
 387:..\..\..\lvgl\version_6.1.2\lvgl\src\lv_objx/lv_btnm.c **** 
 388:..\..\..\lvgl\version_6.1.2\lvgl\src\lv_objx/lv_btnm.c ****     ext->ctrl_bits[btn_id] &= (~ctrl);
 389:..\..\..\lvgl\version_6.1.2\lvgl\src\lv_objx/lv_btnm.c ****     invalidate_button_area(btnm, btn_id);
 390:..\..\..\lvgl\version_6.1.2\lvgl\src\lv_objx/lv_btnm.c **** }
 391:..\..\..\lvgl\version_6.1.2\lvgl\src\lv_objx/lv_btnm.c **** 
 392:..\..\..\lvgl\version_6.1.2\lvgl\src\lv_objx/lv_btnm.c **** /**
 393:..\..\..\lvgl\version_6.1.2\lvgl\src\lv_objx/lv_btnm.c ****  * Set the attributes of all buttons of a button matrix
 394:..\..\..\lvgl\version_6.1.2\lvgl\src\lv_objx/lv_btnm.c ****  * @param btnm pointer to a button matrix object
 395:..\..\..\lvgl\version_6.1.2\lvgl\src\lv_objx/lv_btnm.c ****  * @param ctrl attribute(s) to set from `lv_btnm_ctrl_t`. Values can be ORed.
 396:..\..\..\lvgl\version_6.1.2\lvgl\src\lv_objx/lv_btnm.c ****  */
 397:..\..\..\lvgl\version_6.1.2\lvgl\src\lv_objx/lv_btnm.c **** void lv_btnm_set_btn_ctrl_all(lv_obj_t * btnm, lv_btnm_ctrl_t ctrl)
 398:..\..\..\lvgl\version_6.1.2\lvgl\src\lv_objx/lv_btnm.c **** {
 399:..\..\..\lvgl\version_6.1.2\lvgl\src\lv_objx/lv_btnm.c ****     LV_ASSERT_OBJ(btnm, LV_OBJX_NAME);
 400:..\..\..\lvgl\version_6.1.2\lvgl\src\lv_objx/lv_btnm.c **** 
 401:..\..\..\lvgl\version_6.1.2\lvgl\src\lv_objx/lv_btnm.c ****     lv_btnm_ext_t * ext = lv_obj_get_ext_attr(btnm);
 402:..\..\..\lvgl\version_6.1.2\lvgl\src\lv_objx/lv_btnm.c ****     uint16_t i;
 403:..\..\..\lvgl\version_6.1.2\lvgl\src\lv_objx/lv_btnm.c ****     for(i = 0; i < ext->btn_cnt; i++) {
 404:..\..\..\lvgl\version_6.1.2\lvgl\src\lv_objx/lv_btnm.c ****         lv_btnm_set_btn_ctrl(btnm, i, ctrl);
 405:..\..\..\lvgl\version_6.1.2\lvgl\src\lv_objx/lv_btnm.c ****     }
 406:..\..\..\lvgl\version_6.1.2\lvgl\src\lv_objx/lv_btnm.c **** }
 407:..\..\..\lvgl\version_6.1.2\lvgl\src\lv_objx/lv_btnm.c **** 
 408:..\..\..\lvgl\version_6.1.2\lvgl\src\lv_objx/lv_btnm.c **** /**
 409:..\..\..\lvgl\version_6.1.2\lvgl\src\lv_objx/lv_btnm.c ****  * Clear the attributes of all buttons of a button matrix
 410:..\..\..\lvgl\version_6.1.2\lvgl\src\lv_objx/lv_btnm.c ****  * @param btnm pointer to a button matrix object
 411:..\..\..\lvgl\version_6.1.2\lvgl\src\lv_objx/lv_btnm.c ****  * @param ctrl attribute(s) to set from `lv_btnm_ctrl_t`. Values can be ORed.
 412:..\..\..\lvgl\version_6.1.2\lvgl\src\lv_objx/lv_btnm.c ****  * @param en true: set the attributes; false: clear the attributes
 413:..\..\..\lvgl\version_6.1.2\lvgl\src\lv_objx/lv_btnm.c ****  */
 414:..\..\..\lvgl\version_6.1.2\lvgl\src\lv_objx/lv_btnm.c **** void lv_btnm_clear_btn_ctrl_all(lv_obj_t * btnm, lv_btnm_ctrl_t ctrl)
 415:..\..\..\lvgl\version_6.1.2\lvgl\src\lv_objx/lv_btnm.c **** {
 416:..\..\..\lvgl\version_6.1.2\lvgl\src\lv_objx/lv_btnm.c ****     LV_ASSERT_OBJ(btnm, LV_OBJX_NAME);
 417:..\..\..\lvgl\version_6.1.2\lvgl\src\lv_objx/lv_btnm.c **** 
 418:..\..\..\lvgl\version_6.1.2\lvgl\src\lv_objx/lv_btnm.c ****     lv_btnm_ext_t * ext = lv_obj_get_ext_attr(btnm);
 419:..\..\..\lvgl\version_6.1.2\lvgl\src\lv_objx/lv_btnm.c ****     uint16_t i;
 420:..\..\..\lvgl\version_6.1.2\lvgl\src\lv_objx/lv_btnm.c ****     for(i = 0; i < ext->btn_cnt; i++) {
 421:..\..\..\lvgl\version_6.1.2\lvgl\src\lv_objx/lv_btnm.c ****         lv_btnm_clear_btn_ctrl(btnm, i, ctrl);
 422:..\..\..\lvgl\version_6.1.2\lvgl\src\lv_objx/lv_btnm.c ****     }
 423:..\..\..\lvgl\version_6.1.2\lvgl\src\lv_objx/lv_btnm.c **** }
 424:..\..\..\lvgl\version_6.1.2\lvgl\src\lv_objx/lv_btnm.c **** 
 425:..\..\..\lvgl\version_6.1.2\lvgl\src\lv_objx/lv_btnm.c **** /**
 426:..\..\..\lvgl\version_6.1.2\lvgl\src\lv_objx/lv_btnm.c ****  * Set a single buttons relative width.
 427:..\..\..\lvgl\version_6.1.2\lvgl\src\lv_objx/lv_btnm.c ****  * This method will cause the matrix be regenerated and is a relatively
 428:..\..\..\lvgl\version_6.1.2\lvgl\src\lv_objx/lv_btnm.c ****  * expensive operation. It is recommended that initial width be specified using
 429:..\..\..\lvgl\version_6.1.2\lvgl\src\lv_objx/lv_btnm.c ****  * `lv_btnm_set_ctrl_map` and this method only be used for dynamic changes.
ARM GAS  C:\Users\pearlstl\AppData\Local\Temp\ccUkXBYk.s 			page 9


 430:..\..\..\lvgl\version_6.1.2\lvgl\src\lv_objx/lv_btnm.c ****  * @param btnm pointer to button matrix object
 431:..\..\..\lvgl\version_6.1.2\lvgl\src\lv_objx/lv_btnm.c ****  * @param btn_id 0 based index of the button to modify.
 432:..\..\..\lvgl\version_6.1.2\lvgl\src\lv_objx/lv_btnm.c ****  * @param width Relative width compared to the buttons in the same row. [1..7]
 433:..\..\..\lvgl\version_6.1.2\lvgl\src\lv_objx/lv_btnm.c ****  */
 434:..\..\..\lvgl\version_6.1.2\lvgl\src\lv_objx/lv_btnm.c **** void lv_btnm_set_btn_width(const lv_obj_t * btnm, uint16_t btn_id, uint8_t width)
 435:..\..\..\lvgl\version_6.1.2\lvgl\src\lv_objx/lv_btnm.c **** {
 436:..\..\..\lvgl\version_6.1.2\lvgl\src\lv_objx/lv_btnm.c ****     LV_ASSERT_OBJ(btnm, LV_OBJX_NAME);
 437:..\..\..\lvgl\version_6.1.2\lvgl\src\lv_objx/lv_btnm.c **** 
 438:..\..\..\lvgl\version_6.1.2\lvgl\src\lv_objx/lv_btnm.c **** 
 439:..\..\..\lvgl\version_6.1.2\lvgl\src\lv_objx/lv_btnm.c ****     lv_btnm_ext_t * ext = lv_obj_get_ext_attr(btnm);
 440:..\..\..\lvgl\version_6.1.2\lvgl\src\lv_objx/lv_btnm.c ****     if(btn_id >= ext->btn_cnt) return;
 441:..\..\..\lvgl\version_6.1.2\lvgl\src\lv_objx/lv_btnm.c ****     ext->ctrl_bits[btn_id] &= (~LV_BTNM_WIDTH_MASK);
 442:..\..\..\lvgl\version_6.1.2\lvgl\src\lv_objx/lv_btnm.c ****     ext->ctrl_bits[btn_id] |= (LV_BTNM_WIDTH_MASK & width);
 443:..\..\..\lvgl\version_6.1.2\lvgl\src\lv_objx/lv_btnm.c **** 
 444:..\..\..\lvgl\version_6.1.2\lvgl\src\lv_objx/lv_btnm.c ****     lv_btnm_set_map(btnm, ext->map_p);
 445:..\..\..\lvgl\version_6.1.2\lvgl\src\lv_objx/lv_btnm.c **** }
 446:..\..\..\lvgl\version_6.1.2\lvgl\src\lv_objx/lv_btnm.c **** 
 447:..\..\..\lvgl\version_6.1.2\lvgl\src\lv_objx/lv_btnm.c **** /**
 448:..\..\..\lvgl\version_6.1.2\lvgl\src\lv_objx/lv_btnm.c ****  * Make the button matrix like a selector widget (only one button may be toggled at a time).
 449:..\..\..\lvgl\version_6.1.2\lvgl\src\lv_objx/lv_btnm.c ****  *
 450:..\..\..\lvgl\version_6.1.2\lvgl\src\lv_objx/lv_btnm.c ****  * Toggling must be enabled on the buttons you want to be selected with `lv_btnm_set_ctrl` or
 451:..\..\..\lvgl\version_6.1.2\lvgl\src\lv_objx/lv_btnm.c ****  * `lv_btnm_set_btn_ctrl_all`.
 452:..\..\..\lvgl\version_6.1.2\lvgl\src\lv_objx/lv_btnm.c ****  *
 453:..\..\..\lvgl\version_6.1.2\lvgl\src\lv_objx/lv_btnm.c ****  * @param btnm Button matrix object
 454:..\..\..\lvgl\version_6.1.2\lvgl\src\lv_objx/lv_btnm.c ****  * @param one_toggle Whether "one toggle" mode is enabled
 455:..\..\..\lvgl\version_6.1.2\lvgl\src\lv_objx/lv_btnm.c ****  */
 456:..\..\..\lvgl\version_6.1.2\lvgl\src\lv_objx/lv_btnm.c **** void lv_btnm_set_one_toggle(lv_obj_t * btnm, bool one_toggle)
 457:..\..\..\lvgl\version_6.1.2\lvgl\src\lv_objx/lv_btnm.c **** {
 458:..\..\..\lvgl\version_6.1.2\lvgl\src\lv_objx/lv_btnm.c ****     LV_ASSERT_OBJ(btnm, LV_OBJX_NAME);
 459:..\..\..\lvgl\version_6.1.2\lvgl\src\lv_objx/lv_btnm.c **** 
 460:..\..\..\lvgl\version_6.1.2\lvgl\src\lv_objx/lv_btnm.c ****     lv_btnm_ext_t * ext = lv_obj_get_ext_attr(btnm);
 461:..\..\..\lvgl\version_6.1.2\lvgl\src\lv_objx/lv_btnm.c ****     ext->one_toggle     = one_toggle;
 462:..\..\..\lvgl\version_6.1.2\lvgl\src\lv_objx/lv_btnm.c **** 
 463:..\..\..\lvgl\version_6.1.2\lvgl\src\lv_objx/lv_btnm.c ****     /*If more than one button is toggled only the first one should be*/
 464:..\..\..\lvgl\version_6.1.2\lvgl\src\lv_objx/lv_btnm.c ****     make_one_button_toggled(btnm, 0);
 465:..\..\..\lvgl\version_6.1.2\lvgl\src\lv_objx/lv_btnm.c **** }
 466:..\..\..\lvgl\version_6.1.2\lvgl\src\lv_objx/lv_btnm.c **** 
 467:..\..\..\lvgl\version_6.1.2\lvgl\src\lv_objx/lv_btnm.c **** /*=====================
 468:..\..\..\lvgl\version_6.1.2\lvgl\src\lv_objx/lv_btnm.c ****  * Getter functions
 469:..\..\..\lvgl\version_6.1.2\lvgl\src\lv_objx/lv_btnm.c ****  *====================*/
 470:..\..\..\lvgl\version_6.1.2\lvgl\src\lv_objx/lv_btnm.c **** 
 471:..\..\..\lvgl\version_6.1.2\lvgl\src\lv_objx/lv_btnm.c **** /**
 472:..\..\..\lvgl\version_6.1.2\lvgl\src\lv_objx/lv_btnm.c ****  * Get the current map of a button matrix
 473:..\..\..\lvgl\version_6.1.2\lvgl\src\lv_objx/lv_btnm.c ****  * @param btnm pointer to a button matrix object
 474:..\..\..\lvgl\version_6.1.2\lvgl\src\lv_objx/lv_btnm.c ****  * @return the current map
 475:..\..\..\lvgl\version_6.1.2\lvgl\src\lv_objx/lv_btnm.c ****  */
 476:..\..\..\lvgl\version_6.1.2\lvgl\src\lv_objx/lv_btnm.c **** const char ** lv_btnm_get_map_array(const lv_obj_t * btnm)
 477:..\..\..\lvgl\version_6.1.2\lvgl\src\lv_objx/lv_btnm.c **** {
 478:..\..\..\lvgl\version_6.1.2\lvgl\src\lv_objx/lv_btnm.c ****     LV_ASSERT_OBJ(btnm, LV_OBJX_NAME);
 479:..\..\..\lvgl\version_6.1.2\lvgl\src\lv_objx/lv_btnm.c **** 
 480:..\..\..\lvgl\version_6.1.2\lvgl\src\lv_objx/lv_btnm.c ****     lv_btnm_ext_t * ext = lv_obj_get_ext_attr(btnm);
 481:..\..\..\lvgl\version_6.1.2\lvgl\src\lv_objx/lv_btnm.c ****     return ext->map_p;
 482:..\..\..\lvgl\version_6.1.2\lvgl\src\lv_objx/lv_btnm.c **** }
 483:..\..\..\lvgl\version_6.1.2\lvgl\src\lv_objx/lv_btnm.c **** 
 484:..\..\..\lvgl\version_6.1.2\lvgl\src\lv_objx/lv_btnm.c **** /**
 485:..\..\..\lvgl\version_6.1.2\lvgl\src\lv_objx/lv_btnm.c ****  * Check whether the button's text can use recolor or not
 486:..\..\..\lvgl\version_6.1.2\lvgl\src\lv_objx/lv_btnm.c ****  * @param btnm pointer to button matrix object
ARM GAS  C:\Users\pearlstl\AppData\Local\Temp\ccUkXBYk.s 			page 10


 487:..\..\..\lvgl\version_6.1.2\lvgl\src\lv_objx/lv_btnm.c ****  * @return true: text recolor enable; false: disabled
 488:..\..\..\lvgl\version_6.1.2\lvgl\src\lv_objx/lv_btnm.c ****  */
 489:..\..\..\lvgl\version_6.1.2\lvgl\src\lv_objx/lv_btnm.c **** bool lv_btnm_get_recolor(const lv_obj_t * btnm)
 490:..\..\..\lvgl\version_6.1.2\lvgl\src\lv_objx/lv_btnm.c **** {
 491:..\..\..\lvgl\version_6.1.2\lvgl\src\lv_objx/lv_btnm.c ****     LV_ASSERT_OBJ(btnm, LV_OBJX_NAME);
 492:..\..\..\lvgl\version_6.1.2\lvgl\src\lv_objx/lv_btnm.c **** 
 493:..\..\..\lvgl\version_6.1.2\lvgl\src\lv_objx/lv_btnm.c ****     lv_btnm_ext_t * ext = lv_obj_get_ext_attr(btnm);
 494:..\..\..\lvgl\version_6.1.2\lvgl\src\lv_objx/lv_btnm.c **** 
 495:..\..\..\lvgl\version_6.1.2\lvgl\src\lv_objx/lv_btnm.c ****     return ext->recolor;
 496:..\..\..\lvgl\version_6.1.2\lvgl\src\lv_objx/lv_btnm.c **** }
 497:..\..\..\lvgl\version_6.1.2\lvgl\src\lv_objx/lv_btnm.c **** 
 498:..\..\..\lvgl\version_6.1.2\lvgl\src\lv_objx/lv_btnm.c **** /**
 499:..\..\..\lvgl\version_6.1.2\lvgl\src\lv_objx/lv_btnm.c ****  * Get the index of the lastly "activated" button by the user (pressed, released etc)
 500:..\..\..\lvgl\version_6.1.2\lvgl\src\lv_objx/lv_btnm.c ****  * Useful in the the `event_cb` to get the text of the button, check if hidden etc.
 501:..\..\..\lvgl\version_6.1.2\lvgl\src\lv_objx/lv_btnm.c ****  * @param btnm pointer to button matrix object
 502:..\..\..\lvgl\version_6.1.2\lvgl\src\lv_objx/lv_btnm.c ****  * @return  index of the last released button (LV_BTNM_BTN_NONE: if unset)
 503:..\..\..\lvgl\version_6.1.2\lvgl\src\lv_objx/lv_btnm.c ****  */
 504:..\..\..\lvgl\version_6.1.2\lvgl\src\lv_objx/lv_btnm.c **** uint16_t lv_btnm_get_active_btn(const lv_obj_t * btnm)
 505:..\..\..\lvgl\version_6.1.2\lvgl\src\lv_objx/lv_btnm.c **** {
 506:..\..\..\lvgl\version_6.1.2\lvgl\src\lv_objx/lv_btnm.c ****     LV_ASSERT_OBJ(btnm, LV_OBJX_NAME);
 507:..\..\..\lvgl\version_6.1.2\lvgl\src\lv_objx/lv_btnm.c **** 
 508:..\..\..\lvgl\version_6.1.2\lvgl\src\lv_objx/lv_btnm.c ****     lv_btnm_ext_t * ext = lv_obj_get_ext_attr(btnm);
 509:..\..\..\lvgl\version_6.1.2\lvgl\src\lv_objx/lv_btnm.c ****     return ext->btn_id_act;
 510:..\..\..\lvgl\version_6.1.2\lvgl\src\lv_objx/lv_btnm.c **** }
 511:..\..\..\lvgl\version_6.1.2\lvgl\src\lv_objx/lv_btnm.c **** 
 512:..\..\..\lvgl\version_6.1.2\lvgl\src\lv_objx/lv_btnm.c **** /**
 513:..\..\..\lvgl\version_6.1.2\lvgl\src\lv_objx/lv_btnm.c ****  * Get the text of the lastly "activated" button by the user (pressed, released etc)
 514:..\..\..\lvgl\version_6.1.2\lvgl\src\lv_objx/lv_btnm.c ****  * Useful in the the `event_cb`
 515:..\..\..\lvgl\version_6.1.2\lvgl\src\lv_objx/lv_btnm.c ****  * @param btnm pointer to button matrix object
 516:..\..\..\lvgl\version_6.1.2\lvgl\src\lv_objx/lv_btnm.c ****  * @return text of the last released button (NULL: if unset)
 517:..\..\..\lvgl\version_6.1.2\lvgl\src\lv_objx/lv_btnm.c ****  */
 518:..\..\..\lvgl\version_6.1.2\lvgl\src\lv_objx/lv_btnm.c **** const char * lv_btnm_get_active_btn_text(const lv_obj_t * btnm)
 519:..\..\..\lvgl\version_6.1.2\lvgl\src\lv_objx/lv_btnm.c **** {
 520:..\..\..\lvgl\version_6.1.2\lvgl\src\lv_objx/lv_btnm.c ****     LV_ASSERT_OBJ(btnm, LV_OBJX_NAME);
 521:..\..\..\lvgl\version_6.1.2\lvgl\src\lv_objx/lv_btnm.c **** 
 522:..\..\..\lvgl\version_6.1.2\lvgl\src\lv_objx/lv_btnm.c ****     lv_btnm_ext_t * ext = lv_obj_get_ext_attr(btnm);
 523:..\..\..\lvgl\version_6.1.2\lvgl\src\lv_objx/lv_btnm.c ****     if(ext->btn_id_act != LV_BTNM_BTN_NONE) {
 524:..\..\..\lvgl\version_6.1.2\lvgl\src\lv_objx/lv_btnm.c ****         return lv_btnm_get_btn_text(btnm, ext->btn_id_act);
 525:..\..\..\lvgl\version_6.1.2\lvgl\src\lv_objx/lv_btnm.c ****     } else {
 526:..\..\..\lvgl\version_6.1.2\lvgl\src\lv_objx/lv_btnm.c ****         return NULL;
 527:..\..\..\lvgl\version_6.1.2\lvgl\src\lv_objx/lv_btnm.c ****     }
 528:..\..\..\lvgl\version_6.1.2\lvgl\src\lv_objx/lv_btnm.c **** }
 529:..\..\..\lvgl\version_6.1.2\lvgl\src\lv_objx/lv_btnm.c **** 
 530:..\..\..\lvgl\version_6.1.2\lvgl\src\lv_objx/lv_btnm.c **** /**
 531:..\..\..\lvgl\version_6.1.2\lvgl\src\lv_objx/lv_btnm.c ****  * Get the pressed button's index.
 532:..\..\..\lvgl\version_6.1.2\lvgl\src\lv_objx/lv_btnm.c ****  * The button be really pressed by the user or manually set to pressed with `lv_btnm_set_pressed`
 533:..\..\..\lvgl\version_6.1.2\lvgl\src\lv_objx/lv_btnm.c ****  * @param btnm pointer to button matrix object
 534:..\..\..\lvgl\version_6.1.2\lvgl\src\lv_objx/lv_btnm.c ****  * @return  index of the pressed button (LV_BTNM_BTN_NONE: if unset)
 535:..\..\..\lvgl\version_6.1.2\lvgl\src\lv_objx/lv_btnm.c ****  */
 536:..\..\..\lvgl\version_6.1.2\lvgl\src\lv_objx/lv_btnm.c **** uint16_t lv_btnm_get_pressed_btn(const lv_obj_t * btnm)
 537:..\..\..\lvgl\version_6.1.2\lvgl\src\lv_objx/lv_btnm.c **** {
 538:..\..\..\lvgl\version_6.1.2\lvgl\src\lv_objx/lv_btnm.c ****     LV_ASSERT_OBJ(btnm, LV_OBJX_NAME);
 539:..\..\..\lvgl\version_6.1.2\lvgl\src\lv_objx/lv_btnm.c **** 
 540:..\..\..\lvgl\version_6.1.2\lvgl\src\lv_objx/lv_btnm.c ****     lv_btnm_ext_t * ext = lv_obj_get_ext_attr(btnm);
 541:..\..\..\lvgl\version_6.1.2\lvgl\src\lv_objx/lv_btnm.c ****     return ext->btn_id_pr;
 542:..\..\..\lvgl\version_6.1.2\lvgl\src\lv_objx/lv_btnm.c **** }
 543:..\..\..\lvgl\version_6.1.2\lvgl\src\lv_objx/lv_btnm.c **** 
ARM GAS  C:\Users\pearlstl\AppData\Local\Temp\ccUkXBYk.s 			page 11


 544:..\..\..\lvgl\version_6.1.2\lvgl\src\lv_objx/lv_btnm.c **** /**
 545:..\..\..\lvgl\version_6.1.2\lvgl\src\lv_objx/lv_btnm.c ****  * Get the button's text
 546:..\..\..\lvgl\version_6.1.2\lvgl\src\lv_objx/lv_btnm.c ****  * @param btnm pointer to button matrix object
 547:..\..\..\lvgl\version_6.1.2\lvgl\src\lv_objx/lv_btnm.c ****  * @param btn_id the index a button not counting new line characters. (The return value of
 548:..\..\..\lvgl\version_6.1.2\lvgl\src\lv_objx/lv_btnm.c ****  * lv_btnm_get_pressed/released)
 549:..\..\..\lvgl\version_6.1.2\lvgl\src\lv_objx/lv_btnm.c ****  * @return  text of btn_index` button
 550:..\..\..\lvgl\version_6.1.2\lvgl\src\lv_objx/lv_btnm.c ****  */
 551:..\..\..\lvgl\version_6.1.2\lvgl\src\lv_objx/lv_btnm.c **** const char * lv_btnm_get_btn_text(const lv_obj_t * btnm, uint16_t btn_id)
 552:..\..\..\lvgl\version_6.1.2\lvgl\src\lv_objx/lv_btnm.c **** {
 553:..\..\..\lvgl\version_6.1.2\lvgl\src\lv_objx/lv_btnm.c ****     LV_ASSERT_OBJ(btnm, LV_OBJX_NAME);
 554:..\..\..\lvgl\version_6.1.2\lvgl\src\lv_objx/lv_btnm.c **** 
 555:..\..\..\lvgl\version_6.1.2\lvgl\src\lv_objx/lv_btnm.c ****     lv_btnm_ext_t * ext = lv_obj_get_ext_attr(btnm);
 556:..\..\..\lvgl\version_6.1.2\lvgl\src\lv_objx/lv_btnm.c ****     if(btn_id > ext->btn_cnt) return NULL;
 557:..\..\..\lvgl\version_6.1.2\lvgl\src\lv_objx/lv_btnm.c **** 
 558:..\..\..\lvgl\version_6.1.2\lvgl\src\lv_objx/lv_btnm.c ****     uint16_t txt_i = 0;
 559:..\..\..\lvgl\version_6.1.2\lvgl\src\lv_objx/lv_btnm.c ****     uint16_t btn_i = 0;
 560:..\..\..\lvgl\version_6.1.2\lvgl\src\lv_objx/lv_btnm.c **** 
 561:..\..\..\lvgl\version_6.1.2\lvgl\src\lv_objx/lv_btnm.c ****     /* Search the text of ext->btn_pr the buttons text in the map
 562:..\..\..\lvgl\version_6.1.2\lvgl\src\lv_objx/lv_btnm.c ****      * Skip "\n"-s*/
 563:..\..\..\lvgl\version_6.1.2\lvgl\src\lv_objx/lv_btnm.c ****     while(btn_i != btn_id) {
 564:..\..\..\lvgl\version_6.1.2\lvgl\src\lv_objx/lv_btnm.c ****         btn_i++;
 565:..\..\..\lvgl\version_6.1.2\lvgl\src\lv_objx/lv_btnm.c ****         txt_i++;
 566:..\..\..\lvgl\version_6.1.2\lvgl\src\lv_objx/lv_btnm.c ****         if(strcmp(ext->map_p[txt_i], "\n") == 0) txt_i++;
 567:..\..\..\lvgl\version_6.1.2\lvgl\src\lv_objx/lv_btnm.c ****     }
 568:..\..\..\lvgl\version_6.1.2\lvgl\src\lv_objx/lv_btnm.c **** 
 569:..\..\..\lvgl\version_6.1.2\lvgl\src\lv_objx/lv_btnm.c ****     if(btn_i == ext->btn_cnt) return NULL;
 570:..\..\..\lvgl\version_6.1.2\lvgl\src\lv_objx/lv_btnm.c **** 
 571:..\..\..\lvgl\version_6.1.2\lvgl\src\lv_objx/lv_btnm.c ****     return ext->map_p[txt_i];
 572:..\..\..\lvgl\version_6.1.2\lvgl\src\lv_objx/lv_btnm.c **** }
 573:..\..\..\lvgl\version_6.1.2\lvgl\src\lv_objx/lv_btnm.c **** 
 574:..\..\..\lvgl\version_6.1.2\lvgl\src\lv_objx/lv_btnm.c **** /**
 575:..\..\..\lvgl\version_6.1.2\lvgl\src\lv_objx/lv_btnm.c ****  * Get the whether a control value is enabled or disabled for button of a button matrix
 576:..\..\..\lvgl\version_6.1.2\lvgl\src\lv_objx/lv_btnm.c ****  * @param btnm pointer to a button matrix object
 577:..\..\..\lvgl\version_6.1.2\lvgl\src\lv_objx/lv_btnm.c ****  * @param btn_id the index a button not counting new line characters. (E.g. the return value of
 578:..\..\..\lvgl\version_6.1.2\lvgl\src\lv_objx/lv_btnm.c ****  * lv_btnm_get_pressed/released)
 579:..\..\..\lvgl\version_6.1.2\lvgl\src\lv_objx/lv_btnm.c ****  * @param ctrl control values to check (ORed value can be used)
 580:..\..\..\lvgl\version_6.1.2\lvgl\src\lv_objx/lv_btnm.c ****  * @return true: long press repeat is disabled; false: long press repeat enabled
 581:..\..\..\lvgl\version_6.1.2\lvgl\src\lv_objx/lv_btnm.c ****  */
 582:..\..\..\lvgl\version_6.1.2\lvgl\src\lv_objx/lv_btnm.c **** bool lv_btnm_get_btn_ctrl(lv_obj_t * btnm, uint16_t btn_id, lv_btnm_ctrl_t ctrl)
 583:..\..\..\lvgl\version_6.1.2\lvgl\src\lv_objx/lv_btnm.c **** {
 584:..\..\..\lvgl\version_6.1.2\lvgl\src\lv_objx/lv_btnm.c ****     LV_ASSERT_OBJ(btnm, LV_OBJX_NAME);
 585:..\..\..\lvgl\version_6.1.2\lvgl\src\lv_objx/lv_btnm.c **** 
 586:..\..\..\lvgl\version_6.1.2\lvgl\src\lv_objx/lv_btnm.c ****     lv_btnm_ext_t * ext = lv_obj_get_ext_attr(btnm);
 587:..\..\..\lvgl\version_6.1.2\lvgl\src\lv_objx/lv_btnm.c ****     if(btn_id >= ext->btn_cnt) return false;
 588:..\..\..\lvgl\version_6.1.2\lvgl\src\lv_objx/lv_btnm.c **** 
 589:..\..\..\lvgl\version_6.1.2\lvgl\src\lv_objx/lv_btnm.c ****     return ext->ctrl_bits[btn_id] & ctrl ? true : false;
 590:..\..\..\lvgl\version_6.1.2\lvgl\src\lv_objx/lv_btnm.c **** }
 591:..\..\..\lvgl\version_6.1.2\lvgl\src\lv_objx/lv_btnm.c **** 
 592:..\..\..\lvgl\version_6.1.2\lvgl\src\lv_objx/lv_btnm.c **** /**
 593:..\..\..\lvgl\version_6.1.2\lvgl\src\lv_objx/lv_btnm.c ****  * Get a style of a button matrix
 594:..\..\..\lvgl\version_6.1.2\lvgl\src\lv_objx/lv_btnm.c ****  * @param btnm pointer to a button matrix object
 595:..\..\..\lvgl\version_6.1.2\lvgl\src\lv_objx/lv_btnm.c ****  * @param type which style should be get
 596:..\..\..\lvgl\version_6.1.2\lvgl\src\lv_objx/lv_btnm.c ****  * @return style pointer to a style
 597:..\..\..\lvgl\version_6.1.2\lvgl\src\lv_objx/lv_btnm.c ****  */
 598:..\..\..\lvgl\version_6.1.2\lvgl\src\lv_objx/lv_btnm.c **** const lv_style_t * lv_btnm_get_style(const lv_obj_t * btnm, lv_btnm_style_t type)
 599:..\..\..\lvgl\version_6.1.2\lvgl\src\lv_objx/lv_btnm.c **** {
 600:..\..\..\lvgl\version_6.1.2\lvgl\src\lv_objx/lv_btnm.c ****     LV_ASSERT_OBJ(btnm, LV_OBJX_NAME);
ARM GAS  C:\Users\pearlstl\AppData\Local\Temp\ccUkXBYk.s 			page 12


 601:..\..\..\lvgl\version_6.1.2\lvgl\src\lv_objx/lv_btnm.c **** 
 602:..\..\..\lvgl\version_6.1.2\lvgl\src\lv_objx/lv_btnm.c ****     const lv_style_t * style = NULL;
 603:..\..\..\lvgl\version_6.1.2\lvgl\src\lv_objx/lv_btnm.c ****     lv_btnm_ext_t * ext      = lv_obj_get_ext_attr(btnm);
 604:..\..\..\lvgl\version_6.1.2\lvgl\src\lv_objx/lv_btnm.c **** 
 605:..\..\..\lvgl\version_6.1.2\lvgl\src\lv_objx/lv_btnm.c ****     switch(type) {
 606:..\..\..\lvgl\version_6.1.2\lvgl\src\lv_objx/lv_btnm.c ****         case LV_BTNM_STYLE_BG: style = lv_obj_get_style(btnm); break;
 607:..\..\..\lvgl\version_6.1.2\lvgl\src\lv_objx/lv_btnm.c ****         case LV_BTNM_STYLE_BTN_REL: style = ext->styles_btn[LV_BTN_STATE_REL]; break;
 608:..\..\..\lvgl\version_6.1.2\lvgl\src\lv_objx/lv_btnm.c ****         case LV_BTNM_STYLE_BTN_PR: style = ext->styles_btn[LV_BTN_STATE_PR]; break;
 609:..\..\..\lvgl\version_6.1.2\lvgl\src\lv_objx/lv_btnm.c ****         case LV_BTNM_STYLE_BTN_TGL_REL: style = ext->styles_btn[LV_BTN_STATE_TGL_REL]; break;
 610:..\..\..\lvgl\version_6.1.2\lvgl\src\lv_objx/lv_btnm.c ****         case LV_BTNM_STYLE_BTN_TGL_PR: style = ext->styles_btn[LV_BTN_STATE_TGL_PR]; break;
 611:..\..\..\lvgl\version_6.1.2\lvgl\src\lv_objx/lv_btnm.c ****         case LV_BTNM_STYLE_BTN_INA: style = ext->styles_btn[LV_BTN_STATE_INA]; break;
 612:..\..\..\lvgl\version_6.1.2\lvgl\src\lv_objx/lv_btnm.c ****         default: style = NULL; break;
 613:..\..\..\lvgl\version_6.1.2\lvgl\src\lv_objx/lv_btnm.c ****     }
 614:..\..\..\lvgl\version_6.1.2\lvgl\src\lv_objx/lv_btnm.c **** 
 615:..\..\..\lvgl\version_6.1.2\lvgl\src\lv_objx/lv_btnm.c ****     return style;
 616:..\..\..\lvgl\version_6.1.2\lvgl\src\lv_objx/lv_btnm.c **** }
 617:..\..\..\lvgl\version_6.1.2\lvgl\src\lv_objx/lv_btnm.c **** 
 618:..\..\..\lvgl\version_6.1.2\lvgl\src\lv_objx/lv_btnm.c **** /**
 619:..\..\..\lvgl\version_6.1.2\lvgl\src\lv_objx/lv_btnm.c ****  * Find whether "one toggle" mode is enabled.
 620:..\..\..\lvgl\version_6.1.2\lvgl\src\lv_objx/lv_btnm.c ****  * @param btnm Button matrix object
 621:..\..\..\lvgl\version_6.1.2\lvgl\src\lv_objx/lv_btnm.c ****  * @return whether "one toggle" mode is enabled
 622:..\..\..\lvgl\version_6.1.2\lvgl\src\lv_objx/lv_btnm.c ****  */
 623:..\..\..\lvgl\version_6.1.2\lvgl\src\lv_objx/lv_btnm.c **** bool lv_btnm_get_one_toggle(const lv_obj_t * btnm)
 624:..\..\..\lvgl\version_6.1.2\lvgl\src\lv_objx/lv_btnm.c **** {
 625:..\..\..\lvgl\version_6.1.2\lvgl\src\lv_objx/lv_btnm.c ****     LV_ASSERT_OBJ(btnm, LV_OBJX_NAME);
 626:..\..\..\lvgl\version_6.1.2\lvgl\src\lv_objx/lv_btnm.c **** 
 627:..\..\..\lvgl\version_6.1.2\lvgl\src\lv_objx/lv_btnm.c ****     lv_btnm_ext_t * ext = lv_obj_get_ext_attr(btnm);
 628:..\..\..\lvgl\version_6.1.2\lvgl\src\lv_objx/lv_btnm.c **** 
 629:..\..\..\lvgl\version_6.1.2\lvgl\src\lv_objx/lv_btnm.c ****     return ext->one_toggle;
 630:..\..\..\lvgl\version_6.1.2\lvgl\src\lv_objx/lv_btnm.c **** }
 631:..\..\..\lvgl\version_6.1.2\lvgl\src\lv_objx/lv_btnm.c **** 
 632:..\..\..\lvgl\version_6.1.2\lvgl\src\lv_objx/lv_btnm.c **** /**********************
 633:..\..\..\lvgl\version_6.1.2\lvgl\src\lv_objx/lv_btnm.c ****  *   STATIC FUNCTIONS
 634:..\..\..\lvgl\version_6.1.2\lvgl\src\lv_objx/lv_btnm.c ****  **********************/
 635:..\..\..\lvgl\version_6.1.2\lvgl\src\lv_objx/lv_btnm.c **** 
 636:..\..\..\lvgl\version_6.1.2\lvgl\src\lv_objx/lv_btnm.c **** /**
 637:..\..\..\lvgl\version_6.1.2\lvgl\src\lv_objx/lv_btnm.c ****  * Handle the drawing related tasks of the button matrixs
 638:..\..\..\lvgl\version_6.1.2\lvgl\src\lv_objx/lv_btnm.c ****  * @param btnm pointer to a button matrix object
 639:..\..\..\lvgl\version_6.1.2\lvgl\src\lv_objx/lv_btnm.c ****  * @param mask the object will be drawn only in this area
 640:..\..\..\lvgl\version_6.1.2\lvgl\src\lv_objx/lv_btnm.c ****  * @param mode LV_DESIGN_COVER_CHK: only check if the object fully covers the 'mask_p' area
 641:..\..\..\lvgl\version_6.1.2\lvgl\src\lv_objx/lv_btnm.c ****  *                                  (return 'true' if yes)
 642:..\..\..\lvgl\version_6.1.2\lvgl\src\lv_objx/lv_btnm.c ****  *             LV_DESIGN_DRAW: draw the object (always return 'true')
 643:..\..\..\lvgl\version_6.1.2\lvgl\src\lv_objx/lv_btnm.c ****  *             LV_DESIGN_DRAW_POST: drawing after every children are drawn
 644:..\..\..\lvgl\version_6.1.2\lvgl\src\lv_objx/lv_btnm.c ****  * @param return true/false, depends on 'mode'
 645:..\..\..\lvgl\version_6.1.2\lvgl\src\lv_objx/lv_btnm.c ****  */
 646:..\..\..\lvgl\version_6.1.2\lvgl\src\lv_objx/lv_btnm.c **** static bool lv_btnm_design(lv_obj_t * btnm, const lv_area_t * mask, lv_design_mode_t mode)
 647:..\..\..\lvgl\version_6.1.2\lvgl\src\lv_objx/lv_btnm.c **** {
  28              		.loc 1 647 0
  29              		.cfi_startproc
  30              		@ args = 0, pretend = 0, frame = 128
  31              		@ frame_needed = 0, uses_anonymous_args = 0
  32              	.LVL0:
  33 0000 2DE9F04F 		push	{r4, r5, r6, r7, r8, r9, r10, fp, lr}
  34              		.cfi_def_cfa_offset 36
  35              		.cfi_offset 4, -36
  36              		.cfi_offset 5, -32
  37              		.cfi_offset 6, -28
ARM GAS  C:\Users\pearlstl\AppData\Local\Temp\ccUkXBYk.s 			page 13


  38              		.cfi_offset 7, -24
  39              		.cfi_offset 8, -20
  40              		.cfi_offset 9, -16
  41              		.cfi_offset 10, -12
  42              		.cfi_offset 11, -8
  43              		.cfi_offset 14, -4
  44 0004 A7B0     		sub	sp, sp, #156
  45              		.cfi_def_cfa_offset 192
 648:..\..\..\lvgl\version_6.1.2\lvgl\src\lv_objx/lv_btnm.c ****     if(mode == LV_DESIGN_COVER_CHK) {
  46              		.loc 1 648 0
  47 0006 022A     		cmp	r2, #2
 647:..\..\..\lvgl\version_6.1.2\lvgl\src\lv_objx/lv_btnm.c ****     if(mode == LV_DESIGN_COVER_CHK) {
  48              		.loc 1 647 0
  49 0008 0691     		str	r1, [sp, #24]
  50              		.loc 1 648 0
  51 000a 00F03F81 		beq	.L34
  52 000e 1446     		mov	r4, r2
 649:..\..\..\lvgl\version_6.1.2\lvgl\src\lv_objx/lv_btnm.c ****         return ancestor_design_f(btnm, mask, mode);
 650:..\..\..\lvgl\version_6.1.2\lvgl\src\lv_objx/lv_btnm.c ****         /*Return false if the object is not covers the mask_p area*/
 651:..\..\..\lvgl\version_6.1.2\lvgl\src\lv_objx/lv_btnm.c ****     }
 652:..\..\..\lvgl\version_6.1.2\lvgl\src\lv_objx/lv_btnm.c ****     /*Draw the object*/
 653:..\..\..\lvgl\version_6.1.2\lvgl\src\lv_objx/lv_btnm.c ****     else if(mode == LV_DESIGN_DRAW_MAIN) {
  53              		.loc 1 653 0
  54 0010 1AB1     		cbz	r2, .L35
  55              	.LVL1:
  56              	.L25:
 654:..\..\..\lvgl\version_6.1.2\lvgl\src\lv_objx/lv_btnm.c ****         ancestor_design_f(btnm, mask, mode);
 655:..\..\..\lvgl\version_6.1.2\lvgl\src\lv_objx/lv_btnm.c **** 
 656:..\..\..\lvgl\version_6.1.2\lvgl\src\lv_objx/lv_btnm.c ****         lv_btnm_ext_t * ext         = lv_obj_get_ext_attr(btnm);
 657:..\..\..\lvgl\version_6.1.2\lvgl\src\lv_objx/lv_btnm.c ****         const lv_style_t * bg_style = lv_obj_get_style(btnm);
 658:..\..\..\lvgl\version_6.1.2\lvgl\src\lv_objx/lv_btnm.c ****         const lv_style_t * btn_style;
 659:..\..\..\lvgl\version_6.1.2\lvgl\src\lv_objx/lv_btnm.c ****         lv_opa_t opa_scale = lv_obj_get_opa_scale(btnm);
 660:..\..\..\lvgl\version_6.1.2\lvgl\src\lv_objx/lv_btnm.c **** 
 661:..\..\..\lvgl\version_6.1.2\lvgl\src\lv_objx/lv_btnm.c ****         lv_area_t area_btnm;
 662:..\..\..\lvgl\version_6.1.2\lvgl\src\lv_objx/lv_btnm.c ****         lv_obj_get_coords(btnm, &area_btnm);
 663:..\..\..\lvgl\version_6.1.2\lvgl\src\lv_objx/lv_btnm.c **** 
 664:..\..\..\lvgl\version_6.1.2\lvgl\src\lv_objx/lv_btnm.c ****         lv_area_t area_tmp;
 665:..\..\..\lvgl\version_6.1.2\lvgl\src\lv_objx/lv_btnm.c ****         lv_coord_t btn_w;
 666:..\..\..\lvgl\version_6.1.2\lvgl\src\lv_objx/lv_btnm.c ****         lv_coord_t btn_h;
 667:..\..\..\lvgl\version_6.1.2\lvgl\src\lv_objx/lv_btnm.c **** 
 668:..\..\..\lvgl\version_6.1.2\lvgl\src\lv_objx/lv_btnm.c ****         uint16_t btn_i = 0;
 669:..\..\..\lvgl\version_6.1.2\lvgl\src\lv_objx/lv_btnm.c ****         uint16_t txt_i = 0;
 670:..\..\..\lvgl\version_6.1.2\lvgl\src\lv_objx/lv_btnm.c ****         lv_style_t style_tmp;
 671:..\..\..\lvgl\version_6.1.2\lvgl\src\lv_objx/lv_btnm.c ****         lv_txt_flag_t txt_flag = LV_TXT_FLAG_NONE;
 672:..\..\..\lvgl\version_6.1.2\lvgl\src\lv_objx/lv_btnm.c **** 
 673:..\..\..\lvgl\version_6.1.2\lvgl\src\lv_objx/lv_btnm.c ****         if(ext->recolor) txt_flag = LV_TXT_FLAG_RECOLOR;
 674:..\..\..\lvgl\version_6.1.2\lvgl\src\lv_objx/lv_btnm.c ****         for(btn_i = 0; btn_i < ext->btn_cnt; btn_i++, txt_i++) {
 675:..\..\..\lvgl\version_6.1.2\lvgl\src\lv_objx/lv_btnm.c ****             /*Search the next valid text in the map*/
 676:..\..\..\lvgl\version_6.1.2\lvgl\src\lv_objx/lv_btnm.c ****             while(strcmp(ext->map_p[txt_i], "\n") == 0) {
 677:..\..\..\lvgl\version_6.1.2\lvgl\src\lv_objx/lv_btnm.c ****                 txt_i++;
 678:..\..\..\lvgl\version_6.1.2\lvgl\src\lv_objx/lv_btnm.c ****             }
 679:..\..\..\lvgl\version_6.1.2\lvgl\src\lv_objx/lv_btnm.c **** 
 680:..\..\..\lvgl\version_6.1.2\lvgl\src\lv_objx/lv_btnm.c ****             /*Skip hidden buttons*/
 681:..\..\..\lvgl\version_6.1.2\lvgl\src\lv_objx/lv_btnm.c ****             if(button_is_hidden(ext->ctrl_bits[btn_i])) continue;
 682:..\..\..\lvgl\version_6.1.2\lvgl\src\lv_objx/lv_btnm.c **** 
 683:..\..\..\lvgl\version_6.1.2\lvgl\src\lv_objx/lv_btnm.c ****             lv_area_copy(&area_tmp, &ext->button_areas[btn_i]);
 684:..\..\..\lvgl\version_6.1.2\lvgl\src\lv_objx/lv_btnm.c ****             area_tmp.x1 += area_btnm.x1;
ARM GAS  C:\Users\pearlstl\AppData\Local\Temp\ccUkXBYk.s 			page 14


 685:..\..\..\lvgl\version_6.1.2\lvgl\src\lv_objx/lv_btnm.c ****             area_tmp.y1 += area_btnm.y1;
 686:..\..\..\lvgl\version_6.1.2\lvgl\src\lv_objx/lv_btnm.c ****             area_tmp.x2 += area_btnm.x1;
 687:..\..\..\lvgl\version_6.1.2\lvgl\src\lv_objx/lv_btnm.c ****             area_tmp.y2 += area_btnm.y1;
 688:..\..\..\lvgl\version_6.1.2\lvgl\src\lv_objx/lv_btnm.c **** 
 689:..\..\..\lvgl\version_6.1.2\lvgl\src\lv_objx/lv_btnm.c ****             btn_w = lv_area_get_width(&area_tmp);
 690:..\..\..\lvgl\version_6.1.2\lvgl\src\lv_objx/lv_btnm.c ****             btn_h = lv_area_get_height(&area_tmp);
 691:..\..\..\lvgl\version_6.1.2\lvgl\src\lv_objx/lv_btnm.c **** 
 692:..\..\..\lvgl\version_6.1.2\lvgl\src\lv_objx/lv_btnm.c ****             /*Load the style*/
 693:..\..\..\lvgl\version_6.1.2\lvgl\src\lv_objx/lv_btnm.c ****             bool tgl_state = button_get_tgl_state(ext->ctrl_bits[btn_i]);
 694:..\..\..\lvgl\version_6.1.2\lvgl\src\lv_objx/lv_btnm.c ****             if(button_is_inactive(ext->ctrl_bits[btn_i]))
 695:..\..\..\lvgl\version_6.1.2\lvgl\src\lv_objx/lv_btnm.c ****                 btn_style = lv_btnm_get_style(btnm, LV_BTNM_STYLE_BTN_INA);
 696:..\..\..\lvgl\version_6.1.2\lvgl\src\lv_objx/lv_btnm.c ****             else if(btn_i != ext->btn_id_pr && tgl_state == false)
 697:..\..\..\lvgl\version_6.1.2\lvgl\src\lv_objx/lv_btnm.c ****                 btn_style = lv_btnm_get_style(btnm, LV_BTNM_STYLE_BTN_REL);
 698:..\..\..\lvgl\version_6.1.2\lvgl\src\lv_objx/lv_btnm.c ****             else if(btn_i == ext->btn_id_pr && tgl_state == false)
 699:..\..\..\lvgl\version_6.1.2\lvgl\src\lv_objx/lv_btnm.c ****                 btn_style = lv_btnm_get_style(btnm, LV_BTNM_STYLE_BTN_PR);
 700:..\..\..\lvgl\version_6.1.2\lvgl\src\lv_objx/lv_btnm.c ****             else if(btn_i != ext->btn_id_pr && tgl_state == true)
 701:..\..\..\lvgl\version_6.1.2\lvgl\src\lv_objx/lv_btnm.c ****                 btn_style = lv_btnm_get_style(btnm, LV_BTNM_STYLE_BTN_TGL_REL);
 702:..\..\..\lvgl\version_6.1.2\lvgl\src\lv_objx/lv_btnm.c ****             else if(btn_i == ext->btn_id_pr && tgl_state == true)
 703:..\..\..\lvgl\version_6.1.2\lvgl\src\lv_objx/lv_btnm.c ****                 btn_style = lv_btnm_get_style(btnm, LV_BTNM_STYLE_BTN_TGL_PR);
 704:..\..\..\lvgl\version_6.1.2\lvgl\src\lv_objx/lv_btnm.c ****             else
 705:..\..\..\lvgl\version_6.1.2\lvgl\src\lv_objx/lv_btnm.c ****                 btn_style = lv_btnm_get_style(btnm, LV_BTNM_STYLE_BTN_REL); /*Not possible option, 
 706:..\..\..\lvgl\version_6.1.2\lvgl\src\lv_objx/lv_btnm.c **** 
 707:..\..\..\lvgl\version_6.1.2\lvgl\src\lv_objx/lv_btnm.c ****             lv_style_copy(&style_tmp, btn_style);
 708:..\..\..\lvgl\version_6.1.2\lvgl\src\lv_objx/lv_btnm.c **** 
 709:..\..\..\lvgl\version_6.1.2\lvgl\src\lv_objx/lv_btnm.c ****             /*Remove borders on the edges if `LV_BORDER_INTERNAL`*/
 710:..\..\..\lvgl\version_6.1.2\lvgl\src\lv_objx/lv_btnm.c ****             if(style_tmp.body.border.part & LV_BORDER_INTERNAL) {
 711:..\..\..\lvgl\version_6.1.2\lvgl\src\lv_objx/lv_btnm.c ****                 if(area_tmp.y1 == btnm->coords.y1 + bg_style->body.padding.top) {
 712:..\..\..\lvgl\version_6.1.2\lvgl\src\lv_objx/lv_btnm.c ****                     style_tmp.body.border.part &= ~LV_BORDER_TOP;
 713:..\..\..\lvgl\version_6.1.2\lvgl\src\lv_objx/lv_btnm.c ****                 }
 714:..\..\..\lvgl\version_6.1.2\lvgl\src\lv_objx/lv_btnm.c ****                 if(area_tmp.y2 == btnm->coords.y2 - bg_style->body.padding.bottom) {
 715:..\..\..\lvgl\version_6.1.2\lvgl\src\lv_objx/lv_btnm.c ****                     style_tmp.body.border.part &= ~LV_BORDER_BOTTOM;
 716:..\..\..\lvgl\version_6.1.2\lvgl\src\lv_objx/lv_btnm.c ****                 }
 717:..\..\..\lvgl\version_6.1.2\lvgl\src\lv_objx/lv_btnm.c **** 
 718:..\..\..\lvgl\version_6.1.2\lvgl\src\lv_objx/lv_btnm.c ****                 if(txt_i == 0) {
 719:..\..\..\lvgl\version_6.1.2\lvgl\src\lv_objx/lv_btnm.c ****                     style_tmp.body.border.part &= ~LV_BORDER_LEFT;
 720:..\..\..\lvgl\version_6.1.2\lvgl\src\lv_objx/lv_btnm.c ****                 } else if(strcmp(ext->map_p[txt_i - 1], "\n") == 0) {
 721:..\..\..\lvgl\version_6.1.2\lvgl\src\lv_objx/lv_btnm.c ****                     style_tmp.body.border.part &= ~LV_BORDER_LEFT;
 722:..\..\..\lvgl\version_6.1.2\lvgl\src\lv_objx/lv_btnm.c ****                 }
 723:..\..\..\lvgl\version_6.1.2\lvgl\src\lv_objx/lv_btnm.c **** 
 724:..\..\..\lvgl\version_6.1.2\lvgl\src\lv_objx/lv_btnm.c ****                 if(ext->map_p[txt_i + 1][0] == '\0' || strcmp(ext->map_p[txt_i + 1], "\n") == 0) {
 725:..\..\..\lvgl\version_6.1.2\lvgl\src\lv_objx/lv_btnm.c ****                     style_tmp.body.border.part &= ~LV_BORDER_RIGHT;
 726:..\..\..\lvgl\version_6.1.2\lvgl\src\lv_objx/lv_btnm.c ****                 }
 727:..\..\..\lvgl\version_6.1.2\lvgl\src\lv_objx/lv_btnm.c ****             }
 728:..\..\..\lvgl\version_6.1.2\lvgl\src\lv_objx/lv_btnm.c ****             lv_draw_rect(&area_tmp, mask, &style_tmp, opa_scale);
 729:..\..\..\lvgl\version_6.1.2\lvgl\src\lv_objx/lv_btnm.c **** 
 730:..\..\..\lvgl\version_6.1.2\lvgl\src\lv_objx/lv_btnm.c ****             /*Calculate the size of the text*/
 731:..\..\..\lvgl\version_6.1.2\lvgl\src\lv_objx/lv_btnm.c ****             if(btn_style->glass) btn_style = bg_style;
 732:..\..\..\lvgl\version_6.1.2\lvgl\src\lv_objx/lv_btnm.c ****             const lv_font_t * font = btn_style->text.font;
 733:..\..\..\lvgl\version_6.1.2\lvgl\src\lv_objx/lv_btnm.c ****             lv_point_t txt_size;
 734:..\..\..\lvgl\version_6.1.2\lvgl\src\lv_objx/lv_btnm.c ****             lv_txt_get_size(&txt_size, ext->map_p[txt_i], font, btn_style->text.letter_space,
 735:..\..\..\lvgl\version_6.1.2\lvgl\src\lv_objx/lv_btnm.c ****                             btn_style->text.line_space, lv_area_get_width(&area_btnm), txt_flag);
 736:..\..\..\lvgl\version_6.1.2\lvgl\src\lv_objx/lv_btnm.c **** 
 737:..\..\..\lvgl\version_6.1.2\lvgl\src\lv_objx/lv_btnm.c ****             area_tmp.x1 += (btn_w - txt_size.x) / 2;
 738:..\..\..\lvgl\version_6.1.2\lvgl\src\lv_objx/lv_btnm.c ****             area_tmp.y1 += (btn_h - txt_size.y) / 2;
 739:..\..\..\lvgl\version_6.1.2\lvgl\src\lv_objx/lv_btnm.c ****             area_tmp.x2 = area_tmp.x1 + txt_size.x;
 740:..\..\..\lvgl\version_6.1.2\lvgl\src\lv_objx/lv_btnm.c ****             area_tmp.y2 = area_tmp.y1 + txt_size.y;
 741:..\..\..\lvgl\version_6.1.2\lvgl\src\lv_objx/lv_btnm.c **** 
ARM GAS  C:\Users\pearlstl\AppData\Local\Temp\ccUkXBYk.s 			page 15


 742:..\..\..\lvgl\version_6.1.2\lvgl\src\lv_objx/lv_btnm.c ****             lv_draw_label(&area_tmp, mask, btn_style, opa_scale, ext->map_p[txt_i], txt_flag, NULL,
 743:..\..\..\lvgl\version_6.1.2\lvgl\src\lv_objx/lv_btnm.c ****         }
 744:..\..\..\lvgl\version_6.1.2\lvgl\src\lv_objx/lv_btnm.c ****     }
 745:..\..\..\lvgl\version_6.1.2\lvgl\src\lv_objx/lv_btnm.c **** 
 746:..\..\..\lvgl\version_6.1.2\lvgl\src\lv_objx/lv_btnm.c ****     return true;
  57              		.loc 1 746 0
  58 0012 0120     		movs	r0, #1
  59              	.L3:
 747:..\..\..\lvgl\version_6.1.2\lvgl\src\lv_objx/lv_btnm.c **** }
  60              		.loc 1 747 0
  61 0014 27B0     		add	sp, sp, #156
  62              		.cfi_remember_state
  63              		.cfi_def_cfa_offset 36
  64              		@ sp needed
  65 0016 BDE8F08F 		pop	{r4, r5, r6, r7, r8, r9, r10, fp, pc}
  66              	.LVL2:
  67              	.L35:
  68              		.cfi_restore_state
  69              	.LBB169:
  70              	.LBB170:
 654:..\..\..\lvgl\version_6.1.2\lvgl\src\lv_objx/lv_btnm.c ****         ancestor_design_f(btnm, mask, mode);
  71              		.loc 1 654 0
  72 001a A14B     		ldr	r3, .L39
  73 001c 8346     		mov	fp, r0
  74              	.LVL3:
  75 001e 1B68     		ldr	r3, [r3]
  76 0020 9847     		blx	r3
  77              	.LVL4:
 656:..\..\..\lvgl\version_6.1.2\lvgl\src\lv_objx/lv_btnm.c ****         const lv_style_t * bg_style = lv_obj_get_style(btnm);
  78              		.loc 1 656 0
  79 0022 5846     		mov	r0, fp
  80 0024 FFF7FEFF 		bl	lv_obj_get_ext_attr
  81              	.LVL5:
  82 0028 8146     		mov	r9, r0
  83              	.LVL6:
 657:..\..\..\lvgl\version_6.1.2\lvgl\src\lv_objx/lv_btnm.c ****         const lv_style_t * btn_style;
  84              		.loc 1 657 0
  85 002a 5846     		mov	r0, fp
  86              	.LVL7:
  87 002c FFF7FEFF 		bl	lv_obj_get_style
  88              	.LVL8:
  89 0030 0790     		str	r0, [sp, #28]
  90              	.LVL9:
 659:..\..\..\lvgl\version_6.1.2\lvgl\src\lv_objx/lv_btnm.c **** 
  91              		.loc 1 659 0
  92 0032 5846     		mov	r0, fp
  93              	.LVL10:
  94 0034 FFF7FEFF 		bl	lv_obj_get_opa_scale
  95              	.LVL11:
 662:..\..\..\lvgl\version_6.1.2\lvgl\src\lv_objx/lv_btnm.c **** 
  96              		.loc 1 662 0
  97 0038 0EA9     		add	r1, sp, #56
 659:..\..\..\lvgl\version_6.1.2\lvgl\src\lv_objx/lv_btnm.c **** 
  98              		.loc 1 659 0
  99 003a 0890     		str	r0, [sp, #32]
 100              	.LVL12:
 662:..\..\..\lvgl\version_6.1.2\lvgl\src\lv_objx/lv_btnm.c **** 
ARM GAS  C:\Users\pearlstl\AppData\Local\Temp\ccUkXBYk.s 			page 16


 101              		.loc 1 662 0
 102 003c 5846     		mov	r0, fp
 103 003e FFF7FEFF 		bl	lv_obj_get_coords
 104              	.LVL13:
 673:..\..\..\lvgl\version_6.1.2\lvgl\src\lv_objx/lv_btnm.c ****         for(btn_i = 0; btn_i < ext->btn_cnt; btn_i++, txt_i++) {
 105              		.loc 1 673 0
 106 0042 99F82630 		ldrb	r3, [r9, #38]	@ zero_extendqisi2
 674:..\..\..\lvgl\version_6.1.2\lvgl\src\lv_objx/lv_btnm.c ****             /*Search the next valid text in the map*/
 107              		.loc 1 674 0
 108 0046 B9F82060 		ldrh	r6, [r9, #32]
 671:..\..\..\lvgl\version_6.1.2\lvgl\src\lv_objx/lv_btnm.c **** 
 109              		.loc 1 671 0
 110 004a 03F00103 		and	r3, r3, #1
 111 004e 0993     		str	r3, [sp, #36]
 112              	.LVL14:
 674:..\..\..\lvgl\version_6.1.2\lvgl\src\lv_objx/lv_btnm.c ****             /*Search the next valid text in the map*/
 113              		.loc 1 674 0
 114 0050 002E     		cmp	r6, #0
 115 0052 DED0     		beq	.L25
 116 0054 A046     		mov	r8, r4
 117              	.LVL15:
 118              	.L23:
 119 0056 D9F80070 		ldr	r7, [r9]
 120 005a 01E0     		b	.L24
 121              	.LVL16:
 122              	.L6:
 123              	.LBB171:
 677:..\..\..\lvgl\version_6.1.2\lvgl\src\lv_objx/lv_btnm.c ****             }
 124              		.loc 1 677 0
 125 005c 0134     		adds	r4, r4, #1
 126              	.LVL17:
 127 005e A4B2     		uxth	r4, r4
 128              	.LVL18:
 129              	.L24:
 676:..\..\..\lvgl\version_6.1.2\lvgl\src\lv_objx/lv_btnm.c ****                 txt_i++;
 130              		.loc 1 676 0
 131 0060 9049     		ldr	r1, .L39+4
 132 0062 57F82400 		ldr	r0, [r7, r4, lsl #2]
 133 0066 A500     		lsls	r5, r4, #2
 134 0068 FFF7FEFF 		bl	strcmp
 135              	.LVL19:
 136 006c 0028     		cmp	r0, #0
 137 006e F5D0     		beq	.L6
 681:..\..\..\lvgl\version_6.1.2\lvgl\src\lv_objx/lv_btnm.c **** 
 138              		.loc 1 681 0
 139 0070 D9F80870 		ldr	r7, [r9, #8]
 140 0074 37F81830 		ldrh	r3, [r7, r8, lsl #1]
 141 0078 1907     		lsls	r1, r3, #28
 142 007a 08D5     		bpl	.L7
 143 007c 0134     		adds	r4, r4, #1
 144              	.LVL20:
 145              	.L8:
 146              	.LBE171:
 674:..\..\..\lvgl\version_6.1.2\lvgl\src\lv_objx/lv_btnm.c ****             /*Search the next valid text in the map*/
 147              		.loc 1 674 0
 148 007e 08F10108 		add	r8, r8, #1
 149              	.LVL21:
ARM GAS  C:\Users\pearlstl\AppData\Local\Temp\ccUkXBYk.s 			page 17


 150 0082 1FFA88F8 		uxth	r8, r8
 151              	.LVL22:
 152 0086 4645     		cmp	r6, r8
 153 0088 A4B2     		uxth	r4, r4
 154              	.LVL23:
 155 008a E4D8     		bhi	.L23
 156 008c C1E7     		b	.L25
 157              	.L7:
 158              	.LVL24:
 159              	.LBB200:
 160              	.LBB172:
 161              	.LBB173:
 162              		.file 2 "..\\..\\..\\lvgl\\version_6.1.2\\lvgl\\src\\lv_objx\\../lv_core/../lv_misc/lv_area.h"
   1:..\..\..\lvgl\version_6.1.2\lvgl\src\lv_objx\../lv_core/../lv_misc/lv_area.h **** /**
   2:..\..\..\lvgl\version_6.1.2\lvgl\src\lv_objx\../lv_core/../lv_misc/lv_area.h ****  * @file lv_area.h
   3:..\..\..\lvgl\version_6.1.2\lvgl\src\lv_objx\../lv_core/../lv_misc/lv_area.h ****  *
   4:..\..\..\lvgl\version_6.1.2\lvgl\src\lv_objx\../lv_core/../lv_misc/lv_area.h ****  */
   5:..\..\..\lvgl\version_6.1.2\lvgl\src\lv_objx\../lv_core/../lv_misc/lv_area.h **** 
   6:..\..\..\lvgl\version_6.1.2\lvgl\src\lv_objx\../lv_core/../lv_misc/lv_area.h **** #ifndef LV_AREA_H
   7:..\..\..\lvgl\version_6.1.2\lvgl\src\lv_objx\../lv_core/../lv_misc/lv_area.h **** #define LV_AREA_H
   8:..\..\..\lvgl\version_6.1.2\lvgl\src\lv_objx\../lv_core/../lv_misc/lv_area.h **** 
   9:..\..\..\lvgl\version_6.1.2\lvgl\src\lv_objx\../lv_core/../lv_misc/lv_area.h **** #ifdef __cplusplus
  10:..\..\..\lvgl\version_6.1.2\lvgl\src\lv_objx\../lv_core/../lv_misc/lv_area.h **** extern "C" {
  11:..\..\..\lvgl\version_6.1.2\lvgl\src\lv_objx\../lv_core/../lv_misc/lv_area.h **** #endif
  12:..\..\..\lvgl\version_6.1.2\lvgl\src\lv_objx\../lv_core/../lv_misc/lv_area.h **** 
  13:..\..\..\lvgl\version_6.1.2\lvgl\src\lv_objx\../lv_core/../lv_misc/lv_area.h **** /*********************
  14:..\..\..\lvgl\version_6.1.2\lvgl\src\lv_objx\../lv_core/../lv_misc/lv_area.h ****  *      INCLUDES
  15:..\..\..\lvgl\version_6.1.2\lvgl\src\lv_objx\../lv_core/../lv_misc/lv_area.h ****  *********************/
  16:..\..\..\lvgl\version_6.1.2\lvgl\src\lv_objx\../lv_core/../lv_misc/lv_area.h **** #include <string.h>
  17:..\..\..\lvgl\version_6.1.2\lvgl\src\lv_objx\../lv_core/../lv_misc/lv_area.h **** #include <stdbool.h>
  18:..\..\..\lvgl\version_6.1.2\lvgl\src\lv_objx\../lv_core/../lv_misc/lv_area.h **** #include <stdint.h>
  19:..\..\..\lvgl\version_6.1.2\lvgl\src\lv_objx\../lv_core/../lv_misc/lv_area.h **** #ifdef LV_CONF_INCLUDE_SIMPLE
  20:..\..\..\lvgl\version_6.1.2\lvgl\src\lv_objx\../lv_core/../lv_misc/lv_area.h **** #include "lv_conf.h"
  21:..\..\..\lvgl\version_6.1.2\lvgl\src\lv_objx\../lv_core/../lv_misc/lv_area.h **** #else
  22:..\..\..\lvgl\version_6.1.2\lvgl\src\lv_objx\../lv_core/../lv_misc/lv_area.h **** #include "../../../lv_conf.h"
  23:..\..\..\lvgl\version_6.1.2\lvgl\src\lv_objx\../lv_core/../lv_misc/lv_area.h **** #endif
  24:..\..\..\lvgl\version_6.1.2\lvgl\src\lv_objx\../lv_core/../lv_misc/lv_area.h **** 
  25:..\..\..\lvgl\version_6.1.2\lvgl\src\lv_objx\../lv_core/../lv_misc/lv_area.h **** /*********************
  26:..\..\..\lvgl\version_6.1.2\lvgl\src\lv_objx\../lv_core/../lv_misc/lv_area.h ****  *      DEFINES
  27:..\..\..\lvgl\version_6.1.2\lvgl\src\lv_objx\../lv_core/../lv_misc/lv_area.h ****  *********************/
  28:..\..\..\lvgl\version_6.1.2\lvgl\src\lv_objx\../lv_core/../lv_misc/lv_area.h **** /*To avoid overflow don't let the max ranges (reduce with 1000) */
  29:..\..\..\lvgl\version_6.1.2\lvgl\src\lv_objx\../lv_core/../lv_misc/lv_area.h **** #define LV_COORD_MAX ((lv_coord_t)((uint32_t)((uint32_t)1 << (8 * sizeof(lv_coord_t) - 1)) - 1000))
  30:..\..\..\lvgl\version_6.1.2\lvgl\src\lv_objx\../lv_core/../lv_misc/lv_area.h **** #define LV_COORD_MIN (-LV_COORD_MAX)
  31:..\..\..\lvgl\version_6.1.2\lvgl\src\lv_objx\../lv_core/../lv_misc/lv_area.h **** 
  32:..\..\..\lvgl\version_6.1.2\lvgl\src\lv_objx\../lv_core/../lv_misc/lv_area.h **** LV_EXPORT_CONST_INT(LV_COORD_MAX);
  33:..\..\..\lvgl\version_6.1.2\lvgl\src\lv_objx\../lv_core/../lv_misc/lv_area.h **** LV_EXPORT_CONST_INT(LV_COORD_MIN);
  34:..\..\..\lvgl\version_6.1.2\lvgl\src\lv_objx\../lv_core/../lv_misc/lv_area.h **** 
  35:..\..\..\lvgl\version_6.1.2\lvgl\src\lv_objx\../lv_core/../lv_misc/lv_area.h **** /**********************
  36:..\..\..\lvgl\version_6.1.2\lvgl\src\lv_objx\../lv_core/../lv_misc/lv_area.h ****  *      TYPEDEFS
  37:..\..\..\lvgl\version_6.1.2\lvgl\src\lv_objx\../lv_core/../lv_misc/lv_area.h ****  **********************/
  38:..\..\..\lvgl\version_6.1.2\lvgl\src\lv_objx\../lv_core/../lv_misc/lv_area.h **** 
  39:..\..\..\lvgl\version_6.1.2\lvgl\src\lv_objx\../lv_core/../lv_misc/lv_area.h **** /**
  40:..\..\..\lvgl\version_6.1.2\lvgl\src\lv_objx\../lv_core/../lv_misc/lv_area.h ****  * Represents a point on the screen.
  41:..\..\..\lvgl\version_6.1.2\lvgl\src\lv_objx\../lv_core/../lv_misc/lv_area.h ****  */
  42:..\..\..\lvgl\version_6.1.2\lvgl\src\lv_objx\../lv_core/../lv_misc/lv_area.h **** typedef struct
  43:..\..\..\lvgl\version_6.1.2\lvgl\src\lv_objx\../lv_core/../lv_misc/lv_area.h **** {
  44:..\..\..\lvgl\version_6.1.2\lvgl\src\lv_objx\../lv_core/../lv_misc/lv_area.h ****     lv_coord_t x;
ARM GAS  C:\Users\pearlstl\AppData\Local\Temp\ccUkXBYk.s 			page 18


  45:..\..\..\lvgl\version_6.1.2\lvgl\src\lv_objx\../lv_core/../lv_misc/lv_area.h ****     lv_coord_t y;
  46:..\..\..\lvgl\version_6.1.2\lvgl\src\lv_objx\../lv_core/../lv_misc/lv_area.h **** } lv_point_t;
  47:..\..\..\lvgl\version_6.1.2\lvgl\src\lv_objx\../lv_core/../lv_misc/lv_area.h **** 
  48:..\..\..\lvgl\version_6.1.2\lvgl\src\lv_objx\../lv_core/../lv_misc/lv_area.h **** /** Represents an area of the screen. */
  49:..\..\..\lvgl\version_6.1.2\lvgl\src\lv_objx\../lv_core/../lv_misc/lv_area.h **** typedef struct
  50:..\..\..\lvgl\version_6.1.2\lvgl\src\lv_objx\../lv_core/../lv_misc/lv_area.h **** {
  51:..\..\..\lvgl\version_6.1.2\lvgl\src\lv_objx\../lv_core/../lv_misc/lv_area.h ****     lv_coord_t x1;
  52:..\..\..\lvgl\version_6.1.2\lvgl\src\lv_objx\../lv_core/../lv_misc/lv_area.h ****     lv_coord_t y1;
  53:..\..\..\lvgl\version_6.1.2\lvgl\src\lv_objx\../lv_core/../lv_misc/lv_area.h ****     lv_coord_t x2;
  54:..\..\..\lvgl\version_6.1.2\lvgl\src\lv_objx\../lv_core/../lv_misc/lv_area.h ****     lv_coord_t y2;
  55:..\..\..\lvgl\version_6.1.2\lvgl\src\lv_objx\../lv_core/../lv_misc/lv_area.h **** } lv_area_t;
  56:..\..\..\lvgl\version_6.1.2\lvgl\src\lv_objx\../lv_core/../lv_misc/lv_area.h **** 
  57:..\..\..\lvgl\version_6.1.2\lvgl\src\lv_objx\../lv_core/../lv_misc/lv_area.h **** /**********************
  58:..\..\..\lvgl\version_6.1.2\lvgl\src\lv_objx\../lv_core/../lv_misc/lv_area.h ****  * GLOBAL PROTOTYPES
  59:..\..\..\lvgl\version_6.1.2\lvgl\src\lv_objx\../lv_core/../lv_misc/lv_area.h ****  **********************/
  60:..\..\..\lvgl\version_6.1.2\lvgl\src\lv_objx\../lv_core/../lv_misc/lv_area.h **** 
  61:..\..\..\lvgl\version_6.1.2\lvgl\src\lv_objx\../lv_core/../lv_misc/lv_area.h **** /**
  62:..\..\..\lvgl\version_6.1.2\lvgl\src\lv_objx\../lv_core/../lv_misc/lv_area.h ****  * Initialize an area
  63:..\..\..\lvgl\version_6.1.2\lvgl\src\lv_objx\../lv_core/../lv_misc/lv_area.h ****  * @param area_p pointer to an area
  64:..\..\..\lvgl\version_6.1.2\lvgl\src\lv_objx\../lv_core/../lv_misc/lv_area.h ****  * @param x1 left coordinate of the area
  65:..\..\..\lvgl\version_6.1.2\lvgl\src\lv_objx\../lv_core/../lv_misc/lv_area.h ****  * @param y1 top coordinate of the area
  66:..\..\..\lvgl\version_6.1.2\lvgl\src\lv_objx\../lv_core/../lv_misc/lv_area.h ****  * @param x2 right coordinate of the area
  67:..\..\..\lvgl\version_6.1.2\lvgl\src\lv_objx\../lv_core/../lv_misc/lv_area.h ****  * @param y2 bottom coordinate of the area
  68:..\..\..\lvgl\version_6.1.2\lvgl\src\lv_objx\../lv_core/../lv_misc/lv_area.h ****  */
  69:..\..\..\lvgl\version_6.1.2\lvgl\src\lv_objx\../lv_core/../lv_misc/lv_area.h **** void lv_area_set(lv_area_t * area_p, lv_coord_t x1, lv_coord_t y1, lv_coord_t x2, lv_coord_t y2);
  70:..\..\..\lvgl\version_6.1.2\lvgl\src\lv_objx\../lv_core/../lv_misc/lv_area.h **** 
  71:..\..\..\lvgl\version_6.1.2\lvgl\src\lv_objx\../lv_core/../lv_misc/lv_area.h **** /**
  72:..\..\..\lvgl\version_6.1.2\lvgl\src\lv_objx\../lv_core/../lv_misc/lv_area.h ****  * Copy an area
  73:..\..\..\lvgl\version_6.1.2\lvgl\src\lv_objx\../lv_core/../lv_misc/lv_area.h ****  * @param dest pointer to the destination area
  74:..\..\..\lvgl\version_6.1.2\lvgl\src\lv_objx\../lv_core/../lv_misc/lv_area.h ****  * @param src pointer to the source area
  75:..\..\..\lvgl\version_6.1.2\lvgl\src\lv_objx\../lv_core/../lv_misc/lv_area.h ****  */
  76:..\..\..\lvgl\version_6.1.2\lvgl\src\lv_objx\../lv_core/../lv_misc/lv_area.h **** inline static void lv_area_copy(lv_area_t * dest, const lv_area_t * src)
  77:..\..\..\lvgl\version_6.1.2\lvgl\src\lv_objx\../lv_core/../lv_misc/lv_area.h **** {
  78:..\..\..\lvgl\version_6.1.2\lvgl\src\lv_objx\../lv_core/../lv_misc/lv_area.h ****     memcpy(dest, src, sizeof(lv_area_t));
 163              		.loc 2 78 0
 164 008e D9F80420 		ldr	r2, [r9, #4]
 165              	.LBE173:
 166              	.LBE172:
 685:..\..\..\lvgl\version_6.1.2\lvgl\src\lv_objx/lv_btnm.c ****             area_tmp.x2 += area_btnm.x1;
 167              		.loc 1 685 0
 168 0092 BDF83A60 		ldrh	r6, [sp, #58]
 684:..\..\..\lvgl\version_6.1.2\lvgl\src\lv_objx/lv_btnm.c ****             area_tmp.y1 += area_btnm.y1;
 169              		.loc 1 684 0
 170 0096 BDF838E0 		ldrh	lr, [sp, #56]
 171              	.LBB175:
 172              	.LBB174:
 173              		.loc 2 78 0
 174 009a 02EBC802 		add	r2, r2, r8, lsl #3
 175 009e 10AB     		add	r3, sp, #64
 176              	.LVL25:
 177 00a0 1068     		ldr	r0, [r2]	@ unaligned
 178 00a2 5168     		ldr	r1, [r2, #4]	@ unaligned
 179 00a4 03C3     		stmia	r3!, {r0, r1}
 180              	.LVL26:
 181              	.LBE174:
 182              	.LBE175:
 686:..\..\..\lvgl\version_6.1.2\lvgl\src\lv_objx/lv_btnm.c ****             area_tmp.y2 += area_btnm.y1;
ARM GAS  C:\Users\pearlstl\AppData\Local\Temp\ccUkXBYk.s 			page 19


 183              		.loc 1 686 0
 184 00a6 BDF84420 		ldrh	r2, [sp, #68]
 684:..\..\..\lvgl\version_6.1.2\lvgl\src\lv_objx/lv_btnm.c ****             area_tmp.y1 += area_btnm.y1;
 185              		.loc 1 684 0
 186 00aa BDF84000 		ldrh	r0, [sp, #64]
 687:..\..\..\lvgl\version_6.1.2\lvgl\src\lv_objx/lv_btnm.c **** 
 187              		.loc 1 687 0
 188 00ae BDF84630 		ldrh	r3, [sp, #70]
 685:..\..\..\lvgl\version_6.1.2\lvgl\src\lv_objx/lv_btnm.c ****             area_tmp.x2 += area_btnm.x1;
 189              		.loc 1 685 0
 190 00b2 BDF84210 		ldrh	r1, [sp, #66]
 686:..\..\..\lvgl\version_6.1.2\lvgl\src\lv_objx/lv_btnm.c ****             area_tmp.y2 += area_btnm.y1;
 191              		.loc 1 686 0
 192 00b6 7244     		add	r2, r2, lr
 687:..\..\..\lvgl\version_6.1.2\lvgl\src\lv_objx/lv_btnm.c **** 
 193              		.loc 1 687 0
 194 00b8 3344     		add	r3, r3, r6
 685:..\..\..\lvgl\version_6.1.2\lvgl\src\lv_objx/lv_btnm.c ****             area_tmp.x2 += area_btnm.x1;
 195              		.loc 1 685 0
 196 00ba 3144     		add	r1, r1, r6
 684:..\..\..\lvgl\version_6.1.2\lvgl\src\lv_objx/lv_btnm.c ****             area_tmp.y1 += area_btnm.y1;
 197              		.loc 1 684 0
 198 00bc 8644     		add	lr, lr, r0
 686:..\..\..\lvgl\version_6.1.2\lvgl\src\lv_objx/lv_btnm.c ****             area_tmp.y2 += area_btnm.y1;
 199              		.loc 1 686 0
 200 00be 92B2     		uxth	r2, r2
 684:..\..\..\lvgl\version_6.1.2\lvgl\src\lv_objx/lv_btnm.c ****             area_tmp.y1 += area_btnm.y1;
 201              		.loc 1 684 0
 202 00c0 1FFA8EFE 		uxth	lr, lr
 687:..\..\..\lvgl\version_6.1.2\lvgl\src\lv_objx/lv_btnm.c **** 
 203              		.loc 1 687 0
 204 00c4 9BB2     		uxth	r3, r3
 685:..\..\..\lvgl\version_6.1.2\lvgl\src\lv_objx/lv_btnm.c ****             area_tmp.x2 += area_btnm.x1;
 205              		.loc 1 685 0
 206 00c6 89B2     		uxth	r1, r1
 686:..\..\..\lvgl\version_6.1.2\lvgl\src\lv_objx/lv_btnm.c ****             area_tmp.y2 += area_btnm.y1;
 207              		.loc 1 686 0
 208 00c8 ADF84420 		strh	r2, [sp, #68]	@ movhi
 687:..\..\..\lvgl\version_6.1.2\lvgl\src\lv_objx/lv_btnm.c **** 
 209              		.loc 1 687 0
 210 00cc ADF84630 		strh	r3, [sp, #70]	@ movhi
 211              	.LVL27:
 685:..\..\..\lvgl\version_6.1.2\lvgl\src\lv_objx/lv_btnm.c ****             area_tmp.x2 += area_btnm.x1;
 212              		.loc 1 685 0
 213 00d0 ADF84210 		strh	r1, [sp, #66]	@ movhi
 684:..\..\..\lvgl\version_6.1.2\lvgl\src\lv_objx/lv_btnm.c ****             area_tmp.y1 += area_btnm.y1;
 214              		.loc 1 684 0
 215 00d4 ADF840E0 		strh	lr, [sp, #64]	@ movhi
 693:..\..\..\lvgl\version_6.1.2\lvgl\src\lv_objx/lv_btnm.c ****             if(button_is_inactive(ext->ctrl_bits[btn_i]))
 216              		.loc 1 693 0
 217 00d8 37F818C0 		ldrh	ip, [r7, r8, lsl #1]
 218              	.LBB176:
 219              	.LBB177:
  79:..\..\..\lvgl\version_6.1.2\lvgl\src\lv_objx\../lv_core/../lv_misc/lv_area.h **** }
  80:..\..\..\lvgl\version_6.1.2\lvgl\src\lv_objx\../lv_core/../lv_misc/lv_area.h **** 
  81:..\..\..\lvgl\version_6.1.2\lvgl\src\lv_objx\../lv_core/../lv_misc/lv_area.h **** /**
  82:..\..\..\lvgl\version_6.1.2\lvgl\src\lv_objx\../lv_core/../lv_misc/lv_area.h ****  * Get the width of an area
ARM GAS  C:\Users\pearlstl\AppData\Local\Temp\ccUkXBYk.s 			page 20


  83:..\..\..\lvgl\version_6.1.2\lvgl\src\lv_objx\../lv_core/../lv_misc/lv_area.h ****  * @param area_p pointer to an area
  84:..\..\..\lvgl\version_6.1.2\lvgl\src\lv_objx\../lv_core/../lv_misc/lv_area.h ****  * @return the width of the area (if x1 == x2 -> width = 1)
  85:..\..\..\lvgl\version_6.1.2\lvgl\src\lv_objx\../lv_core/../lv_misc/lv_area.h ****  */
  86:..\..\..\lvgl\version_6.1.2\lvgl\src\lv_objx\../lv_core/../lv_misc/lv_area.h **** static inline lv_coord_t lv_area_get_width(const lv_area_t * area_p)
  87:..\..\..\lvgl\version_6.1.2\lvgl\src\lv_objx\../lv_core/../lv_misc/lv_area.h **** {
  88:..\..\..\lvgl\version_6.1.2\lvgl\src\lv_objx\../lv_core/../lv_misc/lv_area.h ****     return (lv_coord_t)(area_p->x2 - area_p->x1 + 1);
 220              		.loc 2 88 0
 221 00dc 0132     		adds	r2, r2, #1
 222              	.LBE177:
 223              	.LBE176:
 224              	.LBB180:
 225              	.LBB181:
  89:..\..\..\lvgl\version_6.1.2\lvgl\src\lv_objx\../lv_core/../lv_misc/lv_area.h **** }
  90:..\..\..\lvgl\version_6.1.2\lvgl\src\lv_objx\../lv_core/../lv_misc/lv_area.h **** 
  91:..\..\..\lvgl\version_6.1.2\lvgl\src\lv_objx\../lv_core/../lv_misc/lv_area.h **** /**
  92:..\..\..\lvgl\version_6.1.2\lvgl\src\lv_objx\../lv_core/../lv_misc/lv_area.h ****  * Get the height of an area
  93:..\..\..\lvgl\version_6.1.2\lvgl\src\lv_objx\../lv_core/../lv_misc/lv_area.h ****  * @param area_p pointer to an area
  94:..\..\..\lvgl\version_6.1.2\lvgl\src\lv_objx\../lv_core/../lv_misc/lv_area.h ****  * @return the height of the area (if y1 == y2 -> height = 1)
  95:..\..\..\lvgl\version_6.1.2\lvgl\src\lv_objx\../lv_core/../lv_misc/lv_area.h ****  */
  96:..\..\..\lvgl\version_6.1.2\lvgl\src\lv_objx\../lv_core/../lv_misc/lv_area.h **** static inline lv_coord_t lv_area_get_height(const lv_area_t * area_p)
  97:..\..\..\lvgl\version_6.1.2\lvgl\src\lv_objx\../lv_core/../lv_misc/lv_area.h **** {
  98:..\..\..\lvgl\version_6.1.2\lvgl\src\lv_objx\../lv_core/../lv_misc/lv_area.h ****     return (lv_coord_t)(area_p->y2 - area_p->y1 + 1);
 226              		.loc 2 98 0
 227 00de 0133     		adds	r3, r3, #1
 228              	.LBE181:
 229              	.LBE180:
 230              	.LBB184:
 231              	.LBB178:
  88:..\..\..\lvgl\version_6.1.2\lvgl\src\lv_objx\../lv_core/../lv_misc/lv_area.h **** }
 232              		.loc 2 88 0
 233 00e0 CEEB0202 		rsb	r2, lr, r2
 234              	.LBE178:
 235              	.LBE184:
 236              	.LBB185:
 237              	.LBB182:
 238              		.loc 2 98 0
 239 00e4 591A     		subs	r1, r3, r1
 240              	.LBE182:
 241              	.LBE185:
 694:..\..\..\lvgl\version_6.1.2\lvgl\src\lv_objx/lv_btnm.c ****                 btn_style = lv_btnm_get_style(btnm, LV_BTNM_STYLE_BTN_INA);
 242              		.loc 1 694 0
 243 00e6 1CF0200F 		tst	ip, #32
 244              	.LBB186:
 245              	.LBB179:
  88:..\..\..\lvgl\version_6.1.2\lvgl\src\lv_objx\../lv_core/../lv_misc/lv_area.h **** }
 246              		.loc 2 88 0
 247 00ea 16B2     		sxth	r6, r2
 248              	.LVL28:
 249              	.LBE179:
 250              	.LBE186:
 251              	.LBB187:
 252              	.LBB183:
 253              		.loc 2 98 0
 254 00ec 0FB2     		sxth	r7, r1
 255              	.LBE183:
 256              	.LBE187:
 694:..\..\..\lvgl\version_6.1.2\lvgl\src\lv_objx/lv_btnm.c ****                 btn_style = lv_btnm_get_style(btnm, LV_BTNM_STYLE_BTN_INA);
ARM GAS  C:\Users\pearlstl\AppData\Local\Temp\ccUkXBYk.s 			page 21


 257              		.loc 1 694 0
 258 00ee 40F0BC80 		bne	.L36
 696:..\..\..\lvgl\version_6.1.2\lvgl\src\lv_objx/lv_btnm.c ****                 btn_style = lv_btnm_get_style(btnm, LV_BTNM_STYLE_BTN_REL);
 259              		.loc 1 696 0
 260 00f2 B9F82220 		ldrh	r2, [r9, #34]
 261 00f6 0CF0800C 		and	ip, ip, #128
 262 00fa 4245     		cmp	r2, r8
 263 00fc 1FFA8CF3 		uxth	r3, ip
 264              	.LBB188:
 265              	.LBB189:
 603:..\..\..\lvgl\version_6.1.2\lvgl\src\lv_objx/lv_btnm.c **** 
 266              		.loc 1 603 0
 267 0100 5846     		mov	r0, fp
 268              	.LBE189:
 269              	.LBE188:
 696:..\..\..\lvgl\version_6.1.2\lvgl\src\lv_objx/lv_btnm.c ****                 btn_style = lv_btnm_get_style(btnm, LV_BTNM_STYLE_BTN_REL);
 270              		.loc 1 696 0
 271 0102 00F0B880 		beq	.L11
 272              	.LVL29:
 273 0106 002B     		cmp	r3, #0
 274 0108 00F0BB80 		beq	.L37
 275              	.LVL30:
 276              	.LBB191:
 277              	.LBB192:
 603:..\..\..\lvgl\version_6.1.2\lvgl\src\lv_objx/lv_btnm.c **** 
 278              		.loc 1 603 0
 279 010c FFF7FEFF 		bl	lv_obj_get_ext_attr
 280              	.LVL31:
 609:..\..\..\lvgl\version_6.1.2\lvgl\src\lv_objx/lv_btnm.c ****         case LV_BTNM_STYLE_BTN_TGL_PR: style = ext->styles_btn[LV_BTN_STATE_TGL_PR]; break;
 281              		.loc 1 609 0
 282 0110 D0F814A0 		ldr	r10, [r0, #20]
 283              	.LVL32:
 284              	.L10:
 285              	.LBE192:
 286              	.LBE191:
 707:..\..\..\lvgl\version_6.1.2\lvgl\src\lv_objx/lv_btnm.c **** 
 287              		.loc 1 707 0
 288 0114 5146     		mov	r1, r10
 289 0116 12A8     		add	r0, sp, #72
 290 0118 FFF7FEFF 		bl	lv_style_copy
 291              	.LVL33:
 710:..\..\..\lvgl\version_6.1.2\lvgl\src\lv_objx/lv_btnm.c ****                 if(area_tmp.y1 == btnm->coords.y1 + bg_style->body.padding.top) {
 292              		.loc 1 710 0
 293 011c 9DF85E30 		ldrb	r3, [sp, #94]	@ zero_extendqisi2
 294 0120 DA06     		lsls	r2, r3, #27
 295 0122 5BD4     		bmi	.L14
 296 0124 0134     		adds	r4, r4, #1
 297              	.LVL34:
 298              	.L15:
 728:..\..\..\lvgl\version_6.1.2\lvgl\src\lv_objx/lv_btnm.c **** 
 299              		.loc 1 728 0
 300 0126 089B     		ldr	r3, [sp, #32]
 301 0128 0699     		ldr	r1, [sp, #24]
 302 012a 12AA     		add	r2, sp, #72
 303 012c 10A8     		add	r0, sp, #64
 304              	.LVL35:
 305 012e FFF7FEFF 		bl	lv_draw_rect
ARM GAS  C:\Users\pearlstl\AppData\Local\Temp\ccUkXBYk.s 			page 22


 306              	.LVL36:
 731:..\..\..\lvgl\version_6.1.2\lvgl\src\lv_objx/lv_btnm.c ****             const lv_font_t * font = btn_style->text.font;
 307              		.loc 1 731 0
 308 0132 9AF80020 		ldrb	r2, [r10]	@ zero_extendqisi2
 734:..\..\..\lvgl\version_6.1.2\lvgl\src\lv_objx/lv_btnm.c ****                             btn_style->text.line_space, lv_area_get_width(&area_btnm), txt_flag);
 309              		.loc 1 734 0
 310 0136 BDF83C30 		ldrh	r3, [sp, #60]
 311 013a BDF83800 		ldrh	r0, [sp, #56]
 312 013e D9F80010 		ldr	r1, [r9]
 313              	.LBE200:
 657:..\..\..\lvgl\version_6.1.2\lvgl\src\lv_objx/lv_btnm.c ****         const lv_style_t * btn_style;
 314              		.loc 1 657 0
 315 0142 12F0010F 		tst	r2, #1
 316 0146 079A     		ldr	r2, [sp, #28]
 317              	.LBB201:
 734:..\..\..\lvgl\version_6.1.2\lvgl\src\lv_objx/lv_btnm.c ****                             btn_style->text.line_space, lv_area_get_width(&area_btnm), txt_flag);
 318              		.loc 1 734 0
 319 0148 4959     		ldr	r1, [r1, r5]
 320 014a 03F10103 		add	r3, r3, #1
 321              	.LBE201:
 657:..\..\..\lvgl\version_6.1.2\lvgl\src\lv_objx/lv_btnm.c ****         const lv_style_t * btn_style;
 322              		.loc 1 657 0
 323 014e 18BF     		it	ne
 324 0150 9246     		movne	r10, r2
 325              	.LVL37:
 326              	.LBB202:
 734:..\..\..\lvgl\version_6.1.2\lvgl\src\lv_objx/lv_btnm.c ****                             btn_style->text.line_space, lv_area_get_width(&area_btnm), txt_flag);
 327              		.loc 1 734 0
 328 0152 181A     		subs	r0, r3, r0
 329 0154 00B2     		sxth	r0, r0
 330 0156 BAF93830 		ldrsh	r3, [r10, #56]
 331 015a DAF83420 		ldr	r2, [r10, #52]
 332 015e 0190     		str	r0, [sp, #4]
 333              	.LVL38:
 334 0160 0998     		ldr	r0, [sp, #36]
 335 0162 0290     		str	r0, [sp, #8]
 336 0164 BAF93A00 		ldrsh	r0, [r10, #58]
 337 0168 0090     		str	r0, [sp]
 338 016a 0DA8     		add	r0, sp, #52
 339 016c FFF7FEFF 		bl	lv_txt_get_size
 340              	.LVL39:
 737:..\..\..\lvgl\version_6.1.2\lvgl\src\lv_objx/lv_btnm.c ****             area_tmp.y1 += (btn_h - txt_size.y) / 2;
 341              		.loc 1 737 0
 342 0170 BDF93410 		ldrsh	r1, [sp, #52]
 738:..\..\..\lvgl\version_6.1.2\lvgl\src\lv_objx/lv_btnm.c ****             area_tmp.x2 = area_tmp.x1 + txt_size.x;
 343              		.loc 1 738 0
 344 0174 BDF93620 		ldrsh	r2, [sp, #54]
 737:..\..\..\lvgl\version_6.1.2\lvgl\src\lv_objx/lv_btnm.c ****             area_tmp.y1 += (btn_h - txt_size.y) / 2;
 345              		.loc 1 737 0
 346 0178 BDF84000 		ldrh	r0, [sp, #64]
 738:..\..\..\lvgl\version_6.1.2\lvgl\src\lv_objx/lv_btnm.c ****             area_tmp.x2 = area_tmp.x1 + txt_size.x;
 347              		.loc 1 738 0
 348 017c BDF84230 		ldrh	r3, [sp, #66]
 742:..\..\..\lvgl\version_6.1.2\lvgl\src\lv_objx/lv_btnm.c ****         }
 349              		.loc 1 742 0
 350 0180 D9F800E0 		ldr	lr, [r9]
 737:..\..\..\lvgl\version_6.1.2\lvgl\src\lv_objx/lv_btnm.c ****             area_tmp.y1 += (btn_h - txt_size.y) / 2;
ARM GAS  C:\Users\pearlstl\AppData\Local\Temp\ccUkXBYk.s 			page 23


 351              		.loc 1 737 0
 352 0184 761A     		subs	r6, r6, r1
 738:..\..\..\lvgl\version_6.1.2\lvgl\src\lv_objx/lv_btnm.c ****             area_tmp.x2 = area_tmp.x1 + txt_size.x;
 353              		.loc 1 738 0
 354 0186 BF1A     		subs	r7, r7, r2
 737:..\..\..\lvgl\version_6.1.2\lvgl\src\lv_objx/lv_btnm.c ****             area_tmp.y1 += (btn_h - txt_size.y) / 2;
 355              		.loc 1 737 0
 356 0188 06EBD676 		add	r6, r6, r6, lsr #31
 738:..\..\..\lvgl\version_6.1.2\lvgl\src\lv_objx/lv_btnm.c ****             area_tmp.x2 = area_tmp.x1 + txt_size.x;
 357              		.loc 1 738 0
 358 018c 07EBD777 		add	r7, r7, r7, lsr #31
 359 0190 03EB6707 		add	r7, r3, r7, asr #1
 737:..\..\..\lvgl\version_6.1.2\lvgl\src\lv_objx/lv_btnm.c ****             area_tmp.y1 += (btn_h - txt_size.y) / 2;
 360              		.loc 1 737 0
 361 0194 00EB6606 		add	r6, r0, r6, asr #1
 362 0198 B6B2     		uxth	r6, r6
 738:..\..\..\lvgl\version_6.1.2\lvgl\src\lv_objx/lv_btnm.c ****             area_tmp.x2 = area_tmp.x1 + txt_size.x;
 363              		.loc 1 738 0
 364 019a BFB2     		uxth	r7, r7
 739:..\..\..\lvgl\version_6.1.2\lvgl\src\lv_objx/lv_btnm.c ****             area_tmp.y2 = area_tmp.y1 + txt_size.y;
 365              		.loc 1 739 0
 366 019c 3144     		add	r1, r1, r6
 740:..\..\..\lvgl\version_6.1.2\lvgl\src\lv_objx/lv_btnm.c **** 
 367              		.loc 1 740 0
 368 019e 3A44     		add	r2, r2, r7
 742:..\..\..\lvgl\version_6.1.2\lvgl\src\lv_objx/lv_btnm.c ****         }
 369              		.loc 1 742 0
 370 01a0 5846     		mov	r0, fp
 371 01a2 5EF80550 		ldr	r5, [lr, r5]
 739:..\..\..\lvgl\version_6.1.2\lvgl\src\lv_objx/lv_btnm.c ****             area_tmp.y2 = area_tmp.y1 + txt_size.y;
 372              		.loc 1 739 0
 373 01a6 ADF84410 		strh	r1, [sp, #68]	@ movhi
 737:..\..\..\lvgl\version_6.1.2\lvgl\src\lv_objx/lv_btnm.c ****             area_tmp.y1 += (btn_h - txt_size.y) / 2;
 374              		.loc 1 737 0
 375 01aa ADF84060 		strh	r6, [sp, #64]	@ movhi
 740:..\..\..\lvgl\version_6.1.2\lvgl\src\lv_objx/lv_btnm.c **** 
 376              		.loc 1 740 0
 377 01ae ADF84620 		strh	r2, [sp, #70]	@ movhi
 738:..\..\..\lvgl\version_6.1.2\lvgl\src\lv_objx/lv_btnm.c ****             area_tmp.x2 = area_tmp.x1 + txt_size.x;
 378              		.loc 1 738 0
 379 01b2 ADF84270 		strh	r7, [sp, #66]	@ movhi
 742:..\..\..\lvgl\version_6.1.2\lvgl\src\lv_objx/lv_btnm.c ****         }
 380              		.loc 1 742 0
 381 01b6 FFF7FEFF 		bl	lv_obj_get_base_dir
 382              	.LVL40:
 383 01ba 0023     		movs	r3, #0
 384 01bc 0590     		str	r0, [sp, #20]
 385 01be 0998     		ldr	r0, [sp, #36]
 386 01c0 0190     		str	r0, [sp, #4]
 387 01c2 0493     		str	r3, [sp, #16]
 388 01c4 0393     		str	r3, [sp, #12]
 389 01c6 0293     		str	r3, [sp, #8]
 390 01c8 0095     		str	r5, [sp]
 391 01ca 5246     		mov	r2, r10
 392 01cc 089B     		ldr	r3, [sp, #32]
 393 01ce 0699     		ldr	r1, [sp, #24]
 394 01d0 10A8     		add	r0, sp, #64
ARM GAS  C:\Users\pearlstl\AppData\Local\Temp\ccUkXBYk.s 			page 24


 395              	.LVL41:
 396 01d2 FFF7FEFF 		bl	lv_draw_label
 397              	.LVL42:
 398 01d6 B9F82060 		ldrh	r6, [r9, #32]
 399 01da 50E7     		b	.L8
 400              	.LVL43:
 401              	.L14:
 711:..\..\..\lvgl\version_6.1.2\lvgl\src\lv_objx/lv_btnm.c ****                     style_tmp.body.border.part &= ~LV_BORDER_TOP;
 402              		.loc 1 711 0
 403 01dc 079A     		ldr	r2, [sp, #28]
 404 01de BBF91200 		ldrsh	r0, [fp, #18]
 405 01e2 B2F92020 		ldrsh	r2, [r2, #32]
 406 01e6 BDF94210 		ldrsh	r1, [sp, #66]
 407 01ea 0244     		add	r2, r2, r0
 408 01ec 9142     		cmp	r1, r2
 714:..\..\..\lvgl\version_6.1.2\lvgl\src\lv_objx/lv_btnm.c ****                     style_tmp.body.border.part &= ~LV_BORDER_BOTTOM;
 409              		.loc 1 714 0
 410 01ee 0799     		ldr	r1, [sp, #28]
 411 01f0 BBF91620 		ldrsh	r2, [fp, #22]
 412 01f4 B1F92200 		ldrsh	r0, [r1, #34]
 413 01f8 BDF94610 		ldrsh	r1, [sp, #70]
 712:..\..\..\lvgl\version_6.1.2\lvgl\src\lv_objx/lv_btnm.c ****                 }
 414              		.loc 1 712 0
 415 01fc 08BF     		it	eq
 416 01fe 03F0FD03 		andeq	r3, r3, #253
 714:..\..\..\lvgl\version_6.1.2\lvgl\src\lv_objx/lv_btnm.c ****                     style_tmp.body.border.part &= ~LV_BORDER_BOTTOM;
 417              		.loc 1 714 0
 418 0202 A2EB0002 		sub	r2, r2, r0
 712:..\..\..\lvgl\version_6.1.2\lvgl\src\lv_objx/lv_btnm.c ****                 }
 419              		.loc 1 712 0
 420 0206 08BF     		it	eq
 421 0208 8DF85E30 		strbeq	r3, [sp, #94]
 714:..\..\..\lvgl\version_6.1.2\lvgl\src\lv_objx/lv_btnm.c ****                     style_tmp.body.border.part &= ~LV_BORDER_BOTTOM;
 422              		.loc 1 714 0
 423 020c 9142     		cmp	r1, r2
 715:..\..\..\lvgl\version_6.1.2\lvgl\src\lv_objx/lv_btnm.c ****                 }
 424              		.loc 1 715 0
 425 020e 04BF     		itt	eq
 426 0210 03F0FE03 		andeq	r3, r3, #254
 427 0214 8DF85E30 		strbeq	r3, [sp, #94]
 718:..\..\..\lvgl\version_6.1.2\lvgl\src\lv_objx/lv_btnm.c ****                     style_tmp.body.border.part &= ~LV_BORDER_LEFT;
 428              		.loc 1 718 0
 429 0218 04B3     		cbz	r4, .L32
 720:..\..\..\lvgl\version_6.1.2\lvgl\src\lv_objx/lv_btnm.c ****                     style_tmp.body.border.part &= ~LV_BORDER_LEFT;
 430              		.loc 1 720 0
 431 021a 04F18040 		add	r0, r4, #1073741824
 432 021e D9F80020 		ldr	r2, [r9]
 433 0222 2049     		ldr	r1, .L39+4
 434 0224 0B93     		str	r3, [sp, #44]
 435 0226 0138     		subs	r0, r0, #1
 436 0228 0A92     		str	r2, [sp, #40]
 437 022a 52F82000 		ldr	r0, [r2, r0, lsl #2]
 438 022e FFF7FEFF 		bl	strcmp
 439              	.LVL44:
 440 0232 0A9A     		ldr	r2, [sp, #40]
 441 0234 0B9B     		ldr	r3, [sp, #44]
 442 0236 88B1     		cbz	r0, .L32
ARM GAS  C:\Users\pearlstl\AppData\Local\Temp\ccUkXBYk.s 			page 25


 443              	.L19:
 724:..\..\..\lvgl\version_6.1.2\lvgl\src\lv_objx/lv_btnm.c ****                     style_tmp.body.border.part &= ~LV_BORDER_RIGHT;
 444              		.loc 1 724 0
 445 0238 0134     		adds	r4, r4, #1
 446              	.LVL45:
 447 023a 52F82400 		ldr	r0, [r2, r4, lsl #2]
 448 023e 0278     		ldrb	r2, [r0]	@ zero_extendqisi2
 449 0240 3AB1     		cbz	r2, .L20
 450 0242 1849     		ldr	r1, .L39+4
 451 0244 0A93     		str	r3, [sp, #40]
 452 0246 FFF7FEFF 		bl	strcmp
 453              	.LVL46:
 454 024a 0A9B     		ldr	r3, [sp, #40]
 455 024c 0028     		cmp	r0, #0
 456 024e 7FF46AAF 		bne	.L15
 457              	.L20:
 725:..\..\..\lvgl\version_6.1.2\lvgl\src\lv_objx/lv_btnm.c ****                 }
 458              		.loc 1 725 0
 459 0252 23F00803 		bic	r3, r3, #8
 460 0256 8DF85E30 		strb	r3, [sp, #94]
 461 025a 64E7     		b	.L15
 462              	.LVL47:
 463              	.L32:
 721:..\..\..\lvgl\version_6.1.2\lvgl\src\lv_objx/lv_btnm.c ****                 }
 464              		.loc 1 721 0
 465 025c 03F0FB03 		and	r3, r3, #251
 466 0260 8DF85E30 		strb	r3, [sp, #94]
 467 0264 D9F80020 		ldr	r2, [r9]
 468 0268 E6E7     		b	.L19
 469              	.LVL48:
 470              	.L36:
 471              	.LBB193:
 472              	.LBB194:
 603:..\..\..\lvgl\version_6.1.2\lvgl\src\lv_objx/lv_btnm.c **** 
 473              		.loc 1 603 0
 474 026a 5846     		mov	r0, fp
 475 026c FFF7FEFF 		bl	lv_obj_get_ext_attr
 476              	.LVL49:
 611:..\..\..\lvgl\version_6.1.2\lvgl\src\lv_objx/lv_btnm.c ****         default: style = NULL; break;
 477              		.loc 1 611 0
 478 0270 D0F81CA0 		ldr	r10, [r0, #28]
 479              	.LVL50:
 480 0274 4EE7     		b	.L10
 481              	.LVL51:
 482              	.L11:
 483              	.LBE194:
 484              	.LBE193:
 698:..\..\..\lvgl\version_6.1.2\lvgl\src\lv_objx/lv_btnm.c ****                 btn_style = lv_btnm_get_style(btnm, LV_BTNM_STYLE_BTN_PR);
 485              		.loc 1 698 0
 486 0276 6BB1     		cbz	r3, .L38
 487              	.LVL52:
 488              	.LBB195:
 489              	.LBB196:
 603:..\..\..\lvgl\version_6.1.2\lvgl\src\lv_objx/lv_btnm.c **** 
 490              		.loc 1 603 0
 491 0278 FFF7FEFF 		bl	lv_obj_get_ext_attr
 492              	.LVL53:
ARM GAS  C:\Users\pearlstl\AppData\Local\Temp\ccUkXBYk.s 			page 26


 610:..\..\..\lvgl\version_6.1.2\lvgl\src\lv_objx/lv_btnm.c ****         case LV_BTNM_STYLE_BTN_INA: style = ext->styles_btn[LV_BTN_STATE_INA]; break;
 493              		.loc 1 610 0
 494 027c D0F818A0 		ldr	r10, [r0, #24]
 495              	.LVL54:
 496 0280 48E7     		b	.L10
 497              	.LVL55:
 498              	.L37:
 499              	.LBE196:
 500              	.LBE195:
 501              	.LBB197:
 502              	.LBB190:
 603:..\..\..\lvgl\version_6.1.2\lvgl\src\lv_objx/lv_btnm.c **** 
 503              		.loc 1 603 0
 504 0282 FFF7FEFF 		bl	lv_obj_get_ext_attr
 505              	.LVL56:
 607:..\..\..\lvgl\version_6.1.2\lvgl\src\lv_objx/lv_btnm.c ****         case LV_BTNM_STYLE_BTN_PR: style = ext->styles_btn[LV_BTN_STATE_PR]; break;
 506              		.loc 1 607 0
 507 0286 D0F80CA0 		ldr	r10, [r0, #12]
 508              	.LVL57:
 509 028a 43E7     		b	.L10
 510              	.LVL58:
 511              	.L34:
 512              	.LBE190:
 513              	.LBE197:
 514              	.LBE202:
 515              	.LBE170:
 516              	.LBE169:
 649:..\..\..\lvgl\version_6.1.2\lvgl\src\lv_objx/lv_btnm.c ****         /*Return false if the object is not covers the mask_p area*/
 517              		.loc 1 649 0
 518 028c 044B     		ldr	r3, .L39
 519 028e 1B68     		ldr	r3, [r3]
 520 0290 9847     		blx	r3
 521              	.LVL59:
 522 0292 BFE6     		b	.L3
 523              	.LVL60:
 524              	.L38:
 525              	.LBB205:
 526              	.LBB204:
 527              	.LBB203:
 528              	.LBB198:
 529              	.LBB199:
 603:..\..\..\lvgl\version_6.1.2\lvgl\src\lv_objx/lv_btnm.c **** 
 530              		.loc 1 603 0
 531 0294 FFF7FEFF 		bl	lv_obj_get_ext_attr
 532              	.LVL61:
 608:..\..\..\lvgl\version_6.1.2\lvgl\src\lv_objx/lv_btnm.c ****         case LV_BTNM_STYLE_BTN_TGL_REL: style = ext->styles_btn[LV_BTN_STATE_TGL_REL]; break;
 533              		.loc 1 608 0
 534 0298 D0F810A0 		ldr	r10, [r0, #16]
 535              	.LVL62:
 536 029c 3AE7     		b	.L10
 537              	.L40:
 538 029e 00BF     		.align	2
 539              	.L39:
 540 02a0 00000000 		.word	.LANCHOR0
 541 02a4 00000000 		.word	.LC0
 542              	.LBE199:
 543              	.LBE198:
ARM GAS  C:\Users\pearlstl\AppData\Local\Temp\ccUkXBYk.s 			page 27


 544              	.LBE203:
 545              	.LBE204:
 546              	.LBE205:
 547              		.cfi_endproc
 548              	.LFE67:
 549              		.size	lv_btnm_design, .-lv_btnm_design
 550              		.section	.text.lv_btnm_set_map,"ax",%progbits
 551              		.align	2
 552              		.global	lv_btnm_set_map
 553              		.thumb
 554              		.thumb_func
 555              		.type	lv_btnm_set_map, %function
 556              	lv_btnm_set_map:
 557              	.LFB47:
 146:..\..\..\lvgl\version_6.1.2\lvgl\src\lv_objx/lv_btnm.c ****     LV_ASSERT_OBJ(btnm, LV_OBJX_NAME);
 558              		.loc 1 146 0
 559              		.cfi_startproc
 560              		@ args = 0, pretend = 0, frame = 64
 561              		@ frame_needed = 0, uses_anonymous_args = 0
 562              	.LVL63:
 563 0000 2DE9F04F 		push	{r4, r5, r6, r7, r8, r9, r10, fp, lr}
 564              		.cfi_def_cfa_offset 36
 565              		.cfi_offset 4, -36
 566              		.cfi_offset 5, -32
 567              		.cfi_offset 6, -28
 568              		.cfi_offset 7, -24
 569              		.cfi_offset 8, -20
 570              		.cfi_offset 9, -16
 571              		.cfi_offset 10, -12
 572              		.cfi_offset 11, -8
 573              		.cfi_offset 14, -4
 574 0004 93B0     		sub	sp, sp, #76
 575              		.cfi_def_cfa_offset 112
 146:..\..\..\lvgl\version_6.1.2\lvgl\src\lv_objx/lv_btnm.c ****     LV_ASSERT_OBJ(btnm, LV_OBJX_NAME);
 576              		.loc 1 146 0
 577 0006 8B46     		mov	fp, r1
 578 0008 0890     		str	r0, [sp, #32]
 161:..\..\..\lvgl\version_6.1.2\lvgl\src\lv_objx/lv_btnm.c ****     if(!maps_are_identical(ext->map_p, map)) {
 579              		.loc 1 161 0
 580 000a FFF7FEFF 		bl	lv_obj_get_ext_attr
 581              	.LVL64:
 162:..\..\..\lvgl\version_6.1.2\lvgl\src\lv_objx/lv_btnm.c **** 
 582              		.loc 1 162 0
 583 000e 0668     		ldr	r6, [r0]
 584              	.LBB220:
 585              	.LBB221:
 748:..\..\..\lvgl\version_6.1.2\lvgl\src\lv_objx/lv_btnm.c **** 
 749:..\..\..\lvgl\version_6.1.2\lvgl\src\lv_objx/lv_btnm.c **** /**
 750:..\..\..\lvgl\version_6.1.2\lvgl\src\lv_objx/lv_btnm.c ****  * Signal function of the button matrix
 751:..\..\..\lvgl\version_6.1.2\lvgl\src\lv_objx/lv_btnm.c ****  * @param btnm pointer to a button matrix object
 752:..\..\..\lvgl\version_6.1.2\lvgl\src\lv_objx/lv_btnm.c ****  * @param sign a signal type from lv_signal_t enum
 753:..\..\..\lvgl\version_6.1.2\lvgl\src\lv_objx/lv_btnm.c ****  * @param param pointer to a signal specific variable
 754:..\..\..\lvgl\version_6.1.2\lvgl\src\lv_objx/lv_btnm.c ****  * @return LV_RES_OK: the object is not deleted in the function; LV_RES_INV: the object is deleted
 755:..\..\..\lvgl\version_6.1.2\lvgl\src\lv_objx/lv_btnm.c ****  */
 756:..\..\..\lvgl\version_6.1.2\lvgl\src\lv_objx/lv_btnm.c **** static lv_res_t lv_btnm_signal(lv_obj_t * btnm, lv_signal_t sign, void * param)
 757:..\..\..\lvgl\version_6.1.2\lvgl\src\lv_objx/lv_btnm.c **** {
 758:..\..\..\lvgl\version_6.1.2\lvgl\src\lv_objx/lv_btnm.c ****     lv_res_t res;
ARM GAS  C:\Users\pearlstl\AppData\Local\Temp\ccUkXBYk.s 			page 28


 759:..\..\..\lvgl\version_6.1.2\lvgl\src\lv_objx/lv_btnm.c **** 
 760:..\..\..\lvgl\version_6.1.2\lvgl\src\lv_objx/lv_btnm.c ****     /* Include the ancient signal function */
 761:..\..\..\lvgl\version_6.1.2\lvgl\src\lv_objx/lv_btnm.c ****     res = ancestor_signal(btnm, sign, param);
 762:..\..\..\lvgl\version_6.1.2\lvgl\src\lv_objx/lv_btnm.c ****     if(res != LV_RES_OK) return res;
 763:..\..\..\lvgl\version_6.1.2\lvgl\src\lv_objx/lv_btnm.c ****     if(sign == LV_SIGNAL_GET_TYPE) return lv_obj_handle_get_type_signal(param, LV_OBJX_NAME);
 764:..\..\..\lvgl\version_6.1.2\lvgl\src\lv_objx/lv_btnm.c **** 
 765:..\..\..\lvgl\version_6.1.2\lvgl\src\lv_objx/lv_btnm.c ****     lv_btnm_ext_t * ext = lv_obj_get_ext_attr(btnm);
 766:..\..\..\lvgl\version_6.1.2\lvgl\src\lv_objx/lv_btnm.c ****     lv_point_t p;
 767:..\..\..\lvgl\version_6.1.2\lvgl\src\lv_objx/lv_btnm.c ****     if(sign == LV_SIGNAL_CLEANUP) {
 768:..\..\..\lvgl\version_6.1.2\lvgl\src\lv_objx/lv_btnm.c ****         lv_mem_free(ext->button_areas);
 769:..\..\..\lvgl\version_6.1.2\lvgl\src\lv_objx/lv_btnm.c ****         lv_mem_free(ext->ctrl_bits);
 770:..\..\..\lvgl\version_6.1.2\lvgl\src\lv_objx/lv_btnm.c ****     } else if(sign == LV_SIGNAL_STYLE_CHG || sign == LV_SIGNAL_CORD_CHG) {
 771:..\..\..\lvgl\version_6.1.2\lvgl\src\lv_objx/lv_btnm.c ****         lv_btnm_set_map(btnm, ext->map_p);
 772:..\..\..\lvgl\version_6.1.2\lvgl\src\lv_objx/lv_btnm.c ****     } else if(sign == LV_SIGNAL_PRESSED) {
 773:..\..\..\lvgl\version_6.1.2\lvgl\src\lv_objx/lv_btnm.c ****         lv_indev_t * indev = lv_indev_get_act();
 774:..\..\..\lvgl\version_6.1.2\lvgl\src\lv_objx/lv_btnm.c ****         if(lv_indev_get_type(indev) == LV_INDEV_TYPE_POINTER || lv_indev_get_type(indev) == LV_INDE
 775:..\..\..\lvgl\version_6.1.2\lvgl\src\lv_objx/lv_btnm.c ****             uint16_t btn_pr;
 776:..\..\..\lvgl\version_6.1.2\lvgl\src\lv_objx/lv_btnm.c ****             /*Search the pressed area*/
 777:..\..\..\lvgl\version_6.1.2\lvgl\src\lv_objx/lv_btnm.c ****             lv_indev_get_point(param, &p);
 778:..\..\..\lvgl\version_6.1.2\lvgl\src\lv_objx/lv_btnm.c ****             btn_pr = get_button_from_point(btnm, &p);
 779:..\..\..\lvgl\version_6.1.2\lvgl\src\lv_objx/lv_btnm.c **** 
 780:..\..\..\lvgl\version_6.1.2\lvgl\src\lv_objx/lv_btnm.c ****             invalidate_button_area(btnm, ext->btn_id_pr) /*Invalidate the old area*/;
 781:..\..\..\lvgl\version_6.1.2\lvgl\src\lv_objx/lv_btnm.c ****             ext->btn_id_pr  = btn_pr;
 782:..\..\..\lvgl\version_6.1.2\lvgl\src\lv_objx/lv_btnm.c ****             ext->btn_id_act = btn_pr;
 783:..\..\..\lvgl\version_6.1.2\lvgl\src\lv_objx/lv_btnm.c ****             invalidate_button_area(btnm, ext->btn_id_pr); /*Invalidate the new area*/
 784:..\..\..\lvgl\version_6.1.2\lvgl\src\lv_objx/lv_btnm.c ****         }
 785:..\..\..\lvgl\version_6.1.2\lvgl\src\lv_objx/lv_btnm.c ****         if(ext->btn_id_act != LV_BTNM_BTN_NONE) {
 786:..\..\..\lvgl\version_6.1.2\lvgl\src\lv_objx/lv_btnm.c ****             if(button_is_click_trig(ext->ctrl_bits[ext->btn_id_act]) == false &&
 787:..\..\..\lvgl\version_6.1.2\lvgl\src\lv_objx/lv_btnm.c ****                button_is_inactive(ext->ctrl_bits[ext->btn_id_act]) == false &&
 788:..\..\..\lvgl\version_6.1.2\lvgl\src\lv_objx/lv_btnm.c ****                button_is_hidden(ext->ctrl_bits[ext->btn_id_act]) == false) {
 789:..\..\..\lvgl\version_6.1.2\lvgl\src\lv_objx/lv_btnm.c ****                 uint32_t b = ext->btn_id_act;
 790:..\..\..\lvgl\version_6.1.2\lvgl\src\lv_objx/lv_btnm.c ****                 res        = lv_event_send(btnm, LV_EVENT_VALUE_CHANGED, &b);
 791:..\..\..\lvgl\version_6.1.2\lvgl\src\lv_objx/lv_btnm.c ****             }
 792:..\..\..\lvgl\version_6.1.2\lvgl\src\lv_objx/lv_btnm.c ****         }
 793:..\..\..\lvgl\version_6.1.2\lvgl\src\lv_objx/lv_btnm.c ****     } else if(sign == LV_SIGNAL_PRESSING) {
 794:..\..\..\lvgl\version_6.1.2\lvgl\src\lv_objx/lv_btnm.c ****         uint16_t btn_pr;
 795:..\..\..\lvgl\version_6.1.2\lvgl\src\lv_objx/lv_btnm.c ****         /*Search the pressed area*/
 796:..\..\..\lvgl\version_6.1.2\lvgl\src\lv_objx/lv_btnm.c ****         lv_indev_get_point(param, &p);
 797:..\..\..\lvgl\version_6.1.2\lvgl\src\lv_objx/lv_btnm.c ****         btn_pr = get_button_from_point(btnm, &p);
 798:..\..\..\lvgl\version_6.1.2\lvgl\src\lv_objx/lv_btnm.c ****         /*Invalidate to old and the new areas*/;
 799:..\..\..\lvgl\version_6.1.2\lvgl\src\lv_objx/lv_btnm.c ****         if(btn_pr != ext->btn_id_pr) {
 800:..\..\..\lvgl\version_6.1.2\lvgl\src\lv_objx/lv_btnm.c ****             lv_indev_reset_long_press(param); /*Start the log press time again on the new button*/
 801:..\..\..\lvgl\version_6.1.2\lvgl\src\lv_objx/lv_btnm.c ****             if(ext->btn_id_pr != LV_BTNM_BTN_NONE) {
 802:..\..\..\lvgl\version_6.1.2\lvgl\src\lv_objx/lv_btnm.c ****                 invalidate_button_area(btnm, ext->btn_id_pr);
 803:..\..\..\lvgl\version_6.1.2\lvgl\src\lv_objx/lv_btnm.c ****             }
 804:..\..\..\lvgl\version_6.1.2\lvgl\src\lv_objx/lv_btnm.c ****             if(btn_pr != LV_BTNM_BTN_NONE) {
 805:..\..\..\lvgl\version_6.1.2\lvgl\src\lv_objx/lv_btnm.c ****                 uint32_t b = ext->btn_id_act;
 806:..\..\..\lvgl\version_6.1.2\lvgl\src\lv_objx/lv_btnm.c ****                 res        = lv_event_send(btnm, LV_EVENT_VALUE_CHANGED, &b);
 807:..\..\..\lvgl\version_6.1.2\lvgl\src\lv_objx/lv_btnm.c ****                 if(res == LV_RES_OK) {
 808:..\..\..\lvgl\version_6.1.2\lvgl\src\lv_objx/lv_btnm.c ****                     invalidate_button_area(btnm, btn_pr);
 809:..\..\..\lvgl\version_6.1.2\lvgl\src\lv_objx/lv_btnm.c ****                 }
 810:..\..\..\lvgl\version_6.1.2\lvgl\src\lv_objx/lv_btnm.c ****             }
 811:..\..\..\lvgl\version_6.1.2\lvgl\src\lv_objx/lv_btnm.c ****         }
 812:..\..\..\lvgl\version_6.1.2\lvgl\src\lv_objx/lv_btnm.c **** 
 813:..\..\..\lvgl\version_6.1.2\lvgl\src\lv_objx/lv_btnm.c ****         ext->btn_id_pr  = btn_pr;
 814:..\..\..\lvgl\version_6.1.2\lvgl\src\lv_objx/lv_btnm.c ****         ext->btn_id_act = btn_pr;
 815:..\..\..\lvgl\version_6.1.2\lvgl\src\lv_objx/lv_btnm.c ****     } else if(sign == LV_SIGNAL_RELEASED) {
ARM GAS  C:\Users\pearlstl\AppData\Local\Temp\ccUkXBYk.s 			page 29


 816:..\..\..\lvgl\version_6.1.2\lvgl\src\lv_objx/lv_btnm.c ****         if(ext->btn_id_pr != LV_BTNM_BTN_NONE) {
 817:..\..\..\lvgl\version_6.1.2\lvgl\src\lv_objx/lv_btnm.c ****             /*Toggle the button if enabled*/
 818:..\..\..\lvgl\version_6.1.2\lvgl\src\lv_objx/lv_btnm.c ****             if(button_is_tgl_enabled(ext->ctrl_bits[ext->btn_id_pr]) &&
 819:..\..\..\lvgl\version_6.1.2\lvgl\src\lv_objx/lv_btnm.c ****                !button_is_inactive(ext->ctrl_bits[ext->btn_id_pr])) {
 820:..\..\..\lvgl\version_6.1.2\lvgl\src\lv_objx/lv_btnm.c ****                 if(button_get_tgl_state(ext->ctrl_bits[ext->btn_id_pr])) {
 821:..\..\..\lvgl\version_6.1.2\lvgl\src\lv_objx/lv_btnm.c ****                     ext->ctrl_bits[ext->btn_id_pr] &= (~LV_BTNM_CTRL_TGL_STATE);
 822:..\..\..\lvgl\version_6.1.2\lvgl\src\lv_objx/lv_btnm.c ****                 } else {
 823:..\..\..\lvgl\version_6.1.2\lvgl\src\lv_objx/lv_btnm.c ****                     ext->ctrl_bits[ext->btn_id_pr] |= LV_BTNM_CTRL_TGL_STATE;
 824:..\..\..\lvgl\version_6.1.2\lvgl\src\lv_objx/lv_btnm.c ****                 }
 825:..\..\..\lvgl\version_6.1.2\lvgl\src\lv_objx/lv_btnm.c ****                 if(ext->one_toggle) make_one_button_toggled(btnm, ext->btn_id_pr);
 826:..\..\..\lvgl\version_6.1.2\lvgl\src\lv_objx/lv_btnm.c ****             }
 827:..\..\..\lvgl\version_6.1.2\lvgl\src\lv_objx/lv_btnm.c **** 
 828:..\..\..\lvgl\version_6.1.2\lvgl\src\lv_objx/lv_btnm.c ****             /*Invalidate to old pressed area*/;
 829:..\..\..\lvgl\version_6.1.2\lvgl\src\lv_objx/lv_btnm.c ****             invalidate_button_area(btnm, ext->btn_id_pr);
 830:..\..\..\lvgl\version_6.1.2\lvgl\src\lv_objx/lv_btnm.c **** 
 831:..\..\..\lvgl\version_6.1.2\lvgl\src\lv_objx/lv_btnm.c **** #if LV_USE_GROUP
 832:..\..\..\lvgl\version_6.1.2\lvgl\src\lv_objx/lv_btnm.c ****             /*Leave the clicked button when releases if this not the focused object in a group*/
 833:..\..\..\lvgl\version_6.1.2\lvgl\src\lv_objx/lv_btnm.c ****             lv_group_t * g = lv_obj_get_group(btnm);
 834:..\..\..\lvgl\version_6.1.2\lvgl\src\lv_objx/lv_btnm.c ****             if(lv_group_get_focused(g) != btnm) {
 835:..\..\..\lvgl\version_6.1.2\lvgl\src\lv_objx/lv_btnm.c ****                 ext->btn_id_pr = LV_BTNM_BTN_NONE;
 836:..\..\..\lvgl\version_6.1.2\lvgl\src\lv_objx/lv_btnm.c ****             }
 837:..\..\..\lvgl\version_6.1.2\lvgl\src\lv_objx/lv_btnm.c **** #else
 838:..\..\..\lvgl\version_6.1.2\lvgl\src\lv_objx/lv_btnm.c ****             ext->btn_id_pr = LV_BTNM_BTN_NONE;
 839:..\..\..\lvgl\version_6.1.2\lvgl\src\lv_objx/lv_btnm.c **** #endif
 840:..\..\..\lvgl\version_6.1.2\lvgl\src\lv_objx/lv_btnm.c **** 
 841:..\..\..\lvgl\version_6.1.2\lvgl\src\lv_objx/lv_btnm.c ****             if(button_is_click_trig(ext->ctrl_bits[ext->btn_id_act]) == true &&
 842:..\..\..\lvgl\version_6.1.2\lvgl\src\lv_objx/lv_btnm.c ****                button_is_inactive(ext->ctrl_bits[ext->btn_id_act]) == false &&
 843:..\..\..\lvgl\version_6.1.2\lvgl\src\lv_objx/lv_btnm.c ****                button_is_hidden(ext->ctrl_bits[ext->btn_id_act]) == false) {
 844:..\..\..\lvgl\version_6.1.2\lvgl\src\lv_objx/lv_btnm.c ****                 uint32_t b = ext->btn_id_act;
 845:..\..\..\lvgl\version_6.1.2\lvgl\src\lv_objx/lv_btnm.c ****                 res        = lv_event_send(btnm, LV_EVENT_VALUE_CHANGED, &b);
 846:..\..\..\lvgl\version_6.1.2\lvgl\src\lv_objx/lv_btnm.c ****             }
 847:..\..\..\lvgl\version_6.1.2\lvgl\src\lv_objx/lv_btnm.c ****         }
 848:..\..\..\lvgl\version_6.1.2\lvgl\src\lv_objx/lv_btnm.c ****     } else if(sign == LV_SIGNAL_LONG_PRESS_REP) {
 849:..\..\..\lvgl\version_6.1.2\lvgl\src\lv_objx/lv_btnm.c ****         if(ext->btn_id_act != LV_BTNM_BTN_NONE) {
 850:..\..\..\lvgl\version_6.1.2\lvgl\src\lv_objx/lv_btnm.c ****             if(button_is_repeat_disabled(ext->ctrl_bits[ext->btn_id_act]) == false &&
 851:..\..\..\lvgl\version_6.1.2\lvgl\src\lv_objx/lv_btnm.c ****                button_is_inactive(ext->ctrl_bits[ext->btn_id_act]) == false &&
 852:..\..\..\lvgl\version_6.1.2\lvgl\src\lv_objx/lv_btnm.c ****                button_is_hidden(ext->ctrl_bits[ext->btn_id_act]) == false) {
 853:..\..\..\lvgl\version_6.1.2\lvgl\src\lv_objx/lv_btnm.c ****                 uint32_t b = ext->btn_id_act;
 854:..\..\..\lvgl\version_6.1.2\lvgl\src\lv_objx/lv_btnm.c ****                 res        = lv_event_send(btnm, LV_EVENT_VALUE_CHANGED, &b);
 855:..\..\..\lvgl\version_6.1.2\lvgl\src\lv_objx/lv_btnm.c ****             }
 856:..\..\..\lvgl\version_6.1.2\lvgl\src\lv_objx/lv_btnm.c ****         }
 857:..\..\..\lvgl\version_6.1.2\lvgl\src\lv_objx/lv_btnm.c ****     } else if(sign == LV_SIGNAL_PRESS_LOST || sign == LV_SIGNAL_DEFOCUS) {
 858:..\..\..\lvgl\version_6.1.2\lvgl\src\lv_objx/lv_btnm.c ****         ext->btn_id_pr  = LV_BTNM_BTN_NONE;
 859:..\..\..\lvgl\version_6.1.2\lvgl\src\lv_objx/lv_btnm.c ****         ext->btn_id_act = LV_BTNM_BTN_NONE;
 860:..\..\..\lvgl\version_6.1.2\lvgl\src\lv_objx/lv_btnm.c ****         lv_obj_invalidate(btnm);
 861:..\..\..\lvgl\version_6.1.2\lvgl\src\lv_objx/lv_btnm.c ****     } else if(sign == LV_SIGNAL_FOCUS) {
 862:..\..\..\lvgl\version_6.1.2\lvgl\src\lv_objx/lv_btnm.c **** #if LV_USE_GROUP
 863:..\..\..\lvgl\version_6.1.2\lvgl\src\lv_objx/lv_btnm.c ****         lv_indev_t * indev         = lv_indev_get_act();
 864:..\..\..\lvgl\version_6.1.2\lvgl\src\lv_objx/lv_btnm.c ****         lv_indev_type_t indev_type = lv_indev_get_type(indev);
 865:..\..\..\lvgl\version_6.1.2\lvgl\src\lv_objx/lv_btnm.c **** 
 866:..\..\..\lvgl\version_6.1.2\lvgl\src\lv_objx/lv_btnm.c ****         /*If not focused by an input device assume the last input device*/
 867:..\..\..\lvgl\version_6.1.2\lvgl\src\lv_objx/lv_btnm.c ****         if(indev == NULL) {
 868:..\..\..\lvgl\version_6.1.2\lvgl\src\lv_objx/lv_btnm.c ****             indev = lv_indev_get_next(NULL);
 869:..\..\..\lvgl\version_6.1.2\lvgl\src\lv_objx/lv_btnm.c ****             indev_type = lv_indev_get_type(indev);
 870:..\..\..\lvgl\version_6.1.2\lvgl\src\lv_objx/lv_btnm.c ****         }
 871:..\..\..\lvgl\version_6.1.2\lvgl\src\lv_objx/lv_btnm.c **** 
 872:..\..\..\lvgl\version_6.1.2\lvgl\src\lv_objx/lv_btnm.c ****         if(indev_type == LV_INDEV_TYPE_POINTER) {
ARM GAS  C:\Users\pearlstl\AppData\Local\Temp\ccUkXBYk.s 			page 30


 873:..\..\..\lvgl\version_6.1.2\lvgl\src\lv_objx/lv_btnm.c ****             /*Select the clicked button*/
 874:..\..\..\lvgl\version_6.1.2\lvgl\src\lv_objx/lv_btnm.c ****             lv_point_t p1;
 875:..\..\..\lvgl\version_6.1.2\lvgl\src\lv_objx/lv_btnm.c ****             lv_indev_get_point(indev, &p1);
 876:..\..\..\lvgl\version_6.1.2\lvgl\src\lv_objx/lv_btnm.c ****             uint16_t btn_i = get_button_from_point(btnm, &p1);
 877:..\..\..\lvgl\version_6.1.2\lvgl\src\lv_objx/lv_btnm.c ****             ext->btn_id_pr = btn_i;
 878:..\..\..\lvgl\version_6.1.2\lvgl\src\lv_objx/lv_btnm.c **** 
 879:..\..\..\lvgl\version_6.1.2\lvgl\src\lv_objx/lv_btnm.c ****         } else if(indev_type == LV_INDEV_TYPE_ENCODER) {
 880:..\..\..\lvgl\version_6.1.2\lvgl\src\lv_objx/lv_btnm.c ****             /*In navigation mode don't select any button but in edit mode select the fist*/
 881:..\..\..\lvgl\version_6.1.2\lvgl\src\lv_objx/lv_btnm.c ****             if(lv_group_get_editing(lv_obj_get_group(btnm)))
 882:..\..\..\lvgl\version_6.1.2\lvgl\src\lv_objx/lv_btnm.c ****                 ext->btn_id_pr = 0;
 883:..\..\..\lvgl\version_6.1.2\lvgl\src\lv_objx/lv_btnm.c ****             else
 884:..\..\..\lvgl\version_6.1.2\lvgl\src\lv_objx/lv_btnm.c ****                 ext->btn_id_pr = LV_BTNM_BTN_NONE;
 885:..\..\..\lvgl\version_6.1.2\lvgl\src\lv_objx/lv_btnm.c ****         } else {
 886:..\..\..\lvgl\version_6.1.2\lvgl\src\lv_objx/lv_btnm.c ****             ext->btn_id_pr = 0;
 887:..\..\..\lvgl\version_6.1.2\lvgl\src\lv_objx/lv_btnm.c ****         }
 888:..\..\..\lvgl\version_6.1.2\lvgl\src\lv_objx/lv_btnm.c **** #else
 889:..\..\..\lvgl\version_6.1.2\lvgl\src\lv_objx/lv_btnm.c ****         ext->btn_id_pr = 0;
 890:..\..\..\lvgl\version_6.1.2\lvgl\src\lv_objx/lv_btnm.c **** #endif
 891:..\..\..\lvgl\version_6.1.2\lvgl\src\lv_objx/lv_btnm.c **** 
 892:..\..\..\lvgl\version_6.1.2\lvgl\src\lv_objx/lv_btnm.c ****         ext->btn_id_act = ext->btn_id_pr;
 893:..\..\..\lvgl\version_6.1.2\lvgl\src\lv_objx/lv_btnm.c ****         lv_obj_invalidate(btnm);
 894:..\..\..\lvgl\version_6.1.2\lvgl\src\lv_objx/lv_btnm.c ****     } else if(sign == LV_SIGNAL_CONTROL) {
 895:..\..\..\lvgl\version_6.1.2\lvgl\src\lv_objx/lv_btnm.c ****         char c = *((char *)param);
 896:..\..\..\lvgl\version_6.1.2\lvgl\src\lv_objx/lv_btnm.c ****         if(c == LV_KEY_RIGHT) {
 897:..\..\..\lvgl\version_6.1.2\lvgl\src\lv_objx/lv_btnm.c ****             if(ext->btn_id_pr == LV_BTNM_BTN_NONE)
 898:..\..\..\lvgl\version_6.1.2\lvgl\src\lv_objx/lv_btnm.c ****                 ext->btn_id_pr = 0;
 899:..\..\..\lvgl\version_6.1.2\lvgl\src\lv_objx/lv_btnm.c ****             else
 900:..\..\..\lvgl\version_6.1.2\lvgl\src\lv_objx/lv_btnm.c ****                 ext->btn_id_pr++;
 901:..\..\..\lvgl\version_6.1.2\lvgl\src\lv_objx/lv_btnm.c ****             if(ext->btn_id_pr >= ext->btn_cnt - 1) ext->btn_id_pr = ext->btn_cnt - 1;
 902:..\..\..\lvgl\version_6.1.2\lvgl\src\lv_objx/lv_btnm.c ****             ext->btn_id_act = ext->btn_id_pr;
 903:..\..\..\lvgl\version_6.1.2\lvgl\src\lv_objx/lv_btnm.c ****             lv_obj_invalidate(btnm);
 904:..\..\..\lvgl\version_6.1.2\lvgl\src\lv_objx/lv_btnm.c ****         } else if(c == LV_KEY_LEFT) {
 905:..\..\..\lvgl\version_6.1.2\lvgl\src\lv_objx/lv_btnm.c ****             if(ext->btn_id_pr == LV_BTNM_BTN_NONE) ext->btn_id_pr = 0;
 906:..\..\..\lvgl\version_6.1.2\lvgl\src\lv_objx/lv_btnm.c ****             if(ext->btn_id_pr > 0) ext->btn_id_pr--;
 907:..\..\..\lvgl\version_6.1.2\lvgl\src\lv_objx/lv_btnm.c ****             ext->btn_id_act = ext->btn_id_pr;
 908:..\..\..\lvgl\version_6.1.2\lvgl\src\lv_objx/lv_btnm.c ****             lv_obj_invalidate(btnm);
 909:..\..\..\lvgl\version_6.1.2\lvgl\src\lv_objx/lv_btnm.c ****         } else if(c == LV_KEY_DOWN) {
 910:..\..\..\lvgl\version_6.1.2\lvgl\src\lv_objx/lv_btnm.c ****             const lv_style_t * style = lv_btnm_get_style(btnm, LV_BTNM_STYLE_BG);
 911:..\..\..\lvgl\version_6.1.2\lvgl\src\lv_objx/lv_btnm.c ****             /*Find the area below the the current*/
 912:..\..\..\lvgl\version_6.1.2\lvgl\src\lv_objx/lv_btnm.c ****             if(ext->btn_id_pr == LV_BTNM_BTN_NONE) {
 913:..\..\..\lvgl\version_6.1.2\lvgl\src\lv_objx/lv_btnm.c ****                 ext->btn_id_pr = 0;
 914:..\..\..\lvgl\version_6.1.2\lvgl\src\lv_objx/lv_btnm.c ****             } else {
 915:..\..\..\lvgl\version_6.1.2\lvgl\src\lv_objx/lv_btnm.c ****                 uint16_t area_below;
 916:..\..\..\lvgl\version_6.1.2\lvgl\src\lv_objx/lv_btnm.c ****                 lv_coord_t pr_center =
 917:..\..\..\lvgl\version_6.1.2\lvgl\src\lv_objx/lv_btnm.c ****                     ext->button_areas[ext->btn_id_pr].x1 + (lv_area_get_width(&ext->button_areas[ex
 918:..\..\..\lvgl\version_6.1.2\lvgl\src\lv_objx/lv_btnm.c **** 
 919:..\..\..\lvgl\version_6.1.2\lvgl\src\lv_objx/lv_btnm.c ****                 for(area_below = ext->btn_id_pr; area_below < ext->btn_cnt; area_below++) {
 920:..\..\..\lvgl\version_6.1.2\lvgl\src\lv_objx/lv_btnm.c ****                     if(ext->button_areas[area_below].y1 > ext->button_areas[ext->btn_id_pr].y1 &&
 921:..\..\..\lvgl\version_6.1.2\lvgl\src\lv_objx/lv_btnm.c ****                        pr_center >= ext->button_areas[area_below].x1 &&
 922:..\..\..\lvgl\version_6.1.2\lvgl\src\lv_objx/lv_btnm.c ****                        pr_center <= ext->button_areas[area_below].x2 + style->body.padding.inner) {
 923:..\..\..\lvgl\version_6.1.2\lvgl\src\lv_objx/lv_btnm.c ****                         break;
 924:..\..\..\lvgl\version_6.1.2\lvgl\src\lv_objx/lv_btnm.c ****                     }
 925:..\..\..\lvgl\version_6.1.2\lvgl\src\lv_objx/lv_btnm.c ****                 }
 926:..\..\..\lvgl\version_6.1.2\lvgl\src\lv_objx/lv_btnm.c **** 
 927:..\..\..\lvgl\version_6.1.2\lvgl\src\lv_objx/lv_btnm.c ****                 if(area_below < ext->btn_cnt) ext->btn_id_pr = area_below;
 928:..\..\..\lvgl\version_6.1.2\lvgl\src\lv_objx/lv_btnm.c ****             }
 929:..\..\..\lvgl\version_6.1.2\lvgl\src\lv_objx/lv_btnm.c ****             ext->btn_id_act = ext->btn_id_pr;
ARM GAS  C:\Users\pearlstl\AppData\Local\Temp\ccUkXBYk.s 			page 31


 930:..\..\..\lvgl\version_6.1.2\lvgl\src\lv_objx/lv_btnm.c ****             lv_obj_invalidate(btnm);
 931:..\..\..\lvgl\version_6.1.2\lvgl\src\lv_objx/lv_btnm.c ****         } else if(c == LV_KEY_UP) {
 932:..\..\..\lvgl\version_6.1.2\lvgl\src\lv_objx/lv_btnm.c ****             const lv_style_t * style = lv_btnm_get_style(btnm, LV_BTNM_STYLE_BG);
 933:..\..\..\lvgl\version_6.1.2\lvgl\src\lv_objx/lv_btnm.c ****             /*Find the area below the the current*/
 934:..\..\..\lvgl\version_6.1.2\lvgl\src\lv_objx/lv_btnm.c ****             if(ext->btn_id_pr == LV_BTNM_BTN_NONE) {
 935:..\..\..\lvgl\version_6.1.2\lvgl\src\lv_objx/lv_btnm.c ****                 ext->btn_id_pr = 0;
 936:..\..\..\lvgl\version_6.1.2\lvgl\src\lv_objx/lv_btnm.c ****             } else {
 937:..\..\..\lvgl\version_6.1.2\lvgl\src\lv_objx/lv_btnm.c ****                 int16_t area_above;
 938:..\..\..\lvgl\version_6.1.2\lvgl\src\lv_objx/lv_btnm.c ****                 lv_coord_t pr_center =
 939:..\..\..\lvgl\version_6.1.2\lvgl\src\lv_objx/lv_btnm.c ****                     ext->button_areas[ext->btn_id_pr].x1 + (lv_area_get_width(&ext->button_areas[ex
 940:..\..\..\lvgl\version_6.1.2\lvgl\src\lv_objx/lv_btnm.c **** 
 941:..\..\..\lvgl\version_6.1.2\lvgl\src\lv_objx/lv_btnm.c ****                 for(area_above = ext->btn_id_pr; area_above >= 0; area_above--) {
 942:..\..\..\lvgl\version_6.1.2\lvgl\src\lv_objx/lv_btnm.c ****                     if(ext->button_areas[area_above].y1 < ext->button_areas[ext->btn_id_pr].y1 &&
 943:..\..\..\lvgl\version_6.1.2\lvgl\src\lv_objx/lv_btnm.c ****                        pr_center >= ext->button_areas[area_above].x1 - style->body.padding.inner &&
 944:..\..\..\lvgl\version_6.1.2\lvgl\src\lv_objx/lv_btnm.c ****                        pr_center <= ext->button_areas[area_above].x2) {
 945:..\..\..\lvgl\version_6.1.2\lvgl\src\lv_objx/lv_btnm.c ****                         break;
 946:..\..\..\lvgl\version_6.1.2\lvgl\src\lv_objx/lv_btnm.c ****                     }
 947:..\..\..\lvgl\version_6.1.2\lvgl\src\lv_objx/lv_btnm.c ****                 }
 948:..\..\..\lvgl\version_6.1.2\lvgl\src\lv_objx/lv_btnm.c ****                 if(area_above >= 0) ext->btn_id_pr = area_above;
 949:..\..\..\lvgl\version_6.1.2\lvgl\src\lv_objx/lv_btnm.c ****             }
 950:..\..\..\lvgl\version_6.1.2\lvgl\src\lv_objx/lv_btnm.c ****             ext->btn_id_act = ext->btn_id_pr;
 951:..\..\..\lvgl\version_6.1.2\lvgl\src\lv_objx/lv_btnm.c ****             lv_obj_invalidate(btnm);
 952:..\..\..\lvgl\version_6.1.2\lvgl\src\lv_objx/lv_btnm.c ****         }
 953:..\..\..\lvgl\version_6.1.2\lvgl\src\lv_objx/lv_btnm.c ****     } else if(sign == LV_SIGNAL_GET_EDITABLE) {
 954:..\..\..\lvgl\version_6.1.2\lvgl\src\lv_objx/lv_btnm.c ****         bool * editable = (bool *)param;
 955:..\..\..\lvgl\version_6.1.2\lvgl\src\lv_objx/lv_btnm.c ****         *editable       = true;
 956:..\..\..\lvgl\version_6.1.2\lvgl\src\lv_objx/lv_btnm.c ****     }
 957:..\..\..\lvgl\version_6.1.2\lvgl\src\lv_objx/lv_btnm.c ****     return res;
 958:..\..\..\lvgl\version_6.1.2\lvgl\src\lv_objx/lv_btnm.c **** }
 959:..\..\..\lvgl\version_6.1.2\lvgl\src\lv_objx/lv_btnm.c **** 
 960:..\..\..\lvgl\version_6.1.2\lvgl\src\lv_objx/lv_btnm.c **** /**
 961:..\..\..\lvgl\version_6.1.2\lvgl\src\lv_objx/lv_btnm.c ****  * Create the required number of buttons and control bytes according to a map
 962:..\..\..\lvgl\version_6.1.2\lvgl\src\lv_objx/lv_btnm.c ****  * @param btnm pointer to button matrix object
 963:..\..\..\lvgl\version_6.1.2\lvgl\src\lv_objx/lv_btnm.c ****  * @param map_p pointer to a string array
 964:..\..\..\lvgl\version_6.1.2\lvgl\src\lv_objx/lv_btnm.c ****  */
 965:..\..\..\lvgl\version_6.1.2\lvgl\src\lv_objx/lv_btnm.c **** static void allocate_btn_areas_and_controls(const lv_obj_t * btnm, const char ** map)
 966:..\..\..\lvgl\version_6.1.2\lvgl\src\lv_objx/lv_btnm.c **** {
 967:..\..\..\lvgl\version_6.1.2\lvgl\src\lv_objx/lv_btnm.c ****     /*Count the buttons in the map*/
 968:..\..\..\lvgl\version_6.1.2\lvgl\src\lv_objx/lv_btnm.c ****     uint16_t btn_cnt = 0;
 969:..\..\..\lvgl\version_6.1.2\lvgl\src\lv_objx/lv_btnm.c ****     uint16_t i       = 0;
 970:..\..\..\lvgl\version_6.1.2\lvgl\src\lv_objx/lv_btnm.c ****     while(strlen(map[i]) != 0) {
 971:..\..\..\lvgl\version_6.1.2\lvgl\src\lv_objx/lv_btnm.c ****         if(strcmp(map[i], "\n") != 0) { /*Do not count line breaks*/
 972:..\..\..\lvgl\version_6.1.2\lvgl\src\lv_objx/lv_btnm.c ****             btn_cnt++;
 973:..\..\..\lvgl\version_6.1.2\lvgl\src\lv_objx/lv_btnm.c ****         }
 974:..\..\..\lvgl\version_6.1.2\lvgl\src\lv_objx/lv_btnm.c ****         i++;
 975:..\..\..\lvgl\version_6.1.2\lvgl\src\lv_objx/lv_btnm.c ****     }
 976:..\..\..\lvgl\version_6.1.2\lvgl\src\lv_objx/lv_btnm.c **** 
 977:..\..\..\lvgl\version_6.1.2\lvgl\src\lv_objx/lv_btnm.c ****     lv_btnm_ext_t * ext = lv_obj_get_ext_attr(btnm);
 978:..\..\..\lvgl\version_6.1.2\lvgl\src\lv_objx/lv_btnm.c **** 
 979:..\..\..\lvgl\version_6.1.2\lvgl\src\lv_objx/lv_btnm.c ****     if(ext->button_areas != NULL) {
 980:..\..\..\lvgl\version_6.1.2\lvgl\src\lv_objx/lv_btnm.c ****         lv_mem_free(ext->button_areas);
 981:..\..\..\lvgl\version_6.1.2\lvgl\src\lv_objx/lv_btnm.c ****         ext->button_areas = NULL;
 982:..\..\..\lvgl\version_6.1.2\lvgl\src\lv_objx/lv_btnm.c ****     }
 983:..\..\..\lvgl\version_6.1.2\lvgl\src\lv_objx/lv_btnm.c ****     if(ext->ctrl_bits != NULL) {
 984:..\..\..\lvgl\version_6.1.2\lvgl\src\lv_objx/lv_btnm.c ****         lv_mem_free(ext->ctrl_bits);
 985:..\..\..\lvgl\version_6.1.2\lvgl\src\lv_objx/lv_btnm.c ****         ext->ctrl_bits = NULL;
 986:..\..\..\lvgl\version_6.1.2\lvgl\src\lv_objx/lv_btnm.c ****     }
ARM GAS  C:\Users\pearlstl\AppData\Local\Temp\ccUkXBYk.s 			page 32


 987:..\..\..\lvgl\version_6.1.2\lvgl\src\lv_objx/lv_btnm.c **** 
 988:..\..\..\lvgl\version_6.1.2\lvgl\src\lv_objx/lv_btnm.c ****     ext->button_areas = lv_mem_alloc(sizeof(lv_area_t) * btn_cnt);
 989:..\..\..\lvgl\version_6.1.2\lvgl\src\lv_objx/lv_btnm.c ****     LV_ASSERT_MEM(ext->button_areas);
 990:..\..\..\lvgl\version_6.1.2\lvgl\src\lv_objx/lv_btnm.c ****     ext->ctrl_bits = lv_mem_alloc(sizeof(lv_btnm_ctrl_t) * btn_cnt);
 991:..\..\..\lvgl\version_6.1.2\lvgl\src\lv_objx/lv_btnm.c ****     LV_ASSERT_MEM(ext->ctrl_bits);
 992:..\..\..\lvgl\version_6.1.2\lvgl\src\lv_objx/lv_btnm.c ****     if(ext->button_areas == NULL || ext->ctrl_bits == NULL) btn_cnt = 0;
 993:..\..\..\lvgl\version_6.1.2\lvgl\src\lv_objx/lv_btnm.c **** 
 994:..\..\..\lvgl\version_6.1.2\lvgl\src\lv_objx/lv_btnm.c ****     memset(ext->ctrl_bits, 0, sizeof(lv_btnm_ctrl_t) * btn_cnt);
 995:..\..\..\lvgl\version_6.1.2\lvgl\src\lv_objx/lv_btnm.c **** 
 996:..\..\..\lvgl\version_6.1.2\lvgl\src\lv_objx/lv_btnm.c ****     ext->btn_cnt = btn_cnt;
 997:..\..\..\lvgl\version_6.1.2\lvgl\src\lv_objx/lv_btnm.c **** }
 998:..\..\..\lvgl\version_6.1.2\lvgl\src\lv_objx/lv_btnm.c **** 
 999:..\..\..\lvgl\version_6.1.2\lvgl\src\lv_objx/lv_btnm.c **** /**
1000:..\..\..\lvgl\version_6.1.2\lvgl\src\lv_objx/lv_btnm.c ****  * Get the width of a button in units (default is 1).
1001:..\..\..\lvgl\version_6.1.2\lvgl\src\lv_objx/lv_btnm.c ****  * @param ctrl_bits least significant 3 bits used (1..7 valid values)
1002:..\..\..\lvgl\version_6.1.2\lvgl\src\lv_objx/lv_btnm.c ****  * @return the width of the button in units
1003:..\..\..\lvgl\version_6.1.2\lvgl\src\lv_objx/lv_btnm.c ****  */
1004:..\..\..\lvgl\version_6.1.2\lvgl\src\lv_objx/lv_btnm.c **** static uint8_t get_button_width(lv_btnm_ctrl_t ctrl_bits)
1005:..\..\..\lvgl\version_6.1.2\lvgl\src\lv_objx/lv_btnm.c **** {
1006:..\..\..\lvgl\version_6.1.2\lvgl\src\lv_objx/lv_btnm.c ****     uint8_t w = ctrl_bits & LV_BTNM_WIDTH_MASK;
1007:..\..\..\lvgl\version_6.1.2\lvgl\src\lv_objx/lv_btnm.c ****     return w != 0 ? w : 1;
1008:..\..\..\lvgl\version_6.1.2\lvgl\src\lv_objx/lv_btnm.c **** }
1009:..\..\..\lvgl\version_6.1.2\lvgl\src\lv_objx/lv_btnm.c **** 
1010:..\..\..\lvgl\version_6.1.2\lvgl\src\lv_objx/lv_btnm.c **** static bool button_is_hidden(lv_btnm_ctrl_t ctrl_bits)
1011:..\..\..\lvgl\version_6.1.2\lvgl\src\lv_objx/lv_btnm.c **** {
1012:..\..\..\lvgl\version_6.1.2\lvgl\src\lv_objx/lv_btnm.c ****     return ctrl_bits & LV_BTNM_CTRL_HIDDEN ? true : false;
1013:..\..\..\lvgl\version_6.1.2\lvgl\src\lv_objx/lv_btnm.c **** }
1014:..\..\..\lvgl\version_6.1.2\lvgl\src\lv_objx/lv_btnm.c **** 
1015:..\..\..\lvgl\version_6.1.2\lvgl\src\lv_objx/lv_btnm.c **** static bool button_is_repeat_disabled(lv_btnm_ctrl_t ctrl_bits)
1016:..\..\..\lvgl\version_6.1.2\lvgl\src\lv_objx/lv_btnm.c **** {
1017:..\..\..\lvgl\version_6.1.2\lvgl\src\lv_objx/lv_btnm.c ****     return ctrl_bits & LV_BTNM_CTRL_NO_REPEAT ? true : false;
1018:..\..\..\lvgl\version_6.1.2\lvgl\src\lv_objx/lv_btnm.c **** }
1019:..\..\..\lvgl\version_6.1.2\lvgl\src\lv_objx/lv_btnm.c **** 
1020:..\..\..\lvgl\version_6.1.2\lvgl\src\lv_objx/lv_btnm.c **** static bool button_is_inactive(lv_btnm_ctrl_t ctrl_bits)
1021:..\..\..\lvgl\version_6.1.2\lvgl\src\lv_objx/lv_btnm.c **** {
1022:..\..\..\lvgl\version_6.1.2\lvgl\src\lv_objx/lv_btnm.c ****     return ctrl_bits & LV_BTNM_CTRL_INACTIVE ? true : false;
1023:..\..\..\lvgl\version_6.1.2\lvgl\src\lv_objx/lv_btnm.c **** }
1024:..\..\..\lvgl\version_6.1.2\lvgl\src\lv_objx/lv_btnm.c **** 
1025:..\..\..\lvgl\version_6.1.2\lvgl\src\lv_objx/lv_btnm.c **** static bool button_is_click_trig(lv_btnm_ctrl_t ctrl_bits)
1026:..\..\..\lvgl\version_6.1.2\lvgl\src\lv_objx/lv_btnm.c **** {
1027:..\..\..\lvgl\version_6.1.2\lvgl\src\lv_objx/lv_btnm.c ****     return ctrl_bits & LV_BTNM_CTRL_CLICK_TRIG ? true : false;
1028:..\..\..\lvgl\version_6.1.2\lvgl\src\lv_objx/lv_btnm.c **** }
1029:..\..\..\lvgl\version_6.1.2\lvgl\src\lv_objx/lv_btnm.c **** 
1030:..\..\..\lvgl\version_6.1.2\lvgl\src\lv_objx/lv_btnm.c **** static bool button_is_tgl_enabled(lv_btnm_ctrl_t ctrl_bits)
1031:..\..\..\lvgl\version_6.1.2\lvgl\src\lv_objx/lv_btnm.c **** {
1032:..\..\..\lvgl\version_6.1.2\lvgl\src\lv_objx/lv_btnm.c ****     return ctrl_bits & LV_BTNM_CTRL_TGL_ENABLE ? true : false;
1033:..\..\..\lvgl\version_6.1.2\lvgl\src\lv_objx/lv_btnm.c **** }
1034:..\..\..\lvgl\version_6.1.2\lvgl\src\lv_objx/lv_btnm.c **** 
1035:..\..\..\lvgl\version_6.1.2\lvgl\src\lv_objx/lv_btnm.c **** static bool button_get_tgl_state(lv_btnm_ctrl_t ctrl_bits)
1036:..\..\..\lvgl\version_6.1.2\lvgl\src\lv_objx/lv_btnm.c **** {
1037:..\..\..\lvgl\version_6.1.2\lvgl\src\lv_objx/lv_btnm.c ****     return ctrl_bits & LV_BTNM_CTRL_TGL_STATE ? true : false;
1038:..\..\..\lvgl\version_6.1.2\lvgl\src\lv_objx/lv_btnm.c **** }
1039:..\..\..\lvgl\version_6.1.2\lvgl\src\lv_objx/lv_btnm.c **** 
1040:..\..\..\lvgl\version_6.1.2\lvgl\src\lv_objx/lv_btnm.c **** /**
1041:..\..\..\lvgl\version_6.1.2\lvgl\src\lv_objx/lv_btnm.c ****  * Gives the button id of a button under a given point
1042:..\..\..\lvgl\version_6.1.2\lvgl\src\lv_objx/lv_btnm.c ****  * @param btnm pointer to a button matrix object
1043:..\..\..\lvgl\version_6.1.2\lvgl\src\lv_objx/lv_btnm.c ****  * @param p a point with absolute coordinates
ARM GAS  C:\Users\pearlstl\AppData\Local\Temp\ccUkXBYk.s 			page 33


1044:..\..\..\lvgl\version_6.1.2\lvgl\src\lv_objx/lv_btnm.c ****  * @return the id of the button or LV_BTNM_BTN_NONE.
1045:..\..\..\lvgl\version_6.1.2\lvgl\src\lv_objx/lv_btnm.c ****  */
1046:..\..\..\lvgl\version_6.1.2\lvgl\src\lv_objx/lv_btnm.c **** static uint16_t get_button_from_point(lv_obj_t * btnm, lv_point_t * p)
1047:..\..\..\lvgl\version_6.1.2\lvgl\src\lv_objx/lv_btnm.c **** {
1048:..\..\..\lvgl\version_6.1.2\lvgl\src\lv_objx/lv_btnm.c ****     lv_area_t btnm_cords;
1049:..\..\..\lvgl\version_6.1.2\lvgl\src\lv_objx/lv_btnm.c ****     lv_area_t btn_area;
1050:..\..\..\lvgl\version_6.1.2\lvgl\src\lv_objx/lv_btnm.c ****     lv_btnm_ext_t * ext = lv_obj_get_ext_attr(btnm);
1051:..\..\..\lvgl\version_6.1.2\lvgl\src\lv_objx/lv_btnm.c ****     uint16_t i;
1052:..\..\..\lvgl\version_6.1.2\lvgl\src\lv_objx/lv_btnm.c ****     lv_obj_get_coords(btnm, &btnm_cords);
1053:..\..\..\lvgl\version_6.1.2\lvgl\src\lv_objx/lv_btnm.c **** 
1054:..\..\..\lvgl\version_6.1.2\lvgl\src\lv_objx/lv_btnm.c ****     for(i = 0; i < ext->btn_cnt; i++) {
1055:..\..\..\lvgl\version_6.1.2\lvgl\src\lv_objx/lv_btnm.c ****         lv_area_copy(&btn_area, &ext->button_areas[i]);
1056:..\..\..\lvgl\version_6.1.2\lvgl\src\lv_objx/lv_btnm.c ****         btn_area.x1 += btnm_cords.x1;
1057:..\..\..\lvgl\version_6.1.2\lvgl\src\lv_objx/lv_btnm.c ****         btn_area.y1 += btnm_cords.y1;
1058:..\..\..\lvgl\version_6.1.2\lvgl\src\lv_objx/lv_btnm.c ****         btn_area.x2 += btnm_cords.x1;
1059:..\..\..\lvgl\version_6.1.2\lvgl\src\lv_objx/lv_btnm.c ****         btn_area.y2 += btnm_cords.y1;
1060:..\..\..\lvgl\version_6.1.2\lvgl\src\lv_objx/lv_btnm.c ****         if(lv_area_is_point_on(&btn_area, p) != false) {
1061:..\..\..\lvgl\version_6.1.2\lvgl\src\lv_objx/lv_btnm.c ****             break;
1062:..\..\..\lvgl\version_6.1.2\lvgl\src\lv_objx/lv_btnm.c ****         }
1063:..\..\..\lvgl\version_6.1.2\lvgl\src\lv_objx/lv_btnm.c ****     }
1064:..\..\..\lvgl\version_6.1.2\lvgl\src\lv_objx/lv_btnm.c **** 
1065:..\..\..\lvgl\version_6.1.2\lvgl\src\lv_objx/lv_btnm.c ****     if(i == ext->btn_cnt) i = LV_BTNM_BTN_NONE;
1066:..\..\..\lvgl\version_6.1.2\lvgl\src\lv_objx/lv_btnm.c **** 
1067:..\..\..\lvgl\version_6.1.2\lvgl\src\lv_objx/lv_btnm.c ****     return i;
1068:..\..\..\lvgl\version_6.1.2\lvgl\src\lv_objx/lv_btnm.c **** }
1069:..\..\..\lvgl\version_6.1.2\lvgl\src\lv_objx/lv_btnm.c **** 
1070:..\..\..\lvgl\version_6.1.2\lvgl\src\lv_objx/lv_btnm.c **** static void invalidate_button_area(const lv_obj_t * btnm, uint16_t btn_idx)
1071:..\..\..\lvgl\version_6.1.2\lvgl\src\lv_objx/lv_btnm.c **** {
1072:..\..\..\lvgl\version_6.1.2\lvgl\src\lv_objx/lv_btnm.c ****     if(btn_idx == LV_BTNM_BTN_NONE) return;
1073:..\..\..\lvgl\version_6.1.2\lvgl\src\lv_objx/lv_btnm.c **** 
1074:..\..\..\lvgl\version_6.1.2\lvgl\src\lv_objx/lv_btnm.c ****     lv_area_t btn_area;
1075:..\..\..\lvgl\version_6.1.2\lvgl\src\lv_objx/lv_btnm.c ****     lv_area_t btnm_area;
1076:..\..\..\lvgl\version_6.1.2\lvgl\src\lv_objx/lv_btnm.c **** 
1077:..\..\..\lvgl\version_6.1.2\lvgl\src\lv_objx/lv_btnm.c ****     lv_btnm_ext_t * ext = lv_obj_get_ext_attr(btnm);
1078:..\..\..\lvgl\version_6.1.2\lvgl\src\lv_objx/lv_btnm.c ****     lv_area_copy(&btn_area, &ext->button_areas[btn_idx]);
1079:..\..\..\lvgl\version_6.1.2\lvgl\src\lv_objx/lv_btnm.c ****     lv_obj_get_coords(btnm, &btnm_area);
1080:..\..\..\lvgl\version_6.1.2\lvgl\src\lv_objx/lv_btnm.c **** 
1081:..\..\..\lvgl\version_6.1.2\lvgl\src\lv_objx/lv_btnm.c ****     /* Convert relative coordinates to absolute */
1082:..\..\..\lvgl\version_6.1.2\lvgl\src\lv_objx/lv_btnm.c ****     btn_area.x1 += btnm_area.x1;
1083:..\..\..\lvgl\version_6.1.2\lvgl\src\lv_objx/lv_btnm.c ****     btn_area.y1 += btnm_area.y1;
1084:..\..\..\lvgl\version_6.1.2\lvgl\src\lv_objx/lv_btnm.c ****     btn_area.x2 += btnm_area.x1;
1085:..\..\..\lvgl\version_6.1.2\lvgl\src\lv_objx/lv_btnm.c ****     btn_area.y2 += btnm_area.y1;
1086:..\..\..\lvgl\version_6.1.2\lvgl\src\lv_objx/lv_btnm.c **** 
1087:..\..\..\lvgl\version_6.1.2\lvgl\src\lv_objx/lv_btnm.c ****     lv_obj_invalidate_area(btnm, &btn_area);
1088:..\..\..\lvgl\version_6.1.2\lvgl\src\lv_objx/lv_btnm.c **** }
1089:..\..\..\lvgl\version_6.1.2\lvgl\src\lv_objx/lv_btnm.c **** 
1090:..\..\..\lvgl\version_6.1.2\lvgl\src\lv_objx/lv_btnm.c **** /**
1091:..\..\..\lvgl\version_6.1.2\lvgl\src\lv_objx/lv_btnm.c ****  * Compares two button matrix maps for equality
1092:..\..\..\lvgl\version_6.1.2\lvgl\src\lv_objx/lv_btnm.c ****  * @param map1 map to compare
1093:..\..\..\lvgl\version_6.1.2\lvgl\src\lv_objx/lv_btnm.c ****  * @param map2 map to compare
1094:..\..\..\lvgl\version_6.1.2\lvgl\src\lv_objx/lv_btnm.c ****  * @return true if maps are identical in length and content
1095:..\..\..\lvgl\version_6.1.2\lvgl\src\lv_objx/lv_btnm.c ****  */
1096:..\..\..\lvgl\version_6.1.2\lvgl\src\lv_objx/lv_btnm.c **** static bool maps_are_identical(const char ** map1, const char ** map2)
1097:..\..\..\lvgl\version_6.1.2\lvgl\src\lv_objx/lv_btnm.c **** {
1098:..\..\..\lvgl\version_6.1.2\lvgl\src\lv_objx/lv_btnm.c ****     if(map1 == map2) return true;
 586              		.loc 1 1098 0
 587 0010 5E45     		cmp	r6, fp
ARM GAS  C:\Users\pearlstl\AppData\Local\Temp\ccUkXBYk.s 			page 34


 588              	.LBE221:
 589              	.LBE220:
 161:..\..\..\lvgl\version_6.1.2\lvgl\src\lv_objx/lv_btnm.c ****     if(!maps_are_identical(ext->map_p, map)) {
 590              		.loc 1 161 0
 591 0012 8246     		mov	r10, r0
 592              	.LVL65:
 593              	.LBB225:
 594              	.LBB222:
 595              		.loc 1 1098 0
 596 0014 5BD0     		beq	.L42
1099:..\..\..\lvgl\version_6.1.2\lvgl\src\lv_objx/lv_btnm.c ****     if(map1 == NULL || map2 == NULL) return map1 == map2;
 597              		.loc 1 1099 0
 598 0016 002E     		cmp	r6, #0
 599 0018 00F09281 		beq	.L108
 600 001c BBF1000F 		cmp	fp, #0
 601 0020 00F08E81 		beq	.L108
 602              	.LVL66:
1100:..\..\..\lvgl\version_6.1.2\lvgl\src\lv_objx/lv_btnm.c **** 
1101:..\..\..\lvgl\version_6.1.2\lvgl\src\lv_objx/lv_btnm.c ****     uint16_t i = 0;
1102:..\..\..\lvgl\version_6.1.2\lvgl\src\lv_objx/lv_btnm.c ****     while(map1[i][0] != '\0' && map2[i][0] != '\0') {
 603              		.loc 1 1102 0
 604 0024 3068     		ldr	r0, [r6]
 605              	.LVL67:
 606 0026 0278     		ldrb	r2, [r0]	@ zero_extendqisi2
 607 0028 002A     		cmp	r2, #0
 608 002a 00F08381 		beq	.L48
 609 002e DBF80050 		ldr	r5, [fp]
 610 0032 2C78     		ldrb	r4, [r5]	@ zero_extendqisi2
 611 0034 002C     		cmp	r4, #0
 612 0036 00F08981 		beq	.L77
 613 003a 2946     		mov	r1, r5
 614 003c 0024     		movs	r4, #0
 615 003e 0AE0     		b	.L49
 616              	.LVL68:
 617              	.L110:
 618 0040 56F82400 		ldr	r0, [r6, r4, lsl #2]
 619 0044 0378     		ldrb	r3, [r0]	@ zero_extendqisi2
 620 0046 A200     		lsls	r2, r4, #2
 621 0048 002B     		cmp	r3, #0
 622 004a 00F07381 		beq	.L48
 623 004e 5BF82410 		ldr	r1, [fp, r4, lsl #2]
 624 0052 0B78     		ldrb	r3, [r1]	@ zero_extendqisi2
 625 0054 2BB1     		cbz	r3, .L44
 626              	.LVL69:
 627              	.L49:
1103:..\..\..\lvgl\version_6.1.2\lvgl\src\lv_objx/lv_btnm.c ****         if(strcmp(map1[i], map2[i]) != 0) return false;
 628              		.loc 1 1103 0
 629 0056 FFF7FEFF 		bl	strcmp
 630              	.LVL70:
1104:..\..\..\lvgl\version_6.1.2\lvgl\src\lv_objx/lv_btnm.c ****         i++;
 631              		.loc 1 1104 0
 632 005a 0134     		adds	r4, r4, #1
 633              	.LVL71:
 634 005c A4B2     		uxth	r4, r4
 635              	.LVL72:
1103:..\..\..\lvgl\version_6.1.2\lvgl\src\lv_objx/lv_btnm.c ****         if(strcmp(map1[i], map2[i]) != 0) return false;
 636              		.loc 1 1103 0
ARM GAS  C:\Users\pearlstl\AppData\Local\Temp\ccUkXBYk.s 			page 35


 637 005e 0028     		cmp	r0, #0
 638 0060 EED0     		beq	.L110
 639              	.LVL73:
 640              	.L44:
1102:..\..\..\lvgl\version_6.1.2\lvgl\src\lv_objx/lv_btnm.c ****         if(strcmp(map1[i], map2[i]) != 0) return false;
 641              		.loc 1 1102 0
 642 0062 0024     		movs	r4, #0
 643 0064 2646     		mov	r6, r4
 644 0066 2846     		mov	r0, r5
 645              	.LVL74:
 646              	.L51:
 647              	.LBE222:
 648              	.LBE225:
 649              	.LBB226:
 650              	.LBB227:
 971:..\..\..\lvgl\version_6.1.2\lvgl\src\lv_objx/lv_btnm.c ****             btn_cnt++;
 651              		.loc 1 971 0
 652 0068 B149     		ldr	r1, .L115
 653 006a FFF7FEFF 		bl	strcmp
 654              	.LVL75:
 974:..\..\..\lvgl\version_6.1.2\lvgl\src\lv_objx/lv_btnm.c ****     }
 655              		.loc 1 974 0
 656 006e 0134     		adds	r4, r4, #1
 657              	.LVL76:
 658 0070 A4B2     		uxth	r4, r4
 971:..\..\..\lvgl\version_6.1.2\lvgl\src\lv_objx/lv_btnm.c ****             btn_cnt++;
 659              		.loc 1 971 0
 660 0072 08B1     		cbz	r0, .L50
 972:..\..\..\lvgl\version_6.1.2\lvgl\src\lv_objx/lv_btnm.c ****         }
 661              		.loc 1 972 0
 662 0074 0136     		adds	r6, r6, #1
 663              	.LVL77:
 664 0076 B6B2     		uxth	r6, r6
 665              	.LVL78:
 666              	.L50:
 970:..\..\..\lvgl\version_6.1.2\lvgl\src\lv_objx/lv_btnm.c ****         if(strcmp(map[i], "\n") != 0) { /*Do not count line breaks*/
 667              		.loc 1 970 0
 668 0078 5BF82400 		ldr	r0, [fp, r4, lsl #2]
 669 007c 0378     		ldrb	r3, [r0]	@ zero_extendqisi2
 670 007e 002B     		cmp	r3, #0
 671 0080 F2D1     		bne	.L51
 672 0082 F700     		lsls	r7, r6, #3
 673 0084 7400     		lsls	r4, r6, #1
 674              	.LVL79:
 675              	.L45:
 977:..\..\..\lvgl\version_6.1.2\lvgl\src\lv_objx/lv_btnm.c **** 
 676              		.loc 1 977 0
 677 0086 0898     		ldr	r0, [sp, #32]
 678 0088 FFF7FEFF 		bl	lv_obj_get_ext_attr
 679              	.LVL80:
 680 008c 0546     		mov	r5, r0
 681              	.LVL81:
 979:..\..\..\lvgl\version_6.1.2\lvgl\src\lv_objx/lv_btnm.c ****         lv_mem_free(ext->button_areas);
 682              		.loc 1 979 0
 683 008e 4068     		ldr	r0, [r0, #4]
 684              	.LVL82:
 685 0090 18B1     		cbz	r0, .L52
ARM GAS  C:\Users\pearlstl\AppData\Local\Temp\ccUkXBYk.s 			page 36


 980:..\..\..\lvgl\version_6.1.2\lvgl\src\lv_objx/lv_btnm.c ****         ext->button_areas = NULL;
 686              		.loc 1 980 0
 687 0092 FFF7FEFF 		bl	lv_mem_free
 688              	.LVL83:
 981:..\..\..\lvgl\version_6.1.2\lvgl\src\lv_objx/lv_btnm.c ****     }
 689              		.loc 1 981 0
 690 0096 0023     		movs	r3, #0
 691 0098 6B60     		str	r3, [r5, #4]
 692              	.L52:
 983:..\..\..\lvgl\version_6.1.2\lvgl\src\lv_objx/lv_btnm.c ****         lv_mem_free(ext->ctrl_bits);
 693              		.loc 1 983 0
 694 009a A868     		ldr	r0, [r5, #8]
 695 009c 18B1     		cbz	r0, .L53
 984:..\..\..\lvgl\version_6.1.2\lvgl\src\lv_objx/lv_btnm.c ****         ext->ctrl_bits = NULL;
 696              		.loc 1 984 0
 697 009e FFF7FEFF 		bl	lv_mem_free
 698              	.LVL84:
 985:..\..\..\lvgl\version_6.1.2\lvgl\src\lv_objx/lv_btnm.c ****     }
 699              		.loc 1 985 0
 700 00a2 0023     		movs	r3, #0
 701 00a4 AB60     		str	r3, [r5, #8]
 702              	.L53:
 988:..\..\..\lvgl\version_6.1.2\lvgl\src\lv_objx/lv_btnm.c ****     LV_ASSERT_MEM(ext->button_areas);
 703              		.loc 1 988 0
 704 00a6 3846     		mov	r0, r7
 705 00a8 FFF7FEFF 		bl	lv_mem_alloc
 706              	.LVL85:
 707 00ac 6860     		str	r0, [r5, #4]
 990:..\..\..\lvgl\version_6.1.2\lvgl\src\lv_objx/lv_btnm.c ****     LV_ASSERT_MEM(ext->ctrl_bits);
 708              		.loc 1 990 0
 709 00ae 2046     		mov	r0, r4
 710 00b0 FFF7FEFF 		bl	lv_mem_alloc
 711              	.LVL86:
 992:..\..\..\lvgl\version_6.1.2\lvgl\src\lv_objx/lv_btnm.c **** 
 712              		.loc 1 992 0
 713 00b4 6B68     		ldr	r3, [r5, #4]
 990:..\..\..\lvgl\version_6.1.2\lvgl\src\lv_objx/lv_btnm.c ****     LV_ASSERT_MEM(ext->ctrl_bits);
 714              		.loc 1 990 0
 715 00b6 A860     		str	r0, [r5, #8]
 992:..\..\..\lvgl\version_6.1.2\lvgl\src\lv_objx/lv_btnm.c **** 
 716              		.loc 1 992 0
 717 00b8 002B     		cmp	r3, #0
 718 00ba 00F04F81 		beq	.L78
 719 00be 0028     		cmp	r0, #0
 720 00c0 00F04981 		beq	.L111
 721              	.L54:
 722              	.LVL87:
 994:..\..\..\lvgl\version_6.1.2\lvgl\src\lv_objx/lv_btnm.c **** 
 723              		.loc 1 994 0
 724 00c4 2246     		mov	r2, r4
 725 00c6 0021     		movs	r1, #0
 726 00c8 FFF7FEFF 		bl	memset
 727              	.LVL88:
 996:..\..\..\lvgl\version_6.1.2\lvgl\src\lv_objx/lv_btnm.c **** }
 728              		.loc 1 996 0
 729 00cc 2E84     		strh	r6, [r5, #32]	@ movhi
 730              	.LVL89:
ARM GAS  C:\Users\pearlstl\AppData\Local\Temp\ccUkXBYk.s 			page 37


 731              	.L42:
 732              	.LBE227:
 733              	.LBE226:
 734              	.LBB230:
 735              	.LBB231:
 603:..\..\..\lvgl\version_6.1.2\lvgl\src\lv_objx/lv_btnm.c **** 
 736              		.loc 1 603 0
 737 00ce 089D     		ldr	r5, [sp, #32]
 738              	.LBE231:
 739              	.LBE230:
 167:..\..\..\lvgl\version_6.1.2\lvgl\src\lv_objx/lv_btnm.c **** 
 740              		.loc 1 167 0
 741 00d0 CAF800B0 		str	fp, [r10]
 742              	.LVL90:
 743              	.LBB233:
 744              	.LBB232:
 603:..\..\..\lvgl\version_6.1.2\lvgl\src\lv_objx/lv_btnm.c **** 
 745              		.loc 1 603 0
 746 00d4 2846     		mov	r0, r5
 747 00d6 FFF7FEFF 		bl	lv_obj_get_ext_attr
 748              	.LVL91:
 606:..\..\..\lvgl\version_6.1.2\lvgl\src\lv_objx/lv_btnm.c ****         case LV_BTNM_STYLE_BTN_REL: style = ext->styles_btn[LV_BTN_STATE_REL]; break;
 749              		.loc 1 606 0
 750 00da 2846     		mov	r0, r5
 751 00dc FFF7FEFF 		bl	lv_obj_get_style
 752              	.LVL92:
 753 00e0 0446     		mov	r4, r0
 754 00e2 0B90     		str	r0, [sp, #44]
 755              	.LVL93:
 756              	.LBE232:
 757              	.LBE233:
 171:..\..\..\lvgl\version_6.1.2\lvgl\src\lv_objx/lv_btnm.c ****     lv_coord_t max_h            = lv_obj_get_height(btnm) - style_bg->body.padding.top - style_bg->
 758              		.loc 1 171 0
 759 00e4 2846     		mov	r0, r5
 760 00e6 FFF7FEFF 		bl	lv_obj_get_width
 761              	.LVL94:
 762 00ea A28C     		ldrh	r2, [r4, #36]
 763 00ec E38C     		ldrh	r3, [r4, #38]
 764 00ee 801A     		subs	r0, r0, r2
 765 00f0 C31A     		subs	r3, r0, r3
 766 00f2 9BB2     		uxth	r3, r3
 172:..\..\..\lvgl\version_6.1.2\lvgl\src\lv_objx/lv_btnm.c ****     lv_coord_t act_y            = style_bg->body.padding.top;
 767              		.loc 1 172 0
 768 00f4 2846     		mov	r0, r5
 171:..\..\..\lvgl\version_6.1.2\lvgl\src\lv_objx/lv_btnm.c ****     lv_coord_t max_h            = lv_obj_get_height(btnm) - style_bg->body.padding.top - style_bg->
 769              		.loc 1 171 0
 770 00f6 1193     		str	r3, [sp, #68]
 771              	.LVL95:
 172:..\..\..\lvgl\version_6.1.2\lvgl\src\lv_objx/lv_btnm.c ****     lv_coord_t act_y            = style_bg->body.padding.top;
 772              		.loc 1 172 0
 773 00f8 FFF7FEFF 		bl	lv_obj_get_height
 774              	.LVL96:
 775 00fc B4F92030 		ldrsh	r3, [r4, #32]
 776 0100 0393     		str	r3, [sp, #12]
 777 0102 2146     		mov	r1, r4
 778 0104 1C46     		mov	r4, r3
 178:..\..\..\lvgl\version_6.1.2\lvgl\src\lv_objx/lv_btnm.c ****         if(strcmp(map[li], "\n") == 0) line_cnt++;
ARM GAS  C:\Users\pearlstl\AppData\Local\Temp\ccUkXBYk.s 			page 38


 779              		.loc 1 178 0
 780 0106 DBF80030 		ldr	r3, [fp]
 172:..\..\..\lvgl\version_6.1.2\lvgl\src\lv_objx/lv_btnm.c ****     lv_coord_t act_y            = style_bg->body.padding.top;
 781              		.loc 1 172 0
 782 010a 4D8C     		ldrh	r5, [r1, #34]
 178:..\..\..\lvgl\version_6.1.2\lvgl\src\lv_objx/lv_btnm.c ****         if(strcmp(map[li], "\n") == 0) line_cnt++;
 783              		.loc 1 178 0
 784 010c 1A78     		ldrb	r2, [r3]	@ zero_extendqisi2
 172:..\..\..\lvgl\version_6.1.2\lvgl\src\lv_objx/lv_btnm.c ****     lv_coord_t act_y            = style_bg->body.padding.top;
 785              		.loc 1 172 0
 786 010e 001B     		subs	r0, r0, r4
 787 0110 451B     		subs	r5, r0, r5
 788 0112 ADB2     		uxth	r5, r5
 789              	.LVL97:
 178:..\..\..\lvgl\version_6.1.2\lvgl\src\lv_objx/lv_btnm.c ****         if(strcmp(map[li], "\n") == 0) line_cnt++;
 790              		.loc 1 178 0
 791 0114 002A     		cmp	r2, #0
 792 0116 00F01C81 		beq	.L80
 793 011a 0026     		movs	r6, #0
 794 011c 0124     		movs	r4, #1
 795 011e 1846     		mov	r0, r3
 796              	.LVL98:
 797              	.L57:
 179:..\..\..\lvgl\version_6.1.2\lvgl\src\lv_objx/lv_btnm.c ****     }
 798              		.loc 1 179 0
 799 0120 8349     		ldr	r1, .L115
 800 0122 FFF7FEFF 		bl	strcmp
 801              	.LVL99:
 178:..\..\..\lvgl\version_6.1.2\lvgl\src\lv_objx/lv_btnm.c ****         if(strcmp(map[li], "\n") == 0) line_cnt++;
 802              		.loc 1 178 0
 803 0126 0136     		adds	r6, r6, #1
 804              	.LVL100:
 805 0128 F6B2     		uxtb	r6, r6
 179:..\..\..\lvgl\version_6.1.2\lvgl\src\lv_objx/lv_btnm.c ****     }
 806              		.loc 1 179 0
 807 012a 08B9     		cbnz	r0, .L56
 179:..\..\..\lvgl\version_6.1.2\lvgl\src\lv_objx/lv_btnm.c ****     }
 808              		.loc 1 179 0 is_stmt 0 discriminator 1
 809 012c 0134     		adds	r4, r4, #1
 810              	.LVL101:
 811 012e E4B2     		uxtb	r4, r4
 812              	.LVL102:
 813              	.L56:
 178:..\..\..\lvgl\version_6.1.2\lvgl\src\lv_objx/lv_btnm.c ****         if(strcmp(map[li], "\n") == 0) line_cnt++;
 814              		.loc 1 178 0 is_stmt 1 discriminator 2
 815 0130 5BF82600 		ldr	r0, [fp, r6, lsl #2]
 816 0134 0378     		ldrb	r3, [r0]	@ zero_extendqisi2
 817 0136 002B     		cmp	r3, #0
 818 0138 F2D1     		bne	.L57
 819 013a 621E     		subs	r2, r4, #1
 820 013c 92B2     		uxth	r2, r2
 821              	.LVL103:
 822              	.L55:
 184:..\..\..\lvgl\version_6.1.2\lvgl\src\lv_objx/lv_btnm.c **** 
 823              		.loc 1 184 0
 824 013e 0B9B     		ldr	r3, [sp, #44]
 825 0140 1B8D     		ldrh	r3, [r3, #40]
ARM GAS  C:\Users\pearlstl\AppData\Local\Temp\ccUkXBYk.s 			page 39


 826 0142 13FB02F3 		smulbb	r3, r3, r2
 827 0146 EB1A     		subs	r3, r5, r3
 828 0148 1BB2     		sxth	r3, r3
 829 014a 93FBF4F4 		sdiv	r4, r3, r4
 830              	.LVL104:
 831 014e 631E     		subs	r3, r4, #1
 832 0150 1BB2     		sxth	r3, r3
 833 0152 0F93     		str	r3, [sp, #60]
 834              	.LVL105:
 192:..\..\..\lvgl\version_6.1.2\lvgl\src\lv_objx/lv_btnm.c ****     const char ** map_p_tmp = map;
 835              		.loc 1 192 0
 836 0154 4FF00009 		mov	r9, #0
 837              	.LVL106:
 838              	.L75:
 839              	.LBB234:
 200:..\..\..\lvgl\version_6.1.2\lvgl\src\lv_objx/lv_btnm.c ****             unit_cnt += get_button_width(ext->ctrl_bits[btn_i + btn_cnt]);
 840              		.loc 1 200 0
 841 0158 0025     		movs	r5, #0
 197:..\..\..\lvgl\version_6.1.2\lvgl\src\lv_objx/lv_btnm.c ****         btn_cnt  = 0;
 842              		.loc 1 197 0
 843 015a 2C46     		mov	r4, r5
 200:..\..\..\lvgl\version_6.1.2\lvgl\src\lv_objx/lv_btnm.c ****             unit_cnt += get_button_width(ext->ctrl_bits[btn_i + btn_cnt]);
 844              		.loc 1 200 0
 845 015c 0FE0     		b	.L58
 846              	.LVL107:
 847              	.L113:
 200:..\..\..\lvgl\version_6.1.2\lvgl\src\lv_objx/lv_btnm.c ****             unit_cnt += get_button_width(ext->ctrl_bits[btn_i + btn_cnt]);
 848              		.loc 1 200 0 is_stmt 0 discriminator 1
 849 015e 3A78     		ldrb	r2, [r7]	@ zero_extendqisi2
 850 0160 002A     		cmp	r2, #0
 851 0162 00F0CE80 		beq	.L112
 201:..\..\..\lvgl\version_6.1.2\lvgl\src\lv_objx/lv_btnm.c ****             btn_cnt++;
 852              		.loc 1 201 0 is_stmt 1
 853 0166 DAF80820 		ldr	r2, [r10, #8]
 854              	.LBB235:
 855              	.LBB236:
1006:..\..\..\lvgl\version_6.1.2\lvgl\src\lv_objx/lv_btnm.c ****     return w != 0 ? w : 1;
 856              		.loc 1 1006 0
 857 016a 12F81330 		ldrb	r3, [r2, r3, lsl #1]	@ zero_extendqisi2
 858              	.LVL108:
1007:..\..\..\lvgl\version_6.1.2\lvgl\src\lv_objx/lv_btnm.c **** }
 859              		.loc 1 1007 0
 860 016e 13F00702 		ands	r2, r3, #7
 861 0172 14BF     		ite	ne
 862 0174 92B2     		uxthne	r2, r2
 863 0176 0122     		moveq	r2, #1
 864              	.LVL109:
 865              	.LBE236:
 866              	.LBE235:
 201:..\..\..\lvgl\version_6.1.2\lvgl\src\lv_objx/lv_btnm.c ****             btn_cnt++;
 867              		.loc 1 201 0
 868 0178 A318     		adds	r3, r4, r2
 869 017a 9CB2     		uxth	r4, r3
 870              	.LVL110:
 871 017c 0135     		adds	r5, r5, #1
 872              	.LVL111:
 873              	.L58:
ARM GAS  C:\Users\pearlstl\AppData\Local\Temp\ccUkXBYk.s 			page 40


 874 017e AEB2     		uxth	r6, r5
 875              	.LVL112:
 200:..\..\..\lvgl\version_6.1.2\lvgl\src\lv_objx/lv_btnm.c ****             unit_cnt += get_button_width(ext->ctrl_bits[btn_i + btn_cnt]);
 876              		.loc 1 200 0
 877 0180 6B49     		ldr	r1, .L115
 878 0182 5BF82670 		ldr	r7, [fp, r6, lsl #2]
 879 0186 3846     		mov	r0, r7
 880 0188 FFF7FEFF 		bl	strcmp
 881              	.LVL113:
 882 018c 0BEB8608 		add	r8, fp, r6, lsl #2
 201:..\..\..\lvgl\version_6.1.2\lvgl\src\lv_objx/lv_btnm.c ****             btn_cnt++;
 883              		.loc 1 201 0
 884 0190 06EB0903 		add	r3, r6, r9
 200:..\..\..\lvgl\version_6.1.2\lvgl\src\lv_objx/lv_btnm.c ****             unit_cnt += get_button_width(ext->ctrl_bits[btn_i + btn_cnt]);
 885              		.loc 1 200 0
 886 0194 0028     		cmp	r0, #0
 887 0196 E2D1     		bne	.L113
 206:..\..\..\lvgl\version_6.1.2\lvgl\src\lv_objx/lv_btnm.c ****             btn_h = lv_obj_get_height(btnm)- act_y - style_bg->body.padding.bottom - 1;
 888              		.loc 1 206 0
 889 0198 3B78     		ldrb	r3, [r7]	@ zero_extendqisi2
 890 019a CDF82480 		str	r8, [sp, #36]
 891 019e 002B     		cmp	r3, #0
 892 01a0 00F0B180 		beq	.L62
 893 01a4 BDF80C30 		ldrh	r3, [sp, #12]
 894 01a8 0793     		str	r3, [sp, #28]
 895              	.L63:
 210:..\..\..\lvgl\version_6.1.2\lvgl\src\lv_objx/lv_btnm.c **** 
 896              		.loc 1 210 0
 897 01aa 0898     		ldr	r0, [sp, #32]
 898 01ac FFF7FEFF 		bl	lv_obj_get_base_dir
 899              	.LVL114:
 900 01b0 0490     		str	r0, [sp, #16]
 901              	.LVL115:
 213:..\..\..\lvgl\version_6.1.2\lvgl\src\lv_objx/lv_btnm.c ****             /*Calculate the width of all units*/
 902              		.loc 1 213 0
 903 01b2 B6B9     		cbnz	r6, .L64
 904 01b4 BDF83C30 		ldrh	r3, [sp, #60]
 905 01b8 0A93     		str	r3, [sp, #40]
 906              	.LVL116:
 907              	.L65:
 254:..\..\..\lvgl\version_6.1.2\lvgl\src\lv_objx/lv_btnm.c **** 
 908              		.loc 1 254 0
 909 01ba 0B9B     		ldr	r3, [sp, #44]
 910 01bc 0799     		ldr	r1, [sp, #28]
 911 01be 1B8D     		ldrh	r3, [r3, #40]
 256:..\..\..\lvgl\version_6.1.2\lvgl\src\lv_objx/lv_btnm.c ****         map_p_tmp = &map_p_tmp[btn_cnt + 1];       /*Set the map to the next line*/
 912              		.loc 1 256 0
 913 01c0 099A     		ldr	r2, [sp, #36]
 254:..\..\..\lvgl\version_6.1.2\lvgl\src\lv_objx/lv_btnm.c **** 
 914              		.loc 1 254 0
 915 01c2 0133     		adds	r3, r3, #1
 916 01c4 1944     		add	r1, r1, r3
 917 01c6 0B46     		mov	r3, r1
 256:..\..\..\lvgl\version_6.1.2\lvgl\src\lv_objx/lv_btnm.c ****         map_p_tmp = &map_p_tmp[btn_cnt + 1];       /*Set the map to the next line*/
 918              		.loc 1 256 0
 919 01c8 1268     		ldr	r2, [r2]
 254:..\..\..\lvgl\version_6.1.2\lvgl\src\lv_objx/lv_btnm.c **** 
ARM GAS  C:\Users\pearlstl\AppData\Local\Temp\ccUkXBYk.s 			page 41


 920              		.loc 1 254 0
 921 01ca 0A99     		ldr	r1, [sp, #40]
 256:..\..\..\lvgl\version_6.1.2\lvgl\src\lv_objx/lv_btnm.c ****         map_p_tmp = &map_p_tmp[btn_cnt + 1];       /*Set the map to the next line*/
 922              		.loc 1 256 0
 923 01cc 1278     		ldrb	r2, [r2]	@ zero_extendqisi2
 254:..\..\..\lvgl\version_6.1.2\lvgl\src\lv_objx/lv_btnm.c **** 
 924              		.loc 1 254 0
 925 01ce 1944     		add	r1, r1, r3
 926 01d0 0BB2     		sxth	r3, r1
 927 01d2 0393     		str	r3, [sp, #12]
 928              	.LVL117:
 256:..\..\..\lvgl\version_6.1.2\lvgl\src\lv_objx/lv_btnm.c ****         map_p_tmp = &map_p_tmp[btn_cnt + 1];       /*Set the map to the next line*/
 929              		.loc 1 256 0
 930 01d4 002A     		cmp	r2, #0
 931 01d6 00F0A480 		beq	.L74
 257:..\..\..\lvgl\version_6.1.2\lvgl\src\lv_objx/lv_btnm.c ****         i_tot++;                                   /*Skip the '\n'*/
 932              		.loc 1 257 0
 933 01da 0136     		adds	r6, r6, #1
 934              	.LVL118:
 935 01dc 0BEB860B 		add	fp, fp, r6, lsl #2
 936              	.LVL119:
 937              	.LBE234:
 259:..\..\..\lvgl\version_6.1.2\lvgl\src\lv_objx/lv_btnm.c **** 
 938              		.loc 1 259 0
 939 01e0 BAE7     		b	.L75
 940              	.LVL120:
 941              	.L64:
 942              	.LBB242:
 943              	.LBB237:
 215:..\..\..\lvgl\version_6.1.2\lvgl\src\lv_objx/lv_btnm.c **** 
 944              		.loc 1 215 0
 945 01e2 0B9F     		ldr	r7, [sp, #44]
 946 01e4 119D     		ldr	r5, [sp, #68]
 947 01e6 B7F92810 		ldrsh	r1, [r7, #40]
 948              	.LVL121:
 949 01ea BDF83C20 		ldrh	r2, [sp, #60]
 950 01ee 0A92     		str	r2, [sp, #40]
 951 01f0 731E     		subs	r3, r6, #1
 952 01f2 13FB01F3 		smulbb	r3, r3, r1
 953 01f6 EB1A     		subs	r3, r5, r3
 954 01f8 079D     		ldr	r5, [sp, #28]
 955 01fa DAF80800 		ldr	r0, [r10, #8]
 956 01fe CDF81490 		str	r9, [sp, #20]
 957 0202 AA18     		adds	r2, r5, r2
 958 0204 4FF00008 		mov	r8, #0
 245:..\..\..\lvgl\version_6.1.2\lvgl\src\lv_objx/lv_btnm.c ****                 }
 959              		.loc 1 245 0
 960 0208 12B2     		sxth	r2, r2
 961 020a 1BB2     		sxth	r3, r3
 962 020c 0692     		str	r2, [sp, #24]
 963 020e CDF840B0 		str	fp, [sp, #64]
 222:..\..\..\lvgl\version_6.1.2\lvgl\src\lv_objx/lv_btnm.c ****             for(i = 0; i < btn_cnt; i++) {
 964              		.loc 1 222 0
 965 0212 4546     		mov	r5, r8
 966 0214 4246     		mov	r2, r8
 967 0216 B946     		mov	r9, r7
 968              	.LVL122:
ARM GAS  C:\Users\pearlstl\AppData\Local\Temp\ccUkXBYk.s 			page 42


 969 0218 9B46     		mov	fp, r3
 970              	.LVL123:
 971              	.L73:
 227:..\..\..\lvgl\version_6.1.2\lvgl\src\lv_objx/lv_btnm.c ****                 act_unit_w--; /*-1 because e.g. width = 100 means 101 pixels (0..100)*/
 972              		.loc 1 227 0
 973 021a 059B     		ldr	r3, [sp, #20]
 974 021c 9F18     		adds	r7, r3, r2
 975 021e BFB2     		uxth	r7, r7
 976              	.LVL124:
 977              	.LBB238:
 978              	.LBB239:
1006:..\..\..\lvgl\version_6.1.2\lvgl\src\lv_objx/lv_btnm.c ****     return w != 0 ? w : 1;
 979              		.loc 1 1006 0
 980 0220 10F81730 		ldrb	r3, [r0, r7, lsl #1]	@ zero_extendqisi2
 981              	.LVL125:
 982              	.LBE239:
 983              	.LBE238:
 231:..\..\..\lvgl\version_6.1.2\lvgl\src\lv_objx/lv_btnm.c ****                     act_x = (unit_act_cnt * all_unit_w) / unit_cnt + i * style_bg->body.padding.inn
 984              		.loc 1 231 0
 985 0224 0498     		ldr	r0, [sp, #16]
 986              	.LVL126:
 987 0226 13F00703 		ands	r3, r3, #7
 988              	.LVL127:
 989 022a 08BF     		it	eq
 990 022c 0123     		moveq	r3, #1
 991              	.LVL128:
 228:..\..\..\lvgl\version_6.1.2\lvgl\src\lv_objx/lv_btnm.c **** 
 992              		.loc 1 228 0
 993 022e 03FB0BF3 		mul	r3, r3, fp
 994              	.LVL129:
 231:..\..\..\lvgl\version_6.1.2\lvgl\src\lv_objx/lv_btnm.c ****                     act_x = (unit_act_cnt * all_unit_w) / unit_cnt + i * style_bg->body.padding.inn
 995              		.loc 1 231 0
 996 0232 0128     		cmp	r0, #1
 228:..\..\..\lvgl\version_6.1.2\lvgl\src\lv_objx/lv_btnm.c **** 
 997              		.loc 1 228 0
 998 0234 93FBF4F3 		sdiv	r3, r3, r4
 999 0238 03F1FF33 		add	r3, r3, #-1
 1000 023c 9BB2     		uxth	r3, r3
 1001              	.LVL130:
 231:..\..\..\lvgl\version_6.1.2\lvgl\src\lv_objx/lv_btnm.c ****                     act_x = (unit_act_cnt * all_unit_w) / unit_cnt + i * style_bg->body.padding.inn
 1002              		.loc 1 231 0
 1003 023e 3DD0     		beq	.L114
 235:..\..\..\lvgl\version_6.1.2\lvgl\src\lv_objx/lv_btnm.c ****                             style_bg->body.padding.left;
 1004              		.loc 1 235 0
 1005 0240 B9F82400 		ldrh	r0, [r9, #36]
 1006 0244 11FB02F2 		smulbb	r2, r1, r2
 1007              	.LVL131:
 1008 0248 0244     		add	r2, r2, r0
 1009 024a 0BFB05F0 		mul	r0, fp, r5
 1010 024e 90FBF4F0 		sdiv	r0, r0, r4
 1011 0252 0244     		add	r2, r2, r0
 1012 0254 12B2     		sxth	r2, r2
 1013              	.LVL132:
 1014              	.L68:
 241:..\..\..\lvgl\version_6.1.2\lvgl\src\lv_objx/lv_btnm.c ****                     lv_area_set(&ext->button_areas[btn_i], ext->button_areas[btn_i - 1].x2, act_y, 
 1015              		.loc 1 241 0
 1016 0256 21BB     		cbnz	r1, .L69
ARM GAS  C:\Users\pearlstl\AppData\Local\Temp\ccUkXBYk.s 			page 43


 241:..\..\..\lvgl\version_6.1.2\lvgl\src\lv_objx/lv_btnm.c ****                     lv_area_set(&ext->button_areas[btn_i], ext->button_areas[btn_i - 1].x2, act_y, 
 1017              		.loc 1 241 0 is_stmt 0 discriminator 1
 1018 0258 B9F92410 		ldrsh	r1, [r9, #36]
 1019 025c 9142     		cmp	r1, r2
 1020 025e 20D0     		beq	.L69
 242:..\..\..\lvgl\version_6.1.2\lvgl\src\lv_objx/lv_btnm.c ****                                 act_y + btn_h);
 1021              		.loc 1 242 0 is_stmt 1
 1022 0260 DAF80400 		ldr	r0, [r10, #4]
 1023 0264 00EBC700 		add	r0, r0, r7, lsl #3
 1024 0268 1344     		add	r3, r3, r2
 1025 026a 069A     		ldr	r2, [sp, #24]
 1026              	.LVL133:
 1027 026c 30F9041C 		ldrsh	r1, [r0, #-4]
 1028 0270 0092     		str	r2, [sp]
 1029 0272 1BB2     		sxth	r3, r3
 1030 0274 039A     		ldr	r2, [sp, #12]
 1031 0276 FFF7FEFF 		bl	lv_area_set
 1032              	.LVL134:
 1033              	.L70:
 248:..\..\..\lvgl\version_6.1.2\lvgl\src\lv_objx/lv_btnm.c **** 
 1034              		.loc 1 248 0 discriminator 2
 1035 027a DAF80800 		ldr	r0, [r10, #8]
 1036              	.LVL135:
 1037              	.LBB240:
 1038              	.LBB241:
1006:..\..\..\lvgl\version_6.1.2\lvgl\src\lv_objx/lv_btnm.c ****     return w != 0 ? w : 1;
 1039              		.loc 1 1006 0 discriminator 2
 1040 027e 10F81730 		ldrb	r3, [r0, r7, lsl #1]	@ zero_extendqisi2
 1041              	.LVL136:
 1042 0282 08F10108 		add	r8, r8, #1
1007:..\..\..\lvgl\version_6.1.2\lvgl\src\lv_objx/lv_btnm.c **** }
 1043              		.loc 1 1007 0 discriminator 2
 1044 0286 13F00703 		ands	r3, r3, #7
 1045              	.LVL137:
 1046 028a 14BF     		ite	ne
 1047 028c 9BB2     		uxthne	r3, r3
 1048 028e 0123     		moveq	r3, #1
 1049              	.LVL138:
 1050              	.LBE241:
 1051              	.LBE240:
 223:..\..\..\lvgl\version_6.1.2\lvgl\src\lv_objx/lv_btnm.c ****                 /* one_unit_w = all_unit_w / unit_cnt
 1052              		.loc 1 223 0 discriminator 2
 1053 0290 1FFA88F2 		uxth	r2, r8
 248:..\..\..\lvgl\version_6.1.2\lvgl\src\lv_objx/lv_btnm.c **** 
 1054              		.loc 1 248 0 discriminator 2
 1055 0294 1D44     		add	r5, r5, r3
 1056              	.LVL139:
 223:..\..\..\lvgl\version_6.1.2\lvgl\src\lv_objx/lv_btnm.c ****                 /* one_unit_w = all_unit_w / unit_cnt
 1057              		.loc 1 223 0 discriminator 2
 1058 0296 9642     		cmp	r6, r2
 248:..\..\..\lvgl\version_6.1.2\lvgl\src\lv_objx/lv_btnm.c **** 
 1059              		.loc 1 248 0 discriminator 2
 1060 0298 ADB2     		uxth	r5, r5
 1061              	.LVL140:
 223:..\..\..\lvgl\version_6.1.2\lvgl\src\lv_objx/lv_btnm.c ****                 /* one_unit_w = all_unit_w / unit_cnt
 1062              		.loc 1 223 0 discriminator 2
 1063 029a 2AD9     		bls	.L72
ARM GAS  C:\Users\pearlstl\AppData\Local\Temp\ccUkXBYk.s 			page 44


 1064 029c B9F92810 		ldrsh	r1, [r9, #40]
 1065 02a0 BBE7     		b	.L73
 1066              	.LVL141:
 1067              	.L69:
 245:..\..\..\lvgl\version_6.1.2\lvgl\src\lv_objx/lv_btnm.c ****                 }
 1068              		.loc 1 245 0
 1069 02a2 DAF80400 		ldr	r0, [r10, #4]
 1070 02a6 0699     		ldr	r1, [sp, #24]
 1071 02a8 0091     		str	r1, [sp]
 1072 02aa 1344     		add	r3, r3, r2
 1073 02ac 1146     		mov	r1, r2
 1074 02ae 1BB2     		sxth	r3, r3
 1075 02b0 00EBC700 		add	r0, r0, r7, lsl #3
 1076 02b4 039A     		ldr	r2, [sp, #12]
 1077              	.LVL142:
 1078 02b6 FFF7FEFF 		bl	lv_area_set
 1079              	.LVL143:
 1080 02ba DEE7     		b	.L70
 1081              	.LVL144:
 1082              	.L114:
 233:..\..\..\lvgl\version_6.1.2\lvgl\src\lv_objx/lv_btnm.c ****                 } else {
 1083              		.loc 1 233 0
 1084 02bc 0898     		ldr	r0, [sp, #32]
 1085 02be 0E92     		str	r2, [sp, #56]
 1086              	.LVL145:
 1087 02c0 0D91     		str	r1, [sp, #52]
 1088 02c2 0C93     		str	r3, [sp, #48]
 1089 02c4 FFF7FEFF 		bl	lv_obj_get_width
 1090              	.LVL146:
 1091 02c8 0D99     		ldr	r1, [sp, #52]
 1092 02ca 0E9A     		ldr	r2, [sp, #56]
 1093 02cc B9F826E0 		ldrh	lr, [r9, #38]
 1094 02d0 0C9B     		ldr	r3, [sp, #48]
 1095 02d2 11FB02F2 		smulbb	r2, r1, r2
 1096 02d6 D143     		mvns	r1, r2
 1097 02d8 0BFB05F2 		mul	r2, fp, r5
 1098 02dc 92FBF4F2 		sdiv	r2, r2, r4
 1099 02e0 8A1A     		subs	r2, r1, r2
 1100 02e2 CEEB0202 		rsb	r2, lr, r2
 1101 02e6 D21A     		subs	r2, r2, r3
 1102 02e8 1044     		add	r0, r0, r2
 1103 02ea 02B2     		sxth	r2, r0
 1104              	.LVL147:
 1105 02ec B9F92810 		ldrsh	r1, [r9, #40]
 1106 02f0 B1E7     		b	.L68
 1107              	.LVL148:
 1108              	.L72:
 1109 02f2 DDF81490 		ldr	r9, [sp, #20]
 1110 02f6 DDF840B0 		ldr	fp, [sp, #64]
 1111 02fa B144     		add	r9, r9, r6
 1112 02fc 1FFA89F9 		uxth	r9, r9
 1113 0300 5BE7     		b	.L65
 1114              	.LVL149:
 1115              	.L112:
 1116 0302 CDF82480 		str	r8, [sp, #36]
 1117              	.L62:
 1118              	.LBE237:
ARM GAS  C:\Users\pearlstl\AppData\Local\Temp\ccUkXBYk.s 			page 45


 207:..\..\..\lvgl\version_6.1.2\lvgl\src\lv_objx/lv_btnm.c ****         }
 1119              		.loc 1 207 0
 1120 0306 0898     		ldr	r0, [sp, #32]
 1121 0308 FFF7FEFF 		bl	lv_obj_get_height
 1122              	.LVL150:
 1123 030c 0B9B     		ldr	r3, [sp, #44]
 1124 030e BDF80C20 		ldrh	r2, [sp, #12]
 1125 0312 5B8C     		ldrh	r3, [r3, #34]
 1126 0314 0792     		str	r2, [sp, #28]
 1127 0316 DB43     		mvns	r3, r3
 1128 0318 9B1A     		subs	r3, r3, r2
 1129 031a 1844     		add	r0, r0, r3
 1130 031c 03B2     		sxth	r3, r0
 1131 031e 0F93     		str	r3, [sp, #60]
 1132              	.LVL151:
 1133 0320 43E7     		b	.L63
 1134              	.LVL152:
 1135              	.L74:
 1136              	.LBE242:
 261:..\..\..\lvgl\version_6.1.2\lvgl\src\lv_objx/lv_btnm.c **** }
 1137              		.loc 1 261 0
 1138 0322 0898     		ldr	r0, [sp, #32]
 262:..\..\..\lvgl\version_6.1.2\lvgl\src\lv_objx/lv_btnm.c **** 
 1139              		.loc 1 262 0
 1140 0324 13B0     		add	sp, sp, #76
 1141              		.cfi_remember_state
 1142              		.cfi_def_cfa_offset 36
 1143              		@ sp needed
 1144 0326 BDE8F04F 		pop	{r4, r5, r6, r7, r8, r9, r10, fp, lr}
 1145              		.cfi_restore 14
 1146              		.cfi_restore 11
 1147              		.cfi_restore 10
 1148              		.cfi_restore 9
 1149              		.cfi_restore 8
 1150              		.cfi_restore 7
 1151              		.cfi_restore 6
 1152              		.cfi_restore 5
 1153              		.cfi_restore 4
 1154              		.cfi_def_cfa_offset 0
 1155              	.LVL153:
 261:..\..\..\lvgl\version_6.1.2\lvgl\src\lv_objx/lv_btnm.c **** }
 1156              		.loc 1 261 0
 1157 032a FFF7FEBF 		b	lv_obj_invalidate
 1158              	.LVL154:
 1159              	.L116:
 1160 032e 00BF     		.align	2
 1161              	.L115:
 1162 0330 00000000 		.word	.LC0
 1163              	.LVL155:
 1164              	.L48:
 1165              		.cfi_restore_state
 1166              	.LBB243:
 1167              	.LBB223:
1105:..\..\..\lvgl\version_6.1.2\lvgl\src\lv_objx/lv_btnm.c ****     }
1106:..\..\..\lvgl\version_6.1.2\lvgl\src\lv_objx/lv_btnm.c ****     return map1[i][0] == '\0' && map2[i][0] == '\0';
 1168              		.loc 1 1106 0
 1169 0334 5BF80230 		ldr	r3, [fp, r2]
ARM GAS  C:\Users\pearlstl\AppData\Local\Temp\ccUkXBYk.s 			page 46


 1170              	.LBE223:
 1171              	.LBE243:
 162:..\..\..\lvgl\version_6.1.2\lvgl\src\lv_objx/lv_btnm.c **** 
 1172              		.loc 1 162 0
 1173 0338 1B78     		ldrb	r3, [r3]	@ zero_extendqisi2
 1174 033a 002B     		cmp	r3, #0
 1175 033c 3FF4C7AE 		beq	.L42
 1176              	.L108:
 1177              	.LVL156:
 1178 0340 DBF80050 		ldr	r5, [fp]
 1179 0344 2C78     		ldrb	r4, [r5]	@ zero_extendqisi2
 1180              	.LBB244:
 1181              	.LBB228:
 970:..\..\..\lvgl\version_6.1.2\lvgl\src\lv_objx/lv_btnm.c ****         if(strcmp(map[i], "\n") != 0) { /*Do not count line breaks*/
 1182              		.loc 1 970 0
 1183 0346 002C     		cmp	r4, #0
 1184 0348 7FF48BAE 		bne	.L44
 1185              	.LVL157:
 1186              	.L77:
 1187              	.LBE228:
 1188              	.LBE244:
 1189              	.LBB245:
 1190              	.LBB224:
1102:..\..\..\lvgl\version_6.1.2\lvgl\src\lv_objx/lv_btnm.c ****         if(strcmp(map1[i], map2[i]) != 0) return false;
 1191              		.loc 1 1102 0
 1192 034c 2746     		mov	r7, r4
 1193 034e 2646     		mov	r6, r4
 1194 0350 99E6     		b	.L45
 1195              	.LVL158:
 1196              	.L80:
 1197              	.LBE224:
 1198              	.LBE245:
 178:..\..\..\lvgl\version_6.1.2\lvgl\src\lv_objx/lv_btnm.c ****         if(strcmp(map[li], "\n") == 0) line_cnt++;
 1199              		.loc 1 178 0
 1200 0352 0124     		movs	r4, #1
 1201 0354 F3E6     		b	.L55
 1202              	.LVL159:
 1203              	.L111:
 1204              	.LBB246:
 1205              	.LBB229:
 992:..\..\..\lvgl\version_6.1.2\lvgl\src\lv_objx/lv_btnm.c **** 
 1206              		.loc 1 992 0
 1207 0356 0446     		mov	r4, r0
 1208 0358 0646     		mov	r6, r0
 1209 035a B3E6     		b	.L54
 1210              	.L78:
 1211 035c 1C46     		mov	r4, r3
 1212 035e 1E46     		mov	r6, r3
 1213 0360 B0E6     		b	.L54
 1214              	.LBE229:
 1215              	.LBE246:
 1216              		.cfi_endproc
 1217              	.LFE47:
 1218              		.size	lv_btnm_set_map, .-lv_btnm_set_map
 1219 0362 00BF     		.section	.text.lv_btnm_create,"ax",%progbits
 1220              		.align	2
 1221              		.global	lv_btnm_create
ARM GAS  C:\Users\pearlstl\AppData\Local\Temp\ccUkXBYk.s 			page 47


 1222              		.thumb
 1223              		.thumb_func
 1224              		.type	lv_btnm_create, %function
 1225              	lv_btnm_create:
 1226              	.LFB46:
  70:..\..\..\lvgl\version_6.1.2\lvgl\src\lv_objx/lv_btnm.c ****     LV_LOG_TRACE("button matrix create started");
 1227              		.loc 1 70 0
 1228              		.cfi_startproc
 1229              		@ args = 0, pretend = 0, frame = 0
 1230              		@ frame_needed = 0, uses_anonymous_args = 0
 1231              	.LVL160:
 1232 0000 F8B5     		push	{r3, r4, r5, r6, r7, lr}
 1233              		.cfi_def_cfa_offset 24
 1234              		.cfi_offset 3, -24
 1235              		.cfi_offset 4, -20
 1236              		.cfi_offset 5, -16
 1237              		.cfi_offset 6, -12
 1238              		.cfi_offset 7, -8
 1239              		.cfi_offset 14, -4
  70:..\..\..\lvgl\version_6.1.2\lvgl\src\lv_objx/lv_btnm.c ****     LV_LOG_TRACE("button matrix create started");
 1240              		.loc 1 70 0
 1241 0002 0E46     		mov	r6, r1
  74:..\..\..\lvgl\version_6.1.2\lvgl\src\lv_objx/lv_btnm.c ****     LV_ASSERT_MEM(new_btnm);
 1242              		.loc 1 74 0
 1243 0004 FFF7FEFF 		bl	lv_obj_create
 1244              	.LVL161:
  76:..\..\..\lvgl\version_6.1.2\lvgl\src\lv_objx/lv_btnm.c **** 
 1245              		.loc 1 76 0
 1246 0008 0028     		cmp	r0, #0
 1247 000a 00F0A380 		beq	.L121
  78:..\..\..\lvgl\version_6.1.2\lvgl\src\lv_objx/lv_btnm.c **** 
 1248              		.loc 1 78 0
 1249 000e 554F     		ldr	r7, .L132
 1250 0010 7B68     		ldr	r3, [r7, #4]
 1251 0012 0546     		mov	r5, r0
 1252 0014 002B     		cmp	r3, #0
 1253 0016 00F09480 		beq	.L129
 1254              	.LVL162:
 1255              	.L120:
  81:..\..\..\lvgl\version_6.1.2\lvgl\src\lv_objx/lv_btnm.c ****     LV_ASSERT_MEM(ext);
 1256              		.loc 1 81 0
 1257 001a 2821     		movs	r1, #40
 1258 001c 2846     		mov	r0, r5
 1259 001e FFF7FEFF 		bl	lv_obj_allocate_ext_attr
 1260              	.LVL163:
  83:..\..\..\lvgl\version_6.1.2\lvgl\src\lv_objx/lv_btnm.c **** 
 1261              		.loc 1 83 0
 1262 0022 0446     		mov	r4, r0
 1263 0024 0028     		cmp	r0, #0
 1264 0026 00F09580 		beq	.L121
  91:..\..\..\lvgl\version_6.1.2\lvgl\src\lv_objx/lv_btnm.c ****     ext->one_toggle                       = 0;
 1265              		.loc 1 91 0
 1266 002a 90F82620 		ldrb	r2, [r0, #38]	@ zero_extendqisi2
  93:..\..\..\lvgl\version_6.1.2\lvgl\src\lv_objx/lv_btnm.c ****     ext->styles_btn[LV_BTN_STATE_PR]      = &lv_style_btn_pr;
 1267              		.loc 1 93 0
 1268 002e 4E4B     		ldr	r3, .L132+4
 1269 0030 E360     		str	r3, [r4, #12]
ARM GAS  C:\Users\pearlstl\AppData\Local\Temp\ccUkXBYk.s 			page 48


  92:..\..\..\lvgl\version_6.1.2\lvgl\src\lv_objx/lv_btnm.c ****     ext->styles_btn[LV_BTN_STATE_REL]     = &lv_style_btn_rel;
 1270              		.loc 1 92 0
 1271 0032 02F0FE02 		and	r2, r2, #254
  85:..\..\..\lvgl\version_6.1.2\lvgl\src\lv_objx/lv_btnm.c ****     ext->btn_id_pr                        = LV_BTNM_BTN_NONE;
 1272              		.loc 1 85 0
 1273 0036 0023     		movs	r3, #0
  92:..\..\..\lvgl\version_6.1.2\lvgl\src\lv_objx/lv_btnm.c ****     ext->styles_btn[LV_BTN_STATE_REL]     = &lv_style_btn_rel;
 1274              		.loc 1 92 0
 1275 0038 63F34102 		bfi	r2, r3, #1, #1
  99:..\..\..\lvgl\version_6.1.2\lvgl\src\lv_objx/lv_btnm.c **** 
 1276              		.loc 1 99 0
 1277 003c 3868     		ldr	r0, [r7]
 1278              	.LVL164:
  94:..\..\..\lvgl\version_6.1.2\lvgl\src\lv_objx/lv_btnm.c ****     ext->styles_btn[LV_BTN_STATE_TGL_REL] = &lv_style_btn_tgl_rel;
 1279              		.loc 1 94 0
 1280 003e DFF848E1 		ldr	lr, .L132+36
  95:..\..\..\lvgl\version_6.1.2\lvgl\src\lv_objx/lv_btnm.c ****     ext->styles_btn[LV_BTN_STATE_TGL_PR]  = &lv_style_btn_tgl_pr;
 1281              		.loc 1 95 0
 1282 0042 4A4F     		ldr	r7, .L132+8
  92:..\..\..\lvgl\version_6.1.2\lvgl\src\lv_objx/lv_btnm.c ****     ext->styles_btn[LV_BTN_STATE_REL]     = &lv_style_btn_rel;
 1283              		.loc 1 92 0
 1284 0044 84F82620 		strb	r2, [r4, #38]
  86:..\..\..\lvgl\version_6.1.2\lvgl\src\lv_objx/lv_btnm.c ****     ext->btn_id_act                       = LV_BTNM_BTN_NONE;
 1285              		.loc 1 86 0
 1286 0048 4FF6FF71 		movw	r1, #65535
  85:..\..\..\lvgl\version_6.1.2\lvgl\src\lv_objx/lv_btnm.c ****     ext->btn_id_pr                        = LV_BTNM_BTN_NONE;
 1287              		.loc 1 85 0
 1288 004c 2384     		strh	r3, [r4, #32]	@ movhi
  88:..\..\..\lvgl\version_6.1.2\lvgl\src\lv_objx/lv_btnm.c ****     ext->ctrl_bits                        = NULL;
 1289              		.loc 1 88 0
 1290 004e 6360     		str	r3, [r4, #4]
  89:..\..\..\lvgl\version_6.1.2\lvgl\src\lv_objx/lv_btnm.c ****     ext->map_p                            = NULL;
 1291              		.loc 1 89 0
 1292 0050 A360     		str	r3, [r4, #8]
  90:..\..\..\lvgl\version_6.1.2\lvgl\src\lv_objx/lv_btnm.c ****     ext->recolor                          = 0;
 1293              		.loc 1 90 0
 1294 0052 2360     		str	r3, [r4]
  96:..\..\..\lvgl\version_6.1.2\lvgl\src\lv_objx/lv_btnm.c ****     ext->styles_btn[LV_BTN_STATE_INA]     = &lv_style_btn_ina;
 1295              		.loc 1 96 0
 1296 0054 464A     		ldr	r2, .L132+12
  97:..\..\..\lvgl\version_6.1.2\lvgl\src\lv_objx/lv_btnm.c **** 
 1297              		.loc 1 97 0
 1298 0056 474B     		ldr	r3, .L132+16
  95:..\..\..\lvgl\version_6.1.2\lvgl\src\lv_objx/lv_btnm.c ****     ext->styles_btn[LV_BTN_STATE_TGL_PR]  = &lv_style_btn_tgl_pr;
 1299              		.loc 1 95 0
 1300 0058 6761     		str	r7, [r4, #20]
  86:..\..\..\lvgl\version_6.1.2\lvgl\src\lv_objx/lv_btnm.c ****     ext->btn_id_act                       = LV_BTNM_BTN_NONE;
 1301              		.loc 1 86 0
 1302 005a 6184     		strh	r1, [r4, #34]	@ movhi
  87:..\..\..\lvgl\version_6.1.2\lvgl\src\lv_objx/lv_btnm.c ****     ext->button_areas                     = NULL;
 1303              		.loc 1 87 0
 1304 005c A184     		strh	r1, [r4, #36]	@ movhi
  94:..\..\..\lvgl\version_6.1.2\lvgl\src\lv_objx/lv_btnm.c ****     ext->styles_btn[LV_BTN_STATE_TGL_REL] = &lv_style_btn_tgl_rel;
 1305              		.loc 1 94 0
 1306 005e C4F810E0 		str	lr, [r4, #16]
  96:..\..\..\lvgl\version_6.1.2\lvgl\src\lv_objx/lv_btnm.c ****     ext->styles_btn[LV_BTN_STATE_INA]     = &lv_style_btn_ina;
 1307              		.loc 1 96 0
ARM GAS  C:\Users\pearlstl\AppData\Local\Temp\ccUkXBYk.s 			page 49


 1308 0062 A261     		str	r2, [r4, #24]
  97:..\..\..\lvgl\version_6.1.2\lvgl\src\lv_objx/lv_btnm.c **** 
 1309              		.loc 1 97 0
 1310 0064 E361     		str	r3, [r4, #28]
  99:..\..\..\lvgl\version_6.1.2\lvgl\src\lv_objx/lv_btnm.c **** 
 1311              		.loc 1 99 0
 1312 0066 3F4F     		ldr	r7, .L132
 1313 0068 0028     		cmp	r0, #0
 1314 006a 6ED0     		beq	.L130
 1315              	.L122:
 101:..\..\..\lvgl\version_6.1.2\lvgl\src\lv_objx/lv_btnm.c ****     lv_obj_set_design_cb(new_btnm, lv_btnm_design);
 1316              		.loc 1 101 0
 1317 006c 4249     		ldr	r1, .L132+20
 1318 006e 2846     		mov	r0, r5
 1319 0070 FFF7FEFF 		bl	lv_obj_set_signal_cb
 1320              	.LVL165:
 102:..\..\..\lvgl\version_6.1.2\lvgl\src\lv_objx/lv_btnm.c **** 
 1321              		.loc 1 102 0
 1322 0074 4149     		ldr	r1, .L132+24
 1323 0076 2846     		mov	r0, r5
 1324 0078 FFF7FEFF 		bl	lv_obj_set_design_cb
 1325              	.LVL166:
 105:..\..\..\lvgl\version_6.1.2\lvgl\src\lv_objx/lv_btnm.c ****         lv_btnm_set_map(new_btnm, lv_btnm_def_map);
 1326              		.loc 1 105 0
 1327 007c CEB1     		cbz	r6, .L131
 1328              	.LBB263:
 124:..\..\..\lvgl\version_6.1.2\lvgl\src\lv_objx/lv_btnm.c ****         memcpy((void*)ext->styles_btn, copy_ext->styles_btn, sizeof(ext->styles_btn));
 1329              		.loc 1 124 0
 1330 007e 3046     		mov	r0, r6
 1331 0080 FFF7FEFF 		bl	lv_obj_get_ext_attr
 1332              	.LVL167:
 125:..\..\..\lvgl\version_6.1.2\lvgl\src\lv_objx/lv_btnm.c ****         lv_btnm_set_map(new_btnm, lv_btnm_get_map_array(copy));
 1333              		.loc 1 125 0
 1334 0084 0346     		mov	r3, r0
 1335              	.LBB264:
 1336              	.LBB265:
 480:..\..\..\lvgl\version_6.1.2\lvgl\src\lv_objx/lv_btnm.c ****     return ext->map_p;
 1337              		.loc 1 480 0
 1338 0086 3046     		mov	r0, r6
 1339              	.LVL168:
 1340              	.LBE265:
 1341              	.LBE264:
 125:..\..\..\lvgl\version_6.1.2\lvgl\src\lv_objx/lv_btnm.c ****         lv_btnm_set_map(new_btnm, lv_btnm_get_map_array(copy));
 1342              		.loc 1 125 0
 1343 0088 53F80C1F 		ldr	r1, [r3, #12]!	@ unaligned
 1344              	.LVL169:
 1345 008c D3F804E0 		ldr	lr, [r3, #4]	@ unaligned
 1346 0090 9F68     		ldr	r7, [r3, #8]	@ unaligned
 1347 0092 DE68     		ldr	r6, [r3, #12]	@ unaligned
 1348              	.LVL170:
 1349 0094 A661     		str	r6, [r4, #24]	@ unaligned
 1350 0096 C4F810E0 		str	lr, [r4, #16]	@ unaligned
 1351 009a E160     		str	r1, [r4, #12]	@ unaligned
 1352 009c 6761     		str	r7, [r4, #20]	@ unaligned
 1353 009e 1969     		ldr	r1, [r3, #16]	@ unaligned
 1354 00a0 E161     		str	r1, [r4, #28]	@ unaligned
 1355              	.LVL171:
ARM GAS  C:\Users\pearlstl\AppData\Local\Temp\ccUkXBYk.s 			page 50


 1356              	.LBB267:
 1357              	.LBB266:
 480:..\..\..\lvgl\version_6.1.2\lvgl\src\lv_objx/lv_btnm.c ****     return ext->map_p;
 1358              		.loc 1 480 0
 1359 00a2 FFF7FEFF 		bl	lv_obj_get_ext_attr
 1360              	.LVL172:
 1361              	.LBE266:
 1362              	.LBE267:
 126:..\..\..\lvgl\version_6.1.2\lvgl\src\lv_objx/lv_btnm.c ****     }
 1363              		.loc 1 126 0
 1364 00a6 0168     		ldr	r1, [r0]
 1365 00a8 2846     		mov	r0, r5
 1366 00aa FFF7FEFF 		bl	lv_btnm_set_map
 1367              	.LVL173:
 1368 00ae 2846     		mov	r0, r5
 1369              	.LBE263:
 132:..\..\..\lvgl\version_6.1.2\lvgl\src\lv_objx/lv_btnm.c **** 
 1370              		.loc 1 132 0
 1371 00b0 F8BD     		pop	{r3, r4, r5, r6, r7, pc}
 1372              	.LVL174:
 1373              	.L131:
 1374              	.LBB268:
 106:..\..\..\lvgl\version_6.1.2\lvgl\src\lv_objx/lv_btnm.c ****         lv_obj_set_size(new_btnm, LV_DPI * 3, LV_DPI * 2);
 1375              		.loc 1 106 0
 1376 00b2 3349     		ldr	r1, .L132+28
 1377 00b4 2846     		mov	r0, r5
 1378 00b6 FFF7FEFF 		bl	lv_btnm_set_map
 1379              	.LVL175:
 107:..\..\..\lvgl\version_6.1.2\lvgl\src\lv_objx/lv_btnm.c **** 
 1380              		.loc 1 107 0
 1381 00ba 4FF49672 		mov	r2, #300
 1382 00be 4FF4E171 		mov	r1, #450
 1383 00c2 2846     		mov	r0, r5
 1384 00c4 FFF7FEFF 		bl	lv_obj_set_size
 1385              	.LVL176:
 110:..\..\..\lvgl\version_6.1.2\lvgl\src\lv_objx/lv_btnm.c ****         if(th) {
 1386              		.loc 1 110 0
 1387 00c8 FFF7FEFF 		bl	lv_theme_get_current
 1388              	.LVL177:
 111:..\..\..\lvgl\version_6.1.2\lvgl\src\lv_objx/lv_btnm.c ****             lv_btnm_set_style(new_btnm, LV_BTNM_STYLE_BG, th->style.btnm.bg);
 1389              		.loc 1 111 0
 1390 00cc 0446     		mov	r4, r0
 1391              	.LVL178:
 1392 00ce 0028     		cmp	r0, #0
 1393 00d0 42D0     		beq	.L124
 112:..\..\..\lvgl\version_6.1.2\lvgl\src\lv_objx/lv_btnm.c ****             lv_btnm_set_style(new_btnm, LV_BTNM_STYLE_BTN_REL, th->style.btnm.btn.rel);
 1394              		.loc 1 112 0
 1395 00d2 D0F8C460 		ldr	r6, [r0, #196]
 1396              	.LVL179:
 1397              	.LBB269:
 1398              	.LBB270:
 316:..\..\..\lvgl\version_6.1.2\lvgl\src\lv_objx/lv_btnm.c **** 
 1399              		.loc 1 316 0
 1400 00d6 2846     		mov	r0, r5
 1401              	.LVL180:
 1402 00d8 FFF7FEFF 		bl	lv_obj_get_ext_attr
 1403              	.LVL181:
ARM GAS  C:\Users\pearlstl\AppData\Local\Temp\ccUkXBYk.s 			page 51


 319:..\..\..\lvgl\version_6.1.2\lvgl\src\lv_objx/lv_btnm.c ****         case LV_BTNM_STYLE_BTN_REL:
 1404              		.loc 1 319 0
 1405 00dc 3146     		mov	r1, r6
 1406 00de 2846     		mov	r0, r5
 1407 00e0 FFF7FEFF 		bl	lv_obj_set_style
 1408              	.LVL182:
 1409              	.LBE270:
 1410              	.LBE269:
 1411              	.LBB271:
 1412              	.LBB272:
 316:..\..\..\lvgl\version_6.1.2\lvgl\src\lv_objx/lv_btnm.c **** 
 1413              		.loc 1 316 0
 1414 00e4 2846     		mov	r0, r5
 1415              	.LBE272:
 1416              	.LBE271:
 113:..\..\..\lvgl\version_6.1.2\lvgl\src\lv_objx/lv_btnm.c ****             lv_btnm_set_style(new_btnm, LV_BTNM_STYLE_BTN_PR, th->style.btnm.btn.pr);
 1417              		.loc 1 113 0
 1418 00e6 D4F8C860 		ldr	r6, [r4, #200]
 1419              	.LVL183:
 1420              	.LBB274:
 1421              	.LBB273:
 316:..\..\..\lvgl\version_6.1.2\lvgl\src\lv_objx/lv_btnm.c **** 
 1422              		.loc 1 316 0
 1423 00ea FFF7FEFF 		bl	lv_obj_get_ext_attr
 1424              	.LVL184:
 321:..\..\..\lvgl\version_6.1.2\lvgl\src\lv_objx/lv_btnm.c ****             lv_obj_invalidate(btnm);
 1425              		.loc 1 321 0
 1426 00ee C660     		str	r6, [r0, #12]
 322:..\..\..\lvgl\version_6.1.2\lvgl\src\lv_objx/lv_btnm.c ****             break;
 1427              		.loc 1 322 0
 1428 00f0 2846     		mov	r0, r5
 1429              	.LVL185:
 1430 00f2 FFF7FEFF 		bl	lv_obj_invalidate
 1431              	.LVL186:
 1432              	.LBE273:
 1433              	.LBE274:
 1434              	.LBB275:
 1435              	.LBB276:
 316:..\..\..\lvgl\version_6.1.2\lvgl\src\lv_objx/lv_btnm.c **** 
 1436              		.loc 1 316 0
 1437 00f6 2846     		mov	r0, r5
 1438              	.LBE276:
 1439              	.LBE275:
 114:..\..\..\lvgl\version_6.1.2\lvgl\src\lv_objx/lv_btnm.c ****             lv_btnm_set_style(new_btnm, LV_BTNM_STYLE_BTN_TGL_REL, th->style.btnm.btn.tgl_rel);
 1440              		.loc 1 114 0
 1441 00f8 D4F8CC60 		ldr	r6, [r4, #204]
 1442              	.LVL187:
 1443              	.LBB278:
 1444              	.LBB277:
 316:..\..\..\lvgl\version_6.1.2\lvgl\src\lv_objx/lv_btnm.c **** 
 1445              		.loc 1 316 0
 1446 00fc FFF7FEFF 		bl	lv_obj_get_ext_attr
 1447              	.LVL188:
 325:..\..\..\lvgl\version_6.1.2\lvgl\src\lv_objx/lv_btnm.c ****             lv_obj_invalidate(btnm);
 1448              		.loc 1 325 0
 1449 0100 0661     		str	r6, [r0, #16]
 326:..\..\..\lvgl\version_6.1.2\lvgl\src\lv_objx/lv_btnm.c ****             break;
ARM GAS  C:\Users\pearlstl\AppData\Local\Temp\ccUkXBYk.s 			page 52


 1450              		.loc 1 326 0
 1451 0102 2846     		mov	r0, r5
 1452              	.LVL189:
 1453 0104 FFF7FEFF 		bl	lv_obj_invalidate
 1454              	.LVL190:
 1455              	.LBE277:
 1456              	.LBE278:
 1457              	.LBB279:
 1458              	.LBB280:
 316:..\..\..\lvgl\version_6.1.2\lvgl\src\lv_objx/lv_btnm.c **** 
 1459              		.loc 1 316 0
 1460 0108 2846     		mov	r0, r5
 1461              	.LBE280:
 1462              	.LBE279:
 115:..\..\..\lvgl\version_6.1.2\lvgl\src\lv_objx/lv_btnm.c ****             lv_btnm_set_style(new_btnm, LV_BTNM_STYLE_BTN_TGL_PR, th->style.btnm.btn.tgl_pr);
 1463              		.loc 1 115 0
 1464 010a D4F8D060 		ldr	r6, [r4, #208]
 1465              	.LVL191:
 1466              	.LBB282:
 1467              	.LBB281:
 316:..\..\..\lvgl\version_6.1.2\lvgl\src\lv_objx/lv_btnm.c **** 
 1468              		.loc 1 316 0
 1469 010e FFF7FEFF 		bl	lv_obj_get_ext_attr
 1470              	.LVL192:
 329:..\..\..\lvgl\version_6.1.2\lvgl\src\lv_objx/lv_btnm.c ****             lv_obj_invalidate(btnm);
 1471              		.loc 1 329 0
 1472 0112 4661     		str	r6, [r0, #20]
 330:..\..\..\lvgl\version_6.1.2\lvgl\src\lv_objx/lv_btnm.c ****             break;
 1473              		.loc 1 330 0
 1474 0114 2846     		mov	r0, r5
 1475              	.LVL193:
 1476 0116 FFF7FEFF 		bl	lv_obj_invalidate
 1477              	.LVL194:
 1478              	.LBE281:
 1479              	.LBE282:
 1480              	.LBB283:
 1481              	.LBB284:
 316:..\..\..\lvgl\version_6.1.2\lvgl\src\lv_objx/lv_btnm.c **** 
 1482              		.loc 1 316 0
 1483 011a 2846     		mov	r0, r5
 1484              	.LBE284:
 1485              	.LBE283:
 116:..\..\..\lvgl\version_6.1.2\lvgl\src\lv_objx/lv_btnm.c ****             lv_btnm_set_style(new_btnm, LV_BTNM_STYLE_BTN_INA, th->style.btnm.btn.ina);
 1486              		.loc 1 116 0
 1487 011c D4F8D460 		ldr	r6, [r4, #212]
 1488              	.LVL195:
 1489              	.LBB286:
 1490              	.LBB285:
 316:..\..\..\lvgl\version_6.1.2\lvgl\src\lv_objx/lv_btnm.c **** 
 1491              		.loc 1 316 0
 1492 0120 FFF7FEFF 		bl	lv_obj_get_ext_attr
 1493              	.LVL196:
 333:..\..\..\lvgl\version_6.1.2\lvgl\src\lv_objx/lv_btnm.c ****             lv_obj_invalidate(btnm);
 1494              		.loc 1 333 0
 1495 0124 8661     		str	r6, [r0, #24]
 334:..\..\..\lvgl\version_6.1.2\lvgl\src\lv_objx/lv_btnm.c ****             break;
 1496              		.loc 1 334 0
ARM GAS  C:\Users\pearlstl\AppData\Local\Temp\ccUkXBYk.s 			page 53


 1497 0126 2846     		mov	r0, r5
 1498              	.LVL197:
 1499 0128 FFF7FEFF 		bl	lv_obj_invalidate
 1500              	.LVL198:
 1501              	.LBE285:
 1502              	.LBE286:
 1503              	.LBB287:
 1504              	.LBB288:
 316:..\..\..\lvgl\version_6.1.2\lvgl\src\lv_objx/lv_btnm.c **** 
 1505              		.loc 1 316 0
 1506 012c 2846     		mov	r0, r5
 1507              	.LBE288:
 1508              	.LBE287:
 117:..\..\..\lvgl\version_6.1.2\lvgl\src\lv_objx/lv_btnm.c ****         } else {
 1509              		.loc 1 117 0
 1510 012e D4F8D840 		ldr	r4, [r4, #216]
 1511              	.LVL199:
 1512              	.LBB290:
 1513              	.LBB289:
 316:..\..\..\lvgl\version_6.1.2\lvgl\src\lv_objx/lv_btnm.c **** 
 1514              		.loc 1 316 0
 1515 0132 FFF7FEFF 		bl	lv_obj_get_ext_attr
 1516              	.LVL200:
 337:..\..\..\lvgl\version_6.1.2\lvgl\src\lv_objx/lv_btnm.c ****             lv_obj_invalidate(btnm);
 1517              		.loc 1 337 0
 1518 0136 C461     		str	r4, [r0, #28]
 338:..\..\..\lvgl\version_6.1.2\lvgl\src\lv_objx/lv_btnm.c ****             break;
 1519              		.loc 1 338 0
 1520 0138 2846     		mov	r0, r5
 1521              	.LVL201:
 1522 013a FFF7FEFF 		bl	lv_obj_invalidate
 1523              	.LVL202:
 1524 013e 2846     		mov	r0, r5
 1525 0140 F8BD     		pop	{r3, r4, r5, r6, r7, pc}
 1526              	.LVL203:
 1527              	.L129:
 1528              	.LBE289:
 1529              	.LBE290:
 1530              	.LBE268:
  78:..\..\..\lvgl\version_6.1.2\lvgl\src\lv_objx/lv_btnm.c **** 
 1531              		.loc 1 78 0 discriminator 1
 1532 0142 FFF7FEFF 		bl	lv_obj_get_signal_cb
 1533              	.LVL204:
 1534 0146 7860     		str	r0, [r7, #4]
 1535 0148 67E7     		b	.L120
 1536              	.LVL205:
 1537              	.L130:
  99:..\..\..\lvgl\version_6.1.2\lvgl\src\lv_objx/lv_btnm.c **** 
 1538              		.loc 1 99 0 discriminator 1
 1539 014a 2846     		mov	r0, r5
 1540 014c FFF7FEFF 		bl	lv_obj_get_design_cb
 1541              	.LVL206:
 1542 0150 3860     		str	r0, [r7]
 1543 0152 8BE7     		b	.L122
 1544              	.LVL207:
 1545              	.L121:
  76:..\..\..\lvgl\version_6.1.2\lvgl\src\lv_objx/lv_btnm.c **** 
ARM GAS  C:\Users\pearlstl\AppData\Local\Temp\ccUkXBYk.s 			page 54


 1546              		.loc 1 76 0
 1547 0154 0020     		movs	r0, #0
 1548 0156 F8BD     		pop	{r3, r4, r5, r6, r7, pc}
 1549              	.LVL208:
 1550              	.L124:
 1551              	.LBB291:
 119:..\..\..\lvgl\version_6.1.2\lvgl\src\lv_objx/lv_btnm.c ****         }
 1552              		.loc 1 119 0
 1553 0158 2846     		mov	r0, r5
 1554              	.LVL209:
 1555 015a 0A49     		ldr	r1, .L132+32
 1556 015c FFF7FEFF 		bl	lv_obj_set_style
 1557              	.LVL210:
 1558 0160 2846     		mov	r0, r5
 1559 0162 F8BD     		pop	{r3, r4, r5, r6, r7, pc}
 1560              	.LVL211:
 1561              	.L133:
 1562              		.align	2
 1563              	.L132:
 1564 0164 00000000 		.word	.LANCHOR0
 1565 0168 00000000 		.word	lv_style_btn_rel
 1566 016c 00000000 		.word	lv_style_btn_tgl_rel
 1567 0170 00000000 		.word	lv_style_btn_tgl_pr
 1568 0174 00000000 		.word	lv_style_btn_ina
 1569 0178 00000000 		.word	lv_btnm_signal
 1570 017c 00000000 		.word	lv_btnm_design
 1571 0180 00000000 		.word	.LANCHOR1
 1572 0184 00000000 		.word	lv_style_pretty
 1573 0188 00000000 		.word	lv_style_btn_pr
 1574              	.LBE291:
 1575              		.cfi_endproc
 1576              	.LFE46:
 1577              		.size	lv_btnm_create, .-lv_btnm_create
 1578              		.section	.text.lv_btnm_signal,"ax",%progbits
 1579              		.align	2
 1580              		.thumb
 1581              		.thumb_func
 1582              		.type	lv_btnm_signal, %function
 1583              	lv_btnm_signal:
 1584              	.LFB68:
 757:..\..\..\lvgl\version_6.1.2\lvgl\src\lv_objx/lv_btnm.c ****     lv_res_t res;
 1585              		.loc 1 757 0
 1586              		.cfi_startproc
 1587              		@ args = 0, pretend = 0, frame = 32
 1588              		@ frame_needed = 0, uses_anonymous_args = 0
 1589              	.LVL212:
 1590 0000 2DE9F04F 		push	{r4, r5, r6, r7, r8, r9, r10, fp, lr}
 1591              		.cfi_def_cfa_offset 36
 1592              		.cfi_offset 4, -36
 1593              		.cfi_offset 5, -32
 1594              		.cfi_offset 6, -28
 1595              		.cfi_offset 7, -24
 1596              		.cfi_offset 8, -20
 1597              		.cfi_offset 9, -16
 1598              		.cfi_offset 10, -12
 1599              		.cfi_offset 11, -8
 1600              		.cfi_offset 14, -4
ARM GAS  C:\Users\pearlstl\AppData\Local\Temp\ccUkXBYk.s 			page 55


 761:..\..\..\lvgl\version_6.1.2\lvgl\src\lv_objx/lv_btnm.c ****     if(res != LV_RES_OK) return res;
 1601              		.loc 1 761 0
 1602 0004 BC4B     		ldr	r3, .L263
 757:..\..\..\lvgl\version_6.1.2\lvgl\src\lv_objx/lv_btnm.c ****     lv_res_t res;
 1603              		.loc 1 757 0
 1604 0006 89B0     		sub	sp, sp, #36
 1605              		.cfi_def_cfa_offset 72
 761:..\..\..\lvgl\version_6.1.2\lvgl\src\lv_objx/lv_btnm.c ****     if(res != LV_RES_OK) return res;
 1606              		.loc 1 761 0
 1607 0008 5B68     		ldr	r3, [r3, #4]
 757:..\..\..\lvgl\version_6.1.2\lvgl\src\lv_objx/lv_btnm.c ****     lv_res_t res;
 1608              		.loc 1 757 0
 1609 000a 0546     		mov	r5, r0
 1610 000c 0F46     		mov	r7, r1
 1611 000e 1646     		mov	r6, r2
 761:..\..\..\lvgl\version_6.1.2\lvgl\src\lv_objx/lv_btnm.c ****     if(res != LV_RES_OK) return res;
 1612              		.loc 1 761 0
 1613 0010 9847     		blx	r3
 1614              	.LVL213:
 762:..\..\..\lvgl\version_6.1.2\lvgl\src\lv_objx/lv_btnm.c ****     if(sign == LV_SIGNAL_GET_TYPE) return lv_obj_handle_get_type_signal(param, LV_OBJX_NAME);
 1615              		.loc 1 762 0
 1616 0012 0128     		cmp	r0, #1
 761:..\..\..\lvgl\version_6.1.2\lvgl\src\lv_objx/lv_btnm.c ****     if(res != LV_RES_OK) return res;
 1617              		.loc 1 761 0
 1618 0014 0446     		mov	r4, r0
 1619              	.LVL214:
 762:..\..\..\lvgl\version_6.1.2\lvgl\src\lv_objx/lv_btnm.c ****     if(sign == LV_SIGNAL_GET_TYPE) return lv_obj_handle_get_type_signal(param, LV_OBJX_NAME);
 1620              		.loc 1 762 0
 1621 0016 02D0     		beq	.L244
 1622              	.LVL215:
 1623              	.L234:
 958:..\..\..\lvgl\version_6.1.2\lvgl\src\lv_objx/lv_btnm.c **** 
 1624              		.loc 1 958 0
 1625 0018 09B0     		add	sp, sp, #36
 1626              		.cfi_remember_state
 1627              		.cfi_def_cfa_offset 36
 1628              		@ sp needed
 1629 001a BDE8F08F 		pop	{r4, r5, r6, r7, r8, r9, r10, fp, pc}
 1630              	.LVL216:
 1631              	.L244:
 1632              		.cfi_restore_state
 763:..\..\..\lvgl\version_6.1.2\lvgl\src\lv_objx/lv_btnm.c **** 
 1633              		.loc 1 763 0
 1634 001e 072F     		cmp	r7, #7
 1635 0020 29D0     		beq	.L245
 765:..\..\..\lvgl\version_6.1.2\lvgl\src\lv_objx/lv_btnm.c ****     lv_point_t p;
 1636              		.loc 1 765 0
 1637 0022 2846     		mov	r0, r5
 1638              	.LVL217:
 1639 0024 FFF7FEFF 		bl	lv_obj_get_ext_attr
 1640              	.LVL218:
 1641 0028 8046     		mov	r8, r0
 1642              	.LVL219:
 767:..\..\..\lvgl\version_6.1.2\lvgl\src\lv_objx/lv_btnm.c ****         lv_mem_free(ext->button_areas);
 1643              		.loc 1 767 0
 1644 002a 4FB3     		cbz	r7, .L246
 770:..\..\..\lvgl\version_6.1.2\lvgl\src\lv_objx/lv_btnm.c ****         lv_btnm_set_map(btnm, ext->map_p);
ARM GAS  C:\Users\pearlstl\AppData\Local\Temp\ccUkXBYk.s 			page 56


 1645              		.loc 1 770 0
 1646 002c 042F     		cmp	r7, #4
 1647 002e 1BD0     		beq	.L138
 770:..\..\..\lvgl\version_6.1.2\lvgl\src\lv_objx/lv_btnm.c ****         lv_btnm_set_map(btnm, ext->map_p);
 1648              		.loc 1 770 0 is_stmt 0 discriminator 1
 1649 0030 022F     		cmp	r7, #2
 1650 0032 19D0     		beq	.L138
 772:..\..\..\lvgl\version_6.1.2\lvgl\src\lv_objx/lv_btnm.c ****         lv_indev_t * indev = lv_indev_get_act();
 1651              		.loc 1 772 0 is_stmt 1
 1652 0034 082F     		cmp	r7, #8
 1653 0036 7ED0     		beq	.L247
 793:..\..\..\lvgl\version_6.1.2\lvgl\src\lv_objx/lv_btnm.c ****         uint16_t btn_pr;
 1654              		.loc 1 793 0
 1655 0038 092F     		cmp	r7, #9
 1656 003a 00F09A80 		beq	.L248
 815:..\..\..\lvgl\version_6.1.2\lvgl\src\lv_objx/lv_btnm.c ****         if(ext->btn_id_pr != LV_BTNM_BTN_NONE) {
 1657              		.loc 1 815 0
 1658 003e 0B2F     		cmp	r7, #11
 1659 0040 31D0     		beq	.L249
 848:..\..\..\lvgl\version_6.1.2\lvgl\src\lv_objx/lv_btnm.c ****         if(ext->btn_id_act != LV_BTNM_BTN_NONE) {
 1660              		.loc 1 848 0
 1661 0042 0D2F     		cmp	r7, #13
 1662 0044 6AD0     		beq	.L250
 857:..\..\..\lvgl\version_6.1.2\lvgl\src\lv_objx/lv_btnm.c ****         ext->btn_id_pr  = LV_BTNM_BTN_NONE;
 1663              		.loc 1 857 0
 1664 0046 0A2F     		cmp	r7, #10
 1665 0048 23D0     		beq	.L178
 857:..\..\..\lvgl\version_6.1.2\lvgl\src\lv_objx/lv_btnm.c ****         ext->btn_id_pr  = LV_BTNM_BTN_NONE;
 1666              		.loc 1 857 0 is_stmt 0 discriminator 1
 1667 004a 112F     		cmp	r7, #17
 1668 004c 21D0     		beq	.L178
 861:..\..\..\lvgl\version_6.1.2\lvgl\src\lv_objx/lv_btnm.c **** #if LV_USE_GROUP
 1669              		.loc 1 861 0 is_stmt 1
 1670 004e 102F     		cmp	r7, #16
 1671 0050 00F05F82 		beq	.L251
 894:..\..\..\lvgl\version_6.1.2\lvgl\src\lv_objx/lv_btnm.c ****         char c = *((char *)param);
 1672              		.loc 1 894 0
 1673 0054 122F     		cmp	r7, #18
 1674 0056 00F05381 		beq	.L252
 953:..\..\..\lvgl\version_6.1.2\lvgl\src\lv_objx/lv_btnm.c ****         bool * editable = (bool *)param;
 1675              		.loc 1 953 0
 1676 005a 132F     		cmp	r7, #19
 1677 005c 00F09D81 		beq	.L253
 1678              	.LVL220:
 1679              	.L240:
 1680 0060 0120     		movs	r0, #1
 958:..\..\..\lvgl\version_6.1.2\lvgl\src\lv_objx/lv_btnm.c **** 
 1681              		.loc 1 958 0
 1682 0062 09B0     		add	sp, sp, #36
 1683              		.cfi_remember_state
 1684              		.cfi_def_cfa_offset 36
 1685              		@ sp needed
 1686 0064 BDE8F08F 		pop	{r4, r5, r6, r7, r8, r9, r10, fp, pc}
 1687              	.LVL221:
 1688              	.L138:
 1689              		.cfi_restore_state
 771:..\..\..\lvgl\version_6.1.2\lvgl\src\lv_objx/lv_btnm.c ****     } else if(sign == LV_SIGNAL_PRESSED) {
ARM GAS  C:\Users\pearlstl\AppData\Local\Temp\ccUkXBYk.s 			page 57


 1690              		.loc 1 771 0
 1691 0068 2846     		mov	r0, r5
 1692              	.LVL222:
 1693 006a D8F80010 		ldr	r1, [r8]
 1694 006e FFF7FEFF 		bl	lv_btnm_set_map
 1695              	.LVL223:
 1696 0072 0120     		movs	r0, #1
 1697 0074 D0E7     		b	.L234
 1698              	.LVL224:
 1699              	.L245:
 763:..\..\..\lvgl\version_6.1.2\lvgl\src\lv_objx/lv_btnm.c **** 
 1700              		.loc 1 763 0 discriminator 1
 1701 0076 3046     		mov	r0, r6
 1702              	.LVL225:
 1703 0078 A049     		ldr	r1, .L263+4
 1704 007a FFF7FEFF 		bl	lv_obj_handle_get_type_signal
 1705              	.LVL226:
 1706 007e CBE7     		b	.L234
 1707              	.LVL227:
 1708              	.L246:
 768:..\..\..\lvgl\version_6.1.2\lvgl\src\lv_objx/lv_btnm.c ****         lv_mem_free(ext->ctrl_bits);
 1709              		.loc 1 768 0
 1710 0080 4068     		ldr	r0, [r0, #4]
 1711              	.LVL228:
 1712 0082 FFF7FEFF 		bl	lv_mem_free
 1713              	.LVL229:
 769:..\..\..\lvgl\version_6.1.2\lvgl\src\lv_objx/lv_btnm.c ****     } else if(sign == LV_SIGNAL_STYLE_CHG || sign == LV_SIGNAL_CORD_CHG) {
 1714              		.loc 1 769 0
 1715 0086 D8F80800 		ldr	r0, [r8, #8]
 1716 008a FFF7FEFF 		bl	lv_mem_free
 1717              	.LVL230:
 1718 008e 2046     		mov	r0, r4
 1719 0090 C2E7     		b	.L234
 1720              	.LVL231:
 1721              	.L178:
 858:..\..\..\lvgl\version_6.1.2\lvgl\src\lv_objx/lv_btnm.c ****         ext->btn_id_act = LV_BTNM_BTN_NONE;
 1722              		.loc 1 858 0
 1723 0092 4FF6FF73 		movw	r3, #65535
 1724              	.L239:
 893:..\..\..\lvgl\version_6.1.2\lvgl\src\lv_objx/lv_btnm.c ****     } else if(sign == LV_SIGNAL_CONTROL) {
 1725              		.loc 1 893 0
 1726 0096 2846     		mov	r0, r5
 1727              	.LVL232:
 889:..\..\..\lvgl\version_6.1.2\lvgl\src\lv_objx/lv_btnm.c **** #endif
 1728              		.loc 1 889 0
 1729 0098 A8F82230 		strh	r3, [r8, #34]	@ movhi
 892:..\..\..\lvgl\version_6.1.2\lvgl\src\lv_objx/lv_btnm.c ****         lv_obj_invalidate(btnm);
 1730              		.loc 1 892 0
 1731 009c A8F82430 		strh	r3, [r8, #36]	@ movhi
 893:..\..\..\lvgl\version_6.1.2\lvgl\src\lv_objx/lv_btnm.c ****     } else if(sign == LV_SIGNAL_CONTROL) {
 1732              		.loc 1 893 0
 1733 00a0 FFF7FEFF 		bl	lv_obj_invalidate
 1734              	.LVL233:
 1735 00a4 DCE7     		b	.L240
 1736              	.LVL234:
 1737              	.L249:
 816:..\..\..\lvgl\version_6.1.2\lvgl\src\lv_objx/lv_btnm.c ****             /*Toggle the button if enabled*/
ARM GAS  C:\Users\pearlstl\AppData\Local\Temp\ccUkXBYk.s 			page 58


 1738              		.loc 1 816 0
 1739 00a6 448C     		ldrh	r4, [r0, #34]
 1740 00a8 4FF6FF73 		movw	r3, #65535
 1741 00ac 9C42     		cmp	r4, r3
 1742 00ae D7D0     		beq	.L240
 818:..\..\..\lvgl\version_6.1.2\lvgl\src\lv_objx/lv_btnm.c ****                !button_is_inactive(ext->ctrl_bits[ext->btn_id_pr])) {
 1743              		.loc 1 818 0
 1744 00b0 8268     		ldr	r2, [r0, #8]
 1745 00b2 32F81430 		ldrh	r3, [r2, r4, lsl #1]
 1746 00b6 5806     		lsls	r0, r3, #25
 1747              	.LVL235:
 1748 00b8 4FEA4401 		lsl	r1, r4, #1
 1749 00bc 40F1F180 		bpl	.L164
 818:..\..\..\lvgl\version_6.1.2\lvgl\src\lv_objx/lv_btnm.c ****                !button_is_inactive(ext->ctrl_bits[ext->btn_id_pr])) {
 1750              		.loc 1 818 0 is_stmt 0 discriminator 1
 1751 00c0 9F06     		lsls	r7, r3, #26
 1752 00c2 00F1EE80 		bmi	.L164
 820:..\..\..\lvgl\version_6.1.2\lvgl\src\lv_objx/lv_btnm.c ****                     ext->ctrl_bits[ext->btn_id_pr] &= (~LV_BTNM_CTRL_TGL_STATE);
 1753              		.loc 1 820 0 is_stmt 1
 1754 00c6 1E06     		lsls	r6, r3, #24
 1755              	.LVL236:
 821:..\..\..\lvgl\version_6.1.2\lvgl\src\lv_objx/lv_btnm.c ****                 } else {
 1756              		.loc 1 821 0
 1757 00c8 46BF     		itte	mi
 1758 00ca 23F08003 		bicmi	r3, r3, #128
 1759 00ce 9BB2     		uxthmi	r3, r3
 823:..\..\..\lvgl\version_6.1.2\lvgl\src\lv_objx/lv_btnm.c ****                 }
 1760              		.loc 1 823 0
 1761 00d0 43F08003 		orrpl	r3, r3, #128
 1762 00d4 5352     		strh	r3, [r2, r1]	@ movhi
 825:..\..\..\lvgl\version_6.1.2\lvgl\src\lv_objx/lv_btnm.c ****             }
 1763              		.loc 1 825 0
 1764 00d6 98F82630 		ldrb	r3, [r8, #38]	@ zero_extendqisi2
 1765 00da 9C07     		lsls	r4, r3, #30
 1766 00dc 00F14282 		bmi	.L254
 1767              	.L168:
 829:..\..\..\lvgl\version_6.1.2\lvgl\src\lv_objx/lv_btnm.c **** 
 1768              		.loc 1 829 0
 1769 00e0 B8F82240 		ldrh	r4, [r8, #34]
 1770              	.LVL237:
 1771              	.LBB373:
 1772              	.LBB374:
1072:..\..\..\lvgl\version_6.1.2\lvgl\src\lv_objx/lv_btnm.c **** 
 1773              		.loc 1 1072 0
 1774 00e4 4FF6FF73 		movw	r3, #65535
 1775 00e8 9C42     		cmp	r4, r3
 1776 00ea 40F0DA80 		bne	.L164
 1777              	.LVL238:
 1778              	.L176:
 1779              	.LBE374:
 1780              	.LBE373:
 838:..\..\..\lvgl\version_6.1.2\lvgl\src\lv_objx/lv_btnm.c **** #endif
 1781              		.loc 1 838 0
 1782 00ee 4FF6FF72 		movw	r2, #65535
 841:..\..\..\lvgl\version_6.1.2\lvgl\src\lv_objx/lv_btnm.c ****                button_is_inactive(ext->ctrl_bits[ext->btn_id_act]) == false &&
 1783              		.loc 1 841 0
 1784 00f2 B8F82410 		ldrh	r1, [r8, #36]
ARM GAS  C:\Users\pearlstl\AppData\Local\Temp\ccUkXBYk.s 			page 59


 1785 00f6 D8F80830 		ldr	r3, [r8, #8]
 838:..\..\..\lvgl\version_6.1.2\lvgl\src\lv_objx/lv_btnm.c **** #endif
 1786              		.loc 1 838 0
 1787 00fa A8F82220 		strh	r2, [r8, #34]	@ movhi
 841:..\..\..\lvgl\version_6.1.2\lvgl\src\lv_objx/lv_btnm.c ****                button_is_inactive(ext->ctrl_bits[ext->btn_id_act]) == false &&
 1788              		.loc 1 841 0
 1789 00fe 33F81130 		ldrh	r3, [r3, r1, lsl #1]
 1790 0102 D805     		lsls	r0, r3, #23
 1791 0104 ACD5     		bpl	.L240
 842:..\..\..\lvgl\version_6.1.2\lvgl\src\lv_objx/lv_btnm.c ****                button_is_hidden(ext->ctrl_bits[ext->btn_id_act]) == false) {
 1792              		.loc 1 842 0 discriminator 1
 1793 0106 13F0280F 		tst	r3, #40
 1794 010a A9D1     		bne	.L240
 1795              	.L238:
 1796              	.LBB380:
 853:..\..\..\lvgl\version_6.1.2\lvgl\src\lv_objx/lv_btnm.c ****                 res        = lv_event_send(btnm, LV_EVENT_VALUE_CHANGED, &b);
 1797              		.loc 1 853 0
 1798 010c 08AA     		add	r2, sp, #32
 854:..\..\..\lvgl\version_6.1.2\lvgl\src\lv_objx/lv_btnm.c ****             }
 1799              		.loc 1 854 0
 1800 010e 2846     		mov	r0, r5
 853:..\..\..\lvgl\version_6.1.2\lvgl\src\lv_objx/lv_btnm.c ****                 res        = lv_event_send(btnm, LV_EVENT_VALUE_CHANGED, &b);
 1801              		.loc 1 853 0
 1802 0110 42F8081D 		str	r1, [r2, #-8]!
 854:..\..\..\lvgl\version_6.1.2\lvgl\src\lv_objx/lv_btnm.c ****             }
 1803              		.loc 1 854 0
 1804 0114 0E21     		movs	r1, #14
 1805 0116 FFF7FEFF 		bl	lv_event_send
 1806              	.LVL239:
 1807 011a 7DE7     		b	.L234
 1808              	.LVL240:
 1809              	.L250:
 1810              	.LBE380:
 849:..\..\..\lvgl\version_6.1.2\lvgl\src\lv_objx/lv_btnm.c ****             if(button_is_repeat_disabled(ext->ctrl_bits[ext->btn_id_act]) == false &&
 1811              		.loc 1 849 0
 1812 011c 818C     		ldrh	r1, [r0, #36]
 1813 011e 4FF6FF73 		movw	r3, #65535
 1814 0122 9942     		cmp	r1, r3
 1815 0124 9CD0     		beq	.L240
 850:..\..\..\lvgl\version_6.1.2\lvgl\src\lv_objx/lv_btnm.c ****                button_is_inactive(ext->ctrl_bits[ext->btn_id_act]) == false &&
 1816              		.loc 1 850 0
 1817 0126 8368     		ldr	r3, [r0, #8]
 851:..\..\..\lvgl\version_6.1.2\lvgl\src\lv_objx/lv_btnm.c ****                button_is_hidden(ext->ctrl_bits[ext->btn_id_act]) == false) {
 1818              		.loc 1 851 0
 1819 0128 33F81130 		ldrh	r3, [r3, r1, lsl #1]
 1820 012c 03F03803 		and	r3, r3, #56
 1821 0130 002B     		cmp	r3, #0
 1822 0132 95D1     		bne	.L240
 1823 0134 EAE7     		b	.L238
 1824              	.L247:
 1825              	.LBB381:
 773:..\..\..\lvgl\version_6.1.2\lvgl\src\lv_objx/lv_btnm.c ****         if(lv_indev_get_type(indev) == LV_INDEV_TYPE_POINTER || lv_indev_get_type(indev) == LV_INDE
 1826              		.loc 1 773 0
 1827 0136 FFF7FEFF 		bl	lv_indev_get_act
 1828              	.LVL241:
 1829 013a 0446     		mov	r4, r0
 1830              	.LVL242:
ARM GAS  C:\Users\pearlstl\AppData\Local\Temp\ccUkXBYk.s 			page 60


 774:..\..\..\lvgl\version_6.1.2\lvgl\src\lv_objx/lv_btnm.c ****             uint16_t btn_pr;
 1831              		.loc 1 774 0
 1832 013c FFF7FEFF 		bl	lv_indev_get_type
 1833              	.LVL243:
 1834 0140 0128     		cmp	r0, #1
 1835 0142 00F02E81 		beq	.L144
 774:..\..\..\lvgl\version_6.1.2\lvgl\src\lv_objx/lv_btnm.c ****             uint16_t btn_pr;
 1836              		.loc 1 774 0 is_stmt 0 discriminator 1
 1837 0146 2046     		mov	r0, r4
 1838 0148 FFF7FEFF 		bl	lv_indev_get_type
 1839              	.LVL244:
 1840 014c 0328     		cmp	r0, #3
 1841 014e 00F02881 		beq	.L144
 1842              	.LVL245:
 1843              	.L145:
 785:..\..\..\lvgl\version_6.1.2\lvgl\src\lv_objx/lv_btnm.c ****             if(button_is_click_trig(ext->ctrl_bits[ext->btn_id_act]) == false &&
 1844              		.loc 1 785 0 is_stmt 1
 1845 0152 B8F82410 		ldrh	r1, [r8, #36]
 1846 0156 4FF6FF73 		movw	r3, #65535
 1847 015a 9942     		cmp	r1, r3
 1848 015c 80D0     		beq	.L240
 786:..\..\..\lvgl\version_6.1.2\lvgl\src\lv_objx/lv_btnm.c ****                button_is_inactive(ext->ctrl_bits[ext->btn_id_act]) == false &&
 1849              		.loc 1 786 0
 1850 015e D8F80830 		ldr	r3, [r8, #8]
 787:..\..\..\lvgl\version_6.1.2\lvgl\src\lv_objx/lv_btnm.c ****                button_is_hidden(ext->ctrl_bits[ext->btn_id_act]) == false) {
 1851              		.loc 1 787 0
 1852 0162 33F81130 		ldrh	r3, [r3, r1, lsl #1]
 1853 0166 03F49473 		and	r3, r3, #296
 1854 016a 002B     		cmp	r3, #0
 1855 016c 7FF478AF 		bne	.L240
 1856 0170 CCE7     		b	.L238
 1857              	.LVL246:
 1858              	.L248:
 1859              	.LBE381:
 1860              	.LBB407:
 796:..\..\..\lvgl\version_6.1.2\lvgl\src\lv_objx/lv_btnm.c ****         btn_pr = get_button_from_point(btnm, &p);
 1861              		.loc 1 796 0
 1862 0172 0DF10809 		add	r9, sp, #8
 1863 0176 4946     		mov	r1, r9
 1864 0178 3046     		mov	r0, r6
 1865              	.LVL247:
 1866 017a FFF7FEFF 		bl	lv_indev_get_point
 1867              	.LVL248:
 1868              	.LBB408:
 1869              	.LBB409:
1050:..\..\..\lvgl\version_6.1.2\lvgl\src\lv_objx/lv_btnm.c ****     uint16_t i;
 1870              		.loc 1 1050 0
 1871 017e 2846     		mov	r0, r5
 1872 0180 FFF7FEFF 		bl	lv_obj_get_ext_attr
 1873              	.LVL249:
1052:..\..\..\lvgl\version_6.1.2\lvgl\src\lv_objx/lv_btnm.c **** 
 1874              		.loc 1 1052 0
 1875 0184 04AB     		add	r3, sp, #16
1050:..\..\..\lvgl\version_6.1.2\lvgl\src\lv_objx/lv_btnm.c ****     uint16_t i;
 1876              		.loc 1 1050 0
 1877 0186 8346     		mov	fp, r0
 1878              	.LVL250:
ARM GAS  C:\Users\pearlstl\AppData\Local\Temp\ccUkXBYk.s 			page 61


1052:..\..\..\lvgl\version_6.1.2\lvgl\src\lv_objx/lv_btnm.c **** 
 1879              		.loc 1 1052 0
 1880 0188 1946     		mov	r1, r3
 1881 018a 2846     		mov	r0, r5
 1882              	.LVL251:
 1883 018c 0193     		str	r3, [sp, #4]
 1884 018e FFF7FEFF 		bl	lv_obj_get_coords
 1885              	.LVL252:
1054:..\..\..\lvgl\version_6.1.2\lvgl\src\lv_objx/lv_btnm.c ****         lv_area_copy(&btn_area, &ext->button_areas[i]);
 1886              		.loc 1 1054 0
 1887 0192 BBF82030 		ldrh	r3, [fp, #32]
 1888 0196 002B     		cmp	r3, #0
 1889 0198 00F0AF81 		beq	.L157
 1890 019c 0027     		movs	r7, #0
 1891 019e 0DF1180A 		add	r10, sp, #24
 1892 01a2 02E0     		b	.L156
 1893              	.LVL253:
 1894              	.L255:
 1895 01a4 97B2     		uxth	r7, r2
 1896              	.LVL254:
 1897 01a6 9F42     		cmp	r7, r3
 1898 01a8 28D2     		bcs	.L155
 1899              	.LVL255:
 1900              	.L156:
 1901              	.LBB410:
 1902              	.LBB411:
  78:..\..\..\lvgl\version_6.1.2\lvgl\src\lv_objx\../lv_core/../lv_misc/lv_area.h **** }
 1903              		.loc 2 78 0
 1904 01aa DBF80420 		ldr	r2, [fp, #4]
 1905              	.LBE411:
 1906              	.LBE410:
1056:..\..\..\lvgl\version_6.1.2\lvgl\src\lv_objx/lv_btnm.c ****         btn_area.y1 += btnm_cords.y1;
 1907              		.loc 1 1056 0
 1908 01ae BDF810E0 		ldrh	lr, [sp, #16]
 1909              	.LBB413:
 1910              	.LBB412:
  78:..\..\..\lvgl\version_6.1.2\lvgl\src\lv_objx\../lv_core/../lv_misc/lv_area.h **** }
 1911              		.loc 2 78 0
 1912 01b2 02EBC702 		add	r2, r2, r7, lsl #3
 1913 01b6 5346     		mov	r3, r10
 1914 01b8 1068     		ldr	r0, [r2]	@ unaligned
 1915 01ba 5168     		ldr	r1, [r2, #4]	@ unaligned
 1916 01bc 03C3     		stmia	r3!, {r0, r1}
 1917              	.LVL256:
 1918              	.LBE412:
 1919              	.LBE413:
1056:..\..\..\lvgl\version_6.1.2\lvgl\src\lv_objx/lv_btnm.c ****         btn_area.y1 += btnm_cords.y1;
 1920              		.loc 1 1056 0
 1921 01be BDF81810 		ldrh	r1, [sp, #24]
1057:..\..\..\lvgl\version_6.1.2\lvgl\src\lv_objx/lv_btnm.c ****         btn_area.x2 += btnm_cords.x1;
 1922              		.loc 1 1057 0
 1923 01c2 BDF81200 		ldrh	r0, [sp, #18]
1058:..\..\..\lvgl\version_6.1.2\lvgl\src\lv_objx/lv_btnm.c ****         btn_area.y2 += btnm_cords.y1;
 1924              		.loc 1 1058 0
 1925 01c6 BDF81CC0 		ldrh	ip, [sp, #28]
1057:..\..\..\lvgl\version_6.1.2\lvgl\src\lv_objx/lv_btnm.c ****         btn_area.x2 += btnm_cords.x1;
 1926              		.loc 1 1057 0
ARM GAS  C:\Users\pearlstl\AppData\Local\Temp\ccUkXBYk.s 			page 62


 1927 01ca BDF81A20 		ldrh	r2, [sp, #26]
1059:..\..\..\lvgl\version_6.1.2\lvgl\src\lv_objx/lv_btnm.c ****         if(lv_area_is_point_on(&btn_area, p) != false) {
 1928              		.loc 1 1059 0
 1929 01ce BDF81E30 		ldrh	r3, [sp, #30]
1056:..\..\..\lvgl\version_6.1.2\lvgl\src\lv_objx/lv_btnm.c ****         btn_area.y1 += btnm_cords.y1;
 1930              		.loc 1 1056 0
 1931 01d2 7144     		add	r1, r1, lr
1057:..\..\..\lvgl\version_6.1.2\lvgl\src\lv_objx/lv_btnm.c ****         btn_area.x2 += btnm_cords.x1;
 1932              		.loc 1 1057 0
 1933 01d4 0244     		add	r2, r2, r0
1059:..\..\..\lvgl\version_6.1.2\lvgl\src\lv_objx/lv_btnm.c ****         if(lv_area_is_point_on(&btn_area, p) != false) {
 1934              		.loc 1 1059 0
 1935 01d6 0344     		add	r3, r3, r0
1058:..\..\..\lvgl\version_6.1.2\lvgl\src\lv_objx/lv_btnm.c ****         btn_area.y2 += btnm_cords.y1;
 1936              		.loc 1 1058 0
 1937 01d8 E644     		add	lr, lr, ip
1056:..\..\..\lvgl\version_6.1.2\lvgl\src\lv_objx/lv_btnm.c ****         btn_area.y1 += btnm_cords.y1;
 1938              		.loc 1 1056 0
 1939 01da ADF81810 		strh	r1, [sp, #24]	@ movhi
1060:..\..\..\lvgl\version_6.1.2\lvgl\src\lv_objx/lv_btnm.c ****             break;
 1940              		.loc 1 1060 0
 1941 01de 5046     		mov	r0, r10
 1942 01e0 4946     		mov	r1, r9
1057:..\..\..\lvgl\version_6.1.2\lvgl\src\lv_objx/lv_btnm.c ****         btn_area.x2 += btnm_cords.x1;
 1943              		.loc 1 1057 0
 1944 01e2 ADF81A20 		strh	r2, [sp, #26]	@ movhi
1059:..\..\..\lvgl\version_6.1.2\lvgl\src\lv_objx/lv_btnm.c ****         if(lv_area_is_point_on(&btn_area, p) != false) {
 1945              		.loc 1 1059 0
 1946 01e6 ADF81E30 		strh	r3, [sp, #30]	@ movhi
1058:..\..\..\lvgl\version_6.1.2\lvgl\src\lv_objx/lv_btnm.c ****         btn_area.y2 += btnm_cords.y1;
 1947              		.loc 1 1058 0
 1948 01ea ADF81CE0 		strh	lr, [sp, #28]	@ movhi
1060:..\..\..\lvgl\version_6.1.2\lvgl\src\lv_objx/lv_btnm.c ****             break;
 1949              		.loc 1 1060 0
 1950 01ee FFF7FEFF 		bl	lv_area_is_point_on
 1951              	.LVL257:
1054:..\..\..\lvgl\version_6.1.2\lvgl\src\lv_objx/lv_btnm.c ****         lv_area_copy(&btn_area, &ext->button_areas[i]);
 1952              		.loc 1 1054 0
 1953 01f2 7A1C     		adds	r2, r7, #1
 1954 01f4 BBF82030 		ldrh	r3, [fp, #32]
1060:..\..\..\lvgl\version_6.1.2\lvgl\src\lv_objx/lv_btnm.c ****             break;
 1955              		.loc 1 1060 0
 1956 01f8 0028     		cmp	r0, #0
 1957 01fa D3D0     		beq	.L255
 1958              	.L155:
1065:..\..\..\lvgl\version_6.1.2\lvgl\src\lv_objx/lv_btnm.c **** 
 1959              		.loc 1 1065 0
 1960 01fc 9F42     		cmp	r7, r3
 1961 01fe 00F07C81 		beq	.L157
 1962              	.LVL258:
 1963              	.L153:
 1964              	.LBE409:
 1965              	.LBE408:
 799:..\..\..\lvgl\version_6.1.2\lvgl\src\lv_objx/lv_btnm.c ****             lv_indev_reset_long_press(param); /*Start the log press time again on the new button*/
 1966              		.loc 1 799 0
 1967 0202 B8F82230 		ldrh	r3, [r8, #34]
 1968 0206 BB42     		cmp	r3, r7
ARM GAS  C:\Users\pearlstl\AppData\Local\Temp\ccUkXBYk.s 			page 63


 1969 0208 45D0     		beq	.L159
 800:..\..\..\lvgl\version_6.1.2\lvgl\src\lv_objx/lv_btnm.c ****             if(ext->btn_id_pr != LV_BTNM_BTN_NONE) {
 1970              		.loc 1 800 0
 1971 020a 3046     		mov	r0, r6
 1972 020c FFF7FEFF 		bl	lv_indev_reset_long_press
 1973              	.LVL259:
 801:..\..\..\lvgl\version_6.1.2\lvgl\src\lv_objx/lv_btnm.c ****                 invalidate_button_area(btnm, ext->btn_id_pr);
 1974              		.loc 1 801 0
 1975 0210 B8F82260 		ldrh	r6, [r8, #34]
 1976              	.LVL260:
 1977 0214 4FF6FF73 		movw	r3, #65535
 1978 0218 9E42     		cmp	r6, r3
 1979 021a 2BD0     		beq	.L160
 1980              	.LVL261:
 1981              	.LBB415:
 1982              	.LBB416:
 1983              	.LBB417:
 1984              	.LBB418:
1077:..\..\..\lvgl\version_6.1.2\lvgl\src\lv_objx/lv_btnm.c ****     lv_area_copy(&btn_area, &ext->button_areas[btn_idx]);
 1985              		.loc 1 1077 0
 1986 021c 2846     		mov	r0, r5
 1987 021e FFF7FEFF 		bl	lv_obj_get_ext_attr
 1988              	.LVL262:
 1989              	.LBB419:
 1990              	.LBB420:
  78:..\..\..\lvgl\version_6.1.2\lvgl\src\lv_objx\../lv_core/../lv_misc/lv_area.h **** }
 1991              		.loc 2 78 0
 1992 0222 4368     		ldr	r3, [r0, #4]
 1993 0224 DDF80490 		ldr	r9, [sp, #4]
 1994 0228 03EBC606 		add	r6, r3, r6, lsl #3
 1995              	.LVL263:
 1996 022c 4B46     		mov	r3, r9
 1997 022e 3068     		ldr	r0, [r6]	@ unaligned
 1998              	.LVL264:
 1999 0230 7168     		ldr	r1, [r6, #4]	@ unaligned
 2000 0232 03C3     		stmia	r3!, {r0, r1}
 2001              	.LVL265:
 2002              	.LBE420:
 2003              	.LBE419:
1079:..\..\..\lvgl\version_6.1.2\lvgl\src\lv_objx/lv_btnm.c **** 
 2004              		.loc 1 1079 0
 2005 0234 06A9     		add	r1, sp, #24
 2006 0236 2846     		mov	r0, r5
 2007 0238 FFF7FEFF 		bl	lv_obj_get_coords
 2008              	.LVL266:
1084:..\..\..\lvgl\version_6.1.2\lvgl\src\lv_objx/lv_btnm.c ****     btn_area.y2 += btnm_area.y1;
 2009              		.loc 1 1084 0
 2010 023c BDF81410 		ldrh	r1, [sp, #20]
1082:..\..\..\lvgl\version_6.1.2\lvgl\src\lv_objx/lv_btnm.c ****     btn_area.y1 += btnm_area.y1;
 2011              		.loc 1 1082 0
 2012 0240 BDF81800 		ldrh	r0, [sp, #24]
 2013 0244 BDF81060 		ldrh	r6, [sp, #16]
1083:..\..\..\lvgl\version_6.1.2\lvgl\src\lv_objx/lv_btnm.c ****     btn_area.x2 += btnm_area.x1;
 2014              		.loc 1 1083 0
 2015 0248 BDF81AE0 		ldrh	lr, [sp, #26]
 2016 024c BDF81220 		ldrh	r2, [sp, #18]
1085:..\..\..\lvgl\version_6.1.2\lvgl\src\lv_objx/lv_btnm.c **** 
ARM GAS  C:\Users\pearlstl\AppData\Local\Temp\ccUkXBYk.s 			page 64


 2017              		.loc 1 1085 0
 2018 0250 BDF81630 		ldrh	r3, [sp, #22]
1082:..\..\..\lvgl\version_6.1.2\lvgl\src\lv_objx/lv_btnm.c ****     btn_area.y1 += btnm_area.y1;
 2019              		.loc 1 1082 0
 2020 0254 0644     		add	r6, r6, r0
1084:..\..\..\lvgl\version_6.1.2\lvgl\src\lv_objx/lv_btnm.c ****     btn_area.y2 += btnm_area.y1;
 2021              		.loc 1 1084 0
 2022 0256 0844     		add	r0, r0, r1
1083:..\..\..\lvgl\version_6.1.2\lvgl\src\lv_objx/lv_btnm.c ****     btn_area.x2 += btnm_area.x1;
 2023              		.loc 1 1083 0
 2024 0258 7244     		add	r2, r2, lr
1085:..\..\..\lvgl\version_6.1.2\lvgl\src\lv_objx/lv_btnm.c **** 
 2025              		.loc 1 1085 0
 2026 025a 7344     		add	r3, r3, lr
1084:..\..\..\lvgl\version_6.1.2\lvgl\src\lv_objx/lv_btnm.c ****     btn_area.y2 += btnm_area.y1;
 2027              		.loc 1 1084 0
 2028 025c ADF81400 		strh	r0, [sp, #20]	@ movhi
1087:..\..\..\lvgl\version_6.1.2\lvgl\src\lv_objx/lv_btnm.c **** }
 2029              		.loc 1 1087 0
 2030 0260 4946     		mov	r1, r9
 2031 0262 2846     		mov	r0, r5
1082:..\..\..\lvgl\version_6.1.2\lvgl\src\lv_objx/lv_btnm.c ****     btn_area.y1 += btnm_area.y1;
 2032              		.loc 1 1082 0
 2033 0264 ADF81060 		strh	r6, [sp, #16]	@ movhi
1083:..\..\..\lvgl\version_6.1.2\lvgl\src\lv_objx/lv_btnm.c ****     btn_area.x2 += btnm_area.x1;
 2034              		.loc 1 1083 0
 2035 0268 ADF81220 		strh	r2, [sp, #18]	@ movhi
1085:..\..\..\lvgl\version_6.1.2\lvgl\src\lv_objx/lv_btnm.c **** 
 2036              		.loc 1 1085 0
 2037 026c ADF81630 		strh	r3, [sp, #22]	@ movhi
1087:..\..\..\lvgl\version_6.1.2\lvgl\src\lv_objx/lv_btnm.c **** }
 2038              		.loc 1 1087 0
 2039 0270 FFF7FEFF 		bl	lv_obj_invalidate_area
 2040              	.LVL267:
 2041              	.L160:
 2042              	.LBE418:
 2043              	.LBE417:
 2044              	.LBE416:
 2045              	.LBE415:
 804:..\..\..\lvgl\version_6.1.2\lvgl\src\lv_objx/lv_btnm.c ****                 uint32_t b = ext->btn_id_act;
 2046              		.loc 1 804 0
 2047 0274 4FF6FF73 		movw	r3, #65535
 2048 0278 9F42     		cmp	r7, r3
 2049 027a 0CD0     		beq	.L159
 2050              	.LBB421:
 805:..\..\..\lvgl\version_6.1.2\lvgl\src\lv_objx/lv_btnm.c ****                 res        = lv_event_send(btnm, LV_EVENT_VALUE_CHANGED, &b);
 2051              		.loc 1 805 0
 2052 027c 08AA     		add	r2, sp, #32
 2053 027e B8F82430 		ldrh	r3, [r8, #36]
 2054 0282 42F8143D 		str	r3, [r2, #-20]!
 806:..\..\..\lvgl\version_6.1.2\lvgl\src\lv_objx/lv_btnm.c ****                 if(res == LV_RES_OK) {
 2055              		.loc 1 806 0
 2056 0286 0E21     		movs	r1, #14
 2057 0288 2846     		mov	r0, r5
 2058 028a FFF7FEFF 		bl	lv_event_send
 2059              	.LVL268:
 807:..\..\..\lvgl\version_6.1.2\lvgl\src\lv_objx/lv_btnm.c ****                     invalidate_button_area(btnm, btn_pr);
ARM GAS  C:\Users\pearlstl\AppData\Local\Temp\ccUkXBYk.s 			page 65


 2060              		.loc 1 807 0
 2061 028e 0128     		cmp	r0, #1
 806:..\..\..\lvgl\version_6.1.2\lvgl\src\lv_objx/lv_btnm.c ****                 if(res == LV_RES_OK) {
 2062              		.loc 1 806 0
 2063 0290 0446     		mov	r4, r0
 2064              	.LVL269:
 807:..\..\..\lvgl\version_6.1.2\lvgl\src\lv_objx/lv_btnm.c ****                     invalidate_button_area(btnm, btn_pr);
 2065              		.loc 1 807 0
 2066 0292 00F01182 		beq	.L256
 2067              	.LVL270:
 2068              	.L159:
 2069              	.LBE421:
 813:..\..\..\lvgl\version_6.1.2\lvgl\src\lv_objx/lv_btnm.c ****         ext->btn_id_act = btn_pr;
 2070              		.loc 1 813 0
 2071 0296 A8F82270 		strh	r7, [r8, #34]	@ movhi
 814:..\..\..\lvgl\version_6.1.2\lvgl\src\lv_objx/lv_btnm.c ****     } else if(sign == LV_SIGNAL_RELEASED) {
 2072              		.loc 1 814 0
 2073 029a A8F82470 		strh	r7, [r8, #36]	@ movhi
 2074              	.LBE407:
 2075 029e 2046     		mov	r0, r4
 2076 02a0 BAE6     		b	.L234
 2077              	.LVL271:
 2078              	.L164:
 2079              	.LBB430:
 2080              	.LBB379:
 2081              	.LBB375:
 2082              	.LBB376:
1077:..\..\..\lvgl\version_6.1.2\lvgl\src\lv_objx/lv_btnm.c ****     lv_area_copy(&btn_area, &ext->button_areas[btn_idx]);
 2083              		.loc 1 1077 0
 2084 02a2 2846     		mov	r0, r5
 2085 02a4 FFF7FEFF 		bl	lv_obj_get_ext_attr
 2086              	.LVL272:
 2087              	.LBB377:
 2088              	.LBB378:
  78:..\..\..\lvgl\version_6.1.2\lvgl\src\lv_objx\../lv_core/../lv_misc/lv_area.h **** }
 2089              		.loc 2 78 0
 2090 02a8 4368     		ldr	r3, [r0, #4]
 2091 02aa 03EBC404 		add	r4, r3, r4, lsl #3
 2092              	.LVL273:
 2093 02ae 04AB     		add	r3, sp, #16
 2094              	.LVL274:
 2095 02b0 2068     		ldr	r0, [r4]	@ unaligned
 2096              	.LVL275:
 2097 02b2 6168     		ldr	r1, [r4, #4]	@ unaligned
 2098 02b4 03C3     		stmia	r3!, {r0, r1}
 2099              	.LVL276:
 2100              	.LBE378:
 2101              	.LBE377:
1079:..\..\..\lvgl\version_6.1.2\lvgl\src\lv_objx/lv_btnm.c **** 
 2102              		.loc 1 1079 0
 2103 02b6 06A9     		add	r1, sp, #24
 2104 02b8 2846     		mov	r0, r5
 2105 02ba FFF7FEFF 		bl	lv_obj_get_coords
 2106              	.LVL277:
1084:..\..\..\lvgl\version_6.1.2\lvgl\src\lv_objx/lv_btnm.c ****     btn_area.y2 += btnm_area.y1;
 2107              		.loc 1 1084 0
 2108 02be BDF81400 		ldrh	r0, [sp, #20]
ARM GAS  C:\Users\pearlstl\AppData\Local\Temp\ccUkXBYk.s 			page 66


1082:..\..\..\lvgl\version_6.1.2\lvgl\src\lv_objx/lv_btnm.c ****     btn_area.y1 += btnm_area.y1;
 2109              		.loc 1 1082 0
 2110 02c2 BDF81840 		ldrh	r4, [sp, #24]
 2111 02c6 BDF81060 		ldrh	r6, [sp, #16]
1083:..\..\..\lvgl\version_6.1.2\lvgl\src\lv_objx/lv_btnm.c ****     btn_area.x2 += btnm_area.x1;
 2112              		.loc 1 1083 0
 2113 02ca BDF81A70 		ldrh	r7, [sp, #26]
 2114 02ce BDF81220 		ldrh	r2, [sp, #18]
1085:..\..\..\lvgl\version_6.1.2\lvgl\src\lv_objx/lv_btnm.c **** 
 2115              		.loc 1 1085 0
 2116 02d2 BDF81630 		ldrh	r3, [sp, #22]
1082:..\..\..\lvgl\version_6.1.2\lvgl\src\lv_objx/lv_btnm.c ****     btn_area.y1 += btnm_area.y1;
 2117              		.loc 1 1082 0
 2118 02d6 2644     		add	r6, r6, r4
1083:..\..\..\lvgl\version_6.1.2\lvgl\src\lv_objx/lv_btnm.c ****     btn_area.x2 += btnm_area.x1;
 2119              		.loc 1 1083 0
 2120 02d8 3A44     		add	r2, r2, r7
1084:..\..\..\lvgl\version_6.1.2\lvgl\src\lv_objx/lv_btnm.c ****     btn_area.y2 += btnm_area.y1;
 2121              		.loc 1 1084 0
 2122 02da 0444     		add	r4, r4, r0
1085:..\..\..\lvgl\version_6.1.2\lvgl\src\lv_objx/lv_btnm.c **** 
 2123              		.loc 1 1085 0
 2124 02dc 3B44     		add	r3, r3, r7
1087:..\..\..\lvgl\version_6.1.2\lvgl\src\lv_objx/lv_btnm.c **** }
 2125              		.loc 1 1087 0
 2126 02de 04A9     		add	r1, sp, #16
 2127 02e0 2846     		mov	r0, r5
1082:..\..\..\lvgl\version_6.1.2\lvgl\src\lv_objx/lv_btnm.c ****     btn_area.y1 += btnm_area.y1;
 2128              		.loc 1 1082 0
 2129 02e2 ADF81060 		strh	r6, [sp, #16]	@ movhi
1084:..\..\..\lvgl\version_6.1.2\lvgl\src\lv_objx/lv_btnm.c ****     btn_area.y2 += btnm_area.y1;
 2130              		.loc 1 1084 0
 2131 02e6 ADF81440 		strh	r4, [sp, #20]	@ movhi
1083:..\..\..\lvgl\version_6.1.2\lvgl\src\lv_objx/lv_btnm.c ****     btn_area.x2 += btnm_area.x1;
 2132              		.loc 1 1083 0
 2133 02ea ADF81220 		strh	r2, [sp, #18]	@ movhi
1085:..\..\..\lvgl\version_6.1.2\lvgl\src\lv_objx/lv_btnm.c **** 
 2134              		.loc 1 1085 0
 2135 02ee ADF81630 		strh	r3, [sp, #22]	@ movhi
1087:..\..\..\lvgl\version_6.1.2\lvgl\src\lv_objx/lv_btnm.c **** }
 2136              		.loc 1 1087 0
 2137 02f2 FFF7FEFF 		bl	lv_obj_invalidate_area
 2138              	.LVL278:
 2139 02f6 FAE6     		b	.L176
 2140              	.L264:
 2141              		.align	2
 2142              	.L263:
 2143 02f8 00000000 		.word	.LANCHOR0
 2144 02fc 04000000 		.word	.LC1
 2145              	.LVL279:
 2146              	.L252:
 2147              	.LBE376:
 2148              	.LBE375:
 2149              	.LBE379:
 2150              	.LBE430:
 2151              	.LBB431:
 895:..\..\..\lvgl\version_6.1.2\lvgl\src\lv_objx/lv_btnm.c ****         if(c == LV_KEY_RIGHT) {
ARM GAS  C:\Users\pearlstl\AppData\Local\Temp\ccUkXBYk.s 			page 67


 2152              		.loc 1 895 0
 2153 0300 3378     		ldrb	r3, [r6]	@ zero_extendqisi2
 2154              	.LVL280:
 896:..\..\..\lvgl\version_6.1.2\lvgl\src\lv_objx/lv_btnm.c ****             if(ext->btn_id_pr == LV_BTNM_BTN_NONE)
 2155              		.loc 1 896 0
 2156 0302 132B     		cmp	r3, #19
 2157 0304 00F00781 		beq	.L257
 904:..\..\..\lvgl\version_6.1.2\lvgl\src\lv_objx/lv_btnm.c ****             if(ext->btn_id_pr == LV_BTNM_BTN_NONE) ext->btn_id_pr = 0;
 2158              		.loc 1 904 0
 2159 0308 142B     		cmp	r3, #20
 2160 030a 00F01981 		beq	.L258
 909:..\..\..\lvgl\version_6.1.2\lvgl\src\lv_objx/lv_btnm.c ****             const lv_style_t * style = lv_btnm_get_style(btnm, LV_BTNM_STYLE_BG);
 2161              		.loc 1 909 0
 2162 030e 122B     		cmp	r3, #18
 2163 0310 00F00382 		beq	.L259
 931:..\..\..\lvgl\version_6.1.2\lvgl\src\lv_objx/lv_btnm.c ****             const lv_style_t * style = lv_btnm_get_style(btnm, LV_BTNM_STYLE_BG);
 2164              		.loc 1 931 0
 2165 0314 112B     		cmp	r3, #17
 2166 0316 7FF4A3AE 		bne	.L240
 2167              	.LVL281:
 2168              	.LBB432:
 2169              	.LBB433:
 2170              	.LBB434:
 603:..\..\..\lvgl\version_6.1.2\lvgl\src\lv_objx/lv_btnm.c **** 
 2171              		.loc 1 603 0
 2172 031a 2846     		mov	r0, r5
 2173              	.LVL282:
 2174 031c FFF7FEFF 		bl	lv_obj_get_ext_attr
 2175              	.LVL283:
 606:..\..\..\lvgl\version_6.1.2\lvgl\src\lv_objx/lv_btnm.c ****         case LV_BTNM_STYLE_BTN_REL: style = ext->styles_btn[LV_BTN_STATE_REL]; break;
 2176              		.loc 1 606 0
 2177 0320 2846     		mov	r0, r5
 2178 0322 FFF7FEFF 		bl	lv_obj_get_style
 2179              	.LVL284:
 2180              	.LBE434:
 2181              	.LBE433:
 934:..\..\..\lvgl\version_6.1.2\lvgl\src\lv_objx/lv_btnm.c ****                 ext->btn_id_pr = 0;
 2182              		.loc 1 934 0
 2183 0326 B8F82230 		ldrh	r3, [r8, #34]
 2184 032a 4FF6FF72 		movw	r2, #65535
 2185 032e 9342     		cmp	r3, r2
 2186 0330 00F0B381 		beq	.L243
 2187              	.LBB435:
 939:..\..\..\lvgl\version_6.1.2\lvgl\src\lv_objx/lv_btnm.c **** 
 2188              		.loc 1 939 0
 2189 0334 D8F80470 		ldr	r7, [r8, #4]
 2190 0338 07EBC301 		add	r1, r7, r3, lsl #3
 938:..\..\..\lvgl\version_6.1.2\lvgl\src\lv_objx/lv_btnm.c ****                     ext->button_areas[ext->btn_id_pr].x1 + (lv_area_get_width(&ext->button_areas[ex
 2191              		.loc 1 938 0
 2192 033c 37F833E0 		ldrh	lr, [r7, r3, lsl #3]
 2193              	.LVL285:
 2194 0340 8A88     		ldrh	r2, [r1, #4]
 2195 0342 CEF10104 		rsb	r4, lr, #1
 2196 0346 2244     		add	r2, r2, r4
 2197 0348 42F34E02 		sbfx	r2, r2, #1, #15
 941:..\..\..\lvgl\version_6.1.2\lvgl\src\lv_objx/lv_btnm.c ****                     if(ext->button_areas[area_above].y1 < ext->button_areas[ext->btn_id_pr].y1 &&
 2198              		.loc 1 941 0
ARM GAS  C:\Users\pearlstl\AppData\Local\Temp\ccUkXBYk.s 			page 68


 2199 034c 1BB2     		sxth	r3, r3
 938:..\..\..\lvgl\version_6.1.2\lvgl\src\lv_objx/lv_btnm.c ****                     ext->button_areas[ext->btn_id_pr].x1 + (lv_area_get_width(&ext->button_areas[ex
 2200              		.loc 1 938 0
 2201 034e 9644     		add	lr, lr, r2
 941:..\..\..\lvgl\version_6.1.2\lvgl\src\lv_objx/lv_btnm.c ****                     if(ext->button_areas[area_above].y1 < ext->button_areas[ext->btn_id_pr].y1 &&
 2202              		.loc 1 941 0
 2203 0350 002B     		cmp	r3, #0
 938:..\..\..\lvgl\version_6.1.2\lvgl\src\lv_objx/lv_btnm.c ****                     ext->button_areas[ext->btn_id_pr].x1 + (lv_area_get_width(&ext->button_areas[ex
 2204              		.loc 1 938 0
 2205 0352 0FFA8EFE 		sxth	lr, lr
 2206              	.LVL286:
 941:..\..\..\lvgl\version_6.1.2\lvgl\src\lv_objx/lv_btnm.c ****                     if(ext->button_areas[area_above].y1 < ext->button_areas[ext->btn_id_pr].y1 &&
 2207              		.loc 1 941 0
 2208 0356 17DB     		blt	.L195
 2209 0358 B1F902C0 		ldrsh	ip, [r1, #2]
 2210              	.LVL287:
 2211              	.L198:
 942:..\..\..\lvgl\version_6.1.2\lvgl\src\lv_objx/lv_btnm.c ****                        pr_center >= ext->button_areas[area_above].x1 - style->body.padding.inner &&
 2212              		.loc 1 942 0
 2213 035c 07EBC302 		add	r2, r7, r3, lsl #3
 2214 0360 591E     		subs	r1, r3, #1
 2215 0362 B2F90240 		ldrsh	r4, [r2, #2]
 2216 0366 6445     		cmp	r4, ip
 2217 0368 0BDA     		bge	.L196
 942:..\..\..\lvgl\version_6.1.2\lvgl\src\lv_objx/lv_btnm.c ****                        pr_center >= ext->button_areas[area_above].x1 - style->body.padding.inner &&
 2218              		.loc 1 942 0 is_stmt 0 discriminator 1
 2219 036a 37F93340 		ldrsh	r4, [r7, r3, lsl #3]
 2220 036e B0F92860 		ldrsh	r6, [r0, #40]
 2221 0372 A41B     		subs	r4, r4, r6
 2222 0374 A645     		cmp	lr, r4
 2223 0376 04DB     		blt	.L196
 943:..\..\..\lvgl\version_6.1.2\lvgl\src\lv_objx/lv_btnm.c ****                        pr_center <= ext->button_areas[area_above].x2) {
 2224              		.loc 1 943 0 is_stmt 1
 2225 0378 B2F90420 		ldrsh	r2, [r2, #4]
 2226 037c 7245     		cmp	r2, lr
 2227 037e 80F28D81 		bge	.L242
 2228              	.L196:
 2229 0382 0BB2     		sxth	r3, r1
 2230              	.LVL288:
 941:..\..\..\lvgl\version_6.1.2\lvgl\src\lv_objx/lv_btnm.c ****                     if(ext->button_areas[area_above].y1 < ext->button_areas[ext->btn_id_pr].y1 &&
 2231              		.loc 1 941 0 discriminator 2
 2232 0384 5A1C     		adds	r2, r3, #1
 2233 0386 E9D1     		bne	.L198
 2234              	.LVL289:
 2235              	.L195:
 2236              	.LBE435:
 950:..\..\..\lvgl\version_6.1.2\lvgl\src\lv_objx/lv_btnm.c ****             lv_obj_invalidate(btnm);
 2237              		.loc 1 950 0
 2238 0388 B8F82230 		ldrh	r3, [r8, #34]
 2239              	.L241:
 2240 038c A8F82430 		strh	r3, [r8, #36]	@ movhi
 951:..\..\..\lvgl\version_6.1.2\lvgl\src\lv_objx/lv_btnm.c ****         }
 2241              		.loc 1 951 0
 2242 0390 2846     		mov	r0, r5
 2243 0392 FFF7FEFF 		bl	lv_obj_invalidate
 2244              	.LVL290:
 2245 0396 0120     		movs	r0, #1
ARM GAS  C:\Users\pearlstl\AppData\Local\Temp\ccUkXBYk.s 			page 69


 2246 0398 3EE6     		b	.L234
 2247              	.LVL291:
 2248              	.L253:
 2249              	.LBE432:
 2250              	.LBE431:
 2251              	.LBB443:
