ARM GAS  C:\Users\pearlstl\AppData\Local\Temp\ccbEAAPX.s 			page 1


   1              		.syntax unified
   2              		.cpu cortex-m4
   3              		.eabi_attribute 27, 1
   4              		.fpu fpv4-sp-d16
   5              		.eabi_attribute 20, 1
   6              		.eabi_attribute 21, 1
   7              		.eabi_attribute 23, 3
   8              		.eabi_attribute 24, 1
   9              		.eabi_attribute 25, 1
  10              		.eabi_attribute 26, 1
  11              		.eabi_attribute 30, 2
  12              		.eabi_attribute 34, 1
  13              		.eabi_attribute 18, 4
  14              		.thumb
  15              		.syntax unified
  16              		.file	"lv_btn.c"
  17              		.text
  18              	.Ltext0:
  19              		.cfi_sections	.debug_frame
  20              		.section	.text.lv_btn_design,"ax",%progbits
  21              		.align	2
  22              		.thumb
  23              		.thumb_func
  24              		.type	lv_btn_design, %function
  25              	lv_btn_design:
  26              	.LFB58:
  27              		.file 1 "..\\..\\..\\lvgl\\version_6.1.2\\lvgl\\src\\lv_objx\\lv_btn.c"
   1:..\..\..\lvgl\version_6.1.2\lvgl\src\lv_objx/lv_btn.c **** /**
   2:..\..\..\lvgl\version_6.1.2\lvgl\src\lv_objx/lv_btn.c ****  * @file lv_btn.c
   3:..\..\..\lvgl\version_6.1.2\lvgl\src\lv_objx/lv_btn.c ****  *
   4:..\..\..\lvgl\version_6.1.2\lvgl\src\lv_objx/lv_btn.c ****  */
   5:..\..\..\lvgl\version_6.1.2\lvgl\src\lv_objx/lv_btn.c **** 
   6:..\..\..\lvgl\version_6.1.2\lvgl\src\lv_objx/lv_btn.c **** /*********************
   7:..\..\..\lvgl\version_6.1.2\lvgl\src\lv_objx/lv_btn.c ****  *      INCLUDES
   8:..\..\..\lvgl\version_6.1.2\lvgl\src\lv_objx/lv_btn.c ****  *********************/
   9:..\..\..\lvgl\version_6.1.2\lvgl\src\lv_objx/lv_btn.c **** 
  10:..\..\..\lvgl\version_6.1.2\lvgl\src\lv_objx/lv_btn.c **** #include "lv_btn.h"
  11:..\..\..\lvgl\version_6.1.2\lvgl\src\lv_objx/lv_btn.c **** #if LV_USE_BTN != 0
  12:..\..\..\lvgl\version_6.1.2\lvgl\src\lv_objx/lv_btn.c **** 
  13:..\..\..\lvgl\version_6.1.2\lvgl\src\lv_objx/lv_btn.c **** #include <string.h>
  14:..\..\..\lvgl\version_6.1.2\lvgl\src\lv_objx/lv_btn.c **** #include "../lv_core/lv_group.h"
  15:..\..\..\lvgl\version_6.1.2\lvgl\src\lv_objx/lv_btn.c **** #include "../lv_core/lv_debug.h"
  16:..\..\..\lvgl\version_6.1.2\lvgl\src\lv_objx/lv_btn.c **** #include "../lv_draw/lv_draw.h"
  17:..\..\..\lvgl\version_6.1.2\lvgl\src\lv_objx/lv_btn.c **** #include "../lv_themes/lv_theme.h"
  18:..\..\..\lvgl\version_6.1.2\lvgl\src\lv_objx/lv_btn.c **** #include "../lv_misc/lv_area.h"
  19:..\..\..\lvgl\version_6.1.2\lvgl\src\lv_objx/lv_btn.c **** #include "../lv_misc/lv_color.h"
  20:..\..\..\lvgl\version_6.1.2\lvgl\src\lv_objx/lv_btn.c **** #include "../lv_misc/lv_math.h"
  21:..\..\..\lvgl\version_6.1.2\lvgl\src\lv_objx/lv_btn.c **** 
  22:..\..\..\lvgl\version_6.1.2\lvgl\src\lv_objx/lv_btn.c **** /*********************
  23:..\..\..\lvgl\version_6.1.2\lvgl\src\lv_objx/lv_btn.c ****  *      DEFINES
  24:..\..\..\lvgl\version_6.1.2\lvgl\src\lv_objx/lv_btn.c ****  *********************/
  25:..\..\..\lvgl\version_6.1.2\lvgl\src\lv_objx/lv_btn.c **** #define LV_OBJX_NAME "lv_btn"
  26:..\..\..\lvgl\version_6.1.2\lvgl\src\lv_objx/lv_btn.c **** #define LV_BTN_INK_VALUE_MAX 256
  27:..\..\..\lvgl\version_6.1.2\lvgl\src\lv_objx/lv_btn.c **** #define LV_BTN_INK_VALUE_MAX_SHIFT 8
  28:..\..\..\lvgl\version_6.1.2\lvgl\src\lv_objx/lv_btn.c **** 
  29:..\..\..\lvgl\version_6.1.2\lvgl\src\lv_objx/lv_btn.c **** /**********************
  30:..\..\..\lvgl\version_6.1.2\lvgl\src\lv_objx/lv_btn.c ****  *      TYPEDEFS
ARM GAS  C:\Users\pearlstl\AppData\Local\Temp\ccbEAAPX.s 			page 2


  31:..\..\..\lvgl\version_6.1.2\lvgl\src\lv_objx/lv_btn.c ****  **********************/
  32:..\..\..\lvgl\version_6.1.2\lvgl\src\lv_objx/lv_btn.c **** 
  33:..\..\..\lvgl\version_6.1.2\lvgl\src\lv_objx/lv_btn.c **** /**********************
  34:..\..\..\lvgl\version_6.1.2\lvgl\src\lv_objx/lv_btn.c ****  *  STATIC PROTOTYPES
  35:..\..\..\lvgl\version_6.1.2\lvgl\src\lv_objx/lv_btn.c ****  **********************/
  36:..\..\..\lvgl\version_6.1.2\lvgl\src\lv_objx/lv_btn.c **** static bool lv_btn_design(lv_obj_t * btn, const lv_area_t * mask, lv_design_mode_t mode);
  37:..\..\..\lvgl\version_6.1.2\lvgl\src\lv_objx/lv_btn.c **** static lv_res_t lv_btn_signal(lv_obj_t * btn, lv_signal_t sign, void * param);
  38:..\..\..\lvgl\version_6.1.2\lvgl\src\lv_objx/lv_btn.c **** 
  39:..\..\..\lvgl\version_6.1.2\lvgl\src\lv_objx/lv_btn.c **** #if LV_USE_ANIMATION && LV_BTN_INK_EFFECT
  40:..\..\..\lvgl\version_6.1.2\lvgl\src\lv_objx/lv_btn.c **** static void lv_btn_ink_effect_anim(lv_obj_t * btn, lv_anim_value_t val);
  41:..\..\..\lvgl\version_6.1.2\lvgl\src\lv_objx/lv_btn.c **** static void lv_btn_ink_effect_anim_ready(lv_anim_t * a);
  42:..\..\..\lvgl\version_6.1.2\lvgl\src\lv_objx/lv_btn.c **** #endif
  43:..\..\..\lvgl\version_6.1.2\lvgl\src\lv_objx/lv_btn.c **** 
  44:..\..\..\lvgl\version_6.1.2\lvgl\src\lv_objx/lv_btn.c **** /**********************
  45:..\..\..\lvgl\version_6.1.2\lvgl\src\lv_objx/lv_btn.c ****  *  STATIC VARIABLES
  46:..\..\..\lvgl\version_6.1.2\lvgl\src\lv_objx/lv_btn.c ****  **********************/
  47:..\..\..\lvgl\version_6.1.2\lvgl\src\lv_objx/lv_btn.c **** static lv_signal_cb_t ancestor_signal;
  48:..\..\..\lvgl\version_6.1.2\lvgl\src\lv_objx/lv_btn.c **** static lv_design_cb_t ancestor_design;
  49:..\..\..\lvgl\version_6.1.2\lvgl\src\lv_objx/lv_btn.c **** 
  50:..\..\..\lvgl\version_6.1.2\lvgl\src\lv_objx/lv_btn.c **** #if LV_USE_ANIMATION && LV_BTN_INK_EFFECT
  51:..\..\..\lvgl\version_6.1.2\lvgl\src\lv_objx/lv_btn.c **** static lv_coord_t ink_act_value;
  52:..\..\..\lvgl\version_6.1.2\lvgl\src\lv_objx/lv_btn.c **** static lv_obj_t * ink_obj;
  53:..\..\..\lvgl\version_6.1.2\lvgl\src\lv_objx/lv_btn.c **** static lv_btn_state_t ink_bg_state;
  54:..\..\..\lvgl\version_6.1.2\lvgl\src\lv_objx/lv_btn.c **** static lv_btn_state_t ink_top_state;
  55:..\..\..\lvgl\version_6.1.2\lvgl\src\lv_objx/lv_btn.c **** static bool ink_ready;
  56:..\..\..\lvgl\version_6.1.2\lvgl\src\lv_objx/lv_btn.c **** static bool ink_playback;
  57:..\..\..\lvgl\version_6.1.2\lvgl\src\lv_objx/lv_btn.c **** static lv_point_t ink_point;
  58:..\..\..\lvgl\version_6.1.2\lvgl\src\lv_objx/lv_btn.c **** #endif
  59:..\..\..\lvgl\version_6.1.2\lvgl\src\lv_objx/lv_btn.c **** 
  60:..\..\..\lvgl\version_6.1.2\lvgl\src\lv_objx/lv_btn.c **** /**********************
  61:..\..\..\lvgl\version_6.1.2\lvgl\src\lv_objx/lv_btn.c ****  *      MACROS
  62:..\..\..\lvgl\version_6.1.2\lvgl\src\lv_objx/lv_btn.c ****  **********************/
  63:..\..\..\lvgl\version_6.1.2\lvgl\src\lv_objx/lv_btn.c **** 
  64:..\..\..\lvgl\version_6.1.2\lvgl\src\lv_objx/lv_btn.c **** /**********************
  65:..\..\..\lvgl\version_6.1.2\lvgl\src\lv_objx/lv_btn.c ****  *   GLOBAL FUNCTIONS
  66:..\..\..\lvgl\version_6.1.2\lvgl\src\lv_objx/lv_btn.c ****  **********************/
  67:..\..\..\lvgl\version_6.1.2\lvgl\src\lv_objx/lv_btn.c **** 
  68:..\..\..\lvgl\version_6.1.2\lvgl\src\lv_objx/lv_btn.c **** /**
  69:..\..\..\lvgl\version_6.1.2\lvgl\src\lv_objx/lv_btn.c ****  * Create a button object
  70:..\..\..\lvgl\version_6.1.2\lvgl\src\lv_objx/lv_btn.c ****  * @param par pointer to an object, it will be the parent of the new button
  71:..\..\..\lvgl\version_6.1.2\lvgl\src\lv_objx/lv_btn.c ****  * @param copy pointer to a button object, if not NULL then the new object will be copied from it
  72:..\..\..\lvgl\version_6.1.2\lvgl\src\lv_objx/lv_btn.c ****  * @return pointer to the created button
  73:..\..\..\lvgl\version_6.1.2\lvgl\src\lv_objx/lv_btn.c ****  */
  74:..\..\..\lvgl\version_6.1.2\lvgl\src\lv_objx/lv_btn.c **** lv_obj_t * lv_btn_create(lv_obj_t * par, const lv_obj_t * copy)
  75:..\..\..\lvgl\version_6.1.2\lvgl\src\lv_objx/lv_btn.c **** {
  76:..\..\..\lvgl\version_6.1.2\lvgl\src\lv_objx/lv_btn.c ****     LV_LOG_TRACE("button create started");
  77:..\..\..\lvgl\version_6.1.2\lvgl\src\lv_objx/lv_btn.c **** 
  78:..\..\..\lvgl\version_6.1.2\lvgl\src\lv_objx/lv_btn.c ****     lv_obj_t * new_btn;
  79:..\..\..\lvgl\version_6.1.2\lvgl\src\lv_objx/lv_btn.c **** 
  80:..\..\..\lvgl\version_6.1.2\lvgl\src\lv_objx/lv_btn.c ****     new_btn = lv_cont_create(par, copy);
  81:..\..\..\lvgl\version_6.1.2\lvgl\src\lv_objx/lv_btn.c ****     LV_ASSERT_MEM(new_btn);
  82:..\..\..\lvgl\version_6.1.2\lvgl\src\lv_objx/lv_btn.c ****     if(new_btn == NULL) return NULL;
  83:..\..\..\lvgl\version_6.1.2\lvgl\src\lv_objx/lv_btn.c **** 
  84:..\..\..\lvgl\version_6.1.2\lvgl\src\lv_objx/lv_btn.c ****     if(ancestor_signal == NULL) ancestor_signal = lv_obj_get_signal_cb(new_btn);
  85:..\..\..\lvgl\version_6.1.2\lvgl\src\lv_objx/lv_btn.c ****     if(ancestor_design == NULL) ancestor_design = lv_obj_get_design_cb(new_btn);
  86:..\..\..\lvgl\version_6.1.2\lvgl\src\lv_objx/lv_btn.c **** 
  87:..\..\..\lvgl\version_6.1.2\lvgl\src\lv_objx/lv_btn.c ****     /*Allocate the extended data*/
ARM GAS  C:\Users\pearlstl\AppData\Local\Temp\ccbEAAPX.s 			page 3


  88:..\..\..\lvgl\version_6.1.2\lvgl\src\lv_objx/lv_btn.c ****     lv_btn_ext_t * ext = lv_obj_allocate_ext_attr(new_btn, sizeof(lv_btn_ext_t));
  89:..\..\..\lvgl\version_6.1.2\lvgl\src\lv_objx/lv_btn.c ****     LV_ASSERT_MEM(ext);
  90:..\..\..\lvgl\version_6.1.2\lvgl\src\lv_objx/lv_btn.c ****     if(ext == NULL) return NULL;
  91:..\..\..\lvgl\version_6.1.2\lvgl\src\lv_objx/lv_btn.c **** 
  92:..\..\..\lvgl\version_6.1.2\lvgl\src\lv_objx/lv_btn.c ****     ext->state = LV_BTN_STATE_REL;
  93:..\..\..\lvgl\version_6.1.2\lvgl\src\lv_objx/lv_btn.c **** 
  94:..\..\..\lvgl\version_6.1.2\lvgl\src\lv_objx/lv_btn.c ****     ext->styles[LV_BTN_STATE_REL]     = &lv_style_btn_rel;
  95:..\..\..\lvgl\version_6.1.2\lvgl\src\lv_objx/lv_btn.c ****     ext->styles[LV_BTN_STATE_PR]      = &lv_style_btn_pr;
  96:..\..\..\lvgl\version_6.1.2\lvgl\src\lv_objx/lv_btn.c ****     ext->styles[LV_BTN_STATE_TGL_REL] = &lv_style_btn_tgl_rel;
  97:..\..\..\lvgl\version_6.1.2\lvgl\src\lv_objx/lv_btn.c ****     ext->styles[LV_BTN_STATE_TGL_PR]  = &lv_style_btn_tgl_pr;
  98:..\..\..\lvgl\version_6.1.2\lvgl\src\lv_objx/lv_btn.c ****     ext->styles[LV_BTN_STATE_INA]     = &lv_style_btn_ina;
  99:..\..\..\lvgl\version_6.1.2\lvgl\src\lv_objx/lv_btn.c **** 
 100:..\..\..\lvgl\version_6.1.2\lvgl\src\lv_objx/lv_btn.c ****     ext->toggle = 0;
 101:..\..\..\lvgl\version_6.1.2\lvgl\src\lv_objx/lv_btn.c **** #if LV_USE_ANIMATION && LV_BTN_INK_EFFECT
 102:..\..\..\lvgl\version_6.1.2\lvgl\src\lv_objx/lv_btn.c ****     ext->ink_in_time   = 0;
 103:..\..\..\lvgl\version_6.1.2\lvgl\src\lv_objx/lv_btn.c ****     ext->ink_wait_time = 0;
 104:..\..\..\lvgl\version_6.1.2\lvgl\src\lv_objx/lv_btn.c ****     ext->ink_out_time  = 0;
 105:..\..\..\lvgl\version_6.1.2\lvgl\src\lv_objx/lv_btn.c **** #endif
 106:..\..\..\lvgl\version_6.1.2\lvgl\src\lv_objx/lv_btn.c **** 
 107:..\..\..\lvgl\version_6.1.2\lvgl\src\lv_objx/lv_btn.c ****     lv_obj_set_signal_cb(new_btn, lv_btn_signal);
 108:..\..\..\lvgl\version_6.1.2\lvgl\src\lv_objx/lv_btn.c ****     lv_obj_set_design_cb(new_btn, lv_btn_design);
 109:..\..\..\lvgl\version_6.1.2\lvgl\src\lv_objx/lv_btn.c **** 
 110:..\..\..\lvgl\version_6.1.2\lvgl\src\lv_objx/lv_btn.c ****     /*If no copy do the basic initialization*/
 111:..\..\..\lvgl\version_6.1.2\lvgl\src\lv_objx/lv_btn.c ****     if(copy == NULL) {
 112:..\..\..\lvgl\version_6.1.2\lvgl\src\lv_objx/lv_btn.c ****         /*Set layout if the button is not a screen*/
 113:..\..\..\lvgl\version_6.1.2\lvgl\src\lv_objx/lv_btn.c ****         if(par != NULL) {
 114:..\..\..\lvgl\version_6.1.2\lvgl\src\lv_objx/lv_btn.c ****             lv_btn_set_layout(new_btn, LV_LAYOUT_CENTER);
 115:..\..\..\lvgl\version_6.1.2\lvgl\src\lv_objx/lv_btn.c ****         }
 116:..\..\..\lvgl\version_6.1.2\lvgl\src\lv_objx/lv_btn.c **** 
 117:..\..\..\lvgl\version_6.1.2\lvgl\src\lv_objx/lv_btn.c ****         lv_obj_set_click(new_btn, true); /*Be sure the button is clickable*/
 118:..\..\..\lvgl\version_6.1.2\lvgl\src\lv_objx/lv_btn.c **** 
 119:..\..\..\lvgl\version_6.1.2\lvgl\src\lv_objx/lv_btn.c ****         /*Set the default styles*/
 120:..\..\..\lvgl\version_6.1.2\lvgl\src\lv_objx/lv_btn.c ****         lv_theme_t * th = lv_theme_get_current();
 121:..\..\..\lvgl\version_6.1.2\lvgl\src\lv_objx/lv_btn.c ****         if(th) {
 122:..\..\..\lvgl\version_6.1.2\lvgl\src\lv_objx/lv_btn.c ****             lv_btn_set_style(new_btn, LV_BTN_STYLE_REL, th->style.btn.rel);
 123:..\..\..\lvgl\version_6.1.2\lvgl\src\lv_objx/lv_btn.c ****             lv_btn_set_style(new_btn, LV_BTN_STYLE_PR, th->style.btn.pr);
 124:..\..\..\lvgl\version_6.1.2\lvgl\src\lv_objx/lv_btn.c ****             lv_btn_set_style(new_btn, LV_BTN_STYLE_TGL_REL, th->style.btn.tgl_rel);
 125:..\..\..\lvgl\version_6.1.2\lvgl\src\lv_objx/lv_btn.c ****             lv_btn_set_style(new_btn, LV_BTN_STYLE_TGL_PR, th->style.btn.tgl_pr);
 126:..\..\..\lvgl\version_6.1.2\lvgl\src\lv_objx/lv_btn.c ****             lv_btn_set_style(new_btn, LV_BTN_STYLE_INA, th->style.btn.ina);
 127:..\..\..\lvgl\version_6.1.2\lvgl\src\lv_objx/lv_btn.c ****         } else {
 128:..\..\..\lvgl\version_6.1.2\lvgl\src\lv_objx/lv_btn.c ****             lv_obj_set_style(new_btn, ext->styles[LV_BTN_STATE_REL]);
 129:..\..\..\lvgl\version_6.1.2\lvgl\src\lv_objx/lv_btn.c ****         }
 130:..\..\..\lvgl\version_6.1.2\lvgl\src\lv_objx/lv_btn.c ****     }
 131:..\..\..\lvgl\version_6.1.2\lvgl\src\lv_objx/lv_btn.c ****     /*Copy 'copy'*/
 132:..\..\..\lvgl\version_6.1.2\lvgl\src\lv_objx/lv_btn.c ****     else {
 133:..\..\..\lvgl\version_6.1.2\lvgl\src\lv_objx/lv_btn.c ****         lv_btn_ext_t * copy_ext = lv_obj_get_ext_attr(copy);
 134:..\..\..\lvgl\version_6.1.2\lvgl\src\lv_objx/lv_btn.c ****         ext->state              = copy_ext->state;
 135:..\..\..\lvgl\version_6.1.2\lvgl\src\lv_objx/lv_btn.c ****         ext->toggle             = copy_ext->toggle;
 136:..\..\..\lvgl\version_6.1.2\lvgl\src\lv_objx/lv_btn.c **** #if LV_USE_ANIMATION && LV_BTN_INK_EFFECT
 137:..\..\..\lvgl\version_6.1.2\lvgl\src\lv_objx/lv_btn.c ****         ext->ink_in_time   = copy_ext->ink_in_time;
 138:..\..\..\lvgl\version_6.1.2\lvgl\src\lv_objx/lv_btn.c ****         ext->ink_wait_time = copy_ext->ink_wait_time;
 139:..\..\..\lvgl\version_6.1.2\lvgl\src\lv_objx/lv_btn.c ****         ext->ink_out_time  = copy_ext->ink_out_time;
 140:..\..\..\lvgl\version_6.1.2\lvgl\src\lv_objx/lv_btn.c **** #endif
 141:..\..\..\lvgl\version_6.1.2\lvgl\src\lv_objx/lv_btn.c ****         memcpy((void*) ext->styles, copy_ext->styles, sizeof(ext->styles));
 142:..\..\..\lvgl\version_6.1.2\lvgl\src\lv_objx/lv_btn.c **** 
 143:..\..\..\lvgl\version_6.1.2\lvgl\src\lv_objx/lv_btn.c ****         /*Refresh the style with new signal function*/
 144:..\..\..\lvgl\version_6.1.2\lvgl\src\lv_objx/lv_btn.c ****         lv_obj_refresh_style(new_btn);
ARM GAS  C:\Users\pearlstl\AppData\Local\Temp\ccbEAAPX.s 			page 4


 145:..\..\..\lvgl\version_6.1.2\lvgl\src\lv_objx/lv_btn.c ****     }
 146:..\..\..\lvgl\version_6.1.2\lvgl\src\lv_objx/lv_btn.c **** 
 147:..\..\..\lvgl\version_6.1.2\lvgl\src\lv_objx/lv_btn.c ****     LV_LOG_INFO("button created");
 148:..\..\..\lvgl\version_6.1.2\lvgl\src\lv_objx/lv_btn.c **** 
 149:..\..\..\lvgl\version_6.1.2\lvgl\src\lv_objx/lv_btn.c ****     return new_btn;
 150:..\..\..\lvgl\version_6.1.2\lvgl\src\lv_objx/lv_btn.c **** }
 151:..\..\..\lvgl\version_6.1.2\lvgl\src\lv_objx/lv_btn.c **** 
 152:..\..\..\lvgl\version_6.1.2\lvgl\src\lv_objx/lv_btn.c **** /*=====================
 153:..\..\..\lvgl\version_6.1.2\lvgl\src\lv_objx/lv_btn.c ****  * Setter functions
 154:..\..\..\lvgl\version_6.1.2\lvgl\src\lv_objx/lv_btn.c ****  *====================*/
 155:..\..\..\lvgl\version_6.1.2\lvgl\src\lv_objx/lv_btn.c **** 
 156:..\..\..\lvgl\version_6.1.2\lvgl\src\lv_objx/lv_btn.c **** /**
 157:..\..\..\lvgl\version_6.1.2\lvgl\src\lv_objx/lv_btn.c ****  * Enable the toggled states
 158:..\..\..\lvgl\version_6.1.2\lvgl\src\lv_objx/lv_btn.c ****  * @param btn pointer to a button object
 159:..\..\..\lvgl\version_6.1.2\lvgl\src\lv_objx/lv_btn.c ****  * @param tgl true: enable toggled states, false: disable
 160:..\..\..\lvgl\version_6.1.2\lvgl\src\lv_objx/lv_btn.c ****  */
 161:..\..\..\lvgl\version_6.1.2\lvgl\src\lv_objx/lv_btn.c **** void lv_btn_set_toggle(lv_obj_t * btn, bool tgl)
 162:..\..\..\lvgl\version_6.1.2\lvgl\src\lv_objx/lv_btn.c **** {
 163:..\..\..\lvgl\version_6.1.2\lvgl\src\lv_objx/lv_btn.c ****     LV_ASSERT_OBJ(btn, LV_OBJX_NAME);
 164:..\..\..\lvgl\version_6.1.2\lvgl\src\lv_objx/lv_btn.c **** 
 165:..\..\..\lvgl\version_6.1.2\lvgl\src\lv_objx/lv_btn.c ****     lv_btn_ext_t * ext = lv_obj_get_ext_attr(btn);
 166:..\..\..\lvgl\version_6.1.2\lvgl\src\lv_objx/lv_btn.c **** 
 167:..\..\..\lvgl\version_6.1.2\lvgl\src\lv_objx/lv_btn.c ****     ext->toggle = tgl != false ? 1 : 0;
 168:..\..\..\lvgl\version_6.1.2\lvgl\src\lv_objx/lv_btn.c **** }
 169:..\..\..\lvgl\version_6.1.2\lvgl\src\lv_objx/lv_btn.c **** 
 170:..\..\..\lvgl\version_6.1.2\lvgl\src\lv_objx/lv_btn.c **** /**
 171:..\..\..\lvgl\version_6.1.2\lvgl\src\lv_objx/lv_btn.c ****  * Set the state of the button
 172:..\..\..\lvgl\version_6.1.2\lvgl\src\lv_objx/lv_btn.c ****  * @param btn pointer to a button object
 173:..\..\..\lvgl\version_6.1.2\lvgl\src\lv_objx/lv_btn.c ****  * @param state the new state of the button (from lv_btn_state_t enum)
 174:..\..\..\lvgl\version_6.1.2\lvgl\src\lv_objx/lv_btn.c ****  */
 175:..\..\..\lvgl\version_6.1.2\lvgl\src\lv_objx/lv_btn.c **** void lv_btn_set_state(lv_obj_t * btn, lv_btn_state_t state)
 176:..\..\..\lvgl\version_6.1.2\lvgl\src\lv_objx/lv_btn.c **** {
 177:..\..\..\lvgl\version_6.1.2\lvgl\src\lv_objx/lv_btn.c ****     LV_ASSERT_OBJ(btn, LV_OBJX_NAME);
 178:..\..\..\lvgl\version_6.1.2\lvgl\src\lv_objx/lv_btn.c **** 
 179:..\..\..\lvgl\version_6.1.2\lvgl\src\lv_objx/lv_btn.c ****     lv_btn_ext_t * ext = lv_obj_get_ext_attr(btn);
 180:..\..\..\lvgl\version_6.1.2\lvgl\src\lv_objx/lv_btn.c ****     if(ext->state != state) {
 181:..\..\..\lvgl\version_6.1.2\lvgl\src\lv_objx/lv_btn.c ****         ext->state = state;
 182:..\..\..\lvgl\version_6.1.2\lvgl\src\lv_objx/lv_btn.c ****         lv_obj_set_style(btn, ext->styles[state]);
 183:..\..\..\lvgl\version_6.1.2\lvgl\src\lv_objx/lv_btn.c ****     }
 184:..\..\..\lvgl\version_6.1.2\lvgl\src\lv_objx/lv_btn.c **** }
 185:..\..\..\lvgl\version_6.1.2\lvgl\src\lv_objx/lv_btn.c **** 
 186:..\..\..\lvgl\version_6.1.2\lvgl\src\lv_objx/lv_btn.c **** /**
 187:..\..\..\lvgl\version_6.1.2\lvgl\src\lv_objx/lv_btn.c ****  * Toggle the state of the button (ON->OFF, OFF->ON)
 188:..\..\..\lvgl\version_6.1.2\lvgl\src\lv_objx/lv_btn.c ****  * @param btn pointer to a button object
 189:..\..\..\lvgl\version_6.1.2\lvgl\src\lv_objx/lv_btn.c ****  */
 190:..\..\..\lvgl\version_6.1.2\lvgl\src\lv_objx/lv_btn.c **** void lv_btn_toggle(lv_obj_t * btn)
 191:..\..\..\lvgl\version_6.1.2\lvgl\src\lv_objx/lv_btn.c **** {
 192:..\..\..\lvgl\version_6.1.2\lvgl\src\lv_objx/lv_btn.c ****     LV_ASSERT_OBJ(btn, LV_OBJX_NAME);
 193:..\..\..\lvgl\version_6.1.2\lvgl\src\lv_objx/lv_btn.c **** 
 194:..\..\..\lvgl\version_6.1.2\lvgl\src\lv_objx/lv_btn.c ****     lv_btn_ext_t * ext = lv_obj_get_ext_attr(btn);
 195:..\..\..\lvgl\version_6.1.2\lvgl\src\lv_objx/lv_btn.c ****     switch(ext->state) {
 196:..\..\..\lvgl\version_6.1.2\lvgl\src\lv_objx/lv_btn.c ****         case LV_BTN_STATE_REL: lv_btn_set_state(btn, LV_BTN_STATE_TGL_REL); break;
 197:..\..\..\lvgl\version_6.1.2\lvgl\src\lv_objx/lv_btn.c ****         case LV_BTN_STATE_PR: lv_btn_set_state(btn, LV_BTN_STATE_TGL_PR); break;
 198:..\..\..\lvgl\version_6.1.2\lvgl\src\lv_objx/lv_btn.c ****         case LV_BTN_STATE_TGL_REL: lv_btn_set_state(btn, LV_BTN_STATE_REL); break;
 199:..\..\..\lvgl\version_6.1.2\lvgl\src\lv_objx/lv_btn.c ****         case LV_BTN_STATE_TGL_PR: lv_btn_set_state(btn, LV_BTN_STATE_PR); break;
 200:..\..\..\lvgl\version_6.1.2\lvgl\src\lv_objx/lv_btn.c ****         default: break;
 201:..\..\..\lvgl\version_6.1.2\lvgl\src\lv_objx/lv_btn.c ****     }
ARM GAS  C:\Users\pearlstl\AppData\Local\Temp\ccbEAAPX.s 			page 5


 202:..\..\..\lvgl\version_6.1.2\lvgl\src\lv_objx/lv_btn.c **** }
 203:..\..\..\lvgl\version_6.1.2\lvgl\src\lv_objx/lv_btn.c **** 
 204:..\..\..\lvgl\version_6.1.2\lvgl\src\lv_objx/lv_btn.c **** /**
 205:..\..\..\lvgl\version_6.1.2\lvgl\src\lv_objx/lv_btn.c ****  * Set time of the ink effect (draw a circle on click to animate in the new state)
 206:..\..\..\lvgl\version_6.1.2\lvgl\src\lv_objx/lv_btn.c ****  * @param btn pointer to a button object
 207:..\..\..\lvgl\version_6.1.2\lvgl\src\lv_objx/lv_btn.c ****  * @param time the time of the ink animation
 208:..\..\..\lvgl\version_6.1.2\lvgl\src\lv_objx/lv_btn.c ****  */
 209:..\..\..\lvgl\version_6.1.2\lvgl\src\lv_objx/lv_btn.c **** void lv_btn_set_ink_in_time(lv_obj_t * btn, uint16_t time)
 210:..\..\..\lvgl\version_6.1.2\lvgl\src\lv_objx/lv_btn.c **** {
 211:..\..\..\lvgl\version_6.1.2\lvgl\src\lv_objx/lv_btn.c ****     LV_ASSERT_OBJ(btn, LV_OBJX_NAME);
 212:..\..\..\lvgl\version_6.1.2\lvgl\src\lv_objx/lv_btn.c **** 
 213:..\..\..\lvgl\version_6.1.2\lvgl\src\lv_objx/lv_btn.c **** #if LV_USE_ANIMATION && LV_BTN_INK_EFFECT
 214:..\..\..\lvgl\version_6.1.2\lvgl\src\lv_objx/lv_btn.c ****     lv_btn_ext_t * ext = lv_obj_get_ext_attr(btn);
 215:..\..\..\lvgl\version_6.1.2\lvgl\src\lv_objx/lv_btn.c ****     ext->ink_in_time   = time;
 216:..\..\..\lvgl\version_6.1.2\lvgl\src\lv_objx/lv_btn.c **** #else
 217:..\..\..\lvgl\version_6.1.2\lvgl\src\lv_objx/lv_btn.c ****     (void)btn;  /*Unused*/
 218:..\..\..\lvgl\version_6.1.2\lvgl\src\lv_objx/lv_btn.c ****     (void)time; /*Unused*/
 219:..\..\..\lvgl\version_6.1.2\lvgl\src\lv_objx/lv_btn.c ****     LV_LOG_WARN("`lv_btn_set_ink_ink_time` has no effect if LV_BTN_INK_EFEFCT or LV_USE_ANIMATION "
 220:..\..\..\lvgl\version_6.1.2\lvgl\src\lv_objx/lv_btn.c ****                 "is disabled")
 221:..\..\..\lvgl\version_6.1.2\lvgl\src\lv_objx/lv_btn.c **** #endif
 222:..\..\..\lvgl\version_6.1.2\lvgl\src\lv_objx/lv_btn.c **** }
 223:..\..\..\lvgl\version_6.1.2\lvgl\src\lv_objx/lv_btn.c **** 
 224:..\..\..\lvgl\version_6.1.2\lvgl\src\lv_objx/lv_btn.c **** /**
 225:..\..\..\lvgl\version_6.1.2\lvgl\src\lv_objx/lv_btn.c ****  * Set the wait time before the ink disappears
 226:..\..\..\lvgl\version_6.1.2\lvgl\src\lv_objx/lv_btn.c ****  * @param btn pointer to a button object
 227:..\..\..\lvgl\version_6.1.2\lvgl\src\lv_objx/lv_btn.c ****  * @param time the time of the ink animation
 228:..\..\..\lvgl\version_6.1.2\lvgl\src\lv_objx/lv_btn.c ****  */
 229:..\..\..\lvgl\version_6.1.2\lvgl\src\lv_objx/lv_btn.c **** void lv_btn_set_ink_wait_time(lv_obj_t * btn, uint16_t time)
 230:..\..\..\lvgl\version_6.1.2\lvgl\src\lv_objx/lv_btn.c **** {
 231:..\..\..\lvgl\version_6.1.2\lvgl\src\lv_objx/lv_btn.c ****     LV_ASSERT_OBJ(btn, LV_OBJX_NAME);
 232:..\..\..\lvgl\version_6.1.2\lvgl\src\lv_objx/lv_btn.c **** 
 233:..\..\..\lvgl\version_6.1.2\lvgl\src\lv_objx/lv_btn.c **** 
 234:..\..\..\lvgl\version_6.1.2\lvgl\src\lv_objx/lv_btn.c **** #if LV_USE_ANIMATION && LV_BTN_INK_EFFECT
 235:..\..\..\lvgl\version_6.1.2\lvgl\src\lv_objx/lv_btn.c ****     lv_btn_ext_t * ext = lv_obj_get_ext_attr(btn);
 236:..\..\..\lvgl\version_6.1.2\lvgl\src\lv_objx/lv_btn.c ****     ext->ink_wait_time = time;
 237:..\..\..\lvgl\version_6.1.2\lvgl\src\lv_objx/lv_btn.c **** #else
 238:..\..\..\lvgl\version_6.1.2\lvgl\src\lv_objx/lv_btn.c ****     (void)btn;  /*Unused*/
 239:..\..\..\lvgl\version_6.1.2\lvgl\src\lv_objx/lv_btn.c ****     (void)time; /*Unused*/
 240:..\..\..\lvgl\version_6.1.2\lvgl\src\lv_objx/lv_btn.c ****     LV_LOG_WARN("`lv_btn_set_ink_wait_time` has no effect if LV_BTN_INK_EFEFCT or LV_USE_ANIMATION 
 241:..\..\..\lvgl\version_6.1.2\lvgl\src\lv_objx/lv_btn.c ****                 "is disabled")
 242:..\..\..\lvgl\version_6.1.2\lvgl\src\lv_objx/lv_btn.c **** #endif
 243:..\..\..\lvgl\version_6.1.2\lvgl\src\lv_objx/lv_btn.c **** }
 244:..\..\..\lvgl\version_6.1.2\lvgl\src\lv_objx/lv_btn.c **** 
 245:..\..\..\lvgl\version_6.1.2\lvgl\src\lv_objx/lv_btn.c **** /**
 246:..\..\..\lvgl\version_6.1.2\lvgl\src\lv_objx/lv_btn.c ****  * Set time of the ink out effect (animate to the released state)
 247:..\..\..\lvgl\version_6.1.2\lvgl\src\lv_objx/lv_btn.c ****  * @param btn pointer to a button object
 248:..\..\..\lvgl\version_6.1.2\lvgl\src\lv_objx/lv_btn.c ****  * @param time the time of the ink animation
 249:..\..\..\lvgl\version_6.1.2\lvgl\src\lv_objx/lv_btn.c ****  */
 250:..\..\..\lvgl\version_6.1.2\lvgl\src\lv_objx/lv_btn.c **** void lv_btn_set_ink_out_time(lv_obj_t * btn, uint16_t time)
 251:..\..\..\lvgl\version_6.1.2\lvgl\src\lv_objx/lv_btn.c **** {
 252:..\..\..\lvgl\version_6.1.2\lvgl\src\lv_objx/lv_btn.c ****     LV_ASSERT_OBJ(btn, LV_OBJX_NAME);
 253:..\..\..\lvgl\version_6.1.2\lvgl\src\lv_objx/lv_btn.c **** 
 254:..\..\..\lvgl\version_6.1.2\lvgl\src\lv_objx/lv_btn.c **** #if LV_USE_ANIMATION && LV_BTN_INK_EFFECT
 255:..\..\..\lvgl\version_6.1.2\lvgl\src\lv_objx/lv_btn.c ****     lv_btn_ext_t * ext = lv_obj_get_ext_attr(btn);
 256:..\..\..\lvgl\version_6.1.2\lvgl\src\lv_objx/lv_btn.c ****     ext->ink_out_time  = time;
 257:..\..\..\lvgl\version_6.1.2\lvgl\src\lv_objx/lv_btn.c **** #else
 258:..\..\..\lvgl\version_6.1.2\lvgl\src\lv_objx/lv_btn.c ****     (void)btn;  /*Unused*/
ARM GAS  C:\Users\pearlstl\AppData\Local\Temp\ccbEAAPX.s 			page 6


 259:..\..\..\lvgl\version_6.1.2\lvgl\src\lv_objx/lv_btn.c ****     (void)time; /*Unused*/
 260:..\..\..\lvgl\version_6.1.2\lvgl\src\lv_objx/lv_btn.c ****     LV_LOG_WARN("`lv_btn_set_ink_out_time` has no effect if LV_BTN_INK_EFEFCT or LV_USE_ANIMATION "
 261:..\..\..\lvgl\version_6.1.2\lvgl\src\lv_objx/lv_btn.c ****                 "is disabled")
 262:..\..\..\lvgl\version_6.1.2\lvgl\src\lv_objx/lv_btn.c **** #endif
 263:..\..\..\lvgl\version_6.1.2\lvgl\src\lv_objx/lv_btn.c **** }
 264:..\..\..\lvgl\version_6.1.2\lvgl\src\lv_objx/lv_btn.c **** 
 265:..\..\..\lvgl\version_6.1.2\lvgl\src\lv_objx/lv_btn.c **** /**
 266:..\..\..\lvgl\version_6.1.2\lvgl\src\lv_objx/lv_btn.c ****  * Set a style of a button
 267:..\..\..\lvgl\version_6.1.2\lvgl\src\lv_objx/lv_btn.c ****  * @param btn pointer to a button object
 268:..\..\..\lvgl\version_6.1.2\lvgl\src\lv_objx/lv_btn.c ****  * @param type which style should be set
 269:..\..\..\lvgl\version_6.1.2\lvgl\src\lv_objx/lv_btn.c ****  * @param style pointer to a style
 270:..\..\..\lvgl\version_6.1.2\lvgl\src\lv_objx/lv_btn.c ****  */
 271:..\..\..\lvgl\version_6.1.2\lvgl\src\lv_objx/lv_btn.c **** void lv_btn_set_style(lv_obj_t * btn, lv_btn_style_t type, const lv_style_t * style)
 272:..\..\..\lvgl\version_6.1.2\lvgl\src\lv_objx/lv_btn.c **** {
 273:..\..\..\lvgl\version_6.1.2\lvgl\src\lv_objx/lv_btn.c ****     LV_ASSERT_OBJ(btn, LV_OBJX_NAME);
 274:..\..\..\lvgl\version_6.1.2\lvgl\src\lv_objx/lv_btn.c **** 
 275:..\..\..\lvgl\version_6.1.2\lvgl\src\lv_objx/lv_btn.c ****     lv_btn_ext_t * ext = lv_obj_get_ext_attr(btn);
 276:..\..\..\lvgl\version_6.1.2\lvgl\src\lv_objx/lv_btn.c **** 
 277:..\..\..\lvgl\version_6.1.2\lvgl\src\lv_objx/lv_btn.c ****     switch(type) {
 278:..\..\..\lvgl\version_6.1.2\lvgl\src\lv_objx/lv_btn.c ****         case LV_BTN_STYLE_REL: ext->styles[LV_BTN_STATE_REL] = style; break;
 279:..\..\..\lvgl\version_6.1.2\lvgl\src\lv_objx/lv_btn.c ****         case LV_BTN_STYLE_PR: ext->styles[LV_BTN_STATE_PR] = style; break;
 280:..\..\..\lvgl\version_6.1.2\lvgl\src\lv_objx/lv_btn.c ****         case LV_BTN_STYLE_TGL_REL: ext->styles[LV_BTN_STATE_TGL_REL] = style; break;
 281:..\..\..\lvgl\version_6.1.2\lvgl\src\lv_objx/lv_btn.c ****         case LV_BTN_STYLE_TGL_PR: ext->styles[LV_BTN_STATE_TGL_PR] = style; break;
 282:..\..\..\lvgl\version_6.1.2\lvgl\src\lv_objx/lv_btn.c ****         case LV_BTN_STYLE_INA: ext->styles[LV_BTN_STATE_INA] = style; break;
 283:..\..\..\lvgl\version_6.1.2\lvgl\src\lv_objx/lv_btn.c ****     }
 284:..\..\..\lvgl\version_6.1.2\lvgl\src\lv_objx/lv_btn.c **** 
 285:..\..\..\lvgl\version_6.1.2\lvgl\src\lv_objx/lv_btn.c ****     /*Refresh the object with the new style*/
 286:..\..\..\lvgl\version_6.1.2\lvgl\src\lv_objx/lv_btn.c ****     lv_obj_set_style(btn, ext->styles[ext->state]);
 287:..\..\..\lvgl\version_6.1.2\lvgl\src\lv_objx/lv_btn.c **** }
 288:..\..\..\lvgl\version_6.1.2\lvgl\src\lv_objx/lv_btn.c **** 
 289:..\..\..\lvgl\version_6.1.2\lvgl\src\lv_objx/lv_btn.c **** /*=====================
 290:..\..\..\lvgl\version_6.1.2\lvgl\src\lv_objx/lv_btn.c ****  * Getter functions
 291:..\..\..\lvgl\version_6.1.2\lvgl\src\lv_objx/lv_btn.c ****  *====================*/
 292:..\..\..\lvgl\version_6.1.2\lvgl\src\lv_objx/lv_btn.c **** 
 293:..\..\..\lvgl\version_6.1.2\lvgl\src\lv_objx/lv_btn.c **** /**
 294:..\..\..\lvgl\version_6.1.2\lvgl\src\lv_objx/lv_btn.c ****  * Get the current state of the button
 295:..\..\..\lvgl\version_6.1.2\lvgl\src\lv_objx/lv_btn.c ****  * @param btn pointer to a button object
 296:..\..\..\lvgl\version_6.1.2\lvgl\src\lv_objx/lv_btn.c ****  * @return the state of the button (from lv_btn_state_t enum)
 297:..\..\..\lvgl\version_6.1.2\lvgl\src\lv_objx/lv_btn.c ****  */
 298:..\..\..\lvgl\version_6.1.2\lvgl\src\lv_objx/lv_btn.c **** lv_btn_state_t lv_btn_get_state(const lv_obj_t * btn)
 299:..\..\..\lvgl\version_6.1.2\lvgl\src\lv_objx/lv_btn.c **** {
 300:..\..\..\lvgl\version_6.1.2\lvgl\src\lv_objx/lv_btn.c ****     LV_ASSERT_OBJ(btn, LV_OBJX_NAME);
 301:..\..\..\lvgl\version_6.1.2\lvgl\src\lv_objx/lv_btn.c **** 
 302:..\..\..\lvgl\version_6.1.2\lvgl\src\lv_objx/lv_btn.c ****     lv_btn_ext_t * ext = lv_obj_get_ext_attr(btn);
 303:..\..\..\lvgl\version_6.1.2\lvgl\src\lv_objx/lv_btn.c ****     return ext->state;
 304:..\..\..\lvgl\version_6.1.2\lvgl\src\lv_objx/lv_btn.c **** }
 305:..\..\..\lvgl\version_6.1.2\lvgl\src\lv_objx/lv_btn.c **** 
 306:..\..\..\lvgl\version_6.1.2\lvgl\src\lv_objx/lv_btn.c **** /**
 307:..\..\..\lvgl\version_6.1.2\lvgl\src\lv_objx/lv_btn.c ****  * Get the toggle enable attribute of the button
 308:..\..\..\lvgl\version_6.1.2\lvgl\src\lv_objx/lv_btn.c ****  * @param btn pointer to a button object
 309:..\..\..\lvgl\version_6.1.2\lvgl\src\lv_objx/lv_btn.c ****  * @return true: toggle enabled, false: disabled
 310:..\..\..\lvgl\version_6.1.2\lvgl\src\lv_objx/lv_btn.c ****  */
 311:..\..\..\lvgl\version_6.1.2\lvgl\src\lv_objx/lv_btn.c **** bool lv_btn_get_toggle(const lv_obj_t * btn)
 312:..\..\..\lvgl\version_6.1.2\lvgl\src\lv_objx/lv_btn.c **** {
 313:..\..\..\lvgl\version_6.1.2\lvgl\src\lv_objx/lv_btn.c ****     LV_ASSERT_OBJ(btn, LV_OBJX_NAME);
 314:..\..\..\lvgl\version_6.1.2\lvgl\src\lv_objx/lv_btn.c **** 
 315:..\..\..\lvgl\version_6.1.2\lvgl\src\lv_objx/lv_btn.c ****     lv_btn_ext_t * ext = lv_obj_get_ext_attr(btn);
ARM GAS  C:\Users\pearlstl\AppData\Local\Temp\ccbEAAPX.s 			page 7


 316:..\..\..\lvgl\version_6.1.2\lvgl\src\lv_objx/lv_btn.c **** 
 317:..\..\..\lvgl\version_6.1.2\lvgl\src\lv_objx/lv_btn.c ****     return ext->toggle != 0 ? true : false;
 318:..\..\..\lvgl\version_6.1.2\lvgl\src\lv_objx/lv_btn.c **** }
 319:..\..\..\lvgl\version_6.1.2\lvgl\src\lv_objx/lv_btn.c **** 
 320:..\..\..\lvgl\version_6.1.2\lvgl\src\lv_objx/lv_btn.c **** /**
 321:..\..\..\lvgl\version_6.1.2\lvgl\src\lv_objx/lv_btn.c ****  * Get time of the ink in effect (draw a circle on click to animate in the new state)
 322:..\..\..\lvgl\version_6.1.2\lvgl\src\lv_objx/lv_btn.c ****  * @param btn pointer to a button object
 323:..\..\..\lvgl\version_6.1.2\lvgl\src\lv_objx/lv_btn.c ****  * @return the time of the ink animation
 324:..\..\..\lvgl\version_6.1.2\lvgl\src\lv_objx/lv_btn.c ****  */
 325:..\..\..\lvgl\version_6.1.2\lvgl\src\lv_objx/lv_btn.c **** uint16_t lv_btn_get_ink_in_time(const lv_obj_t * btn)
 326:..\..\..\lvgl\version_6.1.2\lvgl\src\lv_objx/lv_btn.c **** {
 327:..\..\..\lvgl\version_6.1.2\lvgl\src\lv_objx/lv_btn.c ****     LV_ASSERT_OBJ(btn, LV_OBJX_NAME);
 328:..\..\..\lvgl\version_6.1.2\lvgl\src\lv_objx/lv_btn.c **** 
 329:..\..\..\lvgl\version_6.1.2\lvgl\src\lv_objx/lv_btn.c **** #if LV_USE_ANIMATION && LV_BTN_INK_EFFECT
 330:..\..\..\lvgl\version_6.1.2\lvgl\src\lv_objx/lv_btn.c ****     lv_btn_ext_t * ext = lv_obj_get_ext_attr(btn);
 331:..\..\..\lvgl\version_6.1.2\lvgl\src\lv_objx/lv_btn.c ****     return ext->ink_in_time;
 332:..\..\..\lvgl\version_6.1.2\lvgl\src\lv_objx/lv_btn.c **** #else
 333:..\..\..\lvgl\version_6.1.2\lvgl\src\lv_objx/lv_btn.c ****     (void)btn; /*Unused*/
 334:..\..\..\lvgl\version_6.1.2\lvgl\src\lv_objx/lv_btn.c ****     return 0;
 335:..\..\..\lvgl\version_6.1.2\lvgl\src\lv_objx/lv_btn.c **** #endif
 336:..\..\..\lvgl\version_6.1.2\lvgl\src\lv_objx/lv_btn.c **** }
 337:..\..\..\lvgl\version_6.1.2\lvgl\src\lv_objx/lv_btn.c **** 
 338:..\..\..\lvgl\version_6.1.2\lvgl\src\lv_objx/lv_btn.c **** /**
 339:..\..\..\lvgl\version_6.1.2\lvgl\src\lv_objx/lv_btn.c ****  * Get the wait time before the ink disappears
 340:..\..\..\lvgl\version_6.1.2\lvgl\src\lv_objx/lv_btn.c ****  * @param btn pointer to a button object
 341:..\..\..\lvgl\version_6.1.2\lvgl\src\lv_objx/lv_btn.c ****  * @return the time of the ink animation
 342:..\..\..\lvgl\version_6.1.2\lvgl\src\lv_objx/lv_btn.c ****  */
 343:..\..\..\lvgl\version_6.1.2\lvgl\src\lv_objx/lv_btn.c **** uint16_t lv_btn_get_ink_wait_time(const lv_obj_t * btn)
 344:..\..\..\lvgl\version_6.1.2\lvgl\src\lv_objx/lv_btn.c **** {
 345:..\..\..\lvgl\version_6.1.2\lvgl\src\lv_objx/lv_btn.c ****     LV_ASSERT_OBJ(btn, LV_OBJX_NAME);
 346:..\..\..\lvgl\version_6.1.2\lvgl\src\lv_objx/lv_btn.c **** 
 347:..\..\..\lvgl\version_6.1.2\lvgl\src\lv_objx/lv_btn.c **** #if LV_USE_ANIMATION && LV_BTN_INK_EFFECT
 348:..\..\..\lvgl\version_6.1.2\lvgl\src\lv_objx/lv_btn.c ****     lv_btn_ext_t * ext = lv_obj_get_ext_attr(btn);
 349:..\..\..\lvgl\version_6.1.2\lvgl\src\lv_objx/lv_btn.c ****     return ext->ink_wait_time;
 350:..\..\..\lvgl\version_6.1.2\lvgl\src\lv_objx/lv_btn.c **** #else
 351:..\..\..\lvgl\version_6.1.2\lvgl\src\lv_objx/lv_btn.c ****     (void)btn; /*Unused*/
 352:..\..\..\lvgl\version_6.1.2\lvgl\src\lv_objx/lv_btn.c ****     return 0;
 353:..\..\..\lvgl\version_6.1.2\lvgl\src\lv_objx/lv_btn.c **** #endif
 354:..\..\..\lvgl\version_6.1.2\lvgl\src\lv_objx/lv_btn.c **** }
 355:..\..\..\lvgl\version_6.1.2\lvgl\src\lv_objx/lv_btn.c **** /**
 356:..\..\..\lvgl\version_6.1.2\lvgl\src\lv_objx/lv_btn.c ****  * Get time of the ink out effect (animate to the releases state)
 357:..\..\..\lvgl\version_6.1.2\lvgl\src\lv_objx/lv_btn.c ****  * @param btn pointer to a button object
 358:..\..\..\lvgl\version_6.1.2\lvgl\src\lv_objx/lv_btn.c ****  * @return the time of the ink animation
 359:..\..\..\lvgl\version_6.1.2\lvgl\src\lv_objx/lv_btn.c ****  */
 360:..\..\..\lvgl\version_6.1.2\lvgl\src\lv_objx/lv_btn.c **** uint16_t lv_btn_get_ink_out_time(const lv_obj_t * btn)
 361:..\..\..\lvgl\version_6.1.2\lvgl\src\lv_objx/lv_btn.c **** {
 362:..\..\..\lvgl\version_6.1.2\lvgl\src\lv_objx/lv_btn.c ****     LV_ASSERT_OBJ(btn, LV_OBJX_NAME);
 363:..\..\..\lvgl\version_6.1.2\lvgl\src\lv_objx/lv_btn.c **** 
 364:..\..\..\lvgl\version_6.1.2\lvgl\src\lv_objx/lv_btn.c **** #if LV_USE_ANIMATION && LV_BTN_INK_EFFECT
 365:..\..\..\lvgl\version_6.1.2\lvgl\src\lv_objx/lv_btn.c ****     lv_btn_ext_t * ext = lv_obj_get_ext_attr(btn);
 366:..\..\..\lvgl\version_6.1.2\lvgl\src\lv_objx/lv_btn.c ****     return ext->ink_out_time;
 367:..\..\..\lvgl\version_6.1.2\lvgl\src\lv_objx/lv_btn.c **** #else
 368:..\..\..\lvgl\version_6.1.2\lvgl\src\lv_objx/lv_btn.c ****     (void)btn; /*Unused*/
 369:..\..\..\lvgl\version_6.1.2\lvgl\src\lv_objx/lv_btn.c ****     return 0;
 370:..\..\..\lvgl\version_6.1.2\lvgl\src\lv_objx/lv_btn.c **** #endif
 371:..\..\..\lvgl\version_6.1.2\lvgl\src\lv_objx/lv_btn.c **** }
 372:..\..\..\lvgl\version_6.1.2\lvgl\src\lv_objx/lv_btn.c **** 
ARM GAS  C:\Users\pearlstl\AppData\Local\Temp\ccbEAAPX.s 			page 8


 373:..\..\..\lvgl\version_6.1.2\lvgl\src\lv_objx/lv_btn.c **** /**
 374:..\..\..\lvgl\version_6.1.2\lvgl\src\lv_objx/lv_btn.c ****  * Get a style of a button
 375:..\..\..\lvgl\version_6.1.2\lvgl\src\lv_objx/lv_btn.c ****  * @param btn pointer to a button object
 376:..\..\..\lvgl\version_6.1.2\lvgl\src\lv_objx/lv_btn.c ****  * @param type which style should be get
 377:..\..\..\lvgl\version_6.1.2\lvgl\src\lv_objx/lv_btn.c ****  * @return style pointer to a style
 378:..\..\..\lvgl\version_6.1.2\lvgl\src\lv_objx/lv_btn.c ****  */
 379:..\..\..\lvgl\version_6.1.2\lvgl\src\lv_objx/lv_btn.c **** const lv_style_t * lv_btn_get_style(const lv_obj_t * btn, lv_btn_style_t type)
 380:..\..\..\lvgl\version_6.1.2\lvgl\src\lv_objx/lv_btn.c **** {
 381:..\..\..\lvgl\version_6.1.2\lvgl\src\lv_objx/lv_btn.c ****     LV_ASSERT_OBJ(btn, LV_OBJX_NAME);
 382:..\..\..\lvgl\version_6.1.2\lvgl\src\lv_objx/lv_btn.c **** 
 383:..\..\..\lvgl\version_6.1.2\lvgl\src\lv_objx/lv_btn.c ****     const lv_style_t * style = NULL;
 384:..\..\..\lvgl\version_6.1.2\lvgl\src\lv_objx/lv_btn.c ****     lv_btn_ext_t * ext       = lv_obj_get_ext_attr(btn);
 385:..\..\..\lvgl\version_6.1.2\lvgl\src\lv_objx/lv_btn.c ****     lv_btn_state_t state     = lv_btn_get_state(btn);
 386:..\..\..\lvgl\version_6.1.2\lvgl\src\lv_objx/lv_btn.c **** 
 387:..\..\..\lvgl\version_6.1.2\lvgl\src\lv_objx/lv_btn.c ****     /* If the style of the current state is asked then return object style.
 388:..\..\..\lvgl\version_6.1.2\lvgl\src\lv_objx/lv_btn.c ****      * If the button is focused then this style is updated by the group's
 389:..\..\..\lvgl\version_6.1.2\lvgl\src\lv_objx/lv_btn.c ****      * `style_mod_cb` function */
 390:..\..\..\lvgl\version_6.1.2\lvgl\src\lv_objx/lv_btn.c ****     if((type == LV_BTN_STYLE_REL && state == LV_BTN_STATE_REL) ||
 391:..\..\..\lvgl\version_6.1.2\lvgl\src\lv_objx/lv_btn.c ****        (type == LV_BTN_STYLE_PR && state == LV_BTN_STATE_PR) ||
 392:..\..\..\lvgl\version_6.1.2\lvgl\src\lv_objx/lv_btn.c ****        (type == LV_BTN_STYLE_TGL_REL && state == LV_BTN_STATE_TGL_REL) ||
 393:..\..\..\lvgl\version_6.1.2\lvgl\src\lv_objx/lv_btn.c ****        (type == LV_BTN_STYLE_TGL_PR && state == LV_BTN_STATE_TGL_PR) ||
 394:..\..\..\lvgl\version_6.1.2\lvgl\src\lv_objx/lv_btn.c ****        (type == LV_BTN_STYLE_INA && state == LV_BTN_STATE_INA)) {
 395:..\..\..\lvgl\version_6.1.2\lvgl\src\lv_objx/lv_btn.c **** 
 396:..\..\..\lvgl\version_6.1.2\lvgl\src\lv_objx/lv_btn.c ****         style = lv_obj_get_style(btn);
 397:..\..\..\lvgl\version_6.1.2\lvgl\src\lv_objx/lv_btn.c ****     } else {
 398:..\..\..\lvgl\version_6.1.2\lvgl\src\lv_objx/lv_btn.c ****         switch(type) {
 399:..\..\..\lvgl\version_6.1.2\lvgl\src\lv_objx/lv_btn.c ****             case LV_BTN_STYLE_REL: style = ext->styles[LV_BTN_STATE_REL]; break;
 400:..\..\..\lvgl\version_6.1.2\lvgl\src\lv_objx/lv_btn.c ****             case LV_BTN_STYLE_PR: style = ext->styles[LV_BTN_STATE_PR]; break;
 401:..\..\..\lvgl\version_6.1.2\lvgl\src\lv_objx/lv_btn.c ****             case LV_BTN_STYLE_TGL_REL: style = ext->styles[LV_BTN_STATE_TGL_REL]; break;
 402:..\..\..\lvgl\version_6.1.2\lvgl\src\lv_objx/lv_btn.c ****             case LV_BTN_STYLE_TGL_PR: style = ext->styles[LV_BTN_STATE_TGL_PR]; break;
 403:..\..\..\lvgl\version_6.1.2\lvgl\src\lv_objx/lv_btn.c ****             case LV_BTN_STYLE_INA: style = ext->styles[LV_BTN_STATE_INA]; break;
 404:..\..\..\lvgl\version_6.1.2\lvgl\src\lv_objx/lv_btn.c ****             default: style = NULL; break;
 405:..\..\..\lvgl\version_6.1.2\lvgl\src\lv_objx/lv_btn.c ****         }
 406:..\..\..\lvgl\version_6.1.2\lvgl\src\lv_objx/lv_btn.c ****     }
 407:..\..\..\lvgl\version_6.1.2\lvgl\src\lv_objx/lv_btn.c **** 
 408:..\..\..\lvgl\version_6.1.2\lvgl\src\lv_objx/lv_btn.c ****     return style;
 409:..\..\..\lvgl\version_6.1.2\lvgl\src\lv_objx/lv_btn.c **** }
 410:..\..\..\lvgl\version_6.1.2\lvgl\src\lv_objx/lv_btn.c **** 
 411:..\..\..\lvgl\version_6.1.2\lvgl\src\lv_objx/lv_btn.c **** /**********************
 412:..\..\..\lvgl\version_6.1.2\lvgl\src\lv_objx/lv_btn.c ****  *   STATIC FUNCTIONS
 413:..\..\..\lvgl\version_6.1.2\lvgl\src\lv_objx/lv_btn.c ****  **********************/
 414:..\..\..\lvgl\version_6.1.2\lvgl\src\lv_objx/lv_btn.c **** 
 415:..\..\..\lvgl\version_6.1.2\lvgl\src\lv_objx/lv_btn.c **** /**
 416:..\..\..\lvgl\version_6.1.2\lvgl\src\lv_objx/lv_btn.c ****  * Handle the drawing related tasks of the drop down lists
 417:..\..\..\lvgl\version_6.1.2\lvgl\src\lv_objx/lv_btn.c ****  * @param btn pointer to an object
 418:..\..\..\lvgl\version_6.1.2\lvgl\src\lv_objx/lv_btn.c ****  * @param mask the object will be drawn only in this area
 419:..\..\..\lvgl\version_6.1.2\lvgl\src\lv_objx/lv_btn.c ****  * @param mode LV_DESIGN_COVER_CHK: only check if the object fully covers the 'mask_p' area
 420:..\..\..\lvgl\version_6.1.2\lvgl\src\lv_objx/lv_btn.c ****  *                                  (return 'true' if yes)
 421:..\..\..\lvgl\version_6.1.2\lvgl\src\lv_objx/lv_btn.c ****  *             LV_DESIGN_DRAW: draw the object (always return 'true')
 422:..\..\..\lvgl\version_6.1.2\lvgl\src\lv_objx/lv_btn.c ****  *             LV_DESIGN_DRAW_POST: drawing after every children are drawn
 423:..\..\..\lvgl\version_6.1.2\lvgl\src\lv_objx/lv_btn.c ****  * @param return true/false, depends on 'mode'
 424:..\..\..\lvgl\version_6.1.2\lvgl\src\lv_objx/lv_btn.c ****  */
 425:..\..\..\lvgl\version_6.1.2\lvgl\src\lv_objx/lv_btn.c **** static bool lv_btn_design(lv_obj_t * btn, const lv_area_t * mask, lv_design_mode_t mode)
 426:..\..\..\lvgl\version_6.1.2\lvgl\src\lv_objx/lv_btn.c **** {
  28              		.loc 1 426 0
  29              		.cfi_startproc
  30              		@ args = 0, pretend = 0, frame = 0
ARM GAS  C:\Users\pearlstl\AppData\Local\Temp\ccbEAAPX.s 			page 9


  31              		@ frame_needed = 0, uses_anonymous_args = 0
  32              	.LVL0:
 427:..\..\..\lvgl\version_6.1.2\lvgl\src\lv_objx/lv_btn.c ****     if(mode == LV_DESIGN_COVER_CHK) {
  33              		.loc 1 427 0
  34 0000 022A     		cmp	r2, #2
  35 0002 06D0     		beq	.L4
 426:..\..\..\lvgl\version_6.1.2\lvgl\src\lv_objx/lv_btn.c ****     if(mode == LV_DESIGN_COVER_CHK) {
  36              		.loc 1 426 0
  37 0004 10B5     		push	{r4, lr}
  38              		.cfi_def_cfa_offset 8
  39              		.cfi_offset 4, -8
  40              		.cfi_offset 14, -4
  41 0006 1446     		mov	r4, r2
 428:..\..\..\lvgl\version_6.1.2\lvgl\src\lv_objx/lv_btn.c ****         return false;
 429:..\..\..\lvgl\version_6.1.2\lvgl\src\lv_objx/lv_btn.c ****     } else if(mode == LV_DESIGN_DRAW_MAIN) {
  42              		.loc 1 429 0
  43 0008 2AB1     		cbz	r2, .L8
 430:..\..\..\lvgl\version_6.1.2\lvgl\src\lv_objx/lv_btn.c **** 
 431:..\..\..\lvgl\version_6.1.2\lvgl\src\lv_objx/lv_btn.c **** #if LV_USE_ANIMATION && LV_BTN_INK_EFFECT
 432:..\..\..\lvgl\version_6.1.2\lvgl\src\lv_objx/lv_btn.c ****         if(btn != ink_obj) {
 433:..\..\..\lvgl\version_6.1.2\lvgl\src\lv_objx/lv_btn.c ****             ancestor_design(btn, mask, mode);
 434:..\..\..\lvgl\version_6.1.2\lvgl\src\lv_objx/lv_btn.c ****         } else {
 435:..\..\..\lvgl\version_6.1.2\lvgl\src\lv_objx/lv_btn.c ****             lv_opa_t opa_scale = lv_obj_get_opa_scale(btn);
 436:..\..\..\lvgl\version_6.1.2\lvgl\src\lv_objx/lv_btn.c ****             lv_btn_ext_t * ext = lv_obj_get_ext_attr(btn);
 437:..\..\..\lvgl\version_6.1.2\lvgl\src\lv_objx/lv_btn.c **** 
 438:..\..\..\lvgl\version_6.1.2\lvgl\src\lv_objx/lv_btn.c ****             /*Draw the normal button*/
 439:..\..\..\lvgl\version_6.1.2\lvgl\src\lv_objx/lv_btn.c ****             if(ink_playback == false) {
 440:..\..\..\lvgl\version_6.1.2\lvgl\src\lv_objx/lv_btn.c ****                 lv_style_t style_tmp;
 441:..\..\..\lvgl\version_6.1.2\lvgl\src\lv_objx/lv_btn.c ****                 lv_style_copy(&style_tmp, ext->styles[ink_bg_state]);
 442:..\..\..\lvgl\version_6.1.2\lvgl\src\lv_objx/lv_btn.c ****                 style_tmp.body.shadow.width = ext->styles[ink_top_state]->body.shadow.width;
 443:..\..\..\lvgl\version_6.1.2\lvgl\src\lv_objx/lv_btn.c ****                 lv_draw_rect(&btn->coords, mask, &style_tmp, opa_scale);
 444:..\..\..\lvgl\version_6.1.2\lvgl\src\lv_objx/lv_btn.c **** 
 445:..\..\..\lvgl\version_6.1.2\lvgl\src\lv_objx/lv_btn.c ****                 lv_coord_t w     = lv_obj_get_width(btn);
 446:..\..\..\lvgl\version_6.1.2\lvgl\src\lv_objx/lv_btn.c ****                 lv_coord_t h     = lv_obj_get_height(btn);
 447:..\..\..\lvgl\version_6.1.2\lvgl\src\lv_objx/lv_btn.c ****                 lv_coord_t r_max = LV_MATH_MIN(w, h) / 2;
 448:..\..\..\lvgl\version_6.1.2\lvgl\src\lv_objx/lv_btn.c **** 
 449:..\..\..\lvgl\version_6.1.2\lvgl\src\lv_objx/lv_btn.c ****                 /*In the first part of the animation increase the size of the circle (ink effect) *
 450:..\..\..\lvgl\version_6.1.2\lvgl\src\lv_objx/lv_btn.c ****                 lv_area_t cir_area;
 451:..\..\..\lvgl\version_6.1.2\lvgl\src\lv_objx/lv_btn.c **** 
 452:..\..\..\lvgl\version_6.1.2\lvgl\src\lv_objx/lv_btn.c ****                 lv_coord_t coord_state =
 453:..\..\..\lvgl\version_6.1.2\lvgl\src\lv_objx/lv_btn.c ****                     ink_act_value < LV_BTN_INK_VALUE_MAX / 2 ? ink_act_value : LV_BTN_INK_VALUE_MAX
 454:..\..\..\lvgl\version_6.1.2\lvgl\src\lv_objx/lv_btn.c ****                 lv_point_t p_act;
 455:..\..\..\lvgl\version_6.1.2\lvgl\src\lv_objx/lv_btn.c ****                 p_act.x          = ink_point.x;
 456:..\..\..\lvgl\version_6.1.2\lvgl\src\lv_objx/lv_btn.c ****                 p_act.y          = ink_point.y;
 457:..\..\..\lvgl\version_6.1.2\lvgl\src\lv_objx/lv_btn.c ****                 lv_coord_t x_err = (btn->coords.x1 + w / 2) - p_act.x;
 458:..\..\..\lvgl\version_6.1.2\lvgl\src\lv_objx/lv_btn.c ****                 lv_coord_t y_err = (btn->coords.y1 + h / 2) - p_act.y;
 459:..\..\..\lvgl\version_6.1.2\lvgl\src\lv_objx/lv_btn.c **** 
 460:..\..\..\lvgl\version_6.1.2\lvgl\src\lv_objx/lv_btn.c ****                 p_act.x += (x_err * coord_state) >> (LV_BTN_INK_VALUE_MAX_SHIFT - 1);
 461:..\..\..\lvgl\version_6.1.2\lvgl\src\lv_objx/lv_btn.c ****                 p_act.y += (y_err * coord_state) >> (LV_BTN_INK_VALUE_MAX_SHIFT - 1);
 462:..\..\..\lvgl\version_6.1.2\lvgl\src\lv_objx/lv_btn.c **** 
 463:..\..\..\lvgl\version_6.1.2\lvgl\src\lv_objx/lv_btn.c ****                 lv_coord_t half_side = LV_MATH_MAX(w, h) / 2;
 464:..\..\..\lvgl\version_6.1.2\lvgl\src\lv_objx/lv_btn.c ****                 cir_area.x1          = p_act.x - ((half_side * coord_state) >> (LV_BTN_INK_VALUE_MA
 465:..\..\..\lvgl\version_6.1.2\lvgl\src\lv_objx/lv_btn.c ****                 cir_area.y1          = p_act.y - ((half_side * coord_state) >> (LV_BTN_INK_VALUE_MA
 466:..\..\..\lvgl\version_6.1.2\lvgl\src\lv_objx/lv_btn.c ****                 cir_area.x2          = p_act.x + ((half_side * coord_state) >> (LV_BTN_INK_VALUE_MA
 467:..\..\..\lvgl\version_6.1.2\lvgl\src\lv_objx/lv_btn.c ****                 cir_area.y2          = p_act.y + ((half_side * coord_state) >> (LV_BTN_INK_VALUE_MA
 468:..\..\..\lvgl\version_6.1.2\lvgl\src\lv_objx/lv_btn.c **** 
 469:..\..\..\lvgl\version_6.1.2\lvgl\src\lv_objx/lv_btn.c ****                 lv_area_intersect(&cir_area, &btn->coords,
ARM GAS  C:\Users\pearlstl\AppData\Local\Temp\ccbEAAPX.s 			page 10


 470:..\..\..\lvgl\version_6.1.2\lvgl\src\lv_objx/lv_btn.c ****                                   &cir_area); /*Limit the area. (It might be too big on the smaller
 471:..\..\..\lvgl\version_6.1.2\lvgl\src\lv_objx/lv_btn.c **** 
 472:..\..\..\lvgl\version_6.1.2\lvgl\src\lv_objx/lv_btn.c ****                 /*In the second part animate the radius. Circle -> body.radius*/
 473:..\..\..\lvgl\version_6.1.2\lvgl\src\lv_objx/lv_btn.c ****                 lv_coord_t r_state =
 474:..\..\..\lvgl\version_6.1.2\lvgl\src\lv_objx/lv_btn.c ****                     ink_act_value > LV_BTN_INK_VALUE_MAX / 2 ? ink_act_value - LV_BTN_INK_VALUE_MAX
 475:..\..\..\lvgl\version_6.1.2\lvgl\src\lv_objx/lv_btn.c **** 
 476:..\..\..\lvgl\version_6.1.2\lvgl\src\lv_objx/lv_btn.c ****                 lv_style_copy(&style_tmp, ext->styles[ink_top_state]);
 477:..\..\..\lvgl\version_6.1.2\lvgl\src\lv_objx/lv_btn.c ****                 style_tmp.body.radius       = r_max + (((ext->styles[ink_bg_state]->body.radius - r
 478:..\..\..\lvgl\version_6.1.2\lvgl\src\lv_objx/lv_btn.c ****                                                  (LV_BTN_INK_VALUE_MAX_SHIFT - 1));
 479:..\..\..\lvgl\version_6.1.2\lvgl\src\lv_objx/lv_btn.c ****                 style_tmp.body.border.width = 0;
 480:..\..\..\lvgl\version_6.1.2\lvgl\src\lv_objx/lv_btn.c **** 
 481:..\..\..\lvgl\version_6.1.2\lvgl\src\lv_objx/lv_btn.c ****                 /*Draw the circle*/
 482:..\..\..\lvgl\version_6.1.2\lvgl\src\lv_objx/lv_btn.c ****                 lv_draw_rect(&cir_area, mask, &style_tmp, opa_scale);
 483:..\..\..\lvgl\version_6.1.2\lvgl\src\lv_objx/lv_btn.c ****             } else {
 484:..\..\..\lvgl\version_6.1.2\lvgl\src\lv_objx/lv_btn.c ****                 lv_style_t res;
 485:..\..\..\lvgl\version_6.1.2\lvgl\src\lv_objx/lv_btn.c ****                 lv_style_copy(&res, ext->styles[ink_bg_state]);
 486:..\..\..\lvgl\version_6.1.2\lvgl\src\lv_objx/lv_btn.c ****                 lv_style_mix(ext->styles[ink_bg_state], ext->styles[ink_top_state], &res, ink_act_v
 487:..\..\..\lvgl\version_6.1.2\lvgl\src\lv_objx/lv_btn.c ****                 lv_draw_rect(&btn->coords, mask, &res, opa_scale);
 488:..\..\..\lvgl\version_6.1.2\lvgl\src\lv_objx/lv_btn.c ****             }
 489:..\..\..\lvgl\version_6.1.2\lvgl\src\lv_objx/lv_btn.c ****         }
 490:..\..\..\lvgl\version_6.1.2\lvgl\src\lv_objx/lv_btn.c **** #else
 491:..\..\..\lvgl\version_6.1.2\lvgl\src\lv_objx/lv_btn.c ****         ancestor_design(btn, mask, mode);
 492:..\..\..\lvgl\version_6.1.2\lvgl\src\lv_objx/lv_btn.c **** #endif
 493:..\..\..\lvgl\version_6.1.2\lvgl\src\lv_objx/lv_btn.c ****     } else if(mode == LV_DESIGN_DRAW_POST) {
  44              		.loc 1 493 0
  45 000a 012A     		cmp	r2, #1
  46 000c 08D0     		beq	.L9
 494:..\..\..\lvgl\version_6.1.2\lvgl\src\lv_objx/lv_btn.c ****         ancestor_design(btn, mask, mode);
 495:..\..\..\lvgl\version_6.1.2\lvgl\src\lv_objx/lv_btn.c ****     }
 496:..\..\..\lvgl\version_6.1.2\lvgl\src\lv_objx/lv_btn.c **** 
 497:..\..\..\lvgl\version_6.1.2\lvgl\src\lv_objx/lv_btn.c ****     return true;
  47              		.loc 1 497 0
  48 000e 0120     		movs	r0, #1
  49              	.LVL1:
 498:..\..\..\lvgl\version_6.1.2\lvgl\src\lv_objx/lv_btn.c **** }
  50              		.loc 1 498 0
  51 0010 10BD     		pop	{r4, pc}
  52              	.LVL2:
  53              	.L4:
  54              		.cfi_def_cfa_offset 0
  55              		.cfi_restore 4
  56              		.cfi_restore 14
 428:..\..\..\lvgl\version_6.1.2\lvgl\src\lv_objx/lv_btn.c ****     } else if(mode == LV_DESIGN_DRAW_MAIN) {
  57              		.loc 1 428 0
  58 0012 0020     		movs	r0, #0
  59              	.LVL3:
  60              		.loc 1 498 0
  61 0014 7047     		bx	lr
  62              	.LVL4:
  63              	.L8:
  64              		.cfi_def_cfa_offset 8
  65              		.cfi_offset 4, -8
  66              		.cfi_offset 14, -4
 491:..\..\..\lvgl\version_6.1.2\lvgl\src\lv_objx/lv_btn.c **** #endif
  67              		.loc 1 491 0
  68 0016 054B     		ldr	r3, .L10
  69 0018 1B68     		ldr	r3, [r3]
ARM GAS  C:\Users\pearlstl\AppData\Local\Temp\ccbEAAPX.s 			page 11


  70 001a 9847     		blx	r3
  71              	.LVL5:
 497:..\..\..\lvgl\version_6.1.2\lvgl\src\lv_objx/lv_btn.c **** }
  72              		.loc 1 497 0
  73 001c 0120     		movs	r0, #1
  74 001e 10BD     		pop	{r4, pc}
  75              	.LVL6:
  76              	.L9:
  77              	.LBB20:
  78              	.LBB21:
 494:..\..\..\lvgl\version_6.1.2\lvgl\src\lv_objx/lv_btn.c ****     }
  79              		.loc 1 494 0
  80 0020 024B     		ldr	r3, .L10
  81 0022 1B68     		ldr	r3, [r3]
  82 0024 9847     		blx	r3
  83              	.LVL7:
  84 0026 2046     		mov	r0, r4
  85 0028 10BD     		pop	{r4, pc}
  86              	.L11:
  87 002a 00BF     		.align	2
  88              	.L10:
  89 002c 00000000 		.word	.LANCHOR0
  90              	.LBE21:
  91              	.LBE20:
  92              		.cfi_endproc
  93              	.LFE58:
  94              		.size	lv_btn_design, .-lv_btn_design
  95              		.section	.text.lv_btn_set_state.constprop.3,"ax",%progbits
  96              		.align	2
  97              		.thumb
  98              		.thumb_func
  99              		.type	lv_btn_set_state.constprop.3, %function
 100              	lv_btn_set_state.constprop.3:
 101              	.LFB70:
 175:..\..\..\lvgl\version_6.1.2\lvgl\src\lv_objx/lv_btn.c **** {
 102              		.loc 1 175 0
 103              		.cfi_startproc
 104              		@ args = 0, pretend = 0, frame = 0
 105              		@ frame_needed = 0, uses_anonymous_args = 0
 106              	.LVL8:
 107 0000 10B5     		push	{r4, lr}
 108              		.cfi_def_cfa_offset 8
 109              		.cfi_offset 4, -8
 110              		.cfi_offset 14, -4
 175:..\..\..\lvgl\version_6.1.2\lvgl\src\lv_objx/lv_btn.c **** {
 111              		.loc 1 175 0
 112 0002 0446     		mov	r4, r0
 179:..\..\..\lvgl\version_6.1.2\lvgl\src\lv_objx/lv_btn.c ****     if(ext->state != state) {
 113              		.loc 1 179 0
 114 0004 FFF7FEFF 		bl	lv_obj_get_ext_attr
 115              	.LVL9:
 180:..\..\..\lvgl\version_6.1.2\lvgl\src\lv_objx/lv_btn.c ****         ext->state = state;
 116              		.loc 1 180 0
 117 0008 037E     		ldrb	r3, [r0, #24]	@ zero_extendqisi2
 118 000a 03F00701 		and	r1, r3, #7
 119 000e 0229     		cmp	r1, #2
 120 0010 0AD0     		beq	.L12
ARM GAS  C:\Users\pearlstl\AppData\Local\Temp\ccbEAAPX.s 			page 12


 121 0012 0246     		mov	r2, r0
 181:..\..\..\lvgl\version_6.1.2\lvgl\src\lv_objx/lv_btn.c ****         lv_obj_set_style(btn, ext->styles[state]);
 122              		.loc 1 181 0
 123 0014 0221     		movs	r1, #2
 124 0016 61F30203 		bfi	r3, r1, #0, #3
 182:..\..\..\lvgl\version_6.1.2\lvgl\src\lv_objx/lv_btn.c ****     }
 125              		.loc 1 182 0
 126 001a 2046     		mov	r0, r4
 127              	.LVL10:
 181:..\..\..\lvgl\version_6.1.2\lvgl\src\lv_objx/lv_btn.c ****         lv_obj_set_style(btn, ext->styles[state]);
 128              		.loc 1 181 0
 129 001c 1376     		strb	r3, [r2, #24]
 182:..\..\..\lvgl\version_6.1.2\lvgl\src\lv_objx/lv_btn.c ****     }
 130              		.loc 1 182 0
 131 001e D168     		ldr	r1, [r2, #12]
 184:..\..\..\lvgl\version_6.1.2\lvgl\src\lv_objx/lv_btn.c **** 
 132              		.loc 1 184 0
 133 0020 BDE81040 		pop	{r4, lr}
 134              		.cfi_remember_state
 135              		.cfi_restore 14
 136              		.cfi_restore 4
 137              		.cfi_def_cfa_offset 0
 138              	.LVL11:
 182:..\..\..\lvgl\version_6.1.2\lvgl\src\lv_objx/lv_btn.c ****     }
 139              		.loc 1 182 0
 140 0024 FFF7FEBF 		b	lv_obj_set_style
 141              	.LVL12:
 142              	.L12:
 143              		.cfi_restore_state
 144 0028 10BD     		pop	{r4, pc}
 145              		.cfi_endproc
 146              	.LFE70:
 147              		.size	lv_btn_set_state.constprop.3, .-lv_btn_set_state.constprop.3
 148 002a 00BF     		.section	.text.lv_btn_set_state.constprop.4,"ax",%progbits
 149              		.align	2
 150              		.thumb
 151              		.thumb_func
 152              		.type	lv_btn_set_state.constprop.4, %function
 153              	lv_btn_set_state.constprop.4:
 154              	.LFB69:
 175:..\..\..\lvgl\version_6.1.2\lvgl\src\lv_objx/lv_btn.c **** {
 155              		.loc 1 175 0
 156              		.cfi_startproc
 157              		@ args = 0, pretend = 0, frame = 0
 158              		@ frame_needed = 0, uses_anonymous_args = 0
 159              	.LVL13:
 160 0000 10B5     		push	{r4, lr}
 161              		.cfi_def_cfa_offset 8
 162              		.cfi_offset 4, -8
 163              		.cfi_offset 14, -4
 175:..\..\..\lvgl\version_6.1.2\lvgl\src\lv_objx/lv_btn.c **** {
 164              		.loc 1 175 0
 165 0002 0446     		mov	r4, r0
 179:..\..\..\lvgl\version_6.1.2\lvgl\src\lv_objx/lv_btn.c ****     if(ext->state != state) {
 166              		.loc 1 179 0
 167 0004 FFF7FEFF 		bl	lv_obj_get_ext_attr
 168              	.LVL14:
ARM GAS  C:\Users\pearlstl\AppData\Local\Temp\ccbEAAPX.s 			page 13


 180:..\..\..\lvgl\version_6.1.2\lvgl\src\lv_objx/lv_btn.c ****         ext->state = state;
 169              		.loc 1 180 0
 170 0008 037E     		ldrb	r3, [r0, #24]	@ zero_extendqisi2
 171 000a 5A07     		lsls	r2, r3, #29
 172 000c 08D0     		beq	.L15
 181:..\..\..\lvgl\version_6.1.2\lvgl\src\lv_objx/lv_btn.c ****         lv_obj_set_style(btn, ext->styles[state]);
 173              		.loc 1 181 0
 174 000e 6FF30203 		bfc	r3, #0, #3
 175 0012 0376     		strb	r3, [r0, #24]
 182:..\..\..\lvgl\version_6.1.2\lvgl\src\lv_objx/lv_btn.c ****     }
 176              		.loc 1 182 0
 177 0014 4168     		ldr	r1, [r0, #4]
 178 0016 2046     		mov	r0, r4
 179              	.LVL15:
 184:..\..\..\lvgl\version_6.1.2\lvgl\src\lv_objx/lv_btn.c **** 
 180              		.loc 1 184 0
 181 0018 BDE81040 		pop	{r4, lr}
 182              		.cfi_remember_state
 183              		.cfi_restore 14
 184              		.cfi_restore 4
 185              		.cfi_def_cfa_offset 0
 186              	.LVL16:
 182:..\..\..\lvgl\version_6.1.2\lvgl\src\lv_objx/lv_btn.c ****     }
 187              		.loc 1 182 0
 188 001c FFF7FEBF 		b	lv_obj_set_style
 189              	.LVL17:
 190              	.L15:
 191              		.cfi_restore_state
 192 0020 10BD     		pop	{r4, pc}
 193              		.cfi_endproc
 194              	.LFE69:
 195              		.size	lv_btn_set_state.constprop.4, .-lv_btn_set_state.constprop.4
 196 0022 00BF     		.section	.text.lv_btn_signal,"ax",%progbits
 197              		.align	2
 198              		.thumb
 199              		.thumb_func
 200              		.type	lv_btn_signal, %function
 201              	lv_btn_signal:
 202              	.LFB59:
 499:..\..\..\lvgl\version_6.1.2\lvgl\src\lv_objx/lv_btn.c **** 
 500:..\..\..\lvgl\version_6.1.2\lvgl\src\lv_objx/lv_btn.c **** /**
 501:..\..\..\lvgl\version_6.1.2\lvgl\src\lv_objx/lv_btn.c ****  * Signal function of the button
 502:..\..\..\lvgl\version_6.1.2\lvgl\src\lv_objx/lv_btn.c ****  * @param btn pointer to a button object
 503:..\..\..\lvgl\version_6.1.2\lvgl\src\lv_objx/lv_btn.c ****  * @param sign a signal type from lv_signal_t enum
 504:..\..\..\lvgl\version_6.1.2\lvgl\src\lv_objx/lv_btn.c ****  * @param param pointer to a signal specific variable
 505:..\..\..\lvgl\version_6.1.2\lvgl\src\lv_objx/lv_btn.c ****  * @return LV_RES_OK: the object is not deleted in the function; LV_RES_INV: the object is deleted
 506:..\..\..\lvgl\version_6.1.2\lvgl\src\lv_objx/lv_btn.c ****  */
 507:..\..\..\lvgl\version_6.1.2\lvgl\src\lv_objx/lv_btn.c **** static lv_res_t lv_btn_signal(lv_obj_t * btn, lv_signal_t sign, void * param)
 508:..\..\..\lvgl\version_6.1.2\lvgl\src\lv_objx/lv_btn.c **** {
 203              		.loc 1 508 0
 204              		.cfi_startproc
 205              		@ args = 0, pretend = 0, frame = 8
 206              		@ frame_needed = 0, uses_anonymous_args = 0
 207              	.LVL18:
 208 0000 2DE9F041 		push	{r4, r5, r6, r7, r8, lr}
 209              		.cfi_def_cfa_offset 24
 210              		.cfi_offset 4, -24
ARM GAS  C:\Users\pearlstl\AppData\Local\Temp\ccbEAAPX.s 			page 14


 211              		.cfi_offset 5, -20
 212              		.cfi_offset 6, -16
 213              		.cfi_offset 7, -12
 214              		.cfi_offset 8, -8
 215              		.cfi_offset 14, -4
 509:..\..\..\lvgl\version_6.1.2\lvgl\src\lv_objx/lv_btn.c ****     lv_res_t res;
 510:..\..\..\lvgl\version_6.1.2\lvgl\src\lv_objx/lv_btn.c **** 
 511:..\..\..\lvgl\version_6.1.2\lvgl\src\lv_objx/lv_btn.c ****     /* Include the ancient signal function */
 512:..\..\..\lvgl\version_6.1.2\lvgl\src\lv_objx/lv_btn.c ****     res = ancestor_signal(btn, sign, param);
 216              		.loc 1 512 0
 217 0004 874B     		ldr	r3, .L102
 508:..\..\..\lvgl\version_6.1.2\lvgl\src\lv_objx/lv_btn.c ****     lv_res_t res;
 218              		.loc 1 508 0
 219 0006 82B0     		sub	sp, sp, #8
 220              		.cfi_def_cfa_offset 32
 221              		.loc 1 512 0
 222 0008 5B68     		ldr	r3, [r3, #4]
 508:..\..\..\lvgl\version_6.1.2\lvgl\src\lv_objx/lv_btn.c ****     lv_res_t res;
 223              		.loc 1 508 0
 224 000a 0646     		mov	r6, r0
 225 000c 0D46     		mov	r5, r1
 226 000e 1746     		mov	r7, r2
 227              		.loc 1 512 0
 228 0010 9847     		blx	r3
 229              	.LVL19:
 513:..\..\..\lvgl\version_6.1.2\lvgl\src\lv_objx/lv_btn.c ****     if(res != LV_RES_OK) return res;
 230              		.loc 1 513 0
 231 0012 0128     		cmp	r0, #1
 512:..\..\..\lvgl\version_6.1.2\lvgl\src\lv_objx/lv_btn.c ****     if(res != LV_RES_OK) return res;
 232              		.loc 1 512 0
 233 0014 0446     		mov	r4, r0
 234              	.LVL20:
 235              		.loc 1 513 0
 236 0016 04D0     		beq	.L87
 237 0018 0546     		mov	r5, r0
 238              	.LVL21:
 239              	.L80:
 514:..\..\..\lvgl\version_6.1.2\lvgl\src\lv_objx/lv_btn.c ****     if(sign == LV_SIGNAL_GET_TYPE) return lv_obj_handle_get_type_signal(param, LV_OBJX_NAME);
 515:..\..\..\lvgl\version_6.1.2\lvgl\src\lv_objx/lv_btn.c **** 
 516:..\..\..\lvgl\version_6.1.2\lvgl\src\lv_objx/lv_btn.c ****     lv_btn_ext_t * ext = lv_obj_get_ext_attr(btn);
 517:..\..\..\lvgl\version_6.1.2\lvgl\src\lv_objx/lv_btn.c ****     bool tgl           = lv_btn_get_toggle(btn);
 518:..\..\..\lvgl\version_6.1.2\lvgl\src\lv_objx/lv_btn.c **** 
 519:..\..\..\lvgl\version_6.1.2\lvgl\src\lv_objx/lv_btn.c ****     if(sign == LV_SIGNAL_PRESSED) {
 520:..\..\..\lvgl\version_6.1.2\lvgl\src\lv_objx/lv_btn.c ****         /*Refresh the state*/
 521:..\..\..\lvgl\version_6.1.2\lvgl\src\lv_objx/lv_btn.c ****         if(ext->state == LV_BTN_STATE_REL) {
 522:..\..\..\lvgl\version_6.1.2\lvgl\src\lv_objx/lv_btn.c ****             lv_btn_set_state(btn, LV_BTN_STATE_PR);
 523:..\..\..\lvgl\version_6.1.2\lvgl\src\lv_objx/lv_btn.c **** #if LV_USE_ANIMATION && LV_BTN_INK_EFFECT
 524:..\..\..\lvgl\version_6.1.2\lvgl\src\lv_objx/lv_btn.c ****             ink_bg_state  = LV_BTN_STATE_REL;
 525:..\..\..\lvgl\version_6.1.2\lvgl\src\lv_objx/lv_btn.c ****             ink_top_state = LV_BTN_STATE_PR;
 526:..\..\..\lvgl\version_6.1.2\lvgl\src\lv_objx/lv_btn.c **** #endif
 527:..\..\..\lvgl\version_6.1.2\lvgl\src\lv_objx/lv_btn.c ****         } else if(ext->state == LV_BTN_STATE_TGL_REL) {
 528:..\..\..\lvgl\version_6.1.2\lvgl\src\lv_objx/lv_btn.c ****             lv_btn_set_state(btn, LV_BTN_STATE_TGL_PR);
 529:..\..\..\lvgl\version_6.1.2\lvgl\src\lv_objx/lv_btn.c **** #if LV_USE_ANIMATION && LV_BTN_INK_EFFECT
 530:..\..\..\lvgl\version_6.1.2\lvgl\src\lv_objx/lv_btn.c ****             ink_bg_state  = LV_BTN_STATE_TGL_REL;
 531:..\..\..\lvgl\version_6.1.2\lvgl\src\lv_objx/lv_btn.c ****             ink_top_state = LV_BTN_STATE_TGL_PR;
 532:..\..\..\lvgl\version_6.1.2\lvgl\src\lv_objx/lv_btn.c **** #endif
 533:..\..\..\lvgl\version_6.1.2\lvgl\src\lv_objx/lv_btn.c ****         }
ARM GAS  C:\Users\pearlstl\AppData\Local\Temp\ccbEAAPX.s 			page 15


 534:..\..\..\lvgl\version_6.1.2\lvgl\src\lv_objx/lv_btn.c **** 
 535:..\..\..\lvgl\version_6.1.2\lvgl\src\lv_objx/lv_btn.c **** #if LV_USE_ANIMATION && LV_BTN_INK_EFFECT
 536:..\..\..\lvgl\version_6.1.2\lvgl\src\lv_objx/lv_btn.c ****         /*Forget the old inked button*/
 537:..\..\..\lvgl\version_6.1.2\lvgl\src\lv_objx/lv_btn.c ****         if(ink_obj != NULL && ink_obj != btn) {
 538:..\..\..\lvgl\version_6.1.2\lvgl\src\lv_objx/lv_btn.c ****             lv_anim_del(ink_obj, (lv_anim_exec_xcb_t)lv_btn_ink_effect_anim);
 539:..\..\..\lvgl\version_6.1.2\lvgl\src\lv_objx/lv_btn.c ****             lv_obj_invalidate(ink_obj);
 540:..\..\..\lvgl\version_6.1.2\lvgl\src\lv_objx/lv_btn.c ****             ink_obj = NULL;
 541:..\..\..\lvgl\version_6.1.2\lvgl\src\lv_objx/lv_btn.c ****         }
 542:..\..\..\lvgl\version_6.1.2\lvgl\src\lv_objx/lv_btn.c ****         /*Save the new data for inking and start it's animation if enabled*/
 543:..\..\..\lvgl\version_6.1.2\lvgl\src\lv_objx/lv_btn.c ****         if(ext->ink_in_time > 0) {
 544:..\..\..\lvgl\version_6.1.2\lvgl\src\lv_objx/lv_btn.c ****             ink_obj      = btn;
 545:..\..\..\lvgl\version_6.1.2\lvgl\src\lv_objx/lv_btn.c ****             ink_playback = false;
 546:..\..\..\lvgl\version_6.1.2\lvgl\src\lv_objx/lv_btn.c ****             ink_ready    = false;
 547:..\..\..\lvgl\version_6.1.2\lvgl\src\lv_objx/lv_btn.c ****             lv_indev_get_point(lv_indev_get_act(), &ink_point);
 548:..\..\..\lvgl\version_6.1.2\lvgl\src\lv_objx/lv_btn.c **** 
 549:..\..\..\lvgl\version_6.1.2\lvgl\src\lv_objx/lv_btn.c ****             lv_anim_t a;
 550:..\..\..\lvgl\version_6.1.2\lvgl\src\lv_objx/lv_btn.c ****             a.var            = btn;
 551:..\..\..\lvgl\version_6.1.2\lvgl\src\lv_objx/lv_btn.c ****             a.start          = 0;
 552:..\..\..\lvgl\version_6.1.2\lvgl\src\lv_objx/lv_btn.c ****             a.end            = LV_BTN_INK_VALUE_MAX;
 553:..\..\..\lvgl\version_6.1.2\lvgl\src\lv_objx/lv_btn.c ****             a.exec_cb        = (lv_anim_exec_xcb_t)lv_btn_ink_effect_anim;
 554:..\..\..\lvgl\version_6.1.2\lvgl\src\lv_objx/lv_btn.c ****             a.path_cb        = lv_anim_path_linear;
 555:..\..\..\lvgl\version_6.1.2\lvgl\src\lv_objx/lv_btn.c ****             a.ready_cb       = lv_btn_ink_effect_anim_ready;
 556:..\..\..\lvgl\version_6.1.2\lvgl\src\lv_objx/lv_btn.c ****             a.act_time       = 0;
 557:..\..\..\lvgl\version_6.1.2\lvgl\src\lv_objx/lv_btn.c ****             a.time           = ext->ink_in_time;
 558:..\..\..\lvgl\version_6.1.2\lvgl\src\lv_objx/lv_btn.c ****             a.playback       = 0;
 559:..\..\..\lvgl\version_6.1.2\lvgl\src\lv_objx/lv_btn.c ****             a.playback_pause = 0;
 560:..\..\..\lvgl\version_6.1.2\lvgl\src\lv_objx/lv_btn.c ****             a.repeat         = 0;
 561:..\..\..\lvgl\version_6.1.2\lvgl\src\lv_objx/lv_btn.c ****             a.repeat_pause   = 0;
 562:..\..\..\lvgl\version_6.1.2\lvgl\src\lv_objx/lv_btn.c ****             lv_anim_create(&a);
 563:..\..\..\lvgl\version_6.1.2\lvgl\src\lv_objx/lv_btn.c ****         }
 564:..\..\..\lvgl\version_6.1.2\lvgl\src\lv_objx/lv_btn.c **** #endif
 565:..\..\..\lvgl\version_6.1.2\lvgl\src\lv_objx/lv_btn.c ****     } else if(sign == LV_SIGNAL_PRESS_LOST) {
 566:..\..\..\lvgl\version_6.1.2\lvgl\src\lv_objx/lv_btn.c ****         /*Refresh the state*/
 567:..\..\..\lvgl\version_6.1.2\lvgl\src\lv_objx/lv_btn.c ****         if(ext->state == LV_BTN_STATE_PR)
 568:..\..\..\lvgl\version_6.1.2\lvgl\src\lv_objx/lv_btn.c ****             lv_btn_set_state(btn, LV_BTN_STATE_REL);
 569:..\..\..\lvgl\version_6.1.2\lvgl\src\lv_objx/lv_btn.c ****         else if(ext->state == LV_BTN_STATE_TGL_PR)
 570:..\..\..\lvgl\version_6.1.2\lvgl\src\lv_objx/lv_btn.c ****             lv_btn_set_state(btn, LV_BTN_STATE_TGL_REL);
 571:..\..\..\lvgl\version_6.1.2\lvgl\src\lv_objx/lv_btn.c ****     } else if(sign == LV_SIGNAL_PRESSING) {
 572:..\..\..\lvgl\version_6.1.2\lvgl\src\lv_objx/lv_btn.c ****         /*When the button begins to drag revert pressed states to released*/
 573:..\..\..\lvgl\version_6.1.2\lvgl\src\lv_objx/lv_btn.c ****         if(lv_indev_is_dragging(param) != false) {
 574:..\..\..\lvgl\version_6.1.2\lvgl\src\lv_objx/lv_btn.c ****             if(ext->state == LV_BTN_STATE_PR)
 575:..\..\..\lvgl\version_6.1.2\lvgl\src\lv_objx/lv_btn.c ****                 lv_btn_set_state(btn, LV_BTN_STATE_REL);
 576:..\..\..\lvgl\version_6.1.2\lvgl\src\lv_objx/lv_btn.c ****             else if(ext->state == LV_BTN_STATE_TGL_PR)
 577:..\..\..\lvgl\version_6.1.2\lvgl\src\lv_objx/lv_btn.c ****                 lv_btn_set_state(btn, LV_BTN_STATE_TGL_REL);
 578:..\..\..\lvgl\version_6.1.2\lvgl\src\lv_objx/lv_btn.c ****         }
 579:..\..\..\lvgl\version_6.1.2\lvgl\src\lv_objx/lv_btn.c ****     } else if(sign == LV_SIGNAL_RELEASED) {
 580:..\..\..\lvgl\version_6.1.2\lvgl\src\lv_objx/lv_btn.c ****         /*If not dragged and it was not long press action then
 581:..\..\..\lvgl\version_6.1.2\lvgl\src\lv_objx/lv_btn.c ****          *change state and run the action*/
 582:..\..\..\lvgl\version_6.1.2\lvgl\src\lv_objx/lv_btn.c ****         if(lv_indev_is_dragging(param) == false) {
 583:..\..\..\lvgl\version_6.1.2\lvgl\src\lv_objx/lv_btn.c ****             uint32_t toggled = 0;
 584:..\..\..\lvgl\version_6.1.2\lvgl\src\lv_objx/lv_btn.c ****             if(ext->state == LV_BTN_STATE_PR && tgl == false) {
 585:..\..\..\lvgl\version_6.1.2\lvgl\src\lv_objx/lv_btn.c ****                 lv_btn_set_state(btn, LV_BTN_STATE_REL);
 586:..\..\..\lvgl\version_6.1.2\lvgl\src\lv_objx/lv_btn.c ****                 toggled = 0;
 587:..\..\..\lvgl\version_6.1.2\lvgl\src\lv_objx/lv_btn.c ****             } else if(ext->state == LV_BTN_STATE_TGL_PR && tgl == false) {
 588:..\..\..\lvgl\version_6.1.2\lvgl\src\lv_objx/lv_btn.c ****                 lv_btn_set_state(btn, LV_BTN_STATE_TGL_REL);
 589:..\..\..\lvgl\version_6.1.2\lvgl\src\lv_objx/lv_btn.c ****                 toggled = 1;
 590:..\..\..\lvgl\version_6.1.2\lvgl\src\lv_objx/lv_btn.c ****             } else if(ext->state == LV_BTN_STATE_PR && tgl == true) {
ARM GAS  C:\Users\pearlstl\AppData\Local\Temp\ccbEAAPX.s 			page 16


 591:..\..\..\lvgl\version_6.1.2\lvgl\src\lv_objx/lv_btn.c ****                 lv_btn_set_state(btn, LV_BTN_STATE_TGL_REL);
 592:..\..\..\lvgl\version_6.1.2\lvgl\src\lv_objx/lv_btn.c ****                 toggled = 1;
 593:..\..\..\lvgl\version_6.1.2\lvgl\src\lv_objx/lv_btn.c ****             } else if(ext->state == LV_BTN_STATE_TGL_PR && tgl == true) {
 594:..\..\..\lvgl\version_6.1.2\lvgl\src\lv_objx/lv_btn.c ****                 lv_btn_set_state(btn, LV_BTN_STATE_REL);
 595:..\..\..\lvgl\version_6.1.2\lvgl\src\lv_objx/lv_btn.c ****                 toggled = 0;
 596:..\..\..\lvgl\version_6.1.2\lvgl\src\lv_objx/lv_btn.c ****             }
 597:..\..\..\lvgl\version_6.1.2\lvgl\src\lv_objx/lv_btn.c **** 
 598:..\..\..\lvgl\version_6.1.2\lvgl\src\lv_objx/lv_btn.c ****             if(tgl) {
 599:..\..\..\lvgl\version_6.1.2\lvgl\src\lv_objx/lv_btn.c ****                 res = lv_event_send(btn, LV_EVENT_VALUE_CHANGED, &toggled);
 600:..\..\..\lvgl\version_6.1.2\lvgl\src\lv_objx/lv_btn.c ****                 if(res != LV_RES_OK) return res;
 601:..\..\..\lvgl\version_6.1.2\lvgl\src\lv_objx/lv_btn.c ****             }
 602:..\..\..\lvgl\version_6.1.2\lvgl\src\lv_objx/lv_btn.c **** 
 603:..\..\..\lvgl\version_6.1.2\lvgl\src\lv_objx/lv_btn.c ****         } else { /*If dragged change back the state*/
 604:..\..\..\lvgl\version_6.1.2\lvgl\src\lv_objx/lv_btn.c ****             if(ext->state == LV_BTN_STATE_PR) {
 605:..\..\..\lvgl\version_6.1.2\lvgl\src\lv_objx/lv_btn.c ****                 lv_btn_set_state(btn, LV_BTN_STATE_REL);
 606:..\..\..\lvgl\version_6.1.2\lvgl\src\lv_objx/lv_btn.c ****             } else if(ext->state == LV_BTN_STATE_TGL_PR) {
 607:..\..\..\lvgl\version_6.1.2\lvgl\src\lv_objx/lv_btn.c ****                 lv_btn_set_state(btn, LV_BTN_STATE_TGL_REL);
 608:..\..\..\lvgl\version_6.1.2\lvgl\src\lv_objx/lv_btn.c ****             }
 609:..\..\..\lvgl\version_6.1.2\lvgl\src\lv_objx/lv_btn.c ****         }
 610:..\..\..\lvgl\version_6.1.2\lvgl\src\lv_objx/lv_btn.c **** 
 611:..\..\..\lvgl\version_6.1.2\lvgl\src\lv_objx/lv_btn.c **** #if LV_USE_ANIMATION && LV_BTN_INK_EFFECT
 612:..\..\..\lvgl\version_6.1.2\lvgl\src\lv_objx/lv_btn.c ****         /*Draw the toggled state in the inking instead*/
 613:..\..\..\lvgl\version_6.1.2\lvgl\src\lv_objx/lv_btn.c ****         if(ext->toggle) {
 614:..\..\..\lvgl\version_6.1.2\lvgl\src\lv_objx/lv_btn.c ****             ink_top_state = ext->state;
 615:..\..\..\lvgl\version_6.1.2\lvgl\src\lv_objx/lv_btn.c ****         }
 616:..\..\..\lvgl\version_6.1.2\lvgl\src\lv_objx/lv_btn.c ****         /*If not a toggle button and the "IN" inking is ready then start an "OUT" inking*/
 617:..\..\..\lvgl\version_6.1.2\lvgl\src\lv_objx/lv_btn.c ****         else if(ink_ready && ext->ink_out_time > 0) {
 618:..\..\..\lvgl\version_6.1.2\lvgl\src\lv_objx/lv_btn.c ****             ink_obj      = btn;
 619:..\..\..\lvgl\version_6.1.2\lvgl\src\lv_objx/lv_btn.c ****             ink_playback = true; /*It is the playback. If not set `lv_btn_ink_effect_anim_ready`
 620:..\..\..\lvgl\version_6.1.2\lvgl\src\lv_objx/lv_btn.c ****                                     will start its own playback*/
 621:..\..\..\lvgl\version_6.1.2\lvgl\src\lv_objx/lv_btn.c ****             lv_indev_get_point(lv_indev_get_act(), &ink_point);
 622:..\..\..\lvgl\version_6.1.2\lvgl\src\lv_objx/lv_btn.c **** 
 623:..\..\..\lvgl\version_6.1.2\lvgl\src\lv_objx/lv_btn.c ****             lv_anim_t a;
 624:..\..\..\lvgl\version_6.1.2\lvgl\src\lv_objx/lv_btn.c ****             a.var            = ink_obj;
 625:..\..\..\lvgl\version_6.1.2\lvgl\src\lv_objx/lv_btn.c ****             a.start          = LV_BTN_INK_VALUE_MAX;
 626:..\..\..\lvgl\version_6.1.2\lvgl\src\lv_objx/lv_btn.c ****             a.end            = 0;
 627:..\..\..\lvgl\version_6.1.2\lvgl\src\lv_objx/lv_btn.c ****             a.exec_cb        = (lv_anim_exec_xcb_t)lv_btn_ink_effect_anim;
 628:..\..\..\lvgl\version_6.1.2\lvgl\src\lv_objx/lv_btn.c ****             a.path_cb        = lv_anim_path_linear;
 629:..\..\..\lvgl\version_6.1.2\lvgl\src\lv_objx/lv_btn.c ****             a.ready_cb       = lv_btn_ink_effect_anim_ready;
 630:..\..\..\lvgl\version_6.1.2\lvgl\src\lv_objx/lv_btn.c ****             a.act_time       = 0;
 631:..\..\..\lvgl\version_6.1.2\lvgl\src\lv_objx/lv_btn.c ****             a.time           = ext->ink_out_time;
 632:..\..\..\lvgl\version_6.1.2\lvgl\src\lv_objx/lv_btn.c ****             a.playback       = 0;
 633:..\..\..\lvgl\version_6.1.2\lvgl\src\lv_objx/lv_btn.c ****             a.playback_pause = 0;
 634:..\..\..\lvgl\version_6.1.2\lvgl\src\lv_objx/lv_btn.c ****             a.repeat         = 0;
 635:..\..\..\lvgl\version_6.1.2\lvgl\src\lv_objx/lv_btn.c ****             a.repeat_pause   = 0;
 636:..\..\..\lvgl\version_6.1.2\lvgl\src\lv_objx/lv_btn.c ****             lv_anim_create(&a);
 637:..\..\..\lvgl\version_6.1.2\lvgl\src\lv_objx/lv_btn.c ****         }
 638:..\..\..\lvgl\version_6.1.2\lvgl\src\lv_objx/lv_btn.c **** #endif
 639:..\..\..\lvgl\version_6.1.2\lvgl\src\lv_objx/lv_btn.c ****     } else if(sign == LV_SIGNAL_CONTROL) {
 640:..\..\..\lvgl\version_6.1.2\lvgl\src\lv_objx/lv_btn.c ****         char c = *((char *)param);
 641:..\..\..\lvgl\version_6.1.2\lvgl\src\lv_objx/lv_btn.c ****         if(c == LV_KEY_RIGHT || c == LV_KEY_UP) {
 642:..\..\..\lvgl\version_6.1.2\lvgl\src\lv_objx/lv_btn.c ****             if(lv_btn_get_toggle(btn)) {
 643:..\..\..\lvgl\version_6.1.2\lvgl\src\lv_objx/lv_btn.c ****                 lv_btn_set_state(btn, LV_BTN_STATE_TGL_REL);
 644:..\..\..\lvgl\version_6.1.2\lvgl\src\lv_objx/lv_btn.c **** 
 645:..\..\..\lvgl\version_6.1.2\lvgl\src\lv_objx/lv_btn.c ****                 uint32_t state = 1;
 646:..\..\..\lvgl\version_6.1.2\lvgl\src\lv_objx/lv_btn.c ****                 res            = lv_event_send(btn, LV_EVENT_VALUE_CHANGED, &state);
 647:..\..\..\lvgl\version_6.1.2\lvgl\src\lv_objx/lv_btn.c ****                 if(res != LV_RES_OK) return res;
ARM GAS  C:\Users\pearlstl\AppData\Local\Temp\ccbEAAPX.s 			page 17


 648:..\..\..\lvgl\version_6.1.2\lvgl\src\lv_objx/lv_btn.c ****             }
 649:..\..\..\lvgl\version_6.1.2\lvgl\src\lv_objx/lv_btn.c **** 
 650:..\..\..\lvgl\version_6.1.2\lvgl\src\lv_objx/lv_btn.c ****         } else if(c == LV_KEY_LEFT || c == LV_KEY_DOWN) {
 651:..\..\..\lvgl\version_6.1.2\lvgl\src\lv_objx/lv_btn.c ****             if(lv_btn_get_toggle(btn)) {
 652:..\..\..\lvgl\version_6.1.2\lvgl\src\lv_objx/lv_btn.c ****                 lv_btn_set_state(btn, LV_BTN_STATE_REL);
 653:..\..\..\lvgl\version_6.1.2\lvgl\src\lv_objx/lv_btn.c **** 
 654:..\..\..\lvgl\version_6.1.2\lvgl\src\lv_objx/lv_btn.c ****                 uint32_t state = 0;
 655:..\..\..\lvgl\version_6.1.2\lvgl\src\lv_objx/lv_btn.c ****                 res            = lv_event_send(btn, LV_EVENT_VALUE_CHANGED, &state);
 656:..\..\..\lvgl\version_6.1.2\lvgl\src\lv_objx/lv_btn.c ****                 if(res != LV_RES_OK) return res;
 657:..\..\..\lvgl\version_6.1.2\lvgl\src\lv_objx/lv_btn.c ****             }
 658:..\..\..\lvgl\version_6.1.2\lvgl\src\lv_objx/lv_btn.c ****         }
 659:..\..\..\lvgl\version_6.1.2\lvgl\src\lv_objx/lv_btn.c ****     } else if(sign == LV_SIGNAL_CLEANUP) {
 660:..\..\..\lvgl\version_6.1.2\lvgl\src\lv_objx/lv_btn.c **** #if LV_USE_ANIMATION && LV_BTN_INK_EFFECT
 661:..\..\..\lvgl\version_6.1.2\lvgl\src\lv_objx/lv_btn.c ****         if(btn == ink_obj) {
 662:..\..\..\lvgl\version_6.1.2\lvgl\src\lv_objx/lv_btn.c ****             lv_anim_del(ink_obj, (lv_anim_exec_xcb_t)lv_btn_ink_effect_anim);
 663:..\..\..\lvgl\version_6.1.2\lvgl\src\lv_objx/lv_btn.c ****             ink_obj = NULL;
 664:..\..\..\lvgl\version_6.1.2\lvgl\src\lv_objx/lv_btn.c ****         }
 665:..\..\..\lvgl\version_6.1.2\lvgl\src\lv_objx/lv_btn.c **** #endif
 666:..\..\..\lvgl\version_6.1.2\lvgl\src\lv_objx/lv_btn.c ****     }
 667:..\..\..\lvgl\version_6.1.2\lvgl\src\lv_objx/lv_btn.c **** 
 668:..\..\..\lvgl\version_6.1.2\lvgl\src\lv_objx/lv_btn.c ****     return res;
 669:..\..\..\lvgl\version_6.1.2\lvgl\src\lv_objx/lv_btn.c **** }
 240              		.loc 1 669 0
 241 001a 2846     		mov	r0, r5
 242 001c 02B0     		add	sp, sp, #8
 243              		.cfi_remember_state
 244              		.cfi_def_cfa_offset 24
 245              		@ sp needed
 246 001e BDE8F081 		pop	{r4, r5, r6, r7, r8, pc}
 247              	.LVL22:
 248              	.L87:
 249              		.cfi_restore_state
 514:..\..\..\lvgl\version_6.1.2\lvgl\src\lv_objx/lv_btn.c ****     if(sign == LV_SIGNAL_GET_TYPE) return lv_obj_handle_get_type_signal(param, LV_OBJX_NAME);
 250              		.loc 1 514 0
 251 0022 072D     		cmp	r5, #7
 252 0024 4CD0     		beq	.L88
 516:..\..\..\lvgl\version_6.1.2\lvgl\src\lv_objx/lv_btn.c ****     bool tgl           = lv_btn_get_toggle(btn);
 253              		.loc 1 516 0
 254 0026 3046     		mov	r0, r6
 255              	.LVL23:
 256 0028 FFF7FEFF 		bl	lv_obj_get_ext_attr
 257              	.LVL24:
 258 002c 8046     		mov	r8, r0
 259              	.LVL25:
 260              	.LBB44:
 261              	.LBB45:
 315:..\..\..\lvgl\version_6.1.2\lvgl\src\lv_objx/lv_btn.c **** 
 262              		.loc 1 315 0
 263 002e 3046     		mov	r0, r6
 264              	.LVL26:
 265 0030 FFF7FEFF 		bl	lv_obj_get_ext_attr
 266              	.LVL27:
 267              	.LBE45:
 268              	.LBE44:
 519:..\..\..\lvgl\version_6.1.2\lvgl\src\lv_objx/lv_btn.c ****         /*Refresh the state*/
 269              		.loc 1 519 0
 270 0034 082D     		cmp	r5, #8
ARM GAS  C:\Users\pearlstl\AppData\Local\Temp\ccbEAAPX.s 			page 18


 271              	.LBB50:
 272              	.LBB46:
 315:..\..\..\lvgl\version_6.1.2\lvgl\src\lv_objx/lv_btn.c **** 
 273              		.loc 1 315 0
 274 0036 0346     		mov	r3, r0
 275              	.LVL28:
 276              	.LBE46:
 277              	.LBE50:
 519:..\..\..\lvgl\version_6.1.2\lvgl\src\lv_objx/lv_btn.c ****         /*Refresh the state*/
 278              		.loc 1 519 0
 279 0038 28D0     		beq	.L89
 565:..\..\..\lvgl\version_6.1.2\lvgl\src\lv_objx/lv_btn.c ****         /*Refresh the state*/
 280              		.loc 1 565 0
 281 003a 0A2D     		cmp	r5, #10
 282 003c 0AD0     		beq	.L90
 571:..\..\..\lvgl\version_6.1.2\lvgl\src\lv_objx/lv_btn.c ****         /*When the button begins to drag revert pressed states to released*/
 283              		.loc 1 571 0
 284 003e 092D     		cmp	r5, #9
 285 0040 6AD0     		beq	.L91
 579:..\..\..\lvgl\version_6.1.2\lvgl\src\lv_objx/lv_btn.c ****         /*If not dragged and it was not long press action then
 286              		.loc 1 579 0
 287 0042 0B2D     		cmp	r5, #11
 288 0044 7AD0     		beq	.L92
 639:..\..\..\lvgl\version_6.1.2\lvgl\src\lv_objx/lv_btn.c ****         char c = *((char *)param);
 289              		.loc 1 639 0
 290 0046 122D     		cmp	r5, #18
 291 0048 40D0     		beq	.L93
 292              	.L33:
 293              	.LVL29:
 294 004a 0125     		movs	r5, #1
 295              		.loc 1 669 0
 296 004c 2846     		mov	r0, r5
 297 004e 02B0     		add	sp, sp, #8
 298              		.cfi_remember_state
 299              		.cfi_def_cfa_offset 24
 300              		@ sp needed
 301 0050 BDE8F081 		pop	{r4, r5, r6, r7, r8, pc}
 302              	.LVL30:
 303              	.L90:
 304              		.cfi_restore_state
 567:..\..\..\lvgl\version_6.1.2\lvgl\src\lv_objx/lv_btn.c ****             lv_btn_set_state(btn, LV_BTN_STATE_REL);
 305              		.loc 1 567 0
 306 0054 98F81850 		ldrb	r5, [r8, #24]	@ zero_extendqisi2
 307 0058 05F00705 		and	r5, r5, #7
 308 005c 012D     		cmp	r5, #1
 309 005e 00F0B980 		beq	.L94
 569:..\..\..\lvgl\version_6.1.2\lvgl\src\lv_objx/lv_btn.c ****             lv_btn_set_state(btn, LV_BTN_STATE_TGL_REL);
 310              		.loc 1 569 0
 311 0062 032D     		cmp	r5, #3
 312 0064 F1D1     		bne	.L33
 313              	.LVL31:
 314              	.LBB51:
 315              	.LBB52:
 179:..\..\..\lvgl\version_6.1.2\lvgl\src\lv_objx/lv_btn.c ****     if(ext->state != state) {
 316              		.loc 1 179 0
 317 0066 3046     		mov	r0, r6
 318 0068 FFF7FEFF 		bl	lv_obj_get_ext_attr
ARM GAS  C:\Users\pearlstl\AppData\Local\Temp\ccbEAAPX.s 			page 19


 319              	.LVL32:
 180:..\..\..\lvgl\version_6.1.2\lvgl\src\lv_objx/lv_btn.c ****         ext->state = state;
 320              		.loc 1 180 0
 321 006c 037E     		ldrb	r3, [r0, #24]	@ zero_extendqisi2
 322 006e 03F00701 		and	r1, r3, #7
 323 0072 0229     		cmp	r1, #2
 179:..\..\..\lvgl\version_6.1.2\lvgl\src\lv_objx/lv_btn.c ****     if(ext->state != state) {
 324              		.loc 1 179 0
 325 0074 0246     		mov	r2, r0
 326              	.LVL33:
 180:..\..\..\lvgl\version_6.1.2\lvgl\src\lv_objx/lv_btn.c ****         ext->state = state;
 327              		.loc 1 180 0
 328 0076 E8D0     		beq	.L33
 181:..\..\..\lvgl\version_6.1.2\lvgl\src\lv_objx/lv_btn.c ****         lv_obj_set_style(btn, ext->styles[state]);
 329              		.loc 1 181 0
 330 0078 0221     		movs	r1, #2
 331 007a 61F30203 		bfi	r3, r1, #0, #3
 182:..\..\..\lvgl\version_6.1.2\lvgl\src\lv_objx/lv_btn.c ****     }
 332              		.loc 1 182 0
 333 007e 3046     		mov	r0, r6
 334              	.LVL34:
 181:..\..\..\lvgl\version_6.1.2\lvgl\src\lv_objx/lv_btn.c ****         lv_obj_set_style(btn, ext->styles[state]);
 335              		.loc 1 181 0
 336 0080 1376     		strb	r3, [r2, #24]
 182:..\..\..\lvgl\version_6.1.2\lvgl\src\lv_objx/lv_btn.c ****     }
 337              		.loc 1 182 0
 338 0082 D168     		ldr	r1, [r2, #12]
 339 0084 2546     		mov	r5, r4
 340 0086 FFF7FEFF 		bl	lv_obj_set_style
 341              	.LVL35:
 342 008a C6E7     		b	.L80
 343              	.LVL36:
 344              	.L89:
 345              	.LBE52:
 346              	.LBE51:
 521:..\..\..\lvgl\version_6.1.2\lvgl\src\lv_objx/lv_btn.c ****             lv_btn_set_state(btn, LV_BTN_STATE_PR);
 347              		.loc 1 521 0
 348 008c 98F81830 		ldrb	r3, [r8, #24]	@ zero_extendqisi2
 349 0090 13F00703 		ands	r3, r3, #7
 350 0094 71D0     		beq	.L95
 527:..\..\..\lvgl\version_6.1.2\lvgl\src\lv_objx/lv_btn.c ****             lv_btn_set_state(btn, LV_BTN_STATE_TGL_PR);
 351              		.loc 1 527 0
 352 0096 022B     		cmp	r3, #2
 353 0098 D7D1     		bne	.L33
 354              	.LVL37:
 355              	.LBB53:
 356              	.LBB54:
 179:..\..\..\lvgl\version_6.1.2\lvgl\src\lv_objx/lv_btn.c ****     if(ext->state != state) {
 357              		.loc 1 179 0
 358 009a 3046     		mov	r0, r6
 359 009c FFF7FEFF 		bl	lv_obj_get_ext_attr
 360              	.LVL38:
 180:..\..\..\lvgl\version_6.1.2\lvgl\src\lv_objx/lv_btn.c ****         ext->state = state;
 361              		.loc 1 180 0
 362 00a0 037E     		ldrb	r3, [r0, #24]	@ zero_extendqisi2
 363 00a2 03F00701 		and	r1, r3, #7
 364 00a6 0329     		cmp	r1, #3
ARM GAS  C:\Users\pearlstl\AppData\Local\Temp\ccbEAAPX.s 			page 20


 179:..\..\..\lvgl\version_6.1.2\lvgl\src\lv_objx/lv_btn.c ****     if(ext->state != state) {
 365              		.loc 1 179 0
 366 00a8 0246     		mov	r2, r0
 367              	.LVL39:
 180:..\..\..\lvgl\version_6.1.2\lvgl\src\lv_objx/lv_btn.c ****         ext->state = state;
 368              		.loc 1 180 0
 369 00aa CED0     		beq	.L33
 181:..\..\..\lvgl\version_6.1.2\lvgl\src\lv_objx/lv_btn.c ****         lv_obj_set_style(btn, ext->styles[state]);
 370              		.loc 1 181 0
 371 00ac 0321     		movs	r1, #3
 372 00ae 61F30203 		bfi	r3, r1, #0, #3
 182:..\..\..\lvgl\version_6.1.2\lvgl\src\lv_objx/lv_btn.c ****     }
 373              		.loc 1 182 0
 374 00b2 3046     		mov	r0, r6
 375              	.LVL40:
 181:..\..\..\lvgl\version_6.1.2\lvgl\src\lv_objx/lv_btn.c ****         lv_obj_set_style(btn, ext->styles[state]);
 376              		.loc 1 181 0
 377 00b4 1376     		strb	r3, [r2, #24]
 182:..\..\..\lvgl\version_6.1.2\lvgl\src\lv_objx/lv_btn.c ****     }
 378              		.loc 1 182 0
 379 00b6 1169     		ldr	r1, [r2, #16]
 380 00b8 2546     		mov	r5, r4
 381 00ba FFF7FEFF 		bl	lv_obj_set_style
 382              	.LVL41:
 383 00be ACE7     		b	.L80
 384              	.LVL42:
 385              	.L88:
 386              	.LBE54:
 387              	.LBE53:
 514:..\..\..\lvgl\version_6.1.2\lvgl\src\lv_objx/lv_btn.c **** 
 388              		.loc 1 514 0 discriminator 1
 389 00c0 3846     		mov	r0, r7
 390              	.LVL43:
 391 00c2 5949     		ldr	r1, .L102+4
 392 00c4 FFF7FEFF 		bl	lv_obj_handle_get_type_signal
 393              	.LVL44:
 394 00c8 0546     		mov	r5, r0
 395 00ca A6E7     		b	.L80
 396              	.LVL45:
 397              	.L93:
 398              	.LBB55:
 640:..\..\..\lvgl\version_6.1.2\lvgl\src\lv_objx/lv_btn.c ****         if(c == LV_KEY_RIGHT || c == LV_KEY_UP) {
 399              		.loc 1 640 0
 400 00cc 3B78     		ldrb	r3, [r7]	@ zero_extendqisi2
 401              	.LVL46:
 641:..\..\..\lvgl\version_6.1.2\lvgl\src\lv_objx/lv_btn.c ****             if(lv_btn_get_toggle(btn)) {
 402              		.loc 1 641 0
 403 00ce 03F0FD02 		and	r2, r3, #253
 404 00d2 112A     		cmp	r2, #17
 405 00d4 63D0     		beq	.L96
 650:..\..\..\lvgl\version_6.1.2\lvgl\src\lv_objx/lv_btn.c ****             if(lv_btn_get_toggle(btn)) {
 406              		.loc 1 650 0
 407 00d6 142B     		cmp	r3, #20
 408 00d8 01D0     		beq	.L42
 650:..\..\..\lvgl\version_6.1.2\lvgl\src\lv_objx/lv_btn.c ****             if(lv_btn_get_toggle(btn)) {
 409              		.loc 1 650 0 is_stmt 0 discriminator 1
 410 00da 122B     		cmp	r3, #18
ARM GAS  C:\Users\pearlstl\AppData\Local\Temp\ccbEAAPX.s 			page 21


 411 00dc B5D1     		bne	.L33
 412              	.L42:
 413              	.LVL47:
 414              	.LBB56:
 415              	.LBB57:
 315:..\..\..\lvgl\version_6.1.2\lvgl\src\lv_objx/lv_btn.c **** 
 416              		.loc 1 315 0 is_stmt 1
 417 00de 3046     		mov	r0, r6
 418 00e0 FFF7FEFF 		bl	lv_obj_get_ext_attr
 419              	.LVL48:
 420              	.LBE57:
 421              	.LBE56:
 651:..\..\..\lvgl\version_6.1.2\lvgl\src\lv_objx/lv_btn.c ****                 lv_btn_set_state(btn, LV_BTN_STATE_REL);
 422              		.loc 1 651 0
 423 00e4 037E     		ldrb	r3, [r0, #24]	@ zero_extendqisi2
 424 00e6 1907     		lsls	r1, r3, #28
 425 00e8 AFD5     		bpl	.L33
 426              	.LVL49:
 427              	.LBB58:
 428              	.LBB59:
 429              	.LBB60:
 179:..\..\..\lvgl\version_6.1.2\lvgl\src\lv_objx/lv_btn.c ****     if(ext->state != state) {
 430              		.loc 1 179 0
 431 00ea 3046     		mov	r0, r6
 432 00ec FFF7FEFF 		bl	lv_obj_get_ext_attr
 433              	.LVL50:
 180:..\..\..\lvgl\version_6.1.2\lvgl\src\lv_objx/lv_btn.c ****         ext->state = state;
 434              		.loc 1 180 0
 435 00f0 037E     		ldrb	r3, [r0, #24]	@ zero_extendqisi2
 436 00f2 5A07     		lsls	r2, r3, #29
 437 00f4 06D0     		beq	.L43
 181:..\..\..\lvgl\version_6.1.2\lvgl\src\lv_objx/lv_btn.c ****         lv_obj_set_style(btn, ext->styles[state]);
 438              		.loc 1 181 0
 439 00f6 6FF30203 		bfc	r3, #0, #3
 440 00fa 0376     		strb	r3, [r0, #24]
 182:..\..\..\lvgl\version_6.1.2\lvgl\src\lv_objx/lv_btn.c ****     }
 441              		.loc 1 182 0
 442 00fc 4168     		ldr	r1, [r0, #4]
 443 00fe 3046     		mov	r0, r6
 444              	.LVL51:
 445 0100 FFF7FEFF 		bl	lv_obj_set_style
 446              	.LVL52:
 447              	.L43:
 448              	.LBE60:
 449              	.LBE59:
 654:..\..\..\lvgl\version_6.1.2\lvgl\src\lv_objx/lv_btn.c ****                 res            = lv_event_send(btn, LV_EVENT_VALUE_CHANGED, &state);
 450              		.loc 1 654 0
 451 0104 02AA     		add	r2, sp, #8
 452 0106 0023     		movs	r3, #0
 453              	.L83:
 454 0108 42F8043D 		str	r3, [r2, #-4]!
 655:..\..\..\lvgl\version_6.1.2\lvgl\src\lv_objx/lv_btn.c ****                 if(res != LV_RES_OK) return res;
 455              		.loc 1 655 0
 456 010c 3046     		mov	r0, r6
 457 010e 0E21     		movs	r1, #14
 458 0110 FFF7FEFF 		bl	lv_event_send
 459              	.LVL53:
ARM GAS  C:\Users\pearlstl\AppData\Local\Temp\ccbEAAPX.s 			page 22


 656:..\..\..\lvgl\version_6.1.2\lvgl\src\lv_objx/lv_btn.c ****             }
 460              		.loc 1 656 0
 461 0114 0546     		mov	r5, r0
 462 0116 80E7     		b	.L80
 463              	.LVL54:
 464              	.L91:
 465              	.LBE58:
 466              	.LBE55:
 573:..\..\..\lvgl\version_6.1.2\lvgl\src\lv_objx/lv_btn.c ****             if(ext->state == LV_BTN_STATE_PR)
 467              		.loc 1 573 0
 468 0118 3846     		mov	r0, r7
 469 011a FFF7FEFF 		bl	lv_indev_is_dragging
 470              	.LVL55:
 471 011e 0028     		cmp	r0, #0
 472 0120 93D0     		beq	.L33
 473              	.L85:
 574:..\..\..\lvgl\version_6.1.2\lvgl\src\lv_objx/lv_btn.c ****                 lv_btn_set_state(btn, LV_BTN_STATE_REL);
 474              		.loc 1 574 0
 475 0122 98F81830 		ldrb	r3, [r8, #24]	@ zero_extendqisi2
 476 0126 03F00703 		and	r3, r3, #7
 477 012a 012B     		cmp	r3, #1
 478 012c 6ED0     		beq	.L97
 576:..\..\..\lvgl\version_6.1.2\lvgl\src\lv_objx/lv_btn.c ****                 lv_btn_set_state(btn, LV_BTN_STATE_TGL_REL);
 479              		.loc 1 576 0
 480 012e 032B     		cmp	r3, #3
 481 0130 8BD1     		bne	.L33
 577:..\..\..\lvgl\version_6.1.2\lvgl\src\lv_objx/lv_btn.c ****         }
 482              		.loc 1 577 0
 483 0132 3046     		mov	r0, r6
 484 0134 FFF7FEFF 		bl	lv_btn_set_state.constprop.3
 485              	.LVL56:
 486 0138 0125     		movs	r5, #1
 487 013a 6EE7     		b	.L80
 488              	.L92:
 582:..\..\..\lvgl\version_6.1.2\lvgl\src\lv_objx/lv_btn.c ****             uint32_t toggled = 0;
 489              		.loc 1 582 0
 490 013c 3846     		mov	r0, r7
 491              	.LBB67:
 492              	.LBB47:
 317:..\..\..\lvgl\version_6.1.2\lvgl\src\lv_objx/lv_btn.c **** }
 493              		.loc 1 317 0
 494 013e 1C7E     		ldrb	r4, [r3, #24]	@ zero_extendqisi2
 495              	.LBE47:
 496              	.LBE67:
 582:..\..\..\lvgl\version_6.1.2\lvgl\src\lv_objx/lv_btn.c ****             uint32_t toggled = 0;
 497              		.loc 1 582 0
 498 0140 FFF7FEFF 		bl	lv_indev_is_dragging
 499              	.LVL57:
 500 0144 0028     		cmp	r0, #0
 501 0146 ECD1     		bne	.L85
 502              	.LBB68:
 584:..\..\..\lvgl\version_6.1.2\lvgl\src\lv_objx/lv_btn.c ****                 lv_btn_set_state(btn, LV_BTN_STATE_REL);
 503              		.loc 1 584 0
 504 0148 98F81850 		ldrb	r5, [r8, #24]	@ zero_extendqisi2
 583:..\..\..\lvgl\version_6.1.2\lvgl\src\lv_objx/lv_btn.c ****             if(ext->state == LV_BTN_STATE_PR && tgl == false) {
 505              		.loc 1 583 0
 506 014c 0190     		str	r0, [sp, #4]
ARM GAS  C:\Users\pearlstl\AppData\Local\Temp\ccbEAAPX.s 			page 23


 584:..\..\..\lvgl\version_6.1.2\lvgl\src\lv_objx/lv_btn.c ****                 lv_btn_set_state(btn, LV_BTN_STATE_REL);
 507              		.loc 1 584 0
 508 014e 05F00705 		and	r5, r5, #7
 509              	.LBE68:
 510              	.LBB69:
 511              	.LBB48:
 317:..\..\..\lvgl\version_6.1.2\lvgl\src\lv_objx/lv_btn.c **** }
 512              		.loc 1 317 0
 513 0152 04F00804 		and	r4, r4, #8
 514              	.LBE48:
 515              	.LBE69:
 516              	.LBB70:
 584:..\..\..\lvgl\version_6.1.2\lvgl\src\lv_objx/lv_btn.c ****                 lv_btn_set_state(btn, LV_BTN_STATE_REL);
 517              		.loc 1 584 0
 518 0156 012D     		cmp	r5, #1
 519              	.LBE70:
 520              	.LBB71:
 521              	.LBB49:
 317:..\..\..\lvgl\version_6.1.2\lvgl\src\lv_objx/lv_btn.c **** }
 522              		.loc 1 317 0
 523 0158 E4B2     		uxtb	r4, r4
 524              	.LBE49:
 525              	.LBE71:
 526              	.LBB72:
 584:..\..\..\lvgl\version_6.1.2\lvgl\src\lv_objx/lv_btn.c ****                 lv_btn_set_state(btn, LV_BTN_STATE_REL);
 527              		.loc 1 584 0
 528 015a 4AD0     		beq	.L98
 587:..\..\..\lvgl\version_6.1.2\lvgl\src\lv_objx/lv_btn.c ****                 lv_btn_set_state(btn, LV_BTN_STATE_TGL_REL);
 529              		.loc 1 587 0
 530 015c 032D     		cmp	r5, #3
 531 015e 4ED0     		beq	.L99
 598:..\..\..\lvgl\version_6.1.2\lvgl\src\lv_objx/lv_btn.c ****                 res = lv_event_send(btn, LV_EVENT_VALUE_CHANGED, &toggled);
 532              		.loc 1 598 0
 533 0160 002C     		cmp	r4, #0
 534 0162 3FF472AF 		beq	.L33
 535              	.L36:
 599:..\..\..\lvgl\version_6.1.2\lvgl\src\lv_objx/lv_btn.c ****                 if(res != LV_RES_OK) return res;
 536              		.loc 1 599 0
 537 0166 3046     		mov	r0, r6
 538 0168 01AA     		add	r2, sp, #4
 539 016a 0E21     		movs	r1, #14
 540 016c FFF7FEFF 		bl	lv_event_send
 541              	.LVL58:
 600:..\..\..\lvgl\version_6.1.2\lvgl\src\lv_objx/lv_btn.c ****             }
 542              		.loc 1 600 0
 543 0170 0128     		cmp	r0, #1
 544 0172 3FF46AAF 		beq	.L33
 545              	.LBE72:
 546              	.LBB73:
 547              	.LBB61:
 656:..\..\..\lvgl\version_6.1.2\lvgl\src\lv_objx/lv_btn.c ****             }
 548              		.loc 1 656 0
 549 0176 0546     		mov	r5, r0
 550 0178 4FE7     		b	.L80
 551              	.LVL59:
 552              	.L95:
 553              	.LBE61:
ARM GAS  C:\Users\pearlstl\AppData\Local\Temp\ccbEAAPX.s 			page 24


 554              	.LBE73:
 555              	.LBB74:
 556              	.LBB75:
 179:..\..\..\lvgl\version_6.1.2\lvgl\src\lv_objx/lv_btn.c ****     if(ext->state != state) {
 557              		.loc 1 179 0
 558 017a 3046     		mov	r0, r6
 559 017c FFF7FEFF 		bl	lv_obj_get_ext_attr
 560              	.LVL60:
 180:..\..\..\lvgl\version_6.1.2\lvgl\src\lv_objx/lv_btn.c ****         ext->state = state;
 561              		.loc 1 180 0
 562 0180 037E     		ldrb	r3, [r0, #24]	@ zero_extendqisi2
 563 0182 03F00702 		and	r2, r3, #7
 564 0186 012A     		cmp	r2, #1
 565 0188 3FF45FAF 		beq	.L33
 181:..\..\..\lvgl\version_6.1.2\lvgl\src\lv_objx/lv_btn.c ****         lv_obj_set_style(btn, ext->styles[state]);
 566              		.loc 1 181 0
 567 018c 64F30203 		bfi	r3, r4, #0, #3
 568 0190 0376     		strb	r3, [r0, #24]
 182:..\..\..\lvgl\version_6.1.2\lvgl\src\lv_objx/lv_btn.c ****     }
 569              		.loc 1 182 0
 570 0192 8168     		ldr	r1, [r0, #8]
 571 0194 3046     		mov	r0, r6
 572              	.LVL61:
 573 0196 FFF7FEFF 		bl	lv_obj_set_style
 574              	.LVL62:
 575 019a 2546     		mov	r5, r4
 576 019c 3DE7     		b	.L80
 577              	.LVL63:
 578              	.L96:
 579              	.LBE75:
 580              	.LBE74:
 581              	.LBB76:
 582              	.LBB62:
 583              	.LBB63:
 315:..\..\..\lvgl\version_6.1.2\lvgl\src\lv_objx/lv_btn.c **** 
 584              		.loc 1 315 0
 585 019e 3046     		mov	r0, r6
 586 01a0 FFF7FEFF 		bl	lv_obj_get_ext_attr
 587              	.LVL64:
 588              	.LBE63:
 589              	.LBE62:
 642:..\..\..\lvgl\version_6.1.2\lvgl\src\lv_objx/lv_btn.c ****                 lv_btn_set_state(btn, LV_BTN_STATE_TGL_REL);
 590              		.loc 1 642 0
 591 01a4 037E     		ldrb	r3, [r0, #24]	@ zero_extendqisi2
 592 01a6 1807     		lsls	r0, r3, #28
 593 01a8 7FF54FAF 		bpl	.L33
 594              	.LVL65:
 595              	.LBB64:
 596              	.LBB65:
 597              	.LBB66:
 179:..\..\..\lvgl\version_6.1.2\lvgl\src\lv_objx/lv_btn.c ****     if(ext->state != state) {
 598              		.loc 1 179 0
 599 01ac 3046     		mov	r0, r6
 600 01ae FFF7FEFF 		bl	lv_obj_get_ext_attr
 601              	.LVL66:
 180:..\..\..\lvgl\version_6.1.2\lvgl\src\lv_objx/lv_btn.c ****         ext->state = state;
 602              		.loc 1 180 0
ARM GAS  C:\Users\pearlstl\AppData\Local\Temp\ccbEAAPX.s 			page 25


 603 01b2 037E     		ldrb	r3, [r0, #24]	@ zero_extendqisi2
 604 01b4 03F00703 		and	r3, r3, #7
 605 01b8 022B     		cmp	r3, #2
 606 01ba 08D0     		beq	.L40
 181:..\..\..\lvgl\version_6.1.2\lvgl\src\lv_objx/lv_btn.c ****         lv_obj_set_style(btn, ext->styles[state]);
 607              		.loc 1 181 0
 608 01bc 037E     		ldrb	r3, [r0, #24]	@ zero_extendqisi2
 182:..\..\..\lvgl\version_6.1.2\lvgl\src\lv_objx/lv_btn.c ****     }
 609              		.loc 1 182 0
 610 01be C168     		ldr	r1, [r0, #12]
 181:..\..\..\lvgl\version_6.1.2\lvgl\src\lv_objx/lv_btn.c ****         lv_obj_set_style(btn, ext->styles[state]);
 611              		.loc 1 181 0
 612 01c0 0222     		movs	r2, #2
 613 01c2 62F30203 		bfi	r3, r2, #0, #3
 614 01c6 0376     		strb	r3, [r0, #24]
 182:..\..\..\lvgl\version_6.1.2\lvgl\src\lv_objx/lv_btn.c ****     }
 615              		.loc 1 182 0
 616 01c8 3046     		mov	r0, r6
 617              	.LVL67:
 618 01ca FFF7FEFF 		bl	lv_obj_set_style
 619              	.LVL68:
 620              	.L40:
 621              	.LBE66:
 622              	.LBE65:
 645:..\..\..\lvgl\version_6.1.2\lvgl\src\lv_objx/lv_btn.c ****                 res            = lv_event_send(btn, LV_EVENT_VALUE_CHANGED, &state);
 623              		.loc 1 645 0
 624 01ce 02AA     		add	r2, sp, #8
 625 01d0 0123     		movs	r3, #1
 626 01d2 99E7     		b	.L83
 627              	.L94:
 628              	.LVL69:
 629              	.LBE64:
 630              	.LBE76:
 631              	.LBB77:
 632              	.LBB78:
 179:..\..\..\lvgl\version_6.1.2\lvgl\src\lv_objx/lv_btn.c ****     if(ext->state != state) {
 633              		.loc 1 179 0
 634 01d4 3046     		mov	r0, r6
 635 01d6 FFF7FEFF 		bl	lv_obj_get_ext_attr
 636              	.LVL70:
 180:..\..\..\lvgl\version_6.1.2\lvgl\src\lv_objx/lv_btn.c ****         ext->state = state;
 637              		.loc 1 180 0
 638 01da 037E     		ldrb	r3, [r0, #24]	@ zero_extendqisi2
 639 01dc 5C07     		lsls	r4, r3, #29
 640 01de 3FF434AF 		beq	.L33
 181:..\..\..\lvgl\version_6.1.2\lvgl\src\lv_objx/lv_btn.c ****         lv_obj_set_style(btn, ext->styles[state]);
 641              		.loc 1 181 0
 642 01e2 6FF30203 		bfc	r3, #0, #3
 643 01e6 0376     		strb	r3, [r0, #24]
 182:..\..\..\lvgl\version_6.1.2\lvgl\src\lv_objx/lv_btn.c ****     }
 644              		.loc 1 182 0
 645 01e8 4168     		ldr	r1, [r0, #4]
 646 01ea 3046     		mov	r0, r6
 647              	.LVL71:
 648 01ec FFF7FEFF 		bl	lv_obj_set_style
 649              	.LVL72:
 650 01f0 13E7     		b	.L80
ARM GAS  C:\Users\pearlstl\AppData\Local\Temp\ccbEAAPX.s 			page 26


 651              	.LVL73:
 652              	.L98:
 653              	.LBE78:
 654              	.LBE77:
 655              	.LBB79:
 585:..\..\..\lvgl\version_6.1.2\lvgl\src\lv_objx/lv_btn.c ****                 toggled = 0;
 656              		.loc 1 585 0 discriminator 1
 657 01f2 3046     		mov	r0, r6
 584:..\..\..\lvgl\version_6.1.2\lvgl\src\lv_objx/lv_btn.c ****                 lv_btn_set_state(btn, LV_BTN_STATE_REL);
 658              		.loc 1 584 0 discriminator 1
 659 01f4 7CB1     		cbz	r4, .L100
 660              	.LVL74:
 591:..\..\..\lvgl\version_6.1.2\lvgl\src\lv_objx/lv_btn.c ****                 toggled = 1;
 661              		.loc 1 591 0
 662 01f6 FFF7FEFF 		bl	lv_btn_set_state.constprop.3
 663              	.LVL75:
 592:..\..\..\lvgl\version_6.1.2\lvgl\src\lv_objx/lv_btn.c ****             } else if(ext->state == LV_BTN_STATE_TGL_PR && tgl == true) {
 664              		.loc 1 592 0
 665 01fa 0195     		str	r5, [sp, #4]
 666 01fc B3E7     		b	.L36
 667              	.L99:
 588:..\..\..\lvgl\version_6.1.2\lvgl\src\lv_objx/lv_btn.c ****                 toggled = 1;
 668              		.loc 1 588 0 discriminator 1
 669 01fe 3046     		mov	r0, r6
 587:..\..\..\lvgl\version_6.1.2\lvgl\src\lv_objx/lv_btn.c ****                 lv_btn_set_state(btn, LV_BTN_STATE_TGL_REL);
 670              		.loc 1 587 0 discriminator 1
 671 0200 64B1     		cbz	r4, .L101
 672              	.LVL76:
 594:..\..\..\lvgl\version_6.1.2\lvgl\src\lv_objx/lv_btn.c ****                 toggled = 0;
 673              		.loc 1 594 0
 674 0202 FFF7FEFF 		bl	lv_btn_set_state.constprop.4
 675              	.LVL77:
 595:..\..\..\lvgl\version_6.1.2\lvgl\src\lv_objx/lv_btn.c ****             }
 676              		.loc 1 595 0
 677 0206 0023     		movs	r3, #0
 678 0208 0193     		str	r3, [sp, #4]
 679 020a ACE7     		b	.L36
 680              	.L97:
 681              	.LBE79:
 575:..\..\..\lvgl\version_6.1.2\lvgl\src\lv_objx/lv_btn.c ****             else if(ext->state == LV_BTN_STATE_TGL_PR)
 682              		.loc 1 575 0
 683 020c 3046     		mov	r0, r6
 684 020e FFF7FEFF 		bl	lv_btn_set_state.constprop.4
 685              	.LVL78:
 686 0212 0125     		movs	r5, #1
 687 0214 01E7     		b	.L80
 688              	.LVL79:
 689              	.L100:
 690              	.LBB80:
 585:..\..\..\lvgl\version_6.1.2\lvgl\src\lv_objx/lv_btn.c ****                 toggled = 0;
 691              		.loc 1 585 0
 692 0216 FFF7FEFF 		bl	lv_btn_set_state.constprop.4
 693              	.LVL80:
 586:..\..\..\lvgl\version_6.1.2\lvgl\src\lv_objx/lv_btn.c ****             } else if(ext->state == LV_BTN_STATE_TGL_PR && tgl == false) {
 694              		.loc 1 586 0
 695 021a 16E7     		b	.L33
 696              	.LVL81:
ARM GAS  C:\Users\pearlstl\AppData\Local\Temp\ccbEAAPX.s 			page 27


 697              	.L101:
 588:..\..\..\lvgl\version_6.1.2\lvgl\src\lv_objx/lv_btn.c ****                 toggled = 1;
 698              		.loc 1 588 0
 699 021c FFF7FEFF 		bl	lv_btn_set_state.constprop.3
 700              	.LVL82:
 589:..\..\..\lvgl\version_6.1.2\lvgl\src\lv_objx/lv_btn.c ****             } else if(ext->state == LV_BTN_STATE_PR && tgl == true) {
 701              		.loc 1 589 0
 702 0220 13E7     		b	.L33
 703              	.L103:
 704 0222 00BF     		.align	2
 705              	.L102:
 706 0224 00000000 		.word	.LANCHOR0
 707 0228 00000000 		.word	.LC0
 708              	.LBE80:
 709              		.cfi_endproc
 710              	.LFE59:
 711              		.size	lv_btn_signal, .-lv_btn_signal
 712              		.section	.text.lv_btn_create,"ax",%progbits
 713              		.align	2
 714              		.global	lv_btn_create
 715              		.thumb
 716              		.thumb_func
 717              		.type	lv_btn_create, %function
 718              	lv_btn_create:
 719              	.LFB44:
  75:..\..\..\lvgl\version_6.1.2\lvgl\src\lv_objx/lv_btn.c ****     LV_LOG_TRACE("button create started");
 720              		.loc 1 75 0
 721              		.cfi_startproc
 722              		@ args = 0, pretend = 0, frame = 0
 723              		@ frame_needed = 0, uses_anonymous_args = 0
 724              	.LVL83:
 725 0000 F8B5     		push	{r3, r4, r5, r6, r7, lr}
 726              		.cfi_def_cfa_offset 24
 727              		.cfi_offset 3, -24
 728              		.cfi_offset 4, -20
 729              		.cfi_offset 5, -16
 730              		.cfi_offset 6, -12
 731              		.cfi_offset 7, -8
 732              		.cfi_offset 14, -4
  75:..\..\..\lvgl\version_6.1.2\lvgl\src\lv_objx/lv_btn.c ****     LV_LOG_TRACE("button create started");
 733              		.loc 1 75 0
 734 0002 0746     		mov	r7, r0
 735 0004 0E46     		mov	r6, r1
  80:..\..\..\lvgl\version_6.1.2\lvgl\src\lv_objx/lv_btn.c ****     LV_ASSERT_MEM(new_btn);
 736              		.loc 1 80 0
 737 0006 FFF7FEFF 		bl	lv_cont_create
 738              	.LVL84:
  82:..\..\..\lvgl\version_6.1.2\lvgl\src\lv_objx/lv_btn.c **** 
 739              		.loc 1 82 0
 740 000a 0028     		cmp	r0, #0
 741 000c 00F0AF80 		beq	.L109
  84:..\..\..\lvgl\version_6.1.2\lvgl\src\lv_objx/lv_btn.c ****     if(ancestor_design == NULL) ancestor_design = lv_obj_get_design_cb(new_btn);
 742              		.loc 1 84 0
 743 0010 5B4C     		ldr	r4, .L123
 744 0012 6368     		ldr	r3, [r4, #4]
 745 0014 0546     		mov	r5, r0
 746 0016 002B     		cmp	r3, #0
ARM GAS  C:\Users\pearlstl\AppData\Local\Temp\ccbEAAPX.s 			page 28


 747 0018 00F0A080 		beq	.L120
 748              	.LVL85:
 749              	.L107:
  85:..\..\..\lvgl\version_6.1.2\lvgl\src\lv_objx/lv_btn.c **** 
 750              		.loc 1 85 0
 751 001c 2368     		ldr	r3, [r4]
 752 001e 584C     		ldr	r4, .L123
 753 0020 002B     		cmp	r3, #0
 754 0022 00F09F80 		beq	.L121
 755              	.L108:
  88:..\..\..\lvgl\version_6.1.2\lvgl\src\lv_objx/lv_btn.c ****     LV_ASSERT_MEM(ext);
 756              		.loc 1 88 0
 757 0026 1C21     		movs	r1, #28
 758 0028 2846     		mov	r0, r5
 759 002a FFF7FEFF 		bl	lv_obj_allocate_ext_attr
 760              	.LVL86:
  90:..\..\..\lvgl\version_6.1.2\lvgl\src\lv_objx/lv_btn.c **** 
 761              		.loc 1 90 0
 762 002e 0446     		mov	r4, r0
 763 0030 0028     		cmp	r0, #0
 764 0032 00F09C80 		beq	.L109
  92:..\..\..\lvgl\version_6.1.2\lvgl\src\lv_objx/lv_btn.c **** 
 765              		.loc 1 92 0
 766 0036 037E     		ldrb	r3, [r0, #24]	@ zero_extendqisi2
  94:..\..\..\lvgl\version_6.1.2\lvgl\src\lv_objx/lv_btn.c ****     ext->styles[LV_BTN_STATE_PR]      = &lv_style_btn_pr;
 767              		.loc 1 94 0
 768 0038 524A     		ldr	r2, .L123+4
  95:..\..\..\lvgl\version_6.1.2\lvgl\src\lv_objx/lv_btn.c ****     ext->styles[LV_BTN_STATE_TGL_REL] = &lv_style_btn_tgl_rel;
 769              		.loc 1 95 0
 770 003a 5348     		ldr	r0, .L123+8
 771              	.LVL87:
  94:..\..\..\lvgl\version_6.1.2\lvgl\src\lv_objx/lv_btn.c ****     ext->styles[LV_BTN_STATE_PR]      = &lv_style_btn_pr;
 772              		.loc 1 94 0
 773 003c 6260     		str	r2, [r4, #4]
 100:..\..\..\lvgl\version_6.1.2\lvgl\src\lv_objx/lv_btn.c **** #if LV_USE_ANIMATION && LV_BTN_INK_EFFECT
 774              		.loc 1 100 0
 775 003e 03F0F803 		and	r3, r3, #248
 776 0042 6FF3C303 		bfc	r3, #3, #1
  96:..\..\..\lvgl\version_6.1.2\lvgl\src\lv_objx/lv_btn.c ****     ext->styles[LV_BTN_STATE_TGL_PR]  = &lv_style_btn_tgl_pr;
 777              		.loc 1 96 0
 778 0046 5149     		ldr	r1, .L123+12
  97:..\..\..\lvgl\version_6.1.2\lvgl\src\lv_objx/lv_btn.c ****     ext->styles[LV_BTN_STATE_INA]     = &lv_style_btn_ina;
 779              		.loc 1 97 0
 780 0048 514A     		ldr	r2, .L123+16
 100:..\..\..\lvgl\version_6.1.2\lvgl\src\lv_objx/lv_btn.c **** #if LV_USE_ANIMATION && LV_BTN_INK_EFFECT
 781              		.loc 1 100 0
 782 004a 2376     		strb	r3, [r4, #24]
  98:..\..\..\lvgl\version_6.1.2\lvgl\src\lv_objx/lv_btn.c **** 
 783              		.loc 1 98 0
 784 004c 514B     		ldr	r3, .L123+20
  95:..\..\..\lvgl\version_6.1.2\lvgl\src\lv_objx/lv_btn.c ****     ext->styles[LV_BTN_STATE_TGL_REL] = &lv_style_btn_tgl_rel;
 785              		.loc 1 95 0
 786 004e A060     		str	r0, [r4, #8]
  96:..\..\..\lvgl\version_6.1.2\lvgl\src\lv_objx/lv_btn.c ****     ext->styles[LV_BTN_STATE_TGL_PR]  = &lv_style_btn_tgl_pr;
 787              		.loc 1 96 0
 788 0050 E160     		str	r1, [r4, #12]
 107:..\..\..\lvgl\version_6.1.2\lvgl\src\lv_objx/lv_btn.c ****     lv_obj_set_design_cb(new_btn, lv_btn_design);
ARM GAS  C:\Users\pearlstl\AppData\Local\Temp\ccbEAAPX.s 			page 29


 789              		.loc 1 107 0
 790 0052 2846     		mov	r0, r5
 791 0054 5049     		ldr	r1, .L123+24
  97:..\..\..\lvgl\version_6.1.2\lvgl\src\lv_objx/lv_btn.c ****     ext->styles[LV_BTN_STATE_INA]     = &lv_style_btn_ina;
 792              		.loc 1 97 0
 793 0056 2261     		str	r2, [r4, #16]
  98:..\..\..\lvgl\version_6.1.2\lvgl\src\lv_objx/lv_btn.c **** 
 794              		.loc 1 98 0
 795 0058 6361     		str	r3, [r4, #20]
 107:..\..\..\lvgl\version_6.1.2\lvgl\src\lv_objx/lv_btn.c ****     lv_obj_set_design_cb(new_btn, lv_btn_design);
 796              		.loc 1 107 0
 797 005a FFF7FEFF 		bl	lv_obj_set_signal_cb
 798              	.LVL88:
 108:..\..\..\lvgl\version_6.1.2\lvgl\src\lv_objx/lv_btn.c **** 
 799              		.loc 1 108 0
 800 005e 4F49     		ldr	r1, .L123+28
 801 0060 2846     		mov	r0, r5
 802 0062 FFF7FEFF 		bl	lv_obj_set_design_cb
 803              	.LVL89:
 111:..\..\..\lvgl\version_6.1.2\lvgl\src\lv_objx/lv_btn.c ****         /*Set layout if the button is not a screen*/
 804              		.loc 1 111 0
 805 0066 F6B1     		cbz	r6, .L122
 806              	.LBB95:
 133:..\..\..\lvgl\version_6.1.2\lvgl\src\lv_objx/lv_btn.c ****         ext->state              = copy_ext->state;
 807              		.loc 1 133 0
 808 0068 3046     		mov	r0, r6
 809 006a FFF7FEFF 		bl	lv_obj_get_ext_attr
 810              	.LVL90:
 134:..\..\..\lvgl\version_6.1.2\lvgl\src\lv_objx/lv_btn.c ****         ext->toggle             = copy_ext->toggle;
 811              		.loc 1 134 0
 812 006e 237E     		ldrb	r3, [r4, #24]	@ zero_extendqisi2
 813 0070 027E     		ldrb	r2, [r0, #24]	@ zero_extendqisi2
 814 0072 62F30203 		bfi	r3, r2, #0, #3
 815 0076 2376     		strb	r3, [r4, #24]
 135:..\..\..\lvgl\version_6.1.2\lvgl\src\lv_objx/lv_btn.c **** #if LV_USE_ANIMATION && LV_BTN_INK_EFFECT
 816              		.loc 1 135 0
 817 0078 037E     		ldrb	r3, [r0, #24]	@ zero_extendqisi2
 818 007a 227E     		ldrb	r2, [r4, #24]	@ zero_extendqisi2
 819 007c C3F3C003 		ubfx	r3, r3, #3, #1
 820 0080 63F3C302 		bfi	r2, r3, #3, #1
 821 0084 2276     		strb	r2, [r4, #24]
 141:..\..\..\lvgl\version_6.1.2\lvgl\src\lv_objx/lv_btn.c **** 
 822              		.loc 1 141 0
 823 0086 50F8042F 		ldr	r2, [r0, #4]!	@ unaligned
 824              	.LVL91:
 825 008a 4768     		ldr	r7, [r0, #4]	@ unaligned
 826              	.LVL92:
 827 008c 8668     		ldr	r6, [r0, #8]	@ unaligned
 828              	.LVL93:
 829 008e C168     		ldr	r1, [r0, #12]	@ unaligned
 830 0090 2161     		str	r1, [r4, #16]	@ unaligned
 831 0092 6260     		str	r2, [r4, #4]	@ unaligned
 832 0094 A760     		str	r7, [r4, #8]	@ unaligned
 833 0096 E660     		str	r6, [r4, #12]	@ unaligned
 834 0098 0269     		ldr	r2, [r0, #16]	@ unaligned
 835 009a 6261     		str	r2, [r4, #20]	@ unaligned
 144:..\..\..\lvgl\version_6.1.2\lvgl\src\lv_objx/lv_btn.c ****     }
ARM GAS  C:\Users\pearlstl\AppData\Local\Temp\ccbEAAPX.s 			page 30


 836              		.loc 1 144 0
 837 009c 2846     		mov	r0, r5
 838              	.LVL94:
 839 009e FFF7FEFF 		bl	lv_obj_refresh_style
 840              	.LVL95:
 841 00a2 2846     		mov	r0, r5
 842              	.LBE95:
 150:..\..\..\lvgl\version_6.1.2\lvgl\src\lv_objx/lv_btn.c **** 
 843              		.loc 1 150 0
 844 00a4 F8BD     		pop	{r3, r4, r5, r6, r7, pc}
 845              	.LVL96:
 846              	.L122:
 847              	.LBB96:
 113:..\..\..\lvgl\version_6.1.2\lvgl\src\lv_objx/lv_btn.c ****             lv_btn_set_layout(new_btn, LV_LAYOUT_CENTER);
 848              		.loc 1 113 0
 849 00a6 1FB1     		cbz	r7, .L111
 850              	.LVL97:
 851              	.LBB97:
 852              	.LBB98:
 853              		.file 2 "..\\..\\..\\lvgl\\version_6.1.2\\lvgl\\src\\lv_objx\\lv_btn.h"
   1:..\..\..\lvgl\version_6.1.2\lvgl\src\lv_objx/lv_btn.h **** /**
   2:..\..\..\lvgl\version_6.1.2\lvgl\src\lv_objx/lv_btn.h ****  * @file lv_btn.h
   3:..\..\..\lvgl\version_6.1.2\lvgl\src\lv_objx/lv_btn.h ****  *
   4:..\..\..\lvgl\version_6.1.2\lvgl\src\lv_objx/lv_btn.h ****  */
   5:..\..\..\lvgl\version_6.1.2\lvgl\src\lv_objx/lv_btn.h **** 
   6:..\..\..\lvgl\version_6.1.2\lvgl\src\lv_objx/lv_btn.h **** #ifndef LV_BTN_H
   7:..\..\..\lvgl\version_6.1.2\lvgl\src\lv_objx/lv_btn.h **** #define LV_BTN_H
   8:..\..\..\lvgl\version_6.1.2\lvgl\src\lv_objx/lv_btn.h **** 
   9:..\..\..\lvgl\version_6.1.2\lvgl\src\lv_objx/lv_btn.h **** #ifdef __cplusplus
  10:..\..\..\lvgl\version_6.1.2\lvgl\src\lv_objx/lv_btn.h **** extern "C" {
  11:..\..\..\lvgl\version_6.1.2\lvgl\src\lv_objx/lv_btn.h **** #endif
  12:..\..\..\lvgl\version_6.1.2\lvgl\src\lv_objx/lv_btn.h **** 
  13:..\..\..\lvgl\version_6.1.2\lvgl\src\lv_objx/lv_btn.h **** /*********************
  14:..\..\..\lvgl\version_6.1.2\lvgl\src\lv_objx/lv_btn.h ****  *      INCLUDES
  15:..\..\..\lvgl\version_6.1.2\lvgl\src\lv_objx/lv_btn.h ****  *********************/
  16:..\..\..\lvgl\version_6.1.2\lvgl\src\lv_objx/lv_btn.h **** #ifdef LV_CONF_INCLUDE_SIMPLE
  17:..\..\..\lvgl\version_6.1.2\lvgl\src\lv_objx/lv_btn.h **** #include "lv_conf.h"
  18:..\..\..\lvgl\version_6.1.2\lvgl\src\lv_objx/lv_btn.h **** #else
  19:..\..\..\lvgl\version_6.1.2\lvgl\src\lv_objx/lv_btn.h **** #include "../../../lv_conf.h"
  20:..\..\..\lvgl\version_6.1.2\lvgl\src\lv_objx/lv_btn.h **** #endif
  21:..\..\..\lvgl\version_6.1.2\lvgl\src\lv_objx/lv_btn.h **** 
  22:..\..\..\lvgl\version_6.1.2\lvgl\src\lv_objx/lv_btn.h **** #if LV_USE_BTN != 0
  23:..\..\..\lvgl\version_6.1.2\lvgl\src\lv_objx/lv_btn.h **** 
  24:..\..\..\lvgl\version_6.1.2\lvgl\src\lv_objx/lv_btn.h **** /*Testing of dependencies*/
  25:..\..\..\lvgl\version_6.1.2\lvgl\src\lv_objx/lv_btn.h **** #if LV_USE_CONT == 0
  26:..\..\..\lvgl\version_6.1.2\lvgl\src\lv_objx/lv_btn.h **** #error "lv_btn: lv_cont is required. Enable it in lv_conf.h (LV_USE_CONT  1) "
  27:..\..\..\lvgl\version_6.1.2\lvgl\src\lv_objx/lv_btn.h **** #endif
  28:..\..\..\lvgl\version_6.1.2\lvgl\src\lv_objx/lv_btn.h **** 
  29:..\..\..\lvgl\version_6.1.2\lvgl\src\lv_objx/lv_btn.h **** #include "lv_cont.h"
  30:..\..\..\lvgl\version_6.1.2\lvgl\src\lv_objx/lv_btn.h **** #include "../lv_core/lv_indev.h"
  31:..\..\..\lvgl\version_6.1.2\lvgl\src\lv_objx/lv_btn.h **** 
  32:..\..\..\lvgl\version_6.1.2\lvgl\src\lv_objx/lv_btn.h **** /*********************
  33:..\..\..\lvgl\version_6.1.2\lvgl\src\lv_objx/lv_btn.h ****  *      DEFINES
  34:..\..\..\lvgl\version_6.1.2\lvgl\src\lv_objx/lv_btn.h ****  *********************/
  35:..\..\..\lvgl\version_6.1.2\lvgl\src\lv_objx/lv_btn.h **** 
  36:..\..\..\lvgl\version_6.1.2\lvgl\src\lv_objx/lv_btn.h **** /**********************
  37:..\..\..\lvgl\version_6.1.2\lvgl\src\lv_objx/lv_btn.h ****  *      TYPEDEFS
ARM GAS  C:\Users\pearlstl\AppData\Local\Temp\ccbEAAPX.s 			page 31


  38:..\..\..\lvgl\version_6.1.2\lvgl\src\lv_objx/lv_btn.h ****  **********************/
  39:..\..\..\lvgl\version_6.1.2\lvgl\src\lv_objx/lv_btn.h **** 
  40:..\..\..\lvgl\version_6.1.2\lvgl\src\lv_objx/lv_btn.h **** /** Possible states of a button.
  41:..\..\..\lvgl\version_6.1.2\lvgl\src\lv_objx/lv_btn.h ****  * It can be used not only by buttons but other button-like objects too*/
  42:..\..\..\lvgl\version_6.1.2\lvgl\src\lv_objx/lv_btn.h **** enum {
  43:..\..\..\lvgl\version_6.1.2\lvgl\src\lv_objx/lv_btn.h ****     /**Released*/
  44:..\..\..\lvgl\version_6.1.2\lvgl\src\lv_objx/lv_btn.h ****     LV_BTN_STATE_REL,
  45:..\..\..\lvgl\version_6.1.2\lvgl\src\lv_objx/lv_btn.h **** 
  46:..\..\..\lvgl\version_6.1.2\lvgl\src\lv_objx/lv_btn.h ****     /**Pressed*/
  47:..\..\..\lvgl\version_6.1.2\lvgl\src\lv_objx/lv_btn.h ****     LV_BTN_STATE_PR,
  48:..\..\..\lvgl\version_6.1.2\lvgl\src\lv_objx/lv_btn.h **** 
  49:..\..\..\lvgl\version_6.1.2\lvgl\src\lv_objx/lv_btn.h ****     /**Toggled released*/
  50:..\..\..\lvgl\version_6.1.2\lvgl\src\lv_objx/lv_btn.h ****     LV_BTN_STATE_TGL_REL,
  51:..\..\..\lvgl\version_6.1.2\lvgl\src\lv_objx/lv_btn.h **** 
  52:..\..\..\lvgl\version_6.1.2\lvgl\src\lv_objx/lv_btn.h ****     /**Toggled pressed*/
  53:..\..\..\lvgl\version_6.1.2\lvgl\src\lv_objx/lv_btn.h ****     LV_BTN_STATE_TGL_PR,
  54:..\..\..\lvgl\version_6.1.2\lvgl\src\lv_objx/lv_btn.h **** 
  55:..\..\..\lvgl\version_6.1.2\lvgl\src\lv_objx/lv_btn.h ****     /**Inactive*/
  56:..\..\..\lvgl\version_6.1.2\lvgl\src\lv_objx/lv_btn.h ****     LV_BTN_STATE_INA,
  57:..\..\..\lvgl\version_6.1.2\lvgl\src\lv_objx/lv_btn.h **** 
  58:..\..\..\lvgl\version_6.1.2\lvgl\src\lv_objx/lv_btn.h ****     /**Number of states*/
  59:..\..\..\lvgl\version_6.1.2\lvgl\src\lv_objx/lv_btn.h ****     _LV_BTN_STATE_NUM,
  60:..\..\..\lvgl\version_6.1.2\lvgl\src\lv_objx/lv_btn.h **** };
  61:..\..\..\lvgl\version_6.1.2\lvgl\src\lv_objx/lv_btn.h **** typedef uint8_t lv_btn_state_t;
  62:..\..\..\lvgl\version_6.1.2\lvgl\src\lv_objx/lv_btn.h **** 
  63:..\..\..\lvgl\version_6.1.2\lvgl\src\lv_objx/lv_btn.h **** /** Extended data of button*/
  64:..\..\..\lvgl\version_6.1.2\lvgl\src\lv_objx/lv_btn.h **** typedef struct
  65:..\..\..\lvgl\version_6.1.2\lvgl\src\lv_objx/lv_btn.h **** {
  66:..\..\..\lvgl\version_6.1.2\lvgl\src\lv_objx/lv_btn.h ****     /** Ext. of ancestor*/
  67:..\..\..\lvgl\version_6.1.2\lvgl\src\lv_objx/lv_btn.h ****     lv_cont_ext_t cont;
  68:..\..\..\lvgl\version_6.1.2\lvgl\src\lv_objx/lv_btn.h **** 
  69:..\..\..\lvgl\version_6.1.2\lvgl\src\lv_objx/lv_btn.h ****     /*New data for this type */
  70:..\..\..\lvgl\version_6.1.2\lvgl\src\lv_objx/lv_btn.h **** 
  71:..\..\..\lvgl\version_6.1.2\lvgl\src\lv_objx/lv_btn.h ****     /**Styles in each state*/
  72:..\..\..\lvgl\version_6.1.2\lvgl\src\lv_objx/lv_btn.h ****     const lv_style_t * styles[_LV_BTN_STATE_NUM];
  73:..\..\..\lvgl\version_6.1.2\lvgl\src\lv_objx/lv_btn.h **** #if LV_BTN_INK_EFFECT
  74:..\..\..\lvgl\version_6.1.2\lvgl\src\lv_objx/lv_btn.h ****     /** [ms] Time of ink fill effect (0: disable ink effect)*/
  75:..\..\..\lvgl\version_6.1.2\lvgl\src\lv_objx/lv_btn.h ****     uint16_t ink_in_time;
  76:..\..\..\lvgl\version_6.1.2\lvgl\src\lv_objx/lv_btn.h **** 
  77:..\..\..\lvgl\version_6.1.2\lvgl\src\lv_objx/lv_btn.h ****     /** [ms] Wait before the ink disappears */
  78:..\..\..\lvgl\version_6.1.2\lvgl\src\lv_objx/lv_btn.h ****     uint16_t ink_wait_time;
  79:..\..\..\lvgl\version_6.1.2\lvgl\src\lv_objx/lv_btn.h **** 
  80:..\..\..\lvgl\version_6.1.2\lvgl\src\lv_objx/lv_btn.h ****     /** [ms] Time of ink disappearing*/
  81:..\..\..\lvgl\version_6.1.2\lvgl\src\lv_objx/lv_btn.h ****     uint16_t ink_out_time;
  82:..\..\..\lvgl\version_6.1.2\lvgl\src\lv_objx/lv_btn.h **** #endif
  83:..\..\..\lvgl\version_6.1.2\lvgl\src\lv_objx/lv_btn.h **** 
  84:..\..\..\lvgl\version_6.1.2\lvgl\src\lv_objx/lv_btn.h ****     /** Current state of the button from 'lv_btn_state_t' enum*/
  85:..\..\..\lvgl\version_6.1.2\lvgl\src\lv_objx/lv_btn.h ****     lv_btn_state_t state : 3;
  86:..\..\..\lvgl\version_6.1.2\lvgl\src\lv_objx/lv_btn.h **** 
  87:..\..\..\lvgl\version_6.1.2\lvgl\src\lv_objx/lv_btn.h ****     /** 1: Toggle enabled*/
  88:..\..\..\lvgl\version_6.1.2\lvgl\src\lv_objx/lv_btn.h ****     uint8_t toggle : 1;
  89:..\..\..\lvgl\version_6.1.2\lvgl\src\lv_objx/lv_btn.h **** } lv_btn_ext_t;
  90:..\..\..\lvgl\version_6.1.2\lvgl\src\lv_objx/lv_btn.h **** 
  91:..\..\..\lvgl\version_6.1.2\lvgl\src\lv_objx/lv_btn.h **** /**Styles*/
  92:..\..\..\lvgl\version_6.1.2\lvgl\src\lv_objx/lv_btn.h **** enum {
  93:..\..\..\lvgl\version_6.1.2\lvgl\src\lv_objx/lv_btn.h ****     /** Release style */
  94:..\..\..\lvgl\version_6.1.2\lvgl\src\lv_objx/lv_btn.h ****     LV_BTN_STYLE_REL,
ARM GAS  C:\Users\pearlstl\AppData\Local\Temp\ccbEAAPX.s 			page 32


  95:..\..\..\lvgl\version_6.1.2\lvgl\src\lv_objx/lv_btn.h **** 
  96:..\..\..\lvgl\version_6.1.2\lvgl\src\lv_objx/lv_btn.h ****     /**Pressed style*/
  97:..\..\..\lvgl\version_6.1.2\lvgl\src\lv_objx/lv_btn.h ****     LV_BTN_STYLE_PR,
  98:..\..\..\lvgl\version_6.1.2\lvgl\src\lv_objx/lv_btn.h **** 
  99:..\..\..\lvgl\version_6.1.2\lvgl\src\lv_objx/lv_btn.h ****     /** Toggle released style*/
 100:..\..\..\lvgl\version_6.1.2\lvgl\src\lv_objx/lv_btn.h ****     LV_BTN_STYLE_TGL_REL,
 101:..\..\..\lvgl\version_6.1.2\lvgl\src\lv_objx/lv_btn.h **** 
 102:..\..\..\lvgl\version_6.1.2\lvgl\src\lv_objx/lv_btn.h ****     /** Toggle pressed style */
 103:..\..\..\lvgl\version_6.1.2\lvgl\src\lv_objx/lv_btn.h ****     LV_BTN_STYLE_TGL_PR,
 104:..\..\..\lvgl\version_6.1.2\lvgl\src\lv_objx/lv_btn.h **** 
 105:..\..\..\lvgl\version_6.1.2\lvgl\src\lv_objx/lv_btn.h ****     /** Inactive style*/
 106:..\..\..\lvgl\version_6.1.2\lvgl\src\lv_objx/lv_btn.h ****     LV_BTN_STYLE_INA,
 107:..\..\..\lvgl\version_6.1.2\lvgl\src\lv_objx/lv_btn.h **** };
 108:..\..\..\lvgl\version_6.1.2\lvgl\src\lv_objx/lv_btn.h **** typedef uint8_t lv_btn_style_t;
 109:..\..\..\lvgl\version_6.1.2\lvgl\src\lv_objx/lv_btn.h **** 
 110:..\..\..\lvgl\version_6.1.2\lvgl\src\lv_objx/lv_btn.h **** /**********************
 111:..\..\..\lvgl\version_6.1.2\lvgl\src\lv_objx/lv_btn.h ****  * GLOBAL PROTOTYPES
 112:..\..\..\lvgl\version_6.1.2\lvgl\src\lv_objx/lv_btn.h ****  **********************/
 113:..\..\..\lvgl\version_6.1.2\lvgl\src\lv_objx/lv_btn.h **** 
 114:..\..\..\lvgl\version_6.1.2\lvgl\src\lv_objx/lv_btn.h **** /**
 115:..\..\..\lvgl\version_6.1.2\lvgl\src\lv_objx/lv_btn.h ****  * Create a button object
 116:..\..\..\lvgl\version_6.1.2\lvgl\src\lv_objx/lv_btn.h ****  * @param par pointer to an object, it will be the parent of the new button
 117:..\..\..\lvgl\version_6.1.2\lvgl\src\lv_objx/lv_btn.h ****  * @param copy pointer to a button object, if not NULL then the new object will be copied from it
 118:..\..\..\lvgl\version_6.1.2\lvgl\src\lv_objx/lv_btn.h ****  * @return pointer to the created button
 119:..\..\..\lvgl\version_6.1.2\lvgl\src\lv_objx/lv_btn.h ****  */
 120:..\..\..\lvgl\version_6.1.2\lvgl\src\lv_objx/lv_btn.h **** lv_obj_t * lv_btn_create(lv_obj_t * par, const lv_obj_t * copy);
 121:..\..\..\lvgl\version_6.1.2\lvgl\src\lv_objx/lv_btn.h **** 
 122:..\..\..\lvgl\version_6.1.2\lvgl\src\lv_objx/lv_btn.h **** /*=====================
 123:..\..\..\lvgl\version_6.1.2\lvgl\src\lv_objx/lv_btn.h ****  * Setter functions
 124:..\..\..\lvgl\version_6.1.2\lvgl\src\lv_objx/lv_btn.h ****  *====================*/
 125:..\..\..\lvgl\version_6.1.2\lvgl\src\lv_objx/lv_btn.h **** 
 126:..\..\..\lvgl\version_6.1.2\lvgl\src\lv_objx/lv_btn.h **** /**
 127:..\..\..\lvgl\version_6.1.2\lvgl\src\lv_objx/lv_btn.h ****  * Enable the toggled states. On release the button will change from/to toggled state.
 128:..\..\..\lvgl\version_6.1.2\lvgl\src\lv_objx/lv_btn.h ****  * @param btn pointer to a button object
 129:..\..\..\lvgl\version_6.1.2\lvgl\src\lv_objx/lv_btn.h ****  * @param tgl true: enable toggled states, false: disable
 130:..\..\..\lvgl\version_6.1.2\lvgl\src\lv_objx/lv_btn.h ****  */
 131:..\..\..\lvgl\version_6.1.2\lvgl\src\lv_objx/lv_btn.h **** void lv_btn_set_toggle(lv_obj_t * btn, bool tgl);
 132:..\..\..\lvgl\version_6.1.2\lvgl\src\lv_objx/lv_btn.h **** 
 133:..\..\..\lvgl\version_6.1.2\lvgl\src\lv_objx/lv_btn.h **** /**
 134:..\..\..\lvgl\version_6.1.2\lvgl\src\lv_objx/lv_btn.h ****  * Set the state of the button
 135:..\..\..\lvgl\version_6.1.2\lvgl\src\lv_objx/lv_btn.h ****  * @param btn pointer to a button object
 136:..\..\..\lvgl\version_6.1.2\lvgl\src\lv_objx/lv_btn.h ****  * @param state the new state of the button (from lv_btn_state_t enum)
 137:..\..\..\lvgl\version_6.1.2\lvgl\src\lv_objx/lv_btn.h ****  */
 138:..\..\..\lvgl\version_6.1.2\lvgl\src\lv_objx/lv_btn.h **** void lv_btn_set_state(lv_obj_t * btn, lv_btn_state_t state);
 139:..\..\..\lvgl\version_6.1.2\lvgl\src\lv_objx/lv_btn.h **** 
 140:..\..\..\lvgl\version_6.1.2\lvgl\src\lv_objx/lv_btn.h **** /**
 141:..\..\..\lvgl\version_6.1.2\lvgl\src\lv_objx/lv_btn.h ****  * Toggle the state of the button (ON->OFF, OFF->ON)
 142:..\..\..\lvgl\version_6.1.2\lvgl\src\lv_objx/lv_btn.h ****  * @param btn pointer to a button object
 143:..\..\..\lvgl\version_6.1.2\lvgl\src\lv_objx/lv_btn.h ****  */
 144:..\..\..\lvgl\version_6.1.2\lvgl\src\lv_objx/lv_btn.h **** void lv_btn_toggle(lv_obj_t * btn);
 145:..\..\..\lvgl\version_6.1.2\lvgl\src\lv_objx/lv_btn.h **** 
 146:..\..\..\lvgl\version_6.1.2\lvgl\src\lv_objx/lv_btn.h **** /**
 147:..\..\..\lvgl\version_6.1.2\lvgl\src\lv_objx/lv_btn.h ****  * Set the layout on a button
 148:..\..\..\lvgl\version_6.1.2\lvgl\src\lv_objx/lv_btn.h ****  * @param btn pointer to a button object
 149:..\..\..\lvgl\version_6.1.2\lvgl\src\lv_objx/lv_btn.h ****  * @param layout a layout from 'lv_cont_layout_t'
 150:..\..\..\lvgl\version_6.1.2\lvgl\src\lv_objx/lv_btn.h ****  */
 151:..\..\..\lvgl\version_6.1.2\lvgl\src\lv_objx/lv_btn.h **** static inline void lv_btn_set_layout(lv_obj_t * btn, lv_layout_t layout)
ARM GAS  C:\Users\pearlstl\AppData\Local\Temp\ccbEAAPX.s 			page 33


 152:..\..\..\lvgl\version_6.1.2\lvgl\src\lv_objx/lv_btn.h **** {
 153:..\..\..\lvgl\version_6.1.2\lvgl\src\lv_objx/lv_btn.h ****     lv_cont_set_layout(btn, layout);
 854              		.loc 2 153 0
 855 00a8 0121     		movs	r1, #1
 856 00aa 2846     		mov	r0, r5
 857 00ac FFF7FEFF 		bl	lv_cont_set_layout
 858              	.LVL98:
 859              	.L111:
 860              	.LBE98:
 861              	.LBE97:
 117:..\..\..\lvgl\version_6.1.2\lvgl\src\lv_objx/lv_btn.c **** 
 862              		.loc 1 117 0
 863 00b0 0121     		movs	r1, #1
 864 00b2 2846     		mov	r0, r5
 865 00b4 FFF7FEFF 		bl	lv_obj_set_click
 866              	.LVL99:
 120:..\..\..\lvgl\version_6.1.2\lvgl\src\lv_objx/lv_btn.c ****         if(th) {
 867              		.loc 1 120 0
 868 00b8 FFF7FEFF 		bl	lv_theme_get_current
 869              	.LVL100:
 121:..\..\..\lvgl\version_6.1.2\lvgl\src\lv_objx/lv_btn.c ****             lv_btn_set_style(new_btn, LV_BTN_STYLE_REL, th->style.btn.rel);
 870              		.loc 1 121 0
 871 00bc 0646     		mov	r6, r0
 872              	.LVL101:
 873 00be 0028     		cmp	r0, #0
 874 00c0 57D0     		beq	.L112
 875              	.LBB99:
 876              	.LBB100:
 275:..\..\..\lvgl\version_6.1.2\lvgl\src\lv_objx/lv_btn.c **** 
 877              		.loc 1 275 0
 878 00c2 2846     		mov	r0, r5
 879              	.LVL102:
 880              	.LBE100:
 881              	.LBE99:
 122:..\..\..\lvgl\version_6.1.2\lvgl\src\lv_objx/lv_btn.c ****             lv_btn_set_style(new_btn, LV_BTN_STYLE_PR, th->style.btn.pr);
 882              		.loc 1 122 0
 883 00c4 3469     		ldr	r4, [r6, #16]
 884              	.LVL103:
 885              	.LBB102:
 886              	.LBB101:
 275:..\..\..\lvgl\version_6.1.2\lvgl\src\lv_objx/lv_btn.c **** 
 887              		.loc 1 275 0
 888 00c6 FFF7FEFF 		bl	lv_obj_get_ext_attr
 889              	.LVL104:
 890 00ca 0346     		mov	r3, r0
 891              	.LVL105:
 286:..\..\..\lvgl\version_6.1.2\lvgl\src\lv_objx/lv_btn.c **** }
 892              		.loc 1 286 0
 893 00cc 2846     		mov	r0, r5
 894              	.LVL106:
 895 00ce 1A7E     		ldrb	r2, [r3, #24]	@ zero_extendqisi2
 278:..\..\..\lvgl\version_6.1.2\lvgl\src\lv_objx/lv_btn.c ****         case LV_BTN_STYLE_PR: ext->styles[LV_BTN_STATE_PR] = style; break;
 896              		.loc 1 278 0
 897 00d0 5C60     		str	r4, [r3, #4]
 286:..\..\..\lvgl\version_6.1.2\lvgl\src\lv_objx/lv_btn.c **** }
 898              		.loc 1 286 0
 899 00d2 02F00702 		and	r2, r2, #7
ARM GAS  C:\Users\pearlstl\AppData\Local\Temp\ccbEAAPX.s 			page 34


 900 00d6 03EB8203 		add	r3, r3, r2, lsl #2
 901              	.LVL107:
 902 00da 5968     		ldr	r1, [r3, #4]
 903 00dc FFF7FEFF 		bl	lv_obj_set_style
 904              	.LVL108:
 905              	.LBE101:
 906              	.LBE102:
 907              	.LBB103:
 908              	.LBB104:
 275:..\..\..\lvgl\version_6.1.2\lvgl\src\lv_objx/lv_btn.c **** 
 909              		.loc 1 275 0
 910 00e0 2846     		mov	r0, r5
 911              	.LBE104:
 912              	.LBE103:
 123:..\..\..\lvgl\version_6.1.2\lvgl\src\lv_objx/lv_btn.c ****             lv_btn_set_style(new_btn, LV_BTN_STYLE_TGL_REL, th->style.btn.tgl_rel);
 913              		.loc 1 123 0
 914 00e2 7469     		ldr	r4, [r6, #20]
 915              	.LVL109:
 916              	.LBB106:
 917              	.LBB105:
 275:..\..\..\lvgl\version_6.1.2\lvgl\src\lv_objx/lv_btn.c **** 
 918              		.loc 1 275 0
 919 00e4 FFF7FEFF 		bl	lv_obj_get_ext_attr
 920              	.LVL110:
 921 00e8 0346     		mov	r3, r0
 922              	.LVL111:
 286:..\..\..\lvgl\version_6.1.2\lvgl\src\lv_objx/lv_btn.c **** }
 923              		.loc 1 286 0
 924 00ea 2846     		mov	r0, r5
 925              	.LVL112:
 926 00ec 1A7E     		ldrb	r2, [r3, #24]	@ zero_extendqisi2
 279:..\..\..\lvgl\version_6.1.2\lvgl\src\lv_objx/lv_btn.c ****         case LV_BTN_STYLE_TGL_REL: ext->styles[LV_BTN_STATE_TGL_REL] = style; break;
 927              		.loc 1 279 0
 928 00ee 9C60     		str	r4, [r3, #8]
 286:..\..\..\lvgl\version_6.1.2\lvgl\src\lv_objx/lv_btn.c **** }
 929              		.loc 1 286 0
 930 00f0 02F00702 		and	r2, r2, #7
 931 00f4 03EB8203 		add	r3, r3, r2, lsl #2
 932              	.LVL113:
 933 00f8 5968     		ldr	r1, [r3, #4]
 934 00fa FFF7FEFF 		bl	lv_obj_set_style
 935              	.LVL114:
 936              	.LBE105:
 937              	.LBE106:
 938              	.LBB107:
 939              	.LBB108:
 275:..\..\..\lvgl\version_6.1.2\lvgl\src\lv_objx/lv_btn.c **** 
 940              		.loc 1 275 0
 941 00fe 2846     		mov	r0, r5
 942              	.LBE108:
 943              	.LBE107:
 124:..\..\..\lvgl\version_6.1.2\lvgl\src\lv_objx/lv_btn.c ****             lv_btn_set_style(new_btn, LV_BTN_STYLE_TGL_PR, th->style.btn.tgl_pr);
 944              		.loc 1 124 0
 945 0100 B469     		ldr	r4, [r6, #24]
 946              	.LVL115:
 947              	.LBB110:
 948              	.LBB109:
ARM GAS  C:\Users\pearlstl\AppData\Local\Temp\ccbEAAPX.s 			page 35


 275:..\..\..\lvgl\version_6.1.2\lvgl\src\lv_objx/lv_btn.c **** 
 949              		.loc 1 275 0
 950 0102 FFF7FEFF 		bl	lv_obj_get_ext_attr
 951              	.LVL116:
 952 0106 0346     		mov	r3, r0
 953              	.LVL117:
 286:..\..\..\lvgl\version_6.1.2\lvgl\src\lv_objx/lv_btn.c **** }
 954              		.loc 1 286 0
 955 0108 2846     		mov	r0, r5
 956              	.LVL118:
 957 010a 1A7E     		ldrb	r2, [r3, #24]	@ zero_extendqisi2
 280:..\..\..\lvgl\version_6.1.2\lvgl\src\lv_objx/lv_btn.c ****         case LV_BTN_STYLE_TGL_PR: ext->styles[LV_BTN_STATE_TGL_PR] = style; break;
 958              		.loc 1 280 0
 959 010c DC60     		str	r4, [r3, #12]
 286:..\..\..\lvgl\version_6.1.2\lvgl\src\lv_objx/lv_btn.c **** }
 960              		.loc 1 286 0
 961 010e 02F00702 		and	r2, r2, #7
 962 0112 03EB8203 		add	r3, r3, r2, lsl #2
 963              	.LVL119:
 964 0116 5968     		ldr	r1, [r3, #4]
 965 0118 FFF7FEFF 		bl	lv_obj_set_style
 966              	.LVL120:
 967              	.LBE109:
 968              	.LBE110:
 969              	.LBB111:
 970              	.LBB112:
 275:..\..\..\lvgl\version_6.1.2\lvgl\src\lv_objx/lv_btn.c **** 
 971              		.loc 1 275 0
 972 011c 2846     		mov	r0, r5
 973              	.LBE112:
 974              	.LBE111:
 125:..\..\..\lvgl\version_6.1.2\lvgl\src\lv_objx/lv_btn.c ****             lv_btn_set_style(new_btn, LV_BTN_STYLE_INA, th->style.btn.ina);
 975              		.loc 1 125 0
 976 011e F469     		ldr	r4, [r6, #28]
 977              	.LVL121:
 978              	.LBB114:
 979              	.LBB113:
 275:..\..\..\lvgl\version_6.1.2\lvgl\src\lv_objx/lv_btn.c **** 
 980              		.loc 1 275 0
 981 0120 FFF7FEFF 		bl	lv_obj_get_ext_attr
 982              	.LVL122:
 983 0124 0346     		mov	r3, r0
 984              	.LVL123:
 286:..\..\..\lvgl\version_6.1.2\lvgl\src\lv_objx/lv_btn.c **** }
 985              		.loc 1 286 0
 986 0126 2846     		mov	r0, r5
 987              	.LVL124:
 988 0128 1A7E     		ldrb	r2, [r3, #24]	@ zero_extendqisi2
 281:..\..\..\lvgl\version_6.1.2\lvgl\src\lv_objx/lv_btn.c ****         case LV_BTN_STYLE_INA: ext->styles[LV_BTN_STATE_INA] = style; break;
 989              		.loc 1 281 0
 990 012a 1C61     		str	r4, [r3, #16]
 286:..\..\..\lvgl\version_6.1.2\lvgl\src\lv_objx/lv_btn.c **** }
 991              		.loc 1 286 0
 992 012c 02F00702 		and	r2, r2, #7
 993 0130 03EB8203 		add	r3, r3, r2, lsl #2
 994              	.LVL125:
 995 0134 5968     		ldr	r1, [r3, #4]
ARM GAS  C:\Users\pearlstl\AppData\Local\Temp\ccbEAAPX.s 			page 36


 996 0136 FFF7FEFF 		bl	lv_obj_set_style
 997              	.LVL126:
 998              	.LBE113:
 999              	.LBE114:
 1000              	.LBB115:
 1001              	.LBB116:
 275:..\..\..\lvgl\version_6.1.2\lvgl\src\lv_objx/lv_btn.c **** 
 1002              		.loc 1 275 0
 1003 013a 2846     		mov	r0, r5
 1004              	.LBE116:
 1005              	.LBE115:
 126:..\..\..\lvgl\version_6.1.2\lvgl\src\lv_objx/lv_btn.c ****         } else {
 1006              		.loc 1 126 0
 1007 013c 346A     		ldr	r4, [r6, #32]
 1008              	.LVL127:
 1009              	.LBB118:
 1010              	.LBB117:
 275:..\..\..\lvgl\version_6.1.2\lvgl\src\lv_objx/lv_btn.c **** 
 1011              		.loc 1 275 0
 1012 013e FFF7FEFF 		bl	lv_obj_get_ext_attr
 1013              	.LVL128:
 1014 0142 0346     		mov	r3, r0
 1015              	.LVL129:
 286:..\..\..\lvgl\version_6.1.2\lvgl\src\lv_objx/lv_btn.c **** }
 1016              		.loc 1 286 0
 1017 0144 2846     		mov	r0, r5
 1018              	.LVL130:
 1019 0146 1A7E     		ldrb	r2, [r3, #24]	@ zero_extendqisi2
 282:..\..\..\lvgl\version_6.1.2\lvgl\src\lv_objx/lv_btn.c ****     }
 1020              		.loc 1 282 0
 1021 0148 5C61     		str	r4, [r3, #20]
 286:..\..\..\lvgl\version_6.1.2\lvgl\src\lv_objx/lv_btn.c **** }
 1022              		.loc 1 286 0
 1023 014a 02F00702 		and	r2, r2, #7
 1024 014e 03EB8203 		add	r3, r3, r2, lsl #2
 1025              	.LVL131:
 1026 0152 5968     		ldr	r1, [r3, #4]
 1027 0154 FFF7FEFF 		bl	lv_obj_set_style
 1028              	.LVL132:
 1029 0158 2846     		mov	r0, r5
 1030 015a F8BD     		pop	{r3, r4, r5, r6, r7, pc}
 1031              	.LVL133:
 1032              	.L120:
 1033              	.LBE117:
 1034              	.LBE118:
 1035              	.LBE96:
  84:..\..\..\lvgl\version_6.1.2\lvgl\src\lv_objx/lv_btn.c ****     if(ancestor_design == NULL) ancestor_design = lv_obj_get_design_cb(new_btn);
 1036              		.loc 1 84 0 discriminator 1
 1037 015c FFF7FEFF 		bl	lv_obj_get_signal_cb
 1038              	.LVL134:
 1039 0160 6060     		str	r0, [r4, #4]
 1040 0162 5BE7     		b	.L107
 1041              	.L121:
  85:..\..\..\lvgl\version_6.1.2\lvgl\src\lv_objx/lv_btn.c **** 
 1042              		.loc 1 85 0 discriminator 1
 1043 0164 2846     		mov	r0, r5
 1044 0166 FFF7FEFF 		bl	lv_obj_get_design_cb
ARM GAS  C:\Users\pearlstl\AppData\Local\Temp\ccbEAAPX.s 			page 37


 1045              	.LVL135:
 1046 016a 2060     		str	r0, [r4]
 1047 016c 5BE7     		b	.L108
 1048              	.LVL136:
 1049              	.L109:
  82:..\..\..\lvgl\version_6.1.2\lvgl\src\lv_objx/lv_btn.c **** 
 1050              		.loc 1 82 0
 1051 016e 0020     		movs	r0, #0
 1052 0170 F8BD     		pop	{r3, r4, r5, r6, r7, pc}
 1053              	.LVL137:
 1054              	.L112:
 1055              	.LBB119:
 128:..\..\..\lvgl\version_6.1.2\lvgl\src\lv_objx/lv_btn.c ****         }
 1056              		.loc 1 128 0
 1057 0172 2846     		mov	r0, r5
 1058              	.LVL138:
 1059 0174 6168     		ldr	r1, [r4, #4]
 1060 0176 FFF7FEFF 		bl	lv_obj_set_style
 1061              	.LVL139:
 1062 017a 2846     		mov	r0, r5
 1063 017c F8BD     		pop	{r3, r4, r5, r6, r7, pc}
 1064              	.LVL140:
 1065              	.L124:
 1066 017e 00BF     		.align	2
 1067              	.L123:
 1068 0180 00000000 		.word	.LANCHOR0
 1069 0184 00000000 		.word	lv_style_btn_rel
 1070 0188 00000000 		.word	lv_style_btn_pr
 1071 018c 00000000 		.word	lv_style_btn_tgl_rel
 1072 0190 00000000 		.word	lv_style_btn_tgl_pr
 1073 0194 00000000 		.word	lv_style_btn_ina
 1074 0198 00000000 		.word	lv_btn_signal
 1075 019c 00000000 		.word	lv_btn_design
 1076              	.LBE119:
 1077              		.cfi_endproc
 1078              	.LFE44:
 1079              		.size	lv_btn_create, .-lv_btn_create
 1080              		.section	.text.lv_btn_set_toggle,"ax",%progbits
 1081              		.align	2
 1082              		.global	lv_btn_set_toggle
 1083              		.thumb
 1084              		.thumb_func
 1085              		.type	lv_btn_set_toggle, %function
 1086              	lv_btn_set_toggle:
 1087              	.LFB45:
 162:..\..\..\lvgl\version_6.1.2\lvgl\src\lv_objx/lv_btn.c ****     LV_ASSERT_OBJ(btn, LV_OBJX_NAME);
 1088              		.loc 1 162 0
 1089              		.cfi_startproc
 1090              		@ args = 0, pretend = 0, frame = 0
 1091              		@ frame_needed = 0, uses_anonymous_args = 0
 1092              	.LVL141:
 1093 0000 10B5     		push	{r4, lr}
 1094              		.cfi_def_cfa_offset 8
 1095              		.cfi_offset 4, -8
 1096              		.cfi_offset 14, -4
 162:..\..\..\lvgl\version_6.1.2\lvgl\src\lv_objx/lv_btn.c ****     LV_ASSERT_OBJ(btn, LV_OBJX_NAME);
 1097              		.loc 1 162 0
ARM GAS  C:\Users\pearlstl\AppData\Local\Temp\ccbEAAPX.s 			page 38


 1098 0002 0C46     		mov	r4, r1
 165:..\..\..\lvgl\version_6.1.2\lvgl\src\lv_objx/lv_btn.c **** 
 1099              		.loc 1 165 0
 1100 0004 FFF7FEFF 		bl	lv_obj_get_ext_attr
 1101              	.LVL142:
 167:..\..\..\lvgl\version_6.1.2\lvgl\src\lv_objx/lv_btn.c **** }
 1102              		.loc 1 167 0
 1103 0008 037E     		ldrb	r3, [r0, #24]	@ zero_extendqisi2
 1104 000a 64F3C303 		bfi	r3, r4, #3, #1
 1105 000e 0376     		strb	r3, [r0, #24]
 1106 0010 10BD     		pop	{r4, pc}
 1107              		.cfi_endproc
 1108              	.LFE45:
 1109              		.size	lv_btn_set_toggle, .-lv_btn_set_toggle
 1110 0012 00BF     		.section	.text.lv_btn_set_state,"ax",%progbits
 1111              		.align	2
 1112              		.global	lv_btn_set_state
 1113              		.thumb
 1114              		.thumb_func
 1115              		.type	lv_btn_set_state, %function
 1116              	lv_btn_set_state:
 1117              	.LFB46:
 176:..\..\..\lvgl\version_6.1.2\lvgl\src\lv_objx/lv_btn.c ****     LV_ASSERT_OBJ(btn, LV_OBJX_NAME);
 1118              		.loc 1 176 0
 1119              		.cfi_startproc
 1120              		@ args = 0, pretend = 0, frame = 0
 1121              		@ frame_needed = 0, uses_anonymous_args = 0
 1122              	.LVL143:
 1123 0000 38B5     		push	{r3, r4, r5, lr}
 1124              		.cfi_def_cfa_offset 16
 1125              		.cfi_offset 3, -16
 1126              		.cfi_offset 4, -12
 1127              		.cfi_offset 5, -8
 1128              		.cfi_offset 14, -4
 176:..\..\..\lvgl\version_6.1.2\lvgl\src\lv_objx/lv_btn.c ****     LV_ASSERT_OBJ(btn, LV_OBJX_NAME);
 1129              		.loc 1 176 0
 1130 0002 0C46     		mov	r4, r1
 1131 0004 0546     		mov	r5, r0
 179:..\..\..\lvgl\version_6.1.2\lvgl\src\lv_objx/lv_btn.c ****     if(ext->state != state) {
 1132              		.loc 1 179 0
 1133 0006 FFF7FEFF 		bl	lv_obj_get_ext_attr
 1134              	.LVL144:
 180:..\..\..\lvgl\version_6.1.2\lvgl\src\lv_objx/lv_btn.c ****         ext->state = state;
 1135              		.loc 1 180 0
 1136 000a 037E     		ldrb	r3, [r0, #24]	@ zero_extendqisi2
 1137 000c 03F00702 		and	r2, r3, #7
 1138 0010 A242     		cmp	r2, r4
 1139 0012 0AD0     		beq	.L127
 181:..\..\..\lvgl\version_6.1.2\lvgl\src\lv_objx/lv_btn.c ****         lv_obj_set_style(btn, ext->styles[state]);
 1140              		.loc 1 181 0
 1141 0014 64F30203 		bfi	r3, r4, #0, #3
 182:..\..\..\lvgl\version_6.1.2\lvgl\src\lv_objx/lv_btn.c ****     }
 1142              		.loc 1 182 0
 1143 0018 00EB8404 		add	r4, r0, r4, lsl #2
 181:..\..\..\lvgl\version_6.1.2\lvgl\src\lv_objx/lv_btn.c ****         lv_obj_set_style(btn, ext->styles[state]);
 1144              		.loc 1 181 0
 1145 001c 0376     		strb	r3, [r0, #24]
ARM GAS  C:\Users\pearlstl\AppData\Local\Temp\ccbEAAPX.s 			page 39


 182:..\..\..\lvgl\version_6.1.2\lvgl\src\lv_objx/lv_btn.c ****     }
 1146              		.loc 1 182 0
 1147 001e 6168     		ldr	r1, [r4, #4]
 1148 0020 2846     		mov	r0, r5
 1149              	.LVL145:
 184:..\..\..\lvgl\version_6.1.2\lvgl\src\lv_objx/lv_btn.c **** 
 1150              		.loc 1 184 0
 1151 0022 BDE83840 		pop	{r3, r4, r5, lr}
 1152              		.cfi_remember_state
 1153              		.cfi_restore 14
 1154              		.cfi_restore 5
 1155              		.cfi_restore 4
 1156              		.cfi_restore 3
 1157              		.cfi_def_cfa_offset 0
 1158              	.LVL146:
 182:..\..\..\lvgl\version_6.1.2\lvgl\src\lv_objx/lv_btn.c ****     }
 1159              		.loc 1 182 0
 1160 0026 FFF7FEBF 		b	lv_obj_set_style
 1161              	.LVL147:
 1162              	.L127:
 1163              		.cfi_restore_state
 1164 002a 38BD     		pop	{r3, r4, r5, pc}
 1165              		.cfi_endproc
 1166              	.LFE46:
 1167              		.size	lv_btn_set_state, .-lv_btn_set_state
 1168              		.section	.text.lv_btn_toggle,"ax",%progbits
 1169              		.align	2
 1170              		.global	lv_btn_toggle
 1171              		.thumb
 1172              		.thumb_func
 1173              		.type	lv_btn_toggle, %function
 1174              	lv_btn_toggle:
 1175              	.LFB47:
 191:..\..\..\lvgl\version_6.1.2\lvgl\src\lv_objx/lv_btn.c ****     LV_ASSERT_OBJ(btn, LV_OBJX_NAME);
 1176              		.loc 1 191 0
 1177              		.cfi_startproc
 1178              		@ args = 0, pretend = 0, frame = 0
 1179              		@ frame_needed = 0, uses_anonymous_args = 0
 1180              	.LVL148:
 1181 0000 10B5     		push	{r4, lr}
 1182              		.cfi_def_cfa_offset 8
 1183              		.cfi_offset 4, -8
 1184              		.cfi_offset 14, -4
 191:..\..\..\lvgl\version_6.1.2\lvgl\src\lv_objx/lv_btn.c ****     LV_ASSERT_OBJ(btn, LV_OBJX_NAME);
 1185              		.loc 1 191 0
 1186 0002 0446     		mov	r4, r0
 194:..\..\..\lvgl\version_6.1.2\lvgl\src\lv_objx/lv_btn.c ****     switch(ext->state) {
 1187              		.loc 1 194 0
 1188 0004 FFF7FEFF 		bl	lv_obj_get_ext_attr
 1189              	.LVL149:
 195:..\..\..\lvgl\version_6.1.2\lvgl\src\lv_objx/lv_btn.c ****         case LV_BTN_STATE_REL: lv_btn_set_state(btn, LV_BTN_STATE_TGL_REL); break;
 1190              		.loc 1 195 0
 1191 0008 037E     		ldrb	r3, [r0, #24]	@ zero_extendqisi2
 1192 000a 03F00703 		and	r3, r3, #7
 1193 000e 032B     		cmp	r3, #3
 1194 0010 0CD8     		bhi	.L130
 1195 0012 DFE803F0 		tbb	[pc, r3]
ARM GAS  C:\Users\pearlstl\AppData\Local\Temp\ccbEAAPX.s 			page 40


 1196              	.L133:
 1197 0016 2E       		.byte	(.L132-.L133)/2
 1198 0017 1B       		.byte	(.L134-.L133)/2
 1199 0018 0C       		.byte	(.L135-.L133)/2
 1200 0019 02       		.byte	(.L136-.L133)/2
 1201              		.p2align 1
 1202              	.L136:
 1203              	.LVL150:
 1204              	.LBB128:
 1205              	.LBB129:
 179:..\..\..\lvgl\version_6.1.2\lvgl\src\lv_objx/lv_btn.c ****     if(ext->state != state) {
 1206              		.loc 1 179 0
 1207 001a 2046     		mov	r0, r4
 1208              	.LVL151:
 1209 001c FFF7FEFF 		bl	lv_obj_get_ext_attr
 1210              	.LVL152:
 180:..\..\..\lvgl\version_6.1.2\lvgl\src\lv_objx/lv_btn.c ****         ext->state = state;
 1211              		.loc 1 180 0
 1212 0020 037E     		ldrb	r3, [r0, #24]	@ zero_extendqisi2
 1213 0022 03F00701 		and	r1, r3, #7
 1214 0026 0129     		cmp	r1, #1
 179:..\..\..\lvgl\version_6.1.2\lvgl\src\lv_objx/lv_btn.c ****     if(ext->state != state) {
 1215              		.loc 1 179 0
 1216 0028 0246     		mov	r2, r0
 1217              	.LVL153:
 180:..\..\..\lvgl\version_6.1.2\lvgl\src\lv_objx/lv_btn.c ****         ext->state = state;
 1218              		.loc 1 180 0
 1219 002a 35D1     		bne	.L149
 1220              	.LVL154:
 1221              	.L130:
 1222 002c 10BD     		pop	{r4, pc}
 1223              	.LVL155:
 1224              	.L135:
 1225              	.LBE129:
 1226              	.LBE128:
 1227              	.LBB132:
 1228              	.LBB133:
 179:..\..\..\lvgl\version_6.1.2\lvgl\src\lv_objx/lv_btn.c ****     if(ext->state != state) {
 1229              		.loc 1 179 0
 1230 002e 2046     		mov	r0, r4
 1231              	.LVL156:
 1232 0030 FFF7FEFF 		bl	lv_obj_get_ext_attr
 1233              	.LVL157:
 180:..\..\..\lvgl\version_6.1.2\lvgl\src\lv_objx/lv_btn.c ****         ext->state = state;
 1234              		.loc 1 180 0
 1235 0034 037E     		ldrb	r3, [r0, #24]	@ zero_extendqisi2
 1236 0036 5A07     		lsls	r2, r3, #29
 1237 0038 F8D0     		beq	.L130
 181:..\..\..\lvgl\version_6.1.2\lvgl\src\lv_objx/lv_btn.c ****         lv_obj_set_style(btn, ext->styles[state]);
 1238              		.loc 1 181 0
 1239 003a 6FF30203 		bfc	r3, #0, #3
 1240 003e 0376     		strb	r3, [r0, #24]
 182:..\..\..\lvgl\version_6.1.2\lvgl\src\lv_objx/lv_btn.c ****     }
 1241              		.loc 1 182 0
 1242 0040 4168     		ldr	r1, [r0, #4]
 1243 0042 2046     		mov	r0, r4
 1244              	.LVL158:
ARM GAS  C:\Users\pearlstl\AppData\Local\Temp\ccbEAAPX.s 			page 41


 1245              	.LBE133:
 1246              	.LBE132:
 202:..\..\..\lvgl\version_6.1.2\lvgl\src\lv_objx/lv_btn.c **** 
 1247              		.loc 1 202 0
 1248 0044 BDE81040 		pop	{r4, lr}
 1249              		.cfi_remember_state
 1250              		.cfi_restore 14
 1251              		.cfi_restore 4
 1252              		.cfi_def_cfa_offset 0
 1253              	.LVL159:
 1254              	.LBB135:
 1255              	.LBB134:
 182:..\..\..\lvgl\version_6.1.2\lvgl\src\lv_objx/lv_btn.c ****     }
 1256              		.loc 1 182 0
 1257 0048 FFF7FEBF 		b	lv_obj_set_style
 1258              	.LVL160:
 1259              	.L134:
 1260              		.cfi_restore_state
 1261              	.LBE134:
 1262              	.LBE135:
 1263              	.LBB136:
 1264              	.LBB137:
 179:..\..\..\lvgl\version_6.1.2\lvgl\src\lv_objx/lv_btn.c ****     if(ext->state != state) {
 1265              		.loc 1 179 0
 1266 004c 2046     		mov	r0, r4
 1267              	.LVL161:
 1268 004e FFF7FEFF 		bl	lv_obj_get_ext_attr
 1269              	.LVL162:
 180:..\..\..\lvgl\version_6.1.2\lvgl\src\lv_objx/lv_btn.c ****         ext->state = state;
 1270              		.loc 1 180 0
 1271 0052 037E     		ldrb	r3, [r0, #24]	@ zero_extendqisi2
 1272 0054 03F00701 		and	r1, r3, #7
 1273 0058 0329     		cmp	r1, #3
 179:..\..\..\lvgl\version_6.1.2\lvgl\src\lv_objx/lv_btn.c ****     if(ext->state != state) {
 1274              		.loc 1 179 0
 1275 005a 0246     		mov	r2, r0
 1276              	.LVL163:
 180:..\..\..\lvgl\version_6.1.2\lvgl\src\lv_objx/lv_btn.c ****         ext->state = state;
 1277              		.loc 1 180 0
 1278 005c E6D0     		beq	.L130
 181:..\..\..\lvgl\version_6.1.2\lvgl\src\lv_objx/lv_btn.c ****         lv_obj_set_style(btn, ext->styles[state]);
 1279              		.loc 1 181 0
 1280 005e 0321     		movs	r1, #3
 1281 0060 61F30203 		bfi	r3, r1, #0, #3
 182:..\..\..\lvgl\version_6.1.2\lvgl\src\lv_objx/lv_btn.c ****     }
 1282              		.loc 1 182 0
 1283 0064 2046     		mov	r0, r4
 1284              	.LVL164:
 181:..\..\..\lvgl\version_6.1.2\lvgl\src\lv_objx/lv_btn.c ****         lv_obj_set_style(btn, ext->styles[state]);
 1285              		.loc 1 181 0
 1286 0066 1376     		strb	r3, [r2, #24]
 182:..\..\..\lvgl\version_6.1.2\lvgl\src\lv_objx/lv_btn.c ****     }
 1287              		.loc 1 182 0
 1288 0068 1169     		ldr	r1, [r2, #16]
 1289              	.LBE137:
 1290              	.LBE136:
 202:..\..\..\lvgl\version_6.1.2\lvgl\src\lv_objx/lv_btn.c **** 
ARM GAS  C:\Users\pearlstl\AppData\Local\Temp\ccbEAAPX.s 			page 42


 1291              		.loc 1 202 0
 1292 006a BDE81040 		pop	{r4, lr}
 1293              		.cfi_remember_state
 1294              		.cfi_restore 14
 1295              		.cfi_restore 4
 1296              		.cfi_def_cfa_offset 0
 1297              	.LVL165:
 1298              	.LBB139:
 1299              	.LBB138:
 182:..\..\..\lvgl\version_6.1.2\lvgl\src\lv_objx/lv_btn.c ****     }
 1300              		.loc 1 182 0
 1301 006e FFF7FEBF 		b	lv_obj_set_style
 1302              	.LVL166:
 1303              	.L132:
 1304              		.cfi_restore_state
 1305              	.LBE138:
 1306              	.LBE139:
 1307              	.LBB140:
 1308              	.LBB141:
 179:..\..\..\lvgl\version_6.1.2\lvgl\src\lv_objx/lv_btn.c ****     if(ext->state != state) {
 1309              		.loc 1 179 0
 1310 0072 2046     		mov	r0, r4
 1311              	.LVL167:
 1312 0074 FFF7FEFF 		bl	lv_obj_get_ext_attr
 1313              	.LVL168:
 180:..\..\..\lvgl\version_6.1.2\lvgl\src\lv_objx/lv_btn.c ****         ext->state = state;
 1314              		.loc 1 180 0
 1315 0078 037E     		ldrb	r3, [r0, #24]	@ zero_extendqisi2
 1316 007a 03F00701 		and	r1, r3, #7
 1317 007e 0229     		cmp	r1, #2
 179:..\..\..\lvgl\version_6.1.2\lvgl\src\lv_objx/lv_btn.c ****     if(ext->state != state) {
 1318              		.loc 1 179 0
 1319 0080 0246     		mov	r2, r0
 1320              	.LVL169:
 180:..\..\..\lvgl\version_6.1.2\lvgl\src\lv_objx/lv_btn.c ****         ext->state = state;
 1321              		.loc 1 180 0
 1322 0082 D3D0     		beq	.L130
 181:..\..\..\lvgl\version_6.1.2\lvgl\src\lv_objx/lv_btn.c ****         lv_obj_set_style(btn, ext->styles[state]);
 1323              		.loc 1 181 0
 1324 0084 0221     		movs	r1, #2
 1325 0086 61F30203 		bfi	r3, r1, #0, #3
 182:..\..\..\lvgl\version_6.1.2\lvgl\src\lv_objx/lv_btn.c ****     }
 1326              		.loc 1 182 0
 1327 008a 2046     		mov	r0, r4
 1328              	.LVL170:
 181:..\..\..\lvgl\version_6.1.2\lvgl\src\lv_objx/lv_btn.c ****         lv_obj_set_style(btn, ext->styles[state]);
 1329              		.loc 1 181 0
 1330 008c 1376     		strb	r3, [r2, #24]
 182:..\..\..\lvgl\version_6.1.2\lvgl\src\lv_objx/lv_btn.c ****     }
 1331              		.loc 1 182 0
 1332 008e D168     		ldr	r1, [r2, #12]
 1333              	.LBE141:
 1334              	.LBE140:
 202:..\..\..\lvgl\version_6.1.2\lvgl\src\lv_objx/lv_btn.c **** 
 1335              		.loc 1 202 0
 1336 0090 BDE81040 		pop	{r4, lr}
 1337              		.cfi_remember_state
ARM GAS  C:\Users\pearlstl\AppData\Local\Temp\ccbEAAPX.s 			page 43


 1338              		.cfi_restore 14
 1339              		.cfi_restore 4
 1340              		.cfi_def_cfa_offset 0
 1341              	.LVL171:
 1342              	.LBB143:
 1343              	.LBB142:
 182:..\..\..\lvgl\version_6.1.2\lvgl\src\lv_objx/lv_btn.c ****     }
 1344              		.loc 1 182 0
 1345 0094 FFF7FEBF 		b	lv_obj_set_style
 1346              	.LVL172:
 1347              	.L149:
 1348              		.cfi_restore_state
 1349              	.LBE142:
 1350              	.LBE143:
 1351              	.LBB144:
 1352              	.LBB130:
 181:..\..\..\lvgl\version_6.1.2\lvgl\src\lv_objx/lv_btn.c ****         lv_obj_set_style(btn, ext->styles[state]);
 1353              		.loc 1 181 0
 1354 0098 0121     		movs	r1, #1
 1355 009a 61F30203 		bfi	r3, r1, #0, #3
 182:..\..\..\lvgl\version_6.1.2\lvgl\src\lv_objx/lv_btn.c ****     }
 1356              		.loc 1 182 0
 1357 009e 2046     		mov	r0, r4
 1358              	.LVL173:
 181:..\..\..\lvgl\version_6.1.2\lvgl\src\lv_objx/lv_btn.c ****         lv_obj_set_style(btn, ext->styles[state]);
 1359              		.loc 1 181 0
 1360 00a0 1376     		strb	r3, [r2, #24]
 182:..\..\..\lvgl\version_6.1.2\lvgl\src\lv_objx/lv_btn.c ****     }
 1361              		.loc 1 182 0
 1362 00a2 9168     		ldr	r1, [r2, #8]
 1363              	.LBE130:
 1364              	.LBE144:
 202:..\..\..\lvgl\version_6.1.2\lvgl\src\lv_objx/lv_btn.c **** 
 1365              		.loc 1 202 0
 1366 00a4 BDE81040 		pop	{r4, lr}
 1367              		.cfi_restore 14
 1368              		.cfi_restore 4
 1369              		.cfi_def_cfa_offset 0
 1370              	.LVL174:
 1371              	.LBB145:
 1372              	.LBB131:
 182:..\..\..\lvgl\version_6.1.2\lvgl\src\lv_objx/lv_btn.c ****     }
 1373              		.loc 1 182 0
 1374 00a8 FFF7FEBF 		b	lv_obj_set_style
 1375              	.LVL175:
 1376              	.LBE131:
 1377              	.LBE145:
 1378              		.cfi_endproc
 1379              	.LFE47:
 1380              		.size	lv_btn_toggle, .-lv_btn_toggle
 1381              		.section	.text.lv_btn_set_ink_in_time,"ax",%progbits
 1382              		.align	2
 1383              		.global	lv_btn_set_ink_in_time
 1384              		.thumb
 1385              		.thumb_func
 1386              		.type	lv_btn_set_ink_in_time, %function
 1387              	lv_btn_set_ink_in_time:
ARM GAS  C:\Users\pearlstl\AppData\Local\Temp\ccbEAAPX.s 			page 44


 1388              	.LFB68:
 1389              		.cfi_startproc
 1390              		@ args = 0, pretend = 0, frame = 0
 1391              		@ frame_needed = 0, uses_anonymous_args = 0
 1392              		@ link register save eliminated.
 1393 0000 7047     		bx	lr
 1394              		.cfi_endproc
 1395              	.LFE68:
 1396              		.size	lv_btn_set_ink_in_time, .-lv_btn_set_ink_in_time
 1397 0002 00BF     		.section	.text.lv_btn_set_ink_wait_time,"ax",%progbits
 1398              		.align	2
 1399              		.global	lv_btn_set_ink_wait_time
 1400              		.thumb
 1401              		.thumb_func
 1402              		.type	lv_btn_set_ink_wait_time, %function
 1403              	lv_btn_set_ink_wait_time:
 1404              	.LFB66:
 1405              		.cfi_startproc
 1406              		@ args = 0, pretend = 0, frame = 0
 1407              		@ frame_needed = 0, uses_anonymous_args = 0
 1408              		@ link register save eliminated.
 1409 0000 7047     		bx	lr
 1410              		.cfi_endproc
 1411              	.LFE66:
 1412              		.size	lv_btn_set_ink_wait_time, .-lv_btn_set_ink_wait_time
 1413 0002 00BF     		.section	.text.lv_btn_set_ink_out_time,"ax",%progbits
 1414              		.align	2
 1415              		.global	lv_btn_set_ink_out_time
 1416              		.thumb
 1417              		.thumb_func
 1418              		.type	lv_btn_set_ink_out_time, %function
 1419              	lv_btn_set_ink_out_time:
 1420              	.LFB50:
 251:..\..\..\lvgl\version_6.1.2\lvgl\src\lv_objx/lv_btn.c ****     LV_ASSERT_OBJ(btn, LV_OBJX_NAME);
 1421              		.loc 1 251 0
 1422              		.cfi_startproc
 1423              		@ args = 0, pretend = 0, frame = 0
 1424              		@ frame_needed = 0, uses_anonymous_args = 0
 1425              		@ link register save eliminated.
 1426              	.LVL176:
 1427 0000 7047     		bx	lr
 1428              		.cfi_endproc
 1429              	.LFE50:
 1430              		.size	lv_btn_set_ink_out_time, .-lv_btn_set_ink_out_time
 1431 0002 00BF     		.section	.text.lv_btn_set_style,"ax",%progbits
 1432              		.align	2
 1433              		.global	lv_btn_set_style
 1434              		.thumb
 1435              		.thumb_func
 1436              		.type	lv_btn_set_style, %function
 1437              	lv_btn_set_style:
 1438              	.LFB51:
 272:..\..\..\lvgl\version_6.1.2\lvgl\src\lv_objx/lv_btn.c ****     LV_ASSERT_OBJ(btn, LV_OBJX_NAME);
 1439              		.loc 1 272 0
 1440              		.cfi_startproc
 1441              		@ args = 0, pretend = 0, frame = 0
 1442              		@ frame_needed = 0, uses_anonymous_args = 0
ARM GAS  C:\Users\pearlstl\AppData\Local\Temp\ccbEAAPX.s 			page 45


 1443              	.LVL177:
 272:..\..\..\lvgl\version_6.1.2\lvgl\src\lv_objx/lv_btn.c ****     LV_ASSERT_OBJ(btn, LV_OBJX_NAME);
 1444              		.loc 1 272 0
 1445 0000 70B5     		push	{r4, r5, r6, lr}
 1446              		.cfi_def_cfa_offset 16
 1447              		.cfi_offset 4, -16
 1448              		.cfi_offset 5, -12
 1449              		.cfi_offset 6, -8
 1450              		.cfi_offset 14, -4
 272:..\..\..\lvgl\version_6.1.2\lvgl\src\lv_objx/lv_btn.c ****     LV_ASSERT_OBJ(btn, LV_OBJX_NAME);
 1451              		.loc 1 272 0
 1452 0002 0C46     		mov	r4, r1
 1453 0004 1646     		mov	r6, r2
 1454 0006 0546     		mov	r5, r0
 275:..\..\..\lvgl\version_6.1.2\lvgl\src\lv_objx/lv_btn.c **** 
 1455              		.loc 1 275 0
 1456 0008 FFF7FEFF 		bl	lv_obj_get_ext_attr
 1457              	.LVL178:
 277:..\..\..\lvgl\version_6.1.2\lvgl\src\lv_objx/lv_btn.c ****         case LV_BTN_STYLE_REL: ext->styles[LV_BTN_STATE_REL] = style; break;
 1458              		.loc 1 277 0
 1459 000c 042C     		cmp	r4, #4
 1460 000e 05D8     		bhi	.L154
 1461 0010 DFE804F0 		tbb	[pc, r4]
 1462              	.L156:
 1463 0014 0F       		.byte	(.L155-.L156)/2
 1464 0015 11       		.byte	(.L157-.L156)/2
 1465 0016 13       		.byte	(.L158-.L156)/2
 1466 0017 15       		.byte	(.L159-.L156)/2
 1467 0018 03       		.byte	(.L160-.L156)/2
 1468 0019 00       		.p2align 1
 1469              	.L160:
 282:..\..\..\lvgl\version_6.1.2\lvgl\src\lv_objx/lv_btn.c ****     }
 1470              		.loc 1 282 0
 1471 001a 4661     		str	r6, [r0, #20]
 1472              	.L154:
 286:..\..\..\lvgl\version_6.1.2\lvgl\src\lv_objx/lv_btn.c **** }
 1473              		.loc 1 286 0
 1474 001c 037E     		ldrb	r3, [r0, #24]	@ zero_extendqisi2
 1475 001e 03F00703 		and	r3, r3, #7
 1476 0022 00EB8303 		add	r3, r0, r3, lsl #2
 1477 0026 2846     		mov	r0, r5
 1478              	.LVL179:
 1479 0028 5968     		ldr	r1, [r3, #4]
 287:..\..\..\lvgl\version_6.1.2\lvgl\src\lv_objx/lv_btn.c **** 
 1480              		.loc 1 287 0
 1481 002a BDE87040 		pop	{r4, r5, r6, lr}
 1482              		.cfi_remember_state
 1483              		.cfi_restore 14
 1484              		.cfi_restore 6
 1485              		.cfi_restore 5
 1486              		.cfi_restore 4
 1487              		.cfi_def_cfa_offset 0
 1488              	.LVL180:
 286:..\..\..\lvgl\version_6.1.2\lvgl\src\lv_objx/lv_btn.c **** }
 1489              		.loc 1 286 0
 1490 002e FFF7FEBF 		b	lv_obj_set_style
 1491              	.LVL181:
ARM GAS  C:\Users\pearlstl\AppData\Local\Temp\ccbEAAPX.s 			page 46


 1492              	.L155:
 1493              		.cfi_restore_state
 278:..\..\..\lvgl\version_6.1.2\lvgl\src\lv_objx/lv_btn.c ****         case LV_BTN_STYLE_PR: ext->styles[LV_BTN_STATE_PR] = style; break;
 1494              		.loc 1 278 0
 1495 0032 4660     		str	r6, [r0, #4]
 1496 0034 F2E7     		b	.L154
 1497              	.L157:
 279:..\..\..\lvgl\version_6.1.2\lvgl\src\lv_objx/lv_btn.c ****         case LV_BTN_STYLE_TGL_REL: ext->styles[LV_BTN_STATE_TGL_REL] = style; break;
 1498              		.loc 1 279 0
 1499 0036 8660     		str	r6, [r0, #8]
 1500 0038 F0E7     		b	.L154
 1501              	.L158:
 280:..\..\..\lvgl\version_6.1.2\lvgl\src\lv_objx/lv_btn.c ****         case LV_BTN_STYLE_TGL_PR: ext->styles[LV_BTN_STATE_TGL_PR] = style; break;
 1502              		.loc 1 280 0
 1503 003a C660     		str	r6, [r0, #12]
 1504 003c EEE7     		b	.L154
 1505              	.L159:
 281:..\..\..\lvgl\version_6.1.2\lvgl\src\lv_objx/lv_btn.c ****         case LV_BTN_STYLE_INA: ext->styles[LV_BTN_STATE_INA] = style; break;
 1506              		.loc 1 281 0
 1507 003e 0661     		str	r6, [r0, #16]
 1508 0040 ECE7     		b	.L154
 1509              		.cfi_endproc
 1510              	.LFE51:
 1511              		.size	lv_btn_set_style, .-lv_btn_set_style
 1512 0042 00BF     		.section	.text.lv_btn_get_state,"ax",%progbits
 1513              		.align	2
 1514              		.global	lv_btn_get_state
 1515              		.thumb
 1516              		.thumb_func
 1517              		.type	lv_btn_get_state, %function
 1518              	lv_btn_get_state:
 1519              	.LFB52:
 299:..\..\..\lvgl\version_6.1.2\lvgl\src\lv_objx/lv_btn.c ****     LV_ASSERT_OBJ(btn, LV_OBJX_NAME);
 1520              		.loc 1 299 0
 1521              		.cfi_startproc
 1522              		@ args = 0, pretend = 0, frame = 0
 1523              		@ frame_needed = 0, uses_anonymous_args = 0
 1524              	.LVL182:
 1525 0000 08B5     		push	{r3, lr}
 1526              		.cfi_def_cfa_offset 8
 1527              		.cfi_offset 3, -8
 1528              		.cfi_offset 14, -4
 302:..\..\..\lvgl\version_6.1.2\lvgl\src\lv_objx/lv_btn.c ****     return ext->state;
 1529              		.loc 1 302 0
 1530 0002 FFF7FEFF 		bl	lv_obj_get_ext_attr
 1531              	.LVL183:
 303:..\..\..\lvgl\version_6.1.2\lvgl\src\lv_objx/lv_btn.c **** }
 1532              		.loc 1 303 0
 1533 0006 007E     		ldrb	r0, [r0, #24]	@ zero_extendqisi2
 1534              	.LVL184:
 304:..\..\..\lvgl\version_6.1.2\lvgl\src\lv_objx/lv_btn.c **** 
 1535              		.loc 1 304 0
 1536 0008 00F00700 		and	r0, r0, #7
 1537 000c 08BD     		pop	{r3, pc}
 1538              		.cfi_endproc
 1539              	.LFE52:
 1540              		.size	lv_btn_get_state, .-lv_btn_get_state
ARM GAS  C:\Users\pearlstl\AppData\Local\Temp\ccbEAAPX.s 			page 47


 1541 000e 00BF     		.section	.text.lv_btn_get_toggle,"ax",%progbits
 1542              		.align	2
 1543              		.global	lv_btn_get_toggle
 1544              		.thumb
 1545              		.thumb_func
 1546              		.type	lv_btn_get_toggle, %function
 1547              	lv_btn_get_toggle:
 1548              	.LFB53:
 312:..\..\..\lvgl\version_6.1.2\lvgl\src\lv_objx/lv_btn.c ****     LV_ASSERT_OBJ(btn, LV_OBJX_NAME);
 1549              		.loc 1 312 0
 1550              		.cfi_startproc
 1551              		@ args = 0, pretend = 0, frame = 0
 1552              		@ frame_needed = 0, uses_anonymous_args = 0
 1553              	.LVL185:
 1554 0000 08B5     		push	{r3, lr}
 1555              		.cfi_def_cfa_offset 8
 1556              		.cfi_offset 3, -8
 1557              		.cfi_offset 14, -4
 315:..\..\..\lvgl\version_6.1.2\lvgl\src\lv_objx/lv_btn.c **** 
 1558              		.loc 1 315 0
 1559 0002 FFF7FEFF 		bl	lv_obj_get_ext_attr
 1560              	.LVL186:
 317:..\..\..\lvgl\version_6.1.2\lvgl\src\lv_objx/lv_btn.c **** }
 1561              		.loc 1 317 0
 1562 0006 007E     		ldrb	r0, [r0, #24]	@ zero_extendqisi2
 1563              	.LVL187:
 318:..\..\..\lvgl\version_6.1.2\lvgl\src\lv_objx/lv_btn.c **** 
 1564              		.loc 1 318 0
 1565 0008 C0F3C000 		ubfx	r0, r0, #3, #1
 1566 000c 08BD     		pop	{r3, pc}
 1567              		.cfi_endproc
 1568              	.LFE53:
 1569              		.size	lv_btn_get_toggle, .-lv_btn_get_toggle
 1570 000e 00BF     		.section	.text.lv_btn_get_ink_in_time,"ax",%progbits
 1571              		.align	2
 1572              		.global	lv_btn_get_ink_in_time
 1573              		.thumb
 1574              		.thumb_func
 1575              		.type	lv_btn_get_ink_in_time, %function
 1576              	lv_btn_get_ink_in_time:
 1577              	.LFB64:
 1578              		.cfi_startproc
 1579              		@ args = 0, pretend = 0, frame = 0
 1580              		@ frame_needed = 0, uses_anonymous_args = 0
 1581              		@ link register save eliminated.
 1582 0000 0020     		movs	r0, #0
 1583 0002 7047     		bx	lr
 1584              		.cfi_endproc
 1585              	.LFE64:
 1586              		.size	lv_btn_get_ink_in_time, .-lv_btn_get_ink_in_time
 1587              		.section	.text.lv_btn_get_ink_wait_time,"ax",%progbits
 1588              		.align	2
 1589              		.global	lv_btn_get_ink_wait_time
 1590              		.thumb
 1591              		.thumb_func
 1592              		.type	lv_btn_get_ink_wait_time, %function
 1593              	lv_btn_get_ink_wait_time:
ARM GAS  C:\Users\pearlstl\AppData\Local\Temp\ccbEAAPX.s 			page 48


 1594              	.LFB62:
 1595              		.cfi_startproc
 1596              		@ args = 0, pretend = 0, frame = 0
 1597              		@ frame_needed = 0, uses_anonymous_args = 0
 1598              		@ link register save eliminated.
 1599 0000 0020     		movs	r0, #0
 1600 0002 7047     		bx	lr
 1601              		.cfi_endproc
 1602              	.LFE62:
 1603              		.size	lv_btn_get_ink_wait_time, .-lv_btn_get_ink_wait_time
 1604              		.section	.text.lv_btn_get_ink_out_time,"ax",%progbits
 1605              		.align	2
 1606              		.global	lv_btn_get_ink_out_time
 1607              		.thumb
 1608              		.thumb_func
 1609              		.type	lv_btn_get_ink_out_time, %function
 1610              	lv_btn_get_ink_out_time:
 1611              	.LFB56:
 361:..\..\..\lvgl\version_6.1.2\lvgl\src\lv_objx/lv_btn.c ****     LV_ASSERT_OBJ(btn, LV_OBJX_NAME);
 1612              		.loc 1 361 0
 1613              		.cfi_startproc
 1614              		@ args = 0, pretend = 0, frame = 0
 1615              		@ frame_needed = 0, uses_anonymous_args = 0
 1616              		@ link register save eliminated.
 1617              	.LVL188:
 371:..\..\..\lvgl\version_6.1.2\lvgl\src\lv_objx/lv_btn.c **** 
 1618              		.loc 1 371 0
 1619 0000 0020     		movs	r0, #0
 1620              	.LVL189:
 1621 0002 7047     		bx	lr
 1622              		.cfi_endproc
 1623              	.LFE56:
 1624              		.size	lv_btn_get_ink_out_time, .-lv_btn_get_ink_out_time
 1625              		.section	.text.lv_btn_get_style,"ax",%progbits
 1626              		.align	2
 1627              		.global	lv_btn_get_style
 1628              		.thumb
 1629              		.thumb_func
 1630              		.type	lv_btn_get_style, %function
 1631              	lv_btn_get_style:
 1632              	.LFB57:
 380:..\..\..\lvgl\version_6.1.2\lvgl\src\lv_objx/lv_btn.c ****     LV_ASSERT_OBJ(btn, LV_OBJX_NAME);
 1633              		.loc 1 380 0
 1634              		.cfi_startproc
 1635              		@ args = 0, pretend = 0, frame = 0
 1636              		@ frame_needed = 0, uses_anonymous_args = 0
 1637              	.LVL190:
 1638 0000 70B5     		push	{r4, r5, r6, lr}
 1639              		.cfi_def_cfa_offset 16
 1640              		.cfi_offset 4, -16
 1641              		.cfi_offset 5, -12
 1642              		.cfi_offset 6, -8
 1643              		.cfi_offset 14, -4
 380:..\..\..\lvgl\version_6.1.2\lvgl\src\lv_objx/lv_btn.c ****     LV_ASSERT_OBJ(btn, LV_OBJX_NAME);
 1644              		.loc 1 380 0
 1645 0002 0546     		mov	r5, r0
 1646 0004 0C46     		mov	r4, r1
ARM GAS  C:\Users\pearlstl\AppData\Local\Temp\ccbEAAPX.s 			page 49


 384:..\..\..\lvgl\version_6.1.2\lvgl\src\lv_objx/lv_btn.c ****     lv_btn_state_t state     = lv_btn_get_state(btn);
 1647              		.loc 1 384 0
 1648 0006 FFF7FEFF 		bl	lv_obj_get_ext_attr
 1649              	.LVL191:
 1650 000a 0646     		mov	r6, r0
 1651              	.LVL192:
 1652              	.LBB146:
 1653              	.LBB147:
 302:..\..\..\lvgl\version_6.1.2\lvgl\src\lv_objx/lv_btn.c ****     return ext->state;
 1654              		.loc 1 302 0
 1655 000c 2846     		mov	r0, r5
 1656              	.LVL193:
 1657 000e FFF7FEFF 		bl	lv_obj_get_ext_attr
 1658              	.LVL194:
 303:..\..\..\lvgl\version_6.1.2\lvgl\src\lv_objx/lv_btn.c **** }
 1659              		.loc 1 303 0
 1660 0012 037E     		ldrb	r3, [r0, #24]	@ zero_extendqisi2
 1661 0014 03F00703 		and	r3, r3, #7
 1662              	.LVL195:
 1663              	.LBE147:
 1664              	.LBE146:
 390:..\..\..\lvgl\version_6.1.2\lvgl\src\lv_objx/lv_btn.c ****        (type == LV_BTN_STYLE_PR && state == LV_BTN_STATE_PR) ||
 1665              		.loc 1 390 0
 1666 0018 14B9     		cbnz	r4, .L170
 390:..\..\..\lvgl\version_6.1.2\lvgl\src\lv_objx/lv_btn.c ****        (type == LV_BTN_STYLE_PR && state == LV_BTN_STATE_PR) ||
 1667              		.loc 1 390 0 is_stmt 0 discriminator 1
 1668 001a 8BB1     		cbz	r3, .L171
 399:..\..\..\lvgl\version_6.1.2\lvgl\src\lv_objx/lv_btn.c ****             case LV_BTN_STYLE_PR: style = ext->styles[LV_BTN_STATE_PR]; break;
 1669              		.loc 1 399 0 is_stmt 1
 1670 001c 7068     		ldr	r0, [r6, #4]
 1671              	.LVL196:
 1672 001e 70BD     		pop	{r4, r5, r6, pc}
 1673              	.LVL197:
 1674              	.L170:
 390:..\..\..\lvgl\version_6.1.2\lvgl\src\lv_objx/lv_btn.c ****        (type == LV_BTN_STYLE_PR && state == LV_BTN_STATE_PR) ||
 1675              		.loc 1 390 0 discriminator 3
 1676 0020 012C     		cmp	r4, #1
 1677 0022 07D0     		beq	.L199
 391:..\..\..\lvgl\version_6.1.2\lvgl\src\lv_objx/lv_btn.c ****        (type == LV_BTN_STYLE_TGL_REL && state == LV_BTN_STATE_TGL_REL) ||
 1678              		.loc 1 391 0 discriminator 1
 1679 0024 022C     		cmp	r4, #2
 1680 0026 09D0     		beq	.L200
 392:..\..\..\lvgl\version_6.1.2\lvgl\src\lv_objx/lv_btn.c ****        (type == LV_BTN_STYLE_TGL_PR && state == LV_BTN_STATE_TGL_PR) ||
 1681              		.loc 1 392 0 discriminator 1
 1682 0028 032C     		cmp	r4, #3
 1683 002a 10D1     		bne	.L177
 393:..\..\..\lvgl\version_6.1.2\lvgl\src\lv_objx/lv_btn.c ****        (type == LV_BTN_STYLE_INA && state == LV_BTN_STATE_INA)) {
 1684              		.loc 1 393 0
 1685 002c 032B     		cmp	r3, #3
 1686 002e 07D0     		beq	.L171
 402:..\..\..\lvgl\version_6.1.2\lvgl\src\lv_objx/lv_btn.c ****             case LV_BTN_STYLE_INA: style = ext->styles[LV_BTN_STATE_INA]; break;
 1687              		.loc 1 402 0
 1688 0030 3069     		ldr	r0, [r6, #16]
 1689              	.LVL198:
 1690 0032 70BD     		pop	{r4, r5, r6, pc}
 1691              	.LVL199:
 1692              	.L199:
ARM GAS  C:\Users\pearlstl\AppData\Local\Temp\ccbEAAPX.s 			page 50


 391:..\..\..\lvgl\version_6.1.2\lvgl\src\lv_objx/lv_btn.c ****        (type == LV_BTN_STYLE_TGL_REL && state == LV_BTN_STATE_TGL_REL) ||
 1693              		.loc 1 391 0
 1694 0034 012B     		cmp	r3, #1
 1695 0036 03D0     		beq	.L171
 400:..\..\..\lvgl\version_6.1.2\lvgl\src\lv_objx/lv_btn.c ****             case LV_BTN_STYLE_TGL_REL: style = ext->styles[LV_BTN_STATE_TGL_REL]; break;
 1696              		.loc 1 400 0
 1697 0038 B068     		ldr	r0, [r6, #8]
 1698              	.LVL200:
 1699 003a 70BD     		pop	{r4, r5, r6, pc}
 1700              	.LVL201:
 1701              	.L200:
 392:..\..\..\lvgl\version_6.1.2\lvgl\src\lv_objx/lv_btn.c ****        (type == LV_BTN_STYLE_TGL_PR && state == LV_BTN_STATE_TGL_PR) ||
 1702              		.loc 1 392 0
 1703 003c 022B     		cmp	r3, #2
 1704 003e 04D1     		bne	.L196
 1705              	.L171:
 396:..\..\..\lvgl\version_6.1.2\lvgl\src\lv_objx/lv_btn.c ****     } else {
 1706              		.loc 1 396 0
 1707 0040 2846     		mov	r0, r5
 409:..\..\..\lvgl\version_6.1.2\lvgl\src\lv_objx/lv_btn.c **** 
 1708              		.loc 1 409 0
 1709 0042 BDE87040 		pop	{r4, r5, r6, lr}
 1710              		.cfi_remember_state
 1711              		.cfi_restore 14
 1712              		.cfi_restore 6
 1713              		.cfi_restore 5
 1714              		.cfi_restore 4
 1715              		.cfi_def_cfa_offset 0
 1716              	.LVL202:
 396:..\..\..\lvgl\version_6.1.2\lvgl\src\lv_objx/lv_btn.c ****     } else {
 1717              		.loc 1 396 0
 1718 0046 FFF7FEBF 		b	lv_obj_get_style
 1719              	.LVL203:
 1720              	.L196:
 1721              		.cfi_restore_state
 401:..\..\..\lvgl\version_6.1.2\lvgl\src\lv_objx/lv_btn.c ****             case LV_BTN_STYLE_TGL_PR: style = ext->styles[LV_BTN_STATE_TGL_PR]; break;
 1722              		.loc 1 401 0
 1723 004a F068     		ldr	r0, [r6, #12]
 1724              	.LVL204:
 1725 004c 70BD     		pop	{r4, r5, r6, pc}
 1726              	.LVL205:
 1727              	.L177:
 393:..\..\..\lvgl\version_6.1.2\lvgl\src\lv_objx/lv_btn.c ****        (type == LV_BTN_STYLE_INA && state == LV_BTN_STATE_INA)) {
 1728              		.loc 1 393 0 discriminator 1
 1729 004e 042C     		cmp	r4, #4
 1730 0050 03D1     		bne	.L181
 394:..\..\..\lvgl\version_6.1.2\lvgl\src\lv_objx/lv_btn.c **** 
 1731              		.loc 1 394 0
 1732 0052 042B     		cmp	r3, #4
 1733 0054 F4D0     		beq	.L171
 403:..\..\..\lvgl\version_6.1.2\lvgl\src\lv_objx/lv_btn.c ****             default: style = NULL; break;
 1734              		.loc 1 403 0
 1735 0056 7069     		ldr	r0, [r6, #20]
 1736              	.LVL206:
 1737 0058 70BD     		pop	{r4, r5, r6, pc}
 1738              	.LVL207:
 1739              	.L181:
ARM GAS  C:\Users\pearlstl\AppData\Local\Temp\ccbEAAPX.s 			page 51


 404:..\..\..\lvgl\version_6.1.2\lvgl\src\lv_objx/lv_btn.c ****         }
 1740              		.loc 1 404 0
 1741 005a 0020     		movs	r0, #0
 1742              	.LVL208:
 409:..\..\..\lvgl\version_6.1.2\lvgl\src\lv_objx/lv_btn.c **** 
 1743              		.loc 1 409 0
 1744 005c 70BD     		pop	{r4, r5, r6, pc}
 1745              		.cfi_endproc
 1746              	.LFE57:
 1747              		.size	lv_btn_get_style, .-lv_btn_get_style
 1748 005e 00BF     		.section	.rodata.str1.4,"aMS",%progbits,1
 1749              		.align	2
 1750              	.LC0:
 1751 0000 6C765F62 		.ascii	"lv_btn\000"
 1751      746E00
 1752              		.bss
 1753              		.align	2
 1754              		.set	.LANCHOR0,. + 0
 1755              		.type	ancestor_design, %object
 1756              		.size	ancestor_design, 4
 1757              	ancestor_design:
 1758 0000 00000000 		.space	4
 1759              		.type	ancestor_signal, %object
 1760              		.size	ancestor_signal, 4
 1761              	ancestor_signal:
 1762 0004 00000000 		.space	4
 1763              		.text
 1764              	.Letext0:
 1765              		.file 3 "c:\\program files (x86)\\cypress\\psoc creator\\4.2\\psoc creator\\import\\gnu\\arm\\5.4.
 1766              		.file 4 "c:\\program files (x86)\\cypress\\psoc creator\\4.2\\psoc creator\\import\\gnu\\arm\\5.4.
 1767              		.file 5 "..\\..\\..\\lvgl\\version_6.1.2\\lvgl\\src\\lv_objx\\../../../lv_conf.h"
 1768              		.file 6 "..\\..\\..\\lvgl\\version_6.1.2\\lvgl\\src\\lv_objx\\../lv_core/../lv_font/lv_font.h"
 1769              		.file 7 "..\\..\\..\\lvgl\\version_6.1.2\\lvgl\\src\\lv_objx\\../lv_core/../lv_misc/lv_color.h"
 1770              		.file 8 "..\\..\\..\\lvgl\\version_6.1.2\\lvgl\\src\\lv_objx\\../lv_core/../lv_misc/lv_area.h"
 1771              		.file 9 "..\\..\\..\\lvgl\\version_6.1.2\\lvgl\\src\\lv_objx\\../lv_core/lv_style.h"
 1772              		.file 10 "..\\..\\..\\lvgl\\version_6.1.2\\lvgl\\src\\lv_objx\\../lv_core/../lv_misc/lv_types.h"
 1773              		.file 11 "..\\..\\..\\lvgl\\version_6.1.2\\lvgl\\src\\lv_objx\\../lv_core/../lv_misc/lv_ll.h"
 1774              		.file 12 "..\\..\\..\\lvgl\\version_6.1.2\\lvgl\\src\\lv_objx\\../lv_core/../lv_misc/lv_bidi.h"
 1775              		.file 13 "..\\..\\..\\lvgl\\version_6.1.2\\lvgl\\src\\lv_objx\\../lv_core/lv_obj.h"
 1776              		.file 14 "..\\..\\..\\lvgl\\version_6.1.2\\lvgl\\src\\lv_objx\\lv_cont.h"
 1777              		.file 15 "..\\..\\..\\lvgl\\version_6.1.2\\lvgl\\src\\lv_objx\\../lv_core/../lv_core/lv_group.h"
 1778              		.file 16 "..\\..\\..\\lvgl\\version_6.1.2\\lvgl\\src\\lv_objx\\../lv_themes/lv_theme.h"
 1779              		.file 17 "..\\..\\..\\lvgl\\version_6.1.2\\lvgl\\src\\lv_objx\\../lv_core/lv_indev.h"