ARM GAS  C:\Users\pearlstl\AppData\Local\Temp\ccHPSyCj.s 			page 1


   1              		.syntax unified
   2              		.cpu cortex-m4
   3              		.eabi_attribute 27, 1
   4              		.fpu fpv4-sp-d16
   5              		.eabi_attribute 20, 1
   6              		.eabi_attribute 21, 1
   7              		.eabi_attribute 23, 3
   8              		.eabi_attribute 24, 1
   9              		.eabi_attribute 25, 1
  10              		.eabi_attribute 26, 1
  11              		.eabi_attribute 30, 2
  12              		.eabi_attribute 34, 1
  13              		.eabi_attribute 18, 4
  14              		.thumb
  15              		.syntax unified
  16              		.file	"lv_calendar.c"
  17              		.text
  18              	.Ltext0:
  19              		.cfi_sections	.debug_frame
  20              		.section	.text.lv_calendar_design,"ax",%progbits
  21              		.align	2
  22              		.thumb
  23              		.thumb_func
  24              		.type	lv_calendar_design, %function
  25              	lv_calendar_design:
  26              	.LFB46:
  27              		.file 1 "..\\..\\..\\lvgl\\version_6.1.2\\lvgl\\src\\lv_objx\\lv_calendar.c"
   1:..\..\..\lvgl\version_6.1.2\lvgl\src\lv_objx/lv_calendar.c **** /**
   2:..\..\..\lvgl\version_6.1.2\lvgl\src\lv_objx/lv_calendar.c ****  * @file lv_calendar.c
   3:..\..\..\lvgl\version_6.1.2\lvgl\src\lv_objx/lv_calendar.c ****  *
   4:..\..\..\lvgl\version_6.1.2\lvgl\src\lv_objx/lv_calendar.c ****  */
   5:..\..\..\lvgl\version_6.1.2\lvgl\src\lv_objx/lv_calendar.c **** 
   6:..\..\..\lvgl\version_6.1.2\lvgl\src\lv_objx/lv_calendar.c **** /*********************
   7:..\..\..\lvgl\version_6.1.2\lvgl\src\lv_objx/lv_calendar.c ****  *      INCLUDES
   8:..\..\..\lvgl\version_6.1.2\lvgl\src\lv_objx/lv_calendar.c ****  *********************/
   9:..\..\..\lvgl\version_6.1.2\lvgl\src\lv_objx/lv_calendar.c **** #include "lv_calendar.h"
  10:..\..\..\lvgl\version_6.1.2\lvgl\src\lv_objx/lv_calendar.c **** #if LV_USE_CALENDAR != 0
  11:..\..\..\lvgl\version_6.1.2\lvgl\src\lv_objx/lv_calendar.c **** 
  12:..\..\..\lvgl\version_6.1.2\lvgl\src\lv_objx/lv_calendar.c **** #include "../lv_core/lv_debug.h"
  13:..\..\..\lvgl\version_6.1.2\lvgl\src\lv_objx/lv_calendar.c **** #include "../lv_draw/lv_draw.h"
  14:..\..\..\lvgl\version_6.1.2\lvgl\src\lv_objx/lv_calendar.c **** #include "../lv_hal/lv_hal_indev.h"
  15:..\..\..\lvgl\version_6.1.2\lvgl\src\lv_objx/lv_calendar.c **** #include "../lv_misc/lv_utils.h"
  16:..\..\..\lvgl\version_6.1.2\lvgl\src\lv_objx/lv_calendar.c **** #include "../lv_core/lv_indev.h"
  17:..\..\..\lvgl\version_6.1.2\lvgl\src\lv_objx/lv_calendar.c **** #include "../lv_themes/lv_theme.h"
  18:..\..\..\lvgl\version_6.1.2\lvgl\src\lv_objx/lv_calendar.c **** #include <string.h>
  19:..\..\..\lvgl\version_6.1.2\lvgl\src\lv_objx/lv_calendar.c **** 
  20:..\..\..\lvgl\version_6.1.2\lvgl\src\lv_objx/lv_calendar.c **** /*********************
  21:..\..\..\lvgl\version_6.1.2\lvgl\src\lv_objx/lv_calendar.c ****  *      DEFINES
  22:..\..\..\lvgl\version_6.1.2\lvgl\src\lv_objx/lv_calendar.c ****  *********************/
  23:..\..\..\lvgl\version_6.1.2\lvgl\src\lv_objx/lv_calendar.c **** #define LV_OBJX_NAME "lv_calendar"
  24:..\..\..\lvgl\version_6.1.2\lvgl\src\lv_objx/lv_calendar.c **** 
  25:..\..\..\lvgl\version_6.1.2\lvgl\src\lv_objx/lv_calendar.c **** /**********************
  26:..\..\..\lvgl\version_6.1.2\lvgl\src\lv_objx/lv_calendar.c ****  *      TYPEDEFS
  27:..\..\..\lvgl\version_6.1.2\lvgl\src\lv_objx/lv_calendar.c ****  **********************/
  28:..\..\..\lvgl\version_6.1.2\lvgl\src\lv_objx/lv_calendar.c **** enum {
  29:..\..\..\lvgl\version_6.1.2\lvgl\src\lv_objx/lv_calendar.c ****     DAY_DRAW_PREV_MONTH,
  30:..\..\..\lvgl\version_6.1.2\lvgl\src\lv_objx/lv_calendar.c ****     DAY_DRAW_ACT_MONTH,
ARM GAS  C:\Users\pearlstl\AppData\Local\Temp\ccHPSyCj.s 			page 2


  31:..\..\..\lvgl\version_6.1.2\lvgl\src\lv_objx/lv_calendar.c ****     DAY_DRAW_NEXT_MONTH,
  32:..\..\..\lvgl\version_6.1.2\lvgl\src\lv_objx/lv_calendar.c **** };
  33:..\..\..\lvgl\version_6.1.2\lvgl\src\lv_objx/lv_calendar.c **** typedef uint8_t day_draw_state_t;
  34:..\..\..\lvgl\version_6.1.2\lvgl\src\lv_objx/lv_calendar.c **** 
  35:..\..\..\lvgl\version_6.1.2\lvgl\src\lv_objx/lv_calendar.c **** /**********************
  36:..\..\..\lvgl\version_6.1.2\lvgl\src\lv_objx/lv_calendar.c ****  *  STATIC PROTOTYPES
  37:..\..\..\lvgl\version_6.1.2\lvgl\src\lv_objx/lv_calendar.c ****  **********************/
  38:..\..\..\lvgl\version_6.1.2\lvgl\src\lv_objx/lv_calendar.c **** static bool lv_calendar_design(lv_obj_t * calendar, const lv_area_t * mask, lv_design_mode_t mode);
  39:..\..\..\lvgl\version_6.1.2\lvgl\src\lv_objx/lv_calendar.c **** static lv_res_t lv_calendar_signal(lv_obj_t * calendar, lv_signal_t sign, void * param);
  40:..\..\..\lvgl\version_6.1.2\lvgl\src\lv_objx/lv_calendar.c **** static bool calculate_touched_day(lv_obj_t * calendar, const lv_point_t * touched_point);
  41:..\..\..\lvgl\version_6.1.2\lvgl\src\lv_objx/lv_calendar.c **** static lv_coord_t get_header_height(lv_obj_t * calendar);
  42:..\..\..\lvgl\version_6.1.2\lvgl\src\lv_objx/lv_calendar.c **** static lv_coord_t get_day_names_height(lv_obj_t * calendar);
  43:..\..\..\lvgl\version_6.1.2\lvgl\src\lv_objx/lv_calendar.c **** static void draw_header(lv_obj_t * calendar, const lv_area_t * mask);
  44:..\..\..\lvgl\version_6.1.2\lvgl\src\lv_objx/lv_calendar.c **** static void draw_day_names(lv_obj_t * calendar, const lv_area_t * mask);
  45:..\..\..\lvgl\version_6.1.2\lvgl\src\lv_objx/lv_calendar.c **** static void draw_days(lv_obj_t * calendar, const lv_area_t * mask);
  46:..\..\..\lvgl\version_6.1.2\lvgl\src\lv_objx/lv_calendar.c **** static uint8_t get_day_of_week(uint32_t year, uint32_t month, uint32_t day);
  47:..\..\..\lvgl\version_6.1.2\lvgl\src\lv_objx/lv_calendar.c **** static bool is_highlighted(lv_obj_t * calendar, int32_t year, int32_t month, int32_t day);
  48:..\..\..\lvgl\version_6.1.2\lvgl\src\lv_objx/lv_calendar.c **** static const char * get_day_name(lv_obj_t * calendar, uint8_t day);
  49:..\..\..\lvgl\version_6.1.2\lvgl\src\lv_objx/lv_calendar.c **** static const char * get_month_name(lv_obj_t * calendar, int32_t month);
  50:..\..\..\lvgl\version_6.1.2\lvgl\src\lv_objx/lv_calendar.c **** static uint8_t get_month_length(int32_t year, int32_t month);
  51:..\..\..\lvgl\version_6.1.2\lvgl\src\lv_objx/lv_calendar.c **** static uint8_t is_leap_year(uint32_t year);
  52:..\..\..\lvgl\version_6.1.2\lvgl\src\lv_objx/lv_calendar.c **** 
  53:..\..\..\lvgl\version_6.1.2\lvgl\src\lv_objx/lv_calendar.c **** /**********************
  54:..\..\..\lvgl\version_6.1.2\lvgl\src\lv_objx/lv_calendar.c ****  *  STATIC VARIABLES
  55:..\..\..\lvgl\version_6.1.2\lvgl\src\lv_objx/lv_calendar.c ****  **********************/
  56:..\..\..\lvgl\version_6.1.2\lvgl\src\lv_objx/lv_calendar.c **** static lv_signal_cb_t ancestor_signal;
  57:..\..\..\lvgl\version_6.1.2\lvgl\src\lv_objx/lv_calendar.c **** static lv_design_cb_t ancestor_design;
  58:..\..\..\lvgl\version_6.1.2\lvgl\src\lv_objx/lv_calendar.c **** static const char * day_name[7]    = {"Su", "Mo", "Tu", "We", "Th", "Fr", "Sa"};
  59:..\..\..\lvgl\version_6.1.2\lvgl\src\lv_objx/lv_calendar.c **** static const char * month_name[12] = {"January", "February", "March",     "April",   "May",      "J
  60:..\..\..\lvgl\version_6.1.2\lvgl\src\lv_objx/lv_calendar.c ****                                       "July",    "August",   "September", "October", "November", "D
  61:..\..\..\lvgl\version_6.1.2\lvgl\src\lv_objx/lv_calendar.c **** 
  62:..\..\..\lvgl\version_6.1.2\lvgl\src\lv_objx/lv_calendar.c **** /**********************
  63:..\..\..\lvgl\version_6.1.2\lvgl\src\lv_objx/lv_calendar.c ****  *      MACROS
  64:..\..\..\lvgl\version_6.1.2\lvgl\src\lv_objx/lv_calendar.c ****  **********************/
  65:..\..\..\lvgl\version_6.1.2\lvgl\src\lv_objx/lv_calendar.c **** 
  66:..\..\..\lvgl\version_6.1.2\lvgl\src\lv_objx/lv_calendar.c **** /**********************
  67:..\..\..\lvgl\version_6.1.2\lvgl\src\lv_objx/lv_calendar.c ****  *   GLOBAL FUNCTIONS
  68:..\..\..\lvgl\version_6.1.2\lvgl\src\lv_objx/lv_calendar.c ****  **********************/
  69:..\..\..\lvgl\version_6.1.2\lvgl\src\lv_objx/lv_calendar.c **** 
  70:..\..\..\lvgl\version_6.1.2\lvgl\src\lv_objx/lv_calendar.c **** /**
  71:..\..\..\lvgl\version_6.1.2\lvgl\src\lv_objx/lv_calendar.c ****  * Create a calendar object
  72:..\..\..\lvgl\version_6.1.2\lvgl\src\lv_objx/lv_calendar.c ****  * @param par pointer to an object, it will be the parent of the new calendar
  73:..\..\..\lvgl\version_6.1.2\lvgl\src\lv_objx/lv_calendar.c ****  * @param copy pointer to a calendar object, if not NULL then the new object will be copied from it
  74:..\..\..\lvgl\version_6.1.2\lvgl\src\lv_objx/lv_calendar.c ****  * @return pointer to the created calendar
  75:..\..\..\lvgl\version_6.1.2\lvgl\src\lv_objx/lv_calendar.c ****  */
  76:..\..\..\lvgl\version_6.1.2\lvgl\src\lv_objx/lv_calendar.c **** lv_obj_t * lv_calendar_create(lv_obj_t * par, const lv_obj_t * copy)
  77:..\..\..\lvgl\version_6.1.2\lvgl\src\lv_objx/lv_calendar.c **** {
  78:..\..\..\lvgl\version_6.1.2\lvgl\src\lv_objx/lv_calendar.c ****     LV_LOG_TRACE("calendar create started");
  79:..\..\..\lvgl\version_6.1.2\lvgl\src\lv_objx/lv_calendar.c **** 
  80:..\..\..\lvgl\version_6.1.2\lvgl\src\lv_objx/lv_calendar.c ****     /*Create the ancestor of calendar*/
  81:..\..\..\lvgl\version_6.1.2\lvgl\src\lv_objx/lv_calendar.c ****     lv_obj_t * new_calendar = lv_obj_create(par, copy);
  82:..\..\..\lvgl\version_6.1.2\lvgl\src\lv_objx/lv_calendar.c ****     LV_ASSERT_MEM(new_calendar);
  83:..\..\..\lvgl\version_6.1.2\lvgl\src\lv_objx/lv_calendar.c ****     if(new_calendar == NULL) return NULL;
  84:..\..\..\lvgl\version_6.1.2\lvgl\src\lv_objx/lv_calendar.c **** 
  85:..\..\..\lvgl\version_6.1.2\lvgl\src\lv_objx/lv_calendar.c ****     /*Allocate the calendar type specific extended data*/
  86:..\..\..\lvgl\version_6.1.2\lvgl\src\lv_objx/lv_calendar.c ****     lv_calendar_ext_t * ext = lv_obj_allocate_ext_attr(new_calendar, sizeof(lv_calendar_ext_t));
  87:..\..\..\lvgl\version_6.1.2\lvgl\src\lv_objx/lv_calendar.c ****     LV_ASSERT_MEM(ext);
ARM GAS  C:\Users\pearlstl\AppData\Local\Temp\ccHPSyCj.s 			page 3


  88:..\..\..\lvgl\version_6.1.2\lvgl\src\lv_objx/lv_calendar.c ****     if(ext == NULL) return NULL;
  89:..\..\..\lvgl\version_6.1.2\lvgl\src\lv_objx/lv_calendar.c ****     if(ancestor_signal == NULL) ancestor_signal = lv_obj_get_signal_cb(new_calendar);
  90:..\..\..\lvgl\version_6.1.2\lvgl\src\lv_objx/lv_calendar.c ****     if(ancestor_design == NULL) ancestor_design = lv_obj_get_design_cb(new_calendar);
  91:..\..\..\lvgl\version_6.1.2\lvgl\src\lv_objx/lv_calendar.c **** 
  92:..\..\..\lvgl\version_6.1.2\lvgl\src\lv_objx/lv_calendar.c ****     /*Initialize the allocated 'ext' */
  93:..\..\..\lvgl\version_6.1.2\lvgl\src\lv_objx/lv_calendar.c ****     ext->today.year  = 2018;
  94:..\..\..\lvgl\version_6.1.2\lvgl\src\lv_objx/lv_calendar.c ****     ext->today.month = 1;
  95:..\..\..\lvgl\version_6.1.2\lvgl\src\lv_objx/lv_calendar.c ****     ext->today.day   = 1;
  96:..\..\..\lvgl\version_6.1.2\lvgl\src\lv_objx/lv_calendar.c **** 
  97:..\..\..\lvgl\version_6.1.2\lvgl\src\lv_objx/lv_calendar.c ****     ext->showed_date.year  = 2018;
  98:..\..\..\lvgl\version_6.1.2\lvgl\src\lv_objx/lv_calendar.c ****     ext->showed_date.month = 1;
  99:..\..\..\lvgl\version_6.1.2\lvgl\src\lv_objx/lv_calendar.c ****     ext->showed_date.day   = 1;
 100:..\..\..\lvgl\version_6.1.2\lvgl\src\lv_objx/lv_calendar.c **** 
 101:..\..\..\lvgl\version_6.1.2\lvgl\src\lv_objx/lv_calendar.c ****     ext->pressed_date.year  = 0;
 102:..\..\..\lvgl\version_6.1.2\lvgl\src\lv_objx/lv_calendar.c ****     ext->pressed_date.month = 0;
 103:..\..\..\lvgl\version_6.1.2\lvgl\src\lv_objx/lv_calendar.c ****     ext->pressed_date.day   = 0;
 104:..\..\..\lvgl\version_6.1.2\lvgl\src\lv_objx/lv_calendar.c **** 
 105:..\..\..\lvgl\version_6.1.2\lvgl\src\lv_objx/lv_calendar.c ****     ext->highlighted_dates      = NULL;
 106:..\..\..\lvgl\version_6.1.2\lvgl\src\lv_objx/lv_calendar.c ****     ext->highlighted_dates_num  = 0;
 107:..\..\..\lvgl\version_6.1.2\lvgl\src\lv_objx/lv_calendar.c ****     ext->day_names              = NULL;
 108:..\..\..\lvgl\version_6.1.2\lvgl\src\lv_objx/lv_calendar.c ****     ext->month_names            = NULL;
 109:..\..\..\lvgl\version_6.1.2\lvgl\src\lv_objx/lv_calendar.c ****     ext->style_header           = &lv_style_plain_color;
 110:..\..\..\lvgl\version_6.1.2\lvgl\src\lv_objx/lv_calendar.c ****     ext->style_header_pr        = &lv_style_pretty_color;
 111:..\..\..\lvgl\version_6.1.2\lvgl\src\lv_objx/lv_calendar.c ****     ext->style_highlighted_days = &lv_style_plain_color;
 112:..\..\..\lvgl\version_6.1.2\lvgl\src\lv_objx/lv_calendar.c ****     ext->style_inactive_days    = &lv_style_btn_ina;
 113:..\..\..\lvgl\version_6.1.2\lvgl\src\lv_objx/lv_calendar.c ****     ext->style_week_box         = &lv_style_plain_color;
 114:..\..\..\lvgl\version_6.1.2\lvgl\src\lv_objx/lv_calendar.c ****     ext->style_today_box        = &lv_style_pretty_color;
 115:..\..\..\lvgl\version_6.1.2\lvgl\src\lv_objx/lv_calendar.c ****     ext->style_day_names        = &lv_style_pretty;
 116:..\..\..\lvgl\version_6.1.2\lvgl\src\lv_objx/lv_calendar.c **** 
 117:..\..\..\lvgl\version_6.1.2\lvgl\src\lv_objx/lv_calendar.c ****     /*The signal and design functions are not copied so set them here*/
 118:..\..\..\lvgl\version_6.1.2\lvgl\src\lv_objx/lv_calendar.c ****     lv_obj_set_signal_cb(new_calendar, lv_calendar_signal);
 119:..\..\..\lvgl\version_6.1.2\lvgl\src\lv_objx/lv_calendar.c ****     lv_obj_set_design_cb(new_calendar, lv_calendar_design);
 120:..\..\..\lvgl\version_6.1.2\lvgl\src\lv_objx/lv_calendar.c **** 
 121:..\..\..\lvgl\version_6.1.2\lvgl\src\lv_objx/lv_calendar.c ****     /*Init the new calendar calendar*/
 122:..\..\..\lvgl\version_6.1.2\lvgl\src\lv_objx/lv_calendar.c ****     if(copy == NULL) {
 123:..\..\..\lvgl\version_6.1.2\lvgl\src\lv_objx/lv_calendar.c ****         lv_obj_set_size(new_calendar, LV_DPI * 2, LV_DPI * 2);
 124:..\..\..\lvgl\version_6.1.2\lvgl\src\lv_objx/lv_calendar.c ****         lv_obj_set_style(new_calendar, &lv_style_pretty);
 125:..\..\..\lvgl\version_6.1.2\lvgl\src\lv_objx/lv_calendar.c **** 
 126:..\..\..\lvgl\version_6.1.2\lvgl\src\lv_objx/lv_calendar.c ****         lv_theme_t * th = lv_theme_get_current();
 127:..\..\..\lvgl\version_6.1.2\lvgl\src\lv_objx/lv_calendar.c ****         if(th) {
 128:..\..\..\lvgl\version_6.1.2\lvgl\src\lv_objx/lv_calendar.c ****             lv_calendar_set_style(new_calendar, LV_CALENDAR_STYLE_BG, th->style.calendar.bg);
 129:..\..\..\lvgl\version_6.1.2\lvgl\src\lv_objx/lv_calendar.c ****             lv_calendar_set_style(new_calendar, LV_CALENDAR_STYLE_HEADER, th->style.calendar.header
 130:..\..\..\lvgl\version_6.1.2\lvgl\src\lv_objx/lv_calendar.c ****             lv_calendar_set_style(new_calendar, LV_CALENDAR_STYLE_HEADER_PR, th->style.calendar.hea
 131:..\..\..\lvgl\version_6.1.2\lvgl\src\lv_objx/lv_calendar.c ****             lv_calendar_set_style(new_calendar, LV_CALENDAR_STYLE_DAY_NAMES, th->style.calendar.day
 132:..\..\..\lvgl\version_6.1.2\lvgl\src\lv_objx/lv_calendar.c ****             lv_calendar_set_style(new_calendar, LV_CALENDAR_STYLE_WEEK_BOX, th->style.calendar.week
 133:..\..\..\lvgl\version_6.1.2\lvgl\src\lv_objx/lv_calendar.c ****             lv_calendar_set_style(new_calendar, LV_CALENDAR_STYLE_TODAY_BOX, th->style.calendar.tod
 134:..\..\..\lvgl\version_6.1.2\lvgl\src\lv_objx/lv_calendar.c ****             lv_calendar_set_style(new_calendar, LV_CALENDAR_STYLE_HIGHLIGHTED_DAYS,
 135:..\..\..\lvgl\version_6.1.2\lvgl\src\lv_objx/lv_calendar.c ****                                   th->style.calendar.highlighted_days);
 136:..\..\..\lvgl\version_6.1.2\lvgl\src\lv_objx/lv_calendar.c ****             lv_calendar_set_style(new_calendar, LV_CALENDAR_STYLE_INACTIVE_DAYS, th->style.calendar
 137:..\..\..\lvgl\version_6.1.2\lvgl\src\lv_objx/lv_calendar.c ****         } else {
 138:..\..\..\lvgl\version_6.1.2\lvgl\src\lv_objx/lv_calendar.c ****             lv_calendar_set_style(new_calendar, LV_CALENDAR_STYLE_BG, &lv_style_pretty);
 139:..\..\..\lvgl\version_6.1.2\lvgl\src\lv_objx/lv_calendar.c ****             lv_calendar_set_style(new_calendar, LV_CALENDAR_STYLE_HEADER, ext->style_header);
 140:..\..\..\lvgl\version_6.1.2\lvgl\src\lv_objx/lv_calendar.c ****             lv_calendar_set_style(new_calendar, LV_CALENDAR_STYLE_HEADER_PR, ext->style_header_pr);
 141:..\..\..\lvgl\version_6.1.2\lvgl\src\lv_objx/lv_calendar.c ****             lv_calendar_set_style(new_calendar, LV_CALENDAR_STYLE_DAY_NAMES, ext->style_day_names);
 142:..\..\..\lvgl\version_6.1.2\lvgl\src\lv_objx/lv_calendar.c ****             lv_calendar_set_style(new_calendar, LV_CALENDAR_STYLE_WEEK_BOX, ext->style_week_box);
 143:..\..\..\lvgl\version_6.1.2\lvgl\src\lv_objx/lv_calendar.c ****             lv_calendar_set_style(new_calendar, LV_CALENDAR_STYLE_TODAY_BOX, ext->style_today_box);
 144:..\..\..\lvgl\version_6.1.2\lvgl\src\lv_objx/lv_calendar.c ****             lv_calendar_set_style(new_calendar, LV_CALENDAR_STYLE_HIGHLIGHTED_DAYS, ext->style_high
ARM GAS  C:\Users\pearlstl\AppData\Local\Temp\ccHPSyCj.s 			page 4


 145:..\..\..\lvgl\version_6.1.2\lvgl\src\lv_objx/lv_calendar.c ****             lv_calendar_set_style(new_calendar, LV_CALENDAR_STYLE_INACTIVE_DAYS, ext->style_inactiv
 146:..\..\..\lvgl\version_6.1.2\lvgl\src\lv_objx/lv_calendar.c ****         }
 147:..\..\..\lvgl\version_6.1.2\lvgl\src\lv_objx/lv_calendar.c ****     }
 148:..\..\..\lvgl\version_6.1.2\lvgl\src\lv_objx/lv_calendar.c ****     /*Copy an existing calendar*/
 149:..\..\..\lvgl\version_6.1.2\lvgl\src\lv_objx/lv_calendar.c ****     else {
 150:..\..\..\lvgl\version_6.1.2\lvgl\src\lv_objx/lv_calendar.c ****         lv_calendar_ext_t * copy_ext = lv_obj_get_ext_attr(copy);
 151:..\..\..\lvgl\version_6.1.2\lvgl\src\lv_objx/lv_calendar.c ****         ext->today.year              = copy_ext->today.year;
 152:..\..\..\lvgl\version_6.1.2\lvgl\src\lv_objx/lv_calendar.c ****         ext->today.month             = copy_ext->today.month;
 153:..\..\..\lvgl\version_6.1.2\lvgl\src\lv_objx/lv_calendar.c ****         ext->today.day               = copy_ext->today.day;
 154:..\..\..\lvgl\version_6.1.2\lvgl\src\lv_objx/lv_calendar.c **** 
 155:..\..\..\lvgl\version_6.1.2\lvgl\src\lv_objx/lv_calendar.c ****         ext->showed_date.year  = copy_ext->showed_date.year;
 156:..\..\..\lvgl\version_6.1.2\lvgl\src\lv_objx/lv_calendar.c ****         ext->showed_date.month = copy_ext->showed_date.month;
 157:..\..\..\lvgl\version_6.1.2\lvgl\src\lv_objx/lv_calendar.c ****         ext->showed_date.day   = copy_ext->showed_date.day;
 158:..\..\..\lvgl\version_6.1.2\lvgl\src\lv_objx/lv_calendar.c **** 
 159:..\..\..\lvgl\version_6.1.2\lvgl\src\lv_objx/lv_calendar.c ****         ext->highlighted_dates     = copy_ext->highlighted_dates;
 160:..\..\..\lvgl\version_6.1.2\lvgl\src\lv_objx/lv_calendar.c ****         ext->highlighted_dates_num = copy_ext->highlighted_dates_num;
 161:..\..\..\lvgl\version_6.1.2\lvgl\src\lv_objx/lv_calendar.c ****         ext->day_names             = copy_ext->day_names;
 162:..\..\..\lvgl\version_6.1.2\lvgl\src\lv_objx/lv_calendar.c **** 
 163:..\..\..\lvgl\version_6.1.2\lvgl\src\lv_objx/lv_calendar.c ****         ext->month_names            = copy_ext->month_names;
 164:..\..\..\lvgl\version_6.1.2\lvgl\src\lv_objx/lv_calendar.c ****         ext->style_header           = copy_ext->style_header;
 165:..\..\..\lvgl\version_6.1.2\lvgl\src\lv_objx/lv_calendar.c ****         ext->style_header_pr        = copy_ext->style_header_pr;
 166:..\..\..\lvgl\version_6.1.2\lvgl\src\lv_objx/lv_calendar.c ****         ext->style_highlighted_days = copy_ext->style_highlighted_days;
 167:..\..\..\lvgl\version_6.1.2\lvgl\src\lv_objx/lv_calendar.c ****         ext->style_inactive_days    = copy_ext->style_inactive_days;
 168:..\..\..\lvgl\version_6.1.2\lvgl\src\lv_objx/lv_calendar.c ****         ext->style_week_box         = copy_ext->style_week_box;
 169:..\..\..\lvgl\version_6.1.2\lvgl\src\lv_objx/lv_calendar.c ****         ext->style_today_box        = copy_ext->style_today_box;
 170:..\..\..\lvgl\version_6.1.2\lvgl\src\lv_objx/lv_calendar.c ****         ext->style_day_names        = copy_ext->style_day_names;
 171:..\..\..\lvgl\version_6.1.2\lvgl\src\lv_objx/lv_calendar.c ****         /*Refresh the style with new signal function*/
 172:..\..\..\lvgl\version_6.1.2\lvgl\src\lv_objx/lv_calendar.c ****         lv_obj_refresh_style(new_calendar);
 173:..\..\..\lvgl\version_6.1.2\lvgl\src\lv_objx/lv_calendar.c ****     }
 174:..\..\..\lvgl\version_6.1.2\lvgl\src\lv_objx/lv_calendar.c **** 
 175:..\..\..\lvgl\version_6.1.2\lvgl\src\lv_objx/lv_calendar.c ****     LV_LOG_INFO("calendar created");
 176:..\..\..\lvgl\version_6.1.2\lvgl\src\lv_objx/lv_calendar.c **** 
 177:..\..\..\lvgl\version_6.1.2\lvgl\src\lv_objx/lv_calendar.c ****     return new_calendar;
 178:..\..\..\lvgl\version_6.1.2\lvgl\src\lv_objx/lv_calendar.c **** }
 179:..\..\..\lvgl\version_6.1.2\lvgl\src\lv_objx/lv_calendar.c **** 
 180:..\..\..\lvgl\version_6.1.2\lvgl\src\lv_objx/lv_calendar.c **** /*======================
 181:..\..\..\lvgl\version_6.1.2\lvgl\src\lv_objx/lv_calendar.c ****  * Add/remove functions
 182:..\..\..\lvgl\version_6.1.2\lvgl\src\lv_objx/lv_calendar.c ****  *=====================*/
 183:..\..\..\lvgl\version_6.1.2\lvgl\src\lv_objx/lv_calendar.c **** 
 184:..\..\..\lvgl\version_6.1.2\lvgl\src\lv_objx/lv_calendar.c **** /*
 185:..\..\..\lvgl\version_6.1.2\lvgl\src\lv_objx/lv_calendar.c ****  * New object specific "add" or "remove" functions come here
 186:..\..\..\lvgl\version_6.1.2\lvgl\src\lv_objx/lv_calendar.c ****  */
 187:..\..\..\lvgl\version_6.1.2\lvgl\src\lv_objx/lv_calendar.c **** 
 188:..\..\..\lvgl\version_6.1.2\lvgl\src\lv_objx/lv_calendar.c **** /*=====================
 189:..\..\..\lvgl\version_6.1.2\lvgl\src\lv_objx/lv_calendar.c ****  * Setter functions
 190:..\..\..\lvgl\version_6.1.2\lvgl\src\lv_objx/lv_calendar.c ****  *====================*/
 191:..\..\..\lvgl\version_6.1.2\lvgl\src\lv_objx/lv_calendar.c **** 
 192:..\..\..\lvgl\version_6.1.2\lvgl\src\lv_objx/lv_calendar.c **** /**
 193:..\..\..\lvgl\version_6.1.2\lvgl\src\lv_objx/lv_calendar.c ****  * Set the today's date
 194:..\..\..\lvgl\version_6.1.2\lvgl\src\lv_objx/lv_calendar.c ****  * @param calendar pointer to a calendar object
 195:..\..\..\lvgl\version_6.1.2\lvgl\src\lv_objx/lv_calendar.c ****  * @param today pointer to an `lv_calendar_date_t` variable containing the date of today. The value
 196:..\..\..\lvgl\version_6.1.2\lvgl\src\lv_objx/lv_calendar.c ****  * will be saved it can be local variable too.
 197:..\..\..\lvgl\version_6.1.2\lvgl\src\lv_objx/lv_calendar.c ****  */
 198:..\..\..\lvgl\version_6.1.2\lvgl\src\lv_objx/lv_calendar.c **** void lv_calendar_set_today_date(lv_obj_t * calendar, lv_calendar_date_t * today)
 199:..\..\..\lvgl\version_6.1.2\lvgl\src\lv_objx/lv_calendar.c **** {
 200:..\..\..\lvgl\version_6.1.2\lvgl\src\lv_objx/lv_calendar.c ****     LV_ASSERT_OBJ(calendar, LV_OBJX_NAME);
 201:..\..\..\lvgl\version_6.1.2\lvgl\src\lv_objx/lv_calendar.c ****     LV_ASSERT_NULL(today);
ARM GAS  C:\Users\pearlstl\AppData\Local\Temp\ccHPSyCj.s 			page 5


 202:..\..\..\lvgl\version_6.1.2\lvgl\src\lv_objx/lv_calendar.c **** 
 203:..\..\..\lvgl\version_6.1.2\lvgl\src\lv_objx/lv_calendar.c ****     lv_calendar_ext_t * ext = lv_obj_get_ext_attr(calendar);
 204:..\..\..\lvgl\version_6.1.2\lvgl\src\lv_objx/lv_calendar.c ****     ext->today.year         = today->year;
 205:..\..\..\lvgl\version_6.1.2\lvgl\src\lv_objx/lv_calendar.c ****     ext->today.month        = today->month;
 206:..\..\..\lvgl\version_6.1.2\lvgl\src\lv_objx/lv_calendar.c ****     ext->today.day          = today->day;
 207:..\..\..\lvgl\version_6.1.2\lvgl\src\lv_objx/lv_calendar.c **** 
 208:..\..\..\lvgl\version_6.1.2\lvgl\src\lv_objx/lv_calendar.c ****     lv_obj_invalidate(calendar);
 209:..\..\..\lvgl\version_6.1.2\lvgl\src\lv_objx/lv_calendar.c **** }
 210:..\..\..\lvgl\version_6.1.2\lvgl\src\lv_objx/lv_calendar.c **** 
 211:..\..\..\lvgl\version_6.1.2\lvgl\src\lv_objx/lv_calendar.c **** /**
 212:..\..\..\lvgl\version_6.1.2\lvgl\src\lv_objx/lv_calendar.c ****  * Set the currently showed
 213:..\..\..\lvgl\version_6.1.2\lvgl\src\lv_objx/lv_calendar.c ****  * @param calendar pointer to a calendar object
 214:..\..\..\lvgl\version_6.1.2\lvgl\src\lv_objx/lv_calendar.c ****  * @param showed pointer to an `lv_calendar_date_t` variable containing the date to show. The value
 215:..\..\..\lvgl\version_6.1.2\lvgl\src\lv_objx/lv_calendar.c ****  * will be saved it can be local variable too.
 216:..\..\..\lvgl\version_6.1.2\lvgl\src\lv_objx/lv_calendar.c ****  */
 217:..\..\..\lvgl\version_6.1.2\lvgl\src\lv_objx/lv_calendar.c **** void lv_calendar_set_showed_date(lv_obj_t * calendar, lv_calendar_date_t * showed)
 218:..\..\..\lvgl\version_6.1.2\lvgl\src\lv_objx/lv_calendar.c **** {
 219:..\..\..\lvgl\version_6.1.2\lvgl\src\lv_objx/lv_calendar.c ****     LV_ASSERT_OBJ(calendar, LV_OBJX_NAME);
 220:..\..\..\lvgl\version_6.1.2\lvgl\src\lv_objx/lv_calendar.c ****     LV_ASSERT_NULL(showed);
 221:..\..\..\lvgl\version_6.1.2\lvgl\src\lv_objx/lv_calendar.c **** 
 222:..\..\..\lvgl\version_6.1.2\lvgl\src\lv_objx/lv_calendar.c ****     lv_calendar_ext_t * ext = lv_obj_get_ext_attr(calendar);
 223:..\..\..\lvgl\version_6.1.2\lvgl\src\lv_objx/lv_calendar.c ****     ext->showed_date.year   = showed->year;
 224:..\..\..\lvgl\version_6.1.2\lvgl\src\lv_objx/lv_calendar.c ****     ext->showed_date.month  = showed->month;
 225:..\..\..\lvgl\version_6.1.2\lvgl\src\lv_objx/lv_calendar.c ****     ext->showed_date.day    = showed->day;
 226:..\..\..\lvgl\version_6.1.2\lvgl\src\lv_objx/lv_calendar.c **** 
 227:..\..\..\lvgl\version_6.1.2\lvgl\src\lv_objx/lv_calendar.c ****     lv_obj_invalidate(calendar);
 228:..\..\..\lvgl\version_6.1.2\lvgl\src\lv_objx/lv_calendar.c **** }
 229:..\..\..\lvgl\version_6.1.2\lvgl\src\lv_objx/lv_calendar.c **** 
 230:..\..\..\lvgl\version_6.1.2\lvgl\src\lv_objx/lv_calendar.c **** /**
 231:..\..\..\lvgl\version_6.1.2\lvgl\src\lv_objx/lv_calendar.c ****  * Set the the highlighted dates
 232:..\..\..\lvgl\version_6.1.2\lvgl\src\lv_objx/lv_calendar.c ****  * @param calendar pointer to a calendar object
 233:..\..\..\lvgl\version_6.1.2\lvgl\src\lv_objx/lv_calendar.c ****  * @param highlighted pointer to an `lv_calendar_date_t` array containing the dates. ONLY A POINTER
 234:..\..\..\lvgl\version_6.1.2\lvgl\src\lv_objx/lv_calendar.c ****  * WILL BE SAVED! CAN'T BE LOCAL ARRAY.
 235:..\..\..\lvgl\version_6.1.2\lvgl\src\lv_objx/lv_calendar.c ****  * @param date_num number of dates in the array
 236:..\..\..\lvgl\version_6.1.2\lvgl\src\lv_objx/lv_calendar.c ****  */
 237:..\..\..\lvgl\version_6.1.2\lvgl\src\lv_objx/lv_calendar.c **** void lv_calendar_set_highlighted_dates(lv_obj_t * calendar, lv_calendar_date_t highlighted[], uint1
 238:..\..\..\lvgl\version_6.1.2\lvgl\src\lv_objx/lv_calendar.c **** {
 239:..\..\..\lvgl\version_6.1.2\lvgl\src\lv_objx/lv_calendar.c ****     LV_ASSERT_OBJ(calendar, LV_OBJX_NAME);
 240:..\..\..\lvgl\version_6.1.2\lvgl\src\lv_objx/lv_calendar.c ****     LV_ASSERT_NULL(highlighted);
 241:..\..\..\lvgl\version_6.1.2\lvgl\src\lv_objx/lv_calendar.c **** 
 242:..\..\..\lvgl\version_6.1.2\lvgl\src\lv_objx/lv_calendar.c ****     lv_calendar_ext_t * ext    = lv_obj_get_ext_attr(calendar);
 243:..\..\..\lvgl\version_6.1.2\lvgl\src\lv_objx/lv_calendar.c ****     ext->highlighted_dates     = highlighted;
 244:..\..\..\lvgl\version_6.1.2\lvgl\src\lv_objx/lv_calendar.c ****     ext->highlighted_dates_num = date_num;
 245:..\..\..\lvgl\version_6.1.2\lvgl\src\lv_objx/lv_calendar.c **** 
 246:..\..\..\lvgl\version_6.1.2\lvgl\src\lv_objx/lv_calendar.c ****     lv_obj_invalidate(calendar);
 247:..\..\..\lvgl\version_6.1.2\lvgl\src\lv_objx/lv_calendar.c **** }
 248:..\..\..\lvgl\version_6.1.2\lvgl\src\lv_objx/lv_calendar.c **** 
 249:..\..\..\lvgl\version_6.1.2\lvgl\src\lv_objx/lv_calendar.c **** /**
 250:..\..\..\lvgl\version_6.1.2\lvgl\src\lv_objx/lv_calendar.c ****  * Set the name of the days
 251:..\..\..\lvgl\version_6.1.2\lvgl\src\lv_objx/lv_calendar.c ****  * @param calendar pointer to a calendar object
 252:..\..\..\lvgl\version_6.1.2\lvgl\src\lv_objx/lv_calendar.c ****  * @param day_names pointer to an array with the names. E.g. `const char * days[7] = {"Sun", "Mon",
 253:..\..\..\lvgl\version_6.1.2\lvgl\src\lv_objx/lv_calendar.c ****  * ...}` Only the pointer will be saved so this variable can't be local which will be destroyed
 254:..\..\..\lvgl\version_6.1.2\lvgl\src\lv_objx/lv_calendar.c ****  * later.
 255:..\..\..\lvgl\version_6.1.2\lvgl\src\lv_objx/lv_calendar.c ****  */
 256:..\..\..\lvgl\version_6.1.2\lvgl\src\lv_objx/lv_calendar.c **** void lv_calendar_set_day_names(lv_obj_t * calendar, const char ** day_names)
 257:..\..\..\lvgl\version_6.1.2\lvgl\src\lv_objx/lv_calendar.c **** {
 258:..\..\..\lvgl\version_6.1.2\lvgl\src\lv_objx/lv_calendar.c ****     LV_ASSERT_OBJ(calendar, LV_OBJX_NAME);
ARM GAS  C:\Users\pearlstl\AppData\Local\Temp\ccHPSyCj.s 			page 6


 259:..\..\..\lvgl\version_6.1.2\lvgl\src\lv_objx/lv_calendar.c ****     LV_ASSERT_NULL(day_names);
 260:..\..\..\lvgl\version_6.1.2\lvgl\src\lv_objx/lv_calendar.c **** 
 261:..\..\..\lvgl\version_6.1.2\lvgl\src\lv_objx/lv_calendar.c ****     lv_calendar_ext_t * ext = lv_obj_get_ext_attr(calendar);
 262:..\..\..\lvgl\version_6.1.2\lvgl\src\lv_objx/lv_calendar.c ****     ext->day_names          = day_names;
 263:..\..\..\lvgl\version_6.1.2\lvgl\src\lv_objx/lv_calendar.c ****     lv_obj_invalidate(calendar);
 264:..\..\..\lvgl\version_6.1.2\lvgl\src\lv_objx/lv_calendar.c **** }
 265:..\..\..\lvgl\version_6.1.2\lvgl\src\lv_objx/lv_calendar.c **** 
 266:..\..\..\lvgl\version_6.1.2\lvgl\src\lv_objx/lv_calendar.c **** /**
 267:..\..\..\lvgl\version_6.1.2\lvgl\src\lv_objx/lv_calendar.c ****  * Set the name of the month
 268:..\..\..\lvgl\version_6.1.2\lvgl\src\lv_objx/lv_calendar.c ****  * @param calendar pointer to a calendar object
 269:..\..\..\lvgl\version_6.1.2\lvgl\src\lv_objx/lv_calendar.c ****  * @param month_names pointer to an array with the names. E.g. `const char * days[12] = {"Jan", "Fe
 270:..\..\..\lvgl\version_6.1.2\lvgl\src\lv_objx/lv_calendar.c ****  * ...}` Only the pointer will be saved so this variable can't be local which will be destroyed
 271:..\..\..\lvgl\version_6.1.2\lvgl\src\lv_objx/lv_calendar.c ****  * later.
 272:..\..\..\lvgl\version_6.1.2\lvgl\src\lv_objx/lv_calendar.c ****  */
 273:..\..\..\lvgl\version_6.1.2\lvgl\src\lv_objx/lv_calendar.c **** void lv_calendar_set_month_names(lv_obj_t * calendar, const char ** month_names)
 274:..\..\..\lvgl\version_6.1.2\lvgl\src\lv_objx/lv_calendar.c **** {
 275:..\..\..\lvgl\version_6.1.2\lvgl\src\lv_objx/lv_calendar.c ****     LV_ASSERT_OBJ(calendar, LV_OBJX_NAME);
 276:..\..\..\lvgl\version_6.1.2\lvgl\src\lv_objx/lv_calendar.c ****     LV_ASSERT_NULL(month_names);
 277:..\..\..\lvgl\version_6.1.2\lvgl\src\lv_objx/lv_calendar.c **** 
 278:..\..\..\lvgl\version_6.1.2\lvgl\src\lv_objx/lv_calendar.c ****     lv_calendar_ext_t * ext = lv_obj_get_ext_attr(calendar);
 279:..\..\..\lvgl\version_6.1.2\lvgl\src\lv_objx/lv_calendar.c ****     ext->month_names        = month_names;
 280:..\..\..\lvgl\version_6.1.2\lvgl\src\lv_objx/lv_calendar.c ****     lv_obj_invalidate(calendar);
 281:..\..\..\lvgl\version_6.1.2\lvgl\src\lv_objx/lv_calendar.c **** }
 282:..\..\..\lvgl\version_6.1.2\lvgl\src\lv_objx/lv_calendar.c **** 
 283:..\..\..\lvgl\version_6.1.2\lvgl\src\lv_objx/lv_calendar.c **** /**
 284:..\..\..\lvgl\version_6.1.2\lvgl\src\lv_objx/lv_calendar.c ****  * Set a style of a calendar.
 285:..\..\..\lvgl\version_6.1.2\lvgl\src\lv_objx/lv_calendar.c ****  * @param calendar pointer to calendar object
 286:..\..\..\lvgl\version_6.1.2\lvgl\src\lv_objx/lv_calendar.c ****  * @param type which style should be set
 287:..\..\..\lvgl\version_6.1.2\lvgl\src\lv_objx/lv_calendar.c ****  * @param style pointer to a style
 288:..\..\..\lvgl\version_6.1.2\lvgl\src\lv_objx/lv_calendar.c ****  *  */
 289:..\..\..\lvgl\version_6.1.2\lvgl\src\lv_objx/lv_calendar.c **** void lv_calendar_set_style(lv_obj_t * calendar, lv_calendar_style_t type, const lv_style_t * style)
 290:..\..\..\lvgl\version_6.1.2\lvgl\src\lv_objx/lv_calendar.c **** {
 291:..\..\..\lvgl\version_6.1.2\lvgl\src\lv_objx/lv_calendar.c ****     LV_ASSERT_OBJ(calendar, LV_OBJX_NAME);
 292:..\..\..\lvgl\version_6.1.2\lvgl\src\lv_objx/lv_calendar.c **** 
 293:..\..\..\lvgl\version_6.1.2\lvgl\src\lv_objx/lv_calendar.c ****     lv_calendar_ext_t * ext = lv_obj_get_ext_attr(calendar);
 294:..\..\..\lvgl\version_6.1.2\lvgl\src\lv_objx/lv_calendar.c **** 
 295:..\..\..\lvgl\version_6.1.2\lvgl\src\lv_objx/lv_calendar.c ****     switch(type) {
 296:..\..\..\lvgl\version_6.1.2\lvgl\src\lv_objx/lv_calendar.c ****         case LV_CALENDAR_STYLE_BG: lv_obj_set_style(calendar, style); break;
 297:..\..\..\lvgl\version_6.1.2\lvgl\src\lv_objx/lv_calendar.c ****         case LV_CALENDAR_STYLE_DAY_NAMES: ext->style_day_names = style; break;
 298:..\..\..\lvgl\version_6.1.2\lvgl\src\lv_objx/lv_calendar.c ****         case LV_CALENDAR_STYLE_HEADER: ext->style_header = style; break;
 299:..\..\..\lvgl\version_6.1.2\lvgl\src\lv_objx/lv_calendar.c ****         case LV_CALENDAR_STYLE_HEADER_PR: ext->style_header_pr = style; break;
 300:..\..\..\lvgl\version_6.1.2\lvgl\src\lv_objx/lv_calendar.c ****         case LV_CALENDAR_STYLE_HIGHLIGHTED_DAYS: ext->style_highlighted_days = style; break;
 301:..\..\..\lvgl\version_6.1.2\lvgl\src\lv_objx/lv_calendar.c ****         case LV_CALENDAR_STYLE_INACTIVE_DAYS: ext->style_inactive_days = style; break;
 302:..\..\..\lvgl\version_6.1.2\lvgl\src\lv_objx/lv_calendar.c ****         case LV_CALENDAR_STYLE_TODAY_BOX: ext->style_today_box = style; break;
 303:..\..\..\lvgl\version_6.1.2\lvgl\src\lv_objx/lv_calendar.c ****         case LV_CALENDAR_STYLE_WEEK_BOX: ext->style_week_box = style; break;
 304:..\..\..\lvgl\version_6.1.2\lvgl\src\lv_objx/lv_calendar.c ****     }
 305:..\..\..\lvgl\version_6.1.2\lvgl\src\lv_objx/lv_calendar.c **** 
 306:..\..\..\lvgl\version_6.1.2\lvgl\src\lv_objx/lv_calendar.c ****     lv_obj_invalidate(calendar);
 307:..\..\..\lvgl\version_6.1.2\lvgl\src\lv_objx/lv_calendar.c **** }
 308:..\..\..\lvgl\version_6.1.2\lvgl\src\lv_objx/lv_calendar.c **** 
 309:..\..\..\lvgl\version_6.1.2\lvgl\src\lv_objx/lv_calendar.c **** /*=====================
 310:..\..\..\lvgl\version_6.1.2\lvgl\src\lv_objx/lv_calendar.c ****  * Getter functions
 311:..\..\..\lvgl\version_6.1.2\lvgl\src\lv_objx/lv_calendar.c ****  *====================*/
 312:..\..\..\lvgl\version_6.1.2\lvgl\src\lv_objx/lv_calendar.c **** 
 313:..\..\..\lvgl\version_6.1.2\lvgl\src\lv_objx/lv_calendar.c **** /**
 314:..\..\..\lvgl\version_6.1.2\lvgl\src\lv_objx/lv_calendar.c ****  * Get the today's date
 315:..\..\..\lvgl\version_6.1.2\lvgl\src\lv_objx/lv_calendar.c ****  * @param calendar pointer to a calendar object
ARM GAS  C:\Users\pearlstl\AppData\Local\Temp\ccHPSyCj.s 			page 7


 316:..\..\..\lvgl\version_6.1.2\lvgl\src\lv_objx/lv_calendar.c ****  * @return return pointer to an `lv_calendar_date_t` variable containing the date of today.
 317:..\..\..\lvgl\version_6.1.2\lvgl\src\lv_objx/lv_calendar.c ****  */
 318:..\..\..\lvgl\version_6.1.2\lvgl\src\lv_objx/lv_calendar.c **** lv_calendar_date_t * lv_calendar_get_today_date(const lv_obj_t * calendar)
 319:..\..\..\lvgl\version_6.1.2\lvgl\src\lv_objx/lv_calendar.c **** {
 320:..\..\..\lvgl\version_6.1.2\lvgl\src\lv_objx/lv_calendar.c ****     LV_ASSERT_OBJ(calendar, LV_OBJX_NAME);
 321:..\..\..\lvgl\version_6.1.2\lvgl\src\lv_objx/lv_calendar.c **** 
 322:..\..\..\lvgl\version_6.1.2\lvgl\src\lv_objx/lv_calendar.c ****     lv_calendar_ext_t * ext = lv_obj_get_ext_attr(calendar);
 323:..\..\..\lvgl\version_6.1.2\lvgl\src\lv_objx/lv_calendar.c ****     return &ext->today;
 324:..\..\..\lvgl\version_6.1.2\lvgl\src\lv_objx/lv_calendar.c **** }
 325:..\..\..\lvgl\version_6.1.2\lvgl\src\lv_objx/lv_calendar.c **** 
 326:..\..\..\lvgl\version_6.1.2\lvgl\src\lv_objx/lv_calendar.c **** /**
 327:..\..\..\lvgl\version_6.1.2\lvgl\src\lv_objx/lv_calendar.c ****  * Get the currently showed
 328:..\..\..\lvgl\version_6.1.2\lvgl\src\lv_objx/lv_calendar.c ****  * @param calendar pointer to a calendar object
 329:..\..\..\lvgl\version_6.1.2\lvgl\src\lv_objx/lv_calendar.c ****  * @return pointer to an `lv_calendar_date_t` variable containing the date is being shown.
 330:..\..\..\lvgl\version_6.1.2\lvgl\src\lv_objx/lv_calendar.c ****  */
 331:..\..\..\lvgl\version_6.1.2\lvgl\src\lv_objx/lv_calendar.c **** lv_calendar_date_t * lv_calendar_get_showed_date(const lv_obj_t * calendar)
 332:..\..\..\lvgl\version_6.1.2\lvgl\src\lv_objx/lv_calendar.c **** {
 333:..\..\..\lvgl\version_6.1.2\lvgl\src\lv_objx/lv_calendar.c ****     LV_ASSERT_OBJ(calendar, LV_OBJX_NAME);
 334:..\..\..\lvgl\version_6.1.2\lvgl\src\lv_objx/lv_calendar.c **** 
 335:..\..\..\lvgl\version_6.1.2\lvgl\src\lv_objx/lv_calendar.c ****     lv_calendar_ext_t * ext = lv_obj_get_ext_attr(calendar);
 336:..\..\..\lvgl\version_6.1.2\lvgl\src\lv_objx/lv_calendar.c ****     return &ext->showed_date;
 337:..\..\..\lvgl\version_6.1.2\lvgl\src\lv_objx/lv_calendar.c **** }
 338:..\..\..\lvgl\version_6.1.2\lvgl\src\lv_objx/lv_calendar.c **** 
 339:..\..\..\lvgl\version_6.1.2\lvgl\src\lv_objx/lv_calendar.c **** /**
 340:..\..\..\lvgl\version_6.1.2\lvgl\src\lv_objx/lv_calendar.c ****  * Get the the pressed date.
 341:..\..\..\lvgl\version_6.1.2\lvgl\src\lv_objx/lv_calendar.c ****  * @param calendar pointer to a calendar object
 342:..\..\..\lvgl\version_6.1.2\lvgl\src\lv_objx/lv_calendar.c ****  * @return pointer to an `lv_calendar_date_t` variable containing the pressed date.
 343:..\..\..\lvgl\version_6.1.2\lvgl\src\lv_objx/lv_calendar.c ****  * `NULL` if not date pressed (e.g. the header)
 344:..\..\..\lvgl\version_6.1.2\lvgl\src\lv_objx/lv_calendar.c ****  */
 345:..\..\..\lvgl\version_6.1.2\lvgl\src\lv_objx/lv_calendar.c **** lv_calendar_date_t * lv_calendar_get_pressed_date(const lv_obj_t * calendar)
 346:..\..\..\lvgl\version_6.1.2\lvgl\src\lv_objx/lv_calendar.c **** {
 347:..\..\..\lvgl\version_6.1.2\lvgl\src\lv_objx/lv_calendar.c ****     LV_ASSERT_OBJ(calendar, LV_OBJX_NAME);
 348:..\..\..\lvgl\version_6.1.2\lvgl\src\lv_objx/lv_calendar.c **** 
 349:..\..\..\lvgl\version_6.1.2\lvgl\src\lv_objx/lv_calendar.c ****     lv_calendar_ext_t * ext = lv_obj_get_ext_attr(calendar);
 350:..\..\..\lvgl\version_6.1.2\lvgl\src\lv_objx/lv_calendar.c ****     return ext->pressed_date.year != 0 ? &ext->pressed_date : NULL;
 351:..\..\..\lvgl\version_6.1.2\lvgl\src\lv_objx/lv_calendar.c **** }
 352:..\..\..\lvgl\version_6.1.2\lvgl\src\lv_objx/lv_calendar.c **** 
 353:..\..\..\lvgl\version_6.1.2\lvgl\src\lv_objx/lv_calendar.c **** /**
 354:..\..\..\lvgl\version_6.1.2\lvgl\src\lv_objx/lv_calendar.c ****  * Get the the highlighted dates
 355:..\..\..\lvgl\version_6.1.2\lvgl\src\lv_objx/lv_calendar.c ****  * @param calendar pointer to a calendar object
 356:..\..\..\lvgl\version_6.1.2\lvgl\src\lv_objx/lv_calendar.c ****  * @return pointer to an `lv_calendar_date_t` array containing the dates.
 357:..\..\..\lvgl\version_6.1.2\lvgl\src\lv_objx/lv_calendar.c ****  */
 358:..\..\..\lvgl\version_6.1.2\lvgl\src\lv_objx/lv_calendar.c **** lv_calendar_date_t * lv_calendar_get_highlighted_dates(const lv_obj_t * calendar)
 359:..\..\..\lvgl\version_6.1.2\lvgl\src\lv_objx/lv_calendar.c **** {
 360:..\..\..\lvgl\version_6.1.2\lvgl\src\lv_objx/lv_calendar.c ****     LV_ASSERT_OBJ(calendar, LV_OBJX_NAME);
 361:..\..\..\lvgl\version_6.1.2\lvgl\src\lv_objx/lv_calendar.c **** 
 362:..\..\..\lvgl\version_6.1.2\lvgl\src\lv_objx/lv_calendar.c ****     lv_calendar_ext_t * ext = lv_obj_get_ext_attr(calendar);
 363:..\..\..\lvgl\version_6.1.2\lvgl\src\lv_objx/lv_calendar.c ****     return ext->highlighted_dates;
 364:..\..\..\lvgl\version_6.1.2\lvgl\src\lv_objx/lv_calendar.c **** }
 365:..\..\..\lvgl\version_6.1.2\lvgl\src\lv_objx/lv_calendar.c **** 
 366:..\..\..\lvgl\version_6.1.2\lvgl\src\lv_objx/lv_calendar.c **** /**
 367:..\..\..\lvgl\version_6.1.2\lvgl\src\lv_objx/lv_calendar.c ****  * Get the number of the highlighted dates
 368:..\..\..\lvgl\version_6.1.2\lvgl\src\lv_objx/lv_calendar.c ****  * @param calendar pointer to a calendar object
 369:..\..\..\lvgl\version_6.1.2\lvgl\src\lv_objx/lv_calendar.c ****  * @return number of highlighted days
 370:..\..\..\lvgl\version_6.1.2\lvgl\src\lv_objx/lv_calendar.c ****  */
 371:..\..\..\lvgl\version_6.1.2\lvgl\src\lv_objx/lv_calendar.c **** uint16_t lv_calendar_get_highlighted_dates_num(const lv_obj_t * calendar)
 372:..\..\..\lvgl\version_6.1.2\lvgl\src\lv_objx/lv_calendar.c **** {
ARM GAS  C:\Users\pearlstl\AppData\Local\Temp\ccHPSyCj.s 			page 8


 373:..\..\..\lvgl\version_6.1.2\lvgl\src\lv_objx/lv_calendar.c ****     LV_ASSERT_OBJ(calendar, LV_OBJX_NAME);
 374:..\..\..\lvgl\version_6.1.2\lvgl\src\lv_objx/lv_calendar.c **** 
 375:..\..\..\lvgl\version_6.1.2\lvgl\src\lv_objx/lv_calendar.c ****     lv_calendar_ext_t * ext = lv_obj_get_ext_attr(calendar);
 376:..\..\..\lvgl\version_6.1.2\lvgl\src\lv_objx/lv_calendar.c ****     return ext->highlighted_dates_num;
 377:..\..\..\lvgl\version_6.1.2\lvgl\src\lv_objx/lv_calendar.c **** }
 378:..\..\..\lvgl\version_6.1.2\lvgl\src\lv_objx/lv_calendar.c **** 
 379:..\..\..\lvgl\version_6.1.2\lvgl\src\lv_objx/lv_calendar.c **** /**
 380:..\..\..\lvgl\version_6.1.2\lvgl\src\lv_objx/lv_calendar.c ****  * Get the name of the days
 381:..\..\..\lvgl\version_6.1.2\lvgl\src\lv_objx/lv_calendar.c ****  * @param calendar pointer to a calendar object
 382:..\..\..\lvgl\version_6.1.2\lvgl\src\lv_objx/lv_calendar.c ****  * @return pointer to the array of day names
 383:..\..\..\lvgl\version_6.1.2\lvgl\src\lv_objx/lv_calendar.c ****  */
 384:..\..\..\lvgl\version_6.1.2\lvgl\src\lv_objx/lv_calendar.c **** const char ** lv_calendar_get_day_names(const lv_obj_t * calendar)
 385:..\..\..\lvgl\version_6.1.2\lvgl\src\lv_objx/lv_calendar.c **** {
 386:..\..\..\lvgl\version_6.1.2\lvgl\src\lv_objx/lv_calendar.c ****     LV_ASSERT_OBJ(calendar, LV_OBJX_NAME);
 387:..\..\..\lvgl\version_6.1.2\lvgl\src\lv_objx/lv_calendar.c **** 
 388:..\..\..\lvgl\version_6.1.2\lvgl\src\lv_objx/lv_calendar.c ****     lv_calendar_ext_t * ext = lv_obj_get_ext_attr(calendar);
 389:..\..\..\lvgl\version_6.1.2\lvgl\src\lv_objx/lv_calendar.c ****     return ext->day_names;
 390:..\..\..\lvgl\version_6.1.2\lvgl\src\lv_objx/lv_calendar.c **** }
 391:..\..\..\lvgl\version_6.1.2\lvgl\src\lv_objx/lv_calendar.c **** 
 392:..\..\..\lvgl\version_6.1.2\lvgl\src\lv_objx/lv_calendar.c **** /**
 393:..\..\..\lvgl\version_6.1.2\lvgl\src\lv_objx/lv_calendar.c ****  * Get the name of the month
 394:..\..\..\lvgl\version_6.1.2\lvgl\src\lv_objx/lv_calendar.c ****  * @param calendar pointer to a calendar object
 395:..\..\..\lvgl\version_6.1.2\lvgl\src\lv_objx/lv_calendar.c ****  * @return pointer to the array of month names
 396:..\..\..\lvgl\version_6.1.2\lvgl\src\lv_objx/lv_calendar.c ****  */
 397:..\..\..\lvgl\version_6.1.2\lvgl\src\lv_objx/lv_calendar.c **** const char ** lv_calendar_get_month_names(const lv_obj_t * calendar)
 398:..\..\..\lvgl\version_6.1.2\lvgl\src\lv_objx/lv_calendar.c **** {
 399:..\..\..\lvgl\version_6.1.2\lvgl\src\lv_objx/lv_calendar.c ****     LV_ASSERT_OBJ(calendar, LV_OBJX_NAME);
 400:..\..\..\lvgl\version_6.1.2\lvgl\src\lv_objx/lv_calendar.c **** 
 401:..\..\..\lvgl\version_6.1.2\lvgl\src\lv_objx/lv_calendar.c ****     lv_calendar_ext_t * ext = lv_obj_get_ext_attr(calendar);
 402:..\..\..\lvgl\version_6.1.2\lvgl\src\lv_objx/lv_calendar.c ****     return ext->month_names;
 403:..\..\..\lvgl\version_6.1.2\lvgl\src\lv_objx/lv_calendar.c **** }
 404:..\..\..\lvgl\version_6.1.2\lvgl\src\lv_objx/lv_calendar.c **** 
 405:..\..\..\lvgl\version_6.1.2\lvgl\src\lv_objx/lv_calendar.c **** /**
 406:..\..\..\lvgl\version_6.1.2\lvgl\src\lv_objx/lv_calendar.c ****  * Get style of a calendar.
 407:..\..\..\lvgl\version_6.1.2\lvgl\src\lv_objx/lv_calendar.c ****  * @param calendar pointer to calendar object
 408:..\..\..\lvgl\version_6.1.2\lvgl\src\lv_objx/lv_calendar.c ****  * @param type which style should be get
 409:..\..\..\lvgl\version_6.1.2\lvgl\src\lv_objx/lv_calendar.c ****  * @return style pointer to the style
 410:..\..\..\lvgl\version_6.1.2\lvgl\src\lv_objx/lv_calendar.c ****  *  */
 411:..\..\..\lvgl\version_6.1.2\lvgl\src\lv_objx/lv_calendar.c **** const lv_style_t * lv_calendar_get_style(const lv_obj_t * calendar, lv_calendar_style_t type)
 412:..\..\..\lvgl\version_6.1.2\lvgl\src\lv_objx/lv_calendar.c **** {
 413:..\..\..\lvgl\version_6.1.2\lvgl\src\lv_objx/lv_calendar.c ****     LV_ASSERT_OBJ(calendar, LV_OBJX_NAME);
 414:..\..\..\lvgl\version_6.1.2\lvgl\src\lv_objx/lv_calendar.c **** 
 415:..\..\..\lvgl\version_6.1.2\lvgl\src\lv_objx/lv_calendar.c ****     const lv_style_t * style = NULL;
 416:..\..\..\lvgl\version_6.1.2\lvgl\src\lv_objx/lv_calendar.c ****     lv_calendar_ext_t * ext  = lv_obj_get_ext_attr(calendar);
 417:..\..\..\lvgl\version_6.1.2\lvgl\src\lv_objx/lv_calendar.c **** 
 418:..\..\..\lvgl\version_6.1.2\lvgl\src\lv_objx/lv_calendar.c ****     switch(type) {
 419:..\..\..\lvgl\version_6.1.2\lvgl\src\lv_objx/lv_calendar.c ****         case LV_CALENDAR_STYLE_BG: style = lv_obj_get_style(calendar); break;
 420:..\..\..\lvgl\version_6.1.2\lvgl\src\lv_objx/lv_calendar.c ****         case LV_CALENDAR_STYLE_HEADER: style = ext->style_header; break;
 421:..\..\..\lvgl\version_6.1.2\lvgl\src\lv_objx/lv_calendar.c ****         case LV_CALENDAR_STYLE_HEADER_PR: style = ext->style_header_pr; break;
 422:..\..\..\lvgl\version_6.1.2\lvgl\src\lv_objx/lv_calendar.c ****         case LV_CALENDAR_STYLE_DAY_NAMES: style = ext->style_day_names; break;
 423:..\..\..\lvgl\version_6.1.2\lvgl\src\lv_objx/lv_calendar.c ****         case LV_CALENDAR_STYLE_HIGHLIGHTED_DAYS: style = ext->style_highlighted_days; break;
 424:..\..\..\lvgl\version_6.1.2\lvgl\src\lv_objx/lv_calendar.c ****         case LV_CALENDAR_STYLE_INACTIVE_DAYS: style = ext->style_inactive_days; break;
 425:..\..\..\lvgl\version_6.1.2\lvgl\src\lv_objx/lv_calendar.c ****         case LV_CALENDAR_STYLE_WEEK_BOX: style = ext->style_week_box; break;
 426:..\..\..\lvgl\version_6.1.2\lvgl\src\lv_objx/lv_calendar.c ****         case LV_CALENDAR_STYLE_TODAY_BOX: style = ext->style_today_box; break;
 427:..\..\..\lvgl\version_6.1.2\lvgl\src\lv_objx/lv_calendar.c ****         default: style = NULL; break;
 428:..\..\..\lvgl\version_6.1.2\lvgl\src\lv_objx/lv_calendar.c ****     }
 429:..\..\..\lvgl\version_6.1.2\lvgl\src\lv_objx/lv_calendar.c **** 
ARM GAS  C:\Users\pearlstl\AppData\Local\Temp\ccHPSyCj.s 			page 9


 430:..\..\..\lvgl\version_6.1.2\lvgl\src\lv_objx/lv_calendar.c ****     return style;
 431:..\..\..\lvgl\version_6.1.2\lvgl\src\lv_objx/lv_calendar.c **** }
 432:..\..\..\lvgl\version_6.1.2\lvgl\src\lv_objx/lv_calendar.c **** 
 433:..\..\..\lvgl\version_6.1.2\lvgl\src\lv_objx/lv_calendar.c **** /*=====================
 434:..\..\..\lvgl\version_6.1.2\lvgl\src\lv_objx/lv_calendar.c ****  * Other functions
 435:..\..\..\lvgl\version_6.1.2\lvgl\src\lv_objx/lv_calendar.c ****  *====================*/
 436:..\..\..\lvgl\version_6.1.2\lvgl\src\lv_objx/lv_calendar.c **** 
 437:..\..\..\lvgl\version_6.1.2\lvgl\src\lv_objx/lv_calendar.c **** /*
 438:..\..\..\lvgl\version_6.1.2\lvgl\src\lv_objx/lv_calendar.c ****  * New object specific "other" functions come here
 439:..\..\..\lvgl\version_6.1.2\lvgl\src\lv_objx/lv_calendar.c ****  */
 440:..\..\..\lvgl\version_6.1.2\lvgl\src\lv_objx/lv_calendar.c **** 
 441:..\..\..\lvgl\version_6.1.2\lvgl\src\lv_objx/lv_calendar.c **** /**********************
 442:..\..\..\lvgl\version_6.1.2\lvgl\src\lv_objx/lv_calendar.c ****  *   STATIC FUNCTIONS
 443:..\..\..\lvgl\version_6.1.2\lvgl\src\lv_objx/lv_calendar.c ****  **********************/
 444:..\..\..\lvgl\version_6.1.2\lvgl\src\lv_objx/lv_calendar.c **** 
 445:..\..\..\lvgl\version_6.1.2\lvgl\src\lv_objx/lv_calendar.c **** /**
 446:..\..\..\lvgl\version_6.1.2\lvgl\src\lv_objx/lv_calendar.c ****  * Handle the drawing related tasks of the calendars
 447:..\..\..\lvgl\version_6.1.2\lvgl\src\lv_objx/lv_calendar.c ****  * @param calendar pointer to an object
 448:..\..\..\lvgl\version_6.1.2\lvgl\src\lv_objx/lv_calendar.c ****  * @param mask the object will be drawn only in this area
 449:..\..\..\lvgl\version_6.1.2\lvgl\src\lv_objx/lv_calendar.c ****  * @param mode LV_DESIGN_COVER_CHK: only check if the object fully covers the 'mask_p' area
 450:..\..\..\lvgl\version_6.1.2\lvgl\src\lv_objx/lv_calendar.c ****  *                                  (return 'true' if yes)
 451:..\..\..\lvgl\version_6.1.2\lvgl\src\lv_objx/lv_calendar.c ****  *             LV_DESIGN_DRAW: draw the object (always return 'true')
 452:..\..\..\lvgl\version_6.1.2\lvgl\src\lv_objx/lv_calendar.c ****  *             LV_DESIGN_DRAW_POST: drawing after every children are drawn
 453:..\..\..\lvgl\version_6.1.2\lvgl\src\lv_objx/lv_calendar.c ****  * @param return true/false, depends on 'mode'
 454:..\..\..\lvgl\version_6.1.2\lvgl\src\lv_objx/lv_calendar.c ****  */
 455:..\..\..\lvgl\version_6.1.2\lvgl\src\lv_objx/lv_calendar.c **** static bool lv_calendar_design(lv_obj_t * calendar, const lv_area_t * mask, lv_design_mode_t mode)
 456:..\..\..\lvgl\version_6.1.2\lvgl\src\lv_objx/lv_calendar.c **** {
  28              		.loc 1 456 0
  29              		.cfi_startproc
  30              		@ args = 0, pretend = 0, frame = 144
  31              		@ frame_needed = 0, uses_anonymous_args = 0
  32              	.LVL0:
  33 0000 2DE9F04F 		push	{r4, r5, r6, r7, r8, r9, r10, fp, lr}
  34              		.cfi_def_cfa_offset 36
  35              		.cfi_offset 4, -36
  36              		.cfi_offset 5, -32
  37              		.cfi_offset 6, -28
  38              		.cfi_offset 7, -24
  39              		.cfi_offset 8, -20
  40              		.cfi_offset 9, -16
  41              		.cfi_offset 10, -12
  42              		.cfi_offset 11, -8
  43              		.cfi_offset 14, -4
  44 0004 ABB0     		sub	sp, sp, #172
  45              		.cfi_def_cfa_offset 208
 457:..\..\..\lvgl\version_6.1.2\lvgl\src\lv_objx/lv_calendar.c ****     /*Return false if the object is not covers the mask_p area*/
 458:..\..\..\lvgl\version_6.1.2\lvgl\src\lv_objx/lv_calendar.c ****     if(mode == LV_DESIGN_COVER_CHK) {
  46              		.loc 1 458 0
  47 0006 022A     		cmp	r2, #2
 456:..\..\..\lvgl\version_6.1.2\lvgl\src\lv_objx/lv_calendar.c ****     /*Return false if the object is not covers the mask_p area*/
  48              		.loc 1 456 0
  49 0008 0690     		str	r0, [sp, #24]
  50 000a 0791     		str	r1, [sp, #28]
  51              		.loc 1 458 0
  52 000c 00F02184 		beq	.L111
  53 0010 1446     		mov	r4, r2
 459:..\..\..\lvgl\version_6.1.2\lvgl\src\lv_objx/lv_calendar.c ****         return ancestor_design(calendar, mask, mode);
ARM GAS  C:\Users\pearlstl\AppData\Local\Temp\ccHPSyCj.s 			page 10


 460:..\..\..\lvgl\version_6.1.2\lvgl\src\lv_objx/lv_calendar.c ****     }
 461:..\..\..\lvgl\version_6.1.2\lvgl\src\lv_objx/lv_calendar.c ****     /*Draw the object*/
 462:..\..\..\lvgl\version_6.1.2\lvgl\src\lv_objx/lv_calendar.c ****     else if(mode == LV_DESIGN_DRAW_MAIN) {
  54              		.loc 1 462 0
  55 0012 1AB1     		cbz	r2, .L112
  56              	.LVL1:
  57              	.L61:
 463:..\..\..\lvgl\version_6.1.2\lvgl\src\lv_objx/lv_calendar.c ****         lv_opa_t opa_scale = lv_obj_get_opa_scale(calendar);
 464:..\..\..\lvgl\version_6.1.2\lvgl\src\lv_objx/lv_calendar.c ****         lv_draw_rect(&calendar->coords, mask, lv_calendar_get_style(calendar, LV_CALENDAR_STYLE_BG)
 465:..\..\..\lvgl\version_6.1.2\lvgl\src\lv_objx/lv_calendar.c **** 
 466:..\..\..\lvgl\version_6.1.2\lvgl\src\lv_objx/lv_calendar.c ****         draw_header(calendar, mask);
 467:..\..\..\lvgl\version_6.1.2\lvgl\src\lv_objx/lv_calendar.c ****         draw_day_names(calendar, mask);
 468:..\..\..\lvgl\version_6.1.2\lvgl\src\lv_objx/lv_calendar.c ****         draw_days(calendar, mask);
 469:..\..\..\lvgl\version_6.1.2\lvgl\src\lv_objx/lv_calendar.c **** 
 470:..\..\..\lvgl\version_6.1.2\lvgl\src\lv_objx/lv_calendar.c ****     }
 471:..\..\..\lvgl\version_6.1.2\lvgl\src\lv_objx/lv_calendar.c ****     /*Post draw when the children are drawn*/
 472:..\..\..\lvgl\version_6.1.2\lvgl\src\lv_objx/lv_calendar.c ****     else if(mode == LV_DESIGN_DRAW_POST) {
 473:..\..\..\lvgl\version_6.1.2\lvgl\src\lv_objx/lv_calendar.c ****     }
 474:..\..\..\lvgl\version_6.1.2\lvgl\src\lv_objx/lv_calendar.c **** 
 475:..\..\..\lvgl\version_6.1.2\lvgl\src\lv_objx/lv_calendar.c ****     return true;
  58              		.loc 1 475 0
  59 0014 0120     		movs	r0, #1
 476:..\..\..\lvgl\version_6.1.2\lvgl\src\lv_objx/lv_calendar.c **** }
  60              		.loc 1 476 0
  61 0016 2BB0     		add	sp, sp, #172
  62              		.cfi_remember_state
  63              		.cfi_def_cfa_offset 36
  64              		@ sp needed
  65 0018 BDE8F08F 		pop	{r4, r5, r6, r7, r8, r9, r10, fp, pc}
  66              	.LVL2:
  67              	.L112:
  68              		.cfi_restore_state
  69              	.LBB155:
 463:..\..\..\lvgl\version_6.1.2\lvgl\src\lv_objx/lv_calendar.c ****         lv_opa_t opa_scale = lv_obj_get_opa_scale(calendar);
  70              		.loc 1 463 0
  71 001c FFF7FEFF 		bl	lv_obj_get_opa_scale
  72              	.LVL3:
  73              	.LBB156:
  74              	.LBB157:
 416:..\..\..\lvgl\version_6.1.2\lvgl\src\lv_objx/lv_calendar.c **** 
  75              		.loc 1 416 0
  76 0020 069E     		ldr	r6, [sp, #24]
  77              	.LBE157:
  78              	.LBE156:
 463:..\..\..\lvgl\version_6.1.2\lvgl\src\lv_objx/lv_calendar.c ****         lv_opa_t opa_scale = lv_obj_get_opa_scale(calendar);
  79              		.loc 1 463 0
  80 0022 0546     		mov	r5, r0
  81              	.LVL4:
  82              	.LBB159:
  83              	.LBB158:
 416:..\..\..\lvgl\version_6.1.2\lvgl\src\lv_objx/lv_calendar.c **** 
  84              		.loc 1 416 0
  85 0024 3046     		mov	r0, r6
  86 0026 FFF7FEFF 		bl	lv_obj_get_ext_attr
  87              	.LVL5:
 419:..\..\..\lvgl\version_6.1.2\lvgl\src\lv_objx/lv_calendar.c ****         case LV_CALENDAR_STYLE_HEADER: style = ext->style_header; break;
  88              		.loc 1 419 0
ARM GAS  C:\Users\pearlstl\AppData\Local\Temp\ccHPSyCj.s 			page 11


  89 002a 3046     		mov	r0, r6
  90 002c FFF7FEFF 		bl	lv_obj_get_style
  91              	.LVL6:
  92              	.LBE158:
  93              	.LBE159:
 464:..\..\..\lvgl\version_6.1.2\lvgl\src\lv_objx/lv_calendar.c **** 
  94              		.loc 1 464 0
  95 0030 DDF81CA0 		ldr	r10, [sp, #28]
  96 0034 2B46     		mov	r3, r5
  97 0036 0246     		mov	r2, r0
  98 0038 5146     		mov	r1, r10
  99 003a 06F11000 		add	r0, r6, #16
 100 003e FFF7FEFF 		bl	lv_draw_rect
 101              	.LVL7:
 102              	.LBB160:
 103              	.LBB161:
 477:..\..\..\lvgl\version_6.1.2\lvgl\src\lv_objx/lv_calendar.c **** 
 478:..\..\..\lvgl\version_6.1.2\lvgl\src\lv_objx/lv_calendar.c **** /**
 479:..\..\..\lvgl\version_6.1.2\lvgl\src\lv_objx/lv_calendar.c ****  * Signal function of the calendar
 480:..\..\..\lvgl\version_6.1.2\lvgl\src\lv_objx/lv_calendar.c ****  * @param calendar pointer to a calendar object
 481:..\..\..\lvgl\version_6.1.2\lvgl\src\lv_objx/lv_calendar.c ****  * @param sign a signal type from lv_signal_t enum
 482:..\..\..\lvgl\version_6.1.2\lvgl\src\lv_objx/lv_calendar.c ****  * @param param pointer to a signal specific variable
 483:..\..\..\lvgl\version_6.1.2\lvgl\src\lv_objx/lv_calendar.c ****  * @return LV_RES_OK: the object is not deleted in the function; LV_RES_INV: the object is deleted
 484:..\..\..\lvgl\version_6.1.2\lvgl\src\lv_objx/lv_calendar.c ****  */
 485:..\..\..\lvgl\version_6.1.2\lvgl\src\lv_objx/lv_calendar.c **** static lv_res_t lv_calendar_signal(lv_obj_t * calendar, lv_signal_t sign, void * param)
 486:..\..\..\lvgl\version_6.1.2\lvgl\src\lv_objx/lv_calendar.c **** {
 487:..\..\..\lvgl\version_6.1.2\lvgl\src\lv_objx/lv_calendar.c ****     lv_res_t res;
 488:..\..\..\lvgl\version_6.1.2\lvgl\src\lv_objx/lv_calendar.c **** 
 489:..\..\..\lvgl\version_6.1.2\lvgl\src\lv_objx/lv_calendar.c ****     /* Include the ancient signal function */
 490:..\..\..\lvgl\version_6.1.2\lvgl\src\lv_objx/lv_calendar.c ****     res = ancestor_signal(calendar, sign, param);
 491:..\..\..\lvgl\version_6.1.2\lvgl\src\lv_objx/lv_calendar.c ****     if(res != LV_RES_OK) return res;
 492:..\..\..\lvgl\version_6.1.2\lvgl\src\lv_objx/lv_calendar.c ****     if(sign == LV_SIGNAL_GET_TYPE) return lv_obj_handle_get_type_signal(param, LV_OBJX_NAME);
 493:..\..\..\lvgl\version_6.1.2\lvgl\src\lv_objx/lv_calendar.c **** 
 494:..\..\..\lvgl\version_6.1.2\lvgl\src\lv_objx/lv_calendar.c ****     if(sign == LV_SIGNAL_CLEANUP) {
 495:..\..\..\lvgl\version_6.1.2\lvgl\src\lv_objx/lv_calendar.c ****         /*Nothing to cleanup. (No dynamically allocated memory in 'ext')*/
 496:..\..\..\lvgl\version_6.1.2\lvgl\src\lv_objx/lv_calendar.c ****     } else if(sign == LV_SIGNAL_PRESSING) {
 497:..\..\..\lvgl\version_6.1.2\lvgl\src\lv_objx/lv_calendar.c ****         lv_calendar_ext_t * ext = lv_obj_get_ext_attr(calendar);
 498:..\..\..\lvgl\version_6.1.2\lvgl\src\lv_objx/lv_calendar.c ****         lv_area_t header_area;
 499:..\..\..\lvgl\version_6.1.2\lvgl\src\lv_objx/lv_calendar.c ****         lv_area_copy(&header_area, &calendar->coords);
 500:..\..\..\lvgl\version_6.1.2\lvgl\src\lv_objx/lv_calendar.c ****         header_area.y2 = header_area.y1 + get_header_height(calendar);
 501:..\..\..\lvgl\version_6.1.2\lvgl\src\lv_objx/lv_calendar.c **** 
 502:..\..\..\lvgl\version_6.1.2\lvgl\src\lv_objx/lv_calendar.c ****         lv_indev_t * indev = lv_indev_get_act();
 503:..\..\..\lvgl\version_6.1.2\lvgl\src\lv_objx/lv_calendar.c ****         lv_point_t p;
 504:..\..\..\lvgl\version_6.1.2\lvgl\src\lv_objx/lv_calendar.c ****         lv_indev_get_point(indev, &p);
 505:..\..\..\lvgl\version_6.1.2\lvgl\src\lv_objx/lv_calendar.c **** 
 506:..\..\..\lvgl\version_6.1.2\lvgl\src\lv_objx/lv_calendar.c ****         /*If the header is pressed mark an arrow as pressed*/
 507:..\..\..\lvgl\version_6.1.2\lvgl\src\lv_objx/lv_calendar.c ****         if(lv_area_is_point_on(&header_area, &p)) {
 508:..\..\..\lvgl\version_6.1.2\lvgl\src\lv_objx/lv_calendar.c ****             if(p.x < header_area.x1 + lv_area_get_width(&header_area) / 2) {
 509:..\..\..\lvgl\version_6.1.2\lvgl\src\lv_objx/lv_calendar.c ****                 if(ext->btn_pressing != -1) lv_obj_invalidate(calendar);
 510:..\..\..\lvgl\version_6.1.2\lvgl\src\lv_objx/lv_calendar.c ****                 ext->btn_pressing = -1;
 511:..\..\..\lvgl\version_6.1.2\lvgl\src\lv_objx/lv_calendar.c ****             } else {
 512:..\..\..\lvgl\version_6.1.2\lvgl\src\lv_objx/lv_calendar.c ****                 if(ext->btn_pressing != 1) lv_obj_invalidate(calendar);
 513:..\..\..\lvgl\version_6.1.2\lvgl\src\lv_objx/lv_calendar.c ****                 ext->btn_pressing = 1;
 514:..\..\..\lvgl\version_6.1.2\lvgl\src\lv_objx/lv_calendar.c ****             }
 515:..\..\..\lvgl\version_6.1.2\lvgl\src\lv_objx/lv_calendar.c **** 
 516:..\..\..\lvgl\version_6.1.2\lvgl\src\lv_objx/lv_calendar.c ****             ext->pressed_date.year  = 0;
 517:..\..\..\lvgl\version_6.1.2\lvgl\src\lv_objx/lv_calendar.c ****             ext->pressed_date.month = 0;
ARM GAS  C:\Users\pearlstl\AppData\Local\Temp\ccHPSyCj.s 			page 12


 518:..\..\..\lvgl\version_6.1.2\lvgl\src\lv_objx/lv_calendar.c ****             ext->pressed_date.day   = 0;
 519:..\..\..\lvgl\version_6.1.2\lvgl\src\lv_objx/lv_calendar.c ****         }
 520:..\..\..\lvgl\version_6.1.2\lvgl\src\lv_objx/lv_calendar.c ****         /*If a day is pressed save it*/
 521:..\..\..\lvgl\version_6.1.2\lvgl\src\lv_objx/lv_calendar.c ****         else if(calculate_touched_day(calendar, &p)) {
 522:..\..\..\lvgl\version_6.1.2\lvgl\src\lv_objx/lv_calendar.c ****             if(ext->btn_pressing != 0) lv_obj_invalidate(calendar);
 523:..\..\..\lvgl\version_6.1.2\lvgl\src\lv_objx/lv_calendar.c ****             ext->btn_pressing = 0;
 524:..\..\..\lvgl\version_6.1.2\lvgl\src\lv_objx/lv_calendar.c ****         }
 525:..\..\..\lvgl\version_6.1.2\lvgl\src\lv_objx/lv_calendar.c ****         /*ELse set a deafault state*/
 526:..\..\..\lvgl\version_6.1.2\lvgl\src\lv_objx/lv_calendar.c ****         else {
 527:..\..\..\lvgl\version_6.1.2\lvgl\src\lv_objx/lv_calendar.c ****             if(ext->btn_pressing != 0) lv_obj_invalidate(calendar);
 528:..\..\..\lvgl\version_6.1.2\lvgl\src\lv_objx/lv_calendar.c ****             ext->btn_pressing       = 0;
 529:..\..\..\lvgl\version_6.1.2\lvgl\src\lv_objx/lv_calendar.c ****             ext->pressed_date.year  = 0;
 530:..\..\..\lvgl\version_6.1.2\lvgl\src\lv_objx/lv_calendar.c ****             ext->pressed_date.month = 0;
 531:..\..\..\lvgl\version_6.1.2\lvgl\src\lv_objx/lv_calendar.c ****             ext->pressed_date.day   = 0;
 532:..\..\..\lvgl\version_6.1.2\lvgl\src\lv_objx/lv_calendar.c ****         }
 533:..\..\..\lvgl\version_6.1.2\lvgl\src\lv_objx/lv_calendar.c ****     } else if(sign == LV_SIGNAL_PRESS_LOST) {
 534:..\..\..\lvgl\version_6.1.2\lvgl\src\lv_objx/lv_calendar.c ****         lv_calendar_ext_t * ext = lv_obj_get_ext_attr(calendar);
 535:..\..\..\lvgl\version_6.1.2\lvgl\src\lv_objx/lv_calendar.c ****         ext->btn_pressing       = 0;
 536:..\..\..\lvgl\version_6.1.2\lvgl\src\lv_objx/lv_calendar.c ****         lv_obj_invalidate(calendar);
 537:..\..\..\lvgl\version_6.1.2\lvgl\src\lv_objx/lv_calendar.c **** 
 538:..\..\..\lvgl\version_6.1.2\lvgl\src\lv_objx/lv_calendar.c ****     } else if(sign == LV_SIGNAL_RELEASED) {
 539:..\..\..\lvgl\version_6.1.2\lvgl\src\lv_objx/lv_calendar.c ****         lv_calendar_ext_t * ext = lv_obj_get_ext_attr(calendar);
 540:..\..\..\lvgl\version_6.1.2\lvgl\src\lv_objx/lv_calendar.c ****         if(ext->btn_pressing < 0) {
 541:..\..\..\lvgl\version_6.1.2\lvgl\src\lv_objx/lv_calendar.c ****             if(ext->showed_date.month <= 1) {
 542:..\..\..\lvgl\version_6.1.2\lvgl\src\lv_objx/lv_calendar.c ****                 ext->showed_date.month = 12;
 543:..\..\..\lvgl\version_6.1.2\lvgl\src\lv_objx/lv_calendar.c ****                 ext->showed_date.year--;
 544:..\..\..\lvgl\version_6.1.2\lvgl\src\lv_objx/lv_calendar.c ****             } else {
 545:..\..\..\lvgl\version_6.1.2\lvgl\src\lv_objx/lv_calendar.c ****                 ext->showed_date.month--;
 546:..\..\..\lvgl\version_6.1.2\lvgl\src\lv_objx/lv_calendar.c ****             }
 547:..\..\..\lvgl\version_6.1.2\lvgl\src\lv_objx/lv_calendar.c ****         } else if(ext->btn_pressing > 0) {
 548:..\..\..\lvgl\version_6.1.2\lvgl\src\lv_objx/lv_calendar.c ****             if(ext->showed_date.month >= 12) {
 549:..\..\..\lvgl\version_6.1.2\lvgl\src\lv_objx/lv_calendar.c ****                 ext->showed_date.month = 1;
 550:..\..\..\lvgl\version_6.1.2\lvgl\src\lv_objx/lv_calendar.c ****                 ext->showed_date.year++;
 551:..\..\..\lvgl\version_6.1.2\lvgl\src\lv_objx/lv_calendar.c ****             } else {
 552:..\..\..\lvgl\version_6.1.2\lvgl\src\lv_objx/lv_calendar.c ****                 ext->showed_date.month++;
 553:..\..\..\lvgl\version_6.1.2\lvgl\src\lv_objx/lv_calendar.c ****             }
 554:..\..\..\lvgl\version_6.1.2\lvgl\src\lv_objx/lv_calendar.c ****         } else if(ext->pressed_date.year != 0) {
 555:..\..\..\lvgl\version_6.1.2\lvgl\src\lv_objx/lv_calendar.c ****             res = lv_event_send(calendar, LV_EVENT_VALUE_CHANGED, NULL);
 556:..\..\..\lvgl\version_6.1.2\lvgl\src\lv_objx/lv_calendar.c ****             if(res != LV_RES_OK) return res;
 557:..\..\..\lvgl\version_6.1.2\lvgl\src\lv_objx/lv_calendar.c ****         }
 558:..\..\..\lvgl\version_6.1.2\lvgl\src\lv_objx/lv_calendar.c **** 
 559:..\..\..\lvgl\version_6.1.2\lvgl\src\lv_objx/lv_calendar.c ****         ext->btn_pressing = 0;
 560:..\..\..\lvgl\version_6.1.2\lvgl\src\lv_objx/lv_calendar.c ****         lv_obj_invalidate(calendar);
 561:..\..\..\lvgl\version_6.1.2\lvgl\src\lv_objx/lv_calendar.c ****     } else if(sign == LV_SIGNAL_CONTROL) {
 562:..\..\..\lvgl\version_6.1.2\lvgl\src\lv_objx/lv_calendar.c ****         uint8_t c               = *((uint8_t *)param);
 563:..\..\..\lvgl\version_6.1.2\lvgl\src\lv_objx/lv_calendar.c ****         lv_calendar_ext_t * ext = lv_obj_get_ext_attr(calendar);
 564:..\..\..\lvgl\version_6.1.2\lvgl\src\lv_objx/lv_calendar.c ****         if(c == LV_KEY_RIGHT || c == LV_KEY_UP) {
 565:..\..\..\lvgl\version_6.1.2\lvgl\src\lv_objx/lv_calendar.c ****             if(ext->showed_date.month >= 12) {
 566:..\..\..\lvgl\version_6.1.2\lvgl\src\lv_objx/lv_calendar.c ****                 ext->showed_date.month = 1;
 567:..\..\..\lvgl\version_6.1.2\lvgl\src\lv_objx/lv_calendar.c ****                 ext->showed_date.year++;
 568:..\..\..\lvgl\version_6.1.2\lvgl\src\lv_objx/lv_calendar.c ****             } else {
 569:..\..\..\lvgl\version_6.1.2\lvgl\src\lv_objx/lv_calendar.c ****                 ext->showed_date.month++;
 570:..\..\..\lvgl\version_6.1.2\lvgl\src\lv_objx/lv_calendar.c ****             }
 571:..\..\..\lvgl\version_6.1.2\lvgl\src\lv_objx/lv_calendar.c ****             lv_obj_invalidate(calendar);
 572:..\..\..\lvgl\version_6.1.2\lvgl\src\lv_objx/lv_calendar.c ****         } else if(c == LV_KEY_LEFT || c == LV_KEY_DOWN) {
 573:..\..\..\lvgl\version_6.1.2\lvgl\src\lv_objx/lv_calendar.c ****             if(ext->showed_date.month <= 1) {
 574:..\..\..\lvgl\version_6.1.2\lvgl\src\lv_objx/lv_calendar.c ****                 ext->showed_date.month = 12;
ARM GAS  C:\Users\pearlstl\AppData\Local\Temp\ccHPSyCj.s 			page 13


 575:..\..\..\lvgl\version_6.1.2\lvgl\src\lv_objx/lv_calendar.c ****                 ext->showed_date.year--;
 576:..\..\..\lvgl\version_6.1.2\lvgl\src\lv_objx/lv_calendar.c ****             } else {
 577:..\..\..\lvgl\version_6.1.2\lvgl\src\lv_objx/lv_calendar.c ****                 ext->showed_date.month--;
 578:..\..\..\lvgl\version_6.1.2\lvgl\src\lv_objx/lv_calendar.c ****             }
 579:..\..\..\lvgl\version_6.1.2\lvgl\src\lv_objx/lv_calendar.c ****             lv_obj_invalidate(calendar);
 580:..\..\..\lvgl\version_6.1.2\lvgl\src\lv_objx/lv_calendar.c ****         }
 581:..\..\..\lvgl\version_6.1.2\lvgl\src\lv_objx/lv_calendar.c ****     }
 582:..\..\..\lvgl\version_6.1.2\lvgl\src\lv_objx/lv_calendar.c **** 
 583:..\..\..\lvgl\version_6.1.2\lvgl\src\lv_objx/lv_calendar.c ****     return res;
 584:..\..\..\lvgl\version_6.1.2\lvgl\src\lv_objx/lv_calendar.c **** }
 585:..\..\..\lvgl\version_6.1.2\lvgl\src\lv_objx/lv_calendar.c **** 
 586:..\..\..\lvgl\version_6.1.2\lvgl\src\lv_objx/lv_calendar.c **** /**
 587:..\..\..\lvgl\version_6.1.2\lvgl\src\lv_objx/lv_calendar.c ****  * It will check if the days part of calendar is touched
 588:..\..\..\lvgl\version_6.1.2\lvgl\src\lv_objx/lv_calendar.c ****  * and if it is, it will calculate the day and put it in pressed_date of calendar object.
 589:..\..\..\lvgl\version_6.1.2\lvgl\src\lv_objx/lv_calendar.c ****  * @param calendar pointer to a calendar object
 590:..\..\..\lvgl\version_6.1.2\lvgl\src\lv_objx/lv_calendar.c ****  * @param pointer to a point
 591:..\..\..\lvgl\version_6.1.2\lvgl\src\lv_objx/lv_calendar.c ****  * @return true: days part of calendar is touched and its related date is put in pressed date
 592:..\..\..\lvgl\version_6.1.2\lvgl\src\lv_objx/lv_calendar.c ****  * false: the point is out of days part area.
 593:..\..\..\lvgl\version_6.1.2\lvgl\src\lv_objx/lv_calendar.c ****  */
 594:..\..\..\lvgl\version_6.1.2\lvgl\src\lv_objx/lv_calendar.c **** static bool calculate_touched_day(lv_obj_t * calendar, const lv_point_t * touched_point)
 595:..\..\..\lvgl\version_6.1.2\lvgl\src\lv_objx/lv_calendar.c **** {
 596:..\..\..\lvgl\version_6.1.2\lvgl\src\lv_objx/lv_calendar.c ****     lv_area_t days_area;
 597:..\..\..\lvgl\version_6.1.2\lvgl\src\lv_objx/lv_calendar.c ****     lv_area_copy(&days_area, &calendar->coords);
 598:..\..\..\lvgl\version_6.1.2\lvgl\src\lv_objx/lv_calendar.c ****     const lv_style_t * style_bg = lv_calendar_get_style(calendar, LV_CALENDAR_STYLE_BG);
 599:..\..\..\lvgl\version_6.1.2\lvgl\src\lv_objx/lv_calendar.c ****     days_area.x1 += style_bg->body.padding.left;
 600:..\..\..\lvgl\version_6.1.2\lvgl\src\lv_objx/lv_calendar.c ****     days_area.x2 -= style_bg->body.padding.right;
 601:..\..\..\lvgl\version_6.1.2\lvgl\src\lv_objx/lv_calendar.c ****     days_area.y1 =
 602:..\..\..\lvgl\version_6.1.2\lvgl\src\lv_objx/lv_calendar.c ****         calendar->coords.y1 + get_header_height(calendar) + get_day_names_height(calendar) - style_
 603:..\..\..\lvgl\version_6.1.2\lvgl\src\lv_objx/lv_calendar.c **** 
 604:..\..\..\lvgl\version_6.1.2\lvgl\src\lv_objx/lv_calendar.c ****     if(lv_area_is_point_on(&days_area, touched_point)) {
 605:..\..\..\lvgl\version_6.1.2\lvgl\src\lv_objx/lv_calendar.c ****         lv_coord_t w  = (days_area.x2 - days_area.x1 + 1) / 7;
 606:..\..\..\lvgl\version_6.1.2\lvgl\src\lv_objx/lv_calendar.c ****         lv_coord_t h  = (days_area.y2 - days_area.y1 + 1) / 6;
 607:..\..\..\lvgl\version_6.1.2\lvgl\src\lv_objx/lv_calendar.c ****         uint8_t x_pos = 0;
 608:..\..\..\lvgl\version_6.1.2\lvgl\src\lv_objx/lv_calendar.c ****         x_pos         = (touched_point->x - days_area.x1) / w;
 609:..\..\..\lvgl\version_6.1.2\lvgl\src\lv_objx/lv_calendar.c ****         if(x_pos > 6) x_pos = 6;
 610:..\..\..\lvgl\version_6.1.2\lvgl\src\lv_objx/lv_calendar.c ****         uint8_t y_pos = 0;
 611:..\..\..\lvgl\version_6.1.2\lvgl\src\lv_objx/lv_calendar.c ****         y_pos         = (touched_point->y - days_area.y1) / h;
 612:..\..\..\lvgl\version_6.1.2\lvgl\src\lv_objx/lv_calendar.c ****         if(y_pos > 5) y_pos = 5;
 613:..\..\..\lvgl\version_6.1.2\lvgl\src\lv_objx/lv_calendar.c **** 
 614:..\..\..\lvgl\version_6.1.2\lvgl\src\lv_objx/lv_calendar.c ****         uint8_t i_pos           = 0;
 615:..\..\..\lvgl\version_6.1.2\lvgl\src\lv_objx/lv_calendar.c ****         i_pos                   = (y_pos * 7) + x_pos;
 616:..\..\..\lvgl\version_6.1.2\lvgl\src\lv_objx/lv_calendar.c ****         lv_calendar_ext_t * ext = lv_obj_get_ext_attr(calendar);
 617:..\..\..\lvgl\version_6.1.2\lvgl\src\lv_objx/lv_calendar.c ****         if(i_pos < get_day_of_week(ext->showed_date.year, ext->showed_date.month, 1)) {
 618:..\..\..\lvgl\version_6.1.2\lvgl\src\lv_objx/lv_calendar.c ****             ext->pressed_date.year  = ext->showed_date.year - (ext->showed_date.month == 1 ? 1 : 0)
 619:..\..\..\lvgl\version_6.1.2\lvgl\src\lv_objx/lv_calendar.c ****             ext->pressed_date.month = ext->showed_date.month == 1 ? 12 : (ext->showed_date.month - 
 620:..\..\..\lvgl\version_6.1.2\lvgl\src\lv_objx/lv_calendar.c ****             ext->pressed_date.day   = get_month_length(ext->pressed_date.year, ext->pressed_date.mo
 621:..\..\..\lvgl\version_6.1.2\lvgl\src\lv_objx/lv_calendar.c ****                                     get_day_of_week(ext->showed_date.year, ext->showed_date.month, 
 622:..\..\..\lvgl\version_6.1.2\lvgl\src\lv_objx/lv_calendar.c ****         } else if(i_pos < (get_day_of_week(ext->showed_date.year, ext->showed_date.month, 1) +
 623:..\..\..\lvgl\version_6.1.2\lvgl\src\lv_objx/lv_calendar.c ****                            get_month_length(ext->showed_date.year, ext->showed_date.month))) {
 624:..\..\..\lvgl\version_6.1.2\lvgl\src\lv_objx/lv_calendar.c ****             ext->pressed_date.year  = ext->showed_date.year;
 625:..\..\..\lvgl\version_6.1.2\lvgl\src\lv_objx/lv_calendar.c ****             ext->pressed_date.month = ext->showed_date.month;
 626:..\..\..\lvgl\version_6.1.2\lvgl\src\lv_objx/lv_calendar.c ****             ext->pressed_date.day   = i_pos + 1 - get_day_of_week(ext->showed_date.year, ext->showe
 627:..\..\..\lvgl\version_6.1.2\lvgl\src\lv_objx/lv_calendar.c ****         } else if(i_pos < 42) {
 628:..\..\..\lvgl\version_6.1.2\lvgl\src\lv_objx/lv_calendar.c ****             ext->pressed_date.year  = ext->showed_date.year + (ext->showed_date.month == 12 ? 1 : 0
 629:..\..\..\lvgl\version_6.1.2\lvgl\src\lv_objx/lv_calendar.c ****             ext->pressed_date.month = ext->showed_date.month == 12 ? 1 : (ext->showed_date.month + 
 630:..\..\..\lvgl\version_6.1.2\lvgl\src\lv_objx/lv_calendar.c ****             ext->pressed_date.day   = i_pos + 1 - get_day_of_week(ext->showed_date.year, ext->showe
 631:..\..\..\lvgl\version_6.1.2\lvgl\src\lv_objx/lv_calendar.c ****                                     get_month_length(ext->showed_date.year, ext->showed_date.month)
ARM GAS  C:\Users\pearlstl\AppData\Local\Temp\ccHPSyCj.s 			page 14


 632:..\..\..\lvgl\version_6.1.2\lvgl\src\lv_objx/lv_calendar.c ****         }
 633:..\..\..\lvgl\version_6.1.2\lvgl\src\lv_objx/lv_calendar.c ****         return true;
 634:..\..\..\lvgl\version_6.1.2\lvgl\src\lv_objx/lv_calendar.c ****     } else {
 635:..\..\..\lvgl\version_6.1.2\lvgl\src\lv_objx/lv_calendar.c ****         return false;
 636:..\..\..\lvgl\version_6.1.2\lvgl\src\lv_objx/lv_calendar.c ****     }
 637:..\..\..\lvgl\version_6.1.2\lvgl\src\lv_objx/lv_calendar.c **** }
 638:..\..\..\lvgl\version_6.1.2\lvgl\src\lv_objx/lv_calendar.c **** 
 639:..\..\..\lvgl\version_6.1.2\lvgl\src\lv_objx/lv_calendar.c **** /**
 640:..\..\..\lvgl\version_6.1.2\lvgl\src\lv_objx/lv_calendar.c ****  * Get the height of a calendar's header based on it's style
 641:..\..\..\lvgl\version_6.1.2\lvgl\src\lv_objx/lv_calendar.c ****  * @param calendar point to a calendar
 642:..\..\..\lvgl\version_6.1.2\lvgl\src\lv_objx/lv_calendar.c ****  * @return the header's height
 643:..\..\..\lvgl\version_6.1.2\lvgl\src\lv_objx/lv_calendar.c ****  */
 644:..\..\..\lvgl\version_6.1.2\lvgl\src\lv_objx/lv_calendar.c **** static lv_coord_t get_header_height(lv_obj_t * calendar)
 645:..\..\..\lvgl\version_6.1.2\lvgl\src\lv_objx/lv_calendar.c **** {
 646:..\..\..\lvgl\version_6.1.2\lvgl\src\lv_objx/lv_calendar.c ****     lv_calendar_ext_t * ext = lv_obj_get_ext_attr(calendar);
 647:..\..\..\lvgl\version_6.1.2\lvgl\src\lv_objx/lv_calendar.c **** 
 648:..\..\..\lvgl\version_6.1.2\lvgl\src\lv_objx/lv_calendar.c ****     return lv_font_get_line_height(ext->style_header->text.font) + ext->style_header->body.padding.
 649:..\..\..\lvgl\version_6.1.2\lvgl\src\lv_objx/lv_calendar.c ****            ext->style_header->body.padding.bottom;
 650:..\..\..\lvgl\version_6.1.2\lvgl\src\lv_objx/lv_calendar.c **** }
 651:..\..\..\lvgl\version_6.1.2\lvgl\src\lv_objx/lv_calendar.c **** 
 652:..\..\..\lvgl\version_6.1.2\lvgl\src\lv_objx/lv_calendar.c **** /**
 653:..\..\..\lvgl\version_6.1.2\lvgl\src\lv_objx/lv_calendar.c ****  * Get the height of a calendar's day_names based on it's style
 654:..\..\..\lvgl\version_6.1.2\lvgl\src\lv_objx/lv_calendar.c ****  * @param calendar point to a calendar
 655:..\..\..\lvgl\version_6.1.2\lvgl\src\lv_objx/lv_calendar.c ****  * @return the day_names's height
 656:..\..\..\lvgl\version_6.1.2\lvgl\src\lv_objx/lv_calendar.c ****  */
 657:..\..\..\lvgl\version_6.1.2\lvgl\src\lv_objx/lv_calendar.c **** static lv_coord_t get_day_names_height(lv_obj_t * calendar)
 658:..\..\..\lvgl\version_6.1.2\lvgl\src\lv_objx/lv_calendar.c **** {
 659:..\..\..\lvgl\version_6.1.2\lvgl\src\lv_objx/lv_calendar.c ****     lv_calendar_ext_t * ext = lv_obj_get_ext_attr(calendar);
 660:..\..\..\lvgl\version_6.1.2\lvgl\src\lv_objx/lv_calendar.c **** 
 661:..\..\..\lvgl\version_6.1.2\lvgl\src\lv_objx/lv_calendar.c ****     return lv_font_get_line_height(ext->style_day_names->text.font) + ext->style_day_names->body.pa
 662:..\..\..\lvgl\version_6.1.2\lvgl\src\lv_objx/lv_calendar.c ****            ext->style_day_names->body.padding.bottom;
 663:..\..\..\lvgl\version_6.1.2\lvgl\src\lv_objx/lv_calendar.c **** }
 664:..\..\..\lvgl\version_6.1.2\lvgl\src\lv_objx/lv_calendar.c **** 
 665:..\..\..\lvgl\version_6.1.2\lvgl\src\lv_objx/lv_calendar.c **** /**
 666:..\..\..\lvgl\version_6.1.2\lvgl\src\lv_objx/lv_calendar.c ****  * Draw the calendar header with month name and arrows
 667:..\..\..\lvgl\version_6.1.2\lvgl\src\lv_objx/lv_calendar.c ****  * @param calendar point to a calendar
 668:..\..\..\lvgl\version_6.1.2\lvgl\src\lv_objx/lv_calendar.c ****  * @param mask a mask for drawing
 669:..\..\..\lvgl\version_6.1.2\lvgl\src\lv_objx/lv_calendar.c ****  */
 670:..\..\..\lvgl\version_6.1.2\lvgl\src\lv_objx/lv_calendar.c **** static void draw_header(lv_obj_t * calendar, const lv_area_t * mask)
 671:..\..\..\lvgl\version_6.1.2\lvgl\src\lv_objx/lv_calendar.c **** {
 672:..\..\..\lvgl\version_6.1.2\lvgl\src\lv_objx/lv_calendar.c ****     lv_calendar_ext_t * ext = lv_obj_get_ext_attr(calendar);
 104              		.loc 1 672 0
 105 0042 3046     		mov	r0, r6
 106 0044 FFF7FEFF 		bl	lv_obj_get_ext_attr
 107              	.LVL8:
 108 0048 0546     		mov	r5, r0
 109              	.LVL9:
 673:..\..\..\lvgl\version_6.1.2\lvgl\src\lv_objx/lv_calendar.c **** 
 674:..\..\..\lvgl\version_6.1.2\lvgl\src\lv_objx/lv_calendar.c ****     lv_bidi_dir_t bidi_dir = lv_obj_get_base_dir(calendar);
 110              		.loc 1 674 0
 111 004a 3046     		mov	r0, r6
 112              	.LVL10:
 113 004c FFF7FEFF 		bl	lv_obj_get_base_dir
 114              	.LVL11:
 115 0050 8046     		mov	r8, r0
 116              	.LVL12:
 675:..\..\..\lvgl\version_6.1.2\lvgl\src\lv_objx/lv_calendar.c **** 
ARM GAS  C:\Users\pearlstl\AppData\Local\Temp\ccHPSyCj.s 			page 15


 676:..\..\..\lvgl\version_6.1.2\lvgl\src\lv_objx/lv_calendar.c ****     lv_opa_t opa_scale      = lv_obj_get_opa_scale(calendar);
 117              		.loc 1 676 0
 118 0052 3046     		mov	r0, r6
 119 0054 FFF7FEFF 		bl	lv_obj_get_opa_scale
 120              	.LVL13:
 677:..\..\..\lvgl\version_6.1.2\lvgl\src\lv_objx/lv_calendar.c **** 
 678:..\..\..\lvgl\version_6.1.2\lvgl\src\lv_objx/lv_calendar.c ****     lv_area_t header_area;
 679:..\..\..\lvgl\version_6.1.2\lvgl\src\lv_objx/lv_calendar.c ****     header_area.x1 = calendar->coords.x1;
 121              		.loc 1 679 0
 122 0058 328A     		ldrh	r2, [r6, #16]
 680:..\..\..\lvgl\version_6.1.2\lvgl\src\lv_objx/lv_calendar.c ****     header_area.x2 = calendar->coords.x2;
 123              		.loc 1 680 0
 124 005a B38A     		ldrh	r3, [r6, #20]
 681:..\..\..\lvgl\version_6.1.2\lvgl\src\lv_objx/lv_calendar.c ****     header_area.y1 = calendar->coords.y1;
 125              		.loc 1 681 0
 126 005c B6F91290 		ldrsh	r9, [r6, #18]
 679:..\..\..\lvgl\version_6.1.2\lvgl\src\lv_objx/lv_calendar.c ****     header_area.x2 = calendar->coords.x2;
 127              		.loc 1 679 0
 128 0060 ADF86020 		strh	r2, [sp, #96]	@ movhi
 676:..\..\..\lvgl\version_6.1.2\lvgl\src\lv_objx/lv_calendar.c **** 
 129              		.loc 1 676 0
 130 0064 0746     		mov	r7, r0
 131              	.LVL14:
 680:..\..\..\lvgl\version_6.1.2\lvgl\src\lv_objx/lv_calendar.c ****     header_area.y1 = calendar->coords.y1;
 132              		.loc 1 680 0
 133 0066 3046     		mov	r0, r6
 134 0068 ADF86430 		strh	r3, [sp, #100]	@ movhi
 135              		.loc 1 681 0
 136 006c ADF86290 		strh	r9, [sp, #98]	@ movhi
 137              	.LVL15:
 138              	.LBB162:
 139              	.LBB163:
 646:..\..\..\lvgl\version_6.1.2\lvgl\src\lv_objx/lv_calendar.c **** 
 140              		.loc 1 646 0
 141 0070 FFF7FEFF 		bl	lv_obj_get_ext_attr
 142              	.LVL16:
 648:..\..\..\lvgl\version_6.1.2\lvgl\src\lv_objx/lv_calendar.c ****            ext->style_header->body.padding.bottom;
 143              		.loc 1 648 0
 144 0074 C069     		ldr	r0, [r0, #28]
 145              	.LVL17:
 146              	.LBE163:
 147              	.LBE162:
 682:..\..\..\lvgl\version_6.1.2\lvgl\src\lv_objx/lv_calendar.c ****     header_area.y2 = calendar->coords.y1 + get_header_height(calendar);
 683:..\..\..\lvgl\version_6.1.2\lvgl\src\lv_objx/lv_calendar.c **** 
 684:..\..\..\lvgl\version_6.1.2\lvgl\src\lv_objx/lv_calendar.c ****     lv_draw_rect(&header_area, mask, ext->style_header, opa_scale);
 148              		.loc 1 684 0
 149 0076 EA69     		ldr	r2, [r5, #28]
 682:..\..\..\lvgl\version_6.1.2\lvgl\src\lv_objx/lv_calendar.c ****     header_area.y2 = calendar->coords.y1 + get_header_height(calendar);
 150              		.loc 1 682 0
 151 0078 018C     		ldrh	r1, [r0, #32]
 152 007a 466B     		ldr	r6, [r0, #52]
 153              	.LVL18:
 154 007c 438C     		ldrh	r3, [r0, #34]
 155 007e 367A     		ldrb	r6, [r6, #8]	@ zero_extendqisi2
 156 0080 4944     		add	r1, r1, r9
 157 0082 0B44     		add	r3, r3, r1
 158 0084 1E44     		add	r6, r6, r3
ARM GAS  C:\Users\pearlstl\AppData\Local\Temp\ccHPSyCj.s 			page 16


 159              		.loc 1 684 0
 160 0086 18A8     		add	r0, sp, #96
 161              	.LVL19:
 162 0088 3B46     		mov	r3, r7
 163 008a 5146     		mov	r1, r10
 682:..\..\..\lvgl\version_6.1.2\lvgl\src\lv_objx/lv_calendar.c ****     header_area.y2 = calendar->coords.y1 + get_header_height(calendar);
 164              		.loc 1 682 0
 165 008c ADF86660 		strh	r6, [sp, #102]	@ movhi
 166              		.loc 1 684 0
 167 0090 FFF7FEFF 		bl	lv_draw_rect
 168              	.LVL20:
 685:..\..\..\lvgl\version_6.1.2\lvgl\src\lv_objx/lv_calendar.c **** 
 686:..\..\..\lvgl\version_6.1.2\lvgl\src\lv_objx/lv_calendar.c ****     /*Add the year + month name*/
 687:..\..\..\lvgl\version_6.1.2\lvgl\src\lv_objx/lv_calendar.c ****     char txt_buf[64];
 688:..\..\..\lvgl\version_6.1.2\lvgl\src\lv_objx/lv_calendar.c ****     lv_utils_num_to_str(ext->showed_date.year, txt_buf);
 169              		.loc 1 688 0
 170 0094 1AA9     		add	r1, sp, #104
 171 0096 A888     		ldrh	r0, [r5, #4]
 172 0098 FFF7FEFF 		bl	lv_utils_num_to_str
 173              	.LVL21:
 689:..\..\..\lvgl\version_6.1.2\lvgl\src\lv_objx/lv_calendar.c ****     txt_buf[4] = ' ';
 174              		.loc 1 689 0
 175 009c 2023     		movs	r3, #32
 690:..\..\..\lvgl\version_6.1.2\lvgl\src\lv_objx/lv_calendar.c ****     txt_buf[5] = '\0';
 176              		.loc 1 690 0
 177 009e 8DF86D40 		strb	r4, [sp, #109]
 689:..\..\..\lvgl\version_6.1.2\lvgl\src\lv_objx/lv_calendar.c ****     txt_buf[4] = ' ';
 178              		.loc 1 689 0
 179 00a2 8DF86C30 		strb	r3, [sp, #108]
 691:..\..\..\lvgl\version_6.1.2\lvgl\src\lv_objx/lv_calendar.c ****     strcpy(&txt_buf[5], get_month_name(calendar, ext->showed_date.month));
 180              		.loc 1 691 0
 181 00a6 95F90630 		ldrsb	r3, [r5, #6]
 182              	.LVL22:
 183              	.LBB164:
 184              	.LBB165:
 692:..\..\..\lvgl\version_6.1.2\lvgl\src\lv_objx/lv_calendar.c ****     header_area.y1 += ext->style_header->body.padding.top;
 693:..\..\..\lvgl\version_6.1.2\lvgl\src\lv_objx/lv_calendar.c ****     lv_draw_label(&header_area, mask, ext->style_header, opa_scale, txt_buf, LV_TXT_FLAG_CENTER, NU
 694:..\..\..\lvgl\version_6.1.2\lvgl\src\lv_objx/lv_calendar.c **** 
 695:..\..\..\lvgl\version_6.1.2\lvgl\src\lv_objx/lv_calendar.c ****     /*Add the left arrow*/
 696:..\..\..\lvgl\version_6.1.2\lvgl\src\lv_objx/lv_calendar.c ****     const lv_style_t * arrow_style = ext->btn_pressing < 0 ? ext->style_header_pr : ext->style_head
 697:..\..\..\lvgl\version_6.1.2\lvgl\src\lv_objx/lv_calendar.c ****     header_area.x1 += ext->style_header->body.padding.left;
 698:..\..\..\lvgl\version_6.1.2\lvgl\src\lv_objx/lv_calendar.c ****     lv_draw_label(&header_area, mask, arrow_style, opa_scale, LV_SYMBOL_LEFT, LV_TXT_FLAG_NONE, NUL
 699:..\..\..\lvgl\version_6.1.2\lvgl\src\lv_objx/lv_calendar.c **** 
 700:..\..\..\lvgl\version_6.1.2\lvgl\src\lv_objx/lv_calendar.c ****     /*Add the right arrow*/
 701:..\..\..\lvgl\version_6.1.2\lvgl\src\lv_objx/lv_calendar.c ****     arrow_style    = ext->btn_pressing > 0 ? ext->style_header_pr : ext->style_header;
 702:..\..\..\lvgl\version_6.1.2\lvgl\src\lv_objx/lv_calendar.c ****     header_area.x1 = header_area.x2 - ext->style_header->body.padding.right -
 703:..\..\..\lvgl\version_6.1.2\lvgl\src\lv_objx/lv_calendar.c ****                      lv_txt_get_width(LV_SYMBOL_RIGHT, (uint16_t)strlen(LV_SYMBOL_RIGHT), arrow_sty
 704:..\..\..\lvgl\version_6.1.2\lvgl\src\lv_objx/lv_calendar.c ****                                       arrow_style->text.line_space, LV_TXT_FLAG_NONE);
 705:..\..\..\lvgl\version_6.1.2\lvgl\src\lv_objx/lv_calendar.c ****     lv_draw_label(&header_area, mask, arrow_style, opa_scale, LV_SYMBOL_RIGHT, LV_TXT_FLAG_NONE, NU
 706:..\..\..\lvgl\version_6.1.2\lvgl\src\lv_objx/lv_calendar.c **** }
 707:..\..\..\lvgl\version_6.1.2\lvgl\src\lv_objx/lv_calendar.c **** 
 708:..\..\..\lvgl\version_6.1.2\lvgl\src\lv_objx/lv_calendar.c **** /**
 709:..\..\..\lvgl\version_6.1.2\lvgl\src\lv_objx/lv_calendar.c ****  * Draw the day's name below the header
 710:..\..\..\lvgl\version_6.1.2\lvgl\src\lv_objx/lv_calendar.c ****  * @param calendar point to a calendar
 711:..\..\..\lvgl\version_6.1.2\lvgl\src\lv_objx/lv_calendar.c ****  * @param mask a mask for drawing
 712:..\..\..\lvgl\version_6.1.2\lvgl\src\lv_objx/lv_calendar.c ****  */
 713:..\..\..\lvgl\version_6.1.2\lvgl\src\lv_objx/lv_calendar.c **** static void draw_day_names(lv_obj_t * calendar, const lv_area_t * mask)
ARM GAS  C:\Users\pearlstl\AppData\Local\Temp\ccHPSyCj.s 			page 17


 714:..\..\..\lvgl\version_6.1.2\lvgl\src\lv_objx/lv_calendar.c **** {
 715:..\..\..\lvgl\version_6.1.2\lvgl\src\lv_objx/lv_calendar.c ****     lv_calendar_ext_t * ext = lv_obj_get_ext_attr(calendar);
 716:..\..\..\lvgl\version_6.1.2\lvgl\src\lv_objx/lv_calendar.c ****     lv_bidi_dir_t bidi_dir = lv_obj_get_base_dir(calendar);
 717:..\..\..\lvgl\version_6.1.2\lvgl\src\lv_objx/lv_calendar.c ****     lv_opa_t opa_scale      = lv_obj_get_opa_scale(calendar);
 718:..\..\..\lvgl\version_6.1.2\lvgl\src\lv_objx/lv_calendar.c **** 
 719:..\..\..\lvgl\version_6.1.2\lvgl\src\lv_objx/lv_calendar.c ****     lv_coord_t l_pad = ext->style_day_names->body.padding.left;
 720:..\..\..\lvgl\version_6.1.2\lvgl\src\lv_objx/lv_calendar.c ****     lv_coord_t w =
 721:..\..\..\lvgl\version_6.1.2\lvgl\src\lv_objx/lv_calendar.c ****         lv_obj_get_width(calendar) - ext->style_day_names->body.padding.left - ext->style_day_names
 722:..\..\..\lvgl\version_6.1.2\lvgl\src\lv_objx/lv_calendar.c ****     lv_coord_t box_w = w / 7;
 723:..\..\..\lvgl\version_6.1.2\lvgl\src\lv_objx/lv_calendar.c ****     lv_area_t label_area;
 724:..\..\..\lvgl\version_6.1.2\lvgl\src\lv_objx/lv_calendar.c ****     label_area.y1 = calendar->coords.y1 + get_header_height(calendar) + ext->style_day_names->body.
 725:..\..\..\lvgl\version_6.1.2\lvgl\src\lv_objx/lv_calendar.c ****     label_area.y2 = label_area.y1 + lv_font_get_line_height(ext->style_day_names->text.font);
 726:..\..\..\lvgl\version_6.1.2\lvgl\src\lv_objx/lv_calendar.c ****     uint32_t i;
 727:..\..\..\lvgl\version_6.1.2\lvgl\src\lv_objx/lv_calendar.c ****     for(i = 0; i < 7; i++) {
 728:..\..\..\lvgl\version_6.1.2\lvgl\src\lv_objx/lv_calendar.c ****         label_area.x1 = calendar->coords.x1 + (w * i) / 7 + l_pad;
 729:..\..\..\lvgl\version_6.1.2\lvgl\src\lv_objx/lv_calendar.c ****         label_area.x2 = label_area.x1 + box_w - 1;
 730:..\..\..\lvgl\version_6.1.2\lvgl\src\lv_objx/lv_calendar.c ****         lv_draw_label(&label_area, mask, ext->style_day_names, opa_scale, get_day_name(calendar, i)
 731:..\..\..\lvgl\version_6.1.2\lvgl\src\lv_objx/lv_calendar.c ****                       NULL, NULL, NULL, bidi_dir);
 732:..\..\..\lvgl\version_6.1.2\lvgl\src\lv_objx/lv_calendar.c ****     }
 733:..\..\..\lvgl\version_6.1.2\lvgl\src\lv_objx/lv_calendar.c **** }
 734:..\..\..\lvgl\version_6.1.2\lvgl\src\lv_objx/lv_calendar.c **** 
 735:..\..\..\lvgl\version_6.1.2\lvgl\src\lv_objx/lv_calendar.c **** /**
 736:..\..\..\lvgl\version_6.1.2\lvgl\src\lv_objx/lv_calendar.c ****  * Draw the date numbers in a matrix
 737:..\..\..\lvgl\version_6.1.2\lvgl\src\lv_objx/lv_calendar.c ****  * @param calendar point to a calendar
 738:..\..\..\lvgl\version_6.1.2\lvgl\src\lv_objx/lv_calendar.c ****  * @param mask a mask for drawing
 739:..\..\..\lvgl\version_6.1.2\lvgl\src\lv_objx/lv_calendar.c ****  */
 740:..\..\..\lvgl\version_6.1.2\lvgl\src\lv_objx/lv_calendar.c **** static void draw_days(lv_obj_t * calendar, const lv_area_t * mask)
 741:..\..\..\lvgl\version_6.1.2\lvgl\src\lv_objx/lv_calendar.c **** {
 742:..\..\..\lvgl\version_6.1.2\lvgl\src\lv_objx/lv_calendar.c ****     lv_calendar_ext_t * ext     = lv_obj_get_ext_attr(calendar);
 743:..\..\..\lvgl\version_6.1.2\lvgl\src\lv_objx/lv_calendar.c ****     lv_bidi_dir_t bidi_dir = lv_obj_get_base_dir(calendar);
 744:..\..\..\lvgl\version_6.1.2\lvgl\src\lv_objx/lv_calendar.c ****     const lv_style_t * style_bg = lv_calendar_get_style(calendar, LV_CALENDAR_STYLE_BG);
 745:..\..\..\lvgl\version_6.1.2\lvgl\src\lv_objx/lv_calendar.c ****     lv_area_t label_area;
 746:..\..\..\lvgl\version_6.1.2\lvgl\src\lv_objx/lv_calendar.c ****     lv_opa_t opa_scale = lv_obj_get_opa_scale(calendar);
 747:..\..\..\lvgl\version_6.1.2\lvgl\src\lv_objx/lv_calendar.c ****     label_area.y1      = calendar->coords.y1 + get_header_height(calendar) + ext->style_day_names->
 748:..\..\..\lvgl\version_6.1.2\lvgl\src\lv_objx/lv_calendar.c ****                     lv_font_get_line_height(ext->style_day_names->text.font) +
 749:..\..\..\lvgl\version_6.1.2\lvgl\src\lv_objx/lv_calendar.c ****                     ext->style_day_names->body.padding.bottom;
 750:..\..\..\lvgl\version_6.1.2\lvgl\src\lv_objx/lv_calendar.c ****     label_area.y2 = label_area.y1 + lv_font_get_line_height(style_bg->text.font);
 751:..\..\..\lvgl\version_6.1.2\lvgl\src\lv_objx/lv_calendar.c **** 
 752:..\..\..\lvgl\version_6.1.2\lvgl\src\lv_objx/lv_calendar.c ****     lv_coord_t w          = lv_obj_get_width(calendar) - style_bg->body.padding.left - style_bg->bo
 753:..\..\..\lvgl\version_6.1.2\lvgl\src\lv_objx/lv_calendar.c ****     lv_coord_t h          = calendar->coords.y2 - label_area.y1 - style_bg->body.padding.bottom;
 754:..\..\..\lvgl\version_6.1.2\lvgl\src\lv_objx/lv_calendar.c ****     lv_coord_t box_w      = w / 7;
 755:..\..\..\lvgl\version_6.1.2\lvgl\src\lv_objx/lv_calendar.c ****     lv_coord_t vert_space = (h - (6 * lv_font_get_line_height(style_bg->text.font))) / 5;
 756:..\..\..\lvgl\version_6.1.2\lvgl\src\lv_objx/lv_calendar.c **** 
 757:..\..\..\lvgl\version_6.1.2\lvgl\src\lv_objx/lv_calendar.c ****     uint32_t week;
 758:..\..\..\lvgl\version_6.1.2\lvgl\src\lv_objx/lv_calendar.c ****     uint8_t day_cnt;
 759:..\..\..\lvgl\version_6.1.2\lvgl\src\lv_objx/lv_calendar.c ****     uint8_t month_start_day = get_day_of_week(ext->showed_date.year, ext->showed_date.month, 1);
 760:..\..\..\lvgl\version_6.1.2\lvgl\src\lv_objx/lv_calendar.c ****     day_draw_state_t draw_state; /*true: Not the prev. or next month is drawn*/
 761:..\..\..\lvgl\version_6.1.2\lvgl\src\lv_objx/lv_calendar.c ****     const lv_style_t * act_style;
 762:..\..\..\lvgl\version_6.1.2\lvgl\src\lv_objx/lv_calendar.c **** 
 763:..\..\..\lvgl\version_6.1.2\lvgl\src\lv_objx/lv_calendar.c ****     /*If starting with the first day of the week then the previous month is not visible*/
 764:..\..\..\lvgl\version_6.1.2\lvgl\src\lv_objx/lv_calendar.c ****     if(month_start_day == 0) {
 765:..\..\..\lvgl\version_6.1.2\lvgl\src\lv_objx/lv_calendar.c ****         day_cnt    = 1;
 766:..\..\..\lvgl\version_6.1.2\lvgl\src\lv_objx/lv_calendar.c ****         draw_state = DAY_DRAW_ACT_MONTH;
 767:..\..\..\lvgl\version_6.1.2\lvgl\src\lv_objx/lv_calendar.c ****         act_style  = style_bg;
 768:..\..\..\lvgl\version_6.1.2\lvgl\src\lv_objx/lv_calendar.c ****     } else {
 769:..\..\..\lvgl\version_6.1.2\lvgl\src\lv_objx/lv_calendar.c ****         draw_state = DAY_DRAW_PREV_MONTH;
 770:..\..\..\lvgl\version_6.1.2\lvgl\src\lv_objx/lv_calendar.c ****         day_cnt = get_month_length(ext->showed_date.year, ext->showed_date.month - 1); /*Length of 
ARM GAS  C:\Users\pearlstl\AppData\Local\Temp\ccHPSyCj.s 			page 18


 771:..\..\..\lvgl\version_6.1.2\lvgl\src\lv_objx/lv_calendar.c ****         day_cnt -= month_start_day - 1; /*First visible number of the previous month*/
 772:..\..\..\lvgl\version_6.1.2\lvgl\src\lv_objx/lv_calendar.c ****         act_style = ext->style_inactive_days;
 773:..\..\..\lvgl\version_6.1.2\lvgl\src\lv_objx/lv_calendar.c ****     }
 774:..\..\..\lvgl\version_6.1.2\lvgl\src\lv_objx/lv_calendar.c **** 
 775:..\..\..\lvgl\version_6.1.2\lvgl\src\lv_objx/lv_calendar.c ****     bool month_of_today_shown = false;
 776:..\..\..\lvgl\version_6.1.2\lvgl\src\lv_objx/lv_calendar.c ****     if(ext->showed_date.year == ext->today.year && ext->showed_date.month == ext->today.month) {
 777:..\..\..\lvgl\version_6.1.2\lvgl\src\lv_objx/lv_calendar.c ****         month_of_today_shown = true;
 778:..\..\..\lvgl\version_6.1.2\lvgl\src\lv_objx/lv_calendar.c ****     }
 779:..\..\..\lvgl\version_6.1.2\lvgl\src\lv_objx/lv_calendar.c **** 
 780:..\..\..\lvgl\version_6.1.2\lvgl\src\lv_objx/lv_calendar.c ****     char buf[3];
 781:..\..\..\lvgl\version_6.1.2\lvgl\src\lv_objx/lv_calendar.c ****     bool in_week_box = false;
 782:..\..\..\lvgl\version_6.1.2\lvgl\src\lv_objx/lv_calendar.c **** 
 783:..\..\..\lvgl\version_6.1.2\lvgl\src\lv_objx/lv_calendar.c ****     /*Draw 6 weeks*/
 784:..\..\..\lvgl\version_6.1.2\lvgl\src\lv_objx/lv_calendar.c ****     for(week = 0; week < 6; week++) {
 785:..\..\..\lvgl\version_6.1.2\lvgl\src\lv_objx/lv_calendar.c **** 
 786:..\..\..\lvgl\version_6.1.2\lvgl\src\lv_objx/lv_calendar.c ****         /*Draw the "week box"*/
 787:..\..\..\lvgl\version_6.1.2\lvgl\src\lv_objx/lv_calendar.c ****         if(month_of_today_shown &&
 788:..\..\..\lvgl\version_6.1.2\lvgl\src\lv_objx/lv_calendar.c ****            ((draw_state == DAY_DRAW_ACT_MONTH && ext->today.day >= day_cnt && ext->today.day < day_
 789:..\..\..\lvgl\version_6.1.2\lvgl\src\lv_objx/lv_calendar.c ****             (draw_state == DAY_DRAW_PREV_MONTH && ext->today.day <= 7 - month_start_day && week == 
 790:..\..\..\lvgl\version_6.1.2\lvgl\src\lv_objx/lv_calendar.c ****             lv_area_t week_box_area;
 791:..\..\..\lvgl\version_6.1.2\lvgl\src\lv_objx/lv_calendar.c ****             lv_area_copy(&week_box_area, &label_area); /*'label_area' is already set for this row*/
 792:..\..\..\lvgl\version_6.1.2\lvgl\src\lv_objx/lv_calendar.c ****             week_box_area.x1 =
 793:..\..\..\lvgl\version_6.1.2\lvgl\src\lv_objx/lv_calendar.c ****                 calendar->coords.x1 + style_bg->body.padding.left - ext->style_week_box->body.paddi
 794:..\..\..\lvgl\version_6.1.2\lvgl\src\lv_objx/lv_calendar.c ****             week_box_area.x2 =
 795:..\..\..\lvgl\version_6.1.2\lvgl\src\lv_objx/lv_calendar.c ****                 calendar->coords.x2 - style_bg->body.padding.right + ext->style_week_box->body.padd
 796:..\..\..\lvgl\version_6.1.2\lvgl\src\lv_objx/lv_calendar.c **** 
 797:..\..\..\lvgl\version_6.1.2\lvgl\src\lv_objx/lv_calendar.c ****             week_box_area.y1 -= ext->style_week_box->body.padding.top;
 798:..\..\..\lvgl\version_6.1.2\lvgl\src\lv_objx/lv_calendar.c ****             week_box_area.y2 += ext->style_week_box->body.padding.bottom;
 799:..\..\..\lvgl\version_6.1.2\lvgl\src\lv_objx/lv_calendar.c ****             lv_draw_rect(&week_box_area, mask, ext->style_week_box, opa_scale);
 800:..\..\..\lvgl\version_6.1.2\lvgl\src\lv_objx/lv_calendar.c **** 
 801:..\..\..\lvgl\version_6.1.2\lvgl\src\lv_objx/lv_calendar.c ****             in_week_box = true;
 802:..\..\..\lvgl\version_6.1.2\lvgl\src\lv_objx/lv_calendar.c ****         } else {
 803:..\..\..\lvgl\version_6.1.2\lvgl\src\lv_objx/lv_calendar.c ****             in_week_box = false;
 804:..\..\..\lvgl\version_6.1.2\lvgl\src\lv_objx/lv_calendar.c ****         }
 805:..\..\..\lvgl\version_6.1.2\lvgl\src\lv_objx/lv_calendar.c **** 
 806:..\..\..\lvgl\version_6.1.2\lvgl\src\lv_objx/lv_calendar.c ****         /*Draw the 7 days of a week*/
 807:..\..\..\lvgl\version_6.1.2\lvgl\src\lv_objx/lv_calendar.c ****         uint32_t day;
 808:..\..\..\lvgl\version_6.1.2\lvgl\src\lv_objx/lv_calendar.c ****         for(day = 0; day < 7; day++) {
 809:..\..\..\lvgl\version_6.1.2\lvgl\src\lv_objx/lv_calendar.c ****             /*The previous month is over*/
 810:..\..\..\lvgl\version_6.1.2\lvgl\src\lv_objx/lv_calendar.c ****             if(draw_state == DAY_DRAW_PREV_MONTH && day == month_start_day) {
 811:..\..\..\lvgl\version_6.1.2\lvgl\src\lv_objx/lv_calendar.c ****                 draw_state = DAY_DRAW_ACT_MONTH;
 812:..\..\..\lvgl\version_6.1.2\lvgl\src\lv_objx/lv_calendar.c ****                 day_cnt    = 1;
 813:..\..\..\lvgl\version_6.1.2\lvgl\src\lv_objx/lv_calendar.c ****                 act_style  = style_bg;
 814:..\..\..\lvgl\version_6.1.2\lvgl\src\lv_objx/lv_calendar.c ****             }
 815:..\..\..\lvgl\version_6.1.2\lvgl\src\lv_objx/lv_calendar.c ****             /*The current month is over*/
 816:..\..\..\lvgl\version_6.1.2\lvgl\src\lv_objx/lv_calendar.c ****             if(draw_state == DAY_DRAW_ACT_MONTH &&
 817:..\..\..\lvgl\version_6.1.2\lvgl\src\lv_objx/lv_calendar.c ****                day_cnt > get_month_length(ext->showed_date.year, ext->showed_date.month)) {
 818:..\..\..\lvgl\version_6.1.2\lvgl\src\lv_objx/lv_calendar.c ****                 draw_state = DAY_DRAW_NEXT_MONTH;
 819:..\..\..\lvgl\version_6.1.2\lvgl\src\lv_objx/lv_calendar.c ****                 day_cnt    = 1;
 820:..\..\..\lvgl\version_6.1.2\lvgl\src\lv_objx/lv_calendar.c ****                 act_style  = ext->style_inactive_days;
 821:..\..\..\lvgl\version_6.1.2\lvgl\src\lv_objx/lv_calendar.c ****             }
 822:..\..\..\lvgl\version_6.1.2\lvgl\src\lv_objx/lv_calendar.c **** 
 823:..\..\..\lvgl\version_6.1.2\lvgl\src\lv_objx/lv_calendar.c ****             label_area.x1 =
 824:..\..\..\lvgl\version_6.1.2\lvgl\src\lv_objx/lv_calendar.c ****                 calendar->coords.x1 + (w * day) / 7 + style_bg->body.padding.left;
 825:..\..\..\lvgl\version_6.1.2\lvgl\src\lv_objx/lv_calendar.c ****             label_area.x2 = label_area.x1 + box_w - 1;
 826:..\..\..\lvgl\version_6.1.2\lvgl\src\lv_objx/lv_calendar.c **** 
 827:..\..\..\lvgl\version_6.1.2\lvgl\src\lv_objx/lv_calendar.c ****             /*Draw the "today box"*/
ARM GAS  C:\Users\pearlstl\AppData\Local\Temp\ccHPSyCj.s 			page 19


 828:..\..\..\lvgl\version_6.1.2\lvgl\src\lv_objx/lv_calendar.c ****             if(draw_state == DAY_DRAW_ACT_MONTH && month_of_today_shown && ext->today.day == day_cn
 829:..\..\..\lvgl\version_6.1.2\lvgl\src\lv_objx/lv_calendar.c ****                 lv_area_t today_box_area;
 830:..\..\..\lvgl\version_6.1.2\lvgl\src\lv_objx/lv_calendar.c ****                 lv_area_copy(&today_box_area, &label_area);
 831:..\..\..\lvgl\version_6.1.2\lvgl\src\lv_objx/lv_calendar.c ****                 today_box_area.x1 = label_area.x1;
 832:..\..\..\lvgl\version_6.1.2\lvgl\src\lv_objx/lv_calendar.c ****                 today_box_area.x2 = label_area.x2;
 833:..\..\..\lvgl\version_6.1.2\lvgl\src\lv_objx/lv_calendar.c **** 
 834:..\..\..\lvgl\version_6.1.2\lvgl\src\lv_objx/lv_calendar.c ****                 today_box_area.y1 = label_area.y1 - ext->style_today_box->body.padding.top;
 835:..\..\..\lvgl\version_6.1.2\lvgl\src\lv_objx/lv_calendar.c ****                 today_box_area.y2 = label_area.y2 + ext->style_today_box->body.padding.bottom;
 836:..\..\..\lvgl\version_6.1.2\lvgl\src\lv_objx/lv_calendar.c ****                 lv_draw_rect(&today_box_area, mask, ext->style_today_box, opa_scale);
 837:..\..\..\lvgl\version_6.1.2\lvgl\src\lv_objx/lv_calendar.c ****             }
 838:..\..\..\lvgl\version_6.1.2\lvgl\src\lv_objx/lv_calendar.c **** 
 839:..\..\..\lvgl\version_6.1.2\lvgl\src\lv_objx/lv_calendar.c ****             /*Get the final style : highlighted/week box/today box/normal*/
 840:..\..\..\lvgl\version_6.1.2\lvgl\src\lv_objx/lv_calendar.c ****             const lv_style_t * final_style;
 841:..\..\..\lvgl\version_6.1.2\lvgl\src\lv_objx/lv_calendar.c ****             if(draw_state == DAY_DRAW_PREV_MONTH &&
 842:..\..\..\lvgl\version_6.1.2\lvgl\src\lv_objx/lv_calendar.c ****                is_highlighted(calendar, ext->showed_date.year - (ext->showed_date.month == 1 ? 1 : 
 843:..\..\..\lvgl\version_6.1.2\lvgl\src\lv_objx/lv_calendar.c ****                               ext->showed_date.month == 1 ? 12 : ext->showed_date.month - 1, day_cn
 844:..\..\..\lvgl\version_6.1.2\lvgl\src\lv_objx/lv_calendar.c ****                 final_style = ext->style_highlighted_days;
 845:..\..\..\lvgl\version_6.1.2\lvgl\src\lv_objx/lv_calendar.c ****             } else if(draw_state == DAY_DRAW_ACT_MONTH &&
 846:..\..\..\lvgl\version_6.1.2\lvgl\src\lv_objx/lv_calendar.c ****                       is_highlighted(calendar, ext->showed_date.year, ext->showed_date.month, day_c
 847:..\..\..\lvgl\version_6.1.2\lvgl\src\lv_objx/lv_calendar.c ****                 final_style = ext->style_highlighted_days;
 848:..\..\..\lvgl\version_6.1.2\lvgl\src\lv_objx/lv_calendar.c ****             } else if(draw_state == DAY_DRAW_NEXT_MONTH &&
 849:..\..\..\lvgl\version_6.1.2\lvgl\src\lv_objx/lv_calendar.c ****                       is_highlighted(calendar, ext->showed_date.year + (ext->showed_date.month == 1
 850:..\..\..\lvgl\version_6.1.2\lvgl\src\lv_objx/lv_calendar.c ****                                      ext->showed_date.month == 12 ? 1 : ext->showed_date.month + 1,
 851:..\..\..\lvgl\version_6.1.2\lvgl\src\lv_objx/lv_calendar.c ****                 final_style = ext->style_highlighted_days;
 852:..\..\..\lvgl\version_6.1.2\lvgl\src\lv_objx/lv_calendar.c ****             } else if(month_of_today_shown && day_cnt == ext->today.day && draw_state == DAY_DRAW_A
 853:..\..\..\lvgl\version_6.1.2\lvgl\src\lv_objx/lv_calendar.c ****                 final_style = ext->style_today_box;
 854:..\..\..\lvgl\version_6.1.2\lvgl\src\lv_objx/lv_calendar.c ****             else if(in_week_box && draw_state == DAY_DRAW_ACT_MONTH)
 855:..\..\..\lvgl\version_6.1.2\lvgl\src\lv_objx/lv_calendar.c ****                 final_style = ext->style_week_box;
 856:..\..\..\lvgl\version_6.1.2\lvgl\src\lv_objx/lv_calendar.c ****             else
 857:..\..\..\lvgl\version_6.1.2\lvgl\src\lv_objx/lv_calendar.c ****                 final_style = act_style;
 858:..\..\..\lvgl\version_6.1.2\lvgl\src\lv_objx/lv_calendar.c **** 
 859:..\..\..\lvgl\version_6.1.2\lvgl\src\lv_objx/lv_calendar.c ****             /*Write the day's number*/
 860:..\..\..\lvgl\version_6.1.2\lvgl\src\lv_objx/lv_calendar.c ****             lv_utils_num_to_str(day_cnt, buf);
 861:..\..\..\lvgl\version_6.1.2\lvgl\src\lv_objx/lv_calendar.c ****             lv_draw_label(&label_area, mask, final_style, opa_scale, buf, LV_TXT_FLAG_CENTER, NULL,
 862:..\..\..\lvgl\version_6.1.2\lvgl\src\lv_objx/lv_calendar.c **** 
 863:..\..\..\lvgl\version_6.1.2\lvgl\src\lv_objx/lv_calendar.c ****             /*Go to the next day*/
 864:..\..\..\lvgl\version_6.1.2\lvgl\src\lv_objx/lv_calendar.c ****             day_cnt++;
 865:..\..\..\lvgl\version_6.1.2\lvgl\src\lv_objx/lv_calendar.c ****         }
 866:..\..\..\lvgl\version_6.1.2\lvgl\src\lv_objx/lv_calendar.c **** 
 867:..\..\..\lvgl\version_6.1.2\lvgl\src\lv_objx/lv_calendar.c ****         /*Got to the next weeks row*/
 868:..\..\..\lvgl\version_6.1.2\lvgl\src\lv_objx/lv_calendar.c ****         label_area.y1 += vert_space + lv_font_get_line_height(style_bg->text.font);
 869:..\..\..\lvgl\version_6.1.2\lvgl\src\lv_objx/lv_calendar.c ****         label_area.y2 += vert_space + lv_font_get_line_height(style_bg->text.font);
 870:..\..\..\lvgl\version_6.1.2\lvgl\src\lv_objx/lv_calendar.c ****     }
 871:..\..\..\lvgl\version_6.1.2\lvgl\src\lv_objx/lv_calendar.c **** }
 872:..\..\..\lvgl\version_6.1.2\lvgl\src\lv_objx/lv_calendar.c **** 
 873:..\..\..\lvgl\version_6.1.2\lvgl\src\lv_objx/lv_calendar.c **** /**
 874:..\..\..\lvgl\version_6.1.2\lvgl\src\lv_objx/lv_calendar.c ****  * Check weather a date is highlighted or not
 875:..\..\..\lvgl\version_6.1.2\lvgl\src\lv_objx/lv_calendar.c ****  * @param calendar pointer to a calendar object
 876:..\..\..\lvgl\version_6.1.2\lvgl\src\lv_objx/lv_calendar.c ****  * @param year a year
 877:..\..\..\lvgl\version_6.1.2\lvgl\src\lv_objx/lv_calendar.c ****  * @param month a  month [1..12]
 878:..\..\..\lvgl\version_6.1.2\lvgl\src\lv_objx/lv_calendar.c ****  * @param day a day [1..31]
 879:..\..\..\lvgl\version_6.1.2\lvgl\src\lv_objx/lv_calendar.c ****  * @return true: highlighted
 880:..\..\..\lvgl\version_6.1.2\lvgl\src\lv_objx/lv_calendar.c ****  */
 881:..\..\..\lvgl\version_6.1.2\lvgl\src\lv_objx/lv_calendar.c **** static bool is_highlighted(lv_obj_t * calendar, int32_t year, int32_t month, int32_t day)
 882:..\..\..\lvgl\version_6.1.2\lvgl\src\lv_objx/lv_calendar.c **** {
 883:..\..\..\lvgl\version_6.1.2\lvgl\src\lv_objx/lv_calendar.c ****     lv_calendar_ext_t * ext = lv_obj_get_ext_attr(calendar);
 884:..\..\..\lvgl\version_6.1.2\lvgl\src\lv_objx/lv_calendar.c **** 
ARM GAS  C:\Users\pearlstl\AppData\Local\Temp\ccHPSyCj.s 			page 20


 885:..\..\..\lvgl\version_6.1.2\lvgl\src\lv_objx/lv_calendar.c ****     if(ext->highlighted_dates == NULL || ext->highlighted_dates_num == 0) return false;
 886:..\..\..\lvgl\version_6.1.2\lvgl\src\lv_objx/lv_calendar.c **** 
 887:..\..\..\lvgl\version_6.1.2\lvgl\src\lv_objx/lv_calendar.c ****     uint32_t i;
 888:..\..\..\lvgl\version_6.1.2\lvgl\src\lv_objx/lv_calendar.c ****     for(i = 0; i < ext->highlighted_dates_num; i++) {
 889:..\..\..\lvgl\version_6.1.2\lvgl\src\lv_objx/lv_calendar.c ****         if(ext->highlighted_dates[i].year == year && ext->highlighted_dates[i].month == month &&
 890:..\..\..\lvgl\version_6.1.2\lvgl\src\lv_objx/lv_calendar.c ****            ext->highlighted_dates[i].day == day) {
 891:..\..\..\lvgl\version_6.1.2\lvgl\src\lv_objx/lv_calendar.c ****             return true;
 892:..\..\..\lvgl\version_6.1.2\lvgl\src\lv_objx/lv_calendar.c ****         }
 893:..\..\..\lvgl\version_6.1.2\lvgl\src\lv_objx/lv_calendar.c ****     }
 894:..\..\..\lvgl\version_6.1.2\lvgl\src\lv_objx/lv_calendar.c **** 
 895:..\..\..\lvgl\version_6.1.2\lvgl\src\lv_objx/lv_calendar.c ****     return false;
 896:..\..\..\lvgl\version_6.1.2\lvgl\src\lv_objx/lv_calendar.c **** }
 897:..\..\..\lvgl\version_6.1.2\lvgl\src\lv_objx/lv_calendar.c **** 
 898:..\..\..\lvgl\version_6.1.2\lvgl\src\lv_objx/lv_calendar.c **** /**
 899:..\..\..\lvgl\version_6.1.2\lvgl\src\lv_objx/lv_calendar.c ****  * Get the day name
 900:..\..\..\lvgl\version_6.1.2\lvgl\src\lv_objx/lv_calendar.c ****  * @param calendar pointer to a calendar object
 901:..\..\..\lvgl\version_6.1.2\lvgl\src\lv_objx/lv_calendar.c ****  * @param day a day in [0..6]
 902:..\..\..\lvgl\version_6.1.2\lvgl\src\lv_objx/lv_calendar.c ****  * @return
 903:..\..\..\lvgl\version_6.1.2\lvgl\src\lv_objx/lv_calendar.c ****  */
 904:..\..\..\lvgl\version_6.1.2\lvgl\src\lv_objx/lv_calendar.c **** static const char * get_day_name(lv_obj_t * calendar, uint8_t day)
 905:..\..\..\lvgl\version_6.1.2\lvgl\src\lv_objx/lv_calendar.c **** {
 906:..\..\..\lvgl\version_6.1.2\lvgl\src\lv_objx/lv_calendar.c **** 
 907:..\..\..\lvgl\version_6.1.2\lvgl\src\lv_objx/lv_calendar.c ****     lv_calendar_ext_t * ext = lv_obj_get_ext_attr(calendar);
 908:..\..\..\lvgl\version_6.1.2\lvgl\src\lv_objx/lv_calendar.c ****     if(ext->day_names)
 909:..\..\..\lvgl\version_6.1.2\lvgl\src\lv_objx/lv_calendar.c ****         return ext->day_names[day];
 910:..\..\..\lvgl\version_6.1.2\lvgl\src\lv_objx/lv_calendar.c ****     else
 911:..\..\..\lvgl\version_6.1.2\lvgl\src\lv_objx/lv_calendar.c ****         return day_name[day];
 912:..\..\..\lvgl\version_6.1.2\lvgl\src\lv_objx/lv_calendar.c **** }
 913:..\..\..\lvgl\version_6.1.2\lvgl\src\lv_objx/lv_calendar.c **** 
 914:..\..\..\lvgl\version_6.1.2\lvgl\src\lv_objx/lv_calendar.c **** /**
 915:..\..\..\lvgl\version_6.1.2\lvgl\src\lv_objx/lv_calendar.c ****  * Get the month name
 916:..\..\..\lvgl\version_6.1.2\lvgl\src\lv_objx/lv_calendar.c ****  * @param calendar pointer to a calendar object
 917:..\..\..\lvgl\version_6.1.2\lvgl\src\lv_objx/lv_calendar.c ****  * @param month a month. The range is basically [1..12] but [-11..1] is also supported to handle
 918:..\..\..\lvgl\version_6.1.2\lvgl\src\lv_objx/lv_calendar.c ****  * previous year
 919:..\..\..\lvgl\version_6.1.2\lvgl\src\lv_objx/lv_calendar.c ****  * @return
 920:..\..\..\lvgl\version_6.1.2\lvgl\src\lv_objx/lv_calendar.c ****  */
 921:..\..\..\lvgl\version_6.1.2\lvgl\src\lv_objx/lv_calendar.c **** static const char * get_month_name(lv_obj_t * calendar, int32_t month)
 922:..\..\..\lvgl\version_6.1.2\lvgl\src\lv_objx/lv_calendar.c **** {
 923:..\..\..\lvgl\version_6.1.2\lvgl\src\lv_objx/lv_calendar.c ****     month--; /*Range of months id [1..12] but range of indexes is [0..11]*/
 924:..\..\..\lvgl\version_6.1.2\lvgl\src\lv_objx/lv_calendar.c ****     if(month < 0) month = 12 + month;
 925:..\..\..\lvgl\version_6.1.2\lvgl\src\lv_objx/lv_calendar.c **** 
 926:..\..\..\lvgl\version_6.1.2\lvgl\src\lv_objx/lv_calendar.c ****     lv_calendar_ext_t * ext = lv_obj_get_ext_attr(calendar);
 185              		.loc 1 926 0
 186 00aa 0698     		ldr	r0, [sp, #24]
 924:..\..\..\lvgl\version_6.1.2\lvgl\src\lv_objx/lv_calendar.c **** 
 187              		.loc 1 924 0
 188 00ac 5C1E     		subs	r4, r3, #1
 189              	.LVL23:
 190 00ae 48BF     		it	mi
 191 00b0 03F10B04 		addmi	r4, r3, #11
 192              	.LVL24:
 193              		.loc 1 926 0
 194 00b4 FFF7FEFF 		bl	lv_obj_get_ext_attr
 195              	.LVL25:
 927:..\..\..\lvgl\version_6.1.2\lvgl\src\lv_objx/lv_calendar.c ****     if(ext->month_names)
 196              		.loc 1 927 0
 197 00b8 8369     		ldr	r3, [r0, #24]
ARM GAS  C:\Users\pearlstl\AppData\Local\Temp\ccHPSyCj.s 			page 21


 198 00ba 002B     		cmp	r3, #0
 199 00bc 00F0CF83 		beq	.L113
 200              	.L106:
 201              	.LVL26:
 928:..\..\..\lvgl\version_6.1.2\lvgl\src\lv_objx/lv_calendar.c ****         return ext->month_names[month];
 929:..\..\..\lvgl\version_6.1.2\lvgl\src\lv_objx/lv_calendar.c ****     else
 930:..\..\..\lvgl\version_6.1.2\lvgl\src\lv_objx/lv_calendar.c ****         return month_name[month];
 202              		.loc 1 930 0
 203 00c0 53F82410 		ldr	r1, [r3, r4, lsl #2]
 204              	.LBE165:
 205              	.LBE164:
 703:..\..\..\lvgl\version_6.1.2\lvgl\src\lv_objx/lv_calendar.c ****                                       arrow_style->text.line_space, LV_TXT_FLAG_NONE);
 206              		.loc 1 703 0
 207 00c4 DFF8C891 		ldr	r9, .L125+16
 691:..\..\..\lvgl\version_6.1.2\lvgl\src\lv_objx/lv_calendar.c ****     header_area.y1 += ext->style_header->body.padding.top;
 208              		.loc 1 691 0
 209 00c8 0DF16D00 		add	r0, sp, #109
 210 00cc FFF7FEFF 		bl	strcpy
 211              	.LVL27:
 692:..\..\..\lvgl\version_6.1.2\lvgl\src\lv_objx/lv_calendar.c ****     lv_draw_label(&header_area, mask, ext->style_header, opa_scale, txt_buf, LV_TXT_FLAG_CENTER, NU
 212              		.loc 1 692 0
 213 00d0 EA69     		ldr	r2, [r5, #28]
 693:..\..\..\lvgl\version_6.1.2\lvgl\src\lv_objx/lv_calendar.c **** 
 214              		.loc 1 693 0
 215 00d2 DDF81CA0 		ldr	r10, [sp, #28]
 216              	.LVL28:
 692:..\..\..\lvgl\version_6.1.2\lvgl\src\lv_objx/lv_calendar.c ****     lv_draw_label(&header_area, mask, ext->style_header, opa_scale, txt_buf, LV_TXT_FLAG_CENTER, NU
 217              		.loc 1 692 0
 218 00d6 138C     		ldrh	r3, [r2, #32]
 219 00d8 BDF86260 		ldrh	r6, [sp, #98]
 693:..\..\..\lvgl\version_6.1.2\lvgl\src\lv_objx/lv_calendar.c **** 
 220              		.loc 1 693 0
 221 00dc CDF81480 		str	r8, [sp, #20]
 222 00e0 0024     		movs	r4, #0
 223 00e2 0421     		movs	r1, #4
 224 00e4 1AA8     		add	r0, sp, #104
 692:..\..\..\lvgl\version_6.1.2\lvgl\src\lv_objx/lv_calendar.c ****     lv_draw_label(&header_area, mask, ext->style_header, opa_scale, txt_buf, LV_TXT_FLAG_CENTER, NU
 225              		.loc 1 692 0
 226 00e6 1E44     		add	r6, r6, r3
 693:..\..\..\lvgl\version_6.1.2\lvgl\src\lv_objx/lv_calendar.c **** 
 227              		.loc 1 693 0
 228 00e8 0090     		str	r0, [sp]
 229 00ea 3B46     		mov	r3, r7
 230 00ec 0191     		str	r1, [sp, #4]
 231 00ee 18A8     		add	r0, sp, #96
 232 00f0 5146     		mov	r1, r10
 233 00f2 0494     		str	r4, [sp, #16]
 234 00f4 0394     		str	r4, [sp, #12]
 235 00f6 0294     		str	r4, [sp, #8]
 692:..\..\..\lvgl\version_6.1.2\lvgl\src\lv_objx/lv_calendar.c ****     lv_draw_label(&header_area, mask, ext->style_header, opa_scale, txt_buf, LV_TXT_FLAG_CENTER, NU
 236              		.loc 1 692 0
 237 00f8 ADF86260 		strh	r6, [sp, #98]	@ movhi
 693:..\..\..\lvgl\version_6.1.2\lvgl\src\lv_objx/lv_calendar.c **** 
 238              		.loc 1 693 0
 239 00fc FFF7FEFF 		bl	lv_draw_label
 240              	.LVL29:
 696:..\..\..\lvgl\version_6.1.2\lvgl\src\lv_objx/lv_calendar.c ****     header_area.x1 += ext->style_header->body.padding.left;
ARM GAS  C:\Users\pearlstl\AppData\Local\Temp\ccHPSyCj.s 			page 22


 241              		.loc 1 696 0
 242 0100 E969     		ldr	r1, [r5, #28]
 243 0102 95F90CE0 		ldrsb	lr, [r5, #12]
 697:..\..\..\lvgl\version_6.1.2\lvgl\src\lv_objx/lv_calendar.c ****     lv_draw_label(&header_area, mask, arrow_style, opa_scale, LV_SYMBOL_LEFT, LV_TXT_FLAG_NONE, NUL
 244              		.loc 1 697 0
 245 0106 8B8C     		ldrh	r3, [r1, #36]
 696:..\..\..\lvgl\version_6.1.2\lvgl\src\lv_objx/lv_calendar.c ****     header_area.x1 += ext->style_header->body.padding.left;
 246              		.loc 1 696 0
 247 0108 2A6A     		ldr	r2, [r5, #32]
 248              	.LVL30:
 697:..\..\..\lvgl\version_6.1.2\lvgl\src\lv_objx/lv_calendar.c ****     lv_draw_label(&header_area, mask, arrow_style, opa_scale, LV_SYMBOL_LEFT, LV_TXT_FLAG_NONE, NUL
 249              		.loc 1 697 0
 250 010a BDF86060 		ldrh	r6, [sp, #96]
 698:..\..\..\lvgl\version_6.1.2\lvgl\src\lv_objx/lv_calendar.c **** 
 251              		.loc 1 698 0
 252 010e 5C48     		ldr	r0, .L125
 253 0110 CDF81480 		str	r8, [sp, #20]
 254 0114 A645     		cmp	lr, r4
 255 0116 A8BF     		it	ge
 256 0118 0A46     		movge	r2, r1
 257              	.LVL31:
 697:..\..\..\lvgl\version_6.1.2\lvgl\src\lv_objx/lv_calendar.c ****     lv_draw_label(&header_area, mask, arrow_style, opa_scale, LV_SYMBOL_LEFT, LV_TXT_FLAG_NONE, NUL
 258              		.loc 1 697 0
 259 011a 1E44     		add	r6, r6, r3
 698:..\..\..\lvgl\version_6.1.2\lvgl\src\lv_objx/lv_calendar.c **** 
 260              		.loc 1 698 0
 261 011c 5146     		mov	r1, r10
 262 011e 3B46     		mov	r3, r7
 263 0120 0090     		str	r0, [sp]
 264 0122 0494     		str	r4, [sp, #16]
 265 0124 18A8     		add	r0, sp, #96
 266 0126 0394     		str	r4, [sp, #12]
 267 0128 0294     		str	r4, [sp, #8]
 268 012a 0194     		str	r4, [sp, #4]
 697:..\..\..\lvgl\version_6.1.2\lvgl\src\lv_objx/lv_calendar.c ****     lv_draw_label(&header_area, mask, arrow_style, opa_scale, LV_SYMBOL_LEFT, LV_TXT_FLAG_NONE, NUL
 269              		.loc 1 697 0
 270 012c ADF86060 		strh	r6, [sp, #96]	@ movhi
 698:..\..\..\lvgl\version_6.1.2\lvgl\src\lv_objx/lv_calendar.c **** 
 271              		.loc 1 698 0
 272 0130 FFF7FEFF 		bl	lv_draw_label
 273              	.LVL32:
 701:..\..\..\lvgl\version_6.1.2\lvgl\src\lv_objx/lv_calendar.c ****     header_area.x1 = header_area.x2 - ext->style_header->body.padding.right -
 274              		.loc 1 701 0
 275 0134 EB69     		ldr	r3, [r5, #28]
 276 0136 95F90C10 		ldrsb	r1, [r5, #12]
 277 013a 2E6A     		ldr	r6, [r5, #32]
 702:..\..\..\lvgl\version_6.1.2\lvgl\src\lv_objx/lv_calendar.c ****                      lv_txt_get_width(LV_SYMBOL_RIGHT, (uint16_t)strlen(LV_SYMBOL_RIGHT), arrow_sty
 278              		.loc 1 702 0
 279 013c DA8C     		ldrh	r2, [r3, #38]
 280 013e BDF86450 		ldrh	r5, [sp, #100]
 281              	.LVL33:
 701:..\..\..\lvgl\version_6.1.2\lvgl\src\lv_objx/lv_calendar.c ****     header_area.x1 = header_area.x2 - ext->style_header->body.padding.right -
 282              		.loc 1 701 0
 283 0142 A142     		cmp	r1, r4
 284 0144 D8BF     		it	le
 285 0146 1E46     		movle	r6, r3
 286              	.LVL34:
ARM GAS  C:\Users\pearlstl\AppData\Local\Temp\ccHPSyCj.s 			page 23


 702:..\..\..\lvgl\version_6.1.2\lvgl\src\lv_objx/lv_calendar.c ****                      lv_txt_get_width(LV_SYMBOL_RIGHT, (uint16_t)strlen(LV_SYMBOL_RIGHT), arrow_sty
 287              		.loc 1 702 0
 288 0148 AD1A     		subs	r5, r5, r2
 703:..\..\..\lvgl\version_6.1.2\lvgl\src\lv_objx/lv_calendar.c ****                                       arrow_style->text.line_space, LV_TXT_FLAG_NONE);
 289              		.loc 1 703 0
 290 014a B6F93A30 		ldrsh	r3, [r6, #58]
 291 014e 726B     		ldr	r2, [r6, #52]
 292 0150 0094     		str	r4, [sp]
 293 0152 4846     		mov	r0, r9
 294 0154 0321     		movs	r1, #3
 295 0156 FFF7FEFF 		bl	lv_txt_get_width
 296              	.LVL35:
 702:..\..\..\lvgl\version_6.1.2\lvgl\src\lv_objx/lv_calendar.c ****                      lv_txt_get_width(LV_SYMBOL_RIGHT, (uint16_t)strlen(LV_SYMBOL_RIGHT), arrow_sty
 297              		.loc 1 702 0
 298 015a ADB2     		uxth	r5, r5
 705:..\..\..\lvgl\version_6.1.2\lvgl\src\lv_objx/lv_calendar.c **** }
 299              		.loc 1 705 0
 300 015c 3246     		mov	r2, r6
 301 015e 5146     		mov	r1, r10
 302 0160 3B46     		mov	r3, r7
 303 0162 CDF81480 		str	r8, [sp, #20]
 702:..\..\..\lvgl\version_6.1.2\lvgl\src\lv_objx/lv_calendar.c ****                      lv_txt_get_width(LV_SYMBOL_RIGHT, (uint16_t)strlen(LV_SYMBOL_RIGHT), arrow_sty
 304              		.loc 1 702 0
 305 0166 2D1A     		subs	r5, r5, r0
 705:..\..\..\lvgl\version_6.1.2\lvgl\src\lv_objx/lv_calendar.c **** }
 306              		.loc 1 705 0
 307 0168 CDF80090 		str	r9, [sp]
 308 016c 18A8     		add	r0, sp, #96
 309 016e 0494     		str	r4, [sp, #16]
 310 0170 0394     		str	r4, [sp, #12]
 311 0172 0294     		str	r4, [sp, #8]
 312 0174 0194     		str	r4, [sp, #4]
 702:..\..\..\lvgl\version_6.1.2\lvgl\src\lv_objx/lv_calendar.c ****                      lv_txt_get_width(LV_SYMBOL_RIGHT, (uint16_t)strlen(LV_SYMBOL_RIGHT), arrow_sty
 313              		.loc 1 702 0
 314 0176 ADF86050 		strh	r5, [sp, #96]	@ movhi
 705:..\..\..\lvgl\version_6.1.2\lvgl\src\lv_objx/lv_calendar.c **** }
 315              		.loc 1 705 0
 316 017a FFF7FEFF 		bl	lv_draw_label
 317              	.LVL36:
 318              	.LBE161:
 319              	.LBE160:
 320              	.LBB169:
 321              	.LBB170:
 715:..\..\..\lvgl\version_6.1.2\lvgl\src\lv_objx/lv_calendar.c ****     lv_bidi_dir_t bidi_dir = lv_obj_get_base_dir(calendar);
 322              		.loc 1 715 0
 323 017e 069D     		ldr	r5, [sp, #24]
 324 0180 2846     		mov	r0, r5
 325 0182 FFF7FEFF 		bl	lv_obj_get_ext_attr
 326              	.LVL37:
 327 0186 8246     		mov	r10, r0
 328              	.LVL38:
 716:..\..\..\lvgl\version_6.1.2\lvgl\src\lv_objx/lv_calendar.c ****     lv_opa_t opa_scale      = lv_obj_get_opa_scale(calendar);
 329              		.loc 1 716 0
 330 0188 2846     		mov	r0, r5
 331              	.LVL39:
 332 018a FFF7FEFF 		bl	lv_obj_get_base_dir
 333              	.LVL40:
ARM GAS  C:\Users\pearlstl\AppData\Local\Temp\ccHPSyCj.s 			page 24


 334 018e 0890     		str	r0, [sp, #32]
 335              	.LVL41:
 717:..\..\..\lvgl\version_6.1.2\lvgl\src\lv_objx/lv_calendar.c **** 
 336              		.loc 1 717 0
 337 0190 2846     		mov	r0, r5
 338 0192 FFF7FEFF 		bl	lv_obj_get_opa_scale
 339              	.LVL42:
 719:..\..\..\lvgl\version_6.1.2\lvgl\src\lv_objx/lv_calendar.c ****     lv_coord_t w =
 340              		.loc 1 719 0
 341 0196 DAF82430 		ldr	r3, [r10, #36]
 717:..\..\..\lvgl\version_6.1.2\lvgl\src\lv_objx/lv_calendar.c **** 
 342              		.loc 1 717 0
 343 019a 0990     		str	r0, [sp, #36]
 344              	.LVL43:
 721:..\..\..\lvgl\version_6.1.2\lvgl\src\lv_objx/lv_calendar.c ****     lv_coord_t box_w = w / 7;
 345              		.loc 1 721 0
 346 019c 2846     		mov	r0, r5
 719:..\..\..\lvgl\version_6.1.2\lvgl\src\lv_objx/lv_calendar.c ****     lv_coord_t w =
 347              		.loc 1 719 0
 348 019e B3F92490 		ldrsh	r9, [r3, #36]
 349              	.LVL44:
 721:..\..\..\lvgl\version_6.1.2\lvgl\src\lv_objx/lv_calendar.c ****     lv_coord_t box_w = w / 7;
 350              		.loc 1 721 0
 351 01a2 FFF7FEFF 		bl	lv_obj_get_width
 352              	.LVL45:
 353 01a6 DAF82420 		ldr	r2, [r10, #36]
 720:..\..\..\lvgl\version_6.1.2\lvgl\src\lv_objx/lv_calendar.c ****         lv_obj_get_width(calendar) - ext->style_day_names->body.padding.left - ext->style_day_names
 354              		.loc 1 720 0
 355 01aa 938C     		ldrh	r3, [r2, #36]
 356 01ac D78C     		ldrh	r7, [r2, #38]
 724:..\..\..\lvgl\version_6.1.2\lvgl\src\lv_objx/lv_calendar.c ****     label_area.y2 = label_area.y1 + lv_font_get_line_height(ext->style_day_names->text.font);
 357              		.loc 1 724 0
 358 01ae 2946     		mov	r1, r5
 720:..\..\..\lvgl\version_6.1.2\lvgl\src\lv_objx/lv_calendar.c ****         lv_obj_get_width(calendar) - ext->style_day_names->body.padding.left - ext->style_day_names
 359              		.loc 1 720 0
 360 01b0 C01A     		subs	r0, r0, r3
 361 01b2 C71B     		subs	r7, r0, r7
 362              	.LBB171:
 363              	.LBB172:
 646:..\..\..\lvgl\version_6.1.2\lvgl\src\lv_objx/lv_calendar.c **** 
 364              		.loc 1 646 0
 365 01b4 0846     		mov	r0, r1
 366              	.LBE172:
 367              	.LBE171:
 724:..\..\..\lvgl\version_6.1.2\lvgl\src\lv_objx/lv_calendar.c ****     label_area.y2 = label_area.y1 + lv_font_get_line_height(ext->style_day_names->text.font);
 368              		.loc 1 724 0
 369 01b6 6D8A     		ldrh	r5, [r5, #18]
 370              	.LBB174:
 371              	.LBB173:
 646:..\..\..\lvgl\version_6.1.2\lvgl\src\lv_objx/lv_calendar.c **** 
 372              		.loc 1 646 0
 373 01b8 0691     		str	r1, [sp, #24]
 374              	.LVL46:
 375 01ba FFF7FEFF 		bl	lv_obj_get_ext_attr
 376              	.LVL47:
 648:..\..\..\lvgl\version_6.1.2\lvgl\src\lv_objx/lv_calendar.c ****            ext->style_header->body.padding.bottom;
 377              		.loc 1 648 0
ARM GAS  C:\Users\pearlstl\AppData\Local\Temp\ccHPSyCj.s 			page 25


 378 01be C369     		ldr	r3, [r0, #28]
 379              	.LBE173:
 380              	.LBE174:
 724:..\..\..\lvgl\version_6.1.2\lvgl\src\lv_objx/lv_calendar.c ****     label_area.y2 = label_area.y1 + lv_font_get_line_height(ext->style_day_names->text.font);
 381              		.loc 1 724 0
 382 01c0 DAF824B0 		ldr	fp, [r10, #36]
 383 01c4 198C     		ldrh	r1, [r3, #32]
 384 01c6 588C     		ldrh	r0, [r3, #34]
 385 01c8 5B6B     		ldr	r3, [r3, #52]
 730:..\..\..\lvgl\version_6.1.2\lvgl\src\lv_objx/lv_calendar.c ****                       NULL, NULL, NULL, bidi_dir);
 386              		.loc 1 730 0
 387 01ca CDF828A0 		str	r10, [sp, #40]
 724:..\..\..\lvgl\version_6.1.2\lvgl\src\lv_objx/lv_calendar.c ****     label_area.y2 = label_area.y1 + lv_font_get_line_height(ext->style_day_names->text.font);
 388              		.loc 1 724 0
 389 01ce 0D44     		add	r5, r5, r1
 390 01d0 BBF82010 		ldrh	r1, [fp, #32]
 391 01d4 1B7A     		ldrb	r3, [r3, #8]	@ zero_extendqisi2
 392 01d6 0544     		add	r5, r5, r0
 393 01d8 2944     		add	r1, r1, r5
 394 01da 0B44     		add	r3, r3, r1
 395 01dc 2949     		ldr	r1, .L125+4
 396 01de DBF83400 		ldr	r0, [fp, #52]
 720:..\..\..\lvgl\version_6.1.2\lvgl\src\lv_objx/lv_calendar.c ****         lv_obj_get_width(calendar) - ext->style_day_names->body.padding.left - ext->style_day_names
 397              		.loc 1 720 0
 398 01e2 3FB2     		sxth	r7, r7
 399              	.LVL48:
 724:..\..\..\lvgl\version_6.1.2\lvgl\src\lv_objx/lv_calendar.c ****     label_area.y2 = label_area.y1 + lv_font_get_line_height(ext->style_day_names->text.font);
 400              		.loc 1 724 0
 401 01e4 9BB2     		uxth	r3, r3
 402 01e6 A742     		cmp	r7, r4
 403 01e8 ADF86A30 		strh	r3, [sp, #106]	@ movhi
 404              	.LVL49:
 405 01ec 81FB0721 		smull	r2, r1, r1, r7
 725:..\..\..\lvgl\version_6.1.2\lvgl\src\lv_objx/lv_calendar.c ****     uint32_t i;
 406              		.loc 1 725 0
 407 01f0 007A     		ldrb	r0, [r0, #8]	@ zero_extendqisi2
 408 01f2 3944     		add	r1, r1, r7
 409 01f4 B4BF     		ite	lt
 410 01f6 4FF00008 		movlt	r8, #0
 411 01fa 4FF00108 		movge	r8, #1
 412 01fe C8EBA101 		rsb	r1, r8, r1, asr #2
 413 0202 1FFA89F9 		uxth	r9, r9
 414 0206 1FFA81F8 		uxth	r8, r1
 415 020a 0344     		add	r3, r3, r0
 730:..\..\..\lvgl\version_6.1.2\lvgl\src\lv_objx/lv_calendar.c ****                       NULL, NULL, NULL, bidi_dir);
 416              		.loc 1 730 0
 417 020c CA46     		mov	r10, r9
 418              	.LVL50:
 725:..\..\..\lvgl\version_6.1.2\lvgl\src\lv_objx/lv_calendar.c ****     uint32_t i;
 419              		.loc 1 725 0
 420 020e ADF86E30 		strh	r3, [sp, #110]	@ movhi
 421              	.LVL51:
 730:..\..\..\lvgl\version_6.1.2\lvgl\src\lv_objx/lv_calendar.c ****                       NULL, NULL, NULL, bidi_dir);
 422              		.loc 1 730 0
 423 0212 C146     		mov	r9, r8
 424              	.LVL52:
 725:..\..\..\lvgl\version_6.1.2\lvgl\src\lv_objx/lv_calendar.c ****     uint32_t i;
ARM GAS  C:\Users\pearlstl\AppData\Local\Temp\ccHPSyCj.s 			page 26


 425              		.loc 1 725 0
 426 0214 2546     		mov	r5, r4
 730:..\..\..\lvgl\version_6.1.2\lvgl\src\lv_objx/lv_calendar.c ****                       NULL, NULL, NULL, bidi_dir);
 427              		.loc 1 730 0
 428 0216 B846     		mov	r8, r7
 429 0218 2646     		mov	r6, r4
 430 021a 069F     		ldr	r7, [sp, #24]
 431              	.LVL53:
 432 021c 15E0     		b	.L12
 433              	.LVL54:
 434              	.L107:
 435              	.LBB175:
 436              	.LBB176:
 911:..\..\..\lvgl\version_6.1.2\lvgl\src\lv_objx/lv_calendar.c **** }
 437              		.loc 1 911 0
 438 021e E158     		ldr	r1, [r4, r3]
 439              	.LVL55:
 440              	.LBE176:
 441              	.LBE175:
 730:..\..\..\lvgl\version_6.1.2\lvgl\src\lv_objx/lv_calendar.c ****                       NULL, NULL, NULL, bidi_dir);
 442              		.loc 1 730 0
 443 0220 089A     		ldr	r2, [sp, #32]
 444 0222 0592     		str	r2, [sp, #20]
 445 0224 0423     		movs	r3, #4
 446 0226 0091     		str	r1, [sp]
 447 0228 1C44     		add	r4, r4, r3
 448 022a 0193     		str	r3, [sp, #4]
 449 022c 0496     		str	r6, [sp, #16]
 450 022e 0396     		str	r6, [sp, #12]
 451 0230 0296     		str	r6, [sp, #8]
 452 0232 5A46     		mov	r2, fp
 453 0234 099B     		ldr	r3, [sp, #36]
 454 0236 0799     		ldr	r1, [sp, #28]
 455 0238 1AA8     		add	r0, sp, #104
 456 023a FFF7FEFF 		bl	lv_draw_label
 457              	.LVL56:
 727:..\..\..\lvgl\version_6.1.2\lvgl\src\lv_objx/lv_calendar.c ****         label_area.x1 = calendar->coords.x1 + (w * i) / 7 + l_pad;
 458              		.loc 1 727 0
 459 023e 1C2C     		cmp	r4, #28
 460 0240 4544     		add	r5, r5, r8
 461 0242 27D0     		beq	.L11
 462 0244 0A9B     		ldr	r3, [sp, #40]
 463 0246 D3F824B0 		ldr	fp, [r3, #36]
 464              	.L12:
 728:..\..\..\lvgl\version_6.1.2\lvgl\src\lv_objx/lv_calendar.c ****         label_area.x2 = label_area.x1 + box_w - 1;
 465              		.loc 1 728 0
 466 024a 0F4B     		ldr	r3, .L125+8
 467 024c 398A     		ldrh	r1, [r7, #16]
 468 024e A3FB0523 		umull	r2, r3, r3, r5
 469 0252 E81A     		subs	r0, r5, r3
 470 0254 03EB5000 		add	r0, r3, r0, lsr #1
 471 0258 0AEB0103 		add	r3, r10, r1
 472 025c 03EB9003 		add	r3, r3, r0, lsr #2
 473 0260 9BB2     		uxth	r3, r3
 729:..\..\..\lvgl\version_6.1.2\lvgl\src\lv_objx/lv_calendar.c ****         lv_draw_label(&label_area, mask, ext->style_day_names, opa_scale, get_day_name(calendar, i)
 474              		.loc 1 729 0
 475 0262 03EB0901 		add	r1, r3, r9
ARM GAS  C:\Users\pearlstl\AppData\Local\Temp\ccHPSyCj.s 			page 27


 476              	.LBB179:
 477              	.LBB177:
 907:..\..\..\lvgl\version_6.1.2\lvgl\src\lv_objx/lv_calendar.c ****     if(ext->day_names)
 478              		.loc 1 907 0
 479 0266 3846     		mov	r0, r7
 480              	.LBE177:
 481              	.LBE179:
 728:..\..\..\lvgl\version_6.1.2\lvgl\src\lv_objx/lv_calendar.c ****         label_area.x2 = label_area.x1 + box_w - 1;
 482              		.loc 1 728 0
 483 0268 ADF86830 		strh	r3, [sp, #104]	@ movhi
 729:..\..\..\lvgl\version_6.1.2\lvgl\src\lv_objx/lv_calendar.c ****         lv_draw_label(&label_area, mask, ext->style_day_names, opa_scale, get_day_name(calendar, i)
 484              		.loc 1 729 0
 485 026c ADF86C10 		strh	r1, [sp, #108]	@ movhi
 486              	.LVL57:
 487              	.LBB180:
 488              	.LBB178:
 907:..\..\..\lvgl\version_6.1.2\lvgl\src\lv_objx/lv_calendar.c ****     if(ext->day_names)
 489              		.loc 1 907 0
 490 0270 FFF7FEFF 		bl	lv_obj_get_ext_attr
 491              	.LVL58:
 908:..\..\..\lvgl\version_6.1.2\lvgl\src\lv_objx/lv_calendar.c ****         return ext->day_names[day];
 492              		.loc 1 908 0
 493 0274 4369     		ldr	r3, [r0, #20]
 494 0276 002B     		cmp	r3, #0
 495 0278 D1D1     		bne	.L107
 911:..\..\..\lvgl\version_6.1.2\lvgl\src\lv_objx/lv_calendar.c **** }
 496              		.loc 1 911 0
 497 027a 044B     		ldr	r3, .L125+12
 498 027c CFE7     		b	.L107
 499              	.L126:
 500 027e 00BF     		.align	2
 501              	.L125:
 502 0280 00000000 		.word	.LC0
 503 0284 93244992 		.word	-1840700269
 504 0288 25499224 		.word	613566757
 505 028c 30000000 		.word	.LANCHOR1+48
 506 0290 04000000 		.word	.LC1
 507              	.LVL59:
 508              	.L11:
 509              	.LBE178:
 510              	.LBE180:
 511              	.LBE170:
 512              	.LBE169:
 513              	.LBB181:
 514              	.LBB182:
 742:..\..\..\lvgl\version_6.1.2\lvgl\src\lv_objx/lv_calendar.c ****     lv_bidi_dir_t bidi_dir = lv_obj_get_base_dir(calendar);
 515              		.loc 1 742 0
 516 0294 069C     		ldr	r4, [sp, #24]
 517 0296 2046     		mov	r0, r4
 518 0298 FFF7FEFF 		bl	lv_obj_get_ext_attr
 519              	.LVL60:
 520 029c 8046     		mov	r8, r0
 521              	.LVL61:
 743:..\..\..\lvgl\version_6.1.2\lvgl\src\lv_objx/lv_calendar.c ****     const lv_style_t * style_bg = lv_calendar_get_style(calendar, LV_CALENDAR_STYLE_BG);
 522              		.loc 1 743 0
 523 029e 2046     		mov	r0, r4
 524              	.LVL62:
ARM GAS  C:\Users\pearlstl\AppData\Local\Temp\ccHPSyCj.s 			page 28


 525 02a0 FFF7FEFF 		bl	lv_obj_get_base_dir
 526              	.LVL63:
 527 02a4 0C90     		str	r0, [sp, #48]
 528              	.LVL64:
 529              	.LBB183:
 530              	.LBB184:
 416:..\..\..\lvgl\version_6.1.2\lvgl\src\lv_objx/lv_calendar.c **** 
 531              		.loc 1 416 0
 532 02a6 2046     		mov	r0, r4
 533 02a8 FFF7FEFF 		bl	lv_obj_get_ext_attr
 534              	.LVL65:
 419:..\..\..\lvgl\version_6.1.2\lvgl\src\lv_objx/lv_calendar.c ****         case LV_CALENDAR_STYLE_HEADER: style = ext->style_header; break;
 535              		.loc 1 419 0
 536 02ac 2046     		mov	r0, r4
 537 02ae FFF7FEFF 		bl	lv_obj_get_style
 538              	.LVL66:
 539 02b2 8146     		mov	r9, r0
 540              	.LBE184:
 541              	.LBE183:
 746:..\..\..\lvgl\version_6.1.2\lvgl\src\lv_objx/lv_calendar.c ****     label_area.y1      = calendar->coords.y1 + get_header_height(calendar) + ext->style_day_names->
 542              		.loc 1 746 0
 543 02b4 2046     		mov	r0, r4
 544 02b6 FFF7FEFF 		bl	lv_obj_get_opa_scale
 545              	.LVL67:
 546 02ba 0B90     		str	r0, [sp, #44]
 547              	.LVL68:
 548              	.LBB185:
 549              	.LBB186:
 646:..\..\..\lvgl\version_6.1.2\lvgl\src\lv_objx/lv_calendar.c **** 
 550              		.loc 1 646 0
 551 02bc 2046     		mov	r0, r4
 552 02be A246     		mov	r10, r4
 553              	.LBE186:
 554              	.LBE185:
 747:..\..\..\lvgl\version_6.1.2\lvgl\src\lv_objx/lv_calendar.c ****                     lv_font_get_line_height(ext->style_day_names->text.font) +
 555              		.loc 1 747 0
 556 02c0 0694     		str	r4, [sp, #24]
 557              	.LVL69:
 558 02c2 648A     		ldrh	r4, [r4, #18]
 559              	.LVL70:
 560              	.LBB188:
 561              	.LBB187:
 646:..\..\..\lvgl\version_6.1.2\lvgl\src\lv_objx/lv_calendar.c **** 
 562              		.loc 1 646 0
 563 02c4 FFF7FEFF 		bl	lv_obj_get_ext_attr
 564              	.LVL71:
 648:..\..\..\lvgl\version_6.1.2\lvgl\src\lv_objx/lv_calendar.c ****            ext->style_header->body.padding.bottom;
 565              		.loc 1 648 0
 566 02c8 C369     		ldr	r3, [r0, #28]
 567              	.LVL72:
 568              	.LBE187:
 569              	.LBE188:
 747:..\..\..\lvgl\version_6.1.2\lvgl\src\lv_objx/lv_calendar.c ****                     lv_font_get_line_height(ext->style_day_names->text.font) +
 570              		.loc 1 747 0
 571 02ca D8F82450 		ldr	r5, [r8, #36]
 572              	.LVL73:
 573 02ce 188C     		ldrh	r0, [r3, #32]
ARM GAS  C:\Users\pearlstl\AppData\Local\Temp\ccHPSyCj.s 			page 29


 574 02d0 598C     		ldrh	r1, [r3, #34]
 575 02d2 5E6B     		ldr	r6, [r3, #52]
 576 02d4 2A8C     		ldrh	r2, [r5, #32]
 577 02d6 6B8C     		ldrh	r3, [r5, #34]
 578 02d8 6D6B     		ldr	r5, [r5, #52]
 579              	.LVL74:
 580 02da 377A     		ldrb	r7, [r6, #8]	@ zero_extendqisi2
 581 02dc 2E7A     		ldrb	r6, [r5, #8]	@ zero_extendqisi2
 582 02de D9F83450 		ldr	r5, [r9, #52]
 583              	.LVL75:
 584 02e2 2044     		add	r0, r0, r4
 585 02e4 0844     		add	r0, r0, r1
 586 02e6 0244     		add	r2, r2, r0
 587 02e8 1344     		add	r3, r3, r2
 588 02ea 3B44     		add	r3, r3, r7
 589 02ec 3344     		add	r3, r3, r6
 590 02ee 9BB2     		uxth	r3, r3
 591 02f0 ADF86230 		strh	r3, [sp, #98]	@ movhi
 592              	.LVL76:
 750:..\..\..\lvgl\version_6.1.2\lvgl\src\lv_objx/lv_calendar.c **** 
 593              		.loc 1 750 0
 594 02f4 2A7A     		ldrb	r2, [r5, #8]	@ zero_extendqisi2
 595              	.LBB189:
 596              	.LBB190:
 931:..\..\..\lvgl\version_6.1.2\lvgl\src\lv_objx/lv_calendar.c **** }
 932:..\..\..\lvgl\version_6.1.2\lvgl\src\lv_objx/lv_calendar.c **** 
 933:..\..\..\lvgl\version_6.1.2\lvgl\src\lv_objx/lv_calendar.c **** /**
 934:..\..\..\lvgl\version_6.1.2\lvgl\src\lv_objx/lv_calendar.c ****  * Get the number of days in a month
 935:..\..\..\lvgl\version_6.1.2\lvgl\src\lv_objx/lv_calendar.c ****  * @param year a year
 936:..\..\..\lvgl\version_6.1.2\lvgl\src\lv_objx/lv_calendar.c ****  * @param month a month. The range is basically [1..12] but [-11..1] is also supported to handle
 937:..\..\..\lvgl\version_6.1.2\lvgl\src\lv_objx/lv_calendar.c ****  * previous year
 938:..\..\..\lvgl\version_6.1.2\lvgl\src\lv_objx/lv_calendar.c ****  * @return [28..31]
 939:..\..\..\lvgl\version_6.1.2\lvgl\src\lv_objx/lv_calendar.c ****  */
 940:..\..\..\lvgl\version_6.1.2\lvgl\src\lv_objx/lv_calendar.c **** static uint8_t get_month_length(int32_t year, int32_t month)
 941:..\..\..\lvgl\version_6.1.2\lvgl\src\lv_objx/lv_calendar.c **** {
 942:..\..\..\lvgl\version_6.1.2\lvgl\src\lv_objx/lv_calendar.c ****     month--; /*Range of months id [1..12] but range of indexes is [0..11]*/
 943:..\..\..\lvgl\version_6.1.2\lvgl\src\lv_objx/lv_calendar.c ****     if(month < 0) {
 944:..\..\..\lvgl\version_6.1.2\lvgl\src\lv_objx/lv_calendar.c ****         year--;             /*Already in the previous year (won't be less then -12 to skip a whole 
 945:..\..\..\lvgl\version_6.1.2\lvgl\src\lv_objx/lv_calendar.c ****         month = 12 + month; /*`month` is negative, the result will be < 12*/
 946:..\..\..\lvgl\version_6.1.2\lvgl\src\lv_objx/lv_calendar.c ****     }
 947:..\..\..\lvgl\version_6.1.2\lvgl\src\lv_objx/lv_calendar.c ****     if(month >= 12) {
 948:..\..\..\lvgl\version_6.1.2\lvgl\src\lv_objx/lv_calendar.c ****         year++;
 949:..\..\..\lvgl\version_6.1.2\lvgl\src\lv_objx/lv_calendar.c ****         month -= 12;
 950:..\..\..\lvgl\version_6.1.2\lvgl\src\lv_objx/lv_calendar.c ****     }
 951:..\..\..\lvgl\version_6.1.2\lvgl\src\lv_objx/lv_calendar.c **** 
 952:..\..\..\lvgl\version_6.1.2\lvgl\src\lv_objx/lv_calendar.c ****     /*month == 1 is february*/
 953:..\..\..\lvgl\version_6.1.2\lvgl\src\lv_objx/lv_calendar.c ****     return (month == 1) ? (28 + is_leap_year(year)) : 31 - month % 7 % 2;
 954:..\..\..\lvgl\version_6.1.2\lvgl\src\lv_objx/lv_calendar.c **** }
 955:..\..\..\lvgl\version_6.1.2\lvgl\src\lv_objx/lv_calendar.c **** 
 956:..\..\..\lvgl\version_6.1.2\lvgl\src\lv_objx/lv_calendar.c **** /**
 957:..\..\..\lvgl\version_6.1.2\lvgl\src\lv_objx/lv_calendar.c ****  * Tells whether a year is leap year or not
 958:..\..\..\lvgl\version_6.1.2\lvgl\src\lv_objx/lv_calendar.c ****  * @param year a year
 959:..\..\..\lvgl\version_6.1.2\lvgl\src\lv_objx/lv_calendar.c ****  * @return 0: not leap year; 1: leap year
 960:..\..\..\lvgl\version_6.1.2\lvgl\src\lv_objx/lv_calendar.c ****  */
 961:..\..\..\lvgl\version_6.1.2\lvgl\src\lv_objx/lv_calendar.c **** static uint8_t is_leap_year(uint32_t year)
 962:..\..\..\lvgl\version_6.1.2\lvgl\src\lv_objx/lv_calendar.c **** {
 963:..\..\..\lvgl\version_6.1.2\lvgl\src\lv_objx/lv_calendar.c ****     return (year % 4) || ((year % 100 == 0) && (year % 400)) ? 0 : 1;
ARM GAS  C:\Users\pearlstl\AppData\Local\Temp\ccHPSyCj.s 			page 30


 964:..\..\..\lvgl\version_6.1.2\lvgl\src\lv_objx/lv_calendar.c **** }
 965:..\..\..\lvgl\version_6.1.2\lvgl\src\lv_objx/lv_calendar.c **** 
 966:..\..\..\lvgl\version_6.1.2\lvgl\src\lv_objx/lv_calendar.c **** /**
 967:..\..\..\lvgl\version_6.1.2\lvgl\src\lv_objx/lv_calendar.c ****  * Get the day of the week
 968:..\..\..\lvgl\version_6.1.2\lvgl\src\lv_objx/lv_calendar.c ****  * @param year a year
 969:..\..\..\lvgl\version_6.1.2\lvgl\src\lv_objx/lv_calendar.c ****  * @param month a  month
 970:..\..\..\lvgl\version_6.1.2\lvgl\src\lv_objx/lv_calendar.c ****  * @param day a day
 971:..\..\..\lvgl\version_6.1.2\lvgl\src\lv_objx/lv_calendar.c ****  * @return [0..6] which means [Sun..Sat]
 972:..\..\..\lvgl\version_6.1.2\lvgl\src\lv_objx/lv_calendar.c ****  */
 973:..\..\..\lvgl\version_6.1.2\lvgl\src\lv_objx/lv_calendar.c **** static uint8_t get_day_of_week(uint32_t year, uint32_t month, uint32_t day)
 974:..\..\..\lvgl\version_6.1.2\lvgl\src\lv_objx/lv_calendar.c **** {
 975:..\..\..\lvgl\version_6.1.2\lvgl\src\lv_objx/lv_calendar.c ****     uint32_t a = month < 3 ? 1 : 0;
 976:..\..\..\lvgl\version_6.1.2\lvgl\src\lv_objx/lv_calendar.c ****     uint32_t b = year - a;
 977:..\..\..\lvgl\version_6.1.2\lvgl\src\lv_objx/lv_calendar.c **** 
 978:..\..\..\lvgl\version_6.1.2\lvgl\src\lv_objx/lv_calendar.c ****     uint32_t day_of_week = (day + (31 * (month - 2 + 12 * a) / 12) + b + (b / 4) - (b / 100) + (b /
 597              		.loc 1 978 0
 598 02f6 C24D     		ldr	r5, .L127
 599 02f8 C24E     		ldr	r6, .L127+4
 600              	.LBE190:
 601              	.LBE189:
 750:..\..\..\lvgl\version_6.1.2\lvgl\src\lv_objx/lv_calendar.c **** 
 602              		.loc 1 750 0
 603 02fa 1344     		add	r3, r3, r2
 752:..\..\..\lvgl\version_6.1.2\lvgl\src\lv_objx/lv_calendar.c ****     lv_coord_t h          = calendar->coords.y2 - label_area.y1 - style_bg->body.padding.bottom;
 604              		.loc 1 752 0
 605 02fc 5046     		mov	r0, r10
 750:..\..\..\lvgl\version_6.1.2\lvgl\src\lv_objx/lv_calendar.c **** 
 606              		.loc 1 750 0
 607 02fe ADF86630 		strh	r3, [sp, #102]	@ movhi
 608              	.LVL77:
 752:..\..\..\lvgl\version_6.1.2\lvgl\src\lv_objx/lv_calendar.c ****     lv_coord_t h          = calendar->coords.y2 - label_area.y1 - style_bg->body.padding.bottom;
 609              		.loc 1 752 0
 610 0302 FFF7FEFF 		bl	lv_obj_get_width
 611              	.LVL78:
 759:..\..\..\lvgl\version_6.1.2\lvgl\src\lv_objx/lv_calendar.c ****     day_draw_state_t draw_state; /*true: Not the prev. or next month is drawn*/
 612              		.loc 1 759 0
 613 0306 98F90630 		ldrsb	r3, [r8, #6]
 752:..\..\..\lvgl\version_6.1.2\lvgl\src\lv_objx/lv_calendar.c ****     lv_coord_t h          = calendar->coords.y2 - label_area.y1 - style_bg->body.padding.bottom;
 614              		.loc 1 752 0
 615 030a CDF82090 		str	r9, [sp, #32]
 759:..\..\..\lvgl\version_6.1.2\lvgl\src\lv_objx/lv_calendar.c ****     day_draw_state_t draw_state; /*true: Not the prev. or next month is drawn*/
 616              		.loc 1 759 0
 617 030e 1F46     		mov	r7, r3
 752:..\..\..\lvgl\version_6.1.2\lvgl\src\lv_objx/lv_calendar.c ****     lv_coord_t h          = calendar->coords.y2 - label_area.y1 - style_bg->body.padding.bottom;
 618              		.loc 1 752 0
 619 0310 5446     		mov	r4, r10
 620              	.LBB200:
 621              	.LBB191:
 975:..\..\..\lvgl\version_6.1.2\lvgl\src\lv_objx/lv_calendar.c ****     uint32_t b = year - a;
 622              		.loc 1 975 0
 623 0312 022F     		cmp	r7, #2
 624 0314 D9F83430 		ldr	r3, [r9, #52]
 625              	.LBE191:
 626              	.LBE200:
 752:..\..\..\lvgl\version_6.1.2\lvgl\src\lv_objx/lv_calendar.c ****     lv_coord_t h          = calendar->coords.y2 - label_area.y1 - style_bg->body.padding.bottom;
 627              		.loc 1 752 0
 628 0318 B9F924A0 		ldrsh	r10, [r9, #36]
ARM GAS  C:\Users\pearlstl\AppData\Local\Temp\ccHPSyCj.s 			page 31


 629              	.LVL79:
 630 031c B9F826B0 		ldrh	fp, [r9, #38]
 759:..\..\..\lvgl\version_6.1.2\lvgl\src\lv_objx/lv_calendar.c ****     day_draw_state_t draw_state; /*true: Not the prev. or next month is drawn*/
 631              		.loc 1 759 0
 632 0320 B8F804E0 		ldrh	lr, [r8, #4]
 755:..\..\..\lvgl\version_6.1.2\lvgl\src\lv_objx/lv_calendar.c **** 
 633              		.loc 1 755 0
 634 0324 B4F81690 		ldrh	r9, [r4, #22]
 635 0328 1A7A     		ldrb	r2, [r3, #8]	@ zero_extendqisi2
 636              	.LBB201:
 637              	.LBB192:
 638              		.loc 1 978 0
 639 032a 0997     		str	r7, [sp, #36]
 975:..\..\..\lvgl\version_6.1.2\lvgl\src\lv_objx/lv_calendar.c ****     uint32_t b = year - a;
 640              		.loc 1 975 0
 641 032c 3C46     		mov	r4, r7
 642              	.LVL80:
 643 032e 8CBF     		ite	hi
 644 0330 0024     		movhi	r4, #0
 645 0332 0124     		movls	r4, #1
 646              		.loc 1 978 0
 647 0334 6300     		lsls	r3, r4, #1
 648 0336 2344     		add	r3, r3, r4
 976:..\..\..\lvgl\version_6.1.2\lvgl\src\lv_objx/lv_calendar.c **** 
 649              		.loc 1 976 0
 650 0338 C4EB0E04 		rsb	r4, r4, lr
 651              		.loc 1 978 0
 652 033c 07EB8303 		add	r3, r7, r3, lsl #2
 653 0340 611C     		adds	r1, r4, #1
 654 0342 A5FB0475 		umull	r7, r5, r5, r4
 655 0346 01EB9401 		add	r1, r1, r4, lsr #2
 656 034a C3EB4313 		rsb	r3, r3, r3, lsl #5
 657 034e 01EBD511 		add	r1, r1, r5, lsr #7
 658 0352 3E3B     		subs	r3, r3, #62
 659 0354 A6FB0343 		umull	r4, r3, r6, r3
 660 0358 A1EB5511 		sub	r1, r1, r5, lsr #5
 661 035c DFF8B4C2 		ldr	ip, .L127+20
 662              	.LBE192:
 663              	.LBE201:
 755:..\..\..\lvgl\version_6.1.2\lvgl\src\lv_objx/lv_calendar.c **** 
 664              		.loc 1 755 0
 665 0360 BDF86260 		ldrh	r6, [sp, #98]
 666              	.LBB202:
 667              	.LBB193:
 668              		.loc 1 978 0
 669 0364 01EBD303 		add	r3, r1, r3, lsr #3
 670              	.LBE193:
 671              	.LBE202:
 752:..\..\..\lvgl\version_6.1.2\lvgl\src\lv_objx/lv_calendar.c ****     lv_coord_t h          = calendar->coords.y2 - label_area.y1 - style_bg->body.padding.bottom;
 672              		.loc 1 752 0
 673 0368 CAEB0000 		rsb	r0, r10, r0
 674              	.LBB203:
 675              	.LBB194:
 676              		.loc 1 978 0
 677 036c A3FB0C45 		umull	r4, r5, r3, ip
 678              	.LBE194:
 679              	.LBE203:
ARM GAS  C:\Users\pearlstl\AppData\Local\Temp\ccHPSyCj.s 			page 32


 752:..\..\..\lvgl\version_6.1.2\lvgl\src\lv_objx/lv_calendar.c ****     lv_coord_t h          = calendar->coords.y2 - label_area.y1 - style_bg->body.padding.bottom;
 680              		.loc 1 752 0
 681 0370 CBEB0004 		rsb	r4, fp, r0
 682 0374 27B2     		sxth	r7, r4
 755:..\..\..\lvgl\version_6.1.2\lvgl\src\lv_objx/lv_calendar.c **** 
 683              		.loc 1 755 0
 684 0376 A2EB8204 		sub	r4, r2, r2, lsl #2
 685 037a 089A     		ldr	r2, [sp, #32]
 754:..\..\..\lvgl\version_6.1.2\lvgl\src\lv_objx/lv_calendar.c ****     lv_coord_t vert_space = (h - (6 * lv_font_get_line_height(style_bg->text.font))) / 5;
 686              		.loc 1 754 0
 687 037c A249     		ldr	r1, .L127+8
 755:..\..\..\lvgl\version_6.1.2\lvgl\src\lv_objx/lv_calendar.c **** 
 688              		.loc 1 755 0
 689 037e 528C     		ldrh	r2, [r2, #34]
 752:..\..\..\lvgl\version_6.1.2\lvgl\src\lv_objx/lv_calendar.c ****     lv_coord_t h          = calendar->coords.y2 - label_area.y1 - style_bg->body.padding.bottom;
 690              		.loc 1 752 0
 691 0380 0D97     		str	r7, [sp, #52]
 692              	.LVL81:
 693              	.LBB204:
 694              	.LBB195:
 695              		.loc 1 978 0
 696 0382 581B     		subs	r0, r3, r5
 697 0384 05EB5000 		add	r0, r5, r0, lsr #1
 698              	.LBE195:
 699              	.LBE204:
 755:..\..\..\lvgl\version_6.1.2\lvgl\src\lv_objx/lv_calendar.c **** 
 700              		.loc 1 755 0
 701 0388 C6EB0906 		rsb	r6, r6, r9
 702 038c B61A     		subs	r6, r6, r2
 703              	.LBB205:
 704              	.LBB196:
 705              		.loc 1 978 0
 706 038e 8208     		lsrs	r2, r0, #2
 707              	.LBE196:
 708              	.LBE205:
 754:..\..\..\lvgl\version_6.1.2\lvgl\src\lv_objx/lv_calendar.c ****     lv_coord_t vert_space = (h - (6 * lv_font_get_line_height(style_bg->text.font))) / 5;
 709              		.loc 1 754 0
 710 0390 3D46     		mov	r5, r7
 711              	.LBB206:
 712              	.LBB197:
 713              		.loc 1 978 0
 714 0392 1392     		str	r2, [sp, #76]
 715              	.LBE197:
 716              	.LBE206:
 754:..\..\..\lvgl\version_6.1.2\lvgl\src\lv_objx/lv_calendar.c ****     lv_coord_t vert_space = (h - (6 * lv_font_get_line_height(style_bg->text.font))) / 5;
 717              		.loc 1 754 0
 718 0394 81FB0551 		smull	r5, r1, r1, r5
 719              	.LBB207:
 720              	.LBB198:
 721              		.loc 1 978 0
 722 0398 139A     		ldr	r2, [sp, #76]
 723              	.LBE198:
 724              	.LBE207:
 755:..\..\..\lvgl\version_6.1.2\lvgl\src\lv_objx/lv_calendar.c **** 
 725              		.loc 1 755 0
 726 039a 9C4D     		ldr	r5, .L127+12
 727 039c 6400     		lsls	r4, r4, #1
ARM GAS  C:\Users\pearlstl\AppData\Local\Temp\ccHPSyCj.s 			page 33


 754:..\..\..\lvgl\version_6.1.2\lvgl\src\lv_objx/lv_calendar.c ****     lv_coord_t vert_space = (h - (6 * lv_font_get_line_height(style_bg->text.font))) / 5;
 728              		.loc 1 754 0
 729 039e F817     		asrs	r0, r7, #31
 755:..\..\..\lvgl\version_6.1.2\lvgl\src\lv_objx/lv_calendar.c **** 
 730              		.loc 1 755 0
 731 03a0 04FA86F4 		sxtah	r4, r4, r6
 754:..\..\..\lvgl\version_6.1.2\lvgl\src\lv_objx/lv_calendar.c ****     lv_coord_t vert_space = (h - (6 * lv_font_get_line_height(style_bg->text.font))) / 5;
 732              		.loc 1 754 0
 733 03a4 3944     		add	r1, r1, r7
 734 03a6 C0EBA101 		rsb	r1, r0, r1, asr #2
 735              	.LBB208:
 736              	.LBB199:
 737              		.loc 1 978 0
 738 03aa C2EBC202 		rsb	r2, r2, r2, lsl #3
 739              	.LBE199:
 740              	.LBE208:
 755:..\..\..\lvgl\version_6.1.2\lvgl\src\lv_objx/lv_calendar.c **** 
 741              		.loc 1 755 0
 742 03ae 85FB0405 		smull	r0, r5, r5, r4
 743 03b2 E417     		asrs	r4, r4, #31
 754:..\..\..\lvgl\version_6.1.2\lvgl\src\lv_objx/lv_calendar.c ****     lv_coord_t vert_space = (h - (6 * lv_font_get_line_height(style_bg->text.font))) / 5;
 744              		.loc 1 754 0
 745 03b4 08B2     		sxth	r0, r1
 746              	.LVL82:
 764:..\..\..\lvgl\version_6.1.2\lvgl\src\lv_objx/lv_calendar.c ****         day_cnt    = 1;
 747              		.loc 1 764 0
 748 03b6 9B1A     		subs	r3, r3, r2
 755:..\..\..\lvgl\version_6.1.2\lvgl\src\lv_objx/lv_calendar.c **** 
 749              		.loc 1 755 0
 750 03b8 C4EB6501 		rsb	r1, r4, r5, asr #1
 751 03bc 1591     		str	r1, [sp, #84]
 752              	.LVL83:
 764:..\..\..\lvgl\version_6.1.2\lvgl\src\lv_objx/lv_calendar.c ****         day_cnt    = 1;
 753              		.loc 1 764 0
 754 03be 1393     		str	r3, [sp, #76]
 755 03c0 00F0D780 		beq	.L64
 756              	.LVL84:
 757              	.LBB209:
 758              	.LBB210:
 943:..\..\..\lvgl\version_6.1.2\lvgl\src\lv_objx/lv_calendar.c ****         year--;             /*Already in the previous year (won't be less then -12 to skip a whole 
 759              		.loc 1 943 0
 760 03c4 099B     		ldr	r3, [sp, #36]
 761 03c6 991E     		subs	r1, r3, #2
 762              	.LVL85:
 945:..\..\..\lvgl\version_6.1.2\lvgl\src\lv_objx/lv_calendar.c ****     }
 763              		.loc 1 945 0
 764 03c8 44BF     		itt	mi
 765 03ca 0C31     		addmi	r1, r1, #12
 766              	.LVL86:
 944:..\..\..\lvgl\version_6.1.2\lvgl\src\lv_objx/lv_calendar.c ****         month = 12 + month; /*`month` is negative, the result will be < 12*/
 767              		.loc 1 944 0
 768 03cc 0EF1FF3E 		addmi	lr, lr, #-1
 769              	.LVL87:
 947:..\..\..\lvgl\version_6.1.2\lvgl\src\lv_objx/lv_calendar.c ****         year++;
 770              		.loc 1 947 0
 771 03d0 0B29     		cmp	r1, #11
 949:..\..\..\lvgl\version_6.1.2\lvgl\src\lv_objx/lv_calendar.c ****     }
ARM GAS  C:\Users\pearlstl\AppData\Local\Temp\ccHPSyCj.s 			page 34


 772              		.loc 1 949 0
 773 03d2 C4BF     		itt	gt
 774 03d4 0C39     		subgt	r1, r1, #12
 775              	.LVL88:
 948:..\..\..\lvgl\version_6.1.2\lvgl\src\lv_objx/lv_calendar.c ****         month -= 12;
 776              		.loc 1 948 0
 777 03d6 0EF1010E 		addgt	lr, lr, #1
 778              	.LVL89:
 953:..\..\..\lvgl\version_6.1.2\lvgl\src\lv_objx/lv_calendar.c **** }
 779              		.loc 1 953 0
 780 03da 0129     		cmp	r1, #1
 781 03dc 00F04182 		beq	.L114
 782 03e0 894A     		ldr	r2, .L127+8
 783 03e2 8B4C     		ldr	r4, .L127+16
 784 03e4 81FB0223 		smull	r2, r3, r1, r2
 785 03e8 CA18     		adds	r2, r1, r3
 786 03ea CB17     		asrs	r3, r1, #31
 787 03ec C3EBA203 		rsb	r3, r3, r2, asr #2
 788 03f0 C3EBC303 		rsb	r3, r3, r3, lsl #3
 789 03f4 C91A     		subs	r1, r1, r3
 790              	.LVL90:
 791 03f6 0C40     		ands	r4, r4, r1
 792 03f8 002C     		cmp	r4, #0
 793 03fa C0F24A82 		blt	.L115
 794              	.L19:
 795 03fe C4F11F03 		rsb	r3, r4, #31
 796 0402 DBB2     		uxtb	r3, r3
 797              	.LVL91:
 798              	.L18:
 799              	.LBE210:
 800              	.LBE209:
 771:..\..\..\lvgl\version_6.1.2\lvgl\src\lv_objx/lv_calendar.c ****         act_style = ext->style_inactive_days;
 801              		.loc 1 771 0
 802 0404 139A     		ldr	r2, [sp, #76]
 803 0406 C2F10102 		rsb	r2, r2, #1
 804 040a 1344     		add	r3, r3, r2
 805 040c 5FFA83FB 		uxtb	fp, r3
 806              	.LVL92:
 772:..\..\..\lvgl\version_6.1.2\lvgl\src\lv_objx/lv_calendar.c ****     }
 807              		.loc 1 772 0
 808 0410 D8F82C30 		ldr	r3, [r8, #44]
 809 0414 0F93     		str	r3, [sp, #60]
 810              	.LVL93:
 769:..\..\..\lvgl\version_6.1.2\lvgl\src\lv_objx/lv_calendar.c ****         day_cnt = get_month_length(ext->showed_date.year, ext->showed_date.month - 1); /*Length of 
 811              		.loc 1 769 0
 812 0416 0024     		movs	r4, #0
 813              	.LVL94:
 814              	.L13:
 776:..\..\..\lvgl\version_6.1.2\lvgl\src\lv_objx/lv_calendar.c ****         month_of_today_shown = true;
 815              		.loc 1 776 0
 816 0418 D8F80020 		ldr	r2, [r8]
 817 041c D8F80410 		ldr	r1, [r8, #4]
 818 0420 22F07F42 		bic	r2, r2, #-16777216
 819 0424 21F07F41 		bic	r1, r1, #-16777216
 820 0428 0A92     		str	r2, [sp, #40]
 821              	.LVL95:
 822 042a 0991     		str	r1, [sp, #36]
ARM GAS  C:\Users\pearlstl\AppData\Local\Temp\ccHPSyCj.s 			page 35


 823              	.LVL96:
 824 042c 0A46     		mov	r2, r1
 825              	.LVL97:
 826              	.LBB216:
 787:..\..\..\lvgl\version_6.1.2\lvgl\src\lv_objx/lv_calendar.c ****            ((draw_state == DAY_DRAW_ACT_MONTH && ext->today.day >= day_cnt && ext->today.day < day_
 827              		.loc 1 787 0
 828 042e 0A99     		ldr	r1, [sp, #40]
 829              	.LBE216:
 784:..\..\..\lvgl\version_6.1.2\lvgl\src\lv_objx/lv_calendar.c **** 
 830              		.loc 1 784 0
 831 0430 0023     		movs	r3, #0
 832 0432 0138     		subs	r0, r0, #1
 833              	.LVL98:
 834 0434 1493     		str	r3, [sp, #80]
 835              	.LVL99:
 836              	.LBB257:
 787:..\..\..\lvgl\version_6.1.2\lvgl\src\lv_objx/lv_calendar.c ****            ((draw_state == DAY_DRAW_ACT_MONTH && ext->today.day >= day_cnt && ext->today.day < day_
 837              		.loc 1 787 0
 838 0436 8A42     		cmp	r2, r1
 839 0438 83B2     		uxth	r3, r0
 840 043a 0E93     		str	r3, [sp, #56]
 841              	.LBE257:
 776:..\..\..\lvgl\version_6.1.2\lvgl\src\lv_objx/lv_calendar.c ****         month_of_today_shown = true;
 842              		.loc 1 776 0
 843 043c 5346     		mov	r3, r10
 844              	.LBB258:
 787:..\..\..\lvgl\version_6.1.2\lvgl\src\lv_objx/lv_calendar.c ****            ((draw_state == DAY_DRAW_ACT_MONTH && ext->today.day >= day_cnt && ext->today.day < day_
 845              		.loc 1 787 0
 846 043e 40F07081 		bne	.L70
 847              	.LVL100:
 848              	.L124:
 849 0442 012C     		cmp	r4, #1
 850 0444 00F0AD81 		beq	.L116
 788:..\..\..\lvgl\version_6.1.2\lvgl\src\lv_objx/lv_calendar.c ****             (draw_state == DAY_DRAW_PREV_MONTH && ext->today.day <= 7 - month_start_day && week == 
 851              		.loc 1 788 0
 852 0448 002C     		cmp	r4, #0
 853 044a 40F06A81 		bne	.L70
 789:..\..\..\lvgl\version_6.1.2\lvgl\src\lv_objx/lv_calendar.c ****             lv_area_t week_box_area;
 854              		.loc 1 789 0
 855 044e 139A     		ldr	r2, [sp, #76]
 856 0450 98F90310 		ldrsb	r1, [r8, #3]
 857 0454 C2F10702 		rsb	r2, r2, #7
 858 0458 9142     		cmp	r1, r2
 859 045a 03DC     		bgt	.L72
 860 045c 149A     		ldr	r2, [sp, #80]
 861 045e 002A     		cmp	r2, #0
 862 0460 00F0A781 		beq	.L22
 863              	.L72:
 803:..\..\..\lvgl\version_6.1.2\lvgl\src\lv_objx/lv_calendar.c ****         }
 864              		.loc 1 803 0
 865 0464 1294     		str	r4, [sp, #72]
 866              	.L20:
 867              	.LVL101:
 868 0466 0025     		movs	r5, #0
 808:..\..\..\lvgl\version_6.1.2\lvgl\src\lv_objx/lv_calendar.c ****             /*The previous month is over*/
 869              		.loc 1 808 0
 870 0468 AA46     		mov	r10, r5
ARM GAS  C:\Users\pearlstl\AppData\Local\Temp\ccHPSyCj.s 			page 36


 871              	.LVL102:
 872              	.LBB217:
 810:..\..\..\lvgl\version_6.1.2\lvgl\src\lv_objx/lv_calendar.c ****                 draw_state = DAY_DRAW_ACT_MONTH;
 873              		.loc 1 810 0
 874 046a 002C     		cmp	r4, #0
 875 046c 78D1     		bne	.L23
 876              	.LVL103:
 877              	.L118:
 878 046e 139A     		ldr	r2, [sp, #76]
 879 0470 5245     		cmp	r2, r10
 880 0472 00F0D180 		beq	.L73
 881 0476 0BF10102 		add	r2, fp, #1
 882 047a 5E46     		mov	r6, fp
 883 047c 5FFA82FB 		uxtb	fp, r2
 884              	.LVL104:
 885              	.L25:
 823:..\..\..\lvgl\version_6.1.2\lvgl\src\lv_objx/lv_calendar.c ****                 calendar->coords.x1 + (w * day) / 7 + style_bg->body.padding.left;
 886              		.loc 1 823 0
 887 0480 644A     		ldr	r2, .L127+20
 888 0482 A2FB0521 		umull	r2, r1, r2, r5
 889 0486 069A     		ldr	r2, [sp, #24]
 890 0488 128A     		ldrh	r2, [r2, #16]
 891 048a 681A     		subs	r0, r5, r1
 892 048c 1344     		add	r3, r3, r2
 893 048e 01EB5001 		add	r1, r1, r0, lsr #1
 894 0492 03EB9103 		add	r3, r3, r1, lsr #2
 825:..\..\..\lvgl\version_6.1.2\lvgl\src\lv_objx/lv_calendar.c **** 
 895              		.loc 1 825 0
 896 0496 0E9A     		ldr	r2, [sp, #56]
 823:..\..\..\lvgl\version_6.1.2\lvgl\src\lv_objx/lv_calendar.c ****                 calendar->coords.x1 + (w * day) / 7 + style_bg->body.padding.left;
 897              		.loc 1 823 0
 898 0498 9BB2     		uxth	r3, r3
 825:..\..\..\lvgl\version_6.1.2\lvgl\src\lv_objx/lv_calendar.c **** 
 899              		.loc 1 825 0
 900 049a 9F18     		adds	r7, r3, r2
 901 049c 3FB2     		sxth	r7, r7
 823:..\..\..\lvgl\version_6.1.2\lvgl\src\lv_objx/lv_calendar.c ****                 calendar->coords.x1 + (w * day) / 7 + style_bg->body.padding.left;
 902              		.loc 1 823 0
 903 049e 1BB2     		sxth	r3, r3
 828:..\..\..\lvgl\version_6.1.2\lvgl\src\lv_objx/lv_calendar.c ****                 lv_area_t today_box_area;
 904              		.loc 1 828 0
 905 04a0 012C     		cmp	r4, #1
 825:..\..\..\lvgl\version_6.1.2\lvgl\src\lv_objx/lv_calendar.c **** 
 906              		.loc 1 825 0
 907 04a2 ADF86470 		strh	r7, [sp, #100]	@ movhi
 823:..\..\..\lvgl\version_6.1.2\lvgl\src\lv_objx/lv_calendar.c ****                 calendar->coords.x1 + (w * day) / 7 + style_bg->body.padding.left;
 908              		.loc 1 823 0
 909 04a6 ADF86030 		strh	r3, [sp, #96]	@ movhi
 828:..\..\..\lvgl\version_6.1.2\lvgl\src\lv_objx/lv_calendar.c ****                 lv_area_t today_box_area;
 910              		.loc 1 828 0
 911 04aa 78D0     		beq	.L117
 841:..\..\..\lvgl\version_6.1.2\lvgl\src\lv_objx/lv_calendar.c ****                is_highlighted(calendar, ext->showed_date.year - (ext->showed_date.month == 1 ? 1 : 
 912              		.loc 1 841 0
 913 04ac 002C     		cmp	r4, #0
 914 04ae 40F0E380 		bne	.L36
 842:..\..\..\lvgl\version_6.1.2\lvgl\src\lv_objx/lv_calendar.c ****                               ext->showed_date.month == 1 ? 12 : ext->showed_date.month - 1, day_cn
 915              		.loc 1 842 0
ARM GAS  C:\Users\pearlstl\AppData\Local\Temp\ccHPSyCj.s 			page 37


 916 04b2 98F90670 		ldrsb	r7, [r8, #6]
 917              	.LBB218:
 918              	.LBB219:
 883:..\..\..\lvgl\version_6.1.2\lvgl\src\lv_objx/lv_calendar.c **** 
 919              		.loc 1 883 0
 920 04b6 0698     		ldr	r0, [sp, #24]
 921              	.LBE219:
 922              	.LBE218:
 842:..\..\..\lvgl\version_6.1.2\lvgl\src\lv_objx/lv_calendar.c ****                               ext->showed_date.month == 1 ? 12 : ext->showed_date.month - 1, day_cn
 923              		.loc 1 842 0
 924 04b8 B8F80490 		ldrh	r9, [r8, #4]
 925              	.LVL105:
 926 04bc 012F     		cmp	r7, #1
 927 04be 14BF     		ite	ne
 928 04c0 07F1FF33 		addne	r3, r7, #-1
 929 04c4 0C23     		moveq	r3, #12
 930 04c6 1093     		str	r3, [sp, #64]
 931              	.LVL106:
 932              	.LBB221:
 933              	.LBB220:
 883:..\..\..\lvgl\version_6.1.2\lvgl\src\lv_objx/lv_calendar.c **** 
 934              		.loc 1 883 0
 935 04c8 FFF7FEFF 		bl	lv_obj_get_ext_attr
 936              	.LVL107:
 885:..\..\..\lvgl\version_6.1.2\lvgl\src\lv_objx/lv_calendar.c **** 
 937              		.loc 1 885 0
 938 04cc D0F808E0 		ldr	lr, [r0, #8]
 939 04d0 BEF1000F 		cmp	lr, #0
 940 04d4 53D0     		beq	.L38
 941 04d6 B0F80EC0 		ldrh	ip, [r0, #14]
 942              	.LVL108:
 888:..\..\..\lvgl\version_6.1.2\lvgl\src\lv_objx/lv_calendar.c ****         if(ext->highlighted_dates[i].year == year && ext->highlighted_dates[i].month == month &&
 943              		.loc 1 888 0
 944 04da BCF1000F 		cmp	ip, #0
 945 04de 4ED0     		beq	.L38
 946 04e0 1194     		str	r4, [sp, #68]
 947 04e2 7246     		mov	r2, lr
 948 04e4 0023     		movs	r3, #0
 949 04e6 109C     		ldr	r4, [sp, #64]
 950              	.LVL109:
 951 04e8 03E0     		b	.L41
 952              	.LVL110:
 953              	.L39:
 954 04ea 6345     		cmp	r3, ip
 955 04ec 02F10402 		add	r2, r2, #4
 956 04f0 44D0     		beq	.L108
 957              	.LVL111:
 958              	.L41:
 889:..\..\..\lvgl\version_6.1.2\lvgl\src\lv_objx/lv_calendar.c ****            ext->highlighted_dates[i].day == day) {
 959              		.loc 1 889 0
 960 04f2 3EF82310 		ldrh	r1, [lr, r3, lsl #2]
 961 04f6 012F     		cmp	r7, #1
 962 04f8 14BF     		ite	ne
 963 04fa 4846     		movne	r0, r9
 964 04fc A9F10100 		subeq	r0, r9, #1
 965 0500 8842     		cmp	r0, r1
 888:..\..\..\lvgl\version_6.1.2\lvgl\src\lv_objx/lv_calendar.c ****         if(ext->highlighted_dates[i].year == year && ext->highlighted_dates[i].month == month &&
ARM GAS  C:\Users\pearlstl\AppData\Local\Temp\ccHPSyCj.s 			page 38


 966              		.loc 1 888 0
 967 0502 03F10103 		add	r3, r3, #1
 968              	.LVL112:
 889:..\..\..\lvgl\version_6.1.2\lvgl\src\lv_objx/lv_calendar.c ****            ext->highlighted_dates[i].day == day) {
 969              		.loc 1 889 0
 970 0506 F0D1     		bne	.L39
 971 0508 92F90210 		ldrsb	r1, [r2, #2]
 972 050c 8C42     		cmp	r4, r1
 973 050e ECD1     		bne	.L39
 974 0510 92F90310 		ldrsb	r1, [r2, #3]
 975 0514 B142     		cmp	r1, r6
 976 0516 E8D1     		bne	.L39
 977              	.LVL113:
 978              	.L50:
 979 0518 119C     		ldr	r4, [sp, #68]
 980              	.L109:
 981              	.LBE220:
 982              	.LBE221:
 851:..\..\..\lvgl\version_6.1.2\lvgl\src\lv_objx/lv_calendar.c ****             } else if(month_of_today_shown && day_cnt == ext->today.day && draw_state == DAY_DRAW_A
 983              		.loc 1 851 0
 984 051a D8F82870 		ldr	r7, [r8, #40]
 985              	.LVL114:
 986              	.L52:
 860:..\..\..\lvgl\version_6.1.2\lvgl\src\lv_objx/lv_calendar.c ****             lv_draw_label(&label_area, mask, final_style, opa_scale, buf, LV_TXT_FLAG_CENTER, NULL,
 987              		.loc 1 860 0
 988 051e 3046     		mov	r0, r6
 989 0520 17A9     		add	r1, sp, #92
 990 0522 FFF7FEFF 		bl	lv_utils_num_to_str
 991              	.LVL115:
 861:..\..\..\lvgl\version_6.1.2\lvgl\src\lv_objx/lv_calendar.c **** 
 992              		.loc 1 861 0
 993 0526 0C9A     		ldr	r2, [sp, #48]
 994 0528 0592     		str	r2, [sp, #20]
 995 052a 0022     		movs	r2, #0
 996 052c 0423     		movs	r3, #4
 997 052e 0492     		str	r2, [sp, #16]
 998 0530 0392     		str	r2, [sp, #12]
 999 0532 0292     		str	r2, [sp, #8]
 1000 0534 17AA     		add	r2, sp, #92
 1001 0536 0092     		str	r2, [sp]
 1002 0538 0193     		str	r3, [sp, #4]
 1003 053a 0D9E     		ldr	r6, [sp, #52]
 1004 053c 0B9B     		ldr	r3, [sp, #44]
 1005 053e 0799     		ldr	r1, [sp, #28]
 1006              	.LBE217:
 808:..\..\..\lvgl\version_6.1.2\lvgl\src\lv_objx/lv_calendar.c ****             /*The previous month is over*/
 1007              		.loc 1 808 0
 1008 0540 0AF1010A 		add	r10, r10, #1
 1009              	.LVL116:
 1010              	.LBB249:
 861:..\..\..\lvgl\version_6.1.2\lvgl\src\lv_objx/lv_calendar.c **** 
 1011              		.loc 1 861 0
 1012 0544 3A46     		mov	r2, r7
 1013 0546 18A8     		add	r0, sp, #96
 1014 0548 FFF7FEFF 		bl	lv_draw_label
 1015              	.LVL117:
 1016              	.LBE249:
ARM GAS  C:\Users\pearlstl\AppData\Local\Temp\ccHPSyCj.s 			page 39


 808:..\..\..\lvgl\version_6.1.2\lvgl\src\lv_objx/lv_calendar.c ****             /*The previous month is over*/
 1017              		.loc 1 808 0
 1018 054c BAF1070F 		cmp	r10, #7
 1019 0550 3544     		add	r5, r5, r6
 1020 0552 00F0C980 		beq	.L53
 1021 0556 089B     		ldr	r3, [sp, #32]
 1022 0558 B3F92430 		ldrsh	r3, [r3, #36]
 1023              	.LVL118:
 1024              	.LBB250:
 810:..\..\..\lvgl\version_6.1.2\lvgl\src\lv_objx/lv_calendar.c ****                 draw_state = DAY_DRAW_ACT_MONTH;
 1025              		.loc 1 810 0
 1026 055c 002C     		cmp	r4, #0
 1027 055e 86D0     		beq	.L118
 1028              	.LVL119:
 1029              	.L23:
 816:..\..\..\lvgl\version_6.1.2\lvgl\src\lv_objx/lv_calendar.c ****                day_cnt > get_month_length(ext->showed_date.year, ext->showed_date.month)) {
 1030              		.loc 1 816 0
 1031 0560 012C     		cmp	r4, #1
 1032 0562 5DD0     		beq	.L24
 1033              	.LVL120:
 1034 0564 0BF10102 		add	r2, fp, #1
 1035 0568 5E46     		mov	r6, fp
 1036 056a 0224     		movs	r4, #2
 1037 056c 5FFA82FB 		uxtb	fp, r2
 1038              	.LVL121:
 1039 0570 86E7     		b	.L25
 1040              	.LVL122:
 1041              	.L64:
 1042              	.LBE250:
 1043              	.LBE258:
 766:..\..\..\lvgl\version_6.1.2\lvgl\src\lv_objx/lv_calendar.c ****         act_style  = style_bg;
 1044              		.loc 1 766 0
 1045 0572 0124     		movs	r4, #1
 764:..\..\..\lvgl\version_6.1.2\lvgl\src\lv_objx/lv_calendar.c ****         day_cnt    = 1;
 1046              		.loc 1 764 0
 1047 0574 089B     		ldr	r3, [sp, #32]
 1048 0576 0F93     		str	r3, [sp, #60]
 765:..\..\..\lvgl\version_6.1.2\lvgl\src\lv_objx/lv_calendar.c ****         draw_state = DAY_DRAW_ACT_MONTH;
 1049              		.loc 1 765 0
 1050 0578 A346     		mov	fp, r4
 1051 057a 4DE7     		b	.L13
 1052              	.LVL123:
 1053              	.L108:
 1054 057c 119C     		ldr	r4, [sp, #68]
 1055              	.L38:
 1056              	.LBB259:
 1057              	.LBB251:
 852:..\..\..\lvgl\version_6.1.2\lvgl\src\lv_objx/lv_calendar.c ****                 final_style = ext->style_today_box;
 1058              		.loc 1 852 0
 1059 057e 099B     		ldr	r3, [sp, #36]
 1060 0580 0A9A     		ldr	r2, [sp, #40]
 1061 0582 9342     		cmp	r3, r2
 1062 0584 04D1     		bne	.L44
 1063              	.L43:
 1064 0586 98F90330 		ldrsb	r3, [r8, #3]
 1065 058a B342     		cmp	r3, r6
 1066 058c 00F0E180 		beq	.L119
ARM GAS  C:\Users\pearlstl\AppData\Local\Temp\ccHPSyCj.s 			page 40


 1067              	.L44:
 854:..\..\..\lvgl\version_6.1.2\lvgl\src\lv_objx/lv_calendar.c ****                 final_style = ext->style_week_box;
 1068              		.loc 1 854 0
 1069 0590 129B     		ldr	r3, [sp, #72]
 1070 0592 13B1     		cbz	r3, .L81
 1071 0594 012C     		cmp	r4, #1
 1072 0596 00F0E280 		beq	.L120
 1073              	.L81:
 1074 059a 0F9F     		ldr	r7, [sp, #60]
 1075 059c BFE7     		b	.L52
 1076              	.LVL124:
 1077              	.L117:
 828:..\..\..\lvgl\version_6.1.2\lvgl\src\lv_objx/lv_calendar.c ****                 lv_area_t today_box_area;
 1078              		.loc 1 828 0
 1079 059e 099A     		ldr	r2, [sp, #36]
 1080 05a0 0A99     		ldr	r1, [sp, #40]
 1081 05a2 8A42     		cmp	r2, r1
 1082 05a4 40F0C080 		bne	.L34
 1083 05a8 98F90320 		ldrsb	r2, [r8, #3]
 1084 05ac B242     		cmp	r2, r6
 1085 05ae 00F02F81 		beq	.L121
 1086              	.L35:
 1087              	.LBB222:
 1088              	.LBB223:
 883:..\..\..\lvgl\version_6.1.2\lvgl\src\lv_objx/lv_calendar.c **** 
 1089              		.loc 1 883 0
 1090 05b2 0698     		ldr	r0, [sp, #24]
 1091              	.LBE223:
 1092              	.LBE222:
 846:..\..\..\lvgl\version_6.1.2\lvgl\src\lv_objx/lv_calendar.c ****                 final_style = ext->style_highlighted_days;
 1093              		.loc 1 846 0
 1094 05b4 B8F80470 		ldrh	r7, [r8, #4]
 1095 05b8 98F90690 		ldrsb	r9, [r8, #6]
 1096              	.LVL125:
 1097              	.LBB227:
 1098              	.LBB224:
 883:..\..\..\lvgl\version_6.1.2\lvgl\src\lv_objx/lv_calendar.c **** 
 1099              		.loc 1 883 0
 1100 05bc FFF7FEFF 		bl	lv_obj_get_ext_attr
 1101              	.LVL126:
 1102 05c0 0346     		mov	r3, r0
 1103              	.LVL127:
 885:..\..\..\lvgl\version_6.1.2\lvgl\src\lv_objx/lv_calendar.c **** 
 1104              		.loc 1 885 0
 1105 05c2 8068     		ldr	r0, [r0, #8]
 1106              	.LVL128:
 1107 05c4 0028     		cmp	r0, #0
 1108 05c6 DED0     		beq	.L43
 1109              	.LVL129:
 1110              	.L60:
 1111 05c8 B3F80EE0 		ldrh	lr, [r3, #14]
 1112              	.LVL130:
 888:..\..\..\lvgl\version_6.1.2\lvgl\src\lv_objx/lv_calendar.c ****         if(ext->highlighted_dates[i].year == year && ext->highlighted_dates[i].month == month &&
 1113              		.loc 1 888 0
 1114 05cc BEF1000F 		cmp	lr, #0
 1115 05d0 D5D0     		beq	.L38
 1116 05d2 0246     		mov	r2, r0
ARM GAS  C:\Users\pearlstl\AppData\Local\Temp\ccHPSyCj.s 			page 41


 1117 05d4 0023     		movs	r3, #0
 1118              	.LVL131:
 1119 05d6 03E0     		b	.L47
 1120              	.LVL132:
 1121              	.L45:
 1122 05d8 7345     		cmp	r3, lr
 1123 05da 02F10402 		add	r2, r2, #4
 1124 05de CED0     		beq	.L38
 1125              	.LVL133:
 1126              	.L47:
 889:..\..\..\lvgl\version_6.1.2\lvgl\src\lv_objx/lv_calendar.c ****            ext->highlighted_dates[i].day == day) {
 1127              		.loc 1 889 0
 1128 05e0 30F82310 		ldrh	r1, [r0, r3, lsl #2]
 1129 05e4 B942     		cmp	r1, r7
 888:..\..\..\lvgl\version_6.1.2\lvgl\src\lv_objx/lv_calendar.c ****         if(ext->highlighted_dates[i].year == year && ext->highlighted_dates[i].month == month &&
 1130              		.loc 1 888 0
 1131 05e6 03F10103 		add	r3, r3, #1
 1132              	.LVL134:
 889:..\..\..\lvgl\version_6.1.2\lvgl\src\lv_objx/lv_calendar.c ****            ext->highlighted_dates[i].day == day) {
 1133              		.loc 1 889 0
 1134 05ea F5D1     		bne	.L45
 1135 05ec 92F90210 		ldrsb	r1, [r2, #2]
 1136 05f0 4945     		cmp	r1, r9
 1137 05f2 F1D1     		bne	.L45
 1138 05f4 92F90310 		ldrsb	r1, [r2, #3]
 1139 05f8 B142     		cmp	r1, r6
 1140 05fa EDD1     		bne	.L45
 1141 05fc 8DE7     		b	.L109
 1142              	.L128:
 1143 05fe 00BF     		.align	2
 1144              	.L127:
 1145 0600 1F85EB51 		.word	1374389535
 1146 0604 ABAAAAAA 		.word	-1431655765
 1147 0608 93244992 		.word	-1840700269
 1148 060c 67666666 		.word	1717986919
 1149 0610 01000080 		.word	-2147483647
 1150 0614 25499224 		.word	613566757
 1151              	.LVL135:
 1152              	.L73:
 1153              	.LBE224:
 1154              	.LBE227:
 810:..\..\..\lvgl\version_6.1.2\lvgl\src\lv_objx/lv_calendar.c ****                 draw_state = DAY_DRAW_ACT_MONTH;
 1155              		.loc 1 810 0
 1156 0618 089A     		ldr	r2, [sp, #32]
 1157 061a 0F92     		str	r2, [sp, #60]
 1158              	.LVL136:
 812:..\..\..\lvgl\version_6.1.2\lvgl\src\lv_objx/lv_calendar.c ****                 act_style  = style_bg;
 1159              		.loc 1 812 0
 1160 061c 4FF0010B 		mov	fp, #1
 1161              	.LVL137:
 1162              	.L24:
 817:..\..\..\lvgl\version_6.1.2\lvgl\src\lv_objx/lv_calendar.c ****                 draw_state = DAY_DRAW_NEXT_MONTH;
 1163              		.loc 1 817 0
 1164 0620 98F90620 		ldrsb	r2, [r8, #6]
 1165 0624 B8F80410 		ldrh	r1, [r8, #4]
 1166              	.LVL138:
 1167              	.LBB228:
ARM GAS  C:\Users\pearlstl\AppData\Local\Temp\ccHPSyCj.s 			page 42


 1168              	.LBB229:
 943:..\..\..\lvgl\version_6.1.2\lvgl\src\lv_objx/lv_calendar.c ****         year--;             /*Already in the previous year (won't be less then -12 to skip a whole 
 1169              		.loc 1 943 0
 1170 0628 541E     		subs	r4, r2, #1
 1171              	.LVL139:
 945:..\..\..\lvgl\version_6.1.2\lvgl\src\lv_objx/lv_calendar.c ****     }
 1172              		.loc 1 945 0
 1173 062a 44BF     		itt	mi
 1174 062c 02F10B04 		addmi	r4, r2, #11
 1175              	.LVL140:
 944:..\..\..\lvgl\version_6.1.2\lvgl\src\lv_objx/lv_calendar.c ****         month = 12 + month; /*`month` is negative, the result will be < 12*/
 1176              		.loc 1 944 0
 1177 0630 01F1FF31 		addmi	r1, r1, #-1
 1178              	.LVL141:
 947:..\..\..\lvgl\version_6.1.2\lvgl\src\lv_objx/lv_calendar.c ****         year++;
 1179              		.loc 1 947 0
 1180 0634 0B2C     		cmp	r4, #11
 949:..\..\..\lvgl\version_6.1.2\lvgl\src\lv_objx/lv_calendar.c ****     }
 1181              		.loc 1 949 0
 1182 0636 C4BF     		itt	gt
 1183 0638 0C3C     		subgt	r4, r4, #12
 1184              	.LVL142:
 948:..\..\..\lvgl\version_6.1.2\lvgl\src\lv_objx/lv_calendar.c ****         month -= 12;
 1185              		.loc 1 948 0
 1186 063a 0131     		addgt	r1, r1, #1
 1187              	.LVL143:
 953:..\..\..\lvgl\version_6.1.2\lvgl\src\lv_objx/lv_calendar.c **** }
 1188              		.loc 1 953 0
 1189 063c 012C     		cmp	r4, #1
 1190 063e 00F09180 		beq	.L122
 1191 0642 974A     		ldr	r2, .L129
 1192              	.LVL144:
 1193 0644 84FB0201 		smull	r0, r1, r4, r2
 1194 0648 2144     		add	r1, r1, r4
 1195              	.LVL145:
 1196 064a E217     		asrs	r2, r4, #31
 1197              	.LVL146:
 1198 064c C2EBA102 		rsb	r2, r2, r1, asr #2
 1199 0650 C2EBC202 		rsb	r2, r2, r2, lsl #3
 1200 0654 9349     		ldr	r1, .L129+4
 1201 0656 A21A     		subs	r2, r4, r2
 1202 0658 1140     		ands	r1, r1, r2
 1203 065a 0029     		cmp	r1, #0
 1204 065c C0F29A80 		blt	.L123
 1205              	.L31:
 1206 0660 C1F11F01 		rsb	r1, r1, #31
 1207 0664 C9B2     		uxtb	r1, r1
 1208              	.LVL147:
 1209              	.L30:
 1210              	.LBE229:
 1211              	.LBE228:
 816:..\..\..\lvgl\version_6.1.2\lvgl\src\lv_objx/lv_calendar.c ****                day_cnt > get_month_length(ext->showed_date.year, ext->showed_date.month)) {
 1212              		.loc 1 816 0
 1213 0666 5945     		cmp	r1, fp
 1214 0668 6BD3     		bcc	.L32
 1215 066a 0BF10102 		add	r2, fp, #1
 1216 066e 5E46     		mov	r6, fp
ARM GAS  C:\Users\pearlstl\AppData\Local\Temp\ccHPSyCj.s 			page 43


 1217 0670 0124     		movs	r4, #1
 1218 0672 5FFA82FB 		uxtb	fp, r2
 1219              	.LVL148:
 1220 0676 03E7     		b	.L25
 1221              	.LVL149:
 1222              	.L36:
 848:..\..\..\lvgl\version_6.1.2\lvgl\src\lv_objx/lv_calendar.c ****                       is_highlighted(calendar, ext->showed_date.year + (ext->showed_date.month == 1
 1223              		.loc 1 848 0
 1224 0678 022C     		cmp	r4, #2
 1225 067a 80D1     		bne	.L38
 849:..\..\..\lvgl\version_6.1.2\lvgl\src\lv_objx/lv_calendar.c ****                                      ext->showed_date.month == 12 ? 1 : ext->showed_date.month + 1,
 1226              		.loc 1 849 0
 1227 067c 98F90670 		ldrsb	r7, [r8, #6]
 1228 0680 B8F80490 		ldrh	r9, [r8, #4]
 1229 0684 0C2F     		cmp	r7, #12
 1230 0686 00F08280 		beq	.L78
 1231 068a 7B1C     		adds	r3, r7, #1
 1232 068c 1093     		str	r3, [sp, #64]
 1233              	.L48:
 1234              	.LVL150:
 1235              	.LBB239:
 1236              	.LBB240:
 883:..\..\..\lvgl\version_6.1.2\lvgl\src\lv_objx/lv_calendar.c **** 
 1237              		.loc 1 883 0
 1238 068e 0698     		ldr	r0, [sp, #24]
 1239 0690 FFF7FEFF 		bl	lv_obj_get_ext_attr
 1240              	.LVL151:
 885:..\..\..\lvgl\version_6.1.2\lvgl\src\lv_objx/lv_calendar.c **** 
 1241              		.loc 1 885 0
 1242 0694 D0F808E0 		ldr	lr, [r0, #8]
 1243 0698 BEF1000F 		cmp	lr, #0
 1244 069c 3FF46FAF 		beq	.L38
 1245 06a0 B0F80EC0 		ldrh	ip, [r0, #14]
 1246              	.LVL152:
 888:..\..\..\lvgl\version_6.1.2\lvgl\src\lv_objx/lv_calendar.c ****         if(ext->highlighted_dates[i].year == year && ext->highlighted_dates[i].month == month &&
 1247              		.loc 1 888 0
 1248 06a4 BCF1000F 		cmp	ip, #0
 1249 06a8 3FF469AF 		beq	.L38
 1250 06ac 1194     		str	r4, [sp, #68]
 1251 06ae 7246     		mov	r2, lr
 1252 06b0 0023     		movs	r3, #0
 1253 06b2 109C     		ldr	r4, [sp, #64]
 1254              	.LVL153:
 1255 06b4 04E0     		b	.L51
 1256              	.LVL154:
 1257              	.L49:
 1258 06b6 6345     		cmp	r3, ip
 1259 06b8 02F10402 		add	r2, r2, #4
 1260 06bc 3FF45EAF 		beq	.L108
 1261              	.LVL155:
 1262              	.L51:
 889:..\..\..\lvgl\version_6.1.2\lvgl\src\lv_objx/lv_calendar.c ****            ext->highlighted_dates[i].day == day) {
 1263              		.loc 1 889 0
 1264 06c0 3EF82310 		ldrh	r1, [lr, r3, lsl #2]
 1265 06c4 0C2F     		cmp	r7, #12
 1266 06c6 14BF     		ite	ne
 1267 06c8 4846     		movne	r0, r9
ARM GAS  C:\Users\pearlstl\AppData\Local\Temp\ccHPSyCj.s 			page 44


 1268 06ca 09F10100 		addeq	r0, r9, #1
 1269 06ce 8842     		cmp	r0, r1
 888:..\..\..\lvgl\version_6.1.2\lvgl\src\lv_objx/lv_calendar.c ****         if(ext->highlighted_dates[i].year == year && ext->highlighted_dates[i].month == month &&
 1270              		.loc 1 888 0
 1271 06d0 03F10103 		add	r3, r3, #1
 1272              	.LVL156:
 889:..\..\..\lvgl\version_6.1.2\lvgl\src\lv_objx/lv_calendar.c ****            ext->highlighted_dates[i].day == day) {
 1273              		.loc 1 889 0
 1274 06d4 EFD1     		bne	.L49
 1275 06d6 92F90210 		ldrsb	r1, [r2, #2]
 1276 06da A142     		cmp	r1, r4
 1277 06dc EBD1     		bne	.L49
 1278 06de 92F90310 		ldrsb	r1, [r2, #3]
 1279 06e2 B142     		cmp	r1, r6
 1280 06e4 E7D1     		bne	.L49
 1281 06e6 17E7     		b	.L50
 1282              	.LVL157:
 1283              	.L53:
 1284 06e8 089D     		ldr	r5, [sp, #32]
 1285              	.LBE240:
 1286              	.LBE239:
 1287              	.LBE251:
 868:..\..\..\lvgl\version_6.1.2\lvgl\src\lv_objx/lv_calendar.c ****         label_area.y2 += vert_space + lv_font_get_line_height(style_bg->text.font);
 1288              		.loc 1 868 0
 1289 06ea 1598     		ldr	r0, [sp, #84]
 1290 06ec 6B6B     		ldr	r3, [r5, #52]
 1291 06ee BDF86210 		ldrh	r1, [sp, #98]
 1292 06f2 1B7A     		ldrb	r3, [r3, #8]	@ zero_extendqisi2
 869:..\..\..\lvgl\version_6.1.2\lvgl\src\lv_objx/lv_calendar.c ****     }
 1293              		.loc 1 869 0
 1294 06f4 BDF86620 		ldrh	r2, [sp, #102]
 868:..\..\..\lvgl\version_6.1.2\lvgl\src\lv_objx/lv_calendar.c ****         label_area.y2 += vert_space + lv_font_get_line_height(style_bg->text.font);
 1295              		.loc 1 868 0
 1296 06f8 0344     		add	r3, r3, r0
 1297              	.LBE259:
 784:..\..\..\lvgl\version_6.1.2\lvgl\src\lv_objx/lv_calendar.c **** 
 1298              		.loc 1 784 0
 1299 06fa 1498     		ldr	r0, [sp, #80]
 1300              	.LBB260:
 868:..\..\..\lvgl\version_6.1.2\lvgl\src\lv_objx/lv_calendar.c ****         label_area.y2 += vert_space + lv_font_get_line_height(style_bg->text.font);
 1301              		.loc 1 868 0
 1302 06fc 9BB2     		uxth	r3, r3
 1303              	.LBE260:
 784:..\..\..\lvgl\version_6.1.2\lvgl\src\lv_objx/lv_calendar.c **** 
 1304              		.loc 1 784 0
 1305 06fe 0130     		adds	r0, r0, #1
 1306              	.LBB261:
 868:..\..\..\lvgl\version_6.1.2\lvgl\src\lv_objx/lv_calendar.c ****         label_area.y2 += vert_space + lv_font_get_line_height(style_bg->text.font);
 1307              		.loc 1 868 0
 1308 0700 1944     		add	r1, r1, r3
 1309              	.LBE261:
 784:..\..\..\lvgl\version_6.1.2\lvgl\src\lv_objx/lv_calendar.c **** 
 1310              		.loc 1 784 0
 1311 0702 0628     		cmp	r0, #6
 1312              	.LBB262:
 869:..\..\..\lvgl\version_6.1.2\lvgl\src\lv_objx/lv_calendar.c ****     }
 1313              		.loc 1 869 0
ARM GAS  C:\Users\pearlstl\AppData\Local\Temp\ccHPSyCj.s 			page 45


 1314 0704 1344     		add	r3, r3, r2
 1315              	.LBE262:
 784:..\..\..\lvgl\version_6.1.2\lvgl\src\lv_objx/lv_calendar.c **** 
 1316              		.loc 1 784 0
 1317 0706 1490     		str	r0, [sp, #80]
 1318              	.LBB263:
 868:..\..\..\lvgl\version_6.1.2\lvgl\src\lv_objx/lv_calendar.c ****         label_area.y2 += vert_space + lv_font_get_line_height(style_bg->text.font);
 1319              		.loc 1 868 0
 1320 0708 ADF86210 		strh	r1, [sp, #98]	@ movhi
 1321              	.LVL158:
 869:..\..\..\lvgl\version_6.1.2\lvgl\src\lv_objx/lv_calendar.c ****     }
 1322              		.loc 1 869 0
 1323 070c ADF86630 		strh	r3, [sp, #102]	@ movhi
 1324              	.LBE263:
 784:..\..\..\lvgl\version_6.1.2\lvgl\src\lv_objx/lv_calendar.c **** 
 1325              		.loc 1 784 0
 1326 0710 3FF480AC 		beq	.L61
 1327 0714 099A     		ldr	r2, [sp, #36]
 1328              	.LVL159:
 1329              	.LBB264:
 787:..\..\..\lvgl\version_6.1.2\lvgl\src\lv_objx/lv_calendar.c ****            ((draw_state == DAY_DRAW_ACT_MONTH && ext->today.day >= day_cnt && ext->today.day < day_
 1330              		.loc 1 787 0
 1331 0716 0A99     		ldr	r1, [sp, #40]
 1332 0718 B5F92430 		ldrsh	r3, [r5, #36]
 1333 071c 8A42     		cmp	r2, r1
 1334 071e 3FF490AE 		beq	.L124
 1335              	.LVL160:
 1336              	.L70:
 803:..\..\..\lvgl\version_6.1.2\lvgl\src\lv_objx/lv_calendar.c ****         }
 1337              		.loc 1 803 0
 1338 0722 0022     		movs	r2, #0
 1339 0724 1292     		str	r2, [sp, #72]
 1340 0726 9EE6     		b	.L20
 1341              	.LVL161:
 1342              	.L34:
 1343              	.LBB252:
 1344              	.LBB241:
 1345              	.LBB225:
 883:..\..\..\lvgl\version_6.1.2\lvgl\src\lv_objx/lv_calendar.c **** 
 1346              		.loc 1 883 0
 1347 0728 0698     		ldr	r0, [sp, #24]
 1348              	.LBE225:
 1349              	.LBE241:
 846:..\..\..\lvgl\version_6.1.2\lvgl\src\lv_objx/lv_calendar.c ****                 final_style = ext->style_highlighted_days;
 1350              		.loc 1 846 0
 1351 072a B8F80470 		ldrh	r7, [r8, #4]
 1352 072e 98F90690 		ldrsb	r9, [r8, #6]
 1353              	.LVL162:
 1354              	.LBB242:
 1355              	.LBB226:
 883:..\..\..\lvgl\version_6.1.2\lvgl\src\lv_objx/lv_calendar.c **** 
 1356              		.loc 1 883 0
 1357 0732 FFF7FEFF 		bl	lv_obj_get_ext_attr
 1358              	.LVL163:
 1359 0736 0346     		mov	r3, r0
 1360              	.LVL164:
 885:..\..\..\lvgl\version_6.1.2\lvgl\src\lv_objx/lv_calendar.c **** 
ARM GAS  C:\Users\pearlstl\AppData\Local\Temp\ccHPSyCj.s 			page 46


 1361              		.loc 1 885 0
 1362 0738 8068     		ldr	r0, [r0, #8]
 1363              	.LVL165:
 1364 073a 0028     		cmp	r0, #0
 1365 073c 7FF444AF 		bne	.L60
 1366 0740 26E7     		b	.L44
 1367              	.LVL166:
 1368              	.L32:
 1369              	.LBE226:
 1370              	.LBE242:
 820:..\..\..\lvgl\version_6.1.2\lvgl\src\lv_objx/lv_calendar.c ****             }
 1371              		.loc 1 820 0
 1372 0742 4FF0020B 		mov	fp, #2
 1373 0746 D8F82C20 		ldr	r2, [r8, #44]
 1374 074a 0F92     		str	r2, [sp, #60]
 1375              	.LVL167:
 818:..\..\..\lvgl\version_6.1.2\lvgl\src\lv_objx/lv_calendar.c ****                 day_cnt    = 1;
 1376              		.loc 1 818 0
 1377 074c 5C46     		mov	r4, fp
 820:..\..\..\lvgl\version_6.1.2\lvgl\src\lv_objx/lv_calendar.c ****             }
 1378              		.loc 1 820 0
 1379 074e 0126     		movs	r6, #1
 1380 0750 96E6     		b	.L25
 1381              	.LVL168:
 1382              	.L119:
 852:..\..\..\lvgl\version_6.1.2\lvgl\src\lv_objx/lv_calendar.c ****                 final_style = ext->style_today_box;
 1383              		.loc 1 852 0
 1384 0752 012C     		cmp	r4, #1
 1385 0754 7FF421AF 		bne	.L81
 853:..\..\..\lvgl\version_6.1.2\lvgl\src\lv_objx/lv_calendar.c ****             else if(in_week_box && draw_state == DAY_DRAW_ACT_MONTH)
 1386              		.loc 1 853 0
 1387 0758 D8F83470 		ldr	r7, [r8, #52]
 1388              	.LVL169:
 1389 075c DFE6     		b	.L52
 1390              	.LVL170:
 1391              	.L120:
 855:..\..\..\lvgl\version_6.1.2\lvgl\src\lv_objx/lv_calendar.c ****             else
 1392              		.loc 1 855 0
 1393 075e D8F83070 		ldr	r7, [r8, #48]
 1394              	.LVL171:
 1395 0762 DCE6     		b	.L52
 1396              	.LVL172:
 1397              	.L122:
 1398              	.LBB243:
 1399              	.LBB236:
 1400              	.LBB230:
 1401              	.LBB231:
 963:..\..\..\lvgl\version_6.1.2\lvgl\src\lv_objx/lv_calendar.c **** }
 1402              		.loc 1 963 0
 1403 0764 8A07     		lsls	r2, r1, #30
 1404 0766 1AD1     		bne	.L74
 1405 0768 4F4A     		ldr	r2, .L129+8
 1406 076a A2FB0102 		umull	r0, r2, r2, r1
 1407 076e 5009     		lsrs	r0, r2, #5
 1408 0770 6424     		movs	r4, #100
 1409              	.LVL173:
 1410 0772 04FB1010 		mls	r0, r4, r0, r1
ARM GAS  C:\Users\pearlstl\AppData\Local\Temp\ccHPSyCj.s 			page 47


 1411 0776 0028     		cmp	r0, #0
 1412 0778 69D1     		bne	.L75
 1413 077a D209     		lsrs	r2, r2, #7
 1414 077c 4FF4C870 		mov	r0, #400
 1415 0780 00FB1211 		mls	r1, r0, r2, r1
 1416              	.LVL174:
 1417 0784 0029     		cmp	r1, #0
 1418 0786 14BF     		ite	ne
 1419 0788 1C21     		movne	r1, #28
 1420 078a 1D21     		moveq	r1, #29
 1421 078c 6BE7     		b	.L30
 1422              	.LVL175:
 1423              	.L78:
 1424              	.LBE231:
 1425              	.LBE230:
 1426              	.LBE236:
 1427              	.LBE243:
 849:..\..\..\lvgl\version_6.1.2\lvgl\src\lv_objx/lv_calendar.c ****                                      ext->showed_date.month == 12 ? 1 : ext->showed_date.month + 1,
 1428              		.loc 1 849 0
 1429 078e 0123     		movs	r3, #1
 1430 0790 1093     		str	r3, [sp, #64]
 1431 0792 7CE7     		b	.L48
 1432              	.LVL176:
 1433              	.L123:
 1434              	.LBB244:
 1435              	.LBB237:
 953:..\..\..\lvgl\version_6.1.2\lvgl\src\lv_objx/lv_calendar.c **** }
 1436              		.loc 1 953 0
 1437 0794 0139     		subs	r1, r1, #1
 1438 0796 61F00101 		orn	r1, r1, #1
 1439 079a 0131     		adds	r1, r1, #1
 1440 079c 60E7     		b	.L31
 1441              	.LVL177:
 1442              	.L74:
 1443              	.LBB234:
 1444              	.LBB232:
 963:..\..\..\lvgl\version_6.1.2\lvgl\src\lv_objx/lv_calendar.c **** }
 1445              		.loc 1 963 0
 1446 079e 1C21     		movs	r1, #28
 1447              	.LVL178:
 1448 07a0 61E7     		b	.L30
 1449              	.LVL179:
 1450              	.L116:
 1451              	.LBE232:
 1452              	.LBE234:
 1453              	.LBE237:
 1454              	.LBE244:
 1455              	.LBE252:
 788:..\..\..\lvgl\version_6.1.2\lvgl\src\lv_objx/lv_calendar.c ****             (draw_state == DAY_DRAW_PREV_MONTH && ext->today.day <= 7 - month_start_day && week == 
 1456              		.loc 1 788 0
 1457 07a2 98F90320 		ldrsb	r2, [r8, #3]
 1458 07a6 5A45     		cmp	r2, fp
 1459 07a8 BBDB     		blt	.L70
 1460 07aa 0BF10601 		add	r1, fp, #6
 1461 07ae 8A42     		cmp	r2, r1
 1462 07b0 B7DC     		bgt	.L70
 1463              	.L22:
ARM GAS  C:\Users\pearlstl\AppData\Local\Temp\ccHPSyCj.s 			page 48


 1464              	.LVL180:
 1465              	.LBB253:
 1466              	.LBB254:
 1467              	.LBB255:
 1468              		.file 2 "..\\..\\..\\lvgl\\version_6.1.2\\lvgl\\src\\lv_objx\\../lv_core/../lv_misc/lv_area.h"
   1:..\..\..\lvgl\version_6.1.2\lvgl\src\lv_objx\../lv_core/../lv_misc/lv_area.h **** /**
   2:..\..\..\lvgl\version_6.1.2\lvgl\src\lv_objx\../lv_core/../lv_misc/lv_area.h ****  * @file lv_area.h
   3:..\..\..\lvgl\version_6.1.2\lvgl\src\lv_objx\../lv_core/../lv_misc/lv_area.h ****  *
   4:..\..\..\lvgl\version_6.1.2\lvgl\src\lv_objx\../lv_core/../lv_misc/lv_area.h ****  */
   5:..\..\..\lvgl\version_6.1.2\lvgl\src\lv_objx\../lv_core/../lv_misc/lv_area.h **** 
   6:..\..\..\lvgl\version_6.1.2\lvgl\src\lv_objx\../lv_core/../lv_misc/lv_area.h **** #ifndef LV_AREA_H
   7:..\..\..\lvgl\version_6.1.2\lvgl\src\lv_objx\../lv_core/../lv_misc/lv_area.h **** #define LV_AREA_H
   8:..\..\..\lvgl\version_6.1.2\lvgl\src\lv_objx\../lv_core/../lv_misc/lv_area.h **** 
   9:..\..\..\lvgl\version_6.1.2\lvgl\src\lv_objx\../lv_core/../lv_misc/lv_area.h **** #ifdef __cplusplus
  10:..\..\..\lvgl\version_6.1.2\lvgl\src\lv_objx\../lv_core/../lv_misc/lv_area.h **** extern "C" {
  11:..\..\..\lvgl\version_6.1.2\lvgl\src\lv_objx\../lv_core/../lv_misc/lv_area.h **** #endif
  12:..\..\..\lvgl\version_6.1.2\lvgl\src\lv_objx\../lv_core/../lv_misc/lv_area.h **** 
  13:..\..\..\lvgl\version_6.1.2\lvgl\src\lv_objx\../lv_core/../lv_misc/lv_area.h **** /*********************
  14:..\..\..\lvgl\version_6.1.2\lvgl\src\lv_objx\../lv_core/../lv_misc/lv_area.h ****  *      INCLUDES
  15:..\..\..\lvgl\version_6.1.2\lvgl\src\lv_objx\../lv_core/../lv_misc/lv_area.h ****  *********************/
  16:..\..\..\lvgl\version_6.1.2\lvgl\src\lv_objx\../lv_core/../lv_misc/lv_area.h **** #include <string.h>
  17:..\..\..\lvgl\version_6.1.2\lvgl\src\lv_objx\../lv_core/../lv_misc/lv_area.h **** #include <stdbool.h>
  18:..\..\..\lvgl\version_6.1.2\lvgl\src\lv_objx\../lv_core/../lv_misc/lv_area.h **** #include <stdint.h>
  19:..\..\..\lvgl\version_6.1.2\lvgl\src\lv_objx\../lv_core/../lv_misc/lv_area.h **** #ifdef LV_CONF_INCLUDE_SIMPLE
  20:..\..\..\lvgl\version_6.1.2\lvgl\src\lv_objx\../lv_core/../lv_misc/lv_area.h **** #include "lv_conf.h"
  21:..\..\..\lvgl\version_6.1.2\lvgl\src\lv_objx\../lv_core/../lv_misc/lv_area.h **** #else
  22:..\..\..\lvgl\version_6.1.2\lvgl\src\lv_objx\../lv_core/../lv_misc/lv_area.h **** #include "../../../lv_conf.h"
  23:..\..\..\lvgl\version_6.1.2\lvgl\src\lv_objx\../lv_core/../lv_misc/lv_area.h **** #endif
  24:..\..\..\lvgl\version_6.1.2\lvgl\src\lv_objx\../lv_core/../lv_misc/lv_area.h **** 
  25:..\..\..\lvgl\version_6.1.2\lvgl\src\lv_objx\../lv_core/../lv_misc/lv_area.h **** /*********************
  26:..\..\..\lvgl\version_6.1.2\lvgl\src\lv_objx\../lv_core/../lv_misc/lv_area.h ****  *      DEFINES
  27:..\..\..\lvgl\version_6.1.2\lvgl\src\lv_objx\../lv_core/../lv_misc/lv_area.h ****  *********************/
  28:..\..\..\lvgl\version_6.1.2\lvgl\src\lv_objx\../lv_core/../lv_misc/lv_area.h **** /*To avoid overflow don't let the max ranges (reduce with 1000) */
  29:..\..\..\lvgl\version_6.1.2\lvgl\src\lv_objx\../lv_core/../lv_misc/lv_area.h **** #define LV_COORD_MAX ((lv_coord_t)((uint32_t)((uint32_t)1 << (8 * sizeof(lv_coord_t) - 1)) - 1000))
  30:..\..\..\lvgl\version_6.1.2\lvgl\src\lv_objx\../lv_core/../lv_misc/lv_area.h **** #define LV_COORD_MIN (-LV_COORD_MAX)
  31:..\..\..\lvgl\version_6.1.2\lvgl\src\lv_objx\../lv_core/../lv_misc/lv_area.h **** 
  32:..\..\..\lvgl\version_6.1.2\lvgl\src\lv_objx\../lv_core/../lv_misc/lv_area.h **** LV_EXPORT_CONST_INT(LV_COORD_MAX);
  33:..\..\..\lvgl\version_6.1.2\lvgl\src\lv_objx\../lv_core/../lv_misc/lv_area.h **** LV_EXPORT_CONST_INT(LV_COORD_MIN);
  34:..\..\..\lvgl\version_6.1.2\lvgl\src\lv_objx\../lv_core/../lv_misc/lv_area.h **** 
  35:..\..\..\lvgl\version_6.1.2\lvgl\src\lv_objx\../lv_core/../lv_misc/lv_area.h **** /**********************
  36:..\..\..\lvgl\version_6.1.2\lvgl\src\lv_objx\../lv_core/../lv_misc/lv_area.h ****  *      TYPEDEFS
  37:..\..\..\lvgl\version_6.1.2\lvgl\src\lv_objx\../lv_core/../lv_misc/lv_area.h ****  **********************/
  38:..\..\..\lvgl\version_6.1.2\lvgl\src\lv_objx\../lv_core/../lv_misc/lv_area.h **** 
  39:..\..\..\lvgl\version_6.1.2\lvgl\src\lv_objx\../lv_core/../lv_misc/lv_area.h **** /**
  40:..\..\..\lvgl\version_6.1.2\lvgl\src\lv_objx\../lv_core/../lv_misc/lv_area.h ****  * Represents a point on the screen.
  41:..\..\..\lvgl\version_6.1.2\lvgl\src\lv_objx\../lv_core/../lv_misc/lv_area.h ****  */
  42:..\..\..\lvgl\version_6.1.2\lvgl\src\lv_objx\../lv_core/../lv_misc/lv_area.h **** typedef struct
  43:..\..\..\lvgl\version_6.1.2\lvgl\src\lv_objx\../lv_core/../lv_misc/lv_area.h **** {
  44:..\..\..\lvgl\version_6.1.2\lvgl\src\lv_objx\../lv_core/../lv_misc/lv_area.h ****     lv_coord_t x;
  45:..\..\..\lvgl\version_6.1.2\lvgl\src\lv_objx\../lv_core/../lv_misc/lv_area.h ****     lv_coord_t y;
  46:..\..\..\lvgl\version_6.1.2\lvgl\src\lv_objx\../lv_core/../lv_misc/lv_area.h **** } lv_point_t;
  47:..\..\..\lvgl\version_6.1.2\lvgl\src\lv_objx\../lv_core/../lv_misc/lv_area.h **** 
  48:..\..\..\lvgl\version_6.1.2\lvgl\src\lv_objx\../lv_core/../lv_misc/lv_area.h **** /** Represents an area of the screen. */
  49:..\..\..\lvgl\version_6.1.2\lvgl\src\lv_objx\../lv_core/../lv_misc/lv_area.h **** typedef struct
  50:..\..\..\lvgl\version_6.1.2\lvgl\src\lv_objx\../lv_core/../lv_misc/lv_area.h **** {
  51:..\..\..\lvgl\version_6.1.2\lvgl\src\lv_objx\../lv_core/../lv_misc/lv_area.h ****     lv_coord_t x1;
  52:..\..\..\lvgl\version_6.1.2\lvgl\src\lv_objx\../lv_core/../lv_misc/lv_area.h ****     lv_coord_t y1;
ARM GAS  C:\Users\pearlstl\AppData\Local\Temp\ccHPSyCj.s 			page 49


  53:..\..\..\lvgl\version_6.1.2\lvgl\src\lv_objx\../lv_core/../lv_misc/lv_area.h ****     lv_coord_t x2;
  54:..\..\..\lvgl\version_6.1.2\lvgl\src\lv_objx\../lv_core/../lv_misc/lv_area.h ****     lv_coord_t y2;
  55:..\..\..\lvgl\version_6.1.2\lvgl\src\lv_objx\../lv_core/../lv_misc/lv_area.h **** } lv_area_t;
  56:..\..\..\lvgl\version_6.1.2\lvgl\src\lv_objx\../lv_core/../lv_misc/lv_area.h **** 
  57:..\..\..\lvgl\version_6.1.2\lvgl\src\lv_objx\../lv_core/../lv_misc/lv_area.h **** /**********************
  58:..\..\..\lvgl\version_6.1.2\lvgl\src\lv_objx\../lv_core/../lv_misc/lv_area.h ****  * GLOBAL PROTOTYPES
  59:..\..\..\lvgl\version_6.1.2\lvgl\src\lv_objx\../lv_core/../lv_misc/lv_area.h ****  **********************/
  60:..\..\..\lvgl\version_6.1.2\lvgl\src\lv_objx\../lv_core/../lv_misc/lv_area.h **** 
  61:..\..\..\lvgl\version_6.1.2\lvgl\src\lv_objx\../lv_core/../lv_misc/lv_area.h **** /**
  62:..\..\..\lvgl\version_6.1.2\lvgl\src\lv_objx\../lv_core/../lv_misc/lv_area.h ****  * Initialize an area
  63:..\..\..\lvgl\version_6.1.2\lvgl\src\lv_objx\../lv_core/../lv_misc/lv_area.h ****  * @param area_p pointer to an area
  64:..\..\..\lvgl\version_6.1.2\lvgl\src\lv_objx\../lv_core/../lv_misc/lv_area.h ****  * @param x1 left coordinate of the area
  65:..\..\..\lvgl\version_6.1.2\lvgl\src\lv_objx\../lv_core/../lv_misc/lv_area.h ****  * @param y1 top coordinate of the area
  66:..\..\..\lvgl\version_6.1.2\lvgl\src\lv_objx\../lv_core/../lv_misc/lv_area.h ****  * @param x2 right coordinate of the area
  67:..\..\..\lvgl\version_6.1.2\lvgl\src\lv_objx\../lv_core/../lv_misc/lv_area.h ****  * @param y2 bottom coordinate of the area
  68:..\..\..\lvgl\version_6.1.2\lvgl\src\lv_objx\../lv_core/../lv_misc/lv_area.h ****  */
  69:..\..\..\lvgl\version_6.1.2\lvgl\src\lv_objx\../lv_core/../lv_misc/lv_area.h **** void lv_area_set(lv_area_t * area_p, lv_coord_t x1, lv_coord_t y1, lv_coord_t x2, lv_coord_t y2);
  70:..\..\..\lvgl\version_6.1.2\lvgl\src\lv_objx\../lv_core/../lv_misc/lv_area.h **** 
  71:..\..\..\lvgl\version_6.1.2\lvgl\src\lv_objx\../lv_core/../lv_misc/lv_area.h **** /**
  72:..\..\..\lvgl\version_6.1.2\lvgl\src\lv_objx\../lv_core/../lv_misc/lv_area.h ****  * Copy an area
  73:..\..\..\lvgl\version_6.1.2\lvgl\src\lv_objx\../lv_core/../lv_misc/lv_area.h ****  * @param dest pointer to the destination area
  74:..\..\..\lvgl\version_6.1.2\lvgl\src\lv_objx\../lv_core/../lv_misc/lv_area.h ****  * @param src pointer to the source area
  75:..\..\..\lvgl\version_6.1.2\lvgl\src\lv_objx\../lv_core/../lv_misc/lv_area.h ****  */
  76:..\..\..\lvgl\version_6.1.2\lvgl\src\lv_objx\../lv_core/../lv_misc/lv_area.h **** inline static void lv_area_copy(lv_area_t * dest, const lv_area_t * src)
  77:..\..\..\lvgl\version_6.1.2\lvgl\src\lv_objx\../lv_core/../lv_misc/lv_area.h **** {
  78:..\..\..\lvgl\version_6.1.2\lvgl\src\lv_objx\../lv_core/../lv_misc/lv_area.h ****     memcpy(dest, src, sizeof(lv_area_t));
 1469              		.loc 2 78 0
 1470 07b2 18AA     		add	r2, sp, #96
 1471              	.LVL181:
 1472 07b4 92E80300 		ldmia	r2, {r0, r1}
 1473 07b8 1AAA     		add	r2, sp, #104
 1474              	.LVL182:
 1475 07ba 82E80300 		stmia	r2, {r0, r1}
 1476              	.LVL183:
 1477              	.LBE255:
 1478              	.LBE254:
 792:..\..\..\lvgl\version_6.1.2\lvgl\src\lv_objx/lv_calendar.c ****                 calendar->coords.x1 + style_bg->body.padding.left - ext->style_week_box->body.paddi
 1479              		.loc 1 792 0
 1480 07be 069E     		ldr	r6, [sp, #24]
 793:..\..\..\lvgl\version_6.1.2\lvgl\src\lv_objx/lv_calendar.c ****             week_box_area.x2 =
 1481              		.loc 1 793 0
 1482 07c0 D8F83020 		ldr	r2, [r8, #48]
 794:..\..\..\lvgl\version_6.1.2\lvgl\src\lv_objx/lv_calendar.c ****                 calendar->coords.x2 - style_bg->body.padding.right + ext->style_week_box->body.padd
 1483              		.loc 1 794 0
 1484 07c4 B78A     		ldrh	r7, [r6, #20]
 1485 07c6 D08C     		ldrh	r0, [r2, #38]
 792:..\..\..\lvgl\version_6.1.2\lvgl\src\lv_objx/lv_calendar.c ****                 calendar->coords.x1 + style_bg->body.padding.left - ext->style_week_box->body.paddi
 1486              		.loc 1 792 0
 1487 07c8 918C     		ldrh	r1, [r2, #36]
 1488 07ca 358A     		ldrh	r5, [r6, #16]
 794:..\..\..\lvgl\version_6.1.2\lvgl\src\lv_objx/lv_calendar.c ****                 calendar->coords.x2 - style_bg->body.padding.right + ext->style_week_box->body.padd
 1489              		.loc 1 794 0
 1490 07cc 0744     		add	r7, r7, r0
 1491 07ce 0898     		ldr	r0, [sp, #32]
 792:..\..\..\lvgl\version_6.1.2\lvgl\src\lv_objx/lv_calendar.c ****                 calendar->coords.x1 + style_bg->body.padding.left - ext->style_week_box->body.paddi
 1492              		.loc 1 792 0
 1493 07d0 691A     		subs	r1, r5, r1
ARM GAS  C:\Users\pearlstl\AppData\Local\Temp\ccHPSyCj.s 			page 50


 794:..\..\..\lvgl\version_6.1.2\lvgl\src\lv_objx/lv_calendar.c ****                 calendar->coords.x2 - style_bg->body.padding.right + ext->style_week_box->body.padd
 1494              		.loc 1 794 0
 1495 07d2 C68C     		ldrh	r6, [r0, #38]
 797:..\..\..\lvgl\version_6.1.2\lvgl\src\lv_objx/lv_calendar.c ****             week_box_area.y2 += ext->style_week_box->body.padding.bottom;
 1496              		.loc 1 797 0
 1497 07d4 BDF86A50 		ldrh	r5, [sp, #106]
 1498 07d8 108C     		ldrh	r0, [r2, #32]
 792:..\..\..\lvgl\version_6.1.2\lvgl\src\lv_objx/lv_calendar.c ****                 calendar->coords.x1 + style_bg->body.padding.left - ext->style_week_box->body.paddi
 1499              		.loc 1 792 0
 1500 07da 0B44     		add	r3, r3, r1
 797:..\..\..\lvgl\version_6.1.2\lvgl\src\lv_objx/lv_calendar.c ****             week_box_area.y2 += ext->style_week_box->body.padding.bottom;
 1501              		.loc 1 797 0
 1502 07dc 281A     		subs	r0, r5, r0
 798:..\..\..\lvgl\version_6.1.2\lvgl\src\lv_objx/lv_calendar.c ****             lv_draw_rect(&week_box_area, mask, ext->style_week_box, opa_scale);
 1503              		.loc 1 798 0
 1504 07de 518C     		ldrh	r1, [r2, #34]
 1505 07e0 BDF86E50 		ldrh	r5, [sp, #110]
 792:..\..\..\lvgl\version_6.1.2\lvgl\src\lv_objx/lv_calendar.c ****                 calendar->coords.x1 + style_bg->body.padding.left - ext->style_week_box->body.paddi
 1506              		.loc 1 792 0
 1507 07e4 ADF86830 		strh	r3, [sp, #104]	@ movhi
 794:..\..\..\lvgl\version_6.1.2\lvgl\src\lv_objx/lv_calendar.c ****                 calendar->coords.x2 - style_bg->body.padding.right + ext->style_week_box->body.padd
 1508              		.loc 1 794 0
 1509 07e8 BE1B     		subs	r6, r7, r6
 1510 07ea ADF86C60 		strh	r6, [sp, #108]	@ movhi
 799:..\..\..\lvgl\version_6.1.2\lvgl\src\lv_objx/lv_calendar.c **** 
 1511              		.loc 1 799 0
 1512 07ee 1AAE     		add	r6, sp, #104
 798:..\..\..\lvgl\version_6.1.2\lvgl\src\lv_objx/lv_calendar.c ****             lv_draw_rect(&week_box_area, mask, ext->style_week_box, opa_scale);
 1513              		.loc 1 798 0
 1514 07f0 0D44     		add	r5, r5, r1
 799:..\..\..\lvgl\version_6.1.2\lvgl\src\lv_objx/lv_calendar.c **** 
 1515              		.loc 1 799 0
 1516 07f2 0B9B     		ldr	r3, [sp, #44]
 797:..\..\..\lvgl\version_6.1.2\lvgl\src\lv_objx/lv_calendar.c ****             week_box_area.y2 += ext->style_week_box->body.padding.bottom;
 1517              		.loc 1 797 0
 1518 07f4 ADF86A00 		strh	r0, [sp, #106]	@ movhi
 799:..\..\..\lvgl\version_6.1.2\lvgl\src\lv_objx/lv_calendar.c **** 
 1519              		.loc 1 799 0
 1520 07f8 0799     		ldr	r1, [sp, #28]
 798:..\..\..\lvgl\version_6.1.2\lvgl\src\lv_objx/lv_calendar.c ****             lv_draw_rect(&week_box_area, mask, ext->style_week_box, opa_scale);
 1521              		.loc 1 798 0
 1522 07fa ADF86E50 		strh	r5, [sp, #110]	@ movhi
 799:..\..\..\lvgl\version_6.1.2\lvgl\src\lv_objx/lv_calendar.c **** 
 1523              		.loc 1 799 0
 1524 07fe 3046     		mov	r0, r6
 1525 0800 FFF7FEFF 		bl	lv_draw_rect
 1526              	.LVL184:
 1527 0804 0898     		ldr	r0, [sp, #32]
 801:..\..\..\lvgl\version_6.1.2\lvgl\src\lv_objx/lv_calendar.c ****         } else {
 1528              		.loc 1 801 0
 1529 0806 0123     		movs	r3, #1
 1530 0808 1293     		str	r3, [sp, #72]
 1531 080a B0F92430 		ldrsh	r3, [r0, #36]
 1532 080e 2AE6     		b	.L20
 1533              	.LVL185:
 1534              	.L121:
 1535              	.LBE253:
ARM GAS  C:\Users\pearlstl\AppData\Local\Temp\ccHPSyCj.s 			page 51


 1536              	.LBB256:
 1537              	.LBB245:
 1538              	.LBB246:
 1539              	.LBB247:
 1540              		.loc 2 78 0
 1541 0810 18AA     		add	r2, sp, #96
 1542              	.LVL186:
 1543 0812 92E80300 		ldmia	r2, {r0, r1}
 1544 0816 1AAA     		add	r2, sp, #104
 1545              	.LVL187:
 1546 0818 82E80300 		stmia	r2, {r0, r1}
 1547              	.LVL188:
 1548              	.LBE247:
 1549              	.LBE246:
 834:..\..\..\lvgl\version_6.1.2\lvgl\src\lv_objx/lv_calendar.c ****                 today_box_area.y2 = label_area.y2 + ext->style_today_box->body.padding.bottom;
 1550              		.loc 1 834 0
 1551 081c D8F83420 		ldr	r2, [r8, #52]
 1552 0820 BDF862E0 		ldrh	lr, [sp, #98]
 1553 0824 108C     		ldrh	r0, [r2, #32]
 835:..\..\..\lvgl\version_6.1.2\lvgl\src\lv_objx/lv_calendar.c ****                 lv_draw_rect(&today_box_area, mask, ext->style_today_box, opa_scale);
 1554              		.loc 1 835 0
 1555 0826 518C     		ldrh	r1, [r2, #34]
 831:..\..\..\lvgl\version_6.1.2\lvgl\src\lv_objx/lv_calendar.c ****                 today_box_area.x2 = label_area.x2;
 1556              		.loc 1 831 0
 1557 0828 ADF86830 		strh	r3, [sp, #104]	@ movhi
 835:..\..\..\lvgl\version_6.1.2\lvgl\src\lv_objx/lv_calendar.c ****                 lv_draw_rect(&today_box_area, mask, ext->style_today_box, opa_scale);
 1558              		.loc 1 835 0
 1559 082c BDF86630 		ldrh	r3, [sp, #102]
 832:..\..\..\lvgl\version_6.1.2\lvgl\src\lv_objx/lv_calendar.c **** 
 1560              		.loc 1 832 0
 1561 0830 ADF86C70 		strh	r7, [sp, #108]	@ movhi
 834:..\..\..\lvgl\version_6.1.2\lvgl\src\lv_objx/lv_calendar.c ****                 today_box_area.y2 = label_area.y2 + ext->style_today_box->body.padding.bottom;
 1562              		.loc 1 834 0
 1563 0834 C0EB0E00 		rsb	r0, r0, lr
 835:..\..\..\lvgl\version_6.1.2\lvgl\src\lv_objx/lv_calendar.c ****                 lv_draw_rect(&today_box_area, mask, ext->style_today_box, opa_scale);
 1564              		.loc 1 835 0
 1565 0838 5F18     		adds	r7, r3, r1
 834:..\..\..\lvgl\version_6.1.2\lvgl\src\lv_objx/lv_calendar.c ****                 today_box_area.y2 = label_area.y2 + ext->style_today_box->body.padding.bottom;
 1566              		.loc 1 834 0
 1567 083a ADF86A00 		strh	r0, [sp, #106]	@ movhi
 836:..\..\..\lvgl\version_6.1.2\lvgl\src\lv_objx/lv_calendar.c ****             }
 1568              		.loc 1 836 0
 1569 083e 0B9B     		ldr	r3, [sp, #44]
 1570 0840 0799     		ldr	r1, [sp, #28]
 835:..\..\..\lvgl\version_6.1.2\lvgl\src\lv_objx/lv_calendar.c ****                 lv_draw_rect(&today_box_area, mask, ext->style_today_box, opa_scale);
 1571              		.loc 1 835 0
 1572 0842 ADF86E70 		strh	r7, [sp, #110]	@ movhi
 836:..\..\..\lvgl\version_6.1.2\lvgl\src\lv_objx/lv_calendar.c ****             }
 1573              		.loc 1 836 0
 1574 0846 1AA8     		add	r0, sp, #104
 1575 0848 FFF7FEFF 		bl	lv_draw_rect
 1576              	.LVL189:
 1577 084c B1E6     		b	.L35
 1578              	.LVL190:
 1579              	.L75:
 1580              	.LBE245:
 1581              	.LBB248:
ARM GAS  C:\Users\pearlstl\AppData\Local\Temp\ccHPSyCj.s 			page 52


 1582              	.LBB238:
 1583              	.LBB235:
 1584              	.LBB233:
 963:..\..\..\lvgl\version_6.1.2\lvgl\src\lv_objx/lv_calendar.c **** }
 1585              		.loc 1 963 0
 1586 084e 1D21     		movs	r1, #29
 1587              	.LVL191:
 1588 0850 09E7     		b	.L30
 1589              	.LVL192:
 1590              	.L111:
 1591              	.LBE233:
 1592              	.LBE235:
 1593              	.LBE238:
 1594              	.LBE248:
 1595              	.LBE256:
 1596              	.LBE264:
 1597              	.LBE182:
 1598              	.LBE181:
 1599              	.LBE155:
 1600              	.LBB269:
 1601              	.LBB270:
 459:..\..\..\lvgl\version_6.1.2\lvgl\src\lv_objx/lv_calendar.c ****     }
 1602              		.loc 1 459 0
 1603 0852 164B     		ldr	r3, .L129+12
 1604 0854 1B68     		ldr	r3, [r3]
 1605 0856 9847     		blx	r3
 1606              	.LVL193:
 1607              	.LBE270:
 1608              	.LBE269:
 476:..\..\..\lvgl\version_6.1.2\lvgl\src\lv_objx/lv_calendar.c **** 
 1609              		.loc 1 476 0
 1610 0858 2BB0     		add	sp, sp, #172
 1611              		.cfi_remember_state
 1612              		.cfi_def_cfa_offset 36
 1613              		@ sp needed
 1614 085a BDE8F08F 		pop	{r4, r5, r6, r7, r8, r9, r10, fp, pc}
 1615              	.LVL194:
 1616              	.L113:
 1617              		.cfi_restore_state
 1618              	.LBB271:
 1619              	.LBB267:
 1620              	.LBB168:
 1621              	.LBB167:
 1622              	.LBB166:
 930:..\..\..\lvgl\version_6.1.2\lvgl\src\lv_objx/lv_calendar.c **** }
 1623              		.loc 1 930 0
 1624 085e 144B     		ldr	r3, .L129+16
 1625 0860 2EE4     		b	.L106
 1626              	.LVL195:
 1627              	.L114:
 1628              	.LBE166:
 1629              	.LBE167:
 1630              	.LBE168:
 1631              	.LBE267:
 1632              	.LBB268:
 1633              	.LBB266:
 1634              	.LBB265:
ARM GAS  C:\Users\pearlstl\AppData\Local\Temp\ccHPSyCj.s 			page 53


 1635              	.LBB215:
 1636              	.LBB211:
 1637              	.LBB212:
 963:..\..\..\lvgl\version_6.1.2\lvgl\src\lv_objx/lv_calendar.c **** }
 1638              		.loc 1 963 0
 1639 0862 1EF0030F 		tst	lr, #3
 1640 0866 12D1     		bne	.L65
 1641 0868 0F4B     		ldr	r3, .L129+8
 1642 086a A3FB0E23 		umull	r2, r3, r3, lr
 1643 086e 5A09     		lsrs	r2, r3, #5
 1644 0870 6421     		movs	r1, #100
 1645              	.LVL196:
 1646 0872 01FB12E2 		mls	r2, r1, r2, lr
 1647 0876 8AB9     		cbnz	r2, .L66
 1648 0878 DB09     		lsrs	r3, r3, #7
 1649 087a 4FF4C872 		mov	r2, #400
 1650 087e 02FB13EE 		mls	lr, r2, r3, lr
 1651              	.LVL197:
 1652 0882 BEF1000F 		cmp	lr, #0
 1653 0886 14BF     		ite	ne
 1654 0888 1C23     		movne	r3, #28
 1655 088a 1D23     		moveq	r3, #29
 1656 088c BAE5     		b	.L18
 1657              	.LVL198:
 1658              	.L65:
 1659 088e 1C23     		movs	r3, #28
 1660 0890 B8E5     		b	.L18
 1661              	.LVL199:
 1662              	.L115:
 1663              	.LBE212:
 1664              	.LBE211:
 953:..\..\..\lvgl\version_6.1.2\lvgl\src\lv_objx/lv_calendar.c **** }
 1665              		.loc 1 953 0
 1666 0892 013C     		subs	r4, r4, #1
 1667 0894 64F00104 		orn	r4, r4, #1
 1668 0898 0134     		adds	r4, r4, #1
 1669 089a B0E5     		b	.L19
 1670              	.LVL200:
 1671              	.L66:
 1672              	.LBB214:
 1673              	.LBB213:
 963:..\..\..\lvgl\version_6.1.2\lvgl\src\lv_objx/lv_calendar.c **** }
 1674              		.loc 1 963 0
 1675 089c 1D23     		movs	r3, #29
 1676 089e B1E5     		b	.L18
 1677              	.L130:
 1678              		.align	2
 1679              	.L129:
 1680 08a0 93244992 		.word	-1840700269
 1681 08a4 01000080 		.word	-2147483647
 1682 08a8 1F85EB51 		.word	1374389535
 1683 08ac 00000000 		.word	.LANCHOR0
 1684 08b0 00000000 		.word	.LANCHOR1
 1685              	.LBE213:
 1686              	.LBE214:
 1687              	.LBE215:
 1688              	.LBE265:
ARM GAS  C:\Users\pearlstl\AppData\Local\Temp\ccHPSyCj.s 			page 54


 1689              	.LBE266:
 1690              	.LBE268:
 1691              	.LBE271:
 1692              		.cfi_endproc
 1693              	.LFE46:
 1694              		.size	lv_calendar_design, .-lv_calendar_design
 1695              		.section	.text.lv_calendar_signal,"ax",%progbits
 1696              		.align	2
 1697              		.thumb
 1698              		.thumb_func
 1699              		.type	lv_calendar_signal, %function
 1700              	lv_calendar_signal:
 1701              	.LFB47:
 486:..\..\..\lvgl\version_6.1.2\lvgl\src\lv_objx/lv_calendar.c ****     lv_res_t res;
 1702              		.loc 1 486 0
 1703              		.cfi_startproc
 1704              		@ args = 0, pretend = 0, frame = 24
 1705              		@ frame_needed = 0, uses_anonymous_args = 0
 1706              	.LVL201:
 1707 0000 2DE9F047 		push	{r4, r5, r6, r7, r8, r9, r10, lr}
 1708              		.cfi_def_cfa_offset 32
 1709              		.cfi_offset 4, -32
 1710              		.cfi_offset 5, -28
 1711              		.cfi_offset 6, -24
 1712              		.cfi_offset 7, -20
 1713              		.cfi_offset 8, -16
 1714              		.cfi_offset 9, -12
 1715              		.cfi_offset 10, -8
 1716              		.cfi_offset 14, -4
 490:..\..\..\lvgl\version_6.1.2\lvgl\src\lv_objx/lv_calendar.c ****     if(res != LV_RES_OK) return res;
 1717              		.loc 1 490 0
 1718 0004 CB4B     		ldr	r3, .L221
 486:..\..\..\lvgl\version_6.1.2\lvgl\src\lv_objx/lv_calendar.c ****     lv_res_t res;
 1719              		.loc 1 486 0
 1720 0006 86B0     		sub	sp, sp, #24
 1721              		.cfi_def_cfa_offset 56
 490:..\..\..\lvgl\version_6.1.2\lvgl\src\lv_objx/lv_calendar.c ****     if(res != LV_RES_OK) return res;
 1722              		.loc 1 490 0
 1723 0008 5B68     		ldr	r3, [r3, #4]
 486:..\..\..\lvgl\version_6.1.2\lvgl\src\lv_objx/lv_calendar.c ****     lv_res_t res;
 1724              		.loc 1 486 0
 1725 000a 0646     		mov	r6, r0
 1726 000c 0D46     		mov	r5, r1
 1727 000e 1746     		mov	r7, r2
 490:..\..\..\lvgl\version_6.1.2\lvgl\src\lv_objx/lv_calendar.c ****     if(res != LV_RES_OK) return res;
 1728              		.loc 1 490 0
 1729 0010 9847     		blx	r3
 1730              	.LVL202:
 491:..\..\..\lvgl\version_6.1.2\lvgl\src\lv_objx/lv_calendar.c ****     if(sign == LV_SIGNAL_GET_TYPE) return lv_obj_handle_get_type_signal(param, LV_OBJX_NAME);
 1731              		.loc 1 491 0
 1732 0012 0128     		cmp	r0, #1
 490:..\..\..\lvgl\version_6.1.2\lvgl\src\lv_objx/lv_calendar.c ****     if(res != LV_RES_OK) return res;
 1733              		.loc 1 490 0
 1734 0014 0446     		mov	r4, r0
 1735              	.LVL203:
 491:..\..\..\lvgl\version_6.1.2\lvgl\src\lv_objx/lv_calendar.c ****     if(sign == LV_SIGNAL_GET_TYPE) return lv_obj_handle_get_type_signal(param, LV_OBJX_NAME);
 1736              		.loc 1 491 0
ARM GAS  C:\Users\pearlstl\AppData\Local\Temp\ccHPSyCj.s 			page 55


 1737 0016 02D0     		beq	.L204
 1738              	.LVL204:
 1739              	.L197:
 584:..\..\..\lvgl\version_6.1.2\lvgl\src\lv_objx/lv_calendar.c **** 
 1740              		.loc 1 584 0
 1741 0018 06B0     		add	sp, sp, #24
 1742              		.cfi_remember_state
 1743              		.cfi_def_cfa_offset 32
 1744              		@ sp needed
 1745 001a BDE8F087 		pop	{r4, r5, r6, r7, r8, r9, r10, pc}
 1746              	.LVL205:
 1747              	.L204:
 1748              		.cfi_restore_state
 492:..\..\..\lvgl\version_6.1.2\lvgl\src\lv_objx/lv_calendar.c **** 
 1749              		.loc 1 492 0
 1750 001e 072D     		cmp	r5, #7
 1751 0020 66D0     		beq	.L205
 494:..\..\..\lvgl\version_6.1.2\lvgl\src\lv_objx/lv_calendar.c ****         /*Nothing to cleanup. (No dynamically allocated memory in 'ext')*/
 1752              		.loc 1 494 0
 1753 0022 45B1     		cbz	r5, .L200
 496:..\..\..\lvgl\version_6.1.2\lvgl\src\lv_objx/lv_calendar.c ****         lv_calendar_ext_t * ext = lv_obj_get_ext_attr(calendar);
 1754              		.loc 1 496 0
 1755 0024 092D     		cmp	r5, #9
 1756 0026 0AD0     		beq	.L206
 533:..\..\..\lvgl\version_6.1.2\lvgl\src\lv_objx/lv_calendar.c ****         lv_calendar_ext_t * ext = lv_obj_get_ext_attr(calendar);
 1757              		.loc 1 533 0
 1758 0028 0A2D     		cmp	r5, #10
 1759 002a 00F08180 		beq	.L207
 538:..\..\..\lvgl\version_6.1.2\lvgl\src\lv_objx/lv_calendar.c ****         lv_calendar_ext_t * ext = lv_obj_get_ext_attr(calendar);
 1760              		.loc 1 538 0
 1761 002e 0B2D     		cmp	r5, #11
 1762 0030 63D0     		beq	.L208
 561:..\..\..\lvgl\version_6.1.2\lvgl\src\lv_objx/lv_calendar.c ****         uint8_t c               = *((uint8_t *)param);
 1763              		.loc 1 561 0
 1764 0032 122D     		cmp	r5, #18
 1765 0034 44D0     		beq	.L209
 1766              	.LVL206:
 1767              	.L200:
 1768              	.LBB303:
 579:..\..\..\lvgl\version_6.1.2\lvgl\src\lv_objx/lv_calendar.c ****         }
 1769              		.loc 1 579 0
 1770 0036 0120     		movs	r0, #1
 1771              	.LBE303:
 584:..\..\..\lvgl\version_6.1.2\lvgl\src\lv_objx/lv_calendar.c **** 
 1772              		.loc 1 584 0
 1773 0038 06B0     		add	sp, sp, #24
 1774              		.cfi_remember_state
 1775              		.cfi_def_cfa_offset 32
 1776              		@ sp needed
 1777 003a BDE8F087 		pop	{r4, r5, r6, r7, r8, r9, r10, pc}
 1778              	.LVL207:
 1779              	.L206:
 1780              		.cfi_restore_state
 1781              	.LBB304:
 497:..\..\..\lvgl\version_6.1.2\lvgl\src\lv_objx/lv_calendar.c ****         lv_area_t header_area;
 1782              		.loc 1 497 0
 1783 003e 3046     		mov	r0, r6
ARM GAS  C:\Users\pearlstl\AppData\Local\Temp\ccHPSyCj.s 			page 56


 1784              	.LVL208:
 1785 0040 FFF7FEFF 		bl	lv_obj_get_ext_attr
 1786              	.LVL209:
 499:..\..\..\lvgl\version_6.1.2\lvgl\src\lv_objx/lv_calendar.c ****         header_area.y2 = header_area.y1 + get_header_height(calendar);
 1787              		.loc 1 499 0
 1788 0044 3546     		mov	r5, r6
 497:..\..\..\lvgl\version_6.1.2\lvgl\src\lv_objx/lv_calendar.c ****         lv_area_t header_area;
 1789              		.loc 1 497 0
 1790 0046 0446     		mov	r4, r0
 1791              	.LVL210:
 1792              	.LBB305:
 1793              	.LBB306:
 1794              		.loc 2 78 0
 1795 0048 55F8100F 		ldr	r0, [r5, #16]!	@ unaligned
 1796              	.LVL211:
 1797 004c 6968     		ldr	r1, [r5, #4]	@ unaligned
 1798 004e 02AB     		add	r3, sp, #8
 1799              	.LVL212:
 1800 0050 03C3     		stmia	r3!, {r0, r1}
 1801              	.LVL213:
 1802              	.LBE306:
 1803              	.LBE305:
 1804              	.LBB307:
 1805              	.LBB308:
 646:..\..\..\lvgl\version_6.1.2\lvgl\src\lv_objx/lv_calendar.c **** 
 1806              		.loc 1 646 0
 1807 0052 3046     		mov	r0, r6
 1808              	.LBE308:
 1809              	.LBE307:
 500:..\..\..\lvgl\version_6.1.2\lvgl\src\lv_objx/lv_calendar.c **** 
 1810              		.loc 1 500 0
 1811 0054 BDF80A70 		ldrh	r7, [sp, #10]
 1812              	.LVL214:
 1813              	.LBB310:
 1814              	.LBB309:
 646:..\..\..\lvgl\version_6.1.2\lvgl\src\lv_objx/lv_calendar.c **** 
 1815              		.loc 1 646 0
 1816 0058 FFF7FEFF 		bl	lv_obj_get_ext_attr
 1817              	.LVL215:
 648:..\..\..\lvgl\version_6.1.2\lvgl\src\lv_objx/lv_calendar.c ****            ext->style_header->body.padding.bottom;
 1818              		.loc 1 648 0
 1819 005c C269     		ldr	r2, [r0, #28]
 1820              	.LVL216:
 1821              	.LBE309:
 1822              	.LBE310:
 500:..\..\..\lvgl\version_6.1.2\lvgl\src\lv_objx/lv_calendar.c **** 
 1823              		.loc 1 500 0
 1824 005e 118C     		ldrh	r1, [r2, #32]
 1825 0060 536B     		ldr	r3, [r2, #52]
 1826 0062 528C     		ldrh	r2, [r2, #34]
 1827              	.LVL217:
 1828 0064 187A     		ldrb	r0, [r3, #8]	@ zero_extendqisi2
 1829 0066 7B18     		adds	r3, r7, r1
 1830              	.LVL218:
 1831 0068 1344     		add	r3, r3, r2
 1832 006a 0344     		add	r3, r3, r0
 1833 006c ADF80E30 		strh	r3, [sp, #14]	@ movhi
ARM GAS  C:\Users\pearlstl\AppData\Local\Temp\ccHPSyCj.s 			page 57


 502:..\..\..\lvgl\version_6.1.2\lvgl\src\lv_objx/lv_calendar.c ****         lv_point_t p;
 1834              		.loc 1 502 0
 1835 0070 FFF7FEFF 		bl	lv_indev_get_act
 1836              	.LVL219:
 504:..\..\..\lvgl\version_6.1.2\lvgl\src\lv_objx/lv_calendar.c **** 
 1837              		.loc 1 504 0
 1838 0074 01A9     		add	r1, sp, #4
 1839 0076 FFF7FEFF 		bl	lv_indev_get_point
 1840              	.LVL220:
 507:..\..\..\lvgl\version_6.1.2\lvgl\src\lv_objx/lv_calendar.c ****             if(p.x < header_area.x1 + lv_area_get_width(&header_area) / 2) {
 1841              		.loc 1 507 0
 1842 007a 01A9     		add	r1, sp, #4
 1843 007c 02A8     		add	r0, sp, #8
 1844 007e FFF7FEFF 		bl	lv_area_is_point_on
 1845              	.LVL221:
 1846 0082 0028     		cmp	r0, #0
 1847 0084 75D0     		beq	.L136
 508:..\..\..\lvgl\version_6.1.2\lvgl\src\lv_objx/lv_calendar.c ****                 if(ext->btn_pressing != -1) lv_obj_invalidate(calendar);
 1848              		.loc 1 508 0
 1849 0086 BDF80C30 		ldrh	r3, [sp, #12]
 1850 008a BDF90820 		ldrsh	r2, [sp, #8]
 1851              	.LVL222:
 1852 008e BDF90410 		ldrsh	r1, [sp, #4]
 1853 0092 0133     		adds	r3, r3, #1
 1854 0094 9B1A     		subs	r3, r3, r2
 1855 0096 1BB2     		sxth	r3, r3
 1856 0098 03EBD373 		add	r3, r3, r3, lsr #31
 1857 009c 02EB6303 		add	r3, r2, r3, asr #1
 1858 00a0 9942     		cmp	r1, r3
 509:..\..\..\lvgl\version_6.1.2\lvgl\src\lv_objx/lv_calendar.c ****                 ext->btn_pressing = -1;
 1859              		.loc 1 509 0
 1860 00a2 94F90C30 		ldrsb	r3, [r4, #12]
 508:..\..\..\lvgl\version_6.1.2\lvgl\src\lv_objx/lv_calendar.c ****                 if(ext->btn_pressing != -1) lv_obj_invalidate(calendar);
 1861              		.loc 1 508 0
 1862 00a6 5CDA     		bge	.L137
 509:..\..\..\lvgl\version_6.1.2\lvgl\src\lv_objx/lv_calendar.c ****                 ext->btn_pressing = -1;
 1863              		.loc 1 509 0
 1864 00a8 0133     		adds	r3, r3, #1
 1865 00aa 02D0     		beq	.L138
 509:..\..\..\lvgl\version_6.1.2\lvgl\src\lv_objx/lv_calendar.c ****                 ext->btn_pressing = -1;
 1866              		.loc 1 509 0 is_stmt 0 discriminator 1
 1867 00ac 3046     		mov	r0, r6
 1868 00ae FFF7FEFF 		bl	lv_obj_invalidate
 1869              	.LVL223:
 1870              	.L138:
 510:..\..\..\lvgl\version_6.1.2\lvgl\src\lv_objx/lv_calendar.c ****             } else {
 1871              		.loc 1 510 0 is_stmt 1
 1872 00b2 FF23     		movs	r3, #255
 1873 00b4 2373     		strb	r3, [r4, #12]
 1874              	.L139:
 516:..\..\..\lvgl\version_6.1.2\lvgl\src\lv_objx/lv_calendar.c ****             ext->pressed_date.month = 0;
 1875              		.loc 1 516 0
 1876 00b6 0023     		movs	r3, #0
 1877 00b8 2382     		strh	r3, [r4, #16]	@ movhi
 517:..\..\..\lvgl\version_6.1.2\lvgl\src\lv_objx/lv_calendar.c ****             ext->pressed_date.day   = 0;
 1878              		.loc 1 517 0
 1879 00ba A374     		strb	r3, [r4, #18]
ARM GAS  C:\Users\pearlstl\AppData\Local\Temp\ccHPSyCj.s 			page 58


 518:..\..\..\lvgl\version_6.1.2\lvgl\src\lv_objx/lv_calendar.c ****         }
 1880              		.loc 1 518 0
 1881 00bc E374     		strb	r3, [r4, #19]
 1882 00be BAE7     		b	.L200
 1883              	.LVL224:
 1884              	.L209:
 1885              	.LBE304:
 1886              	.LBB372:
 562:..\..\..\lvgl\version_6.1.2\lvgl\src\lv_objx/lv_calendar.c ****         lv_calendar_ext_t * ext = lv_obj_get_ext_attr(calendar);
 1887              		.loc 1 562 0
 1888 00c0 3D78     		ldrb	r5, [r7]	@ zero_extendqisi2
 1889              	.LVL225:
 563:..\..\..\lvgl\version_6.1.2\lvgl\src\lv_objx/lv_calendar.c ****         if(c == LV_KEY_RIGHT || c == LV_KEY_UP) {
 1890              		.loc 1 563 0
 1891 00c2 3046     		mov	r0, r6
 1892              	.LVL226:
 1893 00c4 FFF7FEFF 		bl	lv_obj_get_ext_attr
 1894              	.LVL227:
 564:..\..\..\lvgl\version_6.1.2\lvgl\src\lv_objx/lv_calendar.c ****             if(ext->showed_date.month >= 12) {
 1895              		.loc 1 564 0
 1896 00c8 05F0FD03 		and	r3, r5, #253
 1897 00cc 112B     		cmp	r3, #17
 1898 00ce 3AD0     		beq	.L210
 572:..\..\..\lvgl\version_6.1.2\lvgl\src\lv_objx/lv_calendar.c ****             if(ext->showed_date.month <= 1) {
 1899              		.loc 1 572 0
 1900 00d0 142D     		cmp	r5, #20
 1901 00d2 01D0     		beq	.L172
 572:..\..\..\lvgl\version_6.1.2\lvgl\src\lv_objx/lv_calendar.c ****             if(ext->showed_date.month <= 1) {
 1902              		.loc 1 572 0 is_stmt 0 discriminator 1
 1903 00d4 122D     		cmp	r5, #18
 1904 00d6 AED1     		bne	.L200
 1905              	.L172:
 573:..\..\..\lvgl\version_6.1.2\lvgl\src\lv_objx/lv_calendar.c ****                 ext->showed_date.month = 12;
 1906              		.loc 1 573 0 is_stmt 1
 1907 00d8 90F90630 		ldrsb	r3, [r0, #6]
 1908 00dc 012B     		cmp	r3, #1
 1909 00de 40F38C81 		ble	.L211
 577:..\..\..\lvgl\version_6.1.2\lvgl\src\lv_objx/lv_calendar.c ****             }
 1910              		.loc 1 577 0
 1911 00e2 013B     		subs	r3, r3, #1
 1912 00e4 5BB2     		sxtb	r3, r3
 1913              	.L174:
 1914 00e6 8371     		strb	r3, [r0, #6]
 579:..\..\..\lvgl\version_6.1.2\lvgl\src\lv_objx/lv_calendar.c ****         }
 1915              		.loc 1 579 0
 1916 00e8 3046     		mov	r0, r6
 1917              	.LVL228:
 1918 00ea FFF7FEFF 		bl	lv_obj_invalidate
 1919              	.LVL229:
 1920 00ee A2E7     		b	.L200
 1921              	.LVL230:
 1922              	.L205:
 1923              	.LBE372:
 492:..\..\..\lvgl\version_6.1.2\lvgl\src\lv_objx/lv_calendar.c **** 
 1924              		.loc 1 492 0 discriminator 1
 1925 00f0 3846     		mov	r0, r7
 1926              	.LVL231:
ARM GAS  C:\Users\pearlstl\AppData\Local\Temp\ccHPSyCj.s 			page 59


 1927 00f2 9149     		ldr	r1, .L221+4
 1928 00f4 FFF7FEFF 		bl	lv_obj_handle_get_type_signal
 1929              	.LVL232:
 1930 00f8 8EE7     		b	.L197
 1931              	.LVL233:
 1932              	.L208:
 1933              	.LBB373:
 539:..\..\..\lvgl\version_6.1.2\lvgl\src\lv_objx/lv_calendar.c ****         if(ext->btn_pressing < 0) {
 1934              		.loc 1 539 0
 1935 00fa 3046     		mov	r0, r6
 1936              	.LVL234:
 1937 00fc FFF7FEFF 		bl	lv_obj_get_ext_attr
 1938              	.LVL235:
 540:..\..\..\lvgl\version_6.1.2\lvgl\src\lv_objx/lv_calendar.c ****             if(ext->showed_date.month <= 1) {
 1939              		.loc 1 540 0
 1940 0100 90F90C20 		ldrsb	r2, [r0, #12]
 1941 0104 002A     		cmp	r2, #0
 539:..\..\..\lvgl\version_6.1.2\lvgl\src\lv_objx/lv_calendar.c ****         if(ext->btn_pressing < 0) {
 1942              		.loc 1 539 0
 1943 0106 0546     		mov	r5, r0
 1944              	.LVL236:
 540:..\..\..\lvgl\version_6.1.2\lvgl\src\lv_objx/lv_calendar.c ****             if(ext->showed_date.month <= 1) {
 1945              		.loc 1 540 0
 1946 0108 C0F22481 		blt	.L212
 547:..\..\..\lvgl\version_6.1.2\lvgl\src\lv_objx/lv_calendar.c ****             if(ext->showed_date.month >= 12) {
 1947              		.loc 1 547 0
 1948 010c 00F02C81 		beq	.L164
 548:..\..\..\lvgl\version_6.1.2\lvgl\src\lv_objx/lv_calendar.c ****                 ext->showed_date.month = 1;
 1949              		.loc 1 548 0
 1950 0110 90F90630 		ldrsb	r3, [r0, #6]
 1951 0114 0B2B     		cmp	r3, #11
 1952 0116 40F32481 		ble	.L165
 550:..\..\..\lvgl\version_6.1.2\lvgl\src\lv_objx/lv_calendar.c ****             } else {
 1953              		.loc 1 550 0
 1954 011a 8388     		ldrh	r3, [r0, #4]
 549:..\..\..\lvgl\version_6.1.2\lvgl\src\lv_objx/lv_calendar.c ****                 ext->showed_date.year++;
 1955              		.loc 1 549 0
 1956 011c 8471     		strb	r4, [r0, #6]
 550:..\..\..\lvgl\version_6.1.2\lvgl\src\lv_objx/lv_calendar.c ****             } else {
 1957              		.loc 1 550 0
 1958 011e 0133     		adds	r3, r3, #1
 1959 0120 8380     		strh	r3, [r0, #4]	@ movhi
 1960              	.LVL237:
 1961              	.L163:
 559:..\..\..\lvgl\version_6.1.2\lvgl\src\lv_objx/lv_calendar.c ****         lv_obj_invalidate(calendar);
 1962              		.loc 1 559 0
 1963 0122 0023     		movs	r3, #0
 560:..\..\..\lvgl\version_6.1.2\lvgl\src\lv_objx/lv_calendar.c ****     } else if(sign == LV_SIGNAL_CONTROL) {
 1964              		.loc 1 560 0
 1965 0124 3046     		mov	r0, r6
 559:..\..\..\lvgl\version_6.1.2\lvgl\src\lv_objx/lv_calendar.c ****         lv_obj_invalidate(calendar);
 1966              		.loc 1 559 0
 1967 0126 2B73     		strb	r3, [r5, #12]
 560:..\..\..\lvgl\version_6.1.2\lvgl\src\lv_objx/lv_calendar.c ****     } else if(sign == LV_SIGNAL_CONTROL) {
 1968              		.loc 1 560 0
 1969 0128 FFF7FEFF 		bl	lv_obj_invalidate
 1970              	.LVL238:
ARM GAS  C:\Users\pearlstl\AppData\Local\Temp\ccHPSyCj.s 			page 60


 1971              	.LBE373:
 1972 012c 0120     		movs	r0, #1
 1973 012e 73E7     		b	.L197
 1974              	.LVL239:
 1975              	.L207:
 1976              	.LBB374:
 534:..\..\..\lvgl\version_6.1.2\lvgl\src\lv_objx/lv_calendar.c ****         ext->btn_pressing       = 0;
 1977              		.loc 1 534 0
 1978 0130 3046     		mov	r0, r6
 1979              	.LVL240:
 1980 0132 FFF7FEFF 		bl	lv_obj_get_ext_attr
 1981              	.LVL241:
 1982 0136 0346     		mov	r3, r0
 1983              	.LVL242:
 535:..\..\..\lvgl\version_6.1.2\lvgl\src\lv_objx/lv_calendar.c ****         lv_obj_invalidate(calendar);
 1984              		.loc 1 535 0
 1985 0138 0022     		movs	r2, #0
 536:..\..\..\lvgl\version_6.1.2\lvgl\src\lv_objx/lv_calendar.c **** 
 1986              		.loc 1 536 0
 1987 013a 3046     		mov	r0, r6
 1988              	.LVL243:
 535:..\..\..\lvgl\version_6.1.2\lvgl\src\lv_objx/lv_calendar.c ****         lv_obj_invalidate(calendar);
 1989              		.loc 1 535 0
 1990 013c 1A73     		strb	r2, [r3, #12]
 536:..\..\..\lvgl\version_6.1.2\lvgl\src\lv_objx/lv_calendar.c **** 
 1991              		.loc 1 536 0
 1992 013e FFF7FEFF 		bl	lv_obj_invalidate
 1993              	.LVL244:
 1994              	.LBE374:
 1995 0142 2046     		mov	r0, r4
 1996 0144 68E7     		b	.L197
 1997              	.LVL245:
 1998              	.L210:
 1999              	.LBB375:
 565:..\..\..\lvgl\version_6.1.2\lvgl\src\lv_objx/lv_calendar.c ****                 ext->showed_date.month = 1;
 2000              		.loc 1 565 0
 2001 0146 90F90630 		ldrsb	r3, [r0, #6]
 2002 014a 0B2B     		cmp	r3, #11
 2003 014c 40F3EF80 		ble	.L170
 567:..\..\..\lvgl\version_6.1.2\lvgl\src\lv_objx/lv_calendar.c ****             } else {
 2004              		.loc 1 567 0
 2005 0150 8388     		ldrh	r3, [r0, #4]
 2006 0152 0133     		adds	r3, r3, #1
 2007 0154 8380     		strh	r3, [r0, #4]	@ movhi
 2008              	.L171:
 2009 0156 8471     		strb	r4, [r0, #6]
 571:..\..\..\lvgl\version_6.1.2\lvgl\src\lv_objx/lv_calendar.c ****         } else if(c == LV_KEY_LEFT || c == LV_KEY_DOWN) {
 2010              		.loc 1 571 0
 2011 0158 3046     		mov	r0, r6
 2012              	.LVL246:
 2013 015a FFF7FEFF 		bl	lv_obj_invalidate
 2014              	.LVL247:
 2015 015e 0120     		movs	r0, #1
 2016 0160 5AE7     		b	.L197
 2017              	.LVL248:
 2018              	.L137:
 2019              	.LBE375:
ARM GAS  C:\Users\pearlstl\AppData\Local\Temp\ccHPSyCj.s 			page 61


 2020              	.LBB376:
 512:..\..\..\lvgl\version_6.1.2\lvgl\src\lv_objx/lv_calendar.c ****                 ext->btn_pressing = 1;
 2021              		.loc 1 512 0
 2022 0162 012B     		cmp	r3, #1
 2023 0164 02D0     		beq	.L140
 512:..\..\..\lvgl\version_6.1.2\lvgl\src\lv_objx/lv_calendar.c ****                 ext->btn_pressing = 1;
 2024              		.loc 1 512 0 is_stmt 0 discriminator 1
 2025 0166 3046     		mov	r0, r6
 2026 0168 FFF7FEFF 		bl	lv_obj_invalidate
 2027              	.LVL249:
 2028              	.L140:
 513:..\..\..\lvgl\version_6.1.2\lvgl\src\lv_objx/lv_calendar.c ****             }
 2029              		.loc 1 513 0 is_stmt 1
 2030 016c 0123     		movs	r3, #1
 2031 016e 2373     		strb	r3, [r4, #12]
 2032 0170 A1E7     		b	.L139
 2033              	.LVL250:
 2034              	.L136:
 2035              	.LBB311:
 2036              	.LBB312:
 2037              	.LBB313:
 2038              	.LBB314:
 2039              		.loc 2 78 0
 2040 0172 6968     		ldr	r1, [r5, #4]	@ unaligned
 2041 0174 2868     		ldr	r0, [r5]	@ unaligned
 2042 0176 04AB     		add	r3, sp, #16
 2043              	.LVL251:
 2044 0178 03C3     		stmia	r3!, {r0, r1}
 2045              	.LVL252:
 2046              	.LBE314:
 2047              	.LBE313:
 2048              	.LBB315:
 2049              	.LBB316:
 416:..\..\..\lvgl\version_6.1.2\lvgl\src\lv_objx/lv_calendar.c **** 
 2050              		.loc 1 416 0
 2051 017a 3046     		mov	r0, r6
 2052 017c FFF7FEFF 		bl	lv_obj_get_ext_attr
 2053              	.LVL253:
 419:..\..\..\lvgl\version_6.1.2\lvgl\src\lv_objx/lv_calendar.c ****         case LV_CALENDAR_STYLE_HEADER: style = ext->style_header; break;
 2054              		.loc 1 419 0
 2055 0180 3046     		mov	r0, r6
 2056 0182 FFF7FEFF 		bl	lv_obj_get_style
 2057              	.LVL254:
 2058 0186 0746     		mov	r7, r0
 2059              	.LVL255:
 2060              	.LBE316:
 2061              	.LBE315:
 600:..\..\..\lvgl\version_6.1.2\lvgl\src\lv_objx/lv_calendar.c ****     days_area.y1 =
 2062              		.loc 1 600 0
 2063 0188 BDF81430 		ldrh	r3, [sp, #20]
 599:..\..\..\lvgl\version_6.1.2\lvgl\src\lv_objx/lv_calendar.c ****     days_area.x2 -= style_bg->body.padding.right;
 2064              		.loc 1 599 0
 2065 018c BDF81000 		ldrh	r0, [sp, #16]
 600:..\..\..\lvgl\version_6.1.2\lvgl\src\lv_objx/lv_calendar.c ****     days_area.y1 =
 2066              		.loc 1 600 0
 2067 0190 F98C     		ldrh	r1, [r7, #38]
 599:..\..\..\lvgl\version_6.1.2\lvgl\src\lv_objx/lv_calendar.c ****     days_area.x2 -= style_bg->body.padding.right;
ARM GAS  C:\Users\pearlstl\AppData\Local\Temp\ccHPSyCj.s 			page 62


 2068              		.loc 1 599 0
 2069 0192 BA8C     		ldrh	r2, [r7, #36]
 601:..\..\..\lvgl\version_6.1.2\lvgl\src\lv_objx/lv_calendar.c ****         calendar->coords.y1 + get_header_height(calendar) + get_day_names_height(calendar) - style_
 2070              		.loc 1 601 0
 2071 0194 758A     		ldrh	r5, [r6, #18]
 2072              	.LVL256:
 599:..\..\..\lvgl\version_6.1.2\lvgl\src\lv_objx/lv_calendar.c ****     days_area.x2 -= style_bg->body.padding.right;
 2073              		.loc 1 599 0
 2074 0196 0244     		add	r2, r2, r0
 600:..\..\..\lvgl\version_6.1.2\lvgl\src\lv_objx/lv_calendar.c ****     days_area.y1 =
 2075              		.loc 1 600 0
 2076 0198 5B1A     		subs	r3, r3, r1
 2077              	.LBB317:
 2078              	.LBB318:
 646:..\..\..\lvgl\version_6.1.2\lvgl\src\lv_objx/lv_calendar.c **** 
 2079              		.loc 1 646 0
 2080 019a 3046     		mov	r0, r6
 2081              	.LBE318:
 2082              	.LBE317:
 599:..\..\..\lvgl\version_6.1.2\lvgl\src\lv_objx/lv_calendar.c ****     days_area.x2 -= style_bg->body.padding.right;
 2083              		.loc 1 599 0
 2084 019c ADF81020 		strh	r2, [sp, #16]	@ movhi
 600:..\..\..\lvgl\version_6.1.2\lvgl\src\lv_objx/lv_calendar.c ****     days_area.y1 =
 2085              		.loc 1 600 0
 2086 01a0 ADF81430 		strh	r3, [sp, #20]	@ movhi
 2087              	.LBB321:
 2088              	.LBB319:
 646:..\..\..\lvgl\version_6.1.2\lvgl\src\lv_objx/lv_calendar.c **** 
 2089              		.loc 1 646 0
 2090 01a4 FFF7FEFF 		bl	lv_obj_get_ext_attr
 2091              	.LVL257:
 648:..\..\..\lvgl\version_6.1.2\lvgl\src\lv_objx/lv_calendar.c ****            ext->style_header->body.padding.bottom;
 2092              		.loc 1 648 0
 2093 01a8 C169     		ldr	r1, [r0, #28]
 2094              	.LVL258:
 2095 01aa 0A8C     		ldrh	r2, [r1, #32]
 2096 01ac 4B8C     		ldrh	r3, [r1, #34]
 2097 01ae 496B     		ldr	r1, [r1, #52]
 2098              	.LVL259:
 2099 01b0 1544     		add	r5, r5, r2
 2100              	.LBE319:
 2101              	.LBE321:
 2102              	.LBB322:
 2103              	.LBB323:
 659:..\..\..\lvgl\version_6.1.2\lvgl\src\lv_objx/lv_calendar.c **** 
 2104              		.loc 1 659 0
 2105 01b2 3046     		mov	r0, r6
 2106              	.LVL260:
 2107 01b4 1D44     		add	r5, r5, r3
 2108              	.LBE323:
 2109              	.LBE322:
 2110              	.LBB325:
 2111              	.LBB320:
 648:..\..\..\lvgl\version_6.1.2\lvgl\src\lv_objx/lv_calendar.c ****            ext->style_header->body.padding.bottom;
 2112              		.loc 1 648 0
 2113 01b6 91F80880 		ldrb	r8, [r1, #8]	@ zero_extendqisi2
 2114              	.LBE320:
ARM GAS  C:\Users\pearlstl\AppData\Local\Temp\ccHPSyCj.s 			page 63


 2115              	.LBE325:
 2116              	.LBB326:
 2117              	.LBB324:
 659:..\..\..\lvgl\version_6.1.2\lvgl\src\lv_objx/lv_calendar.c **** 
 2118              		.loc 1 659 0
 2119 01ba FFF7FEFF 		bl	lv_obj_get_ext_attr
 2120              	.LVL261:
 661:..\..\..\lvgl\version_6.1.2\lvgl\src\lv_objx/lv_calendar.c ****            ext->style_day_names->body.padding.bottom;
 2121              		.loc 1 661 0
 2122 01be 406A     		ldr	r0, [r0, #36]
 2123              	.LBE324:
 2124              	.LBE326:
 601:..\..\..\lvgl\version_6.1.2\lvgl\src\lv_objx/lv_calendar.c ****         calendar->coords.y1 + get_header_height(calendar) + get_day_names_height(calendar) - style_
 2125              		.loc 1 601 0
 2126 01c0 3F8C     		ldrh	r7, [r7, #32]
 2127 01c2 028C     		ldrh	r2, [r0, #32]
 2128 01c4 418C     		ldrh	r1, [r0, #34]
 2129 01c6 436B     		ldr	r3, [r0, #52]
 2130 01c8 ADB2     		uxth	r5, r5
 2131              	.LVL262:
 2132 01ca 2A44     		add	r2, r2, r5
 2133 01cc 0A44     		add	r2, r2, r1
 2134 01ce 1B7A     		ldrb	r3, [r3, #8]	@ zero_extendqisi2
 2135              	.LVL263:
 2136 01d0 4244     		add	r2, r2, r8
 2137 01d2 1344     		add	r3, r3, r2
 2138 01d4 DB1B     		subs	r3, r3, r7
 604:..\..\..\lvgl\version_6.1.2\lvgl\src\lv_objx/lv_calendar.c ****         lv_coord_t w  = (days_area.x2 - days_area.x1 + 1) / 7;
 2139              		.loc 1 604 0
 2140 01d6 04A8     		add	r0, sp, #16
 2141              	.LVL264:
 2142 01d8 01A9     		add	r1, sp, #4
 2143              	.LVL265:
 601:..\..\..\lvgl\version_6.1.2\lvgl\src\lv_objx/lv_calendar.c ****         calendar->coords.y1 + get_header_height(calendar) + get_day_names_height(calendar) - style_
 2144              		.loc 1 601 0
 2145 01da ADF81230 		strh	r3, [sp, #18]	@ movhi
 604:..\..\..\lvgl\version_6.1.2\lvgl\src\lv_objx/lv_calendar.c ****         lv_coord_t w  = (days_area.x2 - days_area.x1 + 1) / 7;
 2146              		.loc 1 604 0
 2147 01de FFF7FEFF 		bl	lv_area_is_point_on
 2148              	.LVL266:
 2149 01e2 0028     		cmp	r0, #0
 2150 01e4 00F0CC80 		beq	.L142
 2151              	.LBB327:
 606:..\..\..\lvgl\version_6.1.2\lvgl\src\lv_objx/lv_calendar.c ****         uint8_t x_pos = 0;
 2152              		.loc 1 606 0
 2153 01e8 BDF91280 		ldrsh	r8, [sp, #18]
 611:..\..\..\lvgl\version_6.1.2\lvgl\src\lv_objx/lv_calendar.c ****         if(y_pos > 5) y_pos = 5;
 2154              		.loc 1 611 0
 2155 01ec BDF91600 		ldrsh	r0, [sp, #22]
 605:..\..\..\lvgl\version_6.1.2\lvgl\src\lv_objx/lv_calendar.c ****         lv_coord_t h  = (days_area.y2 - days_area.y1 + 1) / 6;
 2156              		.loc 1 605 0
 2157 01f0 BDF91070 		ldrsh	r7, [sp, #16]
 2158              	.LVL267:
 608:..\..\..\lvgl\version_6.1.2\lvgl\src\lv_objx/lv_calendar.c ****         if(x_pos > 6) x_pos = 6;
 2159              		.loc 1 608 0
 2160 01f4 BDF914C0 		ldrsh	ip, [sp, #20]
 2161              	.LVL268:
ARM GAS  C:\Users\pearlstl\AppData\Local\Temp\ccHPSyCj.s 			page 64


 611:..\..\..\lvgl\version_6.1.2\lvgl\src\lv_objx/lv_calendar.c ****         if(y_pos > 5) y_pos = 5;
 2162              		.loc 1 611 0
 2163 01f8 5049     		ldr	r1, .L221+8
 2164 01fa BDF90630 		ldrsh	r3, [sp, #6]
 608:..\..\..\lvgl\version_6.1.2\lvgl\src\lv_objx/lv_calendar.c ****         if(x_pos > 6) x_pos = 6;
 2165              		.loc 1 608 0
 2166 01fe 504D     		ldr	r5, .L221+12
 2167 0200 BDF90420 		ldrsh	r2, [sp, #4]
 611:..\..\..\lvgl\version_6.1.2\lvgl\src\lv_objx/lv_calendar.c ****         if(y_pos > 5) y_pos = 5;
 2168              		.loc 1 611 0
 2169 0204 C8EB0000 		rsb	r0, r8, r0
 2170              	.LVL269:
 2171 0208 0130     		adds	r0, r0, #1
 2172 020a 81FB001E 		smull	r1, lr, r1, r0
 608:..\..\..\lvgl\version_6.1.2\lvgl\src\lv_objx/lv_calendar.c ****         if(x_pos > 6) x_pos = 6;
 2173              		.loc 1 608 0
 2174 020e C7EB0C0C 		rsb	ip, r7, ip
 2175              	.LVL270:
 611:..\..\..\lvgl\version_6.1.2\lvgl\src\lv_objx/lv_calendar.c ****         if(y_pos > 5) y_pos = 5;
 2176              		.loc 1 611 0
 2177 0212 AEEBE070 		sub	r0, lr, r0, asr #31
 608:..\..\..\lvgl\version_6.1.2\lvgl\src\lv_objx/lv_calendar.c ****         if(x_pos > 6) x_pos = 6;
 2178              		.loc 1 608 0
 2179 0216 0CF10101 		add	r1, ip, #1
 611:..\..\..\lvgl\version_6.1.2\lvgl\src\lv_objx/lv_calendar.c ****         if(y_pos > 5) y_pos = 5;
 2180              		.loc 1 611 0
 2181 021a C8EB0303 		rsb	r3, r8, r3
 2182 021e 93FBF0F3 		sdiv	r3, r3, r0
 2183 0222 DBB2     		uxtb	r3, r3
 608:..\..\..\lvgl\version_6.1.2\lvgl\src\lv_objx/lv_calendar.c ****         if(x_pos > 6) x_pos = 6;
 2184              		.loc 1 608 0
 2185 0224 85FB01E5 		smull	lr, r5, r5, r1
 615:..\..\..\lvgl\version_6.1.2\lvgl\src\lv_objx/lv_calendar.c ****         lv_calendar_ext_t * ext = lv_obj_get_ext_attr(calendar);
 2186              		.loc 1 615 0
 2187 0228 052B     		cmp	r3, #5
 2188 022a 28BF     		it	cs
 2189 022c 0523     		movcs	r3, #5
 608:..\..\..\lvgl\version_6.1.2\lvgl\src\lv_objx/lv_calendar.c ****         if(x_pos > 6) x_pos = 6;
 2190              		.loc 1 608 0
 2191 022e 0D44     		add	r5, r5, r1
 2192 0230 C917     		asrs	r1, r1, #31
 2193 0232 D21B     		subs	r2, r2, r7
 615:..\..\..\lvgl\version_6.1.2\lvgl\src\lv_objx/lv_calendar.c ****         lv_calendar_ext_t * ext = lv_obj_get_ext_attr(calendar);
 2194              		.loc 1 615 0
 2195 0234 C3EBC303 		rsb	r3, r3, r3, lsl #3
 608:..\..\..\lvgl\version_6.1.2\lvgl\src\lv_objx/lv_calendar.c ****         if(x_pos > 6) x_pos = 6;
 2196              		.loc 1 608 0
 2197 0238 C1EBA505 		rsb	r5, r1, r5, asr #2
 616:..\..\..\lvgl\version_6.1.2\lvgl\src\lv_objx/lv_calendar.c ****         if(i_pos < get_day_of_week(ext->showed_date.year, ext->showed_date.month, 1)) {
 2198              		.loc 1 616 0
 2199 023c 3046     		mov	r0, r6
 608:..\..\..\lvgl\version_6.1.2\lvgl\src\lv_objx/lv_calendar.c ****         if(x_pos > 6) x_pos = 6;
 2200              		.loc 1 608 0
 2201 023e 92FBF5F5 		sdiv	r5, r2, r5
 2202 0242 EDB2     		uxtb	r5, r5
 2203              	.LVL271:
 615:..\..\..\lvgl\version_6.1.2\lvgl\src\lv_objx/lv_calendar.c ****         lv_calendar_ext_t * ext = lv_obj_get_ext_attr(calendar);
ARM GAS  C:\Users\pearlstl\AppData\Local\Temp\ccHPSyCj.s 			page 65


 2204              		.loc 1 615 0
 2205 0244 062D     		cmp	r5, #6
 2206 0246 94BF     		ite	ls
 2207 0248 5D19     		addls	r5, r3, r5
 2208 024a 9D1D     		addhi	r5, r3, #6
 2209              	.LVL272:
 616:..\..\..\lvgl\version_6.1.2\lvgl\src\lv_objx/lv_calendar.c ****         if(i_pos < get_day_of_week(ext->showed_date.year, ext->showed_date.month, 1)) {
 2210              		.loc 1 616 0
 2211 024c FFF7FEFF 		bl	lv_obj_get_ext_attr
 2212              	.LVL273:
 617:..\..\..\lvgl\version_6.1.2\lvgl\src\lv_objx/lv_calendar.c ****             ext->pressed_date.year  = ext->showed_date.year - (ext->showed_date.month == 1 ? 1 : 0)
 2213              		.loc 1 617 0
 2214 0250 90F90620 		ldrsb	r2, [r0, #6]
 2215 0254 8188     		ldrh	r1, [r0, #4]
 2216              	.LBB328:
 2217              	.LBB329:
 2218              		.loc 1 978 0
 2219 0256 DFF8F480 		ldr	r8, .L221+24
 2220 025a DFF8F4C0 		ldr	ip, .L221+28
 2221 025e 394F     		ldr	r7, .L221+16
 975:..\..\..\lvgl\version_6.1.2\lvgl\src\lv_objx/lv_calendar.c ****     uint32_t b = year - a;
 2222              		.loc 1 975 0
 2223 0260 022A     		cmp	r2, #2
 2224 0262 8CBF     		ite	hi
 2225 0264 4FF0000E 		movhi	lr, #0
 2226 0268 4FF0010E 		movls	lr, #1
 2227              		.loc 1 978 0
 2228 026c 4FEA4E03 		lsl	r3, lr, #1
 976:..\..\..\lvgl\version_6.1.2\lvgl\src\lv_objx/lv_calendar.c **** 
 2229              		.loc 1 976 0
 2230 0270 CEEB0109 		rsb	r9, lr, r1
 2231              		.loc 1 978 0
 2232 0274 7344     		add	r3, r3, lr
 2233 0276 02EB8303 		add	r3, r2, r3, lsl #2
 2234 027a A8FB09E8 		umull	lr, r8, r8, r9
 2235 027e 09F1010E 		add	lr, r9, #1
 2236 0282 0EEB990E 		add	lr, lr, r9, lsr #2
 2237 0286 C3EB4313 		rsb	r3, r3, r3, lsl #5
 2238 028a 0EEBD81E 		add	lr, lr, r8, lsr #7
 2239 028e 3E3B     		subs	r3, r3, #62
 2240 0290 AEEB581E 		sub	lr, lr, r8, lsr #5
 2241 0294 ACFB03C3 		umull	ip, r3, ip, r3
 2242 0298 0EEBD303 		add	r3, lr, r3, lsr #3
 2243 029c A3FB0789 		umull	r8, r9, r3, r7
 2244 02a0 C9EB0307 		rsb	r7, r9, r3
 2245 02a4 09EB5707 		add	r7, r9, r7, lsr #1
 2246 02a8 BF08     		lsrs	r7, r7, #2
 2247 02aa C7EBC707 		rsb	r7, r7, r7, lsl #3
 2248 02ae DF1B     		subs	r7, r3, r7
 2249              	.LBE329:
 2250              	.LBE328:
 615:..\..\..\lvgl\version_6.1.2\lvgl\src\lv_objx/lv_calendar.c ****         lv_calendar_ext_t * ext = lv_obj_get_ext_attr(calendar);
 2251              		.loc 1 615 0
 2252 02b0 EDB2     		uxtb	r5, r5
 2253              	.LVL274:
 2254              	.LBB331:
 2255              	.LBB330:
ARM GAS  C:\Users\pearlstl\AppData\Local\Temp\ccHPSyCj.s 			page 66


 979:..\..\..\lvgl\version_6.1.2\lvgl\src\lv_objx/lv_calendar.c **** 
 980:..\..\..\lvgl\version_6.1.2\lvgl\src\lv_objx/lv_calendar.c ****     return day_of_week;
 2256              		.loc 1 980 0
 2257 02b2 5FFA87FE 		uxtb	lr, r7
 2258              	.LVL275:
 2259              	.LBE330:
 2260              	.LBE331:
 617:..\..\..\lvgl\version_6.1.2\lvgl\src\lv_objx/lv_calendar.c ****             ext->pressed_date.year  = ext->showed_date.year - (ext->showed_date.month == 1 ? 1 : 0)
 2261              		.loc 1 617 0
 2262 02b6 7545     		cmp	r5, lr
 2263 02b8 6CD2     		bcs	.L143
 618:..\..\..\lvgl\version_6.1.2\lvgl\src\lv_objx/lv_calendar.c ****             ext->pressed_date.month = ext->showed_date.month == 1 ? 12 : (ext->showed_date.month - 
 2264              		.loc 1 618 0
 2265 02ba 012A     		cmp	r2, #1
 2266 02bc 0CBF     		ite	eq
 2267 02be 0123     		moveq	r3, #1
 2268 02c0 0023     		movne	r3, #0
 2269 02c2 A1EB0301 		sub	r1, r1, r3
 2270 02c6 8BB2     		uxth	r3, r1
 2271 02c8 0382     		strh	r3, [r0, #16]	@ movhi
 619:..\..\..\lvgl\version_6.1.2\lvgl\src\lv_objx/lv_calendar.c ****             ext->pressed_date.day   = get_month_length(ext->pressed_date.year, ext->pressed_date.mo
 2272              		.loc 1 619 0
 2273 02ca 00F0E880 		beq	.L144
 2274 02ce 013A     		subs	r2, r2, #1
 2275 02d0 52B2     		sxtb	r2, r2
 2276              	.LBB332:
 2277              	.LBB333:
 943:..\..\..\lvgl\version_6.1.2\lvgl\src\lv_objx/lv_calendar.c ****         year--;             /*Already in the previous year (won't be less then -12 to skip a whole 
 2278              		.loc 1 943 0
 2279 02d2 571E     		subs	r7, r2, #1
 945:..\..\..\lvgl\version_6.1.2\lvgl\src\lv_objx/lv_calendar.c ****     }
 2280              		.loc 1 945 0
 2281 02d4 48BF     		it	mi
 2282 02d6 02F10B07 		addmi	r7, r2, #11
 2283              	.LBE333:
 2284              	.LBE332:
 620:..\..\..\lvgl\version_6.1.2\lvgl\src\lv_objx/lv_calendar.c ****                                     get_day_of_week(ext->showed_date.year, ext->showed_date.month, 
 2285              		.loc 1 620 0
 2286 02da 1946     		mov	r1, r3
 2287              	.LVL276:
 2288              	.LBB345:
 2289              	.LBB340:
 944:..\..\..\lvgl\version_6.1.2\lvgl\src\lv_objx/lv_calendar.c ****         month = 12 + month; /*`month` is negative, the result will be < 12*/
 2290              		.loc 1 944 0
 2291 02dc 48BF     		it	mi
 2292 02de 03F1FF31 		addmi	r1, r3, #-1
 2293              	.LVL277:
 947:..\..\..\lvgl\version_6.1.2\lvgl\src\lv_objx/lv_calendar.c ****         year++;
 2294              		.loc 1 947 0
 2295 02e2 0B2F     		cmp	r7, #11
 949:..\..\..\lvgl\version_6.1.2\lvgl\src\lv_objx/lv_calendar.c ****     }
 2296              		.loc 1 949 0
 2297 02e4 C4BF     		itt	gt
 2298 02e6 0C3F     		subgt	r7, r7, #12
 2299              	.LVL278:
 948:..\..\..\lvgl\version_6.1.2\lvgl\src\lv_objx/lv_calendar.c ****         month -= 12;
 2300              		.loc 1 948 0
ARM GAS  C:\Users\pearlstl\AppData\Local\Temp\ccHPSyCj.s 			page 67


 2301 02e8 0131     		addgt	r1, r1, #1
 2302              	.LVL279:
 953:..\..\..\lvgl\version_6.1.2\lvgl\src\lv_objx/lv_calendar.c **** }
 2303              		.loc 1 953 0
 2304 02ea 012F     		cmp	r7, #1
 2305              	.LBE340:
 2306              	.LBE345:
 619:..\..\..\lvgl\version_6.1.2\lvgl\src\lv_objx/lv_calendar.c ****             ext->pressed_date.day   = get_month_length(ext->pressed_date.year, ext->pressed_date.mo
 2307              		.loc 1 619 0
 2308 02ec 8274     		strb	r2, [r0, #18]
 2309              	.LBB346:
 2310              	.LBB341:
 953:..\..\..\lvgl\version_6.1.2\lvgl\src\lv_objx/lv_calendar.c **** }
 2311              		.loc 1 953 0
 2312 02ee 00F0C280 		beq	.L213
 2313              	.LVL280:
 2314              	.L147:
 2315 02f2 134A     		ldr	r2, .L221+12
 2316 02f4 1449     		ldr	r1, .L221+20
 2317 02f6 87FB0223 		smull	r2, r3, r7, r2
 2318 02fa FA18     		adds	r2, r7, r3
 2319 02fc FB17     		asrs	r3, r7, #31
 2320 02fe C3EBA203 		rsb	r3, r3, r2, asr #2
 2321 0302 C3EBC303 		rsb	r3, r3, r3, lsl #3
 2322 0306 FB1A     		subs	r3, r7, r3
 2323 0308 1940     		ands	r1, r1, r3
 2324 030a 0029     		cmp	r1, #0
 2325 030c C0F2CD80 		blt	.L214
 2326              	.L150:
 2327 0310 C1F11F03 		rsb	r3, r1, #31
 2328 0314 DBB2     		uxtb	r3, r3
 2329              	.L149:
 2330              	.LVL281:
 2331              	.LBE341:
 2332              	.LBE346:
 620:..\..\..\lvgl\version_6.1.2\lvgl\src\lv_objx/lv_calendar.c ****                                     get_day_of_week(ext->showed_date.year, ext->showed_date.month, 
 2333              		.loc 1 620 0
 2334 0316 0135     		adds	r5, r5, #1
 2335              	.LVL282:
 2336 0318 CEEB050E 		rsb	lr, lr, r5
 2337 031c 7344     		add	r3, r3, lr
 2338 031e C374     		strb	r3, [r0, #19]
 2339              	.LVL283:
 2340              	.L151:
 2341              	.LBE327:
 2342              	.LBE312:
 2343              	.LBE311:
 522:..\..\..\lvgl\version_6.1.2\lvgl\src\lv_objx/lv_calendar.c ****             ext->btn_pressing = 0;
 2344              		.loc 1 522 0
 2345 0320 94F90C30 		ldrsb	r3, [r4, #12]
 2346 0324 002B     		cmp	r3, #0
 2347 0326 77D1     		bne	.L215
 2348              	.L180:
 523:..\..\..\lvgl\version_6.1.2\lvgl\src\lv_objx/lv_calendar.c ****         }
 2349              		.loc 1 523 0
 2350 0328 0023     		movs	r3, #0
 2351 032a 2373     		strb	r3, [r4, #12]
ARM GAS  C:\Users\pearlstl\AppData\Local\Temp\ccHPSyCj.s 			page 68


 2352 032c 83E6     		b	.L200
 2353              	.LVL284:
 2354              	.L170:
 2355              	.LBE376:
 2356              	.LBB377:
 569:..\..\..\lvgl\version_6.1.2\lvgl\src\lv_objx/lv_calendar.c ****             }
 2357              		.loc 1 569 0
 2358 032e 5C1C     		adds	r4, r3, #1
 2359 0330 64B2     		sxtb	r4, r4
 2360 0332 10E7     		b	.L171
 2361              	.L222:
 2362              		.align	2
 2363              	.L221:
 2364 0334 00000000 		.word	.LANCHOR0
 2365 0338 08000000 		.word	.LC2
 2366 033c ABAAAA2A 		.word	715827883
 2367 0340 93244992 		.word	-1840700269
 2368 0344 25499224 		.word	613566757
 2369 0348 01000080 		.word	-2147483647
 2370 034c 1F85EB51 		.word	1374389535
 2371 0350 ABAAAAAA 		.word	-1431655765
 2372              	.LVL285:
 2373              	.L212:
 2374              	.LBE377:
 2375              	.LBB378:
 541:..\..\..\lvgl\version_6.1.2\lvgl\src\lv_objx/lv_calendar.c ****                 ext->showed_date.month = 12;
 2376              		.loc 1 541 0
 2377 0354 90F90630 		ldrsb	r3, [r0, #6]
 2378 0358 012B     		cmp	r3, #1
 2379 035a 53DD     		ble	.L216
 545:..\..\..\lvgl\version_6.1.2\lvgl\src\lv_objx/lv_calendar.c ****             }
 2380              		.loc 1 545 0
 2381 035c 013B     		subs	r3, r3, #1
 2382 035e 8371     		strb	r3, [r0, #6]
 2383 0360 DFE6     		b	.L163
 2384              	.L165:
 552:..\..\..\lvgl\version_6.1.2\lvgl\src\lv_objx/lv_calendar.c ****             }
 2385              		.loc 1 552 0
 2386 0362 0133     		adds	r3, r3, #1
 2387 0364 8371     		strb	r3, [r0, #6]
 2388 0366 DCE6     		b	.L163
 2389              	.L164:
 554:..\..\..\lvgl\version_6.1.2\lvgl\src\lv_objx/lv_calendar.c ****             res = lv_event_send(calendar, LV_EVENT_VALUE_CHANGED, NULL);
 2390              		.loc 1 554 0
 2391 0368 038A     		ldrh	r3, [r0, #16]
 2392 036a 002B     		cmp	r3, #0
 2393 036c 3FF4D9AE 		beq	.L163
 555:..\..\..\lvgl\version_6.1.2\lvgl\src\lv_objx/lv_calendar.c ****             if(res != LV_RES_OK) return res;
 2394              		.loc 1 555 0
 2395 0370 0E21     		movs	r1, #14
 2396 0372 3046     		mov	r0, r6
 2397              	.LVL286:
 2398 0374 FFF7FEFF 		bl	lv_event_send
 2399              	.LVL287:
 556:..\..\..\lvgl\version_6.1.2\lvgl\src\lv_objx/lv_calendar.c ****         }
 2400              		.loc 1 556 0
 2401 0378 0128     		cmp	r0, #1
ARM GAS  C:\Users\pearlstl\AppData\Local\Temp\ccHPSyCj.s 			page 69


 2402 037a 7FF44DAE 		bne	.L197
 2403 037e D0E6     		b	.L163
 2404              	.LVL288:
 2405              	.L142:
 2406              	.LBE378:
 2407              	.LBB379:
 527:..\..\..\lvgl\version_6.1.2\lvgl\src\lv_objx/lv_calendar.c ****             ext->btn_pressing       = 0;
 2408              		.loc 1 527 0
 2409 0380 94F90C30 		ldrsb	r3, [r4, #12]
 2410 0384 002B     		cmp	r3, #0
 2411 0386 43D1     		bne	.L217
 2412              	.L178:
 528:..\..\..\lvgl\version_6.1.2\lvgl\src\lv_objx/lv_calendar.c ****             ext->pressed_date.year  = 0;
 2413              		.loc 1 528 0
 2414 0388 0023     		movs	r3, #0
 2415 038a 2373     		strb	r3, [r4, #12]
 529:..\..\..\lvgl\version_6.1.2\lvgl\src\lv_objx/lv_calendar.c ****             ext->pressed_date.month = 0;
 2416              		.loc 1 529 0
 2417 038c 2382     		strh	r3, [r4, #16]	@ movhi
 530:..\..\..\lvgl\version_6.1.2\lvgl\src\lv_objx/lv_calendar.c ****             ext->pressed_date.day   = 0;
 2418              		.loc 1 530 0
 2419 038e A374     		strb	r3, [r4, #18]
 531:..\..\..\lvgl\version_6.1.2\lvgl\src\lv_objx/lv_calendar.c ****         }
 2420              		.loc 1 531 0
 2421 0390 E374     		strb	r3, [r4, #19]
 2422 0392 50E6     		b	.L200
 2423              	.LVL289:
 2424              	.L143:
 2425              	.LBB370:
 2426              	.LBB368:
 2427              	.LBB366:
 2428              	.LBB347:
 2429              	.LBB348:
 943:..\..\..\lvgl\version_6.1.2\lvgl\src\lv_objx/lv_calendar.c ****         year--;             /*Already in the previous year (won't be less then -12 to skip a whole 
 2430              		.loc 1 943 0
 2431 0394 B2F1010A 		subs	r10, r2, #1
 945:..\..\..\lvgl\version_6.1.2\lvgl\src\lv_objx/lv_calendar.c ****     }
 2432              		.loc 1 945 0
 2433 0398 48BF     		it	mi
 2434 039a 02F10B0A 		addmi	r10, r2, #11
 2435              	.LBE348:
 2436              	.LBE347:
 623:..\..\..\lvgl\version_6.1.2\lvgl\src\lv_objx/lv_calendar.c ****             ext->pressed_date.year  = ext->showed_date.year;
 2437              		.loc 1 623 0
 2438 039e 0B46     		mov	r3, r1
 2439              	.LVL290:
 2440              	.LBB359:
 2441              	.LBB355:
 944:..\..\..\lvgl\version_6.1.2\lvgl\src\lv_objx/lv_calendar.c ****         month = 12 + month; /*`month` is negative, the result will be < 12*/
 2442              		.loc 1 944 0
 2443 03a0 48BF     		it	mi
 2444 03a2 01F1FF33 		addmi	r3, r1, #-1
 2445              	.LVL291:
 947:..\..\..\lvgl\version_6.1.2\lvgl\src\lv_objx/lv_calendar.c ****         year++;
 2446              		.loc 1 947 0
 2447 03a6 BAF10B0F 		cmp	r10, #11
 949:..\..\..\lvgl\version_6.1.2\lvgl\src\lv_objx/lv_calendar.c ****     }
ARM GAS  C:\Users\pearlstl\AppData\Local\Temp\ccHPSyCj.s 			page 70


 2448              		.loc 1 949 0
 2449 03aa C4BF     		itt	gt
 2450 03ac AAF10C0A 		subgt	r10, r10, #12
 2451              	.LVL292:
 948:..\..\..\lvgl\version_6.1.2\lvgl\src\lv_objx/lv_calendar.c ****         month -= 12;
 2452              		.loc 1 948 0
 2453 03b0 0133     		addgt	r3, r3, #1
 2454              	.LVL293:
 953:..\..\..\lvgl\version_6.1.2\lvgl\src\lv_objx/lv_calendar.c **** }
 2455              		.loc 1 953 0
 2456 03b2 BAF1010F 		cmp	r10, #1
 2457 03b6 46D0     		beq	.L218
 2458 03b8 DFF81481 		ldr	r8, .L223+4
 2459 03bc 434B     		ldr	r3, .L223
 2460              	.LVL294:
 2461 03be 8AFB0889 		smull	r8, r9, r10, r8
 2462 03c2 0AEB0908 		add	r8, r10, r9
 2463 03c6 4FEAEA7C 		asr	ip, r10, #31
 2464 03ca CCEBA80C 		rsb	ip, ip, r8, asr #2
 2465 03ce CCEBCC0C 		rsb	ip, ip, ip, lsl #3
 2466 03d2 CCEB0A0C 		rsb	ip, ip, r10
 2467 03d6 0CEA0303 		and	r3, ip, r3
 2468 03da 002B     		cmp	r3, #0
 2469 03dc 6ADB     		blt	.L219
 2470              	.L157:
 2471 03de C3F11F03 		rsb	r3, r3, #31
 2472 03e2 DBB2     		uxtb	r3, r3
 2473              	.L156:
 2474              	.LVL295:
 2475              	.LBE355:
 2476              	.LBE359:
 622:..\..\..\lvgl\version_6.1.2\lvgl\src\lv_objx/lv_calendar.c ****                            get_month_length(ext->showed_date.year, ext->showed_date.month))) {
 2477              		.loc 1 622 0
 2478 03e4 1F44     		add	r7, r7, r3
 2479 03e6 BD42     		cmp	r5, r7
 2480 03e8 1ADA     		bge	.L220
 626:..\..\..\lvgl\version_6.1.2\lvgl\src\lv_objx/lv_calendar.c ****         } else if(i_pos < 42) {
 2481              		.loc 1 626 0
 2482 03ea 0135     		adds	r5, r5, #1
 2483              	.LVL296:
 2484 03ec CEEB050E 		rsb	lr, lr, r5
 2485 03f0 80F813E0 		strb	lr, [r0, #19]
 624:..\..\..\lvgl\version_6.1.2\lvgl\src\lv_objx/lv_calendar.c ****             ext->pressed_date.month = ext->showed_date.month;
 2486              		.loc 1 624 0
 2487 03f4 0182     		strh	r1, [r0, #16]	@ movhi
 625:..\..\..\lvgl\version_6.1.2\lvgl\src\lv_objx/lv_calendar.c ****             ext->pressed_date.day   = i_pos + 1 - get_day_of_week(ext->showed_date.year, ext->showe
 2488              		.loc 1 625 0
 2489 03f6 8274     		strb	r2, [r0, #18]
 2490 03f8 92E7     		b	.L151
 2491              	.LVL297:
 2492              	.L211:
 2493              	.LBE366:
 2494              	.LBE368:
 2495              	.LBE370:
 2496              	.LBE379:
 2497              	.LBB380:
 575:..\..\..\lvgl\version_6.1.2\lvgl\src\lv_objx/lv_calendar.c ****             } else {
ARM GAS  C:\Users\pearlstl\AppData\Local\Temp\ccHPSyCj.s 			page 71


 2498              		.loc 1 575 0
 2499 03fa 8388     		ldrh	r3, [r0, #4]
 2500 03fc 013B     		subs	r3, r3, #1
 2501 03fe 8380     		strh	r3, [r0, #4]	@ movhi
 574:..\..\..\lvgl\version_6.1.2\lvgl\src\lv_objx/lv_calendar.c ****                 ext->showed_date.year--;
 2502              		.loc 1 574 0
 2503 0400 0C23     		movs	r3, #12
 2504 0402 70E6     		b	.L174
 2505              	.LVL298:
 2506              	.L216:
 2507              	.LBE380:
 2508              	.LBB381:
 543:..\..\..\lvgl\version_6.1.2\lvgl\src\lv_objx/lv_calendar.c ****             } else {
 2509              		.loc 1 543 0
 2510 0404 8388     		ldrh	r3, [r0, #4]
 542:..\..\..\lvgl\version_6.1.2\lvgl\src\lv_objx/lv_calendar.c ****                 ext->showed_date.year--;
 2511              		.loc 1 542 0
 2512 0406 0C22     		movs	r2, #12
 543:..\..\..\lvgl\version_6.1.2\lvgl\src\lv_objx/lv_calendar.c ****             } else {
 2513              		.loc 1 543 0
 2514 0408 013B     		subs	r3, r3, #1
 2515 040a 8380     		strh	r3, [r0, #4]	@ movhi
 542:..\..\..\lvgl\version_6.1.2\lvgl\src\lv_objx/lv_calendar.c ****                 ext->showed_date.year--;
 2516              		.loc 1 542 0
 2517 040c 8271     		strb	r2, [r0, #6]
 2518 040e 88E6     		b	.L163
 2519              	.LVL299:
 2520              	.L217:
 2521              	.LBE381:
 2522              	.LBB382:
 527:..\..\..\lvgl\version_6.1.2\lvgl\src\lv_objx/lv_calendar.c ****             ext->btn_pressing       = 0;
 2523              		.loc 1 527 0 discriminator 1
 2524 0410 3046     		mov	r0, r6
 2525 0412 FFF7FEFF 		bl	lv_obj_invalidate
 2526              	.LVL300:
 2527 0416 B7E7     		b	.L178
 2528              	.L215:
 522:..\..\..\lvgl\version_6.1.2\lvgl\src\lv_objx/lv_calendar.c ****             ext->btn_pressing = 0;
 2529              		.loc 1 522 0 discriminator 1
 2530 0418 3046     		mov	r0, r6
 2531 041a FFF7FEFF 		bl	lv_obj_invalidate
 2532              	.LVL301:
 2533 041e 83E7     		b	.L180
 2534              	.LVL302:
 2535              	.L220:
 2536              	.LBB371:
 2537              	.LBB369:
 2538              	.LBB367:
 628:..\..\..\lvgl\version_6.1.2\lvgl\src\lv_objx/lv_calendar.c ****             ext->pressed_date.month = ext->showed_date.month == 12 ? 1 : (ext->showed_date.month + 
 2539              		.loc 1 628 0
 2540 0420 0C2A     		cmp	r2, #12
 630:..\..\..\lvgl\version_6.1.2\lvgl\src\lv_objx/lv_calendar.c ****                                     get_month_length(ext->showed_date.year, ext->showed_date.month)
 2541              		.loc 1 630 0
 2542 0422 05F10105 		add	r5, r5, #1
 2543              	.LVL303:
 629:..\..\..\lvgl\version_6.1.2\lvgl\src\lv_objx/lv_calendar.c ****             ext->pressed_date.day   = i_pos + 1 - get_day_of_week(ext->showed_date.year, ext->showe
 2544              		.loc 1 629 0
ARM GAS  C:\Users\pearlstl\AppData\Local\Temp\ccHPSyCj.s 			page 72


 2545 0426 16BF     		itet	ne
 2546 0428 0132     		addne	r2, r2, #1
 628:..\..\..\lvgl\version_6.1.2\lvgl\src\lv_objx/lv_calendar.c ****             ext->pressed_date.month = ext->showed_date.month == 12 ? 1 : (ext->showed_date.month + 
 2547              		.loc 1 628 0
 2548 042a 0127     		moveq	r7, #1
 2549 042c 0027     		movne	r7, #0
 630:..\..\..\lvgl\version_6.1.2\lvgl\src\lv_objx/lv_calendar.c ****                                     get_month_length(ext->showed_date.year, ext->showed_date.month)
 2550              		.loc 1 630 0
 2551 042e CEEB050E 		rsb	lr, lr, r5
 628:..\..\..\lvgl\version_6.1.2\lvgl\src\lv_objx/lv_calendar.c ****             ext->pressed_date.month = ext->showed_date.month == 12 ? 1 : (ext->showed_date.month + 
 2552              		.loc 1 628 0
 2553 0432 3944     		add	r1, r1, r7
 629:..\..\..\lvgl\version_6.1.2\lvgl\src\lv_objx/lv_calendar.c ****             ext->pressed_date.day   = i_pos + 1 - get_day_of_week(ext->showed_date.year, ext->showe
 2554              		.loc 1 629 0
 2555 0434 14BF     		ite	ne
 2556 0436 52B2     		sxtbne	r2, r2
 2557 0438 0122     		moveq	r2, #1
 630:..\..\..\lvgl\version_6.1.2\lvgl\src\lv_objx/lv_calendar.c ****                                     get_month_length(ext->showed_date.year, ext->showed_date.month)
 2558              		.loc 1 630 0
 2559 043a C3EB0E03 		rsb	r3, r3, lr
 628:..\..\..\lvgl\version_6.1.2\lvgl\src\lv_objx/lv_calendar.c ****             ext->pressed_date.month = ext->showed_date.month == 12 ? 1 : (ext->showed_date.month + 
 2560              		.loc 1 628 0
 2561 043e 0182     		strh	r1, [r0, #16]	@ movhi
 630:..\..\..\lvgl\version_6.1.2\lvgl\src\lv_objx/lv_calendar.c ****                                     get_month_length(ext->showed_date.year, ext->showed_date.month)
 2562              		.loc 1 630 0
 2563 0440 C374     		strb	r3, [r0, #19]
 629:..\..\..\lvgl\version_6.1.2\lvgl\src\lv_objx/lv_calendar.c ****             ext->pressed_date.day   = i_pos + 1 - get_day_of_week(ext->showed_date.year, ext->showe
 2564              		.loc 1 629 0
 2565 0442 8274     		strb	r2, [r0, #18]
 2566 0444 6CE7     		b	.L151
 2567              	.LVL304:
 2568              	.L218:
 2569              	.LBB360:
 2570              	.LBB356:
 2571              	.LBB349:
 2572              	.LBB350:
 963:..\..\..\lvgl\version_6.1.2\lvgl\src\lv_objx/lv_calendar.c **** }
 2573              		.loc 1 963 0
 2574 0446 13F0030F 		tst	r3, #3
 2575 044a 38D1     		bne	.L184
 2576 044c 4FF06408 		mov	r8, #100
 2577 0450 B3FBF8FC 		udiv	ip, r3, r8
 2578 0454 08FB1C3C 		mls	ip, r8, ip, r3
 2579 0458 BCF1000F 		cmp	ip, #0
 2580 045c 33D1     		bne	.L185
 2581 045e 4FF4C878 		mov	r8, #400
 2582 0462 B3FBF8FC 		udiv	ip, r3, r8
 2583 0466 08FB1C33 		mls	r3, r8, ip, r3
 2584              	.LVL305:
 2585 046a B3FA83F3 		clz	r3, r3
 2586 046e 5B09     		lsrs	r3, r3, #5
 2587              	.L155:
 2588              	.LVL306:
 2589              	.LBE350:
 2590              	.LBE349:
 953:..\..\..\lvgl\version_6.1.2\lvgl\src\lv_objx/lv_calendar.c **** }
 2591              		.loc 1 953 0
ARM GAS  C:\Users\pearlstl\AppData\Local\Temp\ccHPSyCj.s 			page 73


 2592 0470 1C33     		adds	r3, r3, #28
 2593 0472 DBB2     		uxtb	r3, r3
 2594 0474 B6E7     		b	.L156
 2595              	.LVL307:
 2596              	.L213:
 2597              	.LBE356:
 2598              	.LBE360:
 2599              	.LBB361:
 2600              	.LBB342:
 2601              	.LBB334:
 2602              	.LBB335:
 963:..\..\..\lvgl\version_6.1.2\lvgl\src\lv_objx/lv_calendar.c **** }
 2603              		.loc 1 963 0
 2604 0476 8B07     		lsls	r3, r1, #30
 2605 0478 15D1     		bne	.L182
 2606 047a 6422     		movs	r2, #100
 2607 047c B1FBF2F3 		udiv	r3, r1, r2
 2608 0480 02FB1313 		mls	r3, r2, r3, r1
 2609 0484 EBB9     		cbnz	r3, .L183
 2610 0486 4FF4C873 		mov	r3, #400
 2611 048a B1FBF3F2 		udiv	r2, r1, r3
 2612 048e 03FB1213 		mls	r3, r3, r2, r1
 2613 0492 B3FA83F3 		clz	r3, r3
 2614 0496 5B09     		lsrs	r3, r3, #5
 2615              	.L148:
 2616              	.LVL308:
 2617              	.LBE335:
 2618              	.LBE334:
 953:..\..\..\lvgl\version_6.1.2\lvgl\src\lv_objx/lv_calendar.c **** }
 2619              		.loc 1 953 0
 2620 0498 1C33     		adds	r3, r3, #28
 2621 049a DBB2     		uxtb	r3, r3
 2622 049c 3BE7     		b	.L149
 2623              	.LVL309:
 2624              	.L144:
 2625              	.LBE342:
 2626              	.LBE361:
 619:..\..\..\lvgl\version_6.1.2\lvgl\src\lv_objx/lv_calendar.c ****             ext->pressed_date.day   = get_month_length(ext->pressed_date.year, ext->pressed_date.mo
 2627              		.loc 1 619 0
 2628 049e 0C23     		movs	r3, #12
 2629 04a0 8374     		strb	r3, [r0, #18]
 2630              	.LVL310:
 2631              	.LBB362:
 2632              	.LBB343:
 942:..\..\..\lvgl\version_6.1.2\lvgl\src\lv_objx/lv_calendar.c ****     if(month < 0) {
 2633              		.loc 1 942 0
 2634 04a2 0B27     		movs	r7, #11
 2635 04a4 25E7     		b	.L147
 2636              	.LVL311:
 2637              	.L182:
 2638              	.LBB338:
 2639              	.LBB336:
 963:..\..\..\lvgl\version_6.1.2\lvgl\src\lv_objx/lv_calendar.c **** }
 2640              		.loc 1 963 0
 2641 04a6 0023     		movs	r3, #0
 2642 04a8 F6E7     		b	.L148
 2643              	.LVL312:
ARM GAS  C:\Users\pearlstl\AppData\Local\Temp\ccHPSyCj.s 			page 74


 2644              	.L214:
 2645              	.LBE336:
 2646              	.LBE338:
 953:..\..\..\lvgl\version_6.1.2\lvgl\src\lv_objx/lv_calendar.c **** }
 2647              		.loc 1 953 0
 2648 04aa 0139     		subs	r1, r1, #1
 2649 04ac 61F00101 		orn	r1, r1, #1
 2650 04b0 0131     		adds	r1, r1, #1
 2651 04b2 2DE7     		b	.L150
 2652              	.LVL313:
 2653              	.L219:
 2654              	.LBE343:
 2655              	.LBE362:
 2656              	.LBB363:
 2657              	.LBB357:
 2658 04b4 013B     		subs	r3, r3, #1
 2659 04b6 63F00103 		orn	r3, r3, #1
 2660 04ba 0133     		adds	r3, r3, #1
 2661 04bc 8FE7     		b	.L157
 2662              	.LVL314:
 2663              	.L184:
 2664              	.LBB353:
 2665              	.LBB351:
 963:..\..\..\lvgl\version_6.1.2\lvgl\src\lv_objx/lv_calendar.c **** }
 2666              		.loc 1 963 0
 2667 04be 0023     		movs	r3, #0
 2668              	.LVL315:
 2669 04c0 D6E7     		b	.L155
 2670              	.LVL316:
 2671              	.L183:
 2672              	.LBE351:
 2673              	.LBE353:
 2674              	.LBE357:
 2675              	.LBE363:
 2676              	.LBB364:
 2677              	.LBB344:
 2678              	.LBB339:
 2679              	.LBB337:
 2680 04c2 3B46     		mov	r3, r7
 2681 04c4 E8E7     		b	.L148
 2682              	.LVL317:
 2683              	.L185:
 2684              	.LBE337:
 2685              	.LBE339:
 2686              	.LBE344:
 2687              	.LBE364:
 2688              	.LBB365:
 2689              	.LBB358:
 2690              	.LBB354:
 2691              	.LBB352:
 2692 04c6 5346     		mov	r3, r10
 2693              	.LVL318:
 2694 04c8 D2E7     		b	.L155
 2695              	.L224:
 2696 04ca 00BF     		.align	2
 2697              	.L223:
 2698 04cc 01000080 		.word	-2147483647
ARM GAS  C:\Users\pearlstl\AppData\Local\Temp\ccHPSyCj.s 			page 75


 2699 04d0 93244992 		.word	-1840700269
 2700              	.LBE352:
 2701              	.LBE354:
 2702              	.LBE358:
 2703              	.LBE365:
 2704              	.LBE367:
 2705              	.LBE369:
 2706              	.LBE371:
 2707              	.LBE382:
 2708              		.cfi_endproc
 2709              	.LFE47:
 2710              		.size	lv_calendar_signal, .-lv_calendar_signal
 2711              		.section	.text.lv_calendar_create,"ax",%progbits
 2712              		.align	2
 2713              		.global	lv_calendar_create
 2714              		.thumb
 2715              		.thumb_func
 2716              		.type	lv_calendar_create, %function
 2717              	lv_calendar_create:
 2718              	.LFB31:
  77:..\..\..\lvgl\version_6.1.2\lvgl\src\lv_objx/lv_calendar.c ****     LV_LOG_TRACE("calendar create started");
 2719              		.loc 1 77 0
 2720              		.cfi_startproc
 2721              		@ args = 0, pretend = 0, frame = 0
 2722              		@ frame_needed = 0, uses_anonymous_args = 0
 2723              	.LVL319:
 2724 0000 F8B5     		push	{r3, r4, r5, r6, r7, lr}
 2725              		.cfi_def_cfa_offset 24
 2726              		.cfi_offset 3, -24
 2727              		.cfi_offset 4, -20
 2728              		.cfi_offset 5, -16
 2729              		.cfi_offset 6, -12
 2730              		.cfi_offset 7, -8
 2731              		.cfi_offset 14, -4
  77:..\..\..\lvgl\version_6.1.2\lvgl\src\lv_objx/lv_calendar.c ****     LV_LOG_TRACE("calendar create started");
 2732              		.loc 1 77 0
 2733 0002 0F46     		mov	r7, r1
  81:..\..\..\lvgl\version_6.1.2\lvgl\src\lv_objx/lv_calendar.c ****     LV_ASSERT_MEM(new_calendar);
 2734              		.loc 1 81 0
 2735 0004 FFF7FEFF 		bl	lv_obj_create
 2736              	.LVL320:
  83:..\..\..\lvgl\version_6.1.2\lvgl\src\lv_objx/lv_calendar.c **** 
 2737              		.loc 1 83 0
 2738 0008 0028     		cmp	r0, #0
 2739 000a 00F0C580 		beq	.L228
  86:..\..\..\lvgl\version_6.1.2\lvgl\src\lv_objx/lv_calendar.c ****     LV_ASSERT_MEM(ext);
 2740              		.loc 1 86 0
 2741 000e 3821     		movs	r1, #56
 2742 0010 0546     		mov	r5, r0
 2743 0012 FFF7FEFF 		bl	lv_obj_allocate_ext_attr
 2744              	.LVL321:
  88:..\..\..\lvgl\version_6.1.2\lvgl\src\lv_objx/lv_calendar.c ****     if(ancestor_signal == NULL) ancestor_signal = lv_obj_get_signal_cb(new_calendar);
 2745              		.loc 1 88 0
 2746 0016 0446     		mov	r4, r0
 2747 0018 0028     		cmp	r0, #0
 2748 001a 00F0BD80 		beq	.L228
  89:..\..\..\lvgl\version_6.1.2\lvgl\src\lv_objx/lv_calendar.c ****     if(ancestor_design == NULL) ancestor_design = lv_obj_get_design_cb(new_calendar);
ARM GAS  C:\Users\pearlstl\AppData\Local\Temp\ccHPSyCj.s 			page 76


 2749              		.loc 1 89 0
 2750 001e 834E     		ldr	r6, .L241
 2751 0020 7368     		ldr	r3, [r6, #4]
 2752 0022 002B     		cmp	r3, #0
 2753 0024 00F0BA80 		beq	.L238
 2754              	.LVL322:
 2755              	.L229:
  90:..\..\..\lvgl\version_6.1.2\lvgl\src\lv_objx/lv_calendar.c **** 
 2756              		.loc 1 90 0
 2757 0028 3368     		ldr	r3, [r6]
 2758 002a 804E     		ldr	r6, .L241
 2759 002c 002B     		cmp	r3, #0
 2760 002e 00F0BA80 		beq	.L239
 2761              	.L230:
  93:..\..\..\lvgl\version_6.1.2\lvgl\src\lv_objx/lv_calendar.c ****     ext->today.month = 1;
 2762              		.loc 1 93 0
 2763 0032 40F2E276 		movw	r6, #2018
 101:..\..\..\lvgl\version_6.1.2\lvgl\src\lv_objx/lv_calendar.c ****     ext->pressed_date.month = 0;
 2764              		.loc 1 101 0
 2765 0036 0023     		movs	r3, #0
  94:..\..\..\lvgl\version_6.1.2\lvgl\src\lv_objx/lv_calendar.c ****     ext->today.day   = 1;
 2766              		.loc 1 94 0
 2767 0038 0122     		movs	r2, #1
 109:..\..\..\lvgl\version_6.1.2\lvgl\src\lv_objx/lv_calendar.c ****     ext->style_header_pr        = &lv_style_pretty_color;
 2768              		.loc 1 109 0
 2769 003a 7D49     		ldr	r1, .L241+4
 110:..\..\..\lvgl\version_6.1.2\lvgl\src\lv_objx/lv_calendar.c ****     ext->style_highlighted_days = &lv_style_plain_color;
 2770              		.loc 1 110 0
 2771 003c 7D48     		ldr	r0, .L241+8
  93:..\..\..\lvgl\version_6.1.2\lvgl\src\lv_objx/lv_calendar.c ****     ext->today.month = 1;
 2772              		.loc 1 93 0
 2773 003e 2680     		strh	r6, [r4]	@ movhi
  97:..\..\..\lvgl\version_6.1.2\lvgl\src\lv_objx/lv_calendar.c ****     ext->showed_date.month = 1;
 2774              		.loc 1 97 0
 2775 0040 A680     		strh	r6, [r4, #4]	@ movhi
 112:..\..\..\lvgl\version_6.1.2\lvgl\src\lv_objx/lv_calendar.c ****     ext->style_week_box         = &lv_style_plain_color;
 2776              		.loc 1 112 0
 2777 0042 DFF800E2 		ldr	lr, .L241+24
 115:..\..\..\lvgl\version_6.1.2\lvgl\src\lv_objx/lv_calendar.c **** 
 2778              		.loc 1 115 0
 2779 0046 7C4E     		ldr	r6, .L241+12
 109:..\..\..\lvgl\version_6.1.2\lvgl\src\lv_objx/lv_calendar.c ****     ext->style_header_pr        = &lv_style_pretty_color;
 2780              		.loc 1 109 0
 2781 0048 E161     		str	r1, [r4, #28]
 111:..\..\..\lvgl\version_6.1.2\lvgl\src\lv_objx/lv_calendar.c ****     ext->style_inactive_days    = &lv_style_btn_ina;
 2782              		.loc 1 111 0
 2783 004a A162     		str	r1, [r4, #40]
 113:..\..\..\lvgl\version_6.1.2\lvgl\src\lv_objx/lv_calendar.c ****     ext->style_today_box        = &lv_style_pretty_color;
 2784              		.loc 1 113 0
 2785 004c 2163     		str	r1, [r4, #48]
 110:..\..\..\lvgl\version_6.1.2\lvgl\src\lv_objx/lv_calendar.c ****     ext->style_highlighted_days = &lv_style_plain_color;
 2786              		.loc 1 110 0
 2787 004e 2062     		str	r0, [r4, #32]
 114:..\..\..\lvgl\version_6.1.2\lvgl\src\lv_objx/lv_calendar.c ****     ext->style_day_names        = &lv_style_pretty;
 2788              		.loc 1 114 0
 2789 0050 6063     		str	r0, [r4, #52]
 118:..\..\..\lvgl\version_6.1.2\lvgl\src\lv_objx/lv_calendar.c ****     lv_obj_set_design_cb(new_calendar, lv_calendar_design);
ARM GAS  C:\Users\pearlstl\AppData\Local\Temp\ccHPSyCj.s 			page 77


 2790              		.loc 1 118 0
 2791 0052 7A49     		ldr	r1, .L241+16
  94:..\..\..\lvgl\version_6.1.2\lvgl\src\lv_objx/lv_calendar.c ****     ext->today.day   = 1;
 2792              		.loc 1 94 0
 2793 0054 A270     		strb	r2, [r4, #2]
 118:..\..\..\lvgl\version_6.1.2\lvgl\src\lv_objx/lv_calendar.c ****     lv_obj_set_design_cb(new_calendar, lv_calendar_design);
 2794              		.loc 1 118 0
 2795 0056 2846     		mov	r0, r5
  95:..\..\..\lvgl\version_6.1.2\lvgl\src\lv_objx/lv_calendar.c **** 
 2796              		.loc 1 95 0
 2797 0058 E270     		strb	r2, [r4, #3]
  98:..\..\..\lvgl\version_6.1.2\lvgl\src\lv_objx/lv_calendar.c ****     ext->showed_date.day   = 1;
 2798              		.loc 1 98 0
 2799 005a A271     		strb	r2, [r4, #6]
  99:..\..\..\lvgl\version_6.1.2\lvgl\src\lv_objx/lv_calendar.c **** 
 2800              		.loc 1 99 0
 2801 005c E271     		strb	r2, [r4, #7]
 101:..\..\..\lvgl\version_6.1.2\lvgl\src\lv_objx/lv_calendar.c ****     ext->pressed_date.month = 0;
 2802              		.loc 1 101 0
 2803 005e 2382     		strh	r3, [r4, #16]	@ movhi
 102:..\..\..\lvgl\version_6.1.2\lvgl\src\lv_objx/lv_calendar.c ****     ext->pressed_date.day   = 0;
 2804              		.loc 1 102 0
 2805 0060 A374     		strb	r3, [r4, #18]
 103:..\..\..\lvgl\version_6.1.2\lvgl\src\lv_objx/lv_calendar.c **** 
 2806              		.loc 1 103 0
 2807 0062 E374     		strb	r3, [r4, #19]
 105:..\..\..\lvgl\version_6.1.2\lvgl\src\lv_objx/lv_calendar.c ****     ext->highlighted_dates_num  = 0;
 2808              		.loc 1 105 0
 2809 0064 A360     		str	r3, [r4, #8]
 106:..\..\..\lvgl\version_6.1.2\lvgl\src\lv_objx/lv_calendar.c ****     ext->day_names              = NULL;
 2810              		.loc 1 106 0
 2811 0066 E381     		strh	r3, [r4, #14]	@ movhi
 107:..\..\..\lvgl\version_6.1.2\lvgl\src\lv_objx/lv_calendar.c ****     ext->month_names            = NULL;
 2812              		.loc 1 107 0
 2813 0068 6361     		str	r3, [r4, #20]
 108:..\..\..\lvgl\version_6.1.2\lvgl\src\lv_objx/lv_calendar.c ****     ext->style_header           = &lv_style_plain_color;
 2814              		.loc 1 108 0
 2815 006a A361     		str	r3, [r4, #24]
 112:..\..\..\lvgl\version_6.1.2\lvgl\src\lv_objx/lv_calendar.c ****     ext->style_week_box         = &lv_style_plain_color;
 2816              		.loc 1 112 0
 2817 006c C4F82CE0 		str	lr, [r4, #44]
 115:..\..\..\lvgl\version_6.1.2\lvgl\src\lv_objx/lv_calendar.c **** 
 2818              		.loc 1 115 0
 2819 0070 6662     		str	r6, [r4, #36]
 118:..\..\..\lvgl\version_6.1.2\lvgl\src\lv_objx/lv_calendar.c ****     lv_obj_set_design_cb(new_calendar, lv_calendar_design);
 2820              		.loc 1 118 0
 2821 0072 FFF7FEFF 		bl	lv_obj_set_signal_cb
 2822              	.LVL323:
 119:..\..\..\lvgl\version_6.1.2\lvgl\src\lv_objx/lv_calendar.c **** 
 2823              		.loc 1 119 0
 2824 0076 7249     		ldr	r1, .L241+20
 2825 0078 2846     		mov	r0, r5
 2826 007a FFF7FEFF 		bl	lv_obj_set_design_cb
 2827              	.LVL324:
 122:..\..\..\lvgl\version_6.1.2\lvgl\src\lv_objx/lv_calendar.c ****         lv_obj_set_size(new_calendar, LV_DPI * 2, LV_DPI * 2);
 2828              		.loc 1 122 0
 2829 007e 002F     		cmp	r7, #0
ARM GAS  C:\Users\pearlstl\AppData\Local\Temp\ccHPSyCj.s 			page 78


 2830 0080 2ED0     		beq	.L240
 2831              	.LBB417:
 150:..\..\..\lvgl\version_6.1.2\lvgl\src\lv_objx/lv_calendar.c ****         ext->today.year              = copy_ext->today.year;
 2832              		.loc 1 150 0
 2833 0082 3846     		mov	r0, r7
 2834 0084 FFF7FEFF 		bl	lv_obj_get_ext_attr
 2835              	.LVL325:
 2836 0088 0346     		mov	r3, r0
 2837              	.LVL326:
 172:..\..\..\lvgl\version_6.1.2\lvgl\src\lv_objx/lv_calendar.c ****     }
 2838              		.loc 1 172 0
 2839 008a 2846     		mov	r0, r5
 2840              	.LVL327:
 151:..\..\..\lvgl\version_6.1.2\lvgl\src\lv_objx/lv_calendar.c ****         ext->today.month             = copy_ext->today.month;
 2841              		.loc 1 151 0
 2842 008c 1A88     		ldrh	r2, [r3]
 2843 008e 2280     		strh	r2, [r4]	@ movhi
 152:..\..\..\lvgl\version_6.1.2\lvgl\src\lv_objx/lv_calendar.c ****         ext->today.day               = copy_ext->today.day;
 2844              		.loc 1 152 0
 2845 0090 93F90220 		ldrsb	r2, [r3, #2]
 2846 0094 A270     		strb	r2, [r4, #2]
 153:..\..\..\lvgl\version_6.1.2\lvgl\src\lv_objx/lv_calendar.c **** 
 2847              		.loc 1 153 0
 2848 0096 93F90320 		ldrsb	r2, [r3, #3]
 2849 009a E270     		strb	r2, [r4, #3]
 155:..\..\..\lvgl\version_6.1.2\lvgl\src\lv_objx/lv_calendar.c ****         ext->showed_date.month = copy_ext->showed_date.month;
 2850              		.loc 1 155 0
 2851 009c 9A88     		ldrh	r2, [r3, #4]
 2852 009e A280     		strh	r2, [r4, #4]	@ movhi
 156:..\..\..\lvgl\version_6.1.2\lvgl\src\lv_objx/lv_calendar.c ****         ext->showed_date.day   = copy_ext->showed_date.day;
 2853              		.loc 1 156 0
 2854 00a0 93F90620 		ldrsb	r2, [r3, #6]
 2855 00a4 A271     		strb	r2, [r4, #6]
 157:..\..\..\lvgl\version_6.1.2\lvgl\src\lv_objx/lv_calendar.c **** 
 2856              		.loc 1 157 0
 2857 00a6 93F90720 		ldrsb	r2, [r3, #7]
 2858 00aa E271     		strb	r2, [r4, #7]
 159:..\..\..\lvgl\version_6.1.2\lvgl\src\lv_objx/lv_calendar.c ****         ext->highlighted_dates_num = copy_ext->highlighted_dates_num;
 2859              		.loc 1 159 0
 2860 00ac 9968     		ldr	r1, [r3, #8]
 160:..\..\..\lvgl\version_6.1.2\lvgl\src\lv_objx/lv_calendar.c ****         ext->day_names             = copy_ext->day_names;
 2861              		.loc 1 160 0
 2862 00ae DA89     		ldrh	r2, [r3, #14]
 161:..\..\..\lvgl\version_6.1.2\lvgl\src\lv_objx/lv_calendar.c **** 
 2863              		.loc 1 161 0
 2864 00b0 5F69     		ldr	r7, [r3, #20]
 2865              	.LVL328:
 163:..\..\..\lvgl\version_6.1.2\lvgl\src\lv_objx/lv_calendar.c ****         ext->style_header           = copy_ext->style_header;
 2866              		.loc 1 163 0
 2867 00b2 9E69     		ldr	r6, [r3, #24]
 159:..\..\..\lvgl\version_6.1.2\lvgl\src\lv_objx/lv_calendar.c ****         ext->highlighted_dates_num = copy_ext->highlighted_dates_num;
 2868              		.loc 1 159 0
 2869 00b4 A160     		str	r1, [r4, #8]
 164:..\..\..\lvgl\version_6.1.2\lvgl\src\lv_objx/lv_calendar.c ****         ext->style_header_pr        = copy_ext->style_header_pr;
 2870              		.loc 1 164 0
 2871 00b6 D969     		ldr	r1, [r3, #28]
 160:..\..\..\lvgl\version_6.1.2\lvgl\src\lv_objx/lv_calendar.c ****         ext->day_names             = copy_ext->day_names;
ARM GAS  C:\Users\pearlstl\AppData\Local\Temp\ccHPSyCj.s 			page 79


 2872              		.loc 1 160 0
 2873 00b8 E281     		strh	r2, [r4, #14]	@ movhi
 165:..\..\..\lvgl\version_6.1.2\lvgl\src\lv_objx/lv_calendar.c ****         ext->style_highlighted_days = copy_ext->style_highlighted_days;
 2874              		.loc 1 165 0
 2875 00ba 1A6A     		ldr	r2, [r3, #32]
 161:..\..\..\lvgl\version_6.1.2\lvgl\src\lv_objx/lv_calendar.c **** 
 2876              		.loc 1 161 0
 2877 00bc 6761     		str	r7, [r4, #20]
 166:..\..\..\lvgl\version_6.1.2\lvgl\src\lv_objx/lv_calendar.c ****         ext->style_inactive_days    = copy_ext->style_inactive_days;
 2878              		.loc 1 166 0
 2879 00be 9F6A     		ldr	r7, [r3, #40]
 163:..\..\..\lvgl\version_6.1.2\lvgl\src\lv_objx/lv_calendar.c ****         ext->style_header           = copy_ext->style_header;
 2880              		.loc 1 163 0
 2881 00c0 A661     		str	r6, [r4, #24]
 167:..\..\..\lvgl\version_6.1.2\lvgl\src\lv_objx/lv_calendar.c ****         ext->style_week_box         = copy_ext->style_week_box;
 2882              		.loc 1 167 0
 2883 00c2 DE6A     		ldr	r6, [r3, #44]
 164:..\..\..\lvgl\version_6.1.2\lvgl\src\lv_objx/lv_calendar.c ****         ext->style_header_pr        = copy_ext->style_header_pr;
 2884              		.loc 1 164 0
 2885 00c4 E161     		str	r1, [r4, #28]
 168:..\..\..\lvgl\version_6.1.2\lvgl\src\lv_objx/lv_calendar.c ****         ext->style_today_box        = copy_ext->style_today_box;
 2886              		.loc 1 168 0
 2887 00c6 196B     		ldr	r1, [r3, #48]
 165:..\..\..\lvgl\version_6.1.2\lvgl\src\lv_objx/lv_calendar.c ****         ext->style_highlighted_days = copy_ext->style_highlighted_days;
 2888              		.loc 1 165 0
 2889 00c8 2262     		str	r2, [r4, #32]
 169:..\..\..\lvgl\version_6.1.2\lvgl\src\lv_objx/lv_calendar.c ****         ext->style_day_names        = copy_ext->style_day_names;
 2890              		.loc 1 169 0
 2891 00ca 5A6B     		ldr	r2, [r3, #52]
 2892 00cc 6263     		str	r2, [r4, #52]
 168:..\..\..\lvgl\version_6.1.2\lvgl\src\lv_objx/lv_calendar.c ****         ext->style_today_box        = copy_ext->style_today_box;
 2893              		.loc 1 168 0
 2894 00ce 2163     		str	r1, [r4, #48]
 166:..\..\..\lvgl\version_6.1.2\lvgl\src\lv_objx/lv_calendar.c ****         ext->style_inactive_days    = copy_ext->style_inactive_days;
 2895              		.loc 1 166 0
 2896 00d0 A762     		str	r7, [r4, #40]
 167:..\..\..\lvgl\version_6.1.2\lvgl\src\lv_objx/lv_calendar.c ****         ext->style_week_box         = copy_ext->style_week_box;
 2897              		.loc 1 167 0
 2898 00d2 E662     		str	r6, [r4, #44]
 170:..\..\..\lvgl\version_6.1.2\lvgl\src\lv_objx/lv_calendar.c ****         /*Refresh the style with new signal function*/
 2899              		.loc 1 170 0
 2900 00d4 5B6A     		ldr	r3, [r3, #36]
 2901              	.LVL329:
 2902 00d6 6362     		str	r3, [r4, #36]
 172:..\..\..\lvgl\version_6.1.2\lvgl\src\lv_objx/lv_calendar.c ****     }
 2903              		.loc 1 172 0
 2904 00d8 FFF7FEFF 		bl	lv_obj_refresh_style
 2905              	.LVL330:
 2906 00dc 2846     		mov	r0, r5
 2907              	.LBE417:
 178:..\..\..\lvgl\version_6.1.2\lvgl\src\lv_objx/lv_calendar.c **** 
 2908              		.loc 1 178 0
 2909 00de F8BD     		pop	{r3, r4, r5, r6, r7, pc}
 2910              	.LVL331:
 2911              	.L240:
 2912              	.LBB418:
 123:..\..\..\lvgl\version_6.1.2\lvgl\src\lv_objx/lv_calendar.c ****         lv_obj_set_style(new_calendar, &lv_style_pretty);
ARM GAS  C:\Users\pearlstl\AppData\Local\Temp\ccHPSyCj.s 			page 80


 2913              		.loc 1 123 0
 2914 00e0 4FF49672 		mov	r2, #300
 2915 00e4 1146     		mov	r1, r2
 2916 00e6 2846     		mov	r0, r5
 2917 00e8 FFF7FEFF 		bl	lv_obj_set_size
 2918              	.LVL332:
 124:..\..\..\lvgl\version_6.1.2\lvgl\src\lv_objx/lv_calendar.c **** 
 2919              		.loc 1 124 0
 2920 00ec 3146     		mov	r1, r6
 2921 00ee 2846     		mov	r0, r5
 2922 00f0 FFF7FEFF 		bl	lv_obj_set_style
 2923              	.LVL333:
 126:..\..\..\lvgl\version_6.1.2\lvgl\src\lv_objx/lv_calendar.c ****         if(th) {
 2924              		.loc 1 126 0
 2925 00f4 FFF7FEFF 		bl	lv_theme_get_current
 2926              	.LVL334:
 127:..\..\..\lvgl\version_6.1.2\lvgl\src\lv_objx/lv_calendar.c ****             lv_calendar_set_style(new_calendar, LV_CALENDAR_STYLE_BG, th->style.calendar.bg);
 2927              		.loc 1 127 0
 2928 00f8 0746     		mov	r7, r0
 2929              	.LVL335:
 2930 00fa 0028     		cmp	r0, #0
 2931 00fc 58D0     		beq	.L232
 128:..\..\..\lvgl\version_6.1.2\lvgl\src\lv_objx/lv_calendar.c ****             lv_calendar_set_style(new_calendar, LV_CALENDAR_STYLE_HEADER, th->style.calendar.header
 2932              		.loc 1 128 0
 2933 00fe D0F88C40 		ldr	r4, [r0, #140]
 2934              	.LVL336:
 2935              	.LBB419:
 2936              	.LBB420:
 293:..\..\..\lvgl\version_6.1.2\lvgl\src\lv_objx/lv_calendar.c **** 
 2937              		.loc 1 293 0
 2938 0102 2846     		mov	r0, r5
 2939              	.LVL337:
 2940 0104 FFF7FEFF 		bl	lv_obj_get_ext_attr
 2941              	.LVL338:
 296:..\..\..\lvgl\version_6.1.2\lvgl\src\lv_objx/lv_calendar.c ****         case LV_CALENDAR_STYLE_DAY_NAMES: ext->style_day_names = style; break;
 2942              		.loc 1 296 0
 2943 0108 2146     		mov	r1, r4
 2944 010a 2846     		mov	r0, r5
 2945 010c FFF7FEFF 		bl	lv_obj_set_style
 2946              	.LVL339:
 306:..\..\..\lvgl\version_6.1.2\lvgl\src\lv_objx/lv_calendar.c **** }
 2947              		.loc 1 306 0
 2948 0110 2846     		mov	r0, r5
 2949 0112 FFF7FEFF 		bl	lv_obj_invalidate
 2950              	.LVL340:
 2951              	.LBE420:
 2952              	.LBE419:
 2953              	.LBB421:
 2954              	.LBB422:
 293:..\..\..\lvgl\version_6.1.2\lvgl\src\lv_objx/lv_calendar.c **** 
 2955              		.loc 1 293 0
 2956 0116 2846     		mov	r0, r5
 2957              	.LBE422:
 2958              	.LBE421:
 129:..\..\..\lvgl\version_6.1.2\lvgl\src\lv_objx/lv_calendar.c ****             lv_calendar_set_style(new_calendar, LV_CALENDAR_STYLE_HEADER_PR, th->style.calendar.hea
 2959              		.loc 1 129 0
 2960 0118 D7F89040 		ldr	r4, [r7, #144]
ARM GAS  C:\Users\pearlstl\AppData\Local\Temp\ccHPSyCj.s 			page 81


 2961              	.LVL341:
 2962              	.LBB424:
 2963              	.LBB423:
 293:..\..\..\lvgl\version_6.1.2\lvgl\src\lv_objx/lv_calendar.c **** 
 2964              		.loc 1 293 0
 2965 011c FFF7FEFF 		bl	lv_obj_get_ext_attr
 2966              	.LVL342:
 298:..\..\..\lvgl\version_6.1.2\lvgl\src\lv_objx/lv_calendar.c ****         case LV_CALENDAR_STYLE_HEADER_PR: ext->style_header_pr = style; break;
 2967              		.loc 1 298 0
 2968 0120 C461     		str	r4, [r0, #28]
 306:..\..\..\lvgl\version_6.1.2\lvgl\src\lv_objx/lv_calendar.c **** }
 2969              		.loc 1 306 0
 2970 0122 2846     		mov	r0, r5
 2971              	.LVL343:
 2972 0124 FFF7FEFF 		bl	lv_obj_invalidate
 2973              	.LVL344:
 2974              	.LBE423:
 2975              	.LBE424:
 2976              	.LBB425:
 2977              	.LBB426:
 293:..\..\..\lvgl\version_6.1.2\lvgl\src\lv_objx/lv_calendar.c **** 
 2978              		.loc 1 293 0
 2979 0128 2846     		mov	r0, r5
 2980              	.LBE426:
 2981              	.LBE425:
 130:..\..\..\lvgl\version_6.1.2\lvgl\src\lv_objx/lv_calendar.c ****             lv_calendar_set_style(new_calendar, LV_CALENDAR_STYLE_DAY_NAMES, th->style.calendar.day
 2982              		.loc 1 130 0
 2983 012a D7F89440 		ldr	r4, [r7, #148]
 2984              	.LVL345:
 2985              	.LBB428:
 2986              	.LBB427:
 293:..\..\..\lvgl\version_6.1.2\lvgl\src\lv_objx/lv_calendar.c **** 
 2987              		.loc 1 293 0
 2988 012e FFF7FEFF 		bl	lv_obj_get_ext_attr
 2989              	.LVL346:
 299:..\..\..\lvgl\version_6.1.2\lvgl\src\lv_objx/lv_calendar.c ****         case LV_CALENDAR_STYLE_HIGHLIGHTED_DAYS: ext->style_highlighted_days = style; break;
 2990              		.loc 1 299 0
 2991 0132 0462     		str	r4, [r0, #32]
 306:..\..\..\lvgl\version_6.1.2\lvgl\src\lv_objx/lv_calendar.c **** }
 2992              		.loc 1 306 0
 2993 0134 2846     		mov	r0, r5
 2994              	.LVL347:
 2995 0136 FFF7FEFF 		bl	lv_obj_invalidate
 2996              	.LVL348:
 2997              	.LBE427:
 2998              	.LBE428:
 2999              	.LBB429:
 3000              	.LBB430:
 293:..\..\..\lvgl\version_6.1.2\lvgl\src\lv_objx/lv_calendar.c **** 
 3001              		.loc 1 293 0
 3002 013a 2846     		mov	r0, r5
 3003              	.LBE430:
 3004              	.LBE429:
 131:..\..\..\lvgl\version_6.1.2\lvgl\src\lv_objx/lv_calendar.c ****             lv_calendar_set_style(new_calendar, LV_CALENDAR_STYLE_WEEK_BOX, th->style.calendar.week
 3005              		.loc 1 131 0
 3006 013c D7F89840 		ldr	r4, [r7, #152]
 3007              	.LVL349:
ARM GAS  C:\Users\pearlstl\AppData\Local\Temp\ccHPSyCj.s 			page 82


 3008              	.LBB432:
 3009              	.LBB431:
 293:..\..\..\lvgl\version_6.1.2\lvgl\src\lv_objx/lv_calendar.c **** 
 3010              		.loc 1 293 0
 3011 0140 FFF7FEFF 		bl	lv_obj_get_ext_attr
 3012              	.LVL350:
 297:..\..\..\lvgl\version_6.1.2\lvgl\src\lv_objx/lv_calendar.c ****         case LV_CALENDAR_STYLE_HEADER: ext->style_header = style; break;
 3013              		.loc 1 297 0
 3014 0144 4462     		str	r4, [r0, #36]
 306:..\..\..\lvgl\version_6.1.2\lvgl\src\lv_objx/lv_calendar.c **** }
 3015              		.loc 1 306 0
 3016 0146 2846     		mov	r0, r5
 3017              	.LVL351:
 3018 0148 FFF7FEFF 		bl	lv_obj_invalidate
 3019              	.LVL352:
 3020              	.LBE431:
 3021              	.LBE432:
 3022              	.LBB433:
 3023              	.LBB434:
 293:..\..\..\lvgl\version_6.1.2\lvgl\src\lv_objx/lv_calendar.c **** 
 3024              		.loc 1 293 0
 3025 014c 2846     		mov	r0, r5
 3026              	.LBE434:
 3027              	.LBE433:
 132:..\..\..\lvgl\version_6.1.2\lvgl\src\lv_objx/lv_calendar.c ****             lv_calendar_set_style(new_calendar, LV_CALENDAR_STYLE_TODAY_BOX, th->style.calendar.tod
 3028              		.loc 1 132 0
 3029 014e D7F8A440 		ldr	r4, [r7, #164]
 3030              	.LVL353:
 3031              	.LBB436:
 3032              	.LBB435:
 293:..\..\..\lvgl\version_6.1.2\lvgl\src\lv_objx/lv_calendar.c **** 
 3033              		.loc 1 293 0
 3034 0152 FFF7FEFF 		bl	lv_obj_get_ext_attr
 3035              	.LVL354:
 303:..\..\..\lvgl\version_6.1.2\lvgl\src\lv_objx/lv_calendar.c ****     }
 3036              		.loc 1 303 0
 3037 0156 0463     		str	r4, [r0, #48]
 306:..\..\..\lvgl\version_6.1.2\lvgl\src\lv_objx/lv_calendar.c **** }
 3038              		.loc 1 306 0
 3039 0158 2846     		mov	r0, r5
 3040              	.LVL355:
 3041 015a FFF7FEFF 		bl	lv_obj_invalidate
 3042              	.LVL356:
 3043              	.LBE435:
 3044              	.LBE436:
 3045              	.LBB437:
 3046              	.LBB438:
 293:..\..\..\lvgl\version_6.1.2\lvgl\src\lv_objx/lv_calendar.c **** 
 3047              		.loc 1 293 0
 3048 015e 2846     		mov	r0, r5
 3049              	.LBE438:
 3050              	.LBE437:
 133:..\..\..\lvgl\version_6.1.2\lvgl\src\lv_objx/lv_calendar.c ****             lv_calendar_set_style(new_calendar, LV_CALENDAR_STYLE_HIGHLIGHTED_DAYS,
 3051              		.loc 1 133 0
 3052 0160 D7F8A840 		ldr	r4, [r7, #168]
 3053              	.LVL357:
 3054              	.LBB440:
ARM GAS  C:\Users\pearlstl\AppData\Local\Temp\ccHPSyCj.s 			page 83


 3055              	.LBB439:
 293:..\..\..\lvgl\version_6.1.2\lvgl\src\lv_objx/lv_calendar.c **** 
 3056              		.loc 1 293 0
 3057 0164 FFF7FEFF 		bl	lv_obj_get_ext_attr
 3058              	.LVL358:
 302:..\..\..\lvgl\version_6.1.2\lvgl\src\lv_objx/lv_calendar.c ****         case LV_CALENDAR_STYLE_WEEK_BOX: ext->style_week_box = style; break;
 3059              		.loc 1 302 0
 3060 0168 4463     		str	r4, [r0, #52]
 306:..\..\..\lvgl\version_6.1.2\lvgl\src\lv_objx/lv_calendar.c **** }
 3061              		.loc 1 306 0
 3062 016a 2846     		mov	r0, r5
 3063              	.LVL359:
 3064 016c FFF7FEFF 		bl	lv_obj_invalidate
 3065              	.LVL360:
 3066              	.LBE439:
 3067              	.LBE440:
 3068              	.LBB441:
 3069              	.LBB442:
 293:..\..\..\lvgl\version_6.1.2\lvgl\src\lv_objx/lv_calendar.c **** 
 3070              		.loc 1 293 0
 3071 0170 2846     		mov	r0, r5
 3072              	.LBE442:
 3073              	.LBE441:
 135:..\..\..\lvgl\version_6.1.2\lvgl\src\lv_objx/lv_calendar.c ****             lv_calendar_set_style(new_calendar, LV_CALENDAR_STYLE_INACTIVE_DAYS, th->style.calendar
 3074              		.loc 1 135 0
 3075 0172 D7F89C40 		ldr	r4, [r7, #156]
 3076              	.LVL361:
 3077              	.LBB444:
 3078              	.LBB443:
 293:..\..\..\lvgl\version_6.1.2\lvgl\src\lv_objx/lv_calendar.c **** 
 3079              		.loc 1 293 0
 3080 0176 FFF7FEFF 		bl	lv_obj_get_ext_attr
 3081              	.LVL362:
 300:..\..\..\lvgl\version_6.1.2\lvgl\src\lv_objx/lv_calendar.c ****         case LV_CALENDAR_STYLE_INACTIVE_DAYS: ext->style_inactive_days = style; break;
 3082              		.loc 1 300 0
 3083 017a 8462     		str	r4, [r0, #40]
 306:..\..\..\lvgl\version_6.1.2\lvgl\src\lv_objx/lv_calendar.c **** }
 3084              		.loc 1 306 0
 3085 017c 2846     		mov	r0, r5
 3086              	.LVL363:
 3087 017e FFF7FEFF 		bl	lv_obj_invalidate
 3088              	.LVL364:
 3089              	.LBE443:
 3090              	.LBE444:
 136:..\..\..\lvgl\version_6.1.2\lvgl\src\lv_objx/lv_calendar.c ****         } else {
 3091              		.loc 1 136 0
 3092 0182 D7F8A040 		ldr	r4, [r7, #160]
 3093              	.LVL365:
 3094              	.LBB445:
 3095              	.LBB446:
 293:..\..\..\lvgl\version_6.1.2\lvgl\src\lv_objx/lv_calendar.c **** 
 3096              		.loc 1 293 0
 3097 0186 2846     		mov	r0, r5
 3098              	.LVL366:
 3099              	.L237:
 3100              	.LBE446:
 3101              	.LBE445:
ARM GAS  C:\Users\pearlstl\AppData\Local\Temp\ccHPSyCj.s 			page 84


 3102              	.LBB447:
 3103              	.LBB448:
 3104 0188 FFF7FEFF 		bl	lv_obj_get_ext_attr
 3105              	.LVL367:
 301:..\..\..\lvgl\version_6.1.2\lvgl\src\lv_objx/lv_calendar.c ****         case LV_CALENDAR_STYLE_TODAY_BOX: ext->style_today_box = style; break;
 3106              		.loc 1 301 0
 3107 018c C462     		str	r4, [r0, #44]
 306:..\..\..\lvgl\version_6.1.2\lvgl\src\lv_objx/lv_calendar.c **** }
 3108              		.loc 1 306 0
 3109 018e 2846     		mov	r0, r5
 3110              	.LVL368:
 3111 0190 FFF7FEFF 		bl	lv_obj_invalidate
 3112              	.LVL369:
 3113 0194 2846     		mov	r0, r5
 3114 0196 F8BD     		pop	{r3, r4, r5, r6, r7, pc}
 3115              	.LVL370:
 3116              	.L228:
 3117              	.LBE448:
 3118              	.LBE447:
 3119              	.LBE418:
  83:..\..\..\lvgl\version_6.1.2\lvgl\src\lv_objx/lv_calendar.c **** 
 3120              		.loc 1 83 0
 3121 0198 0020     		movs	r0, #0
 3122 019a F8BD     		pop	{r3, r4, r5, r6, r7, pc}
 3123              	.LVL371:
 3124              	.L238:
  89:..\..\..\lvgl\version_6.1.2\lvgl\src\lv_objx/lv_calendar.c ****     if(ancestor_design == NULL) ancestor_design = lv_obj_get_design_cb(new_calendar);
 3125              		.loc 1 89 0 discriminator 1
 3126 019c 2846     		mov	r0, r5
 3127              	.LVL372:
 3128 019e FFF7FEFF 		bl	lv_obj_get_signal_cb
 3129              	.LVL373:
 3130 01a2 7060     		str	r0, [r6, #4]
 3131 01a4 40E7     		b	.L229
 3132              	.L239:
  90:..\..\..\lvgl\version_6.1.2\lvgl\src\lv_objx/lv_calendar.c **** 
 3133              		.loc 1 90 0 discriminator 1
 3134 01a6 2846     		mov	r0, r5
 3135 01a8 FFF7FEFF 		bl	lv_obj_get_design_cb
 3136              	.LVL374:
 3137 01ac 3060     		str	r0, [r6]
 3138 01ae 40E7     		b	.L230
 3139              	.LVL375:
 3140              	.L232:
 3141              	.LBB477:
 3142              	.LBB450:
 3143              	.LBB451:
 293:..\..\..\lvgl\version_6.1.2\lvgl\src\lv_objx/lv_calendar.c **** 
 3144              		.loc 1 293 0
 3145 01b0 2846     		mov	r0, r5
 3146              	.LVL376:
 3147 01b2 FFF7FEFF 		bl	lv_obj_get_ext_attr
 3148              	.LVL377:
 296:..\..\..\lvgl\version_6.1.2\lvgl\src\lv_objx/lv_calendar.c ****         case LV_CALENDAR_STYLE_DAY_NAMES: ext->style_day_names = style; break;
 3149              		.loc 1 296 0
 3150 01b6 3146     		mov	r1, r6
 3151 01b8 2846     		mov	r0, r5
ARM GAS  C:\Users\pearlstl\AppData\Local\Temp\ccHPSyCj.s 			page 85


 3152 01ba FFF7FEFF 		bl	lv_obj_set_style
 3153              	.LVL378:
 306:..\..\..\lvgl\version_6.1.2\lvgl\src\lv_objx/lv_calendar.c **** }
 3154              		.loc 1 306 0
 3155 01be 2846     		mov	r0, r5
 3156 01c0 FFF7FEFF 		bl	lv_obj_invalidate
 3157              	.LVL379:
 3158              	.LBE451:
 3159              	.LBE450:
 3160              	.LBB452:
 3161              	.LBB453:
 293:..\..\..\lvgl\version_6.1.2\lvgl\src\lv_objx/lv_calendar.c **** 
 3162              		.loc 1 293 0
 3163 01c4 2846     		mov	r0, r5
 3164              	.LBE453:
 3165              	.LBE452:
 139:..\..\..\lvgl\version_6.1.2\lvgl\src\lv_objx/lv_calendar.c ****             lv_calendar_set_style(new_calendar, LV_CALENDAR_STYLE_HEADER_PR, ext->style_header_pr);
 3166              		.loc 1 139 0
 3167 01c6 E669     		ldr	r6, [r4, #28]
 3168              	.LVL380:
 3169              	.LBB455:
 3170              	.LBB454:
 293:..\..\..\lvgl\version_6.1.2\lvgl\src\lv_objx/lv_calendar.c **** 
 3171              		.loc 1 293 0
 3172 01c8 FFF7FEFF 		bl	lv_obj_get_ext_attr
 3173              	.LVL381:
 298:..\..\..\lvgl\version_6.1.2\lvgl\src\lv_objx/lv_calendar.c ****         case LV_CALENDAR_STYLE_HEADER_PR: ext->style_header_pr = style; break;
 3174              		.loc 1 298 0
 3175 01cc C661     		str	r6, [r0, #28]
 306:..\..\..\lvgl\version_6.1.2\lvgl\src\lv_objx/lv_calendar.c **** }
 3176              		.loc 1 306 0
 3177 01ce 2846     		mov	r0, r5
 3178              	.LVL382:
 3179 01d0 FFF7FEFF 		bl	lv_obj_invalidate
 3180              	.LVL383:
 3181              	.LBE454:
 3182              	.LBE455:
 3183              	.LBB456:
 3184              	.LBB457:
 293:..\..\..\lvgl\version_6.1.2\lvgl\src\lv_objx/lv_calendar.c **** 
 3185              		.loc 1 293 0
 3186 01d4 2846     		mov	r0, r5
 3187              	.LBE457:
 3188              	.LBE456:
 140:..\..\..\lvgl\version_6.1.2\lvgl\src\lv_objx/lv_calendar.c ****             lv_calendar_set_style(new_calendar, LV_CALENDAR_STYLE_DAY_NAMES, ext->style_day_names);
 3189              		.loc 1 140 0
 3190 01d6 266A     		ldr	r6, [r4, #32]
 3191              	.LVL384:
 3192              	.LBB459:
 3193              	.LBB458:
 293:..\..\..\lvgl\version_6.1.2\lvgl\src\lv_objx/lv_calendar.c **** 
 3194              		.loc 1 293 0
 3195 01d8 FFF7FEFF 		bl	lv_obj_get_ext_attr
 3196              	.LVL385:
 299:..\..\..\lvgl\version_6.1.2\lvgl\src\lv_objx/lv_calendar.c ****         case LV_CALENDAR_STYLE_HIGHLIGHTED_DAYS: ext->style_highlighted_days = style; break;
 3197              		.loc 1 299 0
 3198 01dc 0662     		str	r6, [r0, #32]
ARM GAS  C:\Users\pearlstl\AppData\Local\Temp\ccHPSyCj.s 			page 86


 306:..\..\..\lvgl\version_6.1.2\lvgl\src\lv_objx/lv_calendar.c **** }
 3199              		.loc 1 306 0
 3200 01de 2846     		mov	r0, r5
 3201              	.LVL386:
 3202 01e0 FFF7FEFF 		bl	lv_obj_invalidate
 3203              	.LVL387:
 3204              	.LBE458:
 3205              	.LBE459:
 3206              	.LBB460:
 3207              	.LBB461:
 293:..\..\..\lvgl\version_6.1.2\lvgl\src\lv_objx/lv_calendar.c **** 
 3208              		.loc 1 293 0
 3209 01e4 2846     		mov	r0, r5
 3210              	.LBE461:
 3211              	.LBE460:
 141:..\..\..\lvgl\version_6.1.2\lvgl\src\lv_objx/lv_calendar.c ****             lv_calendar_set_style(new_calendar, LV_CALENDAR_STYLE_WEEK_BOX, ext->style_week_box);
 3212              		.loc 1 141 0
 3213 01e6 666A     		ldr	r6, [r4, #36]
 3214              	.LVL388:
 3215              	.LBB463:
 3216              	.LBB462:
 293:..\..\..\lvgl\version_6.1.2\lvgl\src\lv_objx/lv_calendar.c **** 
 3217              		.loc 1 293 0
 3218 01e8 FFF7FEFF 		bl	lv_obj_get_ext_attr
 3219              	.LVL389:
 297:..\..\..\lvgl\version_6.1.2\lvgl\src\lv_objx/lv_calendar.c ****         case LV_CALENDAR_STYLE_HEADER: ext->style_header = style; break;
 3220              		.loc 1 297 0
 3221 01ec 4662     		str	r6, [r0, #36]
 306:..\..\..\lvgl\version_6.1.2\lvgl\src\lv_objx/lv_calendar.c **** }
 3222              		.loc 1 306 0
 3223 01ee 2846     		mov	r0, r5
 3224              	.LVL390:
 3225 01f0 FFF7FEFF 		bl	lv_obj_invalidate
 3226              	.LVL391:
 3227              	.LBE462:
 3228              	.LBE463:
 3229              	.LBB464:
 3230              	.LBB465:
 293:..\..\..\lvgl\version_6.1.2\lvgl\src\lv_objx/lv_calendar.c **** 
 3231              		.loc 1 293 0
 3232 01f4 2846     		mov	r0, r5
 3233              	.LBE465:
 3234              	.LBE464:
 142:..\..\..\lvgl\version_6.1.2\lvgl\src\lv_objx/lv_calendar.c ****             lv_calendar_set_style(new_calendar, LV_CALENDAR_STYLE_TODAY_BOX, ext->style_today_box);
 3235              		.loc 1 142 0
 3236 01f6 266B     		ldr	r6, [r4, #48]
 3237              	.LVL392:
 3238              	.LBB467:
 3239              	.LBB466:
 293:..\..\..\lvgl\version_6.1.2\lvgl\src\lv_objx/lv_calendar.c **** 
 3240              		.loc 1 293 0
 3241 01f8 FFF7FEFF 		bl	lv_obj_get_ext_attr
 3242              	.LVL393:
 303:..\..\..\lvgl\version_6.1.2\lvgl\src\lv_objx/lv_calendar.c ****     }
 3243              		.loc 1 303 0
 3244 01fc 0663     		str	r6, [r0, #48]
 306:..\..\..\lvgl\version_6.1.2\lvgl\src\lv_objx/lv_calendar.c **** }
ARM GAS  C:\Users\pearlstl\AppData\Local\Temp\ccHPSyCj.s 			page 87


 3245              		.loc 1 306 0
 3246 01fe 2846     		mov	r0, r5
 3247              	.LVL394:
 3248 0200 FFF7FEFF 		bl	lv_obj_invalidate
 3249              	.LVL395:
 3250              	.LBE466:
 3251              	.LBE467:
 3252              	.LBB468:
 3253              	.LBB469:
 293:..\..\..\lvgl\version_6.1.2\lvgl\src\lv_objx/lv_calendar.c **** 
 3254              		.loc 1 293 0
 3255 0204 2846     		mov	r0, r5
 3256              	.LBE469:
 3257              	.LBE468:
 143:..\..\..\lvgl\version_6.1.2\lvgl\src\lv_objx/lv_calendar.c ****             lv_calendar_set_style(new_calendar, LV_CALENDAR_STYLE_HIGHLIGHTED_DAYS, ext->style_high
 3258              		.loc 1 143 0
 3259 0206 666B     		ldr	r6, [r4, #52]
 3260              	.LVL396:
 3261              	.LBB471:
 3262              	.LBB470:
 293:..\..\..\lvgl\version_6.1.2\lvgl\src\lv_objx/lv_calendar.c **** 
 3263              		.loc 1 293 0
 3264 0208 FFF7FEFF 		bl	lv_obj_get_ext_attr
 3265              	.LVL397:
 302:..\..\..\lvgl\version_6.1.2\lvgl\src\lv_objx/lv_calendar.c ****         case LV_CALENDAR_STYLE_WEEK_BOX: ext->style_week_box = style; break;
 3266              		.loc 1 302 0
 3267 020c 4663     		str	r6, [r0, #52]
 306:..\..\..\lvgl\version_6.1.2\lvgl\src\lv_objx/lv_calendar.c **** }
 3268              		.loc 1 306 0
 3269 020e 2846     		mov	r0, r5
 3270              	.LVL398:
 3271 0210 FFF7FEFF 		bl	lv_obj_invalidate
 3272              	.LVL399:
 3273              	.LBE470:
 3274              	.LBE471:
 3275              	.LBB472:
 3276              	.LBB473:
 293:..\..\..\lvgl\version_6.1.2\lvgl\src\lv_objx/lv_calendar.c **** 
 3277              		.loc 1 293 0
 3278 0214 2846     		mov	r0, r5
 3279              	.LBE473:
 3280              	.LBE472:
 144:..\..\..\lvgl\version_6.1.2\lvgl\src\lv_objx/lv_calendar.c ****             lv_calendar_set_style(new_calendar, LV_CALENDAR_STYLE_INACTIVE_DAYS, ext->style_inactiv
 3281              		.loc 1 144 0
 3282 0216 A66A     		ldr	r6, [r4, #40]
 3283              	.LVL400:
 3284              	.LBB475:
 3285              	.LBB474:
 293:..\..\..\lvgl\version_6.1.2\lvgl\src\lv_objx/lv_calendar.c **** 
 3286              		.loc 1 293 0
 3287 0218 FFF7FEFF 		bl	lv_obj_get_ext_attr
 3288              	.LVL401:
 300:..\..\..\lvgl\version_6.1.2\lvgl\src\lv_objx/lv_calendar.c ****         case LV_CALENDAR_STYLE_INACTIVE_DAYS: ext->style_inactive_days = style; break;
 3289              		.loc 1 300 0
 3290 021c 8662     		str	r6, [r0, #40]
 306:..\..\..\lvgl\version_6.1.2\lvgl\src\lv_objx/lv_calendar.c **** }
 3291              		.loc 1 306 0
ARM GAS  C:\Users\pearlstl\AppData\Local\Temp\ccHPSyCj.s 			page 88


 3292 021e 2846     		mov	r0, r5
 3293              	.LVL402:
 3294 0220 FFF7FEFF 		bl	lv_obj_invalidate
 3295              	.LVL403:
 3296              	.LBE474:
 3297              	.LBE475:
 3298              	.LBB476:
 3299              	.LBB449:
 293:..\..\..\lvgl\version_6.1.2\lvgl\src\lv_objx/lv_calendar.c **** 
 3300              		.loc 1 293 0
 3301 0224 2846     		mov	r0, r5
 3302              	.LBE449:
 3303              	.LBE476:
 145:..\..\..\lvgl\version_6.1.2\lvgl\src\lv_objx/lv_calendar.c ****         }
 3304              		.loc 1 145 0
 3305 0226 E46A     		ldr	r4, [r4, #44]
 3306              	.LVL404:
 3307 0228 AEE7     		b	.L237
 3308              	.L242:
 3309 022a 00BF     		.align	2
 3310              	.L241:
 3311 022c 00000000 		.word	.LANCHOR0
 3312 0230 00000000 		.word	lv_style_plain_color
 3313 0234 00000000 		.word	lv_style_pretty_color
 3314 0238 00000000 		.word	lv_style_pretty
 3315 023c 00000000 		.word	lv_calendar_signal
 3316 0240 00000000 		.word	lv_calendar_design
 3317 0244 00000000 		.word	lv_style_btn_ina
 3318              	.LBE477:
 3319              		.cfi_endproc
 3320              	.LFE31:
 3321              		.size	lv_calendar_create, .-lv_calendar_create
 3322              		.section	.text.lv_calendar_set_today_date,"ax",%progbits
 3323              		.align	2
 3324              		.global	lv_calendar_set_today_date
 3325              		.thumb
 3326              		.thumb_func
 3327              		.type	lv_calendar_set_today_date, %function
 3328              	lv_calendar_set_today_date:
 3329              	.LFB32:
 199:..\..\..\lvgl\version_6.1.2\lvgl\src\lv_objx/lv_calendar.c ****     LV_ASSERT_OBJ(calendar, LV_OBJX_NAME);
 3330              		.loc 1 199 0
 3331              		.cfi_startproc
 3332              		@ args = 0, pretend = 0, frame = 0
 3333              		@ frame_needed = 0, uses_anonymous_args = 0
 3334              	.LVL405:
 3335 0000 38B5     		push	{r3, r4, r5, lr}
 3336              		.cfi_def_cfa_offset 16
 3337              		.cfi_offset 3, -16
 3338              		.cfi_offset 4, -12
 3339              		.cfi_offset 5, -8
 3340              		.cfi_offset 14, -4
 199:..\..\..\lvgl\version_6.1.2\lvgl\src\lv_objx/lv_calendar.c ****     LV_ASSERT_OBJ(calendar, LV_OBJX_NAME);
 3341              		.loc 1 199 0
 3342 0002 0C46     		mov	r4, r1
 3343 0004 0546     		mov	r5, r0
 203:..\..\..\lvgl\version_6.1.2\lvgl\src\lv_objx/lv_calendar.c ****     ext->today.year         = today->year;
ARM GAS  C:\Users\pearlstl\AppData\Local\Temp\ccHPSyCj.s 			page 89


 3344              		.loc 1 203 0
 3345 0006 FFF7FEFF 		bl	lv_obj_get_ext_attr
 3346              	.LVL406:
 204:..\..\..\lvgl\version_6.1.2\lvgl\src\lv_objx/lv_calendar.c ****     ext->today.month        = today->month;
 3347              		.loc 1 204 0
 3348 000a 2388     		ldrh	r3, [r4]
 3349 000c 0380     		strh	r3, [r0]	@ movhi
 205:..\..\..\lvgl\version_6.1.2\lvgl\src\lv_objx/lv_calendar.c ****     ext->today.day          = today->day;
 3350              		.loc 1 205 0
 3351 000e 94F90230 		ldrsb	r3, [r4, #2]
 3352 0012 8370     		strb	r3, [r0, #2]
 206:..\..\..\lvgl\version_6.1.2\lvgl\src\lv_objx/lv_calendar.c **** 
 3353              		.loc 1 206 0
 3354 0014 94F90330 		ldrsb	r3, [r4, #3]
 3355 0018 C370     		strb	r3, [r0, #3]
 208:..\..\..\lvgl\version_6.1.2\lvgl\src\lv_objx/lv_calendar.c **** }
 3356              		.loc 1 208 0
 3357 001a 2846     		mov	r0, r5
 3358              	.LVL407:
 209:..\..\..\lvgl\version_6.1.2\lvgl\src\lv_objx/lv_calendar.c **** 
 3359              		.loc 1 209 0
 3360 001c BDE83840 		pop	{r3, r4, r5, lr}
 3361              		.cfi_restore 14
 3362              		.cfi_restore 5
 3363              		.cfi_restore 4
 3364              		.cfi_restore 3
 3365              		.cfi_def_cfa_offset 0
 3366              	.LVL408:
 208:..\..\..\lvgl\version_6.1.2\lvgl\src\lv_objx/lv_calendar.c **** }
 3367              		.loc 1 208 0
 3368 0020 FFF7FEBF 		b	lv_obj_invalidate
 3369              	.LVL409:
 3370              		.cfi_endproc
 3371              	.LFE32:
 3372              		.size	lv_calendar_set_today_date, .-lv_calendar_set_today_date
 3373              		.section	.text.lv_calendar_set_showed_date,"ax",%progbits
 3374              		.align	2
 3375              		.global	lv_calendar_set_showed_date
 3376              		.thumb
 3377              		.thumb_func
 3378              		.type	lv_calendar_set_showed_date, %function
 3379              	lv_calendar_set_showed_date:
 3380              	.LFB33:
 218:..\..\..\lvgl\version_6.1.2\lvgl\src\lv_objx/lv_calendar.c ****     LV_ASSERT_OBJ(calendar, LV_OBJX_NAME);
 3381              		.loc 1 218 0
 3382              		.cfi_startproc
 3383              		@ args = 0, pretend = 0, frame = 0
 3384              		@ frame_needed = 0, uses_anonymous_args = 0
 3385              	.LVL410:
 3386 0000 38B5     		push	{r3, r4, r5, lr}
 3387              		.cfi_def_cfa_offset 16
 3388              		.cfi_offset 3, -16
 3389              		.cfi_offset 4, -12
 3390              		.cfi_offset 5, -8
 3391              		.cfi_offset 14, -4
 218:..\..\..\lvgl\version_6.1.2\lvgl\src\lv_objx/lv_calendar.c ****     LV_ASSERT_OBJ(calendar, LV_OBJX_NAME);
 3392              		.loc 1 218 0
ARM GAS  C:\Users\pearlstl\AppData\Local\Temp\ccHPSyCj.s 			page 90


 3393 0002 0C46     		mov	r4, r1
 3394 0004 0546     		mov	r5, r0
 222:..\..\..\lvgl\version_6.1.2\lvgl\src\lv_objx/lv_calendar.c ****     ext->showed_date.year   = showed->year;
 3395              		.loc 1 222 0
 3396 0006 FFF7FEFF 		bl	lv_obj_get_ext_attr
 3397              	.LVL411:
 223:..\..\..\lvgl\version_6.1.2\lvgl\src\lv_objx/lv_calendar.c ****     ext->showed_date.month  = showed->month;
 3398              		.loc 1 223 0
 3399 000a 2388     		ldrh	r3, [r4]
 3400 000c 8380     		strh	r3, [r0, #4]	@ movhi
 224:..\..\..\lvgl\version_6.1.2\lvgl\src\lv_objx/lv_calendar.c ****     ext->showed_date.day    = showed->day;
 3401              		.loc 1 224 0
 3402 000e 94F90230 		ldrsb	r3, [r4, #2]
 3403 0012 8371     		strb	r3, [r0, #6]
 225:..\..\..\lvgl\version_6.1.2\lvgl\src\lv_objx/lv_calendar.c **** 
 3404              		.loc 1 225 0
 3405 0014 94F90330 		ldrsb	r3, [r4, #3]
 3406 0018 C371     		strb	r3, [r0, #7]
 227:..\..\..\lvgl\version_6.1.2\lvgl\src\lv_objx/lv_calendar.c **** }
 3407              		.loc 1 227 0
 3408 001a 2846     		mov	r0, r5
 3409              	.LVL412:
 228:..\..\..\lvgl\version_6.1.2\lvgl\src\lv_objx/lv_calendar.c **** 
 3410              		.loc 1 228 0
 3411 001c BDE83840 		pop	{r3, r4, r5, lr}
 3412              		.cfi_restore 14
 3413              		.cfi_restore 5
 3414              		.cfi_restore 4
 3415              		.cfi_restore 3
 3416              		.cfi_def_cfa_offset 0
 3417              	.LVL413:
 227:..\..\..\lvgl\version_6.1.2\lvgl\src\lv_objx/lv_calendar.c **** }
 3418              		.loc 1 227 0
 3419 0020 FFF7FEBF 		b	lv_obj_invalidate
 3420              	.LVL414:
 3421              		.cfi_endproc
 3422              	.LFE33:
 3423              		.size	lv_calendar_set_showed_date, .-lv_calendar_set_showed_date
 3424              		.section	.text.lv_calendar_set_highlighted_dates,"ax",%progbits
 3425              		.align	2
 3426              		.global	lv_calendar_set_highlighted_dates
 3427              		.thumb
 3428              		.thumb_func
 3429              		.type	lv_calendar_set_highlighted_dates, %function
 3430              	lv_calendar_set_highlighted_dates:
 3431              	.LFB34:
 238:..\..\..\lvgl\version_6.1.2\lvgl\src\lv_objx/lv_calendar.c ****     LV_ASSERT_OBJ(calendar, LV_OBJX_NAME);
 3432              		.loc 1 238 0
 3433              		.cfi_startproc
 3434              		@ args = 0, pretend = 0, frame = 0
 3435              		@ frame_needed = 0, uses_anonymous_args = 0
 3436              	.LVL415:
 3437 0000 70B5     		push	{r4, r5, r6, lr}
 3438              		.cfi_def_cfa_offset 16
 3439              		.cfi_offset 4, -16
 3440              		.cfi_offset 5, -12
 3441              		.cfi_offset 6, -8
ARM GAS  C:\Users\pearlstl\AppData\Local\Temp\ccHPSyCj.s 			page 91


 3442              		.cfi_offset 14, -4
 238:..\..\..\lvgl\version_6.1.2\lvgl\src\lv_objx/lv_calendar.c ****     LV_ASSERT_OBJ(calendar, LV_OBJX_NAME);
 3443              		.loc 1 238 0
 3444 0002 0D46     		mov	r5, r1
 3445 0004 1446     		mov	r4, r2
 3446 0006 0646     		mov	r6, r0
 242:..\..\..\lvgl\version_6.1.2\lvgl\src\lv_objx/lv_calendar.c ****     ext->highlighted_dates     = highlighted;
 3447              		.loc 1 242 0
 3448 0008 FFF7FEFF 		bl	lv_obj_get_ext_attr
 3449              	.LVL416:
 3450 000c 0346     		mov	r3, r0
 3451              	.LVL417:
 246:..\..\..\lvgl\version_6.1.2\lvgl\src\lv_objx/lv_calendar.c **** }
 3452              		.loc 1 246 0
 3453 000e 3046     		mov	r0, r6
 3454              	.LVL418:
 243:..\..\..\lvgl\version_6.1.2\lvgl\src\lv_objx/lv_calendar.c ****     ext->highlighted_dates_num = date_num;
 3455              		.loc 1 243 0
 3456 0010 9D60     		str	r5, [r3, #8]
 244:..\..\..\lvgl\version_6.1.2\lvgl\src\lv_objx/lv_calendar.c **** 
 3457              		.loc 1 244 0
 3458 0012 DC81     		strh	r4, [r3, #14]	@ movhi
 247:..\..\..\lvgl\version_6.1.2\lvgl\src\lv_objx/lv_calendar.c **** 
 3459              		.loc 1 247 0
 3460 0014 BDE87040 		pop	{r4, r5, r6, lr}
 3461              		.cfi_restore 14
 3462              		.cfi_restore 6
 3463              		.cfi_restore 5
 3464              		.cfi_restore 4
 3465              		.cfi_def_cfa_offset 0
 3466              	.LVL419:
 246:..\..\..\lvgl\version_6.1.2\lvgl\src\lv_objx/lv_calendar.c **** }
 3467              		.loc 1 246 0
 3468 0018 FFF7FEBF 		b	lv_obj_invalidate
 3469              	.LVL420:
 3470              		.cfi_endproc
 3471              	.LFE34:
 3472              		.size	lv_calendar_set_highlighted_dates, .-lv_calendar_set_highlighted_dates
 3473              		.section	.text.lv_calendar_set_day_names,"ax",%progbits
 3474              		.align	2
 3475              		.global	lv_calendar_set_day_names
 3476              		.thumb
 3477              		.thumb_func
 3478              		.type	lv_calendar_set_day_names, %function
 3479              	lv_calendar_set_day_names:
 3480              	.LFB35:
 257:..\..\..\lvgl\version_6.1.2\lvgl\src\lv_objx/lv_calendar.c ****     LV_ASSERT_OBJ(calendar, LV_OBJX_NAME);
 3481              		.loc 1 257 0
 3482              		.cfi_startproc
 3483              		@ args = 0, pretend = 0, frame = 0
 3484              		@ frame_needed = 0, uses_anonymous_args = 0
 3485              	.LVL421:
 3486 0000 38B5     		push	{r3, r4, r5, lr}
 3487              		.cfi_def_cfa_offset 16
 3488              		.cfi_offset 3, -16
 3489              		.cfi_offset 4, -12
 3490              		.cfi_offset 5, -8
ARM GAS  C:\Users\pearlstl\AppData\Local\Temp\ccHPSyCj.s 			page 92


 3491              		.cfi_offset 14, -4
 257:..\..\..\lvgl\version_6.1.2\lvgl\src\lv_objx/lv_calendar.c ****     LV_ASSERT_OBJ(calendar, LV_OBJX_NAME);
 3492              		.loc 1 257 0
 3493 0002 0D46     		mov	r5, r1
 3494 0004 0446     		mov	r4, r0
 261:..\..\..\lvgl\version_6.1.2\lvgl\src\lv_objx/lv_calendar.c ****     ext->day_names          = day_names;
 3495              		.loc 1 261 0
 3496 0006 FFF7FEFF 		bl	lv_obj_get_ext_attr
 3497              	.LVL422:
 262:..\..\..\lvgl\version_6.1.2\lvgl\src\lv_objx/lv_calendar.c ****     lv_obj_invalidate(calendar);
 3498              		.loc 1 262 0
 3499 000a 4561     		str	r5, [r0, #20]
 263:..\..\..\lvgl\version_6.1.2\lvgl\src\lv_objx/lv_calendar.c **** }
 3500              		.loc 1 263 0
 3501 000c 2046     		mov	r0, r4
 3502              	.LVL423:
 264:..\..\..\lvgl\version_6.1.2\lvgl\src\lv_objx/lv_calendar.c **** 
 3503              		.loc 1 264 0
 3504 000e BDE83840 		pop	{r3, r4, r5, lr}
 3505              		.cfi_restore 14
 3506              		.cfi_restore 5
 3507              		.cfi_restore 4
 3508              		.cfi_restore 3
 3509              		.cfi_def_cfa_offset 0
 3510              	.LVL424:
 263:..\..\..\lvgl\version_6.1.2\lvgl\src\lv_objx/lv_calendar.c **** }
 3511              		.loc 1 263 0
 3512 0012 FFF7FEBF 		b	lv_obj_invalidate
 3513              	.LVL425:
 3514              		.cfi_endproc
 3515              	.LFE35:
 3516              		.size	lv_calendar_set_day_names, .-lv_calendar_set_day_names
 3517 0016 00BF     		.section	.text.lv_calendar_set_month_names,"ax",%progbits
 3518              		.align	2
 3519              		.global	lv_calendar_set_month_names
 3520              		.thumb
 3521              		.thumb_func
 3522              		.type	lv_calendar_set_month_names, %function
 3523              	lv_calendar_set_month_names:
 3524              	.LFB36:
 274:..\..\..\lvgl\version_6.1.2\lvgl\src\lv_objx/lv_calendar.c ****     LV_ASSERT_OBJ(calendar, LV_OBJX_NAME);
 3525              		.loc 1 274 0
 3526              		.cfi_startproc
 3527              		@ args = 0, pretend = 0, frame = 0
 3528              		@ frame_needed = 0, uses_anonymous_args = 0
 3529              	.LVL426:
 3530 0000 38B5     		push	{r3, r4, r5, lr}
 3531              		.cfi_def_cfa_offset 16
 3532              		.cfi_offset 3, -16
 3533              		.cfi_offset 4, -12
 3534              		.cfi_offset 5, -8
 3535              		.cfi_offset 14, -4
 274:..\..\..\lvgl\version_6.1.2\lvgl\src\lv_objx/lv_calendar.c ****     LV_ASSERT_OBJ(calendar, LV_OBJX_NAME);
 3536              		.loc 1 274 0
 3537 0002 0D46     		mov	r5, r1
 3538 0004 0446     		mov	r4, r0
 278:..\..\..\lvgl\version_6.1.2\lvgl\src\lv_objx/lv_calendar.c ****     ext->month_names        = month_names;
ARM GAS  C:\Users\pearlstl\AppData\Local\Temp\ccHPSyCj.s 			page 93


 3539              		.loc 1 278 0
 3540 0006 FFF7FEFF 		bl	lv_obj_get_ext_attr
 3541              	.LVL427:
 279:..\..\..\lvgl\version_6.1.2\lvgl\src\lv_objx/lv_calendar.c ****     lv_obj_invalidate(calendar);
 3542              		.loc 1 279 0
 3543 000a 8561     		str	r5, [r0, #24]
 280:..\..\..\lvgl\version_6.1.2\lvgl\src\lv_objx/lv_calendar.c **** }
 3544              		.loc 1 280 0
 3545 000c 2046     		mov	r0, r4
 3546              	.LVL428:
 281:..\..\..\lvgl\version_6.1.2\lvgl\src\lv_objx/lv_calendar.c **** 
 3547              		.loc 1 281 0
 3548 000e BDE83840 		pop	{r3, r4, r5, lr}
 3549              		.cfi_restore 14
 3550              		.cfi_restore 5
 3551              		.cfi_restore 4
 3552              		.cfi_restore 3
 3553              		.cfi_def_cfa_offset 0
 3554              	.LVL429:
 280:..\..\..\lvgl\version_6.1.2\lvgl\src\lv_objx/lv_calendar.c **** }
 3555              		.loc 1 280 0
 3556 0012 FFF7FEBF 		b	lv_obj_invalidate
 3557              	.LVL430:
 3558              		.cfi_endproc
 3559              	.LFE36:
 3560              		.size	lv_calendar_set_month_names, .-lv_calendar_set_month_names
 3561 0016 00BF     		.section	.text.lv_calendar_set_style,"ax",%progbits
 3562              		.align	2
 3563              		.global	lv_calendar_set_style
 3564              		.thumb
 3565              		.thumb_func
 3566              		.type	lv_calendar_set_style, %function
 3567              	lv_calendar_set_style:
 3568              	.LFB37:
 290:..\..\..\lvgl\version_6.1.2\lvgl\src\lv_objx/lv_calendar.c ****     LV_ASSERT_OBJ(calendar, LV_OBJX_NAME);
 3569              		.loc 1 290 0
 3570              		.cfi_startproc
 3571              		@ args = 0, pretend = 0, frame = 0
 3572              		@ frame_needed = 0, uses_anonymous_args = 0
 3573              	.LVL431:
 3574 0000 70B5     		push	{r4, r5, r6, lr}
 3575              		.cfi_def_cfa_offset 16
 3576              		.cfi_offset 4, -16
 3577              		.cfi_offset 5, -12
 3578              		.cfi_offset 6, -8
 3579              		.cfi_offset 14, -4
 290:..\..\..\lvgl\version_6.1.2\lvgl\src\lv_objx/lv_calendar.c ****     LV_ASSERT_OBJ(calendar, LV_OBJX_NAME);
 3580              		.loc 1 290 0
 3581 0002 0C46     		mov	r4, r1
 3582 0004 1646     		mov	r6, r2
 3583 0006 0546     		mov	r5, r0
 293:..\..\..\lvgl\version_6.1.2\lvgl\src\lv_objx/lv_calendar.c **** 
 3584              		.loc 1 293 0
 3585 0008 FFF7FEFF 		bl	lv_obj_get_ext_attr
 3586              	.LVL432:
 295:..\..\..\lvgl\version_6.1.2\lvgl\src\lv_objx/lv_calendar.c ****         case LV_CALENDAR_STYLE_BG: lv_obj_set_style(calendar, style); break;
 3587              		.loc 1 295 0
ARM GAS  C:\Users\pearlstl\AppData\Local\Temp\ccHPSyCj.s 			page 94


 3588 000c 072C     		cmp	r4, #7
 3589 000e 06D8     		bhi	.L254
 3590 0010 DFE804F0 		tbb	[pc, r4]
 3591              	.L256:
 3592 0014 10       		.byte	(.L255-.L256)/2
 3593 0015 19       		.byte	(.L257-.L256)/2
 3594 0016 1F       		.byte	(.L258-.L256)/2
 3595 0017 25       		.byte	(.L259-.L256)/2
 3596 0018 2B       		.byte	(.L260-.L256)/2
 3597 0019 31       		.byte	(.L261-.L256)/2
 3598 001a 04       		.byte	(.L262-.L256)/2
 3599 001b 0A       		.byte	(.L263-.L256)/2
 3600              		.p2align 1
 3601              	.L262:
 303:..\..\..\lvgl\version_6.1.2\lvgl\src\lv_objx/lv_calendar.c ****     }
 3602              		.loc 1 303 0
 3603 001c 0663     		str	r6, [r0, #48]
 3604              	.L254:
 306:..\..\..\lvgl\version_6.1.2\lvgl\src\lv_objx/lv_calendar.c **** }
 3605              		.loc 1 306 0
 3606 001e 2846     		mov	r0, r5
 3607              	.LVL433:
 307:..\..\..\lvgl\version_6.1.2\lvgl\src\lv_objx/lv_calendar.c **** 
 3608              		.loc 1 307 0
 3609 0020 BDE87040 		pop	{r4, r5, r6, lr}
 3610              		.cfi_remember_state
 3611              		.cfi_restore 14
 3612              		.cfi_restore 6
 3613              		.cfi_restore 5
 3614              		.cfi_restore 4
 3615              		.cfi_def_cfa_offset 0
 3616              	.LVL434:
 306:..\..\..\lvgl\version_6.1.2\lvgl\src\lv_objx/lv_calendar.c **** }
 3617              		.loc 1 306 0
 3618 0024 FFF7FEBF 		b	lv_obj_invalidate
 3619              	.LVL435:
 3620              	.L263:
 3621              		.cfi_restore_state
 302:..\..\..\lvgl\version_6.1.2\lvgl\src\lv_objx/lv_calendar.c ****         case LV_CALENDAR_STYLE_WEEK_BOX: ext->style_week_box = style; break;
 3622              		.loc 1 302 0
 3623 0028 4663     		str	r6, [r0, #52]
 306:..\..\..\lvgl\version_6.1.2\lvgl\src\lv_objx/lv_calendar.c **** }
 3624              		.loc 1 306 0
 3625 002a 2846     		mov	r0, r5
 3626              	.LVL436:
 307:..\..\..\lvgl\version_6.1.2\lvgl\src\lv_objx/lv_calendar.c **** 
 3627              		.loc 1 307 0
 3628 002c BDE87040 		pop	{r4, r5, r6, lr}
 3629              		.cfi_remember_state
 3630              		.cfi_restore 4
 3631              		.cfi_restore 5
 3632              		.cfi_restore 6
 3633              		.cfi_restore 14
 3634              		.cfi_def_cfa_offset 0
 3635              	.LVL437:
 306:..\..\..\lvgl\version_6.1.2\lvgl\src\lv_objx/lv_calendar.c **** }
 3636              		.loc 1 306 0
ARM GAS  C:\Users\pearlstl\AppData\Local\Temp\ccHPSyCj.s 			page 95


 3637 0030 FFF7FEBF 		b	lv_obj_invalidate
 3638              	.LVL438:
 3639              	.L255:
 3640              		.cfi_restore_state
 296:..\..\..\lvgl\version_6.1.2\lvgl\src\lv_objx/lv_calendar.c ****         case LV_CALENDAR_STYLE_DAY_NAMES: ext->style_day_names = style; break;
 3641              		.loc 1 296 0
 3642 0034 2846     		mov	r0, r5
 3643              	.LVL439:
 3644 0036 3146     		mov	r1, r6
 3645 0038 FFF7FEFF 		bl	lv_obj_set_style
 3646              	.LVL440:
 306:..\..\..\lvgl\version_6.1.2\lvgl\src\lv_objx/lv_calendar.c **** }
 3647              		.loc 1 306 0
 3648 003c 2846     		mov	r0, r5
 307:..\..\..\lvgl\version_6.1.2\lvgl\src\lv_objx/lv_calendar.c **** 
 3649              		.loc 1 307 0
 3650 003e BDE87040 		pop	{r4, r5, r6, lr}
 3651              		.cfi_remember_state
 3652              		.cfi_restore 4
 3653              		.cfi_restore 5
 3654              		.cfi_restore 6
 3655              		.cfi_restore 14
 3656              		.cfi_def_cfa_offset 0
 3657              	.LVL441:
 306:..\..\..\lvgl\version_6.1.2\lvgl\src\lv_objx/lv_calendar.c **** }
 3658              		.loc 1 306 0
 3659 0042 FFF7FEBF 		b	lv_obj_invalidate
 3660              	.LVL442:
 3661              	.L257:
 3662              		.cfi_restore_state
 298:..\..\..\lvgl\version_6.1.2\lvgl\src\lv_objx/lv_calendar.c ****         case LV_CALENDAR_STYLE_HEADER_PR: ext->style_header_pr = style; break;
 3663              		.loc 1 298 0
 3664 0046 C661     		str	r6, [r0, #28]
 306:..\..\..\lvgl\version_6.1.2\lvgl\src\lv_objx/lv_calendar.c **** }
 3665              		.loc 1 306 0
 3666 0048 2846     		mov	r0, r5
 3667              	.LVL443:
 307:..\..\..\lvgl\version_6.1.2\lvgl\src\lv_objx/lv_calendar.c **** 
 3668              		.loc 1 307 0
 3669 004a BDE87040 		pop	{r4, r5, r6, lr}
 3670              		.cfi_remember_state
 3671              		.cfi_restore 4
 3672              		.cfi_restore 5
 3673              		.cfi_restore 6
 3674              		.cfi_restore 14
 3675              		.cfi_def_cfa_offset 0
 3676              	.LVL444:
 306:..\..\..\lvgl\version_6.1.2\lvgl\src\lv_objx/lv_calendar.c **** }
 3677              		.loc 1 306 0
 3678 004e FFF7FEBF 		b	lv_obj_invalidate
 3679              	.LVL445:
 3680              	.L258:
 3681              		.cfi_restore_state
 299:..\..\..\lvgl\version_6.1.2\lvgl\src\lv_objx/lv_calendar.c ****         case LV_CALENDAR_STYLE_HIGHLIGHTED_DAYS: ext->style_highlighted_days = style; break;
 3682              		.loc 1 299 0
 3683 0052 0662     		str	r6, [r0, #32]
 306:..\..\..\lvgl\version_6.1.2\lvgl\src\lv_objx/lv_calendar.c **** }
ARM GAS  C:\Users\pearlstl\AppData\Local\Temp\ccHPSyCj.s 			page 96


 3684              		.loc 1 306 0
 3685 0054 2846     		mov	r0, r5
 3686              	.LVL446:
 307:..\..\..\lvgl\version_6.1.2\lvgl\src\lv_objx/lv_calendar.c **** 
 3687              		.loc 1 307 0
 3688 0056 BDE87040 		pop	{r4, r5, r6, lr}
 3689              		.cfi_remember_state
 3690              		.cfi_restore 4
 3691              		.cfi_restore 5
 3692              		.cfi_restore 6
 3693              		.cfi_restore 14
 3694              		.cfi_def_cfa_offset 0
 3695              	.LVL447:
 306:..\..\..\lvgl\version_6.1.2\lvgl\src\lv_objx/lv_calendar.c **** }
 3696              		.loc 1 306 0
 3697 005a FFF7FEBF 		b	lv_obj_invalidate
 3698              	.LVL448:
 3699              	.L259:
 3700              		.cfi_restore_state
 297:..\..\..\lvgl\version_6.1.2\lvgl\src\lv_objx/lv_calendar.c ****         case LV_CALENDAR_STYLE_HEADER: ext->style_header = style; break;
 3701              		.loc 1 297 0
 3702 005e 4662     		str	r6, [r0, #36]
 306:..\..\..\lvgl\version_6.1.2\lvgl\src\lv_objx/lv_calendar.c **** }
 3703              		.loc 1 306 0
 3704 0060 2846     		mov	r0, r5
 3705              	.LVL449:
 307:..\..\..\lvgl\version_6.1.2\lvgl\src\lv_objx/lv_calendar.c **** 
 3706              		.loc 1 307 0
 3707 0062 BDE87040 		pop	{r4, r5, r6, lr}
 3708              		.cfi_remember_state
 3709              		.cfi_restore 4
 3710              		.cfi_restore 5
 3711              		.cfi_restore 6
 3712              		.cfi_restore 14
 3713              		.cfi_def_cfa_offset 0
 3714              	.LVL450:
 306:..\..\..\lvgl\version_6.1.2\lvgl\src\lv_objx/lv_calendar.c **** }
 3715              		.loc 1 306 0
 3716 0066 FFF7FEBF 		b	lv_obj_invalidate
 3717              	.LVL451:
 3718              	.L260:
 3719              		.cfi_restore_state
 300:..\..\..\lvgl\version_6.1.2\lvgl\src\lv_objx/lv_calendar.c ****         case LV_CALENDAR_STYLE_INACTIVE_DAYS: ext->style_inactive_days = style; break;
 3720              		.loc 1 300 0
 3721 006a 8662     		str	r6, [r0, #40]
 306:..\..\..\lvgl\version_6.1.2\lvgl\src\lv_objx/lv_calendar.c **** }
 3722              		.loc 1 306 0
 3723 006c 2846     		mov	r0, r5
 3724              	.LVL452:
 307:..\..\..\lvgl\version_6.1.2\lvgl\src\lv_objx/lv_calendar.c **** 
 3725              		.loc 1 307 0
 3726 006e BDE87040 		pop	{r4, r5, r6, lr}
 3727              		.cfi_remember_state
 3728              		.cfi_restore 4
 3729              		.cfi_restore 5
 3730              		.cfi_restore 6
 3731              		.cfi_restore 14
ARM GAS  C:\Users\pearlstl\AppData\Local\Temp\ccHPSyCj.s 			page 97


 3732              		.cfi_def_cfa_offset 0
 3733              	.LVL453:
 306:..\..\..\lvgl\version_6.1.2\lvgl\src\lv_objx/lv_calendar.c **** }
 3734              		.loc 1 306 0
 3735 0072 FFF7FEBF 		b	lv_obj_invalidate
 3736              	.LVL454:
 3737              	.L261:
 3738              		.cfi_restore_state
 301:..\..\..\lvgl\version_6.1.2\lvgl\src\lv_objx/lv_calendar.c ****         case LV_CALENDAR_STYLE_TODAY_BOX: ext->style_today_box = style; break;
 3739              		.loc 1 301 0
 3740 0076 C662     		str	r6, [r0, #44]
 306:..\..\..\lvgl\version_6.1.2\lvgl\src\lv_objx/lv_calendar.c **** }
 3741              		.loc 1 306 0
 3742 0078 2846     		mov	r0, r5
 3743              	.LVL455:
 307:..\..\..\lvgl\version_6.1.2\lvgl\src\lv_objx/lv_calendar.c **** 
 3744              		.loc 1 307 0
 3745 007a BDE87040 		pop	{r4, r5, r6, lr}
 3746              		.cfi_restore 4
 3747              		.cfi_restore 5
 3748              		.cfi_restore 6
 3749              		.cfi_restore 14
 3750              		.cfi_def_cfa_offset 0
 3751              	.LVL456:
 306:..\..\..\lvgl\version_6.1.2\lvgl\src\lv_objx/lv_calendar.c **** }
 3752              		.loc 1 306 0
 3753 007e FFF7FEBF 		b	lv_obj_invalidate
 3754              	.LVL457:
 3755              		.cfi_endproc
 3756              	.LFE37:
 3757              		.size	lv_calendar_set_style, .-lv_calendar_set_style
 3758 0082 00BF     		.section	.text.lv_calendar_get_today_date,"ax",%progbits
 3759              		.align	2
 3760              		.global	lv_calendar_get_today_date
 3761              		.thumb
 3762              		.thumb_func
 3763              		.type	lv_calendar_get_today_date, %function
 3764              	lv_calendar_get_today_date:
 3765              	.LFB38:
 319:..\..\..\lvgl\version_6.1.2\lvgl\src\lv_objx/lv_calendar.c ****     LV_ASSERT_OBJ(calendar, LV_OBJX_NAME);
 3766              		.loc 1 319 0
 3767              		.cfi_startproc
 3768              		@ args = 0, pretend = 0, frame = 0
 3769              		@ frame_needed = 0, uses_anonymous_args = 0
 3770              	.LVL458:
 3771 0000 08B5     		push	{r3, lr}
 3772              		.cfi_def_cfa_offset 8
 3773              		.cfi_offset 3, -8
 3774              		.cfi_offset 14, -4
 322:..\..\..\lvgl\version_6.1.2\lvgl\src\lv_objx/lv_calendar.c ****     return &ext->today;
 3775              		.loc 1 322 0
 3776 0002 FFF7FEFF 		bl	lv_obj_get_ext_attr
 3777              	.LVL459:
 324:..\..\..\lvgl\version_6.1.2\lvgl\src\lv_objx/lv_calendar.c **** 
 3778              		.loc 1 324 0
 3779 0006 08BD     		pop	{r3, pc}
 3780              		.cfi_endproc
ARM GAS  C:\Users\pearlstl\AppData\Local\Temp\ccHPSyCj.s 			page 98


 3781              	.LFE38:
 3782              		.size	lv_calendar_get_today_date, .-lv_calendar_get_today_date
 3783              		.section	.text.lv_calendar_get_showed_date,"ax",%progbits
 3784              		.align	2
 3785              		.global	lv_calendar_get_showed_date
 3786              		.thumb
 3787              		.thumb_func
 3788              		.type	lv_calendar_get_showed_date, %function
 3789              	lv_calendar_get_showed_date:
 3790              	.LFB39:
 332:..\..\..\lvgl\version_6.1.2\lvgl\src\lv_objx/lv_calendar.c ****     LV_ASSERT_OBJ(calendar, LV_OBJX_NAME);
 3791              		.loc 1 332 0
 3792              		.cfi_startproc
 3793              		@ args = 0, pretend = 0, frame = 0
 3794              		@ frame_needed = 0, uses_anonymous_args = 0
 3795              	.LVL460:
 3796 0000 08B5     		push	{r3, lr}
 3797              		.cfi_def_cfa_offset 8
 3798              		.cfi_offset 3, -8
 3799              		.cfi_offset 14, -4
 335:..\..\..\lvgl\version_6.1.2\lvgl\src\lv_objx/lv_calendar.c ****     return &ext->showed_date;
 3800              		.loc 1 335 0
 3801 0002 FFF7FEFF 		bl	lv_obj_get_ext_attr
 3802              	.LVL461:
 337:..\..\..\lvgl\version_6.1.2\lvgl\src\lv_objx/lv_calendar.c **** 
 3803              		.loc 1 337 0
 3804 0006 0430     		adds	r0, r0, #4
 3805              	.LVL462:
 3806 0008 08BD     		pop	{r3, pc}
 3807              		.cfi_endproc
 3808              	.LFE39:
 3809              		.size	lv_calendar_get_showed_date, .-lv_calendar_get_showed_date
 3810 000a 00BF     		.section	.text.lv_calendar_get_pressed_date,"ax",%progbits
 3811              		.align	2
 3812              		.global	lv_calendar_get_pressed_date
 3813              		.thumb
 3814              		.thumb_func
 3815              		.type	lv_calendar_get_pressed_date, %function
 3816              	lv_calendar_get_pressed_date:
 3817              	.LFB40:
 346:..\..\..\lvgl\version_6.1.2\lvgl\src\lv_objx/lv_calendar.c ****     LV_ASSERT_OBJ(calendar, LV_OBJX_NAME);
 3818              		.loc 1 346 0
 3819              		.cfi_startproc
 3820              		@ args = 0, pretend = 0, frame = 0
 3821              		@ frame_needed = 0, uses_anonymous_args = 0
 3822              	.LVL463:
 3823 0000 08B5     		push	{r3, lr}
 3824              		.cfi_def_cfa_offset 8
 3825              		.cfi_offset 3, -8
 3826              		.cfi_offset 14, -4
 349:..\..\..\lvgl\version_6.1.2\lvgl\src\lv_objx/lv_calendar.c ****     return ext->pressed_date.year != 0 ? &ext->pressed_date : NULL;
 3827              		.loc 1 349 0
 3828 0002 FFF7FEFF 		bl	lv_obj_get_ext_attr
 3829              	.LVL464:
 350:..\..\..\lvgl\version_6.1.2\lvgl\src\lv_objx/lv_calendar.c **** }
 3830              		.loc 1 350 0
 3831 0006 038A     		ldrh	r3, [r0, #16]
ARM GAS  C:\Users\pearlstl\AppData\Local\Temp\ccHPSyCj.s 			page 99


 3832 0008 0BB1     		cbz	r3, .L271
 350:..\..\..\lvgl\version_6.1.2\lvgl\src\lv_objx/lv_calendar.c **** }
 3833              		.loc 1 350 0 is_stmt 0 discriminator 1
 3834 000a 1030     		adds	r0, r0, #16
 3835              	.LVL465:
 3836 000c 08BD     		pop	{r3, pc}
 3837              	.LVL466:
 3838              	.L271:
 350:..\..\..\lvgl\version_6.1.2\lvgl\src\lv_objx/lv_calendar.c **** }
 3839              		.loc 1 350 0
 3840 000e 1846     		mov	r0, r3
 3841              	.LVL467:
 351:..\..\..\lvgl\version_6.1.2\lvgl\src\lv_objx/lv_calendar.c **** 
 3842              		.loc 1 351 0 is_stmt 1
 3843 0010 08BD     		pop	{r3, pc}
 3844              		.cfi_endproc
 3845              	.LFE40:
 3846              		.size	lv_calendar_get_pressed_date, .-lv_calendar_get_pressed_date
 3847 0012 00BF     		.section	.text.lv_calendar_get_highlighted_dates,"ax",%progbits
 3848              		.align	2
 3849              		.global	lv_calendar_get_highlighted_dates
 3850              		.thumb
 3851              		.thumb_func
 3852              		.type	lv_calendar_get_highlighted_dates, %function
 3853              	lv_calendar_get_highlighted_dates:
 3854              	.LFB41:
 359:..\..\..\lvgl\version_6.1.2\lvgl\src\lv_objx/lv_calendar.c ****     LV_ASSERT_OBJ(calendar, LV_OBJX_NAME);
 3855              		.loc 1 359 0
 3856              		.cfi_startproc
 3857              		@ args = 0, pretend = 0, frame = 0
 3858              		@ frame_needed = 0, uses_anonymous_args = 0
 3859              	.LVL468:
 3860 0000 08B5     		push	{r3, lr}
 3861              		.cfi_def_cfa_offset 8
 3862              		.cfi_offset 3, -8
 3863              		.cfi_offset 14, -4
 362:..\..\..\lvgl\version_6.1.2\lvgl\src\lv_objx/lv_calendar.c ****     return ext->highlighted_dates;
 3864              		.loc 1 362 0
 3865 0002 FFF7FEFF 		bl	lv_obj_get_ext_attr
 3866              	.LVL469:
 364:..\..\..\lvgl\version_6.1.2\lvgl\src\lv_objx/lv_calendar.c **** 
 3867              		.loc 1 364 0
 3868 0006 8068     		ldr	r0, [r0, #8]
 3869              	.LVL470:
 3870 0008 08BD     		pop	{r3, pc}
 3871              		.cfi_endproc
 3872              	.LFE41:
 3873              		.size	lv_calendar_get_highlighted_dates, .-lv_calendar_get_highlighted_dates
 3874 000a 00BF     		.section	.text.lv_calendar_get_highlighted_dates_num,"ax",%progbits
 3875              		.align	2
 3876              		.global	lv_calendar_get_highlighted_dates_num
 3877              		.thumb
 3878              		.thumb_func
 3879              		.type	lv_calendar_get_highlighted_dates_num, %function
 3880              	lv_calendar_get_highlighted_dates_num:
 3881              	.LFB42:
 372:..\..\..\lvgl\version_6.1.2\lvgl\src\lv_objx/lv_calendar.c ****     LV_ASSERT_OBJ(calendar, LV_OBJX_NAME);
ARM GAS  C:\Users\pearlstl\AppData\Local\Temp\ccHPSyCj.s 			page 100


 3882              		.loc 1 372 0
 3883              		.cfi_startproc
 3884              		@ args = 0, pretend = 0, frame = 0
 3885              		@ frame_needed = 0, uses_anonymous_args = 0
 3886              	.LVL471:
 3887 0000 08B5     		push	{r3, lr}
 3888              		.cfi_def_cfa_offset 8
 3889              		.cfi_offset 3, -8
 3890              		.cfi_offset 14, -4
 375:..\..\..\lvgl\version_6.1.2\lvgl\src\lv_objx/lv_calendar.c ****     return ext->highlighted_dates_num;
 3891              		.loc 1 375 0
 3892 0002 FFF7FEFF 		bl	lv_obj_get_ext_attr
 3893              	.LVL472:
 377:..\..\..\lvgl\version_6.1.2\lvgl\src\lv_objx/lv_calendar.c **** 
 3894              		.loc 1 377 0
 3895 0006 C089     		ldrh	r0, [r0, #14]
 3896              	.LVL473:
 3897 0008 08BD     		pop	{r3, pc}
 3898              		.cfi_endproc
 3899              	.LFE42:
 3900              		.size	lv_calendar_get_highlighted_dates_num, .-lv_calendar_get_highlighted_dates_num
 3901 000a 00BF     		.section	.text.lv_calendar_get_day_names,"ax",%progbits
 3902              		.align	2
 3903              		.global	lv_calendar_get_day_names
 3904              		.thumb
 3905              		.thumb_func
 3906              		.type	lv_calendar_get_day_names, %function
 3907              	lv_calendar_get_day_names:
 3908              	.LFB43:
 385:..\..\..\lvgl\version_6.1.2\lvgl\src\lv_objx/lv_calendar.c ****     LV_ASSERT_OBJ(calendar, LV_OBJX_NAME);
 3909              		.loc 1 385 0
 3910              		.cfi_startproc
 3911              		@ args = 0, pretend = 0, frame = 0
 3912              		@ frame_needed = 0, uses_anonymous_args = 0
 3913              	.LVL474:
 3914 0000 08B5     		push	{r3, lr}
 3915              		.cfi_def_cfa_offset 8
 3916              		.cfi_offset 3, -8
 3917              		.cfi_offset 14, -4
 388:..\..\..\lvgl\version_6.1.2\lvgl\src\lv_objx/lv_calendar.c ****     return ext->day_names;
 3918              		.loc 1 388 0
 3919 0002 FFF7FEFF 		bl	lv_obj_get_ext_attr
 3920              	.LVL475:
 390:..\..\..\lvgl\version_6.1.2\lvgl\src\lv_objx/lv_calendar.c **** 
 3921              		.loc 1 390 0
 3922 0006 4069     		ldr	r0, [r0, #20]
 3923              	.LVL476:
 3924 0008 08BD     		pop	{r3, pc}
 3925              		.cfi_endproc
 3926              	.LFE43:
 3927              		.size	lv_calendar_get_day_names, .-lv_calendar_get_day_names
 3928 000a 00BF     		.section	.text.lv_calendar_get_month_names,"ax",%progbits
 3929              		.align	2
 3930              		.global	lv_calendar_get_month_names
 3931              		.thumb
 3932              		.thumb_func
 3933              		.type	lv_calendar_get_month_names, %function
ARM GAS  C:\Users\pearlstl\AppData\Local\Temp\ccHPSyCj.s 			page 101


 3934              	lv_calendar_get_month_names:
 3935              	.LFB44:
 398:..\..\..\lvgl\version_6.1.2\lvgl\src\lv_objx/lv_calendar.c ****     LV_ASSERT_OBJ(calendar, LV_OBJX_NAME);
 3936              		.loc 1 398 0
 3937              		.cfi_startproc
 3938              		@ args = 0, pretend = 0, frame = 0
 3939              		@ frame_needed = 0, uses_anonymous_args = 0
 3940              	.LVL477:
 3941 0000 08B5     		push	{r3, lr}
 3942              		.cfi_def_cfa_offset 8
 3943              		.cfi_offset 3, -8
 3944              		.cfi_offset 14, -4
 401:..\..\..\lvgl\version_6.1.2\lvgl\src\lv_objx/lv_calendar.c ****     return ext->month_names;
 3945              		.loc 1 401 0
 3946 0002 FFF7FEFF 		bl	lv_obj_get_ext_attr
 3947              	.LVL478:
 403:..\..\..\lvgl\version_6.1.2\lvgl\src\lv_objx/lv_calendar.c **** 
 3948              		.loc 1 403 0
 3949 0006 8069     		ldr	r0, [r0, #24]
 3950              	.LVL479:
 3951 0008 08BD     		pop	{r3, pc}
 3952              		.cfi_endproc
 3953              	.LFE44:
 3954              		.size	lv_calendar_get_month_names, .-lv_calendar_get_month_names
 3955 000a 00BF     		.section	.text.lv_calendar_get_style,"ax",%progbits
 3956              		.align	2
 3957              		.global	lv_calendar_get_style
 3958              		.thumb
 3959              		.thumb_func
 3960              		.type	lv_calendar_get_style, %function
 3961              	lv_calendar_get_style:
 3962              	.LFB45:
 412:..\..\..\lvgl\version_6.1.2\lvgl\src\lv_objx/lv_calendar.c ****     LV_ASSERT_OBJ(calendar, LV_OBJX_NAME);
 3963              		.loc 1 412 0
 3964              		.cfi_startproc
 3965              		@ args = 0, pretend = 0, frame = 0
 3966              		@ frame_needed = 0, uses_anonymous_args = 0
 3967              	.LVL480:
 3968 0000 38B5     		push	{r3, r4, r5, lr}
 3969              		.cfi_def_cfa_offset 16
 3970              		.cfi_offset 3, -16
 3971              		.cfi_offset 4, -12
 3972              		.cfi_offset 5, -8
 3973              		.cfi_offset 14, -4
 412:..\..\..\lvgl\version_6.1.2\lvgl\src\lv_objx/lv_calendar.c ****     LV_ASSERT_OBJ(calendar, LV_OBJX_NAME);
 3974              		.loc 1 412 0
 3975 0002 0C46     		mov	r4, r1
 3976 0004 0546     		mov	r5, r0
 416:..\..\..\lvgl\version_6.1.2\lvgl\src\lv_objx/lv_calendar.c **** 
 3977              		.loc 1 416 0
 3978 0006 FFF7FEFF 		bl	lv_obj_get_ext_attr
 3979              	.LVL481:
 418:..\..\..\lvgl\version_6.1.2\lvgl\src\lv_objx/lv_calendar.c ****         case LV_CALENDAR_STYLE_BG: style = lv_obj_get_style(calendar); break;
 3980              		.loc 1 418 0
 3981 000a 072C     		cmp	r4, #7
 3982 000c 18D8     		bhi	.L292
 3983 000e DFE804F0 		tbb	[pc, r4]
ARM GAS  C:\Users\pearlstl\AppData\Local\Temp\ccHPSyCj.s 			page 102


 3984              	.L284:
 3985 0012 06       		.byte	(.L283-.L284)/2
 3986 0013 0B       		.byte	(.L285-.L284)/2
 3987 0014 0D       		.byte	(.L286-.L284)/2
 3988 0015 0F       		.byte	(.L287-.L284)/2
 3989 0016 11       		.byte	(.L288-.L284)/2
 3990 0017 13       		.byte	(.L289-.L284)/2
 3991 0018 15       		.byte	(.L290-.L284)/2
 3992 0019 04       		.byte	(.L291-.L284)/2
 3993              		.p2align 1
 3994              	.L291:
 426:..\..\..\lvgl\version_6.1.2\lvgl\src\lv_objx/lv_calendar.c ****         default: style = NULL; break;
 3995              		.loc 1 426 0
 3996 001a 406B     		ldr	r0, [r0, #52]
 3997              	.LVL482:
 3998 001c 38BD     		pop	{r3, r4, r5, pc}
 3999              	.LVL483:
 4000              	.L283:
 419:..\..\..\lvgl\version_6.1.2\lvgl\src\lv_objx/lv_calendar.c ****         case LV_CALENDAR_STYLE_HEADER: style = ext->style_header; break;
 4001              		.loc 1 419 0
 4002 001e 2846     		mov	r0, r5
 4003              	.LVL484:
 431:..\..\..\lvgl\version_6.1.2\lvgl\src\lv_objx/lv_calendar.c **** 
 4004              		.loc 1 431 0
 4005 0020 BDE83840 		pop	{r3, r4, r5, lr}
 4006              		.cfi_remember_state
 4007              		.cfi_restore 14
 4008              		.cfi_restore 5
 4009              		.cfi_restore 4
 4010              		.cfi_restore 3
 4011              		.cfi_def_cfa_offset 0
 4012              	.LVL485:
 419:..\..\..\lvgl\version_6.1.2\lvgl\src\lv_objx/lv_calendar.c ****         case LV_CALENDAR_STYLE_HEADER: style = ext->style_header; break;
 4013              		.loc 1 419 0
 4014 0024 FFF7FEBF 		b	lv_obj_get_style
 4015              	.LVL486:
 4016              	.L285:
 4017              		.cfi_restore_state
 420:..\..\..\lvgl\version_6.1.2\lvgl\src\lv_objx/lv_calendar.c ****         case LV_CALENDAR_STYLE_HEADER_PR: style = ext->style_header_pr; break;
 4018              		.loc 1 420 0
 4019 0028 C069     		ldr	r0, [r0, #28]
 4020              	.LVL487:
 4021 002a 38BD     		pop	{r3, r4, r5, pc}
 4022              	.LVL488:
 4023              	.L286:
 421:..\..\..\lvgl\version_6.1.2\lvgl\src\lv_objx/lv_calendar.c ****         case LV_CALENDAR_STYLE_DAY_NAMES: style = ext->style_day_names; break;
 4024              		.loc 1 421 0
 4025 002c 006A     		ldr	r0, [r0, #32]
 4026              	.LVL489:
 4027 002e 38BD     		pop	{r3, r4, r5, pc}
 4028              	.LVL490:
 4029              	.L287:
 422:..\..\..\lvgl\version_6.1.2\lvgl\src\lv_objx/lv_calendar.c ****         case LV_CALENDAR_STYLE_HIGHLIGHTED_DAYS: style = ext->style_highlighted_days; break;
 4030              		.loc 1 422 0
 4031 0030 406A     		ldr	r0, [r0, #36]
 4032              	.LVL491:
 4033 0032 38BD     		pop	{r3, r4, r5, pc}
ARM GAS  C:\Users\pearlstl\AppData\Local\Temp\ccHPSyCj.s 			page 103


 4034              	.LVL492:
 4035              	.L288:
 423:..\..\..\lvgl\version_6.1.2\lvgl\src\lv_objx/lv_calendar.c ****         case LV_CALENDAR_STYLE_INACTIVE_DAYS: style = ext->style_inactive_days; break;
 4036              		.loc 1 423 0
 4037 0034 806A     		ldr	r0, [r0, #40]
 4038              	.LVL493:
 4039 0036 38BD     		pop	{r3, r4, r5, pc}
 4040              	.LVL494:
 4041              	.L289:
 424:..\..\..\lvgl\version_6.1.2\lvgl\src\lv_objx/lv_calendar.c ****         case LV_CALENDAR_STYLE_WEEK_BOX: style = ext->style_week_box; break;
 4042              		.loc 1 424 0
 4043 0038 C06A     		ldr	r0, [r0, #44]
 4044              	.LVL495:
 4045 003a 38BD     		pop	{r3, r4, r5, pc}
 4046              	.LVL496:
 4047              	.L290:
 425:..\..\..\lvgl\version_6.1.2\lvgl\src\lv_objx/lv_calendar.c ****         case LV_CALENDAR_STYLE_TODAY_BOX: style = ext->style_today_box; break;
 4048              		.loc 1 425 0
 4049 003c 006B     		ldr	r0, [r0, #48]
 4050              	.LVL497:
 4051 003e 38BD     		pop	{r3, r4, r5, pc}
 4052              	.LVL498:
 4053              	.L292:
 427:..\..\..\lvgl\version_6.1.2\lvgl\src\lv_objx/lv_calendar.c ****     }
 4054              		.loc 1 427 0
 4055 0040 0020     		movs	r0, #0
 4056              	.LVL499:
 431:..\..\..\lvgl\version_6.1.2\lvgl\src\lv_objx/lv_calendar.c **** 
 4057              		.loc 1 431 0
 4058 0042 38BD     		pop	{r3, r4, r5, pc}
 4059              		.cfi_endproc
 4060              	.LFE45:
 4061              		.size	lv_calendar_get_style, .-lv_calendar_get_style
 4062              		.section	.rodata
 4063              		.align	2
 4064              		.set	.LANCHOR1,. + 0
 4065              		.type	month_name, %object
 4066              		.size	month_name, 48
 4067              	month_name:
 4068 0000 14000000 		.word	.LC3
 4069 0004 1C000000 		.word	.LC4
 4070 0008 28000000 		.word	.LC5
 4071 000c 30000000 		.word	.LC6
 4072 0010 38000000 		.word	.LC7
 4073 0014 3C000000 		.word	.LC8
 4074 0018 44000000 		.word	.LC9
 4075 001c 4C000000 		.word	.LC10
 4076 0020 54000000 		.word	.LC11
 4077 0024 60000000 		.word	.LC12
 4078 0028 68000000 		.word	.LC13
 4079 002c 74000000 		.word	.LC14
 4080              		.type	day_name, %object
 4081              		.size	day_name, 28
 4082              	day_name:
 4083 0030 80000000 		.word	.LC15
 4084 0034 84000000 		.word	.LC16
 4085 0038 88000000 		.word	.LC17
ARM GAS  C:\Users\pearlstl\AppData\Local\Temp\ccHPSyCj.s 			page 104


 4086 003c 8C000000 		.word	.LC18
 4087 0040 90000000 		.word	.LC19
 4088 0044 94000000 		.word	.LC20
 4089 0048 98000000 		.word	.LC21
 4090              		.section	.rodata.str1.4,"aMS",%progbits,1
 4091              		.align	2
 4092              	.LC0:
 4093 0000 EF819300 		.ascii	"\357\201\223\000"
 4094              	.LC1:
 4095 0004 EF819400 		.ascii	"\357\201\224\000"
 4096              	.LC2:
 4097 0008 6C765F63 		.ascii	"lv_calendar\000"
 4097      616C656E 
 4097      64617200 
 4098              	.LC3:
 4099 0014 4A616E75 		.ascii	"January\000"
 4099      61727900 
 4100              	.LC4:
 4101 001c 46656272 		.ascii	"February\000"
 4101      75617279 
 4101      00
 4102 0025 000000   		.space	3
 4103              	.LC5:
 4104 0028 4D617263 		.ascii	"March\000"
 4104      6800
 4105 002e 0000     		.space	2
 4106              	.LC6:
 4107 0030 41707269 		.ascii	"April\000"
 4107      6C00
 4108 0036 0000     		.space	2
 4109              	.LC7:
 4110 0038 4D617900 		.ascii	"May\000"
 4111              	.LC8:
 4112 003c 4A756E65 		.ascii	"June\000"
 4112      00
 4113 0041 000000   		.space	3
 4114              	.LC9:
 4115 0044 4A756C79 		.ascii	"July\000"
 4115      00
 4116 0049 000000   		.space	3
 4117              	.LC10:
 4118 004c 41756775 		.ascii	"August\000"
 4118      737400
 4119 0053 00       		.space	1
 4120              	.LC11:
 4121 0054 53657074 		.ascii	"September\000"
 4121      656D6265 
 4121      7200
 4122 005e 0000     		.space	2
 4123              	.LC12:
 4124 0060 4F63746F 		.ascii	"October\000"
 4124      62657200 
 4125              	.LC13:
 4126 0068 4E6F7665 		.ascii	"November\000"
 4126      6D626572 
 4126      00
 4127 0071 000000   		.space	3
ARM GAS  C:\Users\pearlstl\AppData\Local\Temp\ccHPSyCj.s 			page 105


 4128              	.LC14:
 4129 0074 44656365 		.ascii	"December\000"
 4129      6D626572 
 4129      00
 4130 007d 000000   		.space	3
 4131              	.LC15:
 4132 0080 537500   		.ascii	"Su\000"
 4133 0083 00       		.space	1
 4134              	.LC16:
 4135 0084 4D6F00   		.ascii	"Mo\000"
 4136 0087 00       		.space	1
 4137              	.LC17:
 4138 0088 547500   		.ascii	"Tu\000"
 4139 008b 00       		.space	1
 4140              	.LC18:
 4141 008c 576500   		.ascii	"We\000"
 4142 008f 00       		.space	1
 4143              	.LC19:
 4144 0090 546800   		.ascii	"Th\000"
 4145 0093 00       		.space	1
 4146              	.LC20:
 4147 0094 467200   		.ascii	"Fr\000"
 4148 0097 00       		.space	1
 4149              	.LC21:
 4150 0098 536100   		.ascii	"Sa\000"
 4151              		.bss
 4152              		.align	2
 4153              		.set	.LANCHOR0,. + 0
 4154              		.type	ancestor_design, %object
 4155              		.size	ancestor_design, 4
 4156              	ancestor_design:
 4157 0000 00000000 		.space	4
 4158              		.type	ancestor_signal, %object
 4159              		.size	ancestor_signal, 4
 4160              	ancestor_signal:
 4161 0004 00000000 		.space	4
 4162              		.text
 4163              	.Letext0:
 4164              		.file 3 "c:\\program files (x86)\\cypress\\psoc creator\\4.2\\psoc creator\\import\\gnu\\arm\\5.4.
 4165              		.file 4 "c:\\program files (x86)\\cypress\\psoc creator\\4.2\\psoc creator\\import\\gnu\\arm\\5.4.
 4166              		.file 5 "..\\..\\..\\lvgl\\version_6.1.2\\lvgl\\src\\lv_objx\\../../../lv_conf.h"
 4167              		.file 6 "..\\..\\..\\lvgl\\version_6.1.2\\lvgl\\src\\lv_objx\\../lv_core/../lv_font/lv_font.h"
 4168              		.file 7 "..\\..\\..\\lvgl\\version_6.1.2\\lvgl\\src\\lv_objx\\../lv_core/../lv_misc/lv_color.h"
 4169              		.file 8 "..\\..\\..\\lvgl\\version_6.1.2\\lvgl\\src\\lv_objx\\../lv_core/lv_style.h"
 4170              		.file 9 "..\\..\\..\\lvgl\\version_6.1.2\\lvgl\\src\\lv_objx\\../lv_core/../lv_misc/lv_types.h"
 4171              		.file 10 "..\\..\\..\\lvgl\\version_6.1.2\\lvgl\\src\\lv_objx\\../lv_core/../lv_misc/lv_ll.h"
 4172              		.file 11 "..\\..\\..\\lvgl\\version_6.1.2\\lvgl\\src\\lv_objx\\../lv_core/../lv_misc/lv_bidi.h"
 4173              		.file 12 "..\\..\\..\\lvgl\\version_6.1.2\\lvgl\\src\\lv_objx\\../lv_core/../lv_hal/../lv_misc/lv_
 4174              		.file 13 "..\\..\\..\\lvgl\\version_6.1.2\\lvgl\\src\\lv_objx\\../lv_core/../lv_hal/lv_hal_disp.h"
 4175              		.file 14 "..\\..\\..\\lvgl\\version_6.1.2\\lvgl\\src\\lv_objx\\../lv_core/lv_obj.h"
 4176              		.file 15 "..\\..\\..\\lvgl\\version_6.1.2\\lvgl\\src\\lv_objx\\../lv_core/../lv_hal/lv_hal_indev.h
 4177              		.file 16 "..\\..\\..\\lvgl\\version_6.1.2\\lvgl\\src\\lv_objx\\lv_calendar.h"
 4178              		.file 17 "..\\..\\..\\lvgl\\version_6.1.2\\lvgl\\src\\lv_objx\\../lv_draw/../lv_misc/lv_txt.h"
 4179              		.file 18 "..\\..\\..\\lvgl\\version_6.1.2\\lvgl\\src\\lv_objx\\../lv_core/../lv_core/lv_group.h"
 4180              		.file 19 "..\\..\\..\\lvgl\\version_6.1.2\\lvgl\\src\\lv_objx\\../lv_themes/lv_theme.h"
 4181              		.file 20 "..\\..\\..\\lvgl\\version_6.1.2\\lvgl\\src\\lv_objx\\../lv_draw/lv_draw_rect.h"
 4182              		.file 21 "..\\..\\..\\lvgl\\version_6.1.2\\lvgl\\src\\lv_objx\\../lv_misc/lv_utils.h"
ARM GAS  C:\Users\pearlstl\AppData\Local\Temp\ccHPSyCj.s 			page 106


 4183              		.file 22 "c:\\program files (x86)\\cypress\\psoc creator\\4.2\\psoc creator\\import\\gnu\\arm\\5.4
 4184              		.file 23 "..\\..\\..\\lvgl\\version_6.1.2\\lvgl\\src\\lv_objx\\../lv_draw/lv_draw_label.h"
 4185              		.file 24 "..\\..\\..\\lvgl\\version_6.1.2\\lvgl\\src\\lv_objx\\../lv_core/lv_indev.h"
 4186              		.section	.debug_info,"",%progbits
 4187              	.Ldebug_info0:
 4188 0000 A83C0000 		.4byte	0x3ca8
 4189 0004 0400     		.2byte	0x4
 4190 0006 00000000 		.4byte	.Ldebug_abbrev0
 4191 000a 04       		.byte	0x4
 4192 000b 01       		.uleb128 0x1
 4193 000c 92020000 		.4byte	.LASF442
 4194 0010 0C       		.byte	0xc
 4195 0011 5C100000 		.4byte	.LASF443
 4196 0015 B8130000 		.4byte	.LASF444
 4197 0019 78050000 		.4byte	.Ldebug_ranges0+0x578
 4198 001d 00000000 		.4byte	0
 4199 0021 00000000 		.4byte	.Ldebug_line0
 4200 0025 02       		.uleb128 0x2
 4201 0026 08       		.byte	0x8
 4202 0027 07       		.byte	0x7
 4203 0028 29100000 		.4byte	.LASF0
 4204 002c 03       		.uleb128 0x3
 4205 002d 04       		.byte	0x4
 4206 002e 05       		.byte	0x5
 4207 002f 696E7400 		.ascii	"int\000"
 4208 0033 02       		.uleb128 0x2
 4209 0034 04       		.byte	0x4
 4210 0035 07       		.byte	0x7
 4211 0036 4C0C0000 		.4byte	.LASF1
 4212 003a 04       		.uleb128 0x4
 4213 003b 8F0F0000 		.4byte	.LASF3
 4214 003f 03       		.byte	0x3
 4215 0040 1B       		.byte	0x1b
 4216 0041 45000000 		.4byte	0x45
 4217 0045 02       		.uleb128 0x2
 4218 0046 01       		.byte	0x1
 4219 0047 06       		.byte	0x6
 4220 0048 CE040000 		.4byte	.LASF2
 4221 004c 04       		.uleb128 0x4
 4222 004d 73030000 		.4byte	.LASF4
 4223 0051 03       		.byte	0x3
 4224 0052 1D       		.byte	0x1d
 4225 0053 57000000 		.4byte	0x57
 4226 0057 02       		.uleb128 0x2
 4227 0058 01       		.byte	0x1
 4228 0059 08       		.byte	0x8
 4229 005a 79050000 		.4byte	.LASF5
 4230 005e 04       		.uleb128 0x4
 4231 005f B7110000 		.4byte	.LASF6
 4232 0063 03       		.byte	0x3
 4233 0064 29       		.byte	0x29
 4234 0065 69000000 		.4byte	0x69
 4235 0069 02       		.uleb128 0x2
 4236 006a 02       		.byte	0x2
 4237 006b 05       		.byte	0x5
 4238 006c 51130000 		.4byte	.LASF7
 4239 0070 04       		.uleb128 0x4
ARM GAS  C:\Users\pearlstl\AppData\Local\Temp\ccHPSyCj.s 			page 107


 4240 0071 AD060000 		.4byte	.LASF8
 4241 0075 03       		.byte	0x3
 4242 0076 2B       		.byte	0x2b
 4243 0077 7B000000 		.4byte	0x7b
 4244 007b 02       		.uleb128 0x2
 4245 007c 02       		.byte	0x2
 4246 007d 07       		.byte	0x7
 4247 007e EA150000 		.4byte	.LASF9
 4248 0082 04       		.uleb128 0x4
 4249 0083 8E160000 		.4byte	.LASF10
 4250 0087 03       		.byte	0x3
 4251 0088 3F       		.byte	0x3f
 4252 0089 8D000000 		.4byte	0x8d
 4253 008d 02       		.uleb128 0x2
 4254 008e 04       		.byte	0x4
 4255 008f 05       		.byte	0x5
 4256 0090 BF030000 		.4byte	.LASF11
 4257 0094 04       		.uleb128 0x4
 4258 0095 0F0B0000 		.4byte	.LASF12
 4259 0099 03       		.byte	0x3
 4260 009a 41       		.byte	0x41
 4261 009b 9F000000 		.4byte	0x9f
 4262 009f 02       		.uleb128 0x2
 4263 00a0 04       		.byte	0x4
 4264 00a1 07       		.byte	0x7
 4265 00a2 A1090000 		.4byte	.LASF13
 4266 00a6 02       		.uleb128 0x2
 4267 00a7 08       		.byte	0x8
 4268 00a8 05       		.byte	0x5
 4269 00a9 310B0000 		.4byte	.LASF14
 4270 00ad 04       		.uleb128 0x4
 4271 00ae 0D000000 		.4byte	.LASF15
 4272 00b2 04       		.byte	0x4
 4273 00b3 14       		.byte	0x14
 4274 00b4 3A000000 		.4byte	0x3a
 4275 00b8 04       		.uleb128 0x4
 4276 00b9 DA040000 		.4byte	.LASF16
 4277 00bd 04       		.byte	0x4
 4278 00be 18       		.byte	0x18
 4279 00bf 4C000000 		.4byte	0x4c
 4280 00c3 04       		.uleb128 0x4
 4281 00c4 B0130000 		.4byte	.LASF17
 4282 00c8 04       		.byte	0x4
 4283 00c9 20       		.byte	0x20
 4284 00ca 5E000000 		.4byte	0x5e
 4285 00ce 04       		.uleb128 0x4
 4286 00cf 97100000 		.4byte	.LASF18
 4287 00d3 04       		.byte	0x4
 4288 00d4 24       		.byte	0x24
 4289 00d5 70000000 		.4byte	0x70
 4290 00d9 04       		.uleb128 0x4
 4291 00da E5000000 		.4byte	.LASF19
 4292 00de 04       		.byte	0x4
 4293 00df 2C       		.byte	0x2c
 4294 00e0 82000000 		.4byte	0x82
 4295 00e4 04       		.uleb128 0x4
 4296 00e5 8C150000 		.4byte	.LASF20
ARM GAS  C:\Users\pearlstl\AppData\Local\Temp\ccHPSyCj.s 			page 108


 4297 00e9 04       		.byte	0x4
 4298 00ea 30       		.byte	0x30
 4299 00eb 94000000 		.4byte	0x94
 4300 00ef 04       		.uleb128 0x4
 4301 00f0 19160000 		.4byte	.LASF21
 4302 00f4 05       		.byte	0x5
 4303 00f5 3A       		.byte	0x3a
 4304 00f6 C3000000 		.4byte	0xc3
 4305 00fa 05       		.uleb128 0x5
 4306 00fb 04       		.byte	0x4
 4307 00fc 02       		.uleb128 0x2
 4308 00fd 08       		.byte	0x8
 4309 00fe 04       		.byte	0x4
 4310 00ff 580E0000 		.4byte	.LASF22
 4311 0103 06       		.uleb128 0x6
 4312 0104 08       		.byte	0x8
 4313 0105 06       		.byte	0x6
 4314 0106 2E       		.byte	0x2e
 4315 0107 54010000 		.4byte	0x154
 4316 010b 07       		.uleb128 0x7
 4317 010c 32000000 		.4byte	.LASF23
 4318 0110 06       		.byte	0x6
 4319 0111 30       		.byte	0x30
 4320 0112 CE000000 		.4byte	0xce
 4321 0116 00       		.byte	0
 4322 0117 07       		.uleb128 0x7
 4323 0118 4B130000 		.4byte	.LASF24
 4324 011c 06       		.byte	0x6
 4325 011d 31       		.byte	0x31
 4326 011e B8000000 		.4byte	0xb8
 4327 0122 02       		.byte	0x2
 4328 0123 07       		.uleb128 0x7
 4329 0124 18130000 		.4byte	.LASF25
 4330 0128 06       		.byte	0x6
 4331 0129 32       		.byte	0x32
 4332 012a B8000000 		.4byte	0xb8
 4333 012e 03       		.byte	0x3
 4334 012f 07       		.uleb128 0x7
 4335 0130 E9050000 		.4byte	.LASF26
 4336 0134 06       		.byte	0x6
 4337 0135 33       		.byte	0x33
 4338 0136 AD000000 		.4byte	0xad
 4339 013a 04       		.byte	0x4
 4340 013b 07       		.uleb128 0x7
 4341 013c EF050000 		.4byte	.LASF27
 4342 0140 06       		.byte	0x6
 4343 0141 34       		.byte	0x34
 4344 0142 AD000000 		.4byte	0xad
 4345 0146 05       		.byte	0x5
 4346 0147 08       		.uleb128 0x8
 4347 0148 62707000 		.ascii	"bpp\000"
 4348 014c 06       		.byte	0x6
 4349 014d 35       		.byte	0x35
 4350 014e B8000000 		.4byte	0xb8
 4351 0152 06       		.byte	0x6
 4352 0153 00       		.byte	0
 4353 0154 04       		.uleb128 0x4
ARM GAS  C:\Users\pearlstl\AppData\Local\Temp\ccHPSyCj.s 			page 109


 4354 0155 120D0000 		.4byte	.LASF28
 4355 0159 06       		.byte	0x6
 4356 015a 36       		.byte	0x36
 4357 015b 03010000 		.4byte	0x103
 4358 015f 09       		.uleb128 0x9
 4359 0160 39170000 		.4byte	.LASF85
 4360 0164 10       		.byte	0x10
 4361 0165 06       		.byte	0x6
 4362 0166 44       		.byte	0x44
 4363 0167 B7010000 		.4byte	0x1b7
 4364 016b 07       		.uleb128 0x7
 4365 016c 80160000 		.4byte	.LASF29
 4366 0170 06       		.byte	0x6
 4367 0171 47       		.byte	0x47
 4368 0172 ED010000 		.4byte	0x1ed
 4369 0176 00       		.byte	0
 4370 0177 07       		.uleb128 0x7
 4371 0178 13050000 		.4byte	.LASF30
 4372 017c 06       		.byte	0x6
 4373 017d 4A       		.byte	0x4a
 4374 017e 12020000 		.4byte	0x212
 4375 0182 04       		.byte	0x4
 4376 0183 07       		.uleb128 0x7
 4377 0184 4C010000 		.4byte	.LASF31
 4378 0188 06       		.byte	0x6
 4379 0189 4D       		.byte	0x4d
 4380 018a B8000000 		.4byte	0xb8
 4381 018e 08       		.byte	0x8
 4382 018f 07       		.uleb128 0x7
 4383 0190 5B130000 		.4byte	.LASF32
 4384 0194 06       		.byte	0x6
 4385 0195 4E       		.byte	0x4e
 4386 0196 AD000000 		.4byte	0xad
 4387 019a 09       		.byte	0x9
 4388 019b 0A       		.uleb128 0xa
 4389 019c BE0E0000 		.4byte	.LASF67
 4390 01a0 06       		.byte	0x6
 4391 01a1 4F       		.byte	0x4f
 4392 01a2 B8000000 		.4byte	0xb8
 4393 01a6 01       		.byte	0x1
 4394 01a7 02       		.byte	0x2
 4395 01a8 06       		.byte	0x6
 4396 01a9 0A       		.byte	0xa
 4397 01aa 08       		.uleb128 0x8
 4398 01ab 64736300 		.ascii	"dsc\000"
 4399 01af 06       		.byte	0x6
 4400 01b0 50       		.byte	0x50
 4401 01b1 FA000000 		.4byte	0xfa
 4402 01b5 0C       		.byte	0xc
 4403 01b6 00       		.byte	0
 4404 01b7 0B       		.uleb128 0xb
 4405 01b8 D5010000 		.4byte	0x1d5
 4406 01bc D5010000 		.4byte	0x1d5
 4407 01c0 0C       		.uleb128 0xc
 4408 01c1 DC010000 		.4byte	0x1dc
 4409 01c5 0C       		.uleb128 0xc
 4410 01c6 E7010000 		.4byte	0x1e7
ARM GAS  C:\Users\pearlstl\AppData\Local\Temp\ccHPSyCj.s 			page 110


 4411 01ca 0C       		.uleb128 0xc
 4412 01cb E4000000 		.4byte	0xe4
 4413 01cf 0C       		.uleb128 0xc
 4414 01d0 E4000000 		.4byte	0xe4
 4415 01d4 00       		.byte	0
 4416 01d5 02       		.uleb128 0x2
 4417 01d6 01       		.byte	0x1
 4418 01d7 02       		.byte	0x2
 4419 01d8 26060000 		.4byte	.LASF33
 4420 01dc 0D       		.uleb128 0xd
 4421 01dd 04       		.byte	0x4
 4422 01de E2010000 		.4byte	0x1e2
 4423 01e2 0E       		.uleb128 0xe
 4424 01e3 5F010000 		.4byte	0x15f
 4425 01e7 0D       		.uleb128 0xd
 4426 01e8 04       		.byte	0x4
 4427 01e9 54010000 		.4byte	0x154
 4428 01ed 0D       		.uleb128 0xd
 4429 01ee 04       		.byte	0x4
 4430 01ef B7010000 		.4byte	0x1b7
 4431 01f3 0B       		.uleb128 0xb
 4432 01f4 07020000 		.4byte	0x207
 4433 01f8 07020000 		.4byte	0x207
 4434 01fc 0C       		.uleb128 0xc
 4435 01fd DC010000 		.4byte	0x1dc
 4436 0201 0C       		.uleb128 0xc
 4437 0202 E4000000 		.4byte	0xe4
 4438 0206 00       		.byte	0
 4439 0207 0D       		.uleb128 0xd
 4440 0208 04       		.byte	0x4
 4441 0209 0D020000 		.4byte	0x20d
 4442 020d 0E       		.uleb128 0xe
 4443 020e B8000000 		.4byte	0xb8
 4444 0212 0D       		.uleb128 0xd
 4445 0213 04       		.byte	0x4
 4446 0214 F3010000 		.4byte	0x1f3
 4447 0218 04       		.uleb128 0x4
 4448 0219 C2150000 		.4byte	.LASF34
 4449 021d 06       		.byte	0x6
 4450 021e 56       		.byte	0x56
 4451 021f 5F010000 		.4byte	0x15f
 4452 0223 06       		.uleb128 0x6
 4453 0224 04       		.byte	0x4
 4454 0225 07       		.byte	0x7
 4455 0226 F3       		.byte	0xf3
 4456 0227 5C020000 		.4byte	0x25c
 4457 022b 07       		.uleb128 0x7
 4458 022c 29050000 		.4byte	.LASF35
 4459 0230 07       		.byte	0x7
 4460 0231 F5       		.byte	0xf5
 4461 0232 B8000000 		.4byte	0xb8
 4462 0236 00       		.byte	0
 4463 0237 07       		.uleb128 0x7
 4464 0238 BC150000 		.4byte	.LASF36
 4465 023c 07       		.byte	0x7
 4466 023d F6       		.byte	0xf6
 4467 023e B8000000 		.4byte	0xb8
ARM GAS  C:\Users\pearlstl\AppData\Local\Temp\ccHPSyCj.s 			page 111


 4468 0242 01       		.byte	0x1
 4469 0243 08       		.uleb128 0x8
 4470 0244 72656400 		.ascii	"red\000"
 4471 0248 07       		.byte	0x7
 4472 0249 F7       		.byte	0xf7
 4473 024a B8000000 		.4byte	0xb8
 4474 024e 02       		.byte	0x2
 4475 024f 07       		.uleb128 0x7
 4476 0250 7D030000 		.4byte	.LASF37
 4477 0254 07       		.byte	0x7
 4478 0255 F8       		.byte	0xf8
 4479 0256 B8000000 		.4byte	0xb8
 4480 025a 03       		.byte	0x3
 4481 025b 00       		.byte	0
 4482 025c 0F       		.uleb128 0xf
 4483 025d 04       		.byte	0x4
 4484 025e 07       		.byte	0x7
 4485 025f F1       		.byte	0xf1
 4486 0260 7A020000 		.4byte	0x27a
 4487 0264 10       		.uleb128 0x10
 4488 0265 636800   		.ascii	"ch\000"
 4489 0268 07       		.byte	0x7
 4490 0269 F9       		.byte	0xf9
 4491 026a 23020000 		.4byte	0x223
 4492 026e 11       		.uleb128 0x11
 4493 026f 41120000 		.4byte	.LASF38
 4494 0273 07       		.byte	0x7
 4495 0274 FA       		.byte	0xfa
 4496 0275 E4000000 		.4byte	0xe4
 4497 0279 00       		.byte	0
 4498 027a 04       		.uleb128 0x4
 4499 027b 58000000 		.4byte	.LASF39
 4500 027f 07       		.byte	0x7
 4501 0280 FB       		.byte	0xfb
 4502 0281 5C020000 		.4byte	0x25c
 4503 0285 12       		.uleb128 0x12
 4504 0286 CC100000 		.4byte	.LASF40
 4505 028a 07       		.byte	0x7
 4506 028b 0801     		.2byte	0x108
 4507 028d 7A020000 		.4byte	0x27a
 4508 0291 12       		.uleb128 0x12
 4509 0292 DC000000 		.4byte	.LASF41
 4510 0296 07       		.byte	0x7
 4511 0297 0D01     		.2byte	0x10d
 4512 0299 B8000000 		.4byte	0xb8
 4513 029d 02       		.uleb128 0x2
 4514 029e 04       		.byte	0x4
 4515 029f 07       		.byte	0x7
 4516 02a0 42000000 		.4byte	.LASF42
 4517 02a4 02       		.uleb128 0x2
 4518 02a5 01       		.byte	0x1
 4519 02a6 08       		.byte	0x8
 4520 02a7 51060000 		.4byte	.LASF43
 4521 02ab 0D       		.uleb128 0xd
 4522 02ac 04       		.byte	0x4
 4523 02ad B1020000 		.4byte	0x2b1
 4524 02b1 0E       		.uleb128 0xe
ARM GAS  C:\Users\pearlstl\AppData\Local\Temp\ccHPSyCj.s 			page 112


 4525 02b2 A4020000 		.4byte	0x2a4
 4526 02b6 06       		.uleb128 0x6
 4527 02b7 04       		.byte	0x4
 4528 02b8 02       		.byte	0x2
 4529 02b9 2A       		.byte	0x2a
 4530 02ba D3020000 		.4byte	0x2d3
 4531 02be 08       		.uleb128 0x8
 4532 02bf 7800     		.ascii	"x\000"
 4533 02c1 02       		.byte	0x2
 4534 02c2 2C       		.byte	0x2c
 4535 02c3 EF000000 		.4byte	0xef
 4536 02c7 00       		.byte	0
 4537 02c8 08       		.uleb128 0x8
 4538 02c9 7900     		.ascii	"y\000"
 4539 02cb 02       		.byte	0x2
 4540 02cc 2D       		.byte	0x2d
 4541 02cd EF000000 		.4byte	0xef
 4542 02d1 02       		.byte	0x2
 4543 02d2 00       		.byte	0
 4544 02d3 04       		.uleb128 0x4
 4545 02d4 11010000 		.4byte	.LASF44
 4546 02d8 02       		.byte	0x2
 4547 02d9 2E       		.byte	0x2e
 4548 02da B6020000 		.4byte	0x2b6
 4549 02de 06       		.uleb128 0x6
 4550 02df 08       		.byte	0x8
 4551 02e0 02       		.byte	0x2
 4552 02e1 31       		.byte	0x31
 4553 02e2 13030000 		.4byte	0x313
 4554 02e6 08       		.uleb128 0x8
 4555 02e7 783100   		.ascii	"x1\000"
 4556 02ea 02       		.byte	0x2
 4557 02eb 33       		.byte	0x33
 4558 02ec EF000000 		.4byte	0xef
 4559 02f0 00       		.byte	0
 4560 02f1 08       		.uleb128 0x8
 4561 02f2 793100   		.ascii	"y1\000"
 4562 02f5 02       		.byte	0x2
 4563 02f6 34       		.byte	0x34
 4564 02f7 EF000000 		.4byte	0xef
 4565 02fb 02       		.byte	0x2
 4566 02fc 08       		.uleb128 0x8
 4567 02fd 783200   		.ascii	"x2\000"
 4568 0300 02       		.byte	0x2
 4569 0301 35       		.byte	0x35
 4570 0302 EF000000 		.4byte	0xef
 4571 0306 04       		.byte	0x4
 4572 0307 08       		.uleb128 0x8
 4573 0308 793200   		.ascii	"y2\000"
 4574 030b 02       		.byte	0x2
 4575 030c 36       		.byte	0x36
 4576 030d EF000000 		.4byte	0xef
 4577 0311 06       		.byte	0x6
 4578 0312 00       		.byte	0
 4579 0313 04       		.uleb128 0x4
 4580 0314 36080000 		.4byte	.LASF45
 4581 0318 02       		.byte	0x2
ARM GAS  C:\Users\pearlstl\AppData\Local\Temp\ccHPSyCj.s 			page 113


 4582 0319 37       		.byte	0x37
 4583 031a DE020000 		.4byte	0x2de
 4584 031e 04       		.uleb128 0x4
 4585 031f 98160000 		.4byte	.LASF46
 4586 0323 08       		.byte	0x8
 4587 0324 2C       		.byte	0x2c
 4588 0325 B8000000 		.4byte	0xb8
 4589 0329 04       		.uleb128 0x4
 4590 032a A4120000 		.4byte	.LASF47
 4591 032e 08       		.byte	0x8
 4592 032f 33       		.byte	0x33
 4593 0330 B8000000 		.4byte	0xb8
 4594 0334 06       		.uleb128 0x6
 4595 0335 08       		.byte	0x8
 4596 0336 08       		.byte	0x8
 4597 0337 48       		.byte	0x48
 4598 0338 6D030000 		.4byte	0x36d
 4599 033c 07       		.uleb128 0x7
 4600 033d 46120000 		.4byte	.LASF48
 4601 0341 08       		.byte	0x8
 4602 0342 4A       		.byte	0x4a
 4603 0343 85020000 		.4byte	0x285
 4604 0347 00       		.byte	0
 4605 0348 07       		.uleb128 0x7
 4606 0349 710B0000 		.4byte	.LASF49
 4607 034d 08       		.byte	0x8
 4608 034e 4B       		.byte	0x4b
 4609 034f EF000000 		.4byte	0xef
 4610 0353 04       		.byte	0x4
 4611 0354 07       		.uleb128 0x7
 4612 0355 4F170000 		.4byte	.LASF50
 4613 0359 08       		.byte	0x8
 4614 035a 4C       		.byte	0x4c
 4615 035b 1E030000 		.4byte	0x31e
 4616 035f 06       		.byte	0x6
 4617 0360 08       		.uleb128 0x8
 4618 0361 6F706100 		.ascii	"opa\000"
 4619 0365 08       		.byte	0x8
 4620 0366 4D       		.byte	0x4d
 4621 0367 91020000 		.4byte	0x291
 4622 036b 07       		.byte	0x7
 4623 036c 00       		.byte	0
 4624 036d 06       		.uleb128 0x6
 4625 036e 08       		.byte	0x8
 4626 036f 08       		.byte	0x8
 4627 0370 51       		.byte	0x51
 4628 0371 9A030000 		.4byte	0x39a
 4629 0375 07       		.uleb128 0x7
 4630 0376 46120000 		.4byte	.LASF48
 4631 037a 08       		.byte	0x8
 4632 037b 53       		.byte	0x53
 4633 037c 85020000 		.4byte	0x285
 4634 0380 00       		.byte	0
 4635 0381 07       		.uleb128 0x7
 4636 0382 710B0000 		.4byte	.LASF49
 4637 0386 08       		.byte	0x8
 4638 0387 54       		.byte	0x54
ARM GAS  C:\Users\pearlstl\AppData\Local\Temp\ccHPSyCj.s 			page 114


 4639 0388 EF000000 		.4byte	0xef
 4640 038c 04       		.byte	0x4
 4641 038d 07       		.uleb128 0x7
 4642 038e 36020000 		.4byte	.LASF51
 4643 0392 08       		.byte	0x8
 4644 0393 55       		.byte	0x55
 4645 0394 29030000 		.4byte	0x329
 4646 0398 06       		.byte	0x6
 4647 0399 00       		.byte	0
 4648 039a 06       		.uleb128 0x6
 4649 039b 0A       		.byte	0xa
 4650 039c 08       		.byte	0x8
 4651 039d 58       		.byte	0x58
 4652 039e DF030000 		.4byte	0x3df
 4653 03a2 08       		.uleb128 0x8
 4654 03a3 746F7000 		.ascii	"top\000"
 4655 03a7 08       		.byte	0x8
 4656 03a8 5A       		.byte	0x5a
 4657 03a9 EF000000 		.4byte	0xef
 4658 03ad 00       		.byte	0
 4659 03ae 07       		.uleb128 0x7
 4660 03af 890B0000 		.4byte	.LASF52
 4661 03b3 08       		.byte	0x8
 4662 03b4 5B       		.byte	0x5b
 4663 03b5 EF000000 		.4byte	0xef
 4664 03b9 02       		.byte	0x2
 4665 03ba 07       		.uleb128 0x7
 4666 03bb 8A080000 		.4byte	.LASF53
 4667 03bf 08       		.byte	0x8
 4668 03c0 5C       		.byte	0x5c
 4669 03c1 EF000000 		.4byte	0xef
 4670 03c5 04       		.byte	0x4
 4671 03c6 07       		.uleb128 0x7
 4672 03c7 230B0000 		.4byte	.LASF54
 4673 03cb 08       		.byte	0x8
 4674 03cc 5D       		.byte	0x5d
 4675 03cd EF000000 		.4byte	0xef
 4676 03d1 06       		.byte	0x6
 4677 03d2 07       		.uleb128 0x7
 4678 03d3 72090000 		.4byte	.LASF55
 4679 03d7 08       		.byte	0x8
 4680 03d8 5E       		.byte	0x5e
 4681 03d9 EF000000 		.4byte	0xef
 4682 03dd 08       		.byte	0x8
 4683 03de 00       		.byte	0
 4684 03df 06       		.uleb128 0x6
 4685 03e0 28       		.byte	0x28
 4686 03e1 08       		.byte	0x8
 4687 03e2 41       		.byte	0x41
 4688 03e3 3C040000 		.4byte	0x43c
 4689 03e7 07       		.uleb128 0x7
 4690 03e8 840F0000 		.4byte	.LASF56
 4691 03ec 08       		.byte	0x8
 4692 03ed 43       		.byte	0x43
 4693 03ee 85020000 		.4byte	0x285
 4694 03f2 00       		.byte	0
 4695 03f3 07       		.uleb128 0x7
ARM GAS  C:\Users\pearlstl\AppData\Local\Temp\ccHPSyCj.s 			page 115


 4696 03f4 3D0D0000 		.4byte	.LASF57
 4697 03f8 08       		.byte	0x8
 4698 03f9 44       		.byte	0x44
 4699 03fa 85020000 		.4byte	0x285
 4700 03fe 04       		.byte	0x4
 4701 03ff 07       		.uleb128 0x7
 4702 0400 38010000 		.4byte	.LASF58
 4703 0404 08       		.byte	0x8
 4704 0405 45       		.byte	0x45
 4705 0406 EF000000 		.4byte	0xef
 4706 040a 08       		.byte	0x8
 4707 040b 08       		.uleb128 0x8
 4708 040c 6F706100 		.ascii	"opa\000"
 4709 0410 08       		.byte	0x8
 4710 0411 46       		.byte	0x46
 4711 0412 91020000 		.4byte	0x291
 4712 0416 0A       		.byte	0xa
 4713 0417 07       		.uleb128 0x7
 4714 0418 73160000 		.4byte	.LASF59
 4715 041c 08       		.byte	0x8
 4716 041d 4E       		.byte	0x4e
 4717 041e 34030000 		.4byte	0x334
 4718 0422 0C       		.byte	0xc
 4719 0423 07       		.uleb128 0x7
 4720 0424 AD140000 		.4byte	.LASF60
 4721 0428 08       		.byte	0x8
 4722 0429 56       		.byte	0x56
 4723 042a 6D030000 		.4byte	0x36d
 4724 042e 14       		.byte	0x14
 4725 042f 07       		.uleb128 0x7
 4726 0430 66150000 		.4byte	.LASF61
 4727 0434 08       		.byte	0x8
 4728 0435 5F       		.byte	0x5f
 4729 0436 9A030000 		.4byte	0x39a
 4730 043a 1C       		.byte	0x1c
 4731 043b 00       		.byte	0
 4732 043c 06       		.uleb128 0x6
 4733 043d 14       		.byte	0x14
 4734 043e 08       		.byte	0x8
 4735 043f 63       		.byte	0x63
 4736 0440 8D040000 		.4byte	0x48d
 4737 0444 07       		.uleb128 0x7
 4738 0445 46120000 		.4byte	.LASF48
 4739 0449 08       		.byte	0x8
 4740 044a 65       		.byte	0x65
 4741 044b 85020000 		.4byte	0x285
 4742 044f 00       		.byte	0
 4743 0450 07       		.uleb128 0x7
 4744 0451 09170000 		.4byte	.LASF62
 4745 0455 08       		.byte	0x8
 4746 0456 66       		.byte	0x66
 4747 0457 85020000 		.4byte	0x285
 4748 045b 04       		.byte	0x4
 4749 045c 07       		.uleb128 0x7
 4750 045d D4120000 		.4byte	.LASF63
 4751 0461 08       		.byte	0x8
 4752 0462 67       		.byte	0x67
ARM GAS  C:\Users\pearlstl\AppData\Local\Temp\ccHPSyCj.s 			page 116


 4753 0463 8D040000 		.4byte	0x48d
 4754 0467 08       		.byte	0x8
 4755 0468 07       		.uleb128 0x7
 4756 0469 D9120000 		.4byte	.LASF64
 4757 046d 08       		.byte	0x8
 4758 046e 68       		.byte	0x68
 4759 046f EF000000 		.4byte	0xef
 4760 0473 0C       		.byte	0xc
 4761 0474 07       		.uleb128 0x7
 4762 0475 67120000 		.4byte	.LASF65
 4763 0479 08       		.byte	0x8
 4764 047a 69       		.byte	0x69
 4765 047b EF000000 		.4byte	0xef
 4766 047f 0E       		.byte	0xe
 4767 0480 08       		.uleb128 0x8
 4768 0481 6F706100 		.ascii	"opa\000"
 4769 0485 08       		.byte	0x8
 4770 0486 6A       		.byte	0x6a
 4771 0487 91020000 		.4byte	0x291
 4772 048b 10       		.byte	0x10
 4773 048c 00       		.byte	0
 4774 048d 0D       		.uleb128 0xd
 4775 048e 04       		.byte	0x4
 4776 048f 93040000 		.4byte	0x493
 4777 0493 0E       		.uleb128 0xe
 4778 0494 18020000 		.4byte	0x218
 4779 0498 06       		.uleb128 0x6
 4780 0499 08       		.byte	0x8
 4781 049a 08       		.byte	0x8
 4782 049b 6E       		.byte	0x6e
 4783 049c C5040000 		.4byte	0x4c5
 4784 04a0 07       		.uleb128 0x7
 4785 04a1 46120000 		.4byte	.LASF48
 4786 04a5 08       		.byte	0x8
 4787 04a6 70       		.byte	0x70
 4788 04a7 85020000 		.4byte	0x285
 4789 04ab 00       		.byte	0
 4790 04ac 07       		.uleb128 0x7
 4791 04ad ED000000 		.4byte	.LASF66
 4792 04b1 08       		.byte	0x8
 4793 04b2 71       		.byte	0x71
 4794 04b3 91020000 		.4byte	0x291
 4795 04b7 04       		.byte	0x4
 4796 04b8 08       		.uleb128 0x8
 4797 04b9 6F706100 		.ascii	"opa\000"
 4798 04bd 08       		.byte	0x8
 4799 04be 72       		.byte	0x72
 4800 04bf 91020000 		.4byte	0x291
 4801 04c3 05       		.byte	0x5
 4802 04c4 00       		.byte	0
 4803 04c5 06       		.uleb128 0x6
 4804 04c6 08       		.byte	0x8
 4805 04c7 08       		.byte	0x8
 4806 04c8 76       		.byte	0x76
 4807 04c9 01050000 		.4byte	0x501
 4808 04cd 07       		.uleb128 0x7
 4809 04ce 46120000 		.4byte	.LASF48
ARM GAS  C:\Users\pearlstl\AppData\Local\Temp\ccHPSyCj.s 			page 117


 4810 04d2 08       		.byte	0x8
 4811 04d3 78       		.byte	0x78
 4812 04d4 85020000 		.4byte	0x285
 4813 04d8 00       		.byte	0
 4814 04d9 07       		.uleb128 0x7
 4815 04da 710B0000 		.4byte	.LASF49
 4816 04de 08       		.byte	0x8
 4817 04df 79       		.byte	0x79
 4818 04e0 EF000000 		.4byte	0xef
 4819 04e4 04       		.byte	0x4
 4820 04e5 08       		.uleb128 0x8
 4821 04e6 6F706100 		.ascii	"opa\000"
 4822 04ea 08       		.byte	0x8
 4823 04eb 7A       		.byte	0x7a
 4824 04ec 91020000 		.4byte	0x291
 4825 04f0 06       		.byte	0x6
 4826 04f1 0A       		.uleb128 0xa
 4827 04f2 D2070000 		.4byte	.LASF68
 4828 04f6 08       		.byte	0x8
 4829 04f7 7B       		.byte	0x7b
 4830 04f8 B8000000 		.4byte	0xb8
 4831 04fc 01       		.byte	0x1
 4832 04fd 01       		.byte	0x1
 4833 04fe 07       		.byte	0x7
 4834 04ff 07       		.byte	0x7
 4835 0500 00       		.byte	0
 4836 0501 06       		.uleb128 0x6
 4837 0502 50       		.byte	0x50
 4838 0503 08       		.byte	0x8
 4839 0504 3C       		.byte	0x3c
 4840 0505 49050000 		.4byte	0x549
 4841 0509 0A       		.uleb128 0xa
 4842 050a 120C0000 		.4byte	.LASF69
 4843 050e 08       		.byte	0x8
 4844 050f 3E       		.byte	0x3e
 4845 0510 B8000000 		.4byte	0xb8
 4846 0514 01       		.byte	0x1
 4847 0515 01       		.byte	0x1
 4848 0516 07       		.byte	0x7
 4849 0517 00       		.byte	0
 4850 0518 07       		.uleb128 0x7
 4851 0519 7E060000 		.4byte	.LASF70
 4852 051d 08       		.byte	0x8
 4853 051e 60       		.byte	0x60
 4854 051f DF030000 		.4byte	0x3df
 4855 0523 04       		.byte	0x4
 4856 0524 07       		.uleb128 0x7
 4857 0525 76070000 		.4byte	.LASF71
 4858 0529 08       		.byte	0x8
 4859 052a 6B       		.byte	0x6b
 4860 052b 3C040000 		.4byte	0x43c
 4861 052f 2C       		.byte	0x2c
 4862 0530 07       		.uleb128 0x7
 4863 0531 C1070000 		.4byte	.LASF72
 4864 0535 08       		.byte	0x8
 4865 0536 73       		.byte	0x73
 4866 0537 98040000 		.4byte	0x498
ARM GAS  C:\Users\pearlstl\AppData\Local\Temp\ccHPSyCj.s 			page 118


 4867 053b 40       		.byte	0x40
 4868 053c 07       		.uleb128 0x7
 4869 053d F2090000 		.4byte	.LASF73
 4870 0541 08       		.byte	0x8
 4871 0542 7C       		.byte	0x7c
 4872 0543 C5040000 		.4byte	0x4c5
 4873 0547 48       		.byte	0x48
 4874 0548 00       		.byte	0
 4875 0549 04       		.uleb128 0x4
 4876 054a 67090000 		.4byte	.LASF74
 4877 054e 08       		.byte	0x8
 4878 054f 84       		.byte	0x84
 4879 0550 01050000 		.4byte	0x501
 4880 0554 0D       		.uleb128 0xd
 4881 0555 04       		.byte	0x4
 4882 0556 49050000 		.4byte	0x549
 4883 055a 13       		.uleb128 0x13
 4884 055b 01       		.byte	0x1
 4885 055c 57000000 		.4byte	0x57
 4886 0560 09       		.byte	0x9
 4887 0561 27       		.byte	0x27
 4888 0562 73050000 		.4byte	0x573
 4889 0566 14       		.uleb128 0x14
 4890 0567 08020000 		.4byte	.LASF75
 4891 056b 00       		.byte	0
 4892 056c 14       		.uleb128 0x14
 4893 056d A0100000 		.4byte	.LASF76
 4894 0571 01       		.byte	0x1
 4895 0572 00       		.byte	0
 4896 0573 04       		.uleb128 0x4
 4897 0574 470E0000 		.4byte	.LASF77
 4898 0578 09       		.byte	0x9
 4899 0579 2C       		.byte	0x2c
 4900 057a B8000000 		.4byte	0xb8
 4901 057e 04       		.uleb128 0x4
 4902 057f 25000000 		.4byte	.LASF78
 4903 0583 0A       		.byte	0xa
 4904 0584 1E       		.byte	0x1e
 4905 0585 B8000000 		.4byte	0xb8
 4906 0589 06       		.uleb128 0x6
 4907 058a 0C       		.byte	0xc
 4908 058b 0A       		.byte	0xa
 4909 058c 21       		.byte	0x21
 4910 058d B6050000 		.4byte	0x5b6
 4911 0591 07       		.uleb128 0x7
 4912 0592 54170000 		.4byte	.LASF79
 4913 0596 0A       		.byte	0xa
 4914 0597 23       		.byte	0x23
 4915 0598 E4000000 		.4byte	0xe4
 4916 059c 00       		.byte	0
 4917 059d 07       		.uleb128 0x7
 4918 059e 46040000 		.4byte	.LASF80
 4919 05a2 0A       		.byte	0xa
 4920 05a3 24       		.byte	0x24
 4921 05a4 B6050000 		.4byte	0x5b6
 4922 05a8 04       		.byte	0x4
 4923 05a9 07       		.uleb128 0x7
ARM GAS  C:\Users\pearlstl\AppData\Local\Temp\ccHPSyCj.s 			page 119


 4924 05aa 95000000 		.4byte	.LASF81
 4925 05ae 0A       		.byte	0xa
 4926 05af 25       		.byte	0x25
 4927 05b0 B6050000 		.4byte	0x5b6
 4928 05b4 08       		.byte	0x8
 4929 05b5 00       		.byte	0
 4930 05b6 0D       		.uleb128 0xd
 4931 05b7 04       		.byte	0x4
 4932 05b8 7E050000 		.4byte	0x57e
 4933 05bc 04       		.uleb128 0x4
 4934 05bd 6B130000 		.4byte	.LASF82
 4935 05c1 0A       		.byte	0xa
 4936 05c2 26       		.byte	0x26
 4937 05c3 89050000 		.4byte	0x589
 4938 05c7 04       		.uleb128 0x4
 4939 05c8 07080000 		.4byte	.LASF83
 4940 05cc 0B       		.byte	0xb
 4941 05cd 30       		.byte	0x30
 4942 05ce B8000000 		.4byte	0xb8
 4943 05d2 04       		.uleb128 0x4
 4944 05d3 13170000 		.4byte	.LASF84
 4945 05d7 0C       		.byte	0xc
 4946 05d8 2B       		.byte	0x2b
 4947 05d9 DD050000 		.4byte	0x5dd
 4948 05dd 0D       		.uleb128 0xd
 4949 05de 04       		.byte	0x4
 4950 05df E3050000 		.4byte	0x5e3
 4951 05e3 15       		.uleb128 0x15
 4952 05e4 EE050000 		.4byte	0x5ee
 4953 05e8 0C       		.uleb128 0xc
 4954 05e9 EE050000 		.4byte	0x5ee
 4955 05ed 00       		.byte	0
 4956 05ee 0D       		.uleb128 0xd
 4957 05ef 04       		.byte	0x4
 4958 05f0 F4050000 		.4byte	0x5f4
 4959 05f4 09       		.uleb128 0x9
 4960 05f5 A2060000 		.4byte	.LASF86
 4961 05f9 14       		.byte	0x14
 4962 05fa 0C       		.byte	0xc
 4963 05fb 3E       		.byte	0x3e
 4964 05fc 4F060000 		.4byte	0x64f
 4965 0600 07       		.uleb128 0x7
 4966 0601 86110000 		.4byte	.LASF87
 4967 0605 0C       		.byte	0xc
 4968 0606 40       		.byte	0x40
 4969 0607 E4000000 		.4byte	0xe4
 4970 060b 00       		.byte	0
 4971 060c 07       		.uleb128 0x7
 4972 060d B5100000 		.4byte	.LASF88
 4973 0611 0C       		.byte	0xc
 4974 0612 41       		.byte	0x41
 4975 0613 E4000000 		.4byte	0xe4
 4976 0617 04       		.byte	0x4
 4977 0618 07       		.uleb128 0x7
 4978 0619 D9050000 		.4byte	.LASF89
 4979 061d 0C       		.byte	0xc
 4980 061e 42       		.byte	0x42
ARM GAS  C:\Users\pearlstl\AppData\Local\Temp\ccHPSyCj.s 			page 120


 4981 061f D2050000 		.4byte	0x5d2
 4982 0623 08       		.byte	0x8
 4983 0624 07       		.uleb128 0x7
 4984 0625 3D160000 		.4byte	.LASF90
 4985 0629 0C       		.byte	0xc
 4986 062a 44       		.byte	0x44
 4987 062b FA000000 		.4byte	0xfa
 4988 062f 0C       		.byte	0xc
 4989 0630 0A       		.uleb128 0xa
 4990 0631 61030000 		.4byte	.LASF91
 4991 0635 0C       		.byte	0xc
 4992 0636 46       		.byte	0x46
 4993 0637 B8000000 		.4byte	0xb8
 4994 063b 01       		.byte	0x1
 4995 063c 03       		.byte	0x3
 4996 063d 05       		.byte	0x5
 4997 063e 10       		.byte	0x10
 4998 063f 0A       		.uleb128 0xa
 4999 0640 F90C0000 		.4byte	.LASF92
 5000 0644 0C       		.byte	0xc
 5001 0645 47       		.byte	0x47
 5002 0646 B8000000 		.4byte	0xb8
 5003 064a 01       		.byte	0x1
 5004 064b 01       		.byte	0x1
 5005 064c 04       		.byte	0x4
 5006 064d 10       		.byte	0x10
 5007 064e 00       		.byte	0
 5008 064f 04       		.uleb128 0x4
 5009 0650 05110000 		.4byte	.LASF93
 5010 0654 0C       		.byte	0xc
 5011 0655 48       		.byte	0x48
 5012 0656 F4050000 		.4byte	0x5f4
 5013 065a 06       		.uleb128 0x6
 5014 065b 1C       		.byte	0x1c
 5015 065c 0D       		.byte	0xd
 5016 065d 2F       		.byte	0x2f
 5017 065e AE060000 		.4byte	0x6ae
 5018 0662 07       		.uleb128 0x7
 5019 0663 A70B0000 		.4byte	.LASF94
 5020 0667 0D       		.byte	0xd
 5021 0668 31       		.byte	0x31
 5022 0669 FA000000 		.4byte	0xfa
 5023 066d 00       		.byte	0
 5024 066e 07       		.uleb128 0x7
 5025 066f AC0B0000 		.4byte	.LASF95
 5026 0673 0D       		.byte	0xd
 5027 0674 32       		.byte	0x32
 5028 0675 FA000000 		.4byte	0xfa
 5029 0679 04       		.byte	0x4
 5030 067a 07       		.uleb128 0x7
 5031 067b 500E0000 		.4byte	.LASF96
 5032 067f 0D       		.byte	0xd
 5033 0680 35       		.byte	0x35
 5034 0681 FA000000 		.4byte	0xfa
 5035 0685 08       		.byte	0x8
 5036 0686 07       		.uleb128 0x7
 5037 0687 F80F0000 		.4byte	.LASF97
ARM GAS  C:\Users\pearlstl\AppData\Local\Temp\ccHPSyCj.s 			page 121


 5038 068b 0D       		.byte	0xd
 5039 068c 36       		.byte	0x36
 5040 068d E4000000 		.4byte	0xe4
 5041 0691 0C       		.byte	0xc
 5042 0692 07       		.uleb128 0x7
 5043 0693 47090000 		.4byte	.LASF98
 5044 0697 0D       		.byte	0xd
 5045 0698 37       		.byte	0x37
 5046 0699 13030000 		.4byte	0x313
 5047 069d 10       		.byte	0x10
 5048 069e 0A       		.uleb128 0xa
 5049 069f 34070000 		.4byte	.LASF99
 5050 06a3 0D       		.byte	0xd
 5051 06a4 38       		.byte	0x38
 5052 06a5 AE060000 		.4byte	0x6ae
 5053 06a9 04       		.byte	0x4
 5054 06aa 01       		.byte	0x1
 5055 06ab 1F       		.byte	0x1f
 5056 06ac 18       		.byte	0x18
 5057 06ad 00       		.byte	0
 5058 06ae 16       		.uleb128 0x16
 5059 06af E4000000 		.4byte	0xe4
 5060 06b3 04       		.uleb128 0x4
 5061 06b4 010B0000 		.4byte	.LASF100
 5062 06b8 0D       		.byte	0xd
 5063 06b9 39       		.byte	0x39
 5064 06ba 5A060000 		.4byte	0x65a
 5065 06be 09       		.uleb128 0x9
 5066 06bf 7A0A0000 		.4byte	.LASF101
 5067 06c3 20       		.byte	0x20
 5068 06c4 0D       		.byte	0xd
 5069 06c5 3E       		.byte	0x3e
 5070 06c6 3A070000 		.4byte	0x73a
 5071 06ca 07       		.uleb128 0x7
 5072 06cb E2040000 		.4byte	.LASF102
 5073 06cf 0D       		.byte	0xd
 5074 06d0 41       		.byte	0x41
 5075 06d1 EF000000 		.4byte	0xef
 5076 06d5 00       		.byte	0
 5077 06d6 07       		.uleb128 0x7
 5078 06d7 83030000 		.4byte	.LASF103
 5079 06db 0D       		.byte	0xd
 5080 06dc 42       		.byte	0x42
 5081 06dd EF000000 		.4byte	0xef
 5082 06e1 02       		.byte	0x2
 5083 06e2 07       		.uleb128 0x7
 5084 06e3 40080000 		.4byte	.LASF104
 5085 06e7 0D       		.byte	0xd
 5086 06e8 46       		.byte	0x46
 5087 06e9 3A070000 		.4byte	0x73a
 5088 06ed 04       		.byte	0x4
 5089 06ee 0A       		.uleb128 0xa
 5090 06ef D2030000 		.4byte	.LASF105
 5091 06f3 0D       		.byte	0xd
 5092 06f4 4B       		.byte	0x4b
 5093 06f5 E4000000 		.4byte	0xe4
 5094 06f9 04       		.byte	0x4
ARM GAS  C:\Users\pearlstl\AppData\Local\Temp\ccHPSyCj.s 			page 122


 5095 06fa 01       		.byte	0x1
 5096 06fb 1F       		.byte	0x1f
 5097 06fc 08       		.byte	0x8
 5098 06fd 07       		.uleb128 0x7
 5099 06fe 34160000 		.4byte	.LASF106
 5100 0702 0D       		.byte	0xd
 5101 0703 55       		.byte	0x55
 5102 0704 6C070000 		.4byte	0x76c
 5103 0708 0C       		.byte	0xc
 5104 0709 07       		.uleb128 0x7
 5105 070a 8D110000 		.4byte	.LASF107
 5106 070e 0D       		.byte	0xd
 5107 070f 59       		.byte	0x59
 5108 0710 88070000 		.4byte	0x788
 5109 0714 10       		.byte	0x10
 5110 0715 07       		.uleb128 0x7
 5111 0716 C4040000 		.4byte	.LASF108
 5112 071a 0D       		.byte	0xd
 5113 071b 5E       		.byte	0x5e
 5114 071c BD070000 		.4byte	0x7bd
 5115 0720 14       		.byte	0x14
 5116 0721 07       		.uleb128 0x7
 5117 0722 DF150000 		.4byte	.LASF109
 5118 0726 0D       		.byte	0xd
 5119 0727 63       		.byte	0x63
 5120 0728 D8070000 		.4byte	0x7d8
 5121 072c 18       		.byte	0x18
 5122 072d 07       		.uleb128 0x7
 5123 072e 14000000 		.4byte	.LASF110
 5124 0732 0D       		.byte	0xd
 5125 0733 71       		.byte	0x71
 5126 0734 85020000 		.4byte	0x285
 5127 0738 1C       		.byte	0x1c
 5128 0739 00       		.byte	0
 5129 073a 0D       		.uleb128 0xd
 5130 073b 04       		.byte	0x4
 5131 073c B3060000 		.4byte	0x6b3
 5132 0740 15       		.uleb128 0x15
 5133 0741 55070000 		.4byte	0x755
 5134 0745 0C       		.uleb128 0xc
 5135 0746 55070000 		.4byte	0x755
 5136 074a 0C       		.uleb128 0xc
 5137 074b 5B070000 		.4byte	0x75b
 5138 074f 0C       		.uleb128 0xc
 5139 0750 66070000 		.4byte	0x766
 5140 0754 00       		.byte	0
 5141 0755 0D       		.uleb128 0xd
 5142 0756 04       		.byte	0x4
 5143 0757 BE060000 		.4byte	0x6be
 5144 075b 0D       		.uleb128 0xd
 5145 075c 04       		.byte	0x4
 5146 075d 61070000 		.4byte	0x761
 5147 0761 0E       		.uleb128 0xe
 5148 0762 13030000 		.4byte	0x313
 5149 0766 0D       		.uleb128 0xd
 5150 0767 04       		.byte	0x4
 5151 0768 85020000 		.4byte	0x285
ARM GAS  C:\Users\pearlstl\AppData\Local\Temp\ccHPSyCj.s 			page 123


 5152 076c 0D       		.uleb128 0xd
 5153 076d 04       		.byte	0x4
 5154 076e 40070000 		.4byte	0x740
 5155 0772 15       		.uleb128 0x15
 5156 0773 82070000 		.4byte	0x782
 5157 0777 0C       		.uleb128 0xc
 5158 0778 55070000 		.4byte	0x755
 5159 077c 0C       		.uleb128 0xc
 5160 077d 82070000 		.4byte	0x782
 5161 0781 00       		.byte	0
 5162 0782 0D       		.uleb128 0xd
 5163 0783 04       		.byte	0x4
 5164 0784 13030000 		.4byte	0x313
 5165 0788 0D       		.uleb128 0xd
 5166 0789 04       		.byte	0x4
 5167 078a 72070000 		.4byte	0x772
 5168 078e 15       		.uleb128 0x15
 5169 078f B7070000 		.4byte	0x7b7
 5170 0793 0C       		.uleb128 0xc
 5171 0794 55070000 		.4byte	0x755
 5172 0798 0C       		.uleb128 0xc
 5173 0799 B7070000 		.4byte	0x7b7
 5174 079d 0C       		.uleb128 0xc
 5175 079e EF000000 		.4byte	0xef
 5176 07a2 0C       		.uleb128 0xc
 5177 07a3 EF000000 		.4byte	0xef
 5178 07a7 0C       		.uleb128 0xc
 5179 07a8 EF000000 		.4byte	0xef
 5180 07ac 0C       		.uleb128 0xc
 5181 07ad 85020000 		.4byte	0x285
 5182 07b1 0C       		.uleb128 0xc
 5183 07b2 91020000 		.4byte	0x291
 5184 07b6 00       		.byte	0
 5185 07b7 0D       		.uleb128 0xd
 5186 07b8 04       		.byte	0x4
 5187 07b9 B8000000 		.4byte	0xb8
 5188 07bd 0D       		.uleb128 0xd
 5189 07be 04       		.byte	0x4
 5190 07bf 8E070000 		.4byte	0x78e
 5191 07c3 15       		.uleb128 0x15
 5192 07c4 D8070000 		.4byte	0x7d8
 5193 07c8 0C       		.uleb128 0xc
 5194 07c9 55070000 		.4byte	0x755
 5195 07cd 0C       		.uleb128 0xc
 5196 07ce E4000000 		.4byte	0xe4
 5197 07d2 0C       		.uleb128 0xc
 5198 07d3 E4000000 		.4byte	0xe4
 5199 07d7 00       		.byte	0
 5200 07d8 0D       		.uleb128 0xd
 5201 07d9 04       		.byte	0x4
 5202 07da C3070000 		.4byte	0x7c3
 5203 07de 04       		.uleb128 0x4
 5204 07df 36150000 		.4byte	.LASF111
 5205 07e3 0D       		.byte	0xd
 5206 07e4 77       		.byte	0x77
 5207 07e5 BE060000 		.4byte	0x6be
 5208 07e9 17       		.uleb128 0x17
ARM GAS  C:\Users\pearlstl\AppData\Local\Temp\ccHPSyCj.s 			page 124


 5209 07ea 6D0D0000 		.4byte	.LASF112
 5210 07ee 6401     		.2byte	0x164
 5211 07f0 0D       		.byte	0xd
 5212 07f1 7F       		.byte	0x7f
 5213 07f2 75080000 		.4byte	0x875
 5214 07f6 07       		.uleb128 0x7
 5215 07f7 E6120000 		.4byte	.LASF113
 5216 07fb 0D       		.byte	0xd
 5217 07fc 82       		.byte	0x82
 5218 07fd DE070000 		.4byte	0x7de
 5219 0801 00       		.byte	0
 5220 0802 07       		.uleb128 0x7
 5221 0803 C8030000 		.4byte	.LASF114
 5222 0807 0D       		.byte	0xd
 5223 0808 85       		.byte	0x85
 5224 0809 75080000 		.4byte	0x875
 5225 080d 20       		.byte	0x20
 5226 080e 07       		.uleb128 0x7
 5227 080f 66030000 		.4byte	.LASF115
 5228 0813 0D       		.byte	0xd
 5229 0814 88       		.byte	0x88
 5230 0815 BC050000 		.4byte	0x5bc
 5231 0819 24       		.byte	0x24
 5232 081a 07       		.uleb128 0x7
 5233 081b D4000000 		.4byte	.LASF116
 5234 081f 0D       		.byte	0xd
 5235 0820 89       		.byte	0x89
 5236 0821 BD090000 		.4byte	0x9bd
 5237 0825 30       		.byte	0x30
 5238 0826 07       		.uleb128 0x7
 5239 0827 87050000 		.4byte	.LASF117
 5240 082b 0D       		.byte	0xd
 5241 082c 8A       		.byte	0x8a
 5242 082d BD090000 		.4byte	0x9bd
 5243 0831 34       		.byte	0x34
 5244 0832 07       		.uleb128 0x7
 5245 0833 5B140000 		.4byte	.LASF118
 5246 0837 0D       		.byte	0xd
 5247 0838 8B       		.byte	0x8b
 5248 0839 BD090000 		.4byte	0x9bd
 5249 083d 38       		.byte	0x38
 5250 083e 07       		.uleb128 0x7
 5251 083f E20C0000 		.4byte	.LASF119
 5252 0843 0D       		.byte	0xd
 5253 0844 8E       		.byte	0x8e
 5254 0845 C3090000 		.4byte	0x9c3
 5255 0849 3C       		.byte	0x3c
 5256 084a 18       		.uleb128 0x18
 5257 084b 41060000 		.4byte	.LASF120
 5258 084f 0D       		.byte	0xd
 5259 0850 8F       		.byte	0x8f
 5260 0851 D3090000 		.4byte	0x9d3
 5261 0855 3C01     		.2byte	0x13c
 5262 0857 19       		.uleb128 0x19
 5263 0858 65130000 		.4byte	.LASF121
 5264 085c 0D       		.byte	0xd
 5265 085d 90       		.byte	0x90
ARM GAS  C:\Users\pearlstl\AppData\Local\Temp\ccHPSyCj.s 			page 125


 5266 085e E4000000 		.4byte	0xe4
 5267 0862 04       		.byte	0x4
 5268 0863 0A       		.byte	0xa
 5269 0864 16       		.byte	0x16
 5270 0865 5C01     		.2byte	0x15c
 5271 0867 18       		.uleb128 0x18
 5272 0868 AC030000 		.4byte	.LASF122
 5273 086c 0D       		.byte	0xd
 5274 086d 93       		.byte	0x93
 5275 086e E4000000 		.4byte	0xe4
 5276 0872 6001     		.2byte	0x160
 5277 0874 00       		.byte	0
 5278 0875 0D       		.uleb128 0xd
 5279 0876 04       		.byte	0x4
 5280 0877 4F060000 		.4byte	0x64f
 5281 087b 09       		.uleb128 0x9
 5282 087c CA120000 		.4byte	.LASF123
 5283 0880 40       		.byte	0x40
 5284 0881 0E       		.byte	0xe
 5285 0882 BB       		.byte	0xbb
 5286 0883 BD090000 		.4byte	0x9bd
 5287 0887 08       		.uleb128 0x8
 5288 0888 70617200 		.ascii	"par\000"
 5289 088c 0E       		.byte	0xe
 5290 088d BD       		.byte	0xbd
 5291 088e BD090000 		.4byte	0x9bd
 5292 0892 00       		.byte	0
 5293 0893 07       		.uleb128 0x7
 5294 0894 900B0000 		.4byte	.LASF124
 5295 0898 0E       		.byte	0xe
 5296 0899 BE       		.byte	0xbe
 5297 089a BC050000 		.4byte	0x5bc
 5298 089e 04       		.byte	0x4
 5299 089f 07       		.uleb128 0x7
 5300 08a0 4E140000 		.4byte	.LASF125
 5301 08a4 0E       		.byte	0xe
 5302 08a5 C0       		.byte	0xc0
 5303 08a6 13030000 		.4byte	0x313
 5304 08aa 10       		.byte	0x10
 5305 08ab 07       		.uleb128 0x7
 5306 08ac 1A0B0000 		.4byte	.LASF126
 5307 08b0 0E       		.byte	0xe
 5308 08b1 C2       		.byte	0xc2
 5309 08b2 A80D0000 		.4byte	0xda8
 5310 08b6 18       		.byte	0x18
 5311 08b7 07       		.uleb128 0x7
 5312 08b8 82150000 		.4byte	.LASF127
 5313 08bc 0E       		.byte	0xe
 5314 08bd C3       		.byte	0xc3
 5315 08be 590E0000 		.4byte	0xe59
 5316 08c2 1C       		.byte	0x1c
 5317 08c3 07       		.uleb128 0x7
 5318 08c4 04070000 		.4byte	.LASF128
 5319 08c8 0E       		.byte	0xe
 5320 08c9 C4       		.byte	0xc4
 5321 08ca EE0C0000 		.4byte	0xcee
 5322 08ce 20       		.byte	0x20
ARM GAS  C:\Users\pearlstl\AppData\Local\Temp\ccHPSyCj.s 			page 126


 5323 08cf 07       		.uleb128 0x7
 5324 08d0 7D0E0000 		.4byte	.LASF129
 5325 08d4 0E       		.byte	0xe
 5326 08d5 C6       		.byte	0xc6
 5327 08d6 FA000000 		.4byte	0xfa
 5328 08da 24       		.byte	0x24
 5329 08db 07       		.uleb128 0x7
 5330 08dc 290B0000 		.4byte	.LASF130
 5331 08e0 0E       		.byte	0xe
 5332 08e1 C7       		.byte	0xc7
 5333 08e2 060F0000 		.4byte	0xf06
 5334 08e6 28       		.byte	0x28
 5335 08e7 0A       		.uleb128 0xa
 5336 08e8 61010000 		.4byte	.LASF131
 5337 08ec 0E       		.byte	0xe
 5338 08ed D7       		.byte	0xd7
 5339 08ee B8000000 		.4byte	0xb8
 5340 08f2 01       		.byte	0x1
 5341 08f3 01       		.byte	0x1
 5342 08f4 07       		.byte	0x7
 5343 08f5 2C       		.byte	0x2c
 5344 08f6 0A       		.uleb128 0xa
 5345 08f7 B5120000 		.4byte	.LASF132
 5346 08fb 0E       		.byte	0xe
 5347 08fc D8       		.byte	0xd8
 5348 08fd B8000000 		.4byte	0xb8
 5349 0901 01       		.byte	0x1
 5350 0902 01       		.byte	0x1
 5351 0903 06       		.byte	0x6
 5352 0904 2C       		.byte	0x2c
 5353 0905 0A       		.uleb128 0xa
 5354 0906 DA070000 		.4byte	.LASF133
 5355 090a 0E       		.byte	0xe
 5356 090b D9       		.byte	0xd9
 5357 090c B8000000 		.4byte	0xb8
 5358 0910 01       		.byte	0x1
 5359 0911 01       		.byte	0x1
 5360 0912 05       		.byte	0x5
 5361 0913 2C       		.byte	0x2c
 5362 0914 0A       		.uleb128 0xa
 5363 0915 F9140000 		.4byte	.LASF134
 5364 0919 0E       		.byte	0xe
 5365 091a DA       		.byte	0xda
 5366 091b B8000000 		.4byte	0xb8
 5367 091f 01       		.byte	0x1
 5368 0920 01       		.byte	0x1
 5369 0921 04       		.byte	0x4
 5370 0922 2C       		.byte	0x2c
 5371 0923 0A       		.uleb128 0xa
 5372 0924 A5030000 		.4byte	.LASF135
 5373 0928 0E       		.byte	0xe
 5374 0929 DB       		.byte	0xdb
 5375 092a B8000000 		.4byte	0xb8
 5376 092e 01       		.byte	0x1
 5377 092f 01       		.byte	0x1
 5378 0930 03       		.byte	0x3
 5379 0931 2C       		.byte	0x2c
ARM GAS  C:\Users\pearlstl\AppData\Local\Temp\ccHPSyCj.s 			page 127


 5380 0932 1A       		.uleb128 0x1a
 5381 0933 746F7000 		.ascii	"top\000"
 5382 0937 0E       		.byte	0xe
 5383 0938 DC       		.byte	0xdc
 5384 0939 B8000000 		.4byte	0xb8
 5385 093d 01       		.byte	0x1
 5386 093e 01       		.byte	0x1
 5387 093f 02       		.byte	0x2
 5388 0940 2C       		.byte	0x2c
 5389 0941 0A       		.uleb128 0xa
 5390 0942 81140000 		.4byte	.LASF136
 5391 0946 0E       		.byte	0xe
 5392 0947 DD       		.byte	0xdd
 5393 0948 B8000000 		.4byte	0xb8
 5394 094c 01       		.byte	0x1
 5395 094d 01       		.byte	0x1
 5396 094e 01       		.byte	0x1
 5397 094f 2C       		.byte	0x2c
 5398 0950 0A       		.uleb128 0xa
 5399 0951 D10B0000 		.4byte	.LASF137
 5400 0955 0E       		.byte	0xe
 5401 0956 DE       		.byte	0xde
 5402 0957 B8000000 		.4byte	0xb8
 5403 095b 01       		.byte	0x1
 5404 095c 01       		.byte	0x1
 5405 095d 00       		.byte	0
 5406 095e 2C       		.byte	0x2c
 5407 095f 0A       		.uleb128 0xa
 5408 0960 D0050000 		.4byte	.LASF138
 5409 0964 0E       		.byte	0xe
 5410 0965 DF       		.byte	0xdf
 5411 0966 FB0E0000 		.4byte	0xefb
 5412 096a 01       		.byte	0x1
 5413 096b 02       		.byte	0x2
 5414 096c 06       		.byte	0x6
 5415 096d 2D       		.byte	0x2d
 5416 096e 0A       		.uleb128 0xa
 5417 096f 0F130000 		.4byte	.LASF139
 5418 0973 0E       		.byte	0xe
 5419 0974 E0       		.byte	0xe0
 5420 0975 C7050000 		.4byte	0x5c7
 5421 0979 01       		.byte	0x1
 5422 097a 02       		.byte	0x2
 5423 097b 04       		.byte	0x4
 5424 097c 2D       		.byte	0x2d
 5425 097d 0A       		.uleb128 0xa
 5426 097e CC150000 		.4byte	.LASF140
 5427 0982 0E       		.byte	0xe
 5428 0983 E1       		.byte	0xe1
 5429 0984 B8000000 		.4byte	0xb8
 5430 0988 01       		.byte	0x1
 5431 0989 03       		.byte	0x3
 5432 098a 01       		.byte	0x1
 5433 098b 2D       		.byte	0x2d
 5434 098c 07       		.uleb128 0x7
 5435 098d 9F0B0000 		.4byte	.LASF141
 5436 0991 0E       		.byte	0xe
ARM GAS  C:\Users\pearlstl\AppData\Local\Temp\ccHPSyCj.s 			page 128


 5437 0992 E2       		.byte	0xe2
 5438 0993 B8000000 		.4byte	0xb8
 5439 0997 2E       		.byte	0x2e
 5440 0998 07       		.uleb128 0x7
 5441 0999 B9170000 		.4byte	.LASF142
 5442 099d 0E       		.byte	0xe
 5443 099e E4       		.byte	0xe4
 5444 099f 91020000 		.4byte	0x291
 5445 09a3 2F       		.byte	0x2f
 5446 09a4 07       		.uleb128 0x7
 5447 09a5 15080000 		.4byte	.LASF143
 5448 09a9 0E       		.byte	0xe
 5449 09aa E6       		.byte	0xe6
 5450 09ab EF000000 		.4byte	0xef
 5451 09af 30       		.byte	0x30
 5452 09b0 07       		.uleb128 0x7
 5453 09b1 A9080000 		.4byte	.LASF144
 5454 09b5 0E       		.byte	0xe
 5455 09b6 E9       		.byte	0xe9
 5456 09b7 F00E0000 		.4byte	0xef0
 5457 09bb 34       		.byte	0x34
 5458 09bc 00       		.byte	0
 5459 09bd 0D       		.uleb128 0xd
 5460 09be 04       		.byte	0x4
 5461 09bf 7B080000 		.4byte	0x87b
 5462 09c3 1B       		.uleb128 0x1b
 5463 09c4 13030000 		.4byte	0x313
 5464 09c8 D3090000 		.4byte	0x9d3
 5465 09cc 1C       		.uleb128 0x1c
 5466 09cd 9D020000 		.4byte	0x29d
 5467 09d1 1F       		.byte	0x1f
 5468 09d2 00       		.byte	0
 5469 09d3 1B       		.uleb128 0x1b
 5470 09d4 B8000000 		.4byte	0xb8
 5471 09d8 E3090000 		.4byte	0x9e3
 5472 09dc 1C       		.uleb128 0x1c
 5473 09dd 9D020000 		.4byte	0x29d
 5474 09e1 1F       		.byte	0x1f
 5475 09e2 00       		.byte	0
 5476 09e3 04       		.uleb128 0x4
 5477 09e4 A40A0000 		.4byte	.LASF145
 5478 09e8 0F       		.byte	0xf
 5479 09e9 33       		.byte	0x33
 5480 09ea B8000000 		.4byte	0xb8
 5481 09ee 04       		.uleb128 0x4
 5482 09ef F6070000 		.4byte	.LASF146
 5483 09f3 0F       		.byte	0xf
 5484 09f4 37       		.byte	0x37
 5485 09f5 B8000000 		.4byte	0xb8
 5486 09f9 06       		.uleb128 0x6
 5487 09fa 10       		.byte	0x10
 5488 09fb 0F       		.byte	0xf
 5489 09fc 3A       		.byte	0x3a
 5490 09fd 3E0A0000 		.4byte	0xa3e
 5491 0a01 07       		.uleb128 0x7
 5492 0a02 6D030000 		.4byte	.LASF147
 5493 0a06 0F       		.byte	0xf
ARM GAS  C:\Users\pearlstl\AppData\Local\Temp\ccHPSyCj.s 			page 129


 5494 0a07 3C       		.byte	0x3c
 5495 0a08 D3020000 		.4byte	0x2d3
 5496 0a0c 00       		.byte	0
 5497 0a0d 08       		.uleb128 0x8
 5498 0a0e 6B657900 		.ascii	"key\000"
 5499 0a12 0F       		.byte	0xf
 5500 0a13 3D       		.byte	0x3d
 5501 0a14 E4000000 		.4byte	0xe4
 5502 0a18 04       		.byte	0x4
 5503 0a19 07       		.uleb128 0x7
 5504 0a1a 56060000 		.4byte	.LASF148
 5505 0a1e 0F       		.byte	0xf
 5506 0a1f 3E       		.byte	0x3e
 5507 0a20 E4000000 		.4byte	0xe4
 5508 0a24 08       		.byte	0x8
 5509 0a25 07       		.uleb128 0x7
 5510 0a26 920C0000 		.4byte	.LASF149
 5511 0a2a 0F       		.byte	0xf
 5512 0a2b 3F       		.byte	0x3f
 5513 0a2c C3000000 		.4byte	0xc3
 5514 0a30 0C       		.byte	0xc
 5515 0a31 07       		.uleb128 0x7
 5516 0a32 F5010000 		.4byte	.LASF150
 5517 0a36 0F       		.byte	0xf
 5518 0a37 41       		.byte	0x41
 5519 0a38 EE090000 		.4byte	0x9ee
 5520 0a3c 0E       		.byte	0xe
 5521 0a3d 00       		.byte	0
 5522 0a3e 04       		.uleb128 0x4
 5523 0a3f 24160000 		.4byte	.LASF151
 5524 0a43 0F       		.byte	0xf
 5525 0a44 42       		.byte	0x42
 5526 0a45 F9090000 		.4byte	0x9f9
 5527 0a49 09       		.uleb128 0x9
 5528 0a4a 7D020000 		.4byte	.LASF152
 5529 0a4e 1C       		.byte	0x1c
 5530 0a4f 0F       		.byte	0xf
 5531 0a50 45       		.byte	0x45
 5532 0a51 C20A0000 		.4byte	0xac2
 5533 0a55 07       		.uleb128 0x7
 5534 0a56 36020000 		.4byte	.LASF51
 5535 0a5a 0F       		.byte	0xf
 5536 0a5b 49       		.byte	0x49
 5537 0a5c E3090000 		.4byte	0x9e3
 5538 0a60 00       		.byte	0
 5539 0a61 07       		.uleb128 0x7
 5540 0a62 4B040000 		.4byte	.LASF153
 5541 0a66 0F       		.byte	0xf
 5542 0a67 4E       		.byte	0x4e
 5543 0a68 E20A0000 		.4byte	0xae2
 5544 0a6c 04       		.byte	0x4
 5545 0a6d 07       		.uleb128 0x7
 5546 0a6e 000F0000 		.4byte	.LASF154
 5547 0a72 0F       		.byte	0xf
 5548 0a73 52       		.byte	0x52
 5549 0a74 F80A0000 		.4byte	0xaf8
 5550 0a78 08       		.byte	0x8
ARM GAS  C:\Users\pearlstl\AppData\Local\Temp\ccHPSyCj.s 			page 130


 5551 0a79 07       		.uleb128 0x7
 5552 0a7a 730C0000 		.4byte	.LASF155
 5553 0a7e 0F       		.byte	0xf
 5554 0a7f 59       		.byte	0x59
 5555 0a80 FE0A0000 		.4byte	0xafe
 5556 0a84 0C       		.byte	0xc
 5557 0a85 07       		.uleb128 0x7
 5558 0a86 D60E0000 		.4byte	.LASF156
 5559 0a8a 0F       		.byte	0xf
 5560 0a8b 5C       		.byte	0x5c
 5561 0a8c 75080000 		.4byte	0x875
 5562 0a90 10       		.byte	0x10
 5563 0a91 07       		.uleb128 0x7
 5564 0a92 2B150000 		.4byte	.LASF157
 5565 0a96 0F       		.byte	0xf
 5566 0a97 5F       		.byte	0x5f
 5567 0a98 B8000000 		.4byte	0xb8
 5568 0a9c 14       		.byte	0x14
 5569 0a9d 07       		.uleb128 0x7
 5570 0a9e DA070000 		.4byte	.LASF133
 5571 0aa2 0F       		.byte	0xf
 5572 0aa3 62       		.byte	0x62
 5573 0aa4 B8000000 		.4byte	0xb8
 5574 0aa8 15       		.byte	0x15
 5575 0aa9 07       		.uleb128 0x7
 5576 0aaa FD0F0000 		.4byte	.LASF158
 5577 0aae 0F       		.byte	0xf
 5578 0aaf 65       		.byte	0x65
 5579 0ab0 CE000000 		.4byte	0xce
 5580 0ab4 16       		.byte	0x16
 5581 0ab5 07       		.uleb128 0x7
 5582 0ab6 22080000 		.4byte	.LASF159
 5583 0aba 0F       		.byte	0xf
 5584 0abb 68       		.byte	0x68
 5585 0abc CE000000 		.4byte	0xce
 5586 0ac0 18       		.byte	0x18
 5587 0ac1 00       		.byte	0
 5588 0ac2 0B       		.uleb128 0xb
 5589 0ac3 D5010000 		.4byte	0x1d5
 5590 0ac7 D60A0000 		.4byte	0xad6
 5591 0acb 0C       		.uleb128 0xc
 5592 0acc D60A0000 		.4byte	0xad6
 5593 0ad0 0C       		.uleb128 0xc
 5594 0ad1 DC0A0000 		.4byte	0xadc
 5595 0ad5 00       		.byte	0
 5596 0ad6 0D       		.uleb128 0xd
 5597 0ad7 04       		.byte	0x4
 5598 0ad8 490A0000 		.4byte	0xa49
 5599 0adc 0D       		.uleb128 0xd
 5600 0add 04       		.byte	0x4
 5601 0ade 3E0A0000 		.4byte	0xa3e
 5602 0ae2 0D       		.uleb128 0xd
 5603 0ae3 04       		.byte	0x4
 5604 0ae4 C20A0000 		.4byte	0xac2
 5605 0ae8 15       		.uleb128 0x15
 5606 0ae9 F80A0000 		.4byte	0xaf8
 5607 0aed 0C       		.uleb128 0xc
ARM GAS  C:\Users\pearlstl\AppData\Local\Temp\ccHPSyCj.s 			page 131


 5608 0aee D60A0000 		.4byte	0xad6
 5609 0af2 0C       		.uleb128 0xc
 5610 0af3 B8000000 		.4byte	0xb8
 5611 0af7 00       		.byte	0
 5612 0af8 0D       		.uleb128 0xd
 5613 0af9 04       		.byte	0x4
 5614 0afa E80A0000 		.4byte	0xae8
 5615 0afe 0D       		.uleb128 0xd
 5616 0aff 04       		.byte	0x4
 5617 0b00 E9070000 		.4byte	0x7e9
 5618 0b04 04       		.uleb128 0x4
 5619 0b05 05150000 		.4byte	.LASF160
 5620 0b09 0F       		.byte	0xf
 5621 0b0a 69       		.byte	0x69
 5622 0b0b 490A0000 		.4byte	0xa49
 5623 0b0f 06       		.uleb128 0x6
 5624 0b10 24       		.byte	0x24
 5625 0b11 0F       		.byte	0xf
 5626 0b12 73       		.byte	0x73
 5627 0b13 960B0000 		.4byte	0xb96
 5628 0b17 07       		.uleb128 0x7
 5629 0b18 910A0000 		.4byte	.LASF161
 5630 0b1c 0F       		.byte	0xf
 5631 0b1d 75       		.byte	0x75
 5632 0b1e D3020000 		.4byte	0x2d3
 5633 0b22 00       		.byte	0
 5634 0b23 07       		.uleb128 0x7
 5635 0b24 B10B0000 		.4byte	.LASF162
 5636 0b28 0F       		.byte	0xf
 5637 0b29 76       		.byte	0x76
 5638 0b2a D3020000 		.4byte	0x2d3
 5639 0b2e 04       		.byte	0x4
 5640 0b2f 07       		.uleb128 0x7
 5641 0b30 780E0000 		.4byte	.LASF163
 5642 0b34 0F       		.byte	0xf
 5643 0b35 77       		.byte	0x77
 5644 0b36 D3020000 		.4byte	0x2d3
 5645 0b3a 08       		.byte	0x8
 5646 0b3b 07       		.uleb128 0x7
 5647 0b3c 860E0000 		.4byte	.LASF164
 5648 0b40 0F       		.byte	0xf
 5649 0b41 78       		.byte	0x78
 5650 0b42 D3020000 		.4byte	0x2d3
 5651 0b46 0C       		.byte	0xc
 5652 0b47 07       		.uleb128 0x7
 5653 0b48 83060000 		.4byte	.LASF165
 5654 0b4c 0F       		.byte	0xf
 5655 0b4d 79       		.byte	0x79
 5656 0b4e D3020000 		.4byte	0x2d3
 5657 0b52 10       		.byte	0x10
 5658 0b53 07       		.uleb128 0x7
 5659 0b54 BC0B0000 		.4byte	.LASF166
 5660 0b58 0F       		.byte	0xf
 5661 0b59 7A       		.byte	0x7a
 5662 0b5a BD090000 		.4byte	0x9bd
 5663 0b5e 14       		.byte	0x14
 5664 0b5f 07       		.uleb128 0x7
ARM GAS  C:\Users\pearlstl\AppData\Local\Temp\ccHPSyCj.s 			page 132


 5665 0b60 9B0A0000 		.4byte	.LASF167
 5666 0b64 0F       		.byte	0xf
 5667 0b65 7B       		.byte	0x7b
 5668 0b66 BD090000 		.4byte	0x9bd
 5669 0b6a 18       		.byte	0x18
 5670 0b6b 07       		.uleb128 0x7
 5671 0b6c 85040000 		.4byte	.LASF168
 5672 0b70 0F       		.byte	0xf
 5673 0b71 7D       		.byte	0x7d
 5674 0b72 BD090000 		.4byte	0x9bd
 5675 0b76 1C       		.byte	0x1c
 5676 0b77 0A       		.uleb128 0xa
 5677 0b78 58120000 		.4byte	.LASF169
 5678 0b7c 0F       		.byte	0xf
 5679 0b7d 80       		.byte	0x80
 5680 0b7e B8000000 		.4byte	0xb8
 5681 0b82 01       		.byte	0x1
 5682 0b83 01       		.byte	0x1
 5683 0b84 07       		.byte	0x7
 5684 0b85 20       		.byte	0x20
 5685 0b86 0A       		.uleb128 0xa
 5686 0b87 DC110000 		.4byte	.LASF170
 5687 0b8b 0F       		.byte	0xf
 5688 0b8c 81       		.byte	0x81
 5689 0b8d B8000000 		.4byte	0xb8
 5690 0b91 01       		.byte	0x1
 5691 0b92 01       		.byte	0x1
 5692 0b93 06       		.byte	0x6
 5693 0b94 20       		.byte	0x20
 5694 0b95 00       		.byte	0
 5695 0b96 06       		.uleb128 0x6
 5696 0b97 08       		.byte	0x8
 5697 0b98 0F       		.byte	0xf
 5698 0b99 83       		.byte	0x83
 5699 0b9a B70B0000 		.4byte	0xbb7
 5700 0b9e 07       		.uleb128 0x7
 5701 0b9f DA030000 		.4byte	.LASF171
 5702 0ba3 0F       		.byte	0xf
 5703 0ba4 85       		.byte	0x85
 5704 0ba5 EE090000 		.4byte	0x9ee
 5705 0ba9 00       		.byte	0
 5706 0baa 07       		.uleb128 0x7
 5707 0bab 58090000 		.4byte	.LASF172
 5708 0baf 0F       		.byte	0xf
 5709 0bb0 86       		.byte	0x86
 5710 0bb1 E4000000 		.4byte	0xe4
 5711 0bb5 04       		.byte	0x4
 5712 0bb6 00       		.byte	0
 5713 0bb7 0F       		.uleb128 0xf
 5714 0bb8 24       		.byte	0x24
 5715 0bb9 0F       		.byte	0xf
 5716 0bba 71       		.byte	0x71
 5717 0bbb D60B0000 		.4byte	0xbd6
 5718 0bbf 11       		.uleb128 0x11
 5719 0bc0 91070000 		.4byte	.LASF173
 5720 0bc4 0F       		.byte	0xf
 5721 0bc5 82       		.byte	0x82
ARM GAS  C:\Users\pearlstl\AppData\Local\Temp\ccHPSyCj.s 			page 133


 5722 0bc6 0F0B0000 		.4byte	0xb0f
 5723 0bca 11       		.uleb128 0x11
 5724 0bcb 8D130000 		.4byte	.LASF174
 5725 0bcf 0F       		.byte	0xf
 5726 0bd0 87       		.byte	0x87
 5727 0bd1 960B0000 		.4byte	0xb96
 5728 0bd5 00       		.byte	0
 5729 0bd6 09       		.uleb128 0x9
 5730 0bd7 980F0000 		.4byte	.LASF175
 5731 0bdb 34       		.byte	0x34
 5732 0bdc 0F       		.byte	0xf
 5733 0bdd 6E       		.byte	0x6e
 5734 0bde 4F0C0000 		.4byte	0xc4f
 5735 0be2 07       		.uleb128 0x7
 5736 0be3 F5010000 		.4byte	.LASF150
 5737 0be7 0F       		.byte	0xf
 5738 0be8 70       		.byte	0x70
 5739 0be9 EE090000 		.4byte	0x9ee
 5740 0bed 00       		.byte	0
 5741 0bee 07       		.uleb128 0x7
 5742 0bef 49170000 		.4byte	.LASF176
 5743 0bf3 0F       		.byte	0xf
 5744 0bf4 88       		.byte	0x88
 5745 0bf5 B70B0000 		.4byte	0xbb7
 5746 0bf9 04       		.byte	0x4
 5747 0bfa 07       		.uleb128 0x7
 5748 0bfb A00E0000 		.4byte	.LASF177
 5749 0bff 0F       		.byte	0xf
 5750 0c00 8A       		.byte	0x8a
 5751 0c01 E4000000 		.4byte	0xe4
 5752 0c05 28       		.byte	0x28
 5753 0c06 07       		.uleb128 0x7
 5754 0c07 C1110000 		.4byte	.LASF178
 5755 0c0b 0F       		.byte	0xf
 5756 0c0c 8B       		.byte	0x8b
 5757 0c0d E4000000 		.4byte	0xe4
 5758 0c11 2C       		.byte	0x2c
 5759 0c12 0A       		.uleb128 0xa
 5760 0c13 CB160000 		.4byte	.LASF179
 5761 0c17 0F       		.byte	0xf
 5762 0c18 8E       		.byte	0x8e
 5763 0c19 B8000000 		.4byte	0xb8
 5764 0c1d 01       		.byte	0x1
 5765 0c1e 01       		.byte	0x1
 5766 0c1f 07       		.byte	0x7
 5767 0c20 30       		.byte	0x30
 5768 0c21 0A       		.uleb128 0xa
 5769 0c22 F9100000 		.4byte	.LASF180
 5770 0c26 0F       		.byte	0xf
 5771 0c27 8F       		.byte	0x8f
 5772 0c28 B8000000 		.4byte	0xb8
 5773 0c2c 01       		.byte	0x1
 5774 0c2d 01       		.byte	0x1
 5775 0c2e 06       		.byte	0x6
 5776 0c2f 30       		.byte	0x30
 5777 0c30 0A       		.uleb128 0xa
 5778 0c31 78090000 		.4byte	.LASF181
ARM GAS  C:\Users\pearlstl\AppData\Local\Temp\ccHPSyCj.s 			page 134


 5779 0c35 0F       		.byte	0xf
 5780 0c36 90       		.byte	0x90
 5781 0c37 B8000000 		.4byte	0xb8
 5782 0c3b 01       		.byte	0x1
 5783 0c3c 01       		.byte	0x1
 5784 0c3d 05       		.byte	0x5
 5785 0c3e 30       		.byte	0x30
 5786 0c3f 0A       		.uleb128 0xa
 5787 0c40 0E090000 		.4byte	.LASF182
 5788 0c44 0F       		.byte	0xf
 5789 0c45 91       		.byte	0x91
 5790 0c46 B8000000 		.4byte	0xb8
 5791 0c4a 01       		.byte	0x1
 5792 0c4b 01       		.byte	0x1
 5793 0c4c 04       		.byte	0x4
 5794 0c4d 30       		.byte	0x30
 5795 0c4e 00       		.byte	0
 5796 0c4f 04       		.uleb128 0x4
 5797 0c50 B4140000 		.4byte	.LASF183
 5798 0c54 0F       		.byte	0xf
 5799 0c55 92       		.byte	0x92
 5800 0c56 D60B0000 		.4byte	0xbd6
 5801 0c5a 09       		.uleb128 0x9
 5802 0c5b 8B030000 		.4byte	.LASF184
 5803 0c5f 5C       		.byte	0x5c
 5804 0c60 0F       		.byte	0xf
 5805 0c61 99       		.byte	0x99
 5806 0c62 A30C0000 		.4byte	0xca3
 5807 0c66 07       		.uleb128 0x7
 5808 0c67 E6120000 		.4byte	.LASF113
 5809 0c6b 0F       		.byte	0xf
 5810 0c6c 9B       		.byte	0x9b
 5811 0c6d 040B0000 		.4byte	0xb04
 5812 0c71 00       		.byte	0
 5813 0c72 07       		.uleb128 0x7
 5814 0c73 E9060000 		.4byte	.LASF185
 5815 0c77 0F       		.byte	0xf
 5816 0c78 9C       		.byte	0x9c
 5817 0c79 4F0C0000 		.4byte	0xc4f
 5818 0c7d 1C       		.byte	0x1c
 5819 0c7e 07       		.uleb128 0x7
 5820 0c7f 5B170000 		.4byte	.LASF186
 5821 0c83 0F       		.byte	0xf
 5822 0c84 9D       		.byte	0x9d
 5823 0c85 BD090000 		.4byte	0x9bd
 5824 0c89 50       		.byte	0x50
 5825 0c8a 07       		.uleb128 0x7
 5826 0c8b 860A0000 		.4byte	.LASF187
 5827 0c8f 0F       		.byte	0xf
 5828 0c90 9E       		.byte	0x9e
 5829 0c91 A80C0000 		.4byte	0xca8
 5830 0c95 54       		.byte	0x54
 5831 0c96 07       		.uleb128 0x7
 5832 0c97 DC080000 		.4byte	.LASF188
 5833 0c9b 0F       		.byte	0xf
 5834 0c9c 9F       		.byte	0x9f
 5835 0c9d AE0C0000 		.4byte	0xcae
ARM GAS  C:\Users\pearlstl\AppData\Local\Temp\ccHPSyCj.s 			page 135


 5836 0ca1 58       		.byte	0x58
 5837 0ca2 00       		.byte	0
 5838 0ca3 1D       		.uleb128 0x1d
 5839 0ca4 62170000 		.4byte	.LASF445
 5840 0ca8 0D       		.uleb128 0xd
 5841 0ca9 04       		.byte	0x4
 5842 0caa A30C0000 		.4byte	0xca3
 5843 0cae 0D       		.uleb128 0xd
 5844 0caf 04       		.byte	0x4
 5845 0cb0 B40C0000 		.4byte	0xcb4
 5846 0cb4 0E       		.uleb128 0xe
 5847 0cb5 D3020000 		.4byte	0x2d3
 5848 0cb9 04       		.uleb128 0x4
 5849 0cba D1080000 		.4byte	.LASF189
 5850 0cbe 0F       		.byte	0xf
 5851 0cbf A1       		.byte	0xa1
 5852 0cc0 5A0C0000 		.4byte	0xc5a
 5853 0cc4 13       		.uleb128 0x13
 5854 0cc5 01       		.byte	0x1
 5855 0cc6 57000000 		.4byte	0x57
 5856 0cca 0E       		.byte	0xe
 5857 0ccb 3D       		.byte	0x3d
 5858 0ccc E30C0000 		.4byte	0xce3
 5859 0cd0 14       		.uleb128 0x14
 5860 0cd1 FE0C0000 		.4byte	.LASF190
 5861 0cd5 00       		.byte	0
 5862 0cd6 14       		.uleb128 0x14
 5863 0cd7 6A060000 		.4byte	.LASF191
 5864 0cdb 01       		.byte	0x1
 5865 0cdc 14       		.uleb128 0x14
 5866 0cdd D5060000 		.4byte	.LASF192
 5867 0ce1 02       		.byte	0x2
 5868 0ce2 00       		.byte	0
 5869 0ce3 04       		.uleb128 0x4
 5870 0ce4 AD0E0000 		.4byte	.LASF193
 5871 0ce8 0E       		.byte	0xe
 5872 0ce9 42       		.byte	0x42
 5873 0cea B8000000 		.4byte	0xb8
 5874 0cee 04       		.uleb128 0x4
 5875 0cef 80170000 		.4byte	.LASF194
 5876 0cf3 0E       		.byte	0xe
 5877 0cf4 48       		.byte	0x48
 5878 0cf5 F90C0000 		.4byte	0xcf9
 5879 0cf9 0D       		.uleb128 0xd
 5880 0cfa 04       		.byte	0x4
 5881 0cfb FF0C0000 		.4byte	0xcff
 5882 0cff 0B       		.uleb128 0xb
 5883 0d00 D5010000 		.4byte	0x1d5
 5884 0d04 180D0000 		.4byte	0xd18
 5885 0d08 0C       		.uleb128 0xc
 5886 0d09 BD090000 		.4byte	0x9bd
 5887 0d0d 0C       		.uleb128 0xc
 5888 0d0e 5B070000 		.4byte	0x75b
 5889 0d12 0C       		.uleb128 0xc
 5890 0d13 E30C0000 		.4byte	0xce3
 5891 0d17 00       		.byte	0
 5892 0d18 13       		.uleb128 0x13
ARM GAS  C:\Users\pearlstl\AppData\Local\Temp\ccHPSyCj.s 			page 136


 5893 0d19 01       		.byte	0x1
 5894 0d1a 57000000 		.4byte	0x57
 5895 0d1e 0E       		.byte	0xe
 5896 0d1f 4A       		.byte	0x4a
 5897 0d20 9D0D0000 		.4byte	0xd9d
 5898 0d24 14       		.uleb128 0x14
 5899 0d25 1F0F0000 		.4byte	.LASF195
 5900 0d29 00       		.byte	0
 5901 0d2a 14       		.uleb128 0x14
 5902 0d2b 480D0000 		.4byte	.LASF196
 5903 0d2f 01       		.byte	0x1
 5904 0d30 14       		.uleb128 0x14
 5905 0d31 47160000 		.4byte	.LASF197
 5906 0d35 02       		.byte	0x2
 5907 0d36 14       		.uleb128 0x14
 5908 0d37 C40D0000 		.4byte	.LASF198
 5909 0d3b 03       		.byte	0x3
 5910 0d3c 14       		.uleb128 0x14
 5911 0d3d 3B020000 		.4byte	.LASF199
 5912 0d41 04       		.byte	0x4
 5913 0d42 14       		.uleb128 0x14
 5914 0d43 E10D0000 		.4byte	.LASF200
 5915 0d47 05       		.byte	0x5
 5916 0d48 14       		.uleb128 0x14
 5917 0d49 55080000 		.4byte	.LASF201
 5918 0d4d 06       		.byte	0x6
 5919 0d4e 14       		.uleb128 0x14
 5920 0d4f 6E170000 		.4byte	.LASF202
 5921 0d53 07       		.byte	0x7
 5922 0d54 14       		.uleb128 0x14
 5923 0d55 AD070000 		.4byte	.LASF203
 5924 0d59 08       		.byte	0x8
 5925 0d5a 14       		.uleb128 0x14
 5926 0d5b C40E0000 		.4byte	.LASF204
 5927 0d5f 09       		.byte	0x9
 5928 0d60 14       		.uleb128 0x14
 5929 0d61 B7080000 		.4byte	.LASF205
 5930 0d65 0A       		.byte	0xa
 5931 0d66 14       		.uleb128 0x14
 5932 0d67 FD150000 		.4byte	.LASF206
 5933 0d6b 0B       		.byte	0xb
 5934 0d6c 14       		.uleb128 0x14
 5935 0d6d 5E070000 		.4byte	.LASF207
 5936 0d71 0C       		.byte	0xc
 5937 0d72 14       		.uleb128 0x14
 5938 0d73 C4140000 		.4byte	.LASF208
 5939 0d77 0D       		.byte	0xd
 5940 0d78 14       		.uleb128 0x14
 5941 0d79 CB0C0000 		.4byte	.LASF209
 5942 0d7d 0E       		.byte	0xe
 5943 0d7e 14       		.uleb128 0x14
 5944 0d7f F5000000 		.4byte	.LASF210
 5945 0d83 0F       		.byte	0xf
 5946 0d84 14       		.uleb128 0x14
 5947 0d85 490A0000 		.4byte	.LASF211
 5948 0d89 10       		.byte	0x10
 5949 0d8a 14       		.uleb128 0x14
ARM GAS  C:\Users\pearlstl\AppData\Local\Temp\ccHPSyCj.s 			page 137


 5950 0d8b 9A080000 		.4byte	.LASF212
 5951 0d8f 11       		.byte	0x11
 5952 0d90 14       		.uleb128 0x14
 5953 0d91 4A0F0000 		.4byte	.LASF213
 5954 0d95 12       		.byte	0x12
 5955 0d96 14       		.uleb128 0x14
 5956 0d97 230C0000 		.4byte	.LASF214
 5957 0d9b 13       		.byte	0x13
 5958 0d9c 00       		.byte	0
 5959 0d9d 04       		.uleb128 0x4
 5960 0d9e EA010000 		.4byte	.LASF215
 5961 0da2 0E       		.byte	0xe
 5962 0da3 61       		.byte	0x61
 5963 0da4 B8000000 		.4byte	0xb8
 5964 0da8 04       		.uleb128 0x4
 5965 0da9 D8160000 		.4byte	.LASF216
 5966 0dad 0E       		.byte	0xe
 5967 0dae 68       		.byte	0x68
 5968 0daf B30D0000 		.4byte	0xdb3
 5969 0db3 0D       		.uleb128 0xd
 5970 0db4 04       		.byte	0x4
 5971 0db5 B90D0000 		.4byte	0xdb9
 5972 0db9 15       		.uleb128 0x15
 5973 0dba C90D0000 		.4byte	0xdc9
 5974 0dbe 0C       		.uleb128 0xc
 5975 0dbf BD090000 		.4byte	0x9bd
 5976 0dc3 0C       		.uleb128 0xc
 5977 0dc4 9D0D0000 		.4byte	0xd9d
 5978 0dc8 00       		.byte	0
 5979 0dc9 13       		.uleb128 0x13
 5980 0dca 01       		.byte	0x1
 5981 0dcb 57000000 		.4byte	0x57
 5982 0dcf 0E       		.byte	0xe
 5983 0dd0 6D       		.byte	0x6d
 5984 0dd1 4E0E0000 		.4byte	0xe4e
 5985 0dd5 14       		.uleb128 0x14
 5986 0dd6 DE0B0000 		.4byte	.LASF217
 5987 0dda 00       		.byte	0
 5988 0ddb 14       		.uleb128 0x14
 5989 0ddc 5F0C0000 		.4byte	.LASF218
 5990 0de0 01       		.byte	0x1
 5991 0de1 14       		.uleb128 0x14
 5992 0de2 3B140000 		.4byte	.LASF219
 5993 0de6 02       		.byte	0x2
 5994 0de7 14       		.uleb128 0x14
 5995 0de8 300F0000 		.4byte	.LASF220
 5996 0dec 03       		.byte	0x3
 5997 0ded 14       		.uleb128 0x14
 5998 0dee C0000000 		.4byte	.LASF221
 5999 0df2 04       		.byte	0x4
 6000 0df3 14       		.uleb128 0x14
 6001 0df4 14150000 		.4byte	.LASF222
 6002 0df8 05       		.byte	0x5
 6003 0df9 14       		.uleb128 0x14
 6004 0dfa B4050000 		.4byte	.LASF223
 6005 0dfe 06       		.byte	0x6
 6006 0dff 14       		.uleb128 0x14
ARM GAS  C:\Users\pearlstl\AppData\Local\Temp\ccHPSyCj.s 			page 138


 6007 0e00 FB080000 		.4byte	.LASF224
 6008 0e04 07       		.byte	0x7
 6009 0e05 14       		.uleb128 0x14
 6010 0e06 13020000 		.4byte	.LASF225
 6011 0e0a 08       		.byte	0x8
 6012 0e0b 14       		.uleb128 0x14
 6013 0e0c B10D0000 		.4byte	.LASF226
 6014 0e10 09       		.byte	0x9
 6015 0e11 14       		.uleb128 0x14
 6016 0e12 E00E0000 		.4byte	.LASF227
 6017 0e16 0A       		.byte	0xa
 6018 0e17 14       		.uleb128 0x14
 6019 0e18 670F0000 		.4byte	.LASF228
 6020 0e1c 0B       		.byte	0xb
 6021 0e1d 14       		.uleb128 0x14
 6022 0e1e 23010000 		.4byte	.LASF229
 6023 0e22 0C       		.byte	0xc
 6024 0e23 14       		.uleb128 0x14
 6025 0e24 4B050000 		.4byte	.LASF230
 6026 0e28 0D       		.byte	0xd
 6027 0e29 14       		.uleb128 0x14
 6028 0e2a 72010000 		.4byte	.LASF231
 6029 0e2e 0E       		.byte	0xe
 6030 0e2f 14       		.uleb128 0x14
 6031 0e30 0C0F0000 		.4byte	.LASF232
 6032 0e34 0F       		.byte	0xf
 6033 0e35 14       		.uleb128 0x14
 6034 0e36 160A0000 		.4byte	.LASF233
 6035 0e3a 10       		.byte	0x10
 6036 0e3b 14       		.uleb128 0x14
 6037 0e3c 3D070000 		.4byte	.LASF234
 6038 0e40 11       		.byte	0x11
 6039 0e41 14       		.uleb128 0x14
 6040 0e42 770B0000 		.4byte	.LASF235
 6041 0e46 12       		.byte	0x12
 6042 0e47 14       		.uleb128 0x14
 6043 0e48 C00A0000 		.4byte	.LASF236
 6044 0e4c 13       		.byte	0x13
 6045 0e4d 00       		.byte	0
 6046 0e4e 04       		.uleb128 0x4
 6047 0e4f EC0F0000 		.4byte	.LASF237
 6048 0e53 0E       		.byte	0xe
 6049 0e54 88       		.byte	0x88
 6050 0e55 B8000000 		.4byte	0xb8
 6051 0e59 04       		.uleb128 0x4
 6052 0e5a 2C060000 		.4byte	.LASF238
 6053 0e5e 0E       		.byte	0xe
 6054 0e5f 8A       		.byte	0x8a
 6055 0e60 640E0000 		.4byte	0xe64
 6056 0e64 0D       		.uleb128 0xd
 6057 0e65 04       		.byte	0x4
 6058 0e66 6A0E0000 		.4byte	0xe6a
 6059 0e6a 0B       		.uleb128 0xb
 6060 0e6b 73050000 		.4byte	0x573
 6061 0e6f 830E0000 		.4byte	0xe83
 6062 0e73 0C       		.uleb128 0xc
 6063 0e74 BD090000 		.4byte	0x9bd
ARM GAS  C:\Users\pearlstl\AppData\Local\Temp\ccHPSyCj.s 			page 139


 6064 0e78 0C       		.uleb128 0xc
 6065 0e79 4E0E0000 		.4byte	0xe4e
 6066 0e7d 0C       		.uleb128 0xc
 6067 0e7e FA000000 		.4byte	0xfa
 6068 0e82 00       		.byte	0
 6069 0e83 04       		.uleb128 0x4
 6070 0e84 67010000 		.4byte	.LASF239
 6071 0e88 0E       		.byte	0xe
 6072 0e89 A4       		.byte	0xa4
 6073 0e8a B8000000 		.4byte	0xb8
 6074 0e8e 06       		.uleb128 0x6
 6075 0e8f 0C       		.byte	0xc
 6076 0e90 0E       		.byte	0xe
 6077 0e91 A7       		.byte	0xa7
 6078 0e92 E50E0000 		.4byte	0xee5
 6079 0e96 07       		.uleb128 0x7
 6080 0e97 46130000 		.4byte	.LASF240
 6081 0e9b 0E       		.byte	0xe
 6082 0e9c A9       		.byte	0xa9
 6083 0e9d E50E0000 		.4byte	0xee5
 6084 0ea1 00       		.byte	0
 6085 0ea2 07       		.uleb128 0x7
 6086 0ea3 72120000 		.4byte	.LASF241
 6087 0ea7 0E       		.byte	0xe
 6088 0ea8 AA       		.byte	0xaa
 6089 0ea9 EF000000 		.4byte	0xef
 6090 0ead 04       		.byte	0x4
 6091 0eae 07       		.uleb128 0x7
 6092 0eaf E7100000 		.4byte	.LASF242
 6093 0eb3 0E       		.byte	0xe
 6094 0eb4 AB       		.byte	0xab
 6095 0eb5 EF000000 		.4byte	0xef
 6096 0eb9 06       		.byte	0x6
 6097 0eba 07       		.uleb128 0x7
 6098 0ebb 0C0C0000 		.4byte	.LASF243
 6099 0ebf 0E       		.byte	0xe
 6100 0ec0 AC       		.byte	0xac
 6101 0ec1 830E0000 		.4byte	0xe83
 6102 0ec5 08       		.byte	0x8
 6103 0ec6 0A       		.uleb128 0xa
 6104 0ec7 EC0C0000 		.4byte	.LASF244
 6105 0ecb 0E       		.byte	0xe
 6106 0ecc AD       		.byte	0xad
 6107 0ecd B8000000 		.4byte	0xb8
 6108 0ed1 01       		.byte	0x1
 6109 0ed2 01       		.byte	0x1
 6110 0ed3 07       		.byte	0x7
 6111 0ed4 09       		.byte	0x9
 6112 0ed5 0A       		.uleb128 0xa
 6113 0ed6 EE160000 		.4byte	.LASF245
 6114 0eda 0E       		.byte	0xe
 6115 0edb AE       		.byte	0xae
 6116 0edc B8000000 		.4byte	0xb8
 6117 0ee0 01       		.byte	0x1
 6118 0ee1 01       		.byte	0x1
 6119 0ee2 06       		.byte	0x6
 6120 0ee3 09       		.byte	0x9
ARM GAS  C:\Users\pearlstl\AppData\Local\Temp\ccHPSyCj.s 			page 140


 6121 0ee4 00       		.byte	0
 6122 0ee5 0D       		.uleb128 0xd
 6123 0ee6 04       		.byte	0x4
 6124 0ee7 EB0E0000 		.4byte	0xeeb
 6125 0eeb 0E       		.uleb128 0xe
 6126 0eec 7B080000 		.4byte	0x87b
 6127 0ef0 04       		.uleb128 0x4
 6128 0ef1 3F010000 		.4byte	.LASF246
 6129 0ef5 0E       		.byte	0xe
 6130 0ef6 B0       		.byte	0xb0
 6131 0ef7 8E0E0000 		.4byte	0xe8e
 6132 0efb 04       		.uleb128 0x4
 6133 0efc 640E0000 		.4byte	.LASF247
 6134 0f00 0E       		.byte	0xe
 6135 0f01 B9       		.byte	0xb9
 6136 0f02 B8000000 		.4byte	0xb8
 6137 0f06 0D       		.uleb128 0xd
 6138 0f07 04       		.byte	0x4
 6139 0f08 0C0F0000 		.4byte	0xf0c
 6140 0f0c 0E       		.uleb128 0xe
 6141 0f0d 49050000 		.4byte	0x549
 6142 0f11 04       		.uleb128 0x4
 6143 0f12 95120000 		.4byte	.LASF248
 6144 0f16 0E       		.byte	0xe
 6145 0f17 F0       		.byte	0xf0
 6146 0f18 7B080000 		.4byte	0x87b
 6147 0f1c 06       		.uleb128 0x6
 6148 0f1d 04       		.byte	0x4
 6149 0f1e 10       		.byte	0x10
 6150 0f1f 25       		.byte	0x25
 6151 0f20 490F0000 		.4byte	0xf49
 6152 0f24 07       		.uleb128 0x7
 6153 0f25 51020000 		.4byte	.LASF249
 6154 0f29 10       		.byte	0x10
 6155 0f2a 27       		.byte	0x27
 6156 0f2b CE000000 		.4byte	0xce
 6157 0f2f 00       		.byte	0
 6158 0f30 07       		.uleb128 0x7
 6159 0f31 9E120000 		.4byte	.LASF250
 6160 0f35 10       		.byte	0x10
 6161 0f36 28       		.byte	0x28
 6162 0f37 AD000000 		.4byte	0xad
 6163 0f3b 02       		.byte	0x2
 6164 0f3c 08       		.uleb128 0x8
 6165 0f3d 64617900 		.ascii	"day\000"
 6166 0f41 10       		.byte	0x10
 6167 0f42 29       		.byte	0x29
 6168 0f43 AD000000 		.4byte	0xad
 6169 0f47 03       		.byte	0x3
 6170 0f48 00       		.byte	0
 6171 0f49 04       		.uleb128 0x4
 6172 0f4a 190E0000 		.4byte	.LASF251
 6173 0f4e 10       		.byte	0x10
 6174 0f4f 2A       		.byte	0x2a
 6175 0f50 1C0F0000 		.4byte	0xf1c
 6176 0f54 06       		.uleb128 0x6
 6177 0f55 38       		.byte	0x38
ARM GAS  C:\Users\pearlstl\AppData\Local\Temp\ccHPSyCj.s 			page 141


 6178 0f56 10       		.byte	0x10
 6179 0f57 2D       		.byte	0x2d
 6180 0f58 11100000 		.4byte	0x1011
 6181 0f5c 07       		.uleb128 0x7
 6182 0f5d B1080000 		.4byte	.LASF252
 6183 0f61 10       		.byte	0x10
 6184 0f62 31       		.byte	0x31
 6185 0f63 490F0000 		.4byte	0xf49
 6186 0f67 00       		.byte	0
 6187 0f68 07       		.uleb128 0x7
 6188 0f69 B40A0000 		.4byte	.LASF253
 6189 0f6d 10       		.byte	0x10
 6190 0f6e 32       		.byte	0x32
 6191 0f6f 490F0000 		.4byte	0xf49
 6192 0f73 04       		.byte	0x4
 6193 0f74 07       		.uleb128 0x7
 6194 0f75 98110000 		.4byte	.LASF254
 6195 0f79 10       		.byte	0x10
 6196 0f7a 33       		.byte	0x33
 6197 0f7b 11100000 		.4byte	0x1011
 6198 0f7f 08       		.byte	0x8
 6199 0f80 07       		.uleb128 0x7
 6200 0f81 53040000 		.4byte	.LASF255
 6201 0f85 10       		.byte	0x10
 6202 0f86 35       		.byte	0x35
 6203 0f87 AD000000 		.4byte	0xad
 6204 0f8b 0C       		.byte	0xc
 6205 0f8c 07       		.uleb128 0x7
 6206 0f8d 3F0B0000 		.4byte	.LASF256
 6207 0f91 10       		.byte	0x10
 6208 0f92 36       		.byte	0x36
 6209 0f93 CE000000 		.4byte	0xce
 6210 0f97 0E       		.byte	0xe
 6211 0f98 07       		.uleb128 0x7
 6212 0f99 980D0000 		.4byte	.LASF257
 6213 0f9d 10       		.byte	0x10
 6214 0f9e 37       		.byte	0x37
 6215 0f9f 490F0000 		.4byte	0xf49
 6216 0fa3 10       		.byte	0x10
 6217 0fa4 07       		.uleb128 0x7
 6218 0fa5 8E140000 		.4byte	.LASF258
 6219 0fa9 10       		.byte	0x10
 6220 0faa 38       		.byte	0x38
 6221 0fab 17100000 		.4byte	0x1017
 6222 0faf 14       		.byte	0x14
 6223 0fb0 07       		.uleb128 0x7
 6224 0fb1 79040000 		.4byte	.LASF259
 6225 0fb5 10       		.byte	0x10
 6226 0fb6 39       		.byte	0x39
 6227 0fb7 17100000 		.4byte	0x1017
 6228 0fbb 18       		.byte	0x18
 6229 0fbc 07       		.uleb128 0x7
 6230 0fbd 00000000 		.4byte	.LASF260
 6231 0fc1 10       		.byte	0x10
 6232 0fc2 3C       		.byte	0x3c
 6233 0fc3 060F0000 		.4byte	0xf06
 6234 0fc7 1C       		.byte	0x1c
ARM GAS  C:\Users\pearlstl\AppData\Local\Temp\ccHPSyCj.s 			page 142


 6235 0fc8 07       		.uleb128 0x7
 6236 0fc9 9A000000 		.4byte	.LASF261
 6237 0fcd 10       		.byte	0x10
 6238 0fce 3D       		.byte	0x3d
 6239 0fcf 060F0000 		.4byte	0xf06
 6240 0fd3 20       		.byte	0x20
 6241 0fd4 07       		.uleb128 0x7
 6242 0fd5 E9140000 		.4byte	.LASF262
 6243 0fd9 10       		.byte	0x10
 6244 0fda 3E       		.byte	0x3e
 6245 0fdb 060F0000 		.4byte	0xf06
 6246 0fdf 24       		.byte	0x24
 6247 0fe0 07       		.uleb128 0x7
 6248 0fe1 E5030000 		.4byte	.LASF263
 6249 0fe5 10       		.byte	0x10
 6250 0fe6 3F       		.byte	0x3f
 6251 0fe7 060F0000 		.4byte	0xf06
 6252 0feb 28       		.byte	0x28
 6253 0fec 07       		.uleb128 0x7
 6254 0fed 5A0A0000 		.4byte	.LASF264
 6255 0ff1 10       		.byte	0x10
 6256 0ff2 40       		.byte	0x40
 6257 0ff3 060F0000 		.4byte	0xf06
 6258 0ff7 2C       		.byte	0x2c
 6259 0ff8 07       		.uleb128 0x7
 6260 0ff9 37040000 		.4byte	.LASF265
 6261 0ffd 10       		.byte	0x10
 6262 0ffe 41       		.byte	0x41
 6263 0fff 060F0000 		.4byte	0xf06
 6264 1003 30       		.byte	0x30
 6265 1004 07       		.uleb128 0x7
 6266 1005 64050000 		.4byte	.LASF266
 6267 1009 10       		.byte	0x10
 6268 100a 42       		.byte	0x42
 6269 100b 060F0000 		.4byte	0xf06
 6270 100f 34       		.byte	0x34
 6271 1010 00       		.byte	0
 6272 1011 0D       		.uleb128 0xd
 6273 1012 04       		.byte	0x4
 6274 1013 490F0000 		.4byte	0xf49
 6275 1017 0D       		.uleb128 0xd
 6276 1018 04       		.byte	0x4
 6277 1019 AB020000 		.4byte	0x2ab
 6278 101d 04       		.uleb128 0x4
 6279 101e 91050000 		.4byte	.LASF267
 6280 1022 10       		.byte	0x10
 6281 1023 43       		.byte	0x43
 6282 1024 540F0000 		.4byte	0xf54
 6283 1028 13       		.uleb128 0x13
 6284 1029 01       		.byte	0x1
 6285 102a 57000000 		.4byte	0x57
 6286 102e 10       		.byte	0x10
 6287 102f 46       		.byte	0x46
 6288 1030 65100000 		.4byte	0x1065
 6289 1034 14       		.uleb128 0x14
 6290 1035 8F170000 		.4byte	.LASF268
 6291 1039 00       		.byte	0
ARM GAS  C:\Users\pearlstl\AppData\Local\Temp\ccHPSyCj.s 			page 143


 6292 103a 14       		.uleb128 0x14
 6293 103b 66110000 		.4byte	.LASF269
 6294 103f 01       		.byte	0x1
 6295 1040 14       		.uleb128 0x14
 6296 1041 40100000 		.4byte	.LASF270
 6297 1045 02       		.byte	0x2
 6298 1046 14       		.uleb128 0x14
 6299 1047 45030000 		.4byte	.LASF271
 6300 104b 03       		.byte	0x3
 6301 104c 14       		.uleb128 0x14
 6302 104d 19120000 		.4byte	.LASF272
 6303 1051 04       		.byte	0x4
 6304 1052 14       		.uleb128 0x14
 6305 1053 81090000 		.4byte	.LASF273
 6306 1057 05       		.byte	0x5
 6307 1058 14       		.uleb128 0x14
 6308 1059 FE0D0000 		.4byte	.LASF274
 6309 105d 06       		.byte	0x6
 6310 105e 14       		.uleb128 0x14
 6311 105f 0D100000 		.4byte	.LASF275
 6312 1063 07       		.byte	0x7
 6313 1064 00       		.byte	0
 6314 1065 04       		.uleb128 0x4
 6315 1066 6E150000 		.4byte	.LASF276
 6316 106a 10       		.byte	0x10
 6317 106b 50       		.byte	0x50
 6318 106c B8000000 		.4byte	0xb8
 6319 1070 13       		.uleb128 0x13
 6320 1071 01       		.byte	0x1
 6321 1072 57000000 		.4byte	0x57
 6322 1076 11       		.byte	0x11
 6323 1077 2B       		.byte	0x2b
 6324 1078 9B100000 		.4byte	0x109b
 6325 107c 14       		.uleb128 0x14
 6326 107d 0E070000 		.4byte	.LASF277
 6327 1081 00       		.byte	0
 6328 1082 14       		.uleb128 0x14
 6329 1083 97040000 		.4byte	.LASF278
 6330 1087 01       		.byte	0x1
 6331 1088 14       		.uleb128 0x14
 6332 1089 360A0000 		.4byte	.LASF279
 6333 108d 02       		.byte	0x2
 6334 108e 14       		.uleb128 0x14
 6335 108f 77080000 		.4byte	.LASF280
 6336 1093 04       		.byte	0x4
 6337 1094 14       		.uleb128 0x14
 6338 1095 1E040000 		.4byte	.LASF281
 6339 1099 08       		.byte	0x8
 6340 109a 00       		.byte	0
 6341 109b 13       		.uleb128 0x13
 6342 109c 01       		.byte	0x1
 6343 109d 57000000 		.4byte	0x57
 6344 10a1 12       		.byte	0x12
 6345 10a2 1E       		.byte	0x1e
 6346 10a3 F0100000 		.4byte	0x10f0
 6347 10a7 14       		.uleb128 0x14
 6348 10a8 FF160000 		.4byte	.LASF282
ARM GAS  C:\Users\pearlstl\AppData\Local\Temp\ccHPSyCj.s 			page 144


 6349 10ac 11       		.byte	0x11
 6350 10ad 14       		.uleb128 0x14
 6351 10ae 35110000 		.4byte	.LASF283
 6352 10b2 12       		.byte	0x12
 6353 10b3 14       		.uleb128 0x14
 6354 10b4 4B000000 		.4byte	.LASF284
 6355 10b8 13       		.byte	0x13
 6356 10b9 14       		.uleb128 0x14
 6357 10ba B8040000 		.4byte	.LASF285
 6358 10be 14       		.byte	0x14
 6359 10bf 14       		.uleb128 0x14
 6360 10c0 5B110000 		.4byte	.LASF286
 6361 10c4 1B       		.byte	0x1b
 6362 10c5 14       		.uleb128 0x14
 6363 10c6 13040000 		.4byte	.LASF287
 6364 10ca 7F       		.byte	0x7f
 6365 10cb 14       		.uleb128 0x14
 6366 10cc F5050000 		.4byte	.LASF288
 6367 10d0 08       		.byte	0x8
 6368 10d1 14       		.uleb128 0x14
 6369 10d2 FB010000 		.4byte	.LASF289
 6370 10d6 0A       		.byte	0xa
 6371 10d7 14       		.uleb128 0x14
 6372 10d8 A50D0000 		.4byte	.LASF290
 6373 10dc 09       		.byte	0x9
 6374 10dd 14       		.uleb128 0x14
 6375 10de 3A130000 		.4byte	.LASF291
 6376 10e2 0B       		.byte	0xb
 6377 10e3 14       		.uleb128 0x14
 6378 10e4 B3090000 		.4byte	.LASF292
 6379 10e8 02       		.byte	0x2
 6380 10e9 14       		.uleb128 0x14
 6381 10ea F50E0000 		.4byte	.LASF293
 6382 10ee 03       		.byte	0x3
 6383 10ef 00       		.byte	0
 6384 10f0 06       		.uleb128 0x6
 6385 10f1 14       		.byte	0x14
 6386 10f2 13       		.byte	0x13
 6387 10f3 34       		.byte	0x34
 6388 10f4 34110000 		.4byte	0x1134
 6389 10f8 08       		.uleb128 0x8
 6390 10f9 72656C00 		.ascii	"rel\000"
 6391 10fd 13       		.byte	0x13
 6392 10fe 36       		.byte	0x36
 6393 10ff 54050000 		.4byte	0x554
 6394 1103 00       		.byte	0
 6395 1104 08       		.uleb128 0x8
 6396 1105 707200   		.ascii	"pr\000"
 6397 1108 13       		.byte	0x13
 6398 1109 37       		.byte	0x37
 6399 110a 54050000 		.4byte	0x554
 6400 110e 04       		.byte	0x4
 6401 110f 07       		.uleb128 0x7
 6402 1110 9B0C0000 		.4byte	.LASF294
 6403 1114 13       		.byte	0x13
 6404 1115 38       		.byte	0x38
 6405 1116 54050000 		.4byte	0x554
ARM GAS  C:\Users\pearlstl\AppData\Local\Temp\ccHPSyCj.s 			page 145


 6406 111a 08       		.byte	0x8
 6407 111b 07       		.uleb128 0x7
 6408 111c 07050000 		.4byte	.LASF295
 6409 1120 13       		.byte	0x13
 6410 1121 39       		.byte	0x39
 6411 1122 54050000 		.4byte	0x554
 6412 1126 0C       		.byte	0xc
 6413 1127 08       		.uleb128 0x8
 6414 1128 696E6100 		.ascii	"ina\000"
 6415 112c 13       		.byte	0x13
 6416 112d 3A       		.byte	0x3a
 6417 112e 54050000 		.4byte	0x554
 6418 1132 10       		.byte	0x10
 6419 1133 00       		.byte	0
 6420 1134 06       		.uleb128 0x6
 6421 1135 14       		.byte	0x14
 6422 1136 13       		.byte	0x13
 6423 1137 3F       		.byte	0x3f
 6424 1138 78110000 		.4byte	0x1178
 6425 113c 08       		.uleb128 0x8
 6426 113d 72656C00 		.ascii	"rel\000"
 6427 1141 13       		.byte	0x13
 6428 1142 41       		.byte	0x41
 6429 1143 54050000 		.4byte	0x554
 6430 1147 00       		.byte	0
 6431 1148 08       		.uleb128 0x8
 6432 1149 707200   		.ascii	"pr\000"
 6433 114c 13       		.byte	0x13
 6434 114d 42       		.byte	0x42
 6435 114e 54050000 		.4byte	0x554
 6436 1152 04       		.byte	0x4
 6437 1153 07       		.uleb128 0x7
 6438 1154 9B0C0000 		.4byte	.LASF294
 6439 1158 13       		.byte	0x13
 6440 1159 43       		.byte	0x43
 6441 115a 54050000 		.4byte	0x554
 6442 115e 08       		.byte	0x8
 6443 115f 07       		.uleb128 0x7
 6444 1160 07050000 		.4byte	.LASF295
 6445 1164 13       		.byte	0x13
 6446 1165 44       		.byte	0x44
 6447 1166 54050000 		.4byte	0x554
 6448 116a 0C       		.byte	0xc
 6449 116b 08       		.uleb128 0x8
 6450 116c 696E6100 		.ascii	"ina\000"
 6451 1170 13       		.byte	0x13
 6452 1171 45       		.byte	0x45
 6453 1172 54050000 		.4byte	0x554
 6454 1176 10       		.byte	0x10
 6455 1177 00       		.byte	0
 6456 1178 06       		.uleb128 0x6
 6457 1179 0C       		.byte	0xc
 6458 117a 13       		.byte	0x13
 6459 117b 4A       		.byte	0x4a
 6460 117c A5110000 		.4byte	0x11a5
 6461 1180 07       		.uleb128 0x7
 6462 1181 74050000 		.4byte	.LASF296
ARM GAS  C:\Users\pearlstl\AppData\Local\Temp\ccHPSyCj.s 			page 146


 6463 1185 13       		.byte	0x13
 6464 1186 4C       		.byte	0x4c
 6465 1187 54050000 		.4byte	0x554
 6466 118b 00       		.byte	0
 6467 118c 08       		.uleb128 0x8
 6468 118d 73656300 		.ascii	"sec\000"
 6469 1191 13       		.byte	0x13
 6470 1192 4D       		.byte	0x4d
 6471 1193 54050000 		.4byte	0x554
 6472 1197 04       		.byte	0x4
 6473 1198 07       		.uleb128 0x7
 6474 1199 C6090000 		.4byte	.LASF297
 6475 119d 13       		.byte	0x13
 6476 119e 4E       		.byte	0x4e
 6477 119f 54050000 		.4byte	0x554
 6478 11a3 08       		.byte	0x8
 6479 11a4 00       		.byte	0
 6480 11a5 06       		.uleb128 0x6
 6481 11a6 08       		.byte	0x8
 6482 11a7 13       		.byte	0x13
 6483 11a8 53       		.byte	0x53
 6484 11a9 C6110000 		.4byte	0x11c6
 6485 11ad 07       		.uleb128 0x7
 6486 11ae 77020000 		.4byte	.LASF298
 6487 11b2 13       		.byte	0x13
 6488 11b3 55       		.byte	0x55
 6489 11b4 54050000 		.4byte	0x554
 6490 11b8 00       		.byte	0
 6491 11b9 07       		.uleb128 0x7
 6492 11ba B7150000 		.4byte	.LASF299
 6493 11be 13       		.byte	0x13
 6494 11bf 56       		.byte	0x56
 6495 11c0 54050000 		.4byte	0x554
 6496 11c4 04       		.byte	0x4
 6497 11c5 00       		.byte	0
 6498 11c6 06       		.uleb128 0x6
 6499 11c7 04       		.byte	0x4
 6500 11c8 13       		.byte	0x13
 6501 11c9 5B       		.byte	0x5b
 6502 11ca DB110000 		.4byte	0x11db
 6503 11ce 07       		.uleb128 0x7
 6504 11cf AA110000 		.4byte	.LASF300
 6505 11d3 13       		.byte	0x13
 6506 11d4 5D       		.byte	0x5d
 6507 11d5 54050000 		.4byte	0x554
 6508 11d9 00       		.byte	0
 6509 11da 00       		.byte	0
 6510 11db 06       		.uleb128 0x6
 6511 11dc 08       		.byte	0x8
 6512 11dd 13       		.byte	0x13
 6513 11de 66       		.byte	0x66
 6514 11df FB110000 		.4byte	0x11fb
 6515 11e3 08       		.uleb128 0x8
 6516 11e4 626700   		.ascii	"bg\000"
 6517 11e7 13       		.byte	0x13
 6518 11e8 68       		.byte	0x68
 6519 11e9 54050000 		.4byte	0x554
ARM GAS  C:\Users\pearlstl\AppData\Local\Temp\ccHPSyCj.s 			page 147


 6520 11ed 00       		.byte	0
 6521 11ee 07       		.uleb128 0x7
 6522 11ef 990B0000 		.4byte	.LASF301
 6523 11f3 13       		.byte	0x13
 6524 11f4 69       		.byte	0x69
 6525 11f5 54050000 		.4byte	0x554
 6526 11f9 04       		.byte	0x4
 6527 11fa 00       		.byte	0
 6528 11fb 06       		.uleb128 0x6
 6529 11fc 0C       		.byte	0xc
 6530 11fd 13       		.byte	0x13
 6531 11fe 6E       		.byte	0x6e
 6532 11ff 27120000 		.4byte	0x1227
 6533 1203 08       		.uleb128 0x8
 6534 1204 626700   		.ascii	"bg\000"
 6535 1207 13       		.byte	0x13
 6536 1208 70       		.byte	0x70
 6537 1209 54050000 		.4byte	0x554
 6538 120d 00       		.byte	0
 6539 120e 07       		.uleb128 0x7
 6540 120f 990B0000 		.4byte	.LASF301
 6541 1213 13       		.byte	0x13
 6542 1214 71       		.byte	0x71
 6543 1215 54050000 		.4byte	0x554
 6544 1219 04       		.byte	0x4
 6545 121a 07       		.uleb128 0x7
 6546 121b FA160000 		.4byte	.LASF302
 6547 121f 13       		.byte	0x13
 6548 1220 72       		.byte	0x72
 6549 1221 54050000 		.4byte	0x554
 6550 1225 08       		.byte	0x8
 6551 1226 00       		.byte	0
 6552 1227 06       		.uleb128 0x6
 6553 1228 10       		.byte	0x10
 6554 1229 13       		.byte	0x13
 6555 122a 87       		.byte	0x87
 6556 122b 5F120000 		.4byte	0x125f
 6557 122f 08       		.uleb128 0x8
 6558 1230 626700   		.ascii	"bg\000"
 6559 1233 13       		.byte	0x13
 6560 1234 89       		.byte	0x89
 6561 1235 54050000 		.4byte	0x554
 6562 1239 00       		.byte	0
 6563 123a 07       		.uleb128 0x7
 6564 123b 990B0000 		.4byte	.LASF301
 6565 123f 13       		.byte	0x13
 6566 1240 8A       		.byte	0x8a
 6567 1241 54050000 		.4byte	0x554
 6568 1245 04       		.byte	0x4
 6569 1246 07       		.uleb128 0x7
 6570 1247 750D0000 		.4byte	.LASF303
 6571 124b 13       		.byte	0x13
 6572 124c 8B       		.byte	0x8b
 6573 124d 54050000 		.4byte	0x554
 6574 1251 08       		.byte	0x8
 6575 1252 07       		.uleb128 0x7
 6576 1253 E1050000 		.4byte	.LASF304
ARM GAS  C:\Users\pearlstl\AppData\Local\Temp\ccHPSyCj.s 			page 148


 6577 1257 13       		.byte	0x13
 6578 1258 8C       		.byte	0x8c
 6579 1259 54050000 		.4byte	0x554
 6580 125d 0C       		.byte	0xc
 6581 125e 00       		.byte	0
 6582 125f 06       		.uleb128 0x6
 6583 1260 20       		.byte	0x20
 6584 1261 13       		.byte	0x13
 6585 1262 95       		.byte	0x95
 6586 1263 C7120000 		.4byte	0x12c7
 6587 1267 08       		.uleb128 0x8
 6588 1268 626700   		.ascii	"bg\000"
 6589 126b 13       		.byte	0x13
 6590 126c 97       		.byte	0x97
 6591 126d 54050000 		.4byte	0x554
 6592 1271 00       		.byte	0
 6593 1272 07       		.uleb128 0x7
 6594 1273 06060000 		.4byte	.LASF305
 6595 1277 13       		.byte	0x13
 6596 1278 98       		.byte	0x98
 6597 1279 54050000 		.4byte	0x554
 6598 127d 04       		.byte	0x4
 6599 127e 07       		.uleb128 0x7
 6600 127f 38000000 		.4byte	.LASF306
 6601 1283 13       		.byte	0x13
 6602 1284 99       		.byte	0x99
 6603 1285 54050000 		.4byte	0x554
 6604 1289 08       		.byte	0x8
 6605 128a 07       		.uleb128 0x7
 6606 128b 8E140000 		.4byte	.LASF258
 6607 128f 13       		.byte	0x13
 6608 1290 9A       		.byte	0x9a
 6609 1291 54050000 		.4byte	0x554
 6610 1295 0C       		.byte	0xc
 6611 1296 07       		.uleb128 0x7
 6612 1297 98010000 		.4byte	.LASF307
 6613 129b 13       		.byte	0x13
 6614 129c 9B       		.byte	0x9b
 6615 129d 54050000 		.4byte	0x554
 6616 12a1 10       		.byte	0x10
 6617 12a2 07       		.uleb128 0x7
 6618 12a3 BE100000 		.4byte	.LASF308
 6619 12a7 13       		.byte	0x13
 6620 12a8 9C       		.byte	0x9c
 6621 12a9 54050000 		.4byte	0x554
 6622 12ad 14       		.byte	0x14
 6623 12ae 07       		.uleb128 0x7
 6624 12af B8060000 		.4byte	.LASF309
 6625 12b3 13       		.byte	0x13
 6626 12b4 9D       		.byte	0x9d
 6627 12b5 54050000 		.4byte	0x554
 6628 12b9 18       		.byte	0x18
 6629 12ba 07       		.uleb128 0x7
 6630 12bb FD040000 		.4byte	.LASF310
 6631 12bf 13       		.byte	0x13
 6632 12c0 9E       		.byte	0x9e
 6633 12c1 54050000 		.4byte	0x554
ARM GAS  C:\Users\pearlstl\AppData\Local\Temp\ccHPSyCj.s 			page 149


 6634 12c5 1C       		.byte	0x1c
 6635 12c6 00       		.byte	0
 6636 12c7 06       		.uleb128 0x6
 6637 12c8 14       		.byte	0x14
 6638 12c9 13       		.byte	0x13
 6639 12ca A6       		.byte	0xa6
 6640 12cb 0B130000 		.4byte	0x130b
 6641 12cf 08       		.uleb128 0x8
 6642 12d0 72656C00 		.ascii	"rel\000"
 6643 12d4 13       		.byte	0x13
 6644 12d5 A8       		.byte	0xa8
 6645 12d6 54050000 		.4byte	0x554
 6646 12da 00       		.byte	0
 6647 12db 08       		.uleb128 0x8
 6648 12dc 707200   		.ascii	"pr\000"
 6649 12df 13       		.byte	0x13
 6650 12e0 A9       		.byte	0xa9
 6651 12e1 54050000 		.4byte	0x554
 6652 12e5 04       		.byte	0x4
 6653 12e6 07       		.uleb128 0x7
 6654 12e7 9B0C0000 		.4byte	.LASF294
 6655 12eb 13       		.byte	0x13
 6656 12ec AA       		.byte	0xaa
 6657 12ed 54050000 		.4byte	0x554
 6658 12f1 08       		.byte	0x8
 6659 12f2 07       		.uleb128 0x7
 6660 12f3 07050000 		.4byte	.LASF295
 6661 12f7 13       		.byte	0x13
 6662 12f8 AB       		.byte	0xab
 6663 12f9 54050000 		.4byte	0x554
 6664 12fd 0C       		.byte	0xc
 6665 12fe 08       		.uleb128 0x8
 6666 12ff 696E6100 		.ascii	"ina\000"
 6667 1303 13       		.byte	0x13
 6668 1304 AC       		.byte	0xac
 6669 1305 54050000 		.4byte	0x554
 6670 1309 10       		.byte	0x10
 6671 130a 00       		.byte	0
 6672 130b 06       		.uleb128 0x6
 6673 130c 18       		.byte	0x18
 6674 130d 13       		.byte	0x13
 6675 130e A3       		.byte	0xa3
 6676 130f 2B130000 		.4byte	0x132b
 6677 1313 08       		.uleb128 0x8
 6678 1314 626700   		.ascii	"bg\000"
 6679 1317 13       		.byte	0x13
 6680 1318 A5       		.byte	0xa5
 6681 1319 54050000 		.4byte	0x554
 6682 131d 00       		.byte	0
 6683 131e 08       		.uleb128 0x8
 6684 131f 626F7800 		.ascii	"box\000"
 6685 1323 13       		.byte	0x13
 6686 1324 AD       		.byte	0xad
 6687 1325 C7120000 		.4byte	0x12c7
 6688 1329 04       		.byte	0x4
 6689 132a 00       		.byte	0
 6690 132b 06       		.uleb128 0x6
ARM GAS  C:\Users\pearlstl\AppData\Local\Temp\ccHPSyCj.s 			page 150


 6691 132c 14       		.byte	0x14
 6692 132d 13       		.byte	0x13
 6693 132e B5       		.byte	0xb5
 6694 132f 6F130000 		.4byte	0x136f
 6695 1333 08       		.uleb128 0x8
 6696 1334 72656C00 		.ascii	"rel\000"
 6697 1338 13       		.byte	0x13
 6698 1339 B7       		.byte	0xb7
 6699 133a 54050000 		.4byte	0x554
 6700 133e 00       		.byte	0
 6701 133f 08       		.uleb128 0x8
 6702 1340 707200   		.ascii	"pr\000"
 6703 1343 13       		.byte	0x13
 6704 1344 B8       		.byte	0xb8
 6705 1345 54050000 		.4byte	0x554
 6706 1349 04       		.byte	0x4
 6707 134a 07       		.uleb128 0x7
 6708 134b 9B0C0000 		.4byte	.LASF294
 6709 134f 13       		.byte	0x13
 6710 1350 B9       		.byte	0xb9
 6711 1351 54050000 		.4byte	0x554
 6712 1355 08       		.byte	0x8
 6713 1356 07       		.uleb128 0x7
 6714 1357 07050000 		.4byte	.LASF295
 6715 135b 13       		.byte	0x13
 6716 135c BA       		.byte	0xba
 6717 135d 54050000 		.4byte	0x554
 6718 1361 0C       		.byte	0xc
 6719 1362 08       		.uleb128 0x8
 6720 1363 696E6100 		.ascii	"ina\000"
 6721 1367 13       		.byte	0x13
 6722 1368 BB       		.byte	0xbb
 6723 1369 54050000 		.4byte	0x554
 6724 136d 10       		.byte	0x10
 6725 136e 00       		.byte	0
 6726 136f 06       		.uleb128 0x6
 6727 1370 18       		.byte	0x18
 6728 1371 13       		.byte	0x13
 6729 1372 B2       		.byte	0xb2
 6730 1373 8F130000 		.4byte	0x138f
 6731 1377 08       		.uleb128 0x8
 6732 1378 626700   		.ascii	"bg\000"
 6733 137b 13       		.byte	0x13
 6734 137c B4       		.byte	0xb4
 6735 137d 54050000 		.4byte	0x554
 6736 1381 00       		.byte	0
 6737 1382 08       		.uleb128 0x8
 6738 1383 62746E00 		.ascii	"btn\000"
 6739 1387 13       		.byte	0x13
 6740 1388 BC       		.byte	0xbc
 6741 1389 2B130000 		.4byte	0x132b
 6742 138d 04       		.byte	0x4
 6743 138e 00       		.byte	0
 6744 138f 06       		.uleb128 0x6
 6745 1390 14       		.byte	0x14
 6746 1391 13       		.byte	0x13
 6747 1392 C4       		.byte	0xc4
ARM GAS  C:\Users\pearlstl\AppData\Local\Temp\ccHPSyCj.s 			page 151


 6748 1393 D3130000 		.4byte	0x13d3
 6749 1397 08       		.uleb128 0x8
 6750 1398 72656C00 		.ascii	"rel\000"
 6751 139c 13       		.byte	0x13
 6752 139d C6       		.byte	0xc6
 6753 139e 54050000 		.4byte	0x554
 6754 13a2 00       		.byte	0
 6755 13a3 08       		.uleb128 0x8
 6756 13a4 707200   		.ascii	"pr\000"
 6757 13a7 13       		.byte	0x13
 6758 13a8 C7       		.byte	0xc7
 6759 13a9 54050000 		.4byte	0x554
 6760 13ad 04       		.byte	0x4
 6761 13ae 07       		.uleb128 0x7
 6762 13af 9B0C0000 		.4byte	.LASF294
 6763 13b3 13       		.byte	0x13
 6764 13b4 C8       		.byte	0xc8
 6765 13b5 54050000 		.4byte	0x554
 6766 13b9 08       		.byte	0x8
 6767 13ba 07       		.uleb128 0x7
 6768 13bb 07050000 		.4byte	.LASF295
 6769 13bf 13       		.byte	0x13
 6770 13c0 C9       		.byte	0xc9
 6771 13c1 54050000 		.4byte	0x554
 6772 13c5 0C       		.byte	0xc
 6773 13c6 08       		.uleb128 0x8
 6774 13c7 696E6100 		.ascii	"ina\000"
 6775 13cb 13       		.byte	0x13
 6776 13cc CA       		.byte	0xca
 6777 13cd 54050000 		.4byte	0x554
 6778 13d1 10       		.byte	0x10
 6779 13d2 00       		.byte	0
 6780 13d3 06       		.uleb128 0x6
 6781 13d4 18       		.byte	0x18
 6782 13d5 13       		.byte	0x13
 6783 13d6 C1       		.byte	0xc1
 6784 13d7 F3130000 		.4byte	0x13f3
 6785 13db 08       		.uleb128 0x8
 6786 13dc 626700   		.ascii	"bg\000"
 6787 13df 13       		.byte	0x13
 6788 13e0 C3       		.byte	0xc3
 6789 13e1 54050000 		.4byte	0x554
 6790 13e5 00       		.byte	0
 6791 13e6 08       		.uleb128 0x8
 6792 13e7 62746E00 		.ascii	"btn\000"
 6793 13eb 13       		.byte	0x13
 6794 13ec CB       		.byte	0xcb
 6795 13ed 8F130000 		.4byte	0x138f
 6796 13f1 04       		.byte	0x4
 6797 13f2 00       		.byte	0
 6798 13f3 06       		.uleb128 0x6
 6799 13f4 0C       		.byte	0xc
 6800 13f5 13       		.byte	0x13
 6801 13f6 D3       		.byte	0xd3
 6802 13f7 1E140000 		.4byte	0x141e
 6803 13fb 08       		.uleb128 0x8
 6804 13fc 626700   		.ascii	"bg\000"
ARM GAS  C:\Users\pearlstl\AppData\Local\Temp\ccHPSyCj.s 			page 152


 6805 13ff 13       		.byte	0x13
 6806 1400 D5       		.byte	0xd5
 6807 1401 54050000 		.4byte	0x554
 6808 1405 00       		.byte	0
 6809 1406 08       		.uleb128 0x8
 6810 1407 72656C00 		.ascii	"rel\000"
 6811 140b 13       		.byte	0x13
 6812 140c D6       		.byte	0xd6
 6813 140d 54050000 		.4byte	0x554
 6814 1411 04       		.byte	0x4
 6815 1412 08       		.uleb128 0x8
 6816 1413 707200   		.ascii	"pr\000"
 6817 1416 13       		.byte	0x13
 6818 1417 D7       		.byte	0xd7
 6819 1418 54050000 		.4byte	0x554
 6820 141c 08       		.byte	0x8
 6821 141d 00       		.byte	0
 6822 141e 06       		.uleb128 0x6
 6823 141f 10       		.byte	0x10
 6824 1420 13       		.byte	0x13
 6825 1421 D0       		.byte	0xd0
 6826 1422 3E140000 		.4byte	0x143e
 6827 1426 08       		.uleb128 0x8
 6828 1427 626700   		.ascii	"bg\000"
 6829 142a 13       		.byte	0x13
 6830 142b D2       		.byte	0xd2
 6831 142c 54050000 		.4byte	0x554
 6832 1430 00       		.byte	0
 6833 1431 08       		.uleb128 0x8
 6834 1432 62746E00 		.ascii	"btn\000"
 6835 1436 13       		.byte	0x13
 6836 1437 D8       		.byte	0xd8
 6837 1438 F3130000 		.4byte	0x13f3
 6838 143c 04       		.byte	0x4
 6839 143d 00       		.byte	0
 6840 143e 06       		.uleb128 0x6
 6841 143f 0C       		.byte	0xc
 6842 1440 13       		.byte	0x13
 6843 1441 DD       		.byte	0xdd
 6844 1442 69140000 		.4byte	0x1469
 6845 1446 08       		.uleb128 0x8
 6846 1447 626700   		.ascii	"bg\000"
 6847 144a 13       		.byte	0x13
 6848 144b DF       		.byte	0xdf
 6849 144c 54050000 		.4byte	0x554
 6850 1450 00       		.byte	0
 6851 1451 07       		.uleb128 0x7
 6852 1452 24050000 		.4byte	.LASF311
 6853 1456 13       		.byte	0x13
 6854 1457 E0       		.byte	0xe0
 6855 1458 54050000 		.4byte	0x554
 6856 145c 04       		.byte	0x4
 6857 145d 08       		.uleb128 0x8
 6858 145e 736200   		.ascii	"sb\000"
 6859 1461 13       		.byte	0x13
 6860 1462 E1       		.byte	0xe1
 6861 1463 54050000 		.4byte	0x554
ARM GAS  C:\Users\pearlstl\AppData\Local\Temp\ccHPSyCj.s 			page 153


 6862 1467 08       		.byte	0x8
 6863 1468 00       		.byte	0
 6864 1469 06       		.uleb128 0x6
 6865 146a 10       		.byte	0x10
 6866 146b 13       		.byte	0x13
 6867 146c E6       		.byte	0xe6
 6868 146d A1140000 		.4byte	0x14a1
 6869 1471 07       		.uleb128 0x7
 6870 1472 47090000 		.4byte	.LASF98
 6871 1476 13       		.byte	0x13
 6872 1477 E8       		.byte	0xe8
 6873 1478 54050000 		.4byte	0x554
 6874 147c 00       		.byte	0
 6875 147d 07       		.uleb128 0x7
 6876 147e EC0A0000 		.4byte	.LASF312
 6877 1482 13       		.byte	0x13
 6878 1483 E9       		.byte	0xe9
 6879 1484 54050000 		.4byte	0x554
 6880 1488 04       		.byte	0x4
 6881 1489 07       		.uleb128 0x7
 6882 148a 5B170000 		.4byte	.LASF186
 6883 148e 13       		.byte	0x13
 6884 148f EA       		.byte	0xea
 6885 1490 54050000 		.4byte	0x554
 6886 1494 08       		.byte	0x8
 6887 1495 08       		.uleb128 0x8
 6888 1496 736200   		.ascii	"sb\000"
 6889 1499 13       		.byte	0x13
 6890 149a EB       		.byte	0xeb
 6891 149b 54050000 		.4byte	0x554
 6892 149f 0C       		.byte	0xc
 6893 14a0 00       		.byte	0
 6894 14a1 06       		.uleb128 0x6
 6895 14a2 0C       		.byte	0xc
 6896 14a3 13       		.byte	0x13
 6897 14a4 F0       		.byte	0xf0
 6898 14a5 CC140000 		.4byte	0x14cc
 6899 14a9 08       		.uleb128 0x8
 6900 14aa 626700   		.ascii	"bg\000"
 6901 14ad 13       		.byte	0x13
 6902 14ae F2       		.byte	0xf2
 6903 14af 54050000 		.4byte	0x554
 6904 14b3 00       		.byte	0
 6905 14b4 07       		.uleb128 0x7
 6906 14b5 5B170000 		.4byte	.LASF186
 6907 14b9 13       		.byte	0x13
 6908 14ba F3       		.byte	0xf3
 6909 14bb 54050000 		.4byte	0x554
 6910 14bf 04       		.byte	0x4
 6911 14c0 08       		.uleb128 0x8
 6912 14c1 736200   		.ascii	"sb\000"
 6913 14c4 13       		.byte	0x13
 6914 14c5 F4       		.byte	0xf4
 6915 14c6 54050000 		.4byte	0x554
 6916 14ca 08       		.byte	0x8
 6917 14cb 00       		.byte	0
 6918 14cc 06       		.uleb128 0x6
ARM GAS  C:\Users\pearlstl\AppData\Local\Temp\ccHPSyCj.s 			page 154


 6919 14cd 14       		.byte	0x14
 6920 14ce 13       		.byte	0x13
 6921 14cf FE       		.byte	0xfe
 6922 14d0 15150000 		.4byte	0x1515
 6923 14d4 1E       		.uleb128 0x1e
 6924 14d5 72656C00 		.ascii	"rel\000"
 6925 14d9 13       		.byte	0x13
 6926 14da 0001     		.2byte	0x100
 6927 14dc 54050000 		.4byte	0x554
 6928 14e0 00       		.byte	0
 6929 14e1 1E       		.uleb128 0x1e
 6930 14e2 707200   		.ascii	"pr\000"
 6931 14e5 13       		.byte	0x13
 6932 14e6 0101     		.2byte	0x101
 6933 14e8 54050000 		.4byte	0x554
 6934 14ec 04       		.byte	0x4
 6935 14ed 1F       		.uleb128 0x1f
 6936 14ee 9B0C0000 		.4byte	.LASF294
 6937 14f2 13       		.byte	0x13
 6938 14f3 0201     		.2byte	0x102
 6939 14f5 54050000 		.4byte	0x554
 6940 14f9 08       		.byte	0x8
 6941 14fa 1F       		.uleb128 0x1f
 6942 14fb 07050000 		.4byte	.LASF295
 6943 14ff 13       		.byte	0x13
 6944 1500 0301     		.2byte	0x103
 6945 1502 54050000 		.4byte	0x554
 6946 1506 0C       		.byte	0xc
 6947 1507 1E       		.uleb128 0x1e
 6948 1508 696E6100 		.ascii	"ina\000"
 6949 150c 13       		.byte	0x13
 6950 150d 0401     		.2byte	0x104
 6951 150f 54050000 		.4byte	0x554
 6952 1513 10       		.byte	0x10
 6953 1514 00       		.byte	0
 6954 1515 06       		.uleb128 0x6
 6955 1516 20       		.byte	0x20
 6956 1517 13       		.byte	0x13
 6957 1518 F9       		.byte	0xf9
 6958 1519 4D150000 		.4byte	0x154d
 6959 151d 08       		.uleb128 0x8
 6960 151e 626700   		.ascii	"bg\000"
 6961 1521 13       		.byte	0x13
 6962 1522 FB       		.byte	0xfb
 6963 1523 54050000 		.4byte	0x554
 6964 1527 00       		.byte	0
 6965 1528 07       		.uleb128 0x7
 6966 1529 24050000 		.4byte	.LASF311
 6967 152d 13       		.byte	0x13
 6968 152e FC       		.byte	0xfc
 6969 152f 54050000 		.4byte	0x554
 6970 1533 04       		.byte	0x4
 6971 1534 08       		.uleb128 0x8
 6972 1535 736200   		.ascii	"sb\000"
 6973 1538 13       		.byte	0x13
 6974 1539 FD       		.byte	0xfd
 6975 153a 54050000 		.4byte	0x554
ARM GAS  C:\Users\pearlstl\AppData\Local\Temp\ccHPSyCj.s 			page 155


 6976 153e 08       		.byte	0x8
 6977 153f 1E       		.uleb128 0x1e
 6978 1540 62746E00 		.ascii	"btn\000"
 6979 1544 13       		.byte	0x13
 6980 1545 0501     		.2byte	0x105
 6981 1547 CC140000 		.4byte	0x14cc
 6982 154b 0C       		.byte	0xc
 6983 154c 00       		.byte	0
 6984 154d 20       		.uleb128 0x20
 6985 154e 0C       		.byte	0xc
 6986 154f 13       		.byte	0x13
 6987 1550 0A01     		.2byte	0x10a
 6988 1552 7C150000 		.4byte	0x157c
 6989 1556 1E       		.uleb128 0x1e
 6990 1557 626700   		.ascii	"bg\000"
 6991 155a 13       		.byte	0x13
 6992 155b 0C01     		.2byte	0x10c
 6993 155d 54050000 		.4byte	0x554
 6994 1561 00       		.byte	0
 6995 1562 1E       		.uleb128 0x1e
 6996 1563 73656C00 		.ascii	"sel\000"
 6997 1567 13       		.byte	0x13
 6998 1568 0D01     		.2byte	0x10d
 6999 156a 54050000 		.4byte	0x554
 7000 156e 04       		.byte	0x4
 7001 156f 1E       		.uleb128 0x1e
 7002 1570 736200   		.ascii	"sb\000"
 7003 1573 13       		.byte	0x13
 7004 1574 0E01     		.2byte	0x10e
 7005 1576 54050000 		.4byte	0x554
 7006 157a 08       		.byte	0x8
 7007 157b 00       		.byte	0
 7008 157c 20       		.uleb128 0x20
 7009 157d 08       		.byte	0x8
 7010 157e 13       		.byte	0x13
 7011 157f 1301     		.2byte	0x113
 7012 1581 9F150000 		.4byte	0x159f
 7013 1585 1E       		.uleb128 0x1e
 7014 1586 626700   		.ascii	"bg\000"
 7015 1589 13       		.byte	0x13
 7016 158a 1501     		.2byte	0x115
 7017 158c 54050000 		.4byte	0x554
 7018 1590 00       		.byte	0
 7019 1591 1E       		.uleb128 0x1e
 7020 1592 73656C00 		.ascii	"sel\000"
 7021 1596 13       		.byte	0x13
 7022 1597 1601     		.2byte	0x116
 7023 1599 54050000 		.4byte	0x554
 7024 159d 04       		.byte	0x4
 7025 159e 00       		.byte	0
 7026 159f 20       		.uleb128 0x20
 7027 15a0 14       		.byte	0x14
 7028 15a1 13       		.byte	0x13
 7029 15a2 1F01     		.2byte	0x11f
 7030 15a4 E8150000 		.4byte	0x15e8
 7031 15a8 1E       		.uleb128 0x1e
 7032 15a9 626700   		.ascii	"bg\000"
ARM GAS  C:\Users\pearlstl\AppData\Local\Temp\ccHPSyCj.s 			page 156


 7033 15ac 13       		.byte	0x13
 7034 15ad 2101     		.2byte	0x121
 7035 15af 54050000 		.4byte	0x554
 7036 15b3 00       		.byte	0
 7037 15b4 1E       		.uleb128 0x1e
 7038 15b5 72656C00 		.ascii	"rel\000"
 7039 15b9 13       		.byte	0x13
 7040 15ba 2201     		.2byte	0x122
 7041 15bc 54050000 		.4byte	0x554
 7042 15c0 04       		.byte	0x4
 7043 15c1 1E       		.uleb128 0x1e
 7044 15c2 707200   		.ascii	"pr\000"
 7045 15c5 13       		.byte	0x13
 7046 15c6 2301     		.2byte	0x123
 7047 15c8 54050000 		.4byte	0x554
 7048 15cc 08       		.byte	0x8
 7049 15cd 1F       		.uleb128 0x1f
 7050 15ce 9B0C0000 		.4byte	.LASF294
 7051 15d2 13       		.byte	0x13
 7052 15d3 2401     		.2byte	0x124
 7053 15d5 54050000 		.4byte	0x554
 7054 15d9 0C       		.byte	0xc
 7055 15da 1F       		.uleb128 0x1f
 7056 15db 07050000 		.4byte	.LASF295
 7057 15df 13       		.byte	0x13
 7058 15e0 2501     		.2byte	0x125
 7059 15e2 54050000 		.4byte	0x554
 7060 15e6 10       		.byte	0x10
 7061 15e7 00       		.byte	0
 7062 15e8 20       		.uleb128 0x20
 7063 15e9 1C       		.byte	0x1c
 7064 15ea 13       		.byte	0x13
 7065 15eb 1B01     		.2byte	0x11b
 7066 15ed 18160000 		.4byte	0x1618
 7067 15f1 1E       		.uleb128 0x1e
 7068 15f2 626700   		.ascii	"bg\000"
 7069 15f5 13       		.byte	0x13
 7070 15f6 1D01     		.2byte	0x11d
 7071 15f8 54050000 		.4byte	0x554
 7072 15fc 00       		.byte	0
 7073 15fd 1F       		.uleb128 0x1f
 7074 15fe 990B0000 		.4byte	.LASF301
 7075 1602 13       		.byte	0x13
 7076 1603 1E01     		.2byte	0x11e
 7077 1605 54050000 		.4byte	0x554
 7078 1609 04       		.byte	0x4
 7079 160a 1E       		.uleb128 0x1e
 7080 160b 62746E00 		.ascii	"btn\000"
 7081 160f 13       		.byte	0x13
 7082 1610 2601     		.2byte	0x126
 7083 1612 9F150000 		.4byte	0x159f
 7084 1616 08       		.byte	0x8
 7085 1617 00       		.byte	0
 7086 1618 20       		.uleb128 0x20
 7087 1619 0C       		.byte	0xc
 7088 161a 13       		.byte	0x13
 7089 161b 2B01     		.2byte	0x12b
ARM GAS  C:\Users\pearlstl\AppData\Local\Temp\ccHPSyCj.s 			page 157


 7090 161d 47160000 		.4byte	0x1647
 7091 1621 1E       		.uleb128 0x1e
 7092 1622 626700   		.ascii	"bg\000"
 7093 1625 13       		.byte	0x13
 7094 1626 2D01     		.2byte	0x12d
 7095 1628 54050000 		.4byte	0x554
 7096 162c 00       		.byte	0
 7097 162d 1F       		.uleb128 0x1f
 7098 162e 24050000 		.4byte	.LASF311
 7099 1632 13       		.byte	0x13
 7100 1633 2E01     		.2byte	0x12e
 7101 1635 54050000 		.4byte	0x554
 7102 1639 04       		.byte	0x4
 7103 163a 1E       		.uleb128 0x1e
 7104 163b 736200   		.ascii	"sb\000"
 7105 163e 13       		.byte	0x13
 7106 163f 2F01     		.2byte	0x12f
 7107 1641 54050000 		.4byte	0x554
 7108 1645 08       		.byte	0x8
 7109 1646 00       		.byte	0
 7110 1647 20       		.uleb128 0x20
 7111 1648 08       		.byte	0x8
 7112 1649 13       		.byte	0x13
 7113 164a 3401     		.2byte	0x134
 7114 164c 6A160000 		.4byte	0x166a
 7115 1650 1E       		.uleb128 0x1e
 7116 1651 626700   		.ascii	"bg\000"
 7117 1654 13       		.byte	0x13
 7118 1655 3601     		.2byte	0x136
 7119 1657 54050000 		.4byte	0x554
 7120 165b 00       		.byte	0
 7121 165c 1F       		.uleb128 0x1f
 7122 165d 65000000 		.4byte	.LASF313
 7123 1661 13       		.byte	0x13
 7124 1662 3701     		.2byte	0x137
 7125 1664 54050000 		.4byte	0x554
 7126 1668 04       		.byte	0x4
 7127 1669 00       		.byte	0
 7128 166a 20       		.uleb128 0x20
 7129 166b 08       		.byte	0x8
 7130 166c 13       		.byte	0x13
 7131 166d 4201     		.2byte	0x142
 7132 166f 8D160000 		.4byte	0x168d
 7133 1673 1E       		.uleb128 0x1e
 7134 1674 72656C00 		.ascii	"rel\000"
 7135 1678 13       		.byte	0x13
 7136 1679 4401     		.2byte	0x144
 7137 167b 54050000 		.4byte	0x554
 7138 167f 00       		.byte	0
 7139 1680 1E       		.uleb128 0x1e
 7140 1681 707200   		.ascii	"pr\000"
 7141 1684 13       		.byte	0x13
 7142 1685 4501     		.2byte	0x145
 7143 1687 54050000 		.4byte	0x554
 7144 168b 04       		.byte	0x4
 7145 168c 00       		.byte	0
 7146 168d 20       		.uleb128 0x20
ARM GAS  C:\Users\pearlstl\AppData\Local\Temp\ccHPSyCj.s 			page 158


 7147 168e 18       		.byte	0x18
 7148 168f 13       		.byte	0x13
 7149 1690 3C01     		.2byte	0x13c
 7150 1692 D6160000 		.4byte	0x16d6
 7151 1696 1E       		.uleb128 0x1e
 7152 1697 626700   		.ascii	"bg\000"
 7153 169a 13       		.byte	0x13
 7154 169b 3E01     		.2byte	0x13e
 7155 169d 54050000 		.4byte	0x554
 7156 16a1 00       		.byte	0
 7157 16a2 1E       		.uleb128 0x1e
 7158 16a3 736200   		.ascii	"sb\000"
 7159 16a6 13       		.byte	0x13
 7160 16a7 3F01     		.2byte	0x13f
 7161 16a9 54050000 		.4byte	0x554
 7162 16ad 04       		.byte	0x4
 7163 16ae 1F       		.uleb128 0x1f
 7164 16af 06060000 		.4byte	.LASF305
 7165 16b3 13       		.byte	0x13
 7166 16b4 4001     		.2byte	0x140
 7167 16b6 54050000 		.4byte	0x554
 7168 16ba 08       		.byte	0x8
 7169 16bb 1F       		.uleb128 0x1f
 7170 16bc 5E150000 		.4byte	.LASF314
 7171 16c0 13       		.byte	0x13
 7172 16c1 4101     		.2byte	0x141
 7173 16c3 54050000 		.4byte	0x554
 7174 16c7 0C       		.byte	0xc
 7175 16c8 1E       		.uleb128 0x1e
 7176 16c9 62746E00 		.ascii	"btn\000"
 7177 16cd 13       		.byte	0x13
 7178 16ce 4601     		.2byte	0x146
 7179 16d0 6A160000 		.4byte	0x166a
 7180 16d4 10       		.byte	0x10
 7181 16d5 00       		.byte	0
 7182 16d6 21       		.uleb128 0x21
 7183 16d7 A801     		.2byte	0x1a8
 7184 16d9 13       		.byte	0x13
 7185 16da 29       		.byte	0x29
 7186 16db 78180000 		.4byte	0x1878
 7187 16df 08       		.uleb128 0x8
 7188 16e0 73637200 		.ascii	"scr\000"
 7189 16e4 13       		.byte	0x13
 7190 16e5 2B       		.byte	0x2b
 7191 16e6 54050000 		.4byte	0x554
 7192 16ea 00       		.byte	0
 7193 16eb 08       		.uleb128 0x8
 7194 16ec 626700   		.ascii	"bg\000"
 7195 16ef 13       		.byte	0x13
 7196 16f0 2C       		.byte	0x2c
 7197 16f1 54050000 		.4byte	0x554
 7198 16f5 04       		.byte	0x4
 7199 16f6 07       		.uleb128 0x7
 7200 16f7 D6110000 		.4byte	.LASF315
 7201 16fb 13       		.byte	0x13
 7202 16fc 2D       		.byte	0x2d
 7203 16fd 54050000 		.4byte	0x554
ARM GAS  C:\Users\pearlstl\AppData\Local\Temp\ccHPSyCj.s 			page 159


 7204 1701 08       		.byte	0x8
 7205 1702 07       		.uleb128 0x7
 7206 1703 8D020000 		.4byte	.LASF316
 7207 1707 13       		.byte	0x13
 7208 1708 30       		.byte	0x30
 7209 1709 54050000 		.4byte	0x554
 7210 170d 0C       		.byte	0xc
 7211 170e 08       		.uleb128 0x8
 7212 170f 62746E00 		.ascii	"btn\000"
 7213 1713 13       		.byte	0x13
 7214 1714 3B       		.byte	0x3b
 7215 1715 F0100000 		.4byte	0x10f0
 7216 1719 10       		.byte	0x10
 7217 171a 07       		.uleb128 0x7
 7218 171b B0110000 		.4byte	.LASF317
 7219 171f 13       		.byte	0x13
 7220 1720 46       		.byte	0x46
 7221 1721 34110000 		.4byte	0x1134
 7222 1725 24       		.byte	0x24
 7223 1726 07       		.uleb128 0x7
 7224 1727 7A160000 		.4byte	.LASF318
 7225 172b 13       		.byte	0x13
 7226 172c 4F       		.byte	0x4f
 7227 172d 78110000 		.4byte	0x1178
 7228 1731 38       		.byte	0x38
 7229 1732 08       		.uleb128 0x8
 7230 1733 696D6700 		.ascii	"img\000"
 7231 1737 13       		.byte	0x13
 7232 1738 57       		.byte	0x57
 7233 1739 A5110000 		.4byte	0x11a5
 7234 173d 44       		.byte	0x44
 7235 173e 07       		.uleb128 0x7
 7236 173f F2090000 		.4byte	.LASF73
 7237 1743 13       		.byte	0x13
 7238 1744 5E       		.byte	0x5e
 7239 1745 C6110000 		.4byte	0x11c6
 7240 1749 4C       		.byte	0x4c
 7241 174a 08       		.uleb128 0x8
 7242 174b 6C656400 		.ascii	"led\000"
 7243 174f 13       		.byte	0x13
 7244 1750 62       		.byte	0x62
 7245 1751 54050000 		.4byte	0x554
 7246 1755 50       		.byte	0x50
 7247 1756 08       		.uleb128 0x8
 7248 1757 62617200 		.ascii	"bar\000"
 7249 175b 13       		.byte	0x13
 7250 175c 6A       		.byte	0x6a
 7251 175d DB110000 		.4byte	0x11db
 7252 1761 54       		.byte	0x54
 7253 1762 07       		.uleb128 0x7
 7254 1763 2F0A0000 		.4byte	.LASF319
 7255 1767 13       		.byte	0x13
 7256 1768 73       		.byte	0x73
 7257 1769 FB110000 		.4byte	0x11fb
 7258 176d 5C       		.byte	0x5c
 7259 176e 07       		.uleb128 0x7
 7260 176f 1C010000 		.4byte	.LASF320
ARM GAS  C:\Users\pearlstl\AppData\Local\Temp\ccHPSyCj.s 			page 160


 7261 1773 13       		.byte	0x13
 7262 1774 77       		.byte	0x77
 7263 1775 54050000 		.4byte	0x554
 7264 1779 68       		.byte	0x68
 7265 177a 07       		.uleb128 0x7
 7266 177b 7E0D0000 		.4byte	.LASF321
 7267 177f 13       		.byte	0x13
 7268 1780 7B       		.byte	0x7b
 7269 1781 54050000 		.4byte	0x554
 7270 1785 6C       		.byte	0x6c
 7271 1786 08       		.uleb128 0x8
 7272 1787 61726300 		.ascii	"arc\000"
 7273 178b 13       		.byte	0x13
 7274 178c 7F       		.byte	0x7f
 7275 178d 54050000 		.4byte	0x554
 7276 1791 70       		.byte	0x70
 7277 1792 07       		.uleb128 0x7
 7278 1793 E6160000 		.4byte	.LASF322
 7279 1797 13       		.byte	0x13
 7280 1798 83       		.byte	0x83
 7281 1799 54050000 		.4byte	0x554
 7282 179d 74       		.byte	0x74
 7283 179e 08       		.uleb128 0x8
 7284 179f 737700   		.ascii	"sw\000"
 7285 17a2 13       		.byte	0x13
 7286 17a3 8D       		.byte	0x8d
 7287 17a4 27120000 		.4byte	0x1227
 7288 17a8 78       		.byte	0x78
 7289 17a9 07       		.uleb128 0x7
 7290 17aa 73040000 		.4byte	.LASF323
 7291 17ae 13       		.byte	0x13
 7292 17af 91       		.byte	0x91
 7293 17b0 54050000 		.4byte	0x554
 7294 17b4 88       		.byte	0x88
 7295 17b5 07       		.uleb128 0x7
 7296 17b6 970E0000 		.4byte	.LASF324
 7297 17ba 13       		.byte	0x13
 7298 17bb 9F       		.byte	0x9f
 7299 17bc 5F120000 		.4byte	0x125f
 7300 17c0 8C       		.byte	0x8c
 7301 17c1 08       		.uleb128 0x8
 7302 17c2 636200   		.ascii	"cb\000"
 7303 17c5 13       		.byte	0x13
 7304 17c6 AE       		.byte	0xae
 7305 17c7 0B130000 		.4byte	0x130b
 7306 17cb AC       		.byte	0xac
 7307 17cc 07       		.uleb128 0x7
 7308 17cd 92040000 		.4byte	.LASF325
 7309 17d1 13       		.byte	0x13
 7310 17d2 BD       		.byte	0xbd
 7311 17d3 6F130000 		.4byte	0x136f
 7312 17d7 C4       		.byte	0xc4
 7313 17d8 08       		.uleb128 0x8
 7314 17d9 6B6200   		.ascii	"kb\000"
 7315 17dc 13       		.byte	0x13
 7316 17dd CC       		.byte	0xcc
 7317 17de D3130000 		.4byte	0x13d3
ARM GAS  C:\Users\pearlstl\AppData\Local\Temp\ccHPSyCj.s 			page 161


 7318 17e2 DC       		.byte	0xdc
 7319 17e3 07       		.uleb128 0x7
 7320 17e4 8D0C0000 		.4byte	.LASF326
 7321 17e8 13       		.byte	0x13
 7322 17e9 D9       		.byte	0xd9
 7323 17ea 1E140000 		.4byte	0x141e
 7324 17ee F4       		.byte	0xf4
 7325 17ef 18       		.uleb128 0x18
 7326 17f0 5A0D0000 		.4byte	.LASF327
 7327 17f4 13       		.byte	0x13
 7328 17f5 E2       		.byte	0xe2
 7329 17f6 3E140000 		.4byte	0x143e
 7330 17fa 0401     		.2byte	0x104
 7331 17fc 22       		.uleb128 0x22
 7332 17fd 746100   		.ascii	"ta\000"
 7333 1800 13       		.byte	0x13
 7334 1801 EC       		.byte	0xec
 7335 1802 69140000 		.4byte	0x1469
 7336 1806 1001     		.2byte	0x110
 7337 1808 18       		.uleb128 0x18
 7338 1809 65140000 		.4byte	.LASF328
 7339 180d 13       		.byte	0x13
 7340 180e F5       		.byte	0xf5
 7341 180f A1140000 		.4byte	0x14a1
 7342 1813 2001     		.2byte	0x120
 7343 1815 23       		.uleb128 0x23
 7344 1816 260D0000 		.4byte	.LASF329
 7345 181a 13       		.byte	0x13
 7346 181b 0601     		.2byte	0x106
 7347 181d 15150000 		.4byte	0x1515
 7348 1821 2C01     		.2byte	0x12c
 7349 1823 23       		.uleb128 0x23
 7350 1824 6F070000 		.4byte	.LASF330
 7351 1828 13       		.byte	0x13
 7352 1829 0F01     		.2byte	0x10f
 7353 182b 4D150000 		.4byte	0x154d
 7354 182f 4C01     		.2byte	0x14c
 7355 1831 23       		.uleb128 0x23
 7356 1832 C3170000 		.4byte	.LASF331
 7357 1836 13       		.byte	0x13
 7358 1837 1701     		.2byte	0x117
 7359 1839 7C150000 		.4byte	0x157c
 7360 183d 5801     		.2byte	0x158
 7361 183f 23       		.uleb128 0x23
 7362 1840 C90B0000 		.4byte	.LASF332
 7363 1844 13       		.byte	0x13
 7364 1845 2701     		.2byte	0x127
 7365 1847 E8150000 		.4byte	0x15e8
 7366 184b 6001     		.2byte	0x160
 7367 184d 23       		.uleb128 0x23
 7368 184e 0A040000 		.4byte	.LASF333
 7369 1852 13       		.byte	0x13
 7370 1853 3001     		.2byte	0x130
 7371 1855 18160000 		.4byte	0x1618
 7372 1859 7C01     		.2byte	0x17c
 7373 185b 23       		.uleb128 0x23
 7374 185c 3B060000 		.4byte	.LASF334
ARM GAS  C:\Users\pearlstl\AppData\Local\Temp\ccHPSyCj.s 			page 162


 7375 1860 13       		.byte	0x13
 7376 1861 3801     		.2byte	0x138
 7377 1863 47160000 		.4byte	0x1647
 7378 1867 8801     		.2byte	0x188
 7379 1869 24       		.uleb128 0x24
 7380 186a 77696E00 		.ascii	"win\000"
 7381 186e 13       		.byte	0x13
 7382 186f 4701     		.2byte	0x147
 7383 1871 8D160000 		.4byte	0x168d
 7384 1875 9001     		.2byte	0x190
 7385 1877 00       		.byte	0
 7386 1878 21       		.uleb128 0x21
 7387 1879 A801     		.2byte	0x1a8
 7388 187b 13       		.byte	0x13
 7389 187c 27       		.byte	0x27
 7390 187d 8F180000 		.4byte	0x188f
 7391 1881 1F       		.uleb128 0x1f
 7392 1882 720E0000 		.4byte	.LASF335
 7393 1886 13       		.byte	0x13
 7394 1887 4901     		.2byte	0x149
 7395 1889 D6160000 		.4byte	0x16d6
 7396 188d 00       		.byte	0
 7397 188e 00       		.byte	0
 7398 188f 12       		.uleb128 0x12
 7399 1890 8F080000 		.4byte	.LASF336
 7400 1894 13       		.byte	0x13
 7401 1895 5401     		.2byte	0x154
 7402 1897 78180000 		.4byte	0x1878
 7403 189b 13       		.uleb128 0x13
 7404 189c 01       		.byte	0x1
 7405 189d 57000000 		.4byte	0x57
 7406 18a1 01       		.byte	0x1
 7407 18a2 1C       		.byte	0x1c
 7408 18a3 BA180000 		.4byte	0x18ba
 7409 18a7 14       		.uleb128 0x14
 7410 18a8 E7080000 		.4byte	.LASF337
 7411 18ac 00       		.byte	0
 7412 18ad 14       		.uleb128 0x14
 7413 18ae EA040000 		.4byte	.LASF338
 7414 18b2 01       		.byte	0x1
 7415 18b3 14       		.uleb128 0x14
 7416 18b4 840D0000 		.4byte	.LASF339
 7417 18b8 02       		.byte	0x2
 7418 18b9 00       		.byte	0
 7419 18ba 04       		.uleb128 0x4
 7420 18bb 66080000 		.4byte	.LASF340
 7421 18bf 01       		.byte	0x1
 7422 18c0 21       		.byte	0x21
 7423 18c1 B8000000 		.4byte	0xb8
 7424 18c5 25       		.uleb128 0x25
 7425 18c6 5B160000 		.4byte	.LASF341
 7426 18ca 06       		.byte	0x6
 7427 18cb 7C       		.byte	0x7c
 7428 18cc B8000000 		.4byte	0xb8
 7429 18d0 03       		.byte	0x3
 7430 18d1 E1180000 		.4byte	0x18e1
 7431 18d5 26       		.uleb128 0x26
ARM GAS  C:\Users\pearlstl\AppData\Local\Temp\ccHPSyCj.s 			page 163


 7432 18d6 7F110000 		.4byte	.LASF343
 7433 18da 06       		.byte	0x6
 7434 18db 7C       		.byte	0x7c
 7435 18dc 8D040000 		.4byte	0x48d
 7436 18e0 00       		.byte	0
 7437 18e1 25       		.uleb128 0x25
 7438 18e2 D7140000 		.4byte	.LASF342
 7439 18e6 02       		.byte	0x2
 7440 18e7 56       		.byte	0x56
 7441 18e8 EF000000 		.4byte	0xef
 7442 18ec 03       		.byte	0x3
 7443 18ed FD180000 		.4byte	0x18fd
 7444 18f1 26       		.uleb128 0x26
 7445 18f2 30040000 		.4byte	.LASF344
 7446 18f6 02       		.byte	0x2
 7447 18f7 56       		.byte	0x56
 7448 18f8 5B070000 		.4byte	0x75b
 7449 18fc 00       		.byte	0
 7450 18fd 27       		.uleb128 0x27
 7451 18fe F40A0000 		.4byte	.LASF345
 7452 1902 01       		.byte	0x1
 7453 1903 C103     		.2byte	0x3c1
 7454 1905 B8000000 		.4byte	0xb8
 7455 1909 01       		.byte	0x1
 7456 190a 1B190000 		.4byte	0x191b
 7457 190e 28       		.uleb128 0x28
 7458 190f 51020000 		.4byte	.LASF249
 7459 1913 01       		.byte	0x1
 7460 1914 C103     		.2byte	0x3c1
 7461 1916 E4000000 		.4byte	0xe4
 7462 191a 00       		.byte	0
 7463 191b 27       		.uleb128 0x27
 7464 191c 2B0D0000 		.4byte	.LASF346
 7465 1920 01       		.byte	0x1
 7466 1921 8402     		.2byte	0x284
 7467 1923 EF000000 		.4byte	0xef
 7468 1927 01       		.byte	0x1
 7469 1928 45190000 		.4byte	0x1945
 7470 192c 28       		.uleb128 0x28
 7471 192d 970E0000 		.4byte	.LASF324
 7472 1931 01       		.byte	0x1
 7473 1932 8402     		.2byte	0x284
 7474 1934 45190000 		.4byte	0x1945
 7475 1938 29       		.uleb128 0x29
 7476 1939 65787400 		.ascii	"ext\000"
 7477 193d 01       		.byte	0x1
 7478 193e 8602     		.2byte	0x286
 7479 1940 4B190000 		.4byte	0x194b
 7480 1944 00       		.byte	0
 7481 1945 0D       		.uleb128 0xd
 7482 1946 04       		.byte	0x4
 7483 1947 110F0000 		.4byte	0xf11
 7484 194b 0D       		.uleb128 0xd
 7485 194c 04       		.byte	0x4
 7486 194d 1D100000 		.4byte	0x101d
 7487 1951 27       		.uleb128 0x27
 7488 1952 AB040000 		.4byte	.LASF347
ARM GAS  C:\Users\pearlstl\AppData\Local\Temp\ccHPSyCj.s 			page 164


 7489 1956 01       		.byte	0x1
 7490 1957 8803     		.2byte	0x388
 7491 1959 AB020000 		.4byte	0x2ab
 7492 195d 01       		.byte	0x1
 7493 195e 87190000 		.4byte	0x1987
 7494 1962 28       		.uleb128 0x28
 7495 1963 970E0000 		.4byte	.LASF324
 7496 1967 01       		.byte	0x1
 7497 1968 8803     		.2byte	0x388
 7498 196a 45190000 		.4byte	0x1945
 7499 196e 2A       		.uleb128 0x2a
 7500 196f 64617900 		.ascii	"day\000"
 7501 1973 01       		.byte	0x1
 7502 1974 8803     		.2byte	0x388
 7503 1976 B8000000 		.4byte	0xb8
 7504 197a 29       		.uleb128 0x29
 7505 197b 65787400 		.ascii	"ext\000"
 7506 197f 01       		.byte	0x1
 7507 1980 8B03     		.2byte	0x38b
 7508 1982 4B190000 		.4byte	0x194b
 7509 1986 00       		.byte	0
 7510 1987 2B       		.uleb128 0x2b
 7511 1988 0F110000 		.4byte	.LASF446
 7512 198c 01       		.byte	0x1
 7513 198d 2101     		.2byte	0x121
 7514 198f 01       		.byte	0x1
 7515 1990 C5190000 		.4byte	0x19c5
 7516 1994 28       		.uleb128 0x28
 7517 1995 970E0000 		.4byte	.LASF324
 7518 1999 01       		.byte	0x1
 7519 199a 2101     		.2byte	0x121
 7520 199c 45190000 		.4byte	0x1945
 7521 19a0 28       		.uleb128 0x28
 7522 19a1 36020000 		.4byte	.LASF51
 7523 19a5 01       		.byte	0x1
 7524 19a6 2101     		.2byte	0x121
 7525 19a8 65100000 		.4byte	0x1065
 7526 19ac 28       		.uleb128 0x28
 7527 19ad 720E0000 		.4byte	.LASF335
 7528 19b1 01       		.byte	0x1
 7529 19b2 2101     		.2byte	0x121
 7530 19b4 060F0000 		.4byte	0xf06
 7531 19b8 29       		.uleb128 0x29
 7532 19b9 65787400 		.ascii	"ext\000"
 7533 19bd 01       		.byte	0x1
 7534 19be 2501     		.2byte	0x125
 7535 19c0 4B190000 		.4byte	0x194b
 7536 19c4 00       		.byte	0
 7537 19c5 27       		.uleb128 0x27
 7538 19c6 20170000 		.4byte	.LASF348
 7539 19ca 01       		.byte	0x1
 7540 19cb CD03     		.2byte	0x3cd
 7541 19cd B8000000 		.4byte	0xb8
 7542 19d1 01       		.byte	0x1
 7543 19d2 1B1A0000 		.4byte	0x1a1b
 7544 19d6 28       		.uleb128 0x28
 7545 19d7 51020000 		.4byte	.LASF249
ARM GAS  C:\Users\pearlstl\AppData\Local\Temp\ccHPSyCj.s 			page 165


 7546 19db 01       		.byte	0x1
 7547 19dc CD03     		.2byte	0x3cd
 7548 19de E4000000 		.4byte	0xe4
 7549 19e2 28       		.uleb128 0x28
 7550 19e3 9E120000 		.4byte	.LASF250
 7551 19e7 01       		.byte	0x1
 7552 19e8 CD03     		.2byte	0x3cd
 7553 19ea E4000000 		.4byte	0xe4
 7554 19ee 2A       		.uleb128 0x2a
 7555 19ef 64617900 		.ascii	"day\000"
 7556 19f3 01       		.byte	0x1
 7557 19f4 CD03     		.2byte	0x3cd
 7558 19f6 E4000000 		.4byte	0xe4
 7559 19fa 29       		.uleb128 0x29
 7560 19fb 6100     		.ascii	"a\000"
 7561 19fd 01       		.byte	0x1
 7562 19fe CF03     		.2byte	0x3cf
 7563 1a00 E4000000 		.4byte	0xe4
 7564 1a04 29       		.uleb128 0x29
 7565 1a05 6200     		.ascii	"b\000"
 7566 1a07 01       		.byte	0x1
 7567 1a08 D003     		.2byte	0x3d0
 7568 1a0a E4000000 		.4byte	0xe4
 7569 1a0e 2C       		.uleb128 0x2c
 7570 1a0f CB0F0000 		.4byte	.LASF349
 7571 1a13 01       		.byte	0x1
 7572 1a14 D203     		.2byte	0x3d2
 7573 1a16 E4000000 		.4byte	0xe4
 7574 1a1a 00       		.byte	0
 7575 1a1b 2D       		.uleb128 0x2d
 7576 1a1c A9010000 		.4byte	.LASF447
 7577 1a20 01       		.byte	0x1
 7578 1a21 9B01     		.2byte	0x19b
 7579 1a23 060F0000 		.4byte	0xf06
 7580 1a27 01       		.byte	0x1
 7581 1a28 5D1A0000 		.4byte	0x1a5d
 7582 1a2c 28       		.uleb128 0x28
 7583 1a2d 970E0000 		.4byte	.LASF324
 7584 1a31 01       		.byte	0x1
 7585 1a32 9B01     		.2byte	0x19b
 7586 1a34 5D1A0000 		.4byte	0x1a5d
 7587 1a38 28       		.uleb128 0x28
 7588 1a39 36020000 		.4byte	.LASF51
 7589 1a3d 01       		.byte	0x1
 7590 1a3e 9B01     		.2byte	0x19b
 7591 1a40 65100000 		.4byte	0x1065
 7592 1a44 2C       		.uleb128 0x2c
 7593 1a45 720E0000 		.4byte	.LASF335
 7594 1a49 01       		.byte	0x1
 7595 1a4a 9F01     		.2byte	0x19f
 7596 1a4c 060F0000 		.4byte	0xf06
 7597 1a50 29       		.uleb128 0x29
 7598 1a51 65787400 		.ascii	"ext\000"
 7599 1a55 01       		.byte	0x1
 7600 1a56 A001     		.2byte	0x1a0
 7601 1a58 4B190000 		.4byte	0x194b
 7602 1a5c 00       		.byte	0
ARM GAS  C:\Users\pearlstl\AppData\Local\Temp\ccHPSyCj.s 			page 166


 7603 1a5d 0D       		.uleb128 0xd
 7604 1a5e 04       		.byte	0x4
 7605 1a5f 631A0000 		.4byte	0x1a63
 7606 1a63 0E       		.uleb128 0xe
 7607 1a64 110F0000 		.4byte	0xf11
 7608 1a68 2E       		.uleb128 0x2e
 7609 1a69 5D060000 		.4byte	.LASF355
 7610 1a6d 02       		.byte	0x2
 7611 1a6e 4C       		.byte	0x4c
 7612 1a6f 03       		.byte	0x3
 7613 1a70 8B1A0000 		.4byte	0x1a8b
 7614 1a74 26       		.uleb128 0x26
 7615 1a75 3C120000 		.4byte	.LASF350
 7616 1a79 02       		.byte	0x2
 7617 1a7a 4C       		.byte	0x4c
 7618 1a7b 82070000 		.4byte	0x782
 7619 1a7f 2F       		.uleb128 0x2f
 7620 1a80 73726300 		.ascii	"src\000"
 7621 1a84 02       		.byte	0x2
 7622 1a85 4C       		.byte	0x4c
 7623 1a86 5B070000 		.4byte	0x75b
 7624 1a8a 00       		.byte	0
 7625 1a8b 27       		.uleb128 0x27
 7626 1a8c A30C0000 		.4byte	.LASF351
 7627 1a90 01       		.byte	0x1
 7628 1a91 C701     		.2byte	0x1c7
 7629 1a93 D5010000 		.4byte	0x1d5
 7630 1a97 01       		.byte	0x1
 7631 1a98 CF1A0000 		.4byte	0x1acf
 7632 1a9c 28       		.uleb128 0x28
 7633 1a9d 970E0000 		.4byte	.LASF324
 7634 1aa1 01       		.byte	0x1
 7635 1aa2 C701     		.2byte	0x1c7
 7636 1aa4 45190000 		.4byte	0x1945
 7637 1aa8 28       		.uleb128 0x28
 7638 1aa9 C40B0000 		.4byte	.LASF352
 7639 1aad 01       		.byte	0x1
 7640 1aae C701     		.2byte	0x1c7
 7641 1ab0 5B070000 		.4byte	0x75b
 7642 1ab4 28       		.uleb128 0x28
 7643 1ab5 88130000 		.4byte	.LASF353
 7644 1ab9 01       		.byte	0x1
 7645 1aba C701     		.2byte	0x1c7
 7646 1abc E30C0000 		.4byte	0xce3
 7647 1ac0 30       		.uleb128 0x30
 7648 1ac1 2C       		.uleb128 0x2c
 7649 1ac2 B9170000 		.4byte	.LASF142
 7650 1ac6 01       		.byte	0x1
 7651 1ac7 CF01     		.2byte	0x1cf
 7652 1ac9 91020000 		.4byte	0x291
 7653 1acd 00       		.byte	0
 7654 1ace 00       		.byte	0
 7655 1acf 27       		.uleb128 0x27
 7656 1ad0 73130000 		.4byte	.LASF354
 7657 1ad4 01       		.byte	0x1
 7658 1ad5 9102     		.2byte	0x291
 7659 1ad7 EF000000 		.4byte	0xef
ARM GAS  C:\Users\pearlstl\AppData\Local\Temp\ccHPSyCj.s 			page 167


 7660 1adb 01       		.byte	0x1
 7661 1adc F91A0000 		.4byte	0x1af9
 7662 1ae0 28       		.uleb128 0x28
 7663 1ae1 970E0000 		.4byte	.LASF324
 7664 1ae5 01       		.byte	0x1
 7665 1ae6 9102     		.2byte	0x291
 7666 1ae8 45190000 		.4byte	0x1945
 7667 1aec 29       		.uleb128 0x29
 7668 1aed 65787400 		.ascii	"ext\000"
 7669 1af1 01       		.byte	0x1
 7670 1af2 9302     		.2byte	0x293
 7671 1af4 4B190000 		.4byte	0x194b
 7672 1af8 00       		.byte	0
 7673 1af9 31       		.uleb128 0x31
 7674 1afa D5150000 		.4byte	.LASF356
 7675 1afe 01       		.byte	0x1
 7676 1aff E402     		.2byte	0x2e4
 7677 1b01 01       		.byte	0x1
 7678 1b02 231C0000 		.4byte	0x1c23
 7679 1b06 28       		.uleb128 0x28
 7680 1b07 970E0000 		.4byte	.LASF324
 7681 1b0b 01       		.byte	0x1
 7682 1b0c E402     		.2byte	0x2e4
 7683 1b0e 45190000 		.4byte	0x1945
 7684 1b12 28       		.uleb128 0x28
 7685 1b13 C40B0000 		.4byte	.LASF352
 7686 1b17 01       		.byte	0x1
 7687 1b18 E402     		.2byte	0x2e4
 7688 1b1a 5B070000 		.4byte	0x75b
 7689 1b1e 29       		.uleb128 0x29
 7690 1b1f 65787400 		.ascii	"ext\000"
 7691 1b23 01       		.byte	0x1
 7692 1b24 E602     		.2byte	0x2e6
 7693 1b26 4B190000 		.4byte	0x194b
 7694 1b2a 2C       		.uleb128 0x2c
 7695 1b2b 58010000 		.4byte	.LASF357
 7696 1b2f 01       		.byte	0x1
 7697 1b30 E702     		.2byte	0x2e7
 7698 1b32 C7050000 		.4byte	0x5c7
 7699 1b36 2C       		.uleb128 0x2c
 7700 1b37 C20C0000 		.4byte	.LASF358
 7701 1b3b 01       		.byte	0x1
 7702 1b3c E802     		.2byte	0x2e8
 7703 1b3e 060F0000 		.4byte	0xf06
 7704 1b42 2C       		.uleb128 0x2c
 7705 1b43 C7070000 		.4byte	.LASF359
 7706 1b47 01       		.byte	0x1
 7707 1b48 E902     		.2byte	0x2e9
 7708 1b4a 13030000 		.4byte	0x313
 7709 1b4e 2C       		.uleb128 0x2c
 7710 1b4f B9170000 		.4byte	.LASF142
 7711 1b53 01       		.byte	0x1
 7712 1b54 EA02     		.2byte	0x2ea
 7713 1b56 91020000 		.4byte	0x291
 7714 1b5a 29       		.uleb128 0x29
 7715 1b5b 7700     		.ascii	"w\000"
 7716 1b5d 01       		.byte	0x1
ARM GAS  C:\Users\pearlstl\AppData\Local\Temp\ccHPSyCj.s 			page 168


 7717 1b5e F002     		.2byte	0x2f0
 7718 1b60 EF000000 		.4byte	0xef
 7719 1b64 29       		.uleb128 0x29
 7720 1b65 6800     		.ascii	"h\000"
 7721 1b67 01       		.byte	0x1
 7722 1b68 F102     		.2byte	0x2f1
 7723 1b6a EF000000 		.4byte	0xef
 7724 1b6e 2C       		.uleb128 0x2c
 7725 1b6f 4B130000 		.4byte	.LASF24
 7726 1b73 01       		.byte	0x1
 7727 1b74 F202     		.2byte	0x2f2
 7728 1b76 EF000000 		.4byte	0xef
 7729 1b7a 2C       		.uleb128 0x2c
 7730 1b7b AA100000 		.4byte	.LASF360
 7731 1b7f 01       		.byte	0x1
 7732 1b80 F302     		.2byte	0x2f3
 7733 1b82 EF000000 		.4byte	0xef
 7734 1b86 2C       		.uleb128 0x2c
 7735 1b87 0E050000 		.4byte	.LASF361
 7736 1b8b 01       		.byte	0x1
 7737 1b8c F502     		.2byte	0x2f5
 7738 1b8e E4000000 		.4byte	0xe4
 7739 1b92 2C       		.uleb128 0x2c
 7740 1b93 FC060000 		.4byte	.LASF362
 7741 1b97 01       		.byte	0x1
 7742 1b98 F602     		.2byte	0x2f6
 7743 1b9a B8000000 		.4byte	0xb8
 7744 1b9e 2C       		.uleb128 0x2c
 7745 1b9f 6A000000 		.4byte	.LASF363
 7746 1ba3 01       		.byte	0x1
 7747 1ba4 F702     		.2byte	0x2f7
 7748 1ba6 B8000000 		.4byte	0xb8
 7749 1baa 2C       		.uleb128 0x2c
 7750 1bab F7090000 		.4byte	.LASF364
 7751 1baf 01       		.byte	0x1
 7752 1bb0 F802     		.2byte	0x2f8
 7753 1bb2 BA180000 		.4byte	0x18ba
 7754 1bb6 2C       		.uleb128 0x2c
 7755 1bb7 7A0F0000 		.4byte	.LASF365
 7756 1bbb 01       		.byte	0x1
 7757 1bbc F902     		.2byte	0x2f9
 7758 1bbe 060F0000 		.4byte	0xf06
 7759 1bc2 2C       		.uleb128 0x2c
 7760 1bc3 62020000 		.4byte	.LASF366
 7761 1bc7 01       		.byte	0x1
 7762 1bc8 0703     		.2byte	0x307
 7763 1bca D5010000 		.4byte	0x1d5
 7764 1bce 29       		.uleb128 0x29
 7765 1bcf 62756600 		.ascii	"buf\000"
 7766 1bd3 01       		.byte	0x1
 7767 1bd4 0C03     		.2byte	0x30c
 7768 1bd6 231C0000 		.4byte	0x1c23
 7769 1bda 2C       		.uleb128 0x2c
 7770 1bdb 05010000 		.4byte	.LASF367
 7771 1bdf 01       		.byte	0x1
 7772 1be0 0D03     		.2byte	0x30d
 7773 1be2 D5010000 		.4byte	0x1d5
ARM GAS  C:\Users\pearlstl\AppData\Local\Temp\ccHPSyCj.s 			page 169


 7774 1be6 30       		.uleb128 0x30
 7775 1be7 29       		.uleb128 0x29
 7776 1be8 64617900 		.ascii	"day\000"
 7777 1bec 01       		.byte	0x1
 7778 1bed 2703     		.2byte	0x327
 7779 1bef E4000000 		.4byte	0xe4
 7780 1bf3 32       		.uleb128 0x32
 7781 1bf4 051C0000 		.4byte	0x1c05
 7782 1bf8 2C       		.uleb128 0x2c
 7783 1bf9 FC030000 		.4byte	.LASF368
 7784 1bfd 01       		.byte	0x1
 7785 1bfe 1603     		.2byte	0x316
 7786 1c00 13030000 		.4byte	0x313
 7787 1c04 00       		.byte	0
 7788 1c05 30       		.uleb128 0x30
 7789 1c06 2C       		.uleb128 0x2c
 7790 1c07 B60C0000 		.4byte	.LASF369
 7791 1c0b 01       		.byte	0x1
 7792 1c0c 4803     		.2byte	0x348
 7793 1c0e 060F0000 		.4byte	0xf06
 7794 1c12 30       		.uleb128 0x30
 7795 1c13 2C       		.uleb128 0x2c
 7796 1c14 4F070000 		.4byte	.LASF370
 7797 1c18 01       		.byte	0x1
 7798 1c19 3D03     		.2byte	0x33d
 7799 1c1b 13030000 		.4byte	0x313
 7800 1c1f 00       		.byte	0
 7801 1c20 00       		.byte	0
 7802 1c21 00       		.byte	0
 7803 1c22 00       		.byte	0
 7804 1c23 1B       		.uleb128 0x1b
 7805 1c24 A4020000 		.4byte	0x2a4
 7806 1c28 331C0000 		.4byte	0x1c33
 7807 1c2c 1C       		.uleb128 0x1c
 7808 1c2d 9D020000 		.4byte	0x29d
 7809 1c31 02       		.byte	0x2
 7810 1c32 00       		.byte	0
 7811 1c33 31       		.uleb128 0x31
 7812 1c34 A90F0000 		.4byte	.LASF371
 7813 1c38 01       		.byte	0x1
 7814 1c39 C902     		.2byte	0x2c9
 7815 1c3b 01       		.byte	0x1
 7816 1c3c B51C0000 		.4byte	0x1cb5
 7817 1c40 28       		.uleb128 0x28
 7818 1c41 970E0000 		.4byte	.LASF324
 7819 1c45 01       		.byte	0x1
 7820 1c46 C902     		.2byte	0x2c9
 7821 1c48 45190000 		.4byte	0x1945
 7822 1c4c 28       		.uleb128 0x28
 7823 1c4d C40B0000 		.4byte	.LASF352
 7824 1c51 01       		.byte	0x1
 7825 1c52 C902     		.2byte	0x2c9
 7826 1c54 5B070000 		.4byte	0x75b
 7827 1c58 29       		.uleb128 0x29
 7828 1c59 65787400 		.ascii	"ext\000"
 7829 1c5d 01       		.byte	0x1
 7830 1c5e CB02     		.2byte	0x2cb
ARM GAS  C:\Users\pearlstl\AppData\Local\Temp\ccHPSyCj.s 			page 170


 7831 1c60 4B190000 		.4byte	0x194b
 7832 1c64 2C       		.uleb128 0x2c
 7833 1c65 58010000 		.4byte	.LASF357
 7834 1c69 01       		.byte	0x1
 7835 1c6a CC02     		.2byte	0x2cc
 7836 1c6c C7050000 		.4byte	0x5c7
 7837 1c70 2C       		.uleb128 0x2c
 7838 1c71 B9170000 		.4byte	.LASF142
 7839 1c75 01       		.byte	0x1
 7840 1c76 CD02     		.2byte	0x2cd
 7841 1c78 91020000 		.4byte	0x291
 7842 1c7c 2C       		.uleb128 0x2c
 7843 1c7d DB0D0000 		.4byte	.LASF372
 7844 1c81 01       		.byte	0x1
 7845 1c82 CF02     		.2byte	0x2cf
 7846 1c84 EF000000 		.4byte	0xef
 7847 1c88 29       		.uleb128 0x29
 7848 1c89 7700     		.ascii	"w\000"
 7849 1c8b 01       		.byte	0x1
 7850 1c8c D002     		.2byte	0x2d0
 7851 1c8e EF000000 		.4byte	0xef
 7852 1c92 2C       		.uleb128 0x2c
 7853 1c93 4B130000 		.4byte	.LASF24
 7854 1c97 01       		.byte	0x1
 7855 1c98 D202     		.2byte	0x2d2
 7856 1c9a EF000000 		.4byte	0xef
 7857 1c9e 2C       		.uleb128 0x2c
 7858 1c9f C7070000 		.4byte	.LASF359
 7859 1ca3 01       		.byte	0x1
 7860 1ca4 D302     		.2byte	0x2d3
 7861 1ca6 13030000 		.4byte	0x313
 7862 1caa 29       		.uleb128 0x29
 7863 1cab 6900     		.ascii	"i\000"
 7864 1cad 01       		.byte	0x1
 7865 1cae D602     		.2byte	0x2d6
 7866 1cb0 E4000000 		.4byte	0xe4
 7867 1cb4 00       		.byte	0
 7868 1cb5 31       		.uleb128 0x31
 7869 1cb6 56020000 		.4byte	.LASF373
 7870 1cba 01       		.byte	0x1
 7871 1cbb 9E02     		.2byte	0x29e
 7872 1cbd 01       		.byte	0x1
 7873 1cbe 231D0000 		.4byte	0x1d23
 7874 1cc2 28       		.uleb128 0x28
 7875 1cc3 970E0000 		.4byte	.LASF324
 7876 1cc7 01       		.byte	0x1
 7877 1cc8 9E02     		.2byte	0x29e
 7878 1cca 45190000 		.4byte	0x1945
 7879 1cce 28       		.uleb128 0x28
 7880 1ccf C40B0000 		.4byte	.LASF352
 7881 1cd3 01       		.byte	0x1
 7882 1cd4 9E02     		.2byte	0x29e
 7883 1cd6 5B070000 		.4byte	0x75b
 7884 1cda 29       		.uleb128 0x29
 7885 1cdb 65787400 		.ascii	"ext\000"
 7886 1cdf 01       		.byte	0x1
 7887 1ce0 A002     		.2byte	0x2a0
ARM GAS  C:\Users\pearlstl\AppData\Local\Temp\ccHPSyCj.s 			page 171


 7888 1ce2 4B190000 		.4byte	0x194b
 7889 1ce6 2C       		.uleb128 0x2c
 7890 1ce7 58010000 		.4byte	.LASF357
 7891 1ceb 01       		.byte	0x1
 7892 1cec A202     		.2byte	0x2a2
 7893 1cee C7050000 		.4byte	0x5c7
 7894 1cf2 2C       		.uleb128 0x2c
 7895 1cf3 B9170000 		.4byte	.LASF142
 7896 1cf7 01       		.byte	0x1
 7897 1cf8 A402     		.2byte	0x2a4
 7898 1cfa 91020000 		.4byte	0x291
 7899 1cfe 2C       		.uleb128 0x2c
 7900 1cff 4C120000 		.4byte	.LASF374
 7901 1d03 01       		.byte	0x1
 7902 1d04 A602     		.2byte	0x2a6
 7903 1d06 13030000 		.4byte	0x313
 7904 1d0a 2C       		.uleb128 0x2c
 7905 1d0b 8F0E0000 		.4byte	.LASF375
 7906 1d0f 01       		.byte	0x1
 7907 1d10 AF02     		.2byte	0x2af
 7908 1d12 231D0000 		.4byte	0x1d23
 7909 1d16 2C       		.uleb128 0x2c
 7910 1d17 4C090000 		.4byte	.LASF376
 7911 1d1b 01       		.byte	0x1
 7912 1d1c B802     		.2byte	0x2b8
 7913 1d1e 060F0000 		.4byte	0xf06
 7914 1d22 00       		.byte	0
 7915 1d23 1B       		.uleb128 0x1b
 7916 1d24 A4020000 		.4byte	0x2a4
 7917 1d28 331D0000 		.4byte	0x1d33
 7918 1d2c 1C       		.uleb128 0x1c
 7919 1d2d 9D020000 		.4byte	0x29d
 7920 1d31 3F       		.byte	0x3f
 7921 1d32 00       		.byte	0
 7922 1d33 27       		.uleb128 0x27
 7923 1d34 0A160000 		.4byte	.LASF377
 7924 1d38 01       		.byte	0x1
 7925 1d39 9903     		.2byte	0x399
 7926 1d3b AB020000 		.4byte	0x2ab
 7927 1d3f 01       		.byte	0x1
 7928 1d40 691D0000 		.4byte	0x1d69
 7929 1d44 28       		.uleb128 0x28
 7930 1d45 970E0000 		.4byte	.LASF324
 7931 1d49 01       		.byte	0x1
 7932 1d4a 9903     		.2byte	0x399
 7933 1d4c 45190000 		.4byte	0x1945
 7934 1d50 28       		.uleb128 0x28
 7935 1d51 9E120000 		.4byte	.LASF250
 7936 1d55 01       		.byte	0x1
 7937 1d56 9903     		.2byte	0x399
 7938 1d58 D9000000 		.4byte	0xd9
 7939 1d5c 29       		.uleb128 0x29
 7940 1d5d 65787400 		.ascii	"ext\000"
 7941 1d61 01       		.byte	0x1
 7942 1d62 9E03     		.2byte	0x39e
 7943 1d64 4B190000 		.4byte	0x194b
 7944 1d68 00       		.byte	0
ARM GAS  C:\Users\pearlstl\AppData\Local\Temp\ccHPSyCj.s 			page 172


 7945 1d69 27       		.uleb128 0x27
 7946 1d6a D9010000 		.4byte	.LASF378
 7947 1d6e 01       		.byte	0x1
 7948 1d6f AC03     		.2byte	0x3ac
 7949 1d71 B8000000 		.4byte	0xb8
 7950 1d75 01       		.byte	0x1
 7951 1d76 931D0000 		.4byte	0x1d93
 7952 1d7a 28       		.uleb128 0x28
 7953 1d7b 51020000 		.4byte	.LASF249
 7954 1d7f 01       		.byte	0x1
 7955 1d80 AC03     		.2byte	0x3ac
 7956 1d82 D9000000 		.4byte	0xd9
 7957 1d86 28       		.uleb128 0x28
 7958 1d87 9E120000 		.4byte	.LASF250
 7959 1d8b 01       		.byte	0x1
 7960 1d8c AC03     		.2byte	0x3ac
 7961 1d8e D9000000 		.4byte	0xd9
 7962 1d92 00       		.byte	0
 7963 1d93 27       		.uleb128 0x27
 7964 1d94 93060000 		.4byte	.LASF379
 7965 1d98 01       		.byte	0x1
 7966 1d99 7103     		.2byte	0x371
 7967 1d9b D5010000 		.4byte	0x1d5
 7968 1d9f 01       		.byte	0x1
 7969 1da0 EB1D0000 		.4byte	0x1deb
 7970 1da4 28       		.uleb128 0x28
 7971 1da5 970E0000 		.4byte	.LASF324
 7972 1da9 01       		.byte	0x1
 7973 1daa 7103     		.2byte	0x371
 7974 1dac 45190000 		.4byte	0x1945
 7975 1db0 28       		.uleb128 0x28
 7976 1db1 51020000 		.4byte	.LASF249
 7977 1db5 01       		.byte	0x1
 7978 1db6 7103     		.2byte	0x371
 7979 1db8 D9000000 		.4byte	0xd9
 7980 1dbc 28       		.uleb128 0x28
 7981 1dbd 9E120000 		.4byte	.LASF250
 7982 1dc1 01       		.byte	0x1
 7983 1dc2 7103     		.2byte	0x371
 7984 1dc4 D9000000 		.4byte	0xd9
 7985 1dc8 2A       		.uleb128 0x2a
 7986 1dc9 64617900 		.ascii	"day\000"
 7987 1dcd 01       		.byte	0x1
 7988 1dce 7103     		.2byte	0x371
 7989 1dd0 D9000000 		.4byte	0xd9
 7990 1dd4 29       		.uleb128 0x29
 7991 1dd5 65787400 		.ascii	"ext\000"
 7992 1dd9 01       		.byte	0x1
 7993 1dda 7303     		.2byte	0x373
 7994 1ddc 4B190000 		.4byte	0x194b
 7995 1de0 29       		.uleb128 0x29
 7996 1de1 6900     		.ascii	"i\000"
 7997 1de3 01       		.byte	0x1
 7998 1de4 7703     		.2byte	0x377
 7999 1de6 E4000000 		.4byte	0xe4
 8000 1dea 00       		.byte	0
 8001 1deb 33       		.uleb128 0x33
ARM GAS  C:\Users\pearlstl\AppData\Local\Temp\ccHPSyCj.s 			page 173


 8002 1dec 8B1A0000 		.4byte	0x1a8b
 8003 1df0 00000000 		.4byte	.LFB46
 8004 1df4 B4080000 		.4byte	.LFE46-.LFB46
 8005 1df8 01       		.uleb128 0x1
 8006 1df9 9C       		.byte	0x9c
 8007 1dfa D4270000 		.4byte	0x27d4
 8008 1dfe 34       		.uleb128 0x34
 8009 1dff 9C1A0000 		.4byte	0x1a9c
 8010 1e03 00000000 		.4byte	.LLST0
 8011 1e07 34       		.uleb128 0x34
 8012 1e08 A81A0000 		.4byte	0x1aa8
 8013 1e0c 6D000000 		.4byte	.LLST1
 8014 1e10 34       		.uleb128 0x34
 8015 1e11 B41A0000 		.4byte	0x1ab4
 8016 1e15 BD000000 		.4byte	.LLST2
 8017 1e19 35       		.uleb128 0x35
 8018 1e1a 00000000 		.4byte	.Ldebug_ranges0+0
 8019 1e1e B6270000 		.4byte	0x27b6
 8020 1e22 36       		.uleb128 0x36
 8021 1e23 C11A0000 		.4byte	0x1ac1
 8022 1e27 10010000 		.4byte	.LLST3
 8023 1e2b 37       		.uleb128 0x37
 8024 1e2c 1B1A0000 		.4byte	0x1a1b
 8025 1e30 20000000 		.4byte	.LBB156
 8026 1e34 18000000 		.4byte	.Ldebug_ranges0+0x18
 8027 1e38 01       		.byte	0x1
 8028 1e39 D001     		.2byte	0x1d0
 8029 1e3b 8A1E0000 		.4byte	0x1e8a
 8030 1e3f 34       		.uleb128 0x34
 8031 1e40 381A0000 		.4byte	0x1a38
 8032 1e44 23010000 		.4byte	.LLST4
 8033 1e48 34       		.uleb128 0x34
 8034 1e49 2C1A0000 		.4byte	0x1a2c
 8035 1e4d 37010000 		.4byte	.LLST5
 8036 1e51 38       		.uleb128 0x38
 8037 1e52 18000000 		.4byte	.Ldebug_ranges0+0x18
 8038 1e56 36       		.uleb128 0x36
 8039 1e57 441A0000 		.4byte	0x1a44
 8040 1e5b 23010000 		.4byte	.LLST4
 8041 1e5f 39       		.uleb128 0x39
 8042 1e60 501A0000 		.4byte	0x1a50
 8043 1e64 3A       		.uleb128 0x3a
 8044 1e65 2A000000 		.4byte	.LVL5
 8045 1e69 7B3B0000 		.4byte	0x3b7b
 8046 1e6d 781E0000 		.4byte	0x1e78
 8047 1e71 3B       		.uleb128 0x3b
 8048 1e72 01       		.uleb128 0x1
 8049 1e73 50       		.byte	0x50
 8050 1e74 02       		.uleb128 0x2
 8051 1e75 76       		.byte	0x76
 8052 1e76 00       		.sleb128 0
 8053 1e77 00       		.byte	0
 8054 1e78 3C       		.uleb128 0x3c
 8055 1e79 30000000 		.4byte	.LVL6
 8056 1e7d 873B0000 		.4byte	0x3b87
 8057 1e81 3B       		.uleb128 0x3b
 8058 1e82 01       		.uleb128 0x1
ARM GAS  C:\Users\pearlstl\AppData\Local\Temp\ccHPSyCj.s 			page 174


 8059 1e83 50       		.byte	0x50
 8060 1e84 02       		.uleb128 0x2
 8061 1e85 76       		.byte	0x76
 8062 1e86 00       		.sleb128 0
 8063 1e87 00       		.byte	0
 8064 1e88 00       		.byte	0
 8065 1e89 00       		.byte	0
 8066 1e8a 37       		.uleb128 0x37
 8067 1e8b B51C0000 		.4byte	0x1cb5
 8068 1e8f 42000000 		.4byte	.LBB160
 8069 1e93 30000000 		.4byte	.Ldebug_ranges0+0x30
 8070 1e97 01       		.byte	0x1
 8071 1e98 D201     		.2byte	0x1d2
 8072 1e9a 03210000 		.4byte	0x2103
 8073 1e9e 34       		.uleb128 0x34
 8074 1e9f CE1C0000 		.4byte	0x1cce
 8075 1ea3 4A010000 		.4byte	.LLST7
 8076 1ea7 34       		.uleb128 0x34
 8077 1ea8 C21C0000 		.4byte	0x1cc2
 8078 1eac 75010000 		.4byte	.LLST8
 8079 1eb0 38       		.uleb128 0x38
 8080 1eb1 30000000 		.4byte	.Ldebug_ranges0+0x30
 8081 1eb5 36       		.uleb128 0x36
 8082 1eb6 DA1C0000 		.4byte	0x1cda
 8083 1eba A2010000 		.4byte	.LLST9
 8084 1ebe 36       		.uleb128 0x36
 8085 1ebf E61C0000 		.4byte	0x1ce6
 8086 1ec3 CB010000 		.4byte	.LLST10
 8087 1ec7 36       		.uleb128 0x36
 8088 1ec8 F21C0000 		.4byte	0x1cf2
 8089 1ecc E9010000 		.4byte	.LLST11
 8090 1ed0 3D       		.uleb128 0x3d
 8091 1ed1 FE1C0000 		.4byte	0x1cfe
 8092 1ed5 03       		.uleb128 0x3
 8093 1ed6 91       		.byte	0x91
 8094 1ed7 907F     		.sleb128 -112
 8095 1ed9 3D       		.uleb128 0x3d
 8096 1eda 0A1D0000 		.4byte	0x1d0a
 8097 1ede 03       		.uleb128 0x3
 8098 1edf 91       		.byte	0x91
 8099 1ee0 987F     		.sleb128 -104
 8100 1ee2 36       		.uleb128 0x36
 8101 1ee3 161D0000 		.4byte	0x1d16
 8102 1ee7 07020000 		.4byte	.LLST12
 8103 1eeb 3E       		.uleb128 0x3e
 8104 1eec 1B190000 		.4byte	0x191b
 8105 1ef0 70000000 		.4byte	.LBB162
 8106 1ef4 06000000 		.4byte	.LBE162-.LBB162
 8107 1ef8 01       		.byte	0x1
 8108 1ef9 AA02     		.2byte	0x2aa
 8109 1efb 2C1F0000 		.4byte	0x1f2c
 8110 1eff 34       		.uleb128 0x34
 8111 1f00 2C190000 		.4byte	0x192c
 8112 1f04 3D020000 		.4byte	.LLST13
 8113 1f08 3F       		.uleb128 0x3f
 8114 1f09 70000000 		.4byte	.LBB163
 8115 1f0d 06000000 		.4byte	.LBE163-.LBB163
ARM GAS  C:\Users\pearlstl\AppData\Local\Temp\ccHPSyCj.s 			page 175


 8116 1f11 36       		.uleb128 0x36
 8117 1f12 38190000 		.4byte	0x1938
 8118 1f16 52020000 		.4byte	.LLST14
 8119 1f1a 3C       		.uleb128 0x3c
 8120 1f1b 74000000 		.4byte	.LVL16
 8121 1f1f 7B3B0000 		.4byte	0x3b7b
 8122 1f23 3B       		.uleb128 0x3b
 8123 1f24 01       		.uleb128 0x1
 8124 1f25 50       		.byte	0x50
 8125 1f26 02       		.uleb128 0x2
 8126 1f27 76       		.byte	0x76
 8127 1f28 00       		.sleb128 0
 8128 1f29 00       		.byte	0
 8129 1f2a 00       		.byte	0
 8130 1f2b 00       		.byte	0
 8131 1f2c 37       		.uleb128 0x37
 8132 1f2d 331D0000 		.4byte	0x1d33
 8133 1f31 AA000000 		.4byte	.LBB164
 8134 1f35 48000000 		.4byte	.Ldebug_ranges0+0x48
 8135 1f39 01       		.byte	0x1
 8136 1f3a B302     		.2byte	0x2b3
 8137 1f3c 741F0000 		.4byte	0x1f74
 8138 1f40 34       		.uleb128 0x34
 8139 1f41 501D0000 		.4byte	0x1d50
 8140 1f45 65020000 		.4byte	.LLST15
 8141 1f49 34       		.uleb128 0x34
 8142 1f4a 441D0000 		.4byte	0x1d44
 8143 1f4e 90020000 		.4byte	.LLST16
 8144 1f52 38       		.uleb128 0x38
 8145 1f53 48000000 		.4byte	.Ldebug_ranges0+0x48
 8146 1f57 36       		.uleb128 0x36
 8147 1f58 5C1D0000 		.4byte	0x1d5c
 8148 1f5c B2020000 		.4byte	.LLST17
 8149 1f60 3C       		.uleb128 0x3c
 8150 1f61 B8000000 		.4byte	.LVL25
 8151 1f65 7B3B0000 		.4byte	0x3b7b
 8152 1f69 3B       		.uleb128 0x3b
 8153 1f6a 01       		.uleb128 0x1
 8154 1f6b 50       		.byte	0x50
 8155 1f6c 04       		.uleb128 0x4
 8156 1f6d 91       		.byte	0x91
 8157 1f6e C87E     		.sleb128 -184
 8158 1f70 06       		.byte	0x6
 8159 1f71 00       		.byte	0
 8160 1f72 00       		.byte	0
 8161 1f73 00       		.byte	0
 8162 1f74 3A       		.uleb128 0x3a
 8163 1f75 48000000 		.4byte	.LVL8
 8164 1f79 7B3B0000 		.4byte	0x3b7b
 8165 1f7d 881F0000 		.4byte	0x1f88
 8166 1f81 3B       		.uleb128 0x3b
 8167 1f82 01       		.uleb128 0x1
 8168 1f83 50       		.byte	0x50
 8169 1f84 02       		.uleb128 0x2
 8170 1f85 76       		.byte	0x76
 8171 1f86 00       		.sleb128 0
 8172 1f87 00       		.byte	0
ARM GAS  C:\Users\pearlstl\AppData\Local\Temp\ccHPSyCj.s 			page 176


 8173 1f88 3A       		.uleb128 0x3a
 8174 1f89 50000000 		.4byte	.LVL11
 8175 1f8d 933B0000 		.4byte	0x3b93
 8176 1f91 9C1F0000 		.4byte	0x1f9c
 8177 1f95 3B       		.uleb128 0x3b
 8178 1f96 01       		.uleb128 0x1
 8179 1f97 50       		.byte	0x50
 8180 1f98 02       		.uleb128 0x2
 8181 1f99 76       		.byte	0x76
 8182 1f9a 00       		.sleb128 0
 8183 1f9b 00       		.byte	0
 8184 1f9c 3A       		.uleb128 0x3a
 8185 1f9d 58000000 		.4byte	.LVL13
 8186 1fa1 9F3B0000 		.4byte	0x3b9f
 8187 1fa5 B01F0000 		.4byte	0x1fb0
 8188 1fa9 3B       		.uleb128 0x3b
 8189 1faa 01       		.uleb128 0x1
 8190 1fab 50       		.byte	0x50
 8191 1fac 02       		.uleb128 0x2
 8192 1fad 76       		.byte	0x76
 8193 1fae 00       		.sleb128 0
 8194 1faf 00       		.byte	0
 8195 1fb0 3A       		.uleb128 0x3a
 8196 1fb1 94000000 		.4byte	.LVL20
 8197 1fb5 AB3B0000 		.4byte	0x3bab
 8198 1fb9 D11F0000 		.4byte	0x1fd1
 8199 1fbd 3B       		.uleb128 0x3b
 8200 1fbe 01       		.uleb128 0x1
 8201 1fbf 50       		.byte	0x50
 8202 1fc0 03       		.uleb128 0x3
 8203 1fc1 91       		.byte	0x91
 8204 1fc2 907F     		.sleb128 -112
 8205 1fc4 3B       		.uleb128 0x3b
 8206 1fc5 01       		.uleb128 0x1
 8207 1fc6 51       		.byte	0x51
 8208 1fc7 02       		.uleb128 0x2
 8209 1fc8 7A       		.byte	0x7a
 8210 1fc9 00       		.sleb128 0
 8211 1fca 3B       		.uleb128 0x3b
 8212 1fcb 01       		.uleb128 0x1
 8213 1fcc 53       		.byte	0x53
 8214 1fcd 02       		.uleb128 0x2
 8215 1fce 77       		.byte	0x77
 8216 1fcf 00       		.sleb128 0
 8217 1fd0 00       		.byte	0
 8218 1fd1 3A       		.uleb128 0x3a
 8219 1fd2 9C000000 		.4byte	.LVL21
 8220 1fd6 B63B0000 		.4byte	0x3bb6
 8221 1fda E61F0000 		.4byte	0x1fe6
 8222 1fde 3B       		.uleb128 0x3b
 8223 1fdf 01       		.uleb128 0x1
 8224 1fe0 51       		.byte	0x51
 8225 1fe1 03       		.uleb128 0x3
 8226 1fe2 91       		.byte	0x91
 8227 1fe3 987F     		.sleb128 -104
 8228 1fe5 00       		.byte	0
 8229 1fe6 3A       		.uleb128 0x3a
ARM GAS  C:\Users\pearlstl\AppData\Local\Temp\ccHPSyCj.s 			page 177


 8230 1fe7 D0000000 		.4byte	.LVL27
 8231 1feb C13B0000 		.4byte	0x3bc1
 8232 1fef FB1F0000 		.4byte	0x1ffb
 8233 1ff3 3B       		.uleb128 0x3b
 8234 1ff4 01       		.uleb128 0x1
 8235 1ff5 50       		.byte	0x50
 8236 1ff6 03       		.uleb128 0x3
 8237 1ff7 91       		.byte	0x91
 8238 1ff8 9D7F     		.sleb128 -99
 8239 1ffa 00       		.byte	0
 8240 1ffb 3A       		.uleb128 0x3a
 8241 1ffc 00010000 		.4byte	.LVL29
 8242 2000 CC3B0000 		.4byte	0x3bcc
 8243 2004 46200000 		.4byte	0x2046
 8244 2008 3B       		.uleb128 0x3b
 8245 2009 01       		.uleb128 0x1
 8246 200a 50       		.byte	0x50
 8247 200b 03       		.uleb128 0x3
 8248 200c 91       		.byte	0x91
 8249 200d 907F     		.sleb128 -112
 8250 200f 3B       		.uleb128 0x3b
 8251 2010 01       		.uleb128 0x1
 8252 2011 51       		.byte	0x51
 8253 2012 02       		.uleb128 0x2
 8254 2013 7A       		.byte	0x7a
 8255 2014 00       		.sleb128 0
 8256 2015 3B       		.uleb128 0x3b
 8257 2016 01       		.uleb128 0x1
 8258 2017 53       		.byte	0x53
 8259 2018 02       		.uleb128 0x2
 8260 2019 77       		.byte	0x77
 8261 201a 00       		.sleb128 0
 8262 201b 3B       		.uleb128 0x3b
 8263 201c 02       		.uleb128 0x2
 8264 201d 7D       		.byte	0x7d
 8265 201e 00       		.sleb128 0
 8266 201f 03       		.uleb128 0x3
 8267 2020 91       		.byte	0x91
 8268 2021 987F     		.sleb128 -104
 8269 2023 3B       		.uleb128 0x3b
 8270 2024 02       		.uleb128 0x2
 8271 2025 7D       		.byte	0x7d
 8272 2026 04       		.sleb128 4
 8273 2027 01       		.uleb128 0x1
 8274 2028 34       		.byte	0x34
 8275 2029 3B       		.uleb128 0x3b
 8276 202a 02       		.uleb128 0x2
 8277 202b 7D       		.byte	0x7d
 8278 202c 08       		.sleb128 8
 8279 202d 02       		.uleb128 0x2
 8280 202e 74       		.byte	0x74
 8281 202f 00       		.sleb128 0
 8282 2030 3B       		.uleb128 0x3b
 8283 2031 02       		.uleb128 0x2
 8284 2032 7D       		.byte	0x7d
 8285 2033 0C       		.sleb128 12
 8286 2034 02       		.uleb128 0x2
ARM GAS  C:\Users\pearlstl\AppData\Local\Temp\ccHPSyCj.s 			page 178


 8287 2035 74       		.byte	0x74
 8288 2036 00       		.sleb128 0
 8289 2037 3B       		.uleb128 0x3b
 8290 2038 02       		.uleb128 0x2
 8291 2039 7D       		.byte	0x7d
 8292 203a 10       		.sleb128 16
 8293 203b 02       		.uleb128 0x2
 8294 203c 74       		.byte	0x74
 8295 203d 00       		.sleb128 0
 8296 203e 3B       		.uleb128 0x3b
 8297 203f 02       		.uleb128 0x2
 8298 2040 7D       		.byte	0x7d
 8299 2041 14       		.sleb128 20
 8300 2042 02       		.uleb128 0x2
 8301 2043 78       		.byte	0x78
 8302 2044 00       		.sleb128 0
 8303 2045 00       		.byte	0
 8304 2046 3A       		.uleb128 0x3a
 8305 2047 34010000 		.4byte	.LVL32
 8306 204b CC3B0000 		.4byte	0x3bcc
 8307 204f 94200000 		.4byte	0x2094
 8308 2053 3B       		.uleb128 0x3b
 8309 2054 01       		.uleb128 0x1
 8310 2055 50       		.byte	0x50
 8311 2056 03       		.uleb128 0x3
 8312 2057 91       		.byte	0x91
 8313 2058 907F     		.sleb128 -112
 8314 205a 3B       		.uleb128 0x3b
 8315 205b 01       		.uleb128 0x1
 8316 205c 51       		.byte	0x51
 8317 205d 02       		.uleb128 0x2
 8318 205e 7A       		.byte	0x7a
 8319 205f 00       		.sleb128 0
 8320 2060 3B       		.uleb128 0x3b
 8321 2061 01       		.uleb128 0x1
 8322 2062 53       		.byte	0x53
 8323 2063 02       		.uleb128 0x2
 8324 2064 77       		.byte	0x77
 8325 2065 00       		.sleb128 0
 8326 2066 3B       		.uleb128 0x3b
 8327 2067 02       		.uleb128 0x2
 8328 2068 7D       		.byte	0x7d
 8329 2069 00       		.sleb128 0
 8330 206a 05       		.uleb128 0x5
 8331 206b 03       		.byte	0x3
 8332 206c 00000000 		.4byte	.LC0
 8333 2070 3B       		.uleb128 0x3b
 8334 2071 02       		.uleb128 0x2
 8335 2072 7D       		.byte	0x7d
 8336 2073 04       		.sleb128 4
 8337 2074 02       		.uleb128 0x2
 8338 2075 74       		.byte	0x74
 8339 2076 00       		.sleb128 0
 8340 2077 3B       		.uleb128 0x3b
 8341 2078 02       		.uleb128 0x2
 8342 2079 7D       		.byte	0x7d
 8343 207a 08       		.sleb128 8
ARM GAS  C:\Users\pearlstl\AppData\Local\Temp\ccHPSyCj.s 			page 179


 8344 207b 02       		.uleb128 0x2
 8345 207c 74       		.byte	0x74
 8346 207d 00       		.sleb128 0
 8347 207e 3B       		.uleb128 0x3b
 8348 207f 02       		.uleb128 0x2
 8349 2080 7D       		.byte	0x7d
 8350 2081 0C       		.sleb128 12
 8351 2082 02       		.uleb128 0x2
 8352 2083 74       		.byte	0x74
 8353 2084 00       		.sleb128 0
 8354 2085 3B       		.uleb128 0x3b
 8355 2086 02       		.uleb128 0x2
 8356 2087 7D       		.byte	0x7d
 8357 2088 10       		.sleb128 16
 8358 2089 02       		.uleb128 0x2
 8359 208a 74       		.byte	0x74
 8360 208b 00       		.sleb128 0
 8361 208c 3B       		.uleb128 0x3b
 8362 208d 02       		.uleb128 0x2
 8363 208e 7D       		.byte	0x7d
 8364 208f 14       		.sleb128 20
 8365 2090 02       		.uleb128 0x2
 8366 2091 78       		.byte	0x78
 8367 2092 00       		.sleb128 0
 8368 2093 00       		.byte	0
 8369 2094 3A       		.uleb128 0x3a
 8370 2095 5A010000 		.4byte	.LVL35
 8371 2099 D73B0000 		.4byte	0x3bd7
 8372 209d B4200000 		.4byte	0x20b4
 8373 20a1 3B       		.uleb128 0x3b
 8374 20a2 01       		.uleb128 0x1
 8375 20a3 50       		.byte	0x50
 8376 20a4 02       		.uleb128 0x2
 8377 20a5 79       		.byte	0x79
 8378 20a6 00       		.sleb128 0
 8379 20a7 3B       		.uleb128 0x3b
 8380 20a8 01       		.uleb128 0x1
 8381 20a9 51       		.byte	0x51
 8382 20aa 01       		.uleb128 0x1
 8383 20ab 33       		.byte	0x33
 8384 20ac 3B       		.uleb128 0x3b
 8385 20ad 02       		.uleb128 0x2
 8386 20ae 7D       		.byte	0x7d
 8387 20af 00       		.sleb128 0
 8388 20b0 02       		.uleb128 0x2
 8389 20b1 74       		.byte	0x74
 8390 20b2 00       		.sleb128 0
 8391 20b3 00       		.byte	0
 8392 20b4 3C       		.uleb128 0x3c
 8393 20b5 7E010000 		.4byte	.LVL36
 8394 20b9 CC3B0000 		.4byte	0x3bcc
 8395 20bd 3B       		.uleb128 0x3b
 8396 20be 01       		.uleb128 0x1
 8397 20bf 50       		.byte	0x50
 8398 20c0 03       		.uleb128 0x3
 8399 20c1 91       		.byte	0x91
 8400 20c2 907F     		.sleb128 -112
ARM GAS  C:\Users\pearlstl\AppData\Local\Temp\ccHPSyCj.s 			page 180


 8401 20c4 3B       		.uleb128 0x3b
 8402 20c5 01       		.uleb128 0x1
 8403 20c6 51       		.byte	0x51
 8404 20c7 02       		.uleb128 0x2
 8405 20c8 7A       		.byte	0x7a
 8406 20c9 00       		.sleb128 0
 8407 20ca 3B       		.uleb128 0x3b
 8408 20cb 01       		.uleb128 0x1
 8409 20cc 52       		.byte	0x52
 8410 20cd 02       		.uleb128 0x2
 8411 20ce 76       		.byte	0x76
 8412 20cf 00       		.sleb128 0
 8413 20d0 3B       		.uleb128 0x3b
 8414 20d1 01       		.uleb128 0x1
 8415 20d2 53       		.byte	0x53
 8416 20d3 02       		.uleb128 0x2
 8417 20d4 77       		.byte	0x77
 8418 20d5 00       		.sleb128 0
 8419 20d6 3B       		.uleb128 0x3b
 8420 20d7 02       		.uleb128 0x2
 8421 20d8 7D       		.byte	0x7d
 8422 20d9 00       		.sleb128 0
 8423 20da 02       		.uleb128 0x2
 8424 20db 79       		.byte	0x79
 8425 20dc 00       		.sleb128 0
 8426 20dd 3B       		.uleb128 0x3b
 8427 20de 02       		.uleb128 0x2
 8428 20df 7D       		.byte	0x7d
 8429 20e0 04       		.sleb128 4
 8430 20e1 02       		.uleb128 0x2
 8431 20e2 74       		.byte	0x74
 8432 20e3 00       		.sleb128 0
 8433 20e4 3B       		.uleb128 0x3b
 8434 20e5 02       		.uleb128 0x2
 8435 20e6 7D       		.byte	0x7d
 8436 20e7 08       		.sleb128 8
 8437 20e8 02       		.uleb128 0x2
 8438 20e9 74       		.byte	0x74
 8439 20ea 00       		.sleb128 0
 8440 20eb 3B       		.uleb128 0x3b
 8441 20ec 02       		.uleb128 0x2
 8442 20ed 7D       		.byte	0x7d
 8443 20ee 0C       		.sleb128 12
 8444 20ef 02       		.uleb128 0x2
 8445 20f0 74       		.byte	0x74
 8446 20f1 00       		.sleb128 0
 8447 20f2 3B       		.uleb128 0x3b
 8448 20f3 02       		.uleb128 0x2
 8449 20f4 7D       		.byte	0x7d
 8450 20f5 10       		.sleb128 16
 8451 20f6 02       		.uleb128 0x2
 8452 20f7 74       		.byte	0x74
 8453 20f8 00       		.sleb128 0
 8454 20f9 3B       		.uleb128 0x3b
 8455 20fa 02       		.uleb128 0x2
 8456 20fb 7D       		.byte	0x7d
 8457 20fc 14       		.sleb128 20
ARM GAS  C:\Users\pearlstl\AppData\Local\Temp\ccHPSyCj.s 			page 181


 8458 20fd 02       		.uleb128 0x2
 8459 20fe 78       		.byte	0x78
 8460 20ff 00       		.sleb128 0
 8461 2100 00       		.byte	0
 8462 2101 00       		.byte	0
 8463 2102 00       		.byte	0
 8464 2103 3E       		.uleb128 0x3e
 8465 2104 331C0000 		.4byte	0x1c33
 8466 2108 7E010000 		.4byte	.LBB169
 8467 210c 16010000 		.4byte	.LBE169-.LBB169
 8468 2110 01       		.byte	0x1
 8469 2111 D301     		.2byte	0x1d3
 8470 2113 9A220000 		.4byte	0x229a
 8471 2117 34       		.uleb128 0x34
 8472 2118 4C1C0000 		.4byte	0x1c4c
 8473 211c D0020000 		.4byte	.LLST18
 8474 2120 34       		.uleb128 0x34
 8475 2121 401C0000 		.4byte	0x1c40
 8476 2125 E5020000 		.4byte	.LLST19
 8477 2129 3F       		.uleb128 0x3f
 8478 212a 7E010000 		.4byte	.LBB170
 8479 212e 16010000 		.4byte	.LBE170-.LBB170
 8480 2132 36       		.uleb128 0x36
 8481 2133 581C0000 		.4byte	0x1c58
 8482 2137 12030000 		.4byte	.LLST20
 8483 213b 36       		.uleb128 0x36
 8484 213c 641C0000 		.4byte	0x1c64
 8485 2140 3D030000 		.4byte	.LLST21
 8486 2144 36       		.uleb128 0x36
 8487 2145 701C0000 		.4byte	0x1c70
 8488 2149 52030000 		.4byte	.LLST22
 8489 214d 36       		.uleb128 0x36
 8490 214e 7C1C0000 		.4byte	0x1c7c
 8491 2152 67030000 		.4byte	.LLST23
 8492 2156 36       		.uleb128 0x36
 8493 2157 881C0000 		.4byte	0x1c88
 8494 215b 85030000 		.4byte	.LLST24
 8495 215f 36       		.uleb128 0x36
 8496 2160 921C0000 		.4byte	0x1c92
 8497 2164 A3030000 		.4byte	.LLST25
 8498 2168 3D       		.uleb128 0x3d
 8499 2169 9E1C0000 		.4byte	0x1c9e
 8500 216d 03       		.uleb128 0x3
 8501 216e 91       		.byte	0x91
 8502 216f 987F     		.sleb128 -104
 8503 2171 36       		.uleb128 0x36
 8504 2172 AA1C0000 		.4byte	0x1caa
 8505 2176 C9030000 		.4byte	.LLST26
 8506 217a 37       		.uleb128 0x37
 8507 217b 1B190000 		.4byte	0x191b
 8508 217f B4010000 		.4byte	.LBB171
 8509 2183 60000000 		.4byte	.Ldebug_ranges0+0x60
 8510 2187 01       		.byte	0x1
 8511 2188 D402     		.2byte	0x2d4
 8512 218a B1210000 		.4byte	0x21b1
 8513 218e 40       		.uleb128 0x40
 8514 218f 2C190000 		.4byte	0x192c
ARM GAS  C:\Users\pearlstl\AppData\Local\Temp\ccHPSyCj.s 			page 182


 8515 2193 38       		.uleb128 0x38
 8516 2194 60000000 		.4byte	.Ldebug_ranges0+0x60
 8517 2198 39       		.uleb128 0x39
 8518 2199 38190000 		.4byte	0x1938
 8519 219d 3C       		.uleb128 0x3c
 8520 219e BE010000 		.4byte	.LVL47
 8521 21a2 7B3B0000 		.4byte	0x3b7b
 8522 21a6 3B       		.uleb128 0x3b
 8523 21a7 01       		.uleb128 0x1
 8524 21a8 50       		.byte	0x50
 8525 21a9 04       		.uleb128 0x4
 8526 21aa 91       		.byte	0x91
 8527 21ab C87E     		.sleb128 -184
 8528 21ad 06       		.byte	0x6
 8529 21ae 00       		.byte	0
 8530 21af 00       		.byte	0
 8531 21b0 00       		.byte	0
 8532 21b1 37       		.uleb128 0x37
 8533 21b2 51190000 		.4byte	0x1951
 8534 21b6 1E020000 		.4byte	.LBB175
 8535 21ba 78000000 		.4byte	.Ldebug_ranges0+0x78
 8536 21be 01       		.byte	0x1
 8537 21bf DA02     		.2byte	0x2da
 8538 21c1 F3210000 		.4byte	0x21f3
 8539 21c5 40       		.uleb128 0x40
 8540 21c6 6E190000 		.4byte	0x196e
 8541 21ca 34       		.uleb128 0x34
 8542 21cb 62190000 		.4byte	0x1962
 8543 21cf DD030000 		.4byte	.LLST27
 8544 21d3 38       		.uleb128 0x38
 8545 21d4 78000000 		.4byte	.Ldebug_ranges0+0x78
 8546 21d8 36       		.uleb128 0x36
 8547 21d9 7A190000 		.4byte	0x197a
 8548 21dd 06040000 		.4byte	.LLST28
 8549 21e1 3C       		.uleb128 0x3c
 8550 21e2 74020000 		.4byte	.LVL58
 8551 21e6 7B3B0000 		.4byte	0x3b7b
 8552 21ea 3B       		.uleb128 0x3b
 8553 21eb 01       		.uleb128 0x1
 8554 21ec 50       		.byte	0x50
 8555 21ed 02       		.uleb128 0x2
 8556 21ee 77       		.byte	0x77
 8557 21ef 00       		.sleb128 0
 8558 21f0 00       		.byte	0
 8559 21f1 00       		.byte	0
 8560 21f2 00       		.byte	0
 8561 21f3 3A       		.uleb128 0x3a
 8562 21f4 86010000 		.4byte	.LVL37
 8563 21f8 7B3B0000 		.4byte	0x3b7b
 8564 21fc 09220000 		.4byte	0x2209
 8565 2200 3B       		.uleb128 0x3b
 8566 2201 01       		.uleb128 0x1
 8567 2202 50       		.byte	0x50
 8568 2203 04       		.uleb128 0x4
 8569 2204 91       		.byte	0x91
 8570 2205 C87E     		.sleb128 -184
 8571 2207 06       		.byte	0x6
ARM GAS  C:\Users\pearlstl\AppData\Local\Temp\ccHPSyCj.s 			page 183


 8572 2208 00       		.byte	0
 8573 2209 3A       		.uleb128 0x3a
 8574 220a 8E010000 		.4byte	.LVL40
 8575 220e 933B0000 		.4byte	0x3b93
 8576 2212 1F220000 		.4byte	0x221f
 8577 2216 3B       		.uleb128 0x3b
 8578 2217 01       		.uleb128 0x1
 8579 2218 50       		.byte	0x50
 8580 2219 04       		.uleb128 0x4
 8581 221a 91       		.byte	0x91
 8582 221b C87E     		.sleb128 -184
 8583 221d 06       		.byte	0x6
 8584 221e 00       		.byte	0
 8585 221f 3A       		.uleb128 0x3a
 8586 2220 96010000 		.4byte	.LVL42
 8587 2224 9F3B0000 		.4byte	0x3b9f
 8588 2228 35220000 		.4byte	0x2235
 8589 222c 3B       		.uleb128 0x3b
 8590 222d 01       		.uleb128 0x1
 8591 222e 50       		.byte	0x50
 8592 222f 04       		.uleb128 0x4
 8593 2230 91       		.byte	0x91
 8594 2231 C87E     		.sleb128 -184
 8595 2233 06       		.byte	0x6
 8596 2234 00       		.byte	0
 8597 2235 3A       		.uleb128 0x3a
 8598 2236 A6010000 		.4byte	.LVL45
 8599 223a E23B0000 		.4byte	0x3be2
 8600 223e 4B220000 		.4byte	0x224b
 8601 2242 3B       		.uleb128 0x3b
 8602 2243 01       		.uleb128 0x1
 8603 2244 50       		.byte	0x50
 8604 2245 04       		.uleb128 0x4
 8605 2246 91       		.byte	0x91
 8606 2247 C87E     		.sleb128 -184
 8607 2249 06       		.byte	0x6
 8608 224a 00       		.byte	0
 8609 224b 3C       		.uleb128 0x3c
 8610 224c 3E020000 		.4byte	.LVL56
 8611 2250 CC3B0000 		.4byte	0x3bcc
 8612 2254 3B       		.uleb128 0x3b
 8613 2255 01       		.uleb128 0x1
 8614 2256 50       		.byte	0x50
 8615 2257 03       		.uleb128 0x3
 8616 2258 91       		.byte	0x91
 8617 2259 987F     		.sleb128 -104
 8618 225b 3B       		.uleb128 0x3b
 8619 225c 01       		.uleb128 0x1
 8620 225d 51       		.byte	0x51
 8621 225e 04       		.uleb128 0x4
 8622 225f 91       		.byte	0x91
 8623 2260 CC7E     		.sleb128 -180
 8624 2262 06       		.byte	0x6
 8625 2263 3B       		.uleb128 0x3b
 8626 2264 01       		.uleb128 0x1
 8627 2265 52       		.byte	0x52
 8628 2266 02       		.uleb128 0x2
ARM GAS  C:\Users\pearlstl\AppData\Local\Temp\ccHPSyCj.s 			page 184


 8629 2267 7B       		.byte	0x7b
 8630 2268 00       		.sleb128 0
 8631 2269 3B       		.uleb128 0x3b
 8632 226a 01       		.uleb128 0x1
 8633 226b 53       		.byte	0x53
 8634 226c 05       		.uleb128 0x5
 8635 226d 91       		.byte	0x91
 8636 226e D47E     		.sleb128 -172
 8637 2270 94       		.byte	0x94
 8638 2271 01       		.byte	0x1
 8639 2272 3B       		.uleb128 0x3b
 8640 2273 02       		.uleb128 0x2
 8641 2274 7D       		.byte	0x7d
 8642 2275 04       		.sleb128 4
 8643 2276 01       		.uleb128 0x1
 8644 2277 34       		.byte	0x34
 8645 2278 3B       		.uleb128 0x3b
 8646 2279 02       		.uleb128 0x2
 8647 227a 7D       		.byte	0x7d
 8648 227b 08       		.sleb128 8
 8649 227c 02       		.uleb128 0x2
 8650 227d 76       		.byte	0x76
 8651 227e 00       		.sleb128 0
 8652 227f 3B       		.uleb128 0x3b
 8653 2280 02       		.uleb128 0x2
 8654 2281 7D       		.byte	0x7d
 8655 2282 0C       		.sleb128 12
 8656 2283 02       		.uleb128 0x2
 8657 2284 76       		.byte	0x76
 8658 2285 00       		.sleb128 0
 8659 2286 3B       		.uleb128 0x3b
 8660 2287 02       		.uleb128 0x2
 8661 2288 7D       		.byte	0x7d
 8662 2289 10       		.sleb128 16
 8663 228a 02       		.uleb128 0x2
 8664 228b 76       		.byte	0x76
 8665 228c 00       		.sleb128 0
 8666 228d 3B       		.uleb128 0x3b
 8667 228e 02       		.uleb128 0x2
 8668 228f 7D       		.byte	0x7d
 8669 2290 14       		.sleb128 20
 8670 2291 05       		.uleb128 0x5
 8671 2292 91       		.byte	0x91
 8672 2293 D07E     		.sleb128 -176
 8673 2295 94       		.byte	0x94
 8674 2296 01       		.byte	0x1
 8675 2297 00       		.byte	0
 8676 2298 00       		.byte	0
 8677 2299 00       		.byte	0
 8678 229a 37       		.uleb128 0x37
 8679 229b F91A0000 		.4byte	0x1af9
 8680 229f 94020000 		.4byte	.LBB181
 8681 22a3 98000000 		.4byte	.Ldebug_ranges0+0x98
 8682 22a7 01       		.byte	0x1
 8683 22a8 D401     		.2byte	0x1d4
 8684 22aa 90270000 		.4byte	0x2790
 8685 22ae 34       		.uleb128 0x34
ARM GAS  C:\Users\pearlstl\AppData\Local\Temp\ccHPSyCj.s 			page 185


 8686 22af 121B0000 		.4byte	0x1b12
 8687 22b3 24040000 		.4byte	.LLST29
 8688 22b7 34       		.uleb128 0x34
 8689 22b8 061B0000 		.4byte	0x1b06
 8690 22bc 46040000 		.4byte	.LLST30
 8691 22c0 38       		.uleb128 0x38
 8692 22c1 98000000 		.4byte	.Ldebug_ranges0+0x98
 8693 22c5 36       		.uleb128 0x36
 8694 22c6 1E1B0000 		.4byte	0x1b1e
 8695 22ca 96040000 		.4byte	.LLST31
 8696 22ce 36       		.uleb128 0x36
 8697 22cf 2A1B0000 		.4byte	0x1b2a
 8698 22d3 BF040000 		.4byte	.LLST32
 8699 22d7 39       		.uleb128 0x39
 8700 22d8 361B0000 		.4byte	0x1b36
 8701 22dc 3D       		.uleb128 0x3d
 8702 22dd 421B0000 		.4byte	0x1b42
 8703 22e1 03       		.uleb128 0x3
 8704 22e2 91       		.byte	0x91
 8705 22e3 907F     		.sleb128 -112
 8706 22e5 36       		.uleb128 0x36
 8707 22e6 4E1B0000 		.4byte	0x1b4e
 8708 22ea E1040000 		.4byte	.LLST33
 8709 22ee 36       		.uleb128 0x36
 8710 22ef 5A1B0000 		.4byte	0x1b5a
 8711 22f3 03050000 		.4byte	.LLST34
 8712 22f7 36       		.uleb128 0x36
 8713 22f8 641B0000 		.4byte	0x1b64
 8714 22fc 46050000 		.4byte	.LLST35
 8715 2300 36       		.uleb128 0x36
 8716 2301 6E1B0000 		.4byte	0x1b6e
 8717 2305 B4050000 		.4byte	.LLST36
 8718 2309 36       		.uleb128 0x36
 8719 230a 7A1B0000 		.4byte	0x1b7a
 8720 230e B5060000 		.4byte	.LLST37
 8721 2312 36       		.uleb128 0x36
 8722 2313 861B0000 		.4byte	0x1b86
 8723 2317 D7060000 		.4byte	.LLST38
 8724 231b 36       		.uleb128 0x36
 8725 231c 921B0000 		.4byte	0x1b92
 8726 2320 03070000 		.4byte	.LLST39
 8727 2324 39       		.uleb128 0x39
 8728 2325 9E1B0000 		.4byte	0x1b9e
 8729 2329 36       		.uleb128 0x36
 8730 232a AA1B0000 		.4byte	0x1baa
 8731 232e 64070000 		.4byte	.LLST40
 8732 2332 36       		.uleb128 0x36
 8733 2333 B61B0000 		.4byte	0x1bb6
 8734 2337 0C080000 		.4byte	.LLST41
 8735 233b 36       		.uleb128 0x36
 8736 233c C21B0000 		.4byte	0x1bc2
 8737 2340 5E080000 		.4byte	.LLST42
 8738 2344 3D       		.uleb128 0x3d
 8739 2345 CE1B0000 		.4byte	0x1bce
 8740 2349 03       		.uleb128 0x3
 8741 234a 91       		.byte	0x91
 8742 234b 8C7F     		.sleb128 -116
ARM GAS  C:\Users\pearlstl\AppData\Local\Temp\ccHPSyCj.s 			page 186


 8743 234d 36       		.uleb128 0x36
 8744 234e DA1B0000 		.4byte	0x1bda
 8745 2352 84080000 		.4byte	.LLST43
 8746 2356 3E       		.uleb128 0x3e
 8747 2357 1B1A0000 		.4byte	0x1a1b
 8748 235b A6020000 		.4byte	.LBB183
 8749 235f 0E000000 		.4byte	.LBE183-.LBB183
 8750 2363 01       		.byte	0x1
 8751 2364 E802     		.2byte	0x2e8
 8752 2366 BD230000 		.4byte	0x23bd
 8753 236a 34       		.uleb128 0x34
 8754 236b 381A0000 		.4byte	0x1a38
 8755 236f D8080000 		.4byte	.LLST44
 8756 2373 34       		.uleb128 0x34
 8757 2374 2C1A0000 		.4byte	0x1a2c
 8758 2378 EC080000 		.4byte	.LLST45
 8759 237c 3F       		.uleb128 0x3f
 8760 237d A6020000 		.4byte	.LBB184
 8761 2381 0E000000 		.4byte	.LBE184-.LBB184
 8762 2385 36       		.uleb128 0x36
 8763 2386 441A0000 		.4byte	0x1a44
 8764 238a D8080000 		.4byte	.LLST44
 8765 238e 39       		.uleb128 0x39
 8766 238f 501A0000 		.4byte	0x1a50
 8767 2393 3A       		.uleb128 0x3a
 8768 2394 AC020000 		.4byte	.LVL65
 8769 2398 7B3B0000 		.4byte	0x3b7b
 8770 239c A9230000 		.4byte	0x23a9
 8771 23a0 3B       		.uleb128 0x3b
 8772 23a1 01       		.uleb128 0x1
 8773 23a2 50       		.byte	0x50
 8774 23a3 04       		.uleb128 0x4
 8775 23a4 91       		.byte	0x91
 8776 23a5 C87E     		.sleb128 -184
 8777 23a7 06       		.byte	0x6
 8778 23a8 00       		.byte	0
 8779 23a9 3C       		.uleb128 0x3c
 8780 23aa B2020000 		.4byte	.LVL66
 8781 23ae 873B0000 		.4byte	0x3b87
 8782 23b2 3B       		.uleb128 0x3b
 8783 23b3 01       		.uleb128 0x1
 8784 23b4 50       		.byte	0x50
 8785 23b5 04       		.uleb128 0x4
 8786 23b6 91       		.byte	0x91
 8787 23b7 C87E     		.sleb128 -184
 8788 23b9 06       		.byte	0x6
 8789 23ba 00       		.byte	0
 8790 23bb 00       		.byte	0
 8791 23bc 00       		.byte	0
 8792 23bd 37       		.uleb128 0x37
 8793 23be 1B190000 		.4byte	0x191b
 8794 23c2 BC020000 		.4byte	.LBB185
 8795 23c6 B0000000 		.4byte	.Ldebug_ranges0+0xb0
 8796 23ca 01       		.byte	0x1
 8797 23cb EB02     		.2byte	0x2eb
 8798 23cd FA230000 		.4byte	0x23fa
 8799 23d1 34       		.uleb128 0x34
ARM GAS  C:\Users\pearlstl\AppData\Local\Temp\ccHPSyCj.s 			page 187


 8800 23d2 2C190000 		.4byte	0x192c
 8801 23d6 01090000 		.4byte	.LLST47
 8802 23da 38       		.uleb128 0x38
 8803 23db B0000000 		.4byte	.Ldebug_ranges0+0xb0
 8804 23df 36       		.uleb128 0x36
 8805 23e0 38190000 		.4byte	0x1938
 8806 23e4 1F090000 		.4byte	.LLST48
 8807 23e8 3C       		.uleb128 0x3c
 8808 23e9 C8020000 		.4byte	.LVL71
 8809 23ed 7B3B0000 		.4byte	0x3b7b
 8810 23f1 3B       		.uleb128 0x3b
 8811 23f2 01       		.uleb128 0x1
 8812 23f3 50       		.byte	0x50
 8813 23f4 02       		.uleb128 0x2
 8814 23f5 7A       		.byte	0x7a
 8815 23f6 00       		.sleb128 0
 8816 23f7 00       		.byte	0
 8817 23f8 00       		.byte	0
 8818 23f9 00       		.byte	0
 8819 23fa 37       		.uleb128 0x37
 8820 23fb C5190000 		.4byte	0x19c5
 8821 23ff F6020000 		.4byte	.LBB189
 8822 2403 C8000000 		.4byte	.Ldebug_ranges0+0xc8
 8823 2407 01       		.byte	0x1
 8824 2408 F702     		.2byte	0x2f7
 8825 240a 35240000 		.4byte	0x2435
 8826 240e 40       		.uleb128 0x40
 8827 240f EE190000 		.4byte	0x19ee
 8828 2413 40       		.uleb128 0x40
 8829 2414 E2190000 		.4byte	0x19e2
 8830 2418 40       		.uleb128 0x40
 8831 2419 D6190000 		.4byte	0x19d6
 8832 241d 38       		.uleb128 0x38
 8833 241e C8000000 		.4byte	.Ldebug_ranges0+0xc8
 8834 2422 39       		.uleb128 0x39
 8835 2423 FA190000 		.4byte	0x19fa
 8836 2427 3D       		.uleb128 0x3d
 8837 2428 041A0000 		.4byte	0x1a04
 8838 242c 01       		.uleb128 0x1
 8839 242d 54       		.byte	0x54
 8840 242e 39       		.uleb128 0x39
 8841 242f 0E1A0000 		.4byte	0x1a0e
 8842 2433 00       		.byte	0
 8843 2434 00       		.byte	0
 8844 2435 37       		.uleb128 0x37
 8845 2436 691D0000 		.4byte	0x1d69
 8846 243a C4030000 		.4byte	.LBB209
 8847 243e 20010000 		.4byte	.Ldebug_ranges0+0x120
 8848 2442 01       		.byte	0x1
 8849 2443 0203     		.2byte	0x302
 8850 2445 76240000 		.4byte	0x2476
 8851 2449 34       		.uleb128 0x34
 8852 244a 861D0000 		.4byte	0x1d86
 8853 244e 32090000 		.4byte	.LLST49
 8854 2452 34       		.uleb128 0x34
 8855 2453 7A1D0000 		.4byte	0x1d7a
 8856 2457 D40A0000 		.4byte	.LLST50
ARM GAS  C:\Users\pearlstl\AppData\Local\Temp\ccHPSyCj.s 			page 188


 8857 245b 41       		.uleb128 0x41
 8858 245c FD180000 		.4byte	0x18fd
 8859 2460 62080000 		.4byte	.LBB211
 8860 2464 38010000 		.4byte	.Ldebug_ranges0+0x138
 8861 2468 01       		.byte	0x1
 8862 2469 B903     		.2byte	0x3b9
 8863 246b 34       		.uleb128 0x34
 8864 246c 0E190000 		.4byte	0x190e
 8865 2470 680B0000 		.4byte	.LLST51
 8866 2474 00       		.byte	0
 8867 2475 00       		.byte	0
 8868 2476 35       		.uleb128 0x35
 8869 2477 50010000 		.4byte	.Ldebug_ranges0+0x150
 8870 247b 3C270000 		.4byte	0x273c
 8871 247f 36       		.uleb128 0x36
 8872 2480 E71B0000 		.4byte	0x1be7
 8873 2484 FC0B0000 		.4byte	.LLST52
 8874 2488 35       		.uleb128 0x35
 8875 2489 A0010000 		.4byte	.Ldebug_ranges0+0x1a0
 8876 248d E0260000 		.4byte	0x26e0
 8877 2491 36       		.uleb128 0x36
 8878 2492 061C0000 		.4byte	0x1c06
 8879 2496 5F0C0000 		.4byte	.LLST53
 8880 249a 37       		.uleb128 0x37
 8881 249b 931D0000 		.4byte	0x1d93
 8882 249f B6040000 		.4byte	.LBB218
 8883 24a3 D8010000 		.4byte	.Ldebug_ranges0+0x1d8
 8884 24a7 01       		.byte	0x1
 8885 24a8 4A03     		.2byte	0x34a
 8886 24aa F9240000 		.4byte	0x24f9
 8887 24ae 40       		.uleb128 0x40
 8888 24af C81D0000 		.4byte	0x1dc8
 8889 24b3 34       		.uleb128 0x34
 8890 24b4 BC1D0000 		.4byte	0x1dbc
 8891 24b8 930C0000 		.4byte	.LLST54
 8892 24bc 34       		.uleb128 0x34
 8893 24bd B01D0000 		.4byte	0x1db0
 8894 24c1 A80C0000 		.4byte	.LLST55
 8895 24c5 34       		.uleb128 0x34
 8896 24c6 A41D0000 		.4byte	0x1da4
 8897 24ca CC0C0000 		.4byte	.LLST56
 8898 24ce 38       		.uleb128 0x38
 8899 24cf D8010000 		.4byte	.Ldebug_ranges0+0x1d8
 8900 24d3 36       		.uleb128 0x36
 8901 24d4 D41D0000 		.4byte	0x1dd4
 8902 24d8 EC0C0000 		.4byte	.LLST57
 8903 24dc 36       		.uleb128 0x36
 8904 24dd E01D0000 		.4byte	0x1de0
 8905 24e1 FF0C0000 		.4byte	.LLST58
 8906 24e5 3C       		.uleb128 0x3c
 8907 24e6 CC040000 		.4byte	.LVL107
 8908 24ea 7B3B0000 		.4byte	0x3b7b
 8909 24ee 3B       		.uleb128 0x3b
 8910 24ef 01       		.uleb128 0x1
 8911 24f0 50       		.byte	0x50
 8912 24f1 04       		.uleb128 0x4
 8913 24f2 91       		.byte	0x91
ARM GAS  C:\Users\pearlstl\AppData\Local\Temp\ccHPSyCj.s 			page 189


 8914 24f3 C87E     		.sleb128 -184
 8915 24f5 06       		.byte	0x6
 8916 24f6 00       		.byte	0
 8917 24f7 00       		.byte	0
 8918 24f8 00       		.byte	0
 8919 24f9 37       		.uleb128 0x37
 8920 24fa 931D0000 		.4byte	0x1d93
 8921 24fe B2050000 		.4byte	.LBB222
 8922 2502 F0010000 		.4byte	.Ldebug_ranges0+0x1f0
 8923 2506 01       		.byte	0x1
 8924 2507 4E03     		.2byte	0x34e
 8925 2509 6E250000 		.4byte	0x256e
 8926 250d 40       		.uleb128 0x40
 8927 250e C81D0000 		.4byte	0x1dc8
 8928 2512 34       		.uleb128 0x34
 8929 2513 BC1D0000 		.4byte	0x1dbc
 8930 2517 1E0D0000 		.4byte	.LLST59
 8931 251b 34       		.uleb128 0x34
 8932 251c B01D0000 		.4byte	0x1db0
 8933 2520 480D0000 		.4byte	.LLST60
 8934 2524 34       		.uleb128 0x34
 8935 2525 A41D0000 		.4byte	0x1da4
 8936 2529 720D0000 		.4byte	.LLST61
 8937 252d 38       		.uleb128 0x38
 8938 252e F0010000 		.4byte	.Ldebug_ranges0+0x1f0
 8939 2532 36       		.uleb128 0x36
 8940 2533 D41D0000 		.4byte	0x1dd4
 8941 2537 AA0D0000 		.4byte	.LLST62
 8942 253b 36       		.uleb128 0x36
 8943 253c E01D0000 		.4byte	0x1de0
 8944 2540 DE0D0000 		.4byte	.LLST63
 8945 2544 3A       		.uleb128 0x3a
 8946 2545 C0050000 		.4byte	.LVL126
 8947 2549 7B3B0000 		.4byte	0x3b7b
 8948 254d 5A250000 		.4byte	0x255a
 8949 2551 3B       		.uleb128 0x3b
 8950 2552 01       		.uleb128 0x1
 8951 2553 50       		.byte	0x50
 8952 2554 04       		.uleb128 0x4
 8953 2555 91       		.byte	0x91
 8954 2556 C87E     		.sleb128 -184
 8955 2558 06       		.byte	0x6
 8956 2559 00       		.byte	0
 8957 255a 3C       		.uleb128 0x3c
 8958 255b 36070000 		.4byte	.LVL163
 8959 255f 7B3B0000 		.4byte	0x3b7b
 8960 2563 3B       		.uleb128 0x3b
 8961 2564 01       		.uleb128 0x1
 8962 2565 50       		.byte	0x50
 8963 2566 04       		.uleb128 0x4
 8964 2567 91       		.byte	0x91
 8965 2568 C87E     		.sleb128 -184
 8966 256a 06       		.byte	0x6
 8967 256b 00       		.byte	0
 8968 256c 00       		.byte	0
 8969 256d 00       		.byte	0
 8970 256e 37       		.uleb128 0x37
ARM GAS  C:\Users\pearlstl\AppData\Local\Temp\ccHPSyCj.s 			page 190


 8971 256f 691D0000 		.4byte	0x1d69
 8972 2573 28060000 		.4byte	.LBB228
 8973 2577 18020000 		.4byte	.Ldebug_ranges0+0x218
 8974 257b 01       		.byte	0x1
 8975 257c 3103     		.2byte	0x331
 8976 257e AF250000 		.4byte	0x25af
 8977 2582 34       		.uleb128 0x34
 8978 2583 861D0000 		.4byte	0x1d86
 8979 2587 FD0D0000 		.4byte	.LLST64
 8980 258b 34       		.uleb128 0x34
 8981 258c 7A1D0000 		.4byte	0x1d7a
 8982 2590 740F0000 		.4byte	.LLST65
 8983 2594 41       		.uleb128 0x41
 8984 2595 FD180000 		.4byte	0x18fd
 8985 2599 64070000 		.4byte	.LBB230
 8986 259d 40020000 		.4byte	.Ldebug_ranges0+0x240
 8987 25a1 01       		.byte	0x1
 8988 25a2 B903     		.2byte	0x3b9
 8989 25a4 34       		.uleb128 0x34
 8990 25a5 0E190000 		.4byte	0x190e
 8991 25a9 23120000 		.4byte	.LLST66
 8992 25ad 00       		.byte	0
 8993 25ae 00       		.byte	0
 8994 25af 3E       		.uleb128 0x3e
 8995 25b0 931D0000 		.4byte	0x1d93
 8996 25b4 8E060000 		.4byte	.LBB239
 8997 25b8 5C000000 		.4byte	.LBE239-.LBB239
 8998 25bc 01       		.byte	0x1
 8999 25bd 5103     		.2byte	0x351
 9000 25bf 12260000 		.4byte	0x2612
 9001 25c3 40       		.uleb128 0x40
 9002 25c4 C81D0000 		.4byte	0x1dc8
 9003 25c8 34       		.uleb128 0x34
 9004 25c9 BC1D0000 		.4byte	0x1dbc
 9005 25cd C9130000 		.4byte	.LLST67
 9006 25d1 34       		.uleb128 0x34
 9007 25d2 B01D0000 		.4byte	0x1db0
 9008 25d6 DE130000 		.4byte	.LLST68
 9009 25da 34       		.uleb128 0x34
 9010 25db A41D0000 		.4byte	0x1da4
 9011 25df 02140000 		.4byte	.LLST69
 9012 25e3 3F       		.uleb128 0x3f
 9013 25e4 8E060000 		.4byte	.LBB240
 9014 25e8 5C000000 		.4byte	.LBE240-.LBB240
 9015 25ec 36       		.uleb128 0x36
 9016 25ed D41D0000 		.4byte	0x1dd4
 9017 25f1 17140000 		.4byte	.LLST70
 9018 25f5 36       		.uleb128 0x36
 9019 25f6 E01D0000 		.4byte	0x1de0
 9020 25fa 2A140000 		.4byte	.LLST71
 9021 25fe 3C       		.uleb128 0x3c
 9022 25ff 94060000 		.4byte	.LVL151
 9023 2603 7B3B0000 		.4byte	0x3b7b
 9024 2607 3B       		.uleb128 0x3b
 9025 2608 01       		.uleb128 0x1
 9026 2609 50       		.byte	0x50
 9027 260a 04       		.uleb128 0x4
ARM GAS  C:\Users\pearlstl\AppData\Local\Temp\ccHPSyCj.s 			page 191


 9028 260b 91       		.byte	0x91
 9029 260c C87E     		.sleb128 -184
 9030 260e 06       		.byte	0x6
 9031 260f 00       		.byte	0
 9032 2610 00       		.byte	0
 9033 2611 00       		.byte	0
 9034 2612 42       		.uleb128 0x42
 9035 2613 10080000 		.4byte	.LBB245
 9036 2617 3E000000 		.4byte	.LBE245-.LBB245
 9037 261b 72260000 		.4byte	0x2672
 9038 261f 3D       		.uleb128 0x3d
 9039 2620 131C0000 		.4byte	0x1c13
 9040 2624 03       		.uleb128 0x3
 9041 2625 91       		.byte	0x91
 9042 2626 987F     		.sleb128 -104
 9043 2628 3E       		.uleb128 0x3e
 9044 2629 681A0000 		.4byte	0x1a68
 9045 262d 10080000 		.4byte	.LBB246
 9046 2631 0C000000 		.4byte	.LBE246-.LBB246
 9047 2635 01       		.byte	0x1
 9048 2636 3E03     		.2byte	0x33e
 9049 2638 4F260000 		.4byte	0x264f
 9050 263c 34       		.uleb128 0x34
 9051 263d 7F1A0000 		.4byte	0x1a7f
 9052 2641 49140000 		.4byte	.LLST72
 9053 2645 34       		.uleb128 0x34
 9054 2646 741A0000 		.4byte	0x1a74
 9055 264a 78140000 		.4byte	.LLST73
 9056 264e 00       		.byte	0
 9057 264f 3C       		.uleb128 0x3c
 9058 2650 4C080000 		.4byte	.LVL189
 9059 2654 AB3B0000 		.4byte	0x3bab
 9060 2658 3B       		.uleb128 0x3b
 9061 2659 01       		.uleb128 0x1
 9062 265a 50       		.byte	0x50
 9063 265b 03       		.uleb128 0x3
 9064 265c 91       		.byte	0x91
 9065 265d 987F     		.sleb128 -104
 9066 265f 3B       		.uleb128 0x3b
 9067 2660 01       		.uleb128 0x1
 9068 2661 51       		.byte	0x51
 9069 2662 04       		.uleb128 0x4
 9070 2663 91       		.byte	0x91
 9071 2664 CC7E     		.sleb128 -180
 9072 2666 06       		.byte	0x6
 9073 2667 3B       		.uleb128 0x3b
 9074 2668 01       		.uleb128 0x1
 9075 2669 53       		.byte	0x53
 9076 266a 05       		.uleb128 0x5
 9077 266b 91       		.byte	0x91
 9078 266c DC7E     		.sleb128 -164
 9079 266e 94       		.byte	0x94
 9080 266f 01       		.byte	0x1
 9081 2670 00       		.byte	0
 9082 2671 00       		.byte	0
 9083 2672 3A       		.uleb128 0x3a
 9084 2673 26050000 		.4byte	.LVL115
ARM GAS  C:\Users\pearlstl\AppData\Local\Temp\ccHPSyCj.s 			page 192


 9085 2677 B63B0000 		.4byte	0x3bb6
 9086 267b 8D260000 		.4byte	0x268d
 9087 267f 3B       		.uleb128 0x3b
 9088 2680 01       		.uleb128 0x1
 9089 2681 50       		.byte	0x50
 9090 2682 02       		.uleb128 0x2
 9091 2683 76       		.byte	0x76
 9092 2684 00       		.sleb128 0
 9093 2685 3B       		.uleb128 0x3b
 9094 2686 01       		.uleb128 0x1
 9095 2687 51       		.byte	0x51
 9096 2688 03       		.uleb128 0x3
 9097 2689 91       		.byte	0x91
 9098 268a 8C7F     		.sleb128 -116
 9099 268c 00       		.byte	0
 9100 268d 3C       		.uleb128 0x3c
 9101 268e 4C050000 		.4byte	.LVL117
 9102 2692 CC3B0000 		.4byte	0x3bcc
 9103 2696 3B       		.uleb128 0x3b
 9104 2697 01       		.uleb128 0x1
 9105 2698 50       		.byte	0x50
 9106 2699 03       		.uleb128 0x3
 9107 269a 91       		.byte	0x91
 9108 269b 907F     		.sleb128 -112
 9109 269d 3B       		.uleb128 0x3b
 9110 269e 01       		.uleb128 0x1
 9111 269f 51       		.byte	0x51
 9112 26a0 04       		.uleb128 0x4
 9113 26a1 91       		.byte	0x91
 9114 26a2 CC7E     		.sleb128 -180
 9115 26a4 06       		.byte	0x6
 9116 26a5 3B       		.uleb128 0x3b
 9117 26a6 01       		.uleb128 0x1
 9118 26a7 52       		.byte	0x52
 9119 26a8 02       		.uleb128 0x2
 9120 26a9 77       		.byte	0x77
 9121 26aa 00       		.sleb128 0
 9122 26ab 3B       		.uleb128 0x3b
 9123 26ac 01       		.uleb128 0x1
 9124 26ad 53       		.byte	0x53
 9125 26ae 05       		.uleb128 0x5
 9126 26af 91       		.byte	0x91
 9127 26b0 DC7E     		.sleb128 -164
 9128 26b2 94       		.byte	0x94
 9129 26b3 01       		.byte	0x1
 9130 26b4 3B       		.uleb128 0x3b
 9131 26b5 02       		.uleb128 0x2
 9132 26b6 7D       		.byte	0x7d
 9133 26b7 00       		.sleb128 0
 9134 26b8 03       		.uleb128 0x3
 9135 26b9 91       		.byte	0x91
 9136 26ba 8C7F     		.sleb128 -116
 9137 26bc 3B       		.uleb128 0x3b
 9138 26bd 02       		.uleb128 0x2
 9139 26be 7D       		.byte	0x7d
 9140 26bf 04       		.sleb128 4
 9141 26c0 01       		.uleb128 0x1
ARM GAS  C:\Users\pearlstl\AppData\Local\Temp\ccHPSyCj.s 			page 193


 9142 26c1 34       		.byte	0x34
 9143 26c2 3B       		.uleb128 0x3b
 9144 26c3 02       		.uleb128 0x2
 9145 26c4 7D       		.byte	0x7d
 9146 26c5 08       		.sleb128 8
 9147 26c6 01       		.uleb128 0x1
 9148 26c7 30       		.byte	0x30
 9149 26c8 3B       		.uleb128 0x3b
 9150 26c9 02       		.uleb128 0x2
 9151 26ca 7D       		.byte	0x7d
 9152 26cb 0C       		.sleb128 12
 9153 26cc 01       		.uleb128 0x1
 9154 26cd 30       		.byte	0x30
 9155 26ce 3B       		.uleb128 0x3b
 9156 26cf 02       		.uleb128 0x2
 9157 26d0 7D       		.byte	0x7d
 9158 26d1 10       		.sleb128 16
 9159 26d2 01       		.uleb128 0x1
 9160 26d3 30       		.byte	0x30
 9161 26d4 3B       		.uleb128 0x3b
 9162 26d5 02       		.uleb128 0x2
 9163 26d6 7D       		.byte	0x7d
 9164 26d7 14       		.sleb128 20
 9165 26d8 05       		.uleb128 0x5
 9166 26d9 91       		.byte	0x91
 9167 26da E07E     		.sleb128 -160
 9168 26dc 94       		.byte	0x94
 9169 26dd 01       		.byte	0x1
 9170 26de 00       		.byte	0
 9171 26df 00       		.byte	0
 9172 26e0 3F       		.uleb128 0x3f
 9173 26e1 B2070000 		.4byte	.LBB253
 9174 26e5 5E000000 		.4byte	.LBE253-.LBB253
 9175 26e9 3D       		.uleb128 0x3d
 9176 26ea F81B0000 		.4byte	0x1bf8
 9177 26ee 03       		.uleb128 0x3
 9178 26ef 91       		.byte	0x91
 9179 26f0 987F     		.sleb128 -104
 9180 26f2 3E       		.uleb128 0x3e
 9181 26f3 681A0000 		.4byte	0x1a68
 9182 26f7 B2070000 		.4byte	.LBB254
 9183 26fb 0C000000 		.4byte	.LBE254-.LBB254
 9184 26ff 01       		.byte	0x1
 9185 2700 1703     		.2byte	0x317
 9186 2702 19270000 		.4byte	0x2719
 9187 2706 34       		.uleb128 0x34
 9188 2707 7F1A0000 		.4byte	0x1a7f
 9189 270b 99140000 		.4byte	.LLST74
 9190 270f 34       		.uleb128 0x34
 9191 2710 741A0000 		.4byte	0x1a74
 9192 2714 C8140000 		.4byte	.LLST75
 9193 2718 00       		.byte	0
 9194 2719 3C       		.uleb128 0x3c
 9195 271a 04080000 		.4byte	.LVL184
 9196 271e AB3B0000 		.4byte	0x3bab
 9197 2722 3B       		.uleb128 0x3b
 9198 2723 01       		.uleb128 0x1
ARM GAS  C:\Users\pearlstl\AppData\Local\Temp\ccHPSyCj.s 			page 194


 9199 2724 50       		.byte	0x50
 9200 2725 02       		.uleb128 0x2
 9201 2726 76       		.byte	0x76
 9202 2727 00       		.sleb128 0
 9203 2728 3B       		.uleb128 0x3b
 9204 2729 01       		.uleb128 0x1
 9205 272a 51       		.byte	0x51
 9206 272b 04       		.uleb128 0x4
 9207 272c 91       		.byte	0x91
 9208 272d CC7E     		.sleb128 -180
 9209 272f 06       		.byte	0x6
 9210 2730 3B       		.uleb128 0x3b
 9211 2731 01       		.uleb128 0x1
 9212 2732 53       		.byte	0x53
 9213 2733 05       		.uleb128 0x5
 9214 2734 91       		.byte	0x91
 9215 2735 DC7E     		.sleb128 -164
 9216 2737 94       		.byte	0x94
 9217 2738 01       		.byte	0x1
 9218 2739 00       		.byte	0
 9219 273a 00       		.byte	0
 9220 273b 00       		.byte	0
 9221 273c 3A       		.uleb128 0x3a
 9222 273d 9C020000 		.4byte	.LVL60
 9223 2741 7B3B0000 		.4byte	0x3b7b
 9224 2745 52270000 		.4byte	0x2752
 9225 2749 3B       		.uleb128 0x3b
 9226 274a 01       		.uleb128 0x1
 9227 274b 50       		.byte	0x50
 9228 274c 04       		.uleb128 0x4
 9229 274d 91       		.byte	0x91
 9230 274e C87E     		.sleb128 -184
 9231 2750 06       		.byte	0x6
 9232 2751 00       		.byte	0
 9233 2752 3A       		.uleb128 0x3a
 9234 2753 A4020000 		.4byte	.LVL63
 9235 2757 933B0000 		.4byte	0x3b93
 9236 275b 68270000 		.4byte	0x2768
 9237 275f 3B       		.uleb128 0x3b
 9238 2760 01       		.uleb128 0x1
 9239 2761 50       		.byte	0x50
 9240 2762 04       		.uleb128 0x4
 9241 2763 91       		.byte	0x91
 9242 2764 C87E     		.sleb128 -184
 9243 2766 06       		.byte	0x6
 9244 2767 00       		.byte	0
 9245 2768 3A       		.uleb128 0x3a
 9246 2769 BA020000 		.4byte	.LVL67
 9247 276d 9F3B0000 		.4byte	0x3b9f
 9248 2771 7E270000 		.4byte	0x277e
 9249 2775 3B       		.uleb128 0x3b
 9250 2776 01       		.uleb128 0x1
 9251 2777 50       		.byte	0x50
 9252 2778 04       		.uleb128 0x4
 9253 2779 91       		.byte	0x91
 9254 277a C87E     		.sleb128 -184
 9255 277c 06       		.byte	0x6
ARM GAS  C:\Users\pearlstl\AppData\Local\Temp\ccHPSyCj.s 			page 195


 9256 277d 00       		.byte	0
 9257 277e 3C       		.uleb128 0x3c
 9258 277f 06030000 		.4byte	.LVL78
 9259 2783 E23B0000 		.4byte	0x3be2
 9260 2787 3B       		.uleb128 0x3b
 9261 2788 01       		.uleb128 0x1
 9262 2789 50       		.byte	0x50
 9263 278a 02       		.uleb128 0x2
 9264 278b 7A       		.byte	0x7a
 9265 278c 00       		.sleb128 0
 9266 278d 00       		.byte	0
 9267 278e 00       		.byte	0
 9268 278f 00       		.byte	0
 9269 2790 43       		.uleb128 0x43
 9270 2791 20000000 		.4byte	.LVL3
 9271 2795 9F3B0000 		.4byte	0x3b9f
 9272 2799 3C       		.uleb128 0x3c
 9273 279a 42000000 		.4byte	.LVL7
 9274 279e AB3B0000 		.4byte	0x3bab
 9275 27a2 3B       		.uleb128 0x3b
 9276 27a3 01       		.uleb128 0x1
 9277 27a4 50       		.byte	0x50
 9278 27a5 02       		.uleb128 0x2
 9279 27a6 76       		.byte	0x76
 9280 27a7 10       		.sleb128 16
 9281 27a8 3B       		.uleb128 0x3b
 9282 27a9 01       		.uleb128 0x1
 9283 27aa 51       		.byte	0x51
 9284 27ab 02       		.uleb128 0x2
 9285 27ac 7A       		.byte	0x7a
 9286 27ad 00       		.sleb128 0
 9287 27ae 3B       		.uleb128 0x3b
 9288 27af 01       		.uleb128 0x1
 9289 27b0 53       		.byte	0x53
 9290 27b1 02       		.uleb128 0x2
 9291 27b2 75       		.byte	0x75
 9292 27b3 00       		.sleb128 0
 9293 27b4 00       		.byte	0
 9294 27b5 00       		.byte	0
 9295 27b6 3F       		.uleb128 0x3f
 9296 27b7 52080000 		.4byte	.LBB269
 9297 27bb 06000000 		.4byte	.LBE269-.LBB269
 9298 27bf 34       		.uleb128 0x34
 9299 27c0 B41A0000 		.4byte	0x1ab4
 9300 27c4 E9140000 		.4byte	.LLST76
 9301 27c8 40       		.uleb128 0x40
 9302 27c9 A81A0000 		.4byte	0x1aa8
 9303 27cd 40       		.uleb128 0x40
 9304 27ce 9C1A0000 		.4byte	0x1a9c
 9305 27d2 00       		.byte	0
 9306 27d3 00       		.byte	0
 9307 27d4 27       		.uleb128 0x27
 9308 27d5 7B070000 		.4byte	.LASF380
 9309 27d9 01       		.byte	0x1
 9310 27da 5202     		.2byte	0x252
 9311 27dc D5010000 		.4byte	0x1d5
 9312 27e0 01       		.byte	0x1
ARM GAS  C:\Users\pearlstl\AppData\Local\Temp\ccHPSyCj.s 			page 196


 9313 27e1 5C280000 		.4byte	0x285c
 9314 27e5 28       		.uleb128 0x28
 9315 27e6 970E0000 		.4byte	.LASF324
 9316 27ea 01       		.byte	0x1
 9317 27eb 5202     		.2byte	0x252
 9318 27ed 45190000 		.4byte	0x1945
 9319 27f1 28       		.uleb128 0x28
 9320 27f2 5F0D0000 		.4byte	.LASF381
 9321 27f6 01       		.byte	0x1
 9322 27f7 5202     		.2byte	0x252
 9323 27f9 AE0C0000 		.4byte	0xcae
 9324 27fd 2C       		.uleb128 0x2c
 9325 27fe 0F120000 		.4byte	.LASF382
 9326 2802 01       		.byte	0x1
 9327 2803 5402     		.2byte	0x254
 9328 2805 13030000 		.4byte	0x313
 9329 2809 2C       		.uleb128 0x2c
 9330 280a C20C0000 		.4byte	.LASF358
 9331 280e 01       		.byte	0x1
 9332 280f 5602     		.2byte	0x256
 9333 2811 060F0000 		.4byte	0xf06
 9334 2815 30       		.uleb128 0x30
 9335 2816 29       		.uleb128 0x29
 9336 2817 7700     		.ascii	"w\000"
 9337 2819 01       		.byte	0x1
 9338 281a 5D02     		.2byte	0x25d
 9339 281c EF000000 		.4byte	0xef
 9340 2820 29       		.uleb128 0x29
 9341 2821 6800     		.ascii	"h\000"
 9342 2823 01       		.byte	0x1
 9343 2824 5E02     		.2byte	0x25e
 9344 2826 EF000000 		.4byte	0xef
 9345 282a 2C       		.uleb128 0x2c
 9346 282b 330C0000 		.4byte	.LASF383
 9347 282f 01       		.byte	0x1
 9348 2830 5F02     		.2byte	0x25f
 9349 2832 B8000000 		.4byte	0xb8
 9350 2836 2C       		.uleb128 0x2c
 9351 2837 61090000 		.4byte	.LASF384
 9352 283b 01       		.byte	0x1
 9353 283c 6202     		.2byte	0x262
 9354 283e B8000000 		.4byte	0xb8
 9355 2842 2C       		.uleb128 0x2c
 9356 2843 590C0000 		.4byte	.LASF385
 9357 2847 01       		.byte	0x1
 9358 2848 6602     		.2byte	0x266
 9359 284a B8000000 		.4byte	0xb8
 9360 284e 29       		.uleb128 0x29
 9361 284f 65787400 		.ascii	"ext\000"
 9362 2853 01       		.byte	0x1
 9363 2854 6802     		.2byte	0x268
 9364 2856 4B190000 		.4byte	0x194b
 9365 285a 00       		.byte	0
 9366 285b 00       		.byte	0
 9367 285c 44       		.uleb128 0x44
 9368 285d 390C0000 		.4byte	.LASF448
 9369 2861 01       		.byte	0x1
ARM GAS  C:\Users\pearlstl\AppData\Local\Temp\ccHPSyCj.s 			page 197


 9370 2862 E501     		.2byte	0x1e5
 9371 2864 73050000 		.4byte	0x573
 9372 2868 00000000 		.4byte	.LFB47
 9373 286c D4040000 		.4byte	.LFE47-.LFB47
 9374 2870 01       		.uleb128 0x1
 9375 2871 9C       		.byte	0x9c
 9376 2872 912D0000 		.4byte	0x2d91
 9377 2876 45       		.uleb128 0x45
 9378 2877 970E0000 		.4byte	.LASF324
 9379 287b 01       		.byte	0x1
 9380 287c E501     		.2byte	0x1e5
 9381 287e 45190000 		.4byte	0x1945
 9382 2882 FD140000 		.4byte	.LLST77
 9383 2886 45       		.uleb128 0x45
 9384 2887 D4010000 		.4byte	.LASF386
 9385 288b 01       		.byte	0x1
 9386 288c E501     		.2byte	0x1e5
 9387 288e 4E0E0000 		.4byte	0xe4e
 9388 2892 1B150000 		.4byte	.LLST78
 9389 2896 45       		.uleb128 0x45
 9390 2897 E5090000 		.4byte	.LASF387
 9391 289b 01       		.byte	0x1
 9392 289c E501     		.2byte	0x1e5
 9393 289e FA000000 		.4byte	0xfa
 9394 28a2 3C150000 		.4byte	.LLST79
 9395 28a6 46       		.uleb128 0x46
 9396 28a7 72657300 		.ascii	"res\000"
 9397 28ab 01       		.byte	0x1
 9398 28ac E701     		.2byte	0x1e7
 9399 28ae 73050000 		.4byte	0x573
 9400 28b2 CC150000 		.4byte	.LLST80
 9401 28b6 35       		.uleb128 0x35
 9402 28b7 60020000 		.4byte	.Ldebug_ranges0+0x260
 9403 28bb 16290000 		.4byte	0x2916
 9404 28bf 46       		.uleb128 0x46
 9405 28c0 6300     		.ascii	"c\000"
 9406 28c2 01       		.byte	0x1
 9407 28c3 3202     		.2byte	0x232
 9408 28c5 B8000000 		.4byte	0xb8
 9409 28c9 38160000 		.4byte	.LLST81
 9410 28cd 46       		.uleb128 0x46
 9411 28ce 65787400 		.ascii	"ext\000"
 9412 28d2 01       		.byte	0x1
 9413 28d3 3302     		.2byte	0x233
 9414 28d5 4B190000 		.4byte	0x194b
 9415 28d9 6C160000 		.4byte	.LLST82
 9416 28dd 3A       		.uleb128 0x3a
 9417 28de C8000000 		.4byte	.LVL227
 9418 28e2 7B3B0000 		.4byte	0x3b7b
 9419 28e6 F1280000 		.4byte	0x28f1
 9420 28ea 3B       		.uleb128 0x3b
 9421 28eb 01       		.uleb128 0x1
 9422 28ec 50       		.byte	0x50
 9423 28ed 02       		.uleb128 0x2
 9424 28ee 76       		.byte	0x76
 9425 28ef 00       		.sleb128 0
 9426 28f0 00       		.byte	0
ARM GAS  C:\Users\pearlstl\AppData\Local\Temp\ccHPSyCj.s 			page 198


 9427 28f1 3A       		.uleb128 0x3a
 9428 28f2 EE000000 		.4byte	.LVL229
 9429 28f6 EE3B0000 		.4byte	0x3bee
 9430 28fa 05290000 		.4byte	0x2905
 9431 28fe 3B       		.uleb128 0x3b
 9432 28ff 01       		.uleb128 0x1
 9433 2900 50       		.byte	0x50
 9434 2901 02       		.uleb128 0x2
 9435 2902 76       		.byte	0x76
 9436 2903 00       		.sleb128 0
 9437 2904 00       		.byte	0
 9438 2905 3C       		.uleb128 0x3c
 9439 2906 5E010000 		.4byte	.LVL247
 9440 290a EE3B0000 		.4byte	0x3bee
 9441 290e 3B       		.uleb128 0x3b
 9442 290f 01       		.uleb128 0x1
 9443 2910 50       		.byte	0x50
 9444 2911 02       		.uleb128 0x2
 9445 2912 76       		.byte	0x76
 9446 2913 00       		.sleb128 0
 9447 2914 00       		.byte	0
 9448 2915 00       		.byte	0
 9449 2916 35       		.uleb128 0x35
 9450 2917 90020000 		.4byte	.Ldebug_ranges0+0x290
 9451 291b C22C0000 		.4byte	0x2cc2
 9452 291f 46       		.uleb128 0x46
 9453 2920 65787400 		.ascii	"ext\000"
 9454 2924 01       		.byte	0x1
 9455 2925 F101     		.2byte	0x1f1
 9456 2927 4B190000 		.4byte	0x194b
 9457 292b A0160000 		.4byte	.LLST83
 9458 292f 47       		.uleb128 0x47
 9459 2930 4C120000 		.4byte	.LASF374
 9460 2934 01       		.byte	0x1
 9461 2935 F201     		.2byte	0x1f2
 9462 2937 13030000 		.4byte	0x313
 9463 293b 02       		.uleb128 0x2
 9464 293c 91       		.byte	0x91
 9465 293d 50       		.sleb128 -48
 9466 293e 48       		.uleb128 0x48
 9467 293f 55140000 		.4byte	.LASF388
 9468 2943 01       		.byte	0x1
 9469 2944 F601     		.2byte	0x1f6
 9470 2946 912D0000 		.4byte	0x2d91
 9471 294a DF160000 		.4byte	.LLST84
 9472 294e 49       		.uleb128 0x49
 9473 294f 7000     		.ascii	"p\000"
 9474 2951 01       		.byte	0x1
 9475 2952 F701     		.2byte	0x1f7
 9476 2954 D3020000 		.4byte	0x2d3
 9477 2958 02       		.uleb128 0x2
 9478 2959 91       		.byte	0x91
 9479 295a 4C       		.sleb128 -52
 9480 295b 3E       		.uleb128 0x3e
 9481 295c 681A0000 		.4byte	0x1a68
 9482 2960 48000000 		.4byte	.LBB305
 9483 2964 0A000000 		.4byte	.LBE305-.LBB305
ARM GAS  C:\Users\pearlstl\AppData\Local\Temp\ccHPSyCj.s 			page 199


 9484 2968 01       		.byte	0x1
 9485 2969 F301     		.2byte	0x1f3
 9486 296b 82290000 		.4byte	0x2982
 9487 296f 34       		.uleb128 0x34
 9488 2970 7F1A0000 		.4byte	0x1a7f
 9489 2974 F2160000 		.4byte	.LLST85
 9490 2978 34       		.uleb128 0x34
 9491 2979 741A0000 		.4byte	0x1a74
 9492 297d 05170000 		.4byte	.LLST86
 9493 2981 00       		.byte	0
 9494 2982 37       		.uleb128 0x37
 9495 2983 1B190000 		.4byte	0x191b
 9496 2987 52000000 		.4byte	.LBB307
 9497 298b B8020000 		.4byte	.Ldebug_ranges0+0x2b8
 9498 298f 01       		.byte	0x1
 9499 2990 F401     		.2byte	0x1f4
 9500 2992 BF290000 		.4byte	0x29bf
 9501 2996 34       		.uleb128 0x34
 9502 2997 2C190000 		.4byte	0x192c
 9503 299b 25170000 		.4byte	.LLST87
 9504 299f 38       		.uleb128 0x38
 9505 29a0 B8020000 		.4byte	.Ldebug_ranges0+0x2b8
 9506 29a4 36       		.uleb128 0x36
 9507 29a5 38190000 		.4byte	0x1938
 9508 29a9 38170000 		.4byte	.LLST88
 9509 29ad 3C       		.uleb128 0x3c
 9510 29ae 5C000000 		.4byte	.LVL215
 9511 29b2 7B3B0000 		.4byte	0x3b7b
 9512 29b6 3B       		.uleb128 0x3b
 9513 29b7 01       		.uleb128 0x1
 9514 29b8 50       		.byte	0x50
 9515 29b9 02       		.uleb128 0x2
 9516 29ba 76       		.byte	0x76
 9517 29bb 00       		.sleb128 0
 9518 29bc 00       		.byte	0
 9519 29bd 00       		.byte	0
 9520 29be 00       		.byte	0
 9521 29bf 37       		.uleb128 0x37
 9522 29c0 D4270000 		.4byte	0x27d4
 9523 29c4 72010000 		.4byte	.LBB311
 9524 29c8 D0020000 		.4byte	.Ldebug_ranges0+0x2d0
 9525 29cc 01       		.byte	0x1
 9526 29cd 0902     		.2byte	0x209
 9527 29cf 2A2C0000 		.4byte	0x2c2a
 9528 29d3 34       		.uleb128 0x34
 9529 29d4 F1270000 		.4byte	0x27f1
 9530 29d8 4B170000 		.4byte	.LLST89
 9531 29dc 34       		.uleb128 0x34
 9532 29dd E5270000 		.4byte	0x27e5
 9533 29e1 92170000 		.4byte	.LLST90
 9534 29e5 38       		.uleb128 0x38
 9535 29e6 D0020000 		.4byte	.Ldebug_ranges0+0x2d0
 9536 29ea 3D       		.uleb128 0x3d
 9537 29eb FD270000 		.4byte	0x27fd
 9538 29ef 02       		.uleb128 0x2
 9539 29f0 91       		.byte	0x91
 9540 29f1 58       		.sleb128 -40
ARM GAS  C:\Users\pearlstl\AppData\Local\Temp\ccHPSyCj.s 			page 200


 9541 29f2 3D       		.uleb128 0x3d
 9542 29f3 09280000 		.4byte	0x2809
 9543 29f7 01       		.uleb128 0x1
 9544 29f8 57       		.byte	0x57
 9545 29f9 3E       		.uleb128 0x3e
 9546 29fa 681A0000 		.4byte	0x1a68
 9547 29fe 72010000 		.4byte	.LBB313
 9548 2a02 08000000 		.4byte	.LBE313-.LBB313
 9549 2a06 01       		.byte	0x1
 9550 2a07 5502     		.2byte	0x255
 9551 2a09 202A0000 		.4byte	0x2a20
 9552 2a0d 34       		.uleb128 0x34
 9553 2a0e 7F1A0000 		.4byte	0x1a7f
 9554 2a12 BB170000 		.4byte	.LLST91
 9555 2a16 34       		.uleb128 0x34
 9556 2a17 741A0000 		.4byte	0x1a74
 9557 2a1b CE170000 		.4byte	.LLST92
 9558 2a1f 00       		.byte	0
 9559 2a20 3E       		.uleb128 0x3e
 9560 2a21 1B1A0000 		.4byte	0x1a1b
 9561 2a25 7A010000 		.4byte	.LBB315
 9562 2a29 0E000000 		.4byte	.LBE315-.LBB315
 9563 2a2d 01       		.byte	0x1
 9564 2a2e 5602     		.2byte	0x256
 9565 2a30 832A0000 		.4byte	0x2a83
 9566 2a34 34       		.uleb128 0x34
 9567 2a35 381A0000 		.4byte	0x1a38
 9568 2a39 EE170000 		.4byte	.LLST93
 9569 2a3d 34       		.uleb128 0x34
 9570 2a3e 2C1A0000 		.4byte	0x1a2c
 9571 2a42 02180000 		.4byte	.LLST94
 9572 2a46 3F       		.uleb128 0x3f
 9573 2a47 7A010000 		.4byte	.LBB316
 9574 2a4b 0E000000 		.4byte	.LBE316-.LBB316
 9575 2a4f 36       		.uleb128 0x36
 9576 2a50 441A0000 		.4byte	0x1a44
 9577 2a54 EE170000 		.4byte	.LLST93
 9578 2a58 39       		.uleb128 0x39
 9579 2a59 501A0000 		.4byte	0x1a50
 9580 2a5d 3A       		.uleb128 0x3a
 9581 2a5e 80010000 		.4byte	.LVL253
 9582 2a62 7B3B0000 		.4byte	0x3b7b
 9583 2a66 712A0000 		.4byte	0x2a71
 9584 2a6a 3B       		.uleb128 0x3b
 9585 2a6b 01       		.uleb128 0x1
 9586 2a6c 50       		.byte	0x50
 9587 2a6d 02       		.uleb128 0x2
 9588 2a6e 76       		.byte	0x76
 9589 2a6f 00       		.sleb128 0
 9590 2a70 00       		.byte	0
 9591 2a71 3C       		.uleb128 0x3c
 9592 2a72 86010000 		.4byte	.LVL254
 9593 2a76 873B0000 		.4byte	0x3b87
 9594 2a7a 3B       		.uleb128 0x3b
 9595 2a7b 01       		.uleb128 0x1
 9596 2a7c 50       		.byte	0x50
 9597 2a7d 02       		.uleb128 0x2
ARM GAS  C:\Users\pearlstl\AppData\Local\Temp\ccHPSyCj.s 			page 201


 9598 2a7e 76       		.byte	0x76
 9599 2a7f 00       		.sleb128 0
 9600 2a80 00       		.byte	0
 9601 2a81 00       		.byte	0
 9602 2a82 00       		.byte	0
 9603 2a83 37       		.uleb128 0x37
 9604 2a84 1B190000 		.4byte	0x191b
 9605 2a88 9A010000 		.4byte	.LBB317
 9606 2a8c F0020000 		.4byte	.Ldebug_ranges0+0x2f0
 9607 2a90 01       		.byte	0x1
 9608 2a91 5A02     		.2byte	0x25a
 9609 2a93 C02A0000 		.4byte	0x2ac0
 9610 2a97 34       		.uleb128 0x34
 9611 2a98 2C190000 		.4byte	0x192c
 9612 2a9c 15180000 		.4byte	.LLST96
 9613 2aa0 38       		.uleb128 0x38
 9614 2aa1 F0020000 		.4byte	.Ldebug_ranges0+0x2f0
 9615 2aa5 36       		.uleb128 0x36
 9616 2aa6 38190000 		.4byte	0x1938
 9617 2aaa 28180000 		.4byte	.LLST97
 9618 2aae 3C       		.uleb128 0x3c
 9619 2aaf A8010000 		.4byte	.LVL257
 9620 2ab3 7B3B0000 		.4byte	0x3b7b
 9621 2ab7 3B       		.uleb128 0x3b
 9622 2ab8 01       		.uleb128 0x1
 9623 2ab9 50       		.byte	0x50
 9624 2aba 02       		.uleb128 0x2
 9625 2abb 76       		.byte	0x76
 9626 2abc 00       		.sleb128 0
 9627 2abd 00       		.byte	0
 9628 2abe 00       		.byte	0
 9629 2abf 00       		.byte	0
 9630 2ac0 37       		.uleb128 0x37
 9631 2ac1 CF1A0000 		.4byte	0x1acf
 9632 2ac5 B2010000 		.4byte	.LBB322
 9633 2ac9 10030000 		.4byte	.Ldebug_ranges0+0x310
 9634 2acd 01       		.byte	0x1
 9635 2ace 5A02     		.2byte	0x25a
 9636 2ad0 F52A0000 		.4byte	0x2af5
 9637 2ad4 40       		.uleb128 0x40
 9638 2ad5 E01A0000 		.4byte	0x1ae0
 9639 2ad9 38       		.uleb128 0x38
 9640 2ada 10030000 		.4byte	.Ldebug_ranges0+0x310
 9641 2ade 39       		.uleb128 0x39
 9642 2adf EC1A0000 		.4byte	0x1aec
 9643 2ae3 3C       		.uleb128 0x3c
 9644 2ae4 BE010000 		.4byte	.LVL261
 9645 2ae8 7B3B0000 		.4byte	0x3b7b
 9646 2aec 3B       		.uleb128 0x3b
 9647 2aed 01       		.uleb128 0x1
 9648 2aee 50       		.byte	0x50
 9649 2aef 02       		.uleb128 0x2
 9650 2af0 76       		.byte	0x76
 9651 2af1 00       		.sleb128 0
 9652 2af2 00       		.byte	0
 9653 2af3 00       		.byte	0
 9654 2af4 00       		.byte	0
ARM GAS  C:\Users\pearlstl\AppData\Local\Temp\ccHPSyCj.s 			page 202


 9655 2af5 35       		.uleb128 0x35
 9656 2af6 28030000 		.4byte	.Ldebug_ranges0+0x328
 9657 2afa 122C0000 		.4byte	0x2c12
 9658 2afe 36       		.uleb128 0x36
 9659 2aff 16280000 		.4byte	0x2816
 9660 2b03 3B180000 		.4byte	.LLST98
 9661 2b07 36       		.uleb128 0x36
 9662 2b08 20280000 		.4byte	0x2820
 9663 2b0c 8B180000 		.4byte	.LLST99
 9664 2b10 36       		.uleb128 0x36
 9665 2b11 2A280000 		.4byte	0x282a
 9666 2b15 C1180000 		.4byte	.LLST100
 9667 2b19 36       		.uleb128 0x36
 9668 2b1a 36280000 		.4byte	0x2836
 9669 2b1e 33190000 		.4byte	.LLST101
 9670 2b22 36       		.uleb128 0x36
 9671 2b23 42280000 		.4byte	0x2842
 9672 2b27 92190000 		.4byte	.LLST102
 9673 2b2b 36       		.uleb128 0x36
 9674 2b2c 4E280000 		.4byte	0x284e
 9675 2b30 F9190000 		.4byte	.LLST103
 9676 2b34 37       		.uleb128 0x37
 9677 2b35 C5190000 		.4byte	0x19c5
 9678 2b39 56020000 		.4byte	.LBB328
 9679 2b3d 48030000 		.4byte	.Ldebug_ranges0+0x348
 9680 2b41 01       		.byte	0x1
 9681 2b42 6902     		.2byte	0x269
 9682 2b44 7F2B0000 		.4byte	0x2b7f
 9683 2b48 34       		.uleb128 0x34
 9684 2b49 EE190000 		.4byte	0x19ee
 9685 2b4d 221A0000 		.4byte	.LLST104
 9686 2b51 34       		.uleb128 0x34
 9687 2b52 E2190000 		.4byte	0x19e2
 9688 2b56 361A0000 		.4byte	.LLST105
 9689 2b5a 34       		.uleb128 0x34
 9690 2b5b D6190000 		.4byte	0x19d6
 9691 2b5f 491A0000 		.4byte	.LLST106
 9692 2b63 38       		.uleb128 0x38
 9693 2b64 48030000 		.4byte	.Ldebug_ranges0+0x348
 9694 2b68 39       		.uleb128 0x39
 9695 2b69 FA190000 		.4byte	0x19fa
 9696 2b6d 3D       		.uleb128 0x3d
 9697 2b6e 041A0000 		.4byte	0x1a04
 9698 2b72 01       		.uleb128 0x1
 9699 2b73 59       		.byte	0x59
 9700 2b74 36       		.uleb128 0x36
 9701 2b75 0E1A0000 		.4byte	0x1a0e
 9702 2b79 621A0000 		.4byte	.LLST107
 9703 2b7d 00       		.byte	0
 9704 2b7e 00       		.byte	0
 9705 2b7f 37       		.uleb128 0x37
 9706 2b80 691D0000 		.4byte	0x1d69
 9707 2b84 D2020000 		.4byte	.LBB332
 9708 2b88 60030000 		.4byte	.Ldebug_ranges0+0x360
 9709 2b8c 01       		.byte	0x1
 9710 2b8d 6C02     		.2byte	0x26c
 9711 2b8f C02B0000 		.4byte	0x2bc0
ARM GAS  C:\Users\pearlstl\AppData\Local\Temp\ccHPSyCj.s 			page 203


 9712 2b93 34       		.uleb128 0x34
 9713 2b94 861D0000 		.4byte	0x1d86
 9714 2b98 751A0000 		.4byte	.LLST108
 9715 2b9c 34       		.uleb128 0x34
 9716 2b9d 7A1D0000 		.4byte	0x1d7a
 9717 2ba1 E51A0000 		.4byte	.LLST109
 9718 2ba5 41       		.uleb128 0x41
 9719 2ba6 FD180000 		.4byte	0x18fd
 9720 2baa 76040000 		.4byte	.LBB334
 9721 2bae 98030000 		.4byte	.Ldebug_ranges0+0x398
 9722 2bb2 01       		.byte	0x1
 9723 2bb3 B903     		.2byte	0x3b9
 9724 2bb5 34       		.uleb128 0x34
 9725 2bb6 0E190000 		.4byte	0x190e
 9726 2bba 2A1B0000 		.4byte	.LLST110
 9727 2bbe 00       		.byte	0
 9728 2bbf 00       		.byte	0
 9729 2bc0 37       		.uleb128 0x37
 9730 2bc1 691D0000 		.4byte	0x1d69
 9731 2bc5 94030000 		.4byte	.LBB347
 9732 2bc9 B8030000 		.4byte	.Ldebug_ranges0+0x3b8
 9733 2bcd 01       		.byte	0x1
 9734 2bce 6F02     		.2byte	0x26f
 9735 2bd0 012C0000 		.4byte	0x2c01
 9736 2bd4 34       		.uleb128 0x34
 9737 2bd5 861D0000 		.4byte	0x1d86
 9738 2bd9 531B0000 		.4byte	.LLST111
 9739 2bdd 34       		.uleb128 0x34
 9740 2bde 7A1D0000 		.4byte	0x1d7a
 9741 2be2 B71B0000 		.4byte	.LLST112
 9742 2be6 41       		.uleb128 0x41
 9743 2be7 FD180000 		.4byte	0x18fd
 9744 2beb 46040000 		.4byte	.LBB349
 9745 2bef E8030000 		.4byte	.Ldebug_ranges0+0x3e8
 9746 2bf3 01       		.byte	0x1
 9747 2bf4 B903     		.2byte	0x3b9
 9748 2bf6 34       		.uleb128 0x34
 9749 2bf7 0E190000 		.4byte	0x190e
 9750 2bfb 121D0000 		.4byte	.LLST113
 9751 2bff 00       		.byte	0
 9752 2c00 00       		.byte	0
 9753 2c01 3C       		.uleb128 0x3c
 9754 2c02 50020000 		.4byte	.LVL273
 9755 2c06 7B3B0000 		.4byte	0x3b7b
 9756 2c0a 3B       		.uleb128 0x3b
 9757 2c0b 01       		.uleb128 0x1
 9758 2c0c 50       		.byte	0x50
 9759 2c0d 02       		.uleb128 0x2
 9760 2c0e 76       		.byte	0x76
 9761 2c0f 00       		.sleb128 0
 9762 2c10 00       		.byte	0
 9763 2c11 00       		.byte	0
 9764 2c12 3C       		.uleb128 0x3c
 9765 2c13 E2010000 		.4byte	.LVL266
 9766 2c17 FA3B0000 		.4byte	0x3bfa
 9767 2c1b 3B       		.uleb128 0x3b
 9768 2c1c 01       		.uleb128 0x1
ARM GAS  C:\Users\pearlstl\AppData\Local\Temp\ccHPSyCj.s 			page 204


 9769 2c1d 50       		.byte	0x50
 9770 2c1e 02       		.uleb128 0x2
 9771 2c1f 91       		.byte	0x91
 9772 2c20 58       		.sleb128 -40
 9773 2c21 3B       		.uleb128 0x3b
 9774 2c22 01       		.uleb128 0x1
 9775 2c23 51       		.byte	0x51
 9776 2c24 02       		.uleb128 0x2
 9777 2c25 91       		.byte	0x91
 9778 2c26 4C       		.sleb128 -52
 9779 2c27 00       		.byte	0
 9780 2c28 00       		.byte	0
 9781 2c29 00       		.byte	0
 9782 2c2a 3A       		.uleb128 0x3a
 9783 2c2b 44000000 		.4byte	.LVL209
 9784 2c2f 7B3B0000 		.4byte	0x3b7b
 9785 2c33 3E2C0000 		.4byte	0x2c3e
 9786 2c37 3B       		.uleb128 0x3b
 9787 2c38 01       		.uleb128 0x1
 9788 2c39 50       		.byte	0x50
 9789 2c3a 02       		.uleb128 0x2
 9790 2c3b 76       		.byte	0x76
 9791 2c3c 00       		.sleb128 0
 9792 2c3d 00       		.byte	0
 9793 2c3e 43       		.uleb128 0x43
 9794 2c3f 74000000 		.4byte	.LVL219
 9795 2c43 053C0000 		.4byte	0x3c05
 9796 2c47 3A       		.uleb128 0x3a
 9797 2c48 7A000000 		.4byte	.LVL220
 9798 2c4c 103C0000 		.4byte	0x3c10
 9799 2c50 5B2C0000 		.4byte	0x2c5b
 9800 2c54 3B       		.uleb128 0x3b
 9801 2c55 01       		.uleb128 0x1
 9802 2c56 51       		.byte	0x51
 9803 2c57 02       		.uleb128 0x2
 9804 2c58 91       		.byte	0x91
 9805 2c59 4C       		.sleb128 -52
 9806 2c5a 00       		.byte	0
 9807 2c5b 3A       		.uleb128 0x3a
 9808 2c5c 82000000 		.4byte	.LVL221
 9809 2c60 FA3B0000 		.4byte	0x3bfa
 9810 2c64 752C0000 		.4byte	0x2c75
 9811 2c68 3B       		.uleb128 0x3b
 9812 2c69 01       		.uleb128 0x1
 9813 2c6a 50       		.byte	0x50
 9814 2c6b 02       		.uleb128 0x2
 9815 2c6c 91       		.byte	0x91
 9816 2c6d 50       		.sleb128 -48
 9817 2c6e 3B       		.uleb128 0x3b
 9818 2c6f 01       		.uleb128 0x1
 9819 2c70 51       		.byte	0x51
 9820 2c71 02       		.uleb128 0x2
 9821 2c72 91       		.byte	0x91
 9822 2c73 4C       		.sleb128 -52
 9823 2c74 00       		.byte	0
 9824 2c75 3A       		.uleb128 0x3a
 9825 2c76 B2000000 		.4byte	.LVL223
ARM GAS  C:\Users\pearlstl\AppData\Local\Temp\ccHPSyCj.s 			page 205


 9826 2c7a EE3B0000 		.4byte	0x3bee
 9827 2c7e 892C0000 		.4byte	0x2c89
 9828 2c82 3B       		.uleb128 0x3b
 9829 2c83 01       		.uleb128 0x1
 9830 2c84 50       		.byte	0x50
 9831 2c85 02       		.uleb128 0x2
 9832 2c86 76       		.byte	0x76
 9833 2c87 00       		.sleb128 0
 9834 2c88 00       		.byte	0
 9835 2c89 3A       		.uleb128 0x3a
 9836 2c8a 6C010000 		.4byte	.LVL249
 9837 2c8e EE3B0000 		.4byte	0x3bee
 9838 2c92 9D2C0000 		.4byte	0x2c9d
 9839 2c96 3B       		.uleb128 0x3b
 9840 2c97 01       		.uleb128 0x1
 9841 2c98 50       		.byte	0x50
 9842 2c99 02       		.uleb128 0x2
 9843 2c9a 76       		.byte	0x76
 9844 2c9b 00       		.sleb128 0
 9845 2c9c 00       		.byte	0
 9846 2c9d 3A       		.uleb128 0x3a
 9847 2c9e 16040000 		.4byte	.LVL300
 9848 2ca2 EE3B0000 		.4byte	0x3bee
 9849 2ca6 B12C0000 		.4byte	0x2cb1
 9850 2caa 3B       		.uleb128 0x3b
 9851 2cab 01       		.uleb128 0x1
 9852 2cac 50       		.byte	0x50
 9853 2cad 02       		.uleb128 0x2
 9854 2cae 76       		.byte	0x76
 9855 2caf 00       		.sleb128 0
 9856 2cb0 00       		.byte	0
 9857 2cb1 3C       		.uleb128 0x3c
 9858 2cb2 1E040000 		.4byte	.LVL301
 9859 2cb6 EE3B0000 		.4byte	0x3bee
 9860 2cba 3B       		.uleb128 0x3b
 9861 2cbb 01       		.uleb128 0x1
 9862 2cbc 50       		.byte	0x50
 9863 2cbd 02       		.uleb128 0x2
 9864 2cbe 76       		.byte	0x76
 9865 2cbf 00       		.sleb128 0
 9866 2cc0 00       		.byte	0
 9867 2cc1 00       		.byte	0
 9868 2cc2 35       		.uleb128 0x35
 9869 2cc3 08040000 		.4byte	.Ldebug_ranges0+0x408
 9870 2cc7 192D0000 		.4byte	0x2d19
 9871 2ccb 46       		.uleb128 0x46
 9872 2ccc 65787400 		.ascii	"ext\000"
 9873 2cd0 01       		.byte	0x1
 9874 2cd1 1B02     		.2byte	0x21b
 9875 2cd3 4B190000 		.4byte	0x194b
 9876 2cd7 EC1D0000 		.4byte	.LLST114
 9877 2cdb 3A       		.uleb128 0x3a
 9878 2cdc 00010000 		.4byte	.LVL235
 9879 2ce0 7B3B0000 		.4byte	0x3b7b
 9880 2ce4 EF2C0000 		.4byte	0x2cef
 9881 2ce8 3B       		.uleb128 0x3b
 9882 2ce9 01       		.uleb128 0x1
ARM GAS  C:\Users\pearlstl\AppData\Local\Temp\ccHPSyCj.s 			page 206


 9883 2cea 50       		.byte	0x50
 9884 2ceb 02       		.uleb128 0x2
 9885 2cec 76       		.byte	0x76
 9886 2ced 00       		.sleb128 0
 9887 2cee 00       		.byte	0
 9888 2cef 3A       		.uleb128 0x3a
 9889 2cf0 2C010000 		.4byte	.LVL238
 9890 2cf4 EE3B0000 		.4byte	0x3bee
 9891 2cf8 032D0000 		.4byte	0x2d03
 9892 2cfc 3B       		.uleb128 0x3b
 9893 2cfd 01       		.uleb128 0x1
 9894 2cfe 50       		.byte	0x50
 9895 2cff 02       		.uleb128 0x2
 9896 2d00 76       		.byte	0x76
 9897 2d01 00       		.sleb128 0
 9898 2d02 00       		.byte	0
 9899 2d03 3C       		.uleb128 0x3c
 9900 2d04 78030000 		.4byte	.LVL287
 9901 2d08 1B3C0000 		.4byte	0x3c1b
 9902 2d0c 3B       		.uleb128 0x3b
 9903 2d0d 01       		.uleb128 0x1
 9904 2d0e 50       		.byte	0x50
 9905 2d0f 02       		.uleb128 0x2
 9906 2d10 76       		.byte	0x76
 9907 2d11 00       		.sleb128 0
 9908 2d12 3B       		.uleb128 0x3b
 9909 2d13 01       		.uleb128 0x1
 9910 2d14 51       		.byte	0x51
 9911 2d15 01       		.uleb128 0x1
 9912 2d16 3E       		.byte	0x3e
 9913 2d17 00       		.byte	0
 9914 2d18 00       		.byte	0
 9915 2d19 42       		.uleb128 0x42
 9916 2d1a 30010000 		.4byte	.LBB374
 9917 2d1e 12000000 		.4byte	.LBE374-.LBB374
 9918 2d22 5B2D0000 		.4byte	0x2d5b
 9919 2d26 46       		.uleb128 0x46
 9920 2d27 65787400 		.ascii	"ext\000"
 9921 2d2b 01       		.byte	0x1
 9922 2d2c 1602     		.2byte	0x216
 9923 2d2e 4B190000 		.4byte	0x194b
 9924 2d32 2B1E0000 		.4byte	.LLST115
 9925 2d36 3A       		.uleb128 0x3a
 9926 2d37 36010000 		.4byte	.LVL241
 9927 2d3b 7B3B0000 		.4byte	0x3b7b
 9928 2d3f 4A2D0000 		.4byte	0x2d4a
 9929 2d43 3B       		.uleb128 0x3b
 9930 2d44 01       		.uleb128 0x1
 9931 2d45 50       		.byte	0x50
 9932 2d46 02       		.uleb128 0x2
 9933 2d47 76       		.byte	0x76
 9934 2d48 00       		.sleb128 0
 9935 2d49 00       		.byte	0
 9936 2d4a 3C       		.uleb128 0x3c
 9937 2d4b 42010000 		.4byte	.LVL244
 9938 2d4f EE3B0000 		.4byte	0x3bee
 9939 2d53 3B       		.uleb128 0x3b
ARM GAS  C:\Users\pearlstl\AppData\Local\Temp\ccHPSyCj.s 			page 207


 9940 2d54 01       		.uleb128 0x1
 9941 2d55 50       		.byte	0x50
 9942 2d56 02       		.uleb128 0x2
 9943 2d57 76       		.byte	0x76
 9944 2d58 00       		.sleb128 0
 9945 2d59 00       		.byte	0
 9946 2d5a 00       		.byte	0
 9947 2d5b 4A       		.uleb128 0x4a
 9948 2d5c 12000000 		.4byte	.LVL202
 9949 2d60 772D0000 		.4byte	0x2d77
 9950 2d64 3B       		.uleb128 0x3b
 9951 2d65 01       		.uleb128 0x1
 9952 2d66 50       		.byte	0x50
 9953 2d67 02       		.uleb128 0x2
 9954 2d68 76       		.byte	0x76
 9955 2d69 00       		.sleb128 0
 9956 2d6a 3B       		.uleb128 0x3b
 9957 2d6b 01       		.uleb128 0x1
 9958 2d6c 51       		.byte	0x51
 9959 2d6d 02       		.uleb128 0x2
 9960 2d6e 75       		.byte	0x75
 9961 2d6f 00       		.sleb128 0
 9962 2d70 3B       		.uleb128 0x3b
 9963 2d71 01       		.uleb128 0x1
 9964 2d72 52       		.byte	0x52
 9965 2d73 02       		.uleb128 0x2
 9966 2d74 77       		.byte	0x77
 9967 2d75 00       		.sleb128 0
 9968 2d76 00       		.byte	0
 9969 2d77 3C       		.uleb128 0x3c
 9970 2d78 F8000000 		.4byte	.LVL232
 9971 2d7c 273C0000 		.4byte	0x3c27
 9972 2d80 3B       		.uleb128 0x3b
 9973 2d81 01       		.uleb128 0x1
 9974 2d82 50       		.byte	0x50
 9975 2d83 02       		.uleb128 0x2
 9976 2d84 77       		.byte	0x77
 9977 2d85 00       		.sleb128 0
 9978 2d86 3B       		.uleb128 0x3b
 9979 2d87 01       		.uleb128 0x1
 9980 2d88 51       		.byte	0x51
 9981 2d89 05       		.uleb128 0x5
 9982 2d8a 03       		.byte	0x3
 9983 2d8b 08000000 		.4byte	.LC2
 9984 2d8f 00       		.byte	0
 9985 2d90 00       		.byte	0
 9986 2d91 0D       		.uleb128 0xd
 9987 2d92 04       		.byte	0x4
 9988 2d93 B90C0000 		.4byte	0xcb9
 9989 2d97 4B       		.uleb128 0x4b
 9990 2d98 B80F0000 		.4byte	.LASF400
 9991 2d9c 01       		.byte	0x1
 9992 2d9d 4C       		.byte	0x4c
 9993 2d9e 45190000 		.4byte	0x1945
 9994 2da2 00000000 		.4byte	.LFB31
 9995 2da6 48020000 		.4byte	.LFE31-.LFB31
 9996 2daa 01       		.uleb128 0x1
ARM GAS  C:\Users\pearlstl\AppData\Local\Temp\ccHPSyCj.s 			page 208


 9997 2dab 9C       		.byte	0x9c
 9998 2dac 3F350000 		.4byte	0x353f
 9999 2db0 4C       		.uleb128 0x4c
 10000 2db1 70617200 		.ascii	"par\000"
 10001 2db5 01       		.byte	0x1
 10002 2db6 4C       		.byte	0x4c
 10003 2db7 45190000 		.4byte	0x1945
 10004 2dbb 491E0000 		.4byte	.LLST116
 10005 2dbf 4D       		.uleb128 0x4d
 10006 2dc0 8C0A0000 		.4byte	.LASF389
 10007 2dc4 01       		.byte	0x1
 10008 2dc5 4C       		.byte	0x4c
 10009 2dc6 5D1A0000 		.4byte	0x1a5d
 10010 2dca 6A1E0000 		.4byte	.LLST117
 10011 2dce 4E       		.uleb128 0x4e
 10012 2dcf EC100000 		.4byte	.LASF390
 10013 2dd3 01       		.byte	0x1
 10014 2dd4 51       		.byte	0x51
 10015 2dd5 45190000 		.4byte	0x1945
 10016 2dd9 C81E0000 		.4byte	.LLST118
 10017 2ddd 4F       		.uleb128 0x4f
 10018 2dde 65787400 		.ascii	"ext\000"
 10019 2de2 01       		.byte	0x1
 10020 2de3 56       		.byte	0x56
 10021 2de4 4B190000 		.4byte	0x194b
 10022 2de8 071F0000 		.4byte	.LLST119
 10023 2dec 42       		.uleb128 0x42
 10024 2ded 82000000 		.4byte	.LBB417
 10025 2df1 5C000000 		.4byte	.LBE417-.LBB417
 10026 2df5 2D2E0000 		.4byte	0x2e2d
 10027 2df9 4E       		.uleb128 0x4e
 10028 2dfa 44150000 		.4byte	.LASF391
 10029 2dfe 01       		.byte	0x1
 10030 2dff 96       		.byte	0x96
 10031 2e00 4B190000 		.4byte	0x194b
 10032 2e04 3B1F0000 		.4byte	.LLST120
 10033 2e08 3A       		.uleb128 0x3a
 10034 2e09 88000000 		.4byte	.LVL325
 10035 2e0d 7B3B0000 		.4byte	0x3b7b
 10036 2e11 1C2E0000 		.4byte	0x2e1c
 10037 2e15 3B       		.uleb128 0x3b
 10038 2e16 01       		.uleb128 0x1
 10039 2e17 50       		.byte	0x50
 10040 2e18 02       		.uleb128 0x2
 10041 2e19 77       		.byte	0x77
 10042 2e1a 00       		.sleb128 0
 10043 2e1b 00       		.byte	0
 10044 2e1c 3C       		.uleb128 0x3c
 10045 2e1d DC000000 		.4byte	.LVL330
 10046 2e21 333C0000 		.4byte	0x3c33
 10047 2e25 3B       		.uleb128 0x3b
 10048 2e26 01       		.uleb128 0x1
 10049 2e27 50       		.byte	0x50
 10050 2e28 02       		.uleb128 0x2
 10051 2e29 75       		.byte	0x75
 10052 2e2a 00       		.sleb128 0
 10053 2e2b 00       		.byte	0
ARM GAS  C:\Users\pearlstl\AppData\Local\Temp\ccHPSyCj.s 			page 209


 10054 2e2c 00       		.byte	0
 10055 2e2d 35       		.uleb128 0x35
 10056 2e2e 28040000 		.4byte	.Ldebug_ranges0+0x428
 10057 2e32 AB340000 		.4byte	0x34ab
 10058 2e36 4F       		.uleb128 0x4f
 10059 2e37 746800   		.ascii	"th\000"
 10060 2e3a 01       		.byte	0x1
 10061 2e3b 7E       		.byte	0x7e
 10062 2e3c 3F350000 		.4byte	0x353f
 10063 2e40 591F0000 		.4byte	.LLST121
 10064 2e44 50       		.uleb128 0x50
 10065 2e45 87190000 		.4byte	0x1987
 10066 2e49 02010000 		.4byte	.LBB419
 10067 2e4d 14000000 		.4byte	.LBE419-.LBB419
 10068 2e51 01       		.byte	0x1
 10069 2e52 80       		.byte	0x80
 10070 2e53 C02E0000 		.4byte	0x2ec0
 10071 2e57 34       		.uleb128 0x34
 10072 2e58 AC190000 		.4byte	0x19ac
 10073 2e5c 8D1F0000 		.4byte	.LLST122
 10074 2e60 34       		.uleb128 0x34
 10075 2e61 A0190000 		.4byte	0x19a0
 10076 2e65 A01F0000 		.4byte	.LLST123
 10077 2e69 34       		.uleb128 0x34
 10078 2e6a 94190000 		.4byte	0x1994
 10079 2e6e B41F0000 		.4byte	.LLST124
 10080 2e72 3F       		.uleb128 0x3f
 10081 2e73 02010000 		.4byte	.LBB420
 10082 2e77 14000000 		.4byte	.LBE420-.LBB420
 10083 2e7b 39       		.uleb128 0x39
 10084 2e7c B8190000 		.4byte	0x19b8
 10085 2e80 3A       		.uleb128 0x3a
 10086 2e81 08010000 		.4byte	.LVL338
 10087 2e85 7B3B0000 		.4byte	0x3b7b
 10088 2e89 942E0000 		.4byte	0x2e94
 10089 2e8d 3B       		.uleb128 0x3b
 10090 2e8e 01       		.uleb128 0x1
 10091 2e8f 50       		.byte	0x50
 10092 2e90 02       		.uleb128 0x2
 10093 2e91 75       		.byte	0x75
 10094 2e92 00       		.sleb128 0
 10095 2e93 00       		.byte	0
 10096 2e94 3A       		.uleb128 0x3a
 10097 2e95 10010000 		.4byte	.LVL339
 10098 2e99 3F3C0000 		.4byte	0x3c3f
 10099 2e9d AE2E0000 		.4byte	0x2eae
 10100 2ea1 3B       		.uleb128 0x3b
 10101 2ea2 01       		.uleb128 0x1
 10102 2ea3 50       		.byte	0x50
 10103 2ea4 02       		.uleb128 0x2
 10104 2ea5 75       		.byte	0x75
 10105 2ea6 00       		.sleb128 0
 10106 2ea7 3B       		.uleb128 0x3b
 10107 2ea8 01       		.uleb128 0x1
 10108 2ea9 51       		.byte	0x51
 10109 2eaa 02       		.uleb128 0x2
 10110 2eab 74       		.byte	0x74
ARM GAS  C:\Users\pearlstl\AppData\Local\Temp\ccHPSyCj.s 			page 210


 10111 2eac 00       		.sleb128 0
 10112 2ead 00       		.byte	0
 10113 2eae 3C       		.uleb128 0x3c
 10114 2eaf 16010000 		.4byte	.LVL340
 10115 2eb3 EE3B0000 		.4byte	0x3bee
 10116 2eb7 3B       		.uleb128 0x3b
 10117 2eb8 01       		.uleb128 0x1
 10118 2eb9 50       		.byte	0x50
 10119 2eba 02       		.uleb128 0x2
 10120 2ebb 75       		.byte	0x75
 10121 2ebc 00       		.sleb128 0
 10122 2ebd 00       		.byte	0
 10123 2ebe 00       		.byte	0
 10124 2ebf 00       		.byte	0
 10125 2ec0 51       		.uleb128 0x51
 10126 2ec1 87190000 		.4byte	0x1987
 10127 2ec5 16010000 		.4byte	.LBB421
 10128 2ec9 40040000 		.4byte	.Ldebug_ranges0+0x440
 10129 2ecd 01       		.byte	0x1
 10130 2ece 81       		.byte	0x81
 10131 2ecf 222F0000 		.4byte	0x2f22
 10132 2ed3 34       		.uleb128 0x34
 10133 2ed4 AC190000 		.4byte	0x19ac
 10134 2ed8 C71F0000 		.4byte	.LLST125
 10135 2edc 34       		.uleb128 0x34
 10136 2edd A0190000 		.4byte	0x19a0
 10137 2ee1 DA1F0000 		.4byte	.LLST126
 10138 2ee5 34       		.uleb128 0x34
 10139 2ee6 94190000 		.4byte	0x1994
 10140 2eea EE1F0000 		.4byte	.LLST127
 10141 2eee 38       		.uleb128 0x38
 10142 2eef 40040000 		.4byte	.Ldebug_ranges0+0x440
 10143 2ef3 36       		.uleb128 0x36
 10144 2ef4 B8190000 		.4byte	0x19b8
 10145 2ef8 01200000 		.4byte	.LLST128
 10146 2efc 3A       		.uleb128 0x3a
 10147 2efd 20010000 		.4byte	.LVL342
 10148 2f01 7B3B0000 		.4byte	0x3b7b
 10149 2f05 102F0000 		.4byte	0x2f10
 10150 2f09 3B       		.uleb128 0x3b
 10151 2f0a 01       		.uleb128 0x1
 10152 2f0b 50       		.byte	0x50
 10153 2f0c 02       		.uleb128 0x2
 10154 2f0d 75       		.byte	0x75
 10155 2f0e 00       		.sleb128 0
 10156 2f0f 00       		.byte	0
 10157 2f10 3C       		.uleb128 0x3c
 10158 2f11 28010000 		.4byte	.LVL344
 10159 2f15 EE3B0000 		.4byte	0x3bee
 10160 2f19 3B       		.uleb128 0x3b
 10161 2f1a 01       		.uleb128 0x1
 10162 2f1b 50       		.byte	0x50
 10163 2f1c 02       		.uleb128 0x2
 10164 2f1d 75       		.byte	0x75
 10165 2f1e 00       		.sleb128 0
 10166 2f1f 00       		.byte	0
 10167 2f20 00       		.byte	0
ARM GAS  C:\Users\pearlstl\AppData\Local\Temp\ccHPSyCj.s 			page 211


 10168 2f21 00       		.byte	0
 10169 2f22 51       		.uleb128 0x51
 10170 2f23 87190000 		.4byte	0x1987
 10171 2f27 28010000 		.4byte	.LBB425
 10172 2f2b 58040000 		.4byte	.Ldebug_ranges0+0x458
 10173 2f2f 01       		.byte	0x1
 10174 2f30 82       		.byte	0x82
 10175 2f31 842F0000 		.4byte	0x2f84
 10176 2f35 34       		.uleb128 0x34
 10177 2f36 AC190000 		.4byte	0x19ac
 10178 2f3a 14200000 		.4byte	.LLST129
 10179 2f3e 34       		.uleb128 0x34
 10180 2f3f A0190000 		.4byte	0x19a0
 10181 2f43 27200000 		.4byte	.LLST130
 10182 2f47 34       		.uleb128 0x34
 10183 2f48 94190000 		.4byte	0x1994
 10184 2f4c 3B200000 		.4byte	.LLST131
 10185 2f50 38       		.uleb128 0x38
 10186 2f51 58040000 		.4byte	.Ldebug_ranges0+0x458
 10187 2f55 36       		.uleb128 0x36
 10188 2f56 B8190000 		.4byte	0x19b8
 10189 2f5a 4E200000 		.4byte	.LLST132
 10190 2f5e 3A       		.uleb128 0x3a
 10191 2f5f 32010000 		.4byte	.LVL346
 10192 2f63 7B3B0000 		.4byte	0x3b7b
 10193 2f67 722F0000 		.4byte	0x2f72
 10194 2f6b 3B       		.uleb128 0x3b
 10195 2f6c 01       		.uleb128 0x1
 10196 2f6d 50       		.byte	0x50
 10197 2f6e 02       		.uleb128 0x2
 10198 2f6f 75       		.byte	0x75
 10199 2f70 00       		.sleb128 0
 10200 2f71 00       		.byte	0
 10201 2f72 3C       		.uleb128 0x3c
 10202 2f73 3A010000 		.4byte	.LVL348
 10203 2f77 EE3B0000 		.4byte	0x3bee
 10204 2f7b 3B       		.uleb128 0x3b
 10205 2f7c 01       		.uleb128 0x1
 10206 2f7d 50       		.byte	0x50
 10207 2f7e 02       		.uleb128 0x2
 10208 2f7f 75       		.byte	0x75
 10209 2f80 00       		.sleb128 0
 10210 2f81 00       		.byte	0
 10211 2f82 00       		.byte	0
 10212 2f83 00       		.byte	0
 10213 2f84 51       		.uleb128 0x51
 10214 2f85 87190000 		.4byte	0x1987
 10215 2f89 3A010000 		.4byte	.LBB429
 10216 2f8d 70040000 		.4byte	.Ldebug_ranges0+0x470
 10217 2f91 01       		.byte	0x1
 10218 2f92 83       		.byte	0x83
 10219 2f93 E62F0000 		.4byte	0x2fe6
 10220 2f97 34       		.uleb128 0x34
 10221 2f98 AC190000 		.4byte	0x19ac
 10222 2f9c 61200000 		.4byte	.LLST133
 10223 2fa0 34       		.uleb128 0x34
 10224 2fa1 A0190000 		.4byte	0x19a0
ARM GAS  C:\Users\pearlstl\AppData\Local\Temp\ccHPSyCj.s 			page 212


 10225 2fa5 74200000 		.4byte	.LLST134
 10226 2fa9 34       		.uleb128 0x34
 10227 2faa 94190000 		.4byte	0x1994
 10228 2fae 88200000 		.4byte	.LLST135
 10229 2fb2 38       		.uleb128 0x38
 10230 2fb3 70040000 		.4byte	.Ldebug_ranges0+0x470
 10231 2fb7 36       		.uleb128 0x36
 10232 2fb8 B8190000 		.4byte	0x19b8
 10233 2fbc 9B200000 		.4byte	.LLST136
 10234 2fc0 3A       		.uleb128 0x3a
 10235 2fc1 44010000 		.4byte	.LVL350
 10236 2fc5 7B3B0000 		.4byte	0x3b7b
 10237 2fc9 D42F0000 		.4byte	0x2fd4
 10238 2fcd 3B       		.uleb128 0x3b
 10239 2fce 01       		.uleb128 0x1
 10240 2fcf 50       		.byte	0x50
 10241 2fd0 02       		.uleb128 0x2
 10242 2fd1 75       		.byte	0x75
 10243 2fd2 00       		.sleb128 0
 10244 2fd3 00       		.byte	0
 10245 2fd4 3C       		.uleb128 0x3c
 10246 2fd5 4C010000 		.4byte	.LVL352
 10247 2fd9 EE3B0000 		.4byte	0x3bee
 10248 2fdd 3B       		.uleb128 0x3b
 10249 2fde 01       		.uleb128 0x1
 10250 2fdf 50       		.byte	0x50
 10251 2fe0 02       		.uleb128 0x2
 10252 2fe1 75       		.byte	0x75
 10253 2fe2 00       		.sleb128 0
 10254 2fe3 00       		.byte	0
 10255 2fe4 00       		.byte	0
 10256 2fe5 00       		.byte	0
 10257 2fe6 51       		.uleb128 0x51
 10258 2fe7 87190000 		.4byte	0x1987
 10259 2feb 4C010000 		.4byte	.LBB433
 10260 2fef 88040000 		.4byte	.Ldebug_ranges0+0x488
 10261 2ff3 01       		.byte	0x1
 10262 2ff4 84       		.byte	0x84
 10263 2ff5 48300000 		.4byte	0x3048
 10264 2ff9 34       		.uleb128 0x34
 10265 2ffa AC190000 		.4byte	0x19ac
 10266 2ffe AE200000 		.4byte	.LLST137
 10267 3002 34       		.uleb128 0x34
 10268 3003 A0190000 		.4byte	0x19a0
 10269 3007 C1200000 		.4byte	.LLST138
 10270 300b 34       		.uleb128 0x34
 10271 300c 94190000 		.4byte	0x1994
 10272 3010 D5200000 		.4byte	.LLST139
 10273 3014 38       		.uleb128 0x38
 10274 3015 88040000 		.4byte	.Ldebug_ranges0+0x488
 10275 3019 36       		.uleb128 0x36
 10276 301a B8190000 		.4byte	0x19b8
 10277 301e E8200000 		.4byte	.LLST140
 10278 3022 3A       		.uleb128 0x3a
 10279 3023 56010000 		.4byte	.LVL354
 10280 3027 7B3B0000 		.4byte	0x3b7b
 10281 302b 36300000 		.4byte	0x3036
ARM GAS  C:\Users\pearlstl\AppData\Local\Temp\ccHPSyCj.s 			page 213


 10282 302f 3B       		.uleb128 0x3b
 10283 3030 01       		.uleb128 0x1
 10284 3031 50       		.byte	0x50
 10285 3032 02       		.uleb128 0x2
 10286 3033 75       		.byte	0x75
 10287 3034 00       		.sleb128 0
 10288 3035 00       		.byte	0
 10289 3036 3C       		.uleb128 0x3c
 10290 3037 5E010000 		.4byte	.LVL356
 10291 303b EE3B0000 		.4byte	0x3bee
 10292 303f 3B       		.uleb128 0x3b
 10293 3040 01       		.uleb128 0x1
 10294 3041 50       		.byte	0x50
 10295 3042 02       		.uleb128 0x2
 10296 3043 75       		.byte	0x75
 10297 3044 00       		.sleb128 0
 10298 3045 00       		.byte	0
 10299 3046 00       		.byte	0
 10300 3047 00       		.byte	0
 10301 3048 51       		.uleb128 0x51
 10302 3049 87190000 		.4byte	0x1987
 10303 304d 5E010000 		.4byte	.LBB437
 10304 3051 A0040000 		.4byte	.Ldebug_ranges0+0x4a0
 10305 3055 01       		.byte	0x1
 10306 3056 85       		.byte	0x85
 10307 3057 AA300000 		.4byte	0x30aa
 10308 305b 34       		.uleb128 0x34
 10309 305c AC190000 		.4byte	0x19ac
 10310 3060 FB200000 		.4byte	.LLST141
 10311 3064 34       		.uleb128 0x34
 10312 3065 A0190000 		.4byte	0x19a0
 10313 3069 0E210000 		.4byte	.LLST142
 10314 306d 34       		.uleb128 0x34
 10315 306e 94190000 		.4byte	0x1994
 10316 3072 22210000 		.4byte	.LLST143
 10317 3076 38       		.uleb128 0x38
 10318 3077 A0040000 		.4byte	.Ldebug_ranges0+0x4a0
 10319 307b 36       		.uleb128 0x36
 10320 307c B8190000 		.4byte	0x19b8
 10321 3080 35210000 		.4byte	.LLST144
 10322 3084 3A       		.uleb128 0x3a
 10323 3085 68010000 		.4byte	.LVL358
 10324 3089 7B3B0000 		.4byte	0x3b7b
 10325 308d 98300000 		.4byte	0x3098
 10326 3091 3B       		.uleb128 0x3b
 10327 3092 01       		.uleb128 0x1
 10328 3093 50       		.byte	0x50
 10329 3094 02       		.uleb128 0x2
 10330 3095 75       		.byte	0x75
 10331 3096 00       		.sleb128 0
 10332 3097 00       		.byte	0
 10333 3098 3C       		.uleb128 0x3c
 10334 3099 70010000 		.4byte	.LVL360
 10335 309d EE3B0000 		.4byte	0x3bee
 10336 30a1 3B       		.uleb128 0x3b
 10337 30a2 01       		.uleb128 0x1
 10338 30a3 50       		.byte	0x50
ARM GAS  C:\Users\pearlstl\AppData\Local\Temp\ccHPSyCj.s 			page 214


 10339 30a4 02       		.uleb128 0x2
 10340 30a5 75       		.byte	0x75
 10341 30a6 00       		.sleb128 0
 10342 30a7 00       		.byte	0
 10343 30a8 00       		.byte	0
 10344 30a9 00       		.byte	0
 10345 30aa 51       		.uleb128 0x51
 10346 30ab 87190000 		.4byte	0x1987
 10347 30af 70010000 		.4byte	.LBB441
 10348 30b3 B8040000 		.4byte	.Ldebug_ranges0+0x4b8
 10349 30b7 01       		.byte	0x1
 10350 30b8 86       		.byte	0x86
 10351 30b9 0C310000 		.4byte	0x310c
 10352 30bd 34       		.uleb128 0x34
 10353 30be AC190000 		.4byte	0x19ac
 10354 30c2 48210000 		.4byte	.LLST145
 10355 30c6 34       		.uleb128 0x34
 10356 30c7 A0190000 		.4byte	0x19a0
 10357 30cb 5B210000 		.4byte	.LLST146
 10358 30cf 34       		.uleb128 0x34
 10359 30d0 94190000 		.4byte	0x1994
 10360 30d4 6F210000 		.4byte	.LLST147
 10361 30d8 38       		.uleb128 0x38
 10362 30d9 B8040000 		.4byte	.Ldebug_ranges0+0x4b8
 10363 30dd 36       		.uleb128 0x36
 10364 30de B8190000 		.4byte	0x19b8
 10365 30e2 82210000 		.4byte	.LLST148
 10366 30e6 3A       		.uleb128 0x3a
 10367 30e7 7A010000 		.4byte	.LVL362
 10368 30eb 7B3B0000 		.4byte	0x3b7b
 10369 30ef FA300000 		.4byte	0x30fa
 10370 30f3 3B       		.uleb128 0x3b
 10371 30f4 01       		.uleb128 0x1
 10372 30f5 50       		.byte	0x50
 10373 30f6 02       		.uleb128 0x2
 10374 30f7 75       		.byte	0x75
 10375 30f8 00       		.sleb128 0
 10376 30f9 00       		.byte	0
 10377 30fa 3C       		.uleb128 0x3c
 10378 30fb 82010000 		.4byte	.LVL364
 10379 30ff EE3B0000 		.4byte	0x3bee
 10380 3103 3B       		.uleb128 0x3b
 10381 3104 01       		.uleb128 0x1
 10382 3105 50       		.byte	0x50
 10383 3106 02       		.uleb128 0x2
 10384 3107 75       		.byte	0x75
 10385 3108 00       		.sleb128 0
 10386 3109 00       		.byte	0
 10387 310a 00       		.byte	0
 10388 310b 00       		.byte	0
 10389 310c 50       		.uleb128 0x50
 10390 310d 87190000 		.4byte	0x1987
 10391 3111 86010000 		.4byte	.LBB445
 10392 3115 02000000 		.4byte	.LBE445-.LBB445
 10393 3119 01       		.byte	0x1
 10394 311a 88       		.byte	0x88
 10395 311b 4A310000 		.4byte	0x314a
ARM GAS  C:\Users\pearlstl\AppData\Local\Temp\ccHPSyCj.s 			page 215


 10396 311f 34       		.uleb128 0x34
 10397 3120 AC190000 		.4byte	0x19ac
 10398 3124 95210000 		.4byte	.LLST149
 10399 3128 34       		.uleb128 0x34
 10400 3129 A0190000 		.4byte	0x19a0
 10401 312d A8210000 		.4byte	.LLST150
 10402 3131 34       		.uleb128 0x34
 10403 3132 94190000 		.4byte	0x1994
 10404 3136 BC210000 		.4byte	.LLST151
 10405 313a 3F       		.uleb128 0x3f
 10406 313b 86010000 		.4byte	.LBB446
 10407 313f 02000000 		.4byte	.LBE446-.LBB446
 10408 3143 39       		.uleb128 0x39
 10409 3144 B8190000 		.4byte	0x19b8
 10410 3148 00       		.byte	0
 10411 3149 00       		.byte	0
 10412 314a 51       		.uleb128 0x51
 10413 314b 87190000 		.4byte	0x1987
 10414 314f 88010000 		.4byte	.LBB447
 10415 3153 D0040000 		.4byte	.Ldebug_ranges0+0x4d0
 10416 3157 01       		.byte	0x1
 10417 3158 91       		.byte	0x91
 10418 3159 A1310000 		.4byte	0x31a1
 10419 315d 34       		.uleb128 0x34
 10420 315e AC190000 		.4byte	0x19ac
 10421 3162 CF210000 		.4byte	.LLST152
 10422 3166 34       		.uleb128 0x34
 10423 3167 A0190000 		.4byte	0x19a0
 10424 316b E2210000 		.4byte	.LLST153
 10425 316f 34       		.uleb128 0x34
 10426 3170 94190000 		.4byte	0x1994
 10427 3174 F6210000 		.4byte	.LLST154
 10428 3178 38       		.uleb128 0x38
 10429 3179 D0040000 		.4byte	.Ldebug_ranges0+0x4d0
 10430 317d 36       		.uleb128 0x36
 10431 317e B8190000 		.4byte	0x19b8
 10432 3182 14220000 		.4byte	.LLST155
 10433 3186 43       		.uleb128 0x43
 10434 3187 8C010000 		.4byte	.LVL367
 10435 318b 7B3B0000 		.4byte	0x3b7b
 10436 318f 3C       		.uleb128 0x3c
 10437 3190 94010000 		.4byte	.LVL369
 10438 3194 EE3B0000 		.4byte	0x3bee
 10439 3198 3B       		.uleb128 0x3b
 10440 3199 01       		.uleb128 0x1
 10441 319a 50       		.byte	0x50
 10442 319b 02       		.uleb128 0x2
 10443 319c 75       		.byte	0x75
 10444 319d 00       		.sleb128 0
 10445 319e 00       		.byte	0
 10446 319f 00       		.byte	0
 10447 31a0 00       		.byte	0
 10448 31a1 50       		.uleb128 0x50
 10449 31a2 87190000 		.4byte	0x1987
 10450 31a6 B0010000 		.4byte	.LBB450
 10451 31aa 14000000 		.4byte	.LBE450-.LBB450
 10452 31ae 01       		.byte	0x1
ARM GAS  C:\Users\pearlstl\AppData\Local\Temp\ccHPSyCj.s 			page 216


 10453 31af 8A       		.byte	0x8a
 10454 31b0 19320000 		.4byte	0x3219
 10455 31b4 40       		.uleb128 0x40
 10456 31b5 AC190000 		.4byte	0x19ac
 10457 31b9 34       		.uleb128 0x34
 10458 31ba A0190000 		.4byte	0x19a0
 10459 31be 27220000 		.4byte	.LLST156
 10460 31c2 34       		.uleb128 0x34
 10461 31c3 94190000 		.4byte	0x1994
 10462 31c7 3B220000 		.4byte	.LLST157
 10463 31cb 3F       		.uleb128 0x3f
 10464 31cc B0010000 		.4byte	.LBB451
 10465 31d0 14000000 		.4byte	.LBE451-.LBB451
 10466 31d4 39       		.uleb128 0x39
 10467 31d5 B8190000 		.4byte	0x19b8
 10468 31d9 3A       		.uleb128 0x3a
 10469 31da B6010000 		.4byte	.LVL377
 10470 31de 7B3B0000 		.4byte	0x3b7b
 10471 31e2 ED310000 		.4byte	0x31ed
 10472 31e6 3B       		.uleb128 0x3b
 10473 31e7 01       		.uleb128 0x1
 10474 31e8 50       		.byte	0x50
 10475 31e9 02       		.uleb128 0x2
 10476 31ea 75       		.byte	0x75
 10477 31eb 00       		.sleb128 0
 10478 31ec 00       		.byte	0
 10479 31ed 3A       		.uleb128 0x3a
 10480 31ee BE010000 		.4byte	.LVL378
 10481 31f2 3F3C0000 		.4byte	0x3c3f
 10482 31f6 07320000 		.4byte	0x3207
 10483 31fa 3B       		.uleb128 0x3b
 10484 31fb 01       		.uleb128 0x1
 10485 31fc 50       		.byte	0x50
 10486 31fd 02       		.uleb128 0x2
 10487 31fe 75       		.byte	0x75
 10488 31ff 00       		.sleb128 0
 10489 3200 3B       		.uleb128 0x3b
 10490 3201 01       		.uleb128 0x1
 10491 3202 51       		.byte	0x51
 10492 3203 02       		.uleb128 0x2
 10493 3204 76       		.byte	0x76
 10494 3205 00       		.sleb128 0
 10495 3206 00       		.byte	0
 10496 3207 3C       		.uleb128 0x3c
 10497 3208 C4010000 		.4byte	.LVL379
 10498 320c EE3B0000 		.4byte	0x3bee
 10499 3210 3B       		.uleb128 0x3b
 10500 3211 01       		.uleb128 0x1
 10501 3212 50       		.byte	0x50
 10502 3213 02       		.uleb128 0x2
 10503 3214 75       		.byte	0x75
 10504 3215 00       		.sleb128 0
 10505 3216 00       		.byte	0
 10506 3217 00       		.byte	0
 10507 3218 00       		.byte	0
 10508 3219 51       		.uleb128 0x51
 10509 321a 87190000 		.4byte	0x1987
ARM GAS  C:\Users\pearlstl\AppData\Local\Temp\ccHPSyCj.s 			page 217


 10510 321e C4010000 		.4byte	.LBB452
 10511 3222 E8040000 		.4byte	.Ldebug_ranges0+0x4e8
 10512 3226 01       		.byte	0x1
 10513 3227 8B       		.byte	0x8b
 10514 3228 7B320000 		.4byte	0x327b
 10515 322c 34       		.uleb128 0x34
 10516 322d AC190000 		.4byte	0x19ac
 10517 3231 4E220000 		.4byte	.LLST158
 10518 3235 34       		.uleb128 0x34
 10519 3236 A0190000 		.4byte	0x19a0
 10520 323a 61220000 		.4byte	.LLST159
 10521 323e 34       		.uleb128 0x34
 10522 323f 94190000 		.4byte	0x1994
 10523 3243 75220000 		.4byte	.LLST160
 10524 3247 38       		.uleb128 0x38
 10525 3248 E8040000 		.4byte	.Ldebug_ranges0+0x4e8
 10526 324c 36       		.uleb128 0x36
 10527 324d B8190000 		.4byte	0x19b8
 10528 3251 88220000 		.4byte	.LLST161
 10529 3255 3A       		.uleb128 0x3a
 10530 3256 CC010000 		.4byte	.LVL381
 10531 325a 7B3B0000 		.4byte	0x3b7b
 10532 325e 69320000 		.4byte	0x3269
 10533 3262 3B       		.uleb128 0x3b
 10534 3263 01       		.uleb128 0x1
 10535 3264 50       		.byte	0x50
 10536 3265 02       		.uleb128 0x2
 10537 3266 75       		.byte	0x75
 10538 3267 00       		.sleb128 0
 10539 3268 00       		.byte	0
 10540 3269 3C       		.uleb128 0x3c
 10541 326a D4010000 		.4byte	.LVL383
 10542 326e EE3B0000 		.4byte	0x3bee
 10543 3272 3B       		.uleb128 0x3b
 10544 3273 01       		.uleb128 0x1
 10545 3274 50       		.byte	0x50
 10546 3275 02       		.uleb128 0x2
 10547 3276 75       		.byte	0x75
 10548 3277 00       		.sleb128 0
 10549 3278 00       		.byte	0
 10550 3279 00       		.byte	0
 10551 327a 00       		.byte	0
 10552 327b 51       		.uleb128 0x51
 10553 327c 87190000 		.4byte	0x1987
 10554 3280 D4010000 		.4byte	.LBB456
 10555 3284 00050000 		.4byte	.Ldebug_ranges0+0x500
 10556 3288 01       		.byte	0x1
 10557 3289 8C       		.byte	0x8c
 10558 328a DD320000 		.4byte	0x32dd
 10559 328e 34       		.uleb128 0x34
 10560 328f AC190000 		.4byte	0x19ac
 10561 3293 9B220000 		.4byte	.LLST162
 10562 3297 34       		.uleb128 0x34
 10563 3298 A0190000 		.4byte	0x19a0
 10564 329c AE220000 		.4byte	.LLST163
 10565 32a0 34       		.uleb128 0x34
 10566 32a1 94190000 		.4byte	0x1994
ARM GAS  C:\Users\pearlstl\AppData\Local\Temp\ccHPSyCj.s 			page 218


 10567 32a5 C2220000 		.4byte	.LLST164
 10568 32a9 38       		.uleb128 0x38
 10569 32aa 00050000 		.4byte	.Ldebug_ranges0+0x500
 10570 32ae 36       		.uleb128 0x36
 10571 32af B8190000 		.4byte	0x19b8
 10572 32b3 D5220000 		.4byte	.LLST165
 10573 32b7 3A       		.uleb128 0x3a
 10574 32b8 DC010000 		.4byte	.LVL385
 10575 32bc 7B3B0000 		.4byte	0x3b7b
 10576 32c0 CB320000 		.4byte	0x32cb
 10577 32c4 3B       		.uleb128 0x3b
 10578 32c5 01       		.uleb128 0x1
 10579 32c6 50       		.byte	0x50
 10580 32c7 02       		.uleb128 0x2
 10581 32c8 75       		.byte	0x75
 10582 32c9 00       		.sleb128 0
 10583 32ca 00       		.byte	0
 10584 32cb 3C       		.uleb128 0x3c
 10585 32cc E4010000 		.4byte	.LVL387
 10586 32d0 EE3B0000 		.4byte	0x3bee
 10587 32d4 3B       		.uleb128 0x3b
 10588 32d5 01       		.uleb128 0x1
 10589 32d6 50       		.byte	0x50
 10590 32d7 02       		.uleb128 0x2
 10591 32d8 75       		.byte	0x75
 10592 32d9 00       		.sleb128 0
 10593 32da 00       		.byte	0
 10594 32db 00       		.byte	0
 10595 32dc 00       		.byte	0
 10596 32dd 51       		.uleb128 0x51
 10597 32de 87190000 		.4byte	0x1987
 10598 32e2 E4010000 		.4byte	.LBB460
 10599 32e6 18050000 		.4byte	.Ldebug_ranges0+0x518
 10600 32ea 01       		.byte	0x1
 10601 32eb 8D       		.byte	0x8d
 10602 32ec 3F330000 		.4byte	0x333f
 10603 32f0 34       		.uleb128 0x34
 10604 32f1 AC190000 		.4byte	0x19ac
 10605 32f5 E8220000 		.4byte	.LLST166
 10606 32f9 34       		.uleb128 0x34
 10607 32fa A0190000 		.4byte	0x19a0
 10608 32fe FB220000 		.4byte	.LLST167
 10609 3302 34       		.uleb128 0x34
 10610 3303 94190000 		.4byte	0x1994
 10611 3307 0F230000 		.4byte	.LLST168
 10612 330b 38       		.uleb128 0x38
 10613 330c 18050000 		.4byte	.Ldebug_ranges0+0x518
 10614 3310 36       		.uleb128 0x36
 10615 3311 B8190000 		.4byte	0x19b8
 10616 3315 22230000 		.4byte	.LLST169
 10617 3319 3A       		.uleb128 0x3a
 10618 331a EC010000 		.4byte	.LVL389
 10619 331e 7B3B0000 		.4byte	0x3b7b
 10620 3322 2D330000 		.4byte	0x332d
 10621 3326 3B       		.uleb128 0x3b
 10622 3327 01       		.uleb128 0x1
 10623 3328 50       		.byte	0x50
ARM GAS  C:\Users\pearlstl\AppData\Local\Temp\ccHPSyCj.s 			page 219


 10624 3329 02       		.uleb128 0x2
 10625 332a 75       		.byte	0x75
 10626 332b 00       		.sleb128 0
 10627 332c 00       		.byte	0
 10628 332d 3C       		.uleb128 0x3c
 10629 332e F4010000 		.4byte	.LVL391
 10630 3332 EE3B0000 		.4byte	0x3bee
 10631 3336 3B       		.uleb128 0x3b
 10632 3337 01       		.uleb128 0x1
 10633 3338 50       		.byte	0x50
 10634 3339 02       		.uleb128 0x2
 10635 333a 75       		.byte	0x75
 10636 333b 00       		.sleb128 0
 10637 333c 00       		.byte	0
 10638 333d 00       		.byte	0
 10639 333e 00       		.byte	0
 10640 333f 51       		.uleb128 0x51
 10641 3340 87190000 		.4byte	0x1987
 10642 3344 F4010000 		.4byte	.LBB464
 10643 3348 30050000 		.4byte	.Ldebug_ranges0+0x530
 10644 334c 01       		.byte	0x1
 10645 334d 8E       		.byte	0x8e
 10646 334e A1330000 		.4byte	0x33a1
 10647 3352 34       		.uleb128 0x34
 10648 3353 AC190000 		.4byte	0x19ac
 10649 3357 35230000 		.4byte	.LLST170
 10650 335b 34       		.uleb128 0x34
 10651 335c A0190000 		.4byte	0x19a0
 10652 3360 48230000 		.4byte	.LLST171
 10653 3364 34       		.uleb128 0x34
 10654 3365 94190000 		.4byte	0x1994
 10655 3369 5C230000 		.4byte	.LLST172
 10656 336d 38       		.uleb128 0x38
 10657 336e 30050000 		.4byte	.Ldebug_ranges0+0x530
 10658 3372 36       		.uleb128 0x36
 10659 3373 B8190000 		.4byte	0x19b8
 10660 3377 6F230000 		.4byte	.LLST173
 10661 337b 3A       		.uleb128 0x3a
 10662 337c FC010000 		.4byte	.LVL393
 10663 3380 7B3B0000 		.4byte	0x3b7b
 10664 3384 8F330000 		.4byte	0x338f
 10665 3388 3B       		.uleb128 0x3b
 10666 3389 01       		.uleb128 0x1
 10667 338a 50       		.byte	0x50
 10668 338b 02       		.uleb128 0x2
 10669 338c 75       		.byte	0x75
 10670 338d 00       		.sleb128 0
 10671 338e 00       		.byte	0
 10672 338f 3C       		.uleb128 0x3c
 10673 3390 04020000 		.4byte	.LVL395
 10674 3394 EE3B0000 		.4byte	0x3bee
 10675 3398 3B       		.uleb128 0x3b
 10676 3399 01       		.uleb128 0x1
 10677 339a 50       		.byte	0x50
 10678 339b 02       		.uleb128 0x2
 10679 339c 75       		.byte	0x75
 10680 339d 00       		.sleb128 0
ARM GAS  C:\Users\pearlstl\AppData\Local\Temp\ccHPSyCj.s 			page 220


 10681 339e 00       		.byte	0
 10682 339f 00       		.byte	0
 10683 33a0 00       		.byte	0
 10684 33a1 51       		.uleb128 0x51
 10685 33a2 87190000 		.4byte	0x1987
 10686 33a6 04020000 		.4byte	.LBB468
 10687 33aa 48050000 		.4byte	.Ldebug_ranges0+0x548
 10688 33ae 01       		.byte	0x1
 10689 33af 8F       		.byte	0x8f
 10690 33b0 03340000 		.4byte	0x3403
 10691 33b4 34       		.uleb128 0x34
 10692 33b5 AC190000 		.4byte	0x19ac
 10693 33b9 82230000 		.4byte	.LLST174
 10694 33bd 34       		.uleb128 0x34
 10695 33be A0190000 		.4byte	0x19a0
 10696 33c2 95230000 		.4byte	.LLST175
 10697 33c6 34       		.uleb128 0x34
 10698 33c7 94190000 		.4byte	0x1994
 10699 33cb A9230000 		.4byte	.LLST176
 10700 33cf 38       		.uleb128 0x38
 10701 33d0 48050000 		.4byte	.Ldebug_ranges0+0x548
 10702 33d4 36       		.uleb128 0x36
 10703 33d5 B8190000 		.4byte	0x19b8
 10704 33d9 BC230000 		.4byte	.LLST177
 10705 33dd 3A       		.uleb128 0x3a
 10706 33de 0C020000 		.4byte	.LVL397
 10707 33e2 7B3B0000 		.4byte	0x3b7b
 10708 33e6 F1330000 		.4byte	0x33f1
 10709 33ea 3B       		.uleb128 0x3b
 10710 33eb 01       		.uleb128 0x1
 10711 33ec 50       		.byte	0x50
 10712 33ed 02       		.uleb128 0x2
 10713 33ee 75       		.byte	0x75
 10714 33ef 00       		.sleb128 0
 10715 33f0 00       		.byte	0
 10716 33f1 3C       		.uleb128 0x3c
 10717 33f2 14020000 		.4byte	.LVL399
 10718 33f6 EE3B0000 		.4byte	0x3bee
 10719 33fa 3B       		.uleb128 0x3b
 10720 33fb 01       		.uleb128 0x1
 10721 33fc 50       		.byte	0x50
 10722 33fd 02       		.uleb128 0x2
 10723 33fe 75       		.byte	0x75
 10724 33ff 00       		.sleb128 0
 10725 3400 00       		.byte	0
 10726 3401 00       		.byte	0
 10727 3402 00       		.byte	0
 10728 3403 51       		.uleb128 0x51
 10729 3404 87190000 		.4byte	0x1987
 10730 3408 14020000 		.4byte	.LBB472
 10731 340c 60050000 		.4byte	.Ldebug_ranges0+0x560
 10732 3410 01       		.byte	0x1
 10733 3411 90       		.byte	0x90
 10734 3412 65340000 		.4byte	0x3465
 10735 3416 34       		.uleb128 0x34
 10736 3417 AC190000 		.4byte	0x19ac
 10737 341b CF230000 		.4byte	.LLST178
ARM GAS  C:\Users\pearlstl\AppData\Local\Temp\ccHPSyCj.s 			page 221


 10738 341f 34       		.uleb128 0x34
 10739 3420 A0190000 		.4byte	0x19a0
 10740 3424 E2230000 		.4byte	.LLST179
 10741 3428 34       		.uleb128 0x34
 10742 3429 94190000 		.4byte	0x1994
 10743 342d F6230000 		.4byte	.LLST180
 10744 3431 38       		.uleb128 0x38
 10745 3432 60050000 		.4byte	.Ldebug_ranges0+0x560
 10746 3436 36       		.uleb128 0x36
 10747 3437 B8190000 		.4byte	0x19b8
 10748 343b 09240000 		.4byte	.LLST181
 10749 343f 3A       		.uleb128 0x3a
 10750 3440 1C020000 		.4byte	.LVL401
 10751 3444 7B3B0000 		.4byte	0x3b7b
 10752 3448 53340000 		.4byte	0x3453
 10753 344c 3B       		.uleb128 0x3b
 10754 344d 01       		.uleb128 0x1
 10755 344e 50       		.byte	0x50
 10756 344f 02       		.uleb128 0x2
 10757 3450 75       		.byte	0x75
 10758 3451 00       		.sleb128 0
 10759 3452 00       		.byte	0
 10760 3453 3C       		.uleb128 0x3c
 10761 3454 24020000 		.4byte	.LVL403
 10762 3458 EE3B0000 		.4byte	0x3bee
 10763 345c 3B       		.uleb128 0x3b
 10764 345d 01       		.uleb128 0x1
 10765 345e 50       		.byte	0x50
 10766 345f 02       		.uleb128 0x2
 10767 3460 75       		.byte	0x75
 10768 3461 00       		.sleb128 0
 10769 3462 00       		.byte	0
 10770 3463 00       		.byte	0
 10771 3464 00       		.byte	0
 10772 3465 3A       		.uleb128 0x3a
 10773 3466 EC000000 		.4byte	.LVL332
 10774 346a 4B3C0000 		.4byte	0x3c4b
 10775 346e 87340000 		.4byte	0x3487
 10776 3472 3B       		.uleb128 0x3b
 10777 3473 01       		.uleb128 0x1
 10778 3474 50       		.byte	0x50
 10779 3475 02       		.uleb128 0x2
 10780 3476 75       		.byte	0x75
 10781 3477 00       		.sleb128 0
 10782 3478 3B       		.uleb128 0x3b
 10783 3479 01       		.uleb128 0x1
 10784 347a 51       		.byte	0x51
 10785 347b 03       		.uleb128 0x3
 10786 347c 0A       		.byte	0xa
 10787 347d 2C01     		.2byte	0x12c
 10788 347f 3B       		.uleb128 0x3b
 10789 3480 01       		.uleb128 0x1
 10790 3481 52       		.byte	0x52
 10791 3482 03       		.uleb128 0x3
 10792 3483 0A       		.byte	0xa
 10793 3484 2C01     		.2byte	0x12c
 10794 3486 00       		.byte	0
ARM GAS  C:\Users\pearlstl\AppData\Local\Temp\ccHPSyCj.s 			page 222


 10795 3487 3A       		.uleb128 0x3a
 10796 3488 F4000000 		.4byte	.LVL333
 10797 348c 3F3C0000 		.4byte	0x3c3f
 10798 3490 A1340000 		.4byte	0x34a1
 10799 3494 3B       		.uleb128 0x3b
 10800 3495 01       		.uleb128 0x1
 10801 3496 50       		.byte	0x50
 10802 3497 02       		.uleb128 0x2
 10803 3498 75       		.byte	0x75
 10804 3499 00       		.sleb128 0
 10805 349a 3B       		.uleb128 0x3b
 10806 349b 01       		.uleb128 0x1
 10807 349c 51       		.byte	0x51
 10808 349d 02       		.uleb128 0x2
 10809 349e 76       		.byte	0x76
 10810 349f 00       		.sleb128 0
 10811 34a0 00       		.byte	0
 10812 34a1 43       		.uleb128 0x43
 10813 34a2 F8000000 		.4byte	.LVL334
 10814 34a6 573C0000 		.4byte	0x3c57
 10815 34aa 00       		.byte	0
 10816 34ab 3A       		.uleb128 0x3a
 10817 34ac 08000000 		.4byte	.LVL320
 10818 34b0 633C0000 		.4byte	0x3c63
 10819 34b4 C6340000 		.4byte	0x34c6
 10820 34b8 3B       		.uleb128 0x3b
 10821 34b9 01       		.uleb128 0x1
 10822 34ba 50       		.byte	0x50
 10823 34bb 03       		.uleb128 0x3
 10824 34bc F3       		.byte	0xf3
 10825 34bd 01       		.uleb128 0x1
 10826 34be 50       		.byte	0x50
 10827 34bf 3B       		.uleb128 0x3b
 10828 34c0 01       		.uleb128 0x1
 10829 34c1 51       		.byte	0x51
 10830 34c2 02       		.uleb128 0x2
 10831 34c3 77       		.byte	0x77
 10832 34c4 00       		.sleb128 0
 10833 34c5 00       		.byte	0
 10834 34c6 3A       		.uleb128 0x3a
 10835 34c7 16000000 		.4byte	.LVL321
 10836 34cb 6F3C0000 		.4byte	0x3c6f
 10837 34cf E0340000 		.4byte	0x34e0
 10838 34d3 3B       		.uleb128 0x3b
 10839 34d4 01       		.uleb128 0x1
 10840 34d5 50       		.byte	0x50
 10841 34d6 02       		.uleb128 0x2
 10842 34d7 75       		.byte	0x75
 10843 34d8 00       		.sleb128 0
 10844 34d9 3B       		.uleb128 0x3b
 10845 34da 01       		.uleb128 0x1
 10846 34db 51       		.byte	0x51
 10847 34dc 02       		.uleb128 0x2
 10848 34dd 08       		.byte	0x8
 10849 34de 38       		.byte	0x38
 10850 34df 00       		.byte	0
 10851 34e0 3A       		.uleb128 0x3a
ARM GAS  C:\Users\pearlstl\AppData\Local\Temp\ccHPSyCj.s 			page 223


 10852 34e1 76000000 		.4byte	.LVL323
 10853 34e5 7B3C0000 		.4byte	0x3c7b
 10854 34e9 FD340000 		.4byte	0x34fd
 10855 34ed 3B       		.uleb128 0x3b
 10856 34ee 01       		.uleb128 0x1
 10857 34ef 50       		.byte	0x50
 10858 34f0 02       		.uleb128 0x2
 10859 34f1 75       		.byte	0x75
 10860 34f2 00       		.sleb128 0
 10861 34f3 3B       		.uleb128 0x3b
 10862 34f4 01       		.uleb128 0x1
 10863 34f5 51       		.byte	0x51
 10864 34f6 05       		.uleb128 0x5
 10865 34f7 03       		.byte	0x3
 10866 34f8 00000000 		.4byte	lv_calendar_signal
 10867 34fc 00       		.byte	0
 10868 34fd 3A       		.uleb128 0x3a
 10869 34fe 7E000000 		.4byte	.LVL324
 10870 3502 873C0000 		.4byte	0x3c87
 10871 3506 1A350000 		.4byte	0x351a
 10872 350a 3B       		.uleb128 0x3b
 10873 350b 01       		.uleb128 0x1
 10874 350c 50       		.byte	0x50
 10875 350d 02       		.uleb128 0x2
 10876 350e 75       		.byte	0x75
 10877 350f 00       		.sleb128 0
 10878 3510 3B       		.uleb128 0x3b
 10879 3511 01       		.uleb128 0x1
 10880 3512 51       		.byte	0x51
 10881 3513 05       		.uleb128 0x5
 10882 3514 03       		.byte	0x3
 10883 3515 00000000 		.4byte	lv_calendar_design
 10884 3519 00       		.byte	0
 10885 351a 3A       		.uleb128 0x3a
 10886 351b A2010000 		.4byte	.LVL373
 10887 351f 933C0000 		.4byte	0x3c93
 10888 3523 2E350000 		.4byte	0x352e
 10889 3527 3B       		.uleb128 0x3b
 10890 3528 01       		.uleb128 0x1
 10891 3529 50       		.byte	0x50
 10892 352a 02       		.uleb128 0x2
 10893 352b 75       		.byte	0x75
 10894 352c 00       		.sleb128 0
 10895 352d 00       		.byte	0
 10896 352e 3C       		.uleb128 0x3c
 10897 352f AC010000 		.4byte	.LVL374
 10898 3533 9F3C0000 		.4byte	0x3c9f
 10899 3537 3B       		.uleb128 0x3b
 10900 3538 01       		.uleb128 0x1
 10901 3539 50       		.byte	0x50
 10902 353a 02       		.uleb128 0x2
 10903 353b 75       		.byte	0x75
 10904 353c 00       		.sleb128 0
 10905 353d 00       		.byte	0
 10906 353e 00       		.byte	0
 10907 353f 0D       		.uleb128 0xd
 10908 3540 04       		.byte	0x4
ARM GAS  C:\Users\pearlstl\AppData\Local\Temp\ccHPSyCj.s 			page 224


 10909 3541 8F180000 		.4byte	0x188f
 10910 3545 52       		.uleb128 0x52
 10911 3546 2C0E0000 		.4byte	.LASF392
 10912 354a 01       		.byte	0x1
 10913 354b C6       		.byte	0xc6
 10914 354c 00000000 		.4byte	.LFB32
 10915 3550 24000000 		.4byte	.LFE32-.LFB32
 10916 3554 01       		.uleb128 0x1
 10917 3555 9C       		.byte	0x9c
 10918 3556 AD350000 		.4byte	0x35ad
 10919 355a 4D       		.uleb128 0x4d
 10920 355b 970E0000 		.4byte	.LASF324
 10921 355f 01       		.byte	0x1
 10922 3560 C6       		.byte	0xc6
 10923 3561 45190000 		.4byte	0x1945
 10924 3565 1C240000 		.4byte	.LLST182
 10925 3569 4D       		.uleb128 0x4d
 10926 356a B1080000 		.4byte	.LASF252
 10927 356e 01       		.byte	0x1
 10928 356f C6       		.byte	0xc6
 10929 3570 11100000 		.4byte	0x1011
 10930 3574 53240000 		.4byte	.LLST183
 10931 3578 4F       		.uleb128 0x4f
 10932 3579 65787400 		.ascii	"ext\000"
 10933 357d 01       		.byte	0x1
 10934 357e CB       		.byte	0xcb
 10935 357f 4B190000 		.4byte	0x194b
 10936 3583 7F240000 		.4byte	.LLST184
 10937 3587 3A       		.uleb128 0x3a
 10938 3588 0A000000 		.4byte	.LVL406
 10939 358c 7B3B0000 		.4byte	0x3b7b
 10940 3590 9B350000 		.4byte	0x359b
 10941 3594 3B       		.uleb128 0x3b
 10942 3595 01       		.uleb128 0x1
 10943 3596 50       		.byte	0x50
 10944 3597 02       		.uleb128 0x2
 10945 3598 75       		.byte	0x75
 10946 3599 00       		.sleb128 0
 10947 359a 00       		.byte	0
 10948 359b 53       		.uleb128 0x53
 10949 359c 24000000 		.4byte	.LVL409
 10950 35a0 EE3B0000 		.4byte	0x3bee
 10951 35a4 3B       		.uleb128 0x3b
 10952 35a5 01       		.uleb128 0x1
 10953 35a6 50       		.byte	0x50
 10954 35a7 03       		.uleb128 0x3
 10955 35a8 F3       		.byte	0xf3
 10956 35a9 01       		.uleb128 0x1
 10957 35aa 50       		.byte	0x50
 10958 35ab 00       		.byte	0
 10959 35ac 00       		.byte	0
 10960 35ad 52       		.uleb128 0x52
 10961 35ae 94130000 		.4byte	.LASF393
 10962 35b2 01       		.byte	0x1
 10963 35b3 D9       		.byte	0xd9
 10964 35b4 00000000 		.4byte	.LFB33
 10965 35b8 24000000 		.4byte	.LFE33-.LFB33
ARM GAS  C:\Users\pearlstl\AppData\Local\Temp\ccHPSyCj.s 			page 225


 10966 35bc 01       		.uleb128 0x1
 10967 35bd 9C       		.byte	0x9c
 10968 35be 15360000 		.4byte	0x3615
 10969 35c2 4D       		.uleb128 0x4d
 10970 35c3 970E0000 		.4byte	.LASF324
 10971 35c7 01       		.byte	0x1
 10972 35c8 D9       		.byte	0xd9
 10973 35c9 45190000 		.4byte	0x1945
 10974 35cd 92240000 		.4byte	.LLST185
 10975 35d1 4D       		.uleb128 0x4d
 10976 35d2 EB090000 		.4byte	.LASF394
 10977 35d6 01       		.byte	0x1
 10978 35d7 D9       		.byte	0xd9
 10979 35d8 11100000 		.4byte	0x1011
 10980 35dc C9240000 		.4byte	.LLST186
 10981 35e0 4F       		.uleb128 0x4f
 10982 35e1 65787400 		.ascii	"ext\000"
 10983 35e5 01       		.byte	0x1
 10984 35e6 DE       		.byte	0xde
 10985 35e7 4B190000 		.4byte	0x194b
 10986 35eb F5240000 		.4byte	.LLST187
 10987 35ef 3A       		.uleb128 0x3a
 10988 35f0 0A000000 		.4byte	.LVL411
 10989 35f4 7B3B0000 		.4byte	0x3b7b
 10990 35f8 03360000 		.4byte	0x3603
 10991 35fc 3B       		.uleb128 0x3b
 10992 35fd 01       		.uleb128 0x1
 10993 35fe 50       		.byte	0x50
 10994 35ff 02       		.uleb128 0x2
 10995 3600 75       		.byte	0x75
 10996 3601 00       		.sleb128 0
 10997 3602 00       		.byte	0
 10998 3603 53       		.uleb128 0x53
 10999 3604 24000000 		.4byte	.LVL414
 11000 3608 EE3B0000 		.4byte	0x3bee
 11001 360c 3B       		.uleb128 0x3b
 11002 360d 01       		.uleb128 0x1
 11003 360e 50       		.byte	0x50
 11004 360f 03       		.uleb128 0x3
 11005 3610 F3       		.byte	0xf3
 11006 3611 01       		.uleb128 0x1
 11007 3612 50       		.byte	0x50
 11008 3613 00       		.byte	0
 11009 3614 00       		.byte	0
 11010 3615 52       		.uleb128 0x52
 11011 3616 ED120000 		.4byte	.LASF395
 11012 361a 01       		.byte	0x1
 11013 361b ED       		.byte	0xed
 11014 361c 00000000 		.4byte	.LFB34
 11015 3620 1C000000 		.4byte	.LFE34-.LFB34
 11016 3624 01       		.uleb128 0x1
 11017 3625 9C       		.byte	0x9c
 11018 3626 8C360000 		.4byte	0x368c
 11019 362a 4D       		.uleb128 0x4d
 11020 362b 970E0000 		.4byte	.LASF324
 11021 362f 01       		.byte	0x1
 11022 3630 ED       		.byte	0xed
ARM GAS  C:\Users\pearlstl\AppData\Local\Temp\ccHPSyCj.s 			page 226


 11023 3631 45190000 		.4byte	0x1945
 11024 3635 08250000 		.4byte	.LLST188
 11025 3639 4D       		.uleb128 0x4d
 11026 363a 6E0A0000 		.4byte	.LASF396
 11027 363e 01       		.byte	0x1
 11028 363f ED       		.byte	0xed
 11029 3640 11100000 		.4byte	0x1011
 11030 3644 3F250000 		.4byte	.LLST189
 11031 3648 4D       		.uleb128 0x4d
 11032 3649 30170000 		.4byte	.LASF397
 11033 364d 01       		.byte	0x1
 11034 364e ED       		.byte	0xed
 11035 364f CE000000 		.4byte	0xce
 11036 3653 77250000 		.4byte	.LLST190
 11037 3657 4F       		.uleb128 0x4f
 11038 3658 65787400 		.ascii	"ext\000"
 11039 365c 01       		.byte	0x1
 11040 365d F2       		.byte	0xf2
 11041 365e 4B190000 		.4byte	0x194b
 11042 3662 98250000 		.4byte	.LLST191
 11043 3666 3A       		.uleb128 0x3a
 11044 3667 0C000000 		.4byte	.LVL416
 11045 366b 7B3B0000 		.4byte	0x3b7b
 11046 366f 7A360000 		.4byte	0x367a
 11047 3673 3B       		.uleb128 0x3b
 11048 3674 01       		.uleb128 0x1
 11049 3675 50       		.byte	0x50
 11050 3676 02       		.uleb128 0x2
 11051 3677 76       		.byte	0x76
 11052 3678 00       		.sleb128 0
 11053 3679 00       		.byte	0
 11054 367a 53       		.uleb128 0x53
 11055 367b 1C000000 		.4byte	.LVL420
 11056 367f EE3B0000 		.4byte	0x3bee
 11057 3683 3B       		.uleb128 0x3b
 11058 3684 01       		.uleb128 0x1
 11059 3685 50       		.byte	0x50
 11060 3686 03       		.uleb128 0x3
 11061 3687 F3       		.byte	0xf3
 11062 3688 01       		.uleb128 0x1
 11063 3689 50       		.byte	0x50
 11064 368a 00       		.byte	0
 11065 368b 00       		.byte	0
 11066 368c 54       		.uleb128 0x54
 11067 368d 41110000 		.4byte	.LASF398
 11068 3691 01       		.byte	0x1
 11069 3692 0001     		.2byte	0x100
 11070 3694 00000000 		.4byte	.LFB35
 11071 3698 16000000 		.4byte	.LFE35-.LFB35
 11072 369c 01       		.uleb128 0x1
 11073 369d 9C       		.byte	0x9c
 11074 369e F8360000 		.4byte	0x36f8
 11075 36a2 45       		.uleb128 0x45
 11076 36a3 970E0000 		.4byte	.LASF324
 11077 36a7 01       		.byte	0x1
 11078 36a8 0001     		.2byte	0x100
 11079 36aa 45190000 		.4byte	0x1945
ARM GAS  C:\Users\pearlstl\AppData\Local\Temp\ccHPSyCj.s 			page 227


 11080 36ae B6250000 		.4byte	.LLST192
 11081 36b2 45       		.uleb128 0x45
 11082 36b3 8E140000 		.4byte	.LASF258
 11083 36b7 01       		.byte	0x1
 11084 36b8 0001     		.2byte	0x100
 11085 36ba 17100000 		.4byte	0x1017
 11086 36be ED250000 		.4byte	.LLST193
 11087 36c2 46       		.uleb128 0x46
 11088 36c3 65787400 		.ascii	"ext\000"
 11089 36c7 01       		.byte	0x1
 11090 36c8 0501     		.2byte	0x105
 11091 36ca 4B190000 		.4byte	0x194b
 11092 36ce 19260000 		.4byte	.LLST194
 11093 36d2 3A       		.uleb128 0x3a
 11094 36d3 0A000000 		.4byte	.LVL422
 11095 36d7 7B3B0000 		.4byte	0x3b7b
 11096 36db E6360000 		.4byte	0x36e6
 11097 36df 3B       		.uleb128 0x3b
 11098 36e0 01       		.uleb128 0x1
 11099 36e1 50       		.byte	0x50
 11100 36e2 02       		.uleb128 0x2
 11101 36e3 74       		.byte	0x74
 11102 36e4 00       		.sleb128 0
 11103 36e5 00       		.byte	0
 11104 36e6 53       		.uleb128 0x53
 11105 36e7 16000000 		.4byte	.LVL425
 11106 36eb EE3B0000 		.4byte	0x3bee
 11107 36ef 3B       		.uleb128 0x3b
 11108 36f0 01       		.uleb128 0x1
 11109 36f1 50       		.byte	0x50
 11110 36f2 03       		.uleb128 0x3
 11111 36f3 F3       		.byte	0xf3
 11112 36f4 01       		.uleb128 0x1
 11113 36f5 50       		.byte	0x50
 11114 36f6 00       		.byte	0
 11115 36f7 00       		.byte	0
 11116 36f8 54       		.uleb128 0x54
 11117 36f9 550B0000 		.4byte	.LASF399
 11118 36fd 01       		.byte	0x1
 11119 36fe 1101     		.2byte	0x111
 11120 3700 00000000 		.4byte	.LFB36
 11121 3704 16000000 		.4byte	.LFE36-.LFB36
 11122 3708 01       		.uleb128 0x1
 11123 3709 9C       		.byte	0x9c
 11124 370a 64370000 		.4byte	0x3764
 11125 370e 45       		.uleb128 0x45
 11126 370f 970E0000 		.4byte	.LASF324
 11127 3713 01       		.byte	0x1
 11128 3714 1101     		.2byte	0x111
 11129 3716 45190000 		.4byte	0x1945
 11130 371a 2C260000 		.4byte	.LLST195
 11131 371e 45       		.uleb128 0x45
 11132 371f 79040000 		.4byte	.LASF259
 11133 3723 01       		.byte	0x1
 11134 3724 1101     		.2byte	0x111
 11135 3726 17100000 		.4byte	0x1017
 11136 372a 63260000 		.4byte	.LLST196
ARM GAS  C:\Users\pearlstl\AppData\Local\Temp\ccHPSyCj.s 			page 228


 11137 372e 46       		.uleb128 0x46
 11138 372f 65787400 		.ascii	"ext\000"
 11139 3733 01       		.byte	0x1
 11140 3734 1601     		.2byte	0x116
 11141 3736 4B190000 		.4byte	0x194b
 11142 373a 8F260000 		.4byte	.LLST197
 11143 373e 3A       		.uleb128 0x3a
 11144 373f 0A000000 		.4byte	.LVL427
 11145 3743 7B3B0000 		.4byte	0x3b7b
 11146 3747 52370000 		.4byte	0x3752
 11147 374b 3B       		.uleb128 0x3b
 11148 374c 01       		.uleb128 0x1
 11149 374d 50       		.byte	0x50
 11150 374e 02       		.uleb128 0x2
 11151 374f 74       		.byte	0x74
 11152 3750 00       		.sleb128 0
 11153 3751 00       		.byte	0
 11154 3752 53       		.uleb128 0x53
 11155 3753 16000000 		.4byte	.LVL430
 11156 3757 EE3B0000 		.4byte	0x3bee
 11157 375b 3B       		.uleb128 0x3b
 11158 375c 01       		.uleb128 0x1
 11159 375d 50       		.byte	0x50
 11160 375e 03       		.uleb128 0x3
 11161 375f F3       		.byte	0xf3
 11162 3760 01       		.uleb128 0x1
 11163 3761 50       		.byte	0x50
 11164 3762 00       		.byte	0
 11165 3763 00       		.byte	0
 11166 3764 55       		.uleb128 0x55
 11167 3765 87190000 		.4byte	0x1987
 11168 3769 00000000 		.4byte	.LFB37
 11169 376d 82000000 		.4byte	.LFE37-.LFB37
 11170 3771 01       		.uleb128 0x1
 11171 3772 9C       		.byte	0x9c
 11172 3773 6E380000 		.4byte	0x386e
 11173 3777 34       		.uleb128 0x34
 11174 3778 94190000 		.4byte	0x1994
 11175 377c A2260000 		.4byte	.LLST198
 11176 3780 34       		.uleb128 0x34
 11177 3781 A0190000 		.4byte	0x19a0
 11178 3785 D5270000 		.4byte	.LLST199
 11179 3789 34       		.uleb128 0x34
 11180 378a AC190000 		.4byte	0x19ac
 11181 378e F6270000 		.4byte	.LLST200
 11182 3792 36       		.uleb128 0x36
 11183 3793 B8190000 		.4byte	0x19b8
 11184 3797 D1280000 		.4byte	.LLST201
 11185 379b 3A       		.uleb128 0x3a
 11186 379c 0C000000 		.4byte	.LVL432
 11187 37a0 7B3B0000 		.4byte	0x3b7b
 11188 37a4 AF370000 		.4byte	0x37af
 11189 37a8 3B       		.uleb128 0x3b
 11190 37a9 01       		.uleb128 0x1
 11191 37aa 50       		.byte	0x50
 11192 37ab 02       		.uleb128 0x2
 11193 37ac 75       		.byte	0x75
ARM GAS  C:\Users\pearlstl\AppData\Local\Temp\ccHPSyCj.s 			page 229


 11194 37ad 00       		.sleb128 0
 11195 37ae 00       		.byte	0
 11196 37af 56       		.uleb128 0x56
 11197 37b0 28000000 		.4byte	.LVL435
 11198 37b4 EE3B0000 		.4byte	0x3bee
 11199 37b8 C4370000 		.4byte	0x37c4
 11200 37bc 3B       		.uleb128 0x3b
 11201 37bd 01       		.uleb128 0x1
 11202 37be 50       		.byte	0x50
 11203 37bf 03       		.uleb128 0x3
 11204 37c0 F3       		.byte	0xf3
 11205 37c1 01       		.uleb128 0x1
 11206 37c2 50       		.byte	0x50
 11207 37c3 00       		.byte	0
 11208 37c4 56       		.uleb128 0x56
 11209 37c5 34000000 		.4byte	.LVL438
 11210 37c9 EE3B0000 		.4byte	0x3bee
 11211 37cd D9370000 		.4byte	0x37d9
 11212 37d1 3B       		.uleb128 0x3b
 11213 37d2 01       		.uleb128 0x1
 11214 37d3 50       		.byte	0x50
 11215 37d4 03       		.uleb128 0x3
 11216 37d5 F3       		.byte	0xf3
 11217 37d6 01       		.uleb128 0x1
 11218 37d7 50       		.byte	0x50
 11219 37d8 00       		.byte	0
 11220 37d9 3A       		.uleb128 0x3a
 11221 37da 3C000000 		.4byte	.LVL440
 11222 37de 3F3C0000 		.4byte	0x3c3f
 11223 37e2 F3370000 		.4byte	0x37f3
 11224 37e6 3B       		.uleb128 0x3b
 11225 37e7 01       		.uleb128 0x1
 11226 37e8 50       		.byte	0x50
 11227 37e9 02       		.uleb128 0x2
 11228 37ea 75       		.byte	0x75
 11229 37eb 00       		.sleb128 0
 11230 37ec 3B       		.uleb128 0x3b
 11231 37ed 01       		.uleb128 0x1
 11232 37ee 51       		.byte	0x51
 11233 37ef 02       		.uleb128 0x2
 11234 37f0 76       		.byte	0x76
 11235 37f1 00       		.sleb128 0
 11236 37f2 00       		.byte	0
 11237 37f3 56       		.uleb128 0x56
 11238 37f4 46000000 		.4byte	.LVL442
 11239 37f8 EE3B0000 		.4byte	0x3bee
 11240 37fc 08380000 		.4byte	0x3808
 11241 3800 3B       		.uleb128 0x3b
 11242 3801 01       		.uleb128 0x1
 11243 3802 50       		.byte	0x50
 11244 3803 03       		.uleb128 0x3
 11245 3804 F3       		.byte	0xf3
 11246 3805 01       		.uleb128 0x1
 11247 3806 50       		.byte	0x50
 11248 3807 00       		.byte	0
 11249 3808 56       		.uleb128 0x56
 11250 3809 52000000 		.4byte	.LVL445
ARM GAS  C:\Users\pearlstl\AppData\Local\Temp\ccHPSyCj.s 			page 230


 11251 380d EE3B0000 		.4byte	0x3bee
 11252 3811 1D380000 		.4byte	0x381d
 11253 3815 3B       		.uleb128 0x3b
 11254 3816 01       		.uleb128 0x1
 11255 3817 50       		.byte	0x50
 11256 3818 03       		.uleb128 0x3
 11257 3819 F3       		.byte	0xf3
 11258 381a 01       		.uleb128 0x1
 11259 381b 50       		.byte	0x50
 11260 381c 00       		.byte	0
 11261 381d 56       		.uleb128 0x56
 11262 381e 5E000000 		.4byte	.LVL448
 11263 3822 EE3B0000 		.4byte	0x3bee
 11264 3826 32380000 		.4byte	0x3832
 11265 382a 3B       		.uleb128 0x3b
 11266 382b 01       		.uleb128 0x1
 11267 382c 50       		.byte	0x50
 11268 382d 03       		.uleb128 0x3
 11269 382e F3       		.byte	0xf3
 11270 382f 01       		.uleb128 0x1
 11271 3830 50       		.byte	0x50
 11272 3831 00       		.byte	0
 11273 3832 56       		.uleb128 0x56
 11274 3833 6A000000 		.4byte	.LVL451
 11275 3837 EE3B0000 		.4byte	0x3bee
 11276 383b 47380000 		.4byte	0x3847
 11277 383f 3B       		.uleb128 0x3b
 11278 3840 01       		.uleb128 0x1
 11279 3841 50       		.byte	0x50
 11280 3842 03       		.uleb128 0x3
 11281 3843 F3       		.byte	0xf3
 11282 3844 01       		.uleb128 0x1
 11283 3845 50       		.byte	0x50
 11284 3846 00       		.byte	0
 11285 3847 56       		.uleb128 0x56
 11286 3848 76000000 		.4byte	.LVL454
 11287 384c EE3B0000 		.4byte	0x3bee
 11288 3850 5C380000 		.4byte	0x385c
 11289 3854 3B       		.uleb128 0x3b
 11290 3855 01       		.uleb128 0x1
 11291 3856 50       		.byte	0x50
 11292 3857 03       		.uleb128 0x3
 11293 3858 F3       		.byte	0xf3
 11294 3859 01       		.uleb128 0x1
 11295 385a 50       		.byte	0x50
 11296 385b 00       		.byte	0
 11297 385c 53       		.uleb128 0x53
 11298 385d 82000000 		.4byte	.LVL457
 11299 3861 EE3B0000 		.4byte	0x3bee
 11300 3865 3B       		.uleb128 0x3b
 11301 3866 01       		.uleb128 0x1
 11302 3867 50       		.byte	0x50
 11303 3868 03       		.uleb128 0x3
 11304 3869 F3       		.byte	0xf3
 11305 386a 01       		.uleb128 0x1
 11306 386b 50       		.byte	0x50
 11307 386c 00       		.byte	0
ARM GAS  C:\Users\pearlstl\AppData\Local\Temp\ccHPSyCj.s 			page 231


 11308 386d 00       		.byte	0
 11309 386e 57       		.uleb128 0x57
 11310 386f 7A000000 		.4byte	.LASF401
 11311 3873 01       		.byte	0x1
 11312 3874 3E01     		.2byte	0x13e
 11313 3876 11100000 		.4byte	0x1011
 11314 387a 00000000 		.4byte	.LFB38
 11315 387e 08000000 		.4byte	.LFE38-.LFB38
 11316 3882 01       		.uleb128 0x1
 11317 3883 9C       		.byte	0x9c
 11318 3884 B8380000 		.4byte	0x38b8
 11319 3888 45       		.uleb128 0x45
 11320 3889 970E0000 		.4byte	.LASF324
 11321 388d 01       		.byte	0x1
 11322 388e 3E01     		.2byte	0x13e
 11323 3890 5D1A0000 		.4byte	0x1a5d
 11324 3894 31290000 		.4byte	.LLST202
 11325 3898 49       		.uleb128 0x49
 11326 3899 65787400 		.ascii	"ext\000"
 11327 389d 01       		.byte	0x1
 11328 389e 4201     		.2byte	0x142
 11329 38a0 4B190000 		.4byte	0x194b
 11330 38a4 01       		.uleb128 0x1
 11331 38a5 50       		.byte	0x50
 11332 38a6 3C       		.uleb128 0x3c
 11333 38a7 06000000 		.4byte	.LVL459
 11334 38ab 7B3B0000 		.4byte	0x3b7b
 11335 38af 3B       		.uleb128 0x3b
 11336 38b0 01       		.uleb128 0x1
 11337 38b1 50       		.byte	0x50
 11338 38b2 03       		.uleb128 0x3
 11339 38b3 F3       		.byte	0xf3
 11340 38b4 01       		.uleb128 0x1
 11341 38b5 50       		.byte	0x50
 11342 38b6 00       		.byte	0
 11343 38b7 00       		.byte	0
 11344 38b8 57       		.uleb128 0x57
 11345 38b9 F00B0000 		.4byte	.LASF402
 11346 38bd 01       		.byte	0x1
 11347 38be 4B01     		.2byte	0x14b
 11348 38c0 11100000 		.4byte	0x1011
 11349 38c4 00000000 		.4byte	.LFB39
 11350 38c8 0A000000 		.4byte	.LFE39-.LFB39
 11351 38cc 01       		.uleb128 0x1
 11352 38cd 9C       		.byte	0x9c
 11353 38ce 04390000 		.4byte	0x3904
 11354 38d2 45       		.uleb128 0x45
 11355 38d3 970E0000 		.4byte	.LASF324
 11356 38d7 01       		.byte	0x1
 11357 38d8 4B01     		.2byte	0x14b
 11358 38da 5D1A0000 		.4byte	0x1a5d
 11359 38de 52290000 		.4byte	.LLST203
 11360 38e2 46       		.uleb128 0x46
 11361 38e3 65787400 		.ascii	"ext\000"
 11362 38e7 01       		.byte	0x1
 11363 38e8 4F01     		.2byte	0x14f
 11364 38ea 4B190000 		.4byte	0x194b
ARM GAS  C:\Users\pearlstl\AppData\Local\Temp\ccHPSyCj.s 			page 232


 11365 38ee 73290000 		.4byte	.LLST204
 11366 38f2 3C       		.uleb128 0x3c
 11367 38f3 06000000 		.4byte	.LVL461
 11368 38f7 7B3B0000 		.4byte	0x3b7b
 11369 38fb 3B       		.uleb128 0x3b
 11370 38fc 01       		.uleb128 0x1
 11371 38fd 50       		.byte	0x50
 11372 38fe 03       		.uleb128 0x3
 11373 38ff F3       		.byte	0xf3
 11374 3900 01       		.uleb128 0x1
 11375 3901 50       		.byte	0x50
 11376 3902 00       		.byte	0
 11377 3903 00       		.byte	0
 11378 3904 57       		.uleb128 0x57
 11379 3905 2E050000 		.4byte	.LASF403
 11380 3909 01       		.byte	0x1
 11381 390a 5901     		.2byte	0x159
 11382 390c 11100000 		.4byte	0x1011
 11383 3910 00000000 		.4byte	.LFB40
 11384 3914 12000000 		.4byte	.LFE40-.LFB40
 11385 3918 01       		.uleb128 0x1
 11386 3919 9C       		.byte	0x9c
 11387 391a 50390000 		.4byte	0x3950
 11388 391e 45       		.uleb128 0x45
 11389 391f 970E0000 		.4byte	.LASF324
 11390 3923 01       		.byte	0x1
 11391 3924 5901     		.2byte	0x159
 11392 3926 5D1A0000 		.4byte	0x1a5d
 11393 392a 93290000 		.4byte	.LLST205
 11394 392e 46       		.uleb128 0x46
 11395 392f 65787400 		.ascii	"ext\000"
 11396 3933 01       		.byte	0x1
 11397 3934 5D01     		.2byte	0x15d
 11398 3936 4B190000 		.4byte	0x194b
 11399 393a B4290000 		.4byte	.LLST206
 11400 393e 3C       		.uleb128 0x3c
 11401 393f 06000000 		.4byte	.LVL464
 11402 3943 7B3B0000 		.4byte	0x3b7b
 11403 3947 3B       		.uleb128 0x3b
 11404 3948 01       		.uleb128 0x1
 11405 3949 50       		.byte	0x50
 11406 394a 03       		.uleb128 0x3
 11407 394b F3       		.byte	0xf3
 11408 394c 01       		.uleb128 0x1
 11409 394d 50       		.byte	0x50
 11410 394e 00       		.byte	0
 11411 394f 00       		.byte	0
 11412 3950 57       		.uleb128 0x57
 11413 3951 A9160000 		.4byte	.LASF404
 11414 3955 01       		.byte	0x1
 11415 3956 6601     		.2byte	0x166
 11416 3958 11100000 		.4byte	0x1011
 11417 395c 00000000 		.4byte	.LFB41
 11418 3960 0A000000 		.4byte	.LFE41-.LFB41
 11419 3964 01       		.uleb128 0x1
 11420 3965 9C       		.byte	0x9c
 11421 3966 9C390000 		.4byte	0x399c
ARM GAS  C:\Users\pearlstl\AppData\Local\Temp\ccHPSyCj.s 			page 233


 11422 396a 45       		.uleb128 0x45
 11423 396b 970E0000 		.4byte	.LASF324
 11424 396f 01       		.byte	0x1
 11425 3970 6601     		.2byte	0x166
 11426 3972 5D1A0000 		.4byte	0x1a5d
 11427 3976 DF290000 		.4byte	.LLST207
 11428 397a 46       		.uleb128 0x46
 11429 397b 65787400 		.ascii	"ext\000"
 11430 397f 01       		.byte	0x1
 11431 3980 6A01     		.2byte	0x16a
 11432 3982 4B190000 		.4byte	0x194b
 11433 3986 002A0000 		.4byte	.LLST208
 11434 398a 3C       		.uleb128 0x3c
 11435 398b 06000000 		.4byte	.LVL469
 11436 398f 7B3B0000 		.4byte	0x3b7b
 11437 3993 3B       		.uleb128 0x3b
 11438 3994 01       		.uleb128 0x1
 11439 3995 50       		.byte	0x50
 11440 3996 03       		.uleb128 0x3
 11441 3997 F3       		.byte	0xf3
 11442 3998 01       		.uleb128 0x1
 11443 3999 50       		.byte	0x50
 11444 399a 00       		.byte	0
 11445 399b 00       		.byte	0
 11446 399c 57       		.uleb128 0x57
 11447 399d 21090000 		.4byte	.LASF405
 11448 39a1 01       		.byte	0x1
 11449 39a2 7301     		.2byte	0x173
 11450 39a4 CE000000 		.4byte	0xce
 11451 39a8 00000000 		.4byte	.LFB42
 11452 39ac 0A000000 		.4byte	.LFE42-.LFB42
 11453 39b0 01       		.uleb128 0x1
 11454 39b1 9C       		.byte	0x9c
 11455 39b2 E8390000 		.4byte	0x39e8
 11456 39b6 45       		.uleb128 0x45
 11457 39b7 970E0000 		.4byte	.LASF324
 11458 39bb 01       		.byte	0x1
 11459 39bc 7301     		.2byte	0x173
 11460 39be 5D1A0000 		.4byte	0x1a5d
 11461 39c2 132A0000 		.4byte	.LLST209
 11462 39c6 46       		.uleb128 0x46
 11463 39c7 65787400 		.ascii	"ext\000"
 11464 39cb 01       		.byte	0x1
 11465 39cc 7701     		.2byte	0x177
 11466 39ce 4B190000 		.4byte	0x194b
 11467 39d2 342A0000 		.4byte	.LLST210
 11468 39d6 3C       		.uleb128 0x3c
 11469 39d7 06000000 		.4byte	.LVL472
 11470 39db 7B3B0000 		.4byte	0x3b7b
 11471 39df 3B       		.uleb128 0x3b
 11472 39e0 01       		.uleb128 0x1
 11473 39e1 50       		.byte	0x50
 11474 39e2 03       		.uleb128 0x3
 11475 39e3 F3       		.byte	0xf3
 11476 39e4 01       		.uleb128 0x1
 11477 39e5 50       		.byte	0x50
 11478 39e6 00       		.byte	0
ARM GAS  C:\Users\pearlstl\AppData\Local\Temp\ccHPSyCj.s 			page 234


 11479 39e7 00       		.byte	0
 11480 39e8 57       		.uleb128 0x57
 11481 39e9 CB090000 		.4byte	.LASF406
 11482 39ed 01       		.byte	0x1
 11483 39ee 8001     		.2byte	0x180
 11484 39f0 17100000 		.4byte	0x1017
 11485 39f4 00000000 		.4byte	.LFB43
 11486 39f8 0A000000 		.4byte	.LFE43-.LFB43
 11487 39fc 01       		.uleb128 0x1
 11488 39fd 9C       		.byte	0x9c
 11489 39fe 343A0000 		.4byte	0x3a34
 11490 3a02 45       		.uleb128 0x45
 11491 3a03 970E0000 		.4byte	.LASF324
 11492 3a07 01       		.byte	0x1
 11493 3a08 8001     		.2byte	0x180
 11494 3a0a 5D1A0000 		.4byte	0x1a5d
 11495 3a0e 472A0000 		.4byte	.LLST211
 11496 3a12 46       		.uleb128 0x46
 11497 3a13 65787400 		.ascii	"ext\000"
 11498 3a17 01       		.byte	0x1
 11499 3a18 8401     		.2byte	0x184
 11500 3a1a 4B190000 		.4byte	0x194b
 11501 3a1e 682A0000 		.4byte	.LLST212
 11502 3a22 3C       		.uleb128 0x3c
 11503 3a23 06000000 		.4byte	.LVL475
 11504 3a27 7B3B0000 		.4byte	0x3b7b
 11505 3a2b 3B       		.uleb128 0x3b
 11506 3a2c 01       		.uleb128 0x1
 11507 3a2d 50       		.byte	0x50
 11508 3a2e 03       		.uleb128 0x3
 11509 3a2f F3       		.byte	0xf3
 11510 3a30 01       		.uleb128 0x1
 11511 3a31 50       		.byte	0x50
 11512 3a32 00       		.byte	0
 11513 3a33 00       		.byte	0
 11514 3a34 57       		.uleb128 0x57
 11515 3a35 1E130000 		.4byte	.LASF407
 11516 3a39 01       		.byte	0x1
 11517 3a3a 8D01     		.2byte	0x18d
 11518 3a3c 17100000 		.4byte	0x1017
 11519 3a40 00000000 		.4byte	.LFB44
 11520 3a44 0A000000 		.4byte	.LFE44-.LFB44
 11521 3a48 01       		.uleb128 0x1
 11522 3a49 9C       		.byte	0x9c
 11523 3a4a 803A0000 		.4byte	0x3a80
 11524 3a4e 45       		.uleb128 0x45
 11525 3a4f 970E0000 		.4byte	.LASF324
 11526 3a53 01       		.byte	0x1
 11527 3a54 8D01     		.2byte	0x18d
 11528 3a56 5D1A0000 		.4byte	0x1a5d
 11529 3a5a 7B2A0000 		.4byte	.LLST213
 11530 3a5e 46       		.uleb128 0x46
 11531 3a5f 65787400 		.ascii	"ext\000"
 11532 3a63 01       		.byte	0x1
 11533 3a64 9101     		.2byte	0x191
 11534 3a66 4B190000 		.4byte	0x194b
 11535 3a6a 9C2A0000 		.4byte	.LLST214
ARM GAS  C:\Users\pearlstl\AppData\Local\Temp\ccHPSyCj.s 			page 235


 11536 3a6e 3C       		.uleb128 0x3c
 11537 3a6f 06000000 		.4byte	.LVL478
 11538 3a73 7B3B0000 		.4byte	0x3b7b
 11539 3a77 3B       		.uleb128 0x3b
 11540 3a78 01       		.uleb128 0x1
 11541 3a79 50       		.byte	0x50
 11542 3a7a 03       		.uleb128 0x3
 11543 3a7b F3       		.byte	0xf3
 11544 3a7c 01       		.uleb128 0x1
 11545 3a7d 50       		.byte	0x50
 11546 3a7e 00       		.byte	0
 11547 3a7f 00       		.byte	0
 11548 3a80 55       		.uleb128 0x55
 11549 3a81 1B1A0000 		.4byte	0x1a1b
 11550 3a85 00000000 		.4byte	.LFB45
 11551 3a89 44000000 		.4byte	.LFE45-.LFB45
 11552 3a8d 01       		.uleb128 0x1
 11553 3a8e 9C       		.byte	0x9c
 11554 3a8f DD3A0000 		.4byte	0x3add
 11555 3a93 34       		.uleb128 0x34
 11556 3a94 2C1A0000 		.4byte	0x1a2c
 11557 3a98 AF2A0000 		.4byte	.LLST215
 11558 3a9c 34       		.uleb128 0x34
 11559 3a9d 381A0000 		.4byte	0x1a38
 11560 3aa1 F12A0000 		.4byte	.LLST216
 11561 3aa5 36       		.uleb128 0x36
 11562 3aa6 441A0000 		.4byte	0x1a44
 11563 3aaa 122B0000 		.4byte	.LLST217
 11564 3aae 36       		.uleb128 0x36
 11565 3aaf 501A0000 		.4byte	0x1a50
 11566 3ab3 D22B0000 		.4byte	.LLST218
 11567 3ab7 3A       		.uleb128 0x3a
 11568 3ab8 0A000000 		.4byte	.LVL481
 11569 3abc 7B3B0000 		.4byte	0x3b7b
 11570 3ac0 CB3A0000 		.4byte	0x3acb
 11571 3ac4 3B       		.uleb128 0x3b
 11572 3ac5 01       		.uleb128 0x1
 11573 3ac6 50       		.byte	0x50
 11574 3ac7 02       		.uleb128 0x2
 11575 3ac8 75       		.byte	0x75
 11576 3ac9 00       		.sleb128 0
 11577 3aca 00       		.byte	0
 11578 3acb 53       		.uleb128 0x53
 11579 3acc 28000000 		.4byte	.LVL486
 11580 3ad0 873B0000 		.4byte	0x3b87
 11581 3ad4 3B       		.uleb128 0x3b
 11582 3ad5 01       		.uleb128 0x1
 11583 3ad6 50       		.byte	0x50
 11584 3ad7 03       		.uleb128 0x3
 11585 3ad8 F3       		.byte	0xf3
 11586 3ad9 01       		.uleb128 0x1
 11587 3ada 50       		.byte	0x50
 11588 3adb 00       		.byte	0
 11589 3adc 00       		.byte	0
 11590 3add 58       		.uleb128 0x58
 11591 3ade D7100000 		.4byte	.LASF408
 11592 3ae2 01       		.byte	0x1
ARM GAS  C:\Users\pearlstl\AppData\Local\Temp\ccHPSyCj.s 			page 236


 11593 3ae3 38       		.byte	0x38
 11594 3ae4 590E0000 		.4byte	0xe59
 11595 3ae8 05       		.uleb128 0x5
 11596 3ae9 03       		.byte	0x3
 11597 3aea 04000000 		.4byte	ancestor_signal
 11598 3aee 58       		.uleb128 0x58
 11599 3aef 25110000 		.4byte	.LASF409
 11600 3af3 01       		.byte	0x1
 11601 3af4 39       		.byte	0x39
 11602 3af5 EE0C0000 		.4byte	0xcee
 11603 3af9 05       		.uleb128 0x5
 11604 3afa 03       		.byte	0x3
 11605 3afb 00000000 		.4byte	ancestor_design
 11606 3aff 1B       		.uleb128 0x1b
 11607 3b00 AB020000 		.4byte	0x2ab
 11608 3b04 0F3B0000 		.4byte	0x3b0f
 11609 3b08 1C       		.uleb128 0x1c
 11610 3b09 9D020000 		.4byte	0x29d
 11611 3b0d 06       		.byte	0x6
 11612 3b0e 00       		.byte	0
 11613 3b0f 58       		.uleb128 0x58
 11614 3b10 260A0000 		.4byte	.LASF410
 11615 3b14 01       		.byte	0x1
 11616 3b15 3A       		.byte	0x3a
 11617 3b16 203B0000 		.4byte	0x3b20
 11618 3b1a 05       		.uleb128 0x5
 11619 3b1b 03       		.byte	0x3
 11620 3b1c 30000000 		.4byte	day_name
 11621 3b20 0E       		.uleb128 0xe
 11622 3b21 FF3A0000 		.4byte	0x3aff
 11623 3b25 1B       		.uleb128 0x1b
 11624 3b26 AB020000 		.4byte	0x2ab
 11625 3b2a 353B0000 		.4byte	0x3b35
 11626 3b2e 1C       		.uleb128 0x1c
 11627 3b2f 9D020000 		.4byte	0x29d
 11628 3b33 0B       		.byte	0xb
 11629 3b34 00       		.byte	0
 11630 3b35 58       		.uleb128 0x58
 11631 3b36 180C0000 		.4byte	.LASF411
 11632 3b3a 01       		.byte	0x1
 11633 3b3b 3B       		.byte	0x3b
 11634 3b3c 463B0000 		.4byte	0x3b46
 11635 3b40 05       		.uleb128 0x5
 11636 3b41 03       		.byte	0x3
 11637 3b42 00000000 		.4byte	month_name
 11638 3b46 0E       		.uleb128 0xe
 11639 3b47 253B0000 		.4byte	0x3b25
 11640 3b4b 59       		.uleb128 0x59
 11641 3b4c 1F070000 		.4byte	.LASF412
 11642 3b50 08       		.byte	0x8
 11643 3b51 1001     		.2byte	0x110
 11644 3b53 49050000 		.4byte	0x549
 11645 3b57 59       		.uleb128 0x59
 11646 3b58 BA120000 		.4byte	.LASF413
 11647 3b5c 08       		.byte	0x8
 11648 3b5d 1101     		.2byte	0x111
 11649 3b5f 49050000 		.4byte	0x549
ARM GAS  C:\Users\pearlstl\AppData\Local\Temp\ccHPSyCj.s 			page 237


 11650 3b63 59       		.uleb128 0x59
 11651 3b64 AA000000 		.4byte	.LASF414
 11652 3b68 08       		.byte	0x8
 11653 3b69 1201     		.2byte	0x112
 11654 3b6b 49050000 		.4byte	0x549
 11655 3b6f 59       		.uleb128 0x59
 11656 3b70 FE110000 		.4byte	.LASF415
 11657 3b74 08       		.byte	0x8
 11658 3b75 1701     		.2byte	0x117
 11659 3b77 49050000 		.4byte	0x549
 11660 3b7b 5A       		.uleb128 0x5a
 11661 3b7c C1060000 		.4byte	.LASF416
 11662 3b80 C1060000 		.4byte	.LASF416
 11663 3b84 0E       		.byte	0xe
 11664 3b85 AA03     		.2byte	0x3aa
 11665 3b87 5A       		.uleb128 0x5a
 11666 3b88 A3050000 		.4byte	.LASF417
 11667 3b8c A3050000 		.4byte	.LASF417
 11668 3b90 0E       		.byte	0xe
 11669 3b91 2D03     		.2byte	0x32d
 11670 3b93 5A       		.uleb128 0x5a
 11671 3b94 020A0000 		.4byte	.LASF418
 11672 3b98 020A0000 		.4byte	.LASF418
 11673 3b9c 0E       		.byte	0xe
 11674 3b9d 6C03     		.2byte	0x36c
 11675 3b9f 5A       		.uleb128 0x5a
 11676 3ba0 98140000 		.4byte	.LASF419
 11677 3ba4 98140000 		.4byte	.LASF419
 11678 3ba8 0E       		.byte	0xe
 11679 3ba9 7A03     		.2byte	0x37a
 11680 3bab 5B       		.uleb128 0x5b
 11681 3bac 5A0F0000 		.4byte	.LASF420
 11682 3bb0 5A0F0000 		.4byte	.LASF420
 11683 3bb4 14       		.byte	0x14
 11684 3bb5 25       		.byte	0x25
 11685 3bb6 5B       		.uleb128 0x5b
 11686 3bb7 6D140000 		.4byte	.LASF421
 11687 3bbb 6D140000 		.4byte	.LASF421
 11688 3bbf 15       		.byte	0x15
 11689 3bc0 24       		.byte	0x24
 11690 3bc1 5B       		.uleb128 0x5b
 11691 3bc2 BF090000 		.4byte	.LASF422
 11692 3bc6 BF090000 		.4byte	.LASF422
 11693 3bca 16       		.byte	0x16
 11694 3bcb 1E       		.byte	0x1e
 11695 3bcc 5B       		.uleb128 0x5b
 11696 3bcd 47080000 		.4byte	.LASF423
 11697 3bd1 47080000 		.4byte	.LASF423
 11698 3bd5 17       		.byte	0x17
 11699 3bd6 44       		.byte	0x44
 11700 3bd7 5B       		.uleb128 0x5b
 11701 3bd8 87010000 		.4byte	.LASF424
 11702 3bdc 87010000 		.4byte	.LASF424
 11703 3be0 11       		.byte	0x11
 11704 3be1 67       		.byte	0x67
 11705 3be2 5A       		.uleb128 0x5a
 11706 3be3 25020000 		.4byte	.LASF425
ARM GAS  C:\Users\pearlstl\AppData\Local\Temp\ccHPSyCj.s 			page 238


 11707 3be7 25020000 		.4byte	.LASF425
 11708 3beb 0E       		.byte	0xe
 11709 3bec E302     		.2byte	0x2e3
 11710 3bee 5A       		.uleb128 0x5a
 11711 3bef A5150000 		.4byte	.LASF426
 11712 3bf3 A5150000 		.4byte	.LASF426
 11713 3bf7 0E       		.byte	0xe
 11714 3bf8 4801     		.2byte	0x148
 11715 3bfa 5B       		.uleb128 0x5b
 11716 3bfb 99070000 		.4byte	.LASF427
 11717 3bff 99070000 		.4byte	.LASF427
 11718 3c03 02       		.byte	0x2
 11719 3c04 99       		.byte	0x99
 11720 3c05 5B       		.uleb128 0x5b
 11721 3c06 E5070000 		.4byte	.LASF428
 11722 3c0a E5070000 		.4byte	.LASF428
 11723 3c0e 18       		.byte	0x18
 11724 3c0f 30       		.byte	0x30
 11725 3c10 5B       		.uleb128 0x5b
 11726 3c11 60040000 		.4byte	.LASF429
 11727 3c15 60040000 		.4byte	.LASF429
 11728 3c19 18       		.byte	0x18
 11729 3c1a 69       		.byte	0x69
 11730 3c1b 5A       		.uleb128 0x5a
 11731 3c1c 97030000 		.4byte	.LASF430
 11732 3c20 97030000 		.4byte	.LASF430
 11733 3c24 0E       		.byte	0xe
 11734 3c25 4602     		.2byte	0x246
 11735 3c27 5A       		.uleb128 0x5a
 11736 3c28 77120000 		.4byte	.LASF431
 11737 3c2c 77120000 		.4byte	.LASF431
 11738 3c30 0E       		.byte	0xe
 11739 3c31 E703     		.2byte	0x3e7
 11740 3c33 5A       		.uleb128 0x5a
 11741 3c34 780C0000 		.4byte	.LASF432
 11742 3c38 780C0000 		.4byte	.LASF432
 11743 3c3c 0E       		.byte	0xe
 11744 3c3d D001     		.2byte	0x1d0
 11745 3c3f 5A       		.uleb128 0x5a
 11746 3c40 4D150000 		.4byte	.LASF433
 11747 3c44 4D150000 		.4byte	.LASF433
 11748 3c48 0E       		.byte	0xe
 11749 3c49 CA01     		.2byte	0x1ca
 11750 3c4b 5A       		.uleb128 0x5a
 11751 3c4c 95150000 		.4byte	.LASF434
 11752 3c50 95150000 		.4byte	.LASF434
 11753 3c54 0E       		.byte	0xe
 11754 3c55 8501     		.2byte	0x185
 11755 3c57 5A       		.uleb128 0x5a
 11756 3c58 A4170000 		.4byte	.LASF435
 11757 3c5c A4170000 		.4byte	.LASF435
 11758 3c60 13       		.byte	0x13
 11759 3c61 6501     		.2byte	0x165
 11760 3c63 5A       		.uleb128 0x5a
 11761 3c64 EE060000 		.4byte	.LASF436
 11762 3c68 EE060000 		.4byte	.LASF436
 11763 3c6c 0E       		.byte	0xe
ARM GAS  C:\Users\pearlstl\AppData\Local\Temp\ccHPSyCj.s 			page 239


 11764 3c6d 2401     		.2byte	0x124
 11765 3c6f 5A       		.uleb128 0x5a
 11766 3c70 0D060000 		.4byte	.LASF437
 11767 3c74 0D060000 		.4byte	.LASF437
 11768 3c78 0E       		.byte	0xe
 11769 3c79 7A02     		.2byte	0x27a
 11770 3c7b 5A       		.uleb128 0x5a
 11771 3c7c BF010000 		.4byte	.LASF438
 11772 3c80 BF010000 		.4byte	.LASF438
 11773 3c84 0E       		.byte	0xe
 11774 3c85 6002     		.2byte	0x260
 11775 3c87 5A       		.uleb128 0x5a
 11776 3c88 D70A0000 		.4byte	.LASF439
 11777 3c8c D70A0000 		.4byte	.LASF439
 11778 3c90 0E       		.byte	0xe
 11779 3c91 6E02     		.2byte	0x26e
 11780 3c93 5A       		.uleb128 0x5a
 11781 3c94 E9110000 		.4byte	.LASF440
 11782 3c98 E9110000 		.4byte	.LASF440
 11783 3c9c 0E       		.byte	0xe
 11784 3c9d 9003     		.2byte	0x390
 11785 3c9f 5A       		.uleb128 0x5a
 11786 3ca0 D70F0000 		.4byte	.LASF441
 11787 3ca4 D70F0000 		.4byte	.LASF441
 11788 3ca8 0E       		.byte	0xe
 11789 3ca9 9703     		.2byte	0x397
 11790 3cab 00       		.byte	0
 11791              		.section	.debug_abbrev,"",%progbits
 11792              	.Ldebug_abbrev0:
 11793 0000 01       		.uleb128 0x1
 11794 0001 11       		.uleb128 0x11
 11795 0002 01       		.byte	0x1
 11796 0003 25       		.uleb128 0x25
 11797 0004 0E       		.uleb128 0xe
 11798 0005 13       		.uleb128 0x13
 11799 0006 0B       		.uleb128 0xb
 11800 0007 03       		.uleb128 0x3
 11801 0008 0E       		.uleb128 0xe
 11802 0009 1B       		.uleb128 0x1b
 11803 000a 0E       		.uleb128 0xe
 11804 000b 55       		.uleb128 0x55
 11805 000c 17       		.uleb128 0x17
 11806 000d 11       		.uleb128 0x11
 11807 000e 01       		.uleb128 0x1
 11808 000f 10       		.uleb128 0x10
 11809 0010 17       		.uleb128 0x17
 11810 0011 00       		.byte	0
 11811 0012 00       		.byte	0
 11812 0013 02       		.uleb128 0x2
 11813 0014 24       		.uleb128 0x24
 11814 0015 00       		.byte	0
 11815 0016 0B       		.uleb128 0xb
 11816 0017 0B       		.uleb128 0xb
 11817 0018 3E       		.uleb128 0x3e
 11818 0019 0B       		.uleb128 0xb
 11819 001a 03       		.uleb128 0x3
 11820 001b 0E       		.uleb128 0xe
ARM GAS  C:\Users\pearlstl\AppData\Local\Temp\ccHPSyCj.s 			page 240


 11821 001c 00       		.byte	0
 11822 001d 00       		.byte	0
 11823 001e 03       		.uleb128 0x3
 11824 001f 24       		.uleb128 0x24
 11825 0020 00       		.byte	0
 11826 0021 0B       		.uleb128 0xb
 11827 0022 0B       		.uleb128 0xb
 11828 0023 3E       		.uleb128 0x3e
 11829 0024 0B       		.uleb128 0xb
 11830 0025 03       		.uleb128 0x3
 11831 0026 08       		.uleb128 0x8
 11832 0027 00       		.byte	0
 11833 0028 00       		.byte	0
 11834 0029 04       		.uleb128 0x4
 11835 002a 16       		.uleb128 0x16
 11836 002b 00       		.byte	0
 11837 002c 03       		.uleb128 0x3
 11838 002d 0E       		.uleb128 0xe
 11839 002e 3A       		.uleb128 0x3a
 11840 002f 0B       		.uleb128 0xb
 11841 0030 3B       		.uleb128 0x3b
 11842 0031 0B       		.uleb128 0xb
 11843 0032 49       		.uleb128 0x49
 11844 0033 13       		.uleb128 0x13
 11845 0034 00       		.byte	0
 11846 0035 00       		.byte	0
 11847 0036 05       		.uleb128 0x5
 11848 0037 0F       		.uleb128 0xf
 11849 0038 00       		.byte	0
 11850 0039 0B       		.uleb128 0xb
 11851 003a 0B       		.uleb128 0xb
 11852 003b 00       		.byte	0
 11853 003c 00       		.byte	0
 11854 003d 06       		.uleb128 0x6
 11855 003e 13       		.uleb128 0x13
 11856 003f 01       		.byte	0x1
 11857 0040 0B       		.uleb128 0xb
 11858 0041 0B       		.uleb128 0xb
 11859 0042 3A       		.uleb128 0x3a
 11860 0043 0B       		.uleb128 0xb
 11861 0044 3B       		.uleb128 0x3b
 11862 0045 0B       		.uleb128 0xb
 11863 0046 01       		.uleb128 0x1
 11864 0047 13       		.uleb128 0x13
 11865 0048 00       		.byte	0
 11866 0049 00       		.byte	0
 11867 004a 07       		.uleb128 0x7
 11868 004b 0D       		.uleb128 0xd
 11869 004c 00       		.byte	0
 11870 004d 03       		.uleb128 0x3
 11871 004e 0E       		.uleb128 0xe
 11872 004f 3A       		.uleb128 0x3a
 11873 0050 0B       		.uleb128 0xb
 11874 0051 3B       		.uleb128 0x3b
 11875 0052 0B       		.uleb128 0xb
 11876 0053 49       		.uleb128 0x49
 11877 0054 13       		.uleb128 0x13
ARM GAS  C:\Users\pearlstl\AppData\Local\Temp\ccHPSyCj.s 			page 241


 11878 0055 38       		.uleb128 0x38
 11879 0056 0B       		.uleb128 0xb
 11880 0057 00       		.byte	0
 11881 0058 00       		.byte	0
 11882 0059 08       		.uleb128 0x8
 11883 005a 0D       		.uleb128 0xd
 11884 005b 00       		.byte	0
 11885 005c 03       		.uleb128 0x3
 11886 005d 08       		.uleb128 0x8
 11887 005e 3A       		.uleb128 0x3a
 11888 005f 0B       		.uleb128 0xb
 11889 0060 3B       		.uleb128 0x3b
 11890 0061 0B       		.uleb128 0xb
 11891 0062 49       		.uleb128 0x49
 11892 0063 13       		.uleb128 0x13
 11893 0064 38       		.uleb128 0x38
 11894 0065 0B       		.uleb128 0xb
 11895 0066 00       		.byte	0
 11896 0067 00       		.byte	0
 11897 0068 09       		.uleb128 0x9
 11898 0069 13       		.uleb128 0x13
 11899 006a 01       		.byte	0x1
 11900 006b 03       		.uleb128 0x3
 11901 006c 0E       		.uleb128 0xe
 11902 006d 0B       		.uleb128 0xb
 11903 006e 0B       		.uleb128 0xb
 11904 006f 3A       		.uleb128 0x3a
 11905 0070 0B       		.uleb128 0xb
 11906 0071 3B       		.uleb128 0x3b
 11907 0072 0B       		.uleb128 0xb
 11908 0073 01       		.uleb128 0x1
 11909 0074 13       		.uleb128 0x13
 11910 0075 00       		.byte	0
 11911 0076 00       		.byte	0
 11912 0077 0A       		.uleb128 0xa
 11913 0078 0D       		.uleb128 0xd
 11914 0079 00       		.byte	0
 11915 007a 03       		.uleb128 0x3
 11916 007b 0E       		.uleb128 0xe
 11917 007c 3A       		.uleb128 0x3a
 11918 007d 0B       		.uleb128 0xb
 11919 007e 3B       		.uleb128 0x3b
 11920 007f 0B       		.uleb128 0xb
 11921 0080 49       		.uleb128 0x49
 11922 0081 13       		.uleb128 0x13
 11923 0082 0B       		.uleb128 0xb
 11924 0083 0B       		.uleb128 0xb
 11925 0084 0D       		.uleb128 0xd
 11926 0085 0B       		.uleb128 0xb
 11927 0086 0C       		.uleb128 0xc
 11928 0087 0B       		.uleb128 0xb
 11929 0088 38       		.uleb128 0x38
 11930 0089 0B       		.uleb128 0xb
 11931 008a 00       		.byte	0
 11932 008b 00       		.byte	0
 11933 008c 0B       		.uleb128 0xb
 11934 008d 15       		.uleb128 0x15
ARM GAS  C:\Users\pearlstl\AppData\Local\Temp\ccHPSyCj.s 			page 242


 11935 008e 01       		.byte	0x1
 11936 008f 27       		.uleb128 0x27
 11937 0090 19       		.uleb128 0x19
 11938 0091 49       		.uleb128 0x49
 11939 0092 13       		.uleb128 0x13
 11940 0093 01       		.uleb128 0x1
 11941 0094 13       		.uleb128 0x13
 11942 0095 00       		.byte	0
 11943 0096 00       		.byte	0
 11944 0097 0C       		.uleb128 0xc
 11945 0098 05       		.uleb128 0x5
 11946 0099 00       		.byte	0
 11947 009a 49       		.uleb128 0x49
 11948 009b 13       		.uleb128 0x13
 11949 009c 00       		.byte	0
 11950 009d 00       		.byte	0
 11951 009e 0D       		.uleb128 0xd
 11952 009f 0F       		.uleb128 0xf
 11953 00a0 00       		.byte	0
 11954 00a1 0B       		.uleb128 0xb
 11955 00a2 0B       		.uleb128 0xb
 11956 00a3 49       		.uleb128 0x49
 11957 00a4 13       		.uleb128 0x13
 11958 00a5 00       		.byte	0
 11959 00a6 00       		.byte	0
 11960 00a7 0E       		.uleb128 0xe
 11961 00a8 26       		.uleb128 0x26
 11962 00a9 00       		.byte	0
 11963 00aa 49       		.uleb128 0x49
 11964 00ab 13       		.uleb128 0x13
 11965 00ac 00       		.byte	0
 11966 00ad 00       		.byte	0
 11967 00ae 0F       		.uleb128 0xf
 11968 00af 17       		.uleb128 0x17
 11969 00b0 01       		.byte	0x1
 11970 00b1 0B       		.uleb128 0xb
 11971 00b2 0B       		.uleb128 0xb
 11972 00b3 3A       		.uleb128 0x3a
 11973 00b4 0B       		.uleb128 0xb
 11974 00b5 3B       		.uleb128 0x3b
 11975 00b6 0B       		.uleb128 0xb
 11976 00b7 01       		.uleb128 0x1
 11977 00b8 13       		.uleb128 0x13
 11978 00b9 00       		.byte	0
 11979 00ba 00       		.byte	0
 11980 00bb 10       		.uleb128 0x10
 11981 00bc 0D       		.uleb128 0xd
 11982 00bd 00       		.byte	0
 11983 00be 03       		.uleb128 0x3
 11984 00bf 08       		.uleb128 0x8
 11985 00c0 3A       		.uleb128 0x3a
 11986 00c1 0B       		.uleb128 0xb
 11987 00c2 3B       		.uleb128 0x3b
 11988 00c3 0B       		.uleb128 0xb
 11989 00c4 49       		.uleb128 0x49
 11990 00c5 13       		.uleb128 0x13
 11991 00c6 00       		.byte	0
ARM GAS  C:\Users\pearlstl\AppData\Local\Temp\ccHPSyCj.s 			page 243


 11992 00c7 00       		.byte	0
 11993 00c8 11       		.uleb128 0x11
 11994 00c9 0D       		.uleb128 0xd
 11995 00ca 00       		.byte	0
 11996 00cb 03       		.uleb128 0x3
 11997 00cc 0E       		.uleb128 0xe
 11998 00cd 3A       		.uleb128 0x3a
 11999 00ce 0B       		.uleb128 0xb
 12000 00cf 3B       		.uleb128 0x3b
 12001 00d0 0B       		.uleb128 0xb
 12002 00d1 49       		.uleb128 0x49
 12003 00d2 13       		.uleb128 0x13
 12004 00d3 00       		.byte	0
 12005 00d4 00       		.byte	0
 12006 00d5 12       		.uleb128 0x12
 12007 00d6 16       		.uleb128 0x16
 12008 00d7 00       		.byte	0
 12009 00d8 03       		.uleb128 0x3
 12010 00d9 0E       		.uleb128 0xe
 12011 00da 3A       		.uleb128 0x3a
 12012 00db 0B       		.uleb128 0xb
 12013 00dc 3B       		.uleb128 0x3b
 12014 00dd 05       		.uleb128 0x5
 12015 00de 49       		.uleb128 0x49
 12016 00df 13       		.uleb128 0x13
 12017 00e0 00       		.byte	0
 12018 00e1 00       		.byte	0
 12019 00e2 13       		.uleb128 0x13
 12020 00e3 04       		.uleb128 0x4
 12021 00e4 01       		.byte	0x1
 12022 00e5 0B       		.uleb128 0xb
 12023 00e6 0B       		.uleb128 0xb
 12024 00e7 49       		.uleb128 0x49
 12025 00e8 13       		.uleb128 0x13
 12026 00e9 3A       		.uleb128 0x3a
 12027 00ea 0B       		.uleb128 0xb
 12028 00eb 3B       		.uleb128 0x3b
 12029 00ec 0B       		.uleb128 0xb
 12030 00ed 01       		.uleb128 0x1
 12031 00ee 13       		.uleb128 0x13
 12032 00ef 00       		.byte	0
 12033 00f0 00       		.byte	0
 12034 00f1 14       		.uleb128 0x14
 12035 00f2 28       		.uleb128 0x28
 12036 00f3 00       		.byte	0
 12037 00f4 03       		.uleb128 0x3
 12038 00f5 0E       		.uleb128 0xe
 12039 00f6 1C       		.uleb128 0x1c
 12040 00f7 0B       		.uleb128 0xb
 12041 00f8 00       		.byte	0
 12042 00f9 00       		.byte	0
 12043 00fa 15       		.uleb128 0x15
 12044 00fb 15       		.uleb128 0x15
 12045 00fc 01       		.byte	0x1
 12046 00fd 27       		.uleb128 0x27
 12047 00fe 19       		.uleb128 0x19
 12048 00ff 01       		.uleb128 0x1
ARM GAS  C:\Users\pearlstl\AppData\Local\Temp\ccHPSyCj.s 			page 244


 12049 0100 13       		.uleb128 0x13
 12050 0101 00       		.byte	0
 12051 0102 00       		.byte	0
 12052 0103 16       		.uleb128 0x16
 12053 0104 35       		.uleb128 0x35
 12054 0105 00       		.byte	0
 12055 0106 49       		.uleb128 0x49
 12056 0107 13       		.uleb128 0x13
 12057 0108 00       		.byte	0
 12058 0109 00       		.byte	0
 12059 010a 17       		.uleb128 0x17
 12060 010b 13       		.uleb128 0x13
 12061 010c 01       		.byte	0x1
 12062 010d 03       		.uleb128 0x3
 12063 010e 0E       		.uleb128 0xe
 12064 010f 0B       		.uleb128 0xb
 12065 0110 05       		.uleb128 0x5
 12066 0111 3A       		.uleb128 0x3a
 12067 0112 0B       		.uleb128 0xb
 12068 0113 3B       		.uleb128 0x3b
 12069 0114 0B       		.uleb128 0xb
 12070 0115 01       		.uleb128 0x1
 12071 0116 13       		.uleb128 0x13
 12072 0117 00       		.byte	0
 12073 0118 00       		.byte	0
 12074 0119 18       		.uleb128 0x18
 12075 011a 0D       		.uleb128 0xd
 12076 011b 00       		.byte	0
 12077 011c 03       		.uleb128 0x3
 12078 011d 0E       		.uleb128 0xe
 12079 011e 3A       		.uleb128 0x3a
 12080 011f 0B       		.uleb128 0xb
 12081 0120 3B       		.uleb128 0x3b
 12082 0121 0B       		.uleb128 0xb
 12083 0122 49       		.uleb128 0x49
 12084 0123 13       		.uleb128 0x13
 12085 0124 38       		.uleb128 0x38
 12086 0125 05       		.uleb128 0x5
 12087 0126 00       		.byte	0
 12088 0127 00       		.byte	0
 12089 0128 19       		.uleb128 0x19
 12090 0129 0D       		.uleb128 0xd
 12091 012a 00       		.byte	0
 12092 012b 03       		.uleb128 0x3
 12093 012c 0E       		.uleb128 0xe
 12094 012d 3A       		.uleb128 0x3a
 12095 012e 0B       		.uleb128 0xb
 12096 012f 3B       		.uleb128 0x3b
 12097 0130 0B       		.uleb128 0xb
 12098 0131 49       		.uleb128 0x49
 12099 0132 13       		.uleb128 0x13
 12100 0133 0B       		.uleb128 0xb
 12101 0134 0B       		.uleb128 0xb
 12102 0135 0D       		.uleb128 0xd
 12103 0136 0B       		.uleb128 0xb
 12104 0137 0C       		.uleb128 0xc
 12105 0138 0B       		.uleb128 0xb
ARM GAS  C:\Users\pearlstl\AppData\Local\Temp\ccHPSyCj.s 			page 245


 12106 0139 38       		.uleb128 0x38
 12107 013a 05       		.uleb128 0x5
 12108 013b 00       		.byte	0
 12109 013c 00       		.byte	0
 12110 013d 1A       		.uleb128 0x1a
 12111 013e 0D       		.uleb128 0xd
 12112 013f 00       		.byte	0
 12113 0140 03       		.uleb128 0x3
 12114 0141 08       		.uleb128 0x8
 12115 0142 3A       		.uleb128 0x3a
 12116 0143 0B       		.uleb128 0xb
 12117 0144 3B       		.uleb128 0x3b
 12118 0145 0B       		.uleb128 0xb
 12119 0146 49       		.uleb128 0x49
 12120 0147 13       		.uleb128 0x13
 12121 0148 0B       		.uleb128 0xb
 12122 0149 0B       		.uleb128 0xb
 12123 014a 0D       		.uleb128 0xd
 12124 014b 0B       		.uleb128 0xb
 12125 014c 0C       		.uleb128 0xc
 12126 014d 0B       		.uleb128 0xb
 12127 014e 38       		.uleb128 0x38
 12128 014f 0B       		.uleb128 0xb
 12129 0150 00       		.byte	0
 12130 0151 00       		.byte	0
 12131 0152 1B       		.uleb128 0x1b
 12132 0153 01       		.uleb128 0x1
 12133 0154 01       		.byte	0x1
 12134 0155 49       		.uleb128 0x49
 12135 0156 13       		.uleb128 0x13
 12136 0157 01       		.uleb128 0x1
 12137 0158 13       		.uleb128 0x13
 12138 0159 00       		.byte	0
 12139 015a 00       		.byte	0
 12140 015b 1C       		.uleb128 0x1c
 12141 015c 21       		.uleb128 0x21
 12142 015d 00       		.byte	0
 12143 015e 49       		.uleb128 0x49
 12144 015f 13       		.uleb128 0x13
 12145 0160 2F       		.uleb128 0x2f
 12146 0161 0B       		.uleb128 0xb
 12147 0162 00       		.byte	0
 12148 0163 00       		.byte	0
 12149 0164 1D       		.uleb128 0x1d
 12150 0165 13       		.uleb128 0x13
 12151 0166 00       		.byte	0
 12152 0167 03       		.uleb128 0x3
 12153 0168 0E       		.uleb128 0xe
 12154 0169 3C       		.uleb128 0x3c
 12155 016a 19       		.uleb128 0x19
 12156 016b 00       		.byte	0
 12157 016c 00       		.byte	0
 12158 016d 1E       		.uleb128 0x1e
 12159 016e 0D       		.uleb128 0xd
 12160 016f 00       		.byte	0
 12161 0170 03       		.uleb128 0x3
 12162 0171 08       		.uleb128 0x8
ARM GAS  C:\Users\pearlstl\AppData\Local\Temp\ccHPSyCj.s 			page 246


 12163 0172 3A       		.uleb128 0x3a
 12164 0173 0B       		.uleb128 0xb
 12165 0174 3B       		.uleb128 0x3b
 12166 0175 05       		.uleb128 0x5
 12167 0176 49       		.uleb128 0x49
 12168 0177 13       		.uleb128 0x13
 12169 0178 38       		.uleb128 0x38
 12170 0179 0B       		.uleb128 0xb
 12171 017a 00       		.byte	0
 12172 017b 00       		.byte	0
 12173 017c 1F       		.uleb128 0x1f
 12174 017d 0D       		.uleb128 0xd
 12175 017e 00       		.byte	0
 12176 017f 03       		.uleb128 0x3
 12177 0180 0E       		.uleb128 0xe
 12178 0181 3A       		.uleb128 0x3a
 12179 0182 0B       		.uleb128 0xb
 12180 0183 3B       		.uleb128 0x3b
 12181 0184 05       		.uleb128 0x5
 12182 0185 49       		.uleb128 0x49
 12183 0186 13       		.uleb128 0x13
 12184 0187 38       		.uleb128 0x38
 12185 0188 0B       		.uleb128 0xb
 12186 0189 00       		.byte	0
 12187 018a 00       		.byte	0
 12188 018b 20       		.uleb128 0x20
 12189 018c 13       		.uleb128 0x13
 12190 018d 01       		.byte	0x1
 12191 018e 0B       		.uleb128 0xb
 12192 018f 0B       		.uleb128 0xb
 12193 0190 3A       		.uleb128 0x3a
 12194 0191 0B       		.uleb128 0xb
 12195 0192 3B       		.uleb128 0x3b
 12196 0193 05       		.uleb128 0x5
 12197 0194 01       		.uleb128 0x1
 12198 0195 13       		.uleb128 0x13
 12199 0196 00       		.byte	0
 12200 0197 00       		.byte	0
 12201 0198 21       		.uleb128 0x21
 12202 0199 13       		.uleb128 0x13
 12203 019a 01       		.byte	0x1
 12204 019b 0B       		.uleb128 0xb
 12205 019c 05       		.uleb128 0x5
 12206 019d 3A       		.uleb128 0x3a
 12207 019e 0B       		.uleb128 0xb
 12208 019f 3B       		.uleb128 0x3b
 12209 01a0 0B       		.uleb128 0xb
 12210 01a1 01       		.uleb128 0x1
 12211 01a2 13       		.uleb128 0x13
 12212 01a3 00       		.byte	0
 12213 01a4 00       		.byte	0
 12214 01a5 22       		.uleb128 0x22
 12215 01a6 0D       		.uleb128 0xd
 12216 01a7 00       		.byte	0
 12217 01a8 03       		.uleb128 0x3
 12218 01a9 08       		.uleb128 0x8
 12219 01aa 3A       		.uleb128 0x3a
ARM GAS  C:\Users\pearlstl\AppData\Local\Temp\ccHPSyCj.s 			page 247


 12220 01ab 0B       		.uleb128 0xb
 12221 01ac 3B       		.uleb128 0x3b
 12222 01ad 0B       		.uleb128 0xb
 12223 01ae 49       		.uleb128 0x49
 12224 01af 13       		.uleb128 0x13
 12225 01b0 38       		.uleb128 0x38
 12226 01b1 05       		.uleb128 0x5
 12227 01b2 00       		.byte	0
 12228 01b3 00       		.byte	0
 12229 01b4 23       		.uleb128 0x23
 12230 01b5 0D       		.uleb128 0xd
 12231 01b6 00       		.byte	0
 12232 01b7 03       		.uleb128 0x3
 12233 01b8 0E       		.uleb128 0xe
 12234 01b9 3A       		.uleb128 0x3a
 12235 01ba 0B       		.uleb128 0xb
 12236 01bb 3B       		.uleb128 0x3b
 12237 01bc 05       		.uleb128 0x5
 12238 01bd 49       		.uleb128 0x49
 12239 01be 13       		.uleb128 0x13
 12240 01bf 38       		.uleb128 0x38
 12241 01c0 05       		.uleb128 0x5
 12242 01c1 00       		.byte	0
 12243 01c2 00       		.byte	0
 12244 01c3 24       		.uleb128 0x24
 12245 01c4 0D       		.uleb128 0xd
 12246 01c5 00       		.byte	0
 12247 01c6 03       		.uleb128 0x3
 12248 01c7 08       		.uleb128 0x8
 12249 01c8 3A       		.uleb128 0x3a
 12250 01c9 0B       		.uleb128 0xb
 12251 01ca 3B       		.uleb128 0x3b
 12252 01cb 05       		.uleb128 0x5
 12253 01cc 49       		.uleb128 0x49
 12254 01cd 13       		.uleb128 0x13
 12255 01ce 38       		.uleb128 0x38
 12256 01cf 05       		.uleb128 0x5
 12257 01d0 00       		.byte	0
 12258 01d1 00       		.byte	0
 12259 01d2 25       		.uleb128 0x25
 12260 01d3 2E       		.uleb128 0x2e
 12261 01d4 01       		.byte	0x1
 12262 01d5 03       		.uleb128 0x3
 12263 01d6 0E       		.uleb128 0xe
 12264 01d7 3A       		.uleb128 0x3a
 12265 01d8 0B       		.uleb128 0xb
 12266 01d9 3B       		.uleb128 0x3b
 12267 01da 0B       		.uleb128 0xb
 12268 01db 27       		.uleb128 0x27
 12269 01dc 19       		.uleb128 0x19
 12270 01dd 49       		.uleb128 0x49
 12271 01de 13       		.uleb128 0x13
 12272 01df 20       		.uleb128 0x20
 12273 01e0 0B       		.uleb128 0xb
 12274 01e1 01       		.uleb128 0x1
 12275 01e2 13       		.uleb128 0x13
 12276 01e3 00       		.byte	0
ARM GAS  C:\Users\pearlstl\AppData\Local\Temp\ccHPSyCj.s 			page 248


 12277 01e4 00       		.byte	0
 12278 01e5 26       		.uleb128 0x26
 12279 01e6 05       		.uleb128 0x5
 12280 01e7 00       		.byte	0
 12281 01e8 03       		.uleb128 0x3
 12282 01e9 0E       		.uleb128 0xe
 12283 01ea 3A       		.uleb128 0x3a
 12284 01eb 0B       		.uleb128 0xb
 12285 01ec 3B       		.uleb128 0x3b
 12286 01ed 0B       		.uleb128 0xb
 12287 01ee 49       		.uleb128 0x49
 12288 01ef 13       		.uleb128 0x13
 12289 01f0 00       		.byte	0
 12290 01f1 00       		.byte	0
 12291 01f2 27       		.uleb128 0x27
 12292 01f3 2E       		.uleb128 0x2e
 12293 01f4 01       		.byte	0x1
 12294 01f5 03       		.uleb128 0x3
 12295 01f6 0E       		.uleb128 0xe
 12296 01f7 3A       		.uleb128 0x3a
 12297 01f8 0B       		.uleb128 0xb
 12298 01f9 3B       		.uleb128 0x3b
 12299 01fa 05       		.uleb128 0x5
 12300 01fb 27       		.uleb128 0x27
 12301 01fc 19       		.uleb128 0x19
 12302 01fd 49       		.uleb128 0x49
 12303 01fe 13       		.uleb128 0x13
 12304 01ff 20       		.uleb128 0x20
 12305 0200 0B       		.uleb128 0xb
 12306 0201 01       		.uleb128 0x1
 12307 0202 13       		.uleb128 0x13
 12308 0203 00       		.byte	0
 12309 0204 00       		.byte	0
 12310 0205 28       		.uleb128 0x28
 12311 0206 05       		.uleb128 0x5
 12312 0207 00       		.byte	0
 12313 0208 03       		.uleb128 0x3
 12314 0209 0E       		.uleb128 0xe
 12315 020a 3A       		.uleb128 0x3a
 12316 020b 0B       		.uleb128 0xb
 12317 020c 3B       		.uleb128 0x3b
 12318 020d 05       		.uleb128 0x5
 12319 020e 49       		.uleb128 0x49
 12320 020f 13       		.uleb128 0x13
 12321 0210 00       		.byte	0
 12322 0211 00       		.byte	0
 12323 0212 29       		.uleb128 0x29
 12324 0213 34       		.uleb128 0x34
 12325 0214 00       		.byte	0
 12326 0215 03       		.uleb128 0x3
 12327 0216 08       		.uleb128 0x8
 12328 0217 3A       		.uleb128 0x3a
 12329 0218 0B       		.uleb128 0xb
 12330 0219 3B       		.uleb128 0x3b
 12331 021a 05       		.uleb128 0x5
 12332 021b 49       		.uleb128 0x49
 12333 021c 13       		.uleb128 0x13
ARM GAS  C:\Users\pearlstl\AppData\Local\Temp\ccHPSyCj.s 			page 249


 12334 021d 00       		.byte	0
 12335 021e 00       		.byte	0
 12336 021f 2A       		.uleb128 0x2a
 12337 0220 05       		.uleb128 0x5
 12338 0221 00       		.byte	0
 12339 0222 03       		.uleb128 0x3
 12340 0223 08       		.uleb128 0x8
 12341 0224 3A       		.uleb128 0x3a
 12342 0225 0B       		.uleb128 0xb
 12343 0226 3B       		.uleb128 0x3b
 12344 0227 05       		.uleb128 0x5
 12345 0228 49       		.uleb128 0x49
 12346 0229 13       		.uleb128 0x13
 12347 022a 00       		.byte	0
 12348 022b 00       		.byte	0
 12349 022c 2B       		.uleb128 0x2b
 12350 022d 2E       		.uleb128 0x2e
 12351 022e 01       		.byte	0x1
 12352 022f 3F       		.uleb128 0x3f
 12353 0230 19       		.uleb128 0x19
 12354 0231 03       		.uleb128 0x3
 12355 0232 0E       		.uleb128 0xe
 12356 0233 3A       		.uleb128 0x3a
 12357 0234 0B       		.uleb128 0xb
 12358 0235 3B       		.uleb128 0x3b
 12359 0236 05       		.uleb128 0x5
 12360 0237 27       		.uleb128 0x27
 12361 0238 19       		.uleb128 0x19
 12362 0239 20       		.uleb128 0x20
 12363 023a 0B       		.uleb128 0xb
 12364 023b 01       		.uleb128 0x1
 12365 023c 13       		.uleb128 0x13
 12366 023d 00       		.byte	0
 12367 023e 00       		.byte	0
 12368 023f 2C       		.uleb128 0x2c
 12369 0240 34       		.uleb128 0x34
 12370 0241 00       		.byte	0
 12371 0242 03       		.uleb128 0x3
 12372 0243 0E       		.uleb128 0xe
 12373 0244 3A       		.uleb128 0x3a
 12374 0245 0B       		.uleb128 0xb
 12375 0246 3B       		.uleb128 0x3b
 12376 0247 05       		.uleb128 0x5
 12377 0248 49       		.uleb128 0x49
 12378 0249 13       		.uleb128 0x13
 12379 024a 00       		.byte	0
 12380 024b 00       		.byte	0
 12381 024c 2D       		.uleb128 0x2d
 12382 024d 2E       		.uleb128 0x2e
 12383 024e 01       		.byte	0x1
 12384 024f 3F       		.uleb128 0x3f
 12385 0250 19       		.uleb128 0x19
 12386 0251 03       		.uleb128 0x3
 12387 0252 0E       		.uleb128 0xe
 12388 0253 3A       		.uleb128 0x3a
 12389 0254 0B       		.uleb128 0xb
 12390 0255 3B       		.uleb128 0x3b
ARM GAS  C:\Users\pearlstl\AppData\Local\Temp\ccHPSyCj.s 			page 250


 12391 0256 05       		.uleb128 0x5
 12392 0257 27       		.uleb128 0x27
 12393 0258 19       		.uleb128 0x19
 12394 0259 49       		.uleb128 0x49
 12395 025a 13       		.uleb128 0x13
 12396 025b 20       		.uleb128 0x20
 12397 025c 0B       		.uleb128 0xb
 12398 025d 01       		.uleb128 0x1
 12399 025e 13       		.uleb128 0x13
 12400 025f 00       		.byte	0
 12401 0260 00       		.byte	0
 12402 0261 2E       		.uleb128 0x2e
 12403 0262 2E       		.uleb128 0x2e
 12404 0263 01       		.byte	0x1
 12405 0264 03       		.uleb128 0x3
 12406 0265 0E       		.uleb128 0xe
 12407 0266 3A       		.uleb128 0x3a
 12408 0267 0B       		.uleb128 0xb
 12409 0268 3B       		.uleb128 0x3b
 12410 0269 0B       		.uleb128 0xb
 12411 026a 27       		.uleb128 0x27
 12412 026b 19       		.uleb128 0x19
 12413 026c 20       		.uleb128 0x20
 12414 026d 0B       		.uleb128 0xb
 12415 026e 01       		.uleb128 0x1
 12416 026f 13       		.uleb128 0x13
 12417 0270 00       		.byte	0
 12418 0271 00       		.byte	0
 12419 0272 2F       		.uleb128 0x2f
 12420 0273 05       		.uleb128 0x5
 12421 0274 00       		.byte	0
 12422 0275 03       		.uleb128 0x3
 12423 0276 08       		.uleb128 0x8
 12424 0277 3A       		.uleb128 0x3a
 12425 0278 0B       		.uleb128 0xb
 12426 0279 3B       		.uleb128 0x3b
 12427 027a 0B       		.uleb128 0xb
 12428 027b 49       		.uleb128 0x49
 12429 027c 13       		.uleb128 0x13
 12430 027d 00       		.byte	0
 12431 027e 00       		.byte	0
 12432 027f 30       		.uleb128 0x30
 12433 0280 0B       		.uleb128 0xb
 12434 0281 01       		.byte	0x1
 12435 0282 00       		.byte	0
 12436 0283 00       		.byte	0
 12437 0284 31       		.uleb128 0x31
 12438 0285 2E       		.uleb128 0x2e
 12439 0286 01       		.byte	0x1
 12440 0287 03       		.uleb128 0x3
 12441 0288 0E       		.uleb128 0xe
 12442 0289 3A       		.uleb128 0x3a
 12443 028a 0B       		.uleb128 0xb
 12444 028b 3B       		.uleb128 0x3b
 12445 028c 05       		.uleb128 0x5
 12446 028d 27       		.uleb128 0x27
 12447 028e 19       		.uleb128 0x19
ARM GAS  C:\Users\pearlstl\AppData\Local\Temp\ccHPSyCj.s 			page 251


 12448 028f 20       		.uleb128 0x20
 12449 0290 0B       		.uleb128 0xb
 12450 0291 01       		.uleb128 0x1
 12451 0292 13       		.uleb128 0x13
 12452 0293 00       		.byte	0
 12453 0294 00       		.byte	0
 12454 0295 32       		.uleb128 0x32
 12455 0296 0B       		.uleb128 0xb
 12456 0297 01       		.byte	0x1
 12457 0298 01       		.uleb128 0x1
 12458 0299 13       		.uleb128 0x13
 12459 029a 00       		.byte	0
 12460 029b 00       		.byte	0
 12461 029c 33       		.uleb128 0x33
 12462 029d 2E       		.uleb128 0x2e
 12463 029e 01       		.byte	0x1
 12464 029f 31       		.uleb128 0x31
 12465 02a0 13       		.uleb128 0x13
 12466 02a1 11       		.uleb128 0x11
 12467 02a2 01       		.uleb128 0x1
 12468 02a3 12       		.uleb128 0x12
 12469 02a4 06       		.uleb128 0x6
 12470 02a5 40       		.uleb128 0x40
 12471 02a6 18       		.uleb128 0x18
 12472 02a7 9642     		.uleb128 0x2116
 12473 02a9 19       		.uleb128 0x19
 12474 02aa 01       		.uleb128 0x1
 12475 02ab 13       		.uleb128 0x13
 12476 02ac 00       		.byte	0
 12477 02ad 00       		.byte	0
 12478 02ae 34       		.uleb128 0x34
 12479 02af 05       		.uleb128 0x5
 12480 02b0 00       		.byte	0
 12481 02b1 31       		.uleb128 0x31
 12482 02b2 13       		.uleb128 0x13
 12483 02b3 02       		.uleb128 0x2
 12484 02b4 17       		.uleb128 0x17
 12485 02b5 00       		.byte	0
 12486 02b6 00       		.byte	0
 12487 02b7 35       		.uleb128 0x35
 12488 02b8 0B       		.uleb128 0xb
 12489 02b9 01       		.byte	0x1
 12490 02ba 55       		.uleb128 0x55
 12491 02bb 17       		.uleb128 0x17
 12492 02bc 01       		.uleb128 0x1
 12493 02bd 13       		.uleb128 0x13
 12494 02be 00       		.byte	0
 12495 02bf 00       		.byte	0
 12496 02c0 36       		.uleb128 0x36
 12497 02c1 34       		.uleb128 0x34
 12498 02c2 00       		.byte	0
 12499 02c3 31       		.uleb128 0x31
 12500 02c4 13       		.uleb128 0x13
 12501 02c5 02       		.uleb128 0x2
 12502 02c6 17       		.uleb128 0x17
 12503 02c7 00       		.byte	0
 12504 02c8 00       		.byte	0
ARM GAS  C:\Users\pearlstl\AppData\Local\Temp\ccHPSyCj.s 			page 252


 12505 02c9 37       		.uleb128 0x37
 12506 02ca 1D       		.uleb128 0x1d
 12507 02cb 01       		.byte	0x1
 12508 02cc 31       		.uleb128 0x31
 12509 02cd 13       		.uleb128 0x13
 12510 02ce 52       		.uleb128 0x52
 12511 02cf 01       		.uleb128 0x1
 12512 02d0 55       		.uleb128 0x55
 12513 02d1 17       		.uleb128 0x17
 12514 02d2 58       		.uleb128 0x58
 12515 02d3 0B       		.uleb128 0xb
 12516 02d4 59       		.uleb128 0x59
 12517 02d5 05       		.uleb128 0x5
 12518 02d6 01       		.uleb128 0x1
 12519 02d7 13       		.uleb128 0x13
 12520 02d8 00       		.byte	0
 12521 02d9 00       		.byte	0
 12522 02da 38       		.uleb128 0x38
 12523 02db 0B       		.uleb128 0xb
 12524 02dc 01       		.byte	0x1
 12525 02dd 55       		.uleb128 0x55
 12526 02de 17       		.uleb128 0x17
 12527 02df 00       		.byte	0
 12528 02e0 00       		.byte	0
 12529 02e1 39       		.uleb128 0x39
 12530 02e2 34       		.uleb128 0x34
 12531 02e3 00       		.byte	0
 12532 02e4 31       		.uleb128 0x31
 12533 02e5 13       		.uleb128 0x13
 12534 02e6 00       		.byte	0
 12535 02e7 00       		.byte	0
 12536 02e8 3A       		.uleb128 0x3a
 12537 02e9 898201   		.uleb128 0x4109
 12538 02ec 01       		.byte	0x1
 12539 02ed 11       		.uleb128 0x11
 12540 02ee 01       		.uleb128 0x1
 12541 02ef 31       		.uleb128 0x31
 12542 02f0 13       		.uleb128 0x13
 12543 02f1 01       		.uleb128 0x1
 12544 02f2 13       		.uleb128 0x13
 12545 02f3 00       		.byte	0
 12546 02f4 00       		.byte	0
 12547 02f5 3B       		.uleb128 0x3b
 12548 02f6 8A8201   		.uleb128 0x410a
 12549 02f9 00       		.byte	0
 12550 02fa 02       		.uleb128 0x2
 12551 02fb 18       		.uleb128 0x18
 12552 02fc 9142     		.uleb128 0x2111
 12553 02fe 18       		.uleb128 0x18
 12554 02ff 00       		.byte	0
 12555 0300 00       		.byte	0
 12556 0301 3C       		.uleb128 0x3c
 12557 0302 898201   		.uleb128 0x4109
 12558 0305 01       		.byte	0x1
 12559 0306 11       		.uleb128 0x11
 12560 0307 01       		.uleb128 0x1
 12561 0308 31       		.uleb128 0x31
ARM GAS  C:\Users\pearlstl\AppData\Local\Temp\ccHPSyCj.s 			page 253


 12562 0309 13       		.uleb128 0x13
 12563 030a 00       		.byte	0
 12564 030b 00       		.byte	0
 12565 030c 3D       		.uleb128 0x3d
 12566 030d 34       		.uleb128 0x34
 12567 030e 00       		.byte	0
 12568 030f 31       		.uleb128 0x31
 12569 0310 13       		.uleb128 0x13
 12570 0311 02       		.uleb128 0x2
 12571 0312 18       		.uleb128 0x18
 12572 0313 00       		.byte	0
 12573 0314 00       		.byte	0
 12574 0315 3E       		.uleb128 0x3e
 12575 0316 1D       		.uleb128 0x1d
 12576 0317 01       		.byte	0x1
 12577 0318 31       		.uleb128 0x31
 12578 0319 13       		.uleb128 0x13
 12579 031a 11       		.uleb128 0x11
 12580 031b 01       		.uleb128 0x1
 12581 031c 12       		.uleb128 0x12
 12582 031d 06       		.uleb128 0x6
 12583 031e 58       		.uleb128 0x58
 12584 031f 0B       		.uleb128 0xb
 12585 0320 59       		.uleb128 0x59
 12586 0321 05       		.uleb128 0x5
 12587 0322 01       		.uleb128 0x1
 12588 0323 13       		.uleb128 0x13
 12589 0324 00       		.byte	0
 12590 0325 00       		.byte	0
 12591 0326 3F       		.uleb128 0x3f
 12592 0327 0B       		.uleb128 0xb
 12593 0328 01       		.byte	0x1
 12594 0329 11       		.uleb128 0x11
 12595 032a 01       		.uleb128 0x1
 12596 032b 12       		.uleb128 0x12
 12597 032c 06       		.uleb128 0x6
 12598 032d 00       		.byte	0
 12599 032e 00       		.byte	0
 12600 032f 40       		.uleb128 0x40
 12601 0330 05       		.uleb128 0x5
 12602 0331 00       		.byte	0
 12603 0332 31       		.uleb128 0x31
 12604 0333 13       		.uleb128 0x13
 12605 0334 00       		.byte	0
 12606 0335 00       		.byte	0
 12607 0336 41       		.uleb128 0x41
 12608 0337 1D       		.uleb128 0x1d
 12609 0338 01       		.byte	0x1
 12610 0339 31       		.uleb128 0x31
 12611 033a 13       		.uleb128 0x13
 12612 033b 52       		.uleb128 0x52
 12613 033c 01       		.uleb128 0x1
 12614 033d 55       		.uleb128 0x55
 12615 033e 17       		.uleb128 0x17
 12616 033f 58       		.uleb128 0x58
 12617 0340 0B       		.uleb128 0xb
 12618 0341 59       		.uleb128 0x59
ARM GAS  C:\Users\pearlstl\AppData\Local\Temp\ccHPSyCj.s 			page 254


 12619 0342 05       		.uleb128 0x5
 12620 0343 00       		.byte	0
 12621 0344 00       		.byte	0
 12622 0345 42       		.uleb128 0x42
 12623 0346 0B       		.uleb128 0xb
 12624 0347 01       		.byte	0x1
 12625 0348 11       		.uleb128 0x11
 12626 0349 01       		.uleb128 0x1
 12627 034a 12       		.uleb128 0x12
 12628 034b 06       		.uleb128 0x6
 12629 034c 01       		.uleb128 0x1
 12630 034d 13       		.uleb128 0x13
 12631 034e 00       		.byte	0
 12632 034f 00       		.byte	0
 12633 0350 43       		.uleb128 0x43
 12634 0351 898201   		.uleb128 0x4109
 12635 0354 00       		.byte	0
 12636 0355 11       		.uleb128 0x11
 12637 0356 01       		.uleb128 0x1
 12638 0357 31       		.uleb128 0x31
 12639 0358 13       		.uleb128 0x13
 12640 0359 00       		.byte	0
 12641 035a 00       		.byte	0
 12642 035b 44       		.uleb128 0x44
 12643 035c 2E       		.uleb128 0x2e
 12644 035d 01       		.byte	0x1
 12645 035e 03       		.uleb128 0x3
 12646 035f 0E       		.uleb128 0xe
 12647 0360 3A       		.uleb128 0x3a
 12648 0361 0B       		.uleb128 0xb
 12649 0362 3B       		.uleb128 0x3b
 12650 0363 05       		.uleb128 0x5
 12651 0364 27       		.uleb128 0x27
 12652 0365 19       		.uleb128 0x19
 12653 0366 49       		.uleb128 0x49
 12654 0367 13       		.uleb128 0x13
 12655 0368 11       		.uleb128 0x11
 12656 0369 01       		.uleb128 0x1
 12657 036a 12       		.uleb128 0x12
 12658 036b 06       		.uleb128 0x6
 12659 036c 40       		.uleb128 0x40
 12660 036d 18       		.uleb128 0x18
 12661 036e 9742     		.uleb128 0x2117
 12662 0370 19       		.uleb128 0x19
 12663 0371 01       		.uleb128 0x1
 12664 0372 13       		.uleb128 0x13
 12665 0373 00       		.byte	0
 12666 0374 00       		.byte	0
 12667 0375 45       		.uleb128 0x45
 12668 0376 05       		.uleb128 0x5
 12669 0377 00       		.byte	0
 12670 0378 03       		.uleb128 0x3
 12671 0379 0E       		.uleb128 0xe
 12672 037a 3A       		.uleb128 0x3a
 12673 037b 0B       		.uleb128 0xb
 12674 037c 3B       		.uleb128 0x3b
 12675 037d 05       		.uleb128 0x5
ARM GAS  C:\Users\pearlstl\AppData\Local\Temp\ccHPSyCj.s 			page 255


 12676 037e 49       		.uleb128 0x49
 12677 037f 13       		.uleb128 0x13
 12678 0380 02       		.uleb128 0x2
 12679 0381 17       		.uleb128 0x17
 12680 0382 00       		.byte	0
 12681 0383 00       		.byte	0
 12682 0384 46       		.uleb128 0x46
 12683 0385 34       		.uleb128 0x34
 12684 0386 00       		.byte	0
 12685 0387 03       		.uleb128 0x3
 12686 0388 08       		.uleb128 0x8
 12687 0389 3A       		.uleb128 0x3a
 12688 038a 0B       		.uleb128 0xb
 12689 038b 3B       		.uleb128 0x3b
 12690 038c 05       		.uleb128 0x5
 12691 038d 49       		.uleb128 0x49
 12692 038e 13       		.uleb128 0x13
 12693 038f 02       		.uleb128 0x2
 12694 0390 17       		.uleb128 0x17
 12695 0391 00       		.byte	0
 12696 0392 00       		.byte	0
 12697 0393 47       		.uleb128 0x47
 12698 0394 34       		.uleb128 0x34
 12699 0395 00       		.byte	0
 12700 0396 03       		.uleb128 0x3
 12701 0397 0E       		.uleb128 0xe
 12702 0398 3A       		.uleb128 0x3a
 12703 0399 0B       		.uleb128 0xb
 12704 039a 3B       		.uleb128 0x3b
 12705 039b 05       		.uleb128 0x5
 12706 039c 49       		.uleb128 0x49
 12707 039d 13       		.uleb128 0x13
 12708 039e 02       		.uleb128 0x2
 12709 039f 18       		.uleb128 0x18
 12710 03a0 00       		.byte	0
 12711 03a1 00       		.byte	0
 12712 03a2 48       		.uleb128 0x48
 12713 03a3 34       		.uleb128 0x34
 12714 03a4 00       		.byte	0
 12715 03a5 03       		.uleb128 0x3
 12716 03a6 0E       		.uleb128 0xe
 12717 03a7 3A       		.uleb128 0x3a
 12718 03a8 0B       		.uleb128 0xb
 12719 03a9 3B       		.uleb128 0x3b
 12720 03aa 05       		.uleb128 0x5
 12721 03ab 49       		.uleb128 0x49
 12722 03ac 13       		.uleb128 0x13
 12723 03ad 02       		.uleb128 0x2
 12724 03ae 17       		.uleb128 0x17
 12725 03af 00       		.byte	0
 12726 03b0 00       		.byte	0
 12727 03b1 49       		.uleb128 0x49
 12728 03b2 34       		.uleb128 0x34
 12729 03b3 00       		.byte	0
 12730 03b4 03       		.uleb128 0x3
 12731 03b5 08       		.uleb128 0x8
 12732 03b6 3A       		.uleb128 0x3a
ARM GAS  C:\Users\pearlstl\AppData\Local\Temp\ccHPSyCj.s 			page 256


 12733 03b7 0B       		.uleb128 0xb
 12734 03b8 3B       		.uleb128 0x3b
 12735 03b9 05       		.uleb128 0x5
 12736 03ba 49       		.uleb128 0x49
 12737 03bb 13       		.uleb128 0x13
 12738 03bc 02       		.uleb128 0x2
 12739 03bd 18       		.uleb128 0x18
 12740 03be 00       		.byte	0
 12741 03bf 00       		.byte	0
 12742 03c0 4A       		.uleb128 0x4a
 12743 03c1 898201   		.uleb128 0x4109
 12744 03c4 01       		.byte	0x1
 12745 03c5 11       		.uleb128 0x11
 12746 03c6 01       		.uleb128 0x1
 12747 03c7 01       		.uleb128 0x1
 12748 03c8 13       		.uleb128 0x13
 12749 03c9 00       		.byte	0
 12750 03ca 00       		.byte	0
 12751 03cb 4B       		.uleb128 0x4b
 12752 03cc 2E       		.uleb128 0x2e
 12753 03cd 01       		.byte	0x1
 12754 03ce 3F       		.uleb128 0x3f
 12755 03cf 19       		.uleb128 0x19
 12756 03d0 03       		.uleb128 0x3
 12757 03d1 0E       		.uleb128 0xe
 12758 03d2 3A       		.uleb128 0x3a
 12759 03d3 0B       		.uleb128 0xb
 12760 03d4 3B       		.uleb128 0x3b
 12761 03d5 0B       		.uleb128 0xb
 12762 03d6 27       		.uleb128 0x27
 12763 03d7 19       		.uleb128 0x19
 12764 03d8 49       		.uleb128 0x49
 12765 03d9 13       		.uleb128 0x13
 12766 03da 11       		.uleb128 0x11
 12767 03db 01       		.uleb128 0x1
 12768 03dc 12       		.uleb128 0x12
 12769 03dd 06       		.uleb128 0x6
 12770 03de 40       		.uleb128 0x40
 12771 03df 18       		.uleb128 0x18
 12772 03e0 9742     		.uleb128 0x2117
 12773 03e2 19       		.uleb128 0x19
 12774 03e3 01       		.uleb128 0x1
 12775 03e4 13       		.uleb128 0x13
 12776 03e5 00       		.byte	0
 12777 03e6 00       		.byte	0
 12778 03e7 4C       		.uleb128 0x4c
 12779 03e8 05       		.uleb128 0x5
 12780 03e9 00       		.byte	0
 12781 03ea 03       		.uleb128 0x3
 12782 03eb 08       		.uleb128 0x8
 12783 03ec 3A       		.uleb128 0x3a
 12784 03ed 0B       		.uleb128 0xb
 12785 03ee 3B       		.uleb128 0x3b
 12786 03ef 0B       		.uleb128 0xb
 12787 03f0 49       		.uleb128 0x49
 12788 03f1 13       		.uleb128 0x13
 12789 03f2 02       		.uleb128 0x2
ARM GAS  C:\Users\pearlstl\AppData\Local\Temp\ccHPSyCj.s 			page 257


 12790 03f3 17       		.uleb128 0x17
 12791 03f4 00       		.byte	0
 12792 03f5 00       		.byte	0
 12793 03f6 4D       		.uleb128 0x4d
 12794 03f7 05       		.uleb128 0x5
 12795 03f8 00       		.byte	0
 12796 03f9 03       		.uleb128 0x3
 12797 03fa 0E       		.uleb128 0xe
 12798 03fb 3A       		.uleb128 0x3a
 12799 03fc 0B       		.uleb128 0xb
 12800 03fd 3B       		.uleb128 0x3b
 12801 03fe 0B       		.uleb128 0xb
 12802 03ff 49       		.uleb128 0x49
 12803 0400 13       		.uleb128 0x13
 12804 0401 02       		.uleb128 0x2
 12805 0402 17       		.uleb128 0x17
 12806 0403 00       		.byte	0
 12807 0404 00       		.byte	0
 12808 0405 4E       		.uleb128 0x4e
 12809 0406 34       		.uleb128 0x34
 12810 0407 00       		.byte	0
 12811 0408 03       		.uleb128 0x3
 12812 0409 0E       		.uleb128 0xe
 12813 040a 3A       		.uleb128 0x3a
 12814 040b 0B       		.uleb128 0xb
 12815 040c 3B       		.uleb128 0x3b
 12816 040d 0B       		.uleb128 0xb
 12817 040e 49       		.uleb128 0x49
 12818 040f 13       		.uleb128 0x13
 12819 0410 02       		.uleb128 0x2
 12820 0411 17       		.uleb128 0x17
 12821 0412 00       		.byte	0
 12822 0413 00       		.byte	0
 12823 0414 4F       		.uleb128 0x4f
 12824 0415 34       		.uleb128 0x34
 12825 0416 00       		.byte	0
 12826 0417 03       		.uleb128 0x3
 12827 0418 08       		.uleb128 0x8
 12828 0419 3A       		.uleb128 0x3a
 12829 041a 0B       		.uleb128 0xb
 12830 041b 3B       		.uleb128 0x3b
 12831 041c 0B       		.uleb128 0xb
 12832 041d 49       		.uleb128 0x49
 12833 041e 13       		.uleb128 0x13
 12834 041f 02       		.uleb128 0x2
 12835 0420 17       		.uleb128 0x17
 12836 0421 00       		.byte	0
 12837 0422 00       		.byte	0
 12838 0423 50       		.uleb128 0x50
 12839 0424 1D       		.uleb128 0x1d
 12840 0425 01       		.byte	0x1
 12841 0426 31       		.uleb128 0x31
 12842 0427 13       		.uleb128 0x13
 12843 0428 11       		.uleb128 0x11
 12844 0429 01       		.uleb128 0x1
 12845 042a 12       		.uleb128 0x12
 12846 042b 06       		.uleb128 0x6
ARM GAS  C:\Users\pearlstl\AppData\Local\Temp\ccHPSyCj.s 			page 258


 12847 042c 58       		.uleb128 0x58
 12848 042d 0B       		.uleb128 0xb
 12849 042e 59       		.uleb128 0x59
 12850 042f 0B       		.uleb128 0xb
 12851 0430 01       		.uleb128 0x1
 12852 0431 13       		.uleb128 0x13
 12853 0432 00       		.byte	0
 12854 0433 00       		.byte	0
 12855 0434 51       		.uleb128 0x51
 12856 0435 1D       		.uleb128 0x1d
 12857 0436 01       		.byte	0x1
 12858 0437 31       		.uleb128 0x31
 12859 0438 13       		.uleb128 0x13
 12860 0439 52       		.uleb128 0x52
 12861 043a 01       		.uleb128 0x1
 12862 043b 55       		.uleb128 0x55
 12863 043c 17       		.uleb128 0x17
 12864 043d 58       		.uleb128 0x58
 12865 043e 0B       		.uleb128 0xb
 12866 043f 59       		.uleb128 0x59
 12867 0440 0B       		.uleb128 0xb
 12868 0441 01       		.uleb128 0x1
 12869 0442 13       		.uleb128 0x13
 12870 0443 00       		.byte	0
 12871 0444 00       		.byte	0
 12872 0445 52       		.uleb128 0x52
 12873 0446 2E       		.uleb128 0x2e
 12874 0447 01       		.byte	0x1
 12875 0448 3F       		.uleb128 0x3f
 12876 0449 19       		.uleb128 0x19
 12877 044a 03       		.uleb128 0x3
 12878 044b 0E       		.uleb128 0xe
 12879 044c 3A       		.uleb128 0x3a
 12880 044d 0B       		.uleb128 0xb
 12881 044e 3B       		.uleb128 0x3b
 12882 044f 0B       		.uleb128 0xb
 12883 0450 27       		.uleb128 0x27
 12884 0451 19       		.uleb128 0x19
 12885 0452 11       		.uleb128 0x11
 12886 0453 01       		.uleb128 0x1
 12887 0454 12       		.uleb128 0x12
 12888 0455 06       		.uleb128 0x6
 12889 0456 40       		.uleb128 0x40
 12890 0457 18       		.uleb128 0x18
 12891 0458 9742     		.uleb128 0x2117
 12892 045a 19       		.uleb128 0x19
 12893 045b 01       		.uleb128 0x1
 12894 045c 13       		.uleb128 0x13
 12895 045d 00       		.byte	0
 12896 045e 00       		.byte	0
 12897 045f 53       		.uleb128 0x53
 12898 0460 898201   		.uleb128 0x4109
 12899 0463 01       		.byte	0x1
 12900 0464 11       		.uleb128 0x11
 12901 0465 01       		.uleb128 0x1
 12902 0466 9542     		.uleb128 0x2115
 12903 0468 19       		.uleb128 0x19
ARM GAS  C:\Users\pearlstl\AppData\Local\Temp\ccHPSyCj.s 			page 259


 12904 0469 31       		.uleb128 0x31
 12905 046a 13       		.uleb128 0x13
 12906 046b 00       		.byte	0
 12907 046c 00       		.byte	0
 12908 046d 54       		.uleb128 0x54
 12909 046e 2E       		.uleb128 0x2e
 12910 046f 01       		.byte	0x1
 12911 0470 3F       		.uleb128 0x3f
 12912 0471 19       		.uleb128 0x19
 12913 0472 03       		.uleb128 0x3
 12914 0473 0E       		.uleb128 0xe
 12915 0474 3A       		.uleb128 0x3a
 12916 0475 0B       		.uleb128 0xb
 12917 0476 3B       		.uleb128 0x3b
 12918 0477 05       		.uleb128 0x5
 12919 0478 27       		.uleb128 0x27
 12920 0479 19       		.uleb128 0x19
 12921 047a 11       		.uleb128 0x11
 12922 047b 01       		.uleb128 0x1
 12923 047c 12       		.uleb128 0x12
 12924 047d 06       		.uleb128 0x6
 12925 047e 40       		.uleb128 0x40
 12926 047f 18       		.uleb128 0x18
 12927 0480 9742     		.uleb128 0x2117
 12928 0482 19       		.uleb128 0x19
 12929 0483 01       		.uleb128 0x1
 12930 0484 13       		.uleb128 0x13
 12931 0485 00       		.byte	0
 12932 0486 00       		.byte	0
 12933 0487 55       		.uleb128 0x55
 12934 0488 2E       		.uleb128 0x2e
 12935 0489 01       		.byte	0x1
 12936 048a 31       		.uleb128 0x31
 12937 048b 13       		.uleb128 0x13
 12938 048c 11       		.uleb128 0x11
 12939 048d 01       		.uleb128 0x1
 12940 048e 12       		.uleb128 0x12
 12941 048f 06       		.uleb128 0x6
 12942 0490 40       		.uleb128 0x40
 12943 0491 18       		.uleb128 0x18
 12944 0492 9742     		.uleb128 0x2117
 12945 0494 19       		.uleb128 0x19
 12946 0495 01       		.uleb128 0x1
 12947 0496 13       		.uleb128 0x13
 12948 0497 00       		.byte	0
 12949 0498 00       		.byte	0
 12950 0499 56       		.uleb128 0x56
 12951 049a 898201   		.uleb128 0x4109
 12952 049d 01       		.byte	0x1
 12953 049e 11       		.uleb128 0x11
 12954 049f 01       		.uleb128 0x1
 12955 04a0 9542     		.uleb128 0x2115
 12956 04a2 19       		.uleb128 0x19
 12957 04a3 31       		.uleb128 0x31
 12958 04a4 13       		.uleb128 0x13
 12959 04a5 01       		.uleb128 0x1
 12960 04a6 13       		.uleb128 0x13
ARM GAS  C:\Users\pearlstl\AppData\Local\Temp\ccHPSyCj.s 			page 260


 12961 04a7 00       		.byte	0
 12962 04a8 00       		.byte	0
 12963 04a9 57       		.uleb128 0x57
 12964 04aa 2E       		.uleb128 0x2e
 12965 04ab 01       		.byte	0x1
 12966 04ac 3F       		.uleb128 0x3f
 12967 04ad 19       		.uleb128 0x19
 12968 04ae 03       		.uleb128 0x3
 12969 04af 0E       		.uleb128 0xe
 12970 04b0 3A       		.uleb128 0x3a
 12971 04b1 0B       		.uleb128 0xb
 12972 04b2 3B       		.uleb128 0x3b
 12973 04b3 05       		.uleb128 0x5
 12974 04b4 27       		.uleb128 0x27
 12975 04b5 19       		.uleb128 0x19
 12976 04b6 49       		.uleb128 0x49
 12977 04b7 13       		.uleb128 0x13
 12978 04b8 11       		.uleb128 0x11
 12979 04b9 01       		.uleb128 0x1
 12980 04ba 12       		.uleb128 0x12
 12981 04bb 06       		.uleb128 0x6
 12982 04bc 40       		.uleb128 0x40
 12983 04bd 18       		.uleb128 0x18
 12984 04be 9742     		.uleb128 0x2117
 12985 04c0 19       		.uleb128 0x19
 12986 04c1 01       		.uleb128 0x1
 12987 04c2 13       		.uleb128 0x13
 12988 04c3 00       		.byte	0
 12989 04c4 00       		.byte	0
 12990 04c5 58       		.uleb128 0x58
 12991 04c6 34       		.uleb128 0x34
 12992 04c7 00       		.byte	0
 12993 04c8 03       		.uleb128 0x3
 12994 04c9 0E       		.uleb128 0xe
 12995 04ca 3A       		.uleb128 0x3a
 12996 04cb 0B       		.uleb128 0xb
 12997 04cc 3B       		.uleb128 0x3b
 12998 04cd 0B       		.uleb128 0xb
 12999 04ce 49       		.uleb128 0x49
 13000 04cf 13       		.uleb128 0x13
 13001 04d0 02       		.uleb128 0x2
 13002 04d1 18       		.uleb128 0x18
 13003 04d2 00       		.byte	0
 13004 04d3 00       		.byte	0
 13005 04d4 59       		.uleb128 0x59
 13006 04d5 34       		.uleb128 0x34
 13007 04d6 00       		.byte	0
 13008 04d7 03       		.uleb128 0x3
 13009 04d8 0E       		.uleb128 0xe
 13010 04d9 3A       		.uleb128 0x3a
 13011 04da 0B       		.uleb128 0xb
 13012 04db 3B       		.uleb128 0x3b
 13013 04dc 05       		.uleb128 0x5
 13014 04dd 49       		.uleb128 0x49
 13015 04de 13       		.uleb128 0x13
 13016 04df 3F       		.uleb128 0x3f
 13017 04e0 19       		.uleb128 0x19
ARM GAS  C:\Users\pearlstl\AppData\Local\Temp\ccHPSyCj.s 			page 261


 13018 04e1 3C       		.uleb128 0x3c
 13019 04e2 19       		.uleb128 0x19
 13020 04e3 00       		.byte	0
 13021 04e4 00       		.byte	0
 13022 04e5 5A       		.uleb128 0x5a
 13023 04e6 2E       		.uleb128 0x2e
 13024 04e7 00       		.byte	0
 13025 04e8 3F       		.uleb128 0x3f
 13026 04e9 19       		.uleb128 0x19
 13027 04ea 3C       		.uleb128 0x3c
 13028 04eb 19       		.uleb128 0x19
 13029 04ec 6E       		.uleb128 0x6e
 13030 04ed 0E       		.uleb128 0xe
 13031 04ee 03       		.uleb128 0x3
 13032 04ef 0E       		.uleb128 0xe
 13033 04f0 3A       		.uleb128 0x3a
 13034 04f1 0B       		.uleb128 0xb
 13035 04f2 3B       		.uleb128 0x3b
 13036 04f3 05       		.uleb128 0x5
 13037 04f4 00       		.byte	0
 13038 04f5 00       		.byte	0
 13039 04f6 5B       		.uleb128 0x5b
 13040 04f7 2E       		.uleb128 0x2e
 13041 04f8 00       		.byte	0
 13042 04f9 3F       		.uleb128 0x3f
 13043 04fa 19       		.uleb128 0x19
 13044 04fb 3C       		.uleb128 0x3c
 13045 04fc 19       		.uleb128 0x19
 13046 04fd 6E       		.uleb128 0x6e
 13047 04fe 0E       		.uleb128 0xe
 13048 04ff 03       		.uleb128 0x3
 13049 0500 0E       		.uleb128 0xe
 13050 0501 3A       		.uleb128 0x3a
 13051 0502 0B       		.uleb128 0xb
 13052 0503 3B       		.uleb128 0x3b
 13053 0504 0B       		.uleb128 0xb
 13054 0505 00       		.byte	0
 13055 0506 00       		.byte	0
 13056 0507 00       		.byte	0
 13057              		.section	.debug_loc,"",%progbits
 13058              	.Ldebug_loc0:
 13059              	.LLST0:
 13060 0000 00000000 		.4byte	.LVL0
 13061 0004 14000000 		.4byte	.LVL1
 13062 0008 0100     		.2byte	0x1
 13063 000a 50       		.byte	0x50
 13064 000b 14000000 		.4byte	.LVL1
 13065 000f 1C000000 		.4byte	.LVL2
 13066 0013 0400     		.2byte	0x4
 13067 0015 F3       		.byte	0xf3
 13068 0016 01       		.uleb128 0x1
 13069 0017 50       		.byte	0x50
 13070 0018 9F       		.byte	0x9f
 13071 0019 1C000000 		.4byte	.LVL2
 13072 001d 1F000000 		.4byte	.LVL3-1
 13073 0021 0100     		.2byte	0x1
 13074 0023 50       		.byte	0x50
ARM GAS  C:\Users\pearlstl\AppData\Local\Temp\ccHPSyCj.s 			page 262


 13075 0024 1F000000 		.4byte	.LVL3-1
 13076 0028 BA010000 		.4byte	.LVL46
 13077 002c 0300     		.2byte	0x3
 13078 002e 91       		.byte	0x91
 13079 002f C87E     		.sleb128 -184
 13080 0031 BA010000 		.4byte	.LVL46
 13081 0035 52080000 		.4byte	.LVL192
 13082 0039 0400     		.2byte	0x4
 13083 003b F3       		.byte	0xf3
 13084 003c 01       		.uleb128 0x1
 13085 003d 50       		.byte	0x50
 13086 003e 9F       		.byte	0x9f
 13087 003f 52080000 		.4byte	.LVL192
 13088 0043 57080000 		.4byte	.LVL193-1
 13089 0047 0100     		.2byte	0x1
 13090 0049 50       		.byte	0x50
 13091 004a 57080000 		.4byte	.LVL193-1
 13092 004e 62080000 		.4byte	.LVL195
 13093 0052 0300     		.2byte	0x3
 13094 0054 91       		.byte	0x91
 13095 0055 C87E     		.sleb128 -184
 13096 0057 62080000 		.4byte	.LVL195
 13097 005b B4080000 		.4byte	.LFE46
 13098 005f 0400     		.2byte	0x4
 13099 0061 F3       		.byte	0xf3
 13100 0062 01       		.uleb128 0x1
 13101 0063 50       		.byte	0x50
 13102 0064 9F       		.byte	0x9f
 13103 0065 00000000 		.4byte	0
 13104 0069 00000000 		.4byte	0
 13105              	.LLST1:
 13106 006d 00000000 		.4byte	.LVL0
 13107 0071 14000000 		.4byte	.LVL1
 13108 0075 0100     		.2byte	0x1
 13109 0077 51       		.byte	0x51
 13110 0078 14000000 		.4byte	.LVL1
 13111 007c 1C000000 		.4byte	.LVL2
 13112 0080 0300     		.2byte	0x3
 13113 0082 91       		.byte	0x91
 13114 0083 CC7E     		.sleb128 -180
 13115 0085 1C000000 		.4byte	.LVL2
 13116 0089 1F000000 		.4byte	.LVL3-1
 13117 008d 0100     		.2byte	0x1
 13118 008f 51       		.byte	0x51
 13119 0090 1F000000 		.4byte	.LVL3-1
 13120 0094 52080000 		.4byte	.LVL192
 13121 0098 0300     		.2byte	0x3
 13122 009a 91       		.byte	0x91
 13123 009b CC7E     		.sleb128 -180
 13124 009d 52080000 		.4byte	.LVL192
 13125 00a1 57080000 		.4byte	.LVL193-1
 13126 00a5 0100     		.2byte	0x1
 13127 00a7 51       		.byte	0x51
 13128 00a8 57080000 		.4byte	.LVL193-1
 13129 00ac B4080000 		.4byte	.LFE46
 13130 00b0 0300     		.2byte	0x3
 13131 00b2 91       		.byte	0x91
ARM GAS  C:\Users\pearlstl\AppData\Local\Temp\ccHPSyCj.s 			page 263


 13132 00b3 CC7E     		.sleb128 -180
 13133 00b5 00000000 		.4byte	0
 13134 00b9 00000000 		.4byte	0
 13135              	.LLST2:
 13136 00bd 00000000 		.4byte	.LVL0
 13137 00c1 14000000 		.4byte	.LVL1
 13138 00c5 0100     		.2byte	0x1
 13139 00c7 52       		.byte	0x52
 13140 00c8 14000000 		.4byte	.LVL1
 13141 00cc 1C000000 		.4byte	.LVL2
 13142 00d0 0400     		.2byte	0x4
 13143 00d2 F3       		.byte	0xf3
 13144 00d3 01       		.uleb128 0x1
 13145 00d4 52       		.byte	0x52
 13146 00d5 9F       		.byte	0x9f
 13147 00d6 1C000000 		.4byte	.LVL2
 13148 00da 1F000000 		.4byte	.LVL3-1
 13149 00de 0100     		.2byte	0x1
 13150 00e0 52       		.byte	0x52
 13151 00e1 1F000000 		.4byte	.LVL3-1
 13152 00e5 52080000 		.4byte	.LVL192
 13153 00e9 0400     		.2byte	0x4
 13154 00eb F3       		.byte	0xf3
 13155 00ec 01       		.uleb128 0x1
 13156 00ed 52       		.byte	0x52
 13157 00ee 9F       		.byte	0x9f
 13158 00ef 52080000 		.4byte	.LVL192
 13159 00f3 57080000 		.4byte	.LVL193-1
 13160 00f7 0100     		.2byte	0x1
 13161 00f9 52       		.byte	0x52
 13162 00fa 57080000 		.4byte	.LVL193-1
 13163 00fe B4080000 		.4byte	.LFE46
 13164 0102 0400     		.2byte	0x4
 13165 0104 F3       		.byte	0xf3
 13166 0105 01       		.uleb128 0x1
 13167 0106 52       		.byte	0x52
 13168 0107 9F       		.byte	0x9f
 13169 0108 00000000 		.4byte	0
 13170 010c 00000000 		.4byte	0
 13171              	.LLST3:
 13172 0110 24000000 		.4byte	.LVL4
 13173 0114 4A000000 		.4byte	.LVL9
 13174 0118 0100     		.2byte	0x1
 13175 011a 55       		.byte	0x55
 13176 011b 00000000 		.4byte	0
 13177 011f 00000000 		.4byte	0
 13178              	.LLST4:
 13179 0123 24000000 		.4byte	.LVL4
 13180 0127 30000000 		.4byte	.LVL6
 13181 012b 0200     		.2byte	0x2
 13182 012d 30       		.byte	0x30
 13183 012e 9F       		.byte	0x9f
 13184 012f 00000000 		.4byte	0
 13185 0133 00000000 		.4byte	0
 13186              	.LLST5:
 13187 0137 24000000 		.4byte	.LVL4
 13188 013b 30000000 		.4byte	.LVL6
ARM GAS  C:\Users\pearlstl\AppData\Local\Temp\ccHPSyCj.s 			page 264


 13189 013f 0100     		.2byte	0x1
 13190 0141 56       		.byte	0x56
 13191 0142 00000000 		.4byte	0
 13192 0146 00000000 		.4byte	0
 13193              	.LLST7:
 13194 014a 42000000 		.4byte	.LVL7
 13195 014e D6000000 		.4byte	.LVL28
 13196 0152 0100     		.2byte	0x1
 13197 0154 5A       		.byte	0x5a
 13198 0155 D6000000 		.4byte	.LVL28
 13199 0159 7E010000 		.4byte	.LVL36
 13200 015d 0300     		.2byte	0x3
 13201 015f 91       		.byte	0x91
 13202 0160 CC7E     		.sleb128 -180
 13203 0162 5E080000 		.4byte	.LVL194
 13204 0166 62080000 		.4byte	.LVL195
 13205 016a 0100     		.2byte	0x1
 13206 016c 5A       		.byte	0x5a
 13207 016d 00000000 		.4byte	0
 13208 0171 00000000 		.4byte	0
 13209              	.LLST8:
 13210 0175 42000000 		.4byte	.LVL7
 13211 0179 7C000000 		.4byte	.LVL18
 13212 017d 0100     		.2byte	0x1
 13213 017f 56       		.byte	0x56
 13214 0180 7C000000 		.4byte	.LVL18
 13215 0184 7E010000 		.4byte	.LVL36
 13216 0188 0300     		.2byte	0x3
 13217 018a 91       		.byte	0x91
 13218 018b C87E     		.sleb128 -184
 13219 018d 5E080000 		.4byte	.LVL194
 13220 0191 62080000 		.4byte	.LVL195
 13221 0195 0300     		.2byte	0x3
 13222 0197 91       		.byte	0x91
 13223 0198 C87E     		.sleb128 -184
 13224 019a 00000000 		.4byte	0
 13225 019e 00000000 		.4byte	0
 13226              	.LLST9:
 13227 01a2 4A000000 		.4byte	.LVL9
 13228 01a6 4C000000 		.4byte	.LVL10
 13229 01aa 0100     		.2byte	0x1
 13230 01ac 50       		.byte	0x50
 13231 01ad 4C000000 		.4byte	.LVL10
 13232 01b1 42010000 		.4byte	.LVL33
 13233 01b5 0100     		.2byte	0x1
 13234 01b7 55       		.byte	0x55
 13235 01b8 5E080000 		.4byte	.LVL194
 13236 01bc 62080000 		.4byte	.LVL195
 13237 01c0 0100     		.2byte	0x1
 13238 01c2 55       		.byte	0x55
 13239 01c3 00000000 		.4byte	0
 13240 01c7 00000000 		.4byte	0
 13241              	.LLST10:
 13242 01cb 52000000 		.4byte	.LVL12
 13243 01cf 7E010000 		.4byte	.LVL36
 13244 01d3 0100     		.2byte	0x1
 13245 01d5 58       		.byte	0x58
ARM GAS  C:\Users\pearlstl\AppData\Local\Temp\ccHPSyCj.s 			page 265


 13246 01d6 5E080000 		.4byte	.LVL194
 13247 01da 62080000 		.4byte	.LVL195
 13248 01de 0100     		.2byte	0x1
 13249 01e0 58       		.byte	0x58
 13250 01e1 00000000 		.4byte	0
 13251 01e5 00000000 		.4byte	0
 13252              	.LLST11:
 13253 01e9 66000000 		.4byte	.LVL14
 13254 01ed 7E010000 		.4byte	.LVL36
 13255 01f1 0100     		.2byte	0x1
 13256 01f3 57       		.byte	0x57
 13257 01f4 5E080000 		.4byte	.LVL194
 13258 01f8 62080000 		.4byte	.LVL195
 13259 01fc 0100     		.2byte	0x1
 13260 01fe 57       		.byte	0x57
 13261 01ff 00000000 		.4byte	0
 13262 0203 00000000 		.4byte	0
 13263              	.LLST12:
 13264 0207 0A010000 		.4byte	.LVL30
 13265 020b 1A010000 		.4byte	.LVL31
 13266 020f 0E00     		.2byte	0xe
 13267 0211 72       		.byte	0x72
 13268 0212 00       		.sleb128 0
 13269 0213 71       		.byte	0x71
 13270 0214 00       		.sleb128 0
 13271 0215 7E       		.byte	0x7e
 13272 0216 00       		.sleb128 0
 13273 0217 30       		.byte	0x30
 13274 0218 2D       		.byte	0x2d
 13275 0219 28       		.byte	0x28
 13276 021a 0100     		.2byte	0x1
 13277 021c 16       		.byte	0x16
 13278 021d 13       		.byte	0x13
 13279 021e 9F       		.byte	0x9f
 13280 021f 1A010000 		.4byte	.LVL31
 13281 0223 33010000 		.4byte	.LVL32-1
 13282 0227 0100     		.2byte	0x1
 13283 0229 52       		.byte	0x52
 13284 022a 48010000 		.4byte	.LVL34
 13285 022e 7E010000 		.4byte	.LVL36
 13286 0232 0100     		.2byte	0x1
 13287 0234 56       		.byte	0x56
 13288 0235 00000000 		.4byte	0
 13289 0239 00000000 		.4byte	0
 13290              	.LLST13:
 13291 023d 70000000 		.4byte	.LVL15
 13292 0241 76000000 		.4byte	.LVL17
 13293 0245 0300     		.2byte	0x3
 13294 0247 91       		.byte	0x91
 13295 0248 C87E     		.sleb128 -184
 13296 024a 00000000 		.4byte	0
 13297 024e 00000000 		.4byte	0
 13298              	.LLST14:
 13299 0252 74000000 		.4byte	.LVL16
 13300 0256 76000000 		.4byte	.LVL17
 13301 025a 0100     		.2byte	0x1
 13302 025c 50       		.byte	0x50
ARM GAS  C:\Users\pearlstl\AppData\Local\Temp\ccHPSyCj.s 			page 266


 13303 025d 00000000 		.4byte	0
 13304 0261 00000000 		.4byte	0
 13305              	.LLST15:
 13306 0265 AA000000 		.4byte	.LVL22
 13307 0269 AE000000 		.4byte	.LVL23
 13308 026d 0300     		.2byte	0x3
 13309 026f 73       		.byte	0x73
 13310 0270 7F       		.sleb128 -1
 13311 0271 9F       		.byte	0x9f
 13312 0272 AE000000 		.4byte	.LVL23
 13313 0276 C0000000 		.4byte	.LVL26
 13314 027a 0100     		.2byte	0x1
 13315 027c 54       		.byte	0x54
 13316 027d 5E080000 		.4byte	.LVL194
 13317 0281 62080000 		.4byte	.LVL195
 13318 0285 0100     		.2byte	0x1
 13319 0287 54       		.byte	0x54
 13320 0288 00000000 		.4byte	0
 13321 028c 00000000 		.4byte	0
 13322              	.LLST16:
 13323 0290 AA000000 		.4byte	.LVL22
 13324 0294 C0000000 		.4byte	.LVL26
 13325 0298 0300     		.2byte	0x3
 13326 029a 91       		.byte	0x91
 13327 029b C87E     		.sleb128 -184
 13328 029d 5E080000 		.4byte	.LVL194
 13329 02a1 62080000 		.4byte	.LVL195
 13330 02a5 0300     		.2byte	0x3
 13331 02a7 91       		.byte	0x91
 13332 02a8 C87E     		.sleb128 -184
 13333 02aa 00000000 		.4byte	0
 13334 02ae 00000000 		.4byte	0
 13335              	.LLST17:
 13336 02b2 B8000000 		.4byte	.LVL25
 13337 02b6 C0000000 		.4byte	.LVL26
 13338 02ba 0100     		.2byte	0x1
 13339 02bc 50       		.byte	0x50
 13340 02bd 5E080000 		.4byte	.LVL194
 13341 02c1 62080000 		.4byte	.LVL195
 13342 02c5 0100     		.2byte	0x1
 13343 02c7 50       		.byte	0x50
 13344 02c8 00000000 		.4byte	0
 13345 02cc 00000000 		.4byte	0
 13346              	.LLST18:
 13347 02d0 7E010000 		.4byte	.LVL36
 13348 02d4 94020000 		.4byte	.LVL59
 13349 02d8 0300     		.2byte	0x3
 13350 02da 91       		.byte	0x91
 13351 02db CC7E     		.sleb128 -180
 13352 02dd 00000000 		.4byte	0
 13353 02e1 00000000 		.4byte	0
 13354              	.LLST19:
 13355 02e5 7E010000 		.4byte	.LVL36
 13356 02e9 BA010000 		.4byte	.LVL46
 13357 02ed 0300     		.2byte	0x3
 13358 02ef 91       		.byte	0x91
 13359 02f0 C87E     		.sleb128 -184
ARM GAS  C:\Users\pearlstl\AppData\Local\Temp\ccHPSyCj.s 			page 267


 13360 02f2 BA010000 		.4byte	.LVL46
 13361 02f6 BD010000 		.4byte	.LVL47-1
 13362 02fa 0100     		.2byte	0x1
 13363 02fc 50       		.byte	0x50
 13364 02fd BD010000 		.4byte	.LVL47-1
 13365 0301 94020000 		.4byte	.LVL59
 13366 0305 0300     		.2byte	0x3
 13367 0307 91       		.byte	0x91
 13368 0308 C87E     		.sleb128 -184
 13369 030a 00000000 		.4byte	0
 13370 030e 00000000 		.4byte	0
 13371              	.LLST20:
 13372 0312 88010000 		.4byte	.LVL38
 13373 0316 8A010000 		.4byte	.LVL39
 13374 031a 0100     		.2byte	0x1
 13375 031c 50       		.byte	0x50
 13376 031d 8A010000 		.4byte	.LVL39
 13377 0321 0E020000 		.4byte	.LVL50
 13378 0325 0100     		.2byte	0x1
 13379 0327 5A       		.byte	0x5a
 13380 0328 0E020000 		.4byte	.LVL50
 13381 032c 94020000 		.4byte	.LVL59
 13382 0330 0300     		.2byte	0x3
 13383 0332 91       		.byte	0x91
 13384 0333 D87E     		.sleb128 -168
 13385 0335 00000000 		.4byte	0
 13386 0339 00000000 		.4byte	0
 13387              	.LLST21:
 13388 033d 90010000 		.4byte	.LVL41
 13389 0341 94020000 		.4byte	.LVL59
 13390 0345 0300     		.2byte	0x3
 13391 0347 91       		.byte	0x91
 13392 0348 D07E     		.sleb128 -176
 13393 034a 00000000 		.4byte	0
 13394 034e 00000000 		.4byte	0
 13395              	.LLST22:
 13396 0352 9C010000 		.4byte	.LVL43
 13397 0356 94020000 		.4byte	.LVL59
 13398 035a 0300     		.2byte	0x3
 13399 035c 91       		.byte	0x91
 13400 035d D47E     		.sleb128 -172
 13401 035f 00000000 		.4byte	0
 13402 0363 00000000 		.4byte	0
 13403              	.LLST23:
 13404 0367 A2010000 		.4byte	.LVL44
 13405 036b 14020000 		.4byte	.LVL52
 13406 036f 0100     		.2byte	0x1
 13407 0371 59       		.byte	0x59
 13408 0372 14020000 		.4byte	.LVL52
 13409 0376 94020000 		.4byte	.LVL59
 13410 037a 0100     		.2byte	0x1
 13411 037c 5A       		.byte	0x5a
 13412 037d 00000000 		.4byte	0
 13413 0381 00000000 		.4byte	0
 13414              	.LLST24:
 13415 0385 E4010000 		.4byte	.LVL48
 13416 0389 1C020000 		.4byte	.LVL53
ARM GAS  C:\Users\pearlstl\AppData\Local\Temp\ccHPSyCj.s 			page 268


 13417 038d 0100     		.2byte	0x1
 13418 038f 57       		.byte	0x57
 13419 0390 1C020000 		.4byte	.LVL53
 13420 0394 94020000 		.4byte	.LVL59
 13421 0398 0100     		.2byte	0x1
 13422 039a 58       		.byte	0x58
 13423 039b 00000000 		.4byte	0
 13424 039f 00000000 		.4byte	0
 13425              	.LLST25:
 13426 03a3 E4010000 		.4byte	.LVL48
 13427 03a7 1C020000 		.4byte	.LVL53
 13428 03ab 0500     		.2byte	0x5
 13429 03ad 77       		.byte	0x77
 13430 03ae 00       		.sleb128 0
 13431 03af 37       		.byte	0x37
 13432 03b0 1B       		.byte	0x1b
 13433 03b1 9F       		.byte	0x9f
 13434 03b2 1C020000 		.4byte	.LVL53
 13435 03b6 94020000 		.4byte	.LVL59
 13436 03ba 0500     		.2byte	0x5
 13437 03bc 78       		.byte	0x78
 13438 03bd 00       		.sleb128 0
 13439 03be 37       		.byte	0x37
 13440 03bf 1B       		.byte	0x1b
 13441 03c0 9F       		.byte	0x9f
 13442 03c1 00000000 		.4byte	0
 13443 03c5 00000000 		.4byte	0
 13444              	.LLST26:
 13445 03c9 12020000 		.4byte	.LVL51
 13446 03cd 1E020000 		.4byte	.LVL54
 13447 03d1 0200     		.2byte	0x2
 13448 03d3 30       		.byte	0x30
 13449 03d4 9F       		.byte	0x9f
 13450 03d5 00000000 		.4byte	0
 13451 03d9 00000000 		.4byte	0
 13452              	.LLST27:
 13453 03dd 1E020000 		.4byte	.LVL54
 13454 03e1 20020000 		.4byte	.LVL55
 13455 03e5 0100     		.2byte	0x1
 13456 03e7 57       		.byte	0x57
 13457 03e8 70020000 		.4byte	.LVL57
 13458 03ec 73020000 		.4byte	.LVL58-1
 13459 03f0 0100     		.2byte	0x1
 13460 03f2 50       		.byte	0x50
 13461 03f3 73020000 		.4byte	.LVL58-1
 13462 03f7 94020000 		.4byte	.LVL59
 13463 03fb 0100     		.2byte	0x1
 13464 03fd 57       		.byte	0x57
 13465 03fe 00000000 		.4byte	0
 13466 0402 00000000 		.4byte	0
 13467              	.LLST28:
 13468 0406 1E020000 		.4byte	.LVL54
 13469 040a 20020000 		.4byte	.LVL55
 13470 040e 0100     		.2byte	0x1
 13471 0410 50       		.byte	0x50
 13472 0411 74020000 		.4byte	.LVL58
 13473 0415 94020000 		.4byte	.LVL59
ARM GAS  C:\Users\pearlstl\AppData\Local\Temp\ccHPSyCj.s 			page 269


 13474 0419 0100     		.2byte	0x1
 13475 041b 50       		.byte	0x50
 13476 041c 00000000 		.4byte	0
 13477 0420 00000000 		.4byte	0
 13478              	.LLST29:
 13479 0424 94020000 		.4byte	.LVL59
 13480 0428 52080000 		.4byte	.LVL192
 13481 042c 0300     		.2byte	0x3
 13482 042e 91       		.byte	0x91
 13483 042f CC7E     		.sleb128 -180
 13484 0431 62080000 		.4byte	.LVL195
 13485 0435 B4080000 		.4byte	.LFE46
 13486 0439 0300     		.2byte	0x3
 13487 043b 91       		.byte	0x91
 13488 043c CC7E     		.sleb128 -180
 13489 043e 00000000 		.4byte	0
 13490 0442 00000000 		.4byte	0
 13491              	.LLST30:
 13492 0446 94020000 		.4byte	.LVL59
 13493 044a C2020000 		.4byte	.LVL69
 13494 044e 0300     		.2byte	0x3
 13495 0450 91       		.byte	0x91
 13496 0451 C87E     		.sleb128 -184
 13497 0453 C2020000 		.4byte	.LVL69
 13498 0457 C7020000 		.4byte	.LVL71-1
 13499 045b 0100     		.2byte	0x1
 13500 045d 50       		.byte	0x50
 13501 045e C7020000 		.4byte	.LVL71-1
 13502 0462 1C030000 		.4byte	.LVL79
 13503 0466 0100     		.2byte	0x1
 13504 0468 5A       		.byte	0x5a
 13505 0469 1C030000 		.4byte	.LVL79
 13506 046d 2E030000 		.4byte	.LVL80
 13507 0471 0100     		.2byte	0x1
 13508 0473 54       		.byte	0x54
 13509 0474 2E030000 		.4byte	.LVL80
 13510 0478 52080000 		.4byte	.LVL192
 13511 047c 0300     		.2byte	0x3
 13512 047e 91       		.byte	0x91
 13513 047f C87E     		.sleb128 -184
 13514 0481 62080000 		.4byte	.LVL195
 13515 0485 B4080000 		.4byte	.LFE46
 13516 0489 0300     		.2byte	0x3
 13517 048b 91       		.byte	0x91
 13518 048c C87E     		.sleb128 -184
 13519 048e 00000000 		.4byte	0
 13520 0492 00000000 		.4byte	0
 13521              	.LLST31:
 13522 0496 9E020000 		.4byte	.LVL61
 13523 049a A0020000 		.4byte	.LVL62
 13524 049e 0100     		.2byte	0x1
 13525 04a0 50       		.byte	0x50
 13526 04a1 A0020000 		.4byte	.LVL62
 13527 04a5 52080000 		.4byte	.LVL192
 13528 04a9 0100     		.2byte	0x1
 13529 04ab 58       		.byte	0x58
 13530 04ac 62080000 		.4byte	.LVL195
ARM GAS  C:\Users\pearlstl\AppData\Local\Temp\ccHPSyCj.s 			page 270


 13531 04b0 B4080000 		.4byte	.LFE46
 13532 04b4 0100     		.2byte	0x1
 13533 04b6 58       		.byte	0x58
 13534 04b7 00000000 		.4byte	0
 13535 04bb 00000000 		.4byte	0
 13536              	.LLST32:
 13537 04bf A6020000 		.4byte	.LVL64
 13538 04c3 52080000 		.4byte	.LVL192
 13539 04c7 0300     		.2byte	0x3
 13540 04c9 91       		.byte	0x91
 13541 04ca E07E     		.sleb128 -160
 13542 04cc 62080000 		.4byte	.LVL195
 13543 04d0 B4080000 		.4byte	.LFE46
 13544 04d4 0300     		.2byte	0x3
 13545 04d6 91       		.byte	0x91
 13546 04d7 E07E     		.sleb128 -160
 13547 04d9 00000000 		.4byte	0
 13548 04dd 00000000 		.4byte	0
 13549              	.LLST33:
 13550 04e1 BC020000 		.4byte	.LVL68
 13551 04e5 52080000 		.4byte	.LVL192
 13552 04e9 0300     		.2byte	0x3
 13553 04eb 91       		.byte	0x91
 13554 04ec DC7E     		.sleb128 -164
 13555 04ee 62080000 		.4byte	.LVL195
 13556 04f2 B4080000 		.4byte	.LFE46
 13557 04f6 0300     		.2byte	0x3
 13558 04f8 91       		.byte	0x91
 13559 04f9 DC7E     		.sleb128 -164
 13560 04fb 00000000 		.4byte	0
 13561 04ff 00000000 		.4byte	0
 13562              	.LLST34:
 13563 0503 82030000 		.4byte	.LVL81
 13564 0507 42040000 		.4byte	.LVL100
 13565 050b 0100     		.2byte	0x1
 13566 050d 57       		.byte	0x57
 13567 050e 42040000 		.4byte	.LVL100
 13568 0512 72050000 		.4byte	.LVL122
 13569 0516 0300     		.2byte	0x3
 13570 0518 91       		.byte	0x91
 13571 0519 E47E     		.sleb128 -156
 13572 051b 72050000 		.4byte	.LVL122
 13573 051f 7C050000 		.4byte	.LVL123
 13574 0523 0100     		.2byte	0x1
 13575 0525 57       		.byte	0x57
 13576 0526 7C050000 		.4byte	.LVL123
 13577 052a 52080000 		.4byte	.LVL192
 13578 052e 0300     		.2byte	0x3
 13579 0530 91       		.byte	0x91
 13580 0531 E47E     		.sleb128 -156
 13581 0533 62080000 		.4byte	.LVL195
 13582 0537 B4080000 		.4byte	.LFE46
 13583 053b 0100     		.2byte	0x1
 13584 053d 57       		.byte	0x57
 13585 053e 00000000 		.4byte	0
 13586 0542 00000000 		.4byte	0
 13587              	.LLST35:
ARM GAS  C:\Users\pearlstl\AppData\Local\Temp\ccHPSyCj.s 			page 271


 13588 0546 82030000 		.4byte	.LVL81
 13589 054a 42040000 		.4byte	.LVL100
 13590 054e 1800     		.2byte	0x18
 13591 0550 91       		.byte	0x91
 13592 0551 C87E     		.sleb128 -184
 13593 0553 06       		.byte	0x6
 13594 0554 23       		.byte	0x23
 13595 0555 16       		.uleb128 0x16
 13596 0556 94       		.byte	0x94
 13597 0557 02       		.byte	0x2
 13598 0558 91       		.byte	0x91
 13599 0559 D07E     		.sleb128 -176
 13600 055b 06       		.byte	0x6
 13601 055c 23       		.byte	0x23
 13602 055d 22       		.uleb128 0x22
 13603 055e 94       		.byte	0x94
 13604 055f 02       		.byte	0x2
 13605 0560 1C       		.byte	0x1c
 13606 0561 91       		.byte	0x91
 13607 0562 927F     		.sleb128 -110
 13608 0564 94       		.byte	0x94
 13609 0565 02       		.byte	0x2
 13610 0566 1C       		.byte	0x1c
 13611 0567 9F       		.byte	0x9f
 13612 0568 72050000 		.4byte	.LVL122
 13613 056c 7C050000 		.4byte	.LVL123
 13614 0570 1800     		.2byte	0x18
 13615 0572 91       		.byte	0x91
 13616 0573 C87E     		.sleb128 -184
 13617 0575 06       		.byte	0x6
 13618 0576 23       		.byte	0x23
 13619 0577 16       		.uleb128 0x16
 13620 0578 94       		.byte	0x94
 13621 0579 02       		.byte	0x2
 13622 057a 91       		.byte	0x91
 13623 057b D07E     		.sleb128 -176
 13624 057d 06       		.byte	0x6
 13625 057e 23       		.byte	0x23
 13626 057f 22       		.uleb128 0x22
 13627 0580 94       		.byte	0x94
 13628 0581 02       		.byte	0x2
 13629 0582 1C       		.byte	0x1c
 13630 0583 91       		.byte	0x91
 13631 0584 927F     		.sleb128 -110
 13632 0586 94       		.byte	0x94
 13633 0587 02       		.byte	0x2
 13634 0588 1C       		.byte	0x1c
 13635 0589 9F       		.byte	0x9f
 13636 058a 62080000 		.4byte	.LVL195
 13637 058e B4080000 		.4byte	.LFE46
 13638 0592 1800     		.2byte	0x18
 13639 0594 91       		.byte	0x91
 13640 0595 C87E     		.sleb128 -184
 13641 0597 06       		.byte	0x6
 13642 0598 23       		.byte	0x23
 13643 0599 16       		.uleb128 0x16
 13644 059a 94       		.byte	0x94
ARM GAS  C:\Users\pearlstl\AppData\Local\Temp\ccHPSyCj.s 			page 272


 13645 059b 02       		.byte	0x2
 13646 059c 91       		.byte	0x91
 13647 059d D07E     		.sleb128 -176
 13648 059f 06       		.byte	0x6
 13649 05a0 23       		.byte	0x23
 13650 05a1 22       		.uleb128 0x22
 13651 05a2 94       		.byte	0x94
 13652 05a3 02       		.byte	0x2
 13653 05a4 1C       		.byte	0x1c
 13654 05a5 91       		.byte	0x91
 13655 05a6 927F     		.sleb128 -110
 13656 05a8 94       		.byte	0x94
 13657 05a9 02       		.byte	0x2
 13658 05aa 1C       		.byte	0x1c
 13659 05ab 9F       		.byte	0x9f
 13660 05ac 00000000 		.4byte	0
 13661 05b0 00000000 		.4byte	0
 13662              	.LLST36:
 13663 05b4 B6030000 		.4byte	.LVL82
 13664 05b8 34040000 		.4byte	.LVL98
 13665 05bc 0100     		.2byte	0x1
 13666 05be 50       		.byte	0x50
 13667 05bf 34040000 		.4byte	.LVL98
 13668 05c3 42040000 		.4byte	.LVL100
 13669 05c7 0300     		.2byte	0x3
 13670 05c9 70       		.byte	0x70
 13671 05ca 01       		.sleb128 1
 13672 05cb 9F       		.byte	0x9f
 13673 05cc 42040000 		.4byte	.LVL100
 13674 05d0 72050000 		.4byte	.LVL122
 13675 05d4 2A00     		.2byte	0x2a
 13676 05d6 91       		.byte	0x91
 13677 05d7 E47E     		.sleb128 -156
 13678 05d9 06       		.byte	0x6
 13679 05da F7       		.byte	0xf7
 13680 05db 2C       		.uleb128 0x2c
 13681 05dc F7       		.byte	0xf7
 13682 05dd 25       		.uleb128 0x25
 13683 05de F4       		.byte	0xf4
 13684 05df 25       		.uleb128 0x25
 13685 05e0 08       		.byte	0x8
 13686 05e1 93244992 		.8byte	0xffffffff92492493
 13686      FFFFFFFF 
 13687 05e9 1E       		.byte	0x1e
 13688 05ea 08       		.byte	0x8
 13689 05eb 20       		.byte	0x20
 13690 05ec F7       		.byte	0xf7
 13691 05ed 25       		.uleb128 0x25
 13692 05ee 25       		.byte	0x25
 13693 05ef F7       		.byte	0xf7
 13694 05f0 33       		.uleb128 0x33
 13695 05f1 91       		.byte	0x91
 13696 05f2 E47E     		.sleb128 -156
 13697 05f4 06       		.byte	0x6
 13698 05f5 22       		.byte	0x22
 13699 05f6 32       		.byte	0x32
 13700 05f7 26       		.byte	0x26
ARM GAS  C:\Users\pearlstl\AppData\Local\Temp\ccHPSyCj.s 			page 273


 13701 05f8 91       		.byte	0x91
 13702 05f9 E47E     		.sleb128 -156
 13703 05fb 06       		.byte	0x6
 13704 05fc 4F       		.byte	0x4f
 13705 05fd 26       		.byte	0x26
 13706 05fe 1C       		.byte	0x1c
 13707 05ff 9F       		.byte	0x9f
 13708 0600 72050000 		.4byte	.LVL122
 13709 0604 7C050000 		.4byte	.LVL123
 13710 0608 0100     		.2byte	0x1
 13711 060a 50       		.byte	0x50
 13712 060b 7C050000 		.4byte	.LVL123
 13713 060f 44060000 		.4byte	.LVL144
 13714 0613 2A00     		.2byte	0x2a
 13715 0615 91       		.byte	0x91
 13716 0616 E47E     		.sleb128 -156
 13717 0618 06       		.byte	0x6
 13718 0619 F7       		.byte	0xf7
 13719 061a 2C       		.uleb128 0x2c
 13720 061b F7       		.byte	0xf7
 13721 061c 25       		.uleb128 0x25
 13722 061d F4       		.byte	0xf4
 13723 061e 25       		.uleb128 0x25
 13724 061f 08       		.byte	0x8
 13725 0620 93244992 		.8byte	0xffffffff92492493
 13725      FFFFFFFF 
 13726 0628 1E       		.byte	0x1e
 13727 0629 08       		.byte	0x8
 13728 062a 20       		.byte	0x20
 13729 062b F7       		.byte	0xf7
 13730 062c 25       		.uleb128 0x25
 13731 062d 25       		.byte	0x25
 13732 062e F7       		.byte	0xf7
 13733 062f 33       		.uleb128 0x33
 13734 0630 91       		.byte	0x91
 13735 0631 E47E     		.sleb128 -156
 13736 0633 06       		.byte	0x6
 13737 0634 22       		.byte	0x22
 13738 0635 32       		.byte	0x32
 13739 0636 26       		.byte	0x26
 13740 0637 91       		.byte	0x91
 13741 0638 E47E     		.sleb128 -156
 13742 063a 06       		.byte	0x6
 13743 063b 4F       		.byte	0x4f
 13744 063c 26       		.byte	0x26
 13745 063d 1C       		.byte	0x1c
 13746 063e 9F       		.byte	0x9f
 13747 063f 44060000 		.4byte	.LVL144
 13748 0643 4C060000 		.4byte	.LVL146
 13749 0647 2500     		.2byte	0x25
 13750 0649 91       		.byte	0x91
 13751 064a E47E     		.sleb128 -156
 13752 064c 06       		.byte	0x6
 13753 064d F7       		.byte	0xf7
 13754 064e 2C       		.uleb128 0x2c
 13755 064f F7       		.byte	0xf7
 13756 0650 25       		.uleb128 0x25
ARM GAS  C:\Users\pearlstl\AppData\Local\Temp\ccHPSyCj.s 			page 274


 13757 0651 72       		.byte	0x72
 13758 0652 00       		.sleb128 0
 13759 0653 F7       		.byte	0xf7
 13760 0654 2C       		.uleb128 0x2c
 13761 0655 F7       		.byte	0xf7
 13762 0656 25       		.uleb128 0x25
 13763 0657 1E       		.byte	0x1e
 13764 0658 08       		.byte	0x8
 13765 0659 20       		.byte	0x20
 13766 065a F7       		.byte	0xf7
 13767 065b 25       		.uleb128 0x25
 13768 065c 25       		.byte	0x25
 13769 065d F7       		.byte	0xf7
 13770 065e 33       		.uleb128 0x33
 13771 065f 91       		.byte	0x91
 13772 0660 E47E     		.sleb128 -156
 13773 0662 06       		.byte	0x6
 13774 0663 22       		.byte	0x22
 13775 0664 32       		.byte	0x32
 13776 0665 26       		.byte	0x26
 13777 0666 91       		.byte	0x91
 13778 0667 E47E     		.sleb128 -156
 13779 0669 06       		.byte	0x6
 13780 066a 4F       		.byte	0x4f
 13781 066b 26       		.byte	0x26
 13782 066c 1C       		.byte	0x1c
 13783 066d 9F       		.byte	0x9f
 13784 066e 4C060000 		.4byte	.LVL146
 13785 0672 52080000 		.4byte	.LVL192
 13786 0676 2A00     		.2byte	0x2a
 13787 0678 91       		.byte	0x91
 13788 0679 E47E     		.sleb128 -156
 13789 067b 06       		.byte	0x6
 13790 067c F7       		.byte	0xf7
 13791 067d 2C       		.uleb128 0x2c
 13792 067e F7       		.byte	0xf7
 13793 067f 25       		.uleb128 0x25
 13794 0680 F4       		.byte	0xf4
 13795 0681 25       		.uleb128 0x25
 13796 0682 08       		.byte	0x8
 13797 0683 93244992 		.8byte	0xffffffff92492493
 13797      FFFFFFFF 
 13798 068b 1E       		.byte	0x1e
 13799 068c 08       		.byte	0x8
 13800 068d 20       		.byte	0x20
 13801 068e F7       		.byte	0xf7
 13802 068f 25       		.uleb128 0x25
 13803 0690 25       		.byte	0x25
 13804 0691 F7       		.byte	0xf7
 13805 0692 33       		.uleb128 0x33
 13806 0693 91       		.byte	0x91
 13807 0694 E47E     		.sleb128 -156
 13808 0696 06       		.byte	0x6
 13809 0697 22       		.byte	0x22
 13810 0698 32       		.byte	0x32
 13811 0699 26       		.byte	0x26
 13812 069a 91       		.byte	0x91
ARM GAS  C:\Users\pearlstl\AppData\Local\Temp\ccHPSyCj.s 			page 275


 13813 069b E47E     		.sleb128 -156
 13814 069d 06       		.byte	0x6
 13815 069e 4F       		.byte	0x4f
 13816 069f 26       		.byte	0x26
 13817 06a0 1C       		.byte	0x1c
 13818 06a1 9F       		.byte	0x9f
 13819 06a2 62080000 		.4byte	.LVL195
 13820 06a6 B4080000 		.4byte	.LFE46
 13821 06aa 0100     		.2byte	0x1
 13822 06ac 50       		.byte	0x50
 13823 06ad 00000000 		.4byte	0
 13824 06b1 00000000 		.4byte	0
 13825              	.LLST37:
 13826 06b5 BE030000 		.4byte	.LVL83
 13827 06b9 52080000 		.4byte	.LVL192
 13828 06bd 0300     		.2byte	0x3
 13829 06bf 91       		.byte	0x91
 13830 06c0 847F     		.sleb128 -124
 13831 06c2 62080000 		.4byte	.LVL195
 13832 06c6 B4080000 		.4byte	.LFE46
 13833 06ca 0300     		.2byte	0x3
 13834 06cc 91       		.byte	0x91
 13835 06cd 847F     		.sleb128 -124
 13836 06cf 00000000 		.4byte	0
 13837 06d3 00000000 		.4byte	0
 13838              	.LLST38:
 13839 06d7 2A040000 		.4byte	.LVL95
 13840 06db 2E040000 		.4byte	.LVL97
 13841 06df 0200     		.2byte	0x2
 13842 06e1 30       		.byte	0x30
 13843 06e2 9F       		.byte	0x9f
 13844 06e3 2E040000 		.4byte	.LVL97
 13845 06e7 36040000 		.4byte	.LVL99
 13846 06eb 0300     		.2byte	0x3
 13847 06ed 91       		.byte	0x91
 13848 06ee 807F     		.sleb128 -128
 13849 06f0 0C070000 		.4byte	.LVL158
 13850 06f4 22070000 		.4byte	.LVL160
 13851 06f8 0100     		.2byte	0x1
 13852 06fa 50       		.byte	0x50
 13853 06fb 00000000 		.4byte	0
 13854 06ff 00000000 		.4byte	0
 13855              	.LLST39:
 13856 0703 10040000 		.4byte	.LVL92
 13857 0707 80040000 		.4byte	.LVL104
 13858 070b 0100     		.2byte	0x1
 13859 070d 5B       		.byte	0x5b
 13860 070e 5C050000 		.4byte	.LVL118
 13861 0712 70050000 		.4byte	.LVL121
 13862 0716 0100     		.2byte	0x1
 13863 0718 5B       		.byte	0x5b
 13864 0719 18060000 		.4byte	.LVL135
 13865 071d 76060000 		.4byte	.LVL148
 13866 0721 0100     		.2byte	0x1
 13867 0723 5B       		.byte	0x5b
 13868 0724 16070000 		.4byte	.LVL159
 13869 0728 28070000 		.4byte	.LVL161
ARM GAS  C:\Users\pearlstl\AppData\Local\Temp\ccHPSyCj.s 			page 276


 13870 072c 0100     		.2byte	0x1
 13871 072e 5B       		.byte	0x5b
 13872 072f 42070000 		.4byte	.LVL166
 13873 0733 52070000 		.4byte	.LVL168
 13874 0737 0200     		.2byte	0x2
 13875 0739 31       		.byte	0x31
 13876 073a 9F       		.byte	0x9f
 13877 073b 64070000 		.4byte	.LVL172
 13878 073f 8E070000 		.4byte	.LVL175
 13879 0743 0100     		.2byte	0x1
 13880 0745 5B       		.byte	0x5b
 13881 0746 94070000 		.4byte	.LVL176
 13882 074a 10080000 		.4byte	.LVL185
 13883 074e 0100     		.2byte	0x1
 13884 0750 5B       		.byte	0x5b
 13885 0751 4E080000 		.4byte	.LVL190
 13886 0755 52080000 		.4byte	.LVL192
 13887 0759 0100     		.2byte	0x1
 13888 075b 5B       		.byte	0x5b
 13889 075c 00000000 		.4byte	0
 13890 0760 00000000 		.4byte	0
 13891              	.LLST40:
 13892 0764 C4030000 		.4byte	.LVL84
 13893 0768 18040000 		.4byte	.LVL94
 13894 076c 0200     		.2byte	0x2
 13895 076e 30       		.byte	0x30
 13896 076f 9F       		.byte	0x9f
 13897 0770 18040000 		.4byte	.LVL94
 13898 0774 6E040000 		.4byte	.LVL103
 13899 0778 0100     		.2byte	0x1
 13900 077a 54       		.byte	0x54
 13901 077b 6E040000 		.4byte	.LVL103
 13902 077f 80040000 		.4byte	.LVL104
 13903 0783 0200     		.2byte	0x2
 13904 0785 30       		.byte	0x30
 13905 0786 9F       		.byte	0x9f
 13906 0787 80040000 		.4byte	.LVL104
 13907 078b E8040000 		.4byte	.LVL109
 13908 078f 0100     		.2byte	0x1
 13909 0791 54       		.byte	0x54
 13910 0792 4C050000 		.4byte	.LVL117
 13911 0796 64050000 		.4byte	.LVL120
 13912 079a 0100     		.2byte	0x1
 13913 079c 54       		.byte	0x54
 13914 079d 64050000 		.4byte	.LVL120
 13915 07a1 72050000 		.4byte	.LVL122
 13916 07a5 0200     		.2byte	0x2
 13917 07a7 32       		.byte	0x32
 13918 07a8 9F       		.byte	0x9f
 13919 07a9 9E050000 		.4byte	.LVL124
 13920 07ad 18060000 		.4byte	.LVL135
 13921 07b1 0100     		.2byte	0x1
 13922 07b3 54       		.byte	0x54
 13923 07b4 18060000 		.4byte	.LVL135
 13924 07b8 20060000 		.4byte	.LVL137
 13925 07bc 0200     		.2byte	0x2
 13926 07be 30       		.byte	0x30
ARM GAS  C:\Users\pearlstl\AppData\Local\Temp\ccHPSyCj.s 			page 277


 13927 07bf 9F       		.byte	0x9f
 13928 07c0 78060000 		.4byte	.LVL149
 13929 07c4 B4060000 		.4byte	.LVL153
 13930 07c8 0100     		.2byte	0x1
 13931 07ca 54       		.byte	0x54
 13932 07cb E8060000 		.4byte	.LVL157
 13933 07cf 42070000 		.4byte	.LVL166
 13934 07d3 0100     		.2byte	0x1
 13935 07d5 54       		.byte	0x54
 13936 07d6 42070000 		.4byte	.LVL166
 13937 07da 52070000 		.4byte	.LVL168
 13938 07de 0200     		.2byte	0x2
 13939 07e0 32       		.byte	0x32
 13940 07e1 9F       		.byte	0x9f
 13941 07e2 8E070000 		.4byte	.LVL175
 13942 07e6 94070000 		.4byte	.LVL176
 13943 07ea 0100     		.2byte	0x1
 13944 07ec 54       		.byte	0x54
 13945 07ed A2070000 		.4byte	.LVL179
 13946 07f1 4E080000 		.4byte	.LVL190
 13947 07f5 0100     		.2byte	0x1
 13948 07f7 54       		.byte	0x54
 13949 07f8 62080000 		.4byte	.LVL195
 13950 07fc B4080000 		.4byte	.LFE46
 13951 0800 0200     		.2byte	0x2
 13952 0802 30       		.byte	0x30
 13953 0803 9F       		.byte	0x9f
 13954 0804 00000000 		.4byte	0
 13955 0808 00000000 		.4byte	0
 13956              	.LLST41:
 13957 080c 16040000 		.4byte	.LVL93
 13958 0810 18040000 		.4byte	.LVL94
 13959 0814 0100     		.2byte	0x1
 13960 0816 53       		.byte	0x53
 13961 0817 18040000 		.4byte	.LVL94
 13962 081b 72050000 		.4byte	.LVL122
 13963 081f 0300     		.2byte	0x3
 13964 0821 91       		.byte	0x91
 13965 0822 EC7E     		.sleb128 -148
 13966 0824 7C050000 		.4byte	.LVL123
 13967 0828 1C060000 		.4byte	.LVL136
 13968 082c 0300     		.2byte	0x3
 13969 082e 91       		.byte	0x91
 13970 082f EC7E     		.sleb128 -148
 13971 0831 20060000 		.4byte	.LVL137
 13972 0835 4C070000 		.4byte	.LVL167
 13973 0839 0300     		.2byte	0x3
 13974 083b 91       		.byte	0x91
 13975 083c EC7E     		.sleb128 -148
 13976 083e 4C070000 		.4byte	.LVL167
 13977 0842 52070000 		.4byte	.LVL168
 13978 0846 0100     		.2byte	0x1
 13979 0848 52       		.byte	0x52
 13980 0849 52070000 		.4byte	.LVL168
 13981 084d 52080000 		.4byte	.LVL192
 13982 0851 0300     		.2byte	0x3
 13983 0853 91       		.byte	0x91
ARM GAS  C:\Users\pearlstl\AppData\Local\Temp\ccHPSyCj.s 			page 278


 13984 0854 EC7E     		.sleb128 -148
 13985 0856 00000000 		.4byte	0
 13986 085a 00000000 		.4byte	0
 13987              	.LLST42:
 13988 085e 18040000 		.4byte	.LVL94
 13989 0862 2A040000 		.4byte	.LVL95
 13990 0866 0200     		.2byte	0x2
 13991 0868 30       		.byte	0x30
 13992 0869 9F       		.byte	0x9f
 13993 086a 2A040000 		.4byte	.LVL95
 13994 086e 2C040000 		.4byte	.LVL96
 13995 0872 0800     		.2byte	0x8
 13996 0874 91       		.byte	0x91
 13997 0875 D47E     		.sleb128 -172
 13998 0877 06       		.byte	0x6
 13999 0878 72       		.byte	0x72
 14000 0879 00       		.sleb128 0
 14001 087a 29       		.byte	0x29
 14002 087b 9F       		.byte	0x9f
 14003 087c 00000000 		.4byte	0
 14004 0880 00000000 		.4byte	0
 14005              	.LLST43:
 14006 0884 2A040000 		.4byte	.LVL95
 14007 0888 42040000 		.4byte	.LVL100
 14008 088c 0200     		.2byte	0x2
 14009 088e 30       		.byte	0x30
 14010 088f 9F       		.byte	0x9f
 14011 0890 66040000 		.4byte	.LVL101
 14012 0894 72050000 		.4byte	.LVL122
 14013 0898 0300     		.2byte	0x3
 14014 089a 91       		.byte	0x91
 14015 089b F87E     		.sleb128 -136
 14016 089d 7C050000 		.4byte	.LVL123
 14017 08a1 22070000 		.4byte	.LVL160
 14018 08a5 0300     		.2byte	0x3
 14019 08a7 91       		.byte	0x91
 14020 08a8 F87E     		.sleb128 -136
 14021 08aa 28070000 		.4byte	.LVL161
 14022 08ae A2070000 		.4byte	.LVL179
 14023 08b2 0300     		.2byte	0x3
 14024 08b4 91       		.byte	0x91
 14025 08b5 F87E     		.sleb128 -136
 14026 08b7 04080000 		.4byte	.LVL184
 14027 08bb 10080000 		.4byte	.LVL185
 14028 08bf 0200     		.2byte	0x2
 14029 08c1 31       		.byte	0x31
 14030 08c2 9F       		.byte	0x9f
 14031 08c3 10080000 		.4byte	.LVL185
 14032 08c7 52080000 		.4byte	.LVL192
 14033 08cb 0300     		.2byte	0x3
 14034 08cd 91       		.byte	0x91
 14035 08ce F87E     		.sleb128 -136
 14036 08d0 00000000 		.4byte	0
 14037 08d4 00000000 		.4byte	0
 14038              	.LLST44:
 14039 08d8 A6020000 		.4byte	.LVL64
 14040 08dc B2020000 		.4byte	.LVL66
ARM GAS  C:\Users\pearlstl\AppData\Local\Temp\ccHPSyCj.s 			page 279


 14041 08e0 0200     		.2byte	0x2
 14042 08e2 30       		.byte	0x30
 14043 08e3 9F       		.byte	0x9f
 14044 08e4 00000000 		.4byte	0
 14045 08e8 00000000 		.4byte	0
 14046              	.LLST45:
 14047 08ec A6020000 		.4byte	.LVL64
 14048 08f0 B2020000 		.4byte	.LVL66
 14049 08f4 0300     		.2byte	0x3
 14050 08f6 91       		.byte	0x91
 14051 08f7 C87E     		.sleb128 -184
 14052 08f9 00000000 		.4byte	0
 14053 08fd 00000000 		.4byte	0
 14054              	.LLST47:
 14055 0901 C4020000 		.4byte	.LVL70
 14056 0905 C7020000 		.4byte	.LVL71-1
 14057 0909 0100     		.2byte	0x1
 14058 090b 50       		.byte	0x50
 14059 090c C7020000 		.4byte	.LVL71-1
 14060 0910 CA020000 		.4byte	.LVL72
 14061 0914 0100     		.2byte	0x1
 14062 0916 5A       		.byte	0x5a
 14063 0917 00000000 		.4byte	0
 14064 091b 00000000 		.4byte	0
 14065              	.LLST48:
 14066 091f C8020000 		.4byte	.LVL71
 14067 0923 CA020000 		.4byte	.LVL72
 14068 0927 0100     		.2byte	0x1
 14069 0929 50       		.byte	0x50
 14070 092a 00000000 		.4byte	0
 14071 092e 00000000 		.4byte	0
 14072              	.LLST49:
 14073 0932 C4030000 		.4byte	.LVL84
 14074 0936 C8030000 		.4byte	.LVL85
 14075 093a 0700     		.2byte	0x7
 14076 093c 91       		.byte	0x91
 14077 093d D47E     		.sleb128 -172
 14078 093f 06       		.byte	0x6
 14079 0940 32       		.byte	0x32
 14080 0941 1C       		.byte	0x1c
 14081 0942 9F       		.byte	0x9f
 14082 0943 C8030000 		.4byte	.LVL85
 14083 0947 CC030000 		.4byte	.LVL86
 14084 094b 0100     		.2byte	0x1
 14085 094d 51       		.byte	0x51
 14086 094e CC030000 		.4byte	.LVL86
 14087 0952 D0030000 		.4byte	.LVL87
 14088 0956 0700     		.2byte	0x7
 14089 0958 91       		.byte	0x91
 14090 0959 D47E     		.sleb128 -172
 14091 095b 06       		.byte	0x6
 14092 095c 32       		.byte	0x32
 14093 095d 1C       		.byte	0x1c
 14094 095e 9F       		.byte	0x9f
 14095 095f D0030000 		.4byte	.LVL87
 14096 0963 D6030000 		.4byte	.LVL88
 14097 0967 0100     		.2byte	0x1
ARM GAS  C:\Users\pearlstl\AppData\Local\Temp\ccHPSyCj.s 			page 280


 14098 0969 51       		.byte	0x51
 14099 096a D6030000 		.4byte	.LVL88
 14100 096e DA030000 		.4byte	.LVL89
 14101 0972 1A00     		.2byte	0x1a
 14102 0974 91       		.byte	0x91
 14103 0975 D47E     		.sleb128 -172
 14104 0977 06       		.byte	0x6
 14105 0978 23       		.byte	0x23
 14106 0979 0A       		.uleb128 0xa
 14107 097a 91       		.byte	0x91
 14108 097b D47E     		.sleb128 -172
 14109 097d 06       		.byte	0x6
 14110 097e 32       		.byte	0x32
 14111 097f 1C       		.byte	0x1c
 14112 0980 91       		.byte	0x91
 14113 0981 D47E     		.sleb128 -172
 14114 0983 06       		.byte	0x6
 14115 0984 32       		.byte	0x32
 14116 0985 1C       		.byte	0x1c
 14117 0986 30       		.byte	0x30
 14118 0987 2D       		.byte	0x2d
 14119 0988 28       		.byte	0x28
 14120 0989 0100     		.2byte	0x1
 14121 098b 16       		.byte	0x16
 14122 098c 13       		.byte	0x13
 14123 098d 9F       		.byte	0x9f
 14124 098e DA030000 		.4byte	.LVL89
 14125 0992 F6030000 		.4byte	.LVL90
 14126 0996 0100     		.2byte	0x1
 14127 0998 51       		.byte	0x51
 14128 0999 F6030000 		.4byte	.LVL90
 14129 099d 04040000 		.4byte	.LVL91
 14130 09a1 5500     		.2byte	0x55
 14131 09a3 91       		.byte	0x91
 14132 09a4 D47E     		.sleb128 -172
 14133 09a6 06       		.byte	0x6
 14134 09a7 23       		.byte	0x23
 14135 09a8 0A       		.uleb128 0xa
 14136 09a9 91       		.byte	0x91
 14137 09aa D47E     		.sleb128 -172
 14138 09ac 06       		.byte	0x6
 14139 09ad 32       		.byte	0x32
 14140 09ae 1C       		.byte	0x1c
 14141 09af 91       		.byte	0x91
 14142 09b0 D47E     		.sleb128 -172
 14143 09b2 06       		.byte	0x6
 14144 09b3 32       		.byte	0x32
 14145 09b4 1C       		.byte	0x1c
 14146 09b5 30       		.byte	0x30
 14147 09b6 2D       		.byte	0x2d
 14148 09b7 28       		.byte	0x28
 14149 09b8 0100     		.2byte	0x1
 14150 09ba 16       		.byte	0x16
 14151 09bb 13       		.byte	0x13
 14152 09bc 3C       		.byte	0x3c
 14153 09bd 1C       		.byte	0x1c
 14154 09be 91       		.byte	0x91
ARM GAS  C:\Users\pearlstl\AppData\Local\Temp\ccHPSyCj.s 			page 281


 14155 09bf D47E     		.sleb128 -172
 14156 09c1 06       		.byte	0x6
 14157 09c2 23       		.byte	0x23
 14158 09c3 0A       		.uleb128 0xa
 14159 09c4 91       		.byte	0x91
 14160 09c5 D47E     		.sleb128 -172
 14161 09c7 06       		.byte	0x6
 14162 09c8 32       		.byte	0x32
 14163 09c9 1C       		.byte	0x1c
 14164 09ca 91       		.byte	0x91
 14165 09cb D47E     		.sleb128 -172
 14166 09cd 06       		.byte	0x6
 14167 09ce 32       		.byte	0x32
 14168 09cf 1C       		.byte	0x1c
 14169 09d0 30       		.byte	0x30
 14170 09d1 2D       		.byte	0x2d
 14171 09d2 28       		.byte	0x28
 14172 09d3 0100     		.2byte	0x1
 14173 09d5 16       		.byte	0x16
 14174 09d6 13       		.byte	0x13
 14175 09d7 91       		.byte	0x91
 14176 09d8 D47E     		.sleb128 -172
 14177 09da 06       		.byte	0x6
 14178 09db 23       		.byte	0x23
 14179 09dc 0A       		.uleb128 0xa
 14180 09dd 91       		.byte	0x91
 14181 09de D47E     		.sleb128 -172
 14182 09e0 06       		.byte	0x6
 14183 09e1 32       		.byte	0x32
 14184 09e2 1C       		.byte	0x1c
 14185 09e3 91       		.byte	0x91
 14186 09e4 D47E     		.sleb128 -172
 14187 09e6 06       		.byte	0x6
 14188 09e7 32       		.byte	0x32
 14189 09e8 1C       		.byte	0x1c
 14190 09e9 30       		.byte	0x30
 14191 09ea 2D       		.byte	0x2d
 14192 09eb 28       		.byte	0x28
 14193 09ec 0100     		.2byte	0x1
 14194 09ee 16       		.byte	0x16
 14195 09ef 13       		.byte	0x13
 14196 09f0 3B       		.byte	0x3b
 14197 09f1 2B       		.byte	0x2b
 14198 09f2 28       		.byte	0x28
 14199 09f3 0100     		.2byte	0x1
 14200 09f5 16       		.byte	0x16
 14201 09f6 13       		.byte	0x13
 14202 09f7 9F       		.byte	0x9f
 14203 09f8 62080000 		.4byte	.LVL195
 14204 09fc 72080000 		.4byte	.LVL196
 14205 0a00 0100     		.2byte	0x1
 14206 0a02 51       		.byte	0x51
 14207 0a03 72080000 		.4byte	.LVL196
 14208 0a07 8E080000 		.4byte	.LVL198
 14209 0a0b 5500     		.2byte	0x55
 14210 0a0d 91       		.byte	0x91
 14211 0a0e D47E     		.sleb128 -172
ARM GAS  C:\Users\pearlstl\AppData\Local\Temp\ccHPSyCj.s 			page 282


 14212 0a10 06       		.byte	0x6
 14213 0a11 23       		.byte	0x23
 14214 0a12 0A       		.uleb128 0xa
 14215 0a13 91       		.byte	0x91
 14216 0a14 D47E     		.sleb128 -172
 14217 0a16 06       		.byte	0x6
 14218 0a17 32       		.byte	0x32
 14219 0a18 1C       		.byte	0x1c
 14220 0a19 91       		.byte	0x91
 14221 0a1a D47E     		.sleb128 -172
 14222 0a1c 06       		.byte	0x6
 14223 0a1d 32       		.byte	0x32
 14224 0a1e 1C       		.byte	0x1c
 14225 0a1f 30       		.byte	0x30
 14226 0a20 2D       		.byte	0x2d
 14227 0a21 28       		.byte	0x28
 14228 0a22 0100     		.2byte	0x1
 14229 0a24 16       		.byte	0x16
 14230 0a25 13       		.byte	0x13
 14231 0a26 3C       		.byte	0x3c
 14232 0a27 1C       		.byte	0x1c
 14233 0a28 91       		.byte	0x91
 14234 0a29 D47E     		.sleb128 -172
 14235 0a2b 06       		.byte	0x6
 14236 0a2c 23       		.byte	0x23
 14237 0a2d 0A       		.uleb128 0xa
 14238 0a2e 91       		.byte	0x91
 14239 0a2f D47E     		.sleb128 -172
 14240 0a31 06       		.byte	0x6
 14241 0a32 32       		.byte	0x32
 14242 0a33 1C       		.byte	0x1c
 14243 0a34 91       		.byte	0x91
 14244 0a35 D47E     		.sleb128 -172
 14245 0a37 06       		.byte	0x6
 14246 0a38 32       		.byte	0x32
 14247 0a39 1C       		.byte	0x1c
 14248 0a3a 30       		.byte	0x30
 14249 0a3b 2D       		.byte	0x2d
 14250 0a3c 28       		.byte	0x28
 14251 0a3d 0100     		.2byte	0x1
 14252 0a3f 16       		.byte	0x16
 14253 0a40 13       		.byte	0x13
 14254 0a41 91       		.byte	0x91
 14255 0a42 D47E     		.sleb128 -172
 14256 0a44 06       		.byte	0x6
 14257 0a45 23       		.byte	0x23
 14258 0a46 0A       		.uleb128 0xa
 14259 0a47 91       		.byte	0x91
 14260 0a48 D47E     		.sleb128 -172
 14261 0a4a 06       		.byte	0x6
 14262 0a4b 32       		.byte	0x32
 14263 0a4c 1C       		.byte	0x1c
 14264 0a4d 91       		.byte	0x91
 14265 0a4e D47E     		.sleb128 -172
 14266 0a50 06       		.byte	0x6
 14267 0a51 32       		.byte	0x32
 14268 0a52 1C       		.byte	0x1c
ARM GAS  C:\Users\pearlstl\AppData\Local\Temp\ccHPSyCj.s 			page 283


 14269 0a53 30       		.byte	0x30
 14270 0a54 2D       		.byte	0x2d
 14271 0a55 28       		.byte	0x28
 14272 0a56 0100     		.2byte	0x1
 14273 0a58 16       		.byte	0x16
 14274 0a59 13       		.byte	0x13
 14275 0a5a 3B       		.byte	0x3b
 14276 0a5b 2B       		.byte	0x2b
 14277 0a5c 28       		.byte	0x28
 14278 0a5d 0100     		.2byte	0x1
 14279 0a5f 16       		.byte	0x16
 14280 0a60 13       		.byte	0x13
 14281 0a61 9F       		.byte	0x9f
 14282 0a62 8E080000 		.4byte	.LVL198
 14283 0a66 92080000 		.4byte	.LVL199
 14284 0a6a 0100     		.2byte	0x1
 14285 0a6c 51       		.byte	0x51
 14286 0a6d 92080000 		.4byte	.LVL199
 14287 0a71 B4080000 		.4byte	.LFE46
 14288 0a75 5500     		.2byte	0x55
 14289 0a77 91       		.byte	0x91
 14290 0a78 D47E     		.sleb128 -172
 14291 0a7a 06       		.byte	0x6
 14292 0a7b 23       		.byte	0x23
 14293 0a7c 0A       		.uleb128 0xa
 14294 0a7d 91       		.byte	0x91
 14295 0a7e D47E     		.sleb128 -172
 14296 0a80 06       		.byte	0x6
 14297 0a81 32       		.byte	0x32
 14298 0a82 1C       		.byte	0x1c
 14299 0a83 91       		.byte	0x91
 14300 0a84 D47E     		.sleb128 -172
 14301 0a86 06       		.byte	0x6
 14302 0a87 32       		.byte	0x32
 14303 0a88 1C       		.byte	0x1c
 14304 0a89 30       		.byte	0x30
 14305 0a8a 2D       		.byte	0x2d
 14306 0a8b 28       		.byte	0x28
 14307 0a8c 0100     		.2byte	0x1
 14308 0a8e 16       		.byte	0x16
 14309 0a8f 13       		.byte	0x13
 14310 0a90 3C       		.byte	0x3c
 14311 0a91 1C       		.byte	0x1c
 14312 0a92 91       		.byte	0x91
 14313 0a93 D47E     		.sleb128 -172
 14314 0a95 06       		.byte	0x6
 14315 0a96 23       		.byte	0x23
 14316 0a97 0A       		.uleb128 0xa
 14317 0a98 91       		.byte	0x91
 14318 0a99 D47E     		.sleb128 -172
 14319 0a9b 06       		.byte	0x6
 14320 0a9c 32       		.byte	0x32
 14321 0a9d 1C       		.byte	0x1c
 14322 0a9e 91       		.byte	0x91
 14323 0a9f D47E     		.sleb128 -172
 14324 0aa1 06       		.byte	0x6
 14325 0aa2 32       		.byte	0x32
ARM GAS  C:\Users\pearlstl\AppData\Local\Temp\ccHPSyCj.s 			page 284


 14326 0aa3 1C       		.byte	0x1c
 14327 0aa4 30       		.byte	0x30
 14328 0aa5 2D       		.byte	0x2d
 14329 0aa6 28       		.byte	0x28
 14330 0aa7 0100     		.2byte	0x1
 14331 0aa9 16       		.byte	0x16
 14332 0aaa 13       		.byte	0x13
 14333 0aab 91       		.byte	0x91
 14334 0aac D47E     		.sleb128 -172
 14335 0aae 06       		.byte	0x6
 14336 0aaf 23       		.byte	0x23
 14337 0ab0 0A       		.uleb128 0xa
 14338 0ab1 91       		.byte	0x91
 14339 0ab2 D47E     		.sleb128 -172
 14340 0ab4 06       		.byte	0x6
 14341 0ab5 32       		.byte	0x32
 14342 0ab6 1C       		.byte	0x1c
 14343 0ab7 91       		.byte	0x91
 14344 0ab8 D47E     		.sleb128 -172
 14345 0aba 06       		.byte	0x6
 14346 0abb 32       		.byte	0x32
 14347 0abc 1C       		.byte	0x1c
 14348 0abd 30       		.byte	0x30
 14349 0abe 2D       		.byte	0x2d
 14350 0abf 28       		.byte	0x28
 14351 0ac0 0100     		.2byte	0x1
 14352 0ac2 16       		.byte	0x16
 14353 0ac3 13       		.byte	0x13
 14354 0ac4 3B       		.byte	0x3b
 14355 0ac5 2B       		.byte	0x2b
 14356 0ac6 28       		.byte	0x28
 14357 0ac7 0100     		.2byte	0x1
 14358 0ac9 16       		.byte	0x16
 14359 0aca 13       		.byte	0x13
 14360 0acb 9F       		.byte	0x9f
 14361 0acc 00000000 		.4byte	0
 14362 0ad0 00000000 		.4byte	0
 14363              	.LLST50:
 14364 0ad4 C4030000 		.4byte	.LVL84
 14365 0ad8 04040000 		.4byte	.LVL91
 14366 0adc 0100     		.2byte	0x1
 14367 0ade 5E       		.byte	0x5e
 14368 0adf 62080000 		.4byte	.LVL195
 14369 0ae3 82080000 		.4byte	.LVL197
 14370 0ae7 0100     		.2byte	0x1
 14371 0ae9 5E       		.byte	0x5e
 14372 0aea 82080000 		.4byte	.LVL197
 14373 0aee 8E080000 		.4byte	.LVL198
 14374 0af2 6100     		.2byte	0x61
 14375 0af4 78       		.byte	0x78
 14376 0af5 04       		.sleb128 4
 14377 0af6 94       		.byte	0x94
 14378 0af7 02       		.byte	0x2
 14379 0af8 0A       		.byte	0xa
 14380 0af9 FFFF     		.2byte	0xffff
 14381 0afb 1A       		.byte	0x1a
 14382 0afc 31       		.byte	0x31
ARM GAS  C:\Users\pearlstl\AppData\Local\Temp\ccHPSyCj.s 			page 285


 14383 0afd 1C       		.byte	0x1c
 14384 0afe 78       		.byte	0x78
 14385 0aff 04       		.sleb128 4
 14386 0b00 94       		.byte	0x94
 14387 0b01 02       		.byte	0x2
 14388 0b02 0A       		.byte	0xa
 14389 0b03 FFFF     		.2byte	0xffff
 14390 0b05 1A       		.byte	0x1a
 14391 0b06 91       		.byte	0x91
 14392 0b07 D47E     		.sleb128 -172
 14393 0b09 06       		.byte	0x6
 14394 0b0a 32       		.byte	0x32
 14395 0b0b 1C       		.byte	0x1c
 14396 0b0c 30       		.byte	0x30
 14397 0b0d 2D       		.byte	0x2d
 14398 0b0e 28       		.byte	0x28
 14399 0b0f 0100     		.2byte	0x1
 14400 0b11 16       		.byte	0x16
 14401 0b12 13       		.byte	0x13
 14402 0b13 23       		.byte	0x23
 14403 0b14 01       		.uleb128 0x1
 14404 0b15 78       		.byte	0x78
 14405 0b16 04       		.sleb128 4
 14406 0b17 94       		.byte	0x94
 14407 0b18 02       		.byte	0x2
 14408 0b19 0A       		.byte	0xa
 14409 0b1a FFFF     		.2byte	0xffff
 14410 0b1c 1A       		.byte	0x1a
 14411 0b1d 31       		.byte	0x31
 14412 0b1e 1C       		.byte	0x1c
 14413 0b1f 78       		.byte	0x78
 14414 0b20 04       		.sleb128 4
 14415 0b21 94       		.byte	0x94
 14416 0b22 02       		.byte	0x2
 14417 0b23 0A       		.byte	0xa
 14418 0b24 FFFF     		.2byte	0xffff
 14419 0b26 1A       		.byte	0x1a
 14420 0b27 91       		.byte	0x91
 14421 0b28 D47E     		.sleb128 -172
 14422 0b2a 06       		.byte	0x6
 14423 0b2b 32       		.byte	0x32
 14424 0b2c 1C       		.byte	0x1c
 14425 0b2d 30       		.byte	0x30
 14426 0b2e 2D       		.byte	0x2d
 14427 0b2f 28       		.byte	0x28
 14428 0b30 0100     		.2byte	0x1
 14429 0b32 16       		.byte	0x16
 14430 0b33 13       		.byte	0x13
 14431 0b34 91       		.byte	0x91
 14432 0b35 D47E     		.sleb128 -172
 14433 0b37 06       		.byte	0x6
 14434 0b38 23       		.byte	0x23
 14435 0b39 0A       		.uleb128 0xa
 14436 0b3a 91       		.byte	0x91
 14437 0b3b D47E     		.sleb128 -172
 14438 0b3d 06       		.byte	0x6
 14439 0b3e 32       		.byte	0x32
ARM GAS  C:\Users\pearlstl\AppData\Local\Temp\ccHPSyCj.s 			page 286


 14440 0b3f 1C       		.byte	0x1c
 14441 0b40 91       		.byte	0x91
 14442 0b41 D47E     		.sleb128 -172
 14443 0b43 06       		.byte	0x6
 14444 0b44 32       		.byte	0x32
 14445 0b45 1C       		.byte	0x1c
 14446 0b46 30       		.byte	0x30
 14447 0b47 2D       		.byte	0x2d
 14448 0b48 28       		.byte	0x28
 14449 0b49 0100     		.2byte	0x1
 14450 0b4b 16       		.byte	0x16
 14451 0b4c 13       		.byte	0x13
 14452 0b4d 3B       		.byte	0x3b
 14453 0b4e 2B       		.byte	0x2b
 14454 0b4f 28       		.byte	0x28
 14455 0b50 0100     		.2byte	0x1
 14456 0b52 16       		.byte	0x16
 14457 0b53 13       		.byte	0x13
 14458 0b54 9F       		.byte	0x9f
 14459 0b55 8E080000 		.4byte	.LVL198
 14460 0b59 B4080000 		.4byte	.LFE46
 14461 0b5d 0100     		.2byte	0x1
 14462 0b5f 5E       		.byte	0x5e
 14463 0b60 00000000 		.4byte	0
 14464 0b64 00000000 		.4byte	0
 14465              	.LLST51:
 14466 0b68 62080000 		.4byte	.LVL195
 14467 0b6c 82080000 		.4byte	.LVL197
 14468 0b70 0100     		.2byte	0x1
 14469 0b72 5E       		.byte	0x5e
 14470 0b73 82080000 		.4byte	.LVL197
 14471 0b77 8E080000 		.4byte	.LVL198
 14472 0b7b 6100     		.2byte	0x61
 14473 0b7d 78       		.byte	0x78
 14474 0b7e 04       		.sleb128 4
 14475 0b7f 94       		.byte	0x94
 14476 0b80 02       		.byte	0x2
 14477 0b81 0A       		.byte	0xa
 14478 0b82 FFFF     		.2byte	0xffff
 14479 0b84 1A       		.byte	0x1a
 14480 0b85 31       		.byte	0x31
 14481 0b86 1C       		.byte	0x1c
 14482 0b87 78       		.byte	0x78
 14483 0b88 04       		.sleb128 4
 14484 0b89 94       		.byte	0x94
 14485 0b8a 02       		.byte	0x2
 14486 0b8b 0A       		.byte	0xa
 14487 0b8c FFFF     		.2byte	0xffff
 14488 0b8e 1A       		.byte	0x1a
 14489 0b8f 91       		.byte	0x91
 14490 0b90 D47E     		.sleb128 -172
 14491 0b92 06       		.byte	0x6
 14492 0b93 32       		.byte	0x32
 14493 0b94 1C       		.byte	0x1c
 14494 0b95 30       		.byte	0x30
 14495 0b96 2D       		.byte	0x2d
 14496 0b97 28       		.byte	0x28
ARM GAS  C:\Users\pearlstl\AppData\Local\Temp\ccHPSyCj.s 			page 287


 14497 0b98 0100     		.2byte	0x1
 14498 0b9a 16       		.byte	0x16
 14499 0b9b 13       		.byte	0x13
 14500 0b9c 23       		.byte	0x23
 14501 0b9d 01       		.uleb128 0x1
 14502 0b9e 78       		.byte	0x78
 14503 0b9f 04       		.sleb128 4
 14504 0ba0 94       		.byte	0x94
 14505 0ba1 02       		.byte	0x2
 14506 0ba2 0A       		.byte	0xa
 14507 0ba3 FFFF     		.2byte	0xffff
 14508 0ba5 1A       		.byte	0x1a
 14509 0ba6 31       		.byte	0x31
 14510 0ba7 1C       		.byte	0x1c
 14511 0ba8 78       		.byte	0x78
 14512 0ba9 04       		.sleb128 4
 14513 0baa 94       		.byte	0x94
 14514 0bab 02       		.byte	0x2
 14515 0bac 0A       		.byte	0xa
 14516 0bad FFFF     		.2byte	0xffff
 14517 0baf 1A       		.byte	0x1a
 14518 0bb0 91       		.byte	0x91
 14519 0bb1 D47E     		.sleb128 -172
 14520 0bb3 06       		.byte	0x6
 14521 0bb4 32       		.byte	0x32
 14522 0bb5 1C       		.byte	0x1c
 14523 0bb6 30       		.byte	0x30
 14524 0bb7 2D       		.byte	0x2d
 14525 0bb8 28       		.byte	0x28
 14526 0bb9 0100     		.2byte	0x1
 14527 0bbb 16       		.byte	0x16
 14528 0bbc 13       		.byte	0x13
 14529 0bbd 91       		.byte	0x91
 14530 0bbe D47E     		.sleb128 -172
 14531 0bc0 06       		.byte	0x6
 14532 0bc1 23       		.byte	0x23
 14533 0bc2 0A       		.uleb128 0xa
 14534 0bc3 91       		.byte	0x91
 14535 0bc4 D47E     		.sleb128 -172
 14536 0bc6 06       		.byte	0x6
 14537 0bc7 32       		.byte	0x32
 14538 0bc8 1C       		.byte	0x1c
 14539 0bc9 91       		.byte	0x91
 14540 0bca D47E     		.sleb128 -172
 14541 0bcc 06       		.byte	0x6
 14542 0bcd 32       		.byte	0x32
 14543 0bce 1C       		.byte	0x1c
 14544 0bcf 30       		.byte	0x30
 14545 0bd0 2D       		.byte	0x2d
 14546 0bd1 28       		.byte	0x28
 14547 0bd2 0100     		.2byte	0x1
 14548 0bd4 16       		.byte	0x16
 14549 0bd5 13       		.byte	0x13
 14550 0bd6 3B       		.byte	0x3b
 14551 0bd7 2B       		.byte	0x2b
 14552 0bd8 28       		.byte	0x28
 14553 0bd9 0100     		.2byte	0x1
ARM GAS  C:\Users\pearlstl\AppData\Local\Temp\ccHPSyCj.s 			page 288


 14554 0bdb 16       		.byte	0x16
 14555 0bdc 13       		.byte	0x13
 14556 0bdd 9F       		.byte	0x9f
 14557 0bde 8E080000 		.4byte	.LVL198
 14558 0be2 92080000 		.4byte	.LVL199
 14559 0be6 0100     		.2byte	0x1
 14560 0be8 5E       		.byte	0x5e
 14561 0be9 9C080000 		.4byte	.LVL200
 14562 0bed B4080000 		.4byte	.LFE46
 14563 0bf1 0100     		.2byte	0x1
 14564 0bf3 5E       		.byte	0x5e
 14565 0bf4 00000000 		.4byte	0
 14566 0bf8 00000000 		.4byte	0
 14567              	.LLST52:
 14568 0bfc 66040000 		.4byte	.LVL101
 14569 0c00 6A040000 		.4byte	.LVL102
 14570 0c04 0200     		.2byte	0x2
 14571 0c06 30       		.byte	0x30
 14572 0c07 9F       		.byte	0x9f
 14573 0c08 6A040000 		.4byte	.LVL102
 14574 0c0c 6E040000 		.4byte	.LVL103
 14575 0c10 0100     		.2byte	0x1
 14576 0c12 55       		.byte	0x55
 14577 0c13 6E040000 		.4byte	.LVL103
 14578 0c17 44050000 		.4byte	.LVL116
 14579 0c1b 0100     		.2byte	0x1
 14580 0c1d 5A       		.byte	0x5a
 14581 0c1e 44050000 		.4byte	.LVL116
 14582 0c22 4C050000 		.4byte	.LVL117
 14583 0c26 0300     		.2byte	0x3
 14584 0c28 7A       		.byte	0x7a
 14585 0c29 7F       		.sleb128 -1
 14586 0c2a 9F       		.byte	0x9f
 14587 0c2b 4C050000 		.4byte	.LVL117
 14588 0c2f 72050000 		.4byte	.LVL122
 14589 0c33 0100     		.2byte	0x1
 14590 0c35 5A       		.byte	0x5a
 14591 0c36 7C050000 		.4byte	.LVL123
 14592 0c3a 22070000 		.4byte	.LVL160
 14593 0c3e 0100     		.2byte	0x1
 14594 0c40 5A       		.byte	0x5a
 14595 0c41 28070000 		.4byte	.LVL161
 14596 0c45 A2070000 		.4byte	.LVL179
 14597 0c49 0100     		.2byte	0x1
 14598 0c4b 5A       		.byte	0x5a
 14599 0c4c 10080000 		.4byte	.LVL185
 14600 0c50 52080000 		.4byte	.LVL192
 14601 0c54 0100     		.2byte	0x1
 14602 0c56 5A       		.byte	0x5a
 14603 0c57 00000000 		.4byte	0
 14604 0c5b 00000000 		.4byte	0
 14605              	.LLST53:
 14606 0c5f 1E050000 		.4byte	.LVL114
 14607 0c63 60050000 		.4byte	.LVL119
 14608 0c67 0100     		.2byte	0x1
 14609 0c69 57       		.byte	0x57
 14610 0c6a E8060000 		.4byte	.LVL157
ARM GAS  C:\Users\pearlstl\AppData\Local\Temp\ccHPSyCj.s 			page 289


 14611 0c6e 22070000 		.4byte	.LVL160
 14612 0c72 0100     		.2byte	0x1
 14613 0c74 57       		.byte	0x57
 14614 0c75 5C070000 		.4byte	.LVL169
 14615 0c79 5E070000 		.4byte	.LVL170
 14616 0c7d 0100     		.2byte	0x1
 14617 0c7f 57       		.byte	0x57
 14618 0c80 62070000 		.4byte	.LVL171
 14619 0c84 64070000 		.4byte	.LVL172
 14620 0c88 0100     		.2byte	0x1
 14621 0c8a 57       		.byte	0x57
 14622 0c8b 00000000 		.4byte	0
 14623 0c8f 00000000 		.4byte	0
 14624              	.LLST54:
 14625 0c93 BC040000 		.4byte	.LVL105
 14626 0c97 C8040000 		.4byte	.LVL106
 14627 0c9b 0300     		.2byte	0x3
 14628 0c9d 91       		.byte	0x91
 14629 0c9e F07E     		.sleb128 -144
 14630 0ca0 00000000 		.4byte	0
 14631 0ca4 00000000 		.4byte	0
 14632              	.LLST55:
 14633 0ca8 BC040000 		.4byte	.LVL105
 14634 0cac 18050000 		.4byte	.LVL113
 14635 0cb0 1200     		.2byte	0x12
 14636 0cb2 79       		.byte	0x79
 14637 0cb3 00       		.sleb128 0
 14638 0cb4 0A       		.byte	0xa
 14639 0cb5 FFFF     		.2byte	0xffff
 14640 0cb7 1A       		.byte	0x1a
 14641 0cb8 77       		.byte	0x77
 14642 0cb9 00       		.sleb128 0
 14643 0cba 08       		.byte	0x8
 14644 0cbb FF       		.byte	0xff
 14645 0cbc 1A       		.byte	0x1a
 14646 0cbd 31       		.byte	0x31
 14647 0cbe 29       		.byte	0x29
 14648 0cbf 08       		.byte	0x8
 14649 0cc0 FF       		.byte	0xff
 14650 0cc1 1A       		.byte	0x1a
 14651 0cc2 1C       		.byte	0x1c
 14652 0cc3 9F       		.byte	0x9f
 14653 0cc4 00000000 		.4byte	0
 14654 0cc8 00000000 		.4byte	0
 14655              	.LLST56:
 14656 0ccc BC040000 		.4byte	.LVL105
 14657 0cd0 CB040000 		.4byte	.LVL107-1
 14658 0cd4 0100     		.2byte	0x1
 14659 0cd6 50       		.byte	0x50
 14660 0cd7 CB040000 		.4byte	.LVL107-1
 14661 0cdb 18050000 		.4byte	.LVL113
 14662 0cdf 0300     		.2byte	0x3
 14663 0ce1 91       		.byte	0x91
 14664 0ce2 C87E     		.sleb128 -184
 14665 0ce4 00000000 		.4byte	0
 14666 0ce8 00000000 		.4byte	0
 14667              	.LLST57:
ARM GAS  C:\Users\pearlstl\AppData\Local\Temp\ccHPSyCj.s 			page 290


 14668 0cec CC040000 		.4byte	.LVL107
 14669 0cf0 EA040000 		.4byte	.LVL110
 14670 0cf4 0100     		.2byte	0x1
 14671 0cf6 50       		.byte	0x50
 14672 0cf7 00000000 		.4byte	0
 14673 0cfb 00000000 		.4byte	0
 14674              	.LLST58:
 14675 0cff DA040000 		.4byte	.LVL108
 14676 0d03 EA040000 		.4byte	.LVL110
 14677 0d07 0200     		.2byte	0x2
 14678 0d09 30       		.byte	0x30
 14679 0d0a 9F       		.byte	0x9f
 14680 0d0b EA040000 		.4byte	.LVL110
 14681 0d0f 18050000 		.4byte	.LVL113
 14682 0d13 0100     		.2byte	0x1
 14683 0d15 53       		.byte	0x53
 14684 0d16 00000000 		.4byte	0
 14685 0d1a 00000000 		.4byte	0
 14686              	.LLST59:
 14687 0d1e BC050000 		.4byte	.LVL125
 14688 0d22 C8050000 		.4byte	.LVL129
 14689 0d26 0700     		.2byte	0x7
 14690 0d28 79       		.byte	0x79
 14691 0d29 00       		.sleb128 0
 14692 0d2a 48       		.byte	0x48
 14693 0d2b 24       		.byte	0x24
 14694 0d2c 48       		.byte	0x48
 14695 0d2d 26       		.byte	0x26
 14696 0d2e 9F       		.byte	0x9f
 14697 0d2f 32070000 		.4byte	.LVL162
 14698 0d33 42070000 		.4byte	.LVL166
 14699 0d37 0700     		.2byte	0x7
 14700 0d39 79       		.byte	0x79
 14701 0d3a 00       		.sleb128 0
 14702 0d3b 48       		.byte	0x48
 14703 0d3c 24       		.byte	0x24
 14704 0d3d 48       		.byte	0x48
 14705 0d3e 26       		.byte	0x26
 14706 0d3f 9F       		.byte	0x9f
 14707 0d40 00000000 		.4byte	0
 14708 0d44 00000000 		.4byte	0
 14709              	.LLST60:
 14710 0d48 BC050000 		.4byte	.LVL125
 14711 0d4c C8050000 		.4byte	.LVL129
 14712 0d50 0700     		.2byte	0x7
 14713 0d52 77       		.byte	0x77
 14714 0d53 00       		.sleb128 0
 14715 0d54 0A       		.byte	0xa
 14716 0d55 FFFF     		.2byte	0xffff
 14717 0d57 1A       		.byte	0x1a
 14718 0d58 9F       		.byte	0x9f
 14719 0d59 32070000 		.4byte	.LVL162
 14720 0d5d 42070000 		.4byte	.LVL166
 14721 0d61 0700     		.2byte	0x7
 14722 0d63 77       		.byte	0x77
 14723 0d64 00       		.sleb128 0
 14724 0d65 0A       		.byte	0xa
ARM GAS  C:\Users\pearlstl\AppData\Local\Temp\ccHPSyCj.s 			page 291


 14725 0d66 FFFF     		.2byte	0xffff
 14726 0d68 1A       		.byte	0x1a
 14727 0d69 9F       		.byte	0x9f
 14728 0d6a 00000000 		.4byte	0
 14729 0d6e 00000000 		.4byte	0
 14730              	.LLST61:
 14731 0d72 BC050000 		.4byte	.LVL125
 14732 0d76 BF050000 		.4byte	.LVL126-1
 14733 0d7a 0100     		.2byte	0x1
 14734 0d7c 50       		.byte	0x50
 14735 0d7d BF050000 		.4byte	.LVL126-1
 14736 0d81 18060000 		.4byte	.LVL135
 14737 0d85 0300     		.2byte	0x3
 14738 0d87 91       		.byte	0x91
 14739 0d88 C87E     		.sleb128 -184
 14740 0d8a 32070000 		.4byte	.LVL162
 14741 0d8e 35070000 		.4byte	.LVL163-1
 14742 0d92 0100     		.2byte	0x1
 14743 0d94 50       		.byte	0x50
 14744 0d95 35070000 		.4byte	.LVL163-1
 14745 0d99 42070000 		.4byte	.LVL166
 14746 0d9d 0300     		.2byte	0x3
 14747 0d9f 91       		.byte	0x91
 14748 0da0 C87E     		.sleb128 -184
 14749 0da2 00000000 		.4byte	0
 14750 0da6 00000000 		.4byte	0
 14751              	.LLST62:
 14752 0daa C2050000 		.4byte	.LVL127
 14753 0dae C4050000 		.4byte	.LVL128
 14754 0db2 0100     		.2byte	0x1
 14755 0db4 50       		.byte	0x50
 14756 0db5 C4050000 		.4byte	.LVL128
 14757 0db9 D6050000 		.4byte	.LVL131
 14758 0dbd 0100     		.2byte	0x1
 14759 0dbf 53       		.byte	0x53
 14760 0dc0 38070000 		.4byte	.LVL164
 14761 0dc4 3A070000 		.4byte	.LVL165
 14762 0dc8 0100     		.2byte	0x1
 14763 0dca 50       		.byte	0x50
 14764 0dcb 3A070000 		.4byte	.LVL165
 14765 0dcf 42070000 		.4byte	.LVL166
 14766 0dd3 0100     		.2byte	0x1
 14767 0dd5 53       		.byte	0x53
 14768 0dd6 00000000 		.4byte	0
 14769 0dda 00000000 		.4byte	0
 14770              	.LLST63:
 14771 0dde CC050000 		.4byte	.LVL130
 14772 0de2 D8050000 		.4byte	.LVL132
 14773 0de6 0200     		.2byte	0x2
 14774 0de8 30       		.byte	0x30
 14775 0de9 9F       		.byte	0x9f
 14776 0dea D8050000 		.4byte	.LVL132
 14777 0dee 18060000 		.4byte	.LVL135
 14778 0df2 0100     		.2byte	0x1
 14779 0df4 53       		.byte	0x53
 14780 0df5 00000000 		.4byte	0
 14781 0df9 00000000 		.4byte	0
ARM GAS  C:\Users\pearlstl\AppData\Local\Temp\ccHPSyCj.s 			page 292


 14782              	.LLST64:
 14783 0dfd 28060000 		.4byte	.LVL138
 14784 0e01 2A060000 		.4byte	.LVL139
 14785 0e05 0300     		.2byte	0x3
 14786 0e07 72       		.byte	0x72
 14787 0e08 7F       		.sleb128 -1
 14788 0e09 9F       		.byte	0x9f
 14789 0e0a 2A060000 		.4byte	.LVL139
 14790 0e0e 30060000 		.4byte	.LVL140
 14791 0e12 0100     		.2byte	0x1
 14792 0e14 54       		.byte	0x54
 14793 0e15 30060000 		.4byte	.LVL140
 14794 0e19 34060000 		.4byte	.LVL141
 14795 0e1d 0300     		.2byte	0x3
 14796 0e1f 72       		.byte	0x72
 14797 0e20 7F       		.sleb128 -1
 14798 0e21 9F       		.byte	0x9f
 14799 0e22 34060000 		.4byte	.LVL141
 14800 0e26 3A060000 		.4byte	.LVL142
 14801 0e2a 0100     		.2byte	0x1
 14802 0e2c 54       		.byte	0x54
 14803 0e2d 3A060000 		.4byte	.LVL142
 14804 0e31 3C060000 		.4byte	.LVL143
 14805 0e35 0E00     		.2byte	0xe
 14806 0e37 72       		.byte	0x72
 14807 0e38 0B       		.sleb128 11
 14808 0e39 72       		.byte	0x72
 14809 0e3a 7F       		.sleb128 -1
 14810 0e3b 72       		.byte	0x72
 14811 0e3c 7F       		.sleb128 -1
 14812 0e3d 30       		.byte	0x30
 14813 0e3e 2D       		.byte	0x2d
 14814 0e3f 28       		.byte	0x28
 14815 0e40 0100     		.2byte	0x1
 14816 0e42 16       		.byte	0x16
 14817 0e43 13       		.byte	0x13
 14818 0e44 9F       		.byte	0x9f
 14819 0e45 3C060000 		.4byte	.LVL143
 14820 0e49 66060000 		.4byte	.LVL147
 14821 0e4d 0100     		.2byte	0x1
 14822 0e4f 54       		.byte	0x54
 14823 0e50 64070000 		.4byte	.LVL172
 14824 0e54 72070000 		.4byte	.LVL173
 14825 0e58 0100     		.2byte	0x1
 14826 0e5a 54       		.byte	0x54
 14827 0e5b 72070000 		.4byte	.LVL173
 14828 0e5f 8E070000 		.4byte	.LVL175
 14829 0e63 7900     		.2byte	0x79
 14830 0e65 78       		.byte	0x78
 14831 0e66 06       		.sleb128 6
 14832 0e67 94       		.byte	0x94
 14833 0e68 01       		.byte	0x1
 14834 0e69 48       		.byte	0x48
 14835 0e6a 24       		.byte	0x24
 14836 0e6b 48       		.byte	0x48
 14837 0e6c 26       		.byte	0x26
 14838 0e6d 23       		.byte	0x23
ARM GAS  C:\Users\pearlstl\AppData\Local\Temp\ccHPSyCj.s 			page 293


 14839 0e6e 0B       		.uleb128 0xb
 14840 0e6f 78       		.byte	0x78
 14841 0e70 06       		.sleb128 6
 14842 0e71 94       		.byte	0x94
 14843 0e72 01       		.byte	0x1
 14844 0e73 48       		.byte	0x48
 14845 0e74 24       		.byte	0x24
 14846 0e75 48       		.byte	0x48
 14847 0e76 26       		.byte	0x26
 14848 0e77 31       		.byte	0x31
 14849 0e78 1C       		.byte	0x1c
 14850 0e79 78       		.byte	0x78
 14851 0e7a 06       		.sleb128 6
 14852 0e7b 94       		.byte	0x94
 14853 0e7c 01       		.byte	0x1
 14854 0e7d 48       		.byte	0x48
 14855 0e7e 24       		.byte	0x24
 14856 0e7f 48       		.byte	0x48
 14857 0e80 26       		.byte	0x26
 14858 0e81 31       		.byte	0x31
 14859 0e82 1C       		.byte	0x1c
 14860 0e83 30       		.byte	0x30
 14861 0e84 2D       		.byte	0x2d
 14862 0e85 28       		.byte	0x28
 14863 0e86 0100     		.2byte	0x1
 14864 0e88 16       		.byte	0x16
 14865 0e89 13       		.byte	0x13
 14866 0e8a 3C       		.byte	0x3c
 14867 0e8b 1C       		.byte	0x1c
 14868 0e8c 78       		.byte	0x78
 14869 0e8d 06       		.sleb128 6
 14870 0e8e 94       		.byte	0x94
 14871 0e8f 01       		.byte	0x1
 14872 0e90 48       		.byte	0x48
 14873 0e91 24       		.byte	0x24
 14874 0e92 48       		.byte	0x48
 14875 0e93 26       		.byte	0x26
 14876 0e94 23       		.byte	0x23
 14877 0e95 0B       		.uleb128 0xb
 14878 0e96 78       		.byte	0x78
 14879 0e97 06       		.sleb128 6
 14880 0e98 94       		.byte	0x94
 14881 0e99 01       		.byte	0x1
 14882 0e9a 48       		.byte	0x48
 14883 0e9b 24       		.byte	0x24
 14884 0e9c 48       		.byte	0x48
 14885 0e9d 26       		.byte	0x26
 14886 0e9e 31       		.byte	0x31
 14887 0e9f 1C       		.byte	0x1c
 14888 0ea0 78       		.byte	0x78
 14889 0ea1 06       		.sleb128 6
 14890 0ea2 94       		.byte	0x94
 14891 0ea3 01       		.byte	0x1
 14892 0ea4 48       		.byte	0x48
 14893 0ea5 24       		.byte	0x24
 14894 0ea6 48       		.byte	0x48
 14895 0ea7 26       		.byte	0x26
ARM GAS  C:\Users\pearlstl\AppData\Local\Temp\ccHPSyCj.s 			page 294


 14896 0ea8 31       		.byte	0x31
 14897 0ea9 1C       		.byte	0x1c
 14898 0eaa 30       		.byte	0x30
 14899 0eab 2D       		.byte	0x2d
 14900 0eac 28       		.byte	0x28
 14901 0ead 0100     		.2byte	0x1
 14902 0eaf 16       		.byte	0x16
 14903 0eb0 13       		.byte	0x13
 14904 0eb1 78       		.byte	0x78
 14905 0eb2 06       		.sleb128 6
 14906 0eb3 94       		.byte	0x94
 14907 0eb4 01       		.byte	0x1
 14908 0eb5 48       		.byte	0x48
 14909 0eb6 24       		.byte	0x24
 14910 0eb7 48       		.byte	0x48
 14911 0eb8 26       		.byte	0x26
 14912 0eb9 23       		.byte	0x23
 14913 0eba 0B       		.uleb128 0xb
 14914 0ebb 78       		.byte	0x78
 14915 0ebc 06       		.sleb128 6
 14916 0ebd 94       		.byte	0x94
 14917 0ebe 01       		.byte	0x1
 14918 0ebf 48       		.byte	0x48
 14919 0ec0 24       		.byte	0x24
 14920 0ec1 48       		.byte	0x48
 14921 0ec2 26       		.byte	0x26
 14922 0ec3 31       		.byte	0x31
 14923 0ec4 1C       		.byte	0x1c
 14924 0ec5 78       		.byte	0x78
 14925 0ec6 06       		.sleb128 6
 14926 0ec7 94       		.byte	0x94
 14927 0ec8 01       		.byte	0x1
 14928 0ec9 48       		.byte	0x48
 14929 0eca 24       		.byte	0x24
 14930 0ecb 48       		.byte	0x48
 14931 0ecc 26       		.byte	0x26
 14932 0ecd 31       		.byte	0x31
 14933 0ece 1C       		.byte	0x1c
 14934 0ecf 30       		.byte	0x30
 14935 0ed0 2D       		.byte	0x2d
 14936 0ed1 28       		.byte	0x28
 14937 0ed2 0100     		.2byte	0x1
 14938 0ed4 16       		.byte	0x16
 14939 0ed5 13       		.byte	0x13
 14940 0ed6 3B       		.byte	0x3b
 14941 0ed7 2B       		.byte	0x2b
 14942 0ed8 28       		.byte	0x28
 14943 0ed9 0100     		.2byte	0x1
 14944 0edb 16       		.byte	0x16
 14945 0edc 13       		.byte	0x13
 14946 0edd 9F       		.byte	0x9f
 14947 0ede 94070000 		.4byte	.LVL176
 14948 0ee2 A2070000 		.4byte	.LVL179
 14949 0ee6 0100     		.2byte	0x1
 14950 0ee8 54       		.byte	0x54
 14951 0ee9 4E080000 		.4byte	.LVL190
 14952 0eed 52080000 		.4byte	.LVL192
ARM GAS  C:\Users\pearlstl\AppData\Local\Temp\ccHPSyCj.s 			page 295


 14953 0ef1 7900     		.2byte	0x79
 14954 0ef3 78       		.byte	0x78
 14955 0ef4 06       		.sleb128 6
 14956 0ef5 94       		.byte	0x94
 14957 0ef6 01       		.byte	0x1
 14958 0ef7 48       		.byte	0x48
 14959 0ef8 24       		.byte	0x24
 14960 0ef9 48       		.byte	0x48
 14961 0efa 26       		.byte	0x26
 14962 0efb 23       		.byte	0x23
 14963 0efc 0B       		.uleb128 0xb
 14964 0efd 78       		.byte	0x78
 14965 0efe 06       		.sleb128 6
 14966 0eff 94       		.byte	0x94
 14967 0f00 01       		.byte	0x1
 14968 0f01 48       		.byte	0x48
 14969 0f02 24       		.byte	0x24
 14970 0f03 48       		.byte	0x48
 14971 0f04 26       		.byte	0x26
 14972 0f05 31       		.byte	0x31
 14973 0f06 1C       		.byte	0x1c
 14974 0f07 78       		.byte	0x78
 14975 0f08 06       		.sleb128 6
 14976 0f09 94       		.byte	0x94
 14977 0f0a 01       		.byte	0x1
 14978 0f0b 48       		.byte	0x48
 14979 0f0c 24       		.byte	0x24
 14980 0f0d 48       		.byte	0x48
 14981 0f0e 26       		.byte	0x26
 14982 0f0f 31       		.byte	0x31
 14983 0f10 1C       		.byte	0x1c
 14984 0f11 30       		.byte	0x30
 14985 0f12 2D       		.byte	0x2d
 14986 0f13 28       		.byte	0x28
 14987 0f14 0100     		.2byte	0x1
 14988 0f16 16       		.byte	0x16
 14989 0f17 13       		.byte	0x13
 14990 0f18 3C       		.byte	0x3c
 14991 0f19 1C       		.byte	0x1c
 14992 0f1a 78       		.byte	0x78
 14993 0f1b 06       		.sleb128 6
 14994 0f1c 94       		.byte	0x94
 14995 0f1d 01       		.byte	0x1
 14996 0f1e 48       		.byte	0x48
 14997 0f1f 24       		.byte	0x24
 14998 0f20 48       		.byte	0x48
 14999 0f21 26       		.byte	0x26
 15000 0f22 23       		.byte	0x23
 15001 0f23 0B       		.uleb128 0xb
 15002 0f24 78       		.byte	0x78
 15003 0f25 06       		.sleb128 6
 15004 0f26 94       		.byte	0x94
 15005 0f27 01       		.byte	0x1
 15006 0f28 48       		.byte	0x48
 15007 0f29 24       		.byte	0x24
 15008 0f2a 48       		.byte	0x48
 15009 0f2b 26       		.byte	0x26
ARM GAS  C:\Users\pearlstl\AppData\Local\Temp\ccHPSyCj.s 			page 296


 15010 0f2c 31       		.byte	0x31
 15011 0f2d 1C       		.byte	0x1c
 15012 0f2e 78       		.byte	0x78
 15013 0f2f 06       		.sleb128 6
 15014 0f30 94       		.byte	0x94
 15015 0f31 01       		.byte	0x1
 15016 0f32 48       		.byte	0x48
 15017 0f33 24       		.byte	0x24
 15018 0f34 48       		.byte	0x48
 15019 0f35 26       		.byte	0x26
 15020 0f36 31       		.byte	0x31
 15021 0f37 1C       		.byte	0x1c
 15022 0f38 30       		.byte	0x30
 15023 0f39 2D       		.byte	0x2d
 15024 0f3a 28       		.byte	0x28
 15025 0f3b 0100     		.2byte	0x1
 15026 0f3d 16       		.byte	0x16
 15027 0f3e 13       		.byte	0x13
 15028 0f3f 78       		.byte	0x78
 15029 0f40 06       		.sleb128 6
 15030 0f41 94       		.byte	0x94
 15031 0f42 01       		.byte	0x1
 15032 0f43 48       		.byte	0x48
 15033 0f44 24       		.byte	0x24
 15034 0f45 48       		.byte	0x48
 15035 0f46 26       		.byte	0x26
 15036 0f47 23       		.byte	0x23
 15037 0f48 0B       		.uleb128 0xb
 15038 0f49 78       		.byte	0x78
 15039 0f4a 06       		.sleb128 6
 15040 0f4b 94       		.byte	0x94
 15041 0f4c 01       		.byte	0x1
 15042 0f4d 48       		.byte	0x48
 15043 0f4e 24       		.byte	0x24
 15044 0f4f 48       		.byte	0x48
 15045 0f50 26       		.byte	0x26
 15046 0f51 31       		.byte	0x31
 15047 0f52 1C       		.byte	0x1c
 15048 0f53 78       		.byte	0x78
 15049 0f54 06       		.sleb128 6
 15050 0f55 94       		.byte	0x94
 15051 0f56 01       		.byte	0x1
 15052 0f57 48       		.byte	0x48
 15053 0f58 24       		.byte	0x24
 15054 0f59 48       		.byte	0x48
 15055 0f5a 26       		.byte	0x26
 15056 0f5b 31       		.byte	0x31
 15057 0f5c 1C       		.byte	0x1c
 15058 0f5d 30       		.byte	0x30
 15059 0f5e 2D       		.byte	0x2d
 15060 0f5f 28       		.byte	0x28
 15061 0f60 0100     		.2byte	0x1
 15062 0f62 16       		.byte	0x16
 15063 0f63 13       		.byte	0x13
 15064 0f64 3B       		.byte	0x3b
 15065 0f65 2B       		.byte	0x2b
 15066 0f66 28       		.byte	0x28
ARM GAS  C:\Users\pearlstl\AppData\Local\Temp\ccHPSyCj.s 			page 297


 15067 0f67 0100     		.2byte	0x1
 15068 0f69 16       		.byte	0x16
 15069 0f6a 13       		.byte	0x13
 15070 0f6b 9F       		.byte	0x9f
 15071 0f6c 00000000 		.4byte	0
 15072 0f70 00000000 		.4byte	0
 15073              	.LLST65:
 15074 0f74 28060000 		.4byte	.LVL138
 15075 0f78 4A060000 		.4byte	.LVL145
 15076 0f7c 0100     		.2byte	0x1
 15077 0f7e 51       		.byte	0x51
 15078 0f7f 4A060000 		.4byte	.LVL145
 15079 0f83 66060000 		.4byte	.LVL147
 15080 0f87 7500     		.2byte	0x75
 15081 0f89 78       		.byte	0x78
 15082 0f8a 04       		.sleb128 4
 15083 0f8b 94       		.byte	0x94
 15084 0f8c 02       		.byte	0x2
 15085 0f8d 0A       		.byte	0xa
 15086 0f8e FFFF     		.2byte	0xffff
 15087 0f90 1A       		.byte	0x1a
 15088 0f91 31       		.byte	0x31
 15089 0f92 1C       		.byte	0x1c
 15090 0f93 78       		.byte	0x78
 15091 0f94 04       		.sleb128 4
 15092 0f95 94       		.byte	0x94
 15093 0f96 02       		.byte	0x2
 15094 0f97 0A       		.byte	0xa
 15095 0f98 FFFF     		.2byte	0xffff
 15096 0f9a 1A       		.byte	0x1a
 15097 0f9b 78       		.byte	0x78
 15098 0f9c 06       		.sleb128 6
 15099 0f9d 94       		.byte	0x94
 15100 0f9e 01       		.byte	0x1
 15101 0f9f 48       		.byte	0x48
 15102 0fa0 24       		.byte	0x24
 15103 0fa1 48       		.byte	0x48
 15104 0fa2 26       		.byte	0x26
 15105 0fa3 31       		.byte	0x31
 15106 0fa4 1C       		.byte	0x1c
 15107 0fa5 30       		.byte	0x30
 15108 0fa6 2D       		.byte	0x2d
 15109 0fa7 28       		.byte	0x28
 15110 0fa8 0100     		.2byte	0x1
 15111 0faa 16       		.byte	0x16
 15112 0fab 13       		.byte	0x13
 15113 0fac 23       		.byte	0x23
 15114 0fad 01       		.uleb128 0x1
 15115 0fae 78       		.byte	0x78
 15116 0faf 04       		.sleb128 4
 15117 0fb0 94       		.byte	0x94
 15118 0fb1 02       		.byte	0x2
 15119 0fb2 0A       		.byte	0xa
 15120 0fb3 FFFF     		.2byte	0xffff
 15121 0fb5 1A       		.byte	0x1a
 15122 0fb6 31       		.byte	0x31
 15123 0fb7 1C       		.byte	0x1c
ARM GAS  C:\Users\pearlstl\AppData\Local\Temp\ccHPSyCj.s 			page 298


 15124 0fb8 78       		.byte	0x78
 15125 0fb9 04       		.sleb128 4
 15126 0fba 94       		.byte	0x94
 15127 0fbb 02       		.byte	0x2
 15128 0fbc 0A       		.byte	0xa
 15129 0fbd FFFF     		.2byte	0xffff
 15130 0fbf 1A       		.byte	0x1a
 15131 0fc0 78       		.byte	0x78
 15132 0fc1 06       		.sleb128 6
 15133 0fc2 94       		.byte	0x94
 15134 0fc3 01       		.byte	0x1
 15135 0fc4 48       		.byte	0x48
 15136 0fc5 24       		.byte	0x24
 15137 0fc6 48       		.byte	0x48
 15138 0fc7 26       		.byte	0x26
 15139 0fc8 31       		.byte	0x31
 15140 0fc9 1C       		.byte	0x1c
 15141 0fca 30       		.byte	0x30
 15142 0fcb 2D       		.byte	0x2d
 15143 0fcc 28       		.byte	0x28
 15144 0fcd 0100     		.2byte	0x1
 15145 0fcf 16       		.byte	0x16
 15146 0fd0 13       		.byte	0x13
 15147 0fd1 78       		.byte	0x78
 15148 0fd2 06       		.sleb128 6
 15149 0fd3 94       		.byte	0x94
 15150 0fd4 01       		.byte	0x1
 15151 0fd5 48       		.byte	0x48
 15152 0fd6 24       		.byte	0x24
 15153 0fd7 48       		.byte	0x48
 15154 0fd8 26       		.byte	0x26
 15155 0fd9 23       		.byte	0x23
 15156 0fda 0B       		.uleb128 0xb
 15157 0fdb 78       		.byte	0x78
 15158 0fdc 06       		.sleb128 6
 15159 0fdd 94       		.byte	0x94
 15160 0fde 01       		.byte	0x1
 15161 0fdf 48       		.byte	0x48
 15162 0fe0 24       		.byte	0x24
 15163 0fe1 48       		.byte	0x48
 15164 0fe2 26       		.byte	0x26
 15165 0fe3 31       		.byte	0x31
 15166 0fe4 1C       		.byte	0x1c
 15167 0fe5 78       		.byte	0x78
 15168 0fe6 06       		.sleb128 6
 15169 0fe7 94       		.byte	0x94
 15170 0fe8 01       		.byte	0x1
 15171 0fe9 48       		.byte	0x48
 15172 0fea 24       		.byte	0x24
 15173 0feb 48       		.byte	0x48
 15174 0fec 26       		.byte	0x26
 15175 0fed 31       		.byte	0x31
 15176 0fee 1C       		.byte	0x1c
 15177 0fef 30       		.byte	0x30
 15178 0ff0 2D       		.byte	0x2d
 15179 0ff1 28       		.byte	0x28
 15180 0ff2 0100     		.2byte	0x1
ARM GAS  C:\Users\pearlstl\AppData\Local\Temp\ccHPSyCj.s 			page 299


 15181 0ff4 16       		.byte	0x16
 15182 0ff5 13       		.byte	0x13
 15183 0ff6 3B       		.byte	0x3b
 15184 0ff7 2B       		.byte	0x2b
 15185 0ff8 28       		.byte	0x28
 15186 0ff9 0100     		.2byte	0x1
 15187 0ffb 16       		.byte	0x16
 15188 0ffc 13       		.byte	0x13
 15189 0ffd 9F       		.byte	0x9f
 15190 0ffe 64070000 		.4byte	.LVL172
 15191 1002 84070000 		.4byte	.LVL174
 15192 1006 0100     		.2byte	0x1
 15193 1008 51       		.byte	0x51
 15194 1009 84070000 		.4byte	.LVL174
 15195 100d 8E070000 		.4byte	.LVL175
 15196 1011 7500     		.2byte	0x75
 15197 1013 78       		.byte	0x78
 15198 1014 04       		.sleb128 4
 15199 1015 94       		.byte	0x94
 15200 1016 02       		.byte	0x2
 15201 1017 0A       		.byte	0xa
 15202 1018 FFFF     		.2byte	0xffff
 15203 101a 1A       		.byte	0x1a
 15204 101b 31       		.byte	0x31
 15205 101c 1C       		.byte	0x1c
 15206 101d 78       		.byte	0x78
 15207 101e 04       		.sleb128 4
 15208 101f 94       		.byte	0x94
 15209 1020 02       		.byte	0x2
 15210 1021 0A       		.byte	0xa
 15211 1022 FFFF     		.2byte	0xffff
 15212 1024 1A       		.byte	0x1a
 15213 1025 78       		.byte	0x78
 15214 1026 06       		.sleb128 6
 15215 1027 94       		.byte	0x94
 15216 1028 01       		.byte	0x1
 15217 1029 48       		.byte	0x48
 15218 102a 24       		.byte	0x24
 15219 102b 48       		.byte	0x48
 15220 102c 26       		.byte	0x26
 15221 102d 31       		.byte	0x31
 15222 102e 1C       		.byte	0x1c
 15223 102f 30       		.byte	0x30
 15224 1030 2D       		.byte	0x2d
 15225 1031 28       		.byte	0x28
 15226 1032 0100     		.2byte	0x1
 15227 1034 16       		.byte	0x16
 15228 1035 13       		.byte	0x13
 15229 1036 23       		.byte	0x23
 15230 1037 01       		.uleb128 0x1
 15231 1038 78       		.byte	0x78
 15232 1039 04       		.sleb128 4
 15233 103a 94       		.byte	0x94
 15234 103b 02       		.byte	0x2
 15235 103c 0A       		.byte	0xa
 15236 103d FFFF     		.2byte	0xffff
 15237 103f 1A       		.byte	0x1a
ARM GAS  C:\Users\pearlstl\AppData\Local\Temp\ccHPSyCj.s 			page 300


 15238 1040 31       		.byte	0x31
 15239 1041 1C       		.byte	0x1c
 15240 1042 78       		.byte	0x78
 15241 1043 04       		.sleb128 4
 15242 1044 94       		.byte	0x94
 15243 1045 02       		.byte	0x2
 15244 1046 0A       		.byte	0xa
 15245 1047 FFFF     		.2byte	0xffff
 15246 1049 1A       		.byte	0x1a
 15247 104a 78       		.byte	0x78
 15248 104b 06       		.sleb128 6
 15249 104c 94       		.byte	0x94
 15250 104d 01       		.byte	0x1
 15251 104e 48       		.byte	0x48
 15252 104f 24       		.byte	0x24
 15253 1050 48       		.byte	0x48
 15254 1051 26       		.byte	0x26
 15255 1052 31       		.byte	0x31
 15256 1053 1C       		.byte	0x1c
 15257 1054 30       		.byte	0x30
 15258 1055 2D       		.byte	0x2d
 15259 1056 28       		.byte	0x28
 15260 1057 0100     		.2byte	0x1
 15261 1059 16       		.byte	0x16
 15262 105a 13       		.byte	0x13
 15263 105b 78       		.byte	0x78
 15264 105c 06       		.sleb128 6
 15265 105d 94       		.byte	0x94
 15266 105e 01       		.byte	0x1
 15267 105f 48       		.byte	0x48
 15268 1060 24       		.byte	0x24
 15269 1061 48       		.byte	0x48
 15270 1062 26       		.byte	0x26
 15271 1063 23       		.byte	0x23
 15272 1064 0B       		.uleb128 0xb
 15273 1065 78       		.byte	0x78
 15274 1066 06       		.sleb128 6
 15275 1067 94       		.byte	0x94
 15276 1068 01       		.byte	0x1
 15277 1069 48       		.byte	0x48
 15278 106a 24       		.byte	0x24
 15279 106b 48       		.byte	0x48
 15280 106c 26       		.byte	0x26
 15281 106d 31       		.byte	0x31
 15282 106e 1C       		.byte	0x1c
 15283 106f 78       		.byte	0x78
 15284 1070 06       		.sleb128 6
 15285 1071 94       		.byte	0x94
 15286 1072 01       		.byte	0x1
 15287 1073 48       		.byte	0x48
 15288 1074 24       		.byte	0x24
 15289 1075 48       		.byte	0x48
 15290 1076 26       		.byte	0x26
 15291 1077 31       		.byte	0x31
 15292 1078 1C       		.byte	0x1c
 15293 1079 30       		.byte	0x30
 15294 107a 2D       		.byte	0x2d
ARM GAS  C:\Users\pearlstl\AppData\Local\Temp\ccHPSyCj.s 			page 301


 15295 107b 28       		.byte	0x28
 15296 107c 0100     		.2byte	0x1
 15297 107e 16       		.byte	0x16
 15298 107f 13       		.byte	0x13
 15299 1080 3B       		.byte	0x3b
 15300 1081 2B       		.byte	0x2b
 15301 1082 28       		.byte	0x28
 15302 1083 0100     		.2byte	0x1
 15303 1085 16       		.byte	0x16
 15304 1086 13       		.byte	0x13
 15305 1087 9F       		.byte	0x9f
 15306 1088 94070000 		.4byte	.LVL176
 15307 108c 9E070000 		.4byte	.LVL177
 15308 1090 7500     		.2byte	0x75
 15309 1092 78       		.byte	0x78
 15310 1093 04       		.sleb128 4
 15311 1094 94       		.byte	0x94
 15312 1095 02       		.byte	0x2
 15313 1096 0A       		.byte	0xa
 15314 1097 FFFF     		.2byte	0xffff
 15315 1099 1A       		.byte	0x1a
 15316 109a 31       		.byte	0x31
 15317 109b 1C       		.byte	0x1c
 15318 109c 78       		.byte	0x78
 15319 109d 04       		.sleb128 4
 15320 109e 94       		.byte	0x94
 15321 109f 02       		.byte	0x2
 15322 10a0 0A       		.byte	0xa
 15323 10a1 FFFF     		.2byte	0xffff
 15324 10a3 1A       		.byte	0x1a
 15325 10a4 78       		.byte	0x78
 15326 10a5 06       		.sleb128 6
 15327 10a6 94       		.byte	0x94
 15328 10a7 01       		.byte	0x1
 15329 10a8 48       		.byte	0x48
 15330 10a9 24       		.byte	0x24
 15331 10aa 48       		.byte	0x48
 15332 10ab 26       		.byte	0x26
 15333 10ac 31       		.byte	0x31
 15334 10ad 1C       		.byte	0x1c
 15335 10ae 30       		.byte	0x30
 15336 10af 2D       		.byte	0x2d
 15337 10b0 28       		.byte	0x28
 15338 10b1 0100     		.2byte	0x1
 15339 10b3 16       		.byte	0x16
 15340 10b4 13       		.byte	0x13
 15341 10b5 23       		.byte	0x23
 15342 10b6 01       		.uleb128 0x1
 15343 10b7 78       		.byte	0x78
 15344 10b8 04       		.sleb128 4
 15345 10b9 94       		.byte	0x94
 15346 10ba 02       		.byte	0x2
 15347 10bb 0A       		.byte	0xa
 15348 10bc FFFF     		.2byte	0xffff
 15349 10be 1A       		.byte	0x1a
 15350 10bf 31       		.byte	0x31
 15351 10c0 1C       		.byte	0x1c
ARM GAS  C:\Users\pearlstl\AppData\Local\Temp\ccHPSyCj.s 			page 302


 15352 10c1 78       		.byte	0x78
 15353 10c2 04       		.sleb128 4
 15354 10c3 94       		.byte	0x94
 15355 10c4 02       		.byte	0x2
 15356 10c5 0A       		.byte	0xa
 15357 10c6 FFFF     		.2byte	0xffff
 15358 10c8 1A       		.byte	0x1a
 15359 10c9 78       		.byte	0x78
 15360 10ca 06       		.sleb128 6
 15361 10cb 94       		.byte	0x94
 15362 10cc 01       		.byte	0x1
 15363 10cd 48       		.byte	0x48
 15364 10ce 24       		.byte	0x24
 15365 10cf 48       		.byte	0x48
 15366 10d0 26       		.byte	0x26
 15367 10d1 31       		.byte	0x31
 15368 10d2 1C       		.byte	0x1c
 15369 10d3 30       		.byte	0x30
 15370 10d4 2D       		.byte	0x2d
 15371 10d5 28       		.byte	0x28
 15372 10d6 0100     		.2byte	0x1
 15373 10d8 16       		.byte	0x16
 15374 10d9 13       		.byte	0x13
 15375 10da 78       		.byte	0x78
 15376 10db 06       		.sleb128 6
 15377 10dc 94       		.byte	0x94
 15378 10dd 01       		.byte	0x1
 15379 10de 48       		.byte	0x48
 15380 10df 24       		.byte	0x24
 15381 10e0 48       		.byte	0x48
 15382 10e1 26       		.byte	0x26
 15383 10e2 23       		.byte	0x23
 15384 10e3 0B       		.uleb128 0xb
 15385 10e4 78       		.byte	0x78
 15386 10e5 06       		.sleb128 6
 15387 10e6 94       		.byte	0x94
 15388 10e7 01       		.byte	0x1
 15389 10e8 48       		.byte	0x48
 15390 10e9 24       		.byte	0x24
 15391 10ea 48       		.byte	0x48
 15392 10eb 26       		.byte	0x26
 15393 10ec 31       		.byte	0x31
 15394 10ed 1C       		.byte	0x1c
 15395 10ee 78       		.byte	0x78
 15396 10ef 06       		.sleb128 6
 15397 10f0 94       		.byte	0x94
 15398 10f1 01       		.byte	0x1
 15399 10f2 48       		.byte	0x48
 15400 10f3 24       		.byte	0x24
 15401 10f4 48       		.byte	0x48
 15402 10f5 26       		.byte	0x26
 15403 10f6 31       		.byte	0x31
 15404 10f7 1C       		.byte	0x1c
 15405 10f8 30       		.byte	0x30
 15406 10f9 2D       		.byte	0x2d
 15407 10fa 28       		.byte	0x28
 15408 10fb 0100     		.2byte	0x1
ARM GAS  C:\Users\pearlstl\AppData\Local\Temp\ccHPSyCj.s 			page 303


 15409 10fd 16       		.byte	0x16
 15410 10fe 13       		.byte	0x13
 15411 10ff 3B       		.byte	0x3b
 15412 1100 2B       		.byte	0x2b
 15413 1101 28       		.byte	0x28
 15414 1102 0100     		.2byte	0x1
 15415 1104 16       		.byte	0x16
 15416 1105 13       		.byte	0x13
 15417 1106 9F       		.byte	0x9f
 15418 1107 9E070000 		.4byte	.LVL177
 15419 110b A0070000 		.4byte	.LVL178
 15420 110f 0100     		.2byte	0x1
 15421 1111 51       		.byte	0x51
 15422 1112 A0070000 		.4byte	.LVL178
 15423 1116 A2070000 		.4byte	.LVL179
 15424 111a 7500     		.2byte	0x75
 15425 111c 78       		.byte	0x78
 15426 111d 04       		.sleb128 4
 15427 111e 94       		.byte	0x94
 15428 111f 02       		.byte	0x2
 15429 1120 0A       		.byte	0xa
 15430 1121 FFFF     		.2byte	0xffff
 15431 1123 1A       		.byte	0x1a
 15432 1124 31       		.byte	0x31
 15433 1125 1C       		.byte	0x1c
 15434 1126 78       		.byte	0x78
 15435 1127 04       		.sleb128 4
 15436 1128 94       		.byte	0x94
 15437 1129 02       		.byte	0x2
 15438 112a 0A       		.byte	0xa
 15439 112b FFFF     		.2byte	0xffff
 15440 112d 1A       		.byte	0x1a
 15441 112e 78       		.byte	0x78
 15442 112f 06       		.sleb128 6
 15443 1130 94       		.byte	0x94
 15444 1131 01       		.byte	0x1
 15445 1132 48       		.byte	0x48
 15446 1133 24       		.byte	0x24
 15447 1134 48       		.byte	0x48
 15448 1135 26       		.byte	0x26
 15449 1136 31       		.byte	0x31
 15450 1137 1C       		.byte	0x1c
 15451 1138 30       		.byte	0x30
 15452 1139 2D       		.byte	0x2d
 15453 113a 28       		.byte	0x28
 15454 113b 0100     		.2byte	0x1
 15455 113d 16       		.byte	0x16
 15456 113e 13       		.byte	0x13
 15457 113f 23       		.byte	0x23
 15458 1140 01       		.uleb128 0x1
 15459 1141 78       		.byte	0x78
 15460 1142 04       		.sleb128 4
 15461 1143 94       		.byte	0x94
 15462 1144 02       		.byte	0x2
 15463 1145 0A       		.byte	0xa
 15464 1146 FFFF     		.2byte	0xffff
 15465 1148 1A       		.byte	0x1a
ARM GAS  C:\Users\pearlstl\AppData\Local\Temp\ccHPSyCj.s 			page 304


 15466 1149 31       		.byte	0x31
 15467 114a 1C       		.byte	0x1c
 15468 114b 78       		.byte	0x78
 15469 114c 04       		.sleb128 4
 15470 114d 94       		.byte	0x94
 15471 114e 02       		.byte	0x2
 15472 114f 0A       		.byte	0xa
 15473 1150 FFFF     		.2byte	0xffff
 15474 1152 1A       		.byte	0x1a
 15475 1153 78       		.byte	0x78
 15476 1154 06       		.sleb128 6
 15477 1155 94       		.byte	0x94
 15478 1156 01       		.byte	0x1
 15479 1157 48       		.byte	0x48
 15480 1158 24       		.byte	0x24
 15481 1159 48       		.byte	0x48
 15482 115a 26       		.byte	0x26
 15483 115b 31       		.byte	0x31
 15484 115c 1C       		.byte	0x1c
 15485 115d 30       		.byte	0x30
 15486 115e 2D       		.byte	0x2d
 15487 115f 28       		.byte	0x28
 15488 1160 0100     		.2byte	0x1
 15489 1162 16       		.byte	0x16
 15490 1163 13       		.byte	0x13
 15491 1164 78       		.byte	0x78
 15492 1165 06       		.sleb128 6
 15493 1166 94       		.byte	0x94
 15494 1167 01       		.byte	0x1
 15495 1168 48       		.byte	0x48
 15496 1169 24       		.byte	0x24
 15497 116a 48       		.byte	0x48
 15498 116b 26       		.byte	0x26
 15499 116c 23       		.byte	0x23
 15500 116d 0B       		.uleb128 0xb
 15501 116e 78       		.byte	0x78
 15502 116f 06       		.sleb128 6
 15503 1170 94       		.byte	0x94
 15504 1171 01       		.byte	0x1
 15505 1172 48       		.byte	0x48
 15506 1173 24       		.byte	0x24
 15507 1174 48       		.byte	0x48
 15508 1175 26       		.byte	0x26
 15509 1176 31       		.byte	0x31
 15510 1177 1C       		.byte	0x1c
 15511 1178 78       		.byte	0x78
 15512 1179 06       		.sleb128 6
 15513 117a 94       		.byte	0x94
 15514 117b 01       		.byte	0x1
 15515 117c 48       		.byte	0x48
 15516 117d 24       		.byte	0x24
 15517 117e 48       		.byte	0x48
 15518 117f 26       		.byte	0x26
 15519 1180 31       		.byte	0x31
 15520 1181 1C       		.byte	0x1c
 15521 1182 30       		.byte	0x30
 15522 1183 2D       		.byte	0x2d
ARM GAS  C:\Users\pearlstl\AppData\Local\Temp\ccHPSyCj.s 			page 305


 15523 1184 28       		.byte	0x28
 15524 1185 0100     		.2byte	0x1
 15525 1187 16       		.byte	0x16
 15526 1188 13       		.byte	0x13
 15527 1189 3B       		.byte	0x3b
 15528 118a 2B       		.byte	0x2b
 15529 118b 28       		.byte	0x28
 15530 118c 0100     		.2byte	0x1
 15531 118e 16       		.byte	0x16
 15532 118f 13       		.byte	0x13
 15533 1190 9F       		.byte	0x9f
 15534 1191 4E080000 		.4byte	.LVL190
 15535 1195 50080000 		.4byte	.LVL191
 15536 1199 0100     		.2byte	0x1
 15537 119b 51       		.byte	0x51
 15538 119c 50080000 		.4byte	.LVL191
 15539 11a0 52080000 		.4byte	.LVL192
 15540 11a4 7500     		.2byte	0x75
 15541 11a6 78       		.byte	0x78
 15542 11a7 04       		.sleb128 4
 15543 11a8 94       		.byte	0x94
 15544 11a9 02       		.byte	0x2
 15545 11aa 0A       		.byte	0xa
 15546 11ab FFFF     		.2byte	0xffff
 15547 11ad 1A       		.byte	0x1a
 15548 11ae 31       		.byte	0x31
 15549 11af 1C       		.byte	0x1c
 15550 11b0 78       		.byte	0x78
 15551 11b1 04       		.sleb128 4
 15552 11b2 94       		.byte	0x94
 15553 11b3 02       		.byte	0x2
 15554 11b4 0A       		.byte	0xa
 15555 11b5 FFFF     		.2byte	0xffff
 15556 11b7 1A       		.byte	0x1a
 15557 11b8 78       		.byte	0x78
 15558 11b9 06       		.sleb128 6
 15559 11ba 94       		.byte	0x94
 15560 11bb 01       		.byte	0x1
 15561 11bc 48       		.byte	0x48
 15562 11bd 24       		.byte	0x24
 15563 11be 48       		.byte	0x48
 15564 11bf 26       		.byte	0x26
 15565 11c0 31       		.byte	0x31
 15566 11c1 1C       		.byte	0x1c
 15567 11c2 30       		.byte	0x30
 15568 11c3 2D       		.byte	0x2d
 15569 11c4 28       		.byte	0x28
 15570 11c5 0100     		.2byte	0x1
 15571 11c7 16       		.byte	0x16
 15572 11c8 13       		.byte	0x13
 15573 11c9 23       		.byte	0x23
 15574 11ca 01       		.uleb128 0x1
 15575 11cb 78       		.byte	0x78
 15576 11cc 04       		.sleb128 4
 15577 11cd 94       		.byte	0x94
 15578 11ce 02       		.byte	0x2
 15579 11cf 0A       		.byte	0xa
ARM GAS  C:\Users\pearlstl\AppData\Local\Temp\ccHPSyCj.s 			page 306


 15580 11d0 FFFF     		.2byte	0xffff
 15581 11d2 1A       		.byte	0x1a
 15582 11d3 31       		.byte	0x31
 15583 11d4 1C       		.byte	0x1c
 15584 11d5 78       		.byte	0x78
 15585 11d6 04       		.sleb128 4
 15586 11d7 94       		.byte	0x94
 15587 11d8 02       		.byte	0x2
 15588 11d9 0A       		.byte	0xa
 15589 11da FFFF     		.2byte	0xffff
 15590 11dc 1A       		.byte	0x1a
 15591 11dd 78       		.byte	0x78
 15592 11de 06       		.sleb128 6
 15593 11df 94       		.byte	0x94
 15594 11e0 01       		.byte	0x1
 15595 11e1 48       		.byte	0x48
 15596 11e2 24       		.byte	0x24
 15597 11e3 48       		.byte	0x48
 15598 11e4 26       		.byte	0x26
 15599 11e5 31       		.byte	0x31
 15600 11e6 1C       		.byte	0x1c
 15601 11e7 30       		.byte	0x30
 15602 11e8 2D       		.byte	0x2d
 15603 11e9 28       		.byte	0x28
 15604 11ea 0100     		.2byte	0x1
 15605 11ec 16       		.byte	0x16
 15606 11ed 13       		.byte	0x13
 15607 11ee 78       		.byte	0x78
 15608 11ef 06       		.sleb128 6
 15609 11f0 94       		.byte	0x94
 15610 11f1 01       		.byte	0x1
 15611 11f2 48       		.byte	0x48
 15612 11f3 24       		.byte	0x24
 15613 11f4 48       		.byte	0x48
 15614 11f5 26       		.byte	0x26
 15615 11f6 23       		.byte	0x23
 15616 11f7 0B       		.uleb128 0xb
 15617 11f8 78       		.byte	0x78
 15618 11f9 06       		.sleb128 6
 15619 11fa 94       		.byte	0x94
 15620 11fb 01       		.byte	0x1
 15621 11fc 48       		.byte	0x48
 15622 11fd 24       		.byte	0x24
 15623 11fe 48       		.byte	0x48
 15624 11ff 26       		.byte	0x26
 15625 1200 31       		.byte	0x31
 15626 1201 1C       		.byte	0x1c
 15627 1202 78       		.byte	0x78
 15628 1203 06       		.sleb128 6
 15629 1204 94       		.byte	0x94
 15630 1205 01       		.byte	0x1
 15631 1206 48       		.byte	0x48
 15632 1207 24       		.byte	0x24
 15633 1208 48       		.byte	0x48
 15634 1209 26       		.byte	0x26
 15635 120a 31       		.byte	0x31
 15636 120b 1C       		.byte	0x1c
ARM GAS  C:\Users\pearlstl\AppData\Local\Temp\ccHPSyCj.s 			page 307


 15637 120c 30       		.byte	0x30
 15638 120d 2D       		.byte	0x2d
 15639 120e 28       		.byte	0x28
 15640 120f 0100     		.2byte	0x1
 15641 1211 16       		.byte	0x16
 15642 1212 13       		.byte	0x13
 15643 1213 3B       		.byte	0x3b
 15644 1214 2B       		.byte	0x2b
 15645 1215 28       		.byte	0x28
 15646 1216 0100     		.2byte	0x1
 15647 1218 16       		.byte	0x16
 15648 1219 13       		.byte	0x13
 15649 121a 9F       		.byte	0x9f
 15650 121b 00000000 		.4byte	0
 15651 121f 00000000 		.4byte	0
 15652              	.LLST66:
 15653 1223 64070000 		.4byte	.LVL172
 15654 1227 84070000 		.4byte	.LVL174
 15655 122b 0100     		.2byte	0x1
 15656 122d 51       		.byte	0x51
 15657 122e 84070000 		.4byte	.LVL174
 15658 1232 8E070000 		.4byte	.LVL175
 15659 1236 7500     		.2byte	0x75
 15660 1238 78       		.byte	0x78
 15661 1239 04       		.sleb128 4
 15662 123a 94       		.byte	0x94
 15663 123b 02       		.byte	0x2
 15664 123c 0A       		.byte	0xa
 15665 123d FFFF     		.2byte	0xffff
 15666 123f 1A       		.byte	0x1a
 15667 1240 31       		.byte	0x31
 15668 1241 1C       		.byte	0x1c
 15669 1242 78       		.byte	0x78
 15670 1243 04       		.sleb128 4
 15671 1244 94       		.byte	0x94
 15672 1245 02       		.byte	0x2
 15673 1246 0A       		.byte	0xa
 15674 1247 FFFF     		.2byte	0xffff
 15675 1249 1A       		.byte	0x1a
 15676 124a 78       		.byte	0x78
 15677 124b 06       		.sleb128 6
 15678 124c 94       		.byte	0x94
 15679 124d 01       		.byte	0x1
 15680 124e 48       		.byte	0x48
 15681 124f 24       		.byte	0x24
 15682 1250 48       		.byte	0x48
 15683 1251 26       		.byte	0x26
 15684 1252 31       		.byte	0x31
 15685 1253 1C       		.byte	0x1c
 15686 1254 30       		.byte	0x30
 15687 1255 2D       		.byte	0x2d
 15688 1256 28       		.byte	0x28
 15689 1257 0100     		.2byte	0x1
 15690 1259 16       		.byte	0x16
 15691 125a 13       		.byte	0x13
 15692 125b 23       		.byte	0x23
 15693 125c 01       		.uleb128 0x1
ARM GAS  C:\Users\pearlstl\AppData\Local\Temp\ccHPSyCj.s 			page 308


 15694 125d 78       		.byte	0x78
 15695 125e 04       		.sleb128 4
 15696 125f 94       		.byte	0x94
 15697 1260 02       		.byte	0x2
 15698 1261 0A       		.byte	0xa
 15699 1262 FFFF     		.2byte	0xffff
 15700 1264 1A       		.byte	0x1a
 15701 1265 31       		.byte	0x31
 15702 1266 1C       		.byte	0x1c
 15703 1267 78       		.byte	0x78
 15704 1268 04       		.sleb128 4
 15705 1269 94       		.byte	0x94
 15706 126a 02       		.byte	0x2
 15707 126b 0A       		.byte	0xa
 15708 126c FFFF     		.2byte	0xffff
 15709 126e 1A       		.byte	0x1a
 15710 126f 78       		.byte	0x78
 15711 1270 06       		.sleb128 6
 15712 1271 94       		.byte	0x94
 15713 1272 01       		.byte	0x1
 15714 1273 48       		.byte	0x48
 15715 1274 24       		.byte	0x24
 15716 1275 48       		.byte	0x48
 15717 1276 26       		.byte	0x26
 15718 1277 31       		.byte	0x31
 15719 1278 1C       		.byte	0x1c
 15720 1279 30       		.byte	0x30
 15721 127a 2D       		.byte	0x2d
 15722 127b 28       		.byte	0x28
 15723 127c 0100     		.2byte	0x1
 15724 127e 16       		.byte	0x16
 15725 127f 13       		.byte	0x13
 15726 1280 78       		.byte	0x78
 15727 1281 06       		.sleb128 6
 15728 1282 94       		.byte	0x94
 15729 1283 01       		.byte	0x1
 15730 1284 48       		.byte	0x48
 15731 1285 24       		.byte	0x24
 15732 1286 48       		.byte	0x48
 15733 1287 26       		.byte	0x26
 15734 1288 23       		.byte	0x23
 15735 1289 0B       		.uleb128 0xb
 15736 128a 78       		.byte	0x78
 15737 128b 06       		.sleb128 6
 15738 128c 94       		.byte	0x94
 15739 128d 01       		.byte	0x1
 15740 128e 48       		.byte	0x48
 15741 128f 24       		.byte	0x24
 15742 1290 48       		.byte	0x48
 15743 1291 26       		.byte	0x26
 15744 1292 31       		.byte	0x31
 15745 1293 1C       		.byte	0x1c
 15746 1294 78       		.byte	0x78
 15747 1295 06       		.sleb128 6
 15748 1296 94       		.byte	0x94
 15749 1297 01       		.byte	0x1
 15750 1298 48       		.byte	0x48
ARM GAS  C:\Users\pearlstl\AppData\Local\Temp\ccHPSyCj.s 			page 309


 15751 1299 24       		.byte	0x24
 15752 129a 48       		.byte	0x48
 15753 129b 26       		.byte	0x26
 15754 129c 31       		.byte	0x31
 15755 129d 1C       		.byte	0x1c
 15756 129e 30       		.byte	0x30
 15757 129f 2D       		.byte	0x2d
 15758 12a0 28       		.byte	0x28
 15759 12a1 0100     		.2byte	0x1
 15760 12a3 16       		.byte	0x16
 15761 12a4 13       		.byte	0x13
 15762 12a5 3B       		.byte	0x3b
 15763 12a6 2B       		.byte	0x2b
 15764 12a7 28       		.byte	0x28
 15765 12a8 0100     		.2byte	0x1
 15766 12aa 16       		.byte	0x16
 15767 12ab 13       		.byte	0x13
 15768 12ac 9F       		.byte	0x9f
 15769 12ad 9E070000 		.4byte	.LVL177
 15770 12b1 A0070000 		.4byte	.LVL178
 15771 12b5 0100     		.2byte	0x1
 15772 12b7 51       		.byte	0x51
 15773 12b8 A0070000 		.4byte	.LVL178
 15774 12bc A2070000 		.4byte	.LVL179
 15775 12c0 7500     		.2byte	0x75
 15776 12c2 78       		.byte	0x78
 15777 12c3 04       		.sleb128 4
 15778 12c4 94       		.byte	0x94
 15779 12c5 02       		.byte	0x2
 15780 12c6 0A       		.byte	0xa
 15781 12c7 FFFF     		.2byte	0xffff
 15782 12c9 1A       		.byte	0x1a
 15783 12ca 31       		.byte	0x31
 15784 12cb 1C       		.byte	0x1c
 15785 12cc 78       		.byte	0x78
 15786 12cd 04       		.sleb128 4
 15787 12ce 94       		.byte	0x94
 15788 12cf 02       		.byte	0x2
 15789 12d0 0A       		.byte	0xa
 15790 12d1 FFFF     		.2byte	0xffff
 15791 12d3 1A       		.byte	0x1a
 15792 12d4 78       		.byte	0x78
 15793 12d5 06       		.sleb128 6
 15794 12d6 94       		.byte	0x94
 15795 12d7 01       		.byte	0x1
 15796 12d8 48       		.byte	0x48
 15797 12d9 24       		.byte	0x24
 15798 12da 48       		.byte	0x48
 15799 12db 26       		.byte	0x26
 15800 12dc 31       		.byte	0x31
 15801 12dd 1C       		.byte	0x1c
 15802 12de 30       		.byte	0x30
 15803 12df 2D       		.byte	0x2d
 15804 12e0 28       		.byte	0x28
 15805 12e1 0100     		.2byte	0x1
 15806 12e3 16       		.byte	0x16
 15807 12e4 13       		.byte	0x13
ARM GAS  C:\Users\pearlstl\AppData\Local\Temp\ccHPSyCj.s 			page 310


 15808 12e5 23       		.byte	0x23
 15809 12e6 01       		.uleb128 0x1
 15810 12e7 78       		.byte	0x78
 15811 12e8 04       		.sleb128 4
 15812 12e9 94       		.byte	0x94
 15813 12ea 02       		.byte	0x2
 15814 12eb 0A       		.byte	0xa
 15815 12ec FFFF     		.2byte	0xffff
 15816 12ee 1A       		.byte	0x1a
 15817 12ef 31       		.byte	0x31
 15818 12f0 1C       		.byte	0x1c
 15819 12f1 78       		.byte	0x78
 15820 12f2 04       		.sleb128 4
 15821 12f3 94       		.byte	0x94
 15822 12f4 02       		.byte	0x2
 15823 12f5 0A       		.byte	0xa
 15824 12f6 FFFF     		.2byte	0xffff
 15825 12f8 1A       		.byte	0x1a
 15826 12f9 78       		.byte	0x78
 15827 12fa 06       		.sleb128 6
 15828 12fb 94       		.byte	0x94
 15829 12fc 01       		.byte	0x1
 15830 12fd 48       		.byte	0x48
 15831 12fe 24       		.byte	0x24
 15832 12ff 48       		.byte	0x48
 15833 1300 26       		.byte	0x26
 15834 1301 31       		.byte	0x31
 15835 1302 1C       		.byte	0x1c
 15836 1303 30       		.byte	0x30
 15837 1304 2D       		.byte	0x2d
 15838 1305 28       		.byte	0x28
 15839 1306 0100     		.2byte	0x1
 15840 1308 16       		.byte	0x16
 15841 1309 13       		.byte	0x13
 15842 130a 78       		.byte	0x78
 15843 130b 06       		.sleb128 6
 15844 130c 94       		.byte	0x94
 15845 130d 01       		.byte	0x1
 15846 130e 48       		.byte	0x48
 15847 130f 24       		.byte	0x24
 15848 1310 48       		.byte	0x48
 15849 1311 26       		.byte	0x26
 15850 1312 23       		.byte	0x23
 15851 1313 0B       		.uleb128 0xb
 15852 1314 78       		.byte	0x78
 15853 1315 06       		.sleb128 6
 15854 1316 94       		.byte	0x94
 15855 1317 01       		.byte	0x1
 15856 1318 48       		.byte	0x48
 15857 1319 24       		.byte	0x24
 15858 131a 48       		.byte	0x48
 15859 131b 26       		.byte	0x26
 15860 131c 31       		.byte	0x31
 15861 131d 1C       		.byte	0x1c
 15862 131e 78       		.byte	0x78
 15863 131f 06       		.sleb128 6
 15864 1320 94       		.byte	0x94
ARM GAS  C:\Users\pearlstl\AppData\Local\Temp\ccHPSyCj.s 			page 311


 15865 1321 01       		.byte	0x1
 15866 1322 48       		.byte	0x48
 15867 1323 24       		.byte	0x24
 15868 1324 48       		.byte	0x48
 15869 1325 26       		.byte	0x26
 15870 1326 31       		.byte	0x31
 15871 1327 1C       		.byte	0x1c
 15872 1328 30       		.byte	0x30
 15873 1329 2D       		.byte	0x2d
 15874 132a 28       		.byte	0x28
 15875 132b 0100     		.2byte	0x1
 15876 132d 16       		.byte	0x16
 15877 132e 13       		.byte	0x13
 15878 132f 3B       		.byte	0x3b
 15879 1330 2B       		.byte	0x2b
 15880 1331 28       		.byte	0x28
 15881 1332 0100     		.2byte	0x1
 15882 1334 16       		.byte	0x16
 15883 1335 13       		.byte	0x13
 15884 1336 9F       		.byte	0x9f
 15885 1337 4E080000 		.4byte	.LVL190
 15886 133b 50080000 		.4byte	.LVL191
 15887 133f 0100     		.2byte	0x1
 15888 1341 51       		.byte	0x51
 15889 1342 50080000 		.4byte	.LVL191
 15890 1346 52080000 		.4byte	.LVL192
 15891 134a 7500     		.2byte	0x75
 15892 134c 78       		.byte	0x78
 15893 134d 04       		.sleb128 4
 15894 134e 94       		.byte	0x94
 15895 134f 02       		.byte	0x2
 15896 1350 0A       		.byte	0xa
 15897 1351 FFFF     		.2byte	0xffff
 15898 1353 1A       		.byte	0x1a
 15899 1354 31       		.byte	0x31
 15900 1355 1C       		.byte	0x1c
 15901 1356 78       		.byte	0x78
 15902 1357 04       		.sleb128 4
 15903 1358 94       		.byte	0x94
 15904 1359 02       		.byte	0x2
 15905 135a 0A       		.byte	0xa
 15906 135b FFFF     		.2byte	0xffff
 15907 135d 1A       		.byte	0x1a
 15908 135e 78       		.byte	0x78
 15909 135f 06       		.sleb128 6
 15910 1360 94       		.byte	0x94
 15911 1361 01       		.byte	0x1
 15912 1362 48       		.byte	0x48
 15913 1363 24       		.byte	0x24
 15914 1364 48       		.byte	0x48
 15915 1365 26       		.byte	0x26
 15916 1366 31       		.byte	0x31
 15917 1367 1C       		.byte	0x1c
 15918 1368 30       		.byte	0x30
 15919 1369 2D       		.byte	0x2d
 15920 136a 28       		.byte	0x28
 15921 136b 0100     		.2byte	0x1
ARM GAS  C:\Users\pearlstl\AppData\Local\Temp\ccHPSyCj.s 			page 312


 15922 136d 16       		.byte	0x16
 15923 136e 13       		.byte	0x13
 15924 136f 23       		.byte	0x23
 15925 1370 01       		.uleb128 0x1
 15926 1371 78       		.byte	0x78
 15927 1372 04       		.sleb128 4
 15928 1373 94       		.byte	0x94
 15929 1374 02       		.byte	0x2
 15930 1375 0A       		.byte	0xa
 15931 1376 FFFF     		.2byte	0xffff
 15932 1378 1A       		.byte	0x1a
 15933 1379 31       		.byte	0x31
 15934 137a 1C       		.byte	0x1c
 15935 137b 78       		.byte	0x78
 15936 137c 04       		.sleb128 4
 15937 137d 94       		.byte	0x94
 15938 137e 02       		.byte	0x2
 15939 137f 0A       		.byte	0xa
 15940 1380 FFFF     		.2byte	0xffff
 15941 1382 1A       		.byte	0x1a
 15942 1383 78       		.byte	0x78
 15943 1384 06       		.sleb128 6
 15944 1385 94       		.byte	0x94
 15945 1386 01       		.byte	0x1
 15946 1387 48       		.byte	0x48
 15947 1388 24       		.byte	0x24
 15948 1389 48       		.byte	0x48
 15949 138a 26       		.byte	0x26
 15950 138b 31       		.byte	0x31
 15951 138c 1C       		.byte	0x1c
 15952 138d 30       		.byte	0x30
 15953 138e 2D       		.byte	0x2d
 15954 138f 28       		.byte	0x28
 15955 1390 0100     		.2byte	0x1
 15956 1392 16       		.byte	0x16
 15957 1393 13       		.byte	0x13
 15958 1394 78       		.byte	0x78
 15959 1395 06       		.sleb128 6
 15960 1396 94       		.byte	0x94
 15961 1397 01       		.byte	0x1
 15962 1398 48       		.byte	0x48
 15963 1399 24       		.byte	0x24
 15964 139a 48       		.byte	0x48
 15965 139b 26       		.byte	0x26
 15966 139c 23       		.byte	0x23
 15967 139d 0B       		.uleb128 0xb
 15968 139e 78       		.byte	0x78
 15969 139f 06       		.sleb128 6
 15970 13a0 94       		.byte	0x94
 15971 13a1 01       		.byte	0x1
 15972 13a2 48       		.byte	0x48
 15973 13a3 24       		.byte	0x24
 15974 13a4 48       		.byte	0x48
 15975 13a5 26       		.byte	0x26
 15976 13a6 31       		.byte	0x31
 15977 13a7 1C       		.byte	0x1c
 15978 13a8 78       		.byte	0x78
ARM GAS  C:\Users\pearlstl\AppData\Local\Temp\ccHPSyCj.s 			page 313


 15979 13a9 06       		.sleb128 6
 15980 13aa 94       		.byte	0x94
 15981 13ab 01       		.byte	0x1
 15982 13ac 48       		.byte	0x48
 15983 13ad 24       		.byte	0x24
 15984 13ae 48       		.byte	0x48
 15985 13af 26       		.byte	0x26
 15986 13b0 31       		.byte	0x31
 15987 13b1 1C       		.byte	0x1c
 15988 13b2 30       		.byte	0x30
 15989 13b3 2D       		.byte	0x2d
 15990 13b4 28       		.byte	0x28
 15991 13b5 0100     		.2byte	0x1
 15992 13b7 16       		.byte	0x16
 15993 13b8 13       		.byte	0x13
 15994 13b9 3B       		.byte	0x3b
 15995 13ba 2B       		.byte	0x2b
 15996 13bb 28       		.byte	0x28
 15997 13bc 0100     		.2byte	0x1
 15998 13be 16       		.byte	0x16
 15999 13bf 13       		.byte	0x13
 16000 13c0 9F       		.byte	0x9f
 16001 13c1 00000000 		.4byte	0
 16002 13c5 00000000 		.4byte	0
 16003              	.LLST67:
 16004 13c9 8E060000 		.4byte	.LVL150
 16005 13cd E8060000 		.4byte	.LVL157
 16006 13d1 0300     		.2byte	0x3
 16007 13d3 91       		.byte	0x91
 16008 13d4 F07E     		.sleb128 -144
 16009 13d6 00000000 		.4byte	0
 16010 13da 00000000 		.4byte	0
 16011              	.LLST68:
 16012 13de 8E060000 		.4byte	.LVL150
 16013 13e2 E8060000 		.4byte	.LVL157
 16014 13e6 1200     		.2byte	0x12
 16015 13e8 79       		.byte	0x79
 16016 13e9 00       		.sleb128 0
 16017 13ea 0A       		.byte	0xa
 16018 13eb FFFF     		.2byte	0xffff
 16019 13ed 1A       		.byte	0x1a
 16020 13ee 77       		.byte	0x77
 16021 13ef 00       		.sleb128 0
 16022 13f0 08       		.byte	0x8
 16023 13f1 FF       		.byte	0xff
 16024 13f2 1A       		.byte	0x1a
 16025 13f3 3C       		.byte	0x3c
 16026 13f4 29       		.byte	0x29
 16027 13f5 08       		.byte	0x8
 16028 13f6 FF       		.byte	0xff
 16029 13f7 1A       		.byte	0x1a
 16030 13f8 22       		.byte	0x22
 16031 13f9 9F       		.byte	0x9f
 16032 13fa 00000000 		.4byte	0
 16033 13fe 00000000 		.4byte	0
 16034              	.LLST69:
 16035 1402 8E060000 		.4byte	.LVL150
ARM GAS  C:\Users\pearlstl\AppData\Local\Temp\ccHPSyCj.s 			page 314


 16036 1406 E8060000 		.4byte	.LVL157
 16037 140a 0300     		.2byte	0x3
 16038 140c 91       		.byte	0x91
 16039 140d C87E     		.sleb128 -184
 16040 140f 00000000 		.4byte	0
 16041 1413 00000000 		.4byte	0
 16042              	.LLST70:
 16043 1417 94060000 		.4byte	.LVL151
 16044 141b B6060000 		.4byte	.LVL154
 16045 141f 0100     		.2byte	0x1
 16046 1421 50       		.byte	0x50
 16047 1422 00000000 		.4byte	0
 16048 1426 00000000 		.4byte	0
 16049              	.LLST71:
 16050 142a A4060000 		.4byte	.LVL152
 16051 142e B6060000 		.4byte	.LVL154
 16052 1432 0200     		.2byte	0x2
 16053 1434 30       		.byte	0x30
 16054 1435 9F       		.byte	0x9f
 16055 1436 B6060000 		.4byte	.LVL154
 16056 143a E8060000 		.4byte	.LVL157
 16057 143e 0100     		.2byte	0x1
 16058 1440 53       		.byte	0x53
 16059 1441 00000000 		.4byte	0
 16060 1445 00000000 		.4byte	0
 16061              	.LLST72:
 16062 1449 10080000 		.4byte	.LVL185
 16063 144d 12080000 		.4byte	.LVL186
 16064 1451 0400     		.2byte	0x4
 16065 1453 91       		.byte	0x91
 16066 1454 907F     		.sleb128 -112
 16067 1456 9F       		.byte	0x9f
 16068 1457 12080000 		.4byte	.LVL186
 16069 145b 18080000 		.4byte	.LVL187
 16070 145f 0100     		.2byte	0x1
 16071 1461 52       		.byte	0x52
 16072 1462 18080000 		.4byte	.LVL187
 16073 1466 1C080000 		.4byte	.LVL188
 16074 146a 0400     		.2byte	0x4
 16075 146c 91       		.byte	0x91
 16076 146d 907F     		.sleb128 -112
 16077 146f 9F       		.byte	0x9f
 16078 1470 00000000 		.4byte	0
 16079 1474 00000000 		.4byte	0
 16080              	.LLST73:
 16081 1478 10080000 		.4byte	.LVL185
 16082 147c 18080000 		.4byte	.LVL187
 16083 1480 0400     		.2byte	0x4
 16084 1482 91       		.byte	0x91
 16085 1483 987F     		.sleb128 -104
 16086 1485 9F       		.byte	0x9f
 16087 1486 18080000 		.4byte	.LVL187
 16088 148a 1C080000 		.4byte	.LVL188
 16089 148e 0100     		.2byte	0x1
 16090 1490 52       		.byte	0x52
 16091 1491 00000000 		.4byte	0
 16092 1495 00000000 		.4byte	0
ARM GAS  C:\Users\pearlstl\AppData\Local\Temp\ccHPSyCj.s 			page 315


 16093              	.LLST74:
 16094 1499 B2070000 		.4byte	.LVL180
 16095 149d B4070000 		.4byte	.LVL181
 16096 14a1 0400     		.2byte	0x4
 16097 14a3 91       		.byte	0x91
 16098 14a4 907F     		.sleb128 -112
 16099 14a6 9F       		.byte	0x9f
 16100 14a7 B4070000 		.4byte	.LVL181
 16101 14ab BA070000 		.4byte	.LVL182
 16102 14af 0100     		.2byte	0x1
 16103 14b1 52       		.byte	0x52
 16104 14b2 BA070000 		.4byte	.LVL182
 16105 14b6 BE070000 		.4byte	.LVL183
 16106 14ba 0400     		.2byte	0x4
 16107 14bc 91       		.byte	0x91
 16108 14bd 907F     		.sleb128 -112
 16109 14bf 9F       		.byte	0x9f
 16110 14c0 00000000 		.4byte	0
 16111 14c4 00000000 		.4byte	0
 16112              	.LLST75:
 16113 14c8 B2070000 		.4byte	.LVL180
 16114 14cc BA070000 		.4byte	.LVL182
 16115 14d0 0400     		.2byte	0x4
 16116 14d2 91       		.byte	0x91
 16117 14d3 987F     		.sleb128 -104
 16118 14d5 9F       		.byte	0x9f
 16119 14d6 BA070000 		.4byte	.LVL182
 16120 14da BE070000 		.4byte	.LVL183
 16121 14de 0100     		.2byte	0x1
 16122 14e0 52       		.byte	0x52
 16123 14e1 00000000 		.4byte	0
 16124 14e5 00000000 		.4byte	0
 16125              	.LLST76:
 16126 14e9 52080000 		.4byte	.LVL192
 16127 14ed 58080000 		.4byte	.LVL193
 16128 14f1 0200     		.2byte	0x2
 16129 14f3 32       		.byte	0x32
 16130 14f4 9F       		.byte	0x9f
 16131 14f5 00000000 		.4byte	0
 16132 14f9 00000000 		.4byte	0
 16133              	.LLST77:
 16134 14fd 00000000 		.4byte	.LVL201
 16135 1501 11000000 		.4byte	.LVL202-1
 16136 1505 0100     		.2byte	0x1
 16137 1507 50       		.byte	0x50
 16138 1508 11000000 		.4byte	.LVL202-1
 16139 150c D4040000 		.4byte	.LFE47
 16140 1510 0100     		.2byte	0x1
 16141 1512 56       		.byte	0x56
 16142 1513 00000000 		.4byte	0
 16143 1517 00000000 		.4byte	0
 16144              	.LLST78:
 16145 151b 00000000 		.4byte	.LVL201
 16146 151f 11000000 		.4byte	.LVL202-1
 16147 1523 0100     		.2byte	0x1
 16148 1525 51       		.byte	0x51
 16149 1526 11000000 		.4byte	.LVL202-1
ARM GAS  C:\Users\pearlstl\AppData\Local\Temp\ccHPSyCj.s 			page 316


 16150 152a D4040000 		.4byte	.LFE47
 16151 152e 0400     		.2byte	0x4
 16152 1530 F3       		.byte	0xf3
 16153 1531 01       		.uleb128 0x1
 16154 1532 51       		.byte	0x51
 16155 1533 9F       		.byte	0x9f
 16156 1534 00000000 		.4byte	0
 16157 1538 00000000 		.4byte	0
 16158              	.LLST79:
 16159 153c 00000000 		.4byte	.LVL201
 16160 1540 11000000 		.4byte	.LVL202-1
 16161 1544 0100     		.2byte	0x1
 16162 1546 52       		.byte	0x52
 16163 1547 11000000 		.4byte	.LVL202-1
 16164 154b 36000000 		.4byte	.LVL206
 16165 154f 0100     		.2byte	0x1
 16166 1551 57       		.byte	0x57
 16167 1552 36000000 		.4byte	.LVL206
 16168 1556 3E000000 		.4byte	.LVL207
 16169 155a 0400     		.2byte	0x4
 16170 155c F3       		.byte	0xf3
 16171 155d 01       		.uleb128 0x1
 16172 155e 52       		.byte	0x52
 16173 155f 9F       		.byte	0x9f
 16174 1560 3E000000 		.4byte	.LVL207
 16175 1564 58000000 		.4byte	.LVL214
 16176 1568 0100     		.2byte	0x1
 16177 156a 57       		.byte	0x57
 16178 156b 58000000 		.4byte	.LVL214
 16179 156f C0000000 		.4byte	.LVL224
 16180 1573 0400     		.2byte	0x4
 16181 1575 F3       		.byte	0xf3
 16182 1576 01       		.uleb128 0x1
 16183 1577 52       		.byte	0x52
 16184 1578 9F       		.byte	0x9f
 16185 1579 C0000000 		.4byte	.LVL224
 16186 157d 62010000 		.4byte	.LVL248
 16187 1581 0100     		.2byte	0x1
 16188 1583 57       		.byte	0x57
 16189 1584 62010000 		.4byte	.LVL248
 16190 1588 2E030000 		.4byte	.LVL284
 16191 158c 0400     		.2byte	0x4
 16192 158e F3       		.byte	0xf3
 16193 158f 01       		.uleb128 0x1
 16194 1590 52       		.byte	0x52
 16195 1591 9F       		.byte	0x9f
 16196 1592 2E030000 		.4byte	.LVL284
 16197 1596 80030000 		.4byte	.LVL288
 16198 159a 0100     		.2byte	0x1
 16199 159c 57       		.byte	0x57
 16200 159d 80030000 		.4byte	.LVL288
 16201 15a1 FA030000 		.4byte	.LVL297
 16202 15a5 0400     		.2byte	0x4
 16203 15a7 F3       		.byte	0xf3
 16204 15a8 01       		.uleb128 0x1
 16205 15a9 52       		.byte	0x52
 16206 15aa 9F       		.byte	0x9f
ARM GAS  C:\Users\pearlstl\AppData\Local\Temp\ccHPSyCj.s 			page 317


 16207 15ab FA030000 		.4byte	.LVL297
 16208 15af 10040000 		.4byte	.LVL299
 16209 15b3 0100     		.2byte	0x1
 16210 15b5 57       		.byte	0x57
 16211 15b6 10040000 		.4byte	.LVL299
 16212 15ba D4040000 		.4byte	.LFE47
 16213 15be 0400     		.2byte	0x4
 16214 15c0 F3       		.byte	0xf3
 16215 15c1 01       		.uleb128 0x1
 16216 15c2 52       		.byte	0x52
 16217 15c3 9F       		.byte	0x9f
 16218 15c4 00000000 		.4byte	0
 16219 15c8 00000000 		.4byte	0
 16220              	.LLST80:
 16221 15cc 16000000 		.4byte	.LVL203
 16222 15d0 18000000 		.4byte	.LVL204
 16223 15d4 0100     		.2byte	0x1
 16224 15d6 50       		.byte	0x50
 16225 15d7 1E000000 		.4byte	.LVL205
 16226 15db 36000000 		.4byte	.LVL206
 16227 15df 0100     		.2byte	0x1
 16228 15e1 50       		.byte	0x50
 16229 15e2 3E000000 		.4byte	.LVL207
 16230 15e6 40000000 		.4byte	.LVL208
 16231 15ea 0100     		.2byte	0x1
 16232 15ec 50       		.byte	0x50
 16233 15ed C0000000 		.4byte	.LVL224
 16234 15f1 C4000000 		.4byte	.LVL226
 16235 15f5 0100     		.2byte	0x1
 16236 15f7 50       		.byte	0x50
 16237 15f8 F0000000 		.4byte	.LVL230
 16238 15fc F2000000 		.4byte	.LVL231
 16239 1600 0100     		.2byte	0x1
 16240 1602 50       		.byte	0x50
 16241 1603 FA000000 		.4byte	.LVL233
 16242 1607 FC000000 		.4byte	.LVL234
 16243 160b 0100     		.2byte	0x1
 16244 160d 50       		.byte	0x50
 16245 160e 22010000 		.4byte	.LVL237
 16246 1612 30010000 		.4byte	.LVL239
 16247 1616 0200     		.2byte	0x2
 16248 1618 31       		.byte	0x31
 16249 1619 9F       		.byte	0x9f
 16250 161a 30010000 		.4byte	.LVL239
 16251 161e 32010000 		.4byte	.LVL240
 16252 1622 0100     		.2byte	0x1
 16253 1624 50       		.byte	0x50
 16254 1625 78030000 		.4byte	.LVL287
 16255 1629 80030000 		.4byte	.LVL288
 16256 162d 0100     		.2byte	0x1
 16257 162f 50       		.byte	0x50
 16258 1630 00000000 		.4byte	0
 16259 1634 00000000 		.4byte	0
 16260              	.LLST81:
 16261 1638 C2000000 		.4byte	.LVL225
 16262 163c F0000000 		.4byte	.LVL230
 16263 1640 0100     		.2byte	0x1
ARM GAS  C:\Users\pearlstl\AppData\Local\Temp\ccHPSyCj.s 			page 318


 16264 1642 55       		.byte	0x55
 16265 1643 46010000 		.4byte	.LVL245
 16266 1647 62010000 		.4byte	.LVL248
 16267 164b 0100     		.2byte	0x1
 16268 164d 55       		.byte	0x55
 16269 164e 2E030000 		.4byte	.LVL284
 16270 1652 54030000 		.4byte	.LVL285
 16271 1656 0100     		.2byte	0x1
 16272 1658 55       		.byte	0x55
 16273 1659 FA030000 		.4byte	.LVL297
 16274 165d 04040000 		.4byte	.LVL298
 16275 1661 0100     		.2byte	0x1
 16276 1663 55       		.byte	0x55
 16277 1664 00000000 		.4byte	0
 16278 1668 00000000 		.4byte	0
 16279              	.LLST82:
 16280 166c C8000000 		.4byte	.LVL227
 16281 1670 EA000000 		.4byte	.LVL228
 16282 1674 0100     		.2byte	0x1
 16283 1676 50       		.byte	0x50
 16284 1677 46010000 		.4byte	.LVL245
 16285 167b 5A010000 		.4byte	.LVL246
 16286 167f 0100     		.2byte	0x1
 16287 1681 50       		.byte	0x50
 16288 1682 2E030000 		.4byte	.LVL284
 16289 1686 54030000 		.4byte	.LVL285
 16290 168a 0100     		.2byte	0x1
 16291 168c 50       		.byte	0x50
 16292 168d FA030000 		.4byte	.LVL297
 16293 1691 04040000 		.4byte	.LVL298
 16294 1695 0100     		.2byte	0x1
 16295 1697 50       		.byte	0x50
 16296 1698 00000000 		.4byte	0
 16297 169c 00000000 		.4byte	0
 16298              	.LLST83:
 16299 16a0 48000000 		.4byte	.LVL210
 16300 16a4 4C000000 		.4byte	.LVL211
 16301 16a8 0100     		.2byte	0x1
 16302 16aa 50       		.byte	0x50
 16303 16ab 4C000000 		.4byte	.LVL211
 16304 16af C0000000 		.4byte	.LVL224
 16305 16b3 0100     		.2byte	0x1
 16306 16b5 54       		.byte	0x54
 16307 16b6 62010000 		.4byte	.LVL248
 16308 16ba 2E030000 		.4byte	.LVL284
 16309 16be 0100     		.2byte	0x1
 16310 16c0 54       		.byte	0x54
 16311 16c1 80030000 		.4byte	.LVL288
 16312 16c5 FA030000 		.4byte	.LVL297
 16313 16c9 0100     		.2byte	0x1
 16314 16cb 54       		.byte	0x54
 16315 16cc 10040000 		.4byte	.LVL299
 16316 16d0 D4040000 		.4byte	.LFE47
 16317 16d4 0100     		.2byte	0x1
 16318 16d6 54       		.byte	0x54
 16319 16d7 00000000 		.4byte	0
 16320 16db 00000000 		.4byte	0
ARM GAS  C:\Users\pearlstl\AppData\Local\Temp\ccHPSyCj.s 			page 319


 16321              	.LLST84:
 16322 16df 74000000 		.4byte	.LVL219
 16323 16e3 79000000 		.4byte	.LVL220-1
 16324 16e7 0100     		.2byte	0x1
 16325 16e9 50       		.byte	0x50
 16326 16ea 00000000 		.4byte	0
 16327 16ee 00000000 		.4byte	0
 16328              	.LLST85:
 16329 16f2 48000000 		.4byte	.LVL210
 16330 16f6 52000000 		.4byte	.LVL213
 16331 16fa 0100     		.2byte	0x1
 16332 16fc 56       		.byte	0x56
 16333 16fd 00000000 		.4byte	0
 16334 1701 00000000 		.4byte	0
 16335              	.LLST86:
 16336 1705 48000000 		.4byte	.LVL210
 16337 1709 50000000 		.4byte	.LVL212
 16338 170d 0300     		.2byte	0x3
 16339 170f 91       		.byte	0x91
 16340 1710 50       		.sleb128 -48
 16341 1711 9F       		.byte	0x9f
 16342 1712 50000000 		.4byte	.LVL212
 16343 1716 52000000 		.4byte	.LVL213
 16344 171a 0100     		.2byte	0x1
 16345 171c 53       		.byte	0x53
 16346 171d 00000000 		.4byte	0
 16347 1721 00000000 		.4byte	0
 16348              	.LLST87:
 16349 1725 58000000 		.4byte	.LVL214
 16350 1729 5E000000 		.4byte	.LVL216
 16351 172d 0100     		.2byte	0x1
 16352 172f 56       		.byte	0x56
 16353 1730 00000000 		.4byte	0
 16354 1734 00000000 		.4byte	0
 16355              	.LLST88:
 16356 1738 5C000000 		.4byte	.LVL215
 16357 173c 5E000000 		.4byte	.LVL216
 16358 1740 0100     		.2byte	0x1
 16359 1742 50       		.byte	0x50
 16360 1743 00000000 		.4byte	0
 16361 1747 00000000 		.4byte	0
 16362              	.LLST89:
 16363 174b 72010000 		.4byte	.LVL250
 16364 174f DA010000 		.4byte	.LVL265
 16365 1753 0300     		.2byte	0x3
 16366 1755 91       		.byte	0x91
 16367 1756 4C       		.sleb128 -52
 16368 1757 9F       		.byte	0x9f
 16369 1758 DA010000 		.4byte	.LVL265
 16370 175c E1010000 		.4byte	.LVL266-1
 16371 1760 0100     		.2byte	0x1
 16372 1762 51       		.byte	0x51
 16373 1763 E1010000 		.4byte	.LVL266-1
 16374 1767 20030000 		.4byte	.LVL283
 16375 176b 0300     		.2byte	0x3
 16376 176d 91       		.byte	0x91
 16377 176e 4C       		.sleb128 -52
ARM GAS  C:\Users\pearlstl\AppData\Local\Temp\ccHPSyCj.s 			page 320


 16378 176f 9F       		.byte	0x9f
 16379 1770 94030000 		.4byte	.LVL289
 16380 1774 FA030000 		.4byte	.LVL297
 16381 1778 0300     		.2byte	0x3
 16382 177a 91       		.byte	0x91
 16383 177b 4C       		.sleb128 -52
 16384 177c 9F       		.byte	0x9f
 16385 177d 20040000 		.4byte	.LVL302
 16386 1781 D4040000 		.4byte	.LFE47
 16387 1785 0300     		.2byte	0x3
 16388 1787 91       		.byte	0x91
 16389 1788 4C       		.sleb128 -52
 16390 1789 9F       		.byte	0x9f
 16391 178a 00000000 		.4byte	0
 16392 178e 00000000 		.4byte	0
 16393              	.LLST90:
 16394 1792 72010000 		.4byte	.LVL250
 16395 1796 20030000 		.4byte	.LVL283
 16396 179a 0100     		.2byte	0x1
 16397 179c 56       		.byte	0x56
 16398 179d 94030000 		.4byte	.LVL289
 16399 17a1 FA030000 		.4byte	.LVL297
 16400 17a5 0100     		.2byte	0x1
 16401 17a7 56       		.byte	0x56
 16402 17a8 20040000 		.4byte	.LVL302
 16403 17ac D4040000 		.4byte	.LFE47
 16404 17b0 0100     		.2byte	0x1
 16405 17b2 56       		.byte	0x56
 16406 17b3 00000000 		.4byte	0
 16407 17b7 00000000 		.4byte	0
 16408              	.LLST91:
 16409 17bb 72010000 		.4byte	.LVL250
 16410 17bf 7A010000 		.4byte	.LVL252
 16411 17c3 0100     		.2byte	0x1
 16412 17c5 55       		.byte	0x55
 16413 17c6 00000000 		.4byte	0
 16414 17ca 00000000 		.4byte	0
 16415              	.LLST92:
 16416 17ce 72010000 		.4byte	.LVL250
 16417 17d2 78010000 		.4byte	.LVL251
 16418 17d6 0300     		.2byte	0x3
 16419 17d8 91       		.byte	0x91
 16420 17d9 58       		.sleb128 -40
 16421 17da 9F       		.byte	0x9f
 16422 17db 78010000 		.4byte	.LVL251
 16423 17df 7A010000 		.4byte	.LVL252
 16424 17e3 0100     		.2byte	0x1
 16425 17e5 53       		.byte	0x53
 16426 17e6 00000000 		.4byte	0
 16427 17ea 00000000 		.4byte	0
 16428              	.LLST93:
 16429 17ee 7A010000 		.4byte	.LVL252
 16430 17f2 88010000 		.4byte	.LVL255
 16431 17f6 0200     		.2byte	0x2
 16432 17f8 30       		.byte	0x30
 16433 17f9 9F       		.byte	0x9f
 16434 17fa 00000000 		.4byte	0
ARM GAS  C:\Users\pearlstl\AppData\Local\Temp\ccHPSyCj.s 			page 321


 16435 17fe 00000000 		.4byte	0
 16436              	.LLST94:
 16437 1802 7A010000 		.4byte	.LVL252
 16438 1806 88010000 		.4byte	.LVL255
 16439 180a 0100     		.2byte	0x1
 16440 180c 56       		.byte	0x56
 16441 180d 00000000 		.4byte	0
 16442 1811 00000000 		.4byte	0
 16443              	.LLST96:
 16444 1815 96010000 		.4byte	.LVL256
 16445 1819 CA010000 		.4byte	.LVL262
 16446 181d 0100     		.2byte	0x1
 16447 181f 56       		.byte	0x56
 16448 1820 00000000 		.4byte	0
 16449 1824 00000000 		.4byte	0
 16450              	.LLST97:
 16451 1828 A8010000 		.4byte	.LVL257
 16452 182c B4010000 		.4byte	.LVL260
 16453 1830 0100     		.2byte	0x1
 16454 1832 50       		.byte	0x50
 16455 1833 00000000 		.4byte	0
 16456 1837 00000000 		.4byte	0
 16457              	.LLST98:
 16458 183b F4010000 		.4byte	.LVL267
 16459 183f F8010000 		.4byte	.LVL268
 16460 1843 1000     		.2byte	0x10
 16461 1845 91       		.byte	0x91
 16462 1846 5C       		.sleb128 -36
 16463 1847 94       		.byte	0x94
 16464 1848 02       		.byte	0x2
 16465 1849 40       		.byte	0x40
 16466 184a 24       		.byte	0x24
 16467 184b 40       		.byte	0x40
 16468 184c 26       		.byte	0x26
 16469 184d 77       		.byte	0x77
 16470 184e 00       		.sleb128 0
 16471 184f 1C       		.byte	0x1c
 16472 1850 23       		.byte	0x23
 16473 1851 01       		.uleb128 0x1
 16474 1852 37       		.byte	0x37
 16475 1853 1B       		.byte	0x1b
 16476 1854 9F       		.byte	0x9f
 16477 1855 F8010000 		.4byte	.LVL268
 16478 1859 12020000 		.4byte	.LVL270
 16479 185d 0A00     		.2byte	0xa
 16480 185f 7C       		.byte	0x7c
 16481 1860 00       		.sleb128 0
 16482 1861 77       		.byte	0x77
 16483 1862 00       		.sleb128 0
 16484 1863 1C       		.byte	0x1c
 16485 1864 23       		.byte	0x23
 16486 1865 01       		.uleb128 0x1
 16487 1866 37       		.byte	0x37
 16488 1867 1B       		.byte	0x1b
 16489 1868 9F       		.byte	0x9f
 16490 1869 12020000 		.4byte	.LVL270
 16491 186d 4F020000 		.4byte	.LVL273-1
ARM GAS  C:\Users\pearlstl\AppData\Local\Temp\ccHPSyCj.s 			page 322


 16492 1871 1000     		.2byte	0x10
 16493 1873 91       		.byte	0x91
 16494 1874 5C       		.sleb128 -36
 16495 1875 94       		.byte	0x94
 16496 1876 02       		.byte	0x2
 16497 1877 40       		.byte	0x40
 16498 1878 24       		.byte	0x24
 16499 1879 40       		.byte	0x40
 16500 187a 26       		.byte	0x26
 16501 187b 77       		.byte	0x77
 16502 187c 00       		.sleb128 0
 16503 187d 1C       		.byte	0x1c
 16504 187e 23       		.byte	0x23
 16505 187f 01       		.uleb128 0x1
 16506 1880 37       		.byte	0x37
 16507 1881 1B       		.byte	0x1b
 16508 1882 9F       		.byte	0x9f
 16509 1883 00000000 		.4byte	0
 16510 1887 00000000 		.4byte	0
 16511              	.LLST99:
 16512 188b F4010000 		.4byte	.LVL267
 16513 188f 08020000 		.4byte	.LVL269
 16514 1893 0A00     		.2byte	0xa
 16515 1895 70       		.byte	0x70
 16516 1896 00       		.sleb128 0
 16517 1897 78       		.byte	0x78
 16518 1898 00       		.sleb128 0
 16519 1899 1C       		.byte	0x1c
 16520 189a 23       		.byte	0x23
 16521 189b 01       		.uleb128 0x1
 16522 189c 36       		.byte	0x36
 16523 189d 1B       		.byte	0x1b
 16524 189e 9F       		.byte	0x9f
 16525 189f 08020000 		.4byte	.LVL269
 16526 18a3 4F020000 		.4byte	.LVL273-1
 16527 18a7 1000     		.2byte	0x10
 16528 18a9 91       		.byte	0x91
 16529 18aa 5E       		.sleb128 -34
 16530 18ab 94       		.byte	0x94
 16531 18ac 02       		.byte	0x2
 16532 18ad 40       		.byte	0x40
 16533 18ae 24       		.byte	0x24
 16534 18af 40       		.byte	0x40
 16535 18b0 26       		.byte	0x26
 16536 18b1 78       		.byte	0x78
 16537 18b2 00       		.sleb128 0
 16538 18b3 1C       		.byte	0x1c
 16539 18b4 23       		.byte	0x23
 16540 18b5 01       		.uleb128 0x1
 16541 18b6 36       		.byte	0x36
 16542 18b7 1B       		.byte	0x1b
 16543 18b8 9F       		.byte	0x9f
 16544 18b9 00000000 		.4byte	0
 16545 18bd 00000000 		.4byte	0
 16546              	.LLST100:
 16547 18c1 F4010000 		.4byte	.LVL267
 16548 18c5 44020000 		.4byte	.LVL271
ARM GAS  C:\Users\pearlstl\AppData\Local\Temp\ccHPSyCj.s 			page 323


 16549 18c9 0200     		.2byte	0x2
 16550 18cb 30       		.byte	0x30
 16551 18cc 9F       		.byte	0x9f
 16552 18cd 44020000 		.4byte	.LVL271
 16553 18d1 4C020000 		.4byte	.LVL272
 16554 18d5 1300     		.2byte	0x13
 16555 18d7 75       		.byte	0x75
 16556 18d8 00       		.sleb128 0
 16557 18d9 12       		.byte	0x12
 16558 18da 08       		.byte	0x8
 16559 18db FF       		.byte	0xff
 16560 18dc 1A       		.byte	0x1a
 16561 18dd 36       		.byte	0x36
 16562 18de 16       		.byte	0x16
 16563 18df 14       		.byte	0x14
 16564 18e0 08       		.byte	0x8
 16565 18e1 FF       		.byte	0xff
 16566 18e2 1A       		.byte	0x1a
 16567 18e3 2D       		.byte	0x2d
 16568 18e4 28       		.byte	0x28
 16569 18e5 0100     		.2byte	0x1
 16570 18e7 16       		.byte	0x16
 16571 18e8 13       		.byte	0x13
 16572 18e9 9F       		.byte	0x9f
 16573 18ea 4C020000 		.4byte	.LVL272
 16574 18ee 4F020000 		.4byte	.LVL273-1
 16575 18f2 3700     		.2byte	0x37
 16576 18f4 72       		.byte	0x72
 16577 18f5 00       		.sleb128 0
 16578 18f6 7C       		.byte	0x7c
 16579 18f7 01       		.sleb128 1
 16580 18f8 F7       		.byte	0xf7
 16581 18f9 2C       		.uleb128 0x2c
 16582 18fa F7       		.byte	0xf7
 16583 18fb 25       		.uleb128 0x25
 16584 18fc F4       		.byte	0xf4
 16585 18fd 25       		.uleb128 0x25
 16586 18fe 08       		.byte	0x8
 16587 18ff 93244992 		.8byte	0xffffffff92492493
 16587      FFFFFFFF 
 16588 1907 1E       		.byte	0x1e
 16589 1908 08       		.byte	0x8
 16590 1909 20       		.byte	0x20
 16591 190a F7       		.byte	0xf7
 16592 190b 25       		.uleb128 0x25
 16593 190c 25       		.byte	0x25
 16594 190d F7       		.byte	0xf7
 16595 190e 33       		.uleb128 0x33
 16596 190f 7C       		.byte	0x7c
 16597 1910 00       		.sleb128 0
 16598 1911 22       		.byte	0x22
 16599 1912 23       		.byte	0x23
 16600 1913 01       		.uleb128 0x1
 16601 1914 32       		.byte	0x32
 16602 1915 26       		.byte	0x26
 16603 1916 71       		.byte	0x71
 16604 1917 00       		.sleb128 0
ARM GAS  C:\Users\pearlstl\AppData\Local\Temp\ccHPSyCj.s 			page 324


 16605 1918 1C       		.byte	0x1c
 16606 1919 1B       		.byte	0x1b
 16607 191a 12       		.byte	0x12
 16608 191b 08       		.byte	0x8
 16609 191c FF       		.byte	0xff
 16610 191d 1A       		.byte	0x1a
 16611 191e 36       		.byte	0x36
 16612 191f 16       		.byte	0x16
 16613 1920 14       		.byte	0x14
 16614 1921 08       		.byte	0x8
 16615 1922 FF       		.byte	0xff
 16616 1923 1A       		.byte	0x1a
 16617 1924 2D       		.byte	0x2d
 16618 1925 28       		.byte	0x28
 16619 1926 0100     		.2byte	0x1
 16620 1928 16       		.byte	0x16
 16621 1929 13       		.byte	0x13
 16622 192a 9F       		.byte	0x9f
 16623 192b 00000000 		.4byte	0
 16624 192f 00000000 		.4byte	0
 16625              	.LLST101:
 16626 1933 44020000 		.4byte	.LVL271
 16627 1937 4F020000 		.4byte	.LVL273-1
 16628 193b 4D00     		.2byte	0x4d
 16629 193d 91       		.byte	0x91
 16630 193e 4E       		.sleb128 -50
 16631 193f 94       		.byte	0x94
 16632 1940 02       		.byte	0x2
 16633 1941 40       		.byte	0x40
 16634 1942 24       		.byte	0x24
 16635 1943 40       		.byte	0x40
 16636 1944 26       		.byte	0x26
 16637 1945 78       		.byte	0x78
 16638 1946 00       		.sleb128 0
 16639 1947 1C       		.byte	0x1c
 16640 1948 91       		.byte	0x91
 16641 1949 5E       		.sleb128 -34
 16642 194a 94       		.byte	0x94
 16643 194b 02       		.byte	0x2
 16644 194c 40       		.byte	0x40
 16645 194d 24       		.byte	0x24
 16646 194e 40       		.byte	0x40
 16647 194f 26       		.byte	0x26
 16648 1950 78       		.byte	0x78
 16649 1951 00       		.sleb128 0
 16650 1952 1C       		.byte	0x1c
 16651 1953 23       		.byte	0x23
 16652 1954 01       		.uleb128 0x1
 16653 1955 F7       		.byte	0xf7
 16654 1956 2C       		.uleb128 0x2c
 16655 1957 F7       		.byte	0xf7
 16656 1958 25       		.uleb128 0x25
 16657 1959 0C       		.byte	0xc
 16658 195a ABAAAA2A 		.4byte	0x2aaaaaab
 16659 195e F7       		.byte	0xf7
 16660 195f 25       		.uleb128 0x25
 16661 1960 1E       		.byte	0x1e
ARM GAS  C:\Users\pearlstl\AppData\Local\Temp\ccHPSyCj.s 			page 325


 16662 1961 08       		.byte	0x8
 16663 1962 20       		.byte	0x20
 16664 1963 F7       		.byte	0xf7
 16665 1964 25       		.uleb128 0x25
 16666 1965 25       		.byte	0x25
 16667 1966 F7       		.byte	0xf7
 16668 1967 33       		.uleb128 0x33
 16669 1968 91       		.byte	0x91
 16670 1969 5E       		.sleb128 -34
 16671 196a 94       		.byte	0x94
 16672 196b 02       		.byte	0x2
 16673 196c 40       		.byte	0x40
 16674 196d 24       		.byte	0x24
 16675 196e 40       		.byte	0x40
 16676 196f 26       		.byte	0x26
 16677 1970 78       		.byte	0x78
 16678 1971 00       		.sleb128 0
 16679 1972 1C       		.byte	0x1c
 16680 1973 23       		.byte	0x23
 16681 1974 01       		.uleb128 0x1
 16682 1975 4F       		.byte	0x4f
 16683 1976 26       		.byte	0x26
 16684 1977 1C       		.byte	0x1c
 16685 1978 1B       		.byte	0x1b
 16686 1979 12       		.byte	0x12
 16687 197a 08       		.byte	0x8
 16688 197b FF       		.byte	0xff
 16689 197c 1A       		.byte	0x1a
 16690 197d 35       		.byte	0x35
 16691 197e 16       		.byte	0x16
 16692 197f 14       		.byte	0x14
 16693 1980 08       		.byte	0x8
 16694 1981 FF       		.byte	0xff
 16695 1982 1A       		.byte	0x1a
 16696 1983 2D       		.byte	0x2d
 16697 1984 28       		.byte	0x28
 16698 1985 0100     		.2byte	0x1
 16699 1987 16       		.byte	0x16
 16700 1988 13       		.byte	0x13
 16701 1989 9F       		.byte	0x9f
 16702 198a 00000000 		.4byte	0
 16703 198e 00000000 		.4byte	0
 16704              	.LLST102:
 16705 1992 44020000 		.4byte	.LVL271
 16706 1996 B2020000 		.4byte	.LVL274
 16707 199a 0200     		.2byte	0x2
 16708 199c 30       		.byte	0x30
 16709 199d 9F       		.byte	0x9f
 16710 199e B2020000 		.4byte	.LVL274
 16711 19a2 18030000 		.4byte	.LVL282
 16712 19a6 0100     		.2byte	0x1
 16713 19a8 55       		.byte	0x55
 16714 19a9 18030000 		.4byte	.LVL282
 16715 19ad 20030000 		.4byte	.LVL283
 16716 19b1 0300     		.2byte	0x3
 16717 19b3 75       		.byte	0x75
 16718 19b4 7F       		.sleb128 -1
ARM GAS  C:\Users\pearlstl\AppData\Local\Temp\ccHPSyCj.s 			page 326


 16719 19b5 9F       		.byte	0x9f
 16720 19b6 94030000 		.4byte	.LVL289
 16721 19ba EC030000 		.4byte	.LVL296
 16722 19be 0100     		.2byte	0x1
 16723 19c0 55       		.byte	0x55
 16724 19c1 EC030000 		.4byte	.LVL296
 16725 19c5 FA030000 		.4byte	.LVL297
 16726 19c9 0300     		.2byte	0x3
 16727 19cb 75       		.byte	0x75
 16728 19cc 7F       		.sleb128 -1
 16729 19cd 9F       		.byte	0x9f
 16730 19ce 20040000 		.4byte	.LVL302
 16731 19d2 26040000 		.4byte	.LVL303
 16732 19d6 0100     		.2byte	0x1
 16733 19d8 55       		.byte	0x55
 16734 19d9 26040000 		.4byte	.LVL303
 16735 19dd 46040000 		.4byte	.LVL304
 16736 19e1 0300     		.2byte	0x3
 16737 19e3 75       		.byte	0x75
 16738 19e4 7F       		.sleb128 -1
 16739 19e5 9F       		.byte	0x9f
 16740 19e6 46040000 		.4byte	.LVL304
 16741 19ea D4040000 		.4byte	.LFE47
 16742 19ee 0100     		.2byte	0x1
 16743 19f0 55       		.byte	0x55
 16744 19f1 00000000 		.4byte	0
 16745 19f5 00000000 		.4byte	0
 16746              	.LLST103:
 16747 19f9 B2020000 		.4byte	.LVL274
 16748 19fd 20030000 		.4byte	.LVL283
 16749 1a01 0100     		.2byte	0x1
 16750 1a03 50       		.byte	0x50
 16751 1a04 94030000 		.4byte	.LVL289
 16752 1a08 FA030000 		.4byte	.LVL297
 16753 1a0c 0100     		.2byte	0x1
 16754 1a0e 50       		.byte	0x50
 16755 1a0f 20040000 		.4byte	.LVL302
 16756 1a13 D4040000 		.4byte	.LFE47
 16757 1a17 0100     		.2byte	0x1
 16758 1a19 50       		.byte	0x50
 16759 1a1a 00000000 		.4byte	0
 16760 1a1e 00000000 		.4byte	0
 16761              	.LLST104:
 16762 1a22 B2020000 		.4byte	.LVL274
 16763 1a26 B6020000 		.4byte	.LVL275
 16764 1a2a 0200     		.2byte	0x2
 16765 1a2c 31       		.byte	0x31
 16766 1a2d 9F       		.byte	0x9f
 16767 1a2e 00000000 		.4byte	0
 16768 1a32 00000000 		.4byte	0
 16769              	.LLST105:
 16770 1a36 B2020000 		.4byte	.LVL274
 16771 1a3a B6020000 		.4byte	.LVL275
 16772 1a3e 0100     		.2byte	0x1
 16773 1a40 52       		.byte	0x52
 16774 1a41 00000000 		.4byte	0
 16775 1a45 00000000 		.4byte	0
ARM GAS  C:\Users\pearlstl\AppData\Local\Temp\ccHPSyCj.s 			page 327


 16776              	.LLST106:
 16777 1a49 B2020000 		.4byte	.LVL274
 16778 1a4d B6020000 		.4byte	.LVL275
 16779 1a51 0700     		.2byte	0x7
 16780 1a53 71       		.byte	0x71
 16781 1a54 00       		.sleb128 0
 16782 1a55 0A       		.byte	0xa
 16783 1a56 FFFF     		.2byte	0xffff
 16784 1a58 1A       		.byte	0x1a
 16785 1a59 9F       		.byte	0x9f
 16786 1a5a 00000000 		.4byte	0
 16787 1a5e 00000000 		.4byte	0
 16788              	.LLST107:
 16789 1a62 B2020000 		.4byte	.LVL274
 16790 1a66 B6020000 		.4byte	.LVL275
 16791 1a6a 0100     		.2byte	0x1
 16792 1a6c 57       		.byte	0x57
 16793 1a6d 00000000 		.4byte	0
 16794 1a71 00000000 		.4byte	0
 16795              	.LLST108:
 16796 1a75 DC020000 		.4byte	.LVL276
 16797 1a79 E2020000 		.4byte	.LVL277
 16798 1a7d 0300     		.2byte	0x3
 16799 1a7f 72       		.byte	0x72
 16800 1a80 7F       		.sleb128 -1
 16801 1a81 9F       		.byte	0x9f
 16802 1a82 E2020000 		.4byte	.LVL277
 16803 1a86 E8020000 		.4byte	.LVL278
 16804 1a8a 0100     		.2byte	0x1
 16805 1a8c 57       		.byte	0x57
 16806 1a8d E8020000 		.4byte	.LVL278
 16807 1a91 EA020000 		.4byte	.LVL279
 16808 1a95 0E00     		.2byte	0xe
 16809 1a97 72       		.byte	0x72
 16810 1a98 0B       		.sleb128 11
 16811 1a99 72       		.byte	0x72
 16812 1a9a 7F       		.sleb128 -1
 16813 1a9b 72       		.byte	0x72
 16814 1a9c 7F       		.sleb128 -1
 16815 1a9d 30       		.byte	0x30
 16816 1a9e 2D       		.byte	0x2d
 16817 1a9f 28       		.byte	0x28
 16818 1aa0 0100     		.2byte	0x1
 16819 1aa2 16       		.byte	0x16
 16820 1aa3 13       		.byte	0x13
 16821 1aa4 9F       		.byte	0x9f
 16822 1aa5 EA020000 		.4byte	.LVL279
 16823 1aa9 16030000 		.4byte	.LVL281
 16824 1aad 0100     		.2byte	0x1
 16825 1aaf 57       		.byte	0x57
 16826 1ab0 76040000 		.4byte	.LVL307
 16827 1ab4 9E040000 		.4byte	.LVL309
 16828 1ab8 0100     		.2byte	0x1
 16829 1aba 57       		.byte	0x57
 16830 1abb A2040000 		.4byte	.LVL310
 16831 1abf A6040000 		.4byte	.LVL311
 16832 1ac3 0200     		.2byte	0x2
ARM GAS  C:\Users\pearlstl\AppData\Local\Temp\ccHPSyCj.s 			page 328


 16833 1ac5 3B       		.byte	0x3b
 16834 1ac6 9F       		.byte	0x9f
 16835 1ac7 A6040000 		.4byte	.LVL311
 16836 1acb B4040000 		.4byte	.LVL313
 16837 1acf 0100     		.2byte	0x1
 16838 1ad1 57       		.byte	0x57
 16839 1ad2 C2040000 		.4byte	.LVL316
 16840 1ad6 C6040000 		.4byte	.LVL317
 16841 1ada 0100     		.2byte	0x1
 16842 1adc 57       		.byte	0x57
 16843 1add 00000000 		.4byte	0
 16844 1ae1 00000000 		.4byte	0
 16845              	.LLST109:
 16846 1ae5 DC020000 		.4byte	.LVL276
 16847 1ae9 F2020000 		.4byte	.LVL280
 16848 1aed 0100     		.2byte	0x1
 16849 1aef 51       		.byte	0x51
 16850 1af0 76040000 		.4byte	.LVL307
 16851 1af4 9E040000 		.4byte	.LVL309
 16852 1af8 0100     		.2byte	0x1
 16853 1afa 51       		.byte	0x51
 16854 1afb A2040000 		.4byte	.LVL310
 16855 1aff A6040000 		.4byte	.LVL311
 16856 1b03 0700     		.2byte	0x7
 16857 1b05 71       		.byte	0x71
 16858 1b06 00       		.sleb128 0
 16859 1b07 0A       		.byte	0xa
 16860 1b08 FFFF     		.2byte	0xffff
 16861 1b0a 1A       		.byte	0x1a
 16862 1b0b 9F       		.byte	0x9f
 16863 1b0c A6040000 		.4byte	.LVL311
 16864 1b10 AA040000 		.4byte	.LVL312
 16865 1b14 0100     		.2byte	0x1
 16866 1b16 51       		.byte	0x51
 16867 1b17 C2040000 		.4byte	.LVL316
 16868 1b1b C6040000 		.4byte	.LVL317
 16869 1b1f 0100     		.2byte	0x1
 16870 1b21 51       		.byte	0x51
 16871 1b22 00000000 		.4byte	0
 16872 1b26 00000000 		.4byte	0
 16873              	.LLST110:
 16874 1b2a 76040000 		.4byte	.LVL307
 16875 1b2e 98040000 		.4byte	.LVL308
 16876 1b32 0100     		.2byte	0x1
 16877 1b34 51       		.byte	0x51
 16878 1b35 A6040000 		.4byte	.LVL311
 16879 1b39 AA040000 		.4byte	.LVL312
 16880 1b3d 0100     		.2byte	0x1
 16881 1b3f 51       		.byte	0x51
 16882 1b40 C2040000 		.4byte	.LVL316
 16883 1b44 C6040000 		.4byte	.LVL317
 16884 1b48 0100     		.2byte	0x1
 16885 1b4a 51       		.byte	0x51
 16886 1b4b 00000000 		.4byte	0
 16887 1b4f 00000000 		.4byte	0
 16888              	.LLST111:
 16889 1b53 A0030000 		.4byte	.LVL290
ARM GAS  C:\Users\pearlstl\AppData\Local\Temp\ccHPSyCj.s 			page 329


 16890 1b57 A6030000 		.4byte	.LVL291
 16891 1b5b 0300     		.2byte	0x3
 16892 1b5d 72       		.byte	0x72
 16893 1b5e 7F       		.sleb128 -1
 16894 1b5f 9F       		.byte	0x9f
 16895 1b60 A6030000 		.4byte	.LVL291
 16896 1b64 B0030000 		.4byte	.LVL292
 16897 1b68 0100     		.2byte	0x1
 16898 1b6a 5A       		.byte	0x5a
 16899 1b6b B0030000 		.4byte	.LVL292
 16900 1b6f B2030000 		.4byte	.LVL293
 16901 1b73 0E00     		.2byte	0xe
 16902 1b75 72       		.byte	0x72
 16903 1b76 0B       		.sleb128 11
 16904 1b77 72       		.byte	0x72
 16905 1b78 7F       		.sleb128 -1
 16906 1b79 72       		.byte	0x72
 16907 1b7a 7F       		.sleb128 -1
 16908 1b7b 30       		.byte	0x30
 16909 1b7c 2D       		.byte	0x2d
 16910 1b7d 28       		.byte	0x28
 16911 1b7e 0100     		.2byte	0x1
 16912 1b80 16       		.byte	0x16
 16913 1b81 13       		.byte	0x13
 16914 1b82 9F       		.byte	0x9f
 16915 1b83 B2030000 		.4byte	.LVL293
 16916 1b87 E4030000 		.4byte	.LVL295
 16917 1b8b 0100     		.2byte	0x1
 16918 1b8d 5A       		.byte	0x5a
 16919 1b8e 46040000 		.4byte	.LVL304
 16920 1b92 76040000 		.4byte	.LVL307
 16921 1b96 0100     		.2byte	0x1
 16922 1b98 5A       		.byte	0x5a
 16923 1b99 B4040000 		.4byte	.LVL313
 16924 1b9d C2040000 		.4byte	.LVL316
 16925 1ba1 0100     		.2byte	0x1
 16926 1ba3 5A       		.byte	0x5a
 16927 1ba4 C6040000 		.4byte	.LVL317
 16928 1ba8 D4040000 		.4byte	.LFE47
 16929 1bac 0100     		.2byte	0x1
 16930 1bae 5A       		.byte	0x5a
 16931 1baf 00000000 		.4byte	0
 16932 1bb3 00000000 		.4byte	0
 16933              	.LLST112:
 16934 1bb7 A0030000 		.4byte	.LVL290
 16935 1bbb BE030000 		.4byte	.LVL294
 16936 1bbf 0100     		.2byte	0x1
 16937 1bc1 53       		.byte	0x53
 16938 1bc2 BE030000 		.4byte	.LVL294
 16939 1bc6 E4030000 		.4byte	.LVL295
 16940 1bca 3100     		.2byte	0x31
 16941 1bcc 71       		.byte	0x71
 16942 1bcd 7F       		.sleb128 -1
 16943 1bce 71       		.byte	0x71
 16944 1bcf 00       		.sleb128 0
 16945 1bd0 72       		.byte	0x72
 16946 1bd1 7F       		.sleb128 -1
ARM GAS  C:\Users\pearlstl\AppData\Local\Temp\ccHPSyCj.s 			page 330


 16947 1bd2 30       		.byte	0x30
 16948 1bd3 2D       		.byte	0x2d
 16949 1bd4 28       		.byte	0x28
 16950 1bd5 0100     		.2byte	0x1
 16951 1bd7 16       		.byte	0x16
 16952 1bd8 13       		.byte	0x13
 16953 1bd9 23       		.byte	0x23
 16954 1bda 01       		.uleb128 0x1
 16955 1bdb 71       		.byte	0x71
 16956 1bdc 7F       		.sleb128 -1
 16957 1bdd 71       		.byte	0x71
 16958 1bde 00       		.sleb128 0
 16959 1bdf 72       		.byte	0x72
 16960 1be0 7F       		.sleb128 -1
 16961 1be1 30       		.byte	0x30
 16962 1be2 2D       		.byte	0x2d
 16963 1be3 28       		.byte	0x28
 16964 1be4 0100     		.2byte	0x1
 16965 1be6 16       		.byte	0x16
 16966 1be7 13       		.byte	0x13
 16967 1be8 72       		.byte	0x72
 16968 1be9 0B       		.sleb128 11
 16969 1bea 72       		.byte	0x72
 16970 1beb 7F       		.sleb128 -1
 16971 1bec 72       		.byte	0x72
 16972 1bed 7F       		.sleb128 -1
 16973 1bee 30       		.byte	0x30
 16974 1bef 2D       		.byte	0x2d
 16975 1bf0 28       		.byte	0x28
 16976 1bf1 0100     		.2byte	0x1
 16977 1bf3 16       		.byte	0x16
 16978 1bf4 13       		.byte	0x13
 16979 1bf5 3B       		.byte	0x3b
 16980 1bf6 2B       		.byte	0x2b
 16981 1bf7 28       		.byte	0x28
 16982 1bf8 0100     		.2byte	0x1
 16983 1bfa 16       		.byte	0x16
 16984 1bfb 13       		.byte	0x13
 16985 1bfc 9F       		.byte	0x9f
 16986 1bfd 46040000 		.4byte	.LVL304
 16987 1c01 6A040000 		.4byte	.LVL305
 16988 1c05 0100     		.2byte	0x1
 16989 1c07 53       		.byte	0x53
 16990 1c08 6A040000 		.4byte	.LVL305
 16991 1c0c 76040000 		.4byte	.LVL307
 16992 1c10 3100     		.2byte	0x31
 16993 1c12 71       		.byte	0x71
 16994 1c13 7F       		.sleb128 -1
 16995 1c14 71       		.byte	0x71
 16996 1c15 00       		.sleb128 0
 16997 1c16 72       		.byte	0x72
 16998 1c17 7F       		.sleb128 -1
 16999 1c18 30       		.byte	0x30
 17000 1c19 2D       		.byte	0x2d
 17001 1c1a 28       		.byte	0x28
 17002 1c1b 0100     		.2byte	0x1
 17003 1c1d 16       		.byte	0x16
ARM GAS  C:\Users\pearlstl\AppData\Local\Temp\ccHPSyCj.s 			page 331


 17004 1c1e 13       		.byte	0x13
 17005 1c1f 23       		.byte	0x23
 17006 1c20 01       		.uleb128 0x1
 17007 1c21 71       		.byte	0x71
 17008 1c22 7F       		.sleb128 -1
 17009 1c23 71       		.byte	0x71
 17010 1c24 00       		.sleb128 0
 17011 1c25 72       		.byte	0x72
 17012 1c26 7F       		.sleb128 -1
 17013 1c27 30       		.byte	0x30
 17014 1c28 2D       		.byte	0x2d
 17015 1c29 28       		.byte	0x28
 17016 1c2a 0100     		.2byte	0x1
 17017 1c2c 16       		.byte	0x16
 17018 1c2d 13       		.byte	0x13
 17019 1c2e 72       		.byte	0x72
 17020 1c2f 0B       		.sleb128 11
 17021 1c30 72       		.byte	0x72
 17022 1c31 7F       		.sleb128 -1
 17023 1c32 72       		.byte	0x72
 17024 1c33 7F       		.sleb128 -1
 17025 1c34 30       		.byte	0x30
 17026 1c35 2D       		.byte	0x2d
 17027 1c36 28       		.byte	0x28
 17028 1c37 0100     		.2byte	0x1
 17029 1c39 16       		.byte	0x16
 17030 1c3a 13       		.byte	0x13
 17031 1c3b 3B       		.byte	0x3b
 17032 1c3c 2B       		.byte	0x2b
 17033 1c3d 28       		.byte	0x28
 17034 1c3e 0100     		.2byte	0x1
 17035 1c40 16       		.byte	0x16
 17036 1c41 13       		.byte	0x13
 17037 1c42 9F       		.byte	0x9f
 17038 1c43 B4040000 		.4byte	.LVL313
 17039 1c47 BE040000 		.4byte	.LVL314
 17040 1c4b 3100     		.2byte	0x31
 17041 1c4d 71       		.byte	0x71
 17042 1c4e 7F       		.sleb128 -1
 17043 1c4f 71       		.byte	0x71
 17044 1c50 00       		.sleb128 0
 17045 1c51 72       		.byte	0x72
 17046 1c52 7F       		.sleb128 -1
 17047 1c53 30       		.byte	0x30
 17048 1c54 2D       		.byte	0x2d
 17049 1c55 28       		.byte	0x28
 17050 1c56 0100     		.2byte	0x1
 17051 1c58 16       		.byte	0x16
 17052 1c59 13       		.byte	0x13
 17053 1c5a 23       		.byte	0x23
 17054 1c5b 01       		.uleb128 0x1
 17055 1c5c 71       		.byte	0x71
 17056 1c5d 7F       		.sleb128 -1
 17057 1c5e 71       		.byte	0x71
 17058 1c5f 00       		.sleb128 0
 17059 1c60 72       		.byte	0x72
 17060 1c61 7F       		.sleb128 -1
ARM GAS  C:\Users\pearlstl\AppData\Local\Temp\ccHPSyCj.s 			page 332


 17061 1c62 30       		.byte	0x30
 17062 1c63 2D       		.byte	0x2d
 17063 1c64 28       		.byte	0x28
 17064 1c65 0100     		.2byte	0x1
 17065 1c67 16       		.byte	0x16
 17066 1c68 13       		.byte	0x13
 17067 1c69 72       		.byte	0x72
 17068 1c6a 0B       		.sleb128 11
 17069 1c6b 72       		.byte	0x72
 17070 1c6c 7F       		.sleb128 -1
 17071 1c6d 72       		.byte	0x72
 17072 1c6e 7F       		.sleb128 -1
 17073 1c6f 30       		.byte	0x30
 17074 1c70 2D       		.byte	0x2d
 17075 1c71 28       		.byte	0x28
 17076 1c72 0100     		.2byte	0x1
 17077 1c74 16       		.byte	0x16
 17078 1c75 13       		.byte	0x13
 17079 1c76 3B       		.byte	0x3b
 17080 1c77 2B       		.byte	0x2b
 17081 1c78 28       		.byte	0x28
 17082 1c79 0100     		.2byte	0x1
 17083 1c7b 16       		.byte	0x16
 17084 1c7c 13       		.byte	0x13
 17085 1c7d 9F       		.byte	0x9f
 17086 1c7e BE040000 		.4byte	.LVL314
 17087 1c82 C0040000 		.4byte	.LVL315
 17088 1c86 0100     		.2byte	0x1
 17089 1c88 53       		.byte	0x53
 17090 1c89 C0040000 		.4byte	.LVL315
 17091 1c8d C2040000 		.4byte	.LVL316
 17092 1c91 3100     		.2byte	0x31
 17093 1c93 71       		.byte	0x71
 17094 1c94 7F       		.sleb128 -1
 17095 1c95 71       		.byte	0x71
 17096 1c96 00       		.sleb128 0
 17097 1c97 72       		.byte	0x72
 17098 1c98 7F       		.sleb128 -1
 17099 1c99 30       		.byte	0x30
 17100 1c9a 2D       		.byte	0x2d
 17101 1c9b 28       		.byte	0x28
 17102 1c9c 0100     		.2byte	0x1
 17103 1c9e 16       		.byte	0x16
 17104 1c9f 13       		.byte	0x13
 17105 1ca0 23       		.byte	0x23
 17106 1ca1 01       		.uleb128 0x1
 17107 1ca2 71       		.byte	0x71
 17108 1ca3 7F       		.sleb128 -1
 17109 1ca4 71       		.byte	0x71
 17110 1ca5 00       		.sleb128 0
 17111 1ca6 72       		.byte	0x72
 17112 1ca7 7F       		.sleb128 -1
 17113 1ca8 30       		.byte	0x30
 17114 1ca9 2D       		.byte	0x2d
 17115 1caa 28       		.byte	0x28
 17116 1cab 0100     		.2byte	0x1
 17117 1cad 16       		.byte	0x16
ARM GAS  C:\Users\pearlstl\AppData\Local\Temp\ccHPSyCj.s 			page 333


 17118 1cae 13       		.byte	0x13
 17119 1caf 72       		.byte	0x72
 17120 1cb0 0B       		.sleb128 11
 17121 1cb1 72       		.byte	0x72
 17122 1cb2 7F       		.sleb128 -1
 17123 1cb3 72       		.byte	0x72
 17124 1cb4 7F       		.sleb128 -1
 17125 1cb5 30       		.byte	0x30
 17126 1cb6 2D       		.byte	0x2d
 17127 1cb7 28       		.byte	0x28
 17128 1cb8 0100     		.2byte	0x1
 17129 1cba 16       		.byte	0x16
 17130 1cbb 13       		.byte	0x13
 17131 1cbc 3B       		.byte	0x3b
 17132 1cbd 2B       		.byte	0x2b
 17133 1cbe 28       		.byte	0x28
 17134 1cbf 0100     		.2byte	0x1
 17135 1cc1 16       		.byte	0x16
 17136 1cc2 13       		.byte	0x13
 17137 1cc3 9F       		.byte	0x9f
 17138 1cc4 C6040000 		.4byte	.LVL317
 17139 1cc8 C8040000 		.4byte	.LVL318
 17140 1ccc 0100     		.2byte	0x1
 17141 1cce 53       		.byte	0x53
 17142 1ccf C8040000 		.4byte	.LVL318
 17143 1cd3 D4040000 		.4byte	.LFE47
 17144 1cd7 3100     		.2byte	0x31
 17145 1cd9 71       		.byte	0x71
 17146 1cda 7F       		.sleb128 -1
 17147 1cdb 71       		.byte	0x71
 17148 1cdc 00       		.sleb128 0
 17149 1cdd 72       		.byte	0x72
 17150 1cde 7F       		.sleb128 -1
 17151 1cdf 30       		.byte	0x30
 17152 1ce0 2D       		.byte	0x2d
 17153 1ce1 28       		.byte	0x28
 17154 1ce2 0100     		.2byte	0x1
 17155 1ce4 16       		.byte	0x16
 17156 1ce5 13       		.byte	0x13
 17157 1ce6 23       		.byte	0x23
 17158 1ce7 01       		.uleb128 0x1
 17159 1ce8 71       		.byte	0x71
 17160 1ce9 7F       		.sleb128 -1
 17161 1cea 71       		.byte	0x71
 17162 1ceb 00       		.sleb128 0
 17163 1cec 72       		.byte	0x72
 17164 1ced 7F       		.sleb128 -1
 17165 1cee 30       		.byte	0x30
 17166 1cef 2D       		.byte	0x2d
 17167 1cf0 28       		.byte	0x28
 17168 1cf1 0100     		.2byte	0x1
 17169 1cf3 16       		.byte	0x16
 17170 1cf4 13       		.byte	0x13
 17171 1cf5 72       		.byte	0x72
 17172 1cf6 0B       		.sleb128 11
 17173 1cf7 72       		.byte	0x72
 17174 1cf8 7F       		.sleb128 -1
ARM GAS  C:\Users\pearlstl\AppData\Local\Temp\ccHPSyCj.s 			page 334


 17175 1cf9 72       		.byte	0x72
 17176 1cfa 7F       		.sleb128 -1
 17177 1cfb 30       		.byte	0x30
 17178 1cfc 2D       		.byte	0x2d
 17179 1cfd 28       		.byte	0x28
 17180 1cfe 0100     		.2byte	0x1
 17181 1d00 16       		.byte	0x16
 17182 1d01 13       		.byte	0x13
 17183 1d02 3B       		.byte	0x3b
 17184 1d03 2B       		.byte	0x2b
 17185 1d04 28       		.byte	0x28
 17186 1d05 0100     		.2byte	0x1
 17187 1d07 16       		.byte	0x16
 17188 1d08 13       		.byte	0x13
 17189 1d09 9F       		.byte	0x9f
 17190 1d0a 00000000 		.4byte	0
 17191 1d0e 00000000 		.4byte	0
 17192              	.LLST113:
 17193 1d12 46040000 		.4byte	.LVL304
 17194 1d16 6A040000 		.4byte	.LVL305
 17195 1d1a 0100     		.2byte	0x1
 17196 1d1c 53       		.byte	0x53
 17197 1d1d 6A040000 		.4byte	.LVL305
 17198 1d21 70040000 		.4byte	.LVL306
 17199 1d25 3100     		.2byte	0x31
 17200 1d27 71       		.byte	0x71
 17201 1d28 7F       		.sleb128 -1
 17202 1d29 71       		.byte	0x71
 17203 1d2a 00       		.sleb128 0
 17204 1d2b 72       		.byte	0x72
 17205 1d2c 7F       		.sleb128 -1
 17206 1d2d 30       		.byte	0x30
 17207 1d2e 2D       		.byte	0x2d
 17208 1d2f 28       		.byte	0x28
 17209 1d30 0100     		.2byte	0x1
 17210 1d32 16       		.byte	0x16
 17211 1d33 13       		.byte	0x13
 17212 1d34 23       		.byte	0x23
 17213 1d35 01       		.uleb128 0x1
 17214 1d36 71       		.byte	0x71
 17215 1d37 7F       		.sleb128 -1
 17216 1d38 71       		.byte	0x71
 17217 1d39 00       		.sleb128 0
 17218 1d3a 72       		.byte	0x72
 17219 1d3b 7F       		.sleb128 -1
 17220 1d3c 30       		.byte	0x30
 17221 1d3d 2D       		.byte	0x2d
 17222 1d3e 28       		.byte	0x28
 17223 1d3f 0100     		.2byte	0x1
 17224 1d41 16       		.byte	0x16
 17225 1d42 13       		.byte	0x13
 17226 1d43 72       		.byte	0x72
 17227 1d44 0B       		.sleb128 11
 17228 1d45 72       		.byte	0x72
 17229 1d46 7F       		.sleb128 -1
 17230 1d47 72       		.byte	0x72
 17231 1d48 7F       		.sleb128 -1
ARM GAS  C:\Users\pearlstl\AppData\Local\Temp\ccHPSyCj.s 			page 335


 17232 1d49 30       		.byte	0x30
 17233 1d4a 2D       		.byte	0x2d
 17234 1d4b 28       		.byte	0x28
 17235 1d4c 0100     		.2byte	0x1
 17236 1d4e 16       		.byte	0x16
 17237 1d4f 13       		.byte	0x13
 17238 1d50 3B       		.byte	0x3b
 17239 1d51 2B       		.byte	0x2b
 17240 1d52 28       		.byte	0x28
 17241 1d53 0100     		.2byte	0x1
 17242 1d55 16       		.byte	0x16
 17243 1d56 13       		.byte	0x13
 17244 1d57 9F       		.byte	0x9f
 17245 1d58 BE040000 		.4byte	.LVL314
 17246 1d5c C0040000 		.4byte	.LVL315
 17247 1d60 0100     		.2byte	0x1
 17248 1d62 53       		.byte	0x53
 17249 1d63 C0040000 		.4byte	.LVL315
 17250 1d67 C2040000 		.4byte	.LVL316
 17251 1d6b 3100     		.2byte	0x31
 17252 1d6d 71       		.byte	0x71
 17253 1d6e 7F       		.sleb128 -1
 17254 1d6f 71       		.byte	0x71
 17255 1d70 00       		.sleb128 0
 17256 1d71 72       		.byte	0x72
 17257 1d72 7F       		.sleb128 -1
 17258 1d73 30       		.byte	0x30
 17259 1d74 2D       		.byte	0x2d
 17260 1d75 28       		.byte	0x28
 17261 1d76 0100     		.2byte	0x1
 17262 1d78 16       		.byte	0x16
 17263 1d79 13       		.byte	0x13
 17264 1d7a 23       		.byte	0x23
 17265 1d7b 01       		.uleb128 0x1
 17266 1d7c 71       		.byte	0x71
 17267 1d7d 7F       		.sleb128 -1
 17268 1d7e 71       		.byte	0x71
 17269 1d7f 00       		.sleb128 0
 17270 1d80 72       		.byte	0x72
 17271 1d81 7F       		.sleb128 -1
 17272 1d82 30       		.byte	0x30
 17273 1d83 2D       		.byte	0x2d
 17274 1d84 28       		.byte	0x28
 17275 1d85 0100     		.2byte	0x1
 17276 1d87 16       		.byte	0x16
 17277 1d88 13       		.byte	0x13
 17278 1d89 72       		.byte	0x72
 17279 1d8a 0B       		.sleb128 11
 17280 1d8b 72       		.byte	0x72
 17281 1d8c 7F       		.sleb128 -1
 17282 1d8d 72       		.byte	0x72
 17283 1d8e 7F       		.sleb128 -1
 17284 1d8f 30       		.byte	0x30
 17285 1d90 2D       		.byte	0x2d
 17286 1d91 28       		.byte	0x28
 17287 1d92 0100     		.2byte	0x1
 17288 1d94 16       		.byte	0x16
ARM GAS  C:\Users\pearlstl\AppData\Local\Temp\ccHPSyCj.s 			page 336


 17289 1d95 13       		.byte	0x13
 17290 1d96 3B       		.byte	0x3b
 17291 1d97 2B       		.byte	0x2b
 17292 1d98 28       		.byte	0x28
 17293 1d99 0100     		.2byte	0x1
 17294 1d9b 16       		.byte	0x16
 17295 1d9c 13       		.byte	0x13
 17296 1d9d 9F       		.byte	0x9f
 17297 1d9e C6040000 		.4byte	.LVL317
 17298 1da2 C8040000 		.4byte	.LVL318
 17299 1da6 0100     		.2byte	0x1
 17300 1da8 53       		.byte	0x53
 17301 1da9 C8040000 		.4byte	.LVL318
 17302 1dad D4040000 		.4byte	.LFE47
 17303 1db1 3100     		.2byte	0x31
 17304 1db3 71       		.byte	0x71
 17305 1db4 7F       		.sleb128 -1
 17306 1db5 71       		.byte	0x71
 17307 1db6 00       		.sleb128 0
 17308 1db7 72       		.byte	0x72
 17309 1db8 7F       		.sleb128 -1
 17310 1db9 30       		.byte	0x30
 17311 1dba 2D       		.byte	0x2d
 17312 1dbb 28       		.byte	0x28
 17313 1dbc 0100     		.2byte	0x1
 17314 1dbe 16       		.byte	0x16
 17315 1dbf 13       		.byte	0x13
 17316 1dc0 23       		.byte	0x23
 17317 1dc1 01       		.uleb128 0x1
 17318 1dc2 71       		.byte	0x71
 17319 1dc3 7F       		.sleb128 -1
 17320 1dc4 71       		.byte	0x71
 17321 1dc5 00       		.sleb128 0
 17322 1dc6 72       		.byte	0x72
 17323 1dc7 7F       		.sleb128 -1
 17324 1dc8 30       		.byte	0x30
 17325 1dc9 2D       		.byte	0x2d
 17326 1dca 28       		.byte	0x28
 17327 1dcb 0100     		.2byte	0x1
 17328 1dcd 16       		.byte	0x16
 17329 1dce 13       		.byte	0x13
 17330 1dcf 72       		.byte	0x72
 17331 1dd0 0B       		.sleb128 11
 17332 1dd1 72       		.byte	0x72
 17333 1dd2 7F       		.sleb128 -1
 17334 1dd3 72       		.byte	0x72
 17335 1dd4 7F       		.sleb128 -1
 17336 1dd5 30       		.byte	0x30
 17337 1dd6 2D       		.byte	0x2d
 17338 1dd7 28       		.byte	0x28
 17339 1dd8 0100     		.2byte	0x1
 17340 1dda 16       		.byte	0x16
 17341 1ddb 13       		.byte	0x13
 17342 1ddc 3B       		.byte	0x3b
 17343 1ddd 2B       		.byte	0x2b
 17344 1dde 28       		.byte	0x28
 17345 1ddf 0100     		.2byte	0x1
ARM GAS  C:\Users\pearlstl\AppData\Local\Temp\ccHPSyCj.s 			page 337


 17346 1de1 16       		.byte	0x16
 17347 1de2 13       		.byte	0x13
 17348 1de3 9F       		.byte	0x9f
 17349 1de4 00000000 		.4byte	0
 17350 1de8 00000000 		.4byte	0
 17351              	.LLST114:
 17352 1dec 08010000 		.4byte	.LVL236
 17353 1df0 22010000 		.4byte	.LVL237
 17354 1df4 0100     		.2byte	0x1
 17355 1df6 50       		.byte	0x50
 17356 1df7 22010000 		.4byte	.LVL237
 17357 1dfb 30010000 		.4byte	.LVL239
 17358 1dff 0100     		.2byte	0x1
 17359 1e01 55       		.byte	0x55
 17360 1e02 54030000 		.4byte	.LVL285
 17361 1e06 74030000 		.4byte	.LVL286
 17362 1e0a 0100     		.2byte	0x1
 17363 1e0c 50       		.byte	0x50
 17364 1e0d 74030000 		.4byte	.LVL286
 17365 1e11 80030000 		.4byte	.LVL288
 17366 1e15 0100     		.2byte	0x1
 17367 1e17 55       		.byte	0x55
 17368 1e18 04040000 		.4byte	.LVL298
 17369 1e1c 10040000 		.4byte	.LVL299
 17370 1e20 0100     		.2byte	0x1
 17371 1e22 50       		.byte	0x50
 17372 1e23 00000000 		.4byte	0
 17373 1e27 00000000 		.4byte	0
 17374              	.LLST115:
 17375 1e2b 38010000 		.4byte	.LVL242
 17376 1e2f 3C010000 		.4byte	.LVL243
 17377 1e33 0100     		.2byte	0x1
 17378 1e35 50       		.byte	0x50
 17379 1e36 3C010000 		.4byte	.LVL243
 17380 1e3a 41010000 		.4byte	.LVL244-1
 17381 1e3e 0100     		.2byte	0x1
 17382 1e40 53       		.byte	0x53
 17383 1e41 00000000 		.4byte	0
 17384 1e45 00000000 		.4byte	0
 17385              	.LLST116:
 17386 1e49 00000000 		.4byte	.LVL319
 17387 1e4d 07000000 		.4byte	.LVL320-1
 17388 1e51 0100     		.2byte	0x1
 17389 1e53 50       		.byte	0x50
 17390 1e54 07000000 		.4byte	.LVL320-1
 17391 1e58 48020000 		.4byte	.LFE31
 17392 1e5c 0400     		.2byte	0x4
 17393 1e5e F3       		.byte	0xf3
 17394 1e5f 01       		.uleb128 0x1
 17395 1e60 50       		.byte	0x50
 17396 1e61 9F       		.byte	0x9f
 17397 1e62 00000000 		.4byte	0
 17398 1e66 00000000 		.4byte	0
 17399              	.LLST117:
 17400 1e6a 00000000 		.4byte	.LVL319
 17401 1e6e 07000000 		.4byte	.LVL320-1
 17402 1e72 0100     		.2byte	0x1
ARM GAS  C:\Users\pearlstl\AppData\Local\Temp\ccHPSyCj.s 			page 338


 17403 1e74 51       		.byte	0x51
 17404 1e75 07000000 		.4byte	.LVL320-1
 17405 1e79 B2000000 		.4byte	.LVL328
 17406 1e7d 0100     		.2byte	0x1
 17407 1e7f 57       		.byte	0x57
 17408 1e80 B2000000 		.4byte	.LVL328
 17409 1e84 E0000000 		.4byte	.LVL331
 17410 1e88 0400     		.2byte	0x4
 17411 1e8a F3       		.byte	0xf3
 17412 1e8b 01       		.uleb128 0x1
 17413 1e8c 51       		.byte	0x51
 17414 1e8d 9F       		.byte	0x9f
 17415 1e8e E0000000 		.4byte	.LVL331
 17416 1e92 FA000000 		.4byte	.LVL335
 17417 1e96 0100     		.2byte	0x1
 17418 1e98 57       		.byte	0x57
 17419 1e99 FA000000 		.4byte	.LVL335
 17420 1e9d 98010000 		.4byte	.LVL370
 17421 1ea1 0400     		.2byte	0x4
 17422 1ea3 F3       		.byte	0xf3
 17423 1ea4 01       		.uleb128 0x1
 17424 1ea5 51       		.byte	0x51
 17425 1ea6 9F       		.byte	0x9f
 17426 1ea7 98010000 		.4byte	.LVL370
 17427 1eab B0010000 		.4byte	.LVL375
 17428 1eaf 0100     		.2byte	0x1
 17429 1eb1 57       		.byte	0x57
 17430 1eb2 B0010000 		.4byte	.LVL375
 17431 1eb6 48020000 		.4byte	.LFE31
 17432 1eba 0400     		.2byte	0x4
 17433 1ebc F3       		.byte	0xf3
 17434 1ebd 01       		.uleb128 0x1
 17435 1ebe 51       		.byte	0x51
 17436 1ebf 9F       		.byte	0x9f
 17437 1ec0 00000000 		.4byte	0
 17438 1ec4 00000000 		.4byte	0
 17439              	.LLST118:
 17440 1ec8 08000000 		.4byte	.LVL320
 17441 1ecc 15000000 		.4byte	.LVL321-1
 17442 1ed0 0100     		.2byte	0x1
 17443 1ed2 50       		.byte	0x50
 17444 1ed3 15000000 		.4byte	.LVL321-1
 17445 1ed7 88010000 		.4byte	.LVL366
 17446 1edb 0100     		.2byte	0x1
 17447 1edd 55       		.byte	0x55
 17448 1ede 88010000 		.4byte	.LVL366
 17449 1ee2 8B010000 		.4byte	.LVL367-1
 17450 1ee6 0100     		.2byte	0x1
 17451 1ee8 50       		.byte	0x50
 17452 1ee9 8B010000 		.4byte	.LVL367-1
 17453 1eed 98010000 		.4byte	.LVL370
 17454 1ef1 0100     		.2byte	0x1
 17455 1ef3 55       		.byte	0x55
 17456 1ef4 9C010000 		.4byte	.LVL371
 17457 1ef8 48020000 		.4byte	.LFE31
 17458 1efc 0100     		.2byte	0x1
 17459 1efe 55       		.byte	0x55
ARM GAS  C:\Users\pearlstl\AppData\Local\Temp\ccHPSyCj.s 			page 339


 17460 1eff 00000000 		.4byte	0
 17461 1f03 00000000 		.4byte	0
 17462              	.LLST119:
 17463 1f07 16000000 		.4byte	.LVL321
 17464 1f0b 28000000 		.4byte	.LVL322
 17465 1f0f 0100     		.2byte	0x1
 17466 1f11 50       		.byte	0x50
 17467 1f12 28000000 		.4byte	.LVL322
 17468 1f16 02010000 		.4byte	.LVL336
 17469 1f1a 0100     		.2byte	0x1
 17470 1f1c 54       		.byte	0x54
 17471 1f1d 9C010000 		.4byte	.LVL371
 17472 1f21 9E010000 		.4byte	.LVL372
 17473 1f25 0100     		.2byte	0x1
 17474 1f27 50       		.byte	0x50
 17475 1f28 9E010000 		.4byte	.LVL372
 17476 1f2c 28020000 		.4byte	.LVL404
 17477 1f30 0100     		.2byte	0x1
 17478 1f32 54       		.byte	0x54
 17479 1f33 00000000 		.4byte	0
 17480 1f37 00000000 		.4byte	0
 17481              	.LLST120:
 17482 1f3b 8A000000 		.4byte	.LVL326
 17483 1f3f 8C000000 		.4byte	.LVL327
 17484 1f43 0100     		.2byte	0x1
 17485 1f45 50       		.byte	0x50
 17486 1f46 8C000000 		.4byte	.LVL327
 17487 1f4a D6000000 		.4byte	.LVL329
 17488 1f4e 0100     		.2byte	0x1
 17489 1f50 53       		.byte	0x53
 17490 1f51 00000000 		.4byte	0
 17491 1f55 00000000 		.4byte	0
 17492              	.LLST121:
 17493 1f59 F8000000 		.4byte	.LVL334
 17494 1f5d 04010000 		.4byte	.LVL337
 17495 1f61 0100     		.2byte	0x1
 17496 1f63 50       		.byte	0x50
 17497 1f64 04010000 		.4byte	.LVL337
 17498 1f68 98010000 		.4byte	.LVL370
 17499 1f6c 0100     		.2byte	0x1
 17500 1f6e 57       		.byte	0x57
 17501 1f6f B0010000 		.4byte	.LVL375
 17502 1f73 B2010000 		.4byte	.LVL376
 17503 1f77 0100     		.2byte	0x1
 17504 1f79 50       		.byte	0x50
 17505 1f7a B2010000 		.4byte	.LVL376
 17506 1f7e 48020000 		.4byte	.LFE31
 17507 1f82 0100     		.2byte	0x1
 17508 1f84 57       		.byte	0x57
 17509 1f85 00000000 		.4byte	0
 17510 1f89 00000000 		.4byte	0
 17511              	.LLST122:
 17512 1f8d 02010000 		.4byte	.LVL336
 17513 1f91 16010000 		.4byte	.LVL340
 17514 1f95 0100     		.2byte	0x1
 17515 1f97 54       		.byte	0x54
 17516 1f98 00000000 		.4byte	0
ARM GAS  C:\Users\pearlstl\AppData\Local\Temp\ccHPSyCj.s 			page 340


 17517 1f9c 00000000 		.4byte	0
 17518              	.LLST123:
 17519 1fa0 02010000 		.4byte	.LVL336
 17520 1fa4 16010000 		.4byte	.LVL340
 17521 1fa8 0200     		.2byte	0x2
 17522 1faa 30       		.byte	0x30
 17523 1fab 9F       		.byte	0x9f
 17524 1fac 00000000 		.4byte	0
 17525 1fb0 00000000 		.4byte	0
 17526              	.LLST124:
 17527 1fb4 02010000 		.4byte	.LVL336
 17528 1fb8 16010000 		.4byte	.LVL340
 17529 1fbc 0100     		.2byte	0x1
 17530 1fbe 55       		.byte	0x55
 17531 1fbf 00000000 		.4byte	0
 17532 1fc3 00000000 		.4byte	0
 17533              	.LLST125:
 17534 1fc7 1C010000 		.4byte	.LVL341
 17535 1fcb 28010000 		.4byte	.LVL344
 17536 1fcf 0100     		.2byte	0x1
 17537 1fd1 54       		.byte	0x54
 17538 1fd2 00000000 		.4byte	0
 17539 1fd6 00000000 		.4byte	0
 17540              	.LLST126:
 17541 1fda 1C010000 		.4byte	.LVL341
 17542 1fde 28010000 		.4byte	.LVL344
 17543 1fe2 0200     		.2byte	0x2
 17544 1fe4 31       		.byte	0x31
 17545 1fe5 9F       		.byte	0x9f
 17546 1fe6 00000000 		.4byte	0
 17547 1fea 00000000 		.4byte	0
 17548              	.LLST127:
 17549 1fee 1C010000 		.4byte	.LVL341
 17550 1ff2 28010000 		.4byte	.LVL344
 17551 1ff6 0100     		.2byte	0x1
 17552 1ff8 55       		.byte	0x55
 17553 1ff9 00000000 		.4byte	0
 17554 1ffd 00000000 		.4byte	0
 17555              	.LLST128:
 17556 2001 20010000 		.4byte	.LVL342
 17557 2005 24010000 		.4byte	.LVL343
 17558 2009 0100     		.2byte	0x1
 17559 200b 50       		.byte	0x50
 17560 200c 00000000 		.4byte	0
 17561 2010 00000000 		.4byte	0
 17562              	.LLST129:
 17563 2014 2E010000 		.4byte	.LVL345
 17564 2018 3A010000 		.4byte	.LVL348
 17565 201c 0100     		.2byte	0x1
 17566 201e 54       		.byte	0x54
 17567 201f 00000000 		.4byte	0
 17568 2023 00000000 		.4byte	0
 17569              	.LLST130:
 17570 2027 2E010000 		.4byte	.LVL345
 17571 202b 3A010000 		.4byte	.LVL348
 17572 202f 0200     		.2byte	0x2
 17573 2031 32       		.byte	0x32
ARM GAS  C:\Users\pearlstl\AppData\Local\Temp\ccHPSyCj.s 			page 341


 17574 2032 9F       		.byte	0x9f
 17575 2033 00000000 		.4byte	0
 17576 2037 00000000 		.4byte	0
 17577              	.LLST131:
 17578 203b 2E010000 		.4byte	.LVL345
 17579 203f 3A010000 		.4byte	.LVL348
 17580 2043 0100     		.2byte	0x1
 17581 2045 55       		.byte	0x55
 17582 2046 00000000 		.4byte	0
 17583 204a 00000000 		.4byte	0
 17584              	.LLST132:
 17585 204e 32010000 		.4byte	.LVL346
 17586 2052 36010000 		.4byte	.LVL347
 17587 2056 0100     		.2byte	0x1
 17588 2058 50       		.byte	0x50
 17589 2059 00000000 		.4byte	0
 17590 205d 00000000 		.4byte	0
 17591              	.LLST133:
 17592 2061 40010000 		.4byte	.LVL349
 17593 2065 4C010000 		.4byte	.LVL352
 17594 2069 0100     		.2byte	0x1
 17595 206b 54       		.byte	0x54
 17596 206c 00000000 		.4byte	0
 17597 2070 00000000 		.4byte	0
 17598              	.LLST134:
 17599 2074 40010000 		.4byte	.LVL349
 17600 2078 4C010000 		.4byte	.LVL352
 17601 207c 0200     		.2byte	0x2
 17602 207e 33       		.byte	0x33
 17603 207f 9F       		.byte	0x9f
 17604 2080 00000000 		.4byte	0
 17605 2084 00000000 		.4byte	0
 17606              	.LLST135:
 17607 2088 40010000 		.4byte	.LVL349
 17608 208c 4C010000 		.4byte	.LVL352
 17609 2090 0100     		.2byte	0x1
 17610 2092 55       		.byte	0x55
 17611 2093 00000000 		.4byte	0
 17612 2097 00000000 		.4byte	0
 17613              	.LLST136:
 17614 209b 44010000 		.4byte	.LVL350
 17615 209f 48010000 		.4byte	.LVL351
 17616 20a3 0100     		.2byte	0x1
 17617 20a5 50       		.byte	0x50
 17618 20a6 00000000 		.4byte	0
 17619 20aa 00000000 		.4byte	0
 17620              	.LLST137:
 17621 20ae 52010000 		.4byte	.LVL353
 17622 20b2 5E010000 		.4byte	.LVL356
 17623 20b6 0100     		.2byte	0x1
 17624 20b8 54       		.byte	0x54
 17625 20b9 00000000 		.4byte	0
 17626 20bd 00000000 		.4byte	0
 17627              	.LLST138:
 17628 20c1 52010000 		.4byte	.LVL353
 17629 20c5 5E010000 		.4byte	.LVL356
 17630 20c9 0200     		.2byte	0x2
ARM GAS  C:\Users\pearlstl\AppData\Local\Temp\ccHPSyCj.s 			page 342


 17631 20cb 36       		.byte	0x36
 17632 20cc 9F       		.byte	0x9f
 17633 20cd 00000000 		.4byte	0
 17634 20d1 00000000 		.4byte	0
 17635              	.LLST139:
 17636 20d5 52010000 		.4byte	.LVL353
 17637 20d9 5E010000 		.4byte	.LVL356
 17638 20dd 0100     		.2byte	0x1
 17639 20df 55       		.byte	0x55
 17640 20e0 00000000 		.4byte	0
 17641 20e4 00000000 		.4byte	0
 17642              	.LLST140:
 17643 20e8 56010000 		.4byte	.LVL354
 17644 20ec 5A010000 		.4byte	.LVL355
 17645 20f0 0100     		.2byte	0x1
 17646 20f2 50       		.byte	0x50
 17647 20f3 00000000 		.4byte	0
 17648 20f7 00000000 		.4byte	0
 17649              	.LLST141:
 17650 20fb 64010000 		.4byte	.LVL357
 17651 20ff 70010000 		.4byte	.LVL360
 17652 2103 0100     		.2byte	0x1
 17653 2105 54       		.byte	0x54
 17654 2106 00000000 		.4byte	0
 17655 210a 00000000 		.4byte	0
 17656              	.LLST142:
 17657 210e 64010000 		.4byte	.LVL357
 17658 2112 70010000 		.4byte	.LVL360
 17659 2116 0200     		.2byte	0x2
 17660 2118 37       		.byte	0x37
 17661 2119 9F       		.byte	0x9f
 17662 211a 00000000 		.4byte	0
 17663 211e 00000000 		.4byte	0
 17664              	.LLST143:
 17665 2122 64010000 		.4byte	.LVL357
 17666 2126 70010000 		.4byte	.LVL360
 17667 212a 0100     		.2byte	0x1
 17668 212c 55       		.byte	0x55
 17669 212d 00000000 		.4byte	0
 17670 2131 00000000 		.4byte	0
 17671              	.LLST144:
 17672 2135 68010000 		.4byte	.LVL358
 17673 2139 6C010000 		.4byte	.LVL359
 17674 213d 0100     		.2byte	0x1
 17675 213f 50       		.byte	0x50
 17676 2140 00000000 		.4byte	0
 17677 2144 00000000 		.4byte	0
 17678              	.LLST145:
 17679 2148 76010000 		.4byte	.LVL361
 17680 214c 82010000 		.4byte	.LVL364
 17681 2150 0100     		.2byte	0x1
 17682 2152 54       		.byte	0x54
 17683 2153 00000000 		.4byte	0
 17684 2157 00000000 		.4byte	0
 17685              	.LLST146:
 17686 215b 76010000 		.4byte	.LVL361
 17687 215f 82010000 		.4byte	.LVL364
ARM GAS  C:\Users\pearlstl\AppData\Local\Temp\ccHPSyCj.s 			page 343


 17688 2163 0200     		.2byte	0x2
 17689 2165 34       		.byte	0x34
 17690 2166 9F       		.byte	0x9f
 17691 2167 00000000 		.4byte	0
 17692 216b 00000000 		.4byte	0
 17693              	.LLST147:
 17694 216f 76010000 		.4byte	.LVL361
 17695 2173 82010000 		.4byte	.LVL364
 17696 2177 0100     		.2byte	0x1
 17697 2179 55       		.byte	0x55
 17698 217a 00000000 		.4byte	0
 17699 217e 00000000 		.4byte	0
 17700              	.LLST148:
 17701 2182 7A010000 		.4byte	.LVL362
 17702 2186 7E010000 		.4byte	.LVL363
 17703 218a 0100     		.2byte	0x1
 17704 218c 50       		.byte	0x50
 17705 218d 00000000 		.4byte	0
 17706 2191 00000000 		.4byte	0
 17707              	.LLST149:
 17708 2195 86010000 		.4byte	.LVL365
 17709 2199 88010000 		.4byte	.LVL366
 17710 219d 0100     		.2byte	0x1
 17711 219f 54       		.byte	0x54
 17712 21a0 00000000 		.4byte	0
 17713 21a4 00000000 		.4byte	0
 17714              	.LLST150:
 17715 21a8 86010000 		.4byte	.LVL365
 17716 21ac 88010000 		.4byte	.LVL366
 17717 21b0 0200     		.2byte	0x2
 17718 21b2 35       		.byte	0x35
 17719 21b3 9F       		.byte	0x9f
 17720 21b4 00000000 		.4byte	0
 17721 21b8 00000000 		.4byte	0
 17722              	.LLST151:
 17723 21bc 86010000 		.4byte	.LVL365
 17724 21c0 88010000 		.4byte	.LVL366
 17725 21c4 0100     		.2byte	0x1
 17726 21c6 55       		.byte	0x55
 17727 21c7 00000000 		.4byte	0
 17728 21cb 00000000 		.4byte	0
 17729              	.LLST152:
 17730 21cf 88010000 		.4byte	.LVL366
 17731 21d3 98010000 		.4byte	.LVL370
 17732 21d7 0100     		.2byte	0x1
 17733 21d9 54       		.byte	0x54
 17734 21da 00000000 		.4byte	0
 17735 21de 00000000 		.4byte	0
 17736              	.LLST153:
 17737 21e2 88010000 		.4byte	.LVL366
 17738 21e6 98010000 		.4byte	.LVL370
 17739 21ea 0200     		.2byte	0x2
 17740 21ec 35       		.byte	0x35
 17741 21ed 9F       		.byte	0x9f
 17742 21ee 00000000 		.4byte	0
 17743 21f2 00000000 		.4byte	0
 17744              	.LLST154:
ARM GAS  C:\Users\pearlstl\AppData\Local\Temp\ccHPSyCj.s 			page 344


 17745 21f6 88010000 		.4byte	.LVL366
 17746 21fa 8B010000 		.4byte	.LVL367-1
 17747 21fe 0100     		.2byte	0x1
 17748 2200 50       		.byte	0x50
 17749 2201 8B010000 		.4byte	.LVL367-1
 17750 2205 98010000 		.4byte	.LVL370
 17751 2209 0100     		.2byte	0x1
 17752 220b 55       		.byte	0x55
 17753 220c 00000000 		.4byte	0
 17754 2210 00000000 		.4byte	0
 17755              	.LLST155:
 17756 2214 8C010000 		.4byte	.LVL367
 17757 2218 90010000 		.4byte	.LVL368
 17758 221c 0100     		.2byte	0x1
 17759 221e 50       		.byte	0x50
 17760 221f 00000000 		.4byte	0
 17761 2223 00000000 		.4byte	0
 17762              	.LLST156:
 17763 2227 B0010000 		.4byte	.LVL375
 17764 222b C4010000 		.4byte	.LVL379
 17765 222f 0200     		.2byte	0x2
 17766 2231 30       		.byte	0x30
 17767 2232 9F       		.byte	0x9f
 17768 2233 00000000 		.4byte	0
 17769 2237 00000000 		.4byte	0
 17770              	.LLST157:
 17771 223b B0010000 		.4byte	.LVL375
 17772 223f C4010000 		.4byte	.LVL379
 17773 2243 0100     		.2byte	0x1
 17774 2245 55       		.byte	0x55
 17775 2246 00000000 		.4byte	0
 17776 224a 00000000 		.4byte	0
 17777              	.LLST158:
 17778 224e C8010000 		.4byte	.LVL380
 17779 2252 D4010000 		.4byte	.LVL383
 17780 2256 0100     		.2byte	0x1
 17781 2258 56       		.byte	0x56
 17782 2259 00000000 		.4byte	0
 17783 225d 00000000 		.4byte	0
 17784              	.LLST159:
 17785 2261 C8010000 		.4byte	.LVL380
 17786 2265 D4010000 		.4byte	.LVL383
 17787 2269 0200     		.2byte	0x2
 17788 226b 31       		.byte	0x31
 17789 226c 9F       		.byte	0x9f
 17790 226d 00000000 		.4byte	0
 17791 2271 00000000 		.4byte	0
 17792              	.LLST160:
 17793 2275 C8010000 		.4byte	.LVL380
 17794 2279 D4010000 		.4byte	.LVL383
 17795 227d 0100     		.2byte	0x1
 17796 227f 55       		.byte	0x55
 17797 2280 00000000 		.4byte	0
 17798 2284 00000000 		.4byte	0
 17799              	.LLST161:
 17800 2288 CC010000 		.4byte	.LVL381
 17801 228c D0010000 		.4byte	.LVL382
ARM GAS  C:\Users\pearlstl\AppData\Local\Temp\ccHPSyCj.s 			page 345


 17802 2290 0100     		.2byte	0x1
 17803 2292 50       		.byte	0x50
 17804 2293 00000000 		.4byte	0
 17805 2297 00000000 		.4byte	0
 17806              	.LLST162:
 17807 229b D8010000 		.4byte	.LVL384
 17808 229f E4010000 		.4byte	.LVL387
 17809 22a3 0100     		.2byte	0x1
 17810 22a5 56       		.byte	0x56
 17811 22a6 00000000 		.4byte	0
 17812 22aa 00000000 		.4byte	0
 17813              	.LLST163:
 17814 22ae D8010000 		.4byte	.LVL384
 17815 22b2 E4010000 		.4byte	.LVL387
 17816 22b6 0200     		.2byte	0x2
 17817 22b8 32       		.byte	0x32
 17818 22b9 9F       		.byte	0x9f
 17819 22ba 00000000 		.4byte	0
 17820 22be 00000000 		.4byte	0
 17821              	.LLST164:
 17822 22c2 D8010000 		.4byte	.LVL384
 17823 22c6 E4010000 		.4byte	.LVL387
 17824 22ca 0100     		.2byte	0x1
 17825 22cc 55       		.byte	0x55
 17826 22cd 00000000 		.4byte	0
 17827 22d1 00000000 		.4byte	0
 17828              	.LLST165:
 17829 22d5 DC010000 		.4byte	.LVL385
 17830 22d9 E0010000 		.4byte	.LVL386
 17831 22dd 0100     		.2byte	0x1
 17832 22df 50       		.byte	0x50
 17833 22e0 00000000 		.4byte	0
 17834 22e4 00000000 		.4byte	0
 17835              	.LLST166:
 17836 22e8 E8010000 		.4byte	.LVL388
 17837 22ec F4010000 		.4byte	.LVL391
 17838 22f0 0100     		.2byte	0x1
 17839 22f2 56       		.byte	0x56
 17840 22f3 00000000 		.4byte	0
 17841 22f7 00000000 		.4byte	0
 17842              	.LLST167:
 17843 22fb E8010000 		.4byte	.LVL388
 17844 22ff F4010000 		.4byte	.LVL391
 17845 2303 0200     		.2byte	0x2
 17846 2305 33       		.byte	0x33
 17847 2306 9F       		.byte	0x9f
 17848 2307 00000000 		.4byte	0
 17849 230b 00000000 		.4byte	0
 17850              	.LLST168:
 17851 230f E8010000 		.4byte	.LVL388
 17852 2313 F4010000 		.4byte	.LVL391
 17853 2317 0100     		.2byte	0x1
 17854 2319 55       		.byte	0x55
 17855 231a 00000000 		.4byte	0
 17856 231e 00000000 		.4byte	0
 17857              	.LLST169:
 17858 2322 EC010000 		.4byte	.LVL389
ARM GAS  C:\Users\pearlstl\AppData\Local\Temp\ccHPSyCj.s 			page 346


 17859 2326 F0010000 		.4byte	.LVL390
 17860 232a 0100     		.2byte	0x1
 17861 232c 50       		.byte	0x50
 17862 232d 00000000 		.4byte	0
 17863 2331 00000000 		.4byte	0
 17864              	.LLST170:
 17865 2335 F8010000 		.4byte	.LVL392
 17866 2339 04020000 		.4byte	.LVL395
 17867 233d 0100     		.2byte	0x1
 17868 233f 56       		.byte	0x56
 17869 2340 00000000 		.4byte	0
 17870 2344 00000000 		.4byte	0
 17871              	.LLST171:
 17872 2348 F8010000 		.4byte	.LVL392
 17873 234c 04020000 		.4byte	.LVL395
 17874 2350 0200     		.2byte	0x2
 17875 2352 36       		.byte	0x36
 17876 2353 9F       		.byte	0x9f
 17877 2354 00000000 		.4byte	0
 17878 2358 00000000 		.4byte	0
 17879              	.LLST172:
 17880 235c F8010000 		.4byte	.LVL392
 17881 2360 04020000 		.4byte	.LVL395
 17882 2364 0100     		.2byte	0x1
 17883 2366 55       		.byte	0x55
 17884 2367 00000000 		.4byte	0
 17885 236b 00000000 		.4byte	0
 17886              	.LLST173:
 17887 236f FC010000 		.4byte	.LVL393
 17888 2373 00020000 		.4byte	.LVL394
 17889 2377 0100     		.2byte	0x1
 17890 2379 50       		.byte	0x50
 17891 237a 00000000 		.4byte	0
 17892 237e 00000000 		.4byte	0
 17893              	.LLST174:
 17894 2382 08020000 		.4byte	.LVL396
 17895 2386 14020000 		.4byte	.LVL399
 17896 238a 0100     		.2byte	0x1
 17897 238c 56       		.byte	0x56
 17898 238d 00000000 		.4byte	0
 17899 2391 00000000 		.4byte	0
 17900              	.LLST175:
 17901 2395 08020000 		.4byte	.LVL396
 17902 2399 14020000 		.4byte	.LVL399
 17903 239d 0200     		.2byte	0x2
 17904 239f 37       		.byte	0x37
 17905 23a0 9F       		.byte	0x9f
 17906 23a1 00000000 		.4byte	0
 17907 23a5 00000000 		.4byte	0
 17908              	.LLST176:
 17909 23a9 08020000 		.4byte	.LVL396
 17910 23ad 14020000 		.4byte	.LVL399
 17911 23b1 0100     		.2byte	0x1
 17912 23b3 55       		.byte	0x55
 17913 23b4 00000000 		.4byte	0
 17914 23b8 00000000 		.4byte	0
 17915              	.LLST177:
ARM GAS  C:\Users\pearlstl\AppData\Local\Temp\ccHPSyCj.s 			page 347


 17916 23bc 0C020000 		.4byte	.LVL397
 17917 23c0 10020000 		.4byte	.LVL398
 17918 23c4 0100     		.2byte	0x1
 17919 23c6 50       		.byte	0x50
 17920 23c7 00000000 		.4byte	0
 17921 23cb 00000000 		.4byte	0
 17922              	.LLST178:
 17923 23cf 18020000 		.4byte	.LVL400
 17924 23d3 24020000 		.4byte	.LVL403
 17925 23d7 0100     		.2byte	0x1
 17926 23d9 56       		.byte	0x56
 17927 23da 00000000 		.4byte	0
 17928 23de 00000000 		.4byte	0
 17929              	.LLST179:
 17930 23e2 18020000 		.4byte	.LVL400
 17931 23e6 24020000 		.4byte	.LVL403
 17932 23ea 0200     		.2byte	0x2
 17933 23ec 34       		.byte	0x34
 17934 23ed 9F       		.byte	0x9f
 17935 23ee 00000000 		.4byte	0
 17936 23f2 00000000 		.4byte	0
 17937              	.LLST180:
 17938 23f6 18020000 		.4byte	.LVL400
 17939 23fa 24020000 		.4byte	.LVL403
 17940 23fe 0100     		.2byte	0x1
 17941 2400 55       		.byte	0x55
 17942 2401 00000000 		.4byte	0
 17943 2405 00000000 		.4byte	0
 17944              	.LLST181:
 17945 2409 1C020000 		.4byte	.LVL401
 17946 240d 20020000 		.4byte	.LVL402
 17947 2411 0100     		.2byte	0x1
 17948 2413 50       		.byte	0x50
 17949 2414 00000000 		.4byte	0
 17950 2418 00000000 		.4byte	0
 17951              	.LLST182:
 17952 241c 00000000 		.4byte	.LVL405
 17953 2420 09000000 		.4byte	.LVL406-1
 17954 2424 0100     		.2byte	0x1
 17955 2426 50       		.byte	0x50
 17956 2427 09000000 		.4byte	.LVL406-1
 17957 242b 20000000 		.4byte	.LVL408
 17958 242f 0100     		.2byte	0x1
 17959 2431 55       		.byte	0x55
 17960 2432 20000000 		.4byte	.LVL408
 17961 2436 23000000 		.4byte	.LVL409-1
 17962 243a 0100     		.2byte	0x1
 17963 243c 50       		.byte	0x50
 17964 243d 23000000 		.4byte	.LVL409-1
 17965 2441 24000000 		.4byte	.LFE32
 17966 2445 0400     		.2byte	0x4
 17967 2447 F3       		.byte	0xf3
 17968 2448 01       		.uleb128 0x1
 17969 2449 50       		.byte	0x50
 17970 244a 9F       		.byte	0x9f
 17971 244b 00000000 		.4byte	0
 17972 244f 00000000 		.4byte	0
ARM GAS  C:\Users\pearlstl\AppData\Local\Temp\ccHPSyCj.s 			page 348


 17973              	.LLST183:
 17974 2453 00000000 		.4byte	.LVL405
 17975 2457 09000000 		.4byte	.LVL406-1
 17976 245b 0100     		.2byte	0x1
 17977 245d 51       		.byte	0x51
 17978 245e 09000000 		.4byte	.LVL406-1
 17979 2462 20000000 		.4byte	.LVL408
 17980 2466 0100     		.2byte	0x1
 17981 2468 54       		.byte	0x54
 17982 2469 20000000 		.4byte	.LVL408
 17983 246d 24000000 		.4byte	.LFE32
 17984 2471 0400     		.2byte	0x4
 17985 2473 F3       		.byte	0xf3
 17986 2474 01       		.uleb128 0x1
 17987 2475 51       		.byte	0x51
 17988 2476 9F       		.byte	0x9f
 17989 2477 00000000 		.4byte	0
 17990 247b 00000000 		.4byte	0
 17991              	.LLST184:
 17992 247f 0A000000 		.4byte	.LVL406
 17993 2483 1C000000 		.4byte	.LVL407
 17994 2487 0100     		.2byte	0x1
 17995 2489 50       		.byte	0x50
 17996 248a 00000000 		.4byte	0
 17997 248e 00000000 		.4byte	0
 17998              	.LLST185:
 17999 2492 00000000 		.4byte	.LVL410
 18000 2496 09000000 		.4byte	.LVL411-1
 18001 249a 0100     		.2byte	0x1
 18002 249c 50       		.byte	0x50
 18003 249d 09000000 		.4byte	.LVL411-1
 18004 24a1 20000000 		.4byte	.LVL413
 18005 24a5 0100     		.2byte	0x1
 18006 24a7 55       		.byte	0x55
 18007 24a8 20000000 		.4byte	.LVL413
 18008 24ac 23000000 		.4byte	.LVL414-1
 18009 24b0 0100     		.2byte	0x1
 18010 24b2 50       		.byte	0x50
 18011 24b3 23000000 		.4byte	.LVL414-1
 18012 24b7 24000000 		.4byte	.LFE33
 18013 24bb 0400     		.2byte	0x4
 18014 24bd F3       		.byte	0xf3
 18015 24be 01       		.uleb128 0x1
 18016 24bf 50       		.byte	0x50
 18017 24c0 9F       		.byte	0x9f
 18018 24c1 00000000 		.4byte	0
 18019 24c5 00000000 		.4byte	0
 18020              	.LLST186:
 18021 24c9 00000000 		.4byte	.LVL410
 18022 24cd 09000000 		.4byte	.LVL411-1
 18023 24d1 0100     		.2byte	0x1
 18024 24d3 51       		.byte	0x51
 18025 24d4 09000000 		.4byte	.LVL411-1
 18026 24d8 20000000 		.4byte	.LVL413
 18027 24dc 0100     		.2byte	0x1
 18028 24de 54       		.byte	0x54
 18029 24df 20000000 		.4byte	.LVL413
ARM GAS  C:\Users\pearlstl\AppData\Local\Temp\ccHPSyCj.s 			page 349


 18030 24e3 24000000 		.4byte	.LFE33
 18031 24e7 0400     		.2byte	0x4
 18032 24e9 F3       		.byte	0xf3
 18033 24ea 01       		.uleb128 0x1
 18034 24eb 51       		.byte	0x51
 18035 24ec 9F       		.byte	0x9f
 18036 24ed 00000000 		.4byte	0
 18037 24f1 00000000 		.4byte	0
 18038              	.LLST187:
 18039 24f5 0A000000 		.4byte	.LVL411
 18040 24f9 1C000000 		.4byte	.LVL412
 18041 24fd 0100     		.2byte	0x1
 18042 24ff 50       		.byte	0x50
 18043 2500 00000000 		.4byte	0
 18044 2504 00000000 		.4byte	0
 18045              	.LLST188:
 18046 2508 00000000 		.4byte	.LVL415
 18047 250c 0B000000 		.4byte	.LVL416-1
 18048 2510 0100     		.2byte	0x1
 18049 2512 50       		.byte	0x50
 18050 2513 0B000000 		.4byte	.LVL416-1
 18051 2517 18000000 		.4byte	.LVL419
 18052 251b 0100     		.2byte	0x1
 18053 251d 56       		.byte	0x56
 18054 251e 18000000 		.4byte	.LVL419
 18055 2522 1B000000 		.4byte	.LVL420-1
 18056 2526 0100     		.2byte	0x1
 18057 2528 50       		.byte	0x50
 18058 2529 1B000000 		.4byte	.LVL420-1
 18059 252d 1C000000 		.4byte	.LFE34
 18060 2531 0400     		.2byte	0x4
 18061 2533 F3       		.byte	0xf3
 18062 2534 01       		.uleb128 0x1
 18063 2535 50       		.byte	0x50
 18064 2536 9F       		.byte	0x9f
 18065 2537 00000000 		.4byte	0
 18066 253b 00000000 		.4byte	0
 18067              	.LLST189:
 18068 253f 00000000 		.4byte	.LVL415
 18069 2543 0B000000 		.4byte	.LVL416-1
 18070 2547 0100     		.2byte	0x1
 18071 2549 51       		.byte	0x51
 18072 254a 0B000000 		.4byte	.LVL416-1
 18073 254e 18000000 		.4byte	.LVL419
 18074 2552 0100     		.2byte	0x1
 18075 2554 55       		.byte	0x55
 18076 2555 18000000 		.4byte	.LVL419
 18077 2559 1B000000 		.4byte	.LVL420-1
 18078 255d 0200     		.2byte	0x2
 18079 255f 73       		.byte	0x73
 18080 2560 08       		.sleb128 8
 18081 2561 1B000000 		.4byte	.LVL420-1
 18082 2565 1C000000 		.4byte	.LFE34
 18083 2569 0400     		.2byte	0x4
 18084 256b F3       		.byte	0xf3
 18085 256c 01       		.uleb128 0x1
 18086 256d 51       		.byte	0x51
ARM GAS  C:\Users\pearlstl\AppData\Local\Temp\ccHPSyCj.s 			page 350


 18087 256e 9F       		.byte	0x9f
 18088 256f 00000000 		.4byte	0
 18089 2573 00000000 		.4byte	0
 18090              	.LLST190:
 18091 2577 00000000 		.4byte	.LVL415
 18092 257b 0B000000 		.4byte	.LVL416-1
 18093 257f 0100     		.2byte	0x1
 18094 2581 52       		.byte	0x52
 18095 2582 0B000000 		.4byte	.LVL416-1
 18096 2586 1C000000 		.4byte	.LFE34
 18097 258a 0400     		.2byte	0x4
 18098 258c F3       		.byte	0xf3
 18099 258d 01       		.uleb128 0x1
 18100 258e 52       		.byte	0x52
 18101 258f 9F       		.byte	0x9f
 18102 2590 00000000 		.4byte	0
 18103 2594 00000000 		.4byte	0
 18104              	.LLST191:
 18105 2598 0E000000 		.4byte	.LVL417
 18106 259c 10000000 		.4byte	.LVL418
 18107 25a0 0100     		.2byte	0x1
 18108 25a2 50       		.byte	0x50
 18109 25a3 10000000 		.4byte	.LVL418
 18110 25a7 1B000000 		.4byte	.LVL420-1
 18111 25ab 0100     		.2byte	0x1
 18112 25ad 53       		.byte	0x53
 18113 25ae 00000000 		.4byte	0
 18114 25b2 00000000 		.4byte	0
 18115              	.LLST192:
 18116 25b6 00000000 		.4byte	.LVL421
 18117 25ba 09000000 		.4byte	.LVL422-1
 18118 25be 0100     		.2byte	0x1
 18119 25c0 50       		.byte	0x50
 18120 25c1 09000000 		.4byte	.LVL422-1
 18121 25c5 12000000 		.4byte	.LVL424
 18122 25c9 0100     		.2byte	0x1
 18123 25cb 54       		.byte	0x54
 18124 25cc 12000000 		.4byte	.LVL424
 18125 25d0 15000000 		.4byte	.LVL425-1
 18126 25d4 0100     		.2byte	0x1
 18127 25d6 50       		.byte	0x50
 18128 25d7 15000000 		.4byte	.LVL425-1
 18129 25db 16000000 		.4byte	.LFE35
 18130 25df 0400     		.2byte	0x4
 18131 25e1 F3       		.byte	0xf3
 18132 25e2 01       		.uleb128 0x1
 18133 25e3 50       		.byte	0x50
 18134 25e4 9F       		.byte	0x9f
 18135 25e5 00000000 		.4byte	0
 18136 25e9 00000000 		.4byte	0
 18137              	.LLST193:
 18138 25ed 00000000 		.4byte	.LVL421
 18139 25f1 09000000 		.4byte	.LVL422-1
 18140 25f5 0100     		.2byte	0x1
 18141 25f7 51       		.byte	0x51
 18142 25f8 09000000 		.4byte	.LVL422-1
 18143 25fc 12000000 		.4byte	.LVL424
ARM GAS  C:\Users\pearlstl\AppData\Local\Temp\ccHPSyCj.s 			page 351


 18144 2600 0100     		.2byte	0x1
 18145 2602 55       		.byte	0x55
 18146 2603 12000000 		.4byte	.LVL424
 18147 2607 16000000 		.4byte	.LFE35
 18148 260b 0400     		.2byte	0x4
 18149 260d F3       		.byte	0xf3
 18150 260e 01       		.uleb128 0x1
 18151 260f 51       		.byte	0x51
 18152 2610 9F       		.byte	0x9f
 18153 2611 00000000 		.4byte	0
 18154 2615 00000000 		.4byte	0
 18155              	.LLST194:
 18156 2619 0A000000 		.4byte	.LVL422
 18157 261d 0E000000 		.4byte	.LVL423
 18158 2621 0100     		.2byte	0x1
 18159 2623 50       		.byte	0x50
 18160 2624 00000000 		.4byte	0
 18161 2628 00000000 		.4byte	0
 18162              	.LLST195:
 18163 262c 00000000 		.4byte	.LVL426
 18164 2630 09000000 		.4byte	.LVL427-1
 18165 2634 0100     		.2byte	0x1
 18166 2636 50       		.byte	0x50
 18167 2637 09000000 		.4byte	.LVL427-1
 18168 263b 12000000 		.4byte	.LVL429
 18169 263f 0100     		.2byte	0x1
 18170 2641 54       		.byte	0x54
 18171 2642 12000000 		.4byte	.LVL429
 18172 2646 15000000 		.4byte	.LVL430-1
 18173 264a 0100     		.2byte	0x1
 18174 264c 50       		.byte	0x50
 18175 264d 15000000 		.4byte	.LVL430-1
 18176 2651 16000000 		.4byte	.LFE36
 18177 2655 0400     		.2byte	0x4
 18178 2657 F3       		.byte	0xf3
 18179 2658 01       		.uleb128 0x1
 18180 2659 50       		.byte	0x50
 18181 265a 9F       		.byte	0x9f
 18182 265b 00000000 		.4byte	0
 18183 265f 00000000 		.4byte	0
 18184              	.LLST196:
 18185 2663 00000000 		.4byte	.LVL426
 18186 2667 09000000 		.4byte	.LVL427-1
 18187 266b 0100     		.2byte	0x1
 18188 266d 51       		.byte	0x51
 18189 266e 09000000 		.4byte	.LVL427-1
 18190 2672 12000000 		.4byte	.LVL429
 18191 2676 0100     		.2byte	0x1
 18192 2678 55       		.byte	0x55
 18193 2679 12000000 		.4byte	.LVL429
 18194 267d 16000000 		.4byte	.LFE36
 18195 2681 0400     		.2byte	0x4
 18196 2683 F3       		.byte	0xf3
 18197 2684 01       		.uleb128 0x1
 18198 2685 51       		.byte	0x51
 18199 2686 9F       		.byte	0x9f
 18200 2687 00000000 		.4byte	0
ARM GAS  C:\Users\pearlstl\AppData\Local\Temp\ccHPSyCj.s 			page 352


 18201 268b 00000000 		.4byte	0
 18202              	.LLST197:
 18203 268f 0A000000 		.4byte	.LVL427
 18204 2693 0E000000 		.4byte	.LVL428
 18205 2697 0100     		.2byte	0x1
 18206 2699 50       		.byte	0x50
 18207 269a 00000000 		.4byte	0
 18208 269e 00000000 		.4byte	0
 18209              	.LLST198:
 18210 26a2 00000000 		.4byte	.LVL431
 18211 26a6 0B000000 		.4byte	.LVL432-1
 18212 26aa 0100     		.2byte	0x1
 18213 26ac 50       		.byte	0x50
 18214 26ad 0B000000 		.4byte	.LVL432-1
 18215 26b1 24000000 		.4byte	.LVL434
 18216 26b5 0100     		.2byte	0x1
 18217 26b7 55       		.byte	0x55
 18218 26b8 24000000 		.4byte	.LVL434
 18219 26bc 27000000 		.4byte	.LVL435-1
 18220 26c0 0100     		.2byte	0x1
 18221 26c2 50       		.byte	0x50
 18222 26c3 27000000 		.4byte	.LVL435-1
 18223 26c7 28000000 		.4byte	.LVL435
 18224 26cb 0400     		.2byte	0x4
 18225 26cd F3       		.byte	0xf3
 18226 26ce 01       		.uleb128 0x1
 18227 26cf 50       		.byte	0x50
 18228 26d0 9F       		.byte	0x9f
 18229 26d1 28000000 		.4byte	.LVL435
 18230 26d5 30000000 		.4byte	.LVL437
 18231 26d9 0100     		.2byte	0x1
 18232 26db 55       		.byte	0x55
 18233 26dc 30000000 		.4byte	.LVL437
 18234 26e0 33000000 		.4byte	.LVL438-1
 18235 26e4 0100     		.2byte	0x1
 18236 26e6 50       		.byte	0x50
 18237 26e7 33000000 		.4byte	.LVL438-1
 18238 26eb 34000000 		.4byte	.LVL438
 18239 26ef 0400     		.2byte	0x4
 18240 26f1 F3       		.byte	0xf3
 18241 26f2 01       		.uleb128 0x1
 18242 26f3 50       		.byte	0x50
 18243 26f4 9F       		.byte	0x9f
 18244 26f5 34000000 		.4byte	.LVL438
 18245 26f9 42000000 		.4byte	.LVL441
 18246 26fd 0100     		.2byte	0x1
 18247 26ff 55       		.byte	0x55
 18248 2700 42000000 		.4byte	.LVL441
 18249 2704 45000000 		.4byte	.LVL442-1
 18250 2708 0100     		.2byte	0x1
 18251 270a 50       		.byte	0x50
 18252 270b 45000000 		.4byte	.LVL442-1
 18253 270f 46000000 		.4byte	.LVL442
 18254 2713 0400     		.2byte	0x4
 18255 2715 F3       		.byte	0xf3
 18256 2716 01       		.uleb128 0x1
 18257 2717 50       		.byte	0x50
ARM GAS  C:\Users\pearlstl\AppData\Local\Temp\ccHPSyCj.s 			page 353


 18258 2718 9F       		.byte	0x9f
 18259 2719 46000000 		.4byte	.LVL442
 18260 271d 4E000000 		.4byte	.LVL444
 18261 2721 0100     		.2byte	0x1
 18262 2723 55       		.byte	0x55
 18263 2724 4E000000 		.4byte	.LVL444
 18264 2728 51000000 		.4byte	.LVL445-1
 18265 272c 0100     		.2byte	0x1
 18266 272e 50       		.byte	0x50
 18267 272f 51000000 		.4byte	.LVL445-1
 18268 2733 52000000 		.4byte	.LVL445
 18269 2737 0400     		.2byte	0x4
 18270 2739 F3       		.byte	0xf3
 18271 273a 01       		.uleb128 0x1
 18272 273b 50       		.byte	0x50
 18273 273c 9F       		.byte	0x9f
 18274 273d 52000000 		.4byte	.LVL445
 18275 2741 5A000000 		.4byte	.LVL447
 18276 2745 0100     		.2byte	0x1
 18277 2747 55       		.byte	0x55
 18278 2748 5A000000 		.4byte	.LVL447
 18279 274c 5D000000 		.4byte	.LVL448-1
 18280 2750 0100     		.2byte	0x1
 18281 2752 50       		.byte	0x50
 18282 2753 5D000000 		.4byte	.LVL448-1
 18283 2757 5E000000 		.4byte	.LVL448
 18284 275b 0400     		.2byte	0x4
 18285 275d F3       		.byte	0xf3
 18286 275e 01       		.uleb128 0x1
 18287 275f 50       		.byte	0x50
 18288 2760 9F       		.byte	0x9f
 18289 2761 5E000000 		.4byte	.LVL448
 18290 2765 66000000 		.4byte	.LVL450
 18291 2769 0100     		.2byte	0x1
 18292 276b 55       		.byte	0x55
 18293 276c 66000000 		.4byte	.LVL450
 18294 2770 69000000 		.4byte	.LVL451-1
 18295 2774 0100     		.2byte	0x1
 18296 2776 50       		.byte	0x50
 18297 2777 69000000 		.4byte	.LVL451-1
 18298 277b 6A000000 		.4byte	.LVL451
 18299 277f 0400     		.2byte	0x4
 18300 2781 F3       		.byte	0xf3
 18301 2782 01       		.uleb128 0x1
 18302 2783 50       		.byte	0x50
 18303 2784 9F       		.byte	0x9f
 18304 2785 6A000000 		.4byte	.LVL451
 18305 2789 72000000 		.4byte	.LVL453
 18306 278d 0100     		.2byte	0x1
 18307 278f 55       		.byte	0x55
 18308 2790 72000000 		.4byte	.LVL453
 18309 2794 75000000 		.4byte	.LVL454-1
 18310 2798 0100     		.2byte	0x1
 18311 279a 50       		.byte	0x50
 18312 279b 75000000 		.4byte	.LVL454-1
 18313 279f 76000000 		.4byte	.LVL454
 18314 27a3 0400     		.2byte	0x4
ARM GAS  C:\Users\pearlstl\AppData\Local\Temp\ccHPSyCj.s 			page 354


 18315 27a5 F3       		.byte	0xf3
 18316 27a6 01       		.uleb128 0x1
 18317 27a7 50       		.byte	0x50
 18318 27a8 9F       		.byte	0x9f
 18319 27a9 76000000 		.4byte	.LVL454
 18320 27ad 7E000000 		.4byte	.LVL456
 18321 27b1 0100     		.2byte	0x1
 18322 27b3 55       		.byte	0x55
 18323 27b4 7E000000 		.4byte	.LVL456
 18324 27b8 81000000 		.4byte	.LVL457-1
 18325 27bc 0100     		.2byte	0x1
 18326 27be 50       		.byte	0x50
 18327 27bf 81000000 		.4byte	.LVL457-1
 18328 27c3 82000000 		.4byte	.LFE37
 18329 27c7 0400     		.2byte	0x4
 18330 27c9 F3       		.byte	0xf3
 18331 27ca 01       		.uleb128 0x1
 18332 27cb 50       		.byte	0x50
 18333 27cc 9F       		.byte	0x9f
 18334 27cd 00000000 		.4byte	0
 18335 27d1 00000000 		.4byte	0
 18336              	.LLST199:
 18337 27d5 00000000 		.4byte	.LVL431
 18338 27d9 0B000000 		.4byte	.LVL432-1
 18339 27dd 0100     		.2byte	0x1
 18340 27df 51       		.byte	0x51
 18341 27e0 0B000000 		.4byte	.LVL432-1
 18342 27e4 82000000 		.4byte	.LFE37
 18343 27e8 0400     		.2byte	0x4
 18344 27ea F3       		.byte	0xf3
 18345 27eb 01       		.uleb128 0x1
 18346 27ec 51       		.byte	0x51
 18347 27ed 9F       		.byte	0x9f
 18348 27ee 00000000 		.4byte	0
 18349 27f2 00000000 		.4byte	0
 18350              	.LLST200:
 18351 27f6 00000000 		.4byte	.LVL431
 18352 27fa 0B000000 		.4byte	.LVL432-1
 18353 27fe 0100     		.2byte	0x1
 18354 2800 52       		.byte	0x52
 18355 2801 0B000000 		.4byte	.LVL432-1
 18356 2805 24000000 		.4byte	.LVL434
 18357 2809 0100     		.2byte	0x1
 18358 280b 56       		.byte	0x56
 18359 280c 24000000 		.4byte	.LVL434
 18360 2810 28000000 		.4byte	.LVL435
 18361 2814 0400     		.2byte	0x4
 18362 2816 F3       		.byte	0xf3
 18363 2817 01       		.uleb128 0x1
 18364 2818 52       		.byte	0x52
 18365 2819 9F       		.byte	0x9f
 18366 281a 28000000 		.4byte	.LVL435
 18367 281e 30000000 		.4byte	.LVL437
 18368 2822 0100     		.2byte	0x1
 18369 2824 56       		.byte	0x56
 18370 2825 30000000 		.4byte	.LVL437
 18371 2829 34000000 		.4byte	.LVL438
ARM GAS  C:\Users\pearlstl\AppData\Local\Temp\ccHPSyCj.s 			page 355


 18372 282d 0400     		.2byte	0x4
 18373 282f F3       		.byte	0xf3
 18374 2830 01       		.uleb128 0x1
 18375 2831 52       		.byte	0x52
 18376 2832 9F       		.byte	0x9f
 18377 2833 34000000 		.4byte	.LVL438
 18378 2837 42000000 		.4byte	.LVL441
 18379 283b 0100     		.2byte	0x1
 18380 283d 56       		.byte	0x56
 18381 283e 42000000 		.4byte	.LVL441
 18382 2842 46000000 		.4byte	.LVL442
 18383 2846 0400     		.2byte	0x4
 18384 2848 F3       		.byte	0xf3
 18385 2849 01       		.uleb128 0x1
 18386 284a 52       		.byte	0x52
 18387 284b 9F       		.byte	0x9f
 18388 284c 46000000 		.4byte	.LVL442
 18389 2850 4E000000 		.4byte	.LVL444
 18390 2854 0100     		.2byte	0x1
 18391 2856 56       		.byte	0x56
 18392 2857 4E000000 		.4byte	.LVL444
 18393 285b 52000000 		.4byte	.LVL445
 18394 285f 0400     		.2byte	0x4
 18395 2861 F3       		.byte	0xf3
 18396 2862 01       		.uleb128 0x1
 18397 2863 52       		.byte	0x52
 18398 2864 9F       		.byte	0x9f
 18399 2865 52000000 		.4byte	.LVL445
 18400 2869 5A000000 		.4byte	.LVL447
 18401 286d 0100     		.2byte	0x1
 18402 286f 56       		.byte	0x56
 18403 2870 5A000000 		.4byte	.LVL447
 18404 2874 5E000000 		.4byte	.LVL448
 18405 2878 0400     		.2byte	0x4
 18406 287a F3       		.byte	0xf3
 18407 287b 01       		.uleb128 0x1
 18408 287c 52       		.byte	0x52
 18409 287d 9F       		.byte	0x9f
 18410 287e 5E000000 		.4byte	.LVL448
 18411 2882 66000000 		.4byte	.LVL450
 18412 2886 0100     		.2byte	0x1
 18413 2888 56       		.byte	0x56
 18414 2889 66000000 		.4byte	.LVL450
 18415 288d 6A000000 		.4byte	.LVL451
 18416 2891 0400     		.2byte	0x4
 18417 2893 F3       		.byte	0xf3
 18418 2894 01       		.uleb128 0x1
 18419 2895 52       		.byte	0x52
 18420 2896 9F       		.byte	0x9f
 18421 2897 6A000000 		.4byte	.LVL451
 18422 289b 72000000 		.4byte	.LVL453
 18423 289f 0100     		.2byte	0x1
 18424 28a1 56       		.byte	0x56
 18425 28a2 72000000 		.4byte	.LVL453
 18426 28a6 76000000 		.4byte	.LVL454
 18427 28aa 0400     		.2byte	0x4
 18428 28ac F3       		.byte	0xf3
ARM GAS  C:\Users\pearlstl\AppData\Local\Temp\ccHPSyCj.s 			page 356


 18429 28ad 01       		.uleb128 0x1
 18430 28ae 52       		.byte	0x52
 18431 28af 9F       		.byte	0x9f
 18432 28b0 76000000 		.4byte	.LVL454
 18433 28b4 7E000000 		.4byte	.LVL456
 18434 28b8 0100     		.2byte	0x1
 18435 28ba 56       		.byte	0x56
 18436 28bb 7E000000 		.4byte	.LVL456
 18437 28bf 82000000 		.4byte	.LFE37
 18438 28c3 0400     		.2byte	0x4
 18439 28c5 F3       		.byte	0xf3
 18440 28c6 01       		.uleb128 0x1
 18441 28c7 52       		.byte	0x52
 18442 28c8 9F       		.byte	0x9f
 18443 28c9 00000000 		.4byte	0
 18444 28cd 00000000 		.4byte	0
 18445              	.LLST201:
 18446 28d1 0C000000 		.4byte	.LVL432
 18447 28d5 20000000 		.4byte	.LVL433
 18448 28d9 0100     		.2byte	0x1
 18449 28db 50       		.byte	0x50
 18450 28dc 28000000 		.4byte	.LVL435
 18451 28e0 2C000000 		.4byte	.LVL436
 18452 28e4 0100     		.2byte	0x1
 18453 28e6 50       		.byte	0x50
 18454 28e7 34000000 		.4byte	.LVL438
 18455 28eb 36000000 		.4byte	.LVL439
 18456 28ef 0100     		.2byte	0x1
 18457 28f1 50       		.byte	0x50
 18458 28f2 46000000 		.4byte	.LVL442
 18459 28f6 4A000000 		.4byte	.LVL443
 18460 28fa 0100     		.2byte	0x1
 18461 28fc 50       		.byte	0x50
 18462 28fd 52000000 		.4byte	.LVL445
 18463 2901 56000000 		.4byte	.LVL446
 18464 2905 0100     		.2byte	0x1
 18465 2907 50       		.byte	0x50
 18466 2908 5E000000 		.4byte	.LVL448
 18467 290c 62000000 		.4byte	.LVL449
 18468 2910 0100     		.2byte	0x1
 18469 2912 50       		.byte	0x50
 18470 2913 6A000000 		.4byte	.LVL451
 18471 2917 6E000000 		.4byte	.LVL452
 18472 291b 0100     		.2byte	0x1
 18473 291d 50       		.byte	0x50
 18474 291e 76000000 		.4byte	.LVL454
 18475 2922 7A000000 		.4byte	.LVL455
 18476 2926 0100     		.2byte	0x1
 18477 2928 50       		.byte	0x50
 18478 2929 00000000 		.4byte	0
 18479 292d 00000000 		.4byte	0
 18480              	.LLST202:
 18481 2931 00000000 		.4byte	.LVL458
 18482 2935 05000000 		.4byte	.LVL459-1
 18483 2939 0100     		.2byte	0x1
 18484 293b 50       		.byte	0x50
 18485 293c 05000000 		.4byte	.LVL459-1
ARM GAS  C:\Users\pearlstl\AppData\Local\Temp\ccHPSyCj.s 			page 357


 18486 2940 08000000 		.4byte	.LFE38
 18487 2944 0400     		.2byte	0x4
 18488 2946 F3       		.byte	0xf3
 18489 2947 01       		.uleb128 0x1
 18490 2948 50       		.byte	0x50
 18491 2949 9F       		.byte	0x9f
 18492 294a 00000000 		.4byte	0
 18493 294e 00000000 		.4byte	0
 18494              	.LLST203:
 18495 2952 00000000 		.4byte	.LVL460
 18496 2956 05000000 		.4byte	.LVL461-1
 18497 295a 0100     		.2byte	0x1
 18498 295c 50       		.byte	0x50
 18499 295d 05000000 		.4byte	.LVL461-1
 18500 2961 0A000000 		.4byte	.LFE39
 18501 2965 0400     		.2byte	0x4
 18502 2967 F3       		.byte	0xf3
 18503 2968 01       		.uleb128 0x1
 18504 2969 50       		.byte	0x50
 18505 296a 9F       		.byte	0x9f
 18506 296b 00000000 		.4byte	0
 18507 296f 00000000 		.4byte	0
 18508              	.LLST204:
 18509 2973 06000000 		.4byte	.LVL461
 18510 2977 08000000 		.4byte	.LVL462
 18511 297b 0100     		.2byte	0x1
 18512 297d 50       		.byte	0x50
 18513 297e 08000000 		.4byte	.LVL462
 18514 2982 0A000000 		.4byte	.LFE39
 18515 2986 0300     		.2byte	0x3
 18516 2988 70       		.byte	0x70
 18517 2989 7C       		.sleb128 -4
 18518 298a 9F       		.byte	0x9f
 18519 298b 00000000 		.4byte	0
 18520 298f 00000000 		.4byte	0
 18521              	.LLST205:
 18522 2993 00000000 		.4byte	.LVL463
 18523 2997 05000000 		.4byte	.LVL464-1
 18524 299b 0100     		.2byte	0x1
 18525 299d 50       		.byte	0x50
 18526 299e 05000000 		.4byte	.LVL464-1
 18527 29a2 12000000 		.4byte	.LFE40
 18528 29a6 0400     		.2byte	0x4
 18529 29a8 F3       		.byte	0xf3
 18530 29a9 01       		.uleb128 0x1
 18531 29aa 50       		.byte	0x50
 18532 29ab 9F       		.byte	0x9f
 18533 29ac 00000000 		.4byte	0
 18534 29b0 00000000 		.4byte	0
 18535              	.LLST206:
 18536 29b4 06000000 		.4byte	.LVL464
 18537 29b8 0C000000 		.4byte	.LVL465
 18538 29bc 0100     		.2byte	0x1
 18539 29be 50       		.byte	0x50
 18540 29bf 0C000000 		.4byte	.LVL465
 18541 29c3 0E000000 		.4byte	.LVL466
 18542 29c7 0300     		.2byte	0x3
ARM GAS  C:\Users\pearlstl\AppData\Local\Temp\ccHPSyCj.s 			page 358


 18543 29c9 70       		.byte	0x70
 18544 29ca 70       		.sleb128 -16
 18545 29cb 9F       		.byte	0x9f
 18546 29cc 0E000000 		.4byte	.LVL466
 18547 29d0 10000000 		.4byte	.LVL467
 18548 29d4 0100     		.2byte	0x1
 18549 29d6 50       		.byte	0x50
 18550 29d7 00000000 		.4byte	0
 18551 29db 00000000 		.4byte	0
 18552              	.LLST207:
 18553 29df 00000000 		.4byte	.LVL468
 18554 29e3 05000000 		.4byte	.LVL469-1
 18555 29e7 0100     		.2byte	0x1
 18556 29e9 50       		.byte	0x50
 18557 29ea 05000000 		.4byte	.LVL469-1
 18558 29ee 0A000000 		.4byte	.LFE41
 18559 29f2 0400     		.2byte	0x4
 18560 29f4 F3       		.byte	0xf3
 18561 29f5 01       		.uleb128 0x1
 18562 29f6 50       		.byte	0x50
 18563 29f7 9F       		.byte	0x9f
 18564 29f8 00000000 		.4byte	0
 18565 29fc 00000000 		.4byte	0
 18566              	.LLST208:
 18567 2a00 06000000 		.4byte	.LVL469
 18568 2a04 08000000 		.4byte	.LVL470
 18569 2a08 0100     		.2byte	0x1
 18570 2a0a 50       		.byte	0x50
 18571 2a0b 00000000 		.4byte	0
 18572 2a0f 00000000 		.4byte	0
 18573              	.LLST209:
 18574 2a13 00000000 		.4byte	.LVL471
 18575 2a17 05000000 		.4byte	.LVL472-1
 18576 2a1b 0100     		.2byte	0x1
 18577 2a1d 50       		.byte	0x50
 18578 2a1e 05000000 		.4byte	.LVL472-1
 18579 2a22 0A000000 		.4byte	.LFE42
 18580 2a26 0400     		.2byte	0x4
 18581 2a28 F3       		.byte	0xf3
 18582 2a29 01       		.uleb128 0x1
 18583 2a2a 50       		.byte	0x50
 18584 2a2b 9F       		.byte	0x9f
 18585 2a2c 00000000 		.4byte	0
 18586 2a30 00000000 		.4byte	0
 18587              	.LLST210:
 18588 2a34 06000000 		.4byte	.LVL472
 18589 2a38 08000000 		.4byte	.LVL473
 18590 2a3c 0100     		.2byte	0x1
 18591 2a3e 50       		.byte	0x50
 18592 2a3f 00000000 		.4byte	0
 18593 2a43 00000000 		.4byte	0
 18594              	.LLST211:
 18595 2a47 00000000 		.4byte	.LVL474
 18596 2a4b 05000000 		.4byte	.LVL475-1
 18597 2a4f 0100     		.2byte	0x1
 18598 2a51 50       		.byte	0x50
 18599 2a52 05000000 		.4byte	.LVL475-1
ARM GAS  C:\Users\pearlstl\AppData\Local\Temp\ccHPSyCj.s 			page 359


 18600 2a56 0A000000 		.4byte	.LFE43
 18601 2a5a 0400     		.2byte	0x4
 18602 2a5c F3       		.byte	0xf3
 18603 2a5d 01       		.uleb128 0x1
 18604 2a5e 50       		.byte	0x50
 18605 2a5f 9F       		.byte	0x9f
 18606 2a60 00000000 		.4byte	0
 18607 2a64 00000000 		.4byte	0
 18608              	.LLST212:
 18609 2a68 06000000 		.4byte	.LVL475
 18610 2a6c 08000000 		.4byte	.LVL476
 18611 2a70 0100     		.2byte	0x1
 18612 2a72 50       		.byte	0x50
 18613 2a73 00000000 		.4byte	0
 18614 2a77 00000000 		.4byte	0
 18615              	.LLST213:
 18616 2a7b 00000000 		.4byte	.LVL477
 18617 2a7f 05000000 		.4byte	.LVL478-1
 18618 2a83 0100     		.2byte	0x1
 18619 2a85 50       		.byte	0x50
 18620 2a86 05000000 		.4byte	.LVL478-1
 18621 2a8a 0A000000 		.4byte	.LFE44
 18622 2a8e 0400     		.2byte	0x4
 18623 2a90 F3       		.byte	0xf3
 18624 2a91 01       		.uleb128 0x1
 18625 2a92 50       		.byte	0x50
 18626 2a93 9F       		.byte	0x9f
 18627 2a94 00000000 		.4byte	0
 18628 2a98 00000000 		.4byte	0
 18629              	.LLST214:
 18630 2a9c 06000000 		.4byte	.LVL478
 18631 2aa0 08000000 		.4byte	.LVL479
 18632 2aa4 0100     		.2byte	0x1
 18633 2aa6 50       		.byte	0x50
 18634 2aa7 00000000 		.4byte	0
 18635 2aab 00000000 		.4byte	0
 18636              	.LLST215:
 18637 2aaf 00000000 		.4byte	.LVL480
 18638 2ab3 09000000 		.4byte	.LVL481-1
 18639 2ab7 0100     		.2byte	0x1
 18640 2ab9 50       		.byte	0x50
 18641 2aba 09000000 		.4byte	.LVL481-1
 18642 2abe 24000000 		.4byte	.LVL485
 18643 2ac2 0100     		.2byte	0x1
 18644 2ac4 55       		.byte	0x55
 18645 2ac5 24000000 		.4byte	.LVL485
 18646 2ac9 27000000 		.4byte	.LVL486-1
 18647 2acd 0100     		.2byte	0x1
 18648 2acf 50       		.byte	0x50
 18649 2ad0 27000000 		.4byte	.LVL486-1
 18650 2ad4 28000000 		.4byte	.LVL486
 18651 2ad8 0400     		.2byte	0x4
 18652 2ada F3       		.byte	0xf3
 18653 2adb 01       		.uleb128 0x1
 18654 2adc 50       		.byte	0x50
 18655 2add 9F       		.byte	0x9f
 18656 2ade 28000000 		.4byte	.LVL486
ARM GAS  C:\Users\pearlstl\AppData\Local\Temp\ccHPSyCj.s 			page 360


 18657 2ae2 44000000 		.4byte	.LFE45
 18658 2ae6 0100     		.2byte	0x1
 18659 2ae8 55       		.byte	0x55
 18660 2ae9 00000000 		.4byte	0
 18661 2aed 00000000 		.4byte	0
 18662              	.LLST216:
 18663 2af1 00000000 		.4byte	.LVL480
 18664 2af5 09000000 		.4byte	.LVL481-1
 18665 2af9 0100     		.2byte	0x1
 18666 2afb 51       		.byte	0x51
 18667 2afc 09000000 		.4byte	.LVL481-1
 18668 2b00 44000000 		.4byte	.LFE45
 18669 2b04 0400     		.2byte	0x4
 18670 2b06 F3       		.byte	0xf3
 18671 2b07 01       		.uleb128 0x1
 18672 2b08 51       		.byte	0x51
 18673 2b09 9F       		.byte	0x9f
 18674 2b0a 00000000 		.4byte	0
 18675 2b0e 00000000 		.4byte	0
 18676              	.LLST217:
 18677 2b12 00000000 		.4byte	.LVL480
 18678 2b16 1C000000 		.4byte	.LVL482
 18679 2b1a 0200     		.2byte	0x2
 18680 2b1c 30       		.byte	0x30
 18681 2b1d 9F       		.byte	0x9f
 18682 2b1e 1C000000 		.4byte	.LVL482
 18683 2b22 1E000000 		.4byte	.LVL483
 18684 2b26 0100     		.2byte	0x1
 18685 2b28 50       		.byte	0x50
 18686 2b29 1E000000 		.4byte	.LVL483
 18687 2b2d 2A000000 		.4byte	.LVL487
 18688 2b31 0200     		.2byte	0x2
 18689 2b33 30       		.byte	0x30
 18690 2b34 9F       		.byte	0x9f
 18691 2b35 2A000000 		.4byte	.LVL487
 18692 2b39 2C000000 		.4byte	.LVL488
 18693 2b3d 0100     		.2byte	0x1
 18694 2b3f 50       		.byte	0x50
 18695 2b40 2C000000 		.4byte	.LVL488
 18696 2b44 2E000000 		.4byte	.LVL489
 18697 2b48 0200     		.2byte	0x2
 18698 2b4a 30       		.byte	0x30
 18699 2b4b 9F       		.byte	0x9f
 18700 2b4c 2E000000 		.4byte	.LVL489
 18701 2b50 30000000 		.4byte	.LVL490
 18702 2b54 0100     		.2byte	0x1
 18703 2b56 50       		.byte	0x50
 18704 2b57 30000000 		.4byte	.LVL490
 18705 2b5b 32000000 		.4byte	.LVL491
 18706 2b5f 0200     		.2byte	0x2
 18707 2b61 30       		.byte	0x30
 18708 2b62 9F       		.byte	0x9f
 18709 2b63 32000000 		.4byte	.LVL491
 18710 2b67 34000000 		.4byte	.LVL492
 18711 2b6b 0100     		.2byte	0x1
 18712 2b6d 50       		.byte	0x50
 18713 2b6e 34000000 		.4byte	.LVL492
ARM GAS  C:\Users\pearlstl\AppData\Local\Temp\ccHPSyCj.s 			page 361


 18714 2b72 36000000 		.4byte	.LVL493
 18715 2b76 0200     		.2byte	0x2
 18716 2b78 30       		.byte	0x30
 18717 2b79 9F       		.byte	0x9f
 18718 2b7a 36000000 		.4byte	.LVL493
 18719 2b7e 38000000 		.4byte	.LVL494
 18720 2b82 0100     		.2byte	0x1
 18721 2b84 50       		.byte	0x50
 18722 2b85 38000000 		.4byte	.LVL494
 18723 2b89 3A000000 		.4byte	.LVL495
 18724 2b8d 0200     		.2byte	0x2
 18725 2b8f 30       		.byte	0x30
 18726 2b90 9F       		.byte	0x9f
 18727 2b91 3A000000 		.4byte	.LVL495
 18728 2b95 3C000000 		.4byte	.LVL496
 18729 2b99 0100     		.2byte	0x1
 18730 2b9b 50       		.byte	0x50
 18731 2b9c 3C000000 		.4byte	.LVL496
 18732 2ba0 3E000000 		.4byte	.LVL497
 18733 2ba4 0200     		.2byte	0x2
 18734 2ba6 30       		.byte	0x30
 18735 2ba7 9F       		.byte	0x9f
 18736 2ba8 3E000000 		.4byte	.LVL497
 18737 2bac 40000000 		.4byte	.LVL498
 18738 2bb0 0100     		.2byte	0x1
 18739 2bb2 50       		.byte	0x50
 18740 2bb3 40000000 		.4byte	.LVL498
 18741 2bb7 42000000 		.4byte	.LVL499
 18742 2bbb 0200     		.2byte	0x2
 18743 2bbd 30       		.byte	0x30
 18744 2bbe 9F       		.byte	0x9f
 18745 2bbf 42000000 		.4byte	.LVL499
 18746 2bc3 44000000 		.4byte	.LFE45
 18747 2bc7 0100     		.2byte	0x1
 18748 2bc9 50       		.byte	0x50
 18749 2bca 00000000 		.4byte	0
 18750 2bce 00000000 		.4byte	0
 18751              	.LLST218:
 18752 2bd2 0A000000 		.4byte	.LVL481
 18753 2bd6 1C000000 		.4byte	.LVL482
 18754 2bda 0100     		.2byte	0x1
 18755 2bdc 50       		.byte	0x50
 18756 2bdd 1E000000 		.4byte	.LVL483
 18757 2be1 20000000 		.4byte	.LVL484
 18758 2be5 0100     		.2byte	0x1
 18759 2be7 50       		.byte	0x50
 18760 2be8 28000000 		.4byte	.LVL486
 18761 2bec 2A000000 		.4byte	.LVL487
 18762 2bf0 0100     		.2byte	0x1
 18763 2bf2 50       		.byte	0x50
 18764 2bf3 2C000000 		.4byte	.LVL488
 18765 2bf7 2E000000 		.4byte	.LVL489
 18766 2bfb 0100     		.2byte	0x1
 18767 2bfd 50       		.byte	0x50
 18768 2bfe 30000000 		.4byte	.LVL490
 18769 2c02 32000000 		.4byte	.LVL491
 18770 2c06 0100     		.2byte	0x1
ARM GAS  C:\Users\pearlstl\AppData\Local\Temp\ccHPSyCj.s 			page 362


 18771 2c08 50       		.byte	0x50
 18772 2c09 34000000 		.4byte	.LVL492
 18773 2c0d 36000000 		.4byte	.LVL493
 18774 2c11 0100     		.2byte	0x1
 18775 2c13 50       		.byte	0x50
 18776 2c14 38000000 		.4byte	.LVL494
 18777 2c18 3A000000 		.4byte	.LVL495
 18778 2c1c 0100     		.2byte	0x1
 18779 2c1e 50       		.byte	0x50
 18780 2c1f 3C000000 		.4byte	.LVL496
 18781 2c23 3E000000 		.4byte	.LVL497
 18782 2c27 0100     		.2byte	0x1
 18783 2c29 50       		.byte	0x50
 18784 2c2a 40000000 		.4byte	.LVL498
 18785 2c2e 42000000 		.4byte	.LVL499
 18786 2c32 0100     		.2byte	0x1
 18787 2c34 50       		.byte	0x50
 18788 2c35 00000000 		.4byte	0
 18789 2c39 00000000 		.4byte	0
 18790              		.section	.debug_aranges,"",%progbits
 18791 0000 9C000000 		.4byte	0x9c
 18792 0004 0200     		.2byte	0x2
 18793 0006 00000000 		.4byte	.Ldebug_info0
 18794 000a 04       		.byte	0x4
 18795 000b 00       		.byte	0
 18796 000c 0000     		.2byte	0
 18797 000e 0000     		.2byte	0
 18798 0010 00000000 		.4byte	.LFB46
 18799 0014 B4080000 		.4byte	.LFE46-.LFB46
 18800 0018 00000000 		.4byte	.LFB47
 18801 001c D4040000 		.4byte	.LFE47-.LFB47
 18802 0020 00000000 		.4byte	.LFB31
 18803 0024 48020000 		.4byte	.LFE31-.LFB31
 18804 0028 00000000 		.4byte	.LFB32
 18805 002c 24000000 		.4byte	.LFE32-.LFB32
 18806 0030 00000000 		.4byte	.LFB33
 18807 0034 24000000 		.4byte	.LFE33-.LFB33
 18808 0038 00000000 		.4byte	.LFB34
 18809 003c 1C000000 		.4byte	.LFE34-.LFB34
 18810 0040 00000000 		.4byte	.LFB35
 18811 0044 16000000 		.4byte	.LFE35-.LFB35
 18812 0048 00000000 		.4byte	.LFB36
 18813 004c 16000000 		.4byte	.LFE36-.LFB36
 18814 0050 00000000 		.4byte	.LFB37
 18815 0054 82000000 		.4byte	.LFE37-.LFB37
 18816 0058 00000000 		.4byte	.LFB38
 18817 005c 08000000 		.4byte	.LFE38-.LFB38
 18818 0060 00000000 		.4byte	.LFB39
 18819 0064 0A000000 		.4byte	.LFE39-.LFB39
 18820 0068 00000000 		.4byte	.LFB40
 18821 006c 12000000 		.4byte	.LFE40-.LFB40
 18822 0070 00000000 		.4byte	.LFB41
 18823 0074 0A000000 		.4byte	.LFE41-.LFB41
 18824 0078 00000000 		.4byte	.LFB42
 18825 007c 0A000000 		.4byte	.LFE42-.LFB42
 18826 0080 00000000 		.4byte	.LFB43
 18827 0084 0A000000 		.4byte	.LFE43-.LFB43
ARM GAS  C:\Users\pearlstl\AppData\Local\Temp\ccHPSyCj.s 			page 363


 18828 0088 00000000 		.4byte	.LFB44
 18829 008c 0A000000 		.4byte	.LFE44-.LFB44
 18830 0090 00000000 		.4byte	.LFB45
 18831 0094 44000000 		.4byte	.LFE45-.LFB45
 18832 0098 00000000 		.4byte	0
 18833 009c 00000000 		.4byte	0
 18834              		.section	.debug_ranges,"",%progbits
 18835              	.Ldebug_ranges0:
 18836 0000 1C000000 		.4byte	.LBB155
 18837 0004 52080000 		.4byte	.LBE155
 18838 0008 5E080000 		.4byte	.LBB271
 18839 000c B4080000 		.4byte	.LBE271
 18840 0010 00000000 		.4byte	0
 18841 0014 00000000 		.4byte	0
 18842 0018 20000000 		.4byte	.LBB156
 18843 001c 22000000 		.4byte	.LBE156
 18844 0020 24000000 		.4byte	.LBB159
 18845 0024 30000000 		.4byte	.LBE159
 18846 0028 00000000 		.4byte	0
 18847 002c 00000000 		.4byte	0
 18848 0030 42000000 		.4byte	.LBB160
 18849 0034 7E010000 		.4byte	.LBE160
 18850 0038 5E080000 		.4byte	.LBB267
 18851 003c 62080000 		.4byte	.LBE267
 18852 0040 00000000 		.4byte	0
 18853 0044 00000000 		.4byte	0
 18854 0048 AA000000 		.4byte	.LBB164
 18855 004c C4000000 		.4byte	.LBE164
 18856 0050 5E080000 		.4byte	.LBB167
 18857 0054 62080000 		.4byte	.LBE167
 18858 0058 00000000 		.4byte	0
 18859 005c 00000000 		.4byte	0
 18860 0060 B4010000 		.4byte	.LBB171
 18861 0064 B6010000 		.4byte	.LBE171
 18862 0068 B8010000 		.4byte	.LBB174
 18863 006c C0010000 		.4byte	.LBE174
 18864 0070 00000000 		.4byte	0
 18865 0074 00000000 		.4byte	0
 18866 0078 1E020000 		.4byte	.LBB175
 18867 007c 20020000 		.4byte	.LBE175
 18868 0080 66020000 		.4byte	.LBB179
 18869 0084 68020000 		.4byte	.LBE179
 18870 0088 70020000 		.4byte	.LBB180
 18871 008c 94020000 		.4byte	.LBE180
 18872 0090 00000000 		.4byte	0
 18873 0094 00000000 		.4byte	0
 18874 0098 94020000 		.4byte	.LBB181
 18875 009c 52080000 		.4byte	.LBE181
 18876 00a0 62080000 		.4byte	.LBB268
 18877 00a4 B4080000 		.4byte	.LBE268
 18878 00a8 00000000 		.4byte	0
 18879 00ac 00000000 		.4byte	0
 18880 00b0 BC020000 		.4byte	.LBB185
 18881 00b4 C0020000 		.4byte	.LBE185
 18882 00b8 C4020000 		.4byte	.LBB188
 18883 00bc CA020000 		.4byte	.LBE188
 18884 00c0 00000000 		.4byte	0
ARM GAS  C:\Users\pearlstl\AppData\Local\Temp\ccHPSyCj.s 			page 364


 18885 00c4 00000000 		.4byte	0
 18886 00c8 F6020000 		.4byte	.LBB189
 18887 00cc FA020000 		.4byte	.LBE189
 18888 00d0 12030000 		.4byte	.LBB200
 18889 00d4 18030000 		.4byte	.LBE200
 18890 00d8 2A030000 		.4byte	.LBB201
 18891 00dc 60030000 		.4byte	.LBE201
 18892 00e0 64030000 		.4byte	.LBB202
 18893 00e4 68030000 		.4byte	.LBE202
 18894 00e8 6C030000 		.4byte	.LBB203
 18895 00ec 70030000 		.4byte	.LBE203
 18896 00f0 82030000 		.4byte	.LBB204
 18897 00f4 88030000 		.4byte	.LBE204
 18898 00f8 8E030000 		.4byte	.LBB205
 18899 00fc 90030000 		.4byte	.LBE205
 18900 0100 92030000 		.4byte	.LBB206
 18901 0104 94030000 		.4byte	.LBE206
 18902 0108 98030000 		.4byte	.LBB207
 18903 010c 9A030000 		.4byte	.LBE207
 18904 0110 AA030000 		.4byte	.LBB208
 18905 0114 AE030000 		.4byte	.LBE208
 18906 0118 00000000 		.4byte	0
 18907 011c 00000000 		.4byte	0
 18908 0120 C4030000 		.4byte	.LBB209
 18909 0124 04040000 		.4byte	.LBE209
 18910 0128 62080000 		.4byte	.LBB265
 18911 012c B4080000 		.4byte	.LBE265
 18912 0130 00000000 		.4byte	0
 18913 0134 00000000 		.4byte	0
 18914 0138 62080000 		.4byte	.LBB211
 18915 013c 92080000 		.4byte	.LBE211
 18916 0140 9C080000 		.4byte	.LBB214
 18917 0144 B4080000 		.4byte	.LBE214
 18918 0148 00000000 		.4byte	0
 18919 014c 00000000 		.4byte	0
 18920 0150 2E040000 		.4byte	.LBB216
 18921 0154 30040000 		.4byte	.LBE216
 18922 0158 36040000 		.4byte	.LBB257
 18923 015c 3C040000 		.4byte	.LBE257
 18924 0160 3E040000 		.4byte	.LBB258
 18925 0164 72050000 		.4byte	.LBE258
 18926 0168 7E050000 		.4byte	.LBB259
 18927 016c FA060000 		.4byte	.LBE259
 18928 0170 FC060000 		.4byte	.LBB260
 18929 0174 FE060000 		.4byte	.LBE260
 18930 0178 00070000 		.4byte	.LBB261
 18931 017c 02070000 		.4byte	.LBE261
 18932 0180 04070000 		.4byte	.LBB262
 18933 0184 06070000 		.4byte	.LBE262
 18934 0188 08070000 		.4byte	.LBB263
 18935 018c 10070000 		.4byte	.LBE263
 18936 0190 16070000 		.4byte	.LBB264
 18937 0194 52080000 		.4byte	.LBE264
 18938 0198 00000000 		.4byte	0
 18939 019c 00000000 		.4byte	0
 18940 01a0 6A040000 		.4byte	.LBB217
 18941 01a4 40050000 		.4byte	.LBE217
ARM GAS  C:\Users\pearlstl\AppData\Local\Temp\ccHPSyCj.s 			page 365


 18942 01a8 44050000 		.4byte	.LBB249
 18943 01ac 4C050000 		.4byte	.LBE249
 18944 01b0 5C050000 		.4byte	.LBB250
 18945 01b4 72050000 		.4byte	.LBE250
 18946 01b8 7E050000 		.4byte	.LBB251
 18947 01bc EA060000 		.4byte	.LBE251
 18948 01c0 28070000 		.4byte	.LBB252
 18949 01c4 A2070000 		.4byte	.LBE252
 18950 01c8 10080000 		.4byte	.LBB256
 18951 01cc 52080000 		.4byte	.LBE256
 18952 01d0 00000000 		.4byte	0
 18953 01d4 00000000 		.4byte	0
 18954 01d8 B6040000 		.4byte	.LBB218
 18955 01dc B8040000 		.4byte	.LBE218
 18956 01e0 C8040000 		.4byte	.LBB221
 18957 01e4 1A050000 		.4byte	.LBE221
 18958 01e8 00000000 		.4byte	0
 18959 01ec 00000000 		.4byte	0
 18960 01f0 B2050000 		.4byte	.LBB222
 18961 01f4 B4050000 		.4byte	.LBE222
 18962 01f8 BC050000 		.4byte	.LBB227
 18963 01fc 18060000 		.4byte	.LBE227
 18964 0200 28070000 		.4byte	.LBB241
 18965 0204 2A070000 		.4byte	.LBE241
 18966 0208 32070000 		.4byte	.LBB242
 18967 020c 42070000 		.4byte	.LBE242
 18968 0210 00000000 		.4byte	0
 18969 0214 00000000 		.4byte	0
 18970 0218 28060000 		.4byte	.LBB228
 18971 021c 66060000 		.4byte	.LBE228
 18972 0220 64070000 		.4byte	.LBB243
 18973 0224 8E070000 		.4byte	.LBE243
 18974 0228 94070000 		.4byte	.LBB244
 18975 022c A2070000 		.4byte	.LBE244
 18976 0230 4E080000 		.4byte	.LBB248
 18977 0234 52080000 		.4byte	.LBE248
 18978 0238 00000000 		.4byte	0
 18979 023c 00000000 		.4byte	0
 18980 0240 64070000 		.4byte	.LBB230
 18981 0244 8E070000 		.4byte	.LBE230
 18982 0248 9E070000 		.4byte	.LBB234
 18983 024c A2070000 		.4byte	.LBE234
 18984 0250 4E080000 		.4byte	.LBB235
 18985 0254 52080000 		.4byte	.LBE235
 18986 0258 00000000 		.4byte	0
 18987 025c 00000000 		.4byte	0
 18988 0260 36000000 		.4byte	.LBB303
 18989 0264 38000000 		.4byte	.LBE303
 18990 0268 C0000000 		.4byte	.LBB372
 18991 026c F0000000 		.4byte	.LBE372
 18992 0270 46010000 		.4byte	.LBB375
 18993 0274 62010000 		.4byte	.LBE375
 18994 0278 2E030000 		.4byte	.LBB377
 18995 027c 54030000 		.4byte	.LBE377
 18996 0280 FA030000 		.4byte	.LBB380
 18997 0284 04040000 		.4byte	.LBE380
 18998 0288 00000000 		.4byte	0
ARM GAS  C:\Users\pearlstl\AppData\Local\Temp\ccHPSyCj.s 			page 366


 18999 028c 00000000 		.4byte	0
 19000 0290 3E000000 		.4byte	.LBB304
 19001 0294 C0000000 		.4byte	.LBE304
 19002 0298 62010000 		.4byte	.LBB376
 19003 029c 2E030000 		.4byte	.LBE376
 19004 02a0 80030000 		.4byte	.LBB379
 19005 02a4 FA030000 		.4byte	.LBE379
 19006 02a8 10040000 		.4byte	.LBB382
 19007 02ac D4040000 		.4byte	.LBE382
 19008 02b0 00000000 		.4byte	0
 19009 02b4 00000000 		.4byte	0
 19010 02b8 52000000 		.4byte	.LBB307
 19011 02bc 54000000 		.4byte	.LBE307
 19012 02c0 58000000 		.4byte	.LBB310
 19013 02c4 5E000000 		.4byte	.LBE310
 19014 02c8 00000000 		.4byte	0
 19015 02cc 00000000 		.4byte	0
 19016 02d0 72010000 		.4byte	.LBB311
 19017 02d4 20030000 		.4byte	.LBE311
 19018 02d8 94030000 		.4byte	.LBB370
 19019 02dc FA030000 		.4byte	.LBE370
 19020 02e0 20040000 		.4byte	.LBB371
 19021 02e4 D4040000 		.4byte	.LBE371
 19022 02e8 00000000 		.4byte	0
 19023 02ec 00000000 		.4byte	0
 19024 02f0 9A010000 		.4byte	.LBB317
 19025 02f4 9C010000 		.4byte	.LBE317
 19026 02f8 A4010000 		.4byte	.LBB321
 19027 02fc B2010000 		.4byte	.LBE321
 19028 0300 B6010000 		.4byte	.LBB325
 19029 0304 BA010000 		.4byte	.LBE325
 19030 0308 00000000 		.4byte	0
 19031 030c 00000000 		.4byte	0
 19032 0310 B2010000 		.4byte	.LBB322
 19033 0314 B6010000 		.4byte	.LBE322
 19034 0318 BA010000 		.4byte	.LBB326
 19035 031c C0010000 		.4byte	.LBE326
 19036 0320 00000000 		.4byte	0
 19037 0324 00000000 		.4byte	0
 19038 0328 E8010000 		.4byte	.LBB327
 19039 032c 20030000 		.4byte	.LBE327
 19040 0330 94030000 		.4byte	.LBB366
 19041 0334 FA030000 		.4byte	.LBE366
 19042 0338 20040000 		.4byte	.LBB367
 19043 033c D4040000 		.4byte	.LBE367
 19044 0340 00000000 		.4byte	0
 19045 0344 00000000 		.4byte	0
 19046 0348 56020000 		.4byte	.LBB328
 19047 034c B0020000 		.4byte	.LBE328
 19048 0350 B2020000 		.4byte	.LBB331
 19049 0354 B6020000 		.4byte	.LBE331
 19050 0358 00000000 		.4byte	0
 19051 035c 00000000 		.4byte	0
 19052 0360 D2020000 		.4byte	.LBB332
 19053 0364 DA020000 		.4byte	.LBE332
 19054 0368 DC020000 		.4byte	.LBB345
 19055 036c EC020000 		.4byte	.LBE345
ARM GAS  C:\Users\pearlstl\AppData\Local\Temp\ccHPSyCj.s 			page 367


 19056 0370 EE020000 		.4byte	.LBB346
 19057 0374 16030000 		.4byte	.LBE346
 19058 0378 76040000 		.4byte	.LBB361
 19059 037c 9E040000 		.4byte	.LBE361
 19060 0380 A2040000 		.4byte	.LBB362
 19061 0384 B4040000 		.4byte	.LBE362
 19062 0388 C2040000 		.4byte	.LBB364
 19063 038c C6040000 		.4byte	.LBE364
 19064 0390 00000000 		.4byte	0
 19065 0394 00000000 		.4byte	0
 19066 0398 76040000 		.4byte	.LBB334
 19067 039c 98040000 		.4byte	.LBE334
 19068 03a0 A6040000 		.4byte	.LBB338
 19069 03a4 AA040000 		.4byte	.LBE338
 19070 03a8 C2040000 		.4byte	.LBB339
 19071 03ac C6040000 		.4byte	.LBE339
 19072 03b0 00000000 		.4byte	0
 19073 03b4 00000000 		.4byte	0
 19074 03b8 94030000 		.4byte	.LBB347
 19075 03bc 9E030000 		.4byte	.LBE347
 19076 03c0 A0030000 		.4byte	.LBB359
 19077 03c4 E4030000 		.4byte	.LBE359
 19078 03c8 46040000 		.4byte	.LBB360
 19079 03cc 76040000 		.4byte	.LBE360
 19080 03d0 B4040000 		.4byte	.LBB363
 19081 03d4 C2040000 		.4byte	.LBE363
 19082 03d8 C6040000 		.4byte	.LBB365
 19083 03dc D4040000 		.4byte	.LBE365
 19084 03e0 00000000 		.4byte	0
 19085 03e4 00000000 		.4byte	0
 19086 03e8 46040000 		.4byte	.LBB349
 19087 03ec 70040000 		.4byte	.LBE349
 19088 03f0 BE040000 		.4byte	.LBB353
 19089 03f4 C2040000 		.4byte	.LBE353
 19090 03f8 C6040000 		.4byte	.LBB354
 19091 03fc D4040000 		.4byte	.LBE354
 19092 0400 00000000 		.4byte	0
 19093 0404 00000000 		.4byte	0
 19094 0408 FA000000 		.4byte	.LBB373
 19095 040c 2C010000 		.4byte	.LBE373
 19096 0410 54030000 		.4byte	.LBB378
 19097 0414 80030000 		.4byte	.LBE378
 19098 0418 04040000 		.4byte	.LBB381
 19099 041c 10040000 		.4byte	.LBE381
 19100 0420 00000000 		.4byte	0
 19101 0424 00000000 		.4byte	0
 19102 0428 E0000000 		.4byte	.LBB418
 19103 042c 98010000 		.4byte	.LBE418
 19104 0430 B0010000 		.4byte	.LBB477
 19105 0434 48020000 		.4byte	.LBE477
 19106 0438 00000000 		.4byte	0
 19107 043c 00000000 		.4byte	0
 19108 0440 16010000 		.4byte	.LBB421
 19109 0444 18010000 		.4byte	.LBE421
 19110 0448 1C010000 		.4byte	.LBB424
 19111 044c 28010000 		.4byte	.LBE424
 19112 0450 00000000 		.4byte	0
ARM GAS  C:\Users\pearlstl\AppData\Local\Temp\ccHPSyCj.s 			page 368


 19113 0454 00000000 		.4byte	0
 19114 0458 28010000 		.4byte	.LBB425
 19115 045c 2A010000 		.4byte	.LBE425
 19116 0460 2E010000 		.4byte	.LBB428
 19117 0464 3A010000 		.4byte	.LBE428
 19118 0468 00000000 		.4byte	0
 19119 046c 00000000 		.4byte	0
 19120 0470 3A010000 		.4byte	.LBB429
 19121 0474 3C010000 		.4byte	.LBE429
 19122 0478 40010000 		.4byte	.LBB432
 19123 047c 4C010000 		.4byte	.LBE432
 19124 0480 00000000 		.4byte	0
 19125 0484 00000000 		.4byte	0
 19126 0488 4C010000 		.4byte	.LBB433
 19127 048c 4E010000 		.4byte	.LBE433
 19128 0490 52010000 		.4byte	.LBB436
 19129 0494 5E010000 		.4byte	.LBE436
 19130 0498 00000000 		.4byte	0
 19131 049c 00000000 		.4byte	0
 19132 04a0 5E010000 		.4byte	.LBB437
 19133 04a4 60010000 		.4byte	.LBE437
 19134 04a8 64010000 		.4byte	.LBB440
 19135 04ac 70010000 		.4byte	.LBE440
 19136 04b0 00000000 		.4byte	0
 19137 04b4 00000000 		.4byte	0
 19138 04b8 70010000 		.4byte	.LBB441
 19139 04bc 72010000 		.4byte	.LBE441
 19140 04c0 76010000 		.4byte	.LBB444
 19141 04c4 82010000 		.4byte	.LBE444
 19142 04c8 00000000 		.4byte	0
 19143 04cc 00000000 		.4byte	0
 19144 04d0 88010000 		.4byte	.LBB447
 19145 04d4 98010000 		.4byte	.LBE447
 19146 04d8 24020000 		.4byte	.LBB476
 19147 04dc 26020000 		.4byte	.LBE476
 19148 04e0 00000000 		.4byte	0
 19149 04e4 00000000 		.4byte	0
 19150 04e8 C4010000 		.4byte	.LBB452
 19151 04ec C6010000 		.4byte	.LBE452
 19152 04f0 C8010000 		.4byte	.LBB455
 19153 04f4 D4010000 		.4byte	.LBE455
 19154 04f8 00000000 		.4byte	0
 19155 04fc 00000000 		.4byte	0
 19156 0500 D4010000 		.4byte	.LBB456
 19157 0504 D6010000 		.4byte	.LBE456
 19158 0508 D8010000 		.4byte	.LBB459
 19159 050c E4010000 		.4byte	.LBE459
 19160 0510 00000000 		.4byte	0
 19161 0514 00000000 		.4byte	0
 19162 0518 E4010000 		.4byte	.LBB460
 19163 051c E6010000 		.4byte	.LBE460
 19164 0520 E8010000 		.4byte	.LBB463
 19165 0524 F4010000 		.4byte	.LBE463
 19166 0528 00000000 		.4byte	0
 19167 052c 00000000 		.4byte	0
 19168 0530 F4010000 		.4byte	.LBB464
 19169 0534 F6010000 		.4byte	.LBE464
ARM GAS  C:\Users\pearlstl\AppData\Local\Temp\ccHPSyCj.s 			page 369


 19170 0538 F8010000 		.4byte	.LBB467
 19171 053c 04020000 		.4byte	.LBE467
 19172 0540 00000000 		.4byte	0
 19173 0544 00000000 		.4byte	0
 19174 0548 04020000 		.4byte	.LBB468
 19175 054c 06020000 		.4byte	.LBE468
 19176 0550 08020000 		.4byte	.LBB471
 19177 0554 14020000 		.4byte	.LBE471
 19178 0558 00000000 		.4byte	0
 19179 055c 00000000 		.4byte	0
 19180 0560 14020000 		.4byte	.LBB472
 19181 0564 16020000 		.4byte	.LBE472
 19182 0568 18020000 		.4byte	.LBB475
 19183 056c 24020000 		.4byte	.LBE475
 19184 0570 00000000 		.4byte	0
 19185 0574 00000000 		.4byte	0
 19186 0578 00000000 		.4byte	.LFB46
 19187 057c B4080000 		.4byte	.LFE46
 19188 0580 00000000 		.4byte	.LFB47
 19189 0584 D4040000 		.4byte	.LFE47
 19190 0588 00000000 		.4byte	.LFB31
 19191 058c 48020000 		.4byte	.LFE31
 19192 0590 00000000 		.4byte	.LFB32
 19193 0594 24000000 		.4byte	.LFE32
 19194 0598 00000000 		.4byte	.LFB33
 19195 059c 24000000 		.4byte	.LFE33
 19196 05a0 00000000 		.4byte	.LFB34
 19197 05a4 1C000000 		.4byte	.LFE34
 19198 05a8 00000000 		.4byte	.LFB35
 19199 05ac 16000000 		.4byte	.LFE35
 19200 05b0 00000000 		.4byte	.LFB36
 19201 05b4 16000000 		.4byte	.LFE36
 19202 05b8 00000000 		.4byte	.LFB37
 19203 05bc 82000000 		.4byte	.LFE37
 19204 05c0 00000000 		.4byte	.LFB38
 19205 05c4 08000000 		.4byte	.LFE38
 19206 05c8 00000000 		.4byte	.LFB39
 19207 05cc 0A000000 		.4byte	.LFE39
 19208 05d0 00000000 		.4byte	.LFB40
 19209 05d4 12000000 		.4byte	.LFE40
 19210 05d8 00000000 		.4byte	.LFB41
 19211 05dc 0A000000 		.4byte	.LFE41
 19212 05e0 00000000 		.4byte	.LFB42
 19213 05e4 0A000000 		.4byte	.LFE42
 19214 05e8 00000000 		.4byte	.LFB43
 19215 05ec 0A000000 		.4byte	.LFE43
 19216 05f0 00000000 		.4byte	.LFB44
 19217 05f4 0A000000 		.4byte	.LFE44
 19218 05f8 00000000 		.4byte	.LFB45
 19219 05fc 44000000 		.4byte	.LFE45
 19220 0600 00000000 		.4byte	0
 19221 0604 00000000 		.4byte	0
 19222              		.section	.debug_line,"",%progbits
 19223              	.Ldebug_line0:
 19224 0000 5A0C0000 		.section	.debug_str,"MS",%progbits,1
 19224      02009405 
 19224      00000201 
ARM GAS  C:\Users\pearlstl\AppData\Local\Temp\ccHPSyCj.s 			page 370


 19224      FB0E0D00 
 19224      01010101 
 19225              	.LASF260:
 19226 0000 7374796C 		.ascii	"style_header\000"
 19226      655F6865 
 19226      61646572 
 19226      00
 19227              	.LASF15:
 19228 000d 696E7438 		.ascii	"int8_t\000"
 19228      5F7400
 19229              	.LASF110:
 19230 0014 636F6C6F 		.ascii	"color_chroma_key\000"
 19230      725F6368 
 19230      726F6D61 
 19230      5F6B6579 
 19230      00
 19231              	.LASF78:
 19232 0025 6C765F6C 		.ascii	"lv_ll_node_t\000"
 19232      6C5F6E6F 
 19232      64655F74 
 19232      00
 19233              	.LASF23:
 19234 0032 6164765F 		.ascii	"adv_w\000"
 19234      7700
 19235              	.LASF306:
 19236 0038 68656164 		.ascii	"header_pr\000"
 19236      65725F70 
 19236      7200
 19237              	.LASF42:
 19238 0042 73697A65 		.ascii	"sizetype\000"
 19238      74797065 
 19238      00
 19239              	.LASF284:
 19240 004b 4C565F4B 		.ascii	"LV_KEY_RIGHT\000"
 19240      45595F52 
 19240      49474854 
 19240      00
 19241              	.LASF39:
 19242 0058 6C765F63 		.ascii	"lv_color32_t\000"
 19242      6F6C6F72 
 19242      33325F74 
 19242      00
 19243              	.LASF313:
 19244 0065 63656C6C 		.ascii	"cell\000"
 19244      00
 19245              	.LASF363:
 19246 006a 6D6F6E74 		.ascii	"month_start_day\000"
 19246      685F7374 
 19246      6172745F 
 19246      64617900 
 19247              	.LASF401:
 19248 007a 6C765F63 		.ascii	"lv_calendar_get_today_date\000"
 19248      616C656E 
 19248      6461725F 
 19248      6765745F 
 19248      746F6461 
 19249              	.LASF81:
ARM GAS  C:\Users\pearlstl\AppData\Local\Temp\ccHPSyCj.s 			page 371


 19250 0095 7461696C 		.ascii	"tail\000"
 19250      00
 19251              	.LASF261:
 19252 009a 7374796C 		.ascii	"style_header_pr\000"
 19252      655F6865 
 19252      61646572 
 19252      5F707200 
 19253              	.LASF414:
 19254 00aa 6C765F73 		.ascii	"lv_style_pretty_color\000"
 19254      74796C65 
 19254      5F707265 
 19254      7474795F 
 19254      636F6C6F 
 19255              	.LASF221:
 19256 00c0 4C565F53 		.ascii	"LV_SIGNAL_STYLE_CHG\000"
 19256      49474E41 
 19256      4C5F5354 
 19256      594C455F 
 19256      43484700 
 19257              	.LASF116:
 19258 00d4 6163745F 		.ascii	"act_scr\000"
 19258      73637200 
 19259              	.LASF41:
 19260 00dc 6C765F6F 		.ascii	"lv_opa_t\000"
 19260      70615F74 
 19260      00
 19261              	.LASF19:
 19262 00e5 696E7433 		.ascii	"int32_t\000"
 19262      325F7400 
 19263              	.LASF66:
 19264 00ed 696E7465 		.ascii	"intense\000"
 19264      6E736500 
 19265              	.LASF210:
 19266 00f5 4C565F45 		.ascii	"LV_EVENT_INSERT\000"
 19266      56454E54 
 19266      5F494E53 
 19266      45525400 
 19267              	.LASF367:
 19268 0105 696E5F77 		.ascii	"in_week_box\000"
 19268      65656B5F 
 19268      626F7800 
 19269              	.LASF44:
 19270 0111 6C765F70 		.ascii	"lv_point_t\000"
 19270      6F696E74 
 19270      5F7400
 19271              	.LASF320:
 19272 011c 6C6D6574 		.ascii	"lmeter\000"
 19272      657200
 19273              	.LASF229:
 19274 0123 4C565F53 		.ascii	"LV_SIGNAL_LONG_PRESS\000"
 19274      49474E41 
 19274      4C5F4C4F 
 19274      4E475F50 
 19274      52455353 
 19275              	.LASF58:
 19276 0138 72616469 		.ascii	"radius\000"
 19276      757300
ARM GAS  C:\Users\pearlstl\AppData\Local\Temp\ccHPSyCj.s 			page 372


 19277              	.LASF246:
 19278 013f 6C765F72 		.ascii	"lv_reailgn_t\000"
 19278      6561696C 
 19278      676E5F74 
 19278      00
 19279              	.LASF31:
 19280 014c 6C696E65 		.ascii	"line_height\000"
 19280      5F686569 
 19280      67687400 
 19281              	.LASF357:
 19282 0158 62696469 		.ascii	"bidi_dir\000"
 19282      5F646972 
 19282      00
 19283              	.LASF131:
 19284 0161 636C6963 		.ascii	"click\000"
 19284      6B00
 19285              	.LASF239:
 19286 0167 6C765F61 		.ascii	"lv_align_t\000"
 19286      6C69676E 
 19286      5F7400
 19287              	.LASF231:
 19288 0172 4C565F53 		.ascii	"LV_SIGNAL_DRAG_BEGIN\000"
 19288      49474E41 
 19288      4C5F4452 
 19288      41475F42 
 19288      4547494E 
 19289              	.LASF424:
 19290 0187 6C765F74 		.ascii	"lv_txt_get_width\000"
 19290      78745F67 
 19290      65745F77 
 19290      69647468 
 19290      00
 19291              	.LASF307:
 19292 0198 68696768 		.ascii	"highlighted_days\000"
 19292      6C696768 
 19292      7465645F 
 19292      64617973 
 19292      00
 19293              	.LASF447:
 19294 01a9 6C765F63 		.ascii	"lv_calendar_get_style\000"
 19294      616C656E 
 19294      6461725F 
 19294      6765745F 
 19294      7374796C 
 19295              	.LASF438:
 19296 01bf 6C765F6F 		.ascii	"lv_obj_set_signal_cb\000"
 19296      626A5F73 
 19296      65745F73 
 19296      69676E61 
 19296      6C5F6362 
 19297              	.LASF386:
 19298 01d4 7369676E 		.ascii	"sign\000"
 19298      00
 19299              	.LASF378:
 19300 01d9 6765745F 		.ascii	"get_month_length\000"
 19300      6D6F6E74 
 19300      685F6C65 
ARM GAS  C:\Users\pearlstl\AppData\Local\Temp\ccHPSyCj.s 			page 373


 19300      6E677468 
 19300      00
 19301              	.LASF215:
 19302 01ea 6C765F65 		.ascii	"lv_event_t\000"
 19302      76656E74 
 19302      5F7400
 19303              	.LASF150:
 19304 01f5 73746174 		.ascii	"state\000"
 19304      6500
 19305              	.LASF289:
 19306 01fb 4C565F4B 		.ascii	"LV_KEY_ENTER\000"
 19306      45595F45 
 19306      4E544552 
 19306      00
 19307              	.LASF75:
 19308 0208 4C565F52 		.ascii	"LV_RES_INV\000"
 19308      45535F49 
 19308      4E5600
 19309              	.LASF225:
 19310 0213 4C565F53 		.ascii	"LV_SIGNAL_PRESSED\000"
 19310      49474E41 
 19310      4C5F5052 
 19310      45535345 
 19310      4400
 19311              	.LASF425:
 19312 0225 6C765F6F 		.ascii	"lv_obj_get_width\000"
 19312      626A5F67 
 19312      65745F77 
 19312      69647468 
 19312      00
 19313              	.LASF51:
 19314 0236 74797065 		.ascii	"type\000"
 19314      00
 19315              	.LASF199:
 19316 023b 4C565F45 		.ascii	"LV_EVENT_LONG_PRESSED\000"
 19316      56454E54 
 19316      5F4C4F4E 
 19316      475F5052 
 19316      45535345 
 19317              	.LASF249:
 19318 0251 79656172 		.ascii	"year\000"
 19318      00
 19319              	.LASF373:
 19320 0256 64726177 		.ascii	"draw_header\000"
 19320      5F686561 
 19320      64657200 
 19321              	.LASF366:
 19322 0262 6D6F6E74 		.ascii	"month_of_today_shown\000"
 19322      685F6F66 
 19322      5F746F64 
 19322      61795F73 
 19322      686F776E 
 19323              	.LASF298:
 19324 0277 6C696768 		.ascii	"light\000"
 19324      7400
 19325              	.LASF152:
 19326 027d 5F6C765F 		.ascii	"_lv_indev_drv_t\000"
ARM GAS  C:\Users\pearlstl\AppData\Local\Temp\ccHPSyCj.s 			page 374


 19326      696E6465 
 19326      765F6472 
 19326      765F7400 
 19327              	.LASF316:
 19328 028d 636F6E74 		.ascii	"cont\000"
 19328      00
 19329              	.LASF442:
 19330 0292 474E5520 		.ascii	"GNU C11 5.4.1 20160609 (release) [ARM/embedded-5-br"
 19330      43313120 
 19330      352E342E 
 19330      31203230 
 19330      31363036 
 19331 02c5 616E6368 		.ascii	"anch revision 237715] -mcpu=cortex-m4 -mfloat-abi=s"
 19331      20726576 
 19331      6973696F 
 19331      6E203233 
 19331      37373135 
 19332 02f8 6F667466 		.ascii	"oftfp -mfpu=fpv4-sp-d16 -mthumb -g -O3 -ffunction-s"
 19332      70202D6D 
 19332      6670753D 
 19332      66707634 
 19332      2D73702D 
 19333 032b 65637469 		.ascii	"ections -ffat-lto-objects\000"
 19333      6F6E7320 
 19333      2D666661 
 19333      742D6C74 
 19333      6F2D6F62 
 19334              	.LASF271:
 19335 0345 4C565F43 		.ascii	"LV_CALENDAR_STYLE_DAY_NAMES\000"
 19335      414C454E 
 19335      4441525F 
 19335      5354594C 
 19335      455F4441 
 19336              	.LASF91:
 19337 0361 7072696F 		.ascii	"prio\000"
 19337      00
 19338              	.LASF115:
 19339 0366 7363725F 		.ascii	"scr_ll\000"
 19339      6C6C00
 19340              	.LASF147:
 19341 036d 706F696E 		.ascii	"point\000"
 19341      7400
 19342              	.LASF4:
 19343 0373 5F5F7569 		.ascii	"__uint8_t\000"
 19343      6E74385F 
 19343      7400
 19344              	.LASF37:
 19345 037d 616C7068 		.ascii	"alpha\000"
 19345      6100
 19346              	.LASF103:
 19347 0383 7665725F 		.ascii	"ver_res\000"
 19347      72657300 
 19348              	.LASF184:
 19349 038b 5F6C765F 		.ascii	"_lv_indev_t\000"
 19349      696E6465 
 19349      765F7400 
 19350              	.LASF430:
ARM GAS  C:\Users\pearlstl\AppData\Local\Temp\ccHPSyCj.s 			page 375


 19351 0397 6C765F65 		.ascii	"lv_event_send\000"
 19351      76656E74 
 19351      5F73656E 
 19351      6400
 19352              	.LASF135:
 19353 03a5 68696464 		.ascii	"hidden\000"
 19353      656E00
 19354              	.LASF122:
 19355 03ac 6C617374 		.ascii	"last_activity_time\000"
 19355      5F616374 
 19355      69766974 
 19355      795F7469 
 19355      6D6500
 19356              	.LASF11:
 19357 03bf 6C6F6E67 		.ascii	"long int\000"
 19357      20696E74 
 19357      00
 19358              	.LASF114:
 19359 03c8 72656672 		.ascii	"refr_task\000"
 19359      5F746173 
 19359      6B00
 19360              	.LASF105:
 19361 03d2 726F7461 		.ascii	"rotated\000"
 19361      74656400 
 19362              	.LASF171:
 19363 03da 6C617374 		.ascii	"last_state\000"
 19363      5F737461 
 19363      746500
 19364              	.LASF263:
 19365 03e5 7374796C 		.ascii	"style_highlighted_days\000"
 19365      655F6869 
 19365      67686C69 
 19365      67687465 
 19365      645F6461 
 19366              	.LASF368:
 19367 03fc 7765656B 		.ascii	"week_box_area\000"
 19367      5F626F78 
 19367      5F617265 
 19367      6100
 19368              	.LASF333:
 19369 040a 74696C65 		.ascii	"tileview\000"
 19369      76696577 
 19369      00
 19370              	.LASF287:
 19371 0413 4C565F4B 		.ascii	"LV_KEY_DEL\000"
 19371      45595F44 
 19371      454C00
 19372              	.LASF281:
 19373 041e 4C565F54 		.ascii	"LV_TXT_FLAG_RIGHT\000"
 19373      58545F46 
 19373      4C41475F 
 19373      52494748 
 19373      5400
 19374              	.LASF344:
 19375 0430 61726561 		.ascii	"area_p\000"
 19375      5F7000
 19376              	.LASF265:
ARM GAS  C:\Users\pearlstl\AppData\Local\Temp\ccHPSyCj.s 			page 376


 19377 0437 7374796C 		.ascii	"style_week_box\000"
 19377      655F7765 
 19377      656B5F62 
 19377      6F7800
 19378              	.LASF80:
 19379 0446 68656164 		.ascii	"head\000"
 19379      00
 19380              	.LASF153:
 19381 044b 72656164 		.ascii	"read_cb\000"
 19381      5F636200 
 19382              	.LASF255:
 19383 0453 62746E5F 		.ascii	"btn_pressing\000"
 19383      70726573 
 19383      73696E67 
 19383      00
 19384              	.LASF429:
 19385 0460 6C765F69 		.ascii	"lv_indev_get_point\000"
 19385      6E646576 
 19385      5F676574 
 19385      5F706F69 
 19385      6E7400
 19386              	.LASF323:
 19387 0473 63686172 		.ascii	"chart\000"
 19387      7400
 19388              	.LASF259:
 19389 0479 6D6F6E74 		.ascii	"month_names\000"
 19389      685F6E61 
 19389      6D657300 
 19390              	.LASF168:
 19391 0485 6C617374 		.ascii	"last_pressed\000"
 19391      5F707265 
 19391      73736564 
 19391      00
 19392              	.LASF325:
 19393 0492 62746E6D 		.ascii	"btnm\000"
 19393      00
 19394              	.LASF278:
 19395 0497 4C565F54 		.ascii	"LV_TXT_FLAG_RECOLOR\000"
 19395      58545F46 
 19395      4C41475F 
 19395      5245434F 
 19395      4C4F5200 
 19396              	.LASF347:
 19397 04ab 6765745F 		.ascii	"get_day_name\000"
 19397      6461795F 
 19397      6E616D65 
 19397      00
 19398              	.LASF285:
 19399 04b8 4C565F4B 		.ascii	"LV_KEY_LEFT\000"
 19399      45595F4C 
 19399      45465400 
 19400              	.LASF108:
 19401 04c4 7365745F 		.ascii	"set_px_cb\000"
 19401      70785F63 
 19401      6200
 19402              	.LASF2:
 19403 04ce 7369676E 		.ascii	"signed char\000"
ARM GAS  C:\Users\pearlstl\AppData\Local\Temp\ccHPSyCj.s 			page 377


 19403      65642063 
 19403      68617200 
 19404              	.LASF16:
 19405 04da 75696E74 		.ascii	"uint8_t\000"
 19405      385F7400 
 19406              	.LASF102:
 19407 04e2 686F725F 		.ascii	"hor_res\000"
 19407      72657300 
 19408              	.LASF338:
 19409 04ea 4441595F 		.ascii	"DAY_DRAW_ACT_MONTH\000"
 19409      44524157 
 19409      5F414354 
 19409      5F4D4F4E 
 19409      544800
 19410              	.LASF310:
 19411 04fd 746F6461 		.ascii	"today_box\000"
 19411      795F626F 
 19411      7800
 19412              	.LASF295:
 19413 0507 74676C5F 		.ascii	"tgl_pr\000"
 19413      707200
 19414              	.LASF361:
 19415 050e 7765656B 		.ascii	"week\000"
 19415      00
 19416              	.LASF30:
 19417 0513 6765745F 		.ascii	"get_glyph_bitmap\000"
 19417      676C7970 
 19417      685F6269 
 19417      746D6170 
 19417      00
 19418              	.LASF311:
 19419 0524 7363726C 		.ascii	"scrl\000"
 19419      00
 19420              	.LASF35:
 19421 0529 626C7565 		.ascii	"blue\000"
 19421      00
 19422              	.LASF403:
 19423 052e 6C765F63 		.ascii	"lv_calendar_get_pressed_date\000"
 19423      616C656E 
 19423      6461725F 
 19423      6765745F 
 19423      70726573 
 19424              	.LASF230:
 19425 054b 4C565F53 		.ascii	"LV_SIGNAL_LONG_PRESS_REP\000"
 19425      49474E41 
 19425      4C5F4C4F 
 19425      4E475F50 
 19425      52455353 
 19426              	.LASF266:
 19427 0564 7374796C 		.ascii	"style_today_box\000"
 19427      655F746F 
 19427      6461795F 
 19427      626F7800 
 19428              	.LASF296:
 19429 0574 7072696D 		.ascii	"prim\000"
 19429      00
 19430              	.LASF5:
ARM GAS  C:\Users\pearlstl\AppData\Local\Temp\ccHPSyCj.s 			page 378


 19431 0579 756E7369 		.ascii	"unsigned char\000"
 19431      676E6564 
 19431      20636861 
 19431      7200
 19432              	.LASF117:
 19433 0587 746F705F 		.ascii	"top_layer\000"
 19433      6C617965 
 19433      7200
 19434              	.LASF267:
 19435 0591 6C765F63 		.ascii	"lv_calendar_ext_t\000"
 19435      616C656E 
 19435      6461725F 
 19435      6578745F 
 19435      7400
 19436              	.LASF417:
 19437 05a3 6C765F6F 		.ascii	"lv_obj_get_style\000"
 19437      626A5F67 
 19437      65745F73 
 19437      74796C65 
 19437      00
 19438              	.LASF223:
 19439 05b4 4C565F53 		.ascii	"LV_SIGNAL_REFR_EXT_DRAW_PAD\000"
 19439      49474E41 
 19439      4C5F5245 
 19439      46525F45 
 19439      58545F44 
 19440              	.LASF138:
 19441 05d0 64726167 		.ascii	"drag_dir\000"
 19441      5F646972 
 19441      00
 19442              	.LASF89:
 19443 05d9 7461736B 		.ascii	"task_cb\000"
 19443      5F636200 
 19444              	.LASF304:
 19445 05e1 6B6E6F62 		.ascii	"knob_on\000"
 19445      5F6F6E00 
 19446              	.LASF26:
 19447 05e9 6F66735F 		.ascii	"ofs_x\000"
 19447      7800
 19448              	.LASF27:
 19449 05ef 6F66735F 		.ascii	"ofs_y\000"
 19449      7900
 19450              	.LASF288:
 19451 05f5 4C565F4B 		.ascii	"LV_KEY_BACKSPACE\000"
 19451      45595F42 
 19451      41434B53 
 19451      50414345 
 19451      00
 19452              	.LASF305:
 19453 0606 68656164 		.ascii	"header\000"
 19453      657200
 19454              	.LASF437:
 19455 060d 6C765F6F 		.ascii	"lv_obj_allocate_ext_attr\000"
 19455      626A5F61 
 19455      6C6C6F63 
 19455      6174655F 
 19455      6578745F 
ARM GAS  C:\Users\pearlstl\AppData\Local\Temp\ccHPSyCj.s 			page 379


 19456              	.LASF33:
 19457 0626 5F426F6F 		.ascii	"_Bool\000"
 19457      6C00
 19458              	.LASF238:
 19459 062c 6C765F73 		.ascii	"lv_signal_cb_t\000"
 19459      69676E61 
 19459      6C5F6362 
 19459      5F7400
 19460              	.LASF334:
 19461 063b 7461626C 		.ascii	"table\000"
 19461      6500
 19462              	.LASF120:
 19463 0641 696E765F 		.ascii	"inv_area_joined\000"
 19463      61726561 
 19463      5F6A6F69 
 19463      6E656400 
 19464              	.LASF43:
 19465 0651 63686172 		.ascii	"char\000"
 19465      00
 19466              	.LASF148:
 19467 0656 62746E5F 		.ascii	"btn_id\000"
 19467      696400
 19468              	.LASF355:
 19469 065d 6C765F61 		.ascii	"lv_area_copy\000"
 19469      7265615F 
 19469      636F7079 
 19469      00
 19470              	.LASF191:
 19471 066a 4C565F44 		.ascii	"LV_DESIGN_DRAW_POST\000"
 19471      45534947 
 19471      4E5F4452 
 19471      41575F50 
 19471      4F535400 
 19472              	.LASF70:
 19473 067e 626F6479 		.ascii	"body\000"
 19473      00
 19474              	.LASF165:
 19475 0683 64726167 		.ascii	"drag_throw_vect\000"
 19475      5F746872 
 19475      6F775F76 
 19475      65637400 
 19476              	.LASF379:
 19477 0693 69735F68 		.ascii	"is_highlighted\000"
 19477      6967686C 
 19477      69676874 
 19477      656400
 19478              	.LASF86:
 19479 06a2 5F6C765F 		.ascii	"_lv_task_t\000"
 19479      7461736B 
 19479      5F7400
 19480              	.LASF8:
 19481 06ad 5F5F7569 		.ascii	"__uint16_t\000"
 19481      6E743136 
 19481      5F7400
 19482              	.LASF309:
 19483 06b8 7765656B 		.ascii	"week_box\000"
 19483      5F626F78 
ARM GAS  C:\Users\pearlstl\AppData\Local\Temp\ccHPSyCj.s 			page 380


 19483      00
 19484              	.LASF416:
 19485 06c1 6C765F6F 		.ascii	"lv_obj_get_ext_attr\000"
 19485      626A5F67 
 19485      65745F65 
 19485      78745F61 
 19485      74747200 
 19486              	.LASF192:
 19487 06d5 4C565F44 		.ascii	"LV_DESIGN_COVER_CHK\000"
 19487      45534947 
 19487      4E5F434F 
 19487      5645525F 
 19487      43484B00 
 19488              	.LASF185:
 19489 06e9 70726F63 		.ascii	"proc\000"
 19489      00
 19490              	.LASF436:
 19491 06ee 6C765F6F 		.ascii	"lv_obj_create\000"
 19491      626A5F63 
 19491      72656174 
 19491      6500
 19492              	.LASF362:
 19493 06fc 6461795F 		.ascii	"day_cnt\000"
 19493      636E7400 
 19494              	.LASF128:
 19495 0704 64657369 		.ascii	"design_cb\000"
 19495      676E5F63 
 19495      6200
 19496              	.LASF277:
 19497 070e 4C565F54 		.ascii	"LV_TXT_FLAG_NONE\000"
 19497      58545F46 
 19497      4C41475F 
 19497      4E4F4E45 
 19497      00
 19498              	.LASF412:
 19499 071f 6C765F73 		.ascii	"lv_style_plain_color\000"
 19499      74796C65 
 19499      5F706C61 
 19499      696E5F63 
 19499      6F6C6F72 
 19500              	.LASF99:
 19501 0734 666C7573 		.ascii	"flushing\000"
 19501      68696E67 
 19501      00
 19502              	.LASF234:
 19503 073d 4C565F53 		.ascii	"LV_SIGNAL_DEFOCUS\000"
 19503      49474E41 
 19503      4C5F4445 
 19503      464F4355 
 19503      5300
 19504              	.LASF370:
 19505 074f 746F6461 		.ascii	"today_box_area\000"
 19505      795F626F 
 19505      785F6172 
 19505      656100
 19506              	.LASF207:
 19507 075e 4C565F45 		.ascii	"LV_EVENT_FOCUSED\000"
ARM GAS  C:\Users\pearlstl\AppData\Local\Temp\ccHPSyCj.s 			page 381


 19507      56454E54 
 19507      5F464F43 
 19507      55534544 
 19507      00
 19508              	.LASF330:
 19509 076f 64646C69 		.ascii	"ddlist\000"
 19509      737400
 19510              	.LASF71:
 19511 0776 74657874 		.ascii	"text\000"
 19511      00
 19512              	.LASF380:
 19513 077b 63616C63 		.ascii	"calculate_touched_day\000"
 19513      756C6174 
 19513      655F746F 
 19513      75636865 
 19513      645F6461 
 19514              	.LASF173:
 19515 0791 706F696E 		.ascii	"pointer\000"
 19515      74657200 
 19516              	.LASF427:
 19517 0799 6C765F61 		.ascii	"lv_area_is_point_on\000"
 19517      7265615F 
 19517      69735F70 
 19517      6F696E74 
 19517      5F6F6E00 
 19518              	.LASF203:
 19519 07ad 4C565F45 		.ascii	"LV_EVENT_DRAG_BEGIN\000"
 19519      56454E54 
 19519      5F445241 
 19519      475F4245 
 19519      47494E00 
 19520              	.LASF72:
 19521 07c1 696D6167 		.ascii	"image\000"
 19521      6500
 19522              	.LASF359:
 19523 07c7 6C616265 		.ascii	"label_area\000"
 19523      6C5F6172 
 19523      656100
 19524              	.LASF68:
 19525 07d2 726F756E 		.ascii	"rounded\000"
 19525      64656400 
 19526              	.LASF133:
 19527 07da 64726167 		.ascii	"drag_throw\000"
 19527      5F746872 
 19527      6F7700
 19528              	.LASF428:
 19529 07e5 6C765F69 		.ascii	"lv_indev_get_act\000"
 19529      6E646576 
 19529      5F676574 
 19529      5F616374 
 19529      00
 19530              	.LASF146:
 19531 07f6 6C765F69 		.ascii	"lv_indev_state_t\000"
 19531      6E646576 
 19531      5F737461 
 19531      74655F74 
 19531      00
ARM GAS  C:\Users\pearlstl\AppData\Local\Temp\ccHPSyCj.s 			page 382


 19532              	.LASF83:
 19533 0807 6C765F62 		.ascii	"lv_bidi_dir_t\000"
 19533      6964695F 
 19533      6469725F 
 19533      7400
 19534              	.LASF143:
 19535 0815 6578745F 		.ascii	"ext_draw_pad\000"
 19535      64726177 
 19535      5F706164 
 19535      00
 19536              	.LASF159:
 19537 0822 6C6F6E67 		.ascii	"long_press_rep_time\000"
 19537      5F707265 
 19537      73735F72 
 19537      65705F74 
 19537      696D6500 
 19538              	.LASF45:
 19539 0836 6C765F61 		.ascii	"lv_area_t\000"
 19539      7265615F 
 19539      7400
 19540              	.LASF104:
 19541 0840 62756666 		.ascii	"buffer\000"
 19541      657200
 19542              	.LASF423:
 19543 0847 6C765F64 		.ascii	"lv_draw_label\000"
 19543      7261775F 
 19543      6C616265 
 19543      6C00
 19544              	.LASF201:
 19545 0855 4C565F45 		.ascii	"LV_EVENT_CLICKED\000"
 19545      56454E54 
 19545      5F434C49 
 19545      434B4544 
 19545      00
 19546              	.LASF340:
 19547 0866 6461795F 		.ascii	"day_draw_state_t\000"
 19547      64726177 
 19547      5F737461 
 19547      74655F74 
 19547      00
 19548              	.LASF280:
 19549 0877 4C565F54 		.ascii	"LV_TXT_FLAG_CENTER\000"
 19549      58545F46 
 19549      4C41475F 
 19549      43454E54 
 19549      455200
 19550              	.LASF53:
 19551 088a 6C656674 		.ascii	"left\000"
 19551      00
 19552              	.LASF336:
 19553 088f 6C765F74 		.ascii	"lv_theme_t\000"
 19553      68656D65 
 19553      5F7400
 19554              	.LASF212:
 19555 089a 4C565F45 		.ascii	"LV_EVENT_APPLY\000"
 19555      56454E54 
 19555      5F415050 
ARM GAS  C:\Users\pearlstl\AppData\Local\Temp\ccHPSyCj.s 			page 383


 19555      4C5900
 19556              	.LASF144:
 19557 08a9 7265616C 		.ascii	"realign\000"
 19557      69676E00 
 19558              	.LASF252:
 19559 08b1 746F6461 		.ascii	"today\000"
 19559      7900
 19560              	.LASF205:
 19561 08b7 4C565F45 		.ascii	"LV_EVENT_DRAG_THROW_BEGIN\000"
 19561      56454E54 
 19561      5F445241 
 19561      475F5448 
 19561      524F575F 
 19562              	.LASF189:
 19563 08d1 6C765F69 		.ascii	"lv_indev_t\000"
 19563      6E646576 
 19563      5F7400
 19564              	.LASF188:
 19565 08dc 62746E5F 		.ascii	"btn_points\000"
 19565      706F696E 
 19565      747300
 19566              	.LASF337:
 19567 08e7 4441595F 		.ascii	"DAY_DRAW_PREV_MONTH\000"
 19567      44524157 
 19567      5F505245 
 19567      565F4D4F 
 19567      4E544800 
 19568              	.LASF224:
 19569 08fb 4C565F53 		.ascii	"LV_SIGNAL_GET_TYPE\000"
 19569      49474E41 
 19569      4C5F4745 
 19569      545F5459 
 19569      504500
 19570              	.LASF182:
 19571 090e 77616974 		.ascii	"wait_until_release\000"
 19571      5F756E74 
 19571      696C5F72 
 19571      656C6561 
 19571      736500
 19572              	.LASF405:
 19573 0921 6C765F63 		.ascii	"lv_calendar_get_highlighted_dates_num\000"
 19573      616C656E 
 19573      6461725F 
 19573      6765745F 
 19573      68696768 
 19574              	.LASF98:
 19575 0947 61726561 		.ascii	"area\000"
 19575      00
 19576              	.LASF376:
 19577 094c 6172726F 		.ascii	"arrow_style\000"
 19577      775F7374 
 19577      796C6500 
 19578              	.LASF172:
 19579 0958 6C617374 		.ascii	"last_key\000"
 19579      5F6B6579 
 19579      00
 19580              	.LASF384:
ARM GAS  C:\Users\pearlstl\AppData\Local\Temp\ccHPSyCj.s 			page 384


 19581 0961 795F706F 		.ascii	"y_pos\000"
 19581      7300
 19582              	.LASF74:
 19583 0967 6C765F73 		.ascii	"lv_style_t\000"
 19583      74796C65 
 19583      5F7400
 19584              	.LASF55:
 19585 0972 696E6E65 		.ascii	"inner\000"
 19585      7200
 19586              	.LASF181:
 19587 0978 64697361 		.ascii	"disabled\000"
 19587      626C6564 
 19587      00
 19588              	.LASF273:
 19589 0981 4C565F43 		.ascii	"LV_CALENDAR_STYLE_INACTIVE_DAYS\000"
 19589      414C454E 
 19589      4441525F 
 19589      5354594C 
 19589      455F494E 
 19590              	.LASF13:
 19591 09a1 6C6F6E67 		.ascii	"long unsigned int\000"
 19591      20756E73 
 19591      69676E65 
 19591      6420696E 
 19591      7400
 19592              	.LASF292:
 19593 09b3 4C565F4B 		.ascii	"LV_KEY_HOME\000"
 19593      45595F48 
 19593      4F4D4500 
 19594              	.LASF422:
 19595 09bf 73747263 		.ascii	"strcpy\000"
 19595      707900
 19596              	.LASF297:
 19597 09c6 68696E74 		.ascii	"hint\000"
 19597      00
 19598              	.LASF406:
 19599 09cb 6C765F63 		.ascii	"lv_calendar_get_day_names\000"
 19599      616C656E 
 19599      6461725F 
 19599      6765745F 
 19599      6461795F 
 19600              	.LASF387:
 19601 09e5 70617261 		.ascii	"param\000"
 19601      6D00
 19602              	.LASF394:
 19603 09eb 73686F77 		.ascii	"showed\000"
 19603      656400
 19604              	.LASF73:
 19605 09f2 6C696E65 		.ascii	"line\000"
 19605      00
 19606              	.LASF364:
 19607 09f7 64726177 		.ascii	"draw_state\000"
 19607      5F737461 
 19607      746500
 19608              	.LASF418:
 19609 0a02 6C765F6F 		.ascii	"lv_obj_get_base_dir\000"
 19609      626A5F67 
ARM GAS  C:\Users\pearlstl\AppData\Local\Temp\ccHPSyCj.s 			page 385


 19609      65745F62 
 19609      6173655F 
 19609      64697200 
 19610              	.LASF233:
 19611 0a16 4C565F53 		.ascii	"LV_SIGNAL_FOCUS\000"
 19611      49474E41 
 19611      4C5F464F 
 19611      43555300 
 19612              	.LASF410:
 19613 0a26 6461795F 		.ascii	"day_name\000"
 19613      6E616D65 
 19613      00
 19614              	.LASF319:
 19615 0a2f 736C6964 		.ascii	"slider\000"
 19615      657200
 19616              	.LASF279:
 19617 0a36 4C565F54 		.ascii	"LV_TXT_FLAG_EXPAND\000"
 19617      58545F46 
 19617      4C41475F 
 19617      45585041 
 19617      4E4400
 19618              	.LASF211:
 19619 0a49 4C565F45 		.ascii	"LV_EVENT_REFRESH\000"
 19619      56454E54 
 19619      5F524546 
 19619      52455348 
 19619      00
 19620              	.LASF264:
 19621 0a5a 7374796C 		.ascii	"style_inactive_days\000"
 19621      655F696E 
 19621      61637469 
 19621      76655F64 
 19621      61797300 
 19622              	.LASF396:
 19623 0a6e 68696768 		.ascii	"highlighted\000"
 19623      6C696768 
 19623      74656400 
 19624              	.LASF101:
 19625 0a7a 5F646973 		.ascii	"_disp_drv_t\000"
 19625      705F6472 
 19625      765F7400 
 19626              	.LASF187:
 19627 0a86 67726F75 		.ascii	"group\000"
 19627      7000
 19628              	.LASF389:
 19629 0a8c 636F7079 		.ascii	"copy\000"
 19629      00
 19630              	.LASF161:
 19631 0a91 6163745F 		.ascii	"act_point\000"
 19631      706F696E 
 19631      7400
 19632              	.LASF167:
 19633 0a9b 6C617374 		.ascii	"last_obj\000"
 19633      5F6F626A 
 19633      00
 19634              	.LASF145:
 19635 0aa4 6C765F69 		.ascii	"lv_indev_type_t\000"
ARM GAS  C:\Users\pearlstl\AppData\Local\Temp\ccHPSyCj.s 			page 386


 19635      6E646576 
 19635      5F747970 
 19635      655F7400 
 19636              	.LASF253:
 19637 0ab4 73686F77 		.ascii	"showed_date\000"
 19637      65645F64 
 19637      61746500 
 19638              	.LASF236:
 19639 0ac0 4C565F53 		.ascii	"LV_SIGNAL_GET_EDITABLE\000"
 19639      49474E41 
 19639      4C5F4745 
 19639      545F4544 
 19639      49544142 
 19640              	.LASF439:
 19641 0ad7 6C765F6F 		.ascii	"lv_obj_set_design_cb\000"
 19641      626A5F73 
 19641      65745F64 
 19641      65736967 
 19641      6E5F6362 
 19642              	.LASF312:
 19643 0aec 6F6E656C 		.ascii	"oneline\000"
 19643      696E6500 
 19644              	.LASF345:
 19645 0af4 69735F6C 		.ascii	"is_leap_year\000"
 19645      6561705F 
 19645      79656172 
 19645      00
 19646              	.LASF100:
 19647 0b01 6C765F64 		.ascii	"lv_disp_buf_t\000"
 19647      6973705F 
 19647      6275665F 
 19647      7400
 19648              	.LASF12:
 19649 0b0f 5F5F7569 		.ascii	"__uint32_t\000"
 19649      6E743332 
 19649      5F7400
 19650              	.LASF126:
 19651 0b1a 6576656E 		.ascii	"event_cb\000"
 19651      745F6362 
 19651      00
 19652              	.LASF54:
 19653 0b23 72696768 		.ascii	"right\000"
 19653      7400
 19654              	.LASF130:
 19655 0b29 7374796C 		.ascii	"style_p\000"
 19655      655F7000 
 19656              	.LASF14:
 19657 0b31 6C6F6E67 		.ascii	"long long int\000"
 19657      206C6F6E 
 19657      6720696E 
 19657      7400
 19658              	.LASF256:
 19659 0b3f 68696768 		.ascii	"highlighted_dates_num\000"
 19659      6C696768 
 19659      7465645F 
 19659      64617465 
 19659      735F6E75 
ARM GAS  C:\Users\pearlstl\AppData\Local\Temp\ccHPSyCj.s 			page 387


 19660              	.LASF399:
 19661 0b55 6C765F63 		.ascii	"lv_calendar_set_month_names\000"
 19661      616C656E 
 19661      6461725F 
 19661      7365745F 
 19661      6D6F6E74 
 19662              	.LASF49:
 19663 0b71 77696474 		.ascii	"width\000"
 19663      6800
 19664              	.LASF235:
 19665 0b77 4C565F53 		.ascii	"LV_SIGNAL_CONTROL\000"
 19665      49474E41 
 19665      4C5F434F 
 19665      4E54524F 
 19665      4C00
 19666              	.LASF52:
 19667 0b89 626F7474 		.ascii	"bottom\000"
 19667      6F6D00
 19668              	.LASF124:
 19669 0b90 6368696C 		.ascii	"child_ll\000"
 19669      645F6C6C 
 19669      00
 19670              	.LASF301:
 19671 0b99 696E6469 		.ascii	"indic\000"
 19671      6300
 19672              	.LASF141:
 19673 0b9f 70726F74 		.ascii	"protect\000"
 19673      65637400 
 19674              	.LASF94:
 19675 0ba7 62756631 		.ascii	"buf1\000"
 19675      00
 19676              	.LASF95:
 19677 0bac 62756632 		.ascii	"buf2\000"
 19677      00
 19678              	.LASF162:
 19679 0bb1 6C617374 		.ascii	"last_point\000"
 19679      5F706F69 
 19679      6E7400
 19680              	.LASF166:
 19681 0bbc 6163745F 		.ascii	"act_obj\000"
 19681      6F626A00 
 19682              	.LASF352:
 19683 0bc4 6D61736B 		.ascii	"mask\000"
 19683      00
 19684              	.LASF332:
 19685 0bc9 74616276 		.ascii	"tabview\000"
 19685      69657700 
 19686              	.LASF137:
 19687 0bd1 70617265 		.ascii	"parent_event\000"
 19687      6E745F65 
 19687      76656E74 
 19687      00
 19688              	.LASF217:
 19689 0bde 4C565F53 		.ascii	"LV_SIGNAL_CLEANUP\000"
 19689      49474E41 
 19689      4C5F434C 
 19689      45414E55 
ARM GAS  C:\Users\pearlstl\AppData\Local\Temp\ccHPSyCj.s 			page 388


 19689      5000
 19690              	.LASF402:
 19691 0bf0 6C765F63 		.ascii	"lv_calendar_get_showed_date\000"
 19691      616C656E 
 19691      6461725F 
 19691      6765745F 
 19691      73686F77 
 19692              	.LASF243:
 19693 0c0c 616C6967 		.ascii	"align\000"
 19693      6E00
 19694              	.LASF69:
 19695 0c12 676C6173 		.ascii	"glass\000"
 19695      7300
 19696              	.LASF411:
 19697 0c18 6D6F6E74 		.ascii	"month_name\000"
 19697      685F6E61 
 19697      6D6500
 19698              	.LASF214:
 19699 0c23 4C565F45 		.ascii	"LV_EVENT_DELETE\000"
 19699      56454E54 
 19699      5F44454C 
 19699      45544500 
 19700              	.LASF383:
 19701 0c33 785F706F 		.ascii	"x_pos\000"
 19701      7300
 19702              	.LASF448:
 19703 0c39 6C765F63 		.ascii	"lv_calendar_signal\000"
 19703      616C656E 
 19703      6461725F 
 19703      7369676E 
 19703      616C00
 19704              	.LASF1:
 19705 0c4c 756E7369 		.ascii	"unsigned int\000"
 19705      676E6564 
 19705      20696E74 
 19705      00
 19706              	.LASF385:
 19707 0c59 695F706F 		.ascii	"i_pos\000"
 19707      7300
 19708              	.LASF218:
 19709 0c5f 4C565F53 		.ascii	"LV_SIGNAL_CHILD_CHG\000"
 19709      49474E41 
 19709      4C5F4348 
 19709      494C445F 
 19709      43484700 
 19710              	.LASF155:
 19711 0c73 64697370 		.ascii	"disp\000"
 19711      00
 19712              	.LASF432:
 19713 0c78 6C765F6F 		.ascii	"lv_obj_refresh_style\000"
 19713      626A5F72 
 19713      65667265 
 19713      73685F73 
 19713      74796C65 
 19714              	.LASF326:
 19715 0c8d 6D626F78 		.ascii	"mbox\000"
 19715      00
ARM GAS  C:\Users\pearlstl\AppData\Local\Temp\ccHPSyCj.s 			page 389


 19716              	.LASF149:
 19717 0c92 656E635F 		.ascii	"enc_diff\000"
 19717      64696666 
 19717      00
 19718              	.LASF294:
 19719 0c9b 74676C5F 		.ascii	"tgl_rel\000"
 19719      72656C00 
 19720              	.LASF351:
 19721 0ca3 6C765F63 		.ascii	"lv_calendar_design\000"
 19721      616C656E 
 19721      6461725F 
 19721      64657369 
 19721      676E00
 19722              	.LASF369:
 19723 0cb6 66696E61 		.ascii	"final_style\000"
 19723      6C5F7374 
 19723      796C6500 
 19724              	.LASF358:
 19725 0cc2 7374796C 		.ascii	"style_bg\000"
 19725      655F6267 
 19725      00
 19726              	.LASF209:
 19727 0ccb 4C565F45 		.ascii	"LV_EVENT_VALUE_CHANGED\000"
 19727      56454E54 
 19727      5F56414C 
 19727      55455F43 
 19727      48414E47 
 19728              	.LASF119:
 19729 0ce2 696E765F 		.ascii	"inv_areas\000"
 19729      61726561 
 19729      7300
 19730              	.LASF244:
 19731 0cec 6175746F 		.ascii	"auto_realign\000"
 19731      5F726561 
 19731      6C69676E 
 19731      00
 19732              	.LASF92:
 19733 0cf9 6F6E6365 		.ascii	"once\000"
 19733      00
 19734              	.LASF190:
 19735 0cfe 4C565F44 		.ascii	"LV_DESIGN_DRAW_MAIN\000"
 19735      45534947 
 19735      4E5F4452 
 19735      41575F4D 
 19735      41494E00 
 19736              	.LASF28:
 19737 0d12 6C765F66 		.ascii	"lv_font_glyph_dsc_t\000"
 19737      6F6E745F 
 19737      676C7970 
 19737      685F6473 
 19737      635F7400 
 19738              	.LASF329:
 19739 0d26 6C697374 		.ascii	"list\000"
 19739      00
 19740              	.LASF346:
 19741 0d2b 6765745F 		.ascii	"get_header_height\000"
 19741      68656164 
ARM GAS  C:\Users\pearlstl\AppData\Local\Temp\ccHPSyCj.s 			page 390


 19741      65725F68 
 19741      65696768 
 19741      7400
 19742              	.LASF57:
 19743 0d3d 67726164 		.ascii	"grad_color\000"
 19743      5F636F6C 
 19743      6F7200
 19744              	.LASF196:
 19745 0d48 4C565F45 		.ascii	"LV_EVENT_PRESSING\000"
 19745      56454E54 
 19745      5F505245 
 19745      5353494E 
 19745      4700
 19746              	.LASF327:
 19747 0d5a 70616765 		.ascii	"page\000"
 19747      00
 19748              	.LASF381:
 19749 0d5f 746F7563 		.ascii	"touched_point\000"
 19749      6865645F 
 19749      706F696E 
 19749      7400
 19750              	.LASF112:
 19751 0d6d 5F646973 		.ascii	"_disp_t\000"
 19751      705F7400 
 19752              	.LASF303:
 19753 0d75 6B6E6F62 		.ascii	"knob_off\000"
 19753      5F6F6666 
 19753      00
 19754              	.LASF321:
 19755 0d7e 67617567 		.ascii	"gauge\000"
 19755      6500
 19756              	.LASF339:
 19757 0d84 4441595F 		.ascii	"DAY_DRAW_NEXT_MONTH\000"
 19757      44524157 
 19757      5F4E4558 
 19757      545F4D4F 
 19757      4E544800 
 19758              	.LASF257:
 19759 0d98 70726573 		.ascii	"pressed_date\000"
 19759      7365645F 
 19759      64617465 
 19759      00
 19760              	.LASF290:
 19761 0da5 4C565F4B 		.ascii	"LV_KEY_NEXT\000"
 19761      45595F4E 
 19761      45585400 
 19762              	.LASF226:
 19763 0db1 4C565F53 		.ascii	"LV_SIGNAL_PRESSING\000"
 19763      49474E41 
 19763      4C5F5052 
 19763      45535349 
 19763      4E4700
 19764              	.LASF198:
 19765 0dc4 4C565F45 		.ascii	"LV_EVENT_SHORT_CLICKED\000"
 19765      56454E54 
 19765      5F53484F 
 19765      52545F43 
ARM GAS  C:\Users\pearlstl\AppData\Local\Temp\ccHPSyCj.s 			page 391


 19765      4C49434B 
 19766              	.LASF372:
 19767 0ddb 6C5F7061 		.ascii	"l_pad\000"
 19767      6400
 19768              	.LASF200:
 19769 0de1 4C565F45 		.ascii	"LV_EVENT_LONG_PRESSED_REPEAT\000"
 19769      56454E54 
 19769      5F4C4F4E 
 19769      475F5052 
 19769      45535345 
 19770              	.LASF274:
 19771 0dfe 4C565F43 		.ascii	"LV_CALENDAR_STYLE_WEEK_BOX\000"
 19771      414C454E 
 19771      4441525F 
 19771      5354594C 
 19771      455F5745 
 19772              	.LASF251:
 19773 0e19 6C765F63 		.ascii	"lv_calendar_date_t\000"
 19773      616C656E 
 19773      6461725F 
 19773      64617465 
 19773      5F7400
 19774              	.LASF392:
 19775 0e2c 6C765F63 		.ascii	"lv_calendar_set_today_date\000"
 19775      616C656E 
 19775      6461725F 
 19775      7365745F 
 19775      746F6461 
 19776              	.LASF77:
 19777 0e47 6C765F72 		.ascii	"lv_res_t\000"
 19777      65735F74 
 19777      00
 19778              	.LASF96:
 19779 0e50 6275665F 		.ascii	"buf_act\000"
 19779      61637400 
 19780              	.LASF22:
 19781 0e58 6C6F6E67 		.ascii	"long double\000"
 19781      20646F75 
 19781      626C6500 
 19782              	.LASF247:
 19783 0e64 6C765F64 		.ascii	"lv_drag_dir_t\000"
 19783      7261675F 
 19783      6469725F 
 19783      7400
 19784              	.LASF335:
 19785 0e72 7374796C 		.ascii	"style\000"
 19785      6500
 19786              	.LASF163:
 19787 0e78 76656374 		.ascii	"vect\000"
 19787      00
 19788              	.LASF129:
 19789 0e7d 6578745F 		.ascii	"ext_attr\000"
 19789      61747472 
 19789      00
 19790              	.LASF164:
 19791 0e86 64726167 		.ascii	"drag_sum\000"
 19791      5F73756D 
ARM GAS  C:\Users\pearlstl\AppData\Local\Temp\ccHPSyCj.s 			page 392


 19791      00
 19792              	.LASF375:
 19793 0e8f 7478745F 		.ascii	"txt_buf\000"
 19793      62756600 
 19794              	.LASF324:
 19795 0e97 63616C65 		.ascii	"calendar\000"
 19795      6E646172 
 19795      00
 19796              	.LASF177:
 19797 0ea0 70725F74 		.ascii	"pr_timestamp\000"
 19797      696D6573 
 19797      74616D70 
 19797      00
 19798              	.LASF193:
 19799 0ead 6C765F64 		.ascii	"lv_design_mode_t\000"
 19799      65736967 
 19799      6E5F6D6F 
 19799      64655F74 
 19799      00
 19800              	.LASF67:
 19801 0ebe 73756270 		.ascii	"subpx\000"
 19801      7800
 19802              	.LASF204:
 19803 0ec4 4C565F45 		.ascii	"LV_EVENT_DRAG_END\000"
 19803      56454E54 
 19803      5F445241 
 19803      475F454E 
 19803      4400
 19804              	.LASF156:
 19805 0ed6 72656164 		.ascii	"read_task\000"
 19805      5F746173 
 19805      6B00
 19806              	.LASF227:
 19807 0ee0 4C565F53 		.ascii	"LV_SIGNAL_PRESS_LOST\000"
 19807      49474E41 
 19807      4C5F5052 
 19807      4553535F 
 19807      4C4F5354 
 19808              	.LASF293:
 19809 0ef5 4C565F4B 		.ascii	"LV_KEY_END\000"
 19809      45595F45 
 19809      4E4400
 19810              	.LASF154:
 19811 0f00 66656564 		.ascii	"feedback_cb\000"
 19811      6261636B 
 19811      5F636200 
 19812              	.LASF232:
 19813 0f0c 4C565F53 		.ascii	"LV_SIGNAL_DRAG_END\000"
 19813      49474E41 
 19813      4C5F4452 
 19813      41475F45 
 19813      4E4400
 19814              	.LASF195:
 19815 0f1f 4C565F45 		.ascii	"LV_EVENT_PRESSED\000"
 19815      56454E54 
 19815      5F505245 
 19815      53534544 
ARM GAS  C:\Users\pearlstl\AppData\Local\Temp\ccHPSyCj.s 			page 393


 19815      00
 19816              	.LASF220:
 19817 0f30 4C565F53 		.ascii	"LV_SIGNAL_PARENT_SIZE_CHG\000"
 19817      49474E41 
 19817      4C5F5041 
 19817      52454E54 
 19817      5F53495A 
 19818              	.LASF213:
 19819 0f4a 4C565F45 		.ascii	"LV_EVENT_CANCEL\000"
 19819      56454E54 
 19819      5F43414E 
 19819      43454C00 
 19820              	.LASF420:
 19821 0f5a 6C765F64 		.ascii	"lv_draw_rect\000"
 19821      7261775F 
 19821      72656374 
 19821      00
 19822              	.LASF228:
 19823 0f67 4C565F53 		.ascii	"LV_SIGNAL_RELEASED\000"
 19823      49474E41 
 19823      4C5F5245 
 19823      4C454153 
 19823      454400
 19824              	.LASF365:
 19825 0f7a 6163745F 		.ascii	"act_style\000"
 19825      7374796C 
 19825      6500
 19826              	.LASF56:
 19827 0f84 6D61696E 		.ascii	"main_color\000"
 19827      5F636F6C 
 19827      6F7200
 19828              	.LASF3:
 19829 0f8f 5F5F696E 		.ascii	"__int8_t\000"
 19829      74385F74 
 19829      00
 19830              	.LASF175:
 19831 0f98 5F6C765F 		.ascii	"_lv_indev_proc_t\000"
 19831      696E6465 
 19831      765F7072 
 19831      6F635F74 
 19831      00
 19832              	.LASF371:
 19833 0fa9 64726177 		.ascii	"draw_day_names\000"
 19833      5F646179 
 19833      5F6E616D 
 19833      657300
 19834              	.LASF400:
 19835 0fb8 6C765F63 		.ascii	"lv_calendar_create\000"
 19835      616C656E 
 19835      6461725F 
 19835      63726561 
 19835      746500
 19836              	.LASF349:
 19837 0fcb 6461795F 		.ascii	"day_of_week\000"
 19837      6F665F77 
 19837      65656B00 
 19838              	.LASF441:
ARM GAS  C:\Users\pearlstl\AppData\Local\Temp\ccHPSyCj.s 			page 394


 19839 0fd7 6C765F6F 		.ascii	"lv_obj_get_design_cb\000"
 19839      626A5F67 
 19839      65745F64 
 19839      65736967 
 19839      6E5F6362 
 19840              	.LASF237:
 19841 0fec 6C765F73 		.ascii	"lv_signal_t\000"
 19841      69676E61 
 19841      6C5F7400 
 19842              	.LASF97:
 19843 0ff8 73697A65 		.ascii	"size\000"
 19843      00
 19844              	.LASF158:
 19845 0ffd 6C6F6E67 		.ascii	"long_press_time\000"
 19845      5F707265 
 19845      73735F74 
 19845      696D6500 
 19846              	.LASF275:
 19847 100d 4C565F43 		.ascii	"LV_CALENDAR_STYLE_TODAY_BOX\000"
 19847      414C454E 
 19847      4441525F 
 19847      5354594C 
 19847      455F544F 
 19848              	.LASF0:
 19849 1029 6C6F6E67 		.ascii	"long long unsigned int\000"
 19849      206C6F6E 
 19849      6720756E 
 19849      7369676E 
 19849      65642069 
 19850              	.LASF270:
 19851 1040 4C565F43 		.ascii	"LV_CALENDAR_STYLE_HEADER_PR\000"
 19851      414C454E 
 19851      4441525F 
 19851      5354594C 
 19851      455F4845 
 19852              	.LASF443:
 19853 105c 2E2E5C2E 		.ascii	"..\\..\\..\\lvgl\\version_6.1.2\\lvgl\\src\\lv_objx"
 19853      2E5C2E2E 
 19853      5C6C7667 
 19853      6C5C7665 
 19853      7273696F 
 19854 1088 5C6C765F 		.ascii	"\\lv_calendar.c\000"
 19854      63616C65 
 19854      6E646172 
 19854      2E6300
 19855              	.LASF18:
 19856 1097 75696E74 		.ascii	"uint16_t\000"
 19856      31365F74 
 19856      00
 19857              	.LASF76:
 19858 10a0 4C565F52 		.ascii	"LV_RES_OK\000"
 19858      45535F4F 
 19858      4B00
 19859              	.LASF360:
 19860 10aa 76657274 		.ascii	"vert_space\000"
 19860      5F737061 
 19860      636500
ARM GAS  C:\Users\pearlstl\AppData\Local\Temp\ccHPSyCj.s 			page 395


 19861              	.LASF88:
 19862 10b5 6C617374 		.ascii	"last_run\000"
 19862      5F72756E 
 19862      00
 19863              	.LASF308:
 19864 10be 696E6163 		.ascii	"inactive_days\000"
 19864      74697665 
 19864      5F646179 
 19864      7300
 19865              	.LASF40:
 19866 10cc 6C765F63 		.ascii	"lv_color_t\000"
 19866      6F6C6F72 
 19866      5F7400
 19867              	.LASF408:
 19868 10d7 616E6365 		.ascii	"ancestor_signal\000"
 19868      73746F72 
 19868      5F736967 
 19868      6E616C00 
 19869              	.LASF242:
 19870 10e7 796F6673 		.ascii	"yofs\000"
 19870      00
 19871              	.LASF390:
 19872 10ec 6E65775F 		.ascii	"new_calendar\000"
 19872      63616C65 
 19872      6E646172 
 19872      00
 19873              	.LASF180:
 19874 10f9 72657365 		.ascii	"reset_query\000"
 19874      745F7175 
 19874      65727900 
 19875              	.LASF93:
 19876 1105 6C765F74 		.ascii	"lv_task_t\000"
 19876      61736B5F 
 19876      7400
 19877              	.LASF446:
 19878 110f 6C765F63 		.ascii	"lv_calendar_set_style\000"
 19878      616C656E 
 19878      6461725F 
 19878      7365745F 
 19878      7374796C 
 19879              	.LASF409:
 19880 1125 616E6365 		.ascii	"ancestor_design\000"
 19880      73746F72 
 19880      5F646573 
 19880      69676E00 
 19881              	.LASF283:
 19882 1135 4C565F4B 		.ascii	"LV_KEY_DOWN\000"
 19882      45595F44 
 19882      4F574E00 
 19883              	.LASF398:
 19884 1141 6C765F63 		.ascii	"lv_calendar_set_day_names\000"
 19884      616C656E 
 19884      6461725F 
 19884      7365745F 
 19884      6461795F 
 19885              	.LASF286:
 19886 115b 4C565F4B 		.ascii	"LV_KEY_ESC\000"
ARM GAS  C:\Users\pearlstl\AppData\Local\Temp\ccHPSyCj.s 			page 396


 19886      45595F45 
 19886      534300
 19887              	.LASF269:
 19888 1166 4C565F43 		.ascii	"LV_CALENDAR_STYLE_HEADER\000"
 19888      414C454E 
 19888      4441525F 
 19888      5354594C 
 19888      455F4845 
 19889              	.LASF343:
 19890 117f 666F6E74 		.ascii	"font_p\000"
 19890      5F7000
 19891              	.LASF87:
 19892 1186 70657269 		.ascii	"period\000"
 19892      6F6400
 19893              	.LASF107:
 19894 118d 726F756E 		.ascii	"rounder_cb\000"
 19894      6465725F 
 19894      636200
 19895              	.LASF254:
 19896 1198 68696768 		.ascii	"highlighted_dates\000"
 19896      6C696768 
 19896      7465645F 
 19896      64617465 
 19896      7300
 19897              	.LASF300:
 19898 11aa 6465636F 		.ascii	"decor\000"
 19898      7200
 19899              	.LASF317:
 19900 11b0 696D6762 		.ascii	"imgbtn\000"
 19900      746E00
 19901              	.LASF6:
 19902 11b7 5F5F696E 		.ascii	"__int16_t\000"
 19902      7431365F 
 19902      7400
 19903              	.LASF178:
 19904 11c1 6C6F6E67 		.ascii	"longpr_rep_timestamp\000"
 19904      70725F72 
 19904      65705F74 
 19904      696D6573 
 19904      74616D70 
 19905              	.LASF315:
 19906 11d6 70616E65 		.ascii	"panel\000"
 19906      6C00
 19907              	.LASF170:
 19908 11dc 64726167 		.ascii	"drag_in_prog\000"
 19908      5F696E5F 
 19908      70726F67 
 19908      00
 19909              	.LASF440:
 19910 11e9 6C765F6F 		.ascii	"lv_obj_get_signal_cb\000"
 19910      626A5F67 
 19910      65745F73 
 19910      69676E61 
 19910      6C5F6362 
 19911              	.LASF415:
 19912 11fe 6C765F73 		.ascii	"lv_style_btn_ina\000"
 19912      74796C65 
ARM GAS  C:\Users\pearlstl\AppData\Local\Temp\ccHPSyCj.s 			page 397


 19912      5F62746E 
 19912      5F696E61 
 19912      00
 19913              	.LASF382:
 19914 120f 64617973 		.ascii	"days_area\000"
 19914      5F617265 
 19914      6100
 19915              	.LASF272:
 19916 1219 4C565F43 		.ascii	"LV_CALENDAR_STYLE_HIGHLIGHTED_DAYS\000"
 19916      414C454E 
 19916      4441525F 
 19916      5354594C 
 19916      455F4849 
 19917              	.LASF350:
 19918 123c 64657374 		.ascii	"dest\000"
 19918      00
 19919              	.LASF38:
 19920 1241 66756C6C 		.ascii	"full\000"
 19920      00
 19921              	.LASF48:
 19922 1246 636F6C6F 		.ascii	"color\000"
 19922      7200
 19923              	.LASF374:
 19924 124c 68656164 		.ascii	"header_area\000"
 19924      65725F61 
 19924      72656100 
 19925              	.LASF169:
 19926 1258 64726167 		.ascii	"drag_limit_out\000"
 19926      5F6C696D 
 19926      69745F6F 
 19926      757400
 19927              	.LASF65:
 19928 1267 6C696E65 		.ascii	"line_space\000"
 19928      5F737061 
 19928      636500
 19929              	.LASF241:
 19930 1272 786F6673 		.ascii	"xofs\000"
 19930      00
 19931              	.LASF431:
 19932 1277 6C765F6F 		.ascii	"lv_obj_handle_get_type_signal\000"
 19932      626A5F68 
 19932      616E646C 
 19932      655F6765 
 19932      745F7479 
 19933              	.LASF248:
 19934 1295 6C765F6F 		.ascii	"lv_obj_t\000"
 19934      626A5F74 
 19934      00
 19935              	.LASF250:
 19936 129e 6D6F6E74 		.ascii	"month\000"
 19936      6800
 19937              	.LASF47:
 19938 12a4 6C765F73 		.ascii	"lv_shadow_type_t\000"
 19938      6861646F 
 19938      775F7479 
 19938      70655F74 
 19938      00
ARM GAS  C:\Users\pearlstl\AppData\Local\Temp\ccHPSyCj.s 			page 398


 19939              	.LASF132:
 19940 12b5 64726167 		.ascii	"drag\000"
 19940      00
 19941              	.LASF413:
 19942 12ba 6C765F73 		.ascii	"lv_style_pretty\000"
 19942      74796C65 
 19942      5F707265 
 19942      74747900 
 19943              	.LASF123:
 19944 12ca 5F6C765F 		.ascii	"_lv_obj_t\000"
 19944      6F626A5F 
 19944      7400
 19945              	.LASF63:
 19946 12d4 666F6E74 		.ascii	"font\000"
 19946      00
 19947              	.LASF64:
 19948 12d9 6C657474 		.ascii	"letter_space\000"
 19948      65725F73 
 19948      70616365 
 19948      00
 19949              	.LASF113:
 19950 12e6 64726976 		.ascii	"driver\000"
 19950      657200
 19951              	.LASF395:
 19952 12ed 6C765F63 		.ascii	"lv_calendar_set_highlighted_dates\000"
 19952      616C656E 
 19952      6461725F 
 19952      7365745F 
 19952      68696768 
 19953              	.LASF139:
 19954 130f 62617365 		.ascii	"base_dir\000"
 19954      5F646972 
 19954      00
 19955              	.LASF25:
 19956 1318 626F785F 		.ascii	"box_h\000"
 19956      6800
 19957              	.LASF407:
 19958 131e 6C765F63 		.ascii	"lv_calendar_get_month_names\000"
 19958      616C656E 
 19958      6461725F 
 19958      6765745F 
 19958      6D6F6E74 
 19959              	.LASF291:
 19960 133a 4C565F4B 		.ascii	"LV_KEY_PREV\000"
 19960      45595F50 
 19960      52455600 
 19961              	.LASF240:
 19962 1346 62617365 		.ascii	"base\000"
 19962      00
 19963              	.LASF24:
 19964 134b 626F785F 		.ascii	"box_w\000"
 19964      7700
 19965              	.LASF7:
 19966 1351 73686F72 		.ascii	"short int\000"
 19966      7420696E 
 19966      7400
 19967              	.LASF32:
ARM GAS  C:\Users\pearlstl\AppData\Local\Temp\ccHPSyCj.s 			page 399


 19968 135b 62617365 		.ascii	"base_line\000"
 19968      5F6C696E 
 19968      6500
 19969              	.LASF121:
 19970 1365 696E765F 		.ascii	"inv_p\000"
 19970      7000
 19971              	.LASF82:
 19972 136b 6C765F6C 		.ascii	"lv_ll_t\000"
 19972      6C5F7400 
 19973              	.LASF354:
 19974 1373 6765745F 		.ascii	"get_day_names_height\000"
 19974      6461795F 
 19974      6E616D65 
 19974      735F6865 
 19974      69676874 
 19975              	.LASF353:
 19976 1388 6D6F6465 		.ascii	"mode\000"
 19976      00
 19977              	.LASF174:
 19978 138d 6B657970 		.ascii	"keypad\000"
 19978      616400
 19979              	.LASF393:
 19980 1394 6C765F63 		.ascii	"lv_calendar_set_showed_date\000"
 19980      616C656E 
 19980      6461725F 
 19980      7365745F 
 19980      73686F77 
 19981              	.LASF17:
 19982 13b0 696E7431 		.ascii	"int16_t\000"
 19982      365F7400 
 19983              	.LASF444:
 19984 13b8 433A5C55 		.ascii	"C:\\Users\\pearlstl\\Documents\\_Research\\projects"
 19984      73657273 
 19984      5C706561 
 19984      726C7374 
 19984      6C5C446F 
 19985 13e6 5C74636F 		.ascii	"\\tcom_engineering\\embed_sw\\tcom_app\\tcom_app_ps"
 19985      6D5F656E 
 19985      67696E65 
 19985      6572696E 
 19985      675C656D 
 19986 1415 6F63365F 		.ascii	"oc6_lvgl6\\tcom_displ_test_psoc6.cydsn\000"
 19986      6C76676C 
 19986      365C7463 
 19986      6F6D5F64 
 19986      6973706C 
 19987              	.LASF219:
 19988 143b 4C565F53 		.ascii	"LV_SIGNAL_CORD_CHG\000"
 19988      49474E41 
 19988      4C5F434F 
 19988      52445F43 
 19988      484700
 19989              	.LASF125:
 19990 144e 636F6F72 		.ascii	"coords\000"
 19990      647300
 19991              	.LASF388:
 19992 1455 696E6465 		.ascii	"indev\000"
ARM GAS  C:\Users\pearlstl\AppData\Local\Temp\ccHPSyCj.s 			page 400


 19992      7600
 19993              	.LASF118:
 19994 145b 7379735F 		.ascii	"sys_layer\000"
 19994      6C617965 
 19994      7200
 19995              	.LASF328:
 19996 1465 7370696E 		.ascii	"spinbox\000"
 19996      626F7800 
 19997              	.LASF421:
 19998 146d 6C765F75 		.ascii	"lv_utils_num_to_str\000"
 19998      74696C73 
 19998      5F6E756D 
 19998      5F746F5F 
 19998      73747200 
 19999              	.LASF136:
 20000 1481 6F70615F 		.ascii	"opa_scale_en\000"
 20000      7363616C 
 20000      655F656E 
 20000      00
 20001              	.LASF258:
 20002 148e 6461795F 		.ascii	"day_names\000"
 20002      6E616D65 
 20002      7300
 20003              	.LASF419:
 20004 1498 6C765F6F 		.ascii	"lv_obj_get_opa_scale\000"
 20004      626A5F67 
 20004      65745F6F 
 20004      70615F73 
 20004      63616C65 
 20005              	.LASF60:
 20006 14ad 73686164 		.ascii	"shadow\000"
 20006      6F7700
 20007              	.LASF183:
 20008 14b4 6C765F69 		.ascii	"lv_indev_proc_t\000"
 20008      6E646576 
 20008      5F70726F 
 20008      635F7400 
 20009              	.LASF208:
 20010 14c4 4C565F45 		.ascii	"LV_EVENT_DEFOCUSED\000"
 20010      56454E54 
 20010      5F444546 
 20010      4F435553 
 20010      454400
 20011              	.LASF342:
 20012 14d7 6C765F61 		.ascii	"lv_area_get_width\000"
 20012      7265615F 
 20012      6765745F 
 20012      77696474 
 20012      6800
 20013              	.LASF262:
 20014 14e9 7374796C 		.ascii	"style_day_names\000"
 20014      655F6461 
 20014      795F6E61 
 20014      6D657300 
 20015              	.LASF134:
 20016 14f9 64726167 		.ascii	"drag_parent\000"
 20016      5F706172 
ARM GAS  C:\Users\pearlstl\AppData\Local\Temp\ccHPSyCj.s 			page 401


 20016      656E7400 
 20017              	.LASF160:
 20018 1505 6C765F69 		.ascii	"lv_indev_drv_t\000"
 20018      6E646576 
 20018      5F647276 
 20018      5F7400
 20019              	.LASF222:
 20020 1514 4C565F53 		.ascii	"LV_SIGNAL_BASE_DIR_CHG\000"
 20020      49474E41 
 20020      4C5F4241 
 20020      53455F44 
 20020      49525F43 
 20021              	.LASF157:
 20022 152b 64726167 		.ascii	"drag_limit\000"
 20022      5F6C696D 
 20022      697400
 20023              	.LASF111:
 20024 1536 6C765F64 		.ascii	"lv_disp_drv_t\000"
 20024      6973705F 
 20024      6472765F 
 20024      7400
 20025              	.LASF391:
 20026 1544 636F7079 		.ascii	"copy_ext\000"
 20026      5F657874 
 20026      00
 20027              	.LASF433:
 20028 154d 6C765F6F 		.ascii	"lv_obj_set_style\000"
 20028      626A5F73 
 20028      65745F73 
 20028      74796C65 
 20028      00
 20029              	.LASF314:
 20030 155e 636F6E74 		.ascii	"content\000"
 20030      656E7400 
 20031              	.LASF61:
 20032 1566 70616464 		.ascii	"padding\000"
 20032      696E6700 
 20033              	.LASF276:
 20034 156e 6C765F63 		.ascii	"lv_calendar_style_t\000"
 20034      616C656E 
 20034      6461725F 
 20034      7374796C 
 20034      655F7400 
 20035              	.LASF127:
 20036 1582 7369676E 		.ascii	"signal_cb\000"
 20036      616C5F63 
 20036      6200
 20037              	.LASF20:
 20038 158c 75696E74 		.ascii	"uint32_t\000"
 20038      33325F74 
 20038      00
 20039              	.LASF434:
 20040 1595 6C765F6F 		.ascii	"lv_obj_set_size\000"
 20040      626A5F73 
 20040      65745F73 
 20040      697A6500 
 20041              	.LASF426:
ARM GAS  C:\Users\pearlstl\AppData\Local\Temp\ccHPSyCj.s 			page 402


 20042 15a5 6C765F6F 		.ascii	"lv_obj_invalidate\000"
 20042      626A5F69 
 20042      6E76616C 
 20042      69646174 
 20042      6500
 20043              	.LASF299:
 20044 15b7 6461726B 		.ascii	"dark\000"
 20044      00
 20045              	.LASF36:
 20046 15bc 67726565 		.ascii	"green\000"
 20046      6E00
 20047              	.LASF34:
 20048 15c2 6C765F66 		.ascii	"lv_font_t\000"
 20048      6F6E745F 
 20048      7400
 20049              	.LASF140:
 20050 15cc 72657365 		.ascii	"reserved\000"
 20050      72766564 
 20050      00
 20051              	.LASF356:
 20052 15d5 64726177 		.ascii	"draw_days\000"
 20052      5F646179 
 20052      7300
 20053              	.LASF109:
 20054 15df 6D6F6E69 		.ascii	"monitor_cb\000"
 20054      746F725F 
 20054      636200
 20055              	.LASF9:
 20056 15ea 73686F72 		.ascii	"short unsigned int\000"
 20056      7420756E 
 20056      7369676E 
 20056      65642069 
 20056      6E7400
 20057              	.LASF206:
 20058 15fd 4C565F45 		.ascii	"LV_EVENT_KEY\000"
 20058      56454E54 
 20058      5F4B4559 
 20058      00
 20059              	.LASF377:
 20060 160a 6765745F 		.ascii	"get_month_name\000"
 20060      6D6F6E74 
 20060      685F6E61 
 20060      6D6500
 20061              	.LASF21:
 20062 1619 6C765F63 		.ascii	"lv_coord_t\000"
 20062      6F6F7264 
 20062      5F7400
 20063              	.LASF151:
 20064 1624 6C765F69 		.ascii	"lv_indev_data_t\000"
 20064      6E646576 
 20064      5F646174 
 20064      615F7400 
 20065              	.LASF106:
 20066 1634 666C7573 		.ascii	"flush_cb\000"
 20066      685F6362 
 20066      00
 20067              	.LASF90:
ARM GAS  C:\Users\pearlstl\AppData\Local\Temp\ccHPSyCj.s 			page 403


 20068 163d 75736572 		.ascii	"user_data\000"
 20068      5F646174 
 20068      6100
 20069              	.LASF197:
 20070 1647 4C565F45 		.ascii	"LV_EVENT_PRESS_LOST\000"
 20070      56454E54 
 20070      5F505245 
 20070      53535F4C 
 20070      4F535400 
 20071              	.LASF341:
 20072 165b 6C765F66 		.ascii	"lv_font_get_line_height\000"
 20072      6F6E745F 
 20072      6765745F 
 20072      6C696E65 
 20072      5F686569 
 20073              	.LASF59:
 20074 1673 626F7264 		.ascii	"border\000"
 20074      657200
 20075              	.LASF318:
 20076 167a 6C616265 		.ascii	"label\000"
 20076      6C00
 20077              	.LASF29:
 20078 1680 6765745F 		.ascii	"get_glyph_dsc\000"
 20078      676C7970 
 20078      685F6473 
 20078      6300
 20079              	.LASF10:
 20080 168e 5F5F696E 		.ascii	"__int32_t\000"
 20080      7433325F 
 20080      7400
 20081              	.LASF46:
 20082 1698 6C765F62 		.ascii	"lv_border_part_t\000"
 20082      6F726465 
 20082      725F7061 
 20082      72745F74 
 20082      00
 20083              	.LASF404:
 20084 16a9 6C765F63 		.ascii	"lv_calendar_get_highlighted_dates\000"
 20084      616C656E 
 20084      6461725F 
 20084      6765745F 
 20084      68696768 
 20085              	.LASF179:
 20086 16cb 6C6F6E67 		.ascii	"long_pr_sent\000"
 20086      5F70725F 
 20086      73656E74 
 20086      00
 20087              	.LASF216:
 20088 16d8 6C765F65 		.ascii	"lv_event_cb_t\000"
 20088      76656E74 
 20088      5F63625F 
 20088      7400
 20089              	.LASF322:
 20090 16e6 7072656C 		.ascii	"preload\000"
 20090      6F616400 
 20091              	.LASF245:
 20092 16ee 6F726967 		.ascii	"origo_align\000"
ARM GAS  C:\Users\pearlstl\AppData\Local\Temp\ccHPSyCj.s 			page 404


 20092      6F5F616C 
 20092      69676E00 
 20093              	.LASF302:
 20094 16fa 6B6E6F62 		.ascii	"knob\000"
 20094      00
 20095              	.LASF282:
 20096 16ff 4C565F4B 		.ascii	"LV_KEY_UP\000"
 20096      45595F55 
 20096      5000
 20097              	.LASF62:
 20098 1709 73656C5F 		.ascii	"sel_color\000"
 20098      636F6C6F 
 20098      7200
 20099              	.LASF84:
 20100 1713 6C765F74 		.ascii	"lv_task_cb_t\000"
 20100      61736B5F 
 20100      63625F74 
 20100      00
 20101              	.LASF348:
 20102 1720 6765745F 		.ascii	"get_day_of_week\000"
 20102      6461795F 
 20102      6F665F77 
 20102      65656B00 
 20103              	.LASF397:
 20104 1730 64617465 		.ascii	"date_num\000"
 20104      5F6E756D 
 20104      00
 20105              	.LASF85:
 20106 1739 5F6C765F 		.ascii	"_lv_font_struct\000"
 20106      666F6E74 
 20106      5F737472 
 20106      75637400 
 20107              	.LASF176:
 20108 1749 74797065 		.ascii	"types\000"
 20108      7300
 20109              	.LASF50:
 20110 174f 70617274 		.ascii	"part\000"
 20110      00
 20111              	.LASF79:
 20112 1754 6E5F7369 		.ascii	"n_size\000"
 20112      7A6500
 20113              	.LASF186:
 20114 175b 63757273 		.ascii	"cursor\000"
 20114      6F7200
 20115              	.LASF445:
 20116 1762 5F6C765F 		.ascii	"_lv_group_t\000"
 20116      67726F75 
 20116      705F7400 
 20117              	.LASF202:
 20118 176e 4C565F45 		.ascii	"LV_EVENT_RELEASED\000"
 20118      56454E54 
 20118      5F52454C 
 20118      45415345 
 20118      4400
 20119              	.LASF194:
 20120 1780 6C765F64 		.ascii	"lv_design_cb_t\000"
 20120      65736967 
ARM GAS  C:\Users\pearlstl\AppData\Local\Temp\ccHPSyCj.s 			page 405


 20120      6E5F6362 
 20120      5F7400
 20121              	.LASF268:
 20122 178f 4C565F43 		.ascii	"LV_CALENDAR_STYLE_BG\000"
 20122      414C454E 
 20122      4441525F 
 20122      5354594C 
 20122      455F4247 
 20123              	.LASF435:
 20124 17a4 6C765F74 		.ascii	"lv_theme_get_current\000"
 20124      68656D65 
 20124      5F676574 
 20124      5F637572 
 20124      72656E74 
 20125              	.LASF142:
 20126 17b9 6F70615F 		.ascii	"opa_scale\000"
 20126      7363616C 
 20126      6500
 20127              	.LASF331:
 20128 17c3 726F6C6C 		.ascii	"roller\000"
 20128      657200
 20129              		.ident	"GCC: (GNU Tools for ARM Embedded Processors) 5.4.1 20160609 (release) [ARM/embedded-5-bran
