ARM GAS  C:\Users\pearlstl\AppData\Local\Temp\cciL9yyu.s 			page 1


   1              		.syntax unified
   2              		.cpu cortex-m4
   3              		.eabi_attribute 27, 1
   4              		.fpu fpv4-sp-d16
   5              		.eabi_attribute 20, 1
   6              		.eabi_attribute 21, 1
   7              		.eabi_attribute 23, 3
   8              		.eabi_attribute 24, 1
   9              		.eabi_attribute 25, 1
  10              		.eabi_attribute 26, 1
  11              		.eabi_attribute 30, 2
  12              		.eabi_attribute 34, 1
  13              		.eabi_attribute 18, 4
  14              		.thumb
  15              		.syntax unified
  16              		.file	"lv_cont.c"
  17              		.text
  18              	.Ltext0:
  19              		.cfi_sections	.debug_frame
  20              		.section	.text.lv_cont_refr_layout,"ax",%progbits
  21              		.align	2
  22              		.thumb
  23              		.thumb_func
  24              		.type	lv_cont_refr_layout, %function
  25              	lv_cont_refr_layout:
  26              	.LFB44:
  27              		.file 1 "..\\..\\..\\lvgl\\version_6.1.2\\lvgl\\src\\lv_objx\\lv_cont.c"
   1:..\..\..\lvgl\version_6.1.2\lvgl\src\lv_objx/lv_cont.c **** /**
   2:..\..\..\lvgl\version_6.1.2\lvgl\src\lv_objx/lv_cont.c ****  * @file lv_cont.c
   3:..\..\..\lvgl\version_6.1.2\lvgl\src\lv_objx/lv_cont.c ****  *
   4:..\..\..\lvgl\version_6.1.2\lvgl\src\lv_objx/lv_cont.c ****  */
   5:..\..\..\lvgl\version_6.1.2\lvgl\src\lv_objx/lv_cont.c **** 
   6:..\..\..\lvgl\version_6.1.2\lvgl\src\lv_objx/lv_cont.c **** /*********************
   7:..\..\..\lvgl\version_6.1.2\lvgl\src\lv_objx/lv_cont.c ****  *      INCLUDES
   8:..\..\..\lvgl\version_6.1.2\lvgl\src\lv_objx/lv_cont.c ****  *********************/
   9:..\..\..\lvgl\version_6.1.2\lvgl\src\lv_objx/lv_cont.c **** 
  10:..\..\..\lvgl\version_6.1.2\lvgl\src\lv_objx/lv_cont.c **** #include "lv_cont.h"
  11:..\..\..\lvgl\version_6.1.2\lvgl\src\lv_objx/lv_cont.c **** #if LV_USE_CONT != 0
  12:..\..\..\lvgl\version_6.1.2\lvgl\src\lv_objx/lv_cont.c **** 
  13:..\..\..\lvgl\version_6.1.2\lvgl\src\lv_objx/lv_cont.c **** #include <stdbool.h>
  14:..\..\..\lvgl\version_6.1.2\lvgl\src\lv_objx/lv_cont.c **** #include <stdint.h>
  15:..\..\..\lvgl\version_6.1.2\lvgl\src\lv_objx/lv_cont.c **** #include <string.h>
  16:..\..\..\lvgl\version_6.1.2\lvgl\src\lv_objx/lv_cont.c **** 
  17:..\..\..\lvgl\version_6.1.2\lvgl\src\lv_objx/lv_cont.c **** #include "../lv_core/lv_debug.h"
  18:..\..\..\lvgl\version_6.1.2\lvgl\src\lv_objx/lv_cont.c **** #include "../lv_draw/lv_draw.h"
  19:..\..\..\lvgl\version_6.1.2\lvgl\src\lv_objx/lv_cont.c **** #include "../lv_draw/lv_draw_basic.h"
  20:..\..\..\lvgl\version_6.1.2\lvgl\src\lv_objx/lv_cont.c **** #include "../lv_themes/lv_theme.h"
  21:..\..\..\lvgl\version_6.1.2\lvgl\src\lv_objx/lv_cont.c **** #include "../lv_misc/lv_area.h"
  22:..\..\..\lvgl\version_6.1.2\lvgl\src\lv_objx/lv_cont.c **** #include "../lv_misc/lv_color.h"
  23:..\..\..\lvgl\version_6.1.2\lvgl\src\lv_objx/lv_cont.c **** #include "../lv_misc/lv_math.h"
  24:..\..\..\lvgl\version_6.1.2\lvgl\src\lv_objx/lv_cont.c **** #include "../lv_misc/lv_bidi.h"
  25:..\..\..\lvgl\version_6.1.2\lvgl\src\lv_objx/lv_cont.c **** 
  26:..\..\..\lvgl\version_6.1.2\lvgl\src\lv_objx/lv_cont.c **** /*********************
  27:..\..\..\lvgl\version_6.1.2\lvgl\src\lv_objx/lv_cont.c ****  *      DEFINES
  28:..\..\..\lvgl\version_6.1.2\lvgl\src\lv_objx/lv_cont.c ****  *********************/
  29:..\..\..\lvgl\version_6.1.2\lvgl\src\lv_objx/lv_cont.c **** #define LV_OBJX_NAME "lv_cont"
  30:..\..\..\lvgl\version_6.1.2\lvgl\src\lv_objx/lv_cont.c **** 
ARM GAS  C:\Users\pearlstl\AppData\Local\Temp\cciL9yyu.s 			page 2


  31:..\..\..\lvgl\version_6.1.2\lvgl\src\lv_objx/lv_cont.c **** /**********************
  32:..\..\..\lvgl\version_6.1.2\lvgl\src\lv_objx/lv_cont.c ****  *      TYPEDEFS
  33:..\..\..\lvgl\version_6.1.2\lvgl\src\lv_objx/lv_cont.c ****  **********************/
  34:..\..\..\lvgl\version_6.1.2\lvgl\src\lv_objx/lv_cont.c **** 
  35:..\..\..\lvgl\version_6.1.2\lvgl\src\lv_objx/lv_cont.c **** /**********************
  36:..\..\..\lvgl\version_6.1.2\lvgl\src\lv_objx/lv_cont.c ****  *  STATIC PROTOTYPES
  37:..\..\..\lvgl\version_6.1.2\lvgl\src\lv_objx/lv_cont.c ****  **********************/
  38:..\..\..\lvgl\version_6.1.2\lvgl\src\lv_objx/lv_cont.c **** static lv_res_t lv_cont_signal(lv_obj_t * cont, lv_signal_t sign, void * param);
  39:..\..\..\lvgl\version_6.1.2\lvgl\src\lv_objx/lv_cont.c **** static void lv_cont_refr_layout(lv_obj_t * cont);
  40:..\..\..\lvgl\version_6.1.2\lvgl\src\lv_objx/lv_cont.c **** static void lv_cont_layout_col(lv_obj_t * cont);
  41:..\..\..\lvgl\version_6.1.2\lvgl\src\lv_objx/lv_cont.c **** static void lv_cont_layout_row(lv_obj_t * cont);
  42:..\..\..\lvgl\version_6.1.2\lvgl\src\lv_objx/lv_cont.c **** static void lv_cont_layout_center(lv_obj_t * cont);
  43:..\..\..\lvgl\version_6.1.2\lvgl\src\lv_objx/lv_cont.c **** static void lv_cont_layout_pretty(lv_obj_t * cont);
  44:..\..\..\lvgl\version_6.1.2\lvgl\src\lv_objx/lv_cont.c **** static void lv_cont_layout_grid(lv_obj_t * cont);
  45:..\..\..\lvgl\version_6.1.2\lvgl\src\lv_objx/lv_cont.c **** static void lv_cont_refr_autofit(lv_obj_t * cont);
  46:..\..\..\lvgl\version_6.1.2\lvgl\src\lv_objx/lv_cont.c **** 
  47:..\..\..\lvgl\version_6.1.2\lvgl\src\lv_objx/lv_cont.c **** /**********************
  48:..\..\..\lvgl\version_6.1.2\lvgl\src\lv_objx/lv_cont.c ****  *  STATIC VARIABLES
  49:..\..\..\lvgl\version_6.1.2\lvgl\src\lv_objx/lv_cont.c ****  **********************/
  50:..\..\..\lvgl\version_6.1.2\lvgl\src\lv_objx/lv_cont.c **** static lv_signal_cb_t ancestor_signal;
  51:..\..\..\lvgl\version_6.1.2\lvgl\src\lv_objx/lv_cont.c **** 
  52:..\..\..\lvgl\version_6.1.2\lvgl\src\lv_objx/lv_cont.c **** /**********************
  53:..\..\..\lvgl\version_6.1.2\lvgl\src\lv_objx/lv_cont.c ****  *      MACROS
  54:..\..\..\lvgl\version_6.1.2\lvgl\src\lv_objx/lv_cont.c ****  **********************/
  55:..\..\..\lvgl\version_6.1.2\lvgl\src\lv_objx/lv_cont.c **** 
  56:..\..\..\lvgl\version_6.1.2\lvgl\src\lv_objx/lv_cont.c **** /**********************
  57:..\..\..\lvgl\version_6.1.2\lvgl\src\lv_objx/lv_cont.c ****  *   GLOBAL FUNCTIONS
  58:..\..\..\lvgl\version_6.1.2\lvgl\src\lv_objx/lv_cont.c ****  **********************/
  59:..\..\..\lvgl\version_6.1.2\lvgl\src\lv_objx/lv_cont.c **** 
  60:..\..\..\lvgl\version_6.1.2\lvgl\src\lv_objx/lv_cont.c **** /**
  61:..\..\..\lvgl\version_6.1.2\lvgl\src\lv_objx/lv_cont.c ****  * Create a container objects
  62:..\..\..\lvgl\version_6.1.2\lvgl\src\lv_objx/lv_cont.c ****  * @param par pointer to an object, it will be the parent of the new container
  63:..\..\..\lvgl\version_6.1.2\lvgl\src\lv_objx/lv_cont.c ****  * @param copy pointer to a container object, if not NULL then the new object will be copied from i
  64:..\..\..\lvgl\version_6.1.2\lvgl\src\lv_objx/lv_cont.c ****  * @return pointer to the created container
  65:..\..\..\lvgl\version_6.1.2\lvgl\src\lv_objx/lv_cont.c ****  */
  66:..\..\..\lvgl\version_6.1.2\lvgl\src\lv_objx/lv_cont.c **** lv_obj_t * lv_cont_create(lv_obj_t * par, const lv_obj_t * copy)
  67:..\..\..\lvgl\version_6.1.2\lvgl\src\lv_objx/lv_cont.c **** {
  68:..\..\..\lvgl\version_6.1.2\lvgl\src\lv_objx/lv_cont.c **** 
  69:..\..\..\lvgl\version_6.1.2\lvgl\src\lv_objx/lv_cont.c ****     LV_LOG_TRACE("container create started");
  70:..\..\..\lvgl\version_6.1.2\lvgl\src\lv_objx/lv_cont.c **** 
  71:..\..\..\lvgl\version_6.1.2\lvgl\src\lv_objx/lv_cont.c ****     /*Create a basic object*/
  72:..\..\..\lvgl\version_6.1.2\lvgl\src\lv_objx/lv_cont.c ****     lv_obj_t * new_cont = lv_obj_create(par, copy);
  73:..\..\..\lvgl\version_6.1.2\lvgl\src\lv_objx/lv_cont.c ****     LV_ASSERT_MEM(new_cont);
  74:..\..\..\lvgl\version_6.1.2\lvgl\src\lv_objx/lv_cont.c ****     if(new_cont == NULL) return NULL;
  75:..\..\..\lvgl\version_6.1.2\lvgl\src\lv_objx/lv_cont.c **** 
  76:..\..\..\lvgl\version_6.1.2\lvgl\src\lv_objx/lv_cont.c ****     if(ancestor_signal == NULL) ancestor_signal = lv_obj_get_signal_cb(new_cont);
  77:..\..\..\lvgl\version_6.1.2\lvgl\src\lv_objx/lv_cont.c **** 
  78:..\..\..\lvgl\version_6.1.2\lvgl\src\lv_objx/lv_cont.c ****     lv_obj_allocate_ext_attr(new_cont, sizeof(lv_cont_ext_t));
  79:..\..\..\lvgl\version_6.1.2\lvgl\src\lv_objx/lv_cont.c ****     lv_cont_ext_t * ext = lv_obj_get_ext_attr(new_cont);
  80:..\..\..\lvgl\version_6.1.2\lvgl\src\lv_objx/lv_cont.c ****     if(ext == NULL) return NULL;
  81:..\..\..\lvgl\version_6.1.2\lvgl\src\lv_objx/lv_cont.c **** 
  82:..\..\..\lvgl\version_6.1.2\lvgl\src\lv_objx/lv_cont.c ****     LV_ASSERT_MEM(ext);
  83:..\..\..\lvgl\version_6.1.2\lvgl\src\lv_objx/lv_cont.c ****     ext->fit_left   = LV_FIT_NONE;
  84:..\..\..\lvgl\version_6.1.2\lvgl\src\lv_objx/lv_cont.c ****     ext->fit_right  = LV_FIT_NONE;
  85:..\..\..\lvgl\version_6.1.2\lvgl\src\lv_objx/lv_cont.c ****     ext->fit_top    = LV_FIT_NONE;
  86:..\..\..\lvgl\version_6.1.2\lvgl\src\lv_objx/lv_cont.c ****     ext->fit_bottom = LV_FIT_NONE;
  87:..\..\..\lvgl\version_6.1.2\lvgl\src\lv_objx/lv_cont.c ****     ext->layout     = LV_LAYOUT_OFF;
ARM GAS  C:\Users\pearlstl\AppData\Local\Temp\cciL9yyu.s 			page 3


  88:..\..\..\lvgl\version_6.1.2\lvgl\src\lv_objx/lv_cont.c **** 
  89:..\..\..\lvgl\version_6.1.2\lvgl\src\lv_objx/lv_cont.c ****     lv_obj_set_signal_cb(new_cont, lv_cont_signal);
  90:..\..\..\lvgl\version_6.1.2\lvgl\src\lv_objx/lv_cont.c **** 
  91:..\..\..\lvgl\version_6.1.2\lvgl\src\lv_objx/lv_cont.c ****     /*Init the new container*/
  92:..\..\..\lvgl\version_6.1.2\lvgl\src\lv_objx/lv_cont.c ****     if(copy == NULL) {
  93:..\..\..\lvgl\version_6.1.2\lvgl\src\lv_objx/lv_cont.c ****         /*Set the default styles if it's not screen*/
  94:..\..\..\lvgl\version_6.1.2\lvgl\src\lv_objx/lv_cont.c ****         if(par != NULL) {
  95:..\..\..\lvgl\version_6.1.2\lvgl\src\lv_objx/lv_cont.c ****             lv_theme_t * th = lv_theme_get_current();
  96:..\..\..\lvgl\version_6.1.2\lvgl\src\lv_objx/lv_cont.c ****             if(th) {
  97:..\..\..\lvgl\version_6.1.2\lvgl\src\lv_objx/lv_cont.c ****                 lv_cont_set_style(new_cont, LV_CONT_STYLE_MAIN, th->style.cont);
  98:..\..\..\lvgl\version_6.1.2\lvgl\src\lv_objx/lv_cont.c ****             } else {
  99:..\..\..\lvgl\version_6.1.2\lvgl\src\lv_objx/lv_cont.c ****                 lv_cont_set_style(new_cont, LV_CONT_STYLE_MAIN, &lv_style_pretty);
 100:..\..\..\lvgl\version_6.1.2\lvgl\src\lv_objx/lv_cont.c ****             }
 101:..\..\..\lvgl\version_6.1.2\lvgl\src\lv_objx/lv_cont.c ****         }
 102:..\..\..\lvgl\version_6.1.2\lvgl\src\lv_objx/lv_cont.c ****     }
 103:..\..\..\lvgl\version_6.1.2\lvgl\src\lv_objx/lv_cont.c ****     /*Copy an existing object*/
 104:..\..\..\lvgl\version_6.1.2\lvgl\src\lv_objx/lv_cont.c ****     else {
 105:..\..\..\lvgl\version_6.1.2\lvgl\src\lv_objx/lv_cont.c ****         lv_cont_ext_t * copy_ext = lv_obj_get_ext_attr(copy);
 106:..\..\..\lvgl\version_6.1.2\lvgl\src\lv_objx/lv_cont.c ****         ext->fit_left            = copy_ext->fit_left;
 107:..\..\..\lvgl\version_6.1.2\lvgl\src\lv_objx/lv_cont.c ****         ext->fit_right           = copy_ext->fit_right;
 108:..\..\..\lvgl\version_6.1.2\lvgl\src\lv_objx/lv_cont.c ****         ext->fit_top             = copy_ext->fit_top;
 109:..\..\..\lvgl\version_6.1.2\lvgl\src\lv_objx/lv_cont.c ****         ext->fit_bottom          = copy_ext->fit_bottom;
 110:..\..\..\lvgl\version_6.1.2\lvgl\src\lv_objx/lv_cont.c ****         ext->layout              = copy_ext->layout;
 111:..\..\..\lvgl\version_6.1.2\lvgl\src\lv_objx/lv_cont.c **** 
 112:..\..\..\lvgl\version_6.1.2\lvgl\src\lv_objx/lv_cont.c ****         /*Refresh the style with new signal function*/
 113:..\..\..\lvgl\version_6.1.2\lvgl\src\lv_objx/lv_cont.c ****         lv_obj_refresh_style(new_cont);
 114:..\..\..\lvgl\version_6.1.2\lvgl\src\lv_objx/lv_cont.c ****     }
 115:..\..\..\lvgl\version_6.1.2\lvgl\src\lv_objx/lv_cont.c **** 
 116:..\..\..\lvgl\version_6.1.2\lvgl\src\lv_objx/lv_cont.c ****     LV_LOG_INFO("container created");
 117:..\..\..\lvgl\version_6.1.2\lvgl\src\lv_objx/lv_cont.c **** 
 118:..\..\..\lvgl\version_6.1.2\lvgl\src\lv_objx/lv_cont.c ****     return new_cont;
 119:..\..\..\lvgl\version_6.1.2\lvgl\src\lv_objx/lv_cont.c **** }
 120:..\..\..\lvgl\version_6.1.2\lvgl\src\lv_objx/lv_cont.c **** 
 121:..\..\..\lvgl\version_6.1.2\lvgl\src\lv_objx/lv_cont.c **** /*=====================
 122:..\..\..\lvgl\version_6.1.2\lvgl\src\lv_objx/lv_cont.c ****  * Setter functions
 123:..\..\..\lvgl\version_6.1.2\lvgl\src\lv_objx/lv_cont.c ****  *====================*/
 124:..\..\..\lvgl\version_6.1.2\lvgl\src\lv_objx/lv_cont.c **** 
 125:..\..\..\lvgl\version_6.1.2\lvgl\src\lv_objx/lv_cont.c **** /**
 126:..\..\..\lvgl\version_6.1.2\lvgl\src\lv_objx/lv_cont.c ****  * Set a layout on a container
 127:..\..\..\lvgl\version_6.1.2\lvgl\src\lv_objx/lv_cont.c ****  * @param cont pointer to a container object
 128:..\..\..\lvgl\version_6.1.2\lvgl\src\lv_objx/lv_cont.c ****  * @param layout a layout from 'lv_cont_layout_t'
 129:..\..\..\lvgl\version_6.1.2\lvgl\src\lv_objx/lv_cont.c ****  */
 130:..\..\..\lvgl\version_6.1.2\lvgl\src\lv_objx/lv_cont.c **** void lv_cont_set_layout(lv_obj_t * cont, lv_layout_t layout)
 131:..\..\..\lvgl\version_6.1.2\lvgl\src\lv_objx/lv_cont.c **** {
 132:..\..\..\lvgl\version_6.1.2\lvgl\src\lv_objx/lv_cont.c ****     LV_ASSERT_OBJ(cont, LV_OBJX_NAME);
 133:..\..\..\lvgl\version_6.1.2\lvgl\src\lv_objx/lv_cont.c **** 
 134:..\..\..\lvgl\version_6.1.2\lvgl\src\lv_objx/lv_cont.c ****     lv_cont_ext_t * ext = lv_obj_get_ext_attr(cont);
 135:..\..\..\lvgl\version_6.1.2\lvgl\src\lv_objx/lv_cont.c ****     if(ext->layout == layout) return;
 136:..\..\..\lvgl\version_6.1.2\lvgl\src\lv_objx/lv_cont.c **** 
 137:..\..\..\lvgl\version_6.1.2\lvgl\src\lv_objx/lv_cont.c ****     ext->layout = layout;
 138:..\..\..\lvgl\version_6.1.2\lvgl\src\lv_objx/lv_cont.c **** 
 139:..\..\..\lvgl\version_6.1.2\lvgl\src\lv_objx/lv_cont.c ****     /*Send a signal to refresh the layout*/
 140:..\..\..\lvgl\version_6.1.2\lvgl\src\lv_objx/lv_cont.c ****     cont->signal_cb(cont, LV_SIGNAL_CHILD_CHG, NULL);
 141:..\..\..\lvgl\version_6.1.2\lvgl\src\lv_objx/lv_cont.c **** }
 142:..\..\..\lvgl\version_6.1.2\lvgl\src\lv_objx/lv_cont.c **** 
 143:..\..\..\lvgl\version_6.1.2\lvgl\src\lv_objx/lv_cont.c **** /**
 144:..\..\..\lvgl\version_6.1.2\lvgl\src\lv_objx/lv_cont.c ****  * Set the fit policy in all 4 directions separately.
ARM GAS  C:\Users\pearlstl\AppData\Local\Temp\cciL9yyu.s 			page 4


 145:..\..\..\lvgl\version_6.1.2\lvgl\src\lv_objx/lv_cont.c ****  * It tell how to change the container's size automatically.
 146:..\..\..\lvgl\version_6.1.2\lvgl\src\lv_objx/lv_cont.c ****  * @param cont pointer to a container object
 147:..\..\..\lvgl\version_6.1.2\lvgl\src\lv_objx/lv_cont.c ****  * @param left left fit policy from `lv_fit_t`
 148:..\..\..\lvgl\version_6.1.2\lvgl\src\lv_objx/lv_cont.c ****  * @param right right fit policy from `lv_fit_t`
 149:..\..\..\lvgl\version_6.1.2\lvgl\src\lv_objx/lv_cont.c ****  * @param top bottom fit policy from `lv_fit_t`
 150:..\..\..\lvgl\version_6.1.2\lvgl\src\lv_objx/lv_cont.c ****  * @param bottom bottom fit policy from `lv_fit_t`
 151:..\..\..\lvgl\version_6.1.2\lvgl\src\lv_objx/lv_cont.c ****  */
 152:..\..\..\lvgl\version_6.1.2\lvgl\src\lv_objx/lv_cont.c **** void lv_cont_set_fit4(lv_obj_t * cont, lv_fit_t left, lv_fit_t right, lv_fit_t top, lv_fit_t bottom
 153:..\..\..\lvgl\version_6.1.2\lvgl\src\lv_objx/lv_cont.c **** {
 154:..\..\..\lvgl\version_6.1.2\lvgl\src\lv_objx/lv_cont.c ****     LV_ASSERT_OBJ(cont, LV_OBJX_NAME);
 155:..\..\..\lvgl\version_6.1.2\lvgl\src\lv_objx/lv_cont.c **** 
 156:..\..\..\lvgl\version_6.1.2\lvgl\src\lv_objx/lv_cont.c ****     lv_obj_invalidate(cont);
 157:..\..\..\lvgl\version_6.1.2\lvgl\src\lv_objx/lv_cont.c ****     lv_cont_ext_t * ext = lv_obj_get_ext_attr(cont);
 158:..\..\..\lvgl\version_6.1.2\lvgl\src\lv_objx/lv_cont.c ****     if(ext->fit_left == left && ext->fit_right == right && ext->fit_top == top && ext->fit_bottom =
 159:..\..\..\lvgl\version_6.1.2\lvgl\src\lv_objx/lv_cont.c ****         return;
 160:..\..\..\lvgl\version_6.1.2\lvgl\src\lv_objx/lv_cont.c ****     }
 161:..\..\..\lvgl\version_6.1.2\lvgl\src\lv_objx/lv_cont.c **** 
 162:..\..\..\lvgl\version_6.1.2\lvgl\src\lv_objx/lv_cont.c ****     ext->fit_left   = left;
 163:..\..\..\lvgl\version_6.1.2\lvgl\src\lv_objx/lv_cont.c ****     ext->fit_right  = right;
 164:..\..\..\lvgl\version_6.1.2\lvgl\src\lv_objx/lv_cont.c ****     ext->fit_top    = top;
 165:..\..\..\lvgl\version_6.1.2\lvgl\src\lv_objx/lv_cont.c ****     ext->fit_bottom = bottom;
 166:..\..\..\lvgl\version_6.1.2\lvgl\src\lv_objx/lv_cont.c **** 
 167:..\..\..\lvgl\version_6.1.2\lvgl\src\lv_objx/lv_cont.c ****     /*Send a signal to refresh the layout*/
 168:..\..\..\lvgl\version_6.1.2\lvgl\src\lv_objx/lv_cont.c ****     cont->signal_cb(cont, LV_SIGNAL_CHILD_CHG, NULL);
 169:..\..\..\lvgl\version_6.1.2\lvgl\src\lv_objx/lv_cont.c **** }
 170:..\..\..\lvgl\version_6.1.2\lvgl\src\lv_objx/lv_cont.c **** 
 171:..\..\..\lvgl\version_6.1.2\lvgl\src\lv_objx/lv_cont.c **** /*=====================
 172:..\..\..\lvgl\version_6.1.2\lvgl\src\lv_objx/lv_cont.c ****  * Getter functions
 173:..\..\..\lvgl\version_6.1.2\lvgl\src\lv_objx/lv_cont.c ****  *====================*/
 174:..\..\..\lvgl\version_6.1.2\lvgl\src\lv_objx/lv_cont.c **** 
 175:..\..\..\lvgl\version_6.1.2\lvgl\src\lv_objx/lv_cont.c **** /**
 176:..\..\..\lvgl\version_6.1.2\lvgl\src\lv_objx/lv_cont.c ****  * Get the layout of a container
 177:..\..\..\lvgl\version_6.1.2\lvgl\src\lv_objx/lv_cont.c ****  * @param cont pointer to container object
 178:..\..\..\lvgl\version_6.1.2\lvgl\src\lv_objx/lv_cont.c ****  * @return the layout from 'lv_cont_layout_t'
 179:..\..\..\lvgl\version_6.1.2\lvgl\src\lv_objx/lv_cont.c ****  */
 180:..\..\..\lvgl\version_6.1.2\lvgl\src\lv_objx/lv_cont.c **** lv_layout_t lv_cont_get_layout(const lv_obj_t * cont)
 181:..\..\..\lvgl\version_6.1.2\lvgl\src\lv_objx/lv_cont.c **** {
 182:..\..\..\lvgl\version_6.1.2\lvgl\src\lv_objx/lv_cont.c ****     LV_ASSERT_OBJ(cont, LV_OBJX_NAME);
 183:..\..\..\lvgl\version_6.1.2\lvgl\src\lv_objx/lv_cont.c **** 
 184:..\..\..\lvgl\version_6.1.2\lvgl\src\lv_objx/lv_cont.c ****     lv_cont_ext_t * ext = lv_obj_get_ext_attr(cont);
 185:..\..\..\lvgl\version_6.1.2\lvgl\src\lv_objx/lv_cont.c ****     return ext->layout;
 186:..\..\..\lvgl\version_6.1.2\lvgl\src\lv_objx/lv_cont.c **** }
 187:..\..\..\lvgl\version_6.1.2\lvgl\src\lv_objx/lv_cont.c **** 
 188:..\..\..\lvgl\version_6.1.2\lvgl\src\lv_objx/lv_cont.c **** /**
 189:..\..\..\lvgl\version_6.1.2\lvgl\src\lv_objx/lv_cont.c ****  * Get left fit mode of a container
 190:..\..\..\lvgl\version_6.1.2\lvgl\src\lv_objx/lv_cont.c ****  * @param cont pointer to a container object
 191:..\..\..\lvgl\version_6.1.2\lvgl\src\lv_objx/lv_cont.c ****  * @return an element of `lv_fit_t`
 192:..\..\..\lvgl\version_6.1.2\lvgl\src\lv_objx/lv_cont.c ****  */
 193:..\..\..\lvgl\version_6.1.2\lvgl\src\lv_objx/lv_cont.c **** lv_fit_t lv_cont_get_fit_left(const lv_obj_t * cont)
 194:..\..\..\lvgl\version_6.1.2\lvgl\src\lv_objx/lv_cont.c **** {
 195:..\..\..\lvgl\version_6.1.2\lvgl\src\lv_objx/lv_cont.c ****     LV_ASSERT_OBJ(cont, LV_OBJX_NAME);
 196:..\..\..\lvgl\version_6.1.2\lvgl\src\lv_objx/lv_cont.c **** 
 197:..\..\..\lvgl\version_6.1.2\lvgl\src\lv_objx/lv_cont.c ****     lv_cont_ext_t * ext = lv_obj_get_ext_attr(cont);
 198:..\..\..\lvgl\version_6.1.2\lvgl\src\lv_objx/lv_cont.c ****     return ext->fit_left;
 199:..\..\..\lvgl\version_6.1.2\lvgl\src\lv_objx/lv_cont.c **** }
 200:..\..\..\lvgl\version_6.1.2\lvgl\src\lv_objx/lv_cont.c **** 
 201:..\..\..\lvgl\version_6.1.2\lvgl\src\lv_objx/lv_cont.c **** /**
ARM GAS  C:\Users\pearlstl\AppData\Local\Temp\cciL9yyu.s 			page 5


 202:..\..\..\lvgl\version_6.1.2\lvgl\src\lv_objx/lv_cont.c ****  * Get right fit mode of a container
 203:..\..\..\lvgl\version_6.1.2\lvgl\src\lv_objx/lv_cont.c ****  * @param cont pointer to a container object
 204:..\..\..\lvgl\version_6.1.2\lvgl\src\lv_objx/lv_cont.c ****  * @return an element of `lv_fit_t`
 205:..\..\..\lvgl\version_6.1.2\lvgl\src\lv_objx/lv_cont.c ****  */
 206:..\..\..\lvgl\version_6.1.2\lvgl\src\lv_objx/lv_cont.c **** lv_fit_t lv_cont_get_fit_right(const lv_obj_t * cont)
 207:..\..\..\lvgl\version_6.1.2\lvgl\src\lv_objx/lv_cont.c **** {
 208:..\..\..\lvgl\version_6.1.2\lvgl\src\lv_objx/lv_cont.c ****     LV_ASSERT_OBJ(cont, LV_OBJX_NAME);
 209:..\..\..\lvgl\version_6.1.2\lvgl\src\lv_objx/lv_cont.c **** 
 210:..\..\..\lvgl\version_6.1.2\lvgl\src\lv_objx/lv_cont.c ****     lv_cont_ext_t * ext = lv_obj_get_ext_attr(cont);
 211:..\..\..\lvgl\version_6.1.2\lvgl\src\lv_objx/lv_cont.c ****     return ext->fit_right;
 212:..\..\..\lvgl\version_6.1.2\lvgl\src\lv_objx/lv_cont.c **** }
 213:..\..\..\lvgl\version_6.1.2\lvgl\src\lv_objx/lv_cont.c **** 
 214:..\..\..\lvgl\version_6.1.2\lvgl\src\lv_objx/lv_cont.c **** /**
 215:..\..\..\lvgl\version_6.1.2\lvgl\src\lv_objx/lv_cont.c ****  * Get top fit mode of a container
 216:..\..\..\lvgl\version_6.1.2\lvgl\src\lv_objx/lv_cont.c ****  * @param cont pointer to a container object
 217:..\..\..\lvgl\version_6.1.2\lvgl\src\lv_objx/lv_cont.c ****  * @return an element of `lv_fit_t`
 218:..\..\..\lvgl\version_6.1.2\lvgl\src\lv_objx/lv_cont.c ****  */
 219:..\..\..\lvgl\version_6.1.2\lvgl\src\lv_objx/lv_cont.c **** lv_fit_t lv_cont_get_fit_top(const lv_obj_t * cont)
 220:..\..\..\lvgl\version_6.1.2\lvgl\src\lv_objx/lv_cont.c **** {
 221:..\..\..\lvgl\version_6.1.2\lvgl\src\lv_objx/lv_cont.c ****     LV_ASSERT_OBJ(cont, LV_OBJX_NAME);
 222:..\..\..\lvgl\version_6.1.2\lvgl\src\lv_objx/lv_cont.c **** 
 223:..\..\..\lvgl\version_6.1.2\lvgl\src\lv_objx/lv_cont.c ****     lv_cont_ext_t * ext = lv_obj_get_ext_attr(cont);
 224:..\..\..\lvgl\version_6.1.2\lvgl\src\lv_objx/lv_cont.c ****     return ext->fit_top;
 225:..\..\..\lvgl\version_6.1.2\lvgl\src\lv_objx/lv_cont.c **** }
 226:..\..\..\lvgl\version_6.1.2\lvgl\src\lv_objx/lv_cont.c **** 
 227:..\..\..\lvgl\version_6.1.2\lvgl\src\lv_objx/lv_cont.c **** /**
 228:..\..\..\lvgl\version_6.1.2\lvgl\src\lv_objx/lv_cont.c ****  * Get bottom fit mode of a container
 229:..\..\..\lvgl\version_6.1.2\lvgl\src\lv_objx/lv_cont.c ****  * @param cont pointer to a container object
 230:..\..\..\lvgl\version_6.1.2\lvgl\src\lv_objx/lv_cont.c ****  * @return an element of `lv_fit_t`
 231:..\..\..\lvgl\version_6.1.2\lvgl\src\lv_objx/lv_cont.c ****  */
 232:..\..\..\lvgl\version_6.1.2\lvgl\src\lv_objx/lv_cont.c **** lv_fit_t lv_cont_get_fit_bottom(const lv_obj_t * cont)
 233:..\..\..\lvgl\version_6.1.2\lvgl\src\lv_objx/lv_cont.c **** {
 234:..\..\..\lvgl\version_6.1.2\lvgl\src\lv_objx/lv_cont.c ****     LV_ASSERT_OBJ(cont, LV_OBJX_NAME);
 235:..\..\..\lvgl\version_6.1.2\lvgl\src\lv_objx/lv_cont.c **** 
 236:..\..\..\lvgl\version_6.1.2\lvgl\src\lv_objx/lv_cont.c ****     lv_cont_ext_t * ext = lv_obj_get_ext_attr(cont);
 237:..\..\..\lvgl\version_6.1.2\lvgl\src\lv_objx/lv_cont.c ****     return ext->fit_bottom;
 238:..\..\..\lvgl\version_6.1.2\lvgl\src\lv_objx/lv_cont.c **** }
 239:..\..\..\lvgl\version_6.1.2\lvgl\src\lv_objx/lv_cont.c **** 
 240:..\..\..\lvgl\version_6.1.2\lvgl\src\lv_objx/lv_cont.c **** /**********************
 241:..\..\..\lvgl\version_6.1.2\lvgl\src\lv_objx/lv_cont.c ****  *   STATIC FUNCTIONS
 242:..\..\..\lvgl\version_6.1.2\lvgl\src\lv_objx/lv_cont.c ****  **********************/
 243:..\..\..\lvgl\version_6.1.2\lvgl\src\lv_objx/lv_cont.c **** 
 244:..\..\..\lvgl\version_6.1.2\lvgl\src\lv_objx/lv_cont.c **** /**
 245:..\..\..\lvgl\version_6.1.2\lvgl\src\lv_objx/lv_cont.c ****  * Signal function of the container
 246:..\..\..\lvgl\version_6.1.2\lvgl\src\lv_objx/lv_cont.c ****  * @param cont pointer to a container object
 247:..\..\..\lvgl\version_6.1.2\lvgl\src\lv_objx/lv_cont.c ****  * @param sign a signal type from lv_signal_t enum
 248:..\..\..\lvgl\version_6.1.2\lvgl\src\lv_objx/lv_cont.c ****  * @param param pointer to a signal specific variable
 249:..\..\..\lvgl\version_6.1.2\lvgl\src\lv_objx/lv_cont.c ****  * @return LV_RES_OK: the object is not deleted in the function; LV_RES_INV: the object is deleted
 250:..\..\..\lvgl\version_6.1.2\lvgl\src\lv_objx/lv_cont.c ****  */
 251:..\..\..\lvgl\version_6.1.2\lvgl\src\lv_objx/lv_cont.c **** static lv_res_t lv_cont_signal(lv_obj_t * cont, lv_signal_t sign, void * param)
 252:..\..\..\lvgl\version_6.1.2\lvgl\src\lv_objx/lv_cont.c **** {
 253:..\..\..\lvgl\version_6.1.2\lvgl\src\lv_objx/lv_cont.c ****     lv_res_t res;
 254:..\..\..\lvgl\version_6.1.2\lvgl\src\lv_objx/lv_cont.c **** 
 255:..\..\..\lvgl\version_6.1.2\lvgl\src\lv_objx/lv_cont.c ****     /* Include the ancient signal function */
 256:..\..\..\lvgl\version_6.1.2\lvgl\src\lv_objx/lv_cont.c ****     res = ancestor_signal(cont, sign, param);
 257:..\..\..\lvgl\version_6.1.2\lvgl\src\lv_objx/lv_cont.c ****     if(res != LV_RES_OK) return res;
 258:..\..\..\lvgl\version_6.1.2\lvgl\src\lv_objx/lv_cont.c ****     if(sign == LV_SIGNAL_GET_TYPE) return lv_obj_handle_get_type_signal(param, LV_OBJX_NAME);
ARM GAS  C:\Users\pearlstl\AppData\Local\Temp\cciL9yyu.s 			page 6


 259:..\..\..\lvgl\version_6.1.2\lvgl\src\lv_objx/lv_cont.c **** 
 260:..\..\..\lvgl\version_6.1.2\lvgl\src\lv_objx/lv_cont.c ****     if(sign == LV_SIGNAL_STYLE_CHG) { /*Recalculate the padding if the style changed*/
 261:..\..\..\lvgl\version_6.1.2\lvgl\src\lv_objx/lv_cont.c ****         lv_cont_refr_layout(cont);
 262:..\..\..\lvgl\version_6.1.2\lvgl\src\lv_objx/lv_cont.c ****         lv_cont_refr_autofit(cont);
 263:..\..\..\lvgl\version_6.1.2\lvgl\src\lv_objx/lv_cont.c ****     } else if(sign == LV_SIGNAL_CHILD_CHG) {
 264:..\..\..\lvgl\version_6.1.2\lvgl\src\lv_objx/lv_cont.c ****         lv_cont_refr_layout(cont);
 265:..\..\..\lvgl\version_6.1.2\lvgl\src\lv_objx/lv_cont.c ****         lv_cont_refr_autofit(cont);
 266:..\..\..\lvgl\version_6.1.2\lvgl\src\lv_objx/lv_cont.c ****     } else if(sign == LV_SIGNAL_CORD_CHG) {
 267:..\..\..\lvgl\version_6.1.2\lvgl\src\lv_objx/lv_cont.c ****         if(lv_obj_get_width(cont) != lv_area_get_width(param) || lv_obj_get_height(cont) != lv_area
 268:..\..\..\lvgl\version_6.1.2\lvgl\src\lv_objx/lv_cont.c ****             lv_cont_refr_layout(cont);
 269:..\..\..\lvgl\version_6.1.2\lvgl\src\lv_objx/lv_cont.c ****             lv_cont_refr_autofit(cont);
 270:..\..\..\lvgl\version_6.1.2\lvgl\src\lv_objx/lv_cont.c ****         }
 271:..\..\..\lvgl\version_6.1.2\lvgl\src\lv_objx/lv_cont.c ****     } else if(sign == LV_SIGNAL_PARENT_SIZE_CHG) {
 272:..\..\..\lvgl\version_6.1.2\lvgl\src\lv_objx/lv_cont.c ****         /*FLOOD and FILL fit needs to be refreshed if the parent size has changed*/
 273:..\..\..\lvgl\version_6.1.2\lvgl\src\lv_objx/lv_cont.c ****         lv_cont_refr_autofit(cont);
 274:..\..\..\lvgl\version_6.1.2\lvgl\src\lv_objx/lv_cont.c **** 
 275:..\..\..\lvgl\version_6.1.2\lvgl\src\lv_objx/lv_cont.c ****     }
 276:..\..\..\lvgl\version_6.1.2\lvgl\src\lv_objx/lv_cont.c **** 
 277:..\..\..\lvgl\version_6.1.2\lvgl\src\lv_objx/lv_cont.c ****     return res;
 278:..\..\..\lvgl\version_6.1.2\lvgl\src\lv_objx/lv_cont.c **** }
 279:..\..\..\lvgl\version_6.1.2\lvgl\src\lv_objx/lv_cont.c **** 
 280:..\..\..\lvgl\version_6.1.2\lvgl\src\lv_objx/lv_cont.c **** /**
 281:..\..\..\lvgl\version_6.1.2\lvgl\src\lv_objx/lv_cont.c ****  * Refresh the layout of a container
 282:..\..\..\lvgl\version_6.1.2\lvgl\src\lv_objx/lv_cont.c ****  * @param cont pointer to an object which layout should be refreshed
 283:..\..\..\lvgl\version_6.1.2\lvgl\src\lv_objx/lv_cont.c ****  */
 284:..\..\..\lvgl\version_6.1.2\lvgl\src\lv_objx/lv_cont.c **** static void lv_cont_refr_layout(lv_obj_t * cont)
 285:..\..\..\lvgl\version_6.1.2\lvgl\src\lv_objx/lv_cont.c **** {
  28              		.loc 1 285 0
  29              		.cfi_startproc
  30              		@ args = 0, pretend = 0, frame = 16
  31              		@ frame_needed = 0, uses_anonymous_args = 0
  32              	.LVL0:
  33 0000 2DE9F04F 		push	{r4, r5, r6, r7, r8, r9, r10, fp, lr}
  34              		.cfi_def_cfa_offset 36
  35              		.cfi_offset 4, -36
  36              		.cfi_offset 5, -32
  37              		.cfi_offset 6, -28
  38              		.cfi_offset 7, -24
  39              		.cfi_offset 8, -20
  40              		.cfi_offset 9, -16
  41              		.cfi_offset 10, -12
  42              		.cfi_offset 11, -8
  43              		.cfi_offset 14, -4
  44 0004 87B0     		sub	sp, sp, #28
  45              		.cfi_def_cfa_offset 64
  46              		.loc 1 285 0
  47 0006 8146     		mov	r9, r0
  48              	.LVL1:
  49              	.LBB43:
  50              	.LBB44:
 184:..\..\..\lvgl\version_6.1.2\lvgl\src\lv_objx/lv_cont.c ****     return ext->layout;
  51              		.loc 1 184 0
  52 0008 FFF7FEFF 		bl	lv_obj_get_ext_attr
  53              	.LVL2:
  54              	.LBE44:
  55              	.LBE43:
 286:..\..\..\lvgl\version_6.1.2\lvgl\src\lv_objx/lv_cont.c ****     lv_layout_t type = lv_cont_get_layout(cont);
ARM GAS  C:\Users\pearlstl\AppData\Local\Temp\cciL9yyu.s 			page 7


 287:..\..\..\lvgl\version_6.1.2\lvgl\src\lv_objx/lv_cont.c **** 
 288:..\..\..\lvgl\version_6.1.2\lvgl\src\lv_objx/lv_cont.c ****     /*'cont' has to be at least 1 child*/
 289:..\..\..\lvgl\version_6.1.2\lvgl\src\lv_objx/lv_cont.c ****     if(lv_obj_get_child(cont, NULL) == NULL) return;
  56              		.loc 1 289 0
  57 000c 0021     		movs	r1, #0
  58              	.LBB46:
  59              	.LBB45:
 185:..\..\..\lvgl\version_6.1.2\lvgl\src\lv_objx/lv_cont.c **** }
  60              		.loc 1 185 0
  61 000e 0478     		ldrb	r4, [r0]	@ zero_extendqisi2
  62              	.LBE45:
  63              	.LBE46:
  64              		.loc 1 289 0
  65 0010 4846     		mov	r0, r9
  66              	.LVL3:
  67 0012 FFF7FEFF 		bl	lv_obj_get_child
  68              	.LVL4:
  69 0016 88B1     		cbz	r0, .L1
  70 0018 04F00F04 		and	r4, r4, #15
 290:..\..\..\lvgl\version_6.1.2\lvgl\src\lv_objx/lv_cont.c **** 
 291:..\..\..\lvgl\version_6.1.2\lvgl\src\lv_objx/lv_cont.c ****     if(type == LV_LAYOUT_OFF) return;
  71              		.loc 1 291 0
  72 001c 74B1     		cbz	r4, .L1
 292:..\..\..\lvgl\version_6.1.2\lvgl\src\lv_objx/lv_cont.c **** 
 293:..\..\..\lvgl\version_6.1.2\lvgl\src\lv_objx/lv_cont.c ****     if(type == LV_LAYOUT_CENTER) {
  73              		.loc 1 293 0
  74 001e 012C     		cmp	r4, #1
  75 0020 76D0     		beq	.L113
 294:..\..\..\lvgl\version_6.1.2\lvgl\src\lv_objx/lv_cont.c ****         lv_cont_layout_center(cont);
 295:..\..\..\lvgl\version_6.1.2\lvgl\src\lv_objx/lv_cont.c ****     } else if(type == LV_LAYOUT_COL_L || type == LV_LAYOUT_COL_M || type == LV_LAYOUT_COL_R) {
  76              		.loc 1 295 0
  77 0022 A31E     		subs	r3, r4, #2
  78 0024 022B     		cmp	r3, #2
  79 0026 40F2A180 		bls	.L114
 296:..\..\..\lvgl\version_6.1.2\lvgl\src\lv_objx/lv_cont.c ****         lv_cont_layout_col(cont);
 297:..\..\..\lvgl\version_6.1.2\lvgl\src\lv_objx/lv_cont.c ****     } else if(type == LV_LAYOUT_ROW_T || type == LV_LAYOUT_ROW_M || type == LV_LAYOUT_ROW_B) {
  80              		.loc 1 297 0
  81 002a 631F     		subs	r3, r4, #5
  82 002c 022B     		cmp	r3, #2
  83 002e 40F2E580 		bls	.L115
 298:..\..\..\lvgl\version_6.1.2\lvgl\src\lv_objx/lv_cont.c ****         lv_cont_layout_row(cont);
 299:..\..\..\lvgl\version_6.1.2\lvgl\src\lv_objx/lv_cont.c ****     } else if(type == LV_LAYOUT_PRETTY) {
  84              		.loc 1 299 0
  85 0032 082C     		cmp	r4, #8
  86 0034 00F03582 		beq	.L116
 300:..\..\..\lvgl\version_6.1.2\lvgl\src\lv_objx/lv_cont.c ****         lv_cont_layout_pretty(cont);
 301:..\..\..\lvgl\version_6.1.2\lvgl\src\lv_objx/lv_cont.c ****     } else if(type == LV_LAYOUT_GRID) {
  87              		.loc 1 301 0
  88 0038 092C     		cmp	r4, #9
  89 003a 02D0     		beq	.L117
  90              	.L1:
 302:..\..\..\lvgl\version_6.1.2\lvgl\src\lv_objx/lv_cont.c ****         lv_cont_layout_grid(cont);
 303:..\..\..\lvgl\version_6.1.2\lvgl\src\lv_objx/lv_cont.c ****     }
 304:..\..\..\lvgl\version_6.1.2\lvgl\src\lv_objx/lv_cont.c **** }
  91              		.loc 1 304 0
  92 003c 07B0     		add	sp, sp, #28
  93              		.cfi_remember_state
ARM GAS  C:\Users\pearlstl\AppData\Local\Temp\cciL9yyu.s 			page 8


  94              		.cfi_def_cfa_offset 36
  95              		@ sp needed
  96 003e BDE8F08F 		pop	{r4, r5, r6, r7, r8, r9, r10, fp, pc}
  97              	.LVL5:
  98              	.L117:
  99              		.cfi_restore_state
 100              	.LBB47:
 101              	.LBB48:
 305:..\..\..\lvgl\version_6.1.2\lvgl\src\lv_objx/lv_cont.c **** 
 306:..\..\..\lvgl\version_6.1.2\lvgl\src\lv_objx/lv_cont.c **** /**
 307:..\..\..\lvgl\version_6.1.2\lvgl\src\lv_objx/lv_cont.c ****  * Handle column type layouts
 308:..\..\..\lvgl\version_6.1.2\lvgl\src\lv_objx/lv_cont.c ****  * @param cont pointer to an object which layout should be handled
 309:..\..\..\lvgl\version_6.1.2\lvgl\src\lv_objx/lv_cont.c ****  */
 310:..\..\..\lvgl\version_6.1.2\lvgl\src\lv_objx/lv_cont.c **** static void lv_cont_layout_col(lv_obj_t * cont)
 311:..\..\..\lvgl\version_6.1.2\lvgl\src\lv_objx/lv_cont.c **** {
 312:..\..\..\lvgl\version_6.1.2\lvgl\src\lv_objx/lv_cont.c ****     lv_layout_t type = lv_cont_get_layout(cont);
 313:..\..\..\lvgl\version_6.1.2\lvgl\src\lv_objx/lv_cont.c ****     lv_obj_t * child;
 314:..\..\..\lvgl\version_6.1.2\lvgl\src\lv_objx/lv_cont.c **** 
 315:..\..\..\lvgl\version_6.1.2\lvgl\src\lv_objx/lv_cont.c ****     /*Adjust margin and get the alignment type*/
 316:..\..\..\lvgl\version_6.1.2\lvgl\src\lv_objx/lv_cont.c ****     lv_align_t align;
 317:..\..\..\lvgl\version_6.1.2\lvgl\src\lv_objx/lv_cont.c ****     const lv_style_t * style = lv_obj_get_style(cont);
 318:..\..\..\lvgl\version_6.1.2\lvgl\src\lv_objx/lv_cont.c ****     lv_coord_t hpad_corr;
 319:..\..\..\lvgl\version_6.1.2\lvgl\src\lv_objx/lv_cont.c **** 
 320:..\..\..\lvgl\version_6.1.2\lvgl\src\lv_objx/lv_cont.c ****     switch(type) {
 321:..\..\..\lvgl\version_6.1.2\lvgl\src\lv_objx/lv_cont.c ****         case LV_LAYOUT_COL_L:
 322:..\..\..\lvgl\version_6.1.2\lvgl\src\lv_objx/lv_cont.c ****             hpad_corr = style->body.padding.left;
 323:..\..\..\lvgl\version_6.1.2\lvgl\src\lv_objx/lv_cont.c ****             align     = LV_ALIGN_IN_TOP_LEFT;
 324:..\..\..\lvgl\version_6.1.2\lvgl\src\lv_objx/lv_cont.c ****             break;
 325:..\..\..\lvgl\version_6.1.2\lvgl\src\lv_objx/lv_cont.c ****         case LV_LAYOUT_COL_M:
 326:..\..\..\lvgl\version_6.1.2\lvgl\src\lv_objx/lv_cont.c ****             hpad_corr = 0;
 327:..\..\..\lvgl\version_6.1.2\lvgl\src\lv_objx/lv_cont.c ****             align     = LV_ALIGN_IN_TOP_MID;
 328:..\..\..\lvgl\version_6.1.2\lvgl\src\lv_objx/lv_cont.c ****             break;
 329:..\..\..\lvgl\version_6.1.2\lvgl\src\lv_objx/lv_cont.c ****         case LV_LAYOUT_COL_R:
 330:..\..\..\lvgl\version_6.1.2\lvgl\src\lv_objx/lv_cont.c ****             hpad_corr = -style->body.padding.right;
 331:..\..\..\lvgl\version_6.1.2\lvgl\src\lv_objx/lv_cont.c ****             align     = LV_ALIGN_IN_TOP_RIGHT;
 332:..\..\..\lvgl\version_6.1.2\lvgl\src\lv_objx/lv_cont.c ****             break;
 333:..\..\..\lvgl\version_6.1.2\lvgl\src\lv_objx/lv_cont.c ****         default:
 334:..\..\..\lvgl\version_6.1.2\lvgl\src\lv_objx/lv_cont.c ****             hpad_corr = 0;
 335:..\..\..\lvgl\version_6.1.2\lvgl\src\lv_objx/lv_cont.c ****             align     = LV_ALIGN_IN_TOP_LEFT;
 336:..\..\..\lvgl\version_6.1.2\lvgl\src\lv_objx/lv_cont.c ****             break;
 337:..\..\..\lvgl\version_6.1.2\lvgl\src\lv_objx/lv_cont.c ****     }
 338:..\..\..\lvgl\version_6.1.2\lvgl\src\lv_objx/lv_cont.c **** 
 339:..\..\..\lvgl\version_6.1.2\lvgl\src\lv_objx/lv_cont.c ****     /* Disable child change action because the children will be moved a lot
 340:..\..\..\lvgl\version_6.1.2\lvgl\src\lv_objx/lv_cont.c ****      * an unnecessary child change signals could be sent*/
 341:..\..\..\lvgl\version_6.1.2\lvgl\src\lv_objx/lv_cont.c ****     lv_obj_set_protect(cont, LV_PROTECT_CHILD_CHG);
 342:..\..\..\lvgl\version_6.1.2\lvgl\src\lv_objx/lv_cont.c ****     /* Align the children */
 343:..\..\..\lvgl\version_6.1.2\lvgl\src\lv_objx/lv_cont.c ****     lv_coord_t last_cord = style->body.padding.top;
 344:..\..\..\lvgl\version_6.1.2\lvgl\src\lv_objx/lv_cont.c ****     LV_LL_READ_BACK(cont->child_ll, child)
 345:..\..\..\lvgl\version_6.1.2\lvgl\src\lv_objx/lv_cont.c ****     {
 346:..\..\..\lvgl\version_6.1.2\lvgl\src\lv_objx/lv_cont.c ****         if(lv_obj_get_hidden(child) != false || lv_obj_is_protected(child, LV_PROTECT_POS) != false
 347:..\..\..\lvgl\version_6.1.2\lvgl\src\lv_objx/lv_cont.c **** 
 348:..\..\..\lvgl\version_6.1.2\lvgl\src\lv_objx/lv_cont.c ****         lv_obj_align(child, cont, align, hpad_corr, last_cord);
 349:..\..\..\lvgl\version_6.1.2\lvgl\src\lv_objx/lv_cont.c ****         last_cord += lv_obj_get_height(child) + style->body.padding.inner;
 350:..\..\..\lvgl\version_6.1.2\lvgl\src\lv_objx/lv_cont.c ****     }
 351:..\..\..\lvgl\version_6.1.2\lvgl\src\lv_objx/lv_cont.c **** 
 352:..\..\..\lvgl\version_6.1.2\lvgl\src\lv_objx/lv_cont.c ****     lv_obj_clear_protect(cont, LV_PROTECT_CHILD_CHG);
 353:..\..\..\lvgl\version_6.1.2\lvgl\src\lv_objx/lv_cont.c **** }
ARM GAS  C:\Users\pearlstl\AppData\Local\Temp\cciL9yyu.s 			page 9


 354:..\..\..\lvgl\version_6.1.2\lvgl\src\lv_objx/lv_cont.c **** 
 355:..\..\..\lvgl\version_6.1.2\lvgl\src\lv_objx/lv_cont.c **** /**
 356:..\..\..\lvgl\version_6.1.2\lvgl\src\lv_objx/lv_cont.c ****  * Handle row type layouts
 357:..\..\..\lvgl\version_6.1.2\lvgl\src\lv_objx/lv_cont.c ****  * @param cont pointer to an object which layout should be handled
 358:..\..\..\lvgl\version_6.1.2\lvgl\src\lv_objx/lv_cont.c ****  */
 359:..\..\..\lvgl\version_6.1.2\lvgl\src\lv_objx/lv_cont.c **** static void lv_cont_layout_row(lv_obj_t * cont)
 360:..\..\..\lvgl\version_6.1.2\lvgl\src\lv_objx/lv_cont.c **** {
 361:..\..\..\lvgl\version_6.1.2\lvgl\src\lv_objx/lv_cont.c ****     lv_layout_t type = lv_cont_get_layout(cont);
 362:..\..\..\lvgl\version_6.1.2\lvgl\src\lv_objx/lv_cont.c ****     lv_obj_t * child;
 363:..\..\..\lvgl\version_6.1.2\lvgl\src\lv_objx/lv_cont.c **** 
 364:..\..\..\lvgl\version_6.1.2\lvgl\src\lv_objx/lv_cont.c ****     /*Adjust margin and get the alignment type*/
 365:..\..\..\lvgl\version_6.1.2\lvgl\src\lv_objx/lv_cont.c ****     lv_align_t align;
 366:..\..\..\lvgl\version_6.1.2\lvgl\src\lv_objx/lv_cont.c ****     const lv_style_t * style = lv_obj_get_style(cont);
 367:..\..\..\lvgl\version_6.1.2\lvgl\src\lv_objx/lv_cont.c ****     lv_coord_t vpad_corr;
 368:..\..\..\lvgl\version_6.1.2\lvgl\src\lv_objx/lv_cont.c ****     lv_bidi_dir_t base_dir = lv_obj_get_base_dir(cont);
 369:..\..\..\lvgl\version_6.1.2\lvgl\src\lv_objx/lv_cont.c ****     switch(type) {
 370:..\..\..\lvgl\version_6.1.2\lvgl\src\lv_objx/lv_cont.c ****         case LV_LAYOUT_ROW_T:
 371:..\..\..\lvgl\version_6.1.2\lvgl\src\lv_objx/lv_cont.c ****             vpad_corr = style->body.padding.top;
 372:..\..\..\lvgl\version_6.1.2\lvgl\src\lv_objx/lv_cont.c ****             align     = base_dir == LV_BIDI_DIR_RTL ? LV_ALIGN_IN_TOP_RIGHT : LV_ALIGN_IN_TOP_LEFT;
 373:..\..\..\lvgl\version_6.1.2\lvgl\src\lv_objx/lv_cont.c ****             break;
 374:..\..\..\lvgl\version_6.1.2\lvgl\src\lv_objx/lv_cont.c ****         case LV_LAYOUT_ROW_M:
 375:..\..\..\lvgl\version_6.1.2\lvgl\src\lv_objx/lv_cont.c ****             vpad_corr = 0;
 376:..\..\..\lvgl\version_6.1.2\lvgl\src\lv_objx/lv_cont.c ****             align     = base_dir == LV_BIDI_DIR_RTL ? LV_ALIGN_IN_RIGHT_MID: LV_ALIGN_IN_LEFT_MID;
 377:..\..\..\lvgl\version_6.1.2\lvgl\src\lv_objx/lv_cont.c ****             break;
 378:..\..\..\lvgl\version_6.1.2\lvgl\src\lv_objx/lv_cont.c ****         case LV_LAYOUT_ROW_B:
 379:..\..\..\lvgl\version_6.1.2\lvgl\src\lv_objx/lv_cont.c ****             vpad_corr = -style->body.padding.bottom;
 380:..\..\..\lvgl\version_6.1.2\lvgl\src\lv_objx/lv_cont.c ****             align     = base_dir == LV_BIDI_DIR_RTL ? LV_ALIGN_IN_BOTTOM_RIGHT: LV_ALIGN_IN_BOTTOM_
 381:..\..\..\lvgl\version_6.1.2\lvgl\src\lv_objx/lv_cont.c ****             break;
 382:..\..\..\lvgl\version_6.1.2\lvgl\src\lv_objx/lv_cont.c ****         default:
 383:..\..\..\lvgl\version_6.1.2\lvgl\src\lv_objx/lv_cont.c ****             vpad_corr = 0;
 384:..\..\..\lvgl\version_6.1.2\lvgl\src\lv_objx/lv_cont.c ****             align     = base_dir == LV_BIDI_DIR_RTL ? LV_ALIGN_IN_TOP_RIGHT : LV_ALIGN_IN_TOP_LEFT;
 385:..\..\..\lvgl\version_6.1.2\lvgl\src\lv_objx/lv_cont.c ****             break;
 386:..\..\..\lvgl\version_6.1.2\lvgl\src\lv_objx/lv_cont.c ****     }
 387:..\..\..\lvgl\version_6.1.2\lvgl\src\lv_objx/lv_cont.c **** 
 388:..\..\..\lvgl\version_6.1.2\lvgl\src\lv_objx/lv_cont.c ****     /* Disable child change action because the children will be moved a lot
 389:..\..\..\lvgl\version_6.1.2\lvgl\src\lv_objx/lv_cont.c ****      * an unnecessary child change signals could be sent*/
 390:..\..\..\lvgl\version_6.1.2\lvgl\src\lv_objx/lv_cont.c ****     lv_obj_set_protect(cont, LV_PROTECT_CHILD_CHG);
 391:..\..\..\lvgl\version_6.1.2\lvgl\src\lv_objx/lv_cont.c **** 
 392:..\..\..\lvgl\version_6.1.2\lvgl\src\lv_objx/lv_cont.c ****     /* Align the children */
 393:..\..\..\lvgl\version_6.1.2\lvgl\src\lv_objx/lv_cont.c ****     lv_coord_t last_cord;
 394:..\..\..\lvgl\version_6.1.2\lvgl\src\lv_objx/lv_cont.c ****     if(base_dir == LV_BIDI_DIR_RTL) last_cord = style->body.padding.right;
 395:..\..\..\lvgl\version_6.1.2\lvgl\src\lv_objx/lv_cont.c ****     else last_cord = style->body.padding.left;
 396:..\..\..\lvgl\version_6.1.2\lvgl\src\lv_objx/lv_cont.c **** 
 397:..\..\..\lvgl\version_6.1.2\lvgl\src\lv_objx/lv_cont.c ****     LV_LL_READ_BACK(cont->child_ll, child)
 398:..\..\..\lvgl\version_6.1.2\lvgl\src\lv_objx/lv_cont.c ****     {
 399:..\..\..\lvgl\version_6.1.2\lvgl\src\lv_objx/lv_cont.c ****         if(lv_obj_get_hidden(child) != false || lv_obj_is_protected(child, LV_PROTECT_POS) != false
 400:..\..\..\lvgl\version_6.1.2\lvgl\src\lv_objx/lv_cont.c **** 
 401:..\..\..\lvgl\version_6.1.2\lvgl\src\lv_objx/lv_cont.c **** //        last_cord -= lv_obj_get_width(child);
 402:..\..\..\lvgl\version_6.1.2\lvgl\src\lv_objx/lv_cont.c **** 
 403:..\..\..\lvgl\version_6.1.2\lvgl\src\lv_objx/lv_cont.c ****         if(base_dir == LV_BIDI_DIR_RTL) lv_obj_align(child, cont, align, -last_cord, vpad_corr);
 404:..\..\..\lvgl\version_6.1.2\lvgl\src\lv_objx/lv_cont.c ****         else lv_obj_align(child, cont, align, last_cord, vpad_corr);
 405:..\..\..\lvgl\version_6.1.2\lvgl\src\lv_objx/lv_cont.c **** 
 406:..\..\..\lvgl\version_6.1.2\lvgl\src\lv_objx/lv_cont.c ****         last_cord += lv_obj_get_width(child) + style->body.padding.inner;
 407:..\..\..\lvgl\version_6.1.2\lvgl\src\lv_objx/lv_cont.c ****     }
 408:..\..\..\lvgl\version_6.1.2\lvgl\src\lv_objx/lv_cont.c **** 
 409:..\..\..\lvgl\version_6.1.2\lvgl\src\lv_objx/lv_cont.c ****     lv_obj_clear_protect(cont, LV_PROTECT_CHILD_CHG);
 410:..\..\..\lvgl\version_6.1.2\lvgl\src\lv_objx/lv_cont.c **** }
ARM GAS  C:\Users\pearlstl\AppData\Local\Temp\cciL9yyu.s 			page 10


 411:..\..\..\lvgl\version_6.1.2\lvgl\src\lv_objx/lv_cont.c **** 
 412:..\..\..\lvgl\version_6.1.2\lvgl\src\lv_objx/lv_cont.c **** /**
 413:..\..\..\lvgl\version_6.1.2\lvgl\src\lv_objx/lv_cont.c ****  * Handle the center layout
 414:..\..\..\lvgl\version_6.1.2\lvgl\src\lv_objx/lv_cont.c ****  * @param cont pointer to an object which layout should be handled
 415:..\..\..\lvgl\version_6.1.2\lvgl\src\lv_objx/lv_cont.c ****  */
 416:..\..\..\lvgl\version_6.1.2\lvgl\src\lv_objx/lv_cont.c **** static void lv_cont_layout_center(lv_obj_t * cont)
 417:..\..\..\lvgl\version_6.1.2\lvgl\src\lv_objx/lv_cont.c **** {
 418:..\..\..\lvgl\version_6.1.2\lvgl\src\lv_objx/lv_cont.c ****     lv_obj_t * child;
 419:..\..\..\lvgl\version_6.1.2\lvgl\src\lv_objx/lv_cont.c ****     const lv_style_t * style = lv_obj_get_style(cont);
 420:..\..\..\lvgl\version_6.1.2\lvgl\src\lv_objx/lv_cont.c ****     uint32_t obj_num         = 0;
 421:..\..\..\lvgl\version_6.1.2\lvgl\src\lv_objx/lv_cont.c ****     lv_coord_t h_tot         = 0;
 422:..\..\..\lvgl\version_6.1.2\lvgl\src\lv_objx/lv_cont.c **** 
 423:..\..\..\lvgl\version_6.1.2\lvgl\src\lv_objx/lv_cont.c ****     LV_LL_READ(cont->child_ll, child)
 424:..\..\..\lvgl\version_6.1.2\lvgl\src\lv_objx/lv_cont.c ****     {
 425:..\..\..\lvgl\version_6.1.2\lvgl\src\lv_objx/lv_cont.c ****         if(lv_obj_get_hidden(child) != false || lv_obj_is_protected(child, LV_PROTECT_POS) != false
 426:..\..\..\lvgl\version_6.1.2\lvgl\src\lv_objx/lv_cont.c ****         h_tot += lv_obj_get_height(child) + style->body.padding.inner;
 427:..\..\..\lvgl\version_6.1.2\lvgl\src\lv_objx/lv_cont.c ****         obj_num++;
 428:..\..\..\lvgl\version_6.1.2\lvgl\src\lv_objx/lv_cont.c ****     }
 429:..\..\..\lvgl\version_6.1.2\lvgl\src\lv_objx/lv_cont.c **** 
 430:..\..\..\lvgl\version_6.1.2\lvgl\src\lv_objx/lv_cont.c ****     if(obj_num == 0) return;
 431:..\..\..\lvgl\version_6.1.2\lvgl\src\lv_objx/lv_cont.c **** 
 432:..\..\..\lvgl\version_6.1.2\lvgl\src\lv_objx/lv_cont.c ****     h_tot -= style->body.padding.inner;
 433:..\..\..\lvgl\version_6.1.2\lvgl\src\lv_objx/lv_cont.c **** 
 434:..\..\..\lvgl\version_6.1.2\lvgl\src\lv_objx/lv_cont.c ****     /* Disable child change action because the children will be moved a lot
 435:..\..\..\lvgl\version_6.1.2\lvgl\src\lv_objx/lv_cont.c ****      * an unnecessary child change signals could be sent*/
 436:..\..\..\lvgl\version_6.1.2\lvgl\src\lv_objx/lv_cont.c ****     lv_obj_set_protect(cont, LV_PROTECT_CHILD_CHG);
 437:..\..\..\lvgl\version_6.1.2\lvgl\src\lv_objx/lv_cont.c **** 
 438:..\..\..\lvgl\version_6.1.2\lvgl\src\lv_objx/lv_cont.c ****     /* Align the children */
 439:..\..\..\lvgl\version_6.1.2\lvgl\src\lv_objx/lv_cont.c ****     lv_coord_t last_cord = -(h_tot / 2);
 440:..\..\..\lvgl\version_6.1.2\lvgl\src\lv_objx/lv_cont.c ****     LV_LL_READ_BACK(cont->child_ll, child)
 441:..\..\..\lvgl\version_6.1.2\lvgl\src\lv_objx/lv_cont.c ****     {
 442:..\..\..\lvgl\version_6.1.2\lvgl\src\lv_objx/lv_cont.c ****         if(lv_obj_get_hidden(child) != false || lv_obj_is_protected(child, LV_PROTECT_POS) != false
 443:..\..\..\lvgl\version_6.1.2\lvgl\src\lv_objx/lv_cont.c **** 
 444:..\..\..\lvgl\version_6.1.2\lvgl\src\lv_objx/lv_cont.c ****         lv_obj_align(child, cont, LV_ALIGN_CENTER, 0, last_cord + lv_obj_get_height(child) / 2);
 445:..\..\..\lvgl\version_6.1.2\lvgl\src\lv_objx/lv_cont.c ****         last_cord += lv_obj_get_height(child) + style->body.padding.inner;
 446:..\..\..\lvgl\version_6.1.2\lvgl\src\lv_objx/lv_cont.c ****     }
 447:..\..\..\lvgl\version_6.1.2\lvgl\src\lv_objx/lv_cont.c **** 
 448:..\..\..\lvgl\version_6.1.2\lvgl\src\lv_objx/lv_cont.c ****     lv_obj_clear_protect(cont, LV_PROTECT_CHILD_CHG);
 449:..\..\..\lvgl\version_6.1.2\lvgl\src\lv_objx/lv_cont.c **** }
 450:..\..\..\lvgl\version_6.1.2\lvgl\src\lv_objx/lv_cont.c **** 
 451:..\..\..\lvgl\version_6.1.2\lvgl\src\lv_objx/lv_cont.c **** /**
 452:..\..\..\lvgl\version_6.1.2\lvgl\src\lv_objx/lv_cont.c ****  * Handle the pretty layout. Put as many object as possible in row
 453:..\..\..\lvgl\version_6.1.2\lvgl\src\lv_objx/lv_cont.c ****  * then begin a new row
 454:..\..\..\lvgl\version_6.1.2\lvgl\src\lv_objx/lv_cont.c ****  * @param cont pointer to an object which layout should be handled
 455:..\..\..\lvgl\version_6.1.2\lvgl\src\lv_objx/lv_cont.c ****  */
 456:..\..\..\lvgl\version_6.1.2\lvgl\src\lv_objx/lv_cont.c **** static void lv_cont_layout_pretty(lv_obj_t * cont)
 457:..\..\..\lvgl\version_6.1.2\lvgl\src\lv_objx/lv_cont.c **** {
 458:..\..\..\lvgl\version_6.1.2\lvgl\src\lv_objx/lv_cont.c ****     lv_obj_t * child_rs;  /* Row starter child */
 459:..\..\..\lvgl\version_6.1.2\lvgl\src\lv_objx/lv_cont.c ****     lv_obj_t * child_rc;  /* Row closer child */
 460:..\..\..\lvgl\version_6.1.2\lvgl\src\lv_objx/lv_cont.c ****     lv_obj_t * child_tmp; /* Temporary child */
 461:..\..\..\lvgl\version_6.1.2\lvgl\src\lv_objx/lv_cont.c ****     const lv_style_t * style = lv_obj_get_style(cont);
 462:..\..\..\lvgl\version_6.1.2\lvgl\src\lv_objx/lv_cont.c ****     lv_coord_t w_obj         = lv_obj_get_width(cont);
 463:..\..\..\lvgl\version_6.1.2\lvgl\src\lv_objx/lv_cont.c ****     lv_coord_t act_y         = style->body.padding.top;
 464:..\..\..\lvgl\version_6.1.2\lvgl\src\lv_objx/lv_cont.c ****     /* Disable child change action because the children will be moved a lot
 465:..\..\..\lvgl\version_6.1.2\lvgl\src\lv_objx/lv_cont.c ****      * an unnecessary child change signals could be sent*/
 466:..\..\..\lvgl\version_6.1.2\lvgl\src\lv_objx/lv_cont.c **** 
 467:..\..\..\lvgl\version_6.1.2\lvgl\src\lv_objx/lv_cont.c ****     child_rs = lv_ll_get_tail(&cont->child_ll); /*Set the row starter child*/
ARM GAS  C:\Users\pearlstl\AppData\Local\Temp\cciL9yyu.s 			page 11


 468:..\..\..\lvgl\version_6.1.2\lvgl\src\lv_objx/lv_cont.c ****     if(child_rs == NULL) return;                /*Return if no child*/
 469:..\..\..\lvgl\version_6.1.2\lvgl\src\lv_objx/lv_cont.c **** 
 470:..\..\..\lvgl\version_6.1.2\lvgl\src\lv_objx/lv_cont.c ****     lv_obj_set_protect(cont, LV_PROTECT_CHILD_CHG);
 471:..\..\..\lvgl\version_6.1.2\lvgl\src\lv_objx/lv_cont.c **** 
 472:..\..\..\lvgl\version_6.1.2\lvgl\src\lv_objx/lv_cont.c ****     child_rc = child_rs; /*Initially the the row starter and closer is the same*/
 473:..\..\..\lvgl\version_6.1.2\lvgl\src\lv_objx/lv_cont.c ****     while(child_rs != NULL) {
 474:..\..\..\lvgl\version_6.1.2\lvgl\src\lv_objx/lv_cont.c ****         lv_coord_t h_row = 0;
 475:..\..\..\lvgl\version_6.1.2\lvgl\src\lv_objx/lv_cont.c ****         lv_coord_t w_row =
 476:..\..\..\lvgl\version_6.1.2\lvgl\src\lv_objx/lv_cont.c ****             style->body.padding.left + style->body.padding.right; /*The width is at least the left+
 477:..\..\..\lvgl\version_6.1.2\lvgl\src\lv_objx/lv_cont.c ****         uint32_t obj_num = 0;
 478:..\..\..\lvgl\version_6.1.2\lvgl\src\lv_objx/lv_cont.c **** 
 479:..\..\..\lvgl\version_6.1.2\lvgl\src\lv_objx/lv_cont.c ****         /*Find the row closer object and collect some data*/
 480:..\..\..\lvgl\version_6.1.2\lvgl\src\lv_objx/lv_cont.c ****         do {
 481:..\..\..\lvgl\version_6.1.2\lvgl\src\lv_objx/lv_cont.c ****             if(lv_obj_get_hidden(child_rc) == false && lv_obj_is_protected(child_rc, LV_PROTECT_POS
 482:..\..\..\lvgl\version_6.1.2\lvgl\src\lv_objx/lv_cont.c ****                 /*If this object is already not fit then break*/
 483:..\..\..\lvgl\version_6.1.2\lvgl\src\lv_objx/lv_cont.c ****                 if(w_row + lv_obj_get_width(child_rc) > w_obj) {
 484:..\..\..\lvgl\version_6.1.2\lvgl\src\lv_objx/lv_cont.c ****                     /*Step back one child because the last already not fit, so the previous is the
 485:..\..\..\lvgl\version_6.1.2\lvgl\src\lv_objx/lv_cont.c ****                      * closer*/
 486:..\..\..\lvgl\version_6.1.2\lvgl\src\lv_objx/lv_cont.c ****                     if(child_rc != NULL && obj_num != 0) {
 487:..\..\..\lvgl\version_6.1.2\lvgl\src\lv_objx/lv_cont.c ****                         child_rc = lv_ll_get_next(&cont->child_ll, child_rc);
 488:..\..\..\lvgl\version_6.1.2\lvgl\src\lv_objx/lv_cont.c ****                     }
 489:..\..\..\lvgl\version_6.1.2\lvgl\src\lv_objx/lv_cont.c ****                     break;
 490:..\..\..\lvgl\version_6.1.2\lvgl\src\lv_objx/lv_cont.c ****                 }
 491:..\..\..\lvgl\version_6.1.2\lvgl\src\lv_objx/lv_cont.c ****                 w_row += lv_obj_get_width(child_rc) + style->body.padding.inner; /*Add the object w
 492:..\..\..\lvgl\version_6.1.2\lvgl\src\lv_objx/lv_cont.c ****                 h_row = LV_MATH_MAX(h_row, lv_obj_get_height(child_rc));         /*Search the highe
 493:..\..\..\lvgl\version_6.1.2\lvgl\src\lv_objx/lv_cont.c ****                 obj_num++;
 494:..\..\..\lvgl\version_6.1.2\lvgl\src\lv_objx/lv_cont.c ****                 if(lv_obj_is_protected(child_rc, LV_PROTECT_FOLLOW))
 495:..\..\..\lvgl\version_6.1.2\lvgl\src\lv_objx/lv_cont.c ****                     break; /*If can not be followed by an other object then break here*/
 496:..\..\..\lvgl\version_6.1.2\lvgl\src\lv_objx/lv_cont.c ****             }
 497:..\..\..\lvgl\version_6.1.2\lvgl\src\lv_objx/lv_cont.c ****             child_rc = lv_ll_get_prev(&cont->child_ll, child_rc); /*Load the next object*/
 498:..\..\..\lvgl\version_6.1.2\lvgl\src\lv_objx/lv_cont.c ****             if(obj_num == 0)
 499:..\..\..\lvgl\version_6.1.2\lvgl\src\lv_objx/lv_cont.c ****                 child_rs = child_rc; /*If the first object was hidden (or too long) then set the
 500:..\..\..\lvgl\version_6.1.2\lvgl\src\lv_objx/lv_cont.c ****                                         next as first */
 501:..\..\..\lvgl\version_6.1.2\lvgl\src\lv_objx/lv_cont.c ****         } while(child_rc != NULL);
 502:..\..\..\lvgl\version_6.1.2\lvgl\src\lv_objx/lv_cont.c **** 
 503:..\..\..\lvgl\version_6.1.2\lvgl\src\lv_objx/lv_cont.c ****         /*If the object is too long  then align it to the middle*/
 504:..\..\..\lvgl\version_6.1.2\lvgl\src\lv_objx/lv_cont.c ****         if(obj_num == 0) {
 505:..\..\..\lvgl\version_6.1.2\lvgl\src\lv_objx/lv_cont.c ****             if(child_rc != NULL) {
 506:..\..\..\lvgl\version_6.1.2\lvgl\src\lv_objx/lv_cont.c ****                 lv_obj_align(child_rc, cont, LV_ALIGN_IN_TOP_MID, 0, act_y);
 507:..\..\..\lvgl\version_6.1.2\lvgl\src\lv_objx/lv_cont.c ****                 h_row = lv_obj_get_height(child_rc); /*Not set previously because of the early brea
 508:..\..\..\lvgl\version_6.1.2\lvgl\src\lv_objx/lv_cont.c ****             }
 509:..\..\..\lvgl\version_6.1.2\lvgl\src\lv_objx/lv_cont.c ****         }
 510:..\..\..\lvgl\version_6.1.2\lvgl\src\lv_objx/lv_cont.c ****         /*If there is only one object in the row then align it to the middle*/
 511:..\..\..\lvgl\version_6.1.2\lvgl\src\lv_objx/lv_cont.c ****         else if(obj_num == 1) {
 512:..\..\..\lvgl\version_6.1.2\lvgl\src\lv_objx/lv_cont.c ****             lv_obj_align(child_rs, cont, LV_ALIGN_IN_TOP_MID, 0, act_y);
 513:..\..\..\lvgl\version_6.1.2\lvgl\src\lv_objx/lv_cont.c ****         }
 514:..\..\..\lvgl\version_6.1.2\lvgl\src\lv_objx/lv_cont.c ****         /*If there are two object in the row then align them proportionally*/
 515:..\..\..\lvgl\version_6.1.2\lvgl\src\lv_objx/lv_cont.c ****         else if(obj_num == 2) {
 516:..\..\..\lvgl\version_6.1.2\lvgl\src\lv_objx/lv_cont.c ****             lv_obj_t * obj1 = child_rs;
 517:..\..\..\lvgl\version_6.1.2\lvgl\src\lv_objx/lv_cont.c ****             lv_obj_t * obj2 = lv_ll_get_prev(&cont->child_ll, child_rs);
 518:..\..\..\lvgl\version_6.1.2\lvgl\src\lv_objx/lv_cont.c ****             w_row           = lv_obj_get_width(obj1) + lv_obj_get_width(obj2);
 519:..\..\..\lvgl\version_6.1.2\lvgl\src\lv_objx/lv_cont.c ****             lv_coord_t pad  = (w_obj - w_row) / 3;
 520:..\..\..\lvgl\version_6.1.2\lvgl\src\lv_objx/lv_cont.c ****             lv_obj_align(obj1, cont, LV_ALIGN_IN_TOP_LEFT, pad, act_y + (h_row - lv_obj_get_height(
 521:..\..\..\lvgl\version_6.1.2\lvgl\src\lv_objx/lv_cont.c ****             lv_obj_align(obj2, cont, LV_ALIGN_IN_TOP_RIGHT, -pad, act_y + (h_row - lv_obj_get_heigh
 522:..\..\..\lvgl\version_6.1.2\lvgl\src\lv_objx/lv_cont.c ****         }
 523:..\..\..\lvgl\version_6.1.2\lvgl\src\lv_objx/lv_cont.c ****         /* Align the children (from child_rs to child_rc)*/
 524:..\..\..\lvgl\version_6.1.2\lvgl\src\lv_objx/lv_cont.c ****         else {
ARM GAS  C:\Users\pearlstl\AppData\Local\Temp\cciL9yyu.s 			page 12


 525:..\..\..\lvgl\version_6.1.2\lvgl\src\lv_objx/lv_cont.c ****             w_row -= style->body.padding.inner * obj_num;
 526:..\..\..\lvgl\version_6.1.2\lvgl\src\lv_objx/lv_cont.c ****             lv_coord_t new_opad = (w_obj - w_row) / (obj_num - 1);
 527:..\..\..\lvgl\version_6.1.2\lvgl\src\lv_objx/lv_cont.c ****             lv_coord_t act_x    = style->body.padding.left; /*x init*/
 528:..\..\..\lvgl\version_6.1.2\lvgl\src\lv_objx/lv_cont.c ****             child_tmp           = child_rs;
 529:..\..\..\lvgl\version_6.1.2\lvgl\src\lv_objx/lv_cont.c ****             while(child_tmp != NULL) {
 530:..\..\..\lvgl\version_6.1.2\lvgl\src\lv_objx/lv_cont.c ****                 if(lv_obj_get_hidden(child_tmp) == false && lv_obj_is_protected(child_tmp, LV_PROTE
 531:..\..\..\lvgl\version_6.1.2\lvgl\src\lv_objx/lv_cont.c ****                     lv_obj_align(child_tmp, cont, LV_ALIGN_IN_TOP_LEFT, act_x,
 532:..\..\..\lvgl\version_6.1.2\lvgl\src\lv_objx/lv_cont.c ****                                  act_y + (h_row - lv_obj_get_height(child_tmp)) / 2);
 533:..\..\..\lvgl\version_6.1.2\lvgl\src\lv_objx/lv_cont.c ****                     act_x += lv_obj_get_width(child_tmp) + new_opad;
 534:..\..\..\lvgl\version_6.1.2\lvgl\src\lv_objx/lv_cont.c ****                 }
 535:..\..\..\lvgl\version_6.1.2\lvgl\src\lv_objx/lv_cont.c ****                 if(child_tmp == child_rc) break;
 536:..\..\..\lvgl\version_6.1.2\lvgl\src\lv_objx/lv_cont.c ****                 child_tmp = lv_ll_get_prev(&cont->child_ll, child_tmp);
 537:..\..\..\lvgl\version_6.1.2\lvgl\src\lv_objx/lv_cont.c ****             }
 538:..\..\..\lvgl\version_6.1.2\lvgl\src\lv_objx/lv_cont.c ****         }
 539:..\..\..\lvgl\version_6.1.2\lvgl\src\lv_objx/lv_cont.c **** 
 540:..\..\..\lvgl\version_6.1.2\lvgl\src\lv_objx/lv_cont.c ****         if(child_rc == NULL) break;
 541:..\..\..\lvgl\version_6.1.2\lvgl\src\lv_objx/lv_cont.c ****         act_y += style->body.padding.inner + h_row;           /*y increment*/
 542:..\..\..\lvgl\version_6.1.2\lvgl\src\lv_objx/lv_cont.c ****         child_rs = lv_ll_get_prev(&cont->child_ll, child_rc); /*Go to the next object*/
 543:..\..\..\lvgl\version_6.1.2\lvgl\src\lv_objx/lv_cont.c ****         child_rc = child_rs;
 544:..\..\..\lvgl\version_6.1.2\lvgl\src\lv_objx/lv_cont.c ****     }
 545:..\..\..\lvgl\version_6.1.2\lvgl\src\lv_objx/lv_cont.c ****     lv_obj_clear_protect(cont, LV_PROTECT_CHILD_CHG);
 546:..\..\..\lvgl\version_6.1.2\lvgl\src\lv_objx/lv_cont.c **** }
 547:..\..\..\lvgl\version_6.1.2\lvgl\src\lv_objx/lv_cont.c **** 
 548:..\..\..\lvgl\version_6.1.2\lvgl\src\lv_objx/lv_cont.c **** /**
 549:..\..\..\lvgl\version_6.1.2\lvgl\src\lv_objx/lv_cont.c ****  * Handle the grid layout. Align same-sized objects in a grid
 550:..\..\..\lvgl\version_6.1.2\lvgl\src\lv_objx/lv_cont.c ****  * @param cont pointer to an object which layout should be handled
 551:..\..\..\lvgl\version_6.1.2\lvgl\src\lv_objx/lv_cont.c ****  */
 552:..\..\..\lvgl\version_6.1.2\lvgl\src\lv_objx/lv_cont.c **** static void lv_cont_layout_grid(lv_obj_t * cont)
 553:..\..\..\lvgl\version_6.1.2\lvgl\src\lv_objx/lv_cont.c **** {
 554:..\..\..\lvgl\version_6.1.2\lvgl\src\lv_objx/lv_cont.c ****     lv_obj_t * child;
 555:..\..\..\lvgl\version_6.1.2\lvgl\src\lv_objx/lv_cont.c ****     const lv_style_t * style = lv_obj_get_style(cont);
 102              		.loc 1 555 0
 103 0042 4846     		mov	r0, r9
 104 0044 FFF7FEFF 		bl	lv_obj_get_style
 105              	.LVL6:
 106 0048 8346     		mov	fp, r0
 107              	.LVL7:
 556:..\..\..\lvgl\version_6.1.2\lvgl\src\lv_objx/lv_cont.c ****     lv_coord_t w_tot         = lv_obj_get_width(cont);
 108              		.loc 1 556 0
 109 004a 4846     		mov	r0, r9
 110              	.LVL8:
 111 004c FFF7FEFF 		bl	lv_obj_get_width
 112              	.LVL9:
 557:..\..\..\lvgl\version_6.1.2\lvgl\src\lv_objx/lv_cont.c ****     lv_coord_t w_obj         = lv_obj_get_width(lv_obj_get_child(cont, NULL));
 113              		.loc 1 557 0
 114 0050 0021     		movs	r1, #0
 556:..\..\..\lvgl\version_6.1.2\lvgl\src\lv_objx/lv_cont.c ****     lv_coord_t w_tot         = lv_obj_get_width(cont);
 115              		.loc 1 556 0
 116 0052 0746     		mov	r7, r0
 117              	.LVL10:
 118              		.loc 1 557 0
 119 0054 4846     		mov	r0, r9
 120 0056 FFF7FEFF 		bl	lv_obj_get_child
 121              	.LVL11:
 122 005a FFF7FEFF 		bl	lv_obj_get_width
 123              	.LVL12:
 124 005e 0546     		mov	r5, r0
ARM GAS  C:\Users\pearlstl\AppData\Local\Temp\cciL9yyu.s 			page 13


 125              	.LVL13:
 558:..\..\..\lvgl\version_6.1.2\lvgl\src\lv_objx/lv_cont.c ****     lv_coord_t w_fit         =  lv_obj_get_width_fit(cont);
 126              		.loc 1 558 0
 127 0060 4846     		mov	r0, r9
 128 0062 FFF7FEFF 		bl	lv_obj_get_width_fit
 129              	.LVL14:
 559:..\..\..\lvgl\version_6.1.2\lvgl\src\lv_objx/lv_cont.c ****     lv_coord_t h_obj         = lv_obj_get_height(lv_obj_get_child(cont, NULL));
 130              		.loc 1 559 0
 131 0066 0021     		movs	r1, #0
 558:..\..\..\lvgl\version_6.1.2\lvgl\src\lv_objx/lv_cont.c ****     lv_coord_t w_fit         =  lv_obj_get_width_fit(cont);
 132              		.loc 1 558 0
 133 0068 0446     		mov	r4, r0
 134              	.LVL15:
 135              		.loc 1 559 0
 136 006a 4846     		mov	r0, r9
 137 006c FFF7FEFF 		bl	lv_obj_get_child
 138              	.LVL16:
 139 0070 FFF7FEFF 		bl	lv_obj_get_height
 140              	.LVL17:
 560:..\..\..\lvgl\version_6.1.2\lvgl\src\lv_objx/lv_cont.c ****     uint16_t obj_row         = (w_fit) / (w_obj + style->body.padding.inner); /*Obj. num. in a row*
 141              		.loc 1 560 0
 142 0074 BBF92820 		ldrsh	r2, [fp, #40]
 143 0078 5619     		adds	r6, r2, r5
 144 007a 94FBF6F6 		sdiv	r6, r4, r6
 145 007e B6B2     		uxth	r6, r6
 146              	.LVL18:
 561:..\..\..\lvgl\version_6.1.2\lvgl\src\lv_objx/lv_cont.c ****     lv_coord_t x_ofs;
 562:..\..\..\lvgl\version_6.1.2\lvgl\src\lv_objx/lv_cont.c ****     if(obj_row > 1) {
 147              		.loc 1 562 0
 148 0080 012E     		cmp	r6, #1
 149 0082 40F24881 		bls	.L48
 563:..\..\..\lvgl\version_6.1.2\lvgl\src\lv_objx/lv_cont.c ****         x_ofs = w_obj + (w_fit - (obj_row * w_obj)) / (obj_row - 1);
 150              		.loc 1 563 0
 151 0086 06FB1544 		mls	r4, r6, r5, r4
 152              	.LVL19:
 564:..\..\..\lvgl\version_6.1.2\lvgl\src\lv_objx/lv_cont.c ****     } else {
 565:..\..\..\lvgl\version_6.1.2\lvgl\src\lv_objx/lv_cont.c ****         x_ofs = w_tot / 2 - w_obj / 2;
 566:..\..\..\lvgl\version_6.1.2\lvgl\src\lv_objx/lv_cont.c ****     }
 567:..\..\..\lvgl\version_6.1.2\lvgl\src\lv_objx/lv_cont.c ****     lv_coord_t y_ofs = h_obj + style->body.padding.inner;
 153              		.loc 1 567 0
 154 008a 0244     		add	r2, r2, r0
 563:..\..\..\lvgl\version_6.1.2\lvgl\src\lv_objx/lv_cont.c ****         x_ofs = w_obj + (w_fit - (obj_row * w_obj)) / (obj_row - 1);
 155              		.loc 1 563 0
 156 008c 731E     		subs	r3, r6, #1
 157 008e 94FBF3F3 		sdiv	r3, r4, r3
 158 0092 2B44     		add	r3, r3, r5
 159              		.loc 1 567 0
 160 0094 92B2     		uxth	r2, r2
 563:..\..\..\lvgl\version_6.1.2\lvgl\src\lv_objx/lv_cont.c ****         x_ofs = w_obj + (w_fit - (obj_row * w_obj)) / (obj_row - 1);
 161              		.loc 1 563 0
 162 0096 9BB2     		uxth	r3, r3
 568:..\..\..\lvgl\version_6.1.2\lvgl\src\lv_objx/lv_cont.c **** 
 569:..\..\..\lvgl\version_6.1.2\lvgl\src\lv_objx/lv_cont.c ****     /* Disable child change action because the children will be moved a lot
 570:..\..\..\lvgl\version_6.1.2\lvgl\src\lv_objx/lv_cont.c ****      * an unnecessary child change signals could be sent*/
 571:..\..\..\lvgl\version_6.1.2\lvgl\src\lv_objx/lv_cont.c ****     lv_obj_set_protect(cont, LV_PROTECT_CHILD_CHG);
 163              		.loc 1 571 0
 164 0098 0121     		movs	r1, #1
ARM GAS  C:\Users\pearlstl\AppData\Local\Temp\cciL9yyu.s 			page 14


 165 009a 4846     		mov	r0, r9
 166              	.LVL20:
 572:..\..\..\lvgl\version_6.1.2\lvgl\src\lv_objx/lv_cont.c **** 
 573:..\..\..\lvgl\version_6.1.2\lvgl\src\lv_objx/lv_cont.c ****     /* Align the children */
 574:..\..\..\lvgl\version_6.1.2\lvgl\src\lv_objx/lv_cont.c ****     lv_coord_t act_x = style->body.padding.left;
 575:..\..\..\lvgl\version_6.1.2\lvgl\src\lv_objx/lv_cont.c ****     lv_coord_t act_y = style->body.padding.top;
 576:..\..\..\lvgl\version_6.1.2\lvgl\src\lv_objx/lv_cont.c ****     uint16_t obj_cnt = 0;
 577:..\..\..\lvgl\version_6.1.2\lvgl\src\lv_objx/lv_cont.c ****     LV_LL_READ_BACK(cont->child_ll, child)
 167              		.loc 1 577 0
 168 009c 09F10405 		add	r5, r9, #4
 169              	.LVL21:
 567:..\..\..\lvgl\version_6.1.2\lvgl\src\lv_objx/lv_cont.c **** 
 170              		.loc 1 567 0
 171 00a0 0492     		str	r2, [sp, #16]
 563:..\..\..\lvgl\version_6.1.2\lvgl\src\lv_objx/lv_cont.c ****     } else {
 172              		.loc 1 563 0
 173 00a2 0393     		str	r3, [sp, #12]
 174              	.LVL22:
 571:..\..\..\lvgl\version_6.1.2\lvgl\src\lv_objx/lv_cont.c **** 
 175              		.loc 1 571 0
 176 00a4 FFF7FEFF 		bl	lv_obj_set_protect
 177              	.LVL23:
 178              		.loc 1 577 0
 179 00a8 2846     		mov	r0, r5
 574:..\..\..\lvgl\version_6.1.2\lvgl\src\lv_objx/lv_cont.c ****     lv_coord_t act_y = style->body.padding.top;
 180              		.loc 1 574 0
 181 00aa BBF92470 		ldrsh	r7, [fp, #36]
 182              	.LVL24:
 575:..\..\..\lvgl\version_6.1.2\lvgl\src\lv_objx/lv_cont.c ****     uint16_t obj_cnt = 0;
 183              		.loc 1 575 0
 184 00ae BBF92080 		ldrsh	r8, [fp, #32]
 185              	.LVL25:
 186              		.loc 1 577 0
 187 00b2 FFF7FEFF 		bl	lv_ll_get_tail
 188              	.LVL26:
 189 00b6 0446     		mov	r4, r0
 190 00b8 0028     		cmp	r0, #0
 191 00ba 00F09D81 		beq	.L11
 192 00be 4FF0000A 		mov	r10, #0
 193 00c2 CDF81490 		str	r9, [sp, #20]
 194 00c6 07E0     		b	.L54
 195              	.LVL27:
 196              	.L52:
 197 00c8 2146     		mov	r1, r4
 198 00ca 2846     		mov	r0, r5
 199 00cc FFF7FEFF 		bl	lv_ll_get_prev
 200              	.LVL28:
 201 00d0 0446     		mov	r4, r0
 202 00d2 0028     		cmp	r0, #0
 203 00d4 00F0DA81 		beq	.L118
 204              	.LVL29:
 205              	.L54:
 578:..\..\..\lvgl\version_6.1.2\lvgl\src\lv_objx/lv_cont.c ****     {
 579:..\..\..\lvgl\version_6.1.2\lvgl\src\lv_objx/lv_cont.c ****         if(lv_obj_get_hidden(child) != false || lv_obj_is_protected(child, LV_PROTECT_POS) != false
 206              		.loc 1 579 0
 207 00d8 2046     		mov	r0, r4
 208 00da FFF7FEFF 		bl	lv_obj_get_hidden
ARM GAS  C:\Users\pearlstl\AppData\Local\Temp\cciL9yyu.s 			page 15


 209              	.LVL30:
 210 00de 0028     		cmp	r0, #0
 211 00e0 F2D1     		bne	.L52
 212 00e2 0421     		movs	r1, #4
 213 00e4 2046     		mov	r0, r4
 214 00e6 FFF7FEFF 		bl	lv_obj_is_protected
 215              	.LVL31:
 580:..\..\..\lvgl\version_6.1.2\lvgl\src\lv_objx/lv_cont.c **** 
 581:..\..\..\lvgl\version_6.1.2\lvgl\src\lv_objx/lv_cont.c ****         if(obj_row > 1) {
 582:..\..\..\lvgl\version_6.1.2\lvgl\src\lv_objx/lv_cont.c ****             lv_obj_set_pos(child, act_x, act_y);
 216              		.loc 1 582 0
 217 00ea 3946     		mov	r1, r7
 579:..\..\..\lvgl\version_6.1.2\lvgl\src\lv_objx/lv_cont.c **** 
 218              		.loc 1 579 0
 219 00ec 8146     		mov	r9, r0
 220              		.loc 1 582 0
 221 00ee 4246     		mov	r2, r8
 579:..\..\..\lvgl\version_6.1.2\lvgl\src\lv_objx/lv_cont.c **** 
 222              		.loc 1 579 0
 223 00f0 0028     		cmp	r0, #0
 224 00f2 E9D1     		bne	.L52
 225              		.loc 1 582 0
 226 00f4 2046     		mov	r0, r4
 583:..\..\..\lvgl\version_6.1.2\lvgl\src\lv_objx/lv_cont.c ****             act_x += x_ofs;
 584:..\..\..\lvgl\version_6.1.2\lvgl\src\lv_objx/lv_cont.c ****         } else {
 585:..\..\..\lvgl\version_6.1.2\lvgl\src\lv_objx/lv_cont.c ****             lv_obj_set_pos(child, x_ofs, act_y);
 586:..\..\..\lvgl\version_6.1.2\lvgl\src\lv_objx/lv_cont.c ****         }
 587:..\..\..\lvgl\version_6.1.2\lvgl\src\lv_objx/lv_cont.c ****         obj_cnt++;
 227              		.loc 1 587 0
 228 00f6 0AF1010A 		add	r10, r10, #1
 229              	.LVL32:
 582:..\..\..\lvgl\version_6.1.2\lvgl\src\lv_objx/lv_cont.c ****             act_x += x_ofs;
 230              		.loc 1 582 0
 231 00fa FFF7FEFF 		bl	lv_obj_set_pos
 232              	.LVL33:
 233              		.loc 1 587 0
 234 00fe 1FFA8AFA 		uxth	r10, r10
 235              	.LVL34:
 583:..\..\..\lvgl\version_6.1.2\lvgl\src\lv_objx/lv_cont.c ****             act_x += x_ofs;
 236              		.loc 1 583 0
 237 0102 039B     		ldr	r3, [sp, #12]
 588:..\..\..\lvgl\version_6.1.2\lvgl\src\lv_objx/lv_cont.c **** 
 589:..\..\..\lvgl\version_6.1.2\lvgl\src\lv_objx/lv_cont.c ****         if(obj_cnt >= obj_row) {
 238              		.loc 1 589 0
 239 0104 5645     		cmp	r6, r10
 583:..\..\..\lvgl\version_6.1.2\lvgl\src\lv_objx/lv_cont.c ****         } else {
 240              		.loc 1 583 0
 241 0106 1F44     		add	r7, r7, r3
 242              	.LVL35:
 243              		.loc 1 589 0
 244 0108 40F2C381 		bls	.L53
 583:..\..\..\lvgl\version_6.1.2\lvgl\src\lv_objx/lv_cont.c ****         } else {
 245              		.loc 1 583 0
 246 010c 3FB2     		sxth	r7, r7
 247 010e DBE7     		b	.L52
 248              	.LVL36:
 249              	.L113:
ARM GAS  C:\Users\pearlstl\AppData\Local\Temp\cciL9yyu.s 			page 16


 250              	.LBE48:
 251              	.LBE47:
 252              	.LBB51:
 253              	.LBB52:
 419:..\..\..\lvgl\version_6.1.2\lvgl\src\lv_objx/lv_cont.c ****     uint32_t obj_num         = 0;
 254              		.loc 1 419 0
 255 0110 4846     		mov	r0, r9
 256 0112 FFF7FEFF 		bl	lv_obj_get_style
 257              	.LVL37:
 423:..\..\..\lvgl\version_6.1.2\lvgl\src\lv_objx/lv_cont.c ****     {
 258              		.loc 1 423 0
 259 0116 09F10405 		add	r5, r9, #4
 419:..\..\..\lvgl\version_6.1.2\lvgl\src\lv_objx/lv_cont.c ****     uint32_t obj_num         = 0;
 260              		.loc 1 419 0
 261 011a 0746     		mov	r7, r0
 262              	.LVL38:
 423:..\..\..\lvgl\version_6.1.2\lvgl\src\lv_objx/lv_cont.c ****     {
 263              		.loc 1 423 0
 264 011c 2846     		mov	r0, r5
 265              	.LVL39:
 266 011e FFF7FEFF 		bl	lv_ll_get_head
 267              	.LVL40:
 268 0122 0446     		mov	r4, r0
 269 0124 0028     		cmp	r0, #0
 270 0126 89D0     		beq	.L1
 271 0128 4FF00008 		mov	r8, #0
 272 012c 4646     		mov	r6, r8
 273 012e 07E0     		b	.L7
 274              	.LVL41:
 275              	.L6:
 276 0130 2146     		mov	r1, r4
 277 0132 2846     		mov	r0, r5
 278 0134 FFF7FEFF 		bl	lv_ll_get_next
 279              	.LVL42:
 280 0138 0446     		mov	r4, r0
 281 013a 0028     		cmp	r0, #0
 282 013c 00F06381 		beq	.L119
 283              	.LVL43:
 284              	.L7:
 425:..\..\..\lvgl\version_6.1.2\lvgl\src\lv_objx/lv_cont.c ****         h_tot += lv_obj_get_height(child) + style->body.padding.inner;
 285              		.loc 1 425 0
 286 0140 2046     		mov	r0, r4
 287 0142 FFF7FEFF 		bl	lv_obj_get_hidden
 288              	.LVL44:
 289 0146 0028     		cmp	r0, #0
 290 0148 F2D1     		bne	.L6
 291 014a 0421     		movs	r1, #4
 292 014c 2046     		mov	r0, r4
 293 014e FFF7FEFF 		bl	lv_obj_is_protected
 294              	.LVL45:
 295 0152 0028     		cmp	r0, #0
 296 0154 ECD1     		bne	.L6
 426:..\..\..\lvgl\version_6.1.2\lvgl\src\lv_objx/lv_cont.c ****         obj_num++;
 297              		.loc 1 426 0
 298 0156 2046     		mov	r0, r4
 299 0158 FFF7FEFF 		bl	lv_obj_get_height
 300              	.LVL46:
ARM GAS  C:\Users\pearlstl\AppData\Local\Temp\cciL9yyu.s 			page 17


 301 015c B7F92830 		ldrsh	r3, [r7, #40]
 302 0160 1844     		add	r0, r0, r3
 303 0162 0644     		add	r6, r6, r0
 304              	.LVL47:
 427:..\..\..\lvgl\version_6.1.2\lvgl\src\lv_objx/lv_cont.c ****     }
 305              		.loc 1 427 0
 306 0164 08F10108 		add	r8, r8, #1
 307              	.LVL48:
 426:..\..\..\lvgl\version_6.1.2\lvgl\src\lv_objx/lv_cont.c ****         obj_num++;
 308              		.loc 1 426 0
 309 0168 36B2     		sxth	r6, r6
 310              	.LVL49:
 311 016a E1E7     		b	.L6
 312              	.LVL50:
 313              	.L114:
 314              	.LBE52:
 315              	.LBE51:
 316              	.LBB55:
 317              	.LBB56:
 318              	.LBB57:
 319              	.LBB58:
 184:..\..\..\lvgl\version_6.1.2\lvgl\src\lv_objx/lv_cont.c ****     return ext->layout;
 320              		.loc 1 184 0
 321 016c 4846     		mov	r0, r9
 322 016e FFF7FEFF 		bl	lv_obj_get_ext_attr
 323              	.LVL51:
 185:..\..\..\lvgl\version_6.1.2\lvgl\src\lv_objx/lv_cont.c **** }
 324              		.loc 1 185 0
 325 0172 0478     		ldrb	r4, [r0]	@ zero_extendqisi2
 326              	.LBE58:
 327              	.LBE57:
 317:..\..\..\lvgl\version_6.1.2\lvgl\src\lv_objx/lv_cont.c ****     lv_coord_t hpad_corr;
 328              		.loc 1 317 0
 329 0174 4846     		mov	r0, r9
 330              	.LVL52:
 331 0176 FFF7FEFF 		bl	lv_obj_get_style
 332              	.LVL53:
 333              	.LBB60:
 334              	.LBB59:
 185:..\..\..\lvgl\version_6.1.2\lvgl\src\lv_objx/lv_cont.c **** }
 335              		.loc 1 185 0
 336 017a 04F00F04 		and	r4, r4, #15
 337              	.LVL54:
 338              	.LBE59:
 339              	.LBE60:
 320:..\..\..\lvgl\version_6.1.2\lvgl\src\lv_objx/lv_cont.c ****         case LV_LAYOUT_COL_L:
 340              		.loc 1 320 0
 341 017e 032C     		cmp	r4, #3
 317:..\..\..\lvgl\version_6.1.2\lvgl\src\lv_objx/lv_cont.c ****     lv_coord_t hpad_corr;
 342              		.loc 1 317 0
 343 0180 0746     		mov	r7, r0
 344              	.LVL55:
 320:..\..\..\lvgl\version_6.1.2\lvgl\src\lv_objx/lv_cont.c ****         case LV_LAYOUT_COL_L:
 345              		.loc 1 320 0
 346 0182 00F02F82 		beq	.L14
 347 0186 042C     		cmp	r4, #4
 348 0188 00F02382 		beq	.L15
ARM GAS  C:\Users\pearlstl\AppData\Local\Temp\cciL9yyu.s 			page 18


 349 018c 022C     		cmp	r4, #2
 350 018e 00F0BD80 		beq	.L120
 334:..\..\..\lvgl\version_6.1.2\lvgl\src\lv_objx/lv_cont.c ****             align     = LV_ALIGN_IN_TOP_LEFT;
 351              		.loc 1 334 0
 352 0192 4FF00008 		mov	r8, #0
 335:..\..\..\lvgl\version_6.1.2\lvgl\src\lv_objx/lv_cont.c ****             break;
 353              		.loc 1 335 0
 354 0196 4FF0010A 		mov	r10, #1
 355              	.L13:
 356              	.LVL56:
 341:..\..\..\lvgl\version_6.1.2\lvgl\src\lv_objx/lv_cont.c ****     /* Align the children */
 357              		.loc 1 341 0
 358 019a 0121     		movs	r1, #1
 359 019c 4846     		mov	r0, r9
 360              	.LVL57:
 344:..\..\..\lvgl\version_6.1.2\lvgl\src\lv_objx/lv_cont.c ****     {
 361              		.loc 1 344 0
 362 019e 09F10405 		add	r5, r9, #4
 341:..\..\..\lvgl\version_6.1.2\lvgl\src\lv_objx/lv_cont.c ****     /* Align the children */
 363              		.loc 1 341 0
 364 01a2 FFF7FEFF 		bl	lv_obj_set_protect
 365              	.LVL58:
 344:..\..\..\lvgl\version_6.1.2\lvgl\src\lv_objx/lv_cont.c ****     {
 366              		.loc 1 344 0
 367 01a6 2846     		mov	r0, r5
 343:..\..\..\lvgl\version_6.1.2\lvgl\src\lv_objx/lv_cont.c ****     LV_LL_READ_BACK(cont->child_ll, child)
 368              		.loc 1 343 0
 369 01a8 B7F92060 		ldrsh	r6, [r7, #32]
 370              	.LVL59:
 344:..\..\..\lvgl\version_6.1.2\lvgl\src\lv_objx/lv_cont.c ****     {
 371              		.loc 1 344 0
 372 01ac FFF7FEFF 		bl	lv_ll_get_tail
 373              	.LVL60:
 374 01b0 0446     		mov	r4, r0
 375 01b2 40B9     		cbnz	r0, .L18
 376 01b4 20E1     		b	.L11
 377              	.LVL61:
 378              	.L17:
 379 01b6 2146     		mov	r1, r4
 380 01b8 2846     		mov	r0, r5
 381 01ba FFF7FEFF 		bl	lv_ll_get_prev
 382              	.LVL62:
 383 01be 0446     		mov	r4, r0
 384 01c0 0028     		cmp	r0, #0
 385 01c2 00F01981 		beq	.L11
 386              	.L18:
 346:..\..\..\lvgl\version_6.1.2\lvgl\src\lv_objx/lv_cont.c **** 
 387              		.loc 1 346 0
 388 01c6 2046     		mov	r0, r4
 389 01c8 FFF7FEFF 		bl	lv_obj_get_hidden
 390              	.LVL63:
 391 01cc 0028     		cmp	r0, #0
 392 01ce F2D1     		bne	.L17
 393 01d0 0421     		movs	r1, #4
 394 01d2 2046     		mov	r0, r4
 395 01d4 FFF7FEFF 		bl	lv_obj_is_protected
 396              	.LVL64:
ARM GAS  C:\Users\pearlstl\AppData\Local\Temp\cciL9yyu.s 			page 19


 397 01d8 0028     		cmp	r0, #0
 398 01da ECD1     		bne	.L17
 348:..\..\..\lvgl\version_6.1.2\lvgl\src\lv_objx/lv_cont.c ****         last_cord += lv_obj_get_height(child) + style->body.padding.inner;
 399              		.loc 1 348 0
 400 01dc 4346     		mov	r3, r8
 401 01de 0096     		str	r6, [sp]
 402 01e0 5246     		mov	r2, r10
 403 01e2 4946     		mov	r1, r9
 404 01e4 2046     		mov	r0, r4
 405 01e6 FFF7FEFF 		bl	lv_obj_align
 406              	.LVL65:
 349:..\..\..\lvgl\version_6.1.2\lvgl\src\lv_objx/lv_cont.c ****     }
 407              		.loc 1 349 0
 408 01ea 2046     		mov	r0, r4
 409 01ec FFF7FEFF 		bl	lv_obj_get_height
 410              	.LVL66:
 411 01f0 B7F92830 		ldrsh	r3, [r7, #40]
 412 01f4 1844     		add	r0, r0, r3
 413 01f6 8319     		adds	r3, r0, r6
 414 01f8 1EB2     		sxth	r6, r3
 415              	.LVL67:
 416 01fa DCE7     		b	.L17
 417              	.LVL68:
 418              	.L115:
 419              	.LBE56:
 420              	.LBE55:
 421              	.LBB63:
 422              	.LBB64:
 423              	.LBB65:
 424              	.LBB66:
 184:..\..\..\lvgl\version_6.1.2\lvgl\src\lv_objx/lv_cont.c ****     return ext->layout;
 425              		.loc 1 184 0
 426 01fc 4846     		mov	r0, r9
 427 01fe FFF7FEFF 		bl	lv_obj_get_ext_attr
 428              	.LVL69:
 185:..\..\..\lvgl\version_6.1.2\lvgl\src\lv_objx/lv_cont.c **** }
 429              		.loc 1 185 0
 430 0202 0478     		ldrb	r4, [r0]	@ zero_extendqisi2
 431              	.LBE66:
 432              	.LBE65:
 366:..\..\..\lvgl\version_6.1.2\lvgl\src\lv_objx/lv_cont.c ****     lv_coord_t vpad_corr;
 433              		.loc 1 366 0
 434 0204 4846     		mov	r0, r9
 435              	.LVL70:
 436 0206 FFF7FEFF 		bl	lv_obj_get_style
 437              	.LVL71:
 438 020a 0746     		mov	r7, r0
 368:..\..\..\lvgl\version_6.1.2\lvgl\src\lv_objx/lv_cont.c ****     switch(type) {
 439              		.loc 1 368 0
 440 020c 4846     		mov	r0, r9
 441 020e FFF7FEFF 		bl	lv_obj_get_base_dir
 442              	.LVL72:
 443              	.LBB68:
 444              	.LBB67:
 185:..\..\..\lvgl\version_6.1.2\lvgl\src\lv_objx/lv_cont.c **** }
 445              		.loc 1 185 0
 446 0212 04F00F04 		and	r4, r4, #15
ARM GAS  C:\Users\pearlstl\AppData\Local\Temp\cciL9yyu.s 			page 20


 447              	.LVL73:
 448              	.LBE67:
 449              	.LBE68:
 369:..\..\..\lvgl\version_6.1.2\lvgl\src\lv_objx/lv_cont.c ****         case LV_LAYOUT_ROW_T:
 450              		.loc 1 369 0
 451 0216 062C     		cmp	r4, #6
 368:..\..\..\lvgl\version_6.1.2\lvgl\src\lv_objx/lv_cont.c ****     switch(type) {
 452              		.loc 1 368 0
 453 0218 8346     		mov	fp, r0
 454              	.LVL74:
 369:..\..\..\lvgl\version_6.1.2\lvgl\src\lv_objx/lv_cont.c ****         case LV_LAYOUT_ROW_T:
 455              		.loc 1 369 0
 456 021a 00F0F681 		beq	.L21
 457 021e 072C     		cmp	r4, #7
 458 0220 68D0     		beq	.L22
 459 0222 052C     		cmp	r4, #5
 460 0224 00F0E381 		beq	.L121
 461              	.LVL75:
 384:..\..\..\lvgl\version_6.1.2\lvgl\src\lv_objx/lv_cont.c ****             break;
 462              		.loc 1 384 0
 463 0228 0128     		cmp	r0, #1
 383:..\..\..\lvgl\version_6.1.2\lvgl\src\lv_objx/lv_cont.c ****             align     = base_dir == LV_BIDI_DIR_RTL ? LV_ALIGN_IN_TOP_RIGHT : LV_ALIGN_IN_TOP_LEFT;
 464              		.loc 1 383 0
 465 022a 4FF0000A 		mov	r10, #0
 384:..\..\..\lvgl\version_6.1.2\lvgl\src\lv_objx/lv_cont.c ****             break;
 466              		.loc 1 384 0
 467 022e 00F0E381 		beq	.L61
 468              	.LVL76:
 469              	.L110:
 470 0232 4FF00108 		mov	r8, #1
 471              	.L25:
 472              	.LVL77:
 390:..\..\..\lvgl\version_6.1.2\lvgl\src\lv_objx/lv_cont.c **** 
 473              		.loc 1 390 0
 474 0236 0121     		movs	r1, #1
 475 0238 4846     		mov	r0, r9
 476              	.LVL78:
 477 023a FFF7FEFF 		bl	lv_obj_set_protect
 478              	.LVL79:
 395:..\..\..\lvgl\version_6.1.2\lvgl\src\lv_objx/lv_cont.c **** 
 479              		.loc 1 395 0
 480 023e B7F92450 		ldrsh	r5, [r7, #36]
 481              	.LVL80:
 482              	.L55:
 397:..\..\..\lvgl\version_6.1.2\lvgl\src\lv_objx/lv_cont.c ****     {
 483              		.loc 1 397 0
 484 0242 09F10406 		add	r6, r9, #4
 485 0246 3046     		mov	r0, r6
 486 0248 FFF7FEFF 		bl	lv_ll_get_tail
 487              	.LVL81:
 488 024c 0446     		mov	r4, r0
 489 024e 0028     		cmp	r0, #0
 490 0250 00F0D280 		beq	.L11
 491 0254 BBF1010F 		cmp	fp, #1
 492 0258 08D1     		bne	.L28
 493 025a 45E0     		b	.L30
 494              	.LVL82:
ARM GAS  C:\Users\pearlstl\AppData\Local\Temp\cciL9yyu.s 			page 21


 495              	.L27:
 496 025c 2146     		mov	r1, r4
 497 025e 3046     		mov	r0, r6
 498 0260 FFF7FEFF 		bl	lv_ll_get_prev
 499              	.LVL83:
 500 0264 0446     		mov	r4, r0
 501 0266 0028     		cmp	r0, #0
 502 0268 00F0C680 		beq	.L11
 503              	.L28:
 399:..\..\..\lvgl\version_6.1.2\lvgl\src\lv_objx/lv_cont.c **** 
 504              		.loc 1 399 0
 505 026c 2046     		mov	r0, r4
 506 026e FFF7FEFF 		bl	lv_obj_get_hidden
 507              	.LVL84:
 508 0272 0028     		cmp	r0, #0
 509 0274 F2D1     		bne	.L27
 510 0276 0421     		movs	r1, #4
 511 0278 2046     		mov	r0, r4
 512 027a FFF7FEFF 		bl	lv_obj_is_protected
 513              	.LVL85:
 404:..\..\..\lvgl\version_6.1.2\lvgl\src\lv_objx/lv_cont.c **** 
 514              		.loc 1 404 0
 515 027e 2B46     		mov	r3, r5
 516 0280 4246     		mov	r2, r8
 517 0282 4946     		mov	r1, r9
 399:..\..\..\lvgl\version_6.1.2\lvgl\src\lv_objx/lv_cont.c **** 
 518              		.loc 1 399 0
 519 0284 0028     		cmp	r0, #0
 520 0286 E9D1     		bne	.L27
 521              	.LVL86:
 404:..\..\..\lvgl\version_6.1.2\lvgl\src\lv_objx/lv_cont.c **** 
 522              		.loc 1 404 0
 523 0288 2046     		mov	r0, r4
 524 028a CDF800A0 		str	r10, [sp]
 525 028e FFF7FEFF 		bl	lv_obj_align
 526              	.LVL87:
 406:..\..\..\lvgl\version_6.1.2\lvgl\src\lv_objx/lv_cont.c ****     }
 527              		.loc 1 406 0
 528 0292 2046     		mov	r0, r4
 529 0294 FFF7FEFF 		bl	lv_obj_get_width
 530              	.LVL88:
 531 0298 B7F92830 		ldrsh	r3, [r7, #40]
 532 029c 1844     		add	r0, r0, r3
 533 029e 4319     		adds	r3, r0, r5
 534 02a0 1DB2     		sxth	r5, r3
 535              	.LVL89:
 536 02a2 DBE7     		b	.L27
 537              	.L122:
 399:..\..\..\lvgl\version_6.1.2\lvgl\src\lv_objx/lv_cont.c **** 
 538              		.loc 1 399 0
 539 02a4 0421     		movs	r1, #4
 540 02a6 2046     		mov	r0, r4
 541 02a8 FFF7FEFF 		bl	lv_obj_is_protected
 542              	.LVL90:
 403:..\..\..\lvgl\version_6.1.2\lvgl\src\lv_objx/lv_cont.c ****         else lv_obj_align(child, cont, align, last_cord, vpad_corr);
 543              		.loc 1 403 0
 544 02ac 1FFA85FB 		uxth	fp, r5
ARM GAS  C:\Users\pearlstl\AppData\Local\Temp\cciL9yyu.s 			page 22


 545 02b0 CBF10003 		rsb	r3, fp, #0
 546 02b4 1BB2     		sxth	r3, r3
 547 02b6 4246     		mov	r2, r8
 548 02b8 4946     		mov	r1, r9
 399:..\..\..\lvgl\version_6.1.2\lvgl\src\lv_objx/lv_cont.c **** 
 549              		.loc 1 399 0
 550 02ba 68B9     		cbnz	r0, .L29
 551              	.LVL91:
 403:..\..\..\lvgl\version_6.1.2\lvgl\src\lv_objx/lv_cont.c ****         else lv_obj_align(child, cont, align, last_cord, vpad_corr);
 552              		.loc 1 403 0
 553 02bc 2046     		mov	r0, r4
 554 02be CDF800A0 		str	r10, [sp]
 555 02c2 FFF7FEFF 		bl	lv_obj_align
 556              	.LVL92:
 406:..\..\..\lvgl\version_6.1.2\lvgl\src\lv_objx/lv_cont.c ****     }
 557              		.loc 1 406 0
 558 02c6 2046     		mov	r0, r4
 559 02c8 FFF7FEFF 		bl	lv_obj_get_width
 560              	.LVL93:
 561 02cc B7F92830 		ldrsh	r3, [r7, #40]
 562 02d0 1844     		add	r0, r0, r3
 563 02d2 0BEB0005 		add	r5, fp, r0
 564              	.LVL94:
 565 02d6 2DB2     		sxth	r5, r5
 566              	.LVL95:
 567              	.L29:
 397:..\..\..\lvgl\version_6.1.2\lvgl\src\lv_objx/lv_cont.c ****     {
 568              		.loc 1 397 0
 569 02d8 2146     		mov	r1, r4
 570 02da 3046     		mov	r0, r6
 571 02dc FFF7FEFF 		bl	lv_ll_get_prev
 572              	.LVL96:
 573 02e0 0446     		mov	r4, r0
 574 02e2 0028     		cmp	r0, #0
 575 02e4 00F08880 		beq	.L11
 576              	.L30:
 399:..\..\..\lvgl\version_6.1.2\lvgl\src\lv_objx/lv_cont.c **** 
 577              		.loc 1 399 0
 578 02e8 2046     		mov	r0, r4
 579 02ea FFF7FEFF 		bl	lv_obj_get_hidden
 580              	.LVL97:
 581 02ee 0028     		cmp	r0, #0
 582 02f0 F2D1     		bne	.L29
 583 02f2 D7E7     		b	.L122
 584              	.LVL98:
 585              	.L22:
 379:..\..\..\lvgl\version_6.1.2\lvgl\src\lv_objx/lv_cont.c ****             align     = base_dir == LV_BIDI_DIR_RTL ? LV_ALIGN_IN_BOTTOM_RIGHT: LV_ALIGN_IN_BOTTOM_
 586              		.loc 1 379 0
 587 02f4 B7F822A0 		ldrh	r10, [r7, #34]
 380:..\..\..\lvgl\version_6.1.2\lvgl\src\lv_objx/lv_cont.c ****             break;
 588              		.loc 1 380 0
 589 02f8 0128     		cmp	r0, #1
 379:..\..\..\lvgl\version_6.1.2\lvgl\src\lv_objx/lv_cont.c ****             align     = base_dir == LV_BIDI_DIR_RTL ? LV_ALIGN_IN_BOTTOM_RIGHT: LV_ALIGN_IN_BOTTOM_
 590              		.loc 1 379 0
 591 02fa CAF1000A 		rsb	r10, r10, #0
 592 02fe 0FFA8AFA 		sxth	r10, r10
 593              	.LVL99:
ARM GAS  C:\Users\pearlstl\AppData\Local\Temp\cciL9yyu.s 			page 23


 380:..\..\..\lvgl\version_6.1.2\lvgl\src\lv_objx/lv_cont.c ****             break;
 594              		.loc 1 380 0
 595 0302 00F0CB81 		beq	.L60
 596 0306 4FF00408 		mov	r8, #4
 597 030a 94E7     		b	.L25
 598              	.LVL100:
 599              	.L120:
 600              	.LBE64:
 601              	.LBE63:
 602              	.LBB71:
 603              	.LBB61:
 322:..\..\..\lvgl\version_6.1.2\lvgl\src\lv_objx/lv_cont.c ****             align     = LV_ALIGN_IN_TOP_LEFT;
 604              		.loc 1 322 0
 605 030c B0F92480 		ldrsh	r8, [r0, #36]
 606              	.LVL101:
 323:..\..\..\lvgl\version_6.1.2\lvgl\src\lv_objx/lv_cont.c ****             break;
 607              		.loc 1 323 0
 608 0310 4FF0010A 		mov	r10, #1
 609 0314 41E7     		b	.L13
 610              	.LVL102:
 611              	.L48:
 612              	.LBE61:
 613              	.LBE71:
 614              	.LBB72:
 615              	.LBB49:
 565:..\..\..\lvgl\version_6.1.2\lvgl\src\lv_objx/lv_cont.c ****     }
 616              		.loc 1 565 0
 617 0316 05EBD573 		add	r3, r5, r5, lsr #31
 618 031a 07EBD777 		add	r7, r7, r7, lsr #31
 619              	.LVL103:
 620 031e 5B10     		asrs	r3, r3, #1
 621 0320 C3EB6703 		rsb	r3, r3, r7, asr #1
 567:..\..\..\lvgl\version_6.1.2\lvgl\src\lv_objx/lv_cont.c **** 
 622              		.loc 1 567 0
 623 0324 0244     		add	r2, r2, r0
 571:..\..\..\lvgl\version_6.1.2\lvgl\src\lv_objx/lv_cont.c **** 
 624              		.loc 1 571 0
 625 0326 0121     		movs	r1, #1
 626 0328 4846     		mov	r0, r9
 627              	.LVL104:
 577:..\..\..\lvgl\version_6.1.2\lvgl\src\lv_objx/lv_cont.c ****     {
 628              		.loc 1 577 0
 629 032a 09F10407 		add	r7, r9, #4
 565:..\..\..\lvgl\version_6.1.2\lvgl\src\lv_objx/lv_cont.c ****     }
 630              		.loc 1 565 0
 631 032e 1DB2     		sxth	r5, r3
 632              	.LVL105:
 567:..\..\..\lvgl\version_6.1.2\lvgl\src\lv_objx/lv_cont.c **** 
 633              		.loc 1 567 0
 634 0330 96B2     		uxth	r6, r2
 635              	.LVL106:
 571:..\..\..\lvgl\version_6.1.2\lvgl\src\lv_objx/lv_cont.c **** 
 636              		.loc 1 571 0
 637 0332 FFF7FEFF 		bl	lv_obj_set_protect
 638              	.LVL107:
 577:..\..\..\lvgl\version_6.1.2\lvgl\src\lv_objx/lv_cont.c ****     {
 639              		.loc 1 577 0
ARM GAS  C:\Users\pearlstl\AppData\Local\Temp\cciL9yyu.s 			page 24


 640 0336 3846     		mov	r0, r7
 575:..\..\..\lvgl\version_6.1.2\lvgl\src\lv_objx/lv_cont.c ****     uint16_t obj_cnt = 0;
 641              		.loc 1 575 0
 642 0338 BBF92080 		ldrsh	r8, [fp, #32]
 643              	.LVL108:
 577:..\..\..\lvgl\version_6.1.2\lvgl\src\lv_objx/lv_cont.c ****     {
 644              		.loc 1 577 0
 645 033c FFF7FEFF 		bl	lv_ll_get_tail
 646              	.LVL109:
 647 0340 0446     		mov	r4, r0
 648              	.LVL110:
 649 0342 38B9     		cbnz	r0, .L51
 650 0344 58E0     		b	.L11
 651              	.LVL111:
 652              	.L50:
 653 0346 2146     		mov	r1, r4
 654 0348 3846     		mov	r0, r7
 655 034a FFF7FEFF 		bl	lv_ll_get_prev
 656              	.LVL112:
 657 034e 0446     		mov	r4, r0
 658 0350 0028     		cmp	r0, #0
 659 0352 51D0     		beq	.L11
 660              	.L51:
 579:..\..\..\lvgl\version_6.1.2\lvgl\src\lv_objx/lv_cont.c **** 
 661              		.loc 1 579 0
 662 0354 2046     		mov	r0, r4
 663 0356 FFF7FEFF 		bl	lv_obj_get_hidden
 664              	.LVL113:
 665 035a 0028     		cmp	r0, #0
 666 035c F3D1     		bne	.L50
 667 035e 0421     		movs	r1, #4
 668 0360 2046     		mov	r0, r4
 669 0362 FFF7FEFF 		bl	lv_obj_is_protected
 670              	.LVL114:
 671 0366 0028     		cmp	r0, #0
 672 0368 EDD1     		bne	.L50
 585:..\..\..\lvgl\version_6.1.2\lvgl\src\lv_objx/lv_cont.c ****         }
 673              		.loc 1 585 0
 674 036a 4246     		mov	r2, r8
 675 036c 2946     		mov	r1, r5
 676 036e 2046     		mov	r0, r4
 590:..\..\..\lvgl\version_6.1.2\lvgl\src\lv_objx/lv_cont.c ****             obj_cnt = 0;
 591:..\..\..\lvgl\version_6.1.2\lvgl\src\lv_objx/lv_cont.c ****             act_x   = style->body.padding.left;
 592:..\..\..\lvgl\version_6.1.2\lvgl\src\lv_objx/lv_cont.c ****             act_y += y_ofs;
 677              		.loc 1 592 0
 678 0370 B044     		add	r8, r8, r6
 679              	.LVL115:
 585:..\..\..\lvgl\version_6.1.2\lvgl\src\lv_objx/lv_cont.c ****         }
 680              		.loc 1 585 0
 681 0372 FFF7FEFF 		bl	lv_obj_set_pos
 682              	.LVL116:
 683              		.loc 1 592 0
 684 0376 0FFA88F8 		sxth	r8, r8
 685              	.LVL117:
 686 037a E4E7     		b	.L50
 687              	.LVL118:
 688              	.L125:
ARM GAS  C:\Users\pearlstl\AppData\Local\Temp\cciL9yyu.s 			page 25


 689              	.LBE49:
 690              	.LBE72:
 691              	.LBB73:
 692              	.LBB74:
 693              	.LBB75:
 483:..\..\..\lvgl\version_6.1.2\lvgl\src\lv_objx/lv_cont.c ****                     /*Step back one child because the last already not fit, so the previous is the
 694              		.loc 1 483 0
 695 037c 2046     		mov	r0, r4
 696 037e FFF7FEFF 		bl	lv_obj_get_width
 697              	.LVL119:
 698 0382 2B18     		adds	r3, r5, r0
 699 0384 5345     		cmp	r3, r10
 491:..\..\..\lvgl\version_6.1.2\lvgl\src\lv_objx/lv_cont.c ****                 h_row = LV_MATH_MAX(h_row, lv_obj_get_height(child_rc));         /*Search the highe
 700              		.loc 1 491 0
 701 0386 2046     		mov	r0, r4
 483:..\..\..\lvgl\version_6.1.2\lvgl\src\lv_objx/lv_cont.c ****                     /*Step back one child because the last already not fit, so the previous is the
 702              		.loc 1 483 0
 703 0388 00F31A81 		bgt	.L123
 704              	.LVL120:
 491:..\..\..\lvgl\version_6.1.2\lvgl\src\lv_objx/lv_cont.c ****                 h_row = LV_MATH_MAX(h_row, lv_obj_get_height(child_rc));         /*Search the highe
 705              		.loc 1 491 0
 706 038c FFF7FEFF 		bl	lv_obj_get_width
 707              	.LVL121:
 708 0390 BBF92830 		ldrsh	r3, [fp, #40]
 709 0394 1844     		add	r0, r0, r3
 710 0396 0544     		add	r5, r5, r0
 711              	.LVL122:
 492:..\..\..\lvgl\version_6.1.2\lvgl\src\lv_objx/lv_cont.c ****                 obj_num++;
 712              		.loc 1 492 0
 713 0398 2046     		mov	r0, r4
 714 039a FFF7FEFF 		bl	lv_obj_get_height
 715              	.LVL123:
 716 039e 4845     		cmp	r0, r9
 491:..\..\..\lvgl\version_6.1.2\lvgl\src\lv_objx/lv_cont.c ****                 h_row = LV_MATH_MAX(h_row, lv_obj_get_height(child_rc));         /*Search the highe
 717              		.loc 1 491 0
 718 03a0 2DB2     		sxth	r5, r5
 719              	.LVL124:
 493:..\..\..\lvgl\version_6.1.2\lvgl\src\lv_objx/lv_cont.c ****                 if(lv_obj_is_protected(child_rc, LV_PROTECT_FOLLOW))
 720              		.loc 1 493 0
 721 03a2 06F10106 		add	r6, r6, #1
 722              	.LVL125:
 492:..\..\..\lvgl\version_6.1.2\lvgl\src\lv_objx/lv_cont.c ****                 obj_num++;
 723              		.loc 1 492 0
 724 03a6 80F2FA80 		bge	.L124
 725              	.LVL126:
 726              	.L37:
 494:..\..\..\lvgl\version_6.1.2\lvgl\src\lv_objx/lv_cont.c ****                     break; /*If can not be followed by an other object then break here*/
 727              		.loc 1 494 0
 728 03aa 0821     		movs	r1, #8
 729 03ac 2046     		mov	r0, r4
 730 03ae FFF7FEFF 		bl	lv_obj_is_protected
 731              	.LVL127:
 732 03b2 0028     		cmp	r0, #0
 733 03b4 00F0A380 		beq	.L33
 734              	.LVL128:
 504:..\..\..\lvgl\version_6.1.2\lvgl\src\lv_objx/lv_cont.c ****             if(child_rc != NULL) {
 735              		.loc 1 504 0
ARM GAS  C:\Users\pearlstl\AppData\Local\Temp\cciL9yyu.s 			page 26


 736 03b8 002E     		cmp	r6, #0
 737 03ba 40F0A980 		bne	.L36
 738              	.LVL129:
 739              	.L35:
 506:..\..\..\lvgl\version_6.1.2\lvgl\src\lv_objx/lv_cont.c ****                 h_row = lv_obj_get_height(child_rc); /*Not set previously because of the early brea
 740              		.loc 1 506 0
 741 03be 039B     		ldr	r3, [sp, #12]
 742 03c0 0093     		str	r3, [sp]
 743 03c2 0222     		movs	r2, #2
 744 03c4 0023     		movs	r3, #0
 745 03c6 0499     		ldr	r1, [sp, #16]
 746 03c8 2046     		mov	r0, r4
 747 03ca FFF7FEFF 		bl	lv_obj_align
 748              	.LVL130:
 507:..\..\..\lvgl\version_6.1.2\lvgl\src\lv_objx/lv_cont.c ****             }
 749              		.loc 1 507 0
 750 03ce 2046     		mov	r0, r4
 751 03d0 FFF7FEFF 		bl	lv_obj_get_height
 752              	.LVL131:
 753 03d4 8146     		mov	r9, r0
 754              	.LVL132:
 755              	.L56:
 541:..\..\..\lvgl\version_6.1.2\lvgl\src\lv_objx/lv_cont.c ****         child_rs = lv_ll_get_prev(&cont->child_ll, child_rc); /*Go to the next object*/
 756              		.loc 1 541 0
 757 03d6 BBF82830 		ldrh	r3, [fp, #40]
 758 03da 039A     		ldr	r2, [sp, #12]
 759 03dc 1A44     		add	r2, r2, r3
 760 03de 9144     		add	r9, r9, r2
 761              	.LVL133:
 542:..\..\..\lvgl\version_6.1.2\lvgl\src\lv_objx/lv_cont.c ****         child_rc = child_rs;
 762              		.loc 1 542 0
 763 03e0 2146     		mov	r1, r4
 541:..\..\..\lvgl\version_6.1.2\lvgl\src\lv_objx/lv_cont.c ****         child_rs = lv_ll_get_prev(&cont->child_ll, child_rc); /*Go to the next object*/
 764              		.loc 1 541 0
 765 03e2 0FFA89F3 		sxth	r3, r9
 542:..\..\..\lvgl\version_6.1.2\lvgl\src\lv_objx/lv_cont.c ****         child_rc = child_rs;
 766              		.loc 1 542 0
 767 03e6 4046     		mov	r0, r8
 541:..\..\..\lvgl\version_6.1.2\lvgl\src\lv_objx/lv_cont.c ****         child_rs = lv_ll_get_prev(&cont->child_ll, child_rc); /*Go to the next object*/
 768              		.loc 1 541 0
 769 03e8 0393     		str	r3, [sp, #12]
 770              	.LVL134:
 542:..\..\..\lvgl\version_6.1.2\lvgl\src\lv_objx/lv_cont.c ****         child_rc = child_rs;
 771              		.loc 1 542 0
 772 03ea FFF7FEFF 		bl	lv_ll_get_prev
 773              	.LVL135:
 774              	.LBE75:
 473:..\..\..\lvgl\version_6.1.2\lvgl\src\lv_objx/lv_cont.c ****         lv_coord_t h_row = 0;
 775              		.loc 1 473 0
 776 03ee 0446     		mov	r4, r0
 777 03f0 0028     		cmp	r0, #0
 778 03f2 70D1     		bne	.L47
 779              	.LVL136:
 780              	.L108:
 781 03f4 DDF81090 		ldr	r9, [sp, #16]
 782              	.LVL137:
 783              	.L11:
ARM GAS  C:\Users\pearlstl\AppData\Local\Temp\cciL9yyu.s 			page 27


 784              	.LBE74:
 785              	.LBE73:
 786              	.LBB83:
 787              	.LBB53:
 448:..\..\..\lvgl\version_6.1.2\lvgl\src\lv_objx/lv_cont.c **** }
 788              		.loc 1 448 0
 789 03f8 4846     		mov	r0, r9
 790 03fa 0121     		movs	r1, #1
 791              	.LBE53:
 792              	.LBE83:
 304:..\..\..\lvgl\version_6.1.2\lvgl\src\lv_objx/lv_cont.c **** 
 793              		.loc 1 304 0
 794 03fc 07B0     		add	sp, sp, #28
 795              		.cfi_remember_state
 796              		.cfi_def_cfa_offset 36
 797              		@ sp needed
 798 03fe BDE8F04F 		pop	{r4, r5, r6, r7, r8, r9, r10, fp, lr}
 799              		.cfi_restore 14
 800              		.cfi_restore 11
 801              		.cfi_restore 10
 802              		.cfi_restore 9
 803              		.cfi_restore 8
 804              		.cfi_restore 7
 805              		.cfi_restore 6
 806              		.cfi_restore 5
 807              		.cfi_restore 4
 808              		.cfi_def_cfa_offset 0
 809              	.LBB84:
 810              	.LBB54:
 448:..\..\..\lvgl\version_6.1.2\lvgl\src\lv_objx/lv_cont.c **** }
 811              		.loc 1 448 0
 812 0402 FFF7FEBF 		b	lv_obj_clear_protect
 813              	.LVL138:
 814              	.L119:
 815              		.cfi_restore_state
 430:..\..\..\lvgl\version_6.1.2\lvgl\src\lv_objx/lv_cont.c **** 
 816              		.loc 1 430 0
 817 0406 B8F1000F 		cmp	r8, #0
 818 040a 3FF417AE 		beq	.L1
 432:..\..\..\lvgl\version_6.1.2\lvgl\src\lv_objx/lv_cont.c **** 
 819              		.loc 1 432 0
 820 040e 3B8D     		ldrh	r3, [r7, #40]
 821 0410 F31A     		subs	r3, r6, r3
 822 0412 9CB2     		uxth	r4, r3
 823              	.LVL139:
 436:..\..\..\lvgl\version_6.1.2\lvgl\src\lv_objx/lv_cont.c **** 
 824              		.loc 1 436 0
 825 0414 0121     		movs	r1, #1
 826 0416 4846     		mov	r0, r9
 827              	.LVL140:
 828 0418 FFF7FEFF 		bl	lv_obj_set_protect
 829              	.LVL141:
 439:..\..\..\lvgl\version_6.1.2\lvgl\src\lv_objx/lv_cont.c ****     LV_LL_READ_BACK(cont->child_ll, child)
 830              		.loc 1 439 0
 831 041c 23B2     		sxth	r3, r4
 832 041e 03EBD373 		add	r3, r3, r3, lsr #31
 440:..\..\..\lvgl\version_6.1.2\lvgl\src\lv_objx/lv_cont.c ****     {
ARM GAS  C:\Users\pearlstl\AppData\Local\Temp\cciL9yyu.s 			page 28


 833              		.loc 1 440 0
 834 0422 2846     		mov	r0, r5
 439:..\..\..\lvgl\version_6.1.2\lvgl\src\lv_objx/lv_cont.c ****     LV_LL_READ_BACK(cont->child_ll, child)
 835              		.loc 1 439 0
 836 0424 5E10     		asrs	r6, r3, #1
 440:..\..\..\lvgl\version_6.1.2\lvgl\src\lv_objx/lv_cont.c ****     {
 837              		.loc 1 440 0
 838 0426 FFF7FEFF 		bl	lv_ll_get_tail
 839              	.LVL142:
 439:..\..\..\lvgl\version_6.1.2\lvgl\src\lv_objx/lv_cont.c ****     LV_LL_READ_BACK(cont->child_ll, child)
 840              		.loc 1 439 0
 841 042a 7642     		negs	r6, r6
 842 042c 36B2     		sxth	r6, r6
 843              	.LVL143:
 440:..\..\..\lvgl\version_6.1.2\lvgl\src\lv_objx/lv_cont.c ****     {
 844              		.loc 1 440 0
 845 042e 0446     		mov	r4, r0
 846              	.LVL144:
 847 0430 38B9     		cbnz	r0, .L10
 848 0432 E1E7     		b	.L11
 849              	.LVL145:
 850              	.L9:
 851 0434 2146     		mov	r1, r4
 852 0436 2846     		mov	r0, r5
 853 0438 FFF7FEFF 		bl	lv_ll_get_prev
 854              	.LVL146:
 855 043c 0446     		mov	r4, r0
 856 043e 0028     		cmp	r0, #0
 857 0440 DAD0     		beq	.L11
 858              	.L10:
 442:..\..\..\lvgl\version_6.1.2\lvgl\src\lv_objx/lv_cont.c **** 
 859              		.loc 1 442 0
 860 0442 2046     		mov	r0, r4
 861 0444 FFF7FEFF 		bl	lv_obj_get_hidden
 862              	.LVL147:
 863 0448 0028     		cmp	r0, #0
 864 044a F3D1     		bne	.L9
 865 044c 0421     		movs	r1, #4
 866 044e 2046     		mov	r0, r4
 867 0450 FFF7FEFF 		bl	lv_obj_is_protected
 868              	.LVL148:
 869 0454 8046     		mov	r8, r0
 870 0456 0028     		cmp	r0, #0
 871 0458 ECD1     		bne	.L9
 444:..\..\..\lvgl\version_6.1.2\lvgl\src\lv_objx/lv_cont.c ****         last_cord += lv_obj_get_height(child) + style->body.padding.inner;
 872              		.loc 1 444 0
 873 045a 2046     		mov	r0, r4
 874 045c FFF7FEFF 		bl	lv_obj_get_height
 875              	.LVL149:
 876 0460 B6B2     		uxth	r6, r6
 877 0462 00EBD070 		add	r0, r0, r0, lsr #31
 878 0466 06EB6003 		add	r3, r6, r0, asr #1
 879 046a 1BB2     		sxth	r3, r3
 880 046c 0093     		str	r3, [sp]
 881 046e 4246     		mov	r2, r8
 882 0470 4346     		mov	r3, r8
 883 0472 4946     		mov	r1, r9
ARM GAS  C:\Users\pearlstl\AppData\Local\Temp\cciL9yyu.s 			page 29


 884 0474 2046     		mov	r0, r4
 885 0476 FFF7FEFF 		bl	lv_obj_align
 886              	.LVL150:
 445:..\..\..\lvgl\version_6.1.2\lvgl\src\lv_objx/lv_cont.c ****     }
 887              		.loc 1 445 0
 888 047a 2046     		mov	r0, r4
 889 047c FFF7FEFF 		bl	lv_obj_get_height
 890              	.LVL151:
 891 0480 B7F92830 		ldrsh	r3, [r7, #40]
 892 0484 1844     		add	r0, r0, r3
 893 0486 3318     		adds	r3, r6, r0
 894 0488 1EB2     		sxth	r6, r3
 895              	.LVL152:
 896 048a D3E7     		b	.L9
 897              	.LVL153:
 898              	.L118:
 899 048c DDF81490 		ldr	r9, [sp, #20]
 900 0490 B2E7     		b	.L11
 901              	.LVL154:
 902              	.L53:
 903              	.LBE54:
 904              	.LBE84:
 905              	.LBB85:
 906              	.LBB50:
 907              		.loc 1 592 0
 908 0492 049B     		ldr	r3, [sp, #16]
 591:..\..\..\lvgl\version_6.1.2\lvgl\src\lv_objx/lv_cont.c ****             act_y += y_ofs;
 909              		.loc 1 591 0
 910 0494 BBF92470 		ldrsh	r7, [fp, #36]
 911              	.LVL155:
 912              		.loc 1 592 0
 913 0498 9844     		add	r8, r8, r3
 914              	.LVL156:
 915 049a 0FFA88F8 		sxth	r8, r8
 916              	.LVL157:
 590:..\..\..\lvgl\version_6.1.2\lvgl\src\lv_objx/lv_cont.c ****             act_x   = style->body.padding.left;
 917              		.loc 1 590 0
 918 049e CA46     		mov	r10, r9
 919 04a0 12E6     		b	.L52
 920              	.LVL158:
 921              	.L116:
 922              	.LBE50:
 923              	.LBE85:
 924              	.LBB86:
 925              	.LBB81:
 461:..\..\..\lvgl\version_6.1.2\lvgl\src\lv_objx/lv_cont.c ****     lv_coord_t w_obj         = lv_obj_get_width(cont);
 926              		.loc 1 461 0
 927 04a2 4846     		mov	r0, r9
 928 04a4 FFF7FEFF 		bl	lv_obj_get_style
 929              	.LVL159:
 930 04a8 8346     		mov	fp, r0
 931              	.LVL160:
 462:..\..\..\lvgl\version_6.1.2\lvgl\src\lv_objx/lv_cont.c ****     lv_coord_t act_y         = style->body.padding.top;
 932              		.loc 1 462 0
 933 04aa 4846     		mov	r0, r9
 934              	.LVL161:
 935 04ac FFF7FEFF 		bl	lv_obj_get_width
ARM GAS  C:\Users\pearlstl\AppData\Local\Temp\cciL9yyu.s 			page 30


 936              	.LVL162:
 467:..\..\..\lvgl\version_6.1.2\lvgl\src\lv_objx/lv_cont.c ****     if(child_rs == NULL) return;                /*Return if no child*/
 937              		.loc 1 467 0
 938 04b0 09F10408 		add	r8, r9, #4
 463:..\..\..\lvgl\version_6.1.2\lvgl\src\lv_objx/lv_cont.c ****     /* Disable child change action because the children will be moved a lot
 939              		.loc 1 463 0
 940 04b4 BBF92030 		ldrsh	r3, [fp, #32]
 941 04b8 0393     		str	r3, [sp, #12]
 462:..\..\..\lvgl\version_6.1.2\lvgl\src\lv_objx/lv_cont.c ****     lv_coord_t act_y         = style->body.padding.top;
 942              		.loc 1 462 0
 943 04ba 8246     		mov	r10, r0
 944              	.LVL163:
 467:..\..\..\lvgl\version_6.1.2\lvgl\src\lv_objx/lv_cont.c ****     if(child_rs == NULL) return;                /*Return if no child*/
 945              		.loc 1 467 0
 946 04bc 4046     		mov	r0, r8
 947 04be FFF7FEFF 		bl	lv_ll_get_tail
 948              	.LVL164:
 468:..\..\..\lvgl\version_6.1.2\lvgl\src\lv_objx/lv_cont.c **** 
 949              		.loc 1 468 0
 950 04c2 0446     		mov	r4, r0
 951 04c4 0028     		cmp	r0, #0
 952 04c6 3FF4B9AD 		beq	.L1
 470:..\..\..\lvgl\version_6.1.2\lvgl\src\lv_objx/lv_cont.c **** 
 953              		.loc 1 470 0
 954 04ca 0121     		movs	r1, #1
 955 04cc 4846     		mov	r0, r9
 956              	.LVL165:
 957 04ce FFF7FEFF 		bl	lv_obj_set_protect
 958              	.LVL166:
 959              	.LBB79:
 960              	.LBB76:
 519:..\..\..\lvgl\version_6.1.2\lvgl\src\lv_objx/lv_cont.c ****             lv_obj_align(obj1, cont, LV_ALIGN_IN_TOP_LEFT, pad, act_y + (h_row - lv_obj_get_height(
 961              		.loc 1 519 0
 962 04d2 CDF81090 		str	r9, [sp, #16]
 963              	.LVL167:
 964              	.L47:
 965              	.LBE76:
 475:..\..\..\lvgl\version_6.1.2\lvgl\src\lv_objx/lv_cont.c ****             style->body.padding.left + style->body.padding.right; /*The width is at least the left+
 966              		.loc 1 475 0
 967 04d6 BBF82450 		ldrh	r5, [fp, #36]
 968 04da BBF82630 		ldrh	r3, [fp, #38]
 477:..\..\..\lvgl\version_6.1.2\lvgl\src\lv_objx/lv_cont.c **** 
 969              		.loc 1 477 0
 970 04de 0026     		movs	r6, #0
 475:..\..\..\lvgl\version_6.1.2\lvgl\src\lv_objx/lv_cont.c ****             style->body.padding.left + style->body.padding.right; /*The width is at least the left+
 971              		.loc 1 475 0
 972 04e0 1D44     		add	r5, r5, r3
 973 04e2 2DB2     		sxth	r5, r5
 974              	.LVL168:
 474:..\..\..\lvgl\version_6.1.2\lvgl\src\lv_objx/lv_cont.c ****         lv_coord_t w_row =
 975              		.loc 1 474 0
 976 04e4 B146     		mov	r9, r6
 475:..\..\..\lvgl\version_6.1.2\lvgl\src\lv_objx/lv_cont.c ****             style->body.padding.left + style->body.padding.right; /*The width is at least the left+
 977              		.loc 1 475 0
 978 04e6 2746     		mov	r7, r4
 979              	.LVL169:
 980              	.L32:
ARM GAS  C:\Users\pearlstl\AppData\Local\Temp\cciL9yyu.s 			page 31


 481:..\..\..\lvgl\version_6.1.2\lvgl\src\lv_objx/lv_cont.c ****                 /*If this object is already not fit then break*/
 981              		.loc 1 481 0
 982 04e8 2046     		mov	r0, r4
 983 04ea FFF7FEFF 		bl	lv_obj_get_hidden
 984              	.LVL170:
 985 04ee 0421     		movs	r1, #4
 986 04f0 28B9     		cbnz	r0, .L33
 987 04f2 2046     		mov	r0, r4
 988 04f4 FFF7FEFF 		bl	lv_obj_is_protected
 989              	.LVL171:
 990 04f8 0028     		cmp	r0, #0
 991 04fa 3FF43FAF 		beq	.L125
 992              	.L33:
 497:..\..\..\lvgl\version_6.1.2\lvgl\src\lv_objx/lv_cont.c ****             if(obj_num == 0)
 993              		.loc 1 497 0
 994 04fe 2146     		mov	r1, r4
 995 0500 4046     		mov	r0, r8
 996 0502 FFF7FEFF 		bl	lv_ll_get_prev
 997              	.LVL172:
 998 0506 0446     		mov	r4, r0
 999              	.LVL173:
 498:..\..\..\lvgl\version_6.1.2\lvgl\src\lv_objx/lv_cont.c ****                 child_rs = child_rc; /*If the first object was hidden (or too long) then set the
 1000              		.loc 1 498 0
 1001 0508 002E     		cmp	r6, #0
 1002 050a 43D0     		beq	.L39
 501:..\..\..\lvgl\version_6.1.2\lvgl\src\lv_objx/lv_cont.c **** 
 1003              		.loc 1 501 0
 1004 050c 0028     		cmp	r0, #0
 1005 050e EBD1     		bne	.L32
 1006              	.LVL174:
 1007              	.L36:
 511:..\..\..\lvgl\version_6.1.2\lvgl\src\lv_objx/lv_cont.c ****             lv_obj_align(child_rs, cont, LV_ALIGN_IN_TOP_MID, 0, act_y);
 1008              		.loc 1 511 0
 1009 0510 012E     		cmp	r6, #1
 1010 0512 49D0     		beq	.L126
 515:..\..\..\lvgl\version_6.1.2\lvgl\src\lv_objx/lv_cont.c ****             lv_obj_t * obj1 = child_rs;
 1011              		.loc 1 515 0
 1012 0514 022E     		cmp	r6, #2
 1013 0516 7FD0     		beq	.L127
 1014              	.LBB77:
 525:..\..\..\lvgl\version_6.1.2\lvgl\src\lv_objx/lv_cont.c ****             lv_coord_t new_opad = (w_obj - w_row) / (obj_num - 1);
 1015              		.loc 1 525 0
 1016 0518 BBF92830 		ldrsh	r3, [fp, #40]
 527:..\..\..\lvgl\version_6.1.2\lvgl\src\lv_objx/lv_cont.c ****             child_tmp           = child_rs;
 1017              		.loc 1 527 0
 1018 051c BBF92420 		ldrsh	r2, [fp, #36]
 525:..\..\..\lvgl\version_6.1.2\lvgl\src\lv_objx/lv_cont.c ****             lv_coord_t new_opad = (w_obj - w_row) / (obj_num - 1);
 1019              		.loc 1 525 0
 1020 0520 13FB06F3 		smulbb	r3, r3, r6
 1021 0524 EB1A     		subs	r3, r5, r3
 1022              	.LVL175:
 526:..\..\..\lvgl\version_6.1.2\lvgl\src\lv_objx/lv_cont.c ****             lv_coord_t act_x    = style->body.padding.left; /*x init*/
 1023              		.loc 1 526 0
 1024 0526 1BB2     		sxth	r3, r3
 1025 0528 751E     		subs	r5, r6, #1
 1026 052a C3EB0A03 		rsb	r3, r3, r10
 1027              	.LVL176:
ARM GAS  C:\Users\pearlstl\AppData\Local\Temp\cciL9yyu.s 			page 32


 1028 052e 1646     		mov	r6, r2
 1029              	.LVL177:
 1030 0530 B3FBF5F5 		udiv	r5, r3, r5
 1031              	.LVL178:
 1032 0534 2DB2     		sxth	r5, r5
 1033              	.LVL179:
 1034 0536 09E0     		b	.L46
 1035              	.LVL180:
 1036              	.L45:
 535:..\..\..\lvgl\version_6.1.2\lvgl\src\lv_objx/lv_cont.c ****                 child_tmp = lv_ll_get_prev(&cont->child_ll, child_tmp);
 1037              		.loc 1 535 0
 1038 0538 BC42     		cmp	r4, r7
 536:..\..\..\lvgl\version_6.1.2\lvgl\src\lv_objx/lv_cont.c ****             }
 1039              		.loc 1 536 0
 1040 053a 3946     		mov	r1, r7
 1041 053c 4046     		mov	r0, r8
 535:..\..\..\lvgl\version_6.1.2\lvgl\src\lv_objx/lv_cont.c ****                 child_tmp = lv_ll_get_prev(&cont->child_ll, child_tmp);
 1042              		.loc 1 535 0
 1043 053e 3FF44AAF 		beq	.L56
 1044              	.LVL181:
 536:..\..\..\lvgl\version_6.1.2\lvgl\src\lv_objx/lv_cont.c ****             }
 1045              		.loc 1 536 0
 1046 0542 FFF7FEFF 		bl	lv_ll_get_prev
 1047              	.LVL182:
 529:..\..\..\lvgl\version_6.1.2\lvgl\src\lv_objx/lv_cont.c ****                 if(lv_obj_get_hidden(child_tmp) == false && lv_obj_is_protected(child_tmp, LV_PROTE
 1048              		.loc 1 529 0
 1049 0546 0746     		mov	r7, r0
 1050 0548 0028     		cmp	r0, #0
 1051 054a 35D0     		beq	.L43
 1052              	.LVL183:
 1053              	.L46:
 530:..\..\..\lvgl\version_6.1.2\lvgl\src\lv_objx/lv_cont.c ****                     lv_obj_align(child_tmp, cont, LV_ALIGN_IN_TOP_LEFT, act_x,
 1054              		.loc 1 530 0
 1055 054c 3846     		mov	r0, r7
 1056 054e FFF7FEFF 		bl	lv_obj_get_hidden
 1057              	.LVL184:
 1058 0552 0028     		cmp	r0, #0
 1059 0554 F0D1     		bne	.L45
 1060 0556 0421     		movs	r1, #4
 1061 0558 3846     		mov	r0, r7
 1062 055a FFF7FEFF 		bl	lv_obj_is_protected
 1063              	.LVL185:
 1064 055e 0028     		cmp	r0, #0
 1065 0560 EAD1     		bne	.L45
 532:..\..\..\lvgl\version_6.1.2\lvgl\src\lv_objx/lv_cont.c ****                     act_x += lv_obj_get_width(child_tmp) + new_opad;
 1066              		.loc 1 532 0
 1067 0562 3846     		mov	r0, r7
 1068 0564 FFF7FEFF 		bl	lv_obj_get_height
 1069              	.LVL186:
 531:..\..\..\lvgl\version_6.1.2\lvgl\src\lv_objx/lv_cont.c ****                                  act_y + (h_row - lv_obj_get_height(child_tmp)) / 2);
 1070              		.loc 1 531 0
 1071 0568 039B     		ldr	r3, [sp, #12]
 1072 056a 0499     		ldr	r1, [sp, #16]
 1073 056c C0EB0900 		rsb	r0, r0, r9
 1074 0570 00EBD070 		add	r0, r0, r0, lsr #31
 1075 0574 03EB6003 		add	r3, r3, r0, asr #1
 1076 0578 1BB2     		sxth	r3, r3
ARM GAS  C:\Users\pearlstl\AppData\Local\Temp\cciL9yyu.s 			page 33


 1077 057a 0093     		str	r3, [sp]
 1078 057c 0122     		movs	r2, #1
 1079 057e 3346     		mov	r3, r6
 1080 0580 3846     		mov	r0, r7
 1081 0582 FFF7FEFF 		bl	lv_obj_align
 1082              	.LVL187:
 533:..\..\..\lvgl\version_6.1.2\lvgl\src\lv_objx/lv_cont.c ****                 }
 1083              		.loc 1 533 0
 1084 0586 3846     		mov	r0, r7
 1085 0588 FFF7FEFF 		bl	lv_obj_get_width
 1086              	.LVL188:
 1087 058c 2844     		add	r0, r0, r5
 1088 058e 0644     		add	r6, r6, r0
 1089              	.LVL189:
 1090 0590 36B2     		sxth	r6, r6
 1091              	.LVL190:
 1092 0592 D1E7     		b	.L45
 1093              	.LVL191:
 1094              	.L39:
 1095              	.LBE77:
 501:..\..\..\lvgl\version_6.1.2\lvgl\src\lv_objx/lv_cont.c **** 
 1096              		.loc 1 501 0
 1097 0594 0028     		cmp	r0, #0
 1098 0596 3FF42DAF 		beq	.L108
 1099 059a 2746     		mov	r7, r4
 1100 059c A4E7     		b	.L32
 1101              	.LVL192:
 1102              	.L124:
 492:..\..\..\lvgl\version_6.1.2\lvgl\src\lv_objx/lv_cont.c ****                 obj_num++;
 1103              		.loc 1 492 0
 1104 059e 2046     		mov	r0, r4
 1105 05a0 FFF7FEFF 		bl	lv_obj_get_height
 1106              	.LVL193:
 1107 05a4 8146     		mov	r9, r0
 1108              	.LVL194:
 1109 05a6 00E7     		b	.L37
 1110              	.LVL195:
 1111              	.L126:
 512:..\..\..\lvgl\version_6.1.2\lvgl\src\lv_objx/lv_cont.c ****         }
 1112              		.loc 1 512 0
 1113 05a8 039B     		ldr	r3, [sp, #12]
 1114 05aa 0093     		str	r3, [sp]
 1115 05ac 3846     		mov	r0, r7
 1116 05ae 0023     		movs	r3, #0
 1117 05b0 0222     		movs	r2, #2
 1118 05b2 0499     		ldr	r1, [sp, #16]
 1119 05b4 FFF7FEFF 		bl	lv_obj_align
 1120              	.LVL196:
 1121              	.L43:
 540:..\..\..\lvgl\version_6.1.2\lvgl\src\lv_objx/lv_cont.c ****         act_y += style->body.padding.inner + h_row;           /*y increment*/
 1122              		.loc 1 540 0
 1123 05b8 002C     		cmp	r4, #0
 1124 05ba 7FF40CAF 		bne	.L56
 1125 05be 19E7     		b	.L108
 1126              	.LVL197:
 1127              	.L123:
 486:..\..\..\lvgl\version_6.1.2\lvgl\src\lv_objx/lv_cont.c ****                         child_rc = lv_ll_get_next(&cont->child_ll, child_rc);
ARM GAS  C:\Users\pearlstl\AppData\Local\Temp\cciL9yyu.s 			page 34


 1128              		.loc 1 486 0
 1129 05c0 002E     		cmp	r6, #0
 1130 05c2 3FF4FCAE 		beq	.L35
 487:..\..\..\lvgl\version_6.1.2\lvgl\src\lv_objx/lv_cont.c ****                     }
 1131              		.loc 1 487 0
 1132 05c6 2146     		mov	r1, r4
 1133 05c8 4046     		mov	r0, r8
 1134              	.LVL198:
 1135 05ca FFF7FEFF 		bl	lv_ll_get_next
 1136              	.LVL199:
 1137 05ce 0446     		mov	r4, r0
 1138              	.LVL200:
 1139 05d0 9EE7     		b	.L36
 1140              	.LVL201:
 1141              	.L15:
 1142              	.LBE79:
 1143              	.LBE81:
 1144              	.LBE86:
 1145              	.LBB87:
 1146              	.LBB62:
 330:..\..\..\lvgl\version_6.1.2\lvgl\src\lv_objx/lv_cont.c ****             align     = LV_ALIGN_IN_TOP_RIGHT;
 1147              		.loc 1 330 0
 1148 05d2 B0F82680 		ldrh	r8, [r0, #38]
 1149 05d6 C8F10008 		rsb	r8, r8, #0
 1150 05da 0FFA88F8 		sxth	r8, r8
 1151              	.LVL202:
 331:..\..\..\lvgl\version_6.1.2\lvgl\src\lv_objx/lv_cont.c ****             break;
 1152              		.loc 1 331 0
 1153 05de 4FF0030A 		mov	r10, #3
 1154 05e2 DAE5     		b	.L13
 1155              	.LVL203:
 1156              	.L14:
 326:..\..\..\lvgl\version_6.1.2\lvgl\src\lv_objx/lv_cont.c ****             align     = LV_ALIGN_IN_TOP_MID;
 1157              		.loc 1 326 0
 1158 05e4 4FF00008 		mov	r8, #0
 327:..\..\..\lvgl\version_6.1.2\lvgl\src\lv_objx/lv_cont.c ****             break;
 1159              		.loc 1 327 0
 1160 05e8 4FF0020A 		mov	r10, #2
 1161 05ec D5E5     		b	.L13
 1162              	.LVL204:
 1163              	.L121:
 1164              	.LBE62:
 1165              	.LBE87:
 1166              	.LBB88:
 1167              	.LBB69:
 372:..\..\..\lvgl\version_6.1.2\lvgl\src\lv_objx/lv_cont.c ****             break;
 1168              		.loc 1 372 0
 1169 05ee 0128     		cmp	r0, #1
 371:..\..\..\lvgl\version_6.1.2\lvgl\src\lv_objx/lv_cont.c ****             align     = base_dir == LV_BIDI_DIR_RTL ? LV_ALIGN_IN_TOP_RIGHT : LV_ALIGN_IN_TOP_LEFT;
 1170              		.loc 1 371 0
 1171 05f0 B7F920A0 		ldrsh	r10, [r7, #32]
 1172              	.LVL205:
 372:..\..\..\lvgl\version_6.1.2\lvgl\src\lv_objx/lv_cont.c ****             break;
 1173              		.loc 1 372 0
 1174 05f4 7FF41DAE 		bne	.L110
 1175              	.LVL206:
 1176              	.L61:
ARM GAS  C:\Users\pearlstl\AppData\Local\Temp\cciL9yyu.s 			page 35


 384:..\..\..\lvgl\version_6.1.2\lvgl\src\lv_objx/lv_cont.c ****             break;
 1177              		.loc 1 384 0
 1178 05f8 4FF00308 		mov	r8, #3
 1179              	.L24:
 1180              	.LVL207:
 390:..\..\..\lvgl\version_6.1.2\lvgl\src\lv_objx/lv_cont.c **** 
 1181              		.loc 1 390 0
 1182 05fc 0121     		movs	r1, #1
 1183 05fe 4846     		mov	r0, r9
 1184              	.LVL208:
 1185 0600 FFF7FEFF 		bl	lv_obj_set_protect
 1186              	.LVL209:
 394:..\..\..\lvgl\version_6.1.2\lvgl\src\lv_objx/lv_cont.c ****     else last_cord = style->body.padding.left;
 1187              		.loc 1 394 0
 1188 0604 B7F92650 		ldrsh	r5, [r7, #38]
 1189              	.LVL210:
 1190 0608 1BE6     		b	.L55
 1191              	.LVL211:
 1192              	.L21:
 376:..\..\..\lvgl\version_6.1.2\lvgl\src\lv_objx/lv_cont.c ****             break;
 1193              		.loc 1 376 0
 1194 060a 0128     		cmp	r0, #1
 375:..\..\..\lvgl\version_6.1.2\lvgl\src\lv_objx/lv_cont.c ****             align     = base_dir == LV_BIDI_DIR_RTL ? LV_ALIGN_IN_RIGHT_MID: LV_ALIGN_IN_LEFT_MID;
 1195              		.loc 1 375 0
 1196 060c 4FF0000A 		mov	r10, #0
 376:..\..\..\lvgl\version_6.1.2\lvgl\src\lv_objx/lv_cont.c ****             break;
 1197              		.loc 1 376 0
 1198 0610 47D0     		beq	.L59
 1199 0612 4FF00708 		mov	r8, #7
 1200 0616 0EE6     		b	.L25
 1201              	.LVL212:
 1202              	.L127:
 1203              	.LBE69:
 1204              	.LBE88:
 1205              	.LBB89:
 1206              	.LBB82:
 1207              	.LBB80:
 1208              	.LBB78:
 517:..\..\..\lvgl\version_6.1.2\lvgl\src\lv_objx/lv_cont.c ****             w_row           = lv_obj_get_width(obj1) + lv_obj_get_width(obj2);
 1209              		.loc 1 517 0
 1210 0618 3946     		mov	r1, r7
 1211 061a 4046     		mov	r0, r8
 1212 061c FFF7FEFF 		bl	lv_ll_get_prev
 1213              	.LVL213:
 1214 0620 0546     		mov	r5, r0
 1215              	.LVL214:
 518:..\..\..\lvgl\version_6.1.2\lvgl\src\lv_objx/lv_cont.c ****             lv_coord_t pad  = (w_obj - w_row) / 3;
 1216              		.loc 1 518 0
 1217 0622 3846     		mov	r0, r7
 1218              	.LVL215:
 1219 0624 FFF7FEFF 		bl	lv_obj_get_width
 1220              	.LVL216:
 1221 0628 0646     		mov	r6, r0
 1222              	.LVL217:
 1223 062a 2846     		mov	r0, r5
 1224 062c FFF7FEFF 		bl	lv_obj_get_width
 1225              	.LVL218:
ARM GAS  C:\Users\pearlstl\AppData\Local\Temp\cciL9yyu.s 			page 36


 519:..\..\..\lvgl\version_6.1.2\lvgl\src\lv_objx/lv_cont.c ****             lv_obj_align(obj1, cont, LV_ALIGN_IN_TOP_LEFT, pad, act_y + (h_row - lv_obj_get_height(
 1226              		.loc 1 519 0
 1227 0630 3044     		add	r0, r0, r6
 1228              	.LVL219:
 1229 0632 03B2     		sxth	r3, r0
 1230 0634 1C4A     		ldr	r2, .L128
 1231 0636 C3EB0A03 		rsb	r3, r3, r10
 1232 063a 82FB0312 		smull	r1, r2, r2, r3
 1233 063e A2EBE373 		sub	r3, r2, r3, asr #31
 520:..\..\..\lvgl\version_6.1.2\lvgl\src\lv_objx/lv_cont.c ****             lv_obj_align(obj2, cont, LV_ALIGN_IN_TOP_RIGHT, -pad, act_y + (h_row - lv_obj_get_heigh
 1234              		.loc 1 520 0
 1235 0642 3846     		mov	r0, r7
 519:..\..\..\lvgl\version_6.1.2\lvgl\src\lv_objx/lv_cont.c ****             lv_obj_align(obj1, cont, LV_ALIGN_IN_TOP_LEFT, pad, act_y + (h_row - lv_obj_get_height(
 1236              		.loc 1 519 0
 1237 0644 0593     		str	r3, [sp, #20]
 1238              	.LVL220:
 520:..\..\..\lvgl\version_6.1.2\lvgl\src\lv_objx/lv_cont.c ****             lv_obj_align(obj2, cont, LV_ALIGN_IN_TOP_RIGHT, -pad, act_y + (h_row - lv_obj_get_heigh
 1239              		.loc 1 520 0
 1240 0646 FFF7FEFF 		bl	lv_obj_get_height
 1241              	.LVL221:
 1242 064a BDF80C60 		ldrh	r6, [sp, #12]
 1243 064e BDF91430 		ldrsh	r3, [sp, #20]
 1244 0652 C0EB0900 		rsb	r0, r0, r9
 1245 0656 00EBD070 		add	r0, r0, r0, lsr #31
 1246 065a 06EB6002 		add	r2, r6, r0, asr #1
 1247 065e 3846     		mov	r0, r7
 1248 0660 049F     		ldr	r7, [sp, #16]
 1249              	.LVL222:
 1250 0662 12B2     		sxth	r2, r2
 1251 0664 3946     		mov	r1, r7
 1252 0666 0092     		str	r2, [sp]
 1253 0668 0122     		movs	r2, #1
 1254 066a FFF7FEFF 		bl	lv_obj_align
 1255              	.LVL223:
 521:..\..\..\lvgl\version_6.1.2\lvgl\src\lv_objx/lv_cont.c ****         }
 1256              		.loc 1 521 0
 1257 066e 2846     		mov	r0, r5
 1258 0670 FFF7FEFF 		bl	lv_obj_get_height
 1259              	.LVL224:
 1260 0674 C0EB0900 		rsb	r0, r0, r9
 1261 0678 00EBD072 		add	r2, r0, r0, lsr #31
 1262 067c 059B     		ldr	r3, [sp, #20]
 1263 067e 06EB6202 		add	r2, r6, r2, asr #1
 1264 0682 12B2     		sxth	r2, r2
 1265 0684 5B42     		negs	r3, r3
 1266 0686 0092     		str	r2, [sp]
 1267 0688 1BB2     		sxth	r3, r3
 1268 068a 2846     		mov	r0, r5
 1269 068c 0322     		movs	r2, #3
 1270 068e 3946     		mov	r1, r7
 1271 0690 FFF7FEFF 		bl	lv_obj_align
 1272              	.LVL225:
 1273              	.LBE78:
 540:..\..\..\lvgl\version_6.1.2\lvgl\src\lv_objx/lv_cont.c ****         act_y += style->body.padding.inner + h_row;           /*y increment*/
 1274              		.loc 1 540 0
 1275 0694 002C     		cmp	r4, #0
 1276 0696 7FF49EAE 		bne	.L56
ARM GAS  C:\Users\pearlstl\AppData\Local\Temp\cciL9yyu.s 			page 37


 1277 069a ABE6     		b	.L108
 1278              	.LVL226:
 1279              	.L60:
 1280              	.LBE80:
 1281              	.LBE82:
 1282              	.LBE89:
 1283              	.LBB90:
 1284              	.LBB70:
 380:..\..\..\lvgl\version_6.1.2\lvgl\src\lv_objx/lv_cont.c ****             break;
 1285              		.loc 1 380 0
 1286 069c 4FF00608 		mov	r8, #6
 1287 06a0 ACE7     		b	.L24
 1288              	.LVL227:
 1289              	.L59:
 376:..\..\..\lvgl\version_6.1.2\lvgl\src\lv_objx/lv_cont.c ****             break;
 1290              		.loc 1 376 0
 1291 06a2 4FF00808 		mov	r8, #8
 1292 06a6 A9E7     		b	.L24
 1293              	.L129:
 1294              		.align	2
 1295              	.L128:
 1296 06a8 56555555 		.word	1431655766
 1297              	.LBE70:
 1298              	.LBE90:
 1299              		.cfi_endproc
 1300              	.LFE44:
 1301              		.size	lv_cont_refr_layout, .-lv_cont_refr_layout
 1302              		.section	.text.lv_cont_refr_autofit,"ax",%progbits
 1303              		.align	2
 1304              		.thumb
 1305              		.thumb_func
 1306              		.type	lv_cont_refr_autofit, %function
 1307              	lv_cont_refr_autofit:
 1308              	.LFB50:
 593:..\..\..\lvgl\version_6.1.2\lvgl\src\lv_objx/lv_cont.c ****         }
 594:..\..\..\lvgl\version_6.1.2\lvgl\src\lv_objx/lv_cont.c ****     }
 595:..\..\..\lvgl\version_6.1.2\lvgl\src\lv_objx/lv_cont.c **** 
 596:..\..\..\lvgl\version_6.1.2\lvgl\src\lv_objx/lv_cont.c ****     lv_obj_clear_protect(cont, LV_PROTECT_CHILD_CHG);
 597:..\..\..\lvgl\version_6.1.2\lvgl\src\lv_objx/lv_cont.c **** }
 598:..\..\..\lvgl\version_6.1.2\lvgl\src\lv_objx/lv_cont.c **** 
 599:..\..\..\lvgl\version_6.1.2\lvgl\src\lv_objx/lv_cont.c **** /**
 600:..\..\..\lvgl\version_6.1.2\lvgl\src\lv_objx/lv_cont.c ****  * Handle auto fit. Set the size of the object to involve all children.
 601:..\..\..\lvgl\version_6.1.2\lvgl\src\lv_objx/lv_cont.c ****  * @param cont pointer to an object which size will be modified
 602:..\..\..\lvgl\version_6.1.2\lvgl\src\lv_objx/lv_cont.c ****  */
 603:..\..\..\lvgl\version_6.1.2\lvgl\src\lv_objx/lv_cont.c **** static void lv_cont_refr_autofit(lv_obj_t * cont)
 604:..\..\..\lvgl\version_6.1.2\lvgl\src\lv_objx/lv_cont.c **** {
 1309              		.loc 1 604 0
 1310              		.cfi_startproc
 1311              		@ args = 0, pretend = 0, frame = 48
 1312              		@ frame_needed = 0, uses_anonymous_args = 0
 1313              	.LVL228:
 1314 0000 2DE9F04F 		push	{r4, r5, r6, r7, r8, r9, r10, fp, lr}
 1315              		.cfi_def_cfa_offset 36
 1316              		.cfi_offset 4, -36
 1317              		.cfi_offset 5, -32
 1318              		.cfi_offset 6, -28
 1319              		.cfi_offset 7, -24
ARM GAS  C:\Users\pearlstl\AppData\Local\Temp\cciL9yyu.s 			page 38


 1320              		.cfi_offset 8, -20
 1321              		.cfi_offset 9, -16
 1322              		.cfi_offset 10, -12
 1323              		.cfi_offset 11, -8
 1324              		.cfi_offset 14, -4
 1325 0004 8DB0     		sub	sp, sp, #52
 1326              		.cfi_def_cfa_offset 88
 1327              		.loc 1 604 0
 1328 0006 0646     		mov	r6, r0
 605:..\..\..\lvgl\version_6.1.2\lvgl\src\lv_objx/lv_cont.c ****     lv_cont_ext_t * ext = lv_obj_get_ext_attr(cont);
 1329              		.loc 1 605 0
 1330 0008 FFF7FEFF 		bl	lv_obj_get_ext_attr
 1331              	.LVL229:
 606:..\..\..\lvgl\version_6.1.2\lvgl\src\lv_objx/lv_cont.c **** 
 607:..\..\..\lvgl\version_6.1.2\lvgl\src\lv_objx/lv_cont.c ****     if(ext->fit_left == LV_FIT_NONE && ext->fit_right == LV_FIT_NONE && ext->fit_top == LV_FIT_NONE
 1332              		.loc 1 607 0
 1333 000c 0378     		ldrb	r3, [r0]	@ zero_extendqisi2
 1334 000e 13F0F00F 		tst	r3, #240
 605:..\..\..\lvgl\version_6.1.2\lvgl\src\lv_objx/lv_cont.c ****     lv_cont_ext_t * ext = lv_obj_get_ext_attr(cont);
 1335              		.loc 1 605 0
 1336 0012 8046     		mov	r8, r0
 1337              	.LVL230:
 1338              		.loc 1 607 0
 1339 0014 05D1     		bne	.L131
 1340              		.loc 1 607 0 is_stmt 0 discriminator 1
 1341 0016 4378     		ldrb	r3, [r0, #1]	@ zero_extendqisi2
 1342 0018 1B07     		lsls	r3, r3, #28
 1343 001a 02D1     		bne	.L131
 1344              	.LVL231:
 1345              	.L130:
 608:..\..\..\lvgl\version_6.1.2\lvgl\src\lv_objx/lv_cont.c ****        ext->fit_bottom == LV_FIT_NONE) {
 609:..\..\..\lvgl\version_6.1.2\lvgl\src\lv_objx/lv_cont.c ****         return;
 610:..\..\..\lvgl\version_6.1.2\lvgl\src\lv_objx/lv_cont.c ****     }
 611:..\..\..\lvgl\version_6.1.2\lvgl\src\lv_objx/lv_cont.c **** 
 612:..\..\..\lvgl\version_6.1.2\lvgl\src\lv_objx/lv_cont.c ****     lv_area_t tight_area;
 613:..\..\..\lvgl\version_6.1.2\lvgl\src\lv_objx/lv_cont.c ****     lv_area_t ori;
 614:..\..\..\lvgl\version_6.1.2\lvgl\src\lv_objx/lv_cont.c ****     const lv_style_t * style = lv_obj_get_style(cont);
 615:..\..\..\lvgl\version_6.1.2\lvgl\src\lv_objx/lv_cont.c ****     lv_obj_t * child_i;
 616:..\..\..\lvgl\version_6.1.2\lvgl\src\lv_objx/lv_cont.c **** 
 617:..\..\..\lvgl\version_6.1.2\lvgl\src\lv_objx/lv_cont.c ****     lv_obj_t * par               = lv_obj_get_parent(cont);
 618:..\..\..\lvgl\version_6.1.2\lvgl\src\lv_objx/lv_cont.c ****     const lv_style_t * par_style = lv_obj_get_style(par);
 619:..\..\..\lvgl\version_6.1.2\lvgl\src\lv_objx/lv_cont.c ****     lv_area_t flood_area;
 620:..\..\..\lvgl\version_6.1.2\lvgl\src\lv_objx/lv_cont.c ****     lv_area_copy(&flood_area, &par->coords);
 621:..\..\..\lvgl\version_6.1.2\lvgl\src\lv_objx/lv_cont.c ****     flood_area.x1 += par_style->body.padding.left;
 622:..\..\..\lvgl\version_6.1.2\lvgl\src\lv_objx/lv_cont.c ****     flood_area.x2 -= par_style->body.padding.right;
 623:..\..\..\lvgl\version_6.1.2\lvgl\src\lv_objx/lv_cont.c ****     flood_area.y1 += par_style->body.padding.top;
 624:..\..\..\lvgl\version_6.1.2\lvgl\src\lv_objx/lv_cont.c ****     flood_area.y2 -= par_style->body.padding.bottom;
 625:..\..\..\lvgl\version_6.1.2\lvgl\src\lv_objx/lv_cont.c **** 
 626:..\..\..\lvgl\version_6.1.2\lvgl\src\lv_objx/lv_cont.c ****     /*Search the side coordinates of the children*/
 627:..\..\..\lvgl\version_6.1.2\lvgl\src\lv_objx/lv_cont.c ****     lv_obj_get_coords(cont, &ori);
 628:..\..\..\lvgl\version_6.1.2\lvgl\src\lv_objx/lv_cont.c ****     lv_obj_get_coords(cont, &tight_area);
 629:..\..\..\lvgl\version_6.1.2\lvgl\src\lv_objx/lv_cont.c **** 
 630:..\..\..\lvgl\version_6.1.2\lvgl\src\lv_objx/lv_cont.c ****     bool has_children = lv_ll_is_empty(&cont->child_ll) ? false : true;
 631:..\..\..\lvgl\version_6.1.2\lvgl\src\lv_objx/lv_cont.c **** 
 632:..\..\..\lvgl\version_6.1.2\lvgl\src\lv_objx/lv_cont.c ****     if(has_children) {
 633:..\..\..\lvgl\version_6.1.2\lvgl\src\lv_objx/lv_cont.c ****         tight_area.x1 = LV_COORD_MAX;
 634:..\..\..\lvgl\version_6.1.2\lvgl\src\lv_objx/lv_cont.c ****         tight_area.y1 = LV_COORD_MAX;
ARM GAS  C:\Users\pearlstl\AppData\Local\Temp\cciL9yyu.s 			page 39


 635:..\..\..\lvgl\version_6.1.2\lvgl\src\lv_objx/lv_cont.c ****         tight_area.x2 = LV_COORD_MIN;
 636:..\..\..\lvgl\version_6.1.2\lvgl\src\lv_objx/lv_cont.c ****         tight_area.y2 = LV_COORD_MIN;
 637:..\..\..\lvgl\version_6.1.2\lvgl\src\lv_objx/lv_cont.c **** 
 638:..\..\..\lvgl\version_6.1.2\lvgl\src\lv_objx/lv_cont.c ****         LV_LL_READ(cont->child_ll, child_i)
 639:..\..\..\lvgl\version_6.1.2\lvgl\src\lv_objx/lv_cont.c ****         {
 640:..\..\..\lvgl\version_6.1.2\lvgl\src\lv_objx/lv_cont.c ****             if(lv_obj_get_hidden(child_i) != false) continue;
 641:..\..\..\lvgl\version_6.1.2\lvgl\src\lv_objx/lv_cont.c ****             tight_area.x1 = LV_MATH_MIN(tight_area.x1, child_i->coords.x1);
 642:..\..\..\lvgl\version_6.1.2\lvgl\src\lv_objx/lv_cont.c ****             tight_area.y1 = LV_MATH_MIN(tight_area.y1, child_i->coords.y1);
 643:..\..\..\lvgl\version_6.1.2\lvgl\src\lv_objx/lv_cont.c ****             tight_area.x2 = LV_MATH_MAX(tight_area.x2, child_i->coords.x2);
 644:..\..\..\lvgl\version_6.1.2\lvgl\src\lv_objx/lv_cont.c ****             tight_area.y2 = LV_MATH_MAX(tight_area.y2, child_i->coords.y2);
 645:..\..\..\lvgl\version_6.1.2\lvgl\src\lv_objx/lv_cont.c ****         }
 646:..\..\..\lvgl\version_6.1.2\lvgl\src\lv_objx/lv_cont.c **** 
 647:..\..\..\lvgl\version_6.1.2\lvgl\src\lv_objx/lv_cont.c ****         tight_area.x1 -= style->body.padding.left;
 648:..\..\..\lvgl\version_6.1.2\lvgl\src\lv_objx/lv_cont.c ****         tight_area.x2 += style->body.padding.right;
 649:..\..\..\lvgl\version_6.1.2\lvgl\src\lv_objx/lv_cont.c ****         tight_area.y1 -= style->body.padding.top;
 650:..\..\..\lvgl\version_6.1.2\lvgl\src\lv_objx/lv_cont.c ****         tight_area.y2 += style->body.padding.bottom;
 651:..\..\..\lvgl\version_6.1.2\lvgl\src\lv_objx/lv_cont.c ****     }
 652:..\..\..\lvgl\version_6.1.2\lvgl\src\lv_objx/lv_cont.c **** 
 653:..\..\..\lvgl\version_6.1.2\lvgl\src\lv_objx/lv_cont.c ****     lv_area_t new_area;
 654:..\..\..\lvgl\version_6.1.2\lvgl\src\lv_objx/lv_cont.c ****     lv_area_copy(&new_area, &ori);
 655:..\..\..\lvgl\version_6.1.2\lvgl\src\lv_objx/lv_cont.c **** 
 656:..\..\..\lvgl\version_6.1.2\lvgl\src\lv_objx/lv_cont.c ****     switch(ext->fit_left) {
 657:..\..\..\lvgl\version_6.1.2\lvgl\src\lv_objx/lv_cont.c ****         case LV_FIT_TIGHT: new_area.x1 = tight_area.x1; break;
 658:..\..\..\lvgl\version_6.1.2\lvgl\src\lv_objx/lv_cont.c ****         case LV_FIT_FLOOD: new_area.x1 = flood_area.x1; break;
 659:..\..\..\lvgl\version_6.1.2\lvgl\src\lv_objx/lv_cont.c ****         case LV_FIT_FILL: new_area.x1 = has_children ? LV_MATH_MIN(tight_area.x1, flood_area.x1) : 
 660:..\..\..\lvgl\version_6.1.2\lvgl\src\lv_objx/lv_cont.c ****         default: break;
 661:..\..\..\lvgl\version_6.1.2\lvgl\src\lv_objx/lv_cont.c ****     }
 662:..\..\..\lvgl\version_6.1.2\lvgl\src\lv_objx/lv_cont.c **** 
 663:..\..\..\lvgl\version_6.1.2\lvgl\src\lv_objx/lv_cont.c ****     switch(ext->fit_right) {
 664:..\..\..\lvgl\version_6.1.2\lvgl\src\lv_objx/lv_cont.c ****         case LV_FIT_TIGHT: new_area.x2 = tight_area.x2; break;
 665:..\..\..\lvgl\version_6.1.2\lvgl\src\lv_objx/lv_cont.c ****         case LV_FIT_FLOOD: new_area.x2 = flood_area.x2; break;
 666:..\..\..\lvgl\version_6.1.2\lvgl\src\lv_objx/lv_cont.c ****         case LV_FIT_FILL: new_area.x2 = has_children ? LV_MATH_MAX(tight_area.x2, flood_area.x2) : 
 667:..\..\..\lvgl\version_6.1.2\lvgl\src\lv_objx/lv_cont.c ****         default: break;
 668:..\..\..\lvgl\version_6.1.2\lvgl\src\lv_objx/lv_cont.c ****     }
 669:..\..\..\lvgl\version_6.1.2\lvgl\src\lv_objx/lv_cont.c **** 
 670:..\..\..\lvgl\version_6.1.2\lvgl\src\lv_objx/lv_cont.c ****     switch(ext->fit_top) {
 671:..\..\..\lvgl\version_6.1.2\lvgl\src\lv_objx/lv_cont.c ****         case LV_FIT_TIGHT: new_area.y1 = tight_area.y1; break;
 672:..\..\..\lvgl\version_6.1.2\lvgl\src\lv_objx/lv_cont.c ****         case LV_FIT_FLOOD: new_area.y1 = flood_area.y1; break;
 673:..\..\..\lvgl\version_6.1.2\lvgl\src\lv_objx/lv_cont.c ****         case LV_FIT_FILL: new_area.y1 = has_children ? LV_MATH_MIN(tight_area.y1, flood_area.y1) : 
 674:..\..\..\lvgl\version_6.1.2\lvgl\src\lv_objx/lv_cont.c ****         default: break;
 675:..\..\..\lvgl\version_6.1.2\lvgl\src\lv_objx/lv_cont.c ****     }
 676:..\..\..\lvgl\version_6.1.2\lvgl\src\lv_objx/lv_cont.c **** 
 677:..\..\..\lvgl\version_6.1.2\lvgl\src\lv_objx/lv_cont.c ****     switch(ext->fit_bottom) {
 678:..\..\..\lvgl\version_6.1.2\lvgl\src\lv_objx/lv_cont.c ****         case LV_FIT_TIGHT: new_area.y2 = tight_area.y2; break;
 679:..\..\..\lvgl\version_6.1.2\lvgl\src\lv_objx/lv_cont.c ****         case LV_FIT_FLOOD: new_area.y2 = flood_area.y2; break;
 680:..\..\..\lvgl\version_6.1.2\lvgl\src\lv_objx/lv_cont.c ****         case LV_FIT_FILL: new_area.y2 = has_children ? LV_MATH_MAX(tight_area.y2, flood_area.y2) : 
 681:..\..\..\lvgl\version_6.1.2\lvgl\src\lv_objx/lv_cont.c ****         default: break;
 682:..\..\..\lvgl\version_6.1.2\lvgl\src\lv_objx/lv_cont.c ****     }
 683:..\..\..\lvgl\version_6.1.2\lvgl\src\lv_objx/lv_cont.c **** 
 684:..\..\..\lvgl\version_6.1.2\lvgl\src\lv_objx/lv_cont.c ****     /*Do nothing if the coordinates are not changed*/
 685:..\..\..\lvgl\version_6.1.2\lvgl\src\lv_objx/lv_cont.c ****     if(cont->coords.x1 != new_area.x1 || cont->coords.y1 != new_area.y1 || cont->coords.x2 != new_a
 686:..\..\..\lvgl\version_6.1.2\lvgl\src\lv_objx/lv_cont.c ****        cont->coords.y2 != new_area.y2) {
 687:..\..\..\lvgl\version_6.1.2\lvgl\src\lv_objx/lv_cont.c **** 
 688:..\..\..\lvgl\version_6.1.2\lvgl\src\lv_objx/lv_cont.c ****         lv_obj_invalidate(cont);
 689:..\..\..\lvgl\version_6.1.2\lvgl\src\lv_objx/lv_cont.c ****         lv_area_copy(&cont->coords, &new_area);
 690:..\..\..\lvgl\version_6.1.2\lvgl\src\lv_objx/lv_cont.c ****         lv_obj_invalidate(cont);
 691:..\..\..\lvgl\version_6.1.2\lvgl\src\lv_objx/lv_cont.c **** 
ARM GAS  C:\Users\pearlstl\AppData\Local\Temp\cciL9yyu.s 			page 40


 692:..\..\..\lvgl\version_6.1.2\lvgl\src\lv_objx/lv_cont.c ****         /*Notify the object about its new coordinates*/
 693:..\..\..\lvgl\version_6.1.2\lvgl\src\lv_objx/lv_cont.c ****         cont->signal_cb(cont, LV_SIGNAL_CORD_CHG, &ori);
 694:..\..\..\lvgl\version_6.1.2\lvgl\src\lv_objx/lv_cont.c **** 
 695:..\..\..\lvgl\version_6.1.2\lvgl\src\lv_objx/lv_cont.c ****         /*Inform the parent about the new coordinates*/
 696:..\..\..\lvgl\version_6.1.2\lvgl\src\lv_objx/lv_cont.c ****         par->signal_cb(par, LV_SIGNAL_CHILD_CHG, cont);
 697:..\..\..\lvgl\version_6.1.2\lvgl\src\lv_objx/lv_cont.c **** 
 698:..\..\..\lvgl\version_6.1.2\lvgl\src\lv_objx/lv_cont.c ****         if(lv_obj_get_auto_realign(cont)) {
 699:..\..\..\lvgl\version_6.1.2\lvgl\src\lv_objx/lv_cont.c ****             lv_obj_realign(cont);
 700:..\..\..\lvgl\version_6.1.2\lvgl\src\lv_objx/lv_cont.c ****         }
 701:..\..\..\lvgl\version_6.1.2\lvgl\src\lv_objx/lv_cont.c **** 
 702:..\..\..\lvgl\version_6.1.2\lvgl\src\lv_objx/lv_cont.c ****         /*Tell the children the parent's size has changed*/
 703:..\..\..\lvgl\version_6.1.2\lvgl\src\lv_objx/lv_cont.c ****         LV_LL_READ(cont->child_ll, child_i)
 704:..\..\..\lvgl\version_6.1.2\lvgl\src\lv_objx/lv_cont.c ****         {
 705:..\..\..\lvgl\version_6.1.2\lvgl\src\lv_objx/lv_cont.c ****             child_i->signal_cb(child_i, LV_SIGNAL_PARENT_SIZE_CHG, NULL);
 706:..\..\..\lvgl\version_6.1.2\lvgl\src\lv_objx/lv_cont.c ****         }
 707:..\..\..\lvgl\version_6.1.2\lvgl\src\lv_objx/lv_cont.c ****     }
 708:..\..\..\lvgl\version_6.1.2\lvgl\src\lv_objx/lv_cont.c **** }
 1346              		.loc 1 708 0 is_stmt 1
 1347 001c 0DB0     		add	sp, sp, #52
 1348              		.cfi_remember_state
 1349              		.cfi_def_cfa_offset 36
 1350              		@ sp needed
 1351 001e BDE8F08F 		pop	{r4, r5, r6, r7, r8, r9, r10, fp, pc}
 1352              	.LVL232:
 1353              	.L131:
 1354              		.cfi_restore_state
 614:..\..\..\lvgl\version_6.1.2\lvgl\src\lv_objx/lv_cont.c ****     lv_obj_t * child_i;
 1355              		.loc 1 614 0
 1356 0022 3046     		mov	r0, r6
 1357              	.LVL233:
 1358 0024 FFF7FEFF 		bl	lv_obj_get_style
 1359              	.LVL234:
 1360 0028 0390     		str	r0, [sp, #12]
 1361              	.LVL235:
 617:..\..\..\lvgl\version_6.1.2\lvgl\src\lv_objx/lv_cont.c ****     const lv_style_t * par_style = lv_obj_get_style(par);
 1362              		.loc 1 617 0
 1363 002a 3046     		mov	r0, r6
 1364              	.LVL236:
 1365 002c FFF7FEFF 		bl	lv_obj_get_parent
 1366              	.LVL237:
 1367 0030 8246     		mov	r10, r0
 1368              	.LVL238:
 618:..\..\..\lvgl\version_6.1.2\lvgl\src\lv_objx/lv_cont.c ****     lv_area_t flood_area;
 1369              		.loc 1 618 0
 1370 0032 FFF7FEFF 		bl	lv_obj_get_style
 1371              	.LVL239:
 1372              	.LBB91:
 1373              	.LBB92:
 1374              		.file 2 "..\\..\\..\\lvgl\\version_6.1.2\\lvgl\\src\\lv_objx\\../lv_core/../lv_misc/lv_area.h"
   1:..\..\..\lvgl\version_6.1.2\lvgl\src\lv_objx\../lv_core/../lv_misc/lv_area.h **** /**
   2:..\..\..\lvgl\version_6.1.2\lvgl\src\lv_objx\../lv_core/../lv_misc/lv_area.h ****  * @file lv_area.h
   3:..\..\..\lvgl\version_6.1.2\lvgl\src\lv_objx\../lv_core/../lv_misc/lv_area.h ****  *
   4:..\..\..\lvgl\version_6.1.2\lvgl\src\lv_objx\../lv_core/../lv_misc/lv_area.h ****  */
   5:..\..\..\lvgl\version_6.1.2\lvgl\src\lv_objx\../lv_core/../lv_misc/lv_area.h **** 
   6:..\..\..\lvgl\version_6.1.2\lvgl\src\lv_objx\../lv_core/../lv_misc/lv_area.h **** #ifndef LV_AREA_H
   7:..\..\..\lvgl\version_6.1.2\lvgl\src\lv_objx\../lv_core/../lv_misc/lv_area.h **** #define LV_AREA_H
   8:..\..\..\lvgl\version_6.1.2\lvgl\src\lv_objx\../lv_core/../lv_misc/lv_area.h **** 
ARM GAS  C:\Users\pearlstl\AppData\Local\Temp\cciL9yyu.s 			page 41


   9:..\..\..\lvgl\version_6.1.2\lvgl\src\lv_objx\../lv_core/../lv_misc/lv_area.h **** #ifdef __cplusplus
  10:..\..\..\lvgl\version_6.1.2\lvgl\src\lv_objx\../lv_core/../lv_misc/lv_area.h **** extern "C" {
  11:..\..\..\lvgl\version_6.1.2\lvgl\src\lv_objx\../lv_core/../lv_misc/lv_area.h **** #endif
  12:..\..\..\lvgl\version_6.1.2\lvgl\src\lv_objx\../lv_core/../lv_misc/lv_area.h **** 
  13:..\..\..\lvgl\version_6.1.2\lvgl\src\lv_objx\../lv_core/../lv_misc/lv_area.h **** /*********************
  14:..\..\..\lvgl\version_6.1.2\lvgl\src\lv_objx\../lv_core/../lv_misc/lv_area.h ****  *      INCLUDES
  15:..\..\..\lvgl\version_6.1.2\lvgl\src\lv_objx\../lv_core/../lv_misc/lv_area.h ****  *********************/
  16:..\..\..\lvgl\version_6.1.2\lvgl\src\lv_objx\../lv_core/../lv_misc/lv_area.h **** #include <string.h>
  17:..\..\..\lvgl\version_6.1.2\lvgl\src\lv_objx\../lv_core/../lv_misc/lv_area.h **** #include <stdbool.h>
  18:..\..\..\lvgl\version_6.1.2\lvgl\src\lv_objx\../lv_core/../lv_misc/lv_area.h **** #include <stdint.h>
  19:..\..\..\lvgl\version_6.1.2\lvgl\src\lv_objx\../lv_core/../lv_misc/lv_area.h **** #ifdef LV_CONF_INCLUDE_SIMPLE
  20:..\..\..\lvgl\version_6.1.2\lvgl\src\lv_objx\../lv_core/../lv_misc/lv_area.h **** #include "lv_conf.h"
  21:..\..\..\lvgl\version_6.1.2\lvgl\src\lv_objx\../lv_core/../lv_misc/lv_area.h **** #else
  22:..\..\..\lvgl\version_6.1.2\lvgl\src\lv_objx\../lv_core/../lv_misc/lv_area.h **** #include "../../../lv_conf.h"
  23:..\..\..\lvgl\version_6.1.2\lvgl\src\lv_objx\../lv_core/../lv_misc/lv_area.h **** #endif
  24:..\..\..\lvgl\version_6.1.2\lvgl\src\lv_objx\../lv_core/../lv_misc/lv_area.h **** 
  25:..\..\..\lvgl\version_6.1.2\lvgl\src\lv_objx\../lv_core/../lv_misc/lv_area.h **** /*********************
  26:..\..\..\lvgl\version_6.1.2\lvgl\src\lv_objx\../lv_core/../lv_misc/lv_area.h ****  *      DEFINES
  27:..\..\..\lvgl\version_6.1.2\lvgl\src\lv_objx\../lv_core/../lv_misc/lv_area.h ****  *********************/
  28:..\..\..\lvgl\version_6.1.2\lvgl\src\lv_objx\../lv_core/../lv_misc/lv_area.h **** /*To avoid overflow don't let the max ranges (reduce with 1000) */
  29:..\..\..\lvgl\version_6.1.2\lvgl\src\lv_objx\../lv_core/../lv_misc/lv_area.h **** #define LV_COORD_MAX ((lv_coord_t)((uint32_t)((uint32_t)1 << (8 * sizeof(lv_coord_t) - 1)) - 1000))
  30:..\..\..\lvgl\version_6.1.2\lvgl\src\lv_objx\../lv_core/../lv_misc/lv_area.h **** #define LV_COORD_MIN (-LV_COORD_MAX)
  31:..\..\..\lvgl\version_6.1.2\lvgl\src\lv_objx\../lv_core/../lv_misc/lv_area.h **** 
  32:..\..\..\lvgl\version_6.1.2\lvgl\src\lv_objx\../lv_core/../lv_misc/lv_area.h **** LV_EXPORT_CONST_INT(LV_COORD_MAX);
  33:..\..\..\lvgl\version_6.1.2\lvgl\src\lv_objx\../lv_core/../lv_misc/lv_area.h **** LV_EXPORT_CONST_INT(LV_COORD_MIN);
  34:..\..\..\lvgl\version_6.1.2\lvgl\src\lv_objx\../lv_core/../lv_misc/lv_area.h **** 
  35:..\..\..\lvgl\version_6.1.2\lvgl\src\lv_objx\../lv_core/../lv_misc/lv_area.h **** /**********************
  36:..\..\..\lvgl\version_6.1.2\lvgl\src\lv_objx\../lv_core/../lv_misc/lv_area.h ****  *      TYPEDEFS
  37:..\..\..\lvgl\version_6.1.2\lvgl\src\lv_objx\../lv_core/../lv_misc/lv_area.h ****  **********************/
  38:..\..\..\lvgl\version_6.1.2\lvgl\src\lv_objx\../lv_core/../lv_misc/lv_area.h **** 
  39:..\..\..\lvgl\version_6.1.2\lvgl\src\lv_objx\../lv_core/../lv_misc/lv_area.h **** /**
  40:..\..\..\lvgl\version_6.1.2\lvgl\src\lv_objx\../lv_core/../lv_misc/lv_area.h ****  * Represents a point on the screen.
  41:..\..\..\lvgl\version_6.1.2\lvgl\src\lv_objx\../lv_core/../lv_misc/lv_area.h ****  */
  42:..\..\..\lvgl\version_6.1.2\lvgl\src\lv_objx\../lv_core/../lv_misc/lv_area.h **** typedef struct
  43:..\..\..\lvgl\version_6.1.2\lvgl\src\lv_objx\../lv_core/../lv_misc/lv_area.h **** {
  44:..\..\..\lvgl\version_6.1.2\lvgl\src\lv_objx\../lv_core/../lv_misc/lv_area.h ****     lv_coord_t x;
  45:..\..\..\lvgl\version_6.1.2\lvgl\src\lv_objx\../lv_core/../lv_misc/lv_area.h ****     lv_coord_t y;
  46:..\..\..\lvgl\version_6.1.2\lvgl\src\lv_objx\../lv_core/../lv_misc/lv_area.h **** } lv_point_t;
  47:..\..\..\lvgl\version_6.1.2\lvgl\src\lv_objx\../lv_core/../lv_misc/lv_area.h **** 
  48:..\..\..\lvgl\version_6.1.2\lvgl\src\lv_objx\../lv_core/../lv_misc/lv_area.h **** /** Represents an area of the screen. */
  49:..\..\..\lvgl\version_6.1.2\lvgl\src\lv_objx\../lv_core/../lv_misc/lv_area.h **** typedef struct
  50:..\..\..\lvgl\version_6.1.2\lvgl\src\lv_objx\../lv_core/../lv_misc/lv_area.h **** {
  51:..\..\..\lvgl\version_6.1.2\lvgl\src\lv_objx\../lv_core/../lv_misc/lv_area.h ****     lv_coord_t x1;
  52:..\..\..\lvgl\version_6.1.2\lvgl\src\lv_objx\../lv_core/../lv_misc/lv_area.h ****     lv_coord_t y1;
  53:..\..\..\lvgl\version_6.1.2\lvgl\src\lv_objx\../lv_core/../lv_misc/lv_area.h ****     lv_coord_t x2;
  54:..\..\..\lvgl\version_6.1.2\lvgl\src\lv_objx\../lv_core/../lv_misc/lv_area.h ****     lv_coord_t y2;
  55:..\..\..\lvgl\version_6.1.2\lvgl\src\lv_objx\../lv_core/../lv_misc/lv_area.h **** } lv_area_t;
  56:..\..\..\lvgl\version_6.1.2\lvgl\src\lv_objx\../lv_core/../lv_misc/lv_area.h **** 
  57:..\..\..\lvgl\version_6.1.2\lvgl\src\lv_objx\../lv_core/../lv_misc/lv_area.h **** /**********************
  58:..\..\..\lvgl\version_6.1.2\lvgl\src\lv_objx\../lv_core/../lv_misc/lv_area.h ****  * GLOBAL PROTOTYPES
  59:..\..\..\lvgl\version_6.1.2\lvgl\src\lv_objx\../lv_core/../lv_misc/lv_area.h ****  **********************/
  60:..\..\..\lvgl\version_6.1.2\lvgl\src\lv_objx\../lv_core/../lv_misc/lv_area.h **** 
  61:..\..\..\lvgl\version_6.1.2\lvgl\src\lv_objx\../lv_core/../lv_misc/lv_area.h **** /**
  62:..\..\..\lvgl\version_6.1.2\lvgl\src\lv_objx\../lv_core/../lv_misc/lv_area.h ****  * Initialize an area
  63:..\..\..\lvgl\version_6.1.2\lvgl\src\lv_objx\../lv_core/../lv_misc/lv_area.h ****  * @param area_p pointer to an area
  64:..\..\..\lvgl\version_6.1.2\lvgl\src\lv_objx\../lv_core/../lv_misc/lv_area.h ****  * @param x1 left coordinate of the area
  65:..\..\..\lvgl\version_6.1.2\lvgl\src\lv_objx\../lv_core/../lv_misc/lv_area.h ****  * @param y1 top coordinate of the area
ARM GAS  C:\Users\pearlstl\AppData\Local\Temp\cciL9yyu.s 			page 42


  66:..\..\..\lvgl\version_6.1.2\lvgl\src\lv_objx\../lv_core/../lv_misc/lv_area.h ****  * @param x2 right coordinate of the area
  67:..\..\..\lvgl\version_6.1.2\lvgl\src\lv_objx\../lv_core/../lv_misc/lv_area.h ****  * @param y2 bottom coordinate of the area
  68:..\..\..\lvgl\version_6.1.2\lvgl\src\lv_objx\../lv_core/../lv_misc/lv_area.h ****  */
  69:..\..\..\lvgl\version_6.1.2\lvgl\src\lv_objx\../lv_core/../lv_misc/lv_area.h **** void lv_area_set(lv_area_t * area_p, lv_coord_t x1, lv_coord_t y1, lv_coord_t x2, lv_coord_t y2);
  70:..\..\..\lvgl\version_6.1.2\lvgl\src\lv_objx\../lv_core/../lv_misc/lv_area.h **** 
  71:..\..\..\lvgl\version_6.1.2\lvgl\src\lv_objx\../lv_core/../lv_misc/lv_area.h **** /**
  72:..\..\..\lvgl\version_6.1.2\lvgl\src\lv_objx\../lv_core/../lv_misc/lv_area.h ****  * Copy an area
  73:..\..\..\lvgl\version_6.1.2\lvgl\src\lv_objx\../lv_core/../lv_misc/lv_area.h ****  * @param dest pointer to the destination area
  74:..\..\..\lvgl\version_6.1.2\lvgl\src\lv_objx\../lv_core/../lv_misc/lv_area.h ****  * @param src pointer to the source area
  75:..\..\..\lvgl\version_6.1.2\lvgl\src\lv_objx\../lv_core/../lv_misc/lv_area.h ****  */
  76:..\..\..\lvgl\version_6.1.2\lvgl\src\lv_objx\../lv_core/../lv_misc/lv_area.h **** inline static void lv_area_copy(lv_area_t * dest, const lv_area_t * src)
  77:..\..\..\lvgl\version_6.1.2\lvgl\src\lv_objx\../lv_core/../lv_misc/lv_area.h **** {
  78:..\..\..\lvgl\version_6.1.2\lvgl\src\lv_objx\../lv_core/../lv_misc/lv_area.h ****     memcpy(dest, src, sizeof(lv_area_t));
 1375              		.loc 2 78 0
 1376 0036 5146     		mov	r1, r10
 1377              	.LBE92:
 1378              	.LBE91:
 618:..\..\..\lvgl\version_6.1.2\lvgl\src\lv_objx/lv_cont.c ****     lv_area_t flood_area;
 1379              		.loc 1 618 0
 1380 0038 0246     		mov	r2, r0
 1381              	.LVL240:
 1382              	.LBB96:
 1383              	.LBB93:
 1384              		.loc 2 78 0
 1385 003a 51F8100F 		ldr	r0, [r1, #16]!	@ unaligned
 1386              	.LVL241:
 1387              	.LBE93:
 1388              	.LBE96:
 622:..\..\..\lvgl\version_6.1.2\lvgl\src\lv_objx/lv_cont.c ****     flood_area.y1 += par_style->body.padding.top;
 1389              		.loc 1 622 0
 1390 003e B2F826E0 		ldrh	lr, [r2, #38]
 1391              	.LBB97:
 1392              	.LBB94:
 1393              		.loc 2 78 0
 1394 0042 4968     		ldr	r1, [r1, #4]	@ unaligned
 1395              	.LVL242:
 1396              	.LBE94:
 1397              	.LBE97:
 623:..\..\..\lvgl\version_6.1.2\lvgl\src\lv_objx/lv_cont.c ****     flood_area.y2 -= par_style->body.padding.bottom;
 1398              		.loc 1 623 0
 1399 0044 148C     		ldrh	r4, [r2, #32]
 624:..\..\..\lvgl\version_6.1.2\lvgl\src\lv_objx/lv_cont.c **** 
 1400              		.loc 1 624 0
 1401 0046 558C     		ldrh	r5, [r2, #34]
 621:..\..\..\lvgl\version_6.1.2\lvgl\src\lv_objx/lv_cont.c ****     flood_area.x2 -= par_style->body.padding.right;
 1402              		.loc 1 621 0
 1403 0048 978C     		ldrh	r7, [r2, #36]
 1404              	.LBB98:
 1405              	.LBB95:
 1406              		.loc 2 78 0
 1407 004a 08AB     		add	r3, sp, #32
 1408              	.LVL243:
 1409 004c 03C3     		stmia	r3!, {r0, r1}
 1410              	.LVL244:
 1411              	.LBE95:
 1412              	.LBE98:
 622:..\..\..\lvgl\version_6.1.2\lvgl\src\lv_objx/lv_cont.c ****     flood_area.y1 += par_style->body.padding.top;
ARM GAS  C:\Users\pearlstl\AppData\Local\Temp\cciL9yyu.s 			page 43


 1413              		.loc 1 622 0
 1414 004e BDF82410 		ldrh	r1, [sp, #36]
 621:..\..\..\lvgl\version_6.1.2\lvgl\src\lv_objx/lv_cont.c ****     flood_area.x2 -= par_style->body.padding.right;
 1415              		.loc 1 621 0
 1416 0052 BDF82000 		ldrh	r0, [sp, #32]
 623:..\..\..\lvgl\version_6.1.2\lvgl\src\lv_objx/lv_cont.c ****     flood_area.y2 -= par_style->body.padding.bottom;
 1417              		.loc 1 623 0
 1418 0056 BDF82220 		ldrh	r2, [sp, #34]
 1419              	.LVL245:
 624:..\..\..\lvgl\version_6.1.2\lvgl\src\lv_objx/lv_cont.c **** 
 1420              		.loc 1 624 0
 1421 005a BDF82630 		ldrh	r3, [sp, #38]
 622:..\..\..\lvgl\version_6.1.2\lvgl\src\lv_objx/lv_cont.c ****     flood_area.y1 += par_style->body.padding.top;
 1422              		.loc 1 622 0
 1423 005e CEEB0101 		rsb	r1, lr, r1
 624:..\..\..\lvgl\version_6.1.2\lvgl\src\lv_objx/lv_cont.c **** 
 1424              		.loc 1 624 0
 1425 0062 5B1B     		subs	r3, r3, r5
 622:..\..\..\lvgl\version_6.1.2\lvgl\src\lv_objx/lv_cont.c ****     flood_area.y1 += par_style->body.padding.top;
 1426              		.loc 1 622 0
 1427 0064 09B2     		sxth	r1, r1
 621:..\..\..\lvgl\version_6.1.2\lvgl\src\lv_objx/lv_cont.c ****     flood_area.x2 -= par_style->body.padding.right;
 1428              		.loc 1 621 0
 1429 0066 0744     		add	r7, r7, r0
 623:..\..\..\lvgl\version_6.1.2\lvgl\src\lv_objx/lv_cont.c ****     flood_area.y2 -= par_style->body.padding.bottom;
 1430              		.loc 1 623 0
 1431 0068 2244     		add	r2, r2, r4
 627:..\..\..\lvgl\version_6.1.2\lvgl\src\lv_objx/lv_cont.c ****     lv_obj_get_coords(cont, &tight_area);
 1432              		.loc 1 627 0
 1433 006a 0DF11809 		add	r9, sp, #24
 623:..\..\..\lvgl\version_6.1.2\lvgl\src\lv_objx/lv_cont.c ****     flood_area.y2 -= par_style->body.padding.bottom;
 1434              		.loc 1 623 0
 1435 006e 12B2     		sxth	r2, r2
 624:..\..\..\lvgl\version_6.1.2\lvgl\src\lv_objx/lv_cont.c **** 
 1436              		.loc 1 624 0
 1437 0070 0FFA83FB 		sxth	fp, r3
 622:..\..\..\lvgl\version_6.1.2\lvgl\src\lv_objx/lv_cont.c ****     flood_area.y1 += par_style->body.padding.top;
 1438              		.loc 1 622 0
 1439 0074 0C46     		mov	r4, r1
 1440 0076 0191     		str	r1, [sp, #4]
 627:..\..\..\lvgl\version_6.1.2\lvgl\src\lv_objx/lv_cont.c ****     lv_obj_get_coords(cont, &tight_area);
 1441              		.loc 1 627 0
 1442 0078 3046     		mov	r0, r6
 1443 007a 4946     		mov	r1, r9
 621:..\..\..\lvgl\version_6.1.2\lvgl\src\lv_objx/lv_cont.c ****     flood_area.x2 -= par_style->body.padding.right;
 1444              		.loc 1 621 0
 1445 007c 3FB2     		sxth	r7, r7
 623:..\..\..\lvgl\version_6.1.2\lvgl\src\lv_objx/lv_cont.c ****     flood_area.y2 -= par_style->body.padding.bottom;
 1446              		.loc 1 623 0
 1447 007e 0292     		str	r2, [sp, #8]
 1448 0080 ADF82220 		strh	r2, [sp, #34]	@ movhi
 621:..\..\..\lvgl\version_6.1.2\lvgl\src\lv_objx/lv_cont.c ****     flood_area.x2 -= par_style->body.padding.right;
 1449              		.loc 1 621 0
 1450 0084 ADF82070 		strh	r7, [sp, #32]	@ movhi
 622:..\..\..\lvgl\version_6.1.2\lvgl\src\lv_objx/lv_cont.c ****     flood_area.y1 += par_style->body.padding.top;
 1451              		.loc 1 622 0
 1452 0088 ADF82440 		strh	r4, [sp, #36]	@ movhi
ARM GAS  C:\Users\pearlstl\AppData\Local\Temp\cciL9yyu.s 			page 44


 624:..\..\..\lvgl\version_6.1.2\lvgl\src\lv_objx/lv_cont.c **** 
 1453              		.loc 1 624 0
 1454 008c ADF826B0 		strh	fp, [sp, #38]	@ movhi
 630:..\..\..\lvgl\version_6.1.2\lvgl\src\lv_objx/lv_cont.c **** 
 1455              		.loc 1 630 0
 1456 0090 351D     		adds	r5, r6, #4
 627:..\..\..\lvgl\version_6.1.2\lvgl\src\lv_objx/lv_cont.c ****     lv_obj_get_coords(cont, &tight_area);
 1457              		.loc 1 627 0
 1458 0092 FFF7FEFF 		bl	lv_obj_get_coords
 1459              	.LVL246:
 628:..\..\..\lvgl\version_6.1.2\lvgl\src\lv_objx/lv_cont.c **** 
 1460              		.loc 1 628 0
 1461 0096 3046     		mov	r0, r6
 1462 0098 04A9     		add	r1, sp, #16
 1463 009a FFF7FEFF 		bl	lv_obj_get_coords
 1464              	.LVL247:
 630:..\..\..\lvgl\version_6.1.2\lvgl\src\lv_objx/lv_cont.c **** 
 1465              		.loc 1 630 0
 1466 009e 2846     		mov	r0, r5
 1467 00a0 FFF7FEFF 		bl	lv_ll_is_empty
 1468              	.LVL248:
 1469 00a4 0028     		cmp	r0, #0
 1470 00a6 40F0C780 		bne	.L133
 1471              	.LVL249:
 633:..\..\..\lvgl\version_6.1.2\lvgl\src\lv_objx/lv_cont.c ****         tight_area.y1 = LV_COORD_MAX;
 1472              		.loc 1 633 0
 1473 00aa AF4A     		ldr	r2, .L244
 1474 00ac AF4B     		ldr	r3, .L244+4
 1475 00ae 0492     		str	r2, [sp, #16]
 638:..\..\..\lvgl\version_6.1.2\lvgl\src\lv_objx/lv_cont.c ****         {
 1476              		.loc 1 638 0
 1477 00b0 2846     		mov	r0, r5
 633:..\..\..\lvgl\version_6.1.2\lvgl\src\lv_objx/lv_cont.c ****         tight_area.y1 = LV_COORD_MAX;
 1478              		.loc 1 633 0
 1479 00b2 0593     		str	r3, [sp, #20]
 638:..\..\..\lvgl\version_6.1.2\lvgl\src\lv_objx/lv_cont.c ****         {
 1480              		.loc 1 638 0
 1481 00b4 FFF7FEFF 		bl	lv_ll_get_head
 1482              	.LVL250:
 1483 00b8 0446     		mov	r4, r0
 1484 00ba 70B3     		cbz	r0, .L167
 1485              	.L136:
 640:..\..\..\lvgl\version_6.1.2\lvgl\src\lv_objx/lv_cont.c ****             tight_area.x1 = LV_MATH_MIN(tight_area.x1, child_i->coords.x1);
 1486              		.loc 1 640 0
 1487 00bc 2046     		mov	r0, r4
 1488 00be FFF7FEFF 		bl	lv_obj_get_hidden
 1489              	.LVL251:
 638:..\..\..\lvgl\version_6.1.2\lvgl\src\lv_objx/lv_cont.c ****         {
 1490              		.loc 1 638 0
 1491 00c2 2146     		mov	r1, r4
 640:..\..\..\lvgl\version_6.1.2\lvgl\src\lv_objx/lv_cont.c ****             tight_area.x1 = LV_MATH_MIN(tight_area.x1, child_i->coords.x1);
 1492              		.loc 1 640 0
 1493 00c4 18BB     		cbnz	r0, .L135
 1494              	.LVL252:
 641:..\..\..\lvgl\version_6.1.2\lvgl\src\lv_objx/lv_cont.c ****             tight_area.y1 = LV_MATH_MIN(tight_area.y1, child_i->coords.y1);
 1495              		.loc 1 641 0
 1496 00c6 B4F91030 		ldrsh	r3, [r4, #16]
ARM GAS  C:\Users\pearlstl\AppData\Local\Temp\cciL9yyu.s 			page 45


 1497 00ca BDF91000 		ldrsh	r0, [sp, #16]
 642:..\..\..\lvgl\version_6.1.2\lvgl\src\lv_objx/lv_cont.c ****             tight_area.x2 = LV_MATH_MAX(tight_area.x2, child_i->coords.x2);
 1498              		.loc 1 642 0
 1499 00ce B4F912C0 		ldrsh	ip, [r4, #18]
 1500 00d2 BDF91220 		ldrsh	r2, [sp, #18]
 643:..\..\..\lvgl\version_6.1.2\lvgl\src\lv_objx/lv_cont.c ****             tight_area.y2 = LV_MATH_MAX(tight_area.y2, child_i->coords.y2);
 1501              		.loc 1 643 0
 1502 00d6 B4F914E0 		ldrsh	lr, [r4, #20]
 644:..\..\..\lvgl\version_6.1.2\lvgl\src\lv_objx/lv_cont.c ****         }
 1503              		.loc 1 644 0
 1504 00da B4F91640 		ldrsh	r4, [r4, #22]
 641:..\..\..\lvgl\version_6.1.2\lvgl\src\lv_objx/lv_cont.c ****             tight_area.y1 = LV_MATH_MIN(tight_area.y1, child_i->coords.y1);
 1505              		.loc 1 641 0
 1506 00de 9842     		cmp	r0, r3
 1507 00e0 A8BF     		it	ge
 1508 00e2 1846     		movge	r0, r3
 643:..\..\..\lvgl\version_6.1.2\lvgl\src\lv_objx/lv_cont.c ****             tight_area.y2 = LV_MATH_MAX(tight_area.y2, child_i->coords.y2);
 1509              		.loc 1 643 0
 1510 00e4 BDF91430 		ldrsh	r3, [sp, #20]
 641:..\..\..\lvgl\version_6.1.2\lvgl\src\lv_objx/lv_cont.c ****             tight_area.y1 = LV_MATH_MIN(tight_area.y1, child_i->coords.y1);
 1511              		.loc 1 641 0
 1512 00e8 ADF81000 		strh	r0, [sp, #16]	@ movhi
 642:..\..\..\lvgl\version_6.1.2\lvgl\src\lv_objx/lv_cont.c ****             tight_area.x2 = LV_MATH_MAX(tight_area.x2, child_i->coords.x2);
 1513              		.loc 1 642 0
 1514 00ec 6245     		cmp	r2, ip
 1515 00ee A8BF     		it	ge
 1516 00f0 6246     		movge	r2, ip
 643:..\..\..\lvgl\version_6.1.2\lvgl\src\lv_objx/lv_cont.c ****             tight_area.y2 = LV_MATH_MAX(tight_area.y2, child_i->coords.y2);
 1517              		.loc 1 643 0
 1518 00f2 9E45     		cmp	lr, r3
 1519 00f4 B8BF     		it	lt
 1520 00f6 9E46     		movlt	lr, r3
 644:..\..\..\lvgl\version_6.1.2\lvgl\src\lv_objx/lv_cont.c ****         }
 1521              		.loc 1 644 0
 1522 00f8 BDF91630 		ldrsh	r3, [sp, #22]
 642:..\..\..\lvgl\version_6.1.2\lvgl\src\lv_objx/lv_cont.c ****             tight_area.x2 = LV_MATH_MAX(tight_area.x2, child_i->coords.x2);
 1523              		.loc 1 642 0
 1524 00fc ADF81220 		strh	r2, [sp, #18]	@ movhi
 644:..\..\..\lvgl\version_6.1.2\lvgl\src\lv_objx/lv_cont.c ****         }
 1525              		.loc 1 644 0
 1526 0100 A342     		cmp	r3, r4
 1527 0102 B8BF     		it	lt
 1528 0104 2346     		movlt	r3, r4
 643:..\..\..\lvgl\version_6.1.2\lvgl\src\lv_objx/lv_cont.c ****             tight_area.y2 = LV_MATH_MAX(tight_area.y2, child_i->coords.y2);
 1529              		.loc 1 643 0
 1530 0106 ADF814E0 		strh	lr, [sp, #20]	@ movhi
 644:..\..\..\lvgl\version_6.1.2\lvgl\src\lv_objx/lv_cont.c ****         }
 1531              		.loc 1 644 0
 1532 010a ADF81630 		strh	r3, [sp, #22]	@ movhi
 1533              	.L135:
 638:..\..\..\lvgl\version_6.1.2\lvgl\src\lv_objx/lv_cont.c ****         {
 1534              		.loc 1 638 0 discriminator 2
 1535 010e 2846     		mov	r0, r5
 1536 0110 FFF7FEFF 		bl	lv_ll_get_next
 1537              	.LVL253:
 1538 0114 0446     		mov	r4, r0
 1539 0116 0028     		cmp	r0, #0
ARM GAS  C:\Users\pearlstl\AppData\Local\Temp\cciL9yyu.s 			page 46


 1540 0118 D0D1     		bne	.L136
 1541              	.L167:
 647:..\..\..\lvgl\version_6.1.2\lvgl\src\lv_objx/lv_cont.c ****         tight_area.x2 += style->body.padding.right;
 1542              		.loc 1 647 0
 1543 011a 039C     		ldr	r4, [sp, #12]
 648:..\..\..\lvgl\version_6.1.2\lvgl\src\lv_objx/lv_cont.c ****         tight_area.y1 -= style->body.padding.top;
 1544              		.loc 1 648 0
 1545 011c BDF81400 		ldrh	r0, [sp, #20]
 1546              	.LVL254:
 1547 0120 E38C     		ldrh	r3, [r4, #38]
 647:..\..\..\lvgl\version_6.1.2\lvgl\src\lv_objx/lv_cont.c ****         tight_area.x2 += style->body.padding.right;
 1548              		.loc 1 647 0
 1549 0122 BDF81020 		ldrh	r2, [sp, #16]
 1550 0126 B4F824E0 		ldrh	lr, [r4, #36]
 649:..\..\..\lvgl\version_6.1.2\lvgl\src\lv_objx/lv_cont.c ****         tight_area.y2 += style->body.padding.bottom;
 1551              		.loc 1 649 0
 1552 012a BDF81210 		ldrh	r1, [sp, #18]
 648:..\..\..\lvgl\version_6.1.2\lvgl\src\lv_objx/lv_cont.c ****         tight_area.y1 -= style->body.padding.top;
 1553              		.loc 1 648 0
 1554 012e 0344     		add	r3, r3, r0
 649:..\..\..\lvgl\version_6.1.2\lvgl\src\lv_objx/lv_cont.c ****         tight_area.y2 += style->body.padding.bottom;
 1555              		.loc 1 649 0
 1556 0130 2046     		mov	r0, r4
 647:..\..\..\lvgl\version_6.1.2\lvgl\src\lv_objx/lv_cont.c ****         tight_area.x2 += style->body.padding.right;
 1557              		.loc 1 647 0
 1558 0132 CEEB020E 		rsb	lr, lr, r2
 649:..\..\..\lvgl\version_6.1.2\lvgl\src\lv_objx/lv_cont.c ****         tight_area.y2 += style->body.padding.bottom;
 1559              		.loc 1 649 0
 1560 0136 248C     		ldrh	r4, [r4, #32]
 650:..\..\..\lvgl\version_6.1.2\lvgl\src\lv_objx/lv_cont.c ****     }
 1561              		.loc 1 650 0
 1562 0138 428C     		ldrh	r2, [r0, #34]
 1563 013a BDF81600 		ldrh	r0, [sp, #22]
 648:..\..\..\lvgl\version_6.1.2\lvgl\src\lv_objx/lv_cont.c ****         tight_area.y1 -= style->body.padding.top;
 1564              		.loc 1 648 0
 1565 013e ADF81430 		strh	r3, [sp, #20]	@ movhi
 656:..\..\..\lvgl\version_6.1.2\lvgl\src\lv_objx/lv_cont.c ****         case LV_FIT_TIGHT: new_area.x1 = tight_area.x1; break;
 1566              		.loc 1 656 0
 1567 0142 98F80030 		ldrb	r3, [r8]	@ zero_extendqisi2
 649:..\..\..\lvgl\version_6.1.2\lvgl\src\lv_objx/lv_cont.c ****         tight_area.y2 += style->body.padding.bottom;
 1568              		.loc 1 649 0
 1569 0146 0C1B     		subs	r4, r1, r4
 650:..\..\..\lvgl\version_6.1.2\lvgl\src\lv_objx/lv_cont.c ****     }
 1570              		.loc 1 650 0
 1571 0148 0244     		add	r2, r2, r0
 1572              	.LBB99:
 1573              	.LBB100:
 1574              		.loc 2 78 0
 1575 014a 99E80300 		ldmia	r9, {r0, r1}
 1576              	.LBE100:
 1577              	.LBE99:
 650:..\..\..\lvgl\version_6.1.2\lvgl\src\lv_objx/lv_cont.c ****     }
 1578              		.loc 1 650 0
 1579 014e ADF81620 		strh	r2, [sp, #22]	@ movhi
 1580              	.LVL255:
 656:..\..\..\lvgl\version_6.1.2\lvgl\src\lv_objx/lv_cont.c ****         case LV_FIT_TIGHT: new_area.x1 = tight_area.x1; break;
 1581              		.loc 1 656 0
ARM GAS  C:\Users\pearlstl\AppData\Local\Temp\cciL9yyu.s 			page 47


 1582 0152 C3F30112 		ubfx	r2, r3, #4, #2
 647:..\..\..\lvgl\version_6.1.2\lvgl\src\lv_objx/lv_cont.c ****         tight_area.x2 += style->body.padding.right;
 1583              		.loc 1 647 0
 1584 0156 0FFA8EFE 		sxth	lr, lr
 649:..\..\..\lvgl\version_6.1.2\lvgl\src\lv_objx/lv_cont.c ****         tight_area.y2 += style->body.padding.bottom;
 1585              		.loc 1 649 0
 1586 015a ADF81240 		strh	r4, [sp, #18]	@ movhi
 656:..\..\..\lvgl\version_6.1.2\lvgl\src\lv_objx/lv_cont.c ****         case LV_FIT_TIGHT: new_area.x1 = tight_area.x1; break;
 1587              		.loc 1 656 0
 1588 015e 022A     		cmp	r2, #2
 1589              	.LBB106:
 1590              	.LBB101:
 1591              		.loc 2 78 0
 1592 0160 0AAC     		add	r4, sp, #40
 1593              	.LVL256:
 1594              	.LBE101:
 1595              	.LBE106:
 647:..\..\..\lvgl\version_6.1.2\lvgl\src\lv_objx/lv_cont.c ****         tight_area.x2 += style->body.padding.right;
 1596              		.loc 1 647 0
 1597 0162 ADF810E0 		strh	lr, [sp, #16]	@ movhi
 1598              	.LBB107:
 1599              	.LBB102:
 1600              		.loc 2 78 0
 1601 0166 84E80300 		stmia	r4, {r0, r1}
 1602              	.LVL257:
 1603              	.LBE102:
 1604              	.LBE107:
 656:..\..\..\lvgl\version_6.1.2\lvgl\src\lv_objx/lv_cont.c ****         case LV_FIT_TIGHT: new_area.x1 = tight_area.x1; break;
 1605              		.loc 1 656 0
 1606 016a 04D0     		beq	.L228
 1607 016c 40F2CC80 		bls	.L235
 659:..\..\..\lvgl\version_6.1.2\lvgl\src\lv_objx/lv_cont.c ****         default: break;
 1608              		.loc 1 659 0 discriminator 1
 1609 0170 7745     		cmp	r7, lr
 1610 0172 A8BF     		it	ge
 1611 0174 7746     		movge	r7, lr
 1612              	.L228:
 630:..\..\..\lvgl\version_6.1.2\lvgl\src\lv_objx/lv_cont.c **** 
 1613              		.loc 1 630 0 discriminator 1
 1614 0176 0122     		movs	r2, #1
 1615              	.LVL258:
 1616              	.L146:
 663:..\..\..\lvgl\version_6.1.2\lvgl\src\lv_objx/lv_cont.c ****         case LV_FIT_TIGHT: new_area.x2 = tight_area.x2; break;
 1617              		.loc 1 663 0 discriminator 4
 1618 0178 9B09     		lsrs	r3, r3, #6
 1619 017a 022B     		cmp	r3, #2
 659:..\..\..\lvgl\version_6.1.2\lvgl\src\lv_objx/lv_cont.c ****         default: break;
 1620              		.loc 1 659 0 discriminator 4
 1621 017c ADF82870 		strh	r7, [sp, #40]	@ movhi
 663:..\..\..\lvgl\version_6.1.2\lvgl\src\lv_objx/lv_cont.c ****         case LV_FIT_TIGHT: new_area.x2 = tight_area.x2; break;
 1622              		.loc 1 663 0 discriminator 4
 1623 0180 73D0     		beq	.L149
 1624              	.L238:
 663:..\..\..\lvgl\version_6.1.2\lvgl\src\lv_objx/lv_cont.c ****         case LV_FIT_TIGHT: new_area.x2 = tight_area.x2; break;
 1625              		.loc 1 663 0 is_stmt 0
 1626 0182 00F29D80 		bhi	.L148
 1627 0186 012B     		cmp	r3, #1
ARM GAS  C:\Users\pearlstl\AppData\Local\Temp\cciL9yyu.s 			page 48


 1628 0188 03D1     		bne	.L147
 1629              	.L144:
 664:..\..\..\lvgl\version_6.1.2\lvgl\src\lv_objx/lv_cont.c ****         case LV_FIT_FLOOD: new_area.x2 = flood_area.x2; break;
 1630              		.loc 1 664 0 is_stmt 1
 1631 018a BDF81430 		ldrh	r3, [sp, #20]
 1632 018e ADF82C30 		strh	r3, [sp, #44]	@ movhi
 1633              	.L147:
 670:..\..\..\lvgl\version_6.1.2\lvgl\src\lv_objx/lv_cont.c ****         case LV_FIT_TIGHT: new_area.y1 = tight_area.y1; break;
 1634              		.loc 1 670 0
 1635 0192 98F80130 		ldrb	r3, [r8, #1]	@ zero_extendqisi2
 1636 0196 03F00301 		and	r1, r3, #3
 1637 019a 0229     		cmp	r1, #2
 1638 019c 6FD0     		beq	.L154
 1639              	.L239:
 1640 019e 00F28580 		bhi	.L152
 1641 01a2 0129     		cmp	r1, #1
 1642 01a4 03D1     		bne	.L150
 1643              	.L153:
 671:..\..\..\lvgl\version_6.1.2\lvgl\src\lv_objx/lv_cont.c ****         case LV_FIT_FLOOD: new_area.y1 = flood_area.y1; break;
 1644              		.loc 1 671 0
 1645 01a6 BDF81210 		ldrh	r1, [sp, #18]
 1646 01aa ADF82A10 		strh	r1, [sp, #42]	@ movhi
 1647              	.L150:
 677:..\..\..\lvgl\version_6.1.2\lvgl\src\lv_objx/lv_cont.c ****         case LV_FIT_TIGHT: new_area.y2 = tight_area.y2; break;
 1648              		.loc 1 677 0
 1649 01ae C3F38103 		ubfx	r3, r3, #2, #2
 1650 01b2 022B     		cmp	r3, #2
 1651 01b4 6BD0     		beq	.L160
 1652              	.L240:
 1653 01b6 71D8     		bhi	.L158
 1654 01b8 012B     		cmp	r3, #1
 1655 01ba 03D1     		bne	.L156
 678:..\..\..\lvgl\version_6.1.2\lvgl\src\lv_objx/lv_cont.c ****         case LV_FIT_FLOOD: new_area.y2 = flood_area.y2; break;
 1656              		.loc 1 678 0
 1657 01bc BDF81630 		ldrh	r3, [sp, #22]
 1658 01c0 ADF82E30 		strh	r3, [sp, #46]	@ movhi
 1659              	.L156:
 685:..\..\..\lvgl\version_6.1.2\lvgl\src\lv_objx/lv_cont.c ****        cont->coords.y2 != new_area.y2) {
 1660              		.loc 1 685 0
 1661 01c4 B6F91030 		ldrsh	r3, [r6, #16]
 1662 01c8 BB42     		cmp	r3, r7
 1663 01ca 05D1     		bne	.L161
 685:..\..\..\lvgl\version_6.1.2\lvgl\src\lv_objx/lv_cont.c ****        cont->coords.y2 != new_area.y2) {
 1664              		.loc 1 685 0 is_stmt 0 discriminator 1
 1665 01cc B6F91220 		ldrsh	r2, [r6, #18]
 1666 01d0 BDF92A30 		ldrsh	r3, [sp, #42]
 1667 01d4 9A42     		cmp	r2, r3
 1668 01d6 7ED0     		beq	.L236
 1669              	.L161:
 688:..\..\..\lvgl\version_6.1.2\lvgl\src\lv_objx/lv_cont.c ****         lv_area_copy(&cont->coords, &new_area);
 1670              		.loc 1 688 0 is_stmt 1
 1671 01d8 3046     		mov	r0, r6
 1672 01da FFF7FEFF 		bl	lv_obj_invalidate
 1673              	.LVL259:
 1674              	.LBB108:
 1675              	.LBB109:
 1676              		.loc 2 78 0
ARM GAS  C:\Users\pearlstl\AppData\Local\Temp\cciL9yyu.s 			page 49


 1677 01de 2346     		mov	r3, r4
 1678 01e0 03CB     		ldmia	r3!, {r0, r1}
 1679 01e2 3061     		str	r0, [r6, #16]	@ unaligned
 1680 01e4 7161     		str	r1, [r6, #20]	@ unaligned
 1681              	.LVL260:
 1682              	.LBE109:
 1683              	.LBE108:
 690:..\..\..\lvgl\version_6.1.2\lvgl\src\lv_objx/lv_cont.c **** 
 1684              		.loc 1 690 0
 1685 01e6 3046     		mov	r0, r6
 1686 01e8 FFF7FEFF 		bl	lv_obj_invalidate
 1687              	.LVL261:
 693:..\..\..\lvgl\version_6.1.2\lvgl\src\lv_objx/lv_cont.c **** 
 1688              		.loc 1 693 0
 1689 01ec 4A46     		mov	r2, r9
 1690 01ee F369     		ldr	r3, [r6, #28]
 1691 01f0 0221     		movs	r1, #2
 1692 01f2 3046     		mov	r0, r6
 1693 01f4 9847     		blx	r3
 1694              	.LVL262:
 696:..\..\..\lvgl\version_6.1.2\lvgl\src\lv_objx/lv_cont.c **** 
 1695              		.loc 1 696 0
 1696 01f6 DAF81C30 		ldr	r3, [r10, #28]
 1697 01fa 5046     		mov	r0, r10
 1698 01fc 3246     		mov	r2, r6
 1699 01fe 0121     		movs	r1, #1
 1700 0200 9847     		blx	r3
 1701              	.LVL263:
 698:..\..\..\lvgl\version_6.1.2\lvgl\src\lv_objx/lv_cont.c ****             lv_obj_realign(cont);
 1702              		.loc 1 698 0
 1703 0202 3046     		mov	r0, r6
 1704 0204 FFF7FEFF 		bl	lv_obj_get_auto_realign
 1705              	.LVL264:
 1706 0208 0028     		cmp	r0, #0
 1707 020a 43D1     		bne	.L237
 1708              	.L163:
 703:..\..\..\lvgl\version_6.1.2\lvgl\src\lv_objx/lv_cont.c ****         {
 1709              		.loc 1 703 0
 1710 020c 2846     		mov	r0, r5
 1711 020e FFF7FEFF 		bl	lv_ll_get_head
 1712              	.LVL265:
 1713 0212 0446     		mov	r4, r0
 1714 0214 0028     		cmp	r0, #0
 1715 0216 3FF401AF 		beq	.L130
 1716              	.L165:
 705:..\..\..\lvgl\version_6.1.2\lvgl\src\lv_objx/lv_cont.c ****         }
 1717              		.loc 1 705 0 discriminator 3
 1718 021a E369     		ldr	r3, [r4, #28]
 1719 021c 0022     		movs	r2, #0
 1720 021e 0321     		movs	r1, #3
 1721 0220 2046     		mov	r0, r4
 1722 0222 9847     		blx	r3
 1723              	.LVL266:
 703:..\..\..\lvgl\version_6.1.2\lvgl\src\lv_objx/lv_cont.c ****         {
 1724              		.loc 1 703 0 discriminator 3
 1725 0224 2146     		mov	r1, r4
 1726 0226 2846     		mov	r0, r5
ARM GAS  C:\Users\pearlstl\AppData\Local\Temp\cciL9yyu.s 			page 50


 1727 0228 FFF7FEFF 		bl	lv_ll_get_next
 1728              	.LVL267:
 1729 022c 0446     		mov	r4, r0
 1730 022e 0028     		cmp	r0, #0
 1731 0230 F3D1     		bne	.L165
 1732              		.loc 1 708 0
 1733 0232 0DB0     		add	sp, sp, #52
 1734              		.cfi_remember_state
 1735              		.cfi_def_cfa_offset 36
 1736              		@ sp needed
 1737 0234 BDE8F08F 		pop	{r4, r5, r6, r7, r8, r9, r10, fp, pc}
 1738              	.LVL268:
 1739              	.L133:
 1740              		.cfi_restore_state
 656:..\..\..\lvgl\version_6.1.2\lvgl\src\lv_objx/lv_cont.c ****         case LV_FIT_TIGHT: new_area.x1 = tight_area.x1; break;
 1741              		.loc 1 656 0
 1742 0238 98F80030 		ldrb	r3, [r8]	@ zero_extendqisi2
 1743              	.LBB110:
 1744              	.LBB103:
 1745              		.loc 2 78 0
 1746 023c 99E80300 		ldmia	r9, {r0, r1}
 1747              	.LBE103:
 1748              	.LBE110:
 656:..\..\..\lvgl\version_6.1.2\lvgl\src\lv_objx/lv_cont.c ****         case LV_FIT_TIGHT: new_area.x1 = tight_area.x1; break;
 1749              		.loc 1 656 0
 1750 0240 C3F30112 		ubfx	r2, r3, #4, #2
 1751              	.LBB111:
 1752              	.LBB104:
 1753              		.loc 2 78 0
 1754 0244 0AAC     		add	r4, sp, #40
 1755              	.LVL269:
 1756              	.LBE104:
 1757              	.LBE111:
 656:..\..\..\lvgl\version_6.1.2\lvgl\src\lv_objx/lv_cont.c ****         case LV_FIT_TIGHT: new_area.x1 = tight_area.x1; break;
 1758              		.loc 1 656 0
 1759 0246 022A     		cmp	r2, #2
 1760              	.LBB112:
 1761              	.LBB105:
 1762              		.loc 2 78 0
 1763 0248 84E80300 		stmia	r4, {r0, r1}
 1764              	.LVL270:
 1765              	.LBE105:
 1766              	.LBE112:
 656:..\..\..\lvgl\version_6.1.2\lvgl\src\lv_objx/lv_cont.c ****         case LV_FIT_TIGHT: new_area.x1 = tight_area.x1; break;
 1767              		.loc 1 656 0
 1768 024c 06D0     		beq	.L176
 1769 024e 05D8     		bhi	.L176
 1770 0250 012A     		cmp	r2, #1
 1771 0252 4FD1     		bne	.L222
 1772 0254 BDF91070 		ldrsh	r7, [sp, #16]
 630:..\..\..\lvgl\version_6.1.2\lvgl\src\lv_objx/lv_cont.c **** 
 1773              		.loc 1 630 0
 1774 0258 0022     		movs	r2, #0
 1775 025a 8DE7     		b	.L146
 1776              	.L176:
 663:..\..\..\lvgl\version_6.1.2\lvgl\src\lv_objx/lv_cont.c ****         case LV_FIT_TIGHT: new_area.x2 = tight_area.x2; break;
 1777              		.loc 1 663 0
ARM GAS  C:\Users\pearlstl\AppData\Local\Temp\cciL9yyu.s 			page 51


 1778 025c 9B09     		lsrs	r3, r3, #6
 1779 025e 022B     		cmp	r3, #2
 630:..\..\..\lvgl\version_6.1.2\lvgl\src\lv_objx/lv_cont.c **** 
 1780              		.loc 1 630 0
 1781 0260 4FF00002 		mov	r2, #0
 659:..\..\..\lvgl\version_6.1.2\lvgl\src\lv_objx/lv_cont.c ****         default: break;
 1782              		.loc 1 659 0
 1783 0264 ADF82870 		strh	r7, [sp, #40]	@ movhi
 663:..\..\..\lvgl\version_6.1.2\lvgl\src\lv_objx/lv_cont.c ****         case LV_FIT_TIGHT: new_area.x2 = tight_area.x2; break;
 1784              		.loc 1 663 0
 1785 0268 8BD1     		bne	.L238
 1786              	.L149:
 666:..\..\..\lvgl\version_6.1.2\lvgl\src\lv_objx/lv_cont.c ****         default: break;
 1787              		.loc 1 666 0 discriminator 4
 1788 026a BDF80430 		ldrh	r3, [sp, #4]
 1789 026e ADF82C30 		strh	r3, [sp, #44]	@ movhi
 670:..\..\..\lvgl\version_6.1.2\lvgl\src\lv_objx/lv_cont.c ****         case LV_FIT_TIGHT: new_area.y1 = tight_area.y1; break;
 1790              		.loc 1 670 0 discriminator 4
 1791 0272 98F80130 		ldrb	r3, [r8, #1]	@ zero_extendqisi2
 1792 0276 03F00301 		and	r1, r3, #3
 1793 027a 0229     		cmp	r1, #2
 1794 027c 8FD1     		bne	.L239
 1795              	.L154:
 677:..\..\..\lvgl\version_6.1.2\lvgl\src\lv_objx/lv_cont.c ****         case LV_FIT_TIGHT: new_area.y2 = tight_area.y2; break;
 1796              		.loc 1 677 0 discriminator 4
 1797 027e C3F38103 		ubfx	r3, r3, #2, #2
 673:..\..\..\lvgl\version_6.1.2\lvgl\src\lv_objx/lv_cont.c ****         default: break;
 1798              		.loc 1 673 0 discriminator 4
 1799 0282 BDF80810 		ldrh	r1, [sp, #8]
 1800 0286 ADF82A10 		strh	r1, [sp, #42]	@ movhi
 677:..\..\..\lvgl\version_6.1.2\lvgl\src\lv_objx/lv_cont.c ****         case LV_FIT_TIGHT: new_area.y2 = tight_area.y2; break;
 1801              		.loc 1 677 0 discriminator 4
 1802 028a 022B     		cmp	r3, #2
 1803 028c 93D1     		bne	.L240
 1804              	.L160:
 680:..\..\..\lvgl\version_6.1.2\lvgl\src\lv_objx/lv_cont.c ****         default: break;
 1805              		.loc 1 680 0 discriminator 4
 1806 028e ADF82EB0 		strh	fp, [sp, #46]	@ movhi
 1807 0292 97E7     		b	.L156
 1808              	.L237:
 699:..\..\..\lvgl\version_6.1.2\lvgl\src\lv_objx/lv_cont.c ****         }
 1809              		.loc 1 699 0
 1810 0294 3046     		mov	r0, r6
 1811 0296 FFF7FEFF 		bl	lv_obj_realign
 1812              	.LVL271:
 1813 029a B7E7     		b	.L163
 1814              	.L158:
 680:..\..\..\lvgl\version_6.1.2\lvgl\src\lv_objx/lv_cont.c ****         default: break;
 1815              		.loc 1 680 0
 1816 029c 002A     		cmp	r2, #0
 1817 029e F6D0     		beq	.L160
 680:..\..\..\lvgl\version_6.1.2\lvgl\src\lv_objx/lv_cont.c ****         default: break;
 1818              		.loc 1 680 0 is_stmt 0 discriminator 1
 1819 02a0 BDF91630 		ldrsh	r3, [sp, #22]
 1820 02a4 9B45     		cmp	fp, r3
 1821 02a6 B8BF     		it	lt
 1822 02a8 9B46     		movlt	fp, r3
ARM GAS  C:\Users\pearlstl\AppData\Local\Temp\cciL9yyu.s 			page 52


 1823 02aa F0E7     		b	.L160
 1824              	.L152:
 673:..\..\..\lvgl\version_6.1.2\lvgl\src\lv_objx/lv_cont.c ****         default: break;
 1825              		.loc 1 673 0 is_stmt 1
 1826 02ac 002A     		cmp	r2, #0
 1827 02ae E6D0     		beq	.L154
 1828              	.L155:
 673:..\..\..\lvgl\version_6.1.2\lvgl\src\lv_objx/lv_cont.c ****         default: break;
 1829              		.loc 1 673 0 is_stmt 0 discriminator 1
 1830 02b0 0298     		ldr	r0, [sp, #8]
 1831 02b2 BDF91210 		ldrsh	r1, [sp, #18]
 1832 02b6 8842     		cmp	r0, r1
 1833 02b8 A8BF     		it	ge
 1834 02ba 0846     		movge	r0, r1
 1835 02bc 0290     		str	r0, [sp, #8]
 1836 02be DEE7     		b	.L154
 1837              	.L148:
 666:..\..\..\lvgl\version_6.1.2\lvgl\src\lv_objx/lv_cont.c ****         default: break;
 1838              		.loc 1 666 0 is_stmt 1
 1839 02c0 002A     		cmp	r2, #0
 1840 02c2 D2D0     		beq	.L149
 1841              	.L143:
 666:..\..\..\lvgl\version_6.1.2\lvgl\src\lv_objx/lv_cont.c ****         default: break;
 1842              		.loc 1 666 0 is_stmt 0 discriminator 1
 1843 02c4 019A     		ldr	r2, [sp, #4]
 1844 02c6 BDF91430 		ldrsh	r3, [sp, #20]
 1845 02ca 9A42     		cmp	r2, r3
 1846 02cc B8BF     		it	lt
 1847 02ce 1A46     		movlt	r2, r3
 1848 02d0 0192     		str	r2, [sp, #4]
 1849              	.L229:
 1850 02d2 0122     		movs	r2, #1
 1851 02d4 C9E7     		b	.L149
 1852              	.L236:
 685:..\..\..\lvgl\version_6.1.2\lvgl\src\lv_objx/lv_cont.c ****        cont->coords.y2 != new_area.y2) {
 1853              		.loc 1 685 0 is_stmt 1 discriminator 2
 1854 02d6 B6F91420 		ldrsh	r2, [r6, #20]
 1855 02da BDF92C30 		ldrsh	r3, [sp, #44]
 1856 02de 9A42     		cmp	r2, r3
 1857 02e0 7FF47AAF 		bne	.L161
 685:..\..\..\lvgl\version_6.1.2\lvgl\src\lv_objx/lv_cont.c ****        cont->coords.y2 != new_area.y2) {
 1858              		.loc 1 685 0 is_stmt 0 discriminator 3
 1859 02e4 B6F91620 		ldrsh	r2, [r6, #22]
 1860 02e8 BDF92E30 		ldrsh	r3, [sp, #46]
 1861 02ec 9A42     		cmp	r2, r3
 1862 02ee 7FF473AF 		bne	.L161
 1863 02f2 93E6     		b	.L130
 1864              	.L222:
 663:..\..\..\lvgl\version_6.1.2\lvgl\src\lv_objx/lv_cont.c ****         case LV_FIT_TIGHT: new_area.x2 = tight_area.x2; break;
 1865              		.loc 1 663 0 is_stmt 1
 1866 02f4 9B09     		lsrs	r3, r3, #6
 1867 02f6 022B     		cmp	r3, #2
 1868 02f8 BDF92870 		ldrsh	r7, [sp, #40]
 1869 02fc 12D0     		beq	.L179
 1870 02fe 11D8     		bhi	.L179
 1871 0300 012B     		cmp	r3, #1
 1872 0302 11D1     		bne	.L241
ARM GAS  C:\Users\pearlstl\AppData\Local\Temp\cciL9yyu.s 			page 53


 630:..\..\..\lvgl\version_6.1.2\lvgl\src\lv_objx/lv_cont.c **** 
 1873              		.loc 1 630 0
 1874 0304 0022     		movs	r2, #0
 1875 0306 40E7     		b	.L144
 1876              	.LVL272:
 1877              	.L235:
 656:..\..\..\lvgl\version_6.1.2\lvgl\src\lv_objx/lv_cont.c ****         case LV_FIT_TIGHT: new_area.x1 = tight_area.x1; break;
 1878              		.loc 1 656 0
 1879 0308 012A     		cmp	r2, #1
 1880 030a 09D0     		beq	.L171
 663:..\..\..\lvgl\version_6.1.2\lvgl\src\lv_objx/lv_cont.c ****         case LV_FIT_TIGHT: new_area.x2 = tight_area.x2; break;
 1881              		.loc 1 663 0
 1882 030c 9B09     		lsrs	r3, r3, #6
 1883 030e 022B     		cmp	r3, #2
 1884 0310 BDF92870 		ldrsh	r7, [sp, #40]
 1885 0314 DDD0     		beq	.L229
 1886 0316 D5D8     		bhi	.L143
 1887 0318 012B     		cmp	r3, #1
 1888 031a 12D1     		bne	.L242
 630:..\..\..\lvgl\version_6.1.2\lvgl\src\lv_objx/lv_cont.c **** 
 1889              		.loc 1 630 0
 1890 031c 1A46     		mov	r2, r3
 1891 031e 34E7     		b	.L144
 1892              	.L171:
 656:..\..\..\lvgl\version_6.1.2\lvgl\src\lv_objx/lv_cont.c ****         case LV_FIT_TIGHT: new_area.x1 = tight_area.x1; break;
 1893              		.loc 1 656 0
 1894 0320 7746     		mov	r7, lr
 1895 0322 29E7     		b	.L146
 1896              	.LVL273:
 1897              	.L179:
 630:..\..\..\lvgl\version_6.1.2\lvgl\src\lv_objx/lv_cont.c **** 
 1898              		.loc 1 630 0
 1899 0324 0022     		movs	r2, #0
 1900 0326 A0E7     		b	.L149
 1901              	.L241:
 670:..\..\..\lvgl\version_6.1.2\lvgl\src\lv_objx/lv_cont.c ****         case LV_FIT_TIGHT: new_area.y1 = tight_area.y1; break;
 1902              		.loc 1 670 0
 1903 0328 98F80130 		ldrb	r3, [r8, #1]	@ zero_extendqisi2
 1904 032c 03F00302 		and	r2, r3, #3
 1905 0330 022A     		cmp	r2, #2
 1906 0332 04D0     		beq	.L187
 1907 0334 03D8     		bhi	.L187
 1908 0336 012A     		cmp	r2, #1
 1909 0338 0FD1     		bne	.L243
 630:..\..\..\lvgl\version_6.1.2\lvgl\src\lv_objx/lv_cont.c **** 
 1910              		.loc 1 630 0
 1911 033a 0022     		movs	r2, #0
 1912 033c 33E7     		b	.L153
 1913              	.L187:
 1914 033e 0022     		movs	r2, #0
 1915 0340 9DE7     		b	.L154
 1916              	.LVL274:
 1917              	.L242:
 670:..\..\..\lvgl\version_6.1.2\lvgl\src\lv_objx/lv_cont.c ****         case LV_FIT_TIGHT: new_area.y1 = tight_area.y1; break;
 1918              		.loc 1 670 0
 1919 0342 98F80130 		ldrb	r3, [r8, #1]	@ zero_extendqisi2
 1920 0346 03F00302 		and	r2, r3, #3
ARM GAS  C:\Users\pearlstl\AppData\Local\Temp\cciL9yyu.s 			page 54


 1921 034a 022A     		cmp	r2, #2
 1922 034c 09D0     		beq	.L182
 1923 034e 06D8     		bhi	.L183
 1924 0350 012A     		cmp	r2, #1
 1925 0352 3FF428AF 		beq	.L153
 630:..\..\..\lvgl\version_6.1.2\lvgl\src\lv_objx/lv_cont.c **** 
 1926              		.loc 1 630 0
 1927 0356 0122     		movs	r2, #1
 1928 0358 29E7     		b	.L150
 1929              	.LVL275:
 1930              	.L243:
 1931 035a 0022     		movs	r2, #0
 1932 035c 27E7     		b	.L150
 1933              	.LVL276:
 1934              	.L183:
 1935 035e 0122     		movs	r2, #1
 1936 0360 A6E7     		b	.L155
 1937              	.L182:
 1938 0362 0122     		movs	r2, #1
 1939 0364 8BE7     		b	.L154
 1940              	.L245:
 1941 0366 00BF     		.align	2
 1942              	.L244:
 1943 0368 187C187C 		.word	2081979416
 1944 036c E883E883 		.word	-2081913880
 1945              		.cfi_endproc
 1946              	.LFE50:
 1947              		.size	lv_cont_refr_autofit, .-lv_cont_refr_autofit
 1948              		.section	.text.lv_cont_signal,"ax",%progbits
 1949              		.align	2
 1950              		.thumb
 1951              		.thumb_func
 1952              		.type	lv_cont_signal, %function
 1953              	lv_cont_signal:
 1954              	.LFB43:
 252:..\..\..\lvgl\version_6.1.2\lvgl\src\lv_objx/lv_cont.c ****     lv_res_t res;
 1955              		.loc 1 252 0
 1956              		.cfi_startproc
 1957              		@ args = 0, pretend = 0, frame = 0
 1958              		@ frame_needed = 0, uses_anonymous_args = 0
 1959              	.LVL277:
 1960 0000 F8B5     		push	{r3, r4, r5, r6, r7, lr}
 1961              		.cfi_def_cfa_offset 24
 1962              		.cfi_offset 3, -24
 1963              		.cfi_offset 4, -20
 1964              		.cfi_offset 5, -16
 1965              		.cfi_offset 6, -12
 1966              		.cfi_offset 7, -8
 1967              		.cfi_offset 14, -4
 256:..\..\..\lvgl\version_6.1.2\lvgl\src\lv_objx/lv_cont.c ****     if(res != LV_RES_OK) return res;
 1968              		.loc 1 256 0
 1969 0002 1B4B     		ldr	r3, .L265
 1970 0004 1B68     		ldr	r3, [r3]
 252:..\..\..\lvgl\version_6.1.2\lvgl\src\lv_objx/lv_cont.c ****     lv_res_t res;
 1971              		.loc 1 252 0
 1972 0006 0646     		mov	r6, r0
 1973 0008 0D46     		mov	r5, r1
ARM GAS  C:\Users\pearlstl\AppData\Local\Temp\cciL9yyu.s 			page 55


 1974 000a 1746     		mov	r7, r2
 256:..\..\..\lvgl\version_6.1.2\lvgl\src\lv_objx/lv_cont.c ****     if(res != LV_RES_OK) return res;
 1975              		.loc 1 256 0
 1976 000c 9847     		blx	r3
 1977              	.LVL278:
 257:..\..\..\lvgl\version_6.1.2\lvgl\src\lv_objx/lv_cont.c ****     if(sign == LV_SIGNAL_GET_TYPE) return lv_obj_handle_get_type_signal(param, LV_OBJX_NAME);
 1978              		.loc 1 257 0
 1979 000e 0128     		cmp	r0, #1
 1980 0010 00D0     		beq	.L262
 278:..\..\..\lvgl\version_6.1.2\lvgl\src\lv_objx/lv_cont.c **** 
 1981              		.loc 1 278 0
 1982 0012 F8BD     		pop	{r3, r4, r5, r6, r7, pc}
 1983              	.LVL279:
 1984              	.L262:
 258:..\..\..\lvgl\version_6.1.2\lvgl\src\lv_objx/lv_cont.c **** 
 1985              		.loc 1 258 0
 1986 0014 072D     		cmp	r5, #7
 1987 0016 25D0     		beq	.L263
 260:..\..\..\lvgl\version_6.1.2\lvgl\src\lv_objx/lv_cont.c ****         lv_cont_refr_layout(cont);
 1988              		.loc 1 260 0
 1989 0018 042D     		cmp	r5, #4
 1990 001a 1BD0     		beq	.L250
 263:..\..\..\lvgl\version_6.1.2\lvgl\src\lv_objx/lv_cont.c ****         lv_cont_refr_layout(cont);
 1991              		.loc 1 263 0
 1992 001c 012D     		cmp	r5, #1
 1993 001e 19D0     		beq	.L250
 266:..\..\..\lvgl\version_6.1.2\lvgl\src\lv_objx/lv_cont.c ****         if(lv_obj_get_width(cont) != lv_area_get_width(param) || lv_obj_get_height(cont) != lv_area
 1994              		.loc 1 266 0
 1995 0020 022D     		cmp	r5, #2
 1996 0022 03D0     		beq	.L264
 271:..\..\..\lvgl\version_6.1.2\lvgl\src\lv_objx/lv_cont.c ****         /*FLOOD and FILL fit needs to be refreshed if the parent size has changed*/
 1997              		.loc 1 271 0
 1998 0024 032D     		cmp	r5, #3
 1999 0026 18D0     		beq	.L260
 2000              	.LVL280:
 2001              	.L261:
 2002 0028 0120     		movs	r0, #1
 2003 002a F8BD     		pop	{r3, r4, r5, r6, r7, pc}
 2004              	.LVL281:
 2005              	.L264:
 267:..\..\..\lvgl\version_6.1.2\lvgl\src\lv_objx/lv_cont.c ****             lv_cont_refr_layout(cont);
 2006              		.loc 1 267 0
 2007 002c 3046     		mov	r0, r6
 2008              	.LVL282:
 2009 002e FFF7FEFF 		bl	lv_obj_get_width
 2010              	.LVL283:
 2011 0032 BB88     		ldrh	r3, [r7, #4]
 2012 0034 3A88     		ldrh	r2, [r7]
 2013 0036 0133     		adds	r3, r3, #1
 2014 0038 9B1A     		subs	r3, r3, r2
 2015 003a 1BB2     		sxth	r3, r3
 2016 003c 9842     		cmp	r0, r3
 2017 003e 09D1     		bne	.L250
 267:..\..\..\lvgl\version_6.1.2\lvgl\src\lv_objx/lv_cont.c ****             lv_cont_refr_layout(cont);
 2018              		.loc 1 267 0 is_stmt 0 discriminator 1
 2019 0040 3046     		mov	r0, r6
 2020 0042 FFF7FEFF 		bl	lv_obj_get_height
ARM GAS  C:\Users\pearlstl\AppData\Local\Temp\cciL9yyu.s 			page 56


 2021              	.LVL284:
 2022 0046 FB88     		ldrh	r3, [r7, #6]
 2023 0048 7A88     		ldrh	r2, [r7, #2]
 2024 004a 0133     		adds	r3, r3, #1
 2025 004c 9B1A     		subs	r3, r3, r2
 2026 004e 1BB2     		sxth	r3, r3
 2027 0050 9842     		cmp	r0, r3
 2028 0052 E9D0     		beq	.L261
 2029              	.LVL285:
 2030              	.L250:
 261:..\..\..\lvgl\version_6.1.2\lvgl\src\lv_objx/lv_cont.c ****         lv_cont_refr_autofit(cont);
 2031              		.loc 1 261 0 is_stmt 1
 2032 0054 3046     		mov	r0, r6
 2033 0056 FFF7FEFF 		bl	lv_cont_refr_layout
 2034              	.LVL286:
 2035              	.L260:
 262:..\..\..\lvgl\version_6.1.2\lvgl\src\lv_objx/lv_cont.c ****     } else if(sign == LV_SIGNAL_CHILD_CHG) {
 2036              		.loc 1 262 0
 2037 005a 3046     		mov	r0, r6
 2038 005c FFF7FEFF 		bl	lv_cont_refr_autofit
 2039              	.LVL287:
 2040 0060 0120     		movs	r0, #1
 2041 0062 F8BD     		pop	{r3, r4, r5, r6, r7, pc}
 2042              	.LVL288:
 2043              	.L263:
 258:..\..\..\lvgl\version_6.1.2\lvgl\src\lv_objx/lv_cont.c **** 
 2044              		.loc 1 258 0 discriminator 1
 2045 0064 3846     		mov	r0, r7
 2046              	.LVL289:
 2047 0066 0349     		ldr	r1, .L265+4
 278:..\..\..\lvgl\version_6.1.2\lvgl\src\lv_objx/lv_cont.c **** 
 2048              		.loc 1 278 0 discriminator 1
 2049 0068 BDE8F840 		pop	{r3, r4, r5, r6, r7, lr}
 2050              		.cfi_restore 14
 2051              		.cfi_restore 7
 2052              		.cfi_restore 6
 2053              		.cfi_restore 5
 2054              		.cfi_restore 4
 2055              		.cfi_restore 3
 2056              		.cfi_def_cfa_offset 0
 2057              	.LVL290:
 258:..\..\..\lvgl\version_6.1.2\lvgl\src\lv_objx/lv_cont.c **** 
 2058              		.loc 1 258 0 discriminator 1
 2059 006c FFF7FEBF 		b	lv_obj_handle_get_type_signal
 2060              	.LVL291:
 2061              	.L266:
 2062              		.align	2
 2063              	.L265:
 2064 0070 00000000 		.word	.LANCHOR0
 2065 0074 00000000 		.word	.LC0
 2066              		.cfi_endproc
 2067              	.LFE43:
 2068              		.size	lv_cont_signal, .-lv_cont_signal
 2069              		.section	.text.lv_cont_create,"ax",%progbits
 2070              		.align	2
 2071              		.global	lv_cont_create
 2072              		.thumb
ARM GAS  C:\Users\pearlstl\AppData\Local\Temp\cciL9yyu.s 			page 57


 2073              		.thumb_func
 2074              		.type	lv_cont_create, %function
 2075              	lv_cont_create:
 2076              	.LFB35:
  67:..\..\..\lvgl\version_6.1.2\lvgl\src\lv_objx/lv_cont.c **** 
 2077              		.loc 1 67 0
 2078              		.cfi_startproc
 2079              		@ args = 0, pretend = 0, frame = 0
 2080              		@ frame_needed = 0, uses_anonymous_args = 0
 2081              	.LVL292:
 2082 0000 F8B5     		push	{r3, r4, r5, r6, r7, lr}
 2083              		.cfi_def_cfa_offset 24
 2084              		.cfi_offset 3, -24
 2085              		.cfi_offset 4, -20
 2086              		.cfi_offset 5, -16
 2087              		.cfi_offset 6, -12
 2088              		.cfi_offset 7, -8
 2089              		.cfi_offset 14, -4
  67:..\..\..\lvgl\version_6.1.2\lvgl\src\lv_objx/lv_cont.c **** 
 2090              		.loc 1 67 0
 2091 0002 0746     		mov	r7, r0
 2092 0004 0E46     		mov	r6, r1
  72:..\..\..\lvgl\version_6.1.2\lvgl\src\lv_objx/lv_cont.c ****     LV_ASSERT_MEM(new_cont);
 2093              		.loc 1 72 0
 2094 0006 FFF7FEFF 		bl	lv_obj_create
 2095              	.LVL293:
  74:..\..\..\lvgl\version_6.1.2\lvgl\src\lv_objx/lv_cont.c **** 
 2096              		.loc 1 74 0
 2097 000a 0028     		cmp	r0, #0
 2098 000c 53D0     		beq	.L271
  76:..\..\..\lvgl\version_6.1.2\lvgl\src\lv_objx/lv_cont.c **** 
 2099              		.loc 1 76 0
 2100 000e 2F4C     		ldr	r4, .L281
 2101 0010 2368     		ldr	r3, [r4]
 2102 0012 0546     		mov	r5, r0
 2103 0014 002B     		cmp	r3, #0
 2104 0016 4AD0     		beq	.L279
 2105              	.LVL294:
 2106              	.L270:
  78:..\..\..\lvgl\version_6.1.2\lvgl\src\lv_objx/lv_cont.c ****     lv_cont_ext_t * ext = lv_obj_get_ext_attr(new_cont);
 2107              		.loc 1 78 0
 2108 0018 0221     		movs	r1, #2
 2109 001a 2846     		mov	r0, r5
 2110 001c FFF7FEFF 		bl	lv_obj_allocate_ext_attr
 2111              	.LVL295:
  79:..\..\..\lvgl\version_6.1.2\lvgl\src\lv_objx/lv_cont.c ****     if(ext == NULL) return NULL;
 2112              		.loc 1 79 0
 2113 0020 2846     		mov	r0, r5
 2114 0022 FFF7FEFF 		bl	lv_obj_get_ext_attr
 2115              	.LVL296:
  80:..\..\..\lvgl\version_6.1.2\lvgl\src\lv_objx/lv_cont.c **** 
 2116              		.loc 1 80 0
 2117 0026 0446     		mov	r4, r0
 2118 0028 0028     		cmp	r0, #0
 2119 002a 44D0     		beq	.L271
  83:..\..\..\lvgl\version_6.1.2\lvgl\src\lv_objx/lv_cont.c ****     ext->fit_right  = LV_FIT_NONE;
 2120              		.loc 1 83 0
ARM GAS  C:\Users\pearlstl\AppData\Local\Temp\cciL9yyu.s 			page 58


 2121 002c 0278     		ldrb	r2, [r0]	@ zero_extendqisi2
  85:..\..\..\lvgl\version_6.1.2\lvgl\src\lv_objx/lv_cont.c ****     ext->fit_bottom = LV_FIT_NONE;
 2122              		.loc 1 85 0
 2123 002e 4378     		ldrb	r3, [r0, #1]	@ zero_extendqisi2
  89:..\..\..\lvgl\version_6.1.2\lvgl\src\lv_objx/lv_cont.c **** 
 2124              		.loc 1 89 0
 2125 0030 2749     		ldr	r1, .L281+4
  87:..\..\..\lvgl\version_6.1.2\lvgl\src\lv_objx/lv_cont.c **** 
 2126              		.loc 1 87 0
 2127 0032 02F00F02 		and	r2, r2, #15
  86:..\..\..\lvgl\version_6.1.2\lvgl\src\lv_objx/lv_cont.c ****     ext->layout     = LV_LAYOUT_OFF;
 2128              		.loc 1 86 0
 2129 0036 03F0FC03 		and	r3, r3, #252
  87:..\..\..\lvgl\version_6.1.2\lvgl\src\lv_objx/lv_cont.c **** 
 2130              		.loc 1 87 0
 2131 003a 6FF30302 		bfc	r2, #0, #4
  86:..\..\..\lvgl\version_6.1.2\lvgl\src\lv_objx/lv_cont.c ****     ext->layout     = LV_LAYOUT_OFF;
 2132              		.loc 1 86 0
 2133 003e 6FF38303 		bfc	r3, #2, #2
  87:..\..\..\lvgl\version_6.1.2\lvgl\src\lv_objx/lv_cont.c **** 
 2134              		.loc 1 87 0
 2135 0042 0270     		strb	r2, [r0]
  86:..\..\..\lvgl\version_6.1.2\lvgl\src\lv_objx/lv_cont.c ****     ext->layout     = LV_LAYOUT_OFF;
 2136              		.loc 1 86 0
 2137 0044 4370     		strb	r3, [r0, #1]
  89:..\..\..\lvgl\version_6.1.2\lvgl\src\lv_objx/lv_cont.c **** 
 2138              		.loc 1 89 0
 2139 0046 2846     		mov	r0, r5
 2140              	.LVL297:
 2141 0048 FFF7FEFF 		bl	lv_obj_set_signal_cb
 2142              	.LVL298:
  92:..\..\..\lvgl\version_6.1.2\lvgl\src\lv_objx/lv_cont.c ****         /*Set the default styles if it's not screen*/
 2143              		.loc 1 92 0
 2144 004c 2EB3     		cbz	r6, .L280
 2145              	.LBB113:
 105:..\..\..\lvgl\version_6.1.2\lvgl\src\lv_objx/lv_cont.c ****         ext->fit_left            = copy_ext->fit_left;
 2146              		.loc 1 105 0
 2147 004e 3046     		mov	r0, r6
 2148 0050 FFF7FEFF 		bl	lv_obj_get_ext_attr
 2149              	.LVL299:
 106:..\..\..\lvgl\version_6.1.2\lvgl\src\lv_objx/lv_cont.c ****         ext->fit_right           = copy_ext->fit_right;
 2150              		.loc 1 106 0
 2151 0054 0378     		ldrb	r3, [r0]	@ zero_extendqisi2
 2152 0056 2278     		ldrb	r2, [r4]	@ zero_extendqisi2
 108:..\..\..\lvgl\version_6.1.2\lvgl\src\lv_objx/lv_cont.c ****         ext->fit_bottom          = copy_ext->fit_bottom;
 2153              		.loc 1 108 0
 2154 0058 6178     		ldrb	r1, [r4, #1]	@ zero_extendqisi2
 106:..\..\..\lvgl\version_6.1.2\lvgl\src\lv_objx/lv_cont.c ****         ext->fit_right           = copy_ext->fit_right;
 2155              		.loc 1 106 0
 2156 005a C3F30113 		ubfx	r3, r3, #4, #2
 2157 005e 63F30512 		bfi	r2, r3, #4, #2
 2158 0062 2270     		strb	r2, [r4]
 107:..\..\..\lvgl\version_6.1.2\lvgl\src\lv_objx/lv_cont.c ****         ext->fit_top             = copy_ext->fit_top;
 2159              		.loc 1 107 0
 2160 0064 0378     		ldrb	r3, [r0]	@ zero_extendqisi2
 2161 0066 D2B2     		uxtb	r2, r2
 2162 0068 9B09     		lsrs	r3, r3, #6
ARM GAS  C:\Users\pearlstl\AppData\Local\Temp\cciL9yyu.s 			page 59


 2163 006a 63F38712 		bfi	r2, r3, #6, #2
 2164 006e 2270     		strb	r2, [r4]
 108:..\..\..\lvgl\version_6.1.2\lvgl\src\lv_objx/lv_cont.c ****         ext->fit_bottom          = copy_ext->fit_bottom;
 2165              		.loc 1 108 0
 2166 0070 4378     		ldrb	r3, [r0, #1]	@ zero_extendqisi2
 2167 0072 63F30101 		bfi	r1, r3, #0, #2
 2168 0076 6170     		strb	r1, [r4, #1]
 109:..\..\..\lvgl\version_6.1.2\lvgl\src\lv_objx/lv_cont.c ****         ext->layout              = copy_ext->layout;
 2169              		.loc 1 109 0
 2170 0078 4378     		ldrb	r3, [r0, #1]	@ zero_extendqisi2
 2171 007a C9B2     		uxtb	r1, r1
 2172 007c C3F38103 		ubfx	r3, r3, #2, #2
 2173 0080 63F38301 		bfi	r1, r3, #2, #2
 2174 0084 6170     		strb	r1, [r4, #1]
 110:..\..\..\lvgl\version_6.1.2\lvgl\src\lv_objx/lv_cont.c **** 
 2175              		.loc 1 110 0
 2176 0086 0378     		ldrb	r3, [r0]	@ zero_extendqisi2
 2177 0088 D2B2     		uxtb	r2, r2
 2178 008a 63F30302 		bfi	r2, r3, #0, #4
 113:..\..\..\lvgl\version_6.1.2\lvgl\src\lv_objx/lv_cont.c ****     }
 2179              		.loc 1 113 0
 2180 008e 2846     		mov	r0, r5
 2181              	.LVL300:
 110:..\..\..\lvgl\version_6.1.2\lvgl\src\lv_objx/lv_cont.c **** 
 2182              		.loc 1 110 0
 2183 0090 2270     		strb	r2, [r4]
 113:..\..\..\lvgl\version_6.1.2\lvgl\src\lv_objx/lv_cont.c ****     }
 2184              		.loc 1 113 0
 2185 0092 FFF7FEFF 		bl	lv_obj_refresh_style
 2186              	.LVL301:
 2187 0096 2846     		mov	r0, r5
 2188 0098 F8BD     		pop	{r3, r4, r5, r6, r7, pc}
 2189              	.LVL302:
 2190              	.L280:
 2191              	.LBE113:
  94:..\..\..\lvgl\version_6.1.2\lvgl\src\lv_objx/lv_cont.c ****             lv_theme_t * th = lv_theme_get_current();
 2192              		.loc 1 94 0
 2193 009a 77B1     		cbz	r7, .L274
 2194              	.LBB114:
  95:..\..\..\lvgl\version_6.1.2\lvgl\src\lv_objx/lv_cont.c ****             if(th) {
 2195              		.loc 1 95 0
 2196 009c FFF7FEFF 		bl	lv_theme_get_current
 2197              	.LVL303:
  96:..\..\..\lvgl\version_6.1.2\lvgl\src\lv_objx/lv_cont.c ****                 lv_cont_set_style(new_cont, LV_CONT_STYLE_MAIN, th->style.cont);
 2198              		.loc 1 96 0
 2199 00a0 68B1     		cbz	r0, .L273
 2200              	.LVL304:
 2201              	.LBB115:
 2202              	.LBB116:
 2203              		.file 3 "..\\..\\..\\lvgl\\version_6.1.2\\lvgl\\src\\lv_objx\\lv_cont.h"
   1:..\..\..\lvgl\version_6.1.2\lvgl\src\lv_objx/lv_cont.h **** /**
   2:..\..\..\lvgl\version_6.1.2\lvgl\src\lv_objx/lv_cont.h ****  * @file lv_cont.h
   3:..\..\..\lvgl\version_6.1.2\lvgl\src\lv_objx/lv_cont.h ****  *
   4:..\..\..\lvgl\version_6.1.2\lvgl\src\lv_objx/lv_cont.h ****  */
   5:..\..\..\lvgl\version_6.1.2\lvgl\src\lv_objx/lv_cont.h **** 
   6:..\..\..\lvgl\version_6.1.2\lvgl\src\lv_objx/lv_cont.h **** #ifndef LV_CONT_H
   7:..\..\..\lvgl\version_6.1.2\lvgl\src\lv_objx/lv_cont.h **** #define LV_CONT_H
ARM GAS  C:\Users\pearlstl\AppData\Local\Temp\cciL9yyu.s 			page 60


   8:..\..\..\lvgl\version_6.1.2\lvgl\src\lv_objx/lv_cont.h **** 
   9:..\..\..\lvgl\version_6.1.2\lvgl\src\lv_objx/lv_cont.h **** #ifdef __cplusplus
  10:..\..\..\lvgl\version_6.1.2\lvgl\src\lv_objx/lv_cont.h **** extern "C" {
  11:..\..\..\lvgl\version_6.1.2\lvgl\src\lv_objx/lv_cont.h **** #endif
  12:..\..\..\lvgl\version_6.1.2\lvgl\src\lv_objx/lv_cont.h **** 
  13:..\..\..\lvgl\version_6.1.2\lvgl\src\lv_objx/lv_cont.h **** /*********************
  14:..\..\..\lvgl\version_6.1.2\lvgl\src\lv_objx/lv_cont.h ****  *      INCLUDES
  15:..\..\..\lvgl\version_6.1.2\lvgl\src\lv_objx/lv_cont.h ****  *********************/
  16:..\..\..\lvgl\version_6.1.2\lvgl\src\lv_objx/lv_cont.h **** #ifdef LV_CONF_INCLUDE_SIMPLE
  17:..\..\..\lvgl\version_6.1.2\lvgl\src\lv_objx/lv_cont.h **** #include "lv_conf.h"
  18:..\..\..\lvgl\version_6.1.2\lvgl\src\lv_objx/lv_cont.h **** #else
  19:..\..\..\lvgl\version_6.1.2\lvgl\src\lv_objx/lv_cont.h **** #include "../../../lv_conf.h"
  20:..\..\..\lvgl\version_6.1.2\lvgl\src\lv_objx/lv_cont.h **** #endif
  21:..\..\..\lvgl\version_6.1.2\lvgl\src\lv_objx/lv_cont.h **** 
  22:..\..\..\lvgl\version_6.1.2\lvgl\src\lv_objx/lv_cont.h **** #if LV_USE_CONT != 0
  23:..\..\..\lvgl\version_6.1.2\lvgl\src\lv_objx/lv_cont.h **** 
  24:..\..\..\lvgl\version_6.1.2\lvgl\src\lv_objx/lv_cont.h **** #include "../lv_core/lv_obj.h"
  25:..\..\..\lvgl\version_6.1.2\lvgl\src\lv_objx/lv_cont.h **** 
  26:..\..\..\lvgl\version_6.1.2\lvgl\src\lv_objx/lv_cont.h **** /*********************
  27:..\..\..\lvgl\version_6.1.2\lvgl\src\lv_objx/lv_cont.h ****  *      DEFINES
  28:..\..\..\lvgl\version_6.1.2\lvgl\src\lv_objx/lv_cont.h ****  *********************/
  29:..\..\..\lvgl\version_6.1.2\lvgl\src\lv_objx/lv_cont.h **** 
  30:..\..\..\lvgl\version_6.1.2\lvgl\src\lv_objx/lv_cont.h **** /**********************
  31:..\..\..\lvgl\version_6.1.2\lvgl\src\lv_objx/lv_cont.h ****  *      TYPEDEFS
  32:..\..\..\lvgl\version_6.1.2\lvgl\src\lv_objx/lv_cont.h ****  **********************/
  33:..\..\..\lvgl\version_6.1.2\lvgl\src\lv_objx/lv_cont.h **** 
  34:..\..\..\lvgl\version_6.1.2\lvgl\src\lv_objx/lv_cont.h **** /** Container layout options*/
  35:..\..\..\lvgl\version_6.1.2\lvgl\src\lv_objx/lv_cont.h **** enum {
  36:..\..\..\lvgl\version_6.1.2\lvgl\src\lv_objx/lv_cont.h ****     LV_LAYOUT_OFF = 0, /**< No layout */
  37:..\..\..\lvgl\version_6.1.2\lvgl\src\lv_objx/lv_cont.h ****     LV_LAYOUT_CENTER, /**< Center objects */
  38:..\..\..\lvgl\version_6.1.2\lvgl\src\lv_objx/lv_cont.h ****     LV_LAYOUT_COL_L,  /**< Column left align*/
  39:..\..\..\lvgl\version_6.1.2\lvgl\src\lv_objx/lv_cont.h ****     LV_LAYOUT_COL_M,  /**< Column middle align*/
  40:..\..\..\lvgl\version_6.1.2\lvgl\src\lv_objx/lv_cont.h ****     LV_LAYOUT_COL_R,  /**< Column right align*/
  41:..\..\..\lvgl\version_6.1.2\lvgl\src\lv_objx/lv_cont.h ****     LV_LAYOUT_ROW_T,  /**< Row top align*/
  42:..\..\..\lvgl\version_6.1.2\lvgl\src\lv_objx/lv_cont.h ****     LV_LAYOUT_ROW_M,  /**< Row middle align*/
  43:..\..\..\lvgl\version_6.1.2\lvgl\src\lv_objx/lv_cont.h ****     LV_LAYOUT_ROW_B,  /**< Row bottom align*/
  44:..\..\..\lvgl\version_6.1.2\lvgl\src\lv_objx/lv_cont.h ****     LV_LAYOUT_PRETTY, /**< Put as many object as possible in row and begin a new row*/
  45:..\..\..\lvgl\version_6.1.2\lvgl\src\lv_objx/lv_cont.h ****     LV_LAYOUT_GRID,   /**< Align same-sized object into a grid*/
  46:..\..\..\lvgl\version_6.1.2\lvgl\src\lv_objx/lv_cont.h ****     _LV_LAYOUT_NUM
  47:..\..\..\lvgl\version_6.1.2\lvgl\src\lv_objx/lv_cont.h **** };
  48:..\..\..\lvgl\version_6.1.2\lvgl\src\lv_objx/lv_cont.h **** typedef uint8_t lv_layout_t;
  49:..\..\..\lvgl\version_6.1.2\lvgl\src\lv_objx/lv_cont.h **** 
  50:..\..\..\lvgl\version_6.1.2\lvgl\src\lv_objx/lv_cont.h **** /**
  51:..\..\..\lvgl\version_6.1.2\lvgl\src\lv_objx/lv_cont.h ****  * How to resize the container around the children.
  52:..\..\..\lvgl\version_6.1.2\lvgl\src\lv_objx/lv_cont.h ****  */
  53:..\..\..\lvgl\version_6.1.2\lvgl\src\lv_objx/lv_cont.h **** enum {
  54:..\..\..\lvgl\version_6.1.2\lvgl\src\lv_objx/lv_cont.h ****     LV_FIT_NONE,  /**< Do not change the size automatically*/
  55:..\..\..\lvgl\version_6.1.2\lvgl\src\lv_objx/lv_cont.h ****     LV_FIT_TIGHT, /**< Shrink wrap around the children */
  56:..\..\..\lvgl\version_6.1.2\lvgl\src\lv_objx/lv_cont.h ****     LV_FIT_FLOOD, /**< Align the size to the parent's edge*/
  57:..\..\..\lvgl\version_6.1.2\lvgl\src\lv_objx/lv_cont.h ****     LV_FIT_FILL,  /**< Align the size to the parent's edge first but if there is an object out of i
  58:..\..\..\lvgl\version_6.1.2\lvgl\src\lv_objx/lv_cont.h ****                      then get larger */
  59:..\..\..\lvgl\version_6.1.2\lvgl\src\lv_objx/lv_cont.h ****     _LV_FIT_NUM
  60:..\..\..\lvgl\version_6.1.2\lvgl\src\lv_objx/lv_cont.h **** };
  61:..\..\..\lvgl\version_6.1.2\lvgl\src\lv_objx/lv_cont.h **** typedef uint8_t lv_fit_t;
  62:..\..\..\lvgl\version_6.1.2\lvgl\src\lv_objx/lv_cont.h **** 
  63:..\..\..\lvgl\version_6.1.2\lvgl\src\lv_objx/lv_cont.h **** typedef struct
  64:..\..\..\lvgl\version_6.1.2\lvgl\src\lv_objx/lv_cont.h **** {
ARM GAS  C:\Users\pearlstl\AppData\Local\Temp\cciL9yyu.s 			page 61


  65:..\..\..\lvgl\version_6.1.2\lvgl\src\lv_objx/lv_cont.h ****     /*Inherited from 'base_obj' so no inherited ext. */ /*Ext. of ancestor*/
  66:..\..\..\lvgl\version_6.1.2\lvgl\src\lv_objx/lv_cont.h ****     /*New data for this type */
  67:..\..\..\lvgl\version_6.1.2\lvgl\src\lv_objx/lv_cont.h ****     uint8_t layout : 4;     /*A layout from 'lv_layout_t' enum*/
  68:..\..\..\lvgl\version_6.1.2\lvgl\src\lv_objx/lv_cont.h ****     uint8_t fit_left : 2;   /*A fit type from `lv_fit_t` enum */
  69:..\..\..\lvgl\version_6.1.2\lvgl\src\lv_objx/lv_cont.h ****     uint8_t fit_right : 2;  /*A fit type from `lv_fit_t` enum */
  70:..\..\..\lvgl\version_6.1.2\lvgl\src\lv_objx/lv_cont.h ****     uint8_t fit_top : 2;    /*A fit type from `lv_fit_t` enum */
  71:..\..\..\lvgl\version_6.1.2\lvgl\src\lv_objx/lv_cont.h ****     uint8_t fit_bottom : 2; /*A fit type from `lv_fit_t` enum */
  72:..\..\..\lvgl\version_6.1.2\lvgl\src\lv_objx/lv_cont.h **** } lv_cont_ext_t;
  73:..\..\..\lvgl\version_6.1.2\lvgl\src\lv_objx/lv_cont.h **** 
  74:..\..\..\lvgl\version_6.1.2\lvgl\src\lv_objx/lv_cont.h **** /*Styles*/
  75:..\..\..\lvgl\version_6.1.2\lvgl\src\lv_objx/lv_cont.h **** enum {
  76:..\..\..\lvgl\version_6.1.2\lvgl\src\lv_objx/lv_cont.h ****     LV_CONT_STYLE_MAIN,
  77:..\..\..\lvgl\version_6.1.2\lvgl\src\lv_objx/lv_cont.h **** };
  78:..\..\..\lvgl\version_6.1.2\lvgl\src\lv_objx/lv_cont.h **** typedef uint8_t lv_cont_style_t;
  79:..\..\..\lvgl\version_6.1.2\lvgl\src\lv_objx/lv_cont.h **** 
  80:..\..\..\lvgl\version_6.1.2\lvgl\src\lv_objx/lv_cont.h **** /**********************
  81:..\..\..\lvgl\version_6.1.2\lvgl\src\lv_objx/lv_cont.h ****  * GLOBAL PROTOTYPES
  82:..\..\..\lvgl\version_6.1.2\lvgl\src\lv_objx/lv_cont.h ****  **********************/
  83:..\..\..\lvgl\version_6.1.2\lvgl\src\lv_objx/lv_cont.h **** 
  84:..\..\..\lvgl\version_6.1.2\lvgl\src\lv_objx/lv_cont.h **** /**
  85:..\..\..\lvgl\version_6.1.2\lvgl\src\lv_objx/lv_cont.h ****  * Create a container objects
  86:..\..\..\lvgl\version_6.1.2\lvgl\src\lv_objx/lv_cont.h ****  * @param par pointer to an object, it will be the parent of the new container
  87:..\..\..\lvgl\version_6.1.2\lvgl\src\lv_objx/lv_cont.h ****  * @param copy pointer to a container object, if not NULL then the new object will be copied from i
  88:..\..\..\lvgl\version_6.1.2\lvgl\src\lv_objx/lv_cont.h ****  * @return pointer to the created container
  89:..\..\..\lvgl\version_6.1.2\lvgl\src\lv_objx/lv_cont.h ****  */
  90:..\..\..\lvgl\version_6.1.2\lvgl\src\lv_objx/lv_cont.h **** lv_obj_t * lv_cont_create(lv_obj_t * par, const lv_obj_t * copy);
  91:..\..\..\lvgl\version_6.1.2\lvgl\src\lv_objx/lv_cont.h **** 
  92:..\..\..\lvgl\version_6.1.2\lvgl\src\lv_objx/lv_cont.h **** /*=====================
  93:..\..\..\lvgl\version_6.1.2\lvgl\src\lv_objx/lv_cont.h ****  * Setter functions
  94:..\..\..\lvgl\version_6.1.2\lvgl\src\lv_objx/lv_cont.h ****  *====================*/
  95:..\..\..\lvgl\version_6.1.2\lvgl\src\lv_objx/lv_cont.h **** 
  96:..\..\..\lvgl\version_6.1.2\lvgl\src\lv_objx/lv_cont.h **** /**
  97:..\..\..\lvgl\version_6.1.2\lvgl\src\lv_objx/lv_cont.h ****  * Set a layout on a container
  98:..\..\..\lvgl\version_6.1.2\lvgl\src\lv_objx/lv_cont.h ****  * @param cont pointer to a container object
  99:..\..\..\lvgl\version_6.1.2\lvgl\src\lv_objx/lv_cont.h ****  * @param layout a layout from 'lv_cont_layout_t'
 100:..\..\..\lvgl\version_6.1.2\lvgl\src\lv_objx/lv_cont.h ****  */
 101:..\..\..\lvgl\version_6.1.2\lvgl\src\lv_objx/lv_cont.h **** void lv_cont_set_layout(lv_obj_t * cont, lv_layout_t layout);
 102:..\..\..\lvgl\version_6.1.2\lvgl\src\lv_objx/lv_cont.h **** 
 103:..\..\..\lvgl\version_6.1.2\lvgl\src\lv_objx/lv_cont.h **** /**
 104:..\..\..\lvgl\version_6.1.2\lvgl\src\lv_objx/lv_cont.h ****  * Set the fit policy in all 4 directions separately.
 105:..\..\..\lvgl\version_6.1.2\lvgl\src\lv_objx/lv_cont.h ****  * It tell how to change the container's size automatically.
 106:..\..\..\lvgl\version_6.1.2\lvgl\src\lv_objx/lv_cont.h ****  * @param cont pointer to a container object
 107:..\..\..\lvgl\version_6.1.2\lvgl\src\lv_objx/lv_cont.h ****  * @param left left fit policy from `lv_fit_t`
 108:..\..\..\lvgl\version_6.1.2\lvgl\src\lv_objx/lv_cont.h ****  * @param right right fit policy from `lv_fit_t`
 109:..\..\..\lvgl\version_6.1.2\lvgl\src\lv_objx/lv_cont.h ****  * @param top top fit policy from `lv_fit_t`
 110:..\..\..\lvgl\version_6.1.2\lvgl\src\lv_objx/lv_cont.h ****  * @param bottom bottom fit policy from `lv_fit_t`
 111:..\..\..\lvgl\version_6.1.2\lvgl\src\lv_objx/lv_cont.h ****  */
 112:..\..\..\lvgl\version_6.1.2\lvgl\src\lv_objx/lv_cont.h **** void lv_cont_set_fit4(lv_obj_t * cont, lv_fit_t left, lv_fit_t right, lv_fit_t top, lv_fit_t bottom
 113:..\..\..\lvgl\version_6.1.2\lvgl\src\lv_objx/lv_cont.h **** 
 114:..\..\..\lvgl\version_6.1.2\lvgl\src\lv_objx/lv_cont.h **** /**
 115:..\..\..\lvgl\version_6.1.2\lvgl\src\lv_objx/lv_cont.h ****  * Set the fit policy horizontally and vertically separately.
 116:..\..\..\lvgl\version_6.1.2\lvgl\src\lv_objx/lv_cont.h ****  * It tells how to change the container's size automatically.
 117:..\..\..\lvgl\version_6.1.2\lvgl\src\lv_objx/lv_cont.h ****  * @param cont pointer to a container object
 118:..\..\..\lvgl\version_6.1.2\lvgl\src\lv_objx/lv_cont.h ****  * @param hor horizontal fit policy from `lv_fit_t`
 119:..\..\..\lvgl\version_6.1.2\lvgl\src\lv_objx/lv_cont.h ****  * @param ver vertical fit policy from `lv_fit_t`
 120:..\..\..\lvgl\version_6.1.2\lvgl\src\lv_objx/lv_cont.h ****  */
 121:..\..\..\lvgl\version_6.1.2\lvgl\src\lv_objx/lv_cont.h **** static inline void lv_cont_set_fit2(lv_obj_t * cont, lv_fit_t hor, lv_fit_t ver)
ARM GAS  C:\Users\pearlstl\AppData\Local\Temp\cciL9yyu.s 			page 62


 122:..\..\..\lvgl\version_6.1.2\lvgl\src\lv_objx/lv_cont.h **** {
 123:..\..\..\lvgl\version_6.1.2\lvgl\src\lv_objx/lv_cont.h ****     lv_cont_set_fit4(cont, hor, hor, ver, ver);
 124:..\..\..\lvgl\version_6.1.2\lvgl\src\lv_objx/lv_cont.h **** }
 125:..\..\..\lvgl\version_6.1.2\lvgl\src\lv_objx/lv_cont.h **** 
 126:..\..\..\lvgl\version_6.1.2\lvgl\src\lv_objx/lv_cont.h **** /**
 127:..\..\..\lvgl\version_6.1.2\lvgl\src\lv_objx/lv_cont.h ****  * Set the fit policy in all 4 direction at once.
 128:..\..\..\lvgl\version_6.1.2\lvgl\src\lv_objx/lv_cont.h ****  * It tells how to change the container's size automatically.
 129:..\..\..\lvgl\version_6.1.2\lvgl\src\lv_objx/lv_cont.h ****  * @param cont pointer to a container object
 130:..\..\..\lvgl\version_6.1.2\lvgl\src\lv_objx/lv_cont.h ****  * @param fit fit policy from `lv_fit_t`
 131:..\..\..\lvgl\version_6.1.2\lvgl\src\lv_objx/lv_cont.h ****  */
 132:..\..\..\lvgl\version_6.1.2\lvgl\src\lv_objx/lv_cont.h **** static inline void lv_cont_set_fit(lv_obj_t * cont, lv_fit_t fit)
 133:..\..\..\lvgl\version_6.1.2\lvgl\src\lv_objx/lv_cont.h **** {
 134:..\..\..\lvgl\version_6.1.2\lvgl\src\lv_objx/lv_cont.h ****     lv_cont_set_fit4(cont, fit, fit, fit, fit);
 135:..\..\..\lvgl\version_6.1.2\lvgl\src\lv_objx/lv_cont.h **** }
 136:..\..\..\lvgl\version_6.1.2\lvgl\src\lv_objx/lv_cont.h **** 
 137:..\..\..\lvgl\version_6.1.2\lvgl\src\lv_objx/lv_cont.h **** /**
 138:..\..\..\lvgl\version_6.1.2\lvgl\src\lv_objx/lv_cont.h ****  * Set the style of a container
 139:..\..\..\lvgl\version_6.1.2\lvgl\src\lv_objx/lv_cont.h ****  * @param cont pointer to a container object
 140:..\..\..\lvgl\version_6.1.2\lvgl\src\lv_objx/lv_cont.h ****  * @param type which style should be set (can be only `LV_CONT_STYLE_MAIN`)
 141:..\..\..\lvgl\version_6.1.2\lvgl\src\lv_objx/lv_cont.h ****  * @param style pointer to the new style
 142:..\..\..\lvgl\version_6.1.2\lvgl\src\lv_objx/lv_cont.h ****  */
 143:..\..\..\lvgl\version_6.1.2\lvgl\src\lv_objx/lv_cont.h **** static inline void lv_cont_set_style(lv_obj_t * cont, lv_cont_style_t type, const lv_style_t * styl
 144:..\..\..\lvgl\version_6.1.2\lvgl\src\lv_objx/lv_cont.h **** {
 145:..\..\..\lvgl\version_6.1.2\lvgl\src\lv_objx/lv_cont.h ****     (void)type; /*Unused*/
 146:..\..\..\lvgl\version_6.1.2\lvgl\src\lv_objx/lv_cont.h ****     lv_obj_set_style(cont, style);
 2204              		.loc 3 146 0
 2205 00a2 C168     		ldr	r1, [r0, #12]
 2206 00a4 2846     		mov	r0, r5
 2207              	.LVL305:
 2208 00a6 FFF7FEFF 		bl	lv_obj_set_style
 2209              	.LVL306:
 2210 00aa 2846     		mov	r0, r5
 2211 00ac F8BD     		pop	{r3, r4, r5, r6, r7, pc}
 2212              	.LVL307:
 2213              	.L279:
 2214              	.LBE116:
 2215              	.LBE115:
 2216              	.LBE114:
  76:..\..\..\lvgl\version_6.1.2\lvgl\src\lv_objx/lv_cont.c **** 
 2217              		.loc 1 76 0 discriminator 1
 2218 00ae FFF7FEFF 		bl	lv_obj_get_signal_cb
 2219              	.LVL308:
 2220 00b2 2060     		str	r0, [r4]
 2221 00b4 B0E7     		b	.L270
 2222              	.LVL309:
 2223              	.L271:
  74:..\..\..\lvgl\version_6.1.2\lvgl\src\lv_objx/lv_cont.c **** 
 2224              		.loc 1 74 0
 2225 00b6 0020     		movs	r0, #0
 2226 00b8 F8BD     		pop	{r3, r4, r5, r6, r7, pc}
 2227              	.LVL310:
 2228              	.L274:
 2229              	.LBB119:
 2230 00ba 2846     		mov	r0, r5
 2231              	.LBE119:
 119:..\..\..\lvgl\version_6.1.2\lvgl\src\lv_objx/lv_cont.c **** 
 2232              		.loc 1 119 0
ARM GAS  C:\Users\pearlstl\AppData\Local\Temp\cciL9yyu.s 			page 63


 2233 00bc F8BD     		pop	{r3, r4, r5, r6, r7, pc}
 2234              	.LVL311:
 2235              	.L273:
 2236              	.LBB120:
 2237              	.LBB117:
 2238              	.LBB118:
 2239              		.loc 3 146 0
 2240 00be 2846     		mov	r0, r5
 2241              	.LVL312:
 2242 00c0 0449     		ldr	r1, .L281+8
 2243 00c2 FFF7FEFF 		bl	lv_obj_set_style
 2244              	.LVL313:
 2245 00c6 2846     		mov	r0, r5
 2246 00c8 F8BD     		pop	{r3, r4, r5, r6, r7, pc}
 2247              	.LVL314:
 2248              	.L282:
 2249 00ca 00BF     		.align	2
 2250              	.L281:
 2251 00cc 00000000 		.word	.LANCHOR0
 2252 00d0 00000000 		.word	lv_cont_signal
 2253 00d4 00000000 		.word	lv_style_pretty
 2254              	.LBE118:
 2255              	.LBE117:
 2256              	.LBE120:
 2257              		.cfi_endproc
 2258              	.LFE35:
 2259              		.size	lv_cont_create, .-lv_cont_create
 2260              		.section	.text.lv_cont_set_layout,"ax",%progbits
 2261              		.align	2
 2262              		.global	lv_cont_set_layout
 2263              		.thumb
 2264              		.thumb_func
 2265              		.type	lv_cont_set_layout, %function
 2266              	lv_cont_set_layout:
 2267              	.LFB36:
 131:..\..\..\lvgl\version_6.1.2\lvgl\src\lv_objx/lv_cont.c ****     LV_ASSERT_OBJ(cont, LV_OBJX_NAME);
 2268              		.loc 1 131 0
 2269              		.cfi_startproc
 2270              		@ args = 0, pretend = 0, frame = 0
 2271              		@ frame_needed = 0, uses_anonymous_args = 0
 2272              	.LVL315:
 2273 0000 70B5     		push	{r4, r5, r6, lr}
 2274              		.cfi_def_cfa_offset 16
 2275              		.cfi_offset 4, -16
 2276              		.cfi_offset 5, -12
 2277              		.cfi_offset 6, -8
 2278              		.cfi_offset 14, -4
 131:..\..\..\lvgl\version_6.1.2\lvgl\src\lv_objx/lv_cont.c ****     LV_ASSERT_OBJ(cont, LV_OBJX_NAME);
 2279              		.loc 1 131 0
 2280 0002 0C46     		mov	r4, r1
 2281 0004 0546     		mov	r5, r0
 134:..\..\..\lvgl\version_6.1.2\lvgl\src\lv_objx/lv_cont.c ****     if(ext->layout == layout) return;
 2282              		.loc 1 134 0
 2283 0006 FFF7FEFF 		bl	lv_obj_get_ext_attr
 2284              	.LVL316:
 135:..\..\..\lvgl\version_6.1.2\lvgl\src\lv_objx/lv_cont.c **** 
 2285              		.loc 1 135 0
ARM GAS  C:\Users\pearlstl\AppData\Local\Temp\cciL9yyu.s 			page 64


 2286 000a 0378     		ldrb	r3, [r0]	@ zero_extendqisi2
 2287 000c 03F00F02 		and	r2, r3, #15
 2288 0010 A242     		cmp	r2, r4
 2289 0012 09D0     		beq	.L283
 137:..\..\..\lvgl\version_6.1.2\lvgl\src\lv_objx/lv_cont.c **** 
 2290              		.loc 1 137 0
 2291 0014 64F30303 		bfi	r3, r4, #0, #4
 2292 0018 0370     		strb	r3, [r0]
 140:..\..\..\lvgl\version_6.1.2\lvgl\src\lv_objx/lv_cont.c **** }
 2293              		.loc 1 140 0
 2294 001a 0022     		movs	r2, #0
 2295 001c EB69     		ldr	r3, [r5, #28]
 2296 001e 2846     		mov	r0, r5
 2297              	.LVL317:
 2298 0020 0121     		movs	r1, #1
 141:..\..\..\lvgl\version_6.1.2\lvgl\src\lv_objx/lv_cont.c **** 
 2299              		.loc 1 141 0
 2300 0022 BDE87040 		pop	{r4, r5, r6, lr}
 2301              		.cfi_remember_state
 2302              		.cfi_restore 14
 2303              		.cfi_restore 6
 2304              		.cfi_restore 5
 2305              		.cfi_restore 4
 2306              		.cfi_def_cfa_offset 0
 2307              	.LVL318:
 140:..\..\..\lvgl\version_6.1.2\lvgl\src\lv_objx/lv_cont.c **** }
 2308              		.loc 1 140 0
 2309 0026 1847     		bx	r3
 2310              	.LVL319:
 2311              	.L283:
 2312              		.cfi_restore_state
 2313 0028 70BD     		pop	{r4, r5, r6, pc}
 2314              		.cfi_endproc
 2315              	.LFE36:
 2316              		.size	lv_cont_set_layout, .-lv_cont_set_layout
 2317 002a 00BF     		.section	.text.lv_cont_set_fit4,"ax",%progbits
 2318              		.align	2
 2319              		.global	lv_cont_set_fit4
 2320              		.thumb
 2321              		.thumb_func
 2322              		.type	lv_cont_set_fit4, %function
 2323              	lv_cont_set_fit4:
 2324              	.LFB37:
 153:..\..\..\lvgl\version_6.1.2\lvgl\src\lv_objx/lv_cont.c ****     LV_ASSERT_OBJ(cont, LV_OBJX_NAME);
 2325              		.loc 1 153 0
 2326              		.cfi_startproc
 2327              		@ args = 4, pretend = 0, frame = 0
 2328              		@ frame_needed = 0, uses_anonymous_args = 0
 2329              	.LVL320:
 2330 0000 2DE9F047 		push	{r4, r5, r6, r7, r8, r9, r10, lr}
 2331              		.cfi_def_cfa_offset 32
 2332              		.cfi_offset 4, -32
 2333              		.cfi_offset 5, -28
 2334              		.cfi_offset 6, -24
 2335              		.cfi_offset 7, -20
 2336              		.cfi_offset 8, -16
 2337              		.cfi_offset 9, -12
ARM GAS  C:\Users\pearlstl\AppData\Local\Temp\cciL9yyu.s 			page 65


 2338              		.cfi_offset 10, -8
 2339              		.cfi_offset 14, -4
 153:..\..\..\lvgl\version_6.1.2\lvgl\src\lv_objx/lv_cont.c ****     LV_ASSERT_OBJ(cont, LV_OBJX_NAME);
 2340              		.loc 1 153 0
 2341 0004 0646     		mov	r6, r0
 2342 0006 0F46     		mov	r7, r1
 2343 0008 9946     		mov	r9, r3
 2344 000a 9046     		mov	r8, r2
 2345 000c 9DF820A0 		ldrb	r10, [sp, #32]	@ zero_extendqisi2
 156:..\..\..\lvgl\version_6.1.2\lvgl\src\lv_objx/lv_cont.c ****     lv_cont_ext_t * ext = lv_obj_get_ext_attr(cont);
 2346              		.loc 1 156 0
 2347 0010 FFF7FEFF 		bl	lv_obj_invalidate
 2348              	.LVL321:
 157:..\..\..\lvgl\version_6.1.2\lvgl\src\lv_objx/lv_cont.c ****     if(ext->fit_left == left && ext->fit_right == right && ext->fit_top == top && ext->fit_bottom =
 2349              		.loc 1 157 0
 2350 0014 3046     		mov	r0, r6
 2351 0016 FFF7FEFF 		bl	lv_obj_get_ext_attr
 2352              	.LVL322:
 158:..\..\..\lvgl\version_6.1.2\lvgl\src\lv_objx/lv_cont.c ****         return;
 2353              		.loc 1 158 0
 2354 001a 0178     		ldrb	r1, [r0]	@ zero_extendqisi2
 2355 001c C1F30113 		ubfx	r3, r1, #4, #2
 2356 0020 BB42     		cmp	r3, r7
 2357 0022 14D0     		beq	.L290
 2358              	.L287:
 162:..\..\..\lvgl\version_6.1.2\lvgl\src\lv_objx/lv_cont.c ****     ext->fit_right  = right;
 2359              		.loc 1 162 0
 2360 0024 0578     		ldrb	r5, [r0]	@ zero_extendqisi2
 164:..\..\..\lvgl\version_6.1.2\lvgl\src\lv_objx/lv_cont.c ****     ext->fit_bottom = bottom;
 2361              		.loc 1 164 0
 2362 0026 4478     		ldrb	r4, [r0, #1]	@ zero_extendqisi2
 162:..\..\..\lvgl\version_6.1.2\lvgl\src\lv_objx/lv_cont.c ****     ext->fit_right  = right;
 2363              		.loc 1 162 0
 2364 0028 67F30515 		bfi	r5, r7, #4, #2
 164:..\..\..\lvgl\version_6.1.2\lvgl\src\lv_objx/lv_cont.c ****     ext->fit_bottom = bottom;
 2365              		.loc 1 164 0
 2366 002c 69F30104 		bfi	r4, r9, #0, #2
 163:..\..\..\lvgl\version_6.1.2\lvgl\src\lv_objx/lv_cont.c ****     ext->fit_top    = top;
 2367              		.loc 1 163 0
 2368 0030 2946     		mov	r1, r5
 165:..\..\..\lvgl\version_6.1.2\lvgl\src\lv_objx/lv_cont.c **** 
 2369              		.loc 1 165 0
 2370 0032 2346     		mov	r3, r4
 163:..\..\..\lvgl\version_6.1.2\lvgl\src\lv_objx/lv_cont.c ****     ext->fit_top    = top;
 2371              		.loc 1 163 0
 2372 0034 68F38711 		bfi	r1, r8, #6, #2
 165:..\..\..\lvgl\version_6.1.2\lvgl\src\lv_objx/lv_cont.c **** 
 2373              		.loc 1 165 0
 2374 0038 6AF38303 		bfi	r3, r10, #2, #2
 163:..\..\..\lvgl\version_6.1.2\lvgl\src\lv_objx/lv_cont.c ****     ext->fit_top    = top;
 2375              		.loc 1 163 0
 2376 003c 0170     		strb	r1, [r0]
 165:..\..\..\lvgl\version_6.1.2\lvgl\src\lv_objx/lv_cont.c **** 
 2377              		.loc 1 165 0
 2378 003e 4370     		strb	r3, [r0, #1]
 168:..\..\..\lvgl\version_6.1.2\lvgl\src\lv_objx/lv_cont.c **** }
 2379              		.loc 1 168 0
ARM GAS  C:\Users\pearlstl\AppData\Local\Temp\cciL9yyu.s 			page 66


 2380 0040 0022     		movs	r2, #0
 2381 0042 F369     		ldr	r3, [r6, #28]
 2382 0044 3046     		mov	r0, r6
 2383              	.LVL323:
 2384 0046 0121     		movs	r1, #1
 169:..\..\..\lvgl\version_6.1.2\lvgl\src\lv_objx/lv_cont.c **** 
 2385              		.loc 1 169 0
 2386 0048 BDE8F047 		pop	{r4, r5, r6, r7, r8, r9, r10, lr}
 2387              		.cfi_remember_state
 2388              		.cfi_restore 14
 2389              		.cfi_restore 10
 2390              		.cfi_restore 9
 2391              		.cfi_restore 8
 2392              		.cfi_restore 7
 2393              		.cfi_restore 6
 2394              		.cfi_restore 5
 2395              		.cfi_restore 4
 2396              		.cfi_def_cfa_offset 0
 2397              	.LVL324:
 168:..\..\..\lvgl\version_6.1.2\lvgl\src\lv_objx/lv_cont.c **** }
 2398              		.loc 1 168 0
 2399 004c 1847     		bx	r3
 2400              	.LVL325:
 2401              	.L290:
 2402              		.cfi_restore_state
 158:..\..\..\lvgl\version_6.1.2\lvgl\src\lv_objx/lv_cont.c ****         return;
 2403              		.loc 1 158 0 discriminator 1
 2404 004e B8EB911F 		cmp	r8, r1, lsr #6
 2405 0052 E7D1     		bne	.L287
 158:..\..\..\lvgl\version_6.1.2\lvgl\src\lv_objx/lv_cont.c ****         return;
 2406              		.loc 1 158 0 is_stmt 0 discriminator 2
 2407 0054 4378     		ldrb	r3, [r0, #1]	@ zero_extendqisi2
 2408 0056 03F00302 		and	r2, r3, #3
 2409 005a 4A45     		cmp	r2, r9
 2410 005c E2D1     		bne	.L287
 158:..\..\..\lvgl\version_6.1.2\lvgl\src\lv_objx/lv_cont.c ****         return;
 2411              		.loc 1 158 0 discriminator 3
 2412 005e C3F38103 		ubfx	r3, r3, #2, #2
 2413 0062 5345     		cmp	r3, r10
 2414 0064 DED1     		bne	.L287
 2415 0066 BDE8F087 		pop	{r4, r5, r6, r7, r8, r9, r10, pc}
 2416              		.cfi_endproc
 2417              	.LFE37:
 2418              		.size	lv_cont_set_fit4, .-lv_cont_set_fit4
 2419 006a 00BF     		.section	.text.lv_cont_get_layout,"ax",%progbits
 2420              		.align	2
 2421              		.global	lv_cont_get_layout
 2422              		.thumb
 2423              		.thumb_func
 2424              		.type	lv_cont_get_layout, %function
 2425              	lv_cont_get_layout:
 2426              	.LFB38:
 181:..\..\..\lvgl\version_6.1.2\lvgl\src\lv_objx/lv_cont.c ****     LV_ASSERT_OBJ(cont, LV_OBJX_NAME);
 2427              		.loc 1 181 0 is_stmt 1
 2428              		.cfi_startproc
 2429              		@ args = 0, pretend = 0, frame = 0
 2430              		@ frame_needed = 0, uses_anonymous_args = 0
ARM GAS  C:\Users\pearlstl\AppData\Local\Temp\cciL9yyu.s 			page 67


 2431              	.LVL326:
 2432 0000 08B5     		push	{r3, lr}
 2433              		.cfi_def_cfa_offset 8
 2434              		.cfi_offset 3, -8
 2435              		.cfi_offset 14, -4
 184:..\..\..\lvgl\version_6.1.2\lvgl\src\lv_objx/lv_cont.c ****     return ext->layout;
 2436              		.loc 1 184 0
 2437 0002 FFF7FEFF 		bl	lv_obj_get_ext_attr
 2438              	.LVL327:
 185:..\..\..\lvgl\version_6.1.2\lvgl\src\lv_objx/lv_cont.c **** }
 2439              		.loc 1 185 0
 2440 0006 0078     		ldrb	r0, [r0]	@ zero_extendqisi2
 2441              	.LVL328:
 186:..\..\..\lvgl\version_6.1.2\lvgl\src\lv_objx/lv_cont.c **** 
 2442              		.loc 1 186 0
 2443 0008 00F00F00 		and	r0, r0, #15
 2444 000c 08BD     		pop	{r3, pc}
 2445              		.cfi_endproc
 2446              	.LFE38:
 2447              		.size	lv_cont_get_layout, .-lv_cont_get_layout
 2448 000e 00BF     		.section	.text.lv_cont_get_fit_left,"ax",%progbits
 2449              		.align	2
 2450              		.global	lv_cont_get_fit_left
 2451              		.thumb
 2452              		.thumb_func
 2453              		.type	lv_cont_get_fit_left, %function
 2454              	lv_cont_get_fit_left:
 2455              	.LFB39:
 194:..\..\..\lvgl\version_6.1.2\lvgl\src\lv_objx/lv_cont.c ****     LV_ASSERT_OBJ(cont, LV_OBJX_NAME);
 2456              		.loc 1 194 0
 2457              		.cfi_startproc
 2458              		@ args = 0, pretend = 0, frame = 0
 2459              		@ frame_needed = 0, uses_anonymous_args = 0
 2460              	.LVL329:
 2461 0000 08B5     		push	{r3, lr}
 2462              		.cfi_def_cfa_offset 8
 2463              		.cfi_offset 3, -8
 2464              		.cfi_offset 14, -4
 197:..\..\..\lvgl\version_6.1.2\lvgl\src\lv_objx/lv_cont.c ****     return ext->fit_left;
 2465              		.loc 1 197 0
 2466 0002 FFF7FEFF 		bl	lv_obj_get_ext_attr
 2467              	.LVL330:
 198:..\..\..\lvgl\version_6.1.2\lvgl\src\lv_objx/lv_cont.c **** }
 2468              		.loc 1 198 0
 2469 0006 0078     		ldrb	r0, [r0]	@ zero_extendqisi2
 2470              	.LVL331:
 199:..\..\..\lvgl\version_6.1.2\lvgl\src\lv_objx/lv_cont.c **** 
 2471              		.loc 1 199 0
 2472 0008 C0F30110 		ubfx	r0, r0, #4, #2
 2473 000c 08BD     		pop	{r3, pc}
 2474              		.cfi_endproc
 2475              	.LFE39:
 2476              		.size	lv_cont_get_fit_left, .-lv_cont_get_fit_left
 2477 000e 00BF     		.section	.text.lv_cont_get_fit_right,"ax",%progbits
 2478              		.align	2
 2479              		.global	lv_cont_get_fit_right
 2480              		.thumb
ARM GAS  C:\Users\pearlstl\AppData\Local\Temp\cciL9yyu.s 			page 68


 2481              		.thumb_func
 2482              		.type	lv_cont_get_fit_right, %function
 2483              	lv_cont_get_fit_right:
 2484              	.LFB40:
 207:..\..\..\lvgl\version_6.1.2\lvgl\src\lv_objx/lv_cont.c ****     LV_ASSERT_OBJ(cont, LV_OBJX_NAME);
 2485              		.loc 1 207 0
 2486              		.cfi_startproc
 2487              		@ args = 0, pretend = 0, frame = 0
 2488              		@ frame_needed = 0, uses_anonymous_args = 0
 2489              	.LVL332:
 2490 0000 08B5     		push	{r3, lr}
 2491              		.cfi_def_cfa_offset 8
 2492              		.cfi_offset 3, -8
 2493              		.cfi_offset 14, -4
 210:..\..\..\lvgl\version_6.1.2\lvgl\src\lv_objx/lv_cont.c ****     return ext->fit_right;
 2494              		.loc 1 210 0
 2495 0002 FFF7FEFF 		bl	lv_obj_get_ext_attr
 2496              	.LVL333:
 211:..\..\..\lvgl\version_6.1.2\lvgl\src\lv_objx/lv_cont.c **** }
 2497              		.loc 1 211 0
 2498 0006 0078     		ldrb	r0, [r0]	@ zero_extendqisi2
 2499              	.LVL334:
 212:..\..\..\lvgl\version_6.1.2\lvgl\src\lv_objx/lv_cont.c **** 
 2500              		.loc 1 212 0
 2501 0008 8009     		lsrs	r0, r0, #6
 2502 000a 08BD     		pop	{r3, pc}
 2503              		.cfi_endproc
 2504              	.LFE40:
 2505              		.size	lv_cont_get_fit_right, .-lv_cont_get_fit_right
 2506              		.section	.text.lv_cont_get_fit_top,"ax",%progbits
 2507              		.align	2
 2508              		.global	lv_cont_get_fit_top
 2509              		.thumb
 2510              		.thumb_func
 2511              		.type	lv_cont_get_fit_top, %function
 2512              	lv_cont_get_fit_top:
 2513              	.LFB41:
 220:..\..\..\lvgl\version_6.1.2\lvgl\src\lv_objx/lv_cont.c ****     LV_ASSERT_OBJ(cont, LV_OBJX_NAME);
 2514              		.loc 1 220 0
 2515              		.cfi_startproc
 2516              		@ args = 0, pretend = 0, frame = 0
 2517              		@ frame_needed = 0, uses_anonymous_args = 0
 2518              	.LVL335:
 2519 0000 08B5     		push	{r3, lr}
 2520              		.cfi_def_cfa_offset 8
 2521              		.cfi_offset 3, -8
 2522              		.cfi_offset 14, -4
 223:..\..\..\lvgl\version_6.1.2\lvgl\src\lv_objx/lv_cont.c ****     return ext->fit_top;
 2523              		.loc 1 223 0
 2524 0002 FFF7FEFF 		bl	lv_obj_get_ext_attr
 2525              	.LVL336:
 224:..\..\..\lvgl\version_6.1.2\lvgl\src\lv_objx/lv_cont.c **** }
 2526              		.loc 1 224 0
 2527 0006 4078     		ldrb	r0, [r0, #1]	@ zero_extendqisi2
 2528              	.LVL337:
 225:..\..\..\lvgl\version_6.1.2\lvgl\src\lv_objx/lv_cont.c **** 
 2529              		.loc 1 225 0
ARM GAS  C:\Users\pearlstl\AppData\Local\Temp\cciL9yyu.s 			page 69


 2530 0008 00F00300 		and	r0, r0, #3
 2531 000c 08BD     		pop	{r3, pc}
 2532              		.cfi_endproc
 2533              	.LFE41:
 2534              		.size	lv_cont_get_fit_top, .-lv_cont_get_fit_top
 2535 000e 00BF     		.section	.text.lv_cont_get_fit_bottom,"ax",%progbits
 2536              		.align	2
 2537              		.global	lv_cont_get_fit_bottom
 2538              		.thumb
 2539              		.thumb_func
 2540              		.type	lv_cont_get_fit_bottom, %function
 2541              	lv_cont_get_fit_bottom:
 2542              	.LFB42:
 233:..\..\..\lvgl\version_6.1.2\lvgl\src\lv_objx/lv_cont.c ****     LV_ASSERT_OBJ(cont, LV_OBJX_NAME);
 2543              		.loc 1 233 0
 2544              		.cfi_startproc
 2545              		@ args = 0, pretend = 0, frame = 0
 2546              		@ frame_needed = 0, uses_anonymous_args = 0
 2547              	.LVL338:
 2548 0000 08B5     		push	{r3, lr}
 2549              		.cfi_def_cfa_offset 8
 2550              		.cfi_offset 3, -8
 2551              		.cfi_offset 14, -4
 236:..\..\..\lvgl\version_6.1.2\lvgl\src\lv_objx/lv_cont.c ****     return ext->fit_bottom;
 2552              		.loc 1 236 0
 2553 0002 FFF7FEFF 		bl	lv_obj_get_ext_attr
 2554              	.LVL339:
 237:..\..\..\lvgl\version_6.1.2\lvgl\src\lv_objx/lv_cont.c **** }
 2555              		.loc 1 237 0
 2556 0006 4078     		ldrb	r0, [r0, #1]	@ zero_extendqisi2
 2557              	.LVL340:
 238:..\..\..\lvgl\version_6.1.2\lvgl\src\lv_objx/lv_cont.c **** 
 2558              		.loc 1 238 0
 2559 0008 C0F38100 		ubfx	r0, r0, #2, #2
 2560 000c 08BD     		pop	{r3, pc}
 2561              		.cfi_endproc
 2562              	.LFE42:
 2563              		.size	lv_cont_get_fit_bottom, .-lv_cont_get_fit_bottom
 2564 000e 00BF     		.section	.rodata.str1.4,"aMS",%progbits,1
 2565              		.align	2
 2566              	.LC0:
 2567 0000 6C765F63 		.ascii	"lv_cont\000"
 2567      6F6E7400 
 2568              		.bss
 2569              		.align	2
 2570              		.set	.LANCHOR0,. + 0
 2571              		.type	ancestor_signal, %object
 2572              		.size	ancestor_signal, 4
 2573              	ancestor_signal:
 2574 0000 00000000 		.space	4
 2575              		.text
 2576              	.Letext0:
 2577              		.file 4 "c:\\program files (x86)\\cypress\\psoc creator\\4.2\\psoc creator\\import\\gnu\\arm\\5.4.
 2578              		.file 5 "c:\\program files (x86)\\cypress\\psoc creator\\4.2\\psoc creator\\import\\gnu\\arm\\5.4.
 2579              		.file 6 "..\\..\\..\\lvgl\\version_6.1.2\\lvgl\\src\\lv_objx\\../../../lv_conf.h"
 2580              		.file 7 "..\\..\\..\\lvgl\\version_6.1.2\\lvgl\\src\\lv_objx\\../lv_core/../lv_font/lv_font.h"
 2581              		.file 8 "..\\..\\..\\lvgl\\version_6.1.2\\lvgl\\src\\lv_objx\\../lv_core/../lv_misc/lv_color.h"
ARM GAS  C:\Users\pearlstl\AppData\Local\Temp\cciL9yyu.s 			page 70


 2582              		.file 9 "..\\..\\..\\lvgl\\version_6.1.2\\lvgl\\src\\lv_objx\\../lv_core/lv_style.h"
 2583              		.file 10 "..\\..\\..\\lvgl\\version_6.1.2\\lvgl\\src\\lv_objx\\../lv_core/../lv_misc/lv_types.h"
 2584              		.file 11 "..\\..\\..\\lvgl\\version_6.1.2\\lvgl\\src\\lv_objx\\../lv_core/../lv_misc/lv_ll.h"
 2585              		.file 12 "..\\..\\..\\lvgl\\version_6.1.2\\lvgl\\src\\lv_objx\\../lv_core/../lv_misc/lv_bidi.h"
 2586              		.file 13 "..\\..\\..\\lvgl\\version_6.1.2\\lvgl\\src\\lv_objx\\../lv_core/lv_obj.h"
 2587              		.file 14 "..\\..\\..\\lvgl\\version_6.1.2\\lvgl\\src\\lv_objx\\../lv_themes/lv_theme.h"
 2588              		.section	.debug_info,"",%progbits
 2589              	.Ldebug_info0:
 2590 0000 662A0000 		.4byte	0x2a66
 2591 0004 0400     		.2byte	0x4
 2592 0006 00000000 		.4byte	.Ldebug_abbrev0
 2593 000a 04       		.byte	0x4
 2594 000b 01       		.uleb128 0x1
 2595 000c 06020000 		.4byte	.LASF333
 2596 0010 0C       		.byte	0xc
 2597 0011 10050000 		.4byte	.LASF334
 2598 0015 6C0E0000 		.4byte	.LASF335
 2599 0019 A0010000 		.4byte	.Ldebug_ranges0+0x1a0
 2600 001d 00000000 		.4byte	0
 2601 0021 00000000 		.4byte	.Ldebug_line0
 2602 0025 02       		.uleb128 0x2
 2603 0026 9E0B0000 		.4byte	.LASF0
 2604 002a 04       		.byte	0x4
 2605 002b 1B       		.byte	0x1b
 2606 002c 30000000 		.4byte	0x30
 2607 0030 03       		.uleb128 0x3
 2608 0031 01       		.byte	0x1
 2609 0032 06       		.byte	0x6
 2610 0033 D8030000 		.4byte	.LASF2
 2611 0037 02       		.uleb128 0x2
 2612 0038 EC020000 		.4byte	.LASF1
 2613 003c 04       		.byte	0x4
 2614 003d 1D       		.byte	0x1d
 2615 003e 42000000 		.4byte	0x42
 2616 0042 03       		.uleb128 0x3
 2617 0043 01       		.byte	0x1
 2618 0044 08       		.byte	0x8
 2619 0045 39040000 		.4byte	.LASF3
 2620 0049 02       		.uleb128 0x2
 2621 004a B60C0000 		.4byte	.LASF4
 2622 004e 04       		.byte	0x4
 2623 004f 29       		.byte	0x29
 2624 0050 54000000 		.4byte	0x54
 2625 0054 03       		.uleb128 0x3
 2626 0055 02       		.byte	0x2
 2627 0056 05       		.byte	0x5
 2628 0057 310E0000 		.4byte	.LASF5
 2629 005b 02       		.uleb128 0x2
 2630 005c 5E050000 		.4byte	.LASF6
 2631 0060 04       		.byte	0x4
 2632 0061 2B       		.byte	0x2b
 2633 0062 66000000 		.4byte	0x66
 2634 0066 03       		.uleb128 0x3
 2635 0067 02       		.byte	0x2
 2636 0068 07       		.byte	0x7
 2637 0069 B4100000 		.4byte	.LASF7
 2638 006d 03       		.uleb128 0x3
ARM GAS  C:\Users\pearlstl\AppData\Local\Temp\cciL9yyu.s 			page 71


 2639 006e 04       		.byte	0x4
 2640 006f 05       		.byte	0x5
 2641 0070 03030000 		.4byte	.LASF8
 2642 0074 02       		.uleb128 0x2
 2643 0075 46080000 		.4byte	.LASF9
 2644 0079 04       		.byte	0x4
 2645 007a 41       		.byte	0x41
 2646 007b 7F000000 		.4byte	0x7f
 2647 007f 03       		.uleb128 0x3
 2648 0080 04       		.byte	0x4
 2649 0081 07       		.byte	0x7
 2650 0082 76070000 		.4byte	.LASF10
 2651 0086 03       		.uleb128 0x3
 2652 0087 08       		.byte	0x8
 2653 0088 05       		.byte	0x5
 2654 0089 68080000 		.4byte	.LASF11
 2655 008d 03       		.uleb128 0x3
 2656 008e 08       		.byte	0x8
 2657 008f 07       		.byte	0x7
 2658 0090 B30B0000 		.4byte	.LASF12
 2659 0094 04       		.uleb128 0x4
 2660 0095 04       		.byte	0x4
 2661 0096 05       		.byte	0x5
 2662 0097 696E7400 		.ascii	"int\000"
 2663 009b 03       		.uleb128 0x3
 2664 009c 04       		.byte	0x4
 2665 009d 07       		.byte	0x7
 2666 009e 5C090000 		.4byte	.LASF13
 2667 00a2 02       		.uleb128 0x2
 2668 00a3 0F000000 		.4byte	.LASF14
 2669 00a7 05       		.byte	0x5
 2670 00a8 14       		.byte	0x14
 2671 00a9 25000000 		.4byte	0x25
 2672 00ad 02       		.uleb128 0x2
 2673 00ae E4030000 		.4byte	.LASF15
 2674 00b2 05       		.byte	0x5
 2675 00b3 18       		.byte	0x18
 2676 00b4 37000000 		.4byte	0x37
 2677 00b8 02       		.uleb128 0x2
 2678 00b9 640E0000 		.4byte	.LASF16
 2679 00bd 05       		.byte	0x5
 2680 00be 20       		.byte	0x20
 2681 00bf 49000000 		.4byte	0x49
 2682 00c3 02       		.uleb128 0x2
 2683 00c4 010C0000 		.4byte	.LASF17
 2684 00c8 05       		.byte	0x5
 2685 00c9 24       		.byte	0x24
 2686 00ca 5B000000 		.4byte	0x5b
 2687 00ce 02       		.uleb128 0x2
 2688 00cf 2B100000 		.4byte	.LASF18
 2689 00d3 05       		.byte	0x5
 2690 00d4 30       		.byte	0x30
 2691 00d5 74000000 		.4byte	0x74
 2692 00d9 02       		.uleb128 0x2
 2693 00da C7100000 		.4byte	.LASF19
 2694 00de 06       		.byte	0x6
 2695 00df 3A       		.byte	0x3a
ARM GAS  C:\Users\pearlstl\AppData\Local\Temp\cciL9yyu.s 			page 72


 2696 00e0 B8000000 		.4byte	0xb8
 2697 00e4 05       		.uleb128 0x5
 2698 00e5 04       		.byte	0x4
 2699 00e6 03       		.uleb128 0x3
 2700 00e7 08       		.byte	0x8
 2701 00e8 04       		.byte	0x4
 2702 00e9 A40A0000 		.4byte	.LASF20
 2703 00ed 06       		.uleb128 0x6
 2704 00ee 08       		.byte	0x8
 2705 00ef 07       		.byte	0x7
 2706 00f0 2E       		.byte	0x2e
 2707 00f1 3E010000 		.4byte	0x13e
 2708 00f5 07       		.uleb128 0x7
 2709 00f6 23000000 		.4byte	.LASF21
 2710 00fa 07       		.byte	0x7
 2711 00fb 30       		.byte	0x30
 2712 00fc C3000000 		.4byte	0xc3
 2713 0100 00       		.byte	0
 2714 0101 07       		.uleb128 0x7
 2715 0102 2B0E0000 		.4byte	.LASF22
 2716 0106 07       		.byte	0x7
 2717 0107 31       		.byte	0x31
 2718 0108 AD000000 		.4byte	0xad
 2719 010c 02       		.byte	0x2
 2720 010d 07       		.uleb128 0x7
 2721 010e 0C0E0000 		.4byte	.LASF23
 2722 0112 07       		.byte	0x7
 2723 0113 32       		.byte	0x32
 2724 0114 AD000000 		.4byte	0xad
 2725 0118 03       		.byte	0x3
 2726 0119 07       		.uleb128 0x7
 2727 011a A0040000 		.4byte	.LASF24
 2728 011e 07       		.byte	0x7
 2729 011f 33       		.byte	0x33
 2730 0120 A2000000 		.4byte	0xa2
 2731 0124 04       		.byte	0x4
 2732 0125 07       		.uleb128 0x7
 2733 0126 A6040000 		.4byte	.LASF25
 2734 012a 07       		.byte	0x7
 2735 012b 34       		.byte	0x34
 2736 012c A2000000 		.4byte	0xa2
 2737 0130 05       		.byte	0x5
 2738 0131 08       		.uleb128 0x8
 2739 0132 62707000 		.ascii	"bpp\000"
 2740 0136 07       		.byte	0x7
 2741 0137 35       		.byte	0x35
 2742 0138 AD000000 		.4byte	0xad
 2743 013c 06       		.byte	0x6
 2744 013d 00       		.byte	0
 2745 013e 02       		.uleb128 0x2
 2746 013f D4090000 		.4byte	.LASF26
 2747 0143 07       		.byte	0x7
 2748 0144 36       		.byte	0x36
 2749 0145 ED000000 		.4byte	0xed
 2750 0149 09       		.uleb128 0x9
 2751 014a A0110000 		.4byte	.LASF87
 2752 014e 10       		.byte	0x10
ARM GAS  C:\Users\pearlstl\AppData\Local\Temp\cciL9yyu.s 			page 73


 2753 014f 07       		.byte	0x7
 2754 0150 44       		.byte	0x44
 2755 0151 A1010000 		.4byte	0x1a1
 2756 0155 07       		.uleb128 0x7
 2757 0156 12110000 		.4byte	.LASF27
 2758 015a 07       		.byte	0x7
 2759 015b 47       		.byte	0x47
 2760 015c D7010000 		.4byte	0x1d7
 2761 0160 00       		.byte	0
 2762 0161 07       		.uleb128 0x7
 2763 0162 05040000 		.4byte	.LASF28
 2764 0166 07       		.byte	0x7
 2765 0167 4A       		.byte	0x4a
 2766 0168 FC010000 		.4byte	0x1fc
 2767 016c 04       		.byte	0x4
 2768 016d 07       		.uleb128 0x7
 2769 016e C8000000 		.4byte	.LASF29
 2770 0172 07       		.byte	0x7
 2771 0173 4D       		.byte	0x4d
 2772 0174 AD000000 		.4byte	0xad
 2773 0178 08       		.byte	0x8
 2774 0179 07       		.uleb128 0x7
 2775 017a 3B0E0000 		.4byte	.LASF30
 2776 017e 07       		.byte	0x7
 2777 017f 4E       		.byte	0x4e
 2778 0180 A2000000 		.4byte	0xa2
 2779 0184 09       		.byte	0x9
 2780 0185 0A       		.uleb128 0xa
 2781 0186 040B0000 		.4byte	.LASF64
 2782 018a 07       		.byte	0x7
 2783 018b 4F       		.byte	0x4f
 2784 018c AD000000 		.4byte	0xad
 2785 0190 01       		.byte	0x1
 2786 0191 02       		.byte	0x2
 2787 0192 06       		.byte	0x6
 2788 0193 0A       		.byte	0xa
 2789 0194 08       		.uleb128 0x8
 2790 0195 64736300 		.ascii	"dsc\000"
 2791 0199 07       		.byte	0x7
 2792 019a 50       		.byte	0x50
 2793 019b E4000000 		.4byte	0xe4
 2794 019f 0C       		.byte	0xc
 2795 01a0 00       		.byte	0
 2796 01a1 0B       		.uleb128 0xb
 2797 01a2 BF010000 		.4byte	0x1bf
 2798 01a6 BF010000 		.4byte	0x1bf
 2799 01aa 0C       		.uleb128 0xc
 2800 01ab C6010000 		.4byte	0x1c6
 2801 01af 0C       		.uleb128 0xc
 2802 01b0 D1010000 		.4byte	0x1d1
 2803 01b4 0C       		.uleb128 0xc
 2804 01b5 CE000000 		.4byte	0xce
 2805 01b9 0C       		.uleb128 0xc
 2806 01ba CE000000 		.4byte	0xce
 2807 01be 00       		.byte	0
 2808 01bf 03       		.uleb128 0x3
 2809 01c0 01       		.byte	0x1
ARM GAS  C:\Users\pearlstl\AppData\Local\Temp\cciL9yyu.s 			page 74


 2810 01c1 02       		.byte	0x2
 2811 01c2 CC040000 		.4byte	.LASF31
 2812 01c6 0D       		.uleb128 0xd
 2813 01c7 04       		.byte	0x4
 2814 01c8 CC010000 		.4byte	0x1cc
 2815 01cc 0E       		.uleb128 0xe
 2816 01cd 49010000 		.4byte	0x149
 2817 01d1 0D       		.uleb128 0xd
 2818 01d2 04       		.byte	0x4
 2819 01d3 3E010000 		.4byte	0x13e
 2820 01d7 0D       		.uleb128 0xd
 2821 01d8 04       		.byte	0x4
 2822 01d9 A1010000 		.4byte	0x1a1
 2823 01dd 0B       		.uleb128 0xb
 2824 01de F1010000 		.4byte	0x1f1
 2825 01e2 F1010000 		.4byte	0x1f1
 2826 01e6 0C       		.uleb128 0xc
 2827 01e7 C6010000 		.4byte	0x1c6
 2828 01eb 0C       		.uleb128 0xc
 2829 01ec CE000000 		.4byte	0xce
 2830 01f0 00       		.byte	0
 2831 01f1 0D       		.uleb128 0xd
 2832 01f2 04       		.byte	0x4
 2833 01f3 F7010000 		.4byte	0x1f7
 2834 01f7 0E       		.uleb128 0xe
 2835 01f8 AD000000 		.4byte	0xad
 2836 01fc 0D       		.uleb128 0xd
 2837 01fd 04       		.byte	0x4
 2838 01fe DD010000 		.4byte	0x1dd
 2839 0202 02       		.uleb128 0x2
 2840 0203 7A100000 		.4byte	.LASF32
 2841 0207 07       		.byte	0x7
 2842 0208 56       		.byte	0x56
 2843 0209 49010000 		.4byte	0x149
 2844 020d 06       		.uleb128 0x6
 2845 020e 04       		.byte	0x4
 2846 020f 08       		.byte	0x8
 2847 0210 F3       		.byte	0xf3
 2848 0211 46020000 		.4byte	0x246
 2849 0215 07       		.uleb128 0x7
 2850 0216 1B040000 		.4byte	.LASF33
 2851 021a 08       		.byte	0x8
 2852 021b F5       		.byte	0xf5
 2853 021c AD000000 		.4byte	0xad
 2854 0220 00       		.byte	0
 2855 0221 07       		.uleb128 0x7
 2856 0222 74100000 		.4byte	.LASF34
 2857 0226 08       		.byte	0x8
 2858 0227 F6       		.byte	0xf6
 2859 0228 AD000000 		.4byte	0xad
 2860 022c 01       		.byte	0x1
 2861 022d 08       		.uleb128 0x8
 2862 022e 72656400 		.ascii	"red\000"
 2863 0232 08       		.byte	0x8
 2864 0233 F7       		.byte	0xf7
 2865 0234 AD000000 		.4byte	0xad
 2866 0238 02       		.byte	0x2
ARM GAS  C:\Users\pearlstl\AppData\Local\Temp\cciL9yyu.s 			page 75


 2867 0239 07       		.uleb128 0x7
 2868 023a F6020000 		.4byte	.LASF35
 2869 023e 08       		.byte	0x8
 2870 023f F8       		.byte	0xf8
 2871 0240 AD000000 		.4byte	0xad
 2872 0244 03       		.byte	0x3
 2873 0245 00       		.byte	0
 2874 0246 0F       		.uleb128 0xf
 2875 0247 04       		.byte	0x4
 2876 0248 08       		.byte	0x8
 2877 0249 F1       		.byte	0xf1
 2878 024a 64020000 		.4byte	0x264
 2879 024e 10       		.uleb128 0x10
 2880 024f 636800   		.ascii	"ch\000"
 2881 0252 08       		.byte	0x8
 2882 0253 F9       		.byte	0xf9
 2883 0254 0D020000 		.4byte	0x20d
 2884 0258 11       		.uleb128 0x11
 2885 0259 030D0000 		.4byte	.LASF36
 2886 025d 08       		.byte	0x8
 2887 025e FA       		.byte	0xfa
 2888 025f CE000000 		.4byte	0xce
 2889 0263 00       		.byte	0
 2890 0264 02       		.uleb128 0x2
 2891 0265 3C000000 		.4byte	.LASF37
 2892 0269 08       		.byte	0x8
 2893 026a FB       		.byte	0xfb
 2894 026b 46020000 		.4byte	0x246
 2895 026f 12       		.uleb128 0x12
 2896 0270 1D0C0000 		.4byte	.LASF38
 2897 0274 08       		.byte	0x8
 2898 0275 0801     		.2byte	0x108
 2899 0277 64020000 		.4byte	0x264
 2900 027b 12       		.uleb128 0x12
 2901 027c 87000000 		.4byte	.LASF39
 2902 0280 08       		.byte	0x8
 2903 0281 0D01     		.2byte	0x10d
 2904 0283 AD000000 		.4byte	0xad
 2905 0287 03       		.uleb128 0x3
 2906 0288 04       		.byte	0x4
 2907 0289 07       		.byte	0x7
 2908 028a 33000000 		.4byte	.LASF40
 2909 028e 03       		.uleb128 0x3
 2910 028f 01       		.byte	0x1
 2911 0290 08       		.byte	0x8
 2912 0291 EF040000 		.4byte	.LASF41
 2913 0295 06       		.uleb128 0x6
 2914 0296 08       		.byte	0x8
 2915 0297 02       		.byte	0x2
 2916 0298 31       		.byte	0x31
 2917 0299 CA020000 		.4byte	0x2ca
 2918 029d 08       		.uleb128 0x8
 2919 029e 783100   		.ascii	"x1\000"
 2920 02a1 02       		.byte	0x2
 2921 02a2 33       		.byte	0x33
 2922 02a3 D9000000 		.4byte	0xd9
 2923 02a7 00       		.byte	0
ARM GAS  C:\Users\pearlstl\AppData\Local\Temp\cciL9yyu.s 			page 76


 2924 02a8 08       		.uleb128 0x8
 2925 02a9 793100   		.ascii	"y1\000"
 2926 02ac 02       		.byte	0x2
 2927 02ad 34       		.byte	0x34
 2928 02ae D9000000 		.4byte	0xd9
 2929 02b2 02       		.byte	0x2
 2930 02b3 08       		.uleb128 0x8
 2931 02b4 783200   		.ascii	"x2\000"
 2932 02b7 02       		.byte	0x2
 2933 02b8 35       		.byte	0x35
 2934 02b9 D9000000 		.4byte	0xd9
 2935 02bd 04       		.byte	0x4
 2936 02be 08       		.uleb128 0x8
 2937 02bf 793200   		.ascii	"y2\000"
 2938 02c2 02       		.byte	0x2
 2939 02c3 36       		.byte	0x36
 2940 02c4 D9000000 		.4byte	0xd9
 2941 02c8 06       		.byte	0x6
 2942 02c9 00       		.byte	0
 2943 02ca 02       		.uleb128 0x2
 2944 02cb 55060000 		.4byte	.LASF42
 2945 02cf 02       		.byte	0x2
 2946 02d0 37       		.byte	0x37
 2947 02d1 95020000 		.4byte	0x295
 2948 02d5 02       		.uleb128 0x2
 2949 02d6 27110000 		.4byte	.LASF43
 2950 02da 09       		.byte	0x9
 2951 02db 2C       		.byte	0x2c
 2952 02dc AD000000 		.4byte	0xad
 2953 02e0 02       		.uleb128 0x2
 2954 02e1 620D0000 		.4byte	.LASF44
 2955 02e5 09       		.byte	0x9
 2956 02e6 33       		.byte	0x33
 2957 02e7 AD000000 		.4byte	0xad
 2958 02eb 06       		.uleb128 0x6
 2959 02ec 08       		.byte	0x8
 2960 02ed 09       		.byte	0x9
 2961 02ee 48       		.byte	0x48
 2962 02ef 24030000 		.4byte	0x324
 2963 02f3 07       		.uleb128 0x7
 2964 02f4 1E0D0000 		.4byte	.LASF45
 2965 02f8 09       		.byte	0x9
 2966 02f9 4A       		.byte	0x4a
 2967 02fa 6F020000 		.4byte	0x26f
 2968 02fe 00       		.byte	0
 2969 02ff 07       		.uleb128 0x7
 2970 0300 8F080000 		.4byte	.LASF46
 2971 0304 09       		.byte	0x9
 2972 0305 4B       		.byte	0x4b
 2973 0306 D9000000 		.4byte	0xd9
 2974 030a 04       		.byte	0x4
 2975 030b 07       		.uleb128 0x7
 2976 030c B0110000 		.4byte	.LASF47
 2977 0310 09       		.byte	0x9
 2978 0311 4C       		.byte	0x4c
 2979 0312 D5020000 		.4byte	0x2d5
 2980 0316 06       		.byte	0x6
ARM GAS  C:\Users\pearlstl\AppData\Local\Temp\cciL9yyu.s 			page 77


 2981 0317 08       		.uleb128 0x8
 2982 0318 6F706100 		.ascii	"opa\000"
 2983 031c 09       		.byte	0x9
 2984 031d 4D       		.byte	0x4d
 2985 031e 7B020000 		.4byte	0x27b
 2986 0322 07       		.byte	0x7
 2987 0323 00       		.byte	0
 2988 0324 06       		.uleb128 0x6
 2989 0325 08       		.byte	0x8
 2990 0326 09       		.byte	0x9
 2991 0327 51       		.byte	0x51
 2992 0328 51030000 		.4byte	0x351
 2993 032c 07       		.uleb128 0x7
 2994 032d 1E0D0000 		.4byte	.LASF45
 2995 0331 09       		.byte	0x9
 2996 0332 53       		.byte	0x53
 2997 0333 6F020000 		.4byte	0x26f
 2998 0337 00       		.byte	0
 2999 0338 07       		.uleb128 0x7
 3000 0339 8F080000 		.4byte	.LASF46
 3001 033d 09       		.byte	0x9
 3002 033e 54       		.byte	0x54
 3003 033f D9000000 		.4byte	0xd9
 3004 0343 04       		.byte	0x4
 3005 0344 07       		.uleb128 0x7
 3006 0345 CA010000 		.4byte	.LASF48
 3007 0349 09       		.byte	0x9
 3008 034a 55       		.byte	0x55
 3009 034b E0020000 		.4byte	0x2e0
 3010 034f 06       		.byte	0x6
 3011 0350 00       		.byte	0
 3012 0351 06       		.uleb128 0x6
 3013 0352 0A       		.byte	0xa
 3014 0353 09       		.byte	0x9
 3015 0354 58       		.byte	0x58
 3016 0355 96030000 		.4byte	0x396
 3017 0359 08       		.uleb128 0x8
 3018 035a 746F7000 		.ascii	"top\000"
 3019 035e 09       		.byte	0x9
 3020 035f 5A       		.byte	0x5a
 3021 0360 D9000000 		.4byte	0xd9
 3022 0364 00       		.byte	0
 3023 0365 07       		.uleb128 0x7
 3024 0366 CC080000 		.4byte	.LASF49
 3025 036a 09       		.byte	0x9
 3026 036b 5B       		.byte	0x5b
 3027 036c D9000000 		.4byte	0xd9
 3028 0370 02       		.byte	0x2
 3029 0371 07       		.uleb128 0x7
 3030 0372 9C060000 		.4byte	.LASF50
 3031 0376 09       		.byte	0x9
 3032 0377 5C       		.byte	0x5c
 3033 0378 D9000000 		.4byte	0xd9
 3034 037c 04       		.byte	0x4
 3035 037d 07       		.uleb128 0x7
 3036 037e 5A080000 		.4byte	.LASF51
 3037 0382 09       		.byte	0x9
ARM GAS  C:\Users\pearlstl\AppData\Local\Temp\cciL9yyu.s 			page 78


 3038 0383 5D       		.byte	0x5d
 3039 0384 D9000000 		.4byte	0xd9
 3040 0388 06       		.byte	0x6
 3041 0389 07       		.uleb128 0x7
 3042 038a 33070000 		.4byte	.LASF52
 3043 038e 09       		.byte	0x9
 3044 038f 5E       		.byte	0x5e
 3045 0390 D9000000 		.4byte	0xd9
 3046 0394 08       		.byte	0x8
 3047 0395 00       		.byte	0
 3048 0396 06       		.uleb128 0x6
 3049 0397 28       		.byte	0x28
 3050 0398 09       		.byte	0x9
 3051 0399 41       		.byte	0x41
 3052 039a F3030000 		.4byte	0x3f3
 3053 039e 07       		.uleb128 0x7
 3054 039f 7F0B0000 		.4byte	.LASF53
 3055 03a3 09       		.byte	0x9
 3056 03a4 43       		.byte	0x43
 3057 03a5 6F020000 		.4byte	0x26f
 3058 03a9 00       		.byte	0
 3059 03aa 07       		.uleb128 0x7
 3060 03ab 000A0000 		.4byte	.LASF54
 3061 03af 09       		.byte	0x9
 3062 03b0 44       		.byte	0x44
 3063 03b1 6F020000 		.4byte	0x26f
 3064 03b5 04       		.byte	0x4
 3065 03b6 07       		.uleb128 0x7
 3066 03b7 B4000000 		.4byte	.LASF55
 3067 03bb 09       		.byte	0x9
 3068 03bc 45       		.byte	0x45
 3069 03bd D9000000 		.4byte	0xd9
 3070 03c1 08       		.byte	0x8
 3071 03c2 08       		.uleb128 0x8
 3072 03c3 6F706100 		.ascii	"opa\000"
 3073 03c7 09       		.byte	0x9
 3074 03c8 46       		.byte	0x46
 3075 03c9 7B020000 		.4byte	0x27b
 3076 03cd 0A       		.byte	0xa
 3077 03ce 07       		.uleb128 0x7
 3078 03cf F6100000 		.4byte	.LASF56
 3079 03d3 09       		.byte	0x9
 3080 03d4 4E       		.byte	0x4e
 3081 03d5 EB020000 		.4byte	0x2eb
 3082 03d9 0C       		.byte	0xc
 3083 03da 07       		.uleb128 0x7
 3084 03db 460F0000 		.4byte	.LASF57
 3085 03df 09       		.byte	0x9
 3086 03e0 56       		.byte	0x56
 3087 03e1 24030000 		.4byte	0x324
 3088 03e5 14       		.byte	0x14
 3089 03e6 07       		.uleb128 0x7
 3090 03e7 F60F0000 		.4byte	.LASF58
 3091 03eb 09       		.byte	0x9
 3092 03ec 5F       		.byte	0x5f
 3093 03ed 51030000 		.4byte	0x351
 3094 03f1 1C       		.byte	0x1c
ARM GAS  C:\Users\pearlstl\AppData\Local\Temp\cciL9yyu.s 			page 79


 3095 03f2 00       		.byte	0
 3096 03f3 06       		.uleb128 0x6
 3097 03f4 14       		.byte	0x14
 3098 03f5 09       		.byte	0x9
 3099 03f6 63       		.byte	0x63
 3100 03f7 44040000 		.4byte	0x444
 3101 03fb 07       		.uleb128 0x7
 3102 03fc 1E0D0000 		.4byte	.LASF45
 3103 0400 09       		.byte	0x9
 3104 0401 65       		.byte	0x65
 3105 0402 6F020000 		.4byte	0x26f
 3106 0406 00       		.byte	0
 3107 0407 07       		.uleb128 0x7
 3108 0408 7A110000 		.4byte	.LASF59
 3109 040c 09       		.byte	0x9
 3110 040d 66       		.byte	0x66
 3111 040e 6F020000 		.4byte	0x26f
 3112 0412 04       		.byte	0x4
 3113 0413 07       		.uleb128 0x7
 3114 0414 B30D0000 		.4byte	.LASF60
 3115 0418 09       		.byte	0x9
 3116 0419 67       		.byte	0x67
 3117 041a 44040000 		.4byte	0x444
 3118 041e 08       		.byte	0x8
 3119 041f 07       		.uleb128 0x7
 3120 0420 B80D0000 		.4byte	.LASF61
 3121 0424 09       		.byte	0x9
 3122 0425 68       		.byte	0x68
 3123 0426 D9000000 		.4byte	0xd9
 3124 042a 0C       		.byte	0xc
 3125 042b 07       		.uleb128 0x7
 3126 042c 240D0000 		.4byte	.LASF62
 3127 0430 09       		.byte	0x9
 3128 0431 69       		.byte	0x69
 3129 0432 D9000000 		.4byte	0xd9
 3130 0436 0E       		.byte	0xe
 3131 0437 08       		.uleb128 0x8
 3132 0438 6F706100 		.ascii	"opa\000"
 3133 043c 09       		.byte	0x9
 3134 043d 6A       		.byte	0x6a
 3135 043e 7B020000 		.4byte	0x27b
 3136 0442 10       		.byte	0x10
 3137 0443 00       		.byte	0
 3138 0444 0D       		.uleb128 0xd
 3139 0445 04       		.byte	0x4
 3140 0446 4A040000 		.4byte	0x44a
 3141 044a 0E       		.uleb128 0xe
 3142 044b 02020000 		.4byte	0x202
 3143 044f 06       		.uleb128 0x6
 3144 0450 08       		.byte	0x8
 3145 0451 09       		.byte	0x9
 3146 0452 6E       		.byte	0x6e
 3147 0453 7C040000 		.4byte	0x47c
 3148 0457 07       		.uleb128 0x7
 3149 0458 1E0D0000 		.4byte	.LASF45
 3150 045c 09       		.byte	0x9
 3151 045d 70       		.byte	0x70
ARM GAS  C:\Users\pearlstl\AppData\Local\Temp\cciL9yyu.s 			page 80


 3152 045e 6F020000 		.4byte	0x26f
 3153 0462 00       		.byte	0
 3154 0463 07       		.uleb128 0x7
 3155 0464 90000000 		.4byte	.LASF63
 3156 0468 09       		.byte	0x9
 3157 0469 71       		.byte	0x71
 3158 046a 7B020000 		.4byte	0x27b
 3159 046e 04       		.byte	0x4
 3160 046f 08       		.uleb128 0x8
 3161 0470 6F706100 		.ascii	"opa\000"
 3162 0474 09       		.byte	0x9
 3163 0475 72       		.byte	0x72
 3164 0476 7B020000 		.4byte	0x27b
 3165 047a 05       		.byte	0x5
 3166 047b 00       		.byte	0
 3167 047c 06       		.uleb128 0x6
 3168 047d 08       		.byte	0x8
 3169 047e 09       		.byte	0x9
 3170 047f 76       		.byte	0x76
 3171 0480 B8040000 		.4byte	0x4b8
 3172 0484 07       		.uleb128 0x7
 3173 0485 1E0D0000 		.4byte	.LASF45
 3174 0489 09       		.byte	0x9
 3175 048a 78       		.byte	0x78
 3176 048b 6F020000 		.4byte	0x26f
 3177 048f 00       		.byte	0
 3178 0490 07       		.uleb128 0x7
 3179 0491 8F080000 		.4byte	.LASF46
 3180 0495 09       		.byte	0x9
 3181 0496 79       		.byte	0x79
 3182 0497 D9000000 		.4byte	0xd9
 3183 049b 04       		.byte	0x4
 3184 049c 08       		.uleb128 0x8
 3185 049d 6F706100 		.ascii	"opa\000"
 3186 04a1 09       		.byte	0x9
 3187 04a2 7A       		.byte	0x7a
 3188 04a3 7B020000 		.4byte	0x27b
 3189 04a7 06       		.byte	0x6
 3190 04a8 0A       		.uleb128 0xa
 3191 04a9 19060000 		.4byte	.LASF65
 3192 04ad 09       		.byte	0x9
 3193 04ae 7B       		.byte	0x7b
 3194 04af AD000000 		.4byte	0xad
 3195 04b3 01       		.byte	0x1
 3196 04b4 01       		.byte	0x1
 3197 04b5 07       		.byte	0x7
 3198 04b6 07       		.byte	0x7
 3199 04b7 00       		.byte	0
 3200 04b8 06       		.uleb128 0x6
 3201 04b9 50       		.byte	0x50
 3202 04ba 09       		.byte	0x9
 3203 04bb 3C       		.byte	0x3c
 3204 04bc 00050000 		.4byte	0x500
 3205 04c0 0A       		.uleb128 0xa
 3206 04c1 48090000 		.4byte	.LASF66
 3207 04c5 09       		.byte	0x9
 3208 04c6 3E       		.byte	0x3e
ARM GAS  C:\Users\pearlstl\AppData\Local\Temp\cciL9yyu.s 			page 81


 3209 04c7 AD000000 		.4byte	0xad
 3210 04cb 01       		.byte	0x1
 3211 04cc 01       		.byte	0x1
 3212 04cd 07       		.byte	0x7
 3213 04ce 00       		.byte	0
 3214 04cf 07       		.uleb128 0x7
 3215 04d0 47050000 		.4byte	.LASF67
 3216 04d4 09       		.byte	0x9
 3217 04d5 60       		.byte	0x60
 3218 04d6 96030000 		.4byte	0x396
 3219 04da 04       		.byte	0x4
 3220 04db 07       		.uleb128 0x7
 3221 04dc FD050000 		.4byte	.LASF68
 3222 04e0 09       		.byte	0x9
 3223 04e1 6B       		.byte	0x6b
 3224 04e2 F3030000 		.4byte	0x3f3
 3225 04e6 2C       		.byte	0x2c
 3226 04e7 07       		.uleb128 0x7
 3227 04e8 13060000 		.4byte	.LASF69
 3228 04ec 09       		.byte	0x9
 3229 04ed 73       		.byte	0x73
 3230 04ee 4F040000 		.4byte	0x44f
 3231 04f2 40       		.byte	0x40
 3232 04f3 07       		.uleb128 0x7
 3233 04f4 B2070000 		.4byte	.LASF70
 3234 04f8 09       		.byte	0x9
 3235 04f9 7C       		.byte	0x7c
 3236 04fa 7C040000 		.4byte	0x47c
 3237 04fe 48       		.byte	0x48
 3238 04ff 00       		.byte	0
 3239 0500 02       		.uleb128 0x2
 3240 0501 28070000 		.4byte	.LASF71
 3241 0505 09       		.byte	0x9
 3242 0506 84       		.byte	0x84
 3243 0507 B8040000 		.4byte	0x4b8
 3244 050b 0D       		.uleb128 0xd
 3245 050c 04       		.byte	0x4
 3246 050d 00050000 		.4byte	0x500
 3247 0511 13       		.uleb128 0x13
 3248 0512 01       		.byte	0x1
 3249 0513 42000000 		.4byte	0x42
 3250 0517 0A       		.byte	0xa
 3251 0518 27       		.byte	0x27
 3252 0519 2A050000 		.4byte	0x52a
 3253 051d 14       		.uleb128 0x14
 3254 051e 85010000 		.4byte	.LASF72
 3255 0522 00       		.byte	0
 3256 0523 14       		.uleb128 0x14
 3257 0524 0A0C0000 		.4byte	.LASF73
 3258 0528 01       		.byte	0x1
 3259 0529 00       		.byte	0
 3260 052a 02       		.uleb128 0x2
 3261 052b 810A0000 		.4byte	.LASF74
 3262 052f 0A       		.byte	0xa
 3263 0530 2C       		.byte	0x2c
 3264 0531 AD000000 		.4byte	0xad
 3265 0535 02       		.uleb128 0x2
ARM GAS  C:\Users\pearlstl\AppData\Local\Temp\cciL9yyu.s 			page 82


 3266 0536 16000000 		.4byte	.LASF75
 3267 053a 0B       		.byte	0xb
 3268 053b 1E       		.byte	0x1e
 3269 053c AD000000 		.4byte	0xad
 3270 0540 06       		.uleb128 0x6
 3271 0541 0C       		.byte	0xc
 3272 0542 0B       		.byte	0xb
 3273 0543 21       		.byte	0x21
 3274 0544 6D050000 		.4byte	0x56d
 3275 0548 07       		.uleb128 0x7
 3276 0549 B5110000 		.4byte	.LASF76
 3277 054d 0B       		.byte	0xb
 3278 054e 23       		.byte	0x23
 3279 054f CE000000 		.4byte	0xce
 3280 0553 00       		.byte	0
 3281 0554 07       		.uleb128 0x7
 3282 0555 74030000 		.4byte	.LASF77
 3283 0559 0B       		.byte	0xb
 3284 055a 24       		.byte	0x24
 3285 055b 6D050000 		.4byte	0x56d
 3286 055f 04       		.byte	0x4
 3287 0560 07       		.uleb128 0x7
 3288 0561 5F000000 		.4byte	.LASF78
 3289 0565 0B       		.byte	0xb
 3290 0566 25       		.byte	0x25
 3291 0567 6D050000 		.4byte	0x56d
 3292 056b 08       		.byte	0x8
 3293 056c 00       		.byte	0
 3294 056d 0D       		.uleb128 0xd
 3295 056e 04       		.byte	0x4
 3296 056f 35050000 		.4byte	0x535
 3297 0573 02       		.uleb128 0x2
 3298 0574 450E0000 		.4byte	.LASF79
 3299 0578 0B       		.byte	0xb
 3300 0579 26       		.byte	0x26
 3301 057a 40050000 		.4byte	0x540
 3302 057e 13       		.uleb128 0x13
 3303 057f 01       		.byte	0x1
 3304 0580 42000000 		.4byte	0x42
 3305 0584 0C       		.byte	0xc
 3306 0585 25       		.byte	0x25
 3307 0586 AF050000 		.4byte	0x5af
 3308 058a 14       		.uleb128 0x14
 3309 058b DA000000 		.4byte	.LASF80
 3310 058f 00       		.byte	0
 3311 0590 14       		.uleb128 0x14
 3312 0591 CD0F0000 		.4byte	.LASF81
 3313 0595 01       		.byte	0x1
 3314 0596 14       		.uleb128 0x14
 3315 0597 E00C0000 		.4byte	.LASF82
 3316 059b 02       		.byte	0x2
 3317 059c 14       		.uleb128 0x14
 3318 059d 88060000 		.4byte	.LASF83
 3319 05a1 03       		.byte	0x3
 3320 05a2 14       		.uleb128 0x14
 3321 05a3 5F0C0000 		.4byte	.LASF84
 3322 05a7 20       		.byte	0x20
ARM GAS  C:\Users\pearlstl\AppData\Local\Temp\cciL9yyu.s 			page 83


 3323 05a8 14       		.uleb128 0x14
 3324 05a9 4E000000 		.4byte	.LASF85
 3325 05ad 21       		.byte	0x21
 3326 05ae 00       		.byte	0
 3327 05af 02       		.uleb128 0x2
 3328 05b0 3A060000 		.4byte	.LASF86
 3329 05b4 0C       		.byte	0xc
 3330 05b5 30       		.byte	0x30
 3331 05b6 AD000000 		.4byte	0xad
 3332 05ba 0D       		.uleb128 0xd
 3333 05bb 04       		.byte	0x4
 3334 05bc C0050000 		.4byte	0x5c0
 3335 05c0 0E       		.uleb128 0xe
 3336 05c1 CA020000 		.4byte	0x2ca
 3337 05c5 0D       		.uleb128 0xd
 3338 05c6 04       		.byte	0x4
 3339 05c7 CA020000 		.4byte	0x2ca
 3340 05cb 09       		.uleb128 0x9
 3341 05cc 940D0000 		.4byte	.LASF88
 3342 05d0 40       		.byte	0x40
 3343 05d1 0D       		.byte	0xd
 3344 05d2 BB       		.byte	0xbb
 3345 05d3 0D070000 		.4byte	0x70d
 3346 05d7 08       		.uleb128 0x8
 3347 05d8 70617200 		.ascii	"par\000"
 3348 05dc 0D       		.byte	0xd
 3349 05dd BD       		.byte	0xbd
 3350 05de 0D070000 		.4byte	0x70d
 3351 05e2 00       		.byte	0
 3352 05e3 07       		.uleb128 0x7
 3353 05e4 D3080000 		.4byte	.LASF89
 3354 05e8 0D       		.byte	0xd
 3355 05e9 BE       		.byte	0xbe
 3356 05ea 73050000 		.4byte	0x573
 3357 05ee 04       		.byte	0x4
 3358 05ef 07       		.uleb128 0x7
 3359 05f0 020F0000 		.4byte	.LASF90
 3360 05f4 0D       		.byte	0xd
 3361 05f5 C0       		.byte	0xc0
 3362 05f6 CA020000 		.4byte	0x2ca
 3363 05fa 10       		.byte	0x10
 3364 05fb 07       		.uleb128 0x7
 3365 05fc 51080000 		.4byte	.LASF91
 3366 0600 0D       		.byte	0xd
 3367 0601 C2       		.byte	0xc2
 3368 0602 53070000 		.4byte	0x753
 3369 0606 18       		.byte	0x18
 3370 0607 07       		.uleb128 0x7
 3371 0608 21100000 		.4byte	.LASF92
 3372 060c 0D       		.byte	0xd
 3373 060d C3       		.byte	0xc3
 3374 060e 04080000 		.4byte	0x804
 3375 0612 1C       		.byte	0x1c
 3376 0613 07       		.uleb128 0x7
 3377 0614 DA050000 		.4byte	.LASF93
 3378 0618 0D       		.byte	0xd
 3379 0619 C4       		.byte	0xc4
ARM GAS  C:\Users\pearlstl\AppData\Local\Temp\cciL9yyu.s 			page 84


 3380 061a 1E070000 		.4byte	0x71e
 3381 061e 20       		.byte	0x20
 3382 061f 07       		.uleb128 0x7
 3383 0620 C40A0000 		.4byte	.LASF94
 3384 0624 0D       		.byte	0xd
 3385 0625 C6       		.byte	0xc6
 3386 0626 E4000000 		.4byte	0xe4
 3387 062a 24       		.byte	0x24
 3388 062b 07       		.uleb128 0x7
 3389 062c 60080000 		.4byte	.LASF95
 3390 0630 0D       		.byte	0xd
 3391 0631 C7       		.byte	0xc7
 3392 0632 3C090000 		.4byte	0x93c
 3393 0636 28       		.byte	0x28
 3394 0637 0A       		.uleb128 0xa
 3395 0638 D4000000 		.4byte	.LASF96
 3396 063c 0D       		.byte	0xd
 3397 063d D7       		.byte	0xd7
 3398 063e AD000000 		.4byte	0xad
 3399 0642 01       		.byte	0x1
 3400 0643 01       		.byte	0x1
 3401 0644 07       		.byte	0x7
 3402 0645 2C       		.byte	0x2c
 3403 0646 0A       		.uleb128 0xa
 3404 0647 730D0000 		.4byte	.LASF97
 3405 064b 0D       		.byte	0xd
 3406 064c D8       		.byte	0xd8
 3407 064d AD000000 		.4byte	0xad
 3408 0651 01       		.byte	0x1
 3409 0652 01       		.byte	0x1
 3410 0653 06       		.byte	0x6
 3411 0654 2C       		.byte	0x2c
 3412 0655 0A       		.uleb128 0xa
 3413 0656 21060000 		.4byte	.LASF98
 3414 065a 0D       		.byte	0xd
 3415 065b D9       		.byte	0xd9
 3416 065c AD000000 		.4byte	0xad
 3417 0660 01       		.byte	0x1
 3418 0661 01       		.byte	0x1
 3419 0662 05       		.byte	0x5
 3420 0663 2C       		.byte	0x2c
 3421 0664 0A       		.uleb128 0xa
 3422 0665 950F0000 		.4byte	.LASF99
 3423 0669 0D       		.byte	0xd
 3424 066a DA       		.byte	0xda
 3425 066b AD000000 		.4byte	0xad
 3426 066f 01       		.byte	0x1
 3427 0670 01       		.byte	0x1
 3428 0671 04       		.byte	0x4
 3429 0672 2C       		.byte	0x2c
 3430 0673 0A       		.uleb128 0xa
 3431 0674 FC020000 		.4byte	.LASF100
 3432 0678 0D       		.byte	0xd
 3433 0679 DB       		.byte	0xdb
 3434 067a AD000000 		.4byte	0xad
 3435 067e 01       		.byte	0x1
 3436 067f 01       		.byte	0x1
ARM GAS  C:\Users\pearlstl\AppData\Local\Temp\cciL9yyu.s 			page 85


 3437 0680 03       		.byte	0x3
 3438 0681 2C       		.byte	0x2c
 3439 0682 15       		.uleb128 0x15
 3440 0683 746F7000 		.ascii	"top\000"
 3441 0687 0D       		.byte	0xd
 3442 0688 DC       		.byte	0xdc
 3443 0689 AD000000 		.4byte	0xad
 3444 068d 01       		.byte	0x1
 3445 068e 01       		.byte	0x1
 3446 068f 02       		.byte	0x2
 3447 0690 2C       		.byte	0x2c
 3448 0691 0A       		.uleb128 0xa
 3449 0692 110F0000 		.4byte	.LASF101
 3450 0696 0D       		.byte	0xd
 3451 0697 DD       		.byte	0xdd
 3452 0698 AD000000 		.4byte	0xad
 3453 069c 01       		.byte	0x1
 3454 069d 01       		.byte	0x1
 3455 069e 01       		.byte	0x1
 3456 069f 2C       		.byte	0x2c
 3457 06a0 0A       		.uleb128 0xa
 3458 06a1 0B090000 		.4byte	.LASF102
 3459 06a5 0D       		.byte	0xd
 3460 06a6 DE       		.byte	0xde
 3461 06a7 AD000000 		.4byte	0xad
 3462 06ab 01       		.byte	0x1
 3463 06ac 01       		.byte	0x1
 3464 06ad 00       		.byte	0
 3465 06ae 2C       		.byte	0x2c
 3466 06af 0A       		.uleb128 0xa
 3467 06b0 7D040000 		.4byte	.LASF103
 3468 06b4 0D       		.byte	0xd
 3469 06b5 DF       		.byte	0xdf
 3470 06b6 31090000 		.4byte	0x931
 3471 06ba 01       		.byte	0x1
 3472 06bb 02       		.byte	0x2
 3473 06bc 06       		.byte	0x6
 3474 06bd 2D       		.byte	0x2d
 3475 06be 0A       		.uleb128 0xa
 3476 06bf D80D0000 		.4byte	.LASF104
 3477 06c3 0D       		.byte	0xd
 3478 06c4 E0       		.byte	0xe0
 3479 06c5 AF050000 		.4byte	0x5af
 3480 06c9 01       		.byte	0x1
 3481 06ca 02       		.byte	0x2
 3482 06cb 04       		.byte	0x4
 3483 06cc 2D       		.byte	0x2d
 3484 06cd 0A       		.uleb128 0xa
 3485 06ce 84100000 		.4byte	.LASF105
 3486 06d2 0D       		.byte	0xd
 3487 06d3 E1       		.byte	0xe1
 3488 06d4 AD000000 		.4byte	0xad
 3489 06d8 01       		.byte	0x1
 3490 06d9 03       		.byte	0x3
 3491 06da 01       		.byte	0x1
 3492 06db 2D       		.byte	0x2d
 3493 06dc 07       		.uleb128 0x7
ARM GAS  C:\Users\pearlstl\AppData\Local\Temp\cciL9yyu.s 			page 86


 3494 06dd E2080000 		.4byte	.LASF106
 3495 06e1 0D       		.byte	0xd
 3496 06e2 E2       		.byte	0xe2
 3497 06e3 AD000000 		.4byte	0xad
 3498 06e7 2E       		.byte	0x2e
 3499 06e8 07       		.uleb128 0x7
 3500 06e9 E7110000 		.4byte	.LASF107
 3501 06ed 0D       		.byte	0xd
 3502 06ee E4       		.byte	0xe4
 3503 06ef 7B020000 		.4byte	0x27b
 3504 06f3 2F       		.byte	0x2f
 3505 06f4 07       		.uleb128 0x7
 3506 06f5 48060000 		.4byte	.LASF108
 3507 06f9 0D       		.byte	0xd
 3508 06fa E6       		.byte	0xe6
 3509 06fb D9000000 		.4byte	0xd9
 3510 06ff 30       		.byte	0x30
 3511 0700 07       		.uleb128 0x7
 3512 0701 AC060000 		.4byte	.LASF109
 3513 0705 0D       		.byte	0xd
 3514 0706 E9       		.byte	0xe9
 3515 0707 26090000 		.4byte	0x926
 3516 070b 34       		.byte	0x34
 3517 070c 00       		.byte	0
 3518 070d 0D       		.uleb128 0xd
 3519 070e 04       		.byte	0x4
 3520 070f CB050000 		.4byte	0x5cb
 3521 0713 02       		.uleb128 0x2
 3522 0714 F30A0000 		.4byte	.LASF110
 3523 0718 0D       		.byte	0xd
 3524 0719 42       		.byte	0x42
 3525 071a AD000000 		.4byte	0xad
 3526 071e 02       		.uleb128 0x2
 3527 071f C3110000 		.4byte	.LASF111
 3528 0723 0D       		.byte	0xd
 3529 0724 48       		.byte	0x48
 3530 0725 29070000 		.4byte	0x729
 3531 0729 0D       		.uleb128 0xd
 3532 072a 04       		.byte	0x4
 3533 072b 2F070000 		.4byte	0x72f
 3534 072f 0B       		.uleb128 0xb
 3535 0730 BF010000 		.4byte	0x1bf
 3536 0734 48070000 		.4byte	0x748
 3537 0738 0C       		.uleb128 0xc
 3538 0739 0D070000 		.4byte	0x70d
 3539 073d 0C       		.uleb128 0xc
 3540 073e BA050000 		.4byte	0x5ba
 3541 0742 0C       		.uleb128 0xc
 3542 0743 13070000 		.4byte	0x713
 3543 0747 00       		.byte	0
 3544 0748 02       		.uleb128 0x2
 3545 0749 3B010000 		.4byte	.LASF112
 3546 074d 0D       		.byte	0xd
 3547 074e 61       		.byte	0x61
 3548 074f AD000000 		.4byte	0xad
 3549 0753 02       		.uleb128 0x2
 3550 0754 38110000 		.4byte	.LASF113
ARM GAS  C:\Users\pearlstl\AppData\Local\Temp\cciL9yyu.s 			page 87


 3551 0758 0D       		.byte	0xd
 3552 0759 68       		.byte	0x68
 3553 075a 5E070000 		.4byte	0x75e
 3554 075e 0D       		.uleb128 0xd
 3555 075f 04       		.byte	0x4
 3556 0760 64070000 		.4byte	0x764
 3557 0764 16       		.uleb128 0x16
 3558 0765 74070000 		.4byte	0x774
 3559 0769 0C       		.uleb128 0xc
 3560 076a 0D070000 		.4byte	0x70d
 3561 076e 0C       		.uleb128 0xc
 3562 076f 48070000 		.4byte	0x748
 3563 0773 00       		.byte	0
 3564 0774 13       		.uleb128 0x13
 3565 0775 01       		.byte	0x1
 3566 0776 42000000 		.4byte	0x42
 3567 077a 0D       		.byte	0xd
 3568 077b 6D       		.byte	0x6d
 3569 077c F9070000 		.4byte	0x7f9
 3570 0780 14       		.uleb128 0x14
 3571 0781 18090000 		.4byte	.LASF114
 3572 0785 00       		.byte	0
 3573 0786 14       		.uleb128 0x14
 3574 0787 69090000 		.4byte	.LASF115
 3575 078b 01       		.byte	0x1
 3576 078c 14       		.uleb128 0x14
 3577 078d EF0E0000 		.4byte	.LASF116
 3578 0791 02       		.byte	0x2
 3579 0792 14       		.uleb128 0x14
 3580 0793 480B0000 		.4byte	.LASF117
 3581 0797 03       		.byte	0x3
 3582 0798 14       		.uleb128 0x14
 3583 0799 73000000 		.4byte	.LASF118
 3584 079d 04       		.byte	0x4
 3585 079e 14       		.uleb128 0x14
 3586 079f A10F0000 		.4byte	.LASF119
 3587 07a3 05       		.byte	0x5
 3588 07a4 14       		.uleb128 0x14
 3589 07a5 61040000 		.4byte	.LASF120
 3590 07a9 06       		.byte	0x6
 3591 07aa 14       		.uleb128 0x14
 3592 07ab 00070000 		.4byte	.LASF121
 3593 07af 07       		.byte	0x7
 3594 07b0 14       		.uleb128 0x14
 3595 07b1 A7010000 		.4byte	.LASF122
 3596 07b5 08       		.byte	0x8
 3597 07b6 14       		.uleb128 0x14
 3598 07b7 4C0A0000 		.4byte	.LASF123
 3599 07bb 09       		.byte	0x9
 3600 07bc 14       		.uleb128 0x14
 3601 07bd 200B0000 		.4byte	.LASF124
 3602 07c1 0A       		.byte	0xa
 3603 07c2 14       		.uleb128 0x14
 3604 07c3 6C0B0000 		.4byte	.LASF125
 3605 07c7 0B       		.byte	0xb
 3606 07c8 14       		.uleb128 0x14
 3607 07c9 9F000000 		.4byte	.LASF126
ARM GAS  C:\Users\pearlstl\AppData\Local\Temp\cciL9yyu.s 			page 88


 3608 07cd 0C       		.byte	0xc
 3609 07ce 14       		.uleb128 0x14
 3610 07cf 20040000 		.4byte	.LASF127
 3611 07d3 0D       		.byte	0xd
 3612 07d4 14       		.uleb128 0x14
 3613 07d5 F5000000 		.4byte	.LASF128
 3614 07d9 0E       		.byte	0xe
 3615 07da 14       		.uleb128 0x14
 3616 07db 350B0000 		.4byte	.LASF129
 3617 07df 0F       		.byte	0xf
 3618 07e0 14       		.uleb128 0x14
 3619 07e1 CB070000 		.4byte	.LASF130
 3620 07e5 10       		.byte	0x10
 3621 07e6 14       		.uleb128 0x14
 3622 07e7 E4050000 		.4byte	.LASF131
 3623 07eb 11       		.byte	0x11
 3624 07ec 14       		.uleb128 0x14
 3625 07ed BA080000 		.4byte	.LASF132
 3626 07f1 12       		.byte	0x12
 3627 07f2 14       		.uleb128 0x14
 3628 07f3 0E080000 		.4byte	.LASF133
 3629 07f7 13       		.byte	0x13
 3630 07f8 00       		.byte	0
 3631 07f9 02       		.uleb128 0x2
 3632 07fa A70B0000 		.4byte	.LASF134
 3633 07fe 0D       		.byte	0xd
 3634 07ff 88       		.byte	0x88
 3635 0800 AD000000 		.4byte	0xad
 3636 0804 02       		.uleb128 0x2
 3637 0805 DA040000 		.4byte	.LASF135
 3638 0809 0D       		.byte	0xd
 3639 080a 8A       		.byte	0x8a
 3640 080b 0F080000 		.4byte	0x80f
 3641 080f 0D       		.uleb128 0xd
 3642 0810 04       		.byte	0x4
 3643 0811 15080000 		.4byte	0x815
 3644 0815 0B       		.uleb128 0xb
 3645 0816 2A050000 		.4byte	0x52a
 3646 081a 2E080000 		.4byte	0x82e
 3647 081e 0C       		.uleb128 0xc
 3648 081f 0D070000 		.4byte	0x70d
 3649 0823 0C       		.uleb128 0xc
 3650 0824 F9070000 		.4byte	0x7f9
 3651 0828 0C       		.uleb128 0xc
 3652 0829 E4000000 		.4byte	0xe4
 3653 082d 00       		.byte	0
 3654 082e 13       		.uleb128 0x13
 3655 082f 01       		.byte	0x1
 3656 0830 42000000 		.4byte	0x42
 3657 0834 0D       		.byte	0xd
 3658 0835 8D       		.byte	0x8d
 3659 0836 B9080000 		.4byte	0x8b9
 3660 083a 14       		.uleb128 0x14
 3661 083b 92090000 		.4byte	.LASF136
 3662 083f 00       		.byte	0
 3663 0840 14       		.uleb128 0x14
 3664 0841 9E0D0000 		.4byte	.LASF137
ARM GAS  C:\Users\pearlstl\AppData\Local\Temp\cciL9yyu.s 			page 89


 3665 0845 01       		.byte	0x1
 3666 0846 14       		.uleb128 0x14
 3667 0847 8A0B0000 		.4byte	.LASF138
 3668 084b 02       		.byte	0x2
 3669 084c 14       		.uleb128 0x14
 3670 084d A4080000 		.4byte	.LASF139
 3671 0851 03       		.byte	0x3
 3672 0852 14       		.uleb128 0x14
 3673 0853 30090000 		.4byte	.LASF140
 3674 0857 04       		.byte	0x4
 3675 0858 14       		.uleb128 0x14
 3676 0859 15030000 		.4byte	.LASF141
 3677 085d 05       		.byte	0x5
 3678 085e 14       		.uleb128 0x14
 3679 085f CD060000 		.4byte	.LASF142
 3680 0863 06       		.byte	0x6
 3681 0864 14       		.uleb128 0x14
 3682 0865 800F0000 		.4byte	.LASF143
 3683 0869 07       		.byte	0x7
 3684 086a 14       		.uleb128 0x14
 3685 086b 080D0000 		.4byte	.LASF144
 3686 086f 08       		.byte	0x8
 3687 0870 14       		.uleb128 0x14
 3688 0871 DD0A0000 		.4byte	.LASF145
 3689 0875 09       		.byte	0x9
 3690 0876 14       		.uleb128 0x14
 3691 0877 B80F0000 		.4byte	.LASF146
 3692 087b 0A       		.byte	0xa
 3693 087c 14       		.uleb128 0x14
 3694 087d 4D0E0000 		.4byte	.LASF147
 3695 0881 0B       		.byte	0xb
 3696 0882 14       		.uleb128 0x14
 3697 0883 2D080000 		.4byte	.LASF148
 3698 0887 0C       		.byte	0xc
 3699 0888 14       		.uleb128 0x14
 3700 0889 51070000 		.4byte	.LASF149
 3701 088d 0D       		.byte	0xd
 3702 088e 14       		.uleb128 0x14
 3703 088f E6060000 		.4byte	.LASF150
 3704 0893 0E       		.byte	0xe
 3705 0894 14       		.uleb128 0x14
 3706 0895 4C100000 		.4byte	.LASF151
 3707 0899 0F       		.byte	0xf
 3708 089a 14       		.uleb128 0x14
 3709 089b B6050000 		.4byte	.LASF152
 3710 089f 10       		.byte	0x10
 3711 08a0 14       		.uleb128 0x14
 3712 08a1 76080000 		.4byte	.LASF153
 3713 08a5 11       		.byte	0x11
 3714 08a6 14       		.uleb128 0x14
 3715 08a7 EA0B0000 		.4byte	.LASF154
 3716 08ab 12       		.byte	0x12
 3717 08ac 14       		.uleb128 0x14
 3718 08ad 90010000 		.4byte	.LASF155
 3719 08b1 13       		.byte	0x13
 3720 08b2 14       		.uleb128 0x14
 3721 08b3 8A0A0000 		.4byte	.LASF156
ARM GAS  C:\Users\pearlstl\AppData\Local\Temp\cciL9yyu.s 			page 90


 3722 08b7 14       		.byte	0x14
 3723 08b8 00       		.byte	0
 3724 08b9 02       		.uleb128 0x2
 3725 08ba EA000000 		.4byte	.LASF157
 3726 08be 0D       		.byte	0xd
 3727 08bf A4       		.byte	0xa4
 3728 08c0 AD000000 		.4byte	0xad
 3729 08c4 06       		.uleb128 0x6
 3730 08c5 0C       		.byte	0xc
 3731 08c6 0D       		.byte	0xd
 3732 08c7 A7       		.byte	0xa7
 3733 08c8 1B090000 		.4byte	0x91b
 3734 08cc 07       		.uleb128 0x7
 3735 08cd 260E0000 		.4byte	.LASF158
 3736 08d1 0D       		.byte	0xd
 3737 08d2 A9       		.byte	0xa9
 3738 08d3 1B090000 		.4byte	0x91b
 3739 08d7 00       		.byte	0
 3740 08d8 07       		.uleb128 0x7
 3741 08d9 2F0D0000 		.4byte	.LASF159
 3742 08dd 0D       		.byte	0xd
 3743 08de AA       		.byte	0xaa
 3744 08df D9000000 		.4byte	0xd9
 3745 08e3 04       		.byte	0x4
 3746 08e4 07       		.uleb128 0x7
 3747 08e5 4C050000 		.4byte	.LASF160
 3748 08e9 0D       		.byte	0xd
 3749 08ea AB       		.byte	0xab
 3750 08eb D9000000 		.4byte	0xd9
 3751 08ef 06       		.byte	0x6
 3752 08f0 07       		.uleb128 0x7
 3753 08f1 2A090000 		.4byte	.LASF161
 3754 08f5 0D       		.byte	0xd
 3755 08f6 AC       		.byte	0xac
 3756 08f7 B9080000 		.4byte	0x8b9
 3757 08fb 08       		.byte	0x8
 3758 08fc 0A       		.uleb128 0xa
 3759 08fd C7090000 		.4byte	.LASF162
 3760 0901 0D       		.byte	0xd
 3761 0902 AD       		.byte	0xad
 3762 0903 AD000000 		.4byte	0xad
 3763 0907 01       		.byte	0x1
 3764 0908 01       		.byte	0x1
 3765 0909 07       		.byte	0x7
 3766 090a 09       		.byte	0x9
 3767 090b 0A       		.uleb128 0xa
 3768 090c 69110000 		.4byte	.LASF163
 3769 0910 0D       		.byte	0xd
 3770 0911 AE       		.byte	0xae
 3771 0912 AD000000 		.4byte	0xad
 3772 0916 01       		.byte	0x1
 3773 0917 01       		.byte	0x1
 3774 0918 06       		.byte	0x6
 3775 0919 09       		.byte	0x9
 3776 091a 00       		.byte	0
 3777 091b 0D       		.uleb128 0xd
 3778 091c 04       		.byte	0x4
ARM GAS  C:\Users\pearlstl\AppData\Local\Temp\cciL9yyu.s 			page 91


 3779 091d 21090000 		.4byte	0x921
 3780 0921 0E       		.uleb128 0xe
 3781 0922 CB050000 		.4byte	0x5cb
 3782 0926 02       		.uleb128 0x2
 3783 0927 BB000000 		.4byte	.LASF164
 3784 092b 0D       		.byte	0xd
 3785 092c B0       		.byte	0xb0
 3786 092d C4080000 		.4byte	0x8c4
 3787 0931 02       		.uleb128 0x2
 3788 0932 B00A0000 		.4byte	.LASF165
 3789 0936 0D       		.byte	0xd
 3790 0937 B9       		.byte	0xb9
 3791 0938 AD000000 		.4byte	0xad
 3792 093c 0D       		.uleb128 0xd
 3793 093d 04       		.byte	0x4
 3794 093e 42090000 		.4byte	0x942
 3795 0942 0E       		.uleb128 0xe
 3796 0943 00050000 		.4byte	0x500
 3797 0947 02       		.uleb128 0x2
 3798 0948 4A0D0000 		.4byte	.LASF166
 3799 094c 0D       		.byte	0xd
 3800 094d F0       		.byte	0xf0
 3801 094e CB050000 		.4byte	0x5cb
 3802 0952 13       		.uleb128 0x13
 3803 0953 01       		.byte	0x1
 3804 0954 42000000 		.4byte	0x42
 3805 0958 0D       		.byte	0xd
 3806 0959 F3       		.byte	0xf3
 3807 095a 89090000 		.4byte	0x989
 3808 095e 14       		.uleb128 0x14
 3809 095f CD0A0000 		.4byte	.LASF167
 3810 0963 00       		.byte	0
 3811 0964 14       		.uleb128 0x14
 3812 0965 E10D0000 		.4byte	.LASF168
 3813 0969 01       		.byte	0x1
 3814 096a 14       		.uleb128 0x14
 3815 096b 86040000 		.4byte	.LASF169
 3816 096f 02       		.byte	0x2
 3817 0970 14       		.uleb128 0x14
 3818 0971 64000000 		.4byte	.LASF170
 3819 0975 04       		.byte	0x4
 3820 0976 14       		.uleb128 0x14
 3821 0977 76060000 		.4byte	.LASF171
 3822 097b 08       		.byte	0x8
 3823 097c 14       		.uleb128 0x14
 3824 097d F60D0000 		.4byte	.LASF172
 3825 0981 10       		.byte	0x10
 3826 0982 14       		.uleb128 0x14
 3827 0983 D30B0000 		.4byte	.LASF173
 3828 0987 20       		.byte	0x20
 3829 0988 00       		.byte	0
 3830 0989 13       		.uleb128 0x13
 3831 098a 01       		.byte	0x1
 3832 098b 42000000 		.4byte	0x42
 3833 098f 03       		.byte	0x3
 3834 0990 23       		.byte	0x23
 3835 0991 D8090000 		.4byte	0x9d8
ARM GAS  C:\Users\pearlstl\AppData\Local\Temp\cciL9yyu.s 			page 92


 3836 0995 14       		.uleb128 0x14
 3837 0996 A4070000 		.4byte	.LASF174
 3838 099a 00       		.byte	0
 3839 099b 14       		.uleb128 0x14
 3840 099c E5100000 		.4byte	.LASF175
 3841 09a0 01       		.byte	0x1
 3842 09a1 14       		.uleb128 0x14
 3843 09a2 86050000 		.4byte	.LASF176
 3844 09a6 02       		.byte	0x2
 3845 09a7 14       		.uleb128 0x14
 3846 09a8 96050000 		.4byte	.LASF177
 3847 09ac 03       		.byte	0x3
 3848 09ad 14       		.uleb128 0x14
 3849 09ae A6050000 		.4byte	.LASF178
 3850 09b2 04       		.byte	0x4
 3851 09b3 14       		.uleb128 0x14
 3852 09b4 89030000 		.4byte	.LASF179
 3853 09b8 05       		.byte	0x5
 3854 09b9 14       		.uleb128 0x14
 3855 09ba 79030000 		.4byte	.LASF180
 3856 09be 06       		.byte	0x6
 3857 09bf 14       		.uleb128 0x14
 3858 09c0 4B030000 		.4byte	.LASF181
 3859 09c4 07       		.byte	0x7
 3860 09c5 14       		.uleb128 0x14
 3861 09c6 63030000 		.4byte	.LASF182
 3862 09ca 08       		.byte	0x8
 3863 09cb 14       		.uleb128 0x14
 3864 09cc 530D0000 		.4byte	.LASF183
 3865 09d0 09       		.byte	0x9
 3866 09d1 14       		.uleb128 0x14
 3867 09d2 01050000 		.4byte	.LASF184
 3868 09d6 0A       		.byte	0xa
 3869 09d7 00       		.byte	0
 3870 09d8 02       		.uleb128 0x2
 3871 09d9 620F0000 		.4byte	.LASF185
 3872 09dd 03       		.byte	0x3
 3873 09de 30       		.byte	0x30
 3874 09df AD000000 		.4byte	0xad
 3875 09e3 13       		.uleb128 0x13
 3876 09e4 01       		.byte	0x1
 3877 09e5 42000000 		.4byte	0x42
 3878 09e9 03       		.byte	0x3
 3879 09ea 35       		.byte	0x35
 3880 09eb 0E0A0000 		.4byte	0xa0e
 3881 09ef 14       		.uleb128 0x14
 3882 09f0 CF010000 		.4byte	.LASF186
 3883 09f4 00       		.byte	0
 3884 09f5 14       		.uleb128 0x14
 3885 09f6 14100000 		.4byte	.LASF187
 3886 09fa 01       		.byte	0x1
 3887 09fb 14       		.uleb128 0x14
 3888 09fc 69070000 		.4byte	.LASF188
 3889 0a00 02       		.byte	0x2
 3890 0a01 14       		.uleb128 0x14
 3891 0a02 880D0000 		.4byte	.LASF189
 3892 0a06 03       		.byte	0x3
ARM GAS  C:\Users\pearlstl\AppData\Local\Temp\cciL9yyu.s 			page 93


 3893 0a07 14       		.uleb128 0x14
 3894 0a08 3E0D0000 		.4byte	.LASF190
 3895 0a0c 04       		.byte	0x4
 3896 0a0d 00       		.byte	0
 3897 0a0e 02       		.uleb128 0x2
 3898 0a0f 730C0000 		.4byte	.LASF191
 3899 0a13 03       		.byte	0x3
 3900 0a14 3D       		.byte	0x3d
 3901 0a15 AD000000 		.4byte	0xad
 3902 0a19 06       		.uleb128 0x6
 3903 0a1a 02       		.byte	0x2
 3904 0a1b 03       		.byte	0x3
 3905 0a1c 3F       		.byte	0x3f
 3906 0a1d 6D0A0000 		.4byte	0xa6d
 3907 0a21 0A       		.uleb128 0xa
 3908 0a22 FC080000 		.4byte	.LASF192
 3909 0a26 03       		.byte	0x3
 3910 0a27 43       		.byte	0x43
 3911 0a28 AD000000 		.4byte	0xad
 3912 0a2c 01       		.byte	0x1
 3913 0a2d 04       		.byte	0x4
 3914 0a2e 04       		.byte	0x4
 3915 0a2f 00       		.byte	0
 3916 0a30 0A       		.uleb128 0xa
 3917 0a31 0B0A0000 		.4byte	.LASF193
 3918 0a35 03       		.byte	0x3
 3919 0a36 44       		.byte	0x44
 3920 0a37 AD000000 		.4byte	0xad
 3921 0a3b 01       		.byte	0x1
 3922 0a3c 02       		.byte	0x2
 3923 0a3d 02       		.byte	0x2
 3924 0a3e 00       		.byte	0
 3925 0a3f 0A       		.uleb128 0xa
 3926 0a40 340D0000 		.4byte	.LASF194
 3927 0a44 03       		.byte	0x3
 3928 0a45 45       		.byte	0x45
 3929 0a46 AD000000 		.4byte	0xad
 3930 0a4a 01       		.byte	0x1
 3931 0a4b 02       		.byte	0x2
 3932 0a4c 00       		.byte	0
 3933 0a4d 00       		.byte	0
 3934 0a4e 0A       		.uleb128 0xa
 3935 0a4f FD030000 		.4byte	.LASF195
 3936 0a53 03       		.byte	0x3
 3937 0a54 46       		.byte	0x46
 3938 0a55 AD000000 		.4byte	0xad
 3939 0a59 01       		.byte	0x1
 3940 0a5a 02       		.byte	0x2
 3941 0a5b 06       		.byte	0x6
 3942 0a5c 01       		.byte	0x1
 3943 0a5d 0A       		.uleb128 0xa
 3944 0a5e 7C0C0000 		.4byte	.LASF196
 3945 0a62 03       		.byte	0x3
 3946 0a63 47       		.byte	0x47
 3947 0a64 AD000000 		.4byte	0xad
 3948 0a68 01       		.byte	0x1
 3949 0a69 02       		.byte	0x2
ARM GAS  C:\Users\pearlstl\AppData\Local\Temp\cciL9yyu.s 			page 94


 3950 0a6a 04       		.byte	0x4
 3951 0a6b 01       		.byte	0x1
 3952 0a6c 00       		.byte	0
 3953 0a6d 02       		.uleb128 0x2
 3954 0a6e 4E090000 		.4byte	.LASF197
 3955 0a72 03       		.byte	0x3
 3956 0a73 48       		.byte	0x48
 3957 0a74 190A0000 		.4byte	0xa19
 3958 0a78 13       		.uleb128 0x13
 3959 0a79 01       		.byte	0x1
 3960 0a7a 42000000 		.4byte	0x42
 3961 0a7e 03       		.byte	0x3
 3962 0a7f 4B       		.byte	0x4b
 3963 0a80 8B0A0000 		.4byte	0xa8b
 3964 0a84 14       		.uleb128 0x14
 3965 0a85 2C030000 		.4byte	.LASF198
 3966 0a89 00       		.byte	0
 3967 0a8a 00       		.byte	0
 3968 0a8b 02       		.uleb128 0x2
 3969 0a8c 13070000 		.4byte	.LASF199
 3970 0a90 03       		.byte	0x3
 3971 0a91 4E       		.byte	0x4e
 3972 0a92 AD000000 		.4byte	0xad
 3973 0a96 06       		.uleb128 0x6
 3974 0a97 14       		.byte	0x14
 3975 0a98 0E       		.byte	0xe
 3976 0a99 34       		.byte	0x34
 3977 0a9a DA0A0000 		.4byte	0xada
 3978 0a9e 08       		.uleb128 0x8
 3979 0a9f 72656C00 		.ascii	"rel\000"
 3980 0aa3 0E       		.byte	0xe
 3981 0aa4 36       		.byte	0x36
 3982 0aa5 0B050000 		.4byte	0x50b
 3983 0aa9 00       		.byte	0
 3984 0aaa 08       		.uleb128 0x8
 3985 0aab 707200   		.ascii	"pr\000"
 3986 0aae 0E       		.byte	0xe
 3987 0aaf 37       		.byte	0x37
 3988 0ab0 0B050000 		.4byte	0x50b
 3989 0ab4 04       		.byte	0x4
 3990 0ab5 07       		.uleb128 0x7
 3991 0ab6 8A090000 		.4byte	.LASF200
 3992 0aba 0E       		.byte	0xe
 3993 0abb 38       		.byte	0x38
 3994 0abc 0B050000 		.4byte	0x50b
 3995 0ac0 08       		.byte	0x8
 3996 0ac1 07       		.uleb128 0x7
 3997 0ac2 F6030000 		.4byte	.LASF201
 3998 0ac6 0E       		.byte	0xe
 3999 0ac7 39       		.byte	0x39
 4000 0ac8 0B050000 		.4byte	0x50b
 4001 0acc 0C       		.byte	0xc
 4002 0acd 08       		.uleb128 0x8
 4003 0ace 696E6100 		.ascii	"ina\000"
 4004 0ad2 0E       		.byte	0xe
 4005 0ad3 3A       		.byte	0x3a
 4006 0ad4 0B050000 		.4byte	0x50b
ARM GAS  C:\Users\pearlstl\AppData\Local\Temp\cciL9yyu.s 			page 95


 4007 0ad8 10       		.byte	0x10
 4008 0ad9 00       		.byte	0
 4009 0ada 06       		.uleb128 0x6
 4010 0adb 14       		.byte	0x14
 4011 0adc 0E       		.byte	0xe
 4012 0add 3F       		.byte	0x3f
 4013 0ade 1E0B0000 		.4byte	0xb1e
 4014 0ae2 08       		.uleb128 0x8
 4015 0ae3 72656C00 		.ascii	"rel\000"
 4016 0ae7 0E       		.byte	0xe
 4017 0ae8 41       		.byte	0x41
 4018 0ae9 0B050000 		.4byte	0x50b
 4019 0aed 00       		.byte	0
 4020 0aee 08       		.uleb128 0x8
 4021 0aef 707200   		.ascii	"pr\000"
 4022 0af2 0E       		.byte	0xe
 4023 0af3 42       		.byte	0x42
 4024 0af4 0B050000 		.4byte	0x50b
 4025 0af8 04       		.byte	0x4
 4026 0af9 07       		.uleb128 0x7
 4027 0afa 8A090000 		.4byte	.LASF200
 4028 0afe 0E       		.byte	0xe
 4029 0aff 43       		.byte	0x43
 4030 0b00 0B050000 		.4byte	0x50b
 4031 0b04 08       		.byte	0x8
 4032 0b05 07       		.uleb128 0x7
 4033 0b06 F6030000 		.4byte	.LASF201
 4034 0b0a 0E       		.byte	0xe
 4035 0b0b 44       		.byte	0x44
 4036 0b0c 0B050000 		.4byte	0x50b
 4037 0b10 0C       		.byte	0xc
 4038 0b11 08       		.uleb128 0x8
 4039 0b12 696E6100 		.ascii	"ina\000"
 4040 0b16 0E       		.byte	0xe
 4041 0b17 45       		.byte	0x45
 4042 0b18 0B050000 		.4byte	0x50b
 4043 0b1c 10       		.byte	0x10
 4044 0b1d 00       		.byte	0
 4045 0b1e 06       		.uleb128 0x6
 4046 0b1f 0C       		.byte	0xc
 4047 0b20 0E       		.byte	0xe
 4048 0b21 4A       		.byte	0x4a
 4049 0b22 4B0B0000 		.4byte	0xb4b
 4050 0b26 07       		.uleb128 0x7
 4051 0b27 B9020000 		.4byte	.LASF202
 4052 0b2b 0E       		.byte	0xe
 4053 0b2c 4C       		.byte	0x4c
 4054 0b2d 0B050000 		.4byte	0x50b
 4055 0b31 00       		.byte	0
 4056 0b32 08       		.uleb128 0x8
 4057 0b33 73656300 		.ascii	"sec\000"
 4058 0b37 0E       		.byte	0xe
 4059 0b38 4D       		.byte	0x4d
 4060 0b39 0B050000 		.4byte	0x50b
 4061 0b3d 04       		.byte	0x4
 4062 0b3e 07       		.uleb128 0x7
 4063 0b3f 88070000 		.4byte	.LASF203
ARM GAS  C:\Users\pearlstl\AppData\Local\Temp\cciL9yyu.s 			page 96


 4064 0b43 0E       		.byte	0xe
 4065 0b44 4E       		.byte	0x4e
 4066 0b45 0B050000 		.4byte	0x50b
 4067 0b49 08       		.byte	0x8
 4068 0b4a 00       		.byte	0
 4069 0b4b 06       		.uleb128 0x6
 4070 0b4c 08       		.byte	0x8
 4071 0b4d 0E       		.byte	0xe
 4072 0b4e 53       		.byte	0x53
 4073 0b4f 6C0B0000 		.4byte	0xb6c
 4074 0b53 07       		.uleb128 0x7
 4075 0b54 DB010000 		.4byte	.LASF204
 4076 0b58 0E       		.byte	0xe
 4077 0b59 55       		.byte	0x55
 4078 0b5a 0B050000 		.4byte	0x50b
 4079 0b5e 00       		.byte	0
 4080 0b5f 07       		.uleb128 0x7
 4081 0b60 6F100000 		.4byte	.LASF205
 4082 0b64 0E       		.byte	0xe
 4083 0b65 56       		.byte	0x56
 4084 0b66 0B050000 		.4byte	0x50b
 4085 0b6a 04       		.byte	0x4
 4086 0b6b 00       		.byte	0
 4087 0b6c 06       		.uleb128 0x6
 4088 0b6d 04       		.byte	0x4
 4089 0b6e 0E       		.byte	0xe
 4090 0b6f 5B       		.byte	0x5b
 4091 0b70 810B0000 		.4byte	0xb81
 4092 0b74 07       		.uleb128 0x7
 4093 0b75 960C0000 		.4byte	.LASF206
 4094 0b79 0E       		.byte	0xe
 4095 0b7a 5D       		.byte	0x5d
 4096 0b7b 0B050000 		.4byte	0x50b
 4097 0b7f 00       		.byte	0
 4098 0b80 00       		.byte	0
 4099 0b81 06       		.uleb128 0x6
 4100 0b82 08       		.byte	0x8
 4101 0b83 0E       		.byte	0xe
 4102 0b84 66       		.byte	0x66
 4103 0b85 A10B0000 		.4byte	0xba1
 4104 0b89 08       		.uleb128 0x8
 4105 0b8a 626700   		.ascii	"bg\000"
 4106 0b8d 0E       		.byte	0xe
 4107 0b8e 68       		.byte	0x68
 4108 0b8f 0B050000 		.4byte	0x50b
 4109 0b93 00       		.byte	0
 4110 0b94 07       		.uleb128 0x7
 4111 0b95 DC080000 		.4byte	.LASF207
 4112 0b99 0E       		.byte	0xe
 4113 0b9a 69       		.byte	0x69
 4114 0b9b 0B050000 		.4byte	0x50b
 4115 0b9f 04       		.byte	0x4
 4116 0ba0 00       		.byte	0
 4117 0ba1 06       		.uleb128 0x6
 4118 0ba2 0C       		.byte	0xc
 4119 0ba3 0E       		.byte	0xe
 4120 0ba4 6E       		.byte	0x6e
ARM GAS  C:\Users\pearlstl\AppData\Local\Temp\cciL9yyu.s 			page 97


 4121 0ba5 CD0B0000 		.4byte	0xbcd
 4122 0ba9 08       		.uleb128 0x8
 4123 0baa 626700   		.ascii	"bg\000"
 4124 0bad 0E       		.byte	0xe
 4125 0bae 70       		.byte	0x70
 4126 0baf 0B050000 		.4byte	0x50b
 4127 0bb3 00       		.byte	0
 4128 0bb4 07       		.uleb128 0x7
 4129 0bb5 DC080000 		.4byte	.LASF207
 4130 0bb9 0E       		.byte	0xe
 4131 0bba 71       		.byte	0x71
 4132 0bbb 0B050000 		.4byte	0x50b
 4133 0bbf 04       		.byte	0x4
 4134 0bc0 07       		.uleb128 0x7
 4135 0bc1 75110000 		.4byte	.LASF208
 4136 0bc5 0E       		.byte	0xe
 4137 0bc6 72       		.byte	0x72
 4138 0bc7 0B050000 		.4byte	0x50b
 4139 0bcb 08       		.byte	0x8
 4140 0bcc 00       		.byte	0
 4141 0bcd 06       		.uleb128 0x6
 4142 0bce 10       		.byte	0x10
 4143 0bcf 0E       		.byte	0xe
 4144 0bd0 87       		.byte	0x87
 4145 0bd1 050C0000 		.4byte	0xc05
 4146 0bd5 08       		.uleb128 0x8
 4147 0bd6 626700   		.ascii	"bg\000"
 4148 0bd9 0E       		.byte	0xe
 4149 0bda 89       		.byte	0x89
 4150 0bdb 0B050000 		.4byte	0x50b
 4151 0bdf 00       		.byte	0
 4152 0be0 07       		.uleb128 0x7
 4153 0be1 DC080000 		.4byte	.LASF207
 4154 0be5 0E       		.byte	0xe
 4155 0be6 8A       		.byte	0x8a
 4156 0be7 0B050000 		.4byte	0x50b
 4157 0beb 04       		.byte	0x4
 4158 0bec 07       		.uleb128 0x7
 4159 0bed 2B0A0000 		.4byte	.LASF209
 4160 0bf1 0E       		.byte	0xe
 4161 0bf2 8B       		.byte	0x8b
 4162 0bf3 0B050000 		.4byte	0x50b
 4163 0bf7 08       		.byte	0x8
 4164 0bf8 07       		.uleb128 0x7
 4165 0bf9 98040000 		.4byte	.LASF210
 4166 0bfd 0E       		.byte	0xe
 4167 0bfe 8C       		.byte	0x8c
 4168 0bff 0B050000 		.4byte	0x50b
 4169 0c03 0C       		.byte	0xc
 4170 0c04 00       		.byte	0
 4171 0c05 06       		.uleb128 0x6
 4172 0c06 20       		.byte	0x20
 4173 0c07 0E       		.byte	0xe
 4174 0c08 95       		.byte	0x95
 4175 0c09 6D0C0000 		.4byte	0xc6d
 4176 0c0d 08       		.uleb128 0x8
 4177 0c0e 626700   		.ascii	"bg\000"
ARM GAS  C:\Users\pearlstl\AppData\Local\Temp\cciL9yyu.s 			page 98


 4178 0c11 0E       		.byte	0xe
 4179 0c12 97       		.byte	0x97
 4180 0c13 0B050000 		.4byte	0x50b
 4181 0c17 00       		.byte	0
 4182 0c18 07       		.uleb128 0x7
 4183 0c19 AC040000 		.4byte	.LASF211
 4184 0c1d 0E       		.byte	0xe
 4185 0c1e 98       		.byte	0x98
 4186 0c1f 0B050000 		.4byte	0x50b
 4187 0c23 04       		.byte	0x4
 4188 0c24 07       		.uleb128 0x7
 4189 0c25 29000000 		.4byte	.LASF212
 4190 0c29 0E       		.byte	0xe
 4191 0c2a 99       		.byte	0x99
 4192 0c2b 0B050000 		.4byte	0x50b
 4193 0c2f 08       		.byte	0x8
 4194 0c30 07       		.uleb128 0x7
 4195 0c31 1E0F0000 		.4byte	.LASF213
 4196 0c35 0E       		.byte	0xe
 4197 0c36 9A       		.byte	0x9a
 4198 0c37 0B050000 		.4byte	0x50b
 4199 0c3b 0C       		.byte	0xc
 4200 0c3c 07       		.uleb128 0x7
 4201 0c3d 10010000 		.4byte	.LASF214
 4202 0c41 0E       		.byte	0xe
 4203 0c42 9B       		.byte	0x9b
 4204 0c43 0B050000 		.4byte	0x50b
 4205 0c47 10       		.byte	0x10
 4206 0c48 07       		.uleb128 0x7
 4207 0c49 2C060000 		.4byte	.LASF215
 4208 0c4d 0E       		.byte	0xe
 4209 0c4e 9C       		.byte	0x9c
 4210 0c4f 0B050000 		.4byte	0x50b
 4211 0c53 14       		.byte	0x14
 4212 0c54 07       		.uleb128 0x7
 4213 0c55 69050000 		.4byte	.LASF216
 4214 0c59 0E       		.byte	0xe
 4215 0c5a 9D       		.byte	0x9d
 4216 0c5b 0B050000 		.4byte	0x50b
 4217 0c5f 18       		.byte	0x18
 4218 0c60 07       		.uleb128 0x7
 4219 0c61 EC030000 		.4byte	.LASF217
 4220 0c65 0E       		.byte	0xe
 4221 0c66 9E       		.byte	0x9e
 4222 0c67 0B050000 		.4byte	0x50b
 4223 0c6b 1C       		.byte	0x1c
 4224 0c6c 00       		.byte	0
 4225 0c6d 06       		.uleb128 0x6
 4226 0c6e 14       		.byte	0x14
 4227 0c6f 0E       		.byte	0xe
 4228 0c70 A6       		.byte	0xa6
 4229 0c71 B10C0000 		.4byte	0xcb1
 4230 0c75 08       		.uleb128 0x8
 4231 0c76 72656C00 		.ascii	"rel\000"
 4232 0c7a 0E       		.byte	0xe
 4233 0c7b A8       		.byte	0xa8
 4234 0c7c 0B050000 		.4byte	0x50b
ARM GAS  C:\Users\pearlstl\AppData\Local\Temp\cciL9yyu.s 			page 99


 4235 0c80 00       		.byte	0
 4236 0c81 08       		.uleb128 0x8
 4237 0c82 707200   		.ascii	"pr\000"
 4238 0c85 0E       		.byte	0xe
 4239 0c86 A9       		.byte	0xa9
 4240 0c87 0B050000 		.4byte	0x50b
 4241 0c8b 04       		.byte	0x4
 4242 0c8c 07       		.uleb128 0x7
 4243 0c8d 8A090000 		.4byte	.LASF200
 4244 0c91 0E       		.byte	0xe
 4245 0c92 AA       		.byte	0xaa
 4246 0c93 0B050000 		.4byte	0x50b
 4247 0c97 08       		.byte	0x8
 4248 0c98 07       		.uleb128 0x7
 4249 0c99 F6030000 		.4byte	.LASF201
 4250 0c9d 0E       		.byte	0xe
 4251 0c9e AB       		.byte	0xab
 4252 0c9f 0B050000 		.4byte	0x50b
 4253 0ca3 0C       		.byte	0xc
 4254 0ca4 08       		.uleb128 0x8
 4255 0ca5 696E6100 		.ascii	"ina\000"
 4256 0ca9 0E       		.byte	0xe
 4257 0caa AC       		.byte	0xac
 4258 0cab 0B050000 		.4byte	0x50b
 4259 0caf 10       		.byte	0x10
 4260 0cb0 00       		.byte	0
 4261 0cb1 06       		.uleb128 0x6
 4262 0cb2 18       		.byte	0x18
 4263 0cb3 0E       		.byte	0xe
 4264 0cb4 A3       		.byte	0xa3
 4265 0cb5 D10C0000 		.4byte	0xcd1
 4266 0cb9 08       		.uleb128 0x8
 4267 0cba 626700   		.ascii	"bg\000"
 4268 0cbd 0E       		.byte	0xe
 4269 0cbe A5       		.byte	0xa5
 4270 0cbf 0B050000 		.4byte	0x50b
 4271 0cc3 00       		.byte	0
 4272 0cc4 08       		.uleb128 0x8
 4273 0cc5 626F7800 		.ascii	"box\000"
 4274 0cc9 0E       		.byte	0xe
 4275 0cca AD       		.byte	0xad
 4276 0ccb 6D0C0000 		.4byte	0xc6d
 4277 0ccf 04       		.byte	0x4
 4278 0cd0 00       		.byte	0
 4279 0cd1 06       		.uleb128 0x6
 4280 0cd2 14       		.byte	0x14
 4281 0cd3 0E       		.byte	0xe
 4282 0cd4 B5       		.byte	0xb5
 4283 0cd5 150D0000 		.4byte	0xd15
 4284 0cd9 08       		.uleb128 0x8
 4285 0cda 72656C00 		.ascii	"rel\000"
 4286 0cde 0E       		.byte	0xe
 4287 0cdf B7       		.byte	0xb7
 4288 0ce0 0B050000 		.4byte	0x50b
 4289 0ce4 00       		.byte	0
 4290 0ce5 08       		.uleb128 0x8
 4291 0ce6 707200   		.ascii	"pr\000"
ARM GAS  C:\Users\pearlstl\AppData\Local\Temp\cciL9yyu.s 			page 100


 4292 0ce9 0E       		.byte	0xe
 4293 0cea B8       		.byte	0xb8
 4294 0ceb 0B050000 		.4byte	0x50b
 4295 0cef 04       		.byte	0x4
 4296 0cf0 07       		.uleb128 0x7
 4297 0cf1 8A090000 		.4byte	.LASF200
 4298 0cf5 0E       		.byte	0xe
 4299 0cf6 B9       		.byte	0xb9
 4300 0cf7 0B050000 		.4byte	0x50b
 4301 0cfb 08       		.byte	0x8
 4302 0cfc 07       		.uleb128 0x7
 4303 0cfd F6030000 		.4byte	.LASF201
 4304 0d01 0E       		.byte	0xe
 4305 0d02 BA       		.byte	0xba
 4306 0d03 0B050000 		.4byte	0x50b
 4307 0d07 0C       		.byte	0xc
 4308 0d08 08       		.uleb128 0x8
 4309 0d09 696E6100 		.ascii	"ina\000"
 4310 0d0d 0E       		.byte	0xe
 4311 0d0e BB       		.byte	0xbb
 4312 0d0f 0B050000 		.4byte	0x50b
 4313 0d13 10       		.byte	0x10
 4314 0d14 00       		.byte	0
 4315 0d15 06       		.uleb128 0x6
 4316 0d16 18       		.byte	0x18
 4317 0d17 0E       		.byte	0xe
 4318 0d18 B2       		.byte	0xb2
 4319 0d19 350D0000 		.4byte	0xd35
 4320 0d1d 08       		.uleb128 0x8
 4321 0d1e 626700   		.ascii	"bg\000"
 4322 0d21 0E       		.byte	0xe
 4323 0d22 B4       		.byte	0xb4
 4324 0d23 0B050000 		.4byte	0x50b
 4325 0d27 00       		.byte	0
 4326 0d28 08       		.uleb128 0x8
 4327 0d29 62746E00 		.ascii	"btn\000"
 4328 0d2d 0E       		.byte	0xe
 4329 0d2e BC       		.byte	0xbc
 4330 0d2f D10C0000 		.4byte	0xcd1
 4331 0d33 04       		.byte	0x4
 4332 0d34 00       		.byte	0
 4333 0d35 06       		.uleb128 0x6
 4334 0d36 14       		.byte	0x14
 4335 0d37 0E       		.byte	0xe
 4336 0d38 C4       		.byte	0xc4
 4337 0d39 790D0000 		.4byte	0xd79
 4338 0d3d 08       		.uleb128 0x8
 4339 0d3e 72656C00 		.ascii	"rel\000"
 4340 0d42 0E       		.byte	0xe
 4341 0d43 C6       		.byte	0xc6
 4342 0d44 0B050000 		.4byte	0x50b
 4343 0d48 00       		.byte	0
 4344 0d49 08       		.uleb128 0x8
 4345 0d4a 707200   		.ascii	"pr\000"
 4346 0d4d 0E       		.byte	0xe
 4347 0d4e C7       		.byte	0xc7
 4348 0d4f 0B050000 		.4byte	0x50b
ARM GAS  C:\Users\pearlstl\AppData\Local\Temp\cciL9yyu.s 			page 101


 4349 0d53 04       		.byte	0x4
 4350 0d54 07       		.uleb128 0x7
 4351 0d55 8A090000 		.4byte	.LASF200
 4352 0d59 0E       		.byte	0xe
 4353 0d5a C8       		.byte	0xc8
 4354 0d5b 0B050000 		.4byte	0x50b
 4355 0d5f 08       		.byte	0x8
 4356 0d60 07       		.uleb128 0x7
 4357 0d61 F6030000 		.4byte	.LASF201
 4358 0d65 0E       		.byte	0xe
 4359 0d66 C9       		.byte	0xc9
 4360 0d67 0B050000 		.4byte	0x50b
 4361 0d6b 0C       		.byte	0xc
 4362 0d6c 08       		.uleb128 0x8
 4363 0d6d 696E6100 		.ascii	"ina\000"
 4364 0d71 0E       		.byte	0xe
 4365 0d72 CA       		.byte	0xca
 4366 0d73 0B050000 		.4byte	0x50b
 4367 0d77 10       		.byte	0x10
 4368 0d78 00       		.byte	0
 4369 0d79 06       		.uleb128 0x6
 4370 0d7a 18       		.byte	0x18
 4371 0d7b 0E       		.byte	0xe
 4372 0d7c C1       		.byte	0xc1
 4373 0d7d 990D0000 		.4byte	0xd99
 4374 0d81 08       		.uleb128 0x8
 4375 0d82 626700   		.ascii	"bg\000"
 4376 0d85 0E       		.byte	0xe
 4377 0d86 C3       		.byte	0xc3
 4378 0d87 0B050000 		.4byte	0x50b
 4379 0d8b 00       		.byte	0
 4380 0d8c 08       		.uleb128 0x8
 4381 0d8d 62746E00 		.ascii	"btn\000"
 4382 0d91 0E       		.byte	0xe
 4383 0d92 CB       		.byte	0xcb
 4384 0d93 350D0000 		.4byte	0xd35
 4385 0d97 04       		.byte	0x4
 4386 0d98 00       		.byte	0
 4387 0d99 06       		.uleb128 0x6
 4388 0d9a 0C       		.byte	0xc
 4389 0d9b 0E       		.byte	0xe
 4390 0d9c D3       		.byte	0xd3
 4391 0d9d C40D0000 		.4byte	0xdc4
 4392 0da1 08       		.uleb128 0x8
 4393 0da2 626700   		.ascii	"bg\000"
 4394 0da5 0E       		.byte	0xe
 4395 0da6 D5       		.byte	0xd5
 4396 0da7 0B050000 		.4byte	0x50b
 4397 0dab 00       		.byte	0
 4398 0dac 08       		.uleb128 0x8
 4399 0dad 72656C00 		.ascii	"rel\000"
 4400 0db1 0E       		.byte	0xe
 4401 0db2 D6       		.byte	0xd6
 4402 0db3 0B050000 		.4byte	0x50b
 4403 0db7 04       		.byte	0x4
 4404 0db8 08       		.uleb128 0x8
 4405 0db9 707200   		.ascii	"pr\000"
ARM GAS  C:\Users\pearlstl\AppData\Local\Temp\cciL9yyu.s 			page 102


 4406 0dbc 0E       		.byte	0xe
 4407 0dbd D7       		.byte	0xd7
 4408 0dbe 0B050000 		.4byte	0x50b
 4409 0dc2 08       		.byte	0x8
 4410 0dc3 00       		.byte	0
 4411 0dc4 06       		.uleb128 0x6
 4412 0dc5 10       		.byte	0x10
 4413 0dc6 0E       		.byte	0xe
 4414 0dc7 D0       		.byte	0xd0
 4415 0dc8 E40D0000 		.4byte	0xde4
 4416 0dcc 08       		.uleb128 0x8
 4417 0dcd 626700   		.ascii	"bg\000"
 4418 0dd0 0E       		.byte	0xe
 4419 0dd1 D2       		.byte	0xd2
 4420 0dd2 0B050000 		.4byte	0x50b
 4421 0dd6 00       		.byte	0
 4422 0dd7 08       		.uleb128 0x8
 4423 0dd8 62746E00 		.ascii	"btn\000"
 4424 0ddc 0E       		.byte	0xe
 4425 0ddd D8       		.byte	0xd8
 4426 0dde 990D0000 		.4byte	0xd99
 4427 0de2 04       		.byte	0x4
 4428 0de3 00       		.byte	0
 4429 0de4 06       		.uleb128 0x6
 4430 0de5 0C       		.byte	0xc
 4431 0de6 0E       		.byte	0xe
 4432 0de7 DD       		.byte	0xdd
 4433 0de8 0F0E0000 		.4byte	0xe0f
 4434 0dec 08       		.uleb128 0x8
 4435 0ded 626700   		.ascii	"bg\000"
 4436 0df0 0E       		.byte	0xe
 4437 0df1 DF       		.byte	0xdf
 4438 0df2 0B050000 		.4byte	0x50b
 4439 0df6 00       		.byte	0
 4440 0df7 07       		.uleb128 0x7
 4441 0df8 16040000 		.4byte	.LASF218
 4442 0dfc 0E       		.byte	0xe
 4443 0dfd E0       		.byte	0xe0
 4444 0dfe 0B050000 		.4byte	0x50b
 4445 0e02 04       		.byte	0x4
 4446 0e03 08       		.uleb128 0x8
 4447 0e04 736200   		.ascii	"sb\000"
 4448 0e07 0E       		.byte	0xe
 4449 0e08 E1       		.byte	0xe1
 4450 0e09 0B050000 		.4byte	0x50b
 4451 0e0d 08       		.byte	0x8
 4452 0e0e 00       		.byte	0
 4453 0e0f 06       		.uleb128 0x6
 4454 0e10 10       		.byte	0x10
 4455 0e11 0E       		.byte	0xe
 4456 0e12 E6       		.byte	0xe6
 4457 0e13 470E0000 		.4byte	0xe47
 4458 0e17 07       		.uleb128 0x7
 4459 0e18 23070000 		.4byte	.LASF219
 4460 0e1c 0E       		.byte	0xe
 4461 0e1d E8       		.byte	0xe8
 4462 0e1e 0B050000 		.4byte	0x50b
ARM GAS  C:\Users\pearlstl\AppData\Local\Temp\cciL9yyu.s 			page 103


 4463 0e22 00       		.byte	0
 4464 0e23 07       		.uleb128 0x7
 4465 0e24 25080000 		.4byte	.LASF220
 4466 0e28 0E       		.byte	0xe
 4467 0e29 E9       		.byte	0xe9
 4468 0e2a 0B050000 		.4byte	0x50b
 4469 0e2e 04       		.byte	0x4
 4470 0e2f 07       		.uleb128 0x7
 4471 0e30 BC110000 		.4byte	.LASF221
 4472 0e34 0E       		.byte	0xe
 4473 0e35 EA       		.byte	0xea
 4474 0e36 0B050000 		.4byte	0x50b
 4475 0e3a 08       		.byte	0x8
 4476 0e3b 08       		.uleb128 0x8
 4477 0e3c 736200   		.ascii	"sb\000"
 4478 0e3f 0E       		.byte	0xe
 4479 0e40 EB       		.byte	0xeb
 4480 0e41 0B050000 		.4byte	0x50b
 4481 0e45 0C       		.byte	0xc
 4482 0e46 00       		.byte	0
 4483 0e47 06       		.uleb128 0x6
 4484 0e48 0C       		.byte	0xc
 4485 0e49 0E       		.byte	0xe
 4486 0e4a F0       		.byte	0xf0
 4487 0e4b 720E0000 		.4byte	0xe72
 4488 0e4f 08       		.uleb128 0x8
 4489 0e50 626700   		.ascii	"bg\000"
 4490 0e53 0E       		.byte	0xe
 4491 0e54 F2       		.byte	0xf2
 4492 0e55 0B050000 		.4byte	0x50b
 4493 0e59 00       		.byte	0
 4494 0e5a 07       		.uleb128 0x7
 4495 0e5b BC110000 		.4byte	.LASF221
 4496 0e5f 0E       		.byte	0xe
 4497 0e60 F3       		.byte	0xf3
 4498 0e61 0B050000 		.4byte	0x50b
 4499 0e65 04       		.byte	0x4
 4500 0e66 08       		.uleb128 0x8
 4501 0e67 736200   		.ascii	"sb\000"
 4502 0e6a 0E       		.byte	0xe
 4503 0e6b F4       		.byte	0xf4
 4504 0e6c 0B050000 		.4byte	0x50b
 4505 0e70 08       		.byte	0x8
 4506 0e71 00       		.byte	0
 4507 0e72 06       		.uleb128 0x6
 4508 0e73 14       		.byte	0x14
 4509 0e74 0E       		.byte	0xe
 4510 0e75 FE       		.byte	0xfe
 4511 0e76 BB0E0000 		.4byte	0xebb
 4512 0e7a 17       		.uleb128 0x17
 4513 0e7b 72656C00 		.ascii	"rel\000"
 4514 0e7f 0E       		.byte	0xe
 4515 0e80 0001     		.2byte	0x100
 4516 0e82 0B050000 		.4byte	0x50b
 4517 0e86 00       		.byte	0
 4518 0e87 17       		.uleb128 0x17
 4519 0e88 707200   		.ascii	"pr\000"
ARM GAS  C:\Users\pearlstl\AppData\Local\Temp\cciL9yyu.s 			page 104


 4520 0e8b 0E       		.byte	0xe
 4521 0e8c 0101     		.2byte	0x101
 4522 0e8e 0B050000 		.4byte	0x50b
 4523 0e92 04       		.byte	0x4
 4524 0e93 18       		.uleb128 0x18
 4525 0e94 8A090000 		.4byte	.LASF200
 4526 0e98 0E       		.byte	0xe
 4527 0e99 0201     		.2byte	0x102
 4528 0e9b 0B050000 		.4byte	0x50b
 4529 0e9f 08       		.byte	0x8
 4530 0ea0 18       		.uleb128 0x18
 4531 0ea1 F6030000 		.4byte	.LASF201
 4532 0ea5 0E       		.byte	0xe
 4533 0ea6 0301     		.2byte	0x103
 4534 0ea8 0B050000 		.4byte	0x50b
 4535 0eac 0C       		.byte	0xc
 4536 0ead 17       		.uleb128 0x17
 4537 0eae 696E6100 		.ascii	"ina\000"
 4538 0eb2 0E       		.byte	0xe
 4539 0eb3 0401     		.2byte	0x104
 4540 0eb5 0B050000 		.4byte	0x50b
 4541 0eb9 10       		.byte	0x10
 4542 0eba 00       		.byte	0
 4543 0ebb 06       		.uleb128 0x6
 4544 0ebc 20       		.byte	0x20
 4545 0ebd 0E       		.byte	0xe
 4546 0ebe F9       		.byte	0xf9
 4547 0ebf F30E0000 		.4byte	0xef3
 4548 0ec3 08       		.uleb128 0x8
 4549 0ec4 626700   		.ascii	"bg\000"
 4550 0ec7 0E       		.byte	0xe
 4551 0ec8 FB       		.byte	0xfb
 4552 0ec9 0B050000 		.4byte	0x50b
 4553 0ecd 00       		.byte	0
 4554 0ece 07       		.uleb128 0x7
 4555 0ecf 16040000 		.4byte	.LASF218
 4556 0ed3 0E       		.byte	0xe
 4557 0ed4 FC       		.byte	0xfc
 4558 0ed5 0B050000 		.4byte	0x50b
 4559 0ed9 04       		.byte	0x4
 4560 0eda 08       		.uleb128 0x8
 4561 0edb 736200   		.ascii	"sb\000"
 4562 0ede 0E       		.byte	0xe
 4563 0edf FD       		.byte	0xfd
 4564 0ee0 0B050000 		.4byte	0x50b
 4565 0ee4 08       		.byte	0x8
 4566 0ee5 17       		.uleb128 0x17
 4567 0ee6 62746E00 		.ascii	"btn\000"
 4568 0eea 0E       		.byte	0xe
 4569 0eeb 0501     		.2byte	0x105
 4570 0eed 720E0000 		.4byte	0xe72
 4571 0ef1 0C       		.byte	0xc
 4572 0ef2 00       		.byte	0
 4573 0ef3 19       		.uleb128 0x19
 4574 0ef4 0C       		.byte	0xc
 4575 0ef5 0E       		.byte	0xe
 4576 0ef6 0A01     		.2byte	0x10a
ARM GAS  C:\Users\pearlstl\AppData\Local\Temp\cciL9yyu.s 			page 105


 4577 0ef8 220F0000 		.4byte	0xf22
 4578 0efc 17       		.uleb128 0x17
 4579 0efd 626700   		.ascii	"bg\000"
 4580 0f00 0E       		.byte	0xe
 4581 0f01 0C01     		.2byte	0x10c
 4582 0f03 0B050000 		.4byte	0x50b
 4583 0f07 00       		.byte	0
 4584 0f08 17       		.uleb128 0x17
 4585 0f09 73656C00 		.ascii	"sel\000"
 4586 0f0d 0E       		.byte	0xe
 4587 0f0e 0D01     		.2byte	0x10d
 4588 0f10 0B050000 		.4byte	0x50b
 4589 0f14 04       		.byte	0x4
 4590 0f15 17       		.uleb128 0x17
 4591 0f16 736200   		.ascii	"sb\000"
 4592 0f19 0E       		.byte	0xe
 4593 0f1a 0E01     		.2byte	0x10e
 4594 0f1c 0B050000 		.4byte	0x50b
 4595 0f20 08       		.byte	0x8
 4596 0f21 00       		.byte	0
 4597 0f22 19       		.uleb128 0x19
 4598 0f23 08       		.byte	0x8
 4599 0f24 0E       		.byte	0xe
 4600 0f25 1301     		.2byte	0x113
 4601 0f27 450F0000 		.4byte	0xf45
 4602 0f2b 17       		.uleb128 0x17
 4603 0f2c 626700   		.ascii	"bg\000"
 4604 0f2f 0E       		.byte	0xe
 4605 0f30 1501     		.2byte	0x115
 4606 0f32 0B050000 		.4byte	0x50b
 4607 0f36 00       		.byte	0
 4608 0f37 17       		.uleb128 0x17
 4609 0f38 73656C00 		.ascii	"sel\000"
 4610 0f3c 0E       		.byte	0xe
 4611 0f3d 1601     		.2byte	0x116
 4612 0f3f 0B050000 		.4byte	0x50b
 4613 0f43 04       		.byte	0x4
 4614 0f44 00       		.byte	0
 4615 0f45 19       		.uleb128 0x19
 4616 0f46 14       		.byte	0x14
 4617 0f47 0E       		.byte	0xe
 4618 0f48 1F01     		.2byte	0x11f
 4619 0f4a 8E0F0000 		.4byte	0xf8e
 4620 0f4e 17       		.uleb128 0x17
 4621 0f4f 626700   		.ascii	"bg\000"
 4622 0f52 0E       		.byte	0xe
 4623 0f53 2101     		.2byte	0x121
 4624 0f55 0B050000 		.4byte	0x50b
 4625 0f59 00       		.byte	0
 4626 0f5a 17       		.uleb128 0x17
 4627 0f5b 72656C00 		.ascii	"rel\000"
 4628 0f5f 0E       		.byte	0xe
 4629 0f60 2201     		.2byte	0x122
 4630 0f62 0B050000 		.4byte	0x50b
 4631 0f66 04       		.byte	0x4
 4632 0f67 17       		.uleb128 0x17
 4633 0f68 707200   		.ascii	"pr\000"
ARM GAS  C:\Users\pearlstl\AppData\Local\Temp\cciL9yyu.s 			page 106


 4634 0f6b 0E       		.byte	0xe
 4635 0f6c 2301     		.2byte	0x123
 4636 0f6e 0B050000 		.4byte	0x50b
 4637 0f72 08       		.byte	0x8
 4638 0f73 18       		.uleb128 0x18
 4639 0f74 8A090000 		.4byte	.LASF200
 4640 0f78 0E       		.byte	0xe
 4641 0f79 2401     		.2byte	0x124
 4642 0f7b 0B050000 		.4byte	0x50b
 4643 0f7f 0C       		.byte	0xc
 4644 0f80 18       		.uleb128 0x18
 4645 0f81 F6030000 		.4byte	.LASF201
 4646 0f85 0E       		.byte	0xe
 4647 0f86 2501     		.2byte	0x125
 4648 0f88 0B050000 		.4byte	0x50b
 4649 0f8c 10       		.byte	0x10
 4650 0f8d 00       		.byte	0
 4651 0f8e 19       		.uleb128 0x19
 4652 0f8f 1C       		.byte	0x1c
 4653 0f90 0E       		.byte	0xe
 4654 0f91 1B01     		.2byte	0x11b
 4655 0f93 BE0F0000 		.4byte	0xfbe
 4656 0f97 17       		.uleb128 0x17
 4657 0f98 626700   		.ascii	"bg\000"
 4658 0f9b 0E       		.byte	0xe
 4659 0f9c 1D01     		.2byte	0x11d
 4660 0f9e 0B050000 		.4byte	0x50b
 4661 0fa2 00       		.byte	0
 4662 0fa3 18       		.uleb128 0x18
 4663 0fa4 DC080000 		.4byte	.LASF207
 4664 0fa8 0E       		.byte	0xe
 4665 0fa9 1E01     		.2byte	0x11e
 4666 0fab 0B050000 		.4byte	0x50b
 4667 0faf 04       		.byte	0x4
 4668 0fb0 17       		.uleb128 0x17
 4669 0fb1 62746E00 		.ascii	"btn\000"
 4670 0fb5 0E       		.byte	0xe
 4671 0fb6 2601     		.2byte	0x126
 4672 0fb8 450F0000 		.4byte	0xf45
 4673 0fbc 08       		.byte	0x8
 4674 0fbd 00       		.byte	0
 4675 0fbe 19       		.uleb128 0x19
 4676 0fbf 0C       		.byte	0xc
 4677 0fc0 0E       		.byte	0xe
 4678 0fc1 2B01     		.2byte	0x12b
 4679 0fc3 ED0F0000 		.4byte	0xfed
 4680 0fc7 17       		.uleb128 0x17
 4681 0fc8 626700   		.ascii	"bg\000"
 4682 0fcb 0E       		.byte	0xe
 4683 0fcc 2D01     		.2byte	0x12d
 4684 0fce 0B050000 		.4byte	0x50b
 4685 0fd2 00       		.byte	0
 4686 0fd3 18       		.uleb128 0x18
 4687 0fd4 16040000 		.4byte	.LASF218
 4688 0fd8 0E       		.byte	0xe
 4689 0fd9 2E01     		.2byte	0x12e
 4690 0fdb 0B050000 		.4byte	0x50b
ARM GAS  C:\Users\pearlstl\AppData\Local\Temp\cciL9yyu.s 			page 107


 4691 0fdf 04       		.byte	0x4
 4692 0fe0 17       		.uleb128 0x17
 4693 0fe1 736200   		.ascii	"sb\000"
 4694 0fe4 0E       		.byte	0xe
 4695 0fe5 2F01     		.2byte	0x12f
 4696 0fe7 0B050000 		.4byte	0x50b
 4697 0feb 08       		.byte	0x8
 4698 0fec 00       		.byte	0
 4699 0fed 19       		.uleb128 0x19
 4700 0fee 08       		.byte	0x8
 4701 0fef 0E       		.byte	0xe
 4702 0ff0 3401     		.2byte	0x134
 4703 0ff2 10100000 		.4byte	0x1010
 4704 0ff6 17       		.uleb128 0x17
 4705 0ff7 626700   		.ascii	"bg\000"
 4706 0ffa 0E       		.byte	0xe
 4707 0ffb 3601     		.2byte	0x136
 4708 0ffd 0B050000 		.4byte	0x50b
 4709 1001 00       		.byte	0
 4710 1002 18       		.uleb128 0x18
 4711 1003 49000000 		.4byte	.LASF222
 4712 1007 0E       		.byte	0xe
 4713 1008 3701     		.2byte	0x137
 4714 100a 0B050000 		.4byte	0x50b
 4715 100e 04       		.byte	0x4
 4716 100f 00       		.byte	0
 4717 1010 19       		.uleb128 0x19
 4718 1011 08       		.byte	0x8
 4719 1012 0E       		.byte	0xe
 4720 1013 4201     		.2byte	0x142
 4721 1015 33100000 		.4byte	0x1033
 4722 1019 17       		.uleb128 0x17
 4723 101a 72656C00 		.ascii	"rel\000"
 4724 101e 0E       		.byte	0xe
 4725 101f 4401     		.2byte	0x144
 4726 1021 0B050000 		.4byte	0x50b
 4727 1025 00       		.byte	0
 4728 1026 17       		.uleb128 0x17
 4729 1027 707200   		.ascii	"pr\000"
 4730 102a 0E       		.byte	0xe
 4731 102b 4501     		.2byte	0x145
 4732 102d 0B050000 		.4byte	0x50b
 4733 1031 04       		.byte	0x4
 4734 1032 00       		.byte	0
 4735 1033 19       		.uleb128 0x19
 4736 1034 18       		.byte	0x18
 4737 1035 0E       		.byte	0xe
 4738 1036 3C01     		.2byte	0x13c
 4739 1038 7C100000 		.4byte	0x107c
 4740 103c 17       		.uleb128 0x17
 4741 103d 626700   		.ascii	"bg\000"
 4742 1040 0E       		.byte	0xe
 4743 1041 3E01     		.2byte	0x13e
 4744 1043 0B050000 		.4byte	0x50b
 4745 1047 00       		.byte	0
 4746 1048 17       		.uleb128 0x17
 4747 1049 736200   		.ascii	"sb\000"
ARM GAS  C:\Users\pearlstl\AppData\Local\Temp\cciL9yyu.s 			page 108


 4748 104c 0E       		.byte	0xe
 4749 104d 3F01     		.2byte	0x13f
 4750 104f 0B050000 		.4byte	0x50b
 4751 1053 04       		.byte	0x4
 4752 1054 18       		.uleb128 0x18
 4753 1055 AC040000 		.4byte	.LASF211
 4754 1059 0E       		.byte	0xe
 4755 105a 4001     		.2byte	0x140
 4756 105c 0B050000 		.4byte	0x50b
 4757 1060 08       		.byte	0x8
 4758 1061 18       		.uleb128 0x18
 4759 1062 EE0F0000 		.4byte	.LASF223
 4760 1066 0E       		.byte	0xe
 4761 1067 4101     		.2byte	0x141
 4762 1069 0B050000 		.4byte	0x50b
 4763 106d 0C       		.byte	0xc
 4764 106e 17       		.uleb128 0x17
 4765 106f 62746E00 		.ascii	"btn\000"
 4766 1073 0E       		.byte	0xe
 4767 1074 4601     		.2byte	0x146
 4768 1076 10100000 		.4byte	0x1010
 4769 107a 10       		.byte	0x10
 4770 107b 00       		.byte	0
 4771 107c 1A       		.uleb128 0x1a
 4772 107d A801     		.2byte	0x1a8
 4773 107f 0E       		.byte	0xe
 4774 1080 29       		.byte	0x29
 4775 1081 1E120000 		.4byte	0x121e
 4776 1085 08       		.uleb128 0x8
 4777 1086 73637200 		.ascii	"scr\000"
 4778 108a 0E       		.byte	0xe
 4779 108b 2B       		.byte	0x2b
 4780 108c 0B050000 		.4byte	0x50b
 4781 1090 00       		.byte	0
 4782 1091 08       		.uleb128 0x8
 4783 1092 626700   		.ascii	"bg\000"
 4784 1095 0E       		.byte	0xe
 4785 1096 2C       		.byte	0x2c
 4786 1097 0B050000 		.4byte	0x50b
 4787 109b 04       		.byte	0x4
 4788 109c 07       		.uleb128 0x7
 4789 109d C00C0000 		.4byte	.LASF224
 4790 10a1 0E       		.byte	0xe
 4791 10a2 2D       		.byte	0x2d
 4792 10a3 0B050000 		.4byte	0x50b
 4793 10a7 08       		.byte	0x8
 4794 10a8 07       		.uleb128 0x7
 4795 10a9 01020000 		.4byte	.LASF225
 4796 10ad 0E       		.byte	0xe
 4797 10ae 30       		.byte	0x30
 4798 10af 0B050000 		.4byte	0x50b
 4799 10b3 0C       		.byte	0xc
 4800 10b4 08       		.uleb128 0x8
 4801 10b5 62746E00 		.ascii	"btn\000"
 4802 10b9 0E       		.byte	0xe
 4803 10ba 3B       		.byte	0x3b
 4804 10bb 960A0000 		.4byte	0xa96
ARM GAS  C:\Users\pearlstl\AppData\Local\Temp\cciL9yyu.s 			page 109


 4805 10bf 10       		.byte	0x10
 4806 10c0 07       		.uleb128 0x7
 4807 10c1 9C0C0000 		.4byte	.LASF226
 4808 10c5 0E       		.byte	0xe
 4809 10c6 46       		.byte	0x46
 4810 10c7 DA0A0000 		.4byte	0xada
 4811 10cb 24       		.byte	0x24
 4812 10cc 07       		.uleb128 0x7
 4813 10cd 0C110000 		.4byte	.LASF227
 4814 10d1 0E       		.byte	0xe
 4815 10d2 4F       		.byte	0x4f
 4816 10d3 1E0B0000 		.4byte	0xb1e
 4817 10d7 38       		.byte	0x38
 4818 10d8 08       		.uleb128 0x8
 4819 10d9 696D6700 		.ascii	"img\000"
 4820 10dd 0E       		.byte	0xe
 4821 10de 57       		.byte	0x57
 4822 10df 4B0B0000 		.4byte	0xb4b
 4823 10e3 44       		.byte	0x44
 4824 10e4 07       		.uleb128 0x7
 4825 10e5 B2070000 		.4byte	.LASF70
 4826 10e9 0E       		.byte	0xe
 4827 10ea 5E       		.byte	0x5e
 4828 10eb 6C0B0000 		.4byte	0xb6c
 4829 10ef 4C       		.byte	0x4c
 4830 10f0 08       		.uleb128 0x8
 4831 10f1 6C656400 		.ascii	"led\000"
 4832 10f5 0E       		.byte	0xe
 4833 10f6 62       		.byte	0x62
 4834 10f7 0B050000 		.4byte	0x50b
 4835 10fb 50       		.byte	0x50
 4836 10fc 08       		.uleb128 0x8
 4837 10fd 62617200 		.ascii	"bar\000"
 4838 1101 0E       		.byte	0xe
 4839 1102 6A       		.byte	0x6a
 4840 1103 810B0000 		.4byte	0xb81
 4841 1107 54       		.byte	0x54
 4842 1108 07       		.uleb128 0x7
 4843 1109 20110000 		.4byte	.LASF228
 4844 110d 0E       		.byte	0xe
 4845 110e 73       		.byte	0x73
 4846 110f A10B0000 		.4byte	0xba1
 4847 1113 5C       		.byte	0x5c
 4848 1114 07       		.uleb128 0x7
 4849 1115 98000000 		.4byte	.LASF229
 4850 1119 0E       		.byte	0xe
 4851 111a 77       		.byte	0x77
 4852 111b 0B050000 		.4byte	0x50b
 4853 111f 68       		.byte	0x68
 4854 1120 07       		.uleb128 0x7
 4855 1121 340A0000 		.4byte	.LASF230
 4856 1125 0E       		.byte	0xe
 4857 1126 7B       		.byte	0x7b
 4858 1127 0B050000 		.4byte	0x50b
 4859 112b 6C       		.byte	0x6c
 4860 112c 08       		.uleb128 0x8
 4861 112d 61726300 		.ascii	"arc\000"
ARM GAS  C:\Users\pearlstl\AppData\Local\Temp\cciL9yyu.s 			page 110


 4862 1131 0E       		.byte	0xe
 4863 1132 7F       		.byte	0x7f
 4864 1133 0B050000 		.4byte	0x50b
 4865 1137 70       		.byte	0x70
 4866 1138 07       		.uleb128 0x7
 4867 1139 4E110000 		.4byte	.LASF231
 4868 113d 0E       		.byte	0xe
 4869 113e 83       		.byte	0x83
 4870 113f 0B050000 		.4byte	0x50b
 4871 1143 74       		.byte	0x74
 4872 1144 08       		.uleb128 0x8
 4873 1145 737700   		.ascii	"sw\000"
 4874 1148 0E       		.byte	0xe
 4875 1149 8D       		.byte	0x8d
 4876 114a CD0B0000 		.4byte	0xbcd
 4877 114e 78       		.byte	0x78
 4878 114f 07       		.uleb128 0x7
 4879 1150 BE020000 		.4byte	.LASF232
 4880 1154 0E       		.byte	0xe
 4881 1155 91       		.byte	0x91
 4882 1156 0B050000 		.4byte	0x50b
 4883 115a 88       		.byte	0x88
 4884 115b 07       		.uleb128 0x7
 4885 115c C50D0000 		.4byte	.LASF233
 4886 1160 0E       		.byte	0xe
 4887 1161 9F       		.byte	0x9f
 4888 1162 050C0000 		.4byte	0xc05
 4889 1166 8C       		.byte	0x8c
 4890 1167 08       		.uleb128 0x8
 4891 1168 636200   		.ascii	"cb\000"
 4892 116b 0E       		.byte	0xe
 4893 116c AE       		.byte	0xae
 4894 116d B10C0000 		.4byte	0xcb1
 4895 1171 AC       		.byte	0xac
 4896 1172 07       		.uleb128 0x7
 4897 1173 A8030000 		.4byte	.LASF234
 4898 1177 0E       		.byte	0xe
 4899 1178 BD       		.byte	0xbd
 4900 1179 150D0000 		.4byte	0xd15
 4901 117d C4       		.byte	0xc4
 4902 117e 08       		.uleb128 0x8
 4903 117f 6B6200   		.ascii	"kb\000"
 4904 1182 0E       		.byte	0xe
 4905 1183 CC       		.byte	0xcc
 4906 1184 790D0000 		.4byte	0xd79
 4907 1188 DC       		.byte	0xdc
 4908 1189 07       		.uleb128 0x7
 4909 118a 85090000 		.4byte	.LASF235
 4910 118e 0E       		.byte	0xe
 4911 118f D9       		.byte	0xd9
 4912 1190 C40D0000 		.4byte	0xdc4
 4913 1194 F4       		.byte	0xf4
 4914 1195 1B       		.uleb128 0x1b
 4915 1196 140A0000 		.4byte	.LASF236
 4916 119a 0E       		.byte	0xe
 4917 119b E2       		.byte	0xe2
 4918 119c E40D0000 		.4byte	0xde4
ARM GAS  C:\Users\pearlstl\AppData\Local\Temp\cciL9yyu.s 			page 111


 4919 11a0 0401     		.2byte	0x104
 4920 11a2 1C       		.uleb128 0x1c
 4921 11a3 746100   		.ascii	"ta\000"
 4922 11a6 0E       		.byte	0xe
 4923 11a7 EC       		.byte	0xec
 4924 11a8 0F0E0000 		.4byte	0xe0f
 4925 11ac 1001     		.2byte	0x110
 4926 11ae 1B       		.uleb128 0x1b
 4927 11af 090F0000 		.4byte	.LASF237
 4928 11b3 0E       		.byte	0xe
 4929 11b4 F5       		.byte	0xf5
 4930 11b5 470E0000 		.4byte	0xe47
 4931 11b9 2001     		.2byte	0x120
 4932 11bb 1D       		.uleb128 0x1d
 4933 11bc FB090000 		.4byte	.LASF238
 4934 11c0 0E       		.byte	0xe
 4935 11c1 0601     		.2byte	0x106
 4936 11c3 BB0E0000 		.4byte	0xebb
 4937 11c7 2C01     		.2byte	0x12c
 4938 11c9 1D       		.uleb128 0x1d
 4939 11ca F6050000 		.4byte	.LASF239
 4940 11ce 0E       		.byte	0xe
 4941 11cf 0F01     		.2byte	0x10f
 4942 11d1 F30E0000 		.4byte	0xef3
 4943 11d5 4C01     		.2byte	0x14c
 4944 11d7 1D       		.uleb128 0x1d
 4945 11d8 F1110000 		.4byte	.LASF240
 4946 11dc 0E       		.byte	0xe
 4947 11dd 1701     		.2byte	0x117
 4948 11df 220F0000 		.4byte	0xf22
 4949 11e3 5801     		.2byte	0x158
 4950 11e5 1D       		.uleb128 0x1d
 4951 11e6 03090000 		.4byte	.LASF241
 4952 11ea 0E       		.byte	0xe
 4953 11eb 2701     		.2byte	0x127
 4954 11ed 8E0F0000 		.4byte	0xf8e
 4955 11f1 6001     		.2byte	0x160
 4956 11f3 1D       		.uleb128 0x1d
 4957 11f4 0C030000 		.4byte	.LASF242
 4958 11f8 0E       		.byte	0xe
 4959 11f9 3001     		.2byte	0x130
 4960 11fb BE0F0000 		.4byte	0xfbe
 4961 11ff 7C01     		.2byte	0x17c
 4962 1201 1D       		.uleb128 0x1d
 4963 1202 E9040000 		.4byte	.LASF243
 4964 1206 0E       		.byte	0xe
 4965 1207 3801     		.2byte	0x138
 4966 1209 ED0F0000 		.4byte	0xfed
 4967 120d 8801     		.2byte	0x188
 4968 120f 1E       		.uleb128 0x1e
 4969 1210 77696E00 		.ascii	"win\000"
 4970 1214 0E       		.byte	0xe
 4971 1215 4701     		.2byte	0x147
 4972 1217 33100000 		.4byte	0x1033
 4973 121b 9001     		.2byte	0x190
 4974 121d 00       		.byte	0
 4975 121e 1A       		.uleb128 0x1a
ARM GAS  C:\Users\pearlstl\AppData\Local\Temp\cciL9yyu.s 			page 112


 4976 121f A801     		.2byte	0x1a8
 4977 1221 0E       		.byte	0xe
 4978 1222 27       		.byte	0x27
 4979 1223 35120000 		.4byte	0x1235
 4980 1227 18       		.uleb128 0x18
 4981 1228 BE0A0000 		.4byte	.LASF244
 4982 122c 0E       		.byte	0xe
 4983 122d 4901     		.2byte	0x149
 4984 122f 7C100000 		.4byte	0x107c
 4985 1233 00       		.byte	0
 4986 1234 00       		.byte	0
 4987 1235 12       		.uleb128 0x12
 4988 1236 A1060000 		.4byte	.LASF245
 4989 123a 0E       		.byte	0xe
 4990 123b 5401     		.2byte	0x154
 4991 123d 1E120000 		.4byte	0x121e
 4992 1241 1F       		.uleb128 0x1f
 4993 1242 6E0F0000 		.4byte	.LASF246
 4994 1246 02       		.byte	0x2
 4995 1247 56       		.byte	0x56
 4996 1248 D9000000 		.4byte	0xd9
 4997 124c 03       		.byte	0x3
 4998 124d 5D120000 		.4byte	0x125d
 4999 1251 20       		.uleb128 0x20
 5000 1252 44030000 		.4byte	.LASF248
 5001 1256 02       		.byte	0x2
 5002 1257 56       		.byte	0x56
 5003 1258 BA050000 		.4byte	0x5ba
 5004 125c 00       		.byte	0
 5005 125d 1F       		.uleb128 0x1f
 5006 125e 4C0C0000 		.4byte	.LASF247
 5007 1262 02       		.byte	0x2
 5008 1263 60       		.byte	0x60
 5009 1264 D9000000 		.4byte	0xd9
 5010 1268 03       		.byte	0x3
 5011 1269 79120000 		.4byte	0x1279
 5012 126d 20       		.uleb128 0x20
 5013 126e 44030000 		.4byte	.LASF248
 5014 1272 02       		.byte	0x2
 5015 1273 60       		.byte	0x60
 5016 1274 BA050000 		.4byte	0x5ba
 5017 1278 00       		.byte	0
 5018 1279 21       		.uleb128 0x21
 5019 127a F4040000 		.4byte	.LASF250
 5020 127e 02       		.byte	0x2
 5021 127f 4C       		.byte	0x4c
 5022 1280 03       		.byte	0x3
 5023 1281 9C120000 		.4byte	0x129c
 5024 1285 20       		.uleb128 0x20
 5025 1286 DB0C0000 		.4byte	.LASF249
 5026 128a 02       		.byte	0x2
 5027 128b 4C       		.byte	0x4c
 5028 128c C5050000 		.4byte	0x5c5
 5029 1290 22       		.uleb128 0x22
 5030 1291 73726300 		.ascii	"src\000"
 5031 1295 02       		.byte	0x2
 5032 1296 4C       		.byte	0x4c
ARM GAS  C:\Users\pearlstl\AppData\Local\Temp\cciL9yyu.s 			page 113


 5033 1297 BA050000 		.4byte	0x5ba
 5034 129b 00       		.byte	0
 5035 129c 21       		.uleb128 0x21
 5036 129d 3A0A0000 		.4byte	.LASF251
 5037 12a1 03       		.byte	0x3
 5038 12a2 8F       		.byte	0x8f
 5039 12a3 03       		.byte	0x3
 5040 12a4 CA120000 		.4byte	0x12ca
 5041 12a8 20       		.uleb128 0x20
 5042 12a9 01020000 		.4byte	.LASF225
 5043 12ad 03       		.byte	0x3
 5044 12ae 8F       		.byte	0x8f
 5045 12af CA120000 		.4byte	0x12ca
 5046 12b3 20       		.uleb128 0x20
 5047 12b4 CA010000 		.4byte	.LASF48
 5048 12b8 03       		.byte	0x3
 5049 12b9 8F       		.byte	0x8f
 5050 12ba 8B0A0000 		.4byte	0xa8b
 5051 12be 20       		.uleb128 0x20
 5052 12bf BE0A0000 		.4byte	.LASF244
 5053 12c3 03       		.byte	0x3
 5054 12c4 8F       		.byte	0x8f
 5055 12c5 3C090000 		.4byte	0x93c
 5056 12c9 00       		.byte	0
 5057 12ca 0D       		.uleb128 0xd
 5058 12cb 04       		.byte	0x4
 5059 12cc 47090000 		.4byte	0x947
 5060 12d0 23       		.uleb128 0x23
 5061 12d1 E8090000 		.4byte	.LASF336
 5062 12d5 01       		.byte	0x1
 5063 12d6 B4       		.byte	0xb4
 5064 12d7 D8090000 		.4byte	0x9d8
 5065 12db 01       		.byte	0x1
 5066 12dc F7120000 		.4byte	0x12f7
 5067 12e0 20       		.uleb128 0x20
 5068 12e1 01020000 		.4byte	.LASF225
 5069 12e5 01       		.byte	0x1
 5070 12e6 B4       		.byte	0xb4
 5071 12e7 F7120000 		.4byte	0x12f7
 5072 12eb 24       		.uleb128 0x24
 5073 12ec 65787400 		.ascii	"ext\000"
 5074 12f0 01       		.byte	0x1
 5075 12f1 B8       		.byte	0xb8
 5076 12f2 02130000 		.4byte	0x1302
 5077 12f6 00       		.byte	0
 5078 12f7 0D       		.uleb128 0xd
 5079 12f8 04       		.byte	0x4
 5080 12f9 FD120000 		.4byte	0x12fd
 5081 12fd 0E       		.uleb128 0xe
 5082 12fe 47090000 		.4byte	0x947
 5083 1302 0D       		.uleb128 0xd
 5084 1303 04       		.byte	0x4
 5085 1304 6D0A0000 		.4byte	0xa6d
 5086 1308 25       		.uleb128 0x25
 5087 1309 0A0B0000 		.4byte	.LASF252
 5088 130d 01       		.byte	0x1
 5089 130e A001     		.2byte	0x1a0
ARM GAS  C:\Users\pearlstl\AppData\Local\Temp\cciL9yyu.s 			page 114


 5090 1310 01       		.byte	0x1
 5091 1311 5E130000 		.4byte	0x135e
 5092 1315 26       		.uleb128 0x26
 5093 1316 01020000 		.4byte	.LASF225
 5094 131a 01       		.byte	0x1
 5095 131b A001     		.2byte	0x1a0
 5096 131d CA120000 		.4byte	0x12ca
 5097 1321 27       		.uleb128 0x27
 5098 1322 F0080000 		.4byte	.LASF253
 5099 1326 01       		.byte	0x1
 5100 1327 A201     		.2byte	0x1a2
 5101 1329 CA120000 		.4byte	0x12ca
 5102 132d 27       		.uleb128 0x27
 5103 132e BE0A0000 		.4byte	.LASF244
 5104 1332 01       		.byte	0x1
 5105 1333 A301     		.2byte	0x1a3
 5106 1335 3C090000 		.4byte	0x93c
 5107 1339 27       		.uleb128 0x27
 5108 133a 7D090000 		.4byte	.LASF254
 5109 133e 01       		.byte	0x1
 5110 133f A401     		.2byte	0x1a4
 5111 1341 CE000000 		.4byte	0xce
 5112 1345 27       		.uleb128 0x27
 5113 1346 F6080000 		.4byte	.LASF255
 5114 134a 01       		.byte	0x1
 5115 134b A501     		.2byte	0x1a5
 5116 134d D9000000 		.4byte	0xd9
 5117 1351 27       		.uleb128 0x27
 5118 1352 620B0000 		.4byte	.LASF256
 5119 1356 01       		.byte	0x1
 5120 1357 B701     		.2byte	0x1b7
 5121 1359 D9000000 		.4byte	0xd9
 5122 135d 00       		.byte	0
 5123 135e 25       		.uleb128 0x25
 5124 135f D2100000 		.4byte	.LASF257
 5125 1363 01       		.byte	0x1
 5126 1364 3601     		.2byte	0x136
 5127 1366 01       		.byte	0x1
 5128 1367 C0130000 		.4byte	0x13c0
 5129 136b 26       		.uleb128 0x26
 5130 136c 01020000 		.4byte	.LASF225
 5131 1370 01       		.byte	0x1
 5132 1371 3601     		.2byte	0x136
 5133 1373 CA120000 		.4byte	0x12ca
 5134 1377 27       		.uleb128 0x27
 5135 1378 CA010000 		.4byte	.LASF48
 5136 137c 01       		.byte	0x1
 5137 137d 3801     		.2byte	0x138
 5138 137f D8090000 		.4byte	0x9d8
 5139 1383 27       		.uleb128 0x27
 5140 1384 F0080000 		.4byte	.LASF253
 5141 1388 01       		.byte	0x1
 5142 1389 3901     		.2byte	0x139
 5143 138b CA120000 		.4byte	0x12ca
 5144 138f 27       		.uleb128 0x27
 5145 1390 2A090000 		.4byte	.LASF161
 5146 1394 01       		.byte	0x1
ARM GAS  C:\Users\pearlstl\AppData\Local\Temp\cciL9yyu.s 			page 115


 5147 1395 3C01     		.2byte	0x13c
 5148 1397 B9080000 		.4byte	0x8b9
 5149 139b 27       		.uleb128 0x27
 5150 139c BE0A0000 		.4byte	.LASF244
 5151 13a0 01       		.byte	0x1
 5152 13a1 3D01     		.2byte	0x13d
 5153 13a3 3C090000 		.4byte	0x93c
 5154 13a7 27       		.uleb128 0x27
 5155 13a8 96110000 		.4byte	.LASF258
 5156 13ac 01       		.byte	0x1
 5157 13ad 3E01     		.2byte	0x13e
 5158 13af D9000000 		.4byte	0xd9
 5159 13b3 27       		.uleb128 0x27
 5160 13b4 620B0000 		.4byte	.LASF256
 5161 13b8 01       		.byte	0x1
 5162 13b9 5701     		.2byte	0x157
 5163 13bb D9000000 		.4byte	0xd9
 5164 13bf 00       		.byte	0
 5165 13c0 25       		.uleb128 0x25
 5166 13c1 56110000 		.4byte	.LASF259
 5167 13c5 01       		.byte	0x1
 5168 13c6 6701     		.2byte	0x167
 5169 13c8 01       		.byte	0x1
 5170 13c9 2E140000 		.4byte	0x142e
 5171 13cd 26       		.uleb128 0x26
 5172 13ce 01020000 		.4byte	.LASF225
 5173 13d2 01       		.byte	0x1
 5174 13d3 6701     		.2byte	0x167
 5175 13d5 CA120000 		.4byte	0x12ca
 5176 13d9 27       		.uleb128 0x27
 5177 13da CA010000 		.4byte	.LASF48
 5178 13de 01       		.byte	0x1
 5179 13df 6901     		.2byte	0x169
 5180 13e1 D8090000 		.4byte	0x9d8
 5181 13e5 27       		.uleb128 0x27
 5182 13e6 F0080000 		.4byte	.LASF253
 5183 13ea 01       		.byte	0x1
 5184 13eb 6A01     		.2byte	0x16a
 5185 13ed CA120000 		.4byte	0x12ca
 5186 13f1 27       		.uleb128 0x27
 5187 13f2 2A090000 		.4byte	.LASF161
 5188 13f6 01       		.byte	0x1
 5189 13f7 6D01     		.2byte	0x16d
 5190 13f9 B9080000 		.4byte	0x8b9
 5191 13fd 27       		.uleb128 0x27
 5192 13fe BE0A0000 		.4byte	.LASF244
 5193 1402 01       		.byte	0x1
 5194 1403 6E01     		.2byte	0x16e
 5195 1405 3C090000 		.4byte	0x93c
 5196 1409 27       		.uleb128 0x27
 5197 140a 46010000 		.4byte	.LASF260
 5198 140e 01       		.byte	0x1
 5199 140f 6F01     		.2byte	0x16f
 5200 1411 D9000000 		.4byte	0xd9
 5201 1415 27       		.uleb128 0x27
 5202 1416 D80D0000 		.4byte	.LASF104
 5203 141a 01       		.byte	0x1
ARM GAS  C:\Users\pearlstl\AppData\Local\Temp\cciL9yyu.s 			page 116


 5204 141b 7001     		.2byte	0x170
 5205 141d AF050000 		.4byte	0x5af
 5206 1421 27       		.uleb128 0x27
 5207 1422 620B0000 		.4byte	.LASF256
 5208 1426 01       		.byte	0x1
 5209 1427 8901     		.2byte	0x189
 5210 1429 D9000000 		.4byte	0xd9
 5211 142d 00       		.byte	0
 5212 142e 25       		.uleb128 0x25
 5213 142f FE0F0000 		.4byte	.LASF261
 5214 1433 01       		.byte	0x1
 5215 1434 C801     		.2byte	0x1c8
 5216 1436 01       		.byte	0x1
 5217 1437 FA140000 		.4byte	0x14fa
 5218 143b 26       		.uleb128 0x26
 5219 143c 01020000 		.4byte	.LASF225
 5220 1440 01       		.byte	0x1
 5221 1441 C801     		.2byte	0x1c8
 5222 1443 CA120000 		.4byte	0x12ca
 5223 1447 27       		.uleb128 0x27
 5224 1448 380C0000 		.4byte	.LASF262
 5225 144c 01       		.byte	0x1
 5226 144d CA01     		.2byte	0x1ca
 5227 144f CA120000 		.4byte	0x12ca
 5228 1453 27       		.uleb128 0x27
 5229 1454 140C0000 		.4byte	.LASF263
 5230 1458 01       		.byte	0x1
 5231 1459 CB01     		.2byte	0x1cb
 5232 145b CA120000 		.4byte	0x12ca
 5233 145f 27       		.uleb128 0x27
 5234 1460 CE0D0000 		.4byte	.LASF264
 5235 1464 01       		.byte	0x1
 5236 1465 CC01     		.2byte	0x1cc
 5237 1467 CA120000 		.4byte	0x12ca
 5238 146b 27       		.uleb128 0x27
 5239 146c BE0A0000 		.4byte	.LASF244
 5240 1470 01       		.byte	0x1
 5241 1471 CD01     		.2byte	0x1cd
 5242 1473 3C090000 		.4byte	0x93c
 5243 1477 27       		.uleb128 0x27
 5244 1478 50010000 		.4byte	.LASF265
 5245 147c 01       		.byte	0x1
 5246 147d CE01     		.2byte	0x1ce
 5247 147f D9000000 		.4byte	0xd9
 5248 1483 27       		.uleb128 0x27
 5249 1484 E7010000 		.4byte	.LASF266
 5250 1488 01       		.byte	0x1
 5251 1489 CF01     		.2byte	0x1cf
 5252 148b D9000000 		.4byte	0xd9
 5253 148f 28       		.uleb128 0x28
 5254 1490 27       		.uleb128 0x27
 5255 1491 DD020000 		.4byte	.LASF267
 5256 1495 01       		.byte	0x1
 5257 1496 DA01     		.2byte	0x1da
 5258 1498 D9000000 		.4byte	0xd9
 5259 149c 27       		.uleb128 0x27
 5260 149d C4020000 		.4byte	.LASF268
ARM GAS  C:\Users\pearlstl\AppData\Local\Temp\cciL9yyu.s 			page 117


 5261 14a1 01       		.byte	0x1
 5262 14a2 DB01     		.2byte	0x1db
 5263 14a4 D9000000 		.4byte	0xd9
 5264 14a8 27       		.uleb128 0x27
 5265 14a9 7D090000 		.4byte	.LASF254
 5266 14ad 01       		.byte	0x1
 5267 14ae DD01     		.2byte	0x1dd
 5268 14b0 CE000000 		.4byte	0xce
 5269 14b4 29       		.uleb128 0x29
 5270 14b5 DE140000 		.4byte	0x14de
 5271 14b9 27       		.uleb128 0x27
 5272 14ba C3060000 		.4byte	.LASF269
 5273 14be 01       		.byte	0x1
 5274 14bf 0402     		.2byte	0x204
 5275 14c1 CA120000 		.4byte	0x12ca
 5276 14c5 27       		.uleb128 0x27
 5277 14c6 C8060000 		.4byte	.LASF270
 5278 14ca 01       		.byte	0x1
 5279 14cb 0502     		.2byte	0x205
 5280 14cd CA120000 		.4byte	0x12ca
 5281 14d1 2A       		.uleb128 0x2a
 5282 14d2 70616400 		.ascii	"pad\000"
 5283 14d6 01       		.byte	0x1
 5284 14d7 0702     		.2byte	0x207
 5285 14d9 D9000000 		.4byte	0xd9
 5286 14dd 00       		.byte	0
 5287 14de 28       		.uleb128 0x28
 5288 14df 27       		.uleb128 0x27
 5289 14e0 58040000 		.4byte	.LASF271
 5290 14e4 01       		.byte	0x1
 5291 14e5 0E02     		.2byte	0x20e
 5292 14e7 D9000000 		.4byte	0xd9
 5293 14eb 27       		.uleb128 0x27
 5294 14ec E1010000 		.4byte	.LASF272
 5295 14f0 01       		.byte	0x1
 5296 14f1 0F02     		.2byte	0x20f
 5297 14f3 D9000000 		.4byte	0xd9
 5298 14f7 00       		.byte	0
 5299 14f8 00       		.byte	0
 5300 14f9 00       		.byte	0
 5301 14fa 25       		.uleb128 0x25
 5302 14fb 120E0000 		.4byte	.LASF273
 5303 14ff 01       		.byte	0x1
 5304 1500 2802     		.2byte	0x228
 5305 1502 01       		.byte	0x1
 5306 1503 A4150000 		.4byte	0x15a4
 5307 1507 26       		.uleb128 0x26
 5308 1508 01020000 		.4byte	.LASF225
 5309 150c 01       		.byte	0x1
 5310 150d 2802     		.2byte	0x228
 5311 150f CA120000 		.4byte	0x12ca
 5312 1513 27       		.uleb128 0x27
 5313 1514 F0080000 		.4byte	.LASF253
 5314 1518 01       		.byte	0x1
 5315 1519 2A02     		.2byte	0x22a
 5316 151b CA120000 		.4byte	0x12ca
 5317 151f 27       		.uleb128 0x27
ARM GAS  C:\Users\pearlstl\AppData\Local\Temp\cciL9yyu.s 			page 118


 5318 1520 BE0A0000 		.4byte	.LASF244
 5319 1524 01       		.byte	0x1
 5320 1525 2B02     		.2byte	0x22b
 5321 1527 3C090000 		.4byte	0x93c
 5322 152b 27       		.uleb128 0x27
 5323 152c EA080000 		.4byte	.LASF274
 5324 1530 01       		.byte	0x1
 5325 1531 2C02     		.2byte	0x22c
 5326 1533 D9000000 		.4byte	0xd9
 5327 1537 27       		.uleb128 0x27
 5328 1538 50010000 		.4byte	.LASF265
 5329 153c 01       		.byte	0x1
 5330 153d 2D02     		.2byte	0x22d
 5331 153f D9000000 		.4byte	0xd9
 5332 1543 27       		.uleb128 0x27
 5333 1544 C1090000 		.4byte	.LASF275
 5334 1548 01       		.byte	0x1
 5335 1549 2E02     		.2byte	0x22e
 5336 154b D9000000 		.4byte	0xd9
 5337 154f 27       		.uleb128 0x27
 5338 1550 6B010000 		.4byte	.LASF276
 5339 1554 01       		.byte	0x1
 5340 1555 2F02     		.2byte	0x22f
 5341 1557 D9000000 		.4byte	0xd9
 5342 155b 27       		.uleb128 0x27
 5343 155c 5B030000 		.4byte	.LASF277
 5344 1560 01       		.byte	0x1
 5345 1561 3002     		.2byte	0x230
 5346 1563 C3000000 		.4byte	0xc3
 5347 1567 27       		.uleb128 0x27
 5348 1568 0A010000 		.4byte	.LASF278
 5349 156c 01       		.byte	0x1
 5350 156d 3102     		.2byte	0x231
 5351 156f D9000000 		.4byte	0xd9
 5352 1573 27       		.uleb128 0x27
 5353 1574 34100000 		.4byte	.LASF279
 5354 1578 01       		.byte	0x1
 5355 1579 3702     		.2byte	0x237
 5356 157b D9000000 		.4byte	0xd9
 5357 157f 27       		.uleb128 0x27
 5358 1580 E1010000 		.4byte	.LASF272
 5359 1584 01       		.byte	0x1
 5360 1585 3E02     		.2byte	0x23e
 5361 1587 D9000000 		.4byte	0xd9
 5362 158b 27       		.uleb128 0x27
 5363 158c E7010000 		.4byte	.LASF266
 5364 1590 01       		.byte	0x1
 5365 1591 3F02     		.2byte	0x23f
 5366 1593 D9000000 		.4byte	0xd9
 5367 1597 27       		.uleb128 0x27
 5368 1598 D2040000 		.4byte	.LASF280
 5369 159c 01       		.byte	0x1
 5370 159d 4002     		.2byte	0x240
 5371 159f C3000000 		.4byte	0xc3
 5372 15a3 00       		.byte	0
 5373 15a4 2B       		.uleb128 0x2b
 5374 15a5 A2090000 		.4byte	.LASF281
ARM GAS  C:\Users\pearlstl\AppData\Local\Temp\cciL9yyu.s 			page 119


 5375 15a9 01       		.byte	0x1
 5376 15aa 1C01     		.2byte	0x11c
 5377 15ac 00000000 		.4byte	.LFB44
 5378 15b0 AC060000 		.4byte	.LFE44-.LFB44
 5379 15b4 01       		.uleb128 0x1
 5380 15b5 9C       		.byte	0x9c
 5381 15b6 0F210000 		.4byte	0x210f
 5382 15ba 2C       		.uleb128 0x2c
 5383 15bb 01020000 		.4byte	.LASF225
 5384 15bf 01       		.byte	0x1
 5385 15c0 1C01     		.2byte	0x11c
 5386 15c2 CA120000 		.4byte	0x12ca
 5387 15c6 00000000 		.4byte	.LLST0
 5388 15ca 27       		.uleb128 0x27
 5389 15cb CA010000 		.4byte	.LASF48
 5390 15cf 01       		.byte	0x1
 5391 15d0 1E01     		.2byte	0x11e
 5392 15d2 D8090000 		.4byte	0x9d8
 5393 15d6 2D       		.uleb128 0x2d
 5394 15d7 D0120000 		.4byte	0x12d0
 5395 15db 08000000 		.4byte	.LBB43
 5396 15df 00000000 		.4byte	.Ldebug_ranges0+0
 5397 15e3 01       		.byte	0x1
 5398 15e4 1E01     		.2byte	0x11e
 5399 15e6 13160000 		.4byte	0x1613
 5400 15ea 2E       		.uleb128 0x2e
 5401 15eb E0120000 		.4byte	0x12e0
 5402 15ef CB000000 		.4byte	.LLST1
 5403 15f3 2F       		.uleb128 0x2f
 5404 15f4 00000000 		.4byte	.Ldebug_ranges0+0
 5405 15f8 30       		.uleb128 0x30
 5406 15f9 EB120000 		.4byte	0x12eb
 5407 15fd E9000000 		.4byte	.LLST2
 5408 1601 31       		.uleb128 0x31
 5409 1602 0C000000 		.4byte	.LVL2
 5410 1606 FA280000 		.4byte	0x28fa
 5411 160a 32       		.uleb128 0x32
 5412 160b 01       		.uleb128 0x1
 5413 160c 50       		.byte	0x50
 5414 160d 02       		.uleb128 0x2
 5415 160e 79       		.byte	0x79
 5416 160f 00       		.sleb128 0
 5417 1610 00       		.byte	0
 5418 1611 00       		.byte	0
 5419 1612 00       		.byte	0
 5420 1613 2D       		.uleb128 0x2d
 5421 1614 FA140000 		.4byte	0x14fa
 5422 1618 42000000 		.4byte	.LBB47
 5423 161c 18000000 		.4byte	.Ldebug_ranges0+0x18
 5424 1620 01       		.byte	0x1
 5425 1621 2E01     		.2byte	0x12e
 5426 1623 41180000 		.4byte	0x1841
 5427 1627 2E       		.uleb128 0x2e
 5428 1628 07150000 		.4byte	0x1507
 5429 162c FC000000 		.4byte	.LLST3
 5430 1630 2F       		.uleb128 0x2f
 5431 1631 18000000 		.4byte	.Ldebug_ranges0+0x18
ARM GAS  C:\Users\pearlstl\AppData\Local\Temp\cciL9yyu.s 			page 120


 5432 1635 30       		.uleb128 0x30
 5433 1636 13150000 		.4byte	0x1513
 5434 163a 32010000 		.4byte	.LLST4
 5435 163e 30       		.uleb128 0x30
 5436 163f 1F150000 		.4byte	0x151f
 5437 1643 A8010000 		.4byte	.LLST5
 5438 1647 30       		.uleb128 0x30
 5439 1648 2B150000 		.4byte	0x152b
 5440 164c DC010000 		.4byte	.LLST6
 5441 1650 30       		.uleb128 0x30
 5442 1651 37150000 		.4byte	0x1537
 5443 1655 FA010000 		.4byte	.LLST7
 5444 1659 30       		.uleb128 0x30
 5445 165a 43150000 		.4byte	0x1543
 5446 165e 18020000 		.4byte	.LLST8
 5447 1662 30       		.uleb128 0x30
 5448 1663 4F150000 		.4byte	0x154f
 5449 1667 36020000 		.4byte	.LLST9
 5450 166b 30       		.uleb128 0x30
 5451 166c 5B150000 		.4byte	0x155b
 5452 1670 54020000 		.4byte	.LLST10
 5453 1674 30       		.uleb128 0x30
 5454 1675 67150000 		.4byte	0x1567
 5455 1679 7D020000 		.4byte	.LLST11
 5456 167d 30       		.uleb128 0x30
 5457 167e 73150000 		.4byte	0x1573
 5458 1682 A8020000 		.4byte	.LLST12
 5459 1686 30       		.uleb128 0x30
 5460 1687 7F150000 		.4byte	0x157f
 5461 168b D3020000 		.4byte	.LLST13
 5462 168f 30       		.uleb128 0x30
 5463 1690 8B150000 		.4byte	0x158b
 5464 1694 26030000 		.4byte	.LLST14
 5465 1698 30       		.uleb128 0x30
 5466 1699 97150000 		.4byte	0x1597
 5467 169d 65030000 		.4byte	.LLST15
 5468 16a1 33       		.uleb128 0x33
 5469 16a2 48000000 		.4byte	.LVL6
 5470 16a6 06290000 		.4byte	0x2906
 5471 16aa B5160000 		.4byte	0x16b5
 5472 16ae 32       		.uleb128 0x32
 5473 16af 01       		.uleb128 0x1
 5474 16b0 50       		.byte	0x50
 5475 16b1 02       		.uleb128 0x2
 5476 16b2 79       		.byte	0x79
 5477 16b3 00       		.sleb128 0
 5478 16b4 00       		.byte	0
 5479 16b5 33       		.uleb128 0x33
 5480 16b6 50000000 		.4byte	.LVL9
 5481 16ba 12290000 		.4byte	0x2912
 5482 16be C9160000 		.4byte	0x16c9
 5483 16c2 32       		.uleb128 0x32
 5484 16c3 01       		.uleb128 0x1
 5485 16c4 50       		.byte	0x50
 5486 16c5 02       		.uleb128 0x2
 5487 16c6 79       		.byte	0x79
 5488 16c7 00       		.sleb128 0
ARM GAS  C:\Users\pearlstl\AppData\Local\Temp\cciL9yyu.s 			page 121


 5489 16c8 00       		.byte	0
 5490 16c9 33       		.uleb128 0x33
 5491 16ca 5A000000 		.4byte	.LVL11
 5492 16ce 1E290000 		.4byte	0x291e
 5493 16d2 E2160000 		.4byte	0x16e2
 5494 16d6 32       		.uleb128 0x32
 5495 16d7 01       		.uleb128 0x1
 5496 16d8 50       		.byte	0x50
 5497 16d9 02       		.uleb128 0x2
 5498 16da 79       		.byte	0x79
 5499 16db 00       		.sleb128 0
 5500 16dc 32       		.uleb128 0x32
 5501 16dd 01       		.uleb128 0x1
 5502 16de 51       		.byte	0x51
 5503 16df 01       		.uleb128 0x1
 5504 16e0 30       		.byte	0x30
 5505 16e1 00       		.byte	0
 5506 16e2 34       		.uleb128 0x34
 5507 16e3 5E000000 		.4byte	.LVL12
 5508 16e7 12290000 		.4byte	0x2912
 5509 16eb 33       		.uleb128 0x33
 5510 16ec 66000000 		.4byte	.LVL14
 5511 16f0 2A290000 		.4byte	0x292a
 5512 16f4 FF160000 		.4byte	0x16ff
 5513 16f8 32       		.uleb128 0x32
 5514 16f9 01       		.uleb128 0x1
 5515 16fa 50       		.byte	0x50
 5516 16fb 02       		.uleb128 0x2
 5517 16fc 79       		.byte	0x79
 5518 16fd 00       		.sleb128 0
 5519 16fe 00       		.byte	0
 5520 16ff 33       		.uleb128 0x33
 5521 1700 70000000 		.4byte	.LVL16
 5522 1704 1E290000 		.4byte	0x291e
 5523 1708 18170000 		.4byte	0x1718
 5524 170c 32       		.uleb128 0x32
 5525 170d 01       		.uleb128 0x1
 5526 170e 50       		.byte	0x50
 5527 170f 02       		.uleb128 0x2
 5528 1710 79       		.byte	0x79
 5529 1711 00       		.sleb128 0
 5530 1712 32       		.uleb128 0x32
 5531 1713 01       		.uleb128 0x1
 5532 1714 51       		.byte	0x51
 5533 1715 01       		.uleb128 0x1
 5534 1716 30       		.byte	0x30
 5535 1717 00       		.byte	0
 5536 1718 34       		.uleb128 0x34
 5537 1719 74000000 		.4byte	.LVL17
 5538 171d 36290000 		.4byte	0x2936
 5539 1721 33       		.uleb128 0x33
 5540 1722 A8000000 		.4byte	.LVL23
 5541 1726 42290000 		.4byte	0x2942
 5542 172a 3A170000 		.4byte	0x173a
 5543 172e 32       		.uleb128 0x32
 5544 172f 01       		.uleb128 0x1
 5545 1730 50       		.byte	0x50
ARM GAS  C:\Users\pearlstl\AppData\Local\Temp\cciL9yyu.s 			page 122


 5546 1731 02       		.uleb128 0x2
 5547 1732 79       		.byte	0x79
 5548 1733 00       		.sleb128 0
 5549 1734 32       		.uleb128 0x32
 5550 1735 01       		.uleb128 0x1
 5551 1736 51       		.byte	0x51
 5552 1737 01       		.uleb128 0x1
 5553 1738 31       		.byte	0x31
 5554 1739 00       		.byte	0
 5555 173a 33       		.uleb128 0x33
 5556 173b B6000000 		.4byte	.LVL26
 5557 173f 4E290000 		.4byte	0x294e
 5558 1743 4E170000 		.4byte	0x174e
 5559 1747 32       		.uleb128 0x32
 5560 1748 01       		.uleb128 0x1
 5561 1749 50       		.byte	0x50
 5562 174a 02       		.uleb128 0x2
 5563 174b 75       		.byte	0x75
 5564 174c 00       		.sleb128 0
 5565 174d 00       		.byte	0
 5566 174e 33       		.uleb128 0x33
 5567 174f D0000000 		.4byte	.LVL28
 5568 1753 59290000 		.4byte	0x2959
 5569 1757 68170000 		.4byte	0x1768
 5570 175b 32       		.uleb128 0x32
 5571 175c 01       		.uleb128 0x1
 5572 175d 50       		.byte	0x50
 5573 175e 02       		.uleb128 0x2
 5574 175f 75       		.byte	0x75
 5575 1760 00       		.sleb128 0
 5576 1761 32       		.uleb128 0x32
 5577 1762 01       		.uleb128 0x1
 5578 1763 51       		.byte	0x51
 5579 1764 02       		.uleb128 0x2
 5580 1765 74       		.byte	0x74
 5581 1766 00       		.sleb128 0
 5582 1767 00       		.byte	0
 5583 1768 33       		.uleb128 0x33
 5584 1769 DE000000 		.4byte	.LVL30
 5585 176d 64290000 		.4byte	0x2964
 5586 1771 7C170000 		.4byte	0x177c
 5587 1775 32       		.uleb128 0x32
 5588 1776 01       		.uleb128 0x1
 5589 1777 50       		.byte	0x50
 5590 1778 02       		.uleb128 0x2
 5591 1779 74       		.byte	0x74
 5592 177a 00       		.sleb128 0
 5593 177b 00       		.byte	0
 5594 177c 33       		.uleb128 0x33
 5595 177d EA000000 		.4byte	.LVL31
 5596 1781 70290000 		.4byte	0x2970
 5597 1785 95170000 		.4byte	0x1795
 5598 1789 32       		.uleb128 0x32
 5599 178a 01       		.uleb128 0x1
 5600 178b 50       		.byte	0x50
 5601 178c 02       		.uleb128 0x2
 5602 178d 74       		.byte	0x74
ARM GAS  C:\Users\pearlstl\AppData\Local\Temp\cciL9yyu.s 			page 123


 5603 178e 00       		.sleb128 0
 5604 178f 32       		.uleb128 0x32
 5605 1790 01       		.uleb128 0x1
 5606 1791 51       		.byte	0x51
 5607 1792 01       		.uleb128 0x1
 5608 1793 34       		.byte	0x34
 5609 1794 00       		.byte	0
 5610 1795 33       		.uleb128 0x33
 5611 1796 FE000000 		.4byte	.LVL33
 5612 179a 7C290000 		.4byte	0x297c
 5613 179e B5170000 		.4byte	0x17b5
 5614 17a2 32       		.uleb128 0x32
 5615 17a3 01       		.uleb128 0x1
 5616 17a4 50       		.byte	0x50
 5617 17a5 02       		.uleb128 0x2
 5618 17a6 74       		.byte	0x74
 5619 17a7 00       		.sleb128 0
 5620 17a8 32       		.uleb128 0x32
 5621 17a9 01       		.uleb128 0x1
 5622 17aa 51       		.byte	0x51
 5623 17ab 02       		.uleb128 0x2
 5624 17ac 77       		.byte	0x77
 5625 17ad 00       		.sleb128 0
 5626 17ae 32       		.uleb128 0x32
 5627 17af 01       		.uleb128 0x1
 5628 17b0 52       		.byte	0x52
 5629 17b1 02       		.uleb128 0x2
 5630 17b2 78       		.byte	0x78
 5631 17b3 00       		.sleb128 0
 5632 17b4 00       		.byte	0
 5633 17b5 33       		.uleb128 0x33
 5634 17b6 36030000 		.4byte	.LVL107
 5635 17ba 42290000 		.4byte	0x2942
 5636 17be CE170000 		.4byte	0x17ce
 5637 17c2 32       		.uleb128 0x32
 5638 17c3 01       		.uleb128 0x1
 5639 17c4 50       		.byte	0x50
 5640 17c5 02       		.uleb128 0x2
 5641 17c6 79       		.byte	0x79
 5642 17c7 00       		.sleb128 0
 5643 17c8 32       		.uleb128 0x32
 5644 17c9 01       		.uleb128 0x1
 5645 17ca 51       		.byte	0x51
 5646 17cb 01       		.uleb128 0x1
 5647 17cc 31       		.byte	0x31
 5648 17cd 00       		.byte	0
 5649 17ce 33       		.uleb128 0x33
 5650 17cf 40030000 		.4byte	.LVL109
 5651 17d3 4E290000 		.4byte	0x294e
 5652 17d7 E2170000 		.4byte	0x17e2
 5653 17db 32       		.uleb128 0x32
 5654 17dc 01       		.uleb128 0x1
 5655 17dd 50       		.byte	0x50
 5656 17de 02       		.uleb128 0x2
 5657 17df 77       		.byte	0x77
 5658 17e0 00       		.sleb128 0
 5659 17e1 00       		.byte	0
ARM GAS  C:\Users\pearlstl\AppData\Local\Temp\cciL9yyu.s 			page 124


 5660 17e2 33       		.uleb128 0x33
 5661 17e3 4E030000 		.4byte	.LVL112
 5662 17e7 59290000 		.4byte	0x2959
 5663 17eb FC170000 		.4byte	0x17fc
 5664 17ef 32       		.uleb128 0x32
 5665 17f0 01       		.uleb128 0x1
 5666 17f1 50       		.byte	0x50
 5667 17f2 02       		.uleb128 0x2
 5668 17f3 77       		.byte	0x77
 5669 17f4 00       		.sleb128 0
 5670 17f5 32       		.uleb128 0x32
 5671 17f6 01       		.uleb128 0x1
 5672 17f7 51       		.byte	0x51
 5673 17f8 02       		.uleb128 0x2
 5674 17f9 74       		.byte	0x74
 5675 17fa 00       		.sleb128 0
 5676 17fb 00       		.byte	0
 5677 17fc 33       		.uleb128 0x33
 5678 17fd 5A030000 		.4byte	.LVL113
 5679 1801 64290000 		.4byte	0x2964
 5680 1805 10180000 		.4byte	0x1810
 5681 1809 32       		.uleb128 0x32
 5682 180a 01       		.uleb128 0x1
 5683 180b 50       		.byte	0x50
 5684 180c 02       		.uleb128 0x2
 5685 180d 74       		.byte	0x74
 5686 180e 00       		.sleb128 0
 5687 180f 00       		.byte	0
 5688 1810 33       		.uleb128 0x33
 5689 1811 66030000 		.4byte	.LVL114
 5690 1815 70290000 		.4byte	0x2970
 5691 1819 29180000 		.4byte	0x1829
 5692 181d 32       		.uleb128 0x32
 5693 181e 01       		.uleb128 0x1
 5694 181f 50       		.byte	0x50
 5695 1820 02       		.uleb128 0x2
 5696 1821 74       		.byte	0x74
 5697 1822 00       		.sleb128 0
 5698 1823 32       		.uleb128 0x32
 5699 1824 01       		.uleb128 0x1
 5700 1825 51       		.byte	0x51
 5701 1826 01       		.uleb128 0x1
 5702 1827 34       		.byte	0x34
 5703 1828 00       		.byte	0
 5704 1829 31       		.uleb128 0x31
 5705 182a 76030000 		.4byte	.LVL116
 5706 182e 7C290000 		.4byte	0x297c
 5707 1832 32       		.uleb128 0x32
 5708 1833 01       		.uleb128 0x1
 5709 1834 50       		.byte	0x50
 5710 1835 02       		.uleb128 0x2
 5711 1836 74       		.byte	0x74
 5712 1837 00       		.sleb128 0
 5713 1838 32       		.uleb128 0x32
 5714 1839 01       		.uleb128 0x1
 5715 183a 51       		.byte	0x51
 5716 183b 02       		.uleb128 0x2
ARM GAS  C:\Users\pearlstl\AppData\Local\Temp\cciL9yyu.s 			page 125


 5717 183c 75       		.byte	0x75
 5718 183d 00       		.sleb128 0
 5719 183e 00       		.byte	0
 5720 183f 00       		.byte	0
 5721 1840 00       		.byte	0
 5722 1841 2D       		.uleb128 0x2d
 5723 1842 08130000 		.4byte	0x1308
 5724 1846 10010000 		.4byte	.LBB51
 5725 184a 38000000 		.4byte	.Ldebug_ranges0+0x38
 5726 184e 01       		.byte	0x1
 5727 184f 2601     		.2byte	0x126
 5728 1851 E6190000 		.4byte	0x19e6
 5729 1855 2E       		.uleb128 0x2e
 5730 1856 15130000 		.4byte	0x1315
 5731 185a B2030000 		.4byte	.LLST16
 5732 185e 2F       		.uleb128 0x2f
 5733 185f 38000000 		.4byte	.Ldebug_ranges0+0x38
 5734 1863 30       		.uleb128 0x30
 5735 1864 21130000 		.4byte	0x1321
 5736 1868 D0030000 		.4byte	.LLST17
 5737 186c 30       		.uleb128 0x30
 5738 186d 2D130000 		.4byte	0x132d
 5739 1871 3B040000 		.4byte	.LLST18
 5740 1875 30       		.uleb128 0x30
 5741 1876 39130000 		.4byte	0x1339
 5742 187a 64040000 		.4byte	.LLST19
 5743 187e 30       		.uleb128 0x30
 5744 187f 45130000 		.4byte	0x1345
 5745 1883 A6040000 		.4byte	.LLST20
 5746 1887 30       		.uleb128 0x30
 5747 1888 51130000 		.4byte	0x1351
 5748 188c E6040000 		.4byte	.LLST21
 5749 1890 33       		.uleb128 0x33
 5750 1891 16010000 		.4byte	.LVL37
 5751 1895 06290000 		.4byte	0x2906
 5752 1899 A4180000 		.4byte	0x18a4
 5753 189d 32       		.uleb128 0x32
 5754 189e 01       		.uleb128 0x1
 5755 189f 50       		.byte	0x50
 5756 18a0 02       		.uleb128 0x2
 5757 18a1 79       		.byte	0x79
 5758 18a2 00       		.sleb128 0
 5759 18a3 00       		.byte	0
 5760 18a4 33       		.uleb128 0x33
 5761 18a5 22010000 		.4byte	.LVL40
 5762 18a9 88290000 		.4byte	0x2988
 5763 18ad B8180000 		.4byte	0x18b8
 5764 18b1 32       		.uleb128 0x32
 5765 18b2 01       		.uleb128 0x1
 5766 18b3 50       		.byte	0x50
 5767 18b4 02       		.uleb128 0x2
 5768 18b5 75       		.byte	0x75
 5769 18b6 00       		.sleb128 0
 5770 18b7 00       		.byte	0
 5771 18b8 33       		.uleb128 0x33
 5772 18b9 38010000 		.4byte	.LVL42
 5773 18bd 93290000 		.4byte	0x2993
ARM GAS  C:\Users\pearlstl\AppData\Local\Temp\cciL9yyu.s 			page 126


 5774 18c1 D2180000 		.4byte	0x18d2
 5775 18c5 32       		.uleb128 0x32
 5776 18c6 01       		.uleb128 0x1
 5777 18c7 50       		.byte	0x50
 5778 18c8 02       		.uleb128 0x2
 5779 18c9 75       		.byte	0x75
 5780 18ca 00       		.sleb128 0
 5781 18cb 32       		.uleb128 0x32
 5782 18cc 01       		.uleb128 0x1
 5783 18cd 51       		.byte	0x51
 5784 18ce 02       		.uleb128 0x2
 5785 18cf 74       		.byte	0x74
 5786 18d0 00       		.sleb128 0
 5787 18d1 00       		.byte	0
 5788 18d2 33       		.uleb128 0x33
 5789 18d3 46010000 		.4byte	.LVL44
 5790 18d7 64290000 		.4byte	0x2964
 5791 18db E6180000 		.4byte	0x18e6
 5792 18df 32       		.uleb128 0x32
 5793 18e0 01       		.uleb128 0x1
 5794 18e1 50       		.byte	0x50
 5795 18e2 02       		.uleb128 0x2
 5796 18e3 74       		.byte	0x74
 5797 18e4 00       		.sleb128 0
 5798 18e5 00       		.byte	0
 5799 18e6 33       		.uleb128 0x33
 5800 18e7 52010000 		.4byte	.LVL45
 5801 18eb 70290000 		.4byte	0x2970
 5802 18ef FF180000 		.4byte	0x18ff
 5803 18f3 32       		.uleb128 0x32
 5804 18f4 01       		.uleb128 0x1
 5805 18f5 50       		.byte	0x50
 5806 18f6 02       		.uleb128 0x2
 5807 18f7 74       		.byte	0x74
 5808 18f8 00       		.sleb128 0
 5809 18f9 32       		.uleb128 0x32
 5810 18fa 01       		.uleb128 0x1
 5811 18fb 51       		.byte	0x51
 5812 18fc 01       		.uleb128 0x1
 5813 18fd 34       		.byte	0x34
 5814 18fe 00       		.byte	0
 5815 18ff 33       		.uleb128 0x33
 5816 1900 5C010000 		.4byte	.LVL46
 5817 1904 36290000 		.4byte	0x2936
 5818 1908 13190000 		.4byte	0x1913
 5819 190c 32       		.uleb128 0x32
 5820 190d 01       		.uleb128 0x1
 5821 190e 50       		.byte	0x50
 5822 190f 02       		.uleb128 0x2
 5823 1910 74       		.byte	0x74
 5824 1911 00       		.sleb128 0
 5825 1912 00       		.byte	0
 5826 1913 35       		.uleb128 0x35
 5827 1914 06040000 		.4byte	.LVL138
 5828 1918 9E290000 		.4byte	0x299e
 5829 191c 26190000 		.4byte	0x1926
 5830 1920 32       		.uleb128 0x32
ARM GAS  C:\Users\pearlstl\AppData\Local\Temp\cciL9yyu.s 			page 127


 5831 1921 01       		.uleb128 0x1
 5832 1922 51       		.byte	0x51
 5833 1923 01       		.uleb128 0x1
 5834 1924 31       		.byte	0x31
 5835 1925 00       		.byte	0
 5836 1926 33       		.uleb128 0x33
 5837 1927 1C040000 		.4byte	.LVL141
 5838 192b 42290000 		.4byte	0x2942
 5839 192f 3F190000 		.4byte	0x193f
 5840 1933 32       		.uleb128 0x32
 5841 1934 01       		.uleb128 0x1
 5842 1935 50       		.byte	0x50
 5843 1936 02       		.uleb128 0x2
 5844 1937 79       		.byte	0x79
 5845 1938 00       		.sleb128 0
 5846 1939 32       		.uleb128 0x32
 5847 193a 01       		.uleb128 0x1
 5848 193b 51       		.byte	0x51
 5849 193c 01       		.uleb128 0x1
 5850 193d 31       		.byte	0x31
 5851 193e 00       		.byte	0
 5852 193f 33       		.uleb128 0x33
 5853 1940 2A040000 		.4byte	.LVL142
 5854 1944 4E290000 		.4byte	0x294e
 5855 1948 53190000 		.4byte	0x1953
 5856 194c 32       		.uleb128 0x32
 5857 194d 01       		.uleb128 0x1
 5858 194e 50       		.byte	0x50
 5859 194f 02       		.uleb128 0x2
 5860 1950 75       		.byte	0x75
 5861 1951 00       		.sleb128 0
 5862 1952 00       		.byte	0
 5863 1953 33       		.uleb128 0x33
 5864 1954 3C040000 		.4byte	.LVL146
 5865 1958 59290000 		.4byte	0x2959
 5866 195c 6D190000 		.4byte	0x196d
 5867 1960 32       		.uleb128 0x32
 5868 1961 01       		.uleb128 0x1
 5869 1962 50       		.byte	0x50
 5870 1963 02       		.uleb128 0x2
 5871 1964 75       		.byte	0x75
 5872 1965 00       		.sleb128 0
 5873 1966 32       		.uleb128 0x32
 5874 1967 01       		.uleb128 0x1
 5875 1968 51       		.byte	0x51
 5876 1969 02       		.uleb128 0x2
 5877 196a 74       		.byte	0x74
 5878 196b 00       		.sleb128 0
 5879 196c 00       		.byte	0
 5880 196d 33       		.uleb128 0x33
 5881 196e 48040000 		.4byte	.LVL147
 5882 1972 64290000 		.4byte	0x2964
 5883 1976 81190000 		.4byte	0x1981
 5884 197a 32       		.uleb128 0x32
 5885 197b 01       		.uleb128 0x1
 5886 197c 50       		.byte	0x50
 5887 197d 02       		.uleb128 0x2
ARM GAS  C:\Users\pearlstl\AppData\Local\Temp\cciL9yyu.s 			page 128


 5888 197e 74       		.byte	0x74
 5889 197f 00       		.sleb128 0
 5890 1980 00       		.byte	0
 5891 1981 33       		.uleb128 0x33
 5892 1982 54040000 		.4byte	.LVL148
 5893 1986 70290000 		.4byte	0x2970
 5894 198a 9A190000 		.4byte	0x199a
 5895 198e 32       		.uleb128 0x32
 5896 198f 01       		.uleb128 0x1
 5897 1990 50       		.byte	0x50
 5898 1991 02       		.uleb128 0x2
 5899 1992 74       		.byte	0x74
 5900 1993 00       		.sleb128 0
 5901 1994 32       		.uleb128 0x32
 5902 1995 01       		.uleb128 0x1
 5903 1996 51       		.byte	0x51
 5904 1997 01       		.uleb128 0x1
 5905 1998 34       		.byte	0x34
 5906 1999 00       		.byte	0
 5907 199a 33       		.uleb128 0x33
 5908 199b 60040000 		.4byte	.LVL149
 5909 199f 36290000 		.4byte	0x2936
 5910 19a3 AE190000 		.4byte	0x19ae
 5911 19a7 32       		.uleb128 0x32
 5912 19a8 01       		.uleb128 0x1
 5913 19a9 50       		.byte	0x50
 5914 19aa 02       		.uleb128 0x2
 5915 19ab 74       		.byte	0x74
 5916 19ac 00       		.sleb128 0
 5917 19ad 00       		.byte	0
 5918 19ae 33       		.uleb128 0x33
 5919 19af 7A040000 		.4byte	.LVL150
 5920 19b3 AA290000 		.4byte	0x29aa
 5921 19b7 D4190000 		.4byte	0x19d4
 5922 19bb 32       		.uleb128 0x32
 5923 19bc 01       		.uleb128 0x1
 5924 19bd 50       		.byte	0x50
 5925 19be 02       		.uleb128 0x2
 5926 19bf 74       		.byte	0x74
 5927 19c0 00       		.sleb128 0
 5928 19c1 32       		.uleb128 0x32
 5929 19c2 01       		.uleb128 0x1
 5930 19c3 51       		.byte	0x51
 5931 19c4 02       		.uleb128 0x2
 5932 19c5 79       		.byte	0x79
 5933 19c6 00       		.sleb128 0
 5934 19c7 32       		.uleb128 0x32
 5935 19c8 01       		.uleb128 0x1
 5936 19c9 52       		.byte	0x52
 5937 19ca 02       		.uleb128 0x2
 5938 19cb 78       		.byte	0x78
 5939 19cc 00       		.sleb128 0
 5940 19cd 32       		.uleb128 0x32
 5941 19ce 01       		.uleb128 0x1
 5942 19cf 53       		.byte	0x53
 5943 19d0 02       		.uleb128 0x2
 5944 19d1 78       		.byte	0x78
ARM GAS  C:\Users\pearlstl\AppData\Local\Temp\cciL9yyu.s 			page 129


 5945 19d2 00       		.sleb128 0
 5946 19d3 00       		.byte	0
 5947 19d4 31       		.uleb128 0x31
 5948 19d5 80040000 		.4byte	.LVL151
 5949 19d9 36290000 		.4byte	0x2936
 5950 19dd 32       		.uleb128 0x32
 5951 19de 01       		.uleb128 0x1
 5952 19df 50       		.byte	0x50
 5953 19e0 02       		.uleb128 0x2
 5954 19e1 74       		.byte	0x74
 5955 19e2 00       		.sleb128 0
 5956 19e3 00       		.byte	0
 5957 19e4 00       		.byte	0
 5958 19e5 00       		.byte	0
 5959 19e6 2D       		.uleb128 0x2d
 5960 19e7 5E130000 		.4byte	0x135e
 5961 19eb 6C010000 		.4byte	.LBB55
 5962 19ef 58000000 		.4byte	.Ldebug_ranges0+0x58
 5963 19f3 01       		.byte	0x1
 5964 19f4 2801     		.2byte	0x128
 5965 19f6 3E1B0000 		.4byte	0x1b3e
 5966 19fa 2E       		.uleb128 0x2e
 5967 19fb 6B130000 		.4byte	0x136b
 5968 19ff F9040000 		.4byte	.LLST22
 5969 1a03 2F       		.uleb128 0x2f
 5970 1a04 58000000 		.4byte	.Ldebug_ranges0+0x58
 5971 1a08 36       		.uleb128 0x36
 5972 1a09 77130000 		.4byte	0x1377
 5973 1a0d 30       		.uleb128 0x30
 5974 1a0e 83130000 		.4byte	0x1383
 5975 1a12 22050000 		.4byte	.LLST23
 5976 1a16 30       		.uleb128 0x30
 5977 1a17 8F130000 		.4byte	0x138f
 5978 1a1b 56050000 		.4byte	.LLST24
 5979 1a1f 30       		.uleb128 0x30
 5980 1a20 9B130000 		.4byte	0x139b
 5981 1a24 81050000 		.4byte	.LLST25
 5982 1a28 30       		.uleb128 0x30
 5983 1a29 A7130000 		.4byte	0x13a7
 5984 1a2d B5050000 		.4byte	.LLST26
 5985 1a31 30       		.uleb128 0x30
 5986 1a32 B3130000 		.4byte	0x13b3
 5987 1a36 DE050000 		.4byte	.LLST27
 5988 1a3a 2D       		.uleb128 0x2d
 5989 1a3b D0120000 		.4byte	0x12d0
 5990 1a3f 6C010000 		.4byte	.LBB57
 5991 1a43 78000000 		.4byte	.Ldebug_ranges0+0x78
 5992 1a47 01       		.byte	0x1
 5993 1a48 3801     		.2byte	0x138
 5994 1a4a 771A0000 		.4byte	0x1a77
 5995 1a4e 2E       		.uleb128 0x2e
 5996 1a4f E0120000 		.4byte	0x12e0
 5997 1a53 F1050000 		.4byte	.LLST28
 5998 1a57 2F       		.uleb128 0x2f
 5999 1a58 78000000 		.4byte	.Ldebug_ranges0+0x78
 6000 1a5c 30       		.uleb128 0x30
 6001 1a5d EB120000 		.4byte	0x12eb
ARM GAS  C:\Users\pearlstl\AppData\Local\Temp\cciL9yyu.s 			page 130


 6002 1a61 04060000 		.4byte	.LLST29
 6003 1a65 31       		.uleb128 0x31
 6004 1a66 72010000 		.4byte	.LVL51
 6005 1a6a FA280000 		.4byte	0x28fa
 6006 1a6e 32       		.uleb128 0x32
 6007 1a6f 01       		.uleb128 0x1
 6008 1a70 50       		.byte	0x50
 6009 1a71 02       		.uleb128 0x2
 6010 1a72 79       		.byte	0x79
 6011 1a73 00       		.sleb128 0
 6012 1a74 00       		.byte	0
 6013 1a75 00       		.byte	0
 6014 1a76 00       		.byte	0
 6015 1a77 33       		.uleb128 0x33
 6016 1a78 7A010000 		.4byte	.LVL53
 6017 1a7c 06290000 		.4byte	0x2906
 6018 1a80 8B1A0000 		.4byte	0x1a8b
 6019 1a84 32       		.uleb128 0x32
 6020 1a85 01       		.uleb128 0x1
 6021 1a86 50       		.byte	0x50
 6022 1a87 02       		.uleb128 0x2
 6023 1a88 79       		.byte	0x79
 6024 1a89 00       		.sleb128 0
 6025 1a8a 00       		.byte	0
 6026 1a8b 33       		.uleb128 0x33
 6027 1a8c A6010000 		.4byte	.LVL58
 6028 1a90 42290000 		.4byte	0x2942
 6029 1a94 A41A0000 		.4byte	0x1aa4
 6030 1a98 32       		.uleb128 0x32
 6031 1a99 01       		.uleb128 0x1
 6032 1a9a 50       		.byte	0x50
 6033 1a9b 02       		.uleb128 0x2
 6034 1a9c 79       		.byte	0x79
 6035 1a9d 00       		.sleb128 0
 6036 1a9e 32       		.uleb128 0x32
 6037 1a9f 01       		.uleb128 0x1
 6038 1aa0 51       		.byte	0x51
 6039 1aa1 01       		.uleb128 0x1
 6040 1aa2 31       		.byte	0x31
 6041 1aa3 00       		.byte	0
 6042 1aa4 33       		.uleb128 0x33
 6043 1aa5 B0010000 		.4byte	.LVL60
 6044 1aa9 4E290000 		.4byte	0x294e
 6045 1aad B81A0000 		.4byte	0x1ab8
 6046 1ab1 32       		.uleb128 0x32
 6047 1ab2 01       		.uleb128 0x1
 6048 1ab3 50       		.byte	0x50
 6049 1ab4 02       		.uleb128 0x2
 6050 1ab5 75       		.byte	0x75
 6051 1ab6 00       		.sleb128 0
 6052 1ab7 00       		.byte	0
 6053 1ab8 33       		.uleb128 0x33
 6054 1ab9 BE010000 		.4byte	.LVL62
 6055 1abd 59290000 		.4byte	0x2959
 6056 1ac1 D21A0000 		.4byte	0x1ad2
 6057 1ac5 32       		.uleb128 0x32
 6058 1ac6 01       		.uleb128 0x1
ARM GAS  C:\Users\pearlstl\AppData\Local\Temp\cciL9yyu.s 			page 131


 6059 1ac7 50       		.byte	0x50
 6060 1ac8 02       		.uleb128 0x2
 6061 1ac9 75       		.byte	0x75
 6062 1aca 00       		.sleb128 0
 6063 1acb 32       		.uleb128 0x32
 6064 1acc 01       		.uleb128 0x1
 6065 1acd 51       		.byte	0x51
 6066 1ace 02       		.uleb128 0x2
 6067 1acf 74       		.byte	0x74
 6068 1ad0 00       		.sleb128 0
 6069 1ad1 00       		.byte	0
 6070 1ad2 33       		.uleb128 0x33
 6071 1ad3 CC010000 		.4byte	.LVL63
 6072 1ad7 64290000 		.4byte	0x2964
 6073 1adb E61A0000 		.4byte	0x1ae6
 6074 1adf 32       		.uleb128 0x32
 6075 1ae0 01       		.uleb128 0x1
 6076 1ae1 50       		.byte	0x50
 6077 1ae2 02       		.uleb128 0x2
 6078 1ae3 74       		.byte	0x74
 6079 1ae4 00       		.sleb128 0
 6080 1ae5 00       		.byte	0
 6081 1ae6 33       		.uleb128 0x33
 6082 1ae7 D8010000 		.4byte	.LVL64
 6083 1aeb 70290000 		.4byte	0x2970
 6084 1aef FF1A0000 		.4byte	0x1aff
 6085 1af3 32       		.uleb128 0x32
 6086 1af4 01       		.uleb128 0x1
 6087 1af5 50       		.byte	0x50
 6088 1af6 02       		.uleb128 0x2
 6089 1af7 74       		.byte	0x74
 6090 1af8 00       		.sleb128 0
 6091 1af9 32       		.uleb128 0x32
 6092 1afa 01       		.uleb128 0x1
 6093 1afb 51       		.byte	0x51
 6094 1afc 01       		.uleb128 0x1
 6095 1afd 34       		.byte	0x34
 6096 1afe 00       		.byte	0
 6097 1aff 33       		.uleb128 0x33
 6098 1b00 EA010000 		.4byte	.LVL65
 6099 1b04 AA290000 		.4byte	0x29aa
 6100 1b08 2C1B0000 		.4byte	0x1b2c
 6101 1b0c 32       		.uleb128 0x32
 6102 1b0d 01       		.uleb128 0x1
 6103 1b0e 50       		.byte	0x50
 6104 1b0f 02       		.uleb128 0x2
 6105 1b10 74       		.byte	0x74
 6106 1b11 00       		.sleb128 0
 6107 1b12 32       		.uleb128 0x32
 6108 1b13 01       		.uleb128 0x1
 6109 1b14 51       		.byte	0x51
 6110 1b15 02       		.uleb128 0x2
 6111 1b16 79       		.byte	0x79
 6112 1b17 00       		.sleb128 0
 6113 1b18 32       		.uleb128 0x32
 6114 1b19 01       		.uleb128 0x1
 6115 1b1a 52       		.byte	0x52
ARM GAS  C:\Users\pearlstl\AppData\Local\Temp\cciL9yyu.s 			page 132


 6116 1b1b 02       		.uleb128 0x2
 6117 1b1c 7A       		.byte	0x7a
 6118 1b1d 00       		.sleb128 0
 6119 1b1e 32       		.uleb128 0x32
 6120 1b1f 01       		.uleb128 0x1
 6121 1b20 53       		.byte	0x53
 6122 1b21 02       		.uleb128 0x2
 6123 1b22 78       		.byte	0x78
 6124 1b23 00       		.sleb128 0
 6125 1b24 32       		.uleb128 0x32
 6126 1b25 02       		.uleb128 0x2
 6127 1b26 7D       		.byte	0x7d
 6128 1b27 00       		.sleb128 0
 6129 1b28 02       		.uleb128 0x2
 6130 1b29 76       		.byte	0x76
 6131 1b2a 00       		.sleb128 0
 6132 1b2b 00       		.byte	0
 6133 1b2c 31       		.uleb128 0x31
 6134 1b2d F0010000 		.4byte	.LVL66
 6135 1b31 36290000 		.4byte	0x2936
 6136 1b35 32       		.uleb128 0x32
 6137 1b36 01       		.uleb128 0x1
 6138 1b37 50       		.byte	0x50
 6139 1b38 02       		.uleb128 0x2
 6140 1b39 74       		.byte	0x74
 6141 1b3a 00       		.sleb128 0
 6142 1b3b 00       		.byte	0
 6143 1b3c 00       		.byte	0
 6144 1b3d 00       		.byte	0
 6145 1b3e 2D       		.uleb128 0x2d
 6146 1b3f C0130000 		.4byte	0x13c0
 6147 1b43 FC010000 		.4byte	.LBB63
 6148 1b47 90000000 		.4byte	.Ldebug_ranges0+0x90
 6149 1b4b 01       		.byte	0x1
 6150 1b4c 2A01     		.2byte	0x12a
 6151 1b4e 551D0000 		.4byte	0x1d55
 6152 1b52 2E       		.uleb128 0x2e
 6153 1b53 CD130000 		.4byte	0x13cd
 6154 1b57 17060000 		.4byte	.LLST30
 6155 1b5b 2F       		.uleb128 0x2f
 6156 1b5c 90000000 		.4byte	.Ldebug_ranges0+0x90
 6157 1b60 36       		.uleb128 0x36
 6158 1b61 D9130000 		.4byte	0x13d9
 6159 1b65 30       		.uleb128 0x30
 6160 1b66 E5130000 		.4byte	0x13e5
 6161 1b6a 6C060000 		.4byte	.LLST31
 6162 1b6e 30       		.uleb128 0x30
 6163 1b6f F1130000 		.4byte	0x13f1
 6164 1b73 B6060000 		.4byte	.LLST32
 6165 1b77 30       		.uleb128 0x30
 6166 1b78 FD130000 		.4byte	0x13fd
 6167 1b7c D4060000 		.4byte	.LLST33
 6168 1b80 30       		.uleb128 0x30
 6169 1b81 09140000 		.4byte	0x1409
 6170 1b85 FD060000 		.4byte	.LLST34
 6171 1b89 30       		.uleb128 0x30
 6172 1b8a 15140000 		.4byte	0x1415
ARM GAS  C:\Users\pearlstl\AppData\Local\Temp\cciL9yyu.s 			page 133


 6173 1b8e 60070000 		.4byte	.LLST35
 6174 1b92 30       		.uleb128 0x30
 6175 1b93 21140000 		.4byte	0x1421
 6176 1b97 9F070000 		.4byte	.LLST36
 6177 1b9b 2D       		.uleb128 0x2d
 6178 1b9c D0120000 		.4byte	0x12d0
 6179 1ba0 FC010000 		.4byte	.LBB65
 6180 1ba4 B0000000 		.4byte	.Ldebug_ranges0+0xb0
 6181 1ba8 01       		.byte	0x1
 6182 1ba9 6901     		.2byte	0x169
 6183 1bab D81B0000 		.4byte	0x1bd8
 6184 1baf 2E       		.uleb128 0x2e
 6185 1bb0 E0120000 		.4byte	0x12e0
 6186 1bb4 D3070000 		.4byte	.LLST37
 6187 1bb8 2F       		.uleb128 0x2f
 6188 1bb9 B0000000 		.4byte	.Ldebug_ranges0+0xb0
 6189 1bbd 30       		.uleb128 0x30
 6190 1bbe EB120000 		.4byte	0x12eb
 6191 1bc2 E6070000 		.4byte	.LLST38
 6192 1bc6 31       		.uleb128 0x31
 6193 1bc7 02020000 		.4byte	.LVL69
 6194 1bcb FA280000 		.4byte	0x28fa
 6195 1bcf 32       		.uleb128 0x32
 6196 1bd0 01       		.uleb128 0x1
 6197 1bd1 50       		.byte	0x50
 6198 1bd2 02       		.uleb128 0x2
 6199 1bd3 79       		.byte	0x79
 6200 1bd4 00       		.sleb128 0
 6201 1bd5 00       		.byte	0
 6202 1bd6 00       		.byte	0
 6203 1bd7 00       		.byte	0
 6204 1bd8 33       		.uleb128 0x33
 6205 1bd9 0A020000 		.4byte	.LVL71
 6206 1bdd 06290000 		.4byte	0x2906
 6207 1be1 EC1B0000 		.4byte	0x1bec
 6208 1be5 32       		.uleb128 0x32
 6209 1be6 01       		.uleb128 0x1
 6210 1be7 50       		.byte	0x50
 6211 1be8 02       		.uleb128 0x2
 6212 1be9 79       		.byte	0x79
 6213 1bea 00       		.sleb128 0
 6214 1beb 00       		.byte	0
 6215 1bec 33       		.uleb128 0x33
 6216 1bed 12020000 		.4byte	.LVL72
 6217 1bf1 B6290000 		.4byte	0x29b6
 6218 1bf5 001C0000 		.4byte	0x1c00
 6219 1bf9 32       		.uleb128 0x32
 6220 1bfa 01       		.uleb128 0x1
 6221 1bfb 50       		.byte	0x50
 6222 1bfc 02       		.uleb128 0x2
 6223 1bfd 79       		.byte	0x79
 6224 1bfe 00       		.sleb128 0
 6225 1bff 00       		.byte	0
 6226 1c00 33       		.uleb128 0x33
 6227 1c01 3E020000 		.4byte	.LVL79
 6228 1c05 42290000 		.4byte	0x2942
 6229 1c09 191C0000 		.4byte	0x1c19
ARM GAS  C:\Users\pearlstl\AppData\Local\Temp\cciL9yyu.s 			page 134


 6230 1c0d 32       		.uleb128 0x32
 6231 1c0e 01       		.uleb128 0x1
 6232 1c0f 50       		.byte	0x50
 6233 1c10 02       		.uleb128 0x2
 6234 1c11 79       		.byte	0x79
 6235 1c12 00       		.sleb128 0
 6236 1c13 32       		.uleb128 0x32
 6237 1c14 01       		.uleb128 0x1
 6238 1c15 51       		.byte	0x51
 6239 1c16 01       		.uleb128 0x1
 6240 1c17 31       		.byte	0x31
 6241 1c18 00       		.byte	0
 6242 1c19 33       		.uleb128 0x33
 6243 1c1a 4C020000 		.4byte	.LVL81
 6244 1c1e 4E290000 		.4byte	0x294e
 6245 1c22 2D1C0000 		.4byte	0x1c2d
 6246 1c26 32       		.uleb128 0x32
 6247 1c27 01       		.uleb128 0x1
 6248 1c28 50       		.byte	0x50
 6249 1c29 02       		.uleb128 0x2
 6250 1c2a 76       		.byte	0x76
 6251 1c2b 00       		.sleb128 0
 6252 1c2c 00       		.byte	0
 6253 1c2d 33       		.uleb128 0x33
 6254 1c2e 64020000 		.4byte	.LVL83
 6255 1c32 59290000 		.4byte	0x2959
 6256 1c36 471C0000 		.4byte	0x1c47
 6257 1c3a 32       		.uleb128 0x32
 6258 1c3b 01       		.uleb128 0x1
 6259 1c3c 50       		.byte	0x50
 6260 1c3d 02       		.uleb128 0x2
 6261 1c3e 76       		.byte	0x76
 6262 1c3f 00       		.sleb128 0
 6263 1c40 32       		.uleb128 0x32
 6264 1c41 01       		.uleb128 0x1
 6265 1c42 51       		.byte	0x51
 6266 1c43 02       		.uleb128 0x2
 6267 1c44 74       		.byte	0x74
 6268 1c45 00       		.sleb128 0
 6269 1c46 00       		.byte	0
 6270 1c47 33       		.uleb128 0x33
 6271 1c48 72020000 		.4byte	.LVL84
 6272 1c4c 64290000 		.4byte	0x2964
 6273 1c50 5B1C0000 		.4byte	0x1c5b
 6274 1c54 32       		.uleb128 0x32
 6275 1c55 01       		.uleb128 0x1
 6276 1c56 50       		.byte	0x50
 6277 1c57 02       		.uleb128 0x2
 6278 1c58 74       		.byte	0x74
 6279 1c59 00       		.sleb128 0
 6280 1c5a 00       		.byte	0
 6281 1c5b 33       		.uleb128 0x33
 6282 1c5c 7E020000 		.4byte	.LVL85
 6283 1c60 70290000 		.4byte	0x2970
 6284 1c64 741C0000 		.4byte	0x1c74
 6285 1c68 32       		.uleb128 0x32
 6286 1c69 01       		.uleb128 0x1
ARM GAS  C:\Users\pearlstl\AppData\Local\Temp\cciL9yyu.s 			page 135


 6287 1c6a 50       		.byte	0x50
 6288 1c6b 02       		.uleb128 0x2
 6289 1c6c 74       		.byte	0x74
 6290 1c6d 00       		.sleb128 0
 6291 1c6e 32       		.uleb128 0x32
 6292 1c6f 01       		.uleb128 0x1
 6293 1c70 51       		.byte	0x51
 6294 1c71 01       		.uleb128 0x1
 6295 1c72 34       		.byte	0x34
 6296 1c73 00       		.byte	0
 6297 1c74 33       		.uleb128 0x33
 6298 1c75 92020000 		.4byte	.LVL87
 6299 1c79 AA290000 		.4byte	0x29aa
 6300 1c7d A11C0000 		.4byte	0x1ca1
 6301 1c81 32       		.uleb128 0x32
 6302 1c82 01       		.uleb128 0x1
 6303 1c83 50       		.byte	0x50
 6304 1c84 02       		.uleb128 0x2
 6305 1c85 74       		.byte	0x74
 6306 1c86 00       		.sleb128 0
 6307 1c87 32       		.uleb128 0x32
 6308 1c88 01       		.uleb128 0x1
 6309 1c89 51       		.byte	0x51
 6310 1c8a 02       		.uleb128 0x2
 6311 1c8b 79       		.byte	0x79
 6312 1c8c 00       		.sleb128 0
 6313 1c8d 32       		.uleb128 0x32
 6314 1c8e 01       		.uleb128 0x1
 6315 1c8f 52       		.byte	0x52
 6316 1c90 02       		.uleb128 0x2
 6317 1c91 78       		.byte	0x78
 6318 1c92 00       		.sleb128 0
 6319 1c93 32       		.uleb128 0x32
 6320 1c94 01       		.uleb128 0x1
 6321 1c95 53       		.byte	0x53
 6322 1c96 02       		.uleb128 0x2
 6323 1c97 75       		.byte	0x75
 6324 1c98 00       		.sleb128 0
 6325 1c99 32       		.uleb128 0x32
 6326 1c9a 02       		.uleb128 0x2
 6327 1c9b 7D       		.byte	0x7d
 6328 1c9c 00       		.sleb128 0
 6329 1c9d 02       		.uleb128 0x2
 6330 1c9e 7A       		.byte	0x7a
 6331 1c9f 00       		.sleb128 0
 6332 1ca0 00       		.byte	0
 6333 1ca1 33       		.uleb128 0x33
 6334 1ca2 98020000 		.4byte	.LVL88
 6335 1ca6 12290000 		.4byte	0x2912
 6336 1caa B51C0000 		.4byte	0x1cb5
 6337 1cae 32       		.uleb128 0x32
 6338 1caf 01       		.uleb128 0x1
 6339 1cb0 50       		.byte	0x50
 6340 1cb1 02       		.uleb128 0x2
 6341 1cb2 74       		.byte	0x74
 6342 1cb3 00       		.sleb128 0
 6343 1cb4 00       		.byte	0
ARM GAS  C:\Users\pearlstl\AppData\Local\Temp\cciL9yyu.s 			page 136


 6344 1cb5 33       		.uleb128 0x33
 6345 1cb6 AC020000 		.4byte	.LVL90
 6346 1cba 70290000 		.4byte	0x2970
 6347 1cbe CE1C0000 		.4byte	0x1cce
 6348 1cc2 32       		.uleb128 0x32
 6349 1cc3 01       		.uleb128 0x1
 6350 1cc4 50       		.byte	0x50
 6351 1cc5 02       		.uleb128 0x2
 6352 1cc6 74       		.byte	0x74
 6353 1cc7 00       		.sleb128 0
 6354 1cc8 32       		.uleb128 0x32
 6355 1cc9 01       		.uleb128 0x1
 6356 1cca 51       		.byte	0x51
 6357 1ccb 01       		.uleb128 0x1
 6358 1ccc 34       		.byte	0x34
 6359 1ccd 00       		.byte	0
 6360 1cce 33       		.uleb128 0x33
 6361 1ccf C6020000 		.4byte	.LVL92
 6362 1cd3 AA290000 		.4byte	0x29aa
 6363 1cd7 FC1C0000 		.4byte	0x1cfc
 6364 1cdb 32       		.uleb128 0x32
 6365 1cdc 01       		.uleb128 0x1
 6366 1cdd 50       		.byte	0x50
 6367 1cde 02       		.uleb128 0x2
 6368 1cdf 74       		.byte	0x74
 6369 1ce0 00       		.sleb128 0
 6370 1ce1 32       		.uleb128 0x32
 6371 1ce2 01       		.uleb128 0x1
 6372 1ce3 51       		.byte	0x51
 6373 1ce4 02       		.uleb128 0x2
 6374 1ce5 79       		.byte	0x79
 6375 1ce6 00       		.sleb128 0
 6376 1ce7 32       		.uleb128 0x32
 6377 1ce8 01       		.uleb128 0x1
 6378 1ce9 52       		.byte	0x52
 6379 1cea 02       		.uleb128 0x2
 6380 1ceb 78       		.byte	0x78
 6381 1cec 00       		.sleb128 0
 6382 1ced 32       		.uleb128 0x32
 6383 1cee 01       		.uleb128 0x1
 6384 1cef 53       		.byte	0x53
 6385 1cf0 03       		.uleb128 0x3
 6386 1cf1 7B       		.byte	0x7b
 6387 1cf2 00       		.sleb128 0
 6388 1cf3 1F       		.byte	0x1f
 6389 1cf4 32       		.uleb128 0x32
 6390 1cf5 02       		.uleb128 0x2
 6391 1cf6 7D       		.byte	0x7d
 6392 1cf7 00       		.sleb128 0
 6393 1cf8 02       		.uleb128 0x2
 6394 1cf9 7A       		.byte	0x7a
 6395 1cfa 00       		.sleb128 0
 6396 1cfb 00       		.byte	0
 6397 1cfc 33       		.uleb128 0x33
 6398 1cfd CC020000 		.4byte	.LVL93
 6399 1d01 12290000 		.4byte	0x2912
 6400 1d05 101D0000 		.4byte	0x1d10
ARM GAS  C:\Users\pearlstl\AppData\Local\Temp\cciL9yyu.s 			page 137


 6401 1d09 32       		.uleb128 0x32
 6402 1d0a 01       		.uleb128 0x1
 6403 1d0b 50       		.byte	0x50
 6404 1d0c 02       		.uleb128 0x2
 6405 1d0d 74       		.byte	0x74
 6406 1d0e 00       		.sleb128 0
 6407 1d0f 00       		.byte	0
 6408 1d10 33       		.uleb128 0x33
 6409 1d11 E0020000 		.4byte	.LVL96
 6410 1d15 59290000 		.4byte	0x2959
 6411 1d19 2A1D0000 		.4byte	0x1d2a
 6412 1d1d 32       		.uleb128 0x32
 6413 1d1e 01       		.uleb128 0x1
 6414 1d1f 50       		.byte	0x50
 6415 1d20 02       		.uleb128 0x2
 6416 1d21 76       		.byte	0x76
 6417 1d22 00       		.sleb128 0
 6418 1d23 32       		.uleb128 0x32
 6419 1d24 01       		.uleb128 0x1
 6420 1d25 51       		.byte	0x51
 6421 1d26 02       		.uleb128 0x2
 6422 1d27 74       		.byte	0x74
 6423 1d28 00       		.sleb128 0
 6424 1d29 00       		.byte	0
 6425 1d2a 33       		.uleb128 0x33
 6426 1d2b EE020000 		.4byte	.LVL97
 6427 1d2f 64290000 		.4byte	0x2964
 6428 1d33 3E1D0000 		.4byte	0x1d3e
 6429 1d37 32       		.uleb128 0x32
 6430 1d38 01       		.uleb128 0x1
 6431 1d39 50       		.byte	0x50
 6432 1d3a 02       		.uleb128 0x2
 6433 1d3b 74       		.byte	0x74
 6434 1d3c 00       		.sleb128 0
 6435 1d3d 00       		.byte	0
 6436 1d3e 31       		.uleb128 0x31
 6437 1d3f 04060000 		.4byte	.LVL209
 6438 1d43 42290000 		.4byte	0x2942
 6439 1d47 32       		.uleb128 0x32
 6440 1d48 01       		.uleb128 0x1
 6441 1d49 50       		.byte	0x50
 6442 1d4a 02       		.uleb128 0x2
 6443 1d4b 79       		.byte	0x79
 6444 1d4c 00       		.sleb128 0
 6445 1d4d 32       		.uleb128 0x32
 6446 1d4e 01       		.uleb128 0x1
 6447 1d4f 51       		.byte	0x51
 6448 1d50 01       		.uleb128 0x1
 6449 1d51 31       		.byte	0x31
 6450 1d52 00       		.byte	0
 6451 1d53 00       		.byte	0
 6452 1d54 00       		.byte	0
 6453 1d55 2D       		.uleb128 0x2d
 6454 1d56 2E140000 		.4byte	0x142e
 6455 1d5a 7C030000 		.4byte	.LBB73
 6456 1d5e C8000000 		.4byte	.Ldebug_ranges0+0xc8
 6457 1d62 01       		.byte	0x1
ARM GAS  C:\Users\pearlstl\AppData\Local\Temp\cciL9yyu.s 			page 138


 6458 1d63 2C01     		.2byte	0x12c
 6459 1d65 F9200000 		.4byte	0x20f9
 6460 1d69 2E       		.uleb128 0x2e
 6461 1d6a 3B140000 		.4byte	0x143b
 6462 1d6e F9070000 		.4byte	.LLST39
 6463 1d72 2F       		.uleb128 0x2f
 6464 1d73 C8000000 		.4byte	.Ldebug_ranges0+0xc8
 6465 1d77 30       		.uleb128 0x30
 6466 1d78 47140000 		.4byte	0x1447
 6467 1d7c 30080000 		.4byte	.LLST40
 6468 1d80 30       		.uleb128 0x30
 6469 1d81 53140000 		.4byte	0x1453
 6470 1d85 B1080000 		.4byte	.LLST41
 6471 1d89 30       		.uleb128 0x30
 6472 1d8a 5F140000 		.4byte	0x145f
 6473 1d8e 53090000 		.4byte	.LLST42
 6474 1d92 30       		.uleb128 0x30
 6475 1d93 6B140000 		.4byte	0x146b
 6476 1d97 92090000 		.4byte	.LLST43
 6477 1d9b 30       		.uleb128 0x30
 6478 1d9c 77140000 		.4byte	0x1477
 6479 1da0 C6090000 		.4byte	.LLST44
 6480 1da4 30       		.uleb128 0x30
 6481 1da5 83140000 		.4byte	0x1483
 6482 1da9 EF090000 		.4byte	.LLST45
 6483 1dad 37       		.uleb128 0x37
 6484 1dae E8000000 		.4byte	.Ldebug_ranges0+0xe8
 6485 1db2 A6200000 		.4byte	0x20a6
 6486 1db6 30       		.uleb128 0x30
 6487 1db7 90140000 		.4byte	0x1490
 6488 1dbb 1B0A0000 		.4byte	.LLST46
 6489 1dbf 30       		.uleb128 0x30
 6490 1dc0 9C140000 		.4byte	0x149c
 6491 1dc4 660A0000 		.4byte	.LLST47
 6492 1dc8 30       		.uleb128 0x30
 6493 1dc9 A8140000 		.4byte	0x14a8
 6494 1dcd CB0A0000 		.4byte	.LLST48
 6495 1dd1 37       		.uleb128 0x37
 6496 1dd2 08010000 		.4byte	.Ldebug_ranges0+0x108
 6497 1dd6 A41E0000 		.4byte	0x1ea4
 6498 1dda 30       		.uleb128 0x30
 6499 1ddb B9140000 		.4byte	0x14b9
 6500 1ddf 6B0B0000 		.4byte	.LLST49
 6501 1de3 30       		.uleb128 0x30
 6502 1de4 C5140000 		.4byte	0x14c5
 6503 1de8 890B0000 		.4byte	.LLST50
 6504 1dec 30       		.uleb128 0x30
 6505 1ded D1140000 		.4byte	0x14d1
 6506 1df1 A70B0000 		.4byte	.LLST51
 6507 1df5 33       		.uleb128 0x33
 6508 1df6 20060000 		.4byte	.LVL213
 6509 1dfa 59290000 		.4byte	0x2959
 6510 1dfe 0F1E0000 		.4byte	0x1e0f
 6511 1e02 32       		.uleb128 0x32
 6512 1e03 01       		.uleb128 0x1
 6513 1e04 50       		.byte	0x50
 6514 1e05 02       		.uleb128 0x2
ARM GAS  C:\Users\pearlstl\AppData\Local\Temp\cciL9yyu.s 			page 139


 6515 1e06 78       		.byte	0x78
 6516 1e07 00       		.sleb128 0
 6517 1e08 32       		.uleb128 0x32
 6518 1e09 01       		.uleb128 0x1
 6519 1e0a 51       		.byte	0x51
 6520 1e0b 02       		.uleb128 0x2
 6521 1e0c 77       		.byte	0x77
 6522 1e0d 00       		.sleb128 0
 6523 1e0e 00       		.byte	0
 6524 1e0f 33       		.uleb128 0x33
 6525 1e10 28060000 		.4byte	.LVL216
 6526 1e14 12290000 		.4byte	0x2912
 6527 1e18 231E0000 		.4byte	0x1e23
 6528 1e1c 32       		.uleb128 0x32
 6529 1e1d 01       		.uleb128 0x1
 6530 1e1e 50       		.byte	0x50
 6531 1e1f 02       		.uleb128 0x2
 6532 1e20 77       		.byte	0x77
 6533 1e21 00       		.sleb128 0
 6534 1e22 00       		.byte	0
 6535 1e23 33       		.uleb128 0x33
 6536 1e24 30060000 		.4byte	.LVL218
 6537 1e28 12290000 		.4byte	0x2912
 6538 1e2c 371E0000 		.4byte	0x1e37
 6539 1e30 32       		.uleb128 0x32
 6540 1e31 01       		.uleb128 0x1
 6541 1e32 50       		.byte	0x50
 6542 1e33 02       		.uleb128 0x2
 6543 1e34 75       		.byte	0x75
 6544 1e35 00       		.sleb128 0
 6545 1e36 00       		.byte	0
 6546 1e37 33       		.uleb128 0x33
 6547 1e38 4A060000 		.4byte	.LVL221
 6548 1e3c 36290000 		.4byte	0x2936
 6549 1e40 4B1E0000 		.4byte	0x1e4b
 6550 1e44 32       		.uleb128 0x32
 6551 1e45 01       		.uleb128 0x1
 6552 1e46 50       		.byte	0x50
 6553 1e47 02       		.uleb128 0x2
 6554 1e48 77       		.byte	0x77
 6555 1e49 00       		.sleb128 0
 6556 1e4a 00       		.byte	0
 6557 1e4b 33       		.uleb128 0x33
 6558 1e4c 6E060000 		.4byte	.LVL223
 6559 1e50 AA290000 		.4byte	0x29aa
 6560 1e54 6C1E0000 		.4byte	0x1e6c
 6561 1e58 32       		.uleb128 0x32
 6562 1e59 01       		.uleb128 0x1
 6563 1e5a 51       		.byte	0x51
 6564 1e5b 02       		.uleb128 0x2
 6565 1e5c 77       		.byte	0x77
 6566 1e5d 00       		.sleb128 0
 6567 1e5e 32       		.uleb128 0x32
 6568 1e5f 01       		.uleb128 0x1
 6569 1e60 52       		.byte	0x52
 6570 1e61 01       		.uleb128 0x1
 6571 1e62 31       		.byte	0x31
ARM GAS  C:\Users\pearlstl\AppData\Local\Temp\cciL9yyu.s 			page 140


 6572 1e63 32       		.uleb128 0x32
 6573 1e64 01       		.uleb128 0x1
 6574 1e65 53       		.byte	0x53
 6575 1e66 04       		.uleb128 0x4
 6576 1e67 91       		.byte	0x91
 6577 1e68 54       		.sleb128 -44
 6578 1e69 94       		.byte	0x94
 6579 1e6a 02       		.byte	0x2
 6580 1e6b 00       		.byte	0
 6581 1e6c 33       		.uleb128 0x33
 6582 1e6d 74060000 		.4byte	.LVL224
 6583 1e71 36290000 		.4byte	0x2936
 6584 1e75 801E0000 		.4byte	0x1e80
 6585 1e79 32       		.uleb128 0x32
 6586 1e7a 01       		.uleb128 0x1
 6587 1e7b 50       		.byte	0x50
 6588 1e7c 02       		.uleb128 0x2
 6589 1e7d 75       		.byte	0x75
 6590 1e7e 00       		.sleb128 0
 6591 1e7f 00       		.byte	0
 6592 1e80 31       		.uleb128 0x31
 6593 1e81 94060000 		.4byte	.LVL225
 6594 1e85 AA290000 		.4byte	0x29aa
 6595 1e89 32       		.uleb128 0x32
 6596 1e8a 01       		.uleb128 0x1
 6597 1e8b 50       		.byte	0x50
 6598 1e8c 02       		.uleb128 0x2
 6599 1e8d 75       		.byte	0x75
 6600 1e8e 00       		.sleb128 0
 6601 1e8f 32       		.uleb128 0x32
 6602 1e90 01       		.uleb128 0x1
 6603 1e91 51       		.byte	0x51
 6604 1e92 02       		.uleb128 0x2
 6605 1e93 77       		.byte	0x77
 6606 1e94 00       		.sleb128 0
 6607 1e95 32       		.uleb128 0x32
 6608 1e96 01       		.uleb128 0x1
 6609 1e97 52       		.byte	0x52
 6610 1e98 01       		.uleb128 0x1
 6611 1e99 33       		.byte	0x33
 6612 1e9a 32       		.uleb128 0x32
 6613 1e9b 01       		.uleb128 0x1
 6614 1e9c 53       		.byte	0x53
 6615 1e9d 04       		.uleb128 0x4
 6616 1e9e 91       		.byte	0x91
 6617 1e9f 54       		.sleb128 -44
 6618 1ea0 06       		.byte	0x6
 6619 1ea1 1F       		.byte	0x1f
 6620 1ea2 00       		.byte	0
 6621 1ea3 00       		.byte	0
 6622 1ea4 38       		.uleb128 0x38
 6623 1ea5 18050000 		.4byte	.LBB77
 6624 1ea9 7C000000 		.4byte	.LBE77-.LBB77
 6625 1ead 551F0000 		.4byte	0x1f55
 6626 1eb1 30       		.uleb128 0x30
 6627 1eb2 DF140000 		.4byte	0x14df
 6628 1eb6 BB0B0000 		.4byte	.LLST52
ARM GAS  C:\Users\pearlstl\AppData\Local\Temp\cciL9yyu.s 			page 141


 6629 1eba 30       		.uleb128 0x30
 6630 1ebb EB140000 		.4byte	0x14eb
 6631 1ebf CE0B0000 		.4byte	.LLST53
 6632 1ec3 33       		.uleb128 0x33
 6633 1ec4 46050000 		.4byte	.LVL182
 6634 1ec8 59290000 		.4byte	0x2959
 6635 1ecc DD1E0000 		.4byte	0x1edd
 6636 1ed0 32       		.uleb128 0x32
 6637 1ed1 01       		.uleb128 0x1
 6638 1ed2 50       		.byte	0x50
 6639 1ed3 02       		.uleb128 0x2
 6640 1ed4 78       		.byte	0x78
 6641 1ed5 00       		.sleb128 0
 6642 1ed6 32       		.uleb128 0x32
 6643 1ed7 01       		.uleb128 0x1
 6644 1ed8 51       		.byte	0x51
 6645 1ed9 02       		.uleb128 0x2
 6646 1eda 77       		.byte	0x77
 6647 1edb 00       		.sleb128 0
 6648 1edc 00       		.byte	0
 6649 1edd 33       		.uleb128 0x33
 6650 1ede 52050000 		.4byte	.LVL184
 6651 1ee2 64290000 		.4byte	0x2964
 6652 1ee6 F11E0000 		.4byte	0x1ef1
 6653 1eea 32       		.uleb128 0x32
 6654 1eeb 01       		.uleb128 0x1
 6655 1eec 50       		.byte	0x50
 6656 1eed 02       		.uleb128 0x2
 6657 1eee 77       		.byte	0x77
 6658 1eef 00       		.sleb128 0
 6659 1ef0 00       		.byte	0
 6660 1ef1 33       		.uleb128 0x33
 6661 1ef2 5E050000 		.4byte	.LVL185
 6662 1ef6 70290000 		.4byte	0x2970
 6663 1efa 0A1F0000 		.4byte	0x1f0a
 6664 1efe 32       		.uleb128 0x32
 6665 1eff 01       		.uleb128 0x1
 6666 1f00 50       		.byte	0x50
 6667 1f01 02       		.uleb128 0x2
 6668 1f02 77       		.byte	0x77
 6669 1f03 00       		.sleb128 0
 6670 1f04 32       		.uleb128 0x32
 6671 1f05 01       		.uleb128 0x1
 6672 1f06 51       		.byte	0x51
 6673 1f07 01       		.uleb128 0x1
 6674 1f08 34       		.byte	0x34
 6675 1f09 00       		.byte	0
 6676 1f0a 33       		.uleb128 0x33
 6677 1f0b 68050000 		.4byte	.LVL186
 6678 1f0f 36290000 		.4byte	0x2936
 6679 1f13 1E1F0000 		.4byte	0x1f1e
 6680 1f17 32       		.uleb128 0x32
 6681 1f18 01       		.uleb128 0x1
 6682 1f19 50       		.byte	0x50
 6683 1f1a 02       		.uleb128 0x2
 6684 1f1b 77       		.byte	0x77
 6685 1f1c 00       		.sleb128 0
ARM GAS  C:\Users\pearlstl\AppData\Local\Temp\cciL9yyu.s 			page 142


 6686 1f1d 00       		.byte	0
 6687 1f1e 33       		.uleb128 0x33
 6688 1f1f 86050000 		.4byte	.LVL187
 6689 1f23 AA290000 		.4byte	0x29aa
 6690 1f27 441F0000 		.4byte	0x1f44
 6691 1f2b 32       		.uleb128 0x32
 6692 1f2c 01       		.uleb128 0x1
 6693 1f2d 50       		.byte	0x50
 6694 1f2e 02       		.uleb128 0x2
 6695 1f2f 77       		.byte	0x77
 6696 1f30 00       		.sleb128 0
 6697 1f31 32       		.uleb128 0x32
 6698 1f32 01       		.uleb128 0x1
 6699 1f33 51       		.byte	0x51
 6700 1f34 03       		.uleb128 0x3
 6701 1f35 91       		.byte	0x91
 6702 1f36 50       		.sleb128 -48
 6703 1f37 06       		.byte	0x6
 6704 1f38 32       		.uleb128 0x32
 6705 1f39 01       		.uleb128 0x1
 6706 1f3a 52       		.byte	0x52
 6707 1f3b 01       		.uleb128 0x1
 6708 1f3c 31       		.byte	0x31
 6709 1f3d 32       		.uleb128 0x32
 6710 1f3e 01       		.uleb128 0x1
 6711 1f3f 53       		.byte	0x53
 6712 1f40 02       		.uleb128 0x2
 6713 1f41 76       		.byte	0x76
 6714 1f42 00       		.sleb128 0
 6715 1f43 00       		.byte	0
 6716 1f44 31       		.uleb128 0x31
 6717 1f45 8C050000 		.4byte	.LVL188
 6718 1f49 12290000 		.4byte	0x2912
 6719 1f4d 32       		.uleb128 0x32
 6720 1f4e 01       		.uleb128 0x1
 6721 1f4f 50       		.byte	0x50
 6722 1f50 02       		.uleb128 0x2
 6723 1f51 77       		.byte	0x77
 6724 1f52 00       		.sleb128 0
 6725 1f53 00       		.byte	0
 6726 1f54 00       		.byte	0
 6727 1f55 33       		.uleb128 0x33
 6728 1f56 82030000 		.4byte	.LVL119
 6729 1f5a 12290000 		.4byte	0x2912
 6730 1f5e 691F0000 		.4byte	0x1f69
 6731 1f62 32       		.uleb128 0x32
 6732 1f63 01       		.uleb128 0x1
 6733 1f64 50       		.byte	0x50
 6734 1f65 02       		.uleb128 0x2
 6735 1f66 74       		.byte	0x74
 6736 1f67 00       		.sleb128 0
 6737 1f68 00       		.byte	0
 6738 1f69 33       		.uleb128 0x33
 6739 1f6a 90030000 		.4byte	.LVL121
 6740 1f6e 12290000 		.4byte	0x2912
 6741 1f72 7D1F0000 		.4byte	0x1f7d
 6742 1f76 32       		.uleb128 0x32
ARM GAS  C:\Users\pearlstl\AppData\Local\Temp\cciL9yyu.s 			page 143


 6743 1f77 01       		.uleb128 0x1
 6744 1f78 50       		.byte	0x50
 6745 1f79 02       		.uleb128 0x2
 6746 1f7a 74       		.byte	0x74
 6747 1f7b 00       		.sleb128 0
 6748 1f7c 00       		.byte	0
 6749 1f7d 33       		.uleb128 0x33
 6750 1f7e 9E030000 		.4byte	.LVL123
 6751 1f82 36290000 		.4byte	0x2936
 6752 1f86 911F0000 		.4byte	0x1f91
 6753 1f8a 32       		.uleb128 0x32
 6754 1f8b 01       		.uleb128 0x1
 6755 1f8c 50       		.byte	0x50
 6756 1f8d 02       		.uleb128 0x2
 6757 1f8e 74       		.byte	0x74
 6758 1f8f 00       		.sleb128 0
 6759 1f90 00       		.byte	0
 6760 1f91 33       		.uleb128 0x33
 6761 1f92 B2030000 		.4byte	.LVL127
 6762 1f96 70290000 		.4byte	0x2970
 6763 1f9a AA1F0000 		.4byte	0x1faa
 6764 1f9e 32       		.uleb128 0x32
 6765 1f9f 01       		.uleb128 0x1
 6766 1fa0 50       		.byte	0x50
 6767 1fa1 02       		.uleb128 0x2
 6768 1fa2 74       		.byte	0x74
 6769 1fa3 00       		.sleb128 0
 6770 1fa4 32       		.uleb128 0x32
 6771 1fa5 01       		.uleb128 0x1
 6772 1fa6 51       		.byte	0x51
 6773 1fa7 01       		.uleb128 0x1
 6774 1fa8 38       		.byte	0x38
 6775 1fa9 00       		.byte	0
 6776 1faa 33       		.uleb128 0x33
 6777 1fab CE030000 		.4byte	.LVL130
 6778 1faf AA290000 		.4byte	0x29aa
 6779 1fb3 D81F0000 		.4byte	0x1fd8
 6780 1fb7 32       		.uleb128 0x32
 6781 1fb8 01       		.uleb128 0x1
 6782 1fb9 50       		.byte	0x50
 6783 1fba 02       		.uleb128 0x2
 6784 1fbb 74       		.byte	0x74
 6785 1fbc 00       		.sleb128 0
 6786 1fbd 32       		.uleb128 0x32
 6787 1fbe 01       		.uleb128 0x1
 6788 1fbf 51       		.byte	0x51
 6789 1fc0 03       		.uleb128 0x3
 6790 1fc1 91       		.byte	0x91
 6791 1fc2 50       		.sleb128 -48
 6792 1fc3 06       		.byte	0x6
 6793 1fc4 32       		.uleb128 0x32
 6794 1fc5 01       		.uleb128 0x1
 6795 1fc6 52       		.byte	0x52
 6796 1fc7 01       		.uleb128 0x1
 6797 1fc8 32       		.byte	0x32
 6798 1fc9 32       		.uleb128 0x32
 6799 1fca 01       		.uleb128 0x1
ARM GAS  C:\Users\pearlstl\AppData\Local\Temp\cciL9yyu.s 			page 144


 6800 1fcb 53       		.byte	0x53
 6801 1fcc 01       		.uleb128 0x1
 6802 1fcd 30       		.byte	0x30
 6803 1fce 32       		.uleb128 0x32
 6804 1fcf 02       		.uleb128 0x2
 6805 1fd0 7D       		.byte	0x7d
 6806 1fd1 00       		.sleb128 0
 6807 1fd2 04       		.uleb128 0x4
 6808 1fd3 91       		.byte	0x91
 6809 1fd4 4C       		.sleb128 -52
 6810 1fd5 94       		.byte	0x94
 6811 1fd6 02       		.byte	0x2
 6812 1fd7 00       		.byte	0
 6813 1fd8 33       		.uleb128 0x33
 6814 1fd9 D4030000 		.4byte	.LVL131
 6815 1fdd 36290000 		.4byte	0x2936
 6816 1fe1 EC1F0000 		.4byte	0x1fec
 6817 1fe5 32       		.uleb128 0x32
 6818 1fe6 01       		.uleb128 0x1
 6819 1fe7 50       		.byte	0x50
 6820 1fe8 02       		.uleb128 0x2
 6821 1fe9 74       		.byte	0x74
 6822 1fea 00       		.sleb128 0
 6823 1feb 00       		.byte	0
 6824 1fec 33       		.uleb128 0x33
 6825 1fed EE030000 		.4byte	.LVL135
 6826 1ff1 59290000 		.4byte	0x2959
 6827 1ff5 06200000 		.4byte	0x2006
 6828 1ff9 32       		.uleb128 0x32
 6829 1ffa 01       		.uleb128 0x1
 6830 1ffb 50       		.byte	0x50
 6831 1ffc 02       		.uleb128 0x2
 6832 1ffd 78       		.byte	0x78
 6833 1ffe 00       		.sleb128 0
 6834 1fff 32       		.uleb128 0x32
 6835 2000 01       		.uleb128 0x1
 6836 2001 51       		.byte	0x51
 6837 2002 02       		.uleb128 0x2
 6838 2003 74       		.byte	0x74
 6839 2004 00       		.sleb128 0
 6840 2005 00       		.byte	0
 6841 2006 33       		.uleb128 0x33
 6842 2007 EE040000 		.4byte	.LVL170
 6843 200b 64290000 		.4byte	0x2964
 6844 200f 1A200000 		.4byte	0x201a
 6845 2013 32       		.uleb128 0x32
 6846 2014 01       		.uleb128 0x1
 6847 2015 50       		.byte	0x50
 6848 2016 02       		.uleb128 0x2
 6849 2017 74       		.byte	0x74
 6850 2018 00       		.sleb128 0
 6851 2019 00       		.byte	0
 6852 201a 33       		.uleb128 0x33
 6853 201b F8040000 		.4byte	.LVL171
 6854 201f 70290000 		.4byte	0x2970
 6855 2023 33200000 		.4byte	0x2033
 6856 2027 32       		.uleb128 0x32
ARM GAS  C:\Users\pearlstl\AppData\Local\Temp\cciL9yyu.s 			page 145


 6857 2028 01       		.uleb128 0x1
 6858 2029 50       		.byte	0x50
 6859 202a 02       		.uleb128 0x2
 6860 202b 74       		.byte	0x74
 6861 202c 00       		.sleb128 0
 6862 202d 32       		.uleb128 0x32
 6863 202e 01       		.uleb128 0x1
 6864 202f 51       		.byte	0x51
 6865 2030 01       		.uleb128 0x1
 6866 2031 34       		.byte	0x34
 6867 2032 00       		.byte	0
 6868 2033 33       		.uleb128 0x33
 6869 2034 06050000 		.4byte	.LVL172
 6870 2038 59290000 		.4byte	0x2959
 6871 203c 4D200000 		.4byte	0x204d
 6872 2040 32       		.uleb128 0x32
 6873 2041 01       		.uleb128 0x1
 6874 2042 50       		.byte	0x50
 6875 2043 02       		.uleb128 0x2
 6876 2044 78       		.byte	0x78
 6877 2045 00       		.sleb128 0
 6878 2046 32       		.uleb128 0x32
 6879 2047 01       		.uleb128 0x1
 6880 2048 51       		.byte	0x51
 6881 2049 02       		.uleb128 0x2
 6882 204a 74       		.byte	0x74
 6883 204b 00       		.sleb128 0
 6884 204c 00       		.byte	0
 6885 204d 33       		.uleb128 0x33
 6886 204e A4050000 		.4byte	.LVL193
 6887 2052 36290000 		.4byte	0x2936
 6888 2056 61200000 		.4byte	0x2061
 6889 205a 32       		.uleb128 0x32
 6890 205b 01       		.uleb128 0x1
 6891 205c 50       		.byte	0x50
 6892 205d 02       		.uleb128 0x2
 6893 205e 74       		.byte	0x74
 6894 205f 00       		.sleb128 0
 6895 2060 00       		.byte	0
 6896 2061 33       		.uleb128 0x33
 6897 2062 B8050000 		.4byte	.LVL196
 6898 2066 AA290000 		.4byte	0x29aa
 6899 206a 8F200000 		.4byte	0x208f
 6900 206e 32       		.uleb128 0x32
 6901 206f 01       		.uleb128 0x1
 6902 2070 50       		.byte	0x50
 6903 2071 02       		.uleb128 0x2
 6904 2072 77       		.byte	0x77
 6905 2073 00       		.sleb128 0
 6906 2074 32       		.uleb128 0x32
 6907 2075 01       		.uleb128 0x1
 6908 2076 51       		.byte	0x51
 6909 2077 03       		.uleb128 0x3
 6910 2078 91       		.byte	0x91
 6911 2079 50       		.sleb128 -48
 6912 207a 06       		.byte	0x6
 6913 207b 32       		.uleb128 0x32
ARM GAS  C:\Users\pearlstl\AppData\Local\Temp\cciL9yyu.s 			page 146


 6914 207c 01       		.uleb128 0x1
 6915 207d 52       		.byte	0x52
 6916 207e 01       		.uleb128 0x1
 6917 207f 32       		.byte	0x32
 6918 2080 32       		.uleb128 0x32
 6919 2081 01       		.uleb128 0x1
 6920 2082 53       		.byte	0x53
 6921 2083 01       		.uleb128 0x1
 6922 2084 30       		.byte	0x30
 6923 2085 32       		.uleb128 0x32
 6924 2086 02       		.uleb128 0x2
 6925 2087 7D       		.byte	0x7d
 6926 2088 00       		.sleb128 0
 6927 2089 04       		.uleb128 0x4
 6928 208a 91       		.byte	0x91
 6929 208b 4C       		.sleb128 -52
 6930 208c 94       		.byte	0x94
 6931 208d 02       		.byte	0x2
 6932 208e 00       		.byte	0
 6933 208f 31       		.uleb128 0x31
 6934 2090 CE050000 		.4byte	.LVL199
 6935 2094 93290000 		.4byte	0x2993
 6936 2098 32       		.uleb128 0x32
 6937 2099 01       		.uleb128 0x1
 6938 209a 50       		.byte	0x50
 6939 209b 02       		.uleb128 0x2
 6940 209c 78       		.byte	0x78
 6941 209d 00       		.sleb128 0
 6942 209e 32       		.uleb128 0x32
 6943 209f 01       		.uleb128 0x1
 6944 20a0 51       		.byte	0x51
 6945 20a1 02       		.uleb128 0x2
 6946 20a2 74       		.byte	0x74
 6947 20a3 00       		.sleb128 0
 6948 20a4 00       		.byte	0
 6949 20a5 00       		.byte	0
 6950 20a6 33       		.uleb128 0x33
 6951 20a7 A8040000 		.4byte	.LVL159
 6952 20ab 06290000 		.4byte	0x2906
 6953 20af BA200000 		.4byte	0x20ba
 6954 20b3 32       		.uleb128 0x32
 6955 20b4 01       		.uleb128 0x1
 6956 20b5 50       		.byte	0x50
 6957 20b6 02       		.uleb128 0x2
 6958 20b7 79       		.byte	0x79
 6959 20b8 00       		.sleb128 0
 6960 20b9 00       		.byte	0
 6961 20ba 33       		.uleb128 0x33
 6962 20bb B0040000 		.4byte	.LVL162
 6963 20bf 12290000 		.4byte	0x2912
 6964 20c3 CE200000 		.4byte	0x20ce
 6965 20c7 32       		.uleb128 0x32
 6966 20c8 01       		.uleb128 0x1
 6967 20c9 50       		.byte	0x50
 6968 20ca 02       		.uleb128 0x2
 6969 20cb 79       		.byte	0x79
 6970 20cc 00       		.sleb128 0
ARM GAS  C:\Users\pearlstl\AppData\Local\Temp\cciL9yyu.s 			page 147


 6971 20cd 00       		.byte	0
 6972 20ce 33       		.uleb128 0x33
 6973 20cf C2040000 		.4byte	.LVL164
 6974 20d3 4E290000 		.4byte	0x294e
 6975 20d7 E2200000 		.4byte	0x20e2
 6976 20db 32       		.uleb128 0x32
 6977 20dc 01       		.uleb128 0x1
 6978 20dd 50       		.byte	0x50
 6979 20de 02       		.uleb128 0x2
 6980 20df 78       		.byte	0x78
 6981 20e0 00       		.sleb128 0
 6982 20e1 00       		.byte	0
 6983 20e2 31       		.uleb128 0x31
 6984 20e3 D2040000 		.4byte	.LVL166
 6985 20e7 42290000 		.4byte	0x2942
 6986 20eb 32       		.uleb128 0x32
 6987 20ec 01       		.uleb128 0x1
 6988 20ed 50       		.byte	0x50
 6989 20ee 02       		.uleb128 0x2
 6990 20ef 79       		.byte	0x79
 6991 20f0 00       		.sleb128 0
 6992 20f1 32       		.uleb128 0x32
 6993 20f2 01       		.uleb128 0x1
 6994 20f3 51       		.byte	0x51
 6995 20f4 01       		.uleb128 0x1
 6996 20f5 31       		.byte	0x31
 6997 20f6 00       		.byte	0
 6998 20f7 00       		.byte	0
 6999 20f8 00       		.byte	0
 7000 20f9 31       		.uleb128 0x31
 7001 20fa 16000000 		.4byte	.LVL4
 7002 20fe 1E290000 		.4byte	0x291e
 7003 2102 32       		.uleb128 0x32
 7004 2103 01       		.uleb128 0x1
 7005 2104 50       		.byte	0x50
 7006 2105 02       		.uleb128 0x2
 7007 2106 79       		.byte	0x79
 7008 2107 00       		.sleb128 0
 7009 2108 32       		.uleb128 0x32
 7010 2109 01       		.uleb128 0x1
 7011 210a 51       		.byte	0x51
 7012 210b 01       		.uleb128 0x1
 7013 210c 30       		.byte	0x30
 7014 210d 00       		.byte	0
 7015 210e 00       		.byte	0
 7016 210f 2B       		.uleb128 0x2b
 7017 2110 56010000 		.4byte	.LASF282
 7018 2114 01       		.byte	0x1
 7019 2115 5B02     		.2byte	0x25b
 7020 2117 00000000 		.4byte	.LFB50
 7021 211b 70030000 		.4byte	.LFE50-.LFB50
 7022 211f 01       		.uleb128 0x1
 7023 2120 9C       		.byte	0x9c
 7024 2121 E7230000 		.4byte	0x23e7
 7025 2125 2C       		.uleb128 0x2c
 7026 2126 01020000 		.4byte	.LASF225
 7027 212a 01       		.byte	0x1
ARM GAS  C:\Users\pearlstl\AppData\Local\Temp\cciL9yyu.s 			page 148


 7028 212b 5B02     		.2byte	0x25b
 7029 212d CA120000 		.4byte	0x12ca
 7030 2131 F70B0000 		.4byte	.LLST54
 7031 2135 39       		.uleb128 0x39
 7032 2136 65787400 		.ascii	"ext\000"
 7033 213a 01       		.byte	0x1
 7034 213b 5D02     		.2byte	0x25d
 7035 213d 02130000 		.4byte	0x1302
 7036 2141 150C0000 		.4byte	.LLST55
 7037 2145 3A       		.uleb128 0x3a
 7038 2146 B6090000 		.4byte	.LASF283
 7039 214a 01       		.byte	0x1
 7040 214b 6402     		.2byte	0x264
 7041 214d CA020000 		.4byte	0x2ca
 7042 2151 03       		.uleb128 0x3
 7043 2152 91       		.byte	0x91
 7044 2153 B87F     		.sleb128 -72
 7045 2155 3B       		.uleb128 0x3b
 7046 2156 6F726900 		.ascii	"ori\000"
 7047 215a 01       		.byte	0x1
 7048 215b 6502     		.2byte	0x265
 7049 215d CA020000 		.4byte	0x2ca
 7050 2161 02       		.uleb128 0x2
 7051 2162 91       		.byte	0x91
 7052 2163 40       		.sleb128 -64
 7053 2164 3C       		.uleb128 0x3c
 7054 2165 BE0A0000 		.4byte	.LASF244
 7055 2169 01       		.byte	0x1
 7056 216a 6602     		.2byte	0x266
 7057 216c 3C090000 		.4byte	0x93c
 7058 2170 490C0000 		.4byte	.LLST56
 7059 2174 3C       		.uleb128 0x3c
 7060 2175 46110000 		.4byte	.LASF284
 7061 2179 01       		.byte	0x1
 7062 217a 6702     		.2byte	0x267
 7063 217c CA120000 		.4byte	0x12ca
 7064 2180 690C0000 		.4byte	.LLST57
 7065 2184 39       		.uleb128 0x39
 7066 2185 70617200 		.ascii	"par\000"
 7067 2189 01       		.byte	0x1
 7068 218a 6902     		.2byte	0x269
 7069 218c CA120000 		.4byte	0x12ca
 7070 2190 BE0C0000 		.4byte	.LLST58
 7071 2194 3C       		.uleb128 0x3c
 7072 2195 5F0A0000 		.4byte	.LASF285
 7073 2199 01       		.byte	0x1
 7074 219a 6A02     		.2byte	0x26a
 7075 219c 3C090000 		.4byte	0x93c
 7076 21a0 DC0C0000 		.4byte	.LLST59
 7077 21a4 3A       		.uleb128 0x3a
 7078 21a5 410C0000 		.4byte	.LASF286
 7079 21a9 01       		.byte	0x1
 7080 21aa 6B02     		.2byte	0x26b
 7081 21ac CA020000 		.4byte	0x2ca
 7082 21b0 02       		.uleb128 0x2
 7083 21b1 91       		.byte	0x91
 7084 21b2 48       		.sleb128 -56
ARM GAS  C:\Users\pearlstl\AppData\Local\Temp\cciL9yyu.s 			page 149


 7085 21b3 3C       		.uleb128 0x3c
 7086 21b4 62100000 		.4byte	.LASF287
 7087 21b8 01       		.byte	0x1
 7088 21b9 7602     		.2byte	0x276
 7089 21bb BF010000 		.4byte	0x1bf
 7090 21bf FA0C0000 		.4byte	.LLST60
 7091 21c3 3A       		.uleb128 0x3a
 7092 21c4 CA0B0000 		.4byte	.LASF288
 7093 21c8 01       		.byte	0x1
 7094 21c9 8D02     		.2byte	0x28d
 7095 21cb CA020000 		.4byte	0x2ca
 7096 21cf 02       		.uleb128 0x2
 7097 21d0 91       		.byte	0x91
 7098 21d1 50       		.sleb128 -48
 7099 21d2 2D       		.uleb128 0x2d
 7100 21d3 79120000 		.4byte	0x1279
 7101 21d7 36000000 		.4byte	.LBB91
 7102 21db 20010000 		.4byte	.Ldebug_ranges0+0x120
 7103 21df 01       		.byte	0x1
 7104 21e0 6C02     		.2byte	0x26c
 7105 21e2 F9210000 		.4byte	0x21f9
 7106 21e6 2E       		.uleb128 0x2e
 7107 21e7 90120000 		.4byte	0x1290
 7108 21eb 320D0000 		.4byte	.LLST61
 7109 21ef 2E       		.uleb128 0x2e
 7110 21f0 85120000 		.4byte	0x1285
 7111 21f4 5F0D0000 		.4byte	.LLST62
 7112 21f8 00       		.byte	0
 7113 21f9 2D       		.uleb128 0x2d
 7114 21fa 79120000 		.4byte	0x1279
 7115 21fe 4A010000 		.4byte	.LBB99
 7116 2202 48010000 		.4byte	.Ldebug_ranges0+0x148
 7117 2206 01       		.byte	0x1
 7118 2207 8E02     		.2byte	0x28e
 7119 2209 20220000 		.4byte	0x2220
 7120 220d 2E       		.uleb128 0x2e
 7121 220e 90120000 		.4byte	0x1290
 7122 2212 7F0D0000 		.4byte	.LLST63
 7123 2216 2E       		.uleb128 0x2e
 7124 2217 85120000 		.4byte	0x1285
 7125 221b 9D0D0000 		.4byte	.LLST64
 7126 221f 00       		.byte	0
 7127 2220 3D       		.uleb128 0x3d
 7128 2221 79120000 		.4byte	0x1279
 7129 2225 DE010000 		.4byte	.LBB108
 7130 2229 08000000 		.4byte	.LBE108-.LBB108
 7131 222d 01       		.byte	0x1
 7132 222e B102     		.2byte	0x2b1
 7133 2230 47220000 		.4byte	0x2247
 7134 2234 2E       		.uleb128 0x2e
 7135 2235 90120000 		.4byte	0x1290
 7136 2239 D50D0000 		.4byte	.LLST65
 7137 223d 2E       		.uleb128 0x2e
 7138 223e 85120000 		.4byte	0x1285
 7139 2242 E80D0000 		.4byte	.LLST66
 7140 2246 00       		.byte	0
 7141 2247 33       		.uleb128 0x33
ARM GAS  C:\Users\pearlstl\AppData\Local\Temp\cciL9yyu.s 			page 150


 7142 2248 0C000000 		.4byte	.LVL229
 7143 224c FA280000 		.4byte	0x28fa
 7144 2250 5B220000 		.4byte	0x225b
 7145 2254 32       		.uleb128 0x32
 7146 2255 01       		.uleb128 0x1
 7147 2256 50       		.byte	0x50
 7148 2257 02       		.uleb128 0x2
 7149 2258 76       		.byte	0x76
 7150 2259 00       		.sleb128 0
 7151 225a 00       		.byte	0
 7152 225b 33       		.uleb128 0x33
 7153 225c 28000000 		.4byte	.LVL234
 7154 2260 06290000 		.4byte	0x2906
 7155 2264 6F220000 		.4byte	0x226f
 7156 2268 32       		.uleb128 0x32
 7157 2269 01       		.uleb128 0x1
 7158 226a 50       		.byte	0x50
 7159 226b 02       		.uleb128 0x2
 7160 226c 76       		.byte	0x76
 7161 226d 00       		.sleb128 0
 7162 226e 00       		.byte	0
 7163 226f 33       		.uleb128 0x33
 7164 2270 30000000 		.4byte	.LVL237
 7165 2274 C2290000 		.4byte	0x29c2
 7166 2278 83220000 		.4byte	0x2283
 7167 227c 32       		.uleb128 0x32
 7168 227d 01       		.uleb128 0x1
 7169 227e 50       		.byte	0x50
 7170 227f 02       		.uleb128 0x2
 7171 2280 76       		.byte	0x76
 7172 2281 00       		.sleb128 0
 7173 2282 00       		.byte	0
 7174 2283 33       		.uleb128 0x33
 7175 2284 36000000 		.4byte	.LVL239
 7176 2288 06290000 		.4byte	0x2906
 7177 228c 97220000 		.4byte	0x2297
 7178 2290 32       		.uleb128 0x32
 7179 2291 01       		.uleb128 0x1
 7180 2292 50       		.byte	0x50
 7181 2293 02       		.uleb128 0x2
 7182 2294 7A       		.byte	0x7a
 7183 2295 00       		.sleb128 0
 7184 2296 00       		.byte	0
 7185 2297 33       		.uleb128 0x33
 7186 2298 96000000 		.4byte	.LVL246
 7187 229c CE290000 		.4byte	0x29ce
 7188 22a0 B1220000 		.4byte	0x22b1
 7189 22a4 32       		.uleb128 0x32
 7190 22a5 01       		.uleb128 0x1
 7191 22a6 50       		.byte	0x50
 7192 22a7 02       		.uleb128 0x2
 7193 22a8 76       		.byte	0x76
 7194 22a9 00       		.sleb128 0
 7195 22aa 32       		.uleb128 0x32
 7196 22ab 01       		.uleb128 0x1
 7197 22ac 51       		.byte	0x51
 7198 22ad 02       		.uleb128 0x2
ARM GAS  C:\Users\pearlstl\AppData\Local\Temp\cciL9yyu.s 			page 151


 7199 22ae 79       		.byte	0x79
 7200 22af 00       		.sleb128 0
 7201 22b0 00       		.byte	0
 7202 22b1 33       		.uleb128 0x33
 7203 22b2 9E000000 		.4byte	.LVL247
 7204 22b6 CE290000 		.4byte	0x29ce
 7205 22ba CC220000 		.4byte	0x22cc
 7206 22be 32       		.uleb128 0x32
 7207 22bf 01       		.uleb128 0x1
 7208 22c0 50       		.byte	0x50
 7209 22c1 02       		.uleb128 0x2
 7210 22c2 76       		.byte	0x76
 7211 22c3 00       		.sleb128 0
 7212 22c4 32       		.uleb128 0x32
 7213 22c5 01       		.uleb128 0x1
 7214 22c6 51       		.byte	0x51
 7215 22c7 03       		.uleb128 0x3
 7216 22c8 91       		.byte	0x91
 7217 22c9 B87F     		.sleb128 -72
 7218 22cb 00       		.byte	0
 7219 22cc 33       		.uleb128 0x33
 7220 22cd A4000000 		.4byte	.LVL248
 7221 22d1 DA290000 		.4byte	0x29da
 7222 22d5 E0220000 		.4byte	0x22e0
 7223 22d9 32       		.uleb128 0x32
 7224 22da 01       		.uleb128 0x1
 7225 22db 50       		.byte	0x50
 7226 22dc 02       		.uleb128 0x2
 7227 22dd 75       		.byte	0x75
 7228 22de 00       		.sleb128 0
 7229 22df 00       		.byte	0
 7230 22e0 33       		.uleb128 0x33
 7231 22e1 B8000000 		.4byte	.LVL250
 7232 22e5 88290000 		.4byte	0x2988
 7233 22e9 F4220000 		.4byte	0x22f4
 7234 22ed 32       		.uleb128 0x32
 7235 22ee 01       		.uleb128 0x1
 7236 22ef 50       		.byte	0x50
 7237 22f0 02       		.uleb128 0x2
 7238 22f1 75       		.byte	0x75
 7239 22f2 00       		.sleb128 0
 7240 22f3 00       		.byte	0
 7241 22f4 33       		.uleb128 0x33
 7242 22f5 C2000000 		.4byte	.LVL251
 7243 22f9 64290000 		.4byte	0x2964
 7244 22fd 08230000 		.4byte	0x2308
 7245 2301 32       		.uleb128 0x32
 7246 2302 01       		.uleb128 0x1
 7247 2303 50       		.byte	0x50
 7248 2304 02       		.uleb128 0x2
 7249 2305 74       		.byte	0x74
 7250 2306 00       		.sleb128 0
 7251 2307 00       		.byte	0
 7252 2308 33       		.uleb128 0x33
 7253 2309 14010000 		.4byte	.LVL253
 7254 230d 93290000 		.4byte	0x2993
 7255 2311 1C230000 		.4byte	0x231c
ARM GAS  C:\Users\pearlstl\AppData\Local\Temp\cciL9yyu.s 			page 152


 7256 2315 32       		.uleb128 0x32
 7257 2316 01       		.uleb128 0x1
 7258 2317 50       		.byte	0x50
 7259 2318 02       		.uleb128 0x2
 7260 2319 75       		.byte	0x75
 7261 231a 00       		.sleb128 0
 7262 231b 00       		.byte	0
 7263 231c 33       		.uleb128 0x33
 7264 231d DE010000 		.4byte	.LVL259
 7265 2321 E5290000 		.4byte	0x29e5
 7266 2325 30230000 		.4byte	0x2330
 7267 2329 32       		.uleb128 0x32
 7268 232a 01       		.uleb128 0x1
 7269 232b 50       		.byte	0x50
 7270 232c 02       		.uleb128 0x2
 7271 232d 76       		.byte	0x76
 7272 232e 00       		.sleb128 0
 7273 232f 00       		.byte	0
 7274 2330 33       		.uleb128 0x33
 7275 2331 EC010000 		.4byte	.LVL261
 7276 2335 E5290000 		.4byte	0x29e5
 7277 2339 44230000 		.4byte	0x2344
 7278 233d 32       		.uleb128 0x32
 7279 233e 01       		.uleb128 0x1
 7280 233f 50       		.byte	0x50
 7281 2340 02       		.uleb128 0x2
 7282 2341 76       		.byte	0x76
 7283 2342 00       		.sleb128 0
 7284 2343 00       		.byte	0
 7285 2344 3E       		.uleb128 0x3e
 7286 2345 F6010000 		.4byte	.LVL262
 7287 2349 5F230000 		.4byte	0x235f
 7288 234d 32       		.uleb128 0x32
 7289 234e 01       		.uleb128 0x1
 7290 234f 50       		.byte	0x50
 7291 2350 02       		.uleb128 0x2
 7292 2351 76       		.byte	0x76
 7293 2352 00       		.sleb128 0
 7294 2353 32       		.uleb128 0x32
 7295 2354 01       		.uleb128 0x1
 7296 2355 51       		.byte	0x51
 7297 2356 01       		.uleb128 0x1
 7298 2357 32       		.byte	0x32
 7299 2358 32       		.uleb128 0x32
 7300 2359 01       		.uleb128 0x1
 7301 235a 52       		.byte	0x52
 7302 235b 02       		.uleb128 0x2
 7303 235c 79       		.byte	0x79
 7304 235d 00       		.sleb128 0
 7305 235e 00       		.byte	0
 7306 235f 3E       		.uleb128 0x3e
 7307 2360 02020000 		.4byte	.LVL263
 7308 2364 7A230000 		.4byte	0x237a
 7309 2368 32       		.uleb128 0x32
 7310 2369 01       		.uleb128 0x1
 7311 236a 50       		.byte	0x50
 7312 236b 02       		.uleb128 0x2
ARM GAS  C:\Users\pearlstl\AppData\Local\Temp\cciL9yyu.s 			page 153


 7313 236c 7A       		.byte	0x7a
 7314 236d 00       		.sleb128 0
 7315 236e 32       		.uleb128 0x32
 7316 236f 01       		.uleb128 0x1
 7317 2370 51       		.byte	0x51
 7318 2371 01       		.uleb128 0x1
 7319 2372 31       		.byte	0x31
 7320 2373 32       		.uleb128 0x32
 7321 2374 01       		.uleb128 0x1
 7322 2375 52       		.byte	0x52
 7323 2376 02       		.uleb128 0x2
 7324 2377 76       		.byte	0x76
 7325 2378 00       		.sleb128 0
 7326 2379 00       		.byte	0
 7327 237a 33       		.uleb128 0x33
 7328 237b 08020000 		.4byte	.LVL264
 7329 237f F1290000 		.4byte	0x29f1
 7330 2383 8E230000 		.4byte	0x238e
 7331 2387 32       		.uleb128 0x32
 7332 2388 01       		.uleb128 0x1
 7333 2389 50       		.byte	0x50
 7334 238a 02       		.uleb128 0x2
 7335 238b 76       		.byte	0x76
 7336 238c 00       		.sleb128 0
 7337 238d 00       		.byte	0
 7338 238e 33       		.uleb128 0x33
 7339 238f 12020000 		.4byte	.LVL265
 7340 2393 88290000 		.4byte	0x2988
 7341 2397 A2230000 		.4byte	0x23a2
 7342 239b 32       		.uleb128 0x32
 7343 239c 01       		.uleb128 0x1
 7344 239d 50       		.byte	0x50
 7345 239e 02       		.uleb128 0x2
 7346 239f 75       		.byte	0x75
 7347 23a0 00       		.sleb128 0
 7348 23a1 00       		.byte	0
 7349 23a2 3E       		.uleb128 0x3e
 7350 23a3 24020000 		.4byte	.LVL266
 7351 23a7 BC230000 		.4byte	0x23bc
 7352 23ab 32       		.uleb128 0x32
 7353 23ac 01       		.uleb128 0x1
 7354 23ad 50       		.byte	0x50
 7355 23ae 02       		.uleb128 0x2
 7356 23af 74       		.byte	0x74
 7357 23b0 00       		.sleb128 0
 7358 23b1 32       		.uleb128 0x32
 7359 23b2 01       		.uleb128 0x1
 7360 23b3 51       		.byte	0x51
 7361 23b4 01       		.uleb128 0x1
 7362 23b5 33       		.byte	0x33
 7363 23b6 32       		.uleb128 0x32
 7364 23b7 01       		.uleb128 0x1
 7365 23b8 52       		.byte	0x52
 7366 23b9 01       		.uleb128 0x1
 7367 23ba 30       		.byte	0x30
 7368 23bb 00       		.byte	0
 7369 23bc 33       		.uleb128 0x33
ARM GAS  C:\Users\pearlstl\AppData\Local\Temp\cciL9yyu.s 			page 154


 7370 23bd 2C020000 		.4byte	.LVL267
 7371 23c1 93290000 		.4byte	0x2993
 7372 23c5 D6230000 		.4byte	0x23d6
 7373 23c9 32       		.uleb128 0x32
 7374 23ca 01       		.uleb128 0x1
 7375 23cb 50       		.byte	0x50
 7376 23cc 02       		.uleb128 0x2
 7377 23cd 75       		.byte	0x75
 7378 23ce 00       		.sleb128 0
 7379 23cf 32       		.uleb128 0x32
 7380 23d0 01       		.uleb128 0x1
 7381 23d1 51       		.byte	0x51
 7382 23d2 02       		.uleb128 0x2
 7383 23d3 74       		.byte	0x74
 7384 23d4 00       		.sleb128 0
 7385 23d5 00       		.byte	0
 7386 23d6 31       		.uleb128 0x31
 7387 23d7 9A020000 		.4byte	.LVL271
 7388 23db FD290000 		.4byte	0x29fd
 7389 23df 32       		.uleb128 0x32
 7390 23e0 01       		.uleb128 0x1
 7391 23e1 50       		.byte	0x50
 7392 23e2 02       		.uleb128 0x2
 7393 23e3 76       		.byte	0x76
 7394 23e4 00       		.sleb128 0
 7395 23e5 00       		.byte	0
 7396 23e6 00       		.byte	0
 7397 23e7 3F       		.uleb128 0x3f
 7398 23e8 B4060000 		.4byte	.LASF337
 7399 23ec 01       		.byte	0x1
 7400 23ed FB       		.byte	0xfb
 7401 23ee 2A050000 		.4byte	0x52a
 7402 23f2 00000000 		.4byte	.LFB43
 7403 23f6 78000000 		.4byte	.LFE43-.LFB43
 7404 23fa 01       		.uleb128 0x1
 7405 23fb 9C       		.byte	0x9c
 7406 23fc C3240000 		.4byte	0x24c3
 7407 2400 40       		.uleb128 0x40
 7408 2401 01020000 		.4byte	.LASF225
 7409 2405 01       		.byte	0x1
 7410 2406 FB       		.byte	0xfb
 7411 2407 CA120000 		.4byte	0x12ca
 7412 240b FD0D0000 		.4byte	.LLST67
 7413 240f 40       		.uleb128 0x40
 7414 2410 36010000 		.4byte	.LASF289
 7415 2414 01       		.byte	0x1
 7416 2415 FB       		.byte	0xfb
 7417 2416 F9070000 		.4byte	0x7f9
 7418 241a 290E0000 		.4byte	.LLST68
 7419 241e 40       		.uleb128 0x40
 7420 241f 8D070000 		.4byte	.LASF290
 7421 2423 01       		.byte	0x1
 7422 2424 FB       		.byte	0xfb
 7423 2425 E4000000 		.4byte	0xe4
 7424 2429 4A0E0000 		.4byte	.LLST69
 7425 242d 41       		.uleb128 0x41
 7426 242e 72657300 		.ascii	"res\000"
ARM GAS  C:\Users\pearlstl\AppData\Local\Temp\cciL9yyu.s 			page 155


 7427 2432 01       		.byte	0x1
 7428 2433 FD       		.byte	0xfd
 7429 2434 2A050000 		.4byte	0x52a
 7430 2438 810E0000 		.4byte	.LLST70
 7431 243c 3E       		.uleb128 0x3e
 7432 243d 0E000000 		.4byte	.LVL278
 7433 2441 58240000 		.4byte	0x2458
 7434 2445 32       		.uleb128 0x32
 7435 2446 01       		.uleb128 0x1
 7436 2447 50       		.byte	0x50
 7437 2448 02       		.uleb128 0x2
 7438 2449 76       		.byte	0x76
 7439 244a 00       		.sleb128 0
 7440 244b 32       		.uleb128 0x32
 7441 244c 01       		.uleb128 0x1
 7442 244d 51       		.byte	0x51
 7443 244e 02       		.uleb128 0x2
 7444 244f 75       		.byte	0x75
 7445 2450 00       		.sleb128 0
 7446 2451 32       		.uleb128 0x32
 7447 2452 01       		.uleb128 0x1
 7448 2453 52       		.byte	0x52
 7449 2454 02       		.uleb128 0x2
 7450 2455 77       		.byte	0x77
 7451 2456 00       		.sleb128 0
 7452 2457 00       		.byte	0
 7453 2458 33       		.uleb128 0x33
 7454 2459 32000000 		.4byte	.LVL283
 7455 245d 12290000 		.4byte	0x2912
 7456 2461 6C240000 		.4byte	0x246c
 7457 2465 32       		.uleb128 0x32
 7458 2466 01       		.uleb128 0x1
 7459 2467 50       		.byte	0x50
 7460 2468 02       		.uleb128 0x2
 7461 2469 76       		.byte	0x76
 7462 246a 00       		.sleb128 0
 7463 246b 00       		.byte	0
 7464 246c 33       		.uleb128 0x33
 7465 246d 46000000 		.4byte	.LVL284
 7466 2471 36290000 		.4byte	0x2936
 7467 2475 80240000 		.4byte	0x2480
 7468 2479 32       		.uleb128 0x32
 7469 247a 01       		.uleb128 0x1
 7470 247b 50       		.byte	0x50
 7471 247c 02       		.uleb128 0x2
 7472 247d 76       		.byte	0x76
 7473 247e 00       		.sleb128 0
 7474 247f 00       		.byte	0
 7475 2480 33       		.uleb128 0x33
 7476 2481 5A000000 		.4byte	.LVL286
 7477 2485 A4150000 		.4byte	0x15a4
 7478 2489 94240000 		.4byte	0x2494
 7479 248d 32       		.uleb128 0x32
 7480 248e 01       		.uleb128 0x1
 7481 248f 50       		.byte	0x50
 7482 2490 02       		.uleb128 0x2
 7483 2491 76       		.byte	0x76
ARM GAS  C:\Users\pearlstl\AppData\Local\Temp\cciL9yyu.s 			page 156


 7484 2492 00       		.sleb128 0
 7485 2493 00       		.byte	0
 7486 2494 33       		.uleb128 0x33
 7487 2495 60000000 		.4byte	.LVL287
 7488 2499 0F210000 		.4byte	0x210f
 7489 249d A8240000 		.4byte	0x24a8
 7490 24a1 32       		.uleb128 0x32
 7491 24a2 01       		.uleb128 0x1
 7492 24a3 50       		.byte	0x50
 7493 24a4 02       		.uleb128 0x2
 7494 24a5 76       		.byte	0x76
 7495 24a6 00       		.sleb128 0
 7496 24a7 00       		.byte	0
 7497 24a8 42       		.uleb128 0x42
 7498 24a9 70000000 		.4byte	.LVL291
 7499 24ad 092A0000 		.4byte	0x2a09
 7500 24b1 32       		.uleb128 0x32
 7501 24b2 01       		.uleb128 0x1
 7502 24b3 50       		.byte	0x50
 7503 24b4 03       		.uleb128 0x3
 7504 24b5 F3       		.byte	0xf3
 7505 24b6 01       		.uleb128 0x1
 7506 24b7 52       		.byte	0x52
 7507 24b8 32       		.uleb128 0x32
 7508 24b9 01       		.uleb128 0x1
 7509 24ba 51       		.byte	0x51
 7510 24bb 05       		.uleb128 0x5
 7511 24bc 03       		.byte	0x3
 7512 24bd 00000000 		.4byte	.LC0
 7513 24c1 00       		.byte	0
 7514 24c2 00       		.byte	0
 7515 24c3 43       		.uleb128 0x43
 7516 24c4 95080000 		.4byte	.LASF296
 7517 24c8 01       		.byte	0x1
 7518 24c9 42       		.byte	0x42
 7519 24ca CA120000 		.4byte	0x12ca
 7520 24ce 00000000 		.4byte	.LFB35
 7521 24d2 D8000000 		.4byte	.LFE35-.LFB35
 7522 24d6 01       		.uleb128 0x1
 7523 24d7 9C       		.byte	0x9c
 7524 24d8 5F260000 		.4byte	0x265f
 7525 24dc 44       		.uleb128 0x44
 7526 24dd 70617200 		.ascii	"par\000"
 7527 24e1 01       		.byte	0x1
 7528 24e2 42       		.byte	0x42
 7529 24e3 CA120000 		.4byte	0x12ca
 7530 24e7 AA0E0000 		.4byte	.LLST71
 7531 24eb 40       		.uleb128 0x40
 7532 24ec 3F030000 		.4byte	.LASF291
 7533 24f0 01       		.byte	0x1
 7534 24f1 42       		.byte	0x42
 7535 24f2 F7120000 		.4byte	0x12f7
 7536 24f6 D60E0000 		.4byte	.LLST72
 7537 24fa 45       		.uleb128 0x45
 7538 24fb 39070000 		.4byte	.LASF292
 7539 24ff 01       		.byte	0x1
 7540 2500 48       		.byte	0x48
ARM GAS  C:\Users\pearlstl\AppData\Local\Temp\cciL9yyu.s 			page 157


 7541 2501 CA120000 		.4byte	0x12ca
 7542 2505 020F0000 		.4byte	.LLST73
 7543 2509 41       		.uleb128 0x41
 7544 250a 65787400 		.ascii	"ext\000"
 7545 250e 01       		.byte	0x1
 7546 250f 4F       		.byte	0x4f
 7547 2510 02130000 		.4byte	0x1302
 7548 2514 4C0F0000 		.4byte	.LLST74
 7549 2518 38       		.uleb128 0x38
 7550 2519 4E000000 		.4byte	.LBB113
 7551 251d 4C000000 		.4byte	.LBE113-.LBB113
 7552 2521 59250000 		.4byte	0x2559
 7553 2525 45       		.uleb128 0x45
 7554 2526 E3020000 		.4byte	.LASF293
 7555 252a 01       		.byte	0x1
 7556 252b 69       		.byte	0x69
 7557 252c 02130000 		.4byte	0x1302
 7558 2530 750F0000 		.4byte	.LLST75
 7559 2534 33       		.uleb128 0x33
 7560 2535 54000000 		.4byte	.LVL299
 7561 2539 FA280000 		.4byte	0x28fa
 7562 253d 48250000 		.4byte	0x2548
 7563 2541 32       		.uleb128 0x32
 7564 2542 01       		.uleb128 0x1
 7565 2543 50       		.byte	0x50
 7566 2544 02       		.uleb128 0x2
 7567 2545 76       		.byte	0x76
 7568 2546 00       		.sleb128 0
 7569 2547 00       		.byte	0
 7570 2548 31       		.uleb128 0x31
 7571 2549 96000000 		.4byte	.LVL301
 7572 254d 152A0000 		.4byte	0x2a15
 7573 2551 32       		.uleb128 0x32
 7574 2552 01       		.uleb128 0x1
 7575 2553 50       		.byte	0x50
 7576 2554 02       		.uleb128 0x2
 7577 2555 75       		.byte	0x75
 7578 2556 00       		.sleb128 0
 7579 2557 00       		.byte	0
 7580 2558 00       		.byte	0
 7581 2559 37       		.uleb128 0x37
 7582 255a 80010000 		.4byte	.Ldebug_ranges0+0x180
 7583 255e F1250000 		.4byte	0x25f1
 7584 2562 41       		.uleb128 0x41
 7585 2563 746800   		.ascii	"th\000"
 7586 2566 01       		.byte	0x1
 7587 2567 5F       		.byte	0x5f
 7588 2568 5F260000 		.4byte	0x265f
 7589 256c 880F0000 		.4byte	.LLST76
 7590 2570 46       		.uleb128 0x46
 7591 2571 9C120000 		.4byte	0x129c
 7592 2575 A2000000 		.4byte	.LBB115
 7593 2579 0C000000 		.4byte	.LBE115-.LBB115
 7594 257d 01       		.byte	0x1
 7595 257e 61       		.byte	0x61
 7596 257f AF250000 		.4byte	0x25af
 7597 2583 2E       		.uleb128 0x2e
ARM GAS  C:\Users\pearlstl\AppData\Local\Temp\cciL9yyu.s 			page 158


 7598 2584 B3120000 		.4byte	0x12b3
 7599 2588 A60F0000 		.4byte	.LLST77
 7600 258c 2E       		.uleb128 0x2e
 7601 258d BE120000 		.4byte	0x12be
 7602 2591 BA0F0000 		.4byte	.LLST78
 7603 2595 2E       		.uleb128 0x2e
 7604 2596 A8120000 		.4byte	0x12a8
 7605 259a D90F0000 		.4byte	.LLST79
 7606 259e 31       		.uleb128 0x31
 7607 259f AA000000 		.4byte	.LVL306
 7608 25a3 212A0000 		.4byte	0x2a21
 7609 25a7 32       		.uleb128 0x32
 7610 25a8 01       		.uleb128 0x1
 7611 25a9 50       		.byte	0x50
 7612 25aa 02       		.uleb128 0x2
 7613 25ab 75       		.byte	0x75
 7614 25ac 00       		.sleb128 0
 7615 25ad 00       		.byte	0
 7616 25ae 00       		.byte	0
 7617 25af 46       		.uleb128 0x46
 7618 25b0 9C120000 		.4byte	0x129c
 7619 25b4 BE000000 		.4byte	.LBB117
 7620 25b8 1A000000 		.4byte	.LBE117-.LBB117
 7621 25bc 01       		.byte	0x1
 7622 25bd 63       		.byte	0x63
 7623 25be E7250000 		.4byte	0x25e7
 7624 25c2 47       		.uleb128 0x47
 7625 25c3 B3120000 		.4byte	0x12b3
 7626 25c7 00       		.byte	0
 7627 25c8 48       		.uleb128 0x48
 7628 25c9 BE120000 		.4byte	0x12be
 7629 25cd 2E       		.uleb128 0x2e
 7630 25ce A8120000 		.4byte	0x12a8
 7631 25d2 EC0F0000 		.4byte	.LLST80
 7632 25d6 31       		.uleb128 0x31
 7633 25d7 C6000000 		.4byte	.LVL313
 7634 25db 212A0000 		.4byte	0x2a21
 7635 25df 32       		.uleb128 0x32
 7636 25e0 01       		.uleb128 0x1
 7637 25e1 50       		.byte	0x50
 7638 25e2 02       		.uleb128 0x2
 7639 25e3 75       		.byte	0x75
 7640 25e4 00       		.sleb128 0
 7641 25e5 00       		.byte	0
 7642 25e6 00       		.byte	0
 7643 25e7 34       		.uleb128 0x34
 7644 25e8 A0000000 		.4byte	.LVL303
 7645 25ec 2D2A0000 		.4byte	0x2a2d
 7646 25f0 00       		.byte	0
 7647 25f1 33       		.uleb128 0x33
 7648 25f2 0A000000 		.4byte	.LVL293
 7649 25f6 392A0000 		.4byte	0x2a39
 7650 25fa 0B260000 		.4byte	0x260b
 7651 25fe 32       		.uleb128 0x32
 7652 25ff 01       		.uleb128 0x1
 7653 2600 50       		.byte	0x50
 7654 2601 02       		.uleb128 0x2
ARM GAS  C:\Users\pearlstl\AppData\Local\Temp\cciL9yyu.s 			page 159


 7655 2602 77       		.byte	0x77
 7656 2603 00       		.sleb128 0
 7657 2604 32       		.uleb128 0x32
 7658 2605 01       		.uleb128 0x1
 7659 2606 51       		.byte	0x51
 7660 2607 02       		.uleb128 0x2
 7661 2608 76       		.byte	0x76
 7662 2609 00       		.sleb128 0
 7663 260a 00       		.byte	0
 7664 260b 33       		.uleb128 0x33
 7665 260c 20000000 		.4byte	.LVL295
 7666 2610 452A0000 		.4byte	0x2a45
 7667 2614 24260000 		.4byte	0x2624
 7668 2618 32       		.uleb128 0x32
 7669 2619 01       		.uleb128 0x1
 7670 261a 50       		.byte	0x50
 7671 261b 02       		.uleb128 0x2
 7672 261c 75       		.byte	0x75
 7673 261d 00       		.sleb128 0
 7674 261e 32       		.uleb128 0x32
 7675 261f 01       		.uleb128 0x1
 7676 2620 51       		.byte	0x51
 7677 2621 01       		.uleb128 0x1
 7678 2622 32       		.byte	0x32
 7679 2623 00       		.byte	0
 7680 2624 33       		.uleb128 0x33
 7681 2625 26000000 		.4byte	.LVL296
 7682 2629 FA280000 		.4byte	0x28fa
 7683 262d 38260000 		.4byte	0x2638
 7684 2631 32       		.uleb128 0x32
 7685 2632 01       		.uleb128 0x1
 7686 2633 50       		.byte	0x50
 7687 2634 02       		.uleb128 0x2
 7688 2635 75       		.byte	0x75
 7689 2636 00       		.sleb128 0
 7690 2637 00       		.byte	0
 7691 2638 33       		.uleb128 0x33
 7692 2639 4C000000 		.4byte	.LVL298
 7693 263d 512A0000 		.4byte	0x2a51
 7694 2641 55260000 		.4byte	0x2655
 7695 2645 32       		.uleb128 0x32
 7696 2646 01       		.uleb128 0x1
 7697 2647 50       		.byte	0x50
 7698 2648 02       		.uleb128 0x2
 7699 2649 75       		.byte	0x75
 7700 264a 00       		.sleb128 0
 7701 264b 32       		.uleb128 0x32
 7702 264c 01       		.uleb128 0x1
 7703 264d 51       		.byte	0x51
 7704 264e 05       		.uleb128 0x5
 7705 264f 03       		.byte	0x3
 7706 2650 00000000 		.4byte	lv_cont_signal
 7707 2654 00       		.byte	0
 7708 2655 34       		.uleb128 0x34
 7709 2656 B2000000 		.4byte	.LVL308
 7710 265a 5D2A0000 		.4byte	0x2a5d
 7711 265e 00       		.byte	0
ARM GAS  C:\Users\pearlstl\AppData\Local\Temp\cciL9yyu.s 			page 160


 7712 265f 0D       		.uleb128 0xd
 7713 2660 04       		.byte	0x4
 7714 2661 35120000 		.4byte	0x1235
 7715 2665 49       		.uleb128 0x49
 7716 2666 CA020000 		.4byte	.LASF294
 7717 266a 01       		.byte	0x1
 7718 266b 82       		.byte	0x82
 7719 266c 00000000 		.4byte	.LFB36
 7720 2670 2A000000 		.4byte	.LFE36-.LFB36
 7721 2674 01       		.uleb128 0x1
 7722 2675 9C       		.byte	0x9c
 7723 2676 D3260000 		.4byte	0x26d3
 7724 267a 40       		.uleb128 0x40
 7725 267b 01020000 		.4byte	.LASF225
 7726 267f 01       		.byte	0x1
 7727 2680 82       		.byte	0x82
 7728 2681 CA120000 		.4byte	0x12ca
 7729 2685 0A100000 		.4byte	.LLST81
 7730 2689 40       		.uleb128 0x40
 7731 268a FC080000 		.4byte	.LASF192
 7732 268e 01       		.byte	0x1
 7733 268f 82       		.byte	0x82
 7734 2690 D8090000 		.4byte	0x9d8
 7735 2694 4C100000 		.4byte	.LLST82
 7736 2698 41       		.uleb128 0x41
 7737 2699 65787400 		.ascii	"ext\000"
 7738 269d 01       		.byte	0x1
 7739 269e 86       		.byte	0x86
 7740 269f 02130000 		.4byte	0x1302
 7741 26a3 6D100000 		.4byte	.LLST83
 7742 26a7 33       		.uleb128 0x33
 7743 26a8 0A000000 		.4byte	.LVL316
 7744 26ac FA280000 		.4byte	0x28fa
 7745 26b0 BB260000 		.4byte	0x26bb
 7746 26b4 32       		.uleb128 0x32
 7747 26b5 01       		.uleb128 0x1
 7748 26b6 50       		.byte	0x50
 7749 26b7 02       		.uleb128 0x2
 7750 26b8 75       		.byte	0x75
 7751 26b9 00       		.sleb128 0
 7752 26ba 00       		.byte	0
 7753 26bb 4A       		.uleb128 0x4a
 7754 26bc 28000000 		.4byte	.LVL319
 7755 26c0 32       		.uleb128 0x32
 7756 26c1 01       		.uleb128 0x1
 7757 26c2 50       		.byte	0x50
 7758 26c3 03       		.uleb128 0x3
 7759 26c4 F3       		.byte	0xf3
 7760 26c5 01       		.uleb128 0x1
 7761 26c6 50       		.byte	0x50
 7762 26c7 32       		.uleb128 0x32
 7763 26c8 01       		.uleb128 0x1
 7764 26c9 51       		.byte	0x51
 7765 26ca 01       		.uleb128 0x1
 7766 26cb 31       		.byte	0x31
 7767 26cc 32       		.uleb128 0x32
 7768 26cd 01       		.uleb128 0x1
ARM GAS  C:\Users\pearlstl\AppData\Local\Temp\cciL9yyu.s 			page 161


 7769 26ce 52       		.byte	0x52
 7770 26cf 01       		.uleb128 0x1
 7771 26d0 30       		.byte	0x30
 7772 26d1 00       		.byte	0
 7773 26d2 00       		.byte	0
 7774 26d3 49       		.uleb128 0x49
 7775 26d4 02060000 		.4byte	.LASF295
 7776 26d8 01       		.byte	0x1
 7777 26d9 98       		.byte	0x98
 7778 26da 00000000 		.4byte	.LFB37
 7779 26de 6A000000 		.4byte	.LFE37-.LFB37
 7780 26e2 01       		.uleb128 0x1
 7781 26e3 9C       		.byte	0x9c
 7782 26e4 82270000 		.4byte	0x2782
 7783 26e8 40       		.uleb128 0x40
 7784 26e9 01020000 		.4byte	.LASF225
 7785 26ed 01       		.byte	0x1
 7786 26ee 98       		.byte	0x98
 7787 26ef CA120000 		.4byte	0x12ca
 7788 26f3 8B100000 		.4byte	.LLST84
 7789 26f7 40       		.uleb128 0x40
 7790 26f8 9C060000 		.4byte	.LASF50
 7791 26fc 01       		.byte	0x1
 7792 26fd 98       		.byte	0x98
 7793 26fe 0E0A0000 		.4byte	0xa0e
 7794 2702 CD100000 		.4byte	.LLST85
 7795 2706 40       		.uleb128 0x40
 7796 2707 5A080000 		.4byte	.LASF51
 7797 270b 01       		.byte	0x1
 7798 270c 98       		.byte	0x98
 7799 270d 0E0A0000 		.4byte	0xa0e
 7800 2711 EE100000 		.4byte	.LLST86
 7801 2715 44       		.uleb128 0x44
 7802 2716 746F7000 		.ascii	"top\000"
 7803 271a 01       		.byte	0x1
 7804 271b 98       		.byte	0x98
 7805 271c 0E0A0000 		.4byte	0xa0e
 7806 2720 0F110000 		.4byte	.LLST87
 7807 2724 40       		.uleb128 0x40
 7808 2725 CC080000 		.4byte	.LASF49
 7809 2729 01       		.byte	0x1
 7810 272a 98       		.byte	0x98
 7811 272b 0E0A0000 		.4byte	0xa0e
 7812 272f 30110000 		.4byte	.LLST88
 7813 2733 41       		.uleb128 0x41
 7814 2734 65787400 		.ascii	"ext\000"
 7815 2738 01       		.byte	0x1
 7816 2739 9D       		.byte	0x9d
 7817 273a 02130000 		.4byte	0x1302
 7818 273e 5C110000 		.4byte	.LLST89
 7819 2742 33       		.uleb128 0x33
 7820 2743 14000000 		.4byte	.LVL321
 7821 2747 E5290000 		.4byte	0x29e5
 7822 274b 56270000 		.4byte	0x2756
 7823 274f 32       		.uleb128 0x32
 7824 2750 01       		.uleb128 0x1
 7825 2751 50       		.byte	0x50
ARM GAS  C:\Users\pearlstl\AppData\Local\Temp\cciL9yyu.s 			page 162


 7826 2752 02       		.uleb128 0x2
 7827 2753 76       		.byte	0x76
 7828 2754 00       		.sleb128 0
 7829 2755 00       		.byte	0
 7830 2756 33       		.uleb128 0x33
 7831 2757 1A000000 		.4byte	.LVL322
 7832 275b FA280000 		.4byte	0x28fa
 7833 275f 6A270000 		.4byte	0x276a
 7834 2763 32       		.uleb128 0x32
 7835 2764 01       		.uleb128 0x1
 7836 2765 50       		.byte	0x50
 7837 2766 02       		.uleb128 0x2
 7838 2767 76       		.byte	0x76
 7839 2768 00       		.sleb128 0
 7840 2769 00       		.byte	0
 7841 276a 4A       		.uleb128 0x4a
 7842 276b 4E000000 		.4byte	.LVL325
 7843 276f 32       		.uleb128 0x32
 7844 2770 01       		.uleb128 0x1
 7845 2771 50       		.byte	0x50
 7846 2772 03       		.uleb128 0x3
 7847 2773 F3       		.byte	0xf3
 7848 2774 01       		.uleb128 0x1
 7849 2775 50       		.byte	0x50
 7850 2776 32       		.uleb128 0x32
 7851 2777 01       		.uleb128 0x1
 7852 2778 51       		.byte	0x51
 7853 2779 01       		.uleb128 0x1
 7854 277a 31       		.byte	0x31
 7855 277b 32       		.uleb128 0x32
 7856 277c 01       		.uleb128 0x1
 7857 277d 52       		.byte	0x52
 7858 277e 01       		.uleb128 0x1
 7859 277f 30       		.byte	0x30
 7860 2780 00       		.byte	0
 7861 2781 00       		.byte	0
 7862 2782 4B       		.uleb128 0x4b
 7863 2783 D0120000 		.4byte	0x12d0
 7864 2787 00000000 		.4byte	.LFB38
 7865 278b 0E000000 		.4byte	.LFE38-.LFB38
 7866 278f 01       		.uleb128 0x1
 7867 2790 9C       		.byte	0x9c
 7868 2791 B9270000 		.4byte	0x27b9
 7869 2795 2E       		.uleb128 0x2e
 7870 2796 E0120000 		.4byte	0x12e0
 7871 279a 7A110000 		.4byte	.LLST90
 7872 279e 30       		.uleb128 0x30
 7873 279f EB120000 		.4byte	0x12eb
 7874 27a3 9B110000 		.4byte	.LLST91
 7875 27a7 31       		.uleb128 0x31
 7876 27a8 06000000 		.4byte	.LVL327
 7877 27ac FA280000 		.4byte	0x28fa
 7878 27b0 32       		.uleb128 0x32
 7879 27b1 01       		.uleb128 0x1
 7880 27b2 50       		.byte	0x50
 7881 27b3 03       		.uleb128 0x3
 7882 27b4 F3       		.byte	0xf3
ARM GAS  C:\Users\pearlstl\AppData\Local\Temp\cciL9yyu.s 			page 163


 7883 27b5 01       		.uleb128 0x1
 7884 27b6 50       		.byte	0x50
 7885 27b7 00       		.byte	0
 7886 27b8 00       		.byte	0
 7887 27b9 43       		.uleb128 0x43
 7888 27ba 9F100000 		.4byte	.LASF297
 7889 27be 01       		.byte	0x1
 7890 27bf C1       		.byte	0xc1
 7891 27c0 0E0A0000 		.4byte	0xa0e
 7892 27c4 00000000 		.4byte	.LFB39
 7893 27c8 0E000000 		.4byte	.LFE39-.LFB39
 7894 27cc 01       		.uleb128 0x1
 7895 27cd 9C       		.byte	0x9c
 7896 27ce 02280000 		.4byte	0x2802
 7897 27d2 40       		.uleb128 0x40
 7898 27d3 01020000 		.4byte	.LASF225
 7899 27d7 01       		.byte	0x1
 7900 27d8 C1       		.byte	0xc1
 7901 27d9 F7120000 		.4byte	0x12f7
 7902 27dd AE110000 		.4byte	.LLST92
 7903 27e1 41       		.uleb128 0x41
 7904 27e2 65787400 		.ascii	"ext\000"
 7905 27e6 01       		.byte	0x1
 7906 27e7 C5       		.byte	0xc5
 7907 27e8 02130000 		.4byte	0x1302
 7908 27ec CF110000 		.4byte	.LLST93
 7909 27f0 31       		.uleb128 0x31
 7910 27f1 06000000 		.4byte	.LVL330
 7911 27f5 FA280000 		.4byte	0x28fa
 7912 27f9 32       		.uleb128 0x32
 7913 27fa 01       		.uleb128 0x1
 7914 27fb 50       		.byte	0x50
 7915 27fc 03       		.uleb128 0x3
 7916 27fd F3       		.byte	0xf3
 7917 27fe 01       		.uleb128 0x1
 7918 27ff 50       		.byte	0x50
 7919 2800 00       		.byte	0
 7920 2801 00       		.byte	0
 7921 2802 43       		.uleb128 0x43
 7922 2803 AD030000 		.4byte	.LASF298
 7923 2807 01       		.byte	0x1
 7924 2808 CE       		.byte	0xce
 7925 2809 0E0A0000 		.4byte	0xa0e
 7926 280d 00000000 		.4byte	.LFB40
 7927 2811 0C000000 		.4byte	.LFE40-.LFB40
 7928 2815 01       		.uleb128 0x1
 7929 2816 9C       		.byte	0x9c
 7930 2817 4B280000 		.4byte	0x284b
 7931 281b 40       		.uleb128 0x40
 7932 281c 01020000 		.4byte	.LASF225
 7933 2820 01       		.byte	0x1
 7934 2821 CE       		.byte	0xce
 7935 2822 F7120000 		.4byte	0x12f7
 7936 2826 E2110000 		.4byte	.LLST94
 7937 282a 41       		.uleb128 0x41
 7938 282b 65787400 		.ascii	"ext\000"
 7939 282f 01       		.byte	0x1
ARM GAS  C:\Users\pearlstl\AppData\Local\Temp\cciL9yyu.s 			page 164


 7940 2830 D2       		.byte	0xd2
 7941 2831 02130000 		.4byte	0x1302
 7942 2835 03120000 		.4byte	.LLST95
 7943 2839 31       		.uleb128 0x31
 7944 283a 06000000 		.4byte	.LVL333
 7945 283e FA280000 		.4byte	0x28fa
 7946 2842 32       		.uleb128 0x32
 7947 2843 01       		.uleb128 0x1
 7948 2844 50       		.byte	0x50
 7949 2845 03       		.uleb128 0x3
 7950 2846 F3       		.byte	0xf3
 7951 2847 01       		.uleb128 0x1
 7952 2848 50       		.byte	0x50
 7953 2849 00       		.byte	0
 7954 284a 00       		.byte	0
 7955 284b 43       		.uleb128 0x43
 7956 284c ED010000 		.4byte	.LASF299
 7957 2850 01       		.byte	0x1
 7958 2851 DB       		.byte	0xdb
 7959 2852 0E0A0000 		.4byte	0xa0e
 7960 2856 00000000 		.4byte	.LFB41
 7961 285a 0E000000 		.4byte	.LFE41-.LFB41
 7962 285e 01       		.uleb128 0x1
 7963 285f 9C       		.byte	0x9c
 7964 2860 94280000 		.4byte	0x2894
 7965 2864 40       		.uleb128 0x40
 7966 2865 01020000 		.4byte	.LASF225
 7967 2869 01       		.byte	0x1
 7968 286a DB       		.byte	0xdb
 7969 286b F7120000 		.4byte	0x12f7
 7970 286f 16120000 		.4byte	.LLST96
 7971 2873 41       		.uleb128 0x41
 7972 2874 65787400 		.ascii	"ext\000"
 7973 2878 01       		.byte	0x1
 7974 2879 DF       		.byte	0xdf
 7975 287a 02130000 		.4byte	0x1302
 7976 287e 37120000 		.4byte	.LLST97
 7977 2882 31       		.uleb128 0x31
 7978 2883 06000000 		.4byte	.LVL336
 7979 2887 FA280000 		.4byte	0x28fa
 7980 288b 32       		.uleb128 0x32
 7981 288c 01       		.uleb128 0x1
 7982 288d 50       		.byte	0x50
 7983 288e 03       		.uleb128 0x3
 7984 288f F3       		.byte	0xf3
 7985 2890 01       		.uleb128 0x1
 7986 2891 50       		.byte	0x50
 7987 2892 00       		.byte	0
 7988 2893 00       		.byte	0
 7989 2894 43       		.uleb128 0x43
 7990 2895 5F060000 		.4byte	.LASF300
 7991 2899 01       		.byte	0x1
 7992 289a E8       		.byte	0xe8
 7993 289b 0E0A0000 		.4byte	0xa0e
 7994 289f 00000000 		.4byte	.LFB42
 7995 28a3 0E000000 		.4byte	.LFE42-.LFB42
 7996 28a7 01       		.uleb128 0x1
ARM GAS  C:\Users\pearlstl\AppData\Local\Temp\cciL9yyu.s 			page 165


 7997 28a8 9C       		.byte	0x9c
 7998 28a9 DD280000 		.4byte	0x28dd
 7999 28ad 40       		.uleb128 0x40
 8000 28ae 01020000 		.4byte	.LASF225
 8001 28b2 01       		.byte	0x1
 8002 28b3 E8       		.byte	0xe8
 8003 28b4 F7120000 		.4byte	0x12f7
 8004 28b8 4A120000 		.4byte	.LLST98
 8005 28bc 41       		.uleb128 0x41
 8006 28bd 65787400 		.ascii	"ext\000"
 8007 28c1 01       		.byte	0x1
 8008 28c2 EC       		.byte	0xec
 8009 28c3 02130000 		.4byte	0x1302
 8010 28c7 6B120000 		.4byte	.LLST99
 8011 28cb 31       		.uleb128 0x31
 8012 28cc 06000000 		.4byte	.LVL339
 8013 28d0 FA280000 		.4byte	0x28fa
 8014 28d4 32       		.uleb128 0x32
 8015 28d5 01       		.uleb128 0x1
 8016 28d6 50       		.byte	0x50
 8017 28d7 03       		.uleb128 0x3
 8018 28d8 F3       		.byte	0xf3
 8019 28d9 01       		.uleb128 0x1
 8020 28da 50       		.byte	0x50
 8021 28db 00       		.byte	0
 8022 28dc 00       		.byte	0
 8023 28dd 4C       		.uleb128 0x4c
 8024 28de 280C0000 		.4byte	.LASF301
 8025 28e2 01       		.byte	0x1
 8026 28e3 32       		.byte	0x32
 8027 28e4 04080000 		.4byte	0x804
 8028 28e8 05       		.uleb128 0x5
 8029 28e9 03       		.byte	0x3
 8030 28ea 00000000 		.4byte	ancestor_signal
 8031 28ee 4D       		.uleb128 0x4d
 8032 28ef 780D0000 		.4byte	.LASF338
 8033 28f3 09       		.byte	0x9
 8034 28f4 1101     		.2byte	0x111
 8035 28f6 00050000 		.4byte	0x500
 8036 28fa 4E       		.uleb128 0x4e
 8037 28fb 72050000 		.4byte	.LASF302
 8038 28ff 72050000 		.4byte	.LASF302
 8039 2903 0D       		.byte	0xd
 8040 2904 AA03     		.2byte	0x3aa
 8041 2906 4E       		.uleb128 0x4e
 8042 2907 47040000 		.4byte	.LASF303
 8043 290b 47040000 		.4byte	.LASF303
 8044 290f 0D       		.byte	0xd
 8045 2910 2D03     		.2byte	0x32d
 8046 2912 4E       		.uleb128 0x4e
 8047 2913 B9010000 		.4byte	.LASF304
 8048 2917 B9010000 		.4byte	.LASF304
 8049 291b 0D       		.byte	0xd
 8050 291c E302     		.2byte	0x2e3
 8051 291e 4E       		.uleb128 0x4e
 8052 291f 93070000 		.4byte	.LASF305
 8053 2923 93070000 		.4byte	.LASF305
ARM GAS  C:\Users\pearlstl\AppData\Local\Temp\cciL9yyu.s 			page 166


 8054 2927 0D       		.byte	0xd
 8055 2928 A602     		.2byte	0x2a6
 8056 292a 4E       		.uleb128 0x4e
 8057 292b 4D0F0000 		.4byte	.LASF306
 8058 292f 4D0F0000 		.4byte	.LASF306
 8059 2933 0D       		.byte	0xd
 8060 2934 F102     		.2byte	0x2f1
 8061 2936 4E       		.uleb128 0x4e
 8062 2937 F10C0000 		.4byte	.LASF307
 8063 293b F10C0000 		.4byte	.LASF307
 8064 293f 0D       		.byte	0xd
 8065 2940 EA02     		.2byte	0x2ea
 8066 2942 4E       		.uleb128 0x4e
 8067 2943 A30C0000 		.4byte	.LASF308
 8068 2947 A30C0000 		.4byte	.LASF308
 8069 294b 0D       		.byte	0xd
 8070 294c 2E02     		.2byte	0x22e
 8071 294e 4F       		.uleb128 0x4f
 8072 294f FF070000 		.4byte	.LASF309
 8073 2953 FF070000 		.4byte	.LASF309
 8074 2957 0B       		.byte	0xb
 8075 2958 6D       		.byte	0x6d
 8076 2959 4F       		.uleb128 0x4f
 8077 295a 00000000 		.4byte	.LASF310
 8078 295e 00000000 		.4byte	.LASF310
 8079 2962 0B       		.byte	0xb
 8080 2963 7D       		.byte	0x7d
 8081 2964 4E       		.uleb128 0x4e
 8082 2965 3A100000 		.4byte	.LASF311
 8083 2969 3A100000 		.4byte	.LASF311
 8084 296d 0D       		.byte	0xd
 8085 296e 3803     		.2byte	0x338
 8086 2970 4E       		.uleb128 0x4e
 8087 2971 71010000 		.4byte	.LASF312
 8088 2975 71010000 		.4byte	.LASF312
 8089 2979 0D       		.byte	0xd
 8090 297a 8903     		.2byte	0x389
 8091 297c 4E       		.uleb128 0x4e
 8092 297d 42070000 		.4byte	.LASF313
 8093 2981 42070000 		.4byte	.LASF313
 8094 2985 0D       		.byte	0xd
 8095 2986 6F01     		.2byte	0x16f
 8096 2988 4F       		.uleb128 0x4f
 8097 2989 FD100000 		.4byte	.LASF314
 8098 298d FD100000 		.4byte	.LASF314
 8099 2991 0B       		.byte	0xb
 8100 2992 66       		.byte	0x66
 8101 2993 4F       		.uleb128 0x4f
 8102 2994 870C0000 		.4byte	.LASF315
 8103 2998 870C0000 		.4byte	.LASF315
 8104 299c 0B       		.byte	0xb
 8105 299d 75       		.byte	0x75
 8106 299e 4E       		.uleb128 0x4e
 8107 299f C3030000 		.4byte	.LASF316
 8108 29a3 C3030000 		.4byte	.LASF316
 8109 29a7 0D       		.byte	0xd
 8110 29a8 3502     		.2byte	0x235
ARM GAS  C:\Users\pearlstl\AppData\Local\Temp\cciL9yyu.s 			page 167


 8111 29aa 4E       		.uleb128 0x4e
 8112 29ab 51050000 		.4byte	.LASF317
 8113 29af 51050000 		.4byte	.LASF317
 8114 29b3 0D       		.byte	0xd
 8115 29b4 9D01     		.2byte	0x19d
 8116 29b6 4E       		.uleb128 0x4e
 8117 29b7 B7070000 		.4byte	.LASF318
 8118 29bb B7070000 		.4byte	.LASF318
 8119 29bf 0D       		.byte	0xd
 8120 29c0 6C03     		.2byte	0x36c
 8121 29c2 4E       		.uleb128 0x4e
 8122 29c3 190A0000 		.4byte	.LASF319
 8123 29c7 190A0000 		.4byte	.LASF319
 8124 29cb 0D       		.byte	0xd
 8125 29cc 9D02     		.2byte	0x29d
 8126 29ce 4E       		.uleb128 0x4e
 8127 29cf 8D100000 		.4byte	.LASF320
 8128 29d3 8D100000 		.4byte	.LASF320
 8129 29d7 0D       		.byte	0xd
 8130 29d8 C702     		.2byte	0x2c7
 8131 29da 4F       		.uleb128 0x4f
 8132 29db DB070000 		.4byte	.LASF321
 8133 29df DB070000 		.4byte	.LASF321
 8134 29e3 0B       		.byte	0xb
 8135 29e4 93       		.byte	0x93
 8136 29e5 4E       		.uleb128 0x4e
 8137 29e6 84110000 		.4byte	.LASF322
 8138 29ea 84110000 		.4byte	.LASF322
 8139 29ee 0D       		.byte	0xd
 8140 29ef 4801     		.2byte	0x148
 8141 29f1 4E       		.uleb128 0x4e
 8142 29f2 690A0000 		.4byte	.LASF323
 8143 29f6 690A0000 		.4byte	.LASF323
 8144 29fa 0D       		.byte	0xd
 8145 29fb FF02     		.2byte	0x2ff
 8146 29fd 4E       		.uleb128 0x4e
 8147 29fe 99030000 		.4byte	.LASF324
 8148 2a02 99030000 		.4byte	.LASF324
 8149 2a06 0D       		.byte	0xd
 8150 2a07 AD01     		.2byte	0x1ad
 8151 2a09 4E       		.uleb128 0x4e
 8152 2a0a 280F0000 		.4byte	.LASF325
 8153 2a0e 280F0000 		.4byte	.LASF325
 8154 2a12 0D       		.byte	0xd
 8155 2a13 E703     		.2byte	0x3e7
 8156 2a15 4E       		.uleb128 0x4e
 8157 2a16 EA070000 		.4byte	.LASF326
 8158 2a1a EA070000 		.4byte	.LASF326
 8159 2a1e 0D       		.byte	0xd
 8160 2a1f D001     		.2byte	0x1d0
 8161 2a21 4E       		.uleb128 0x4e
 8162 2a22 DD0F0000 		.4byte	.LASF327
 8163 2a26 DD0F0000 		.4byte	.LASF327
 8164 2a2a 0D       		.byte	0xd
 8165 2a2b CA01     		.2byte	0x1ca
 8166 2a2d 4E       		.uleb128 0x4e
 8167 2a2e D2110000 		.4byte	.LASF328
ARM GAS  C:\Users\pearlstl\AppData\Local\Temp\cciL9yyu.s 			page 168


 8168 2a32 D2110000 		.4byte	.LASF328
 8169 2a36 0E       		.byte	0xe
 8170 2a37 6501     		.2byte	0x165
 8171 2a39 4E       		.uleb128 0x4e
 8172 2a3a CC050000 		.4byte	.LASF329
 8173 2a3e CC050000 		.4byte	.LASF329
 8174 2a42 0D       		.byte	0xd
 8175 2a43 2401     		.2byte	0x124
 8176 2a45 4E       		.uleb128 0x4e
 8177 2a46 B3040000 		.4byte	.LASF330
 8178 2a4a B3040000 		.4byte	.LASF330
 8179 2a4e 0D       		.byte	0xd
 8180 2a4f 7A02     		.2byte	0x27a
 8181 2a51 4E       		.uleb128 0x4e
 8182 2a52 21010000 		.4byte	.LASF331
 8183 2a56 21010000 		.4byte	.LASF331
 8184 2a5a 0D       		.byte	0xd
 8185 2a5b 6002     		.2byte	0x260
 8186 2a5d 4E       		.uleb128 0x4e
 8187 2a5e C60C0000 		.4byte	.LASF332
 8188 2a62 C60C0000 		.4byte	.LASF332
 8189 2a66 0D       		.byte	0xd
 8190 2a67 9003     		.2byte	0x390
 8191 2a69 00       		.byte	0
 8192              		.section	.debug_abbrev,"",%progbits
 8193              	.Ldebug_abbrev0:
 8194 0000 01       		.uleb128 0x1
 8195 0001 11       		.uleb128 0x11
 8196 0002 01       		.byte	0x1
 8197 0003 25       		.uleb128 0x25
 8198 0004 0E       		.uleb128 0xe
 8199 0005 13       		.uleb128 0x13
 8200 0006 0B       		.uleb128 0xb
 8201 0007 03       		.uleb128 0x3
 8202 0008 0E       		.uleb128 0xe
 8203 0009 1B       		.uleb128 0x1b
 8204 000a 0E       		.uleb128 0xe
 8205 000b 55       		.uleb128 0x55
 8206 000c 17       		.uleb128 0x17
 8207 000d 11       		.uleb128 0x11
 8208 000e 01       		.uleb128 0x1
 8209 000f 10       		.uleb128 0x10
 8210 0010 17       		.uleb128 0x17
 8211 0011 00       		.byte	0
 8212 0012 00       		.byte	0
 8213 0013 02       		.uleb128 0x2
 8214 0014 16       		.uleb128 0x16
 8215 0015 00       		.byte	0
 8216 0016 03       		.uleb128 0x3
 8217 0017 0E       		.uleb128 0xe
 8218 0018 3A       		.uleb128 0x3a
 8219 0019 0B       		.uleb128 0xb
 8220 001a 3B       		.uleb128 0x3b
 8221 001b 0B       		.uleb128 0xb
 8222 001c 49       		.uleb128 0x49
 8223 001d 13       		.uleb128 0x13
 8224 001e 00       		.byte	0
ARM GAS  C:\Users\pearlstl\AppData\Local\Temp\cciL9yyu.s 			page 169


 8225 001f 00       		.byte	0
 8226 0020 03       		.uleb128 0x3
 8227 0021 24       		.uleb128 0x24
 8228 0022 00       		.byte	0
 8229 0023 0B       		.uleb128 0xb
 8230 0024 0B       		.uleb128 0xb
 8231 0025 3E       		.uleb128 0x3e
 8232 0026 0B       		.uleb128 0xb
 8233 0027 03       		.uleb128 0x3
 8234 0028 0E       		.uleb128 0xe
 8235 0029 00       		.byte	0
 8236 002a 00       		.byte	0
 8237 002b 04       		.uleb128 0x4
 8238 002c 24       		.uleb128 0x24
 8239 002d 00       		.byte	0
 8240 002e 0B       		.uleb128 0xb
 8241 002f 0B       		.uleb128 0xb
 8242 0030 3E       		.uleb128 0x3e
 8243 0031 0B       		.uleb128 0xb
 8244 0032 03       		.uleb128 0x3
 8245 0033 08       		.uleb128 0x8
 8246 0034 00       		.byte	0
 8247 0035 00       		.byte	0
 8248 0036 05       		.uleb128 0x5
 8249 0037 0F       		.uleb128 0xf
 8250 0038 00       		.byte	0
 8251 0039 0B       		.uleb128 0xb
 8252 003a 0B       		.uleb128 0xb
 8253 003b 00       		.byte	0
 8254 003c 00       		.byte	0
 8255 003d 06       		.uleb128 0x6
 8256 003e 13       		.uleb128 0x13
 8257 003f 01       		.byte	0x1
 8258 0040 0B       		.uleb128 0xb
 8259 0041 0B       		.uleb128 0xb
 8260 0042 3A       		.uleb128 0x3a
 8261 0043 0B       		.uleb128 0xb
 8262 0044 3B       		.uleb128 0x3b
 8263 0045 0B       		.uleb128 0xb
 8264 0046 01       		.uleb128 0x1
 8265 0047 13       		.uleb128 0x13
 8266 0048 00       		.byte	0
 8267 0049 00       		.byte	0
 8268 004a 07       		.uleb128 0x7
 8269 004b 0D       		.uleb128 0xd
 8270 004c 00       		.byte	0
 8271 004d 03       		.uleb128 0x3
 8272 004e 0E       		.uleb128 0xe
 8273 004f 3A       		.uleb128 0x3a
 8274 0050 0B       		.uleb128 0xb
 8275 0051 3B       		.uleb128 0x3b
 8276 0052 0B       		.uleb128 0xb
 8277 0053 49       		.uleb128 0x49
 8278 0054 13       		.uleb128 0x13
 8279 0055 38       		.uleb128 0x38
 8280 0056 0B       		.uleb128 0xb
 8281 0057 00       		.byte	0
ARM GAS  C:\Users\pearlstl\AppData\Local\Temp\cciL9yyu.s 			page 170


 8282 0058 00       		.byte	0
 8283 0059 08       		.uleb128 0x8
 8284 005a 0D       		.uleb128 0xd
 8285 005b 00       		.byte	0
 8286 005c 03       		.uleb128 0x3
 8287 005d 08       		.uleb128 0x8
 8288 005e 3A       		.uleb128 0x3a
 8289 005f 0B       		.uleb128 0xb
 8290 0060 3B       		.uleb128 0x3b
 8291 0061 0B       		.uleb128 0xb
 8292 0062 49       		.uleb128 0x49
 8293 0063 13       		.uleb128 0x13
 8294 0064 38       		.uleb128 0x38
 8295 0065 0B       		.uleb128 0xb
 8296 0066 00       		.byte	0
 8297 0067 00       		.byte	0
 8298 0068 09       		.uleb128 0x9
 8299 0069 13       		.uleb128 0x13
 8300 006a 01       		.byte	0x1
 8301 006b 03       		.uleb128 0x3
 8302 006c 0E       		.uleb128 0xe
 8303 006d 0B       		.uleb128 0xb
 8304 006e 0B       		.uleb128 0xb
 8305 006f 3A       		.uleb128 0x3a
 8306 0070 0B       		.uleb128 0xb
 8307 0071 3B       		.uleb128 0x3b
 8308 0072 0B       		.uleb128 0xb
 8309 0073 01       		.uleb128 0x1
 8310 0074 13       		.uleb128 0x13
 8311 0075 00       		.byte	0
 8312 0076 00       		.byte	0
 8313 0077 0A       		.uleb128 0xa
 8314 0078 0D       		.uleb128 0xd
 8315 0079 00       		.byte	0
 8316 007a 03       		.uleb128 0x3
 8317 007b 0E       		.uleb128 0xe
 8318 007c 3A       		.uleb128 0x3a
 8319 007d 0B       		.uleb128 0xb
 8320 007e 3B       		.uleb128 0x3b
 8321 007f 0B       		.uleb128 0xb
 8322 0080 49       		.uleb128 0x49
 8323 0081 13       		.uleb128 0x13
 8324 0082 0B       		.uleb128 0xb
 8325 0083 0B       		.uleb128 0xb
 8326 0084 0D       		.uleb128 0xd
 8327 0085 0B       		.uleb128 0xb
 8328 0086 0C       		.uleb128 0xc
 8329 0087 0B       		.uleb128 0xb
 8330 0088 38       		.uleb128 0x38
 8331 0089 0B       		.uleb128 0xb
 8332 008a 00       		.byte	0
 8333 008b 00       		.byte	0
 8334 008c 0B       		.uleb128 0xb
 8335 008d 15       		.uleb128 0x15
 8336 008e 01       		.byte	0x1
 8337 008f 27       		.uleb128 0x27
 8338 0090 19       		.uleb128 0x19
ARM GAS  C:\Users\pearlstl\AppData\Local\Temp\cciL9yyu.s 			page 171


 8339 0091 49       		.uleb128 0x49
 8340 0092 13       		.uleb128 0x13
 8341 0093 01       		.uleb128 0x1
 8342 0094 13       		.uleb128 0x13
 8343 0095 00       		.byte	0
 8344 0096 00       		.byte	0
 8345 0097 0C       		.uleb128 0xc
 8346 0098 05       		.uleb128 0x5
 8347 0099 00       		.byte	0
 8348 009a 49       		.uleb128 0x49
 8349 009b 13       		.uleb128 0x13
 8350 009c 00       		.byte	0
 8351 009d 00       		.byte	0
 8352 009e 0D       		.uleb128 0xd
 8353 009f 0F       		.uleb128 0xf
 8354 00a0 00       		.byte	0
 8355 00a1 0B       		.uleb128 0xb
 8356 00a2 0B       		.uleb128 0xb
 8357 00a3 49       		.uleb128 0x49
 8358 00a4 13       		.uleb128 0x13
 8359 00a5 00       		.byte	0
 8360 00a6 00       		.byte	0
 8361 00a7 0E       		.uleb128 0xe
 8362 00a8 26       		.uleb128 0x26
 8363 00a9 00       		.byte	0
 8364 00aa 49       		.uleb128 0x49
 8365 00ab 13       		.uleb128 0x13
 8366 00ac 00       		.byte	0
 8367 00ad 00       		.byte	0
 8368 00ae 0F       		.uleb128 0xf
 8369 00af 17       		.uleb128 0x17
 8370 00b0 01       		.byte	0x1
 8371 00b1 0B       		.uleb128 0xb
 8372 00b2 0B       		.uleb128 0xb
 8373 00b3 3A       		.uleb128 0x3a
 8374 00b4 0B       		.uleb128 0xb
 8375 00b5 3B       		.uleb128 0x3b
 8376 00b6 0B       		.uleb128 0xb
 8377 00b7 01       		.uleb128 0x1
 8378 00b8 13       		.uleb128 0x13
 8379 00b9 00       		.byte	0
 8380 00ba 00       		.byte	0
 8381 00bb 10       		.uleb128 0x10
 8382 00bc 0D       		.uleb128 0xd
 8383 00bd 00       		.byte	0
 8384 00be 03       		.uleb128 0x3
 8385 00bf 08       		.uleb128 0x8
 8386 00c0 3A       		.uleb128 0x3a
 8387 00c1 0B       		.uleb128 0xb
 8388 00c2 3B       		.uleb128 0x3b
 8389 00c3 0B       		.uleb128 0xb
 8390 00c4 49       		.uleb128 0x49
 8391 00c5 13       		.uleb128 0x13
 8392 00c6 00       		.byte	0
 8393 00c7 00       		.byte	0
 8394 00c8 11       		.uleb128 0x11
 8395 00c9 0D       		.uleb128 0xd
ARM GAS  C:\Users\pearlstl\AppData\Local\Temp\cciL9yyu.s 			page 172


 8396 00ca 00       		.byte	0
 8397 00cb 03       		.uleb128 0x3
 8398 00cc 0E       		.uleb128 0xe
 8399 00cd 3A       		.uleb128 0x3a
 8400 00ce 0B       		.uleb128 0xb
 8401 00cf 3B       		.uleb128 0x3b
 8402 00d0 0B       		.uleb128 0xb
 8403 00d1 49       		.uleb128 0x49
 8404 00d2 13       		.uleb128 0x13
 8405 00d3 00       		.byte	0
 8406 00d4 00       		.byte	0
 8407 00d5 12       		.uleb128 0x12
 8408 00d6 16       		.uleb128 0x16
 8409 00d7 00       		.byte	0
 8410 00d8 03       		.uleb128 0x3
 8411 00d9 0E       		.uleb128 0xe
 8412 00da 3A       		.uleb128 0x3a
 8413 00db 0B       		.uleb128 0xb
 8414 00dc 3B       		.uleb128 0x3b
 8415 00dd 05       		.uleb128 0x5
 8416 00de 49       		.uleb128 0x49
 8417 00df 13       		.uleb128 0x13
 8418 00e0 00       		.byte	0
 8419 00e1 00       		.byte	0
 8420 00e2 13       		.uleb128 0x13
 8421 00e3 04       		.uleb128 0x4
 8422 00e4 01       		.byte	0x1
 8423 00e5 0B       		.uleb128 0xb
 8424 00e6 0B       		.uleb128 0xb
 8425 00e7 49       		.uleb128 0x49
 8426 00e8 13       		.uleb128 0x13
 8427 00e9 3A       		.uleb128 0x3a
 8428 00ea 0B       		.uleb128 0xb
 8429 00eb 3B       		.uleb128 0x3b
 8430 00ec 0B       		.uleb128 0xb
 8431 00ed 01       		.uleb128 0x1
 8432 00ee 13       		.uleb128 0x13
 8433 00ef 00       		.byte	0
 8434 00f0 00       		.byte	0
 8435 00f1 14       		.uleb128 0x14
 8436 00f2 28       		.uleb128 0x28
 8437 00f3 00       		.byte	0
 8438 00f4 03       		.uleb128 0x3
 8439 00f5 0E       		.uleb128 0xe
 8440 00f6 1C       		.uleb128 0x1c
 8441 00f7 0B       		.uleb128 0xb
 8442 00f8 00       		.byte	0
 8443 00f9 00       		.byte	0
 8444 00fa 15       		.uleb128 0x15
 8445 00fb 0D       		.uleb128 0xd
 8446 00fc 00       		.byte	0
 8447 00fd 03       		.uleb128 0x3
 8448 00fe 08       		.uleb128 0x8
 8449 00ff 3A       		.uleb128 0x3a
 8450 0100 0B       		.uleb128 0xb
 8451 0101 3B       		.uleb128 0x3b
 8452 0102 0B       		.uleb128 0xb
ARM GAS  C:\Users\pearlstl\AppData\Local\Temp\cciL9yyu.s 			page 173


 8453 0103 49       		.uleb128 0x49
 8454 0104 13       		.uleb128 0x13
 8455 0105 0B       		.uleb128 0xb
 8456 0106 0B       		.uleb128 0xb
 8457 0107 0D       		.uleb128 0xd
 8458 0108 0B       		.uleb128 0xb
 8459 0109 0C       		.uleb128 0xc
 8460 010a 0B       		.uleb128 0xb
 8461 010b 38       		.uleb128 0x38
 8462 010c 0B       		.uleb128 0xb
 8463 010d 00       		.byte	0
 8464 010e 00       		.byte	0
 8465 010f 16       		.uleb128 0x16
 8466 0110 15       		.uleb128 0x15
 8467 0111 01       		.byte	0x1
 8468 0112 27       		.uleb128 0x27
 8469 0113 19       		.uleb128 0x19
 8470 0114 01       		.uleb128 0x1
 8471 0115 13       		.uleb128 0x13
 8472 0116 00       		.byte	0
 8473 0117 00       		.byte	0
 8474 0118 17       		.uleb128 0x17
 8475 0119 0D       		.uleb128 0xd
 8476 011a 00       		.byte	0
 8477 011b 03       		.uleb128 0x3
 8478 011c 08       		.uleb128 0x8
 8479 011d 3A       		.uleb128 0x3a
 8480 011e 0B       		.uleb128 0xb
 8481 011f 3B       		.uleb128 0x3b
 8482 0120 05       		.uleb128 0x5
 8483 0121 49       		.uleb128 0x49
 8484 0122 13       		.uleb128 0x13
 8485 0123 38       		.uleb128 0x38
 8486 0124 0B       		.uleb128 0xb
 8487 0125 00       		.byte	0
 8488 0126 00       		.byte	0
 8489 0127 18       		.uleb128 0x18
 8490 0128 0D       		.uleb128 0xd
 8491 0129 00       		.byte	0
 8492 012a 03       		.uleb128 0x3
 8493 012b 0E       		.uleb128 0xe
 8494 012c 3A       		.uleb128 0x3a
 8495 012d 0B       		.uleb128 0xb
 8496 012e 3B       		.uleb128 0x3b
 8497 012f 05       		.uleb128 0x5
 8498 0130 49       		.uleb128 0x49
 8499 0131 13       		.uleb128 0x13
 8500 0132 38       		.uleb128 0x38
 8501 0133 0B       		.uleb128 0xb
 8502 0134 00       		.byte	0
 8503 0135 00       		.byte	0
 8504 0136 19       		.uleb128 0x19
 8505 0137 13       		.uleb128 0x13
 8506 0138 01       		.byte	0x1
 8507 0139 0B       		.uleb128 0xb
 8508 013a 0B       		.uleb128 0xb
 8509 013b 3A       		.uleb128 0x3a
ARM GAS  C:\Users\pearlstl\AppData\Local\Temp\cciL9yyu.s 			page 174


 8510 013c 0B       		.uleb128 0xb
 8511 013d 3B       		.uleb128 0x3b
 8512 013e 05       		.uleb128 0x5
 8513 013f 01       		.uleb128 0x1
 8514 0140 13       		.uleb128 0x13
 8515 0141 00       		.byte	0
 8516 0142 00       		.byte	0
 8517 0143 1A       		.uleb128 0x1a
 8518 0144 13       		.uleb128 0x13
 8519 0145 01       		.byte	0x1
 8520 0146 0B       		.uleb128 0xb
 8521 0147 05       		.uleb128 0x5
 8522 0148 3A       		.uleb128 0x3a
 8523 0149 0B       		.uleb128 0xb
 8524 014a 3B       		.uleb128 0x3b
 8525 014b 0B       		.uleb128 0xb
 8526 014c 01       		.uleb128 0x1
 8527 014d 13       		.uleb128 0x13
 8528 014e 00       		.byte	0
 8529 014f 00       		.byte	0
 8530 0150 1B       		.uleb128 0x1b
 8531 0151 0D       		.uleb128 0xd
 8532 0152 00       		.byte	0
 8533 0153 03       		.uleb128 0x3
 8534 0154 0E       		.uleb128 0xe
 8535 0155 3A       		.uleb128 0x3a
 8536 0156 0B       		.uleb128 0xb
 8537 0157 3B       		.uleb128 0x3b
 8538 0158 0B       		.uleb128 0xb
 8539 0159 49       		.uleb128 0x49
 8540 015a 13       		.uleb128 0x13
 8541 015b 38       		.uleb128 0x38
 8542 015c 05       		.uleb128 0x5
 8543 015d 00       		.byte	0
 8544 015e 00       		.byte	0
 8545 015f 1C       		.uleb128 0x1c
 8546 0160 0D       		.uleb128 0xd
 8547 0161 00       		.byte	0
 8548 0162 03       		.uleb128 0x3
 8549 0163 08       		.uleb128 0x8
 8550 0164 3A       		.uleb128 0x3a
 8551 0165 0B       		.uleb128 0xb
 8552 0166 3B       		.uleb128 0x3b
 8553 0167 0B       		.uleb128 0xb
 8554 0168 49       		.uleb128 0x49
 8555 0169 13       		.uleb128 0x13
 8556 016a 38       		.uleb128 0x38
 8557 016b 05       		.uleb128 0x5
 8558 016c 00       		.byte	0
 8559 016d 00       		.byte	0
 8560 016e 1D       		.uleb128 0x1d
 8561 016f 0D       		.uleb128 0xd
 8562 0170 00       		.byte	0
 8563 0171 03       		.uleb128 0x3
 8564 0172 0E       		.uleb128 0xe
 8565 0173 3A       		.uleb128 0x3a
 8566 0174 0B       		.uleb128 0xb
ARM GAS  C:\Users\pearlstl\AppData\Local\Temp\cciL9yyu.s 			page 175


 8567 0175 3B       		.uleb128 0x3b
 8568 0176 05       		.uleb128 0x5
 8569 0177 49       		.uleb128 0x49
 8570 0178 13       		.uleb128 0x13
 8571 0179 38       		.uleb128 0x38
 8572 017a 05       		.uleb128 0x5
 8573 017b 00       		.byte	0
 8574 017c 00       		.byte	0
 8575 017d 1E       		.uleb128 0x1e
 8576 017e 0D       		.uleb128 0xd
 8577 017f 00       		.byte	0
 8578 0180 03       		.uleb128 0x3
 8579 0181 08       		.uleb128 0x8
 8580 0182 3A       		.uleb128 0x3a
 8581 0183 0B       		.uleb128 0xb
 8582 0184 3B       		.uleb128 0x3b
 8583 0185 05       		.uleb128 0x5
 8584 0186 49       		.uleb128 0x49
 8585 0187 13       		.uleb128 0x13
 8586 0188 38       		.uleb128 0x38
 8587 0189 05       		.uleb128 0x5
 8588 018a 00       		.byte	0
 8589 018b 00       		.byte	0
 8590 018c 1F       		.uleb128 0x1f
 8591 018d 2E       		.uleb128 0x2e
 8592 018e 01       		.byte	0x1
 8593 018f 03       		.uleb128 0x3
 8594 0190 0E       		.uleb128 0xe
 8595 0191 3A       		.uleb128 0x3a
 8596 0192 0B       		.uleb128 0xb
 8597 0193 3B       		.uleb128 0x3b
 8598 0194 0B       		.uleb128 0xb
 8599 0195 27       		.uleb128 0x27
 8600 0196 19       		.uleb128 0x19
 8601 0197 49       		.uleb128 0x49
 8602 0198 13       		.uleb128 0x13
 8603 0199 20       		.uleb128 0x20
 8604 019a 0B       		.uleb128 0xb
 8605 019b 01       		.uleb128 0x1
 8606 019c 13       		.uleb128 0x13
 8607 019d 00       		.byte	0
 8608 019e 00       		.byte	0
 8609 019f 20       		.uleb128 0x20
 8610 01a0 05       		.uleb128 0x5
 8611 01a1 00       		.byte	0
 8612 01a2 03       		.uleb128 0x3
 8613 01a3 0E       		.uleb128 0xe
 8614 01a4 3A       		.uleb128 0x3a
 8615 01a5 0B       		.uleb128 0xb
 8616 01a6 3B       		.uleb128 0x3b
 8617 01a7 0B       		.uleb128 0xb
 8618 01a8 49       		.uleb128 0x49
 8619 01a9 13       		.uleb128 0x13
 8620 01aa 00       		.byte	0
 8621 01ab 00       		.byte	0
 8622 01ac 21       		.uleb128 0x21
 8623 01ad 2E       		.uleb128 0x2e
ARM GAS  C:\Users\pearlstl\AppData\Local\Temp\cciL9yyu.s 			page 176


 8624 01ae 01       		.byte	0x1
 8625 01af 03       		.uleb128 0x3
 8626 01b0 0E       		.uleb128 0xe
 8627 01b1 3A       		.uleb128 0x3a
 8628 01b2 0B       		.uleb128 0xb
 8629 01b3 3B       		.uleb128 0x3b
 8630 01b4 0B       		.uleb128 0xb
 8631 01b5 27       		.uleb128 0x27
 8632 01b6 19       		.uleb128 0x19
 8633 01b7 20       		.uleb128 0x20
 8634 01b8 0B       		.uleb128 0xb
 8635 01b9 01       		.uleb128 0x1
 8636 01ba 13       		.uleb128 0x13
 8637 01bb 00       		.byte	0
 8638 01bc 00       		.byte	0
 8639 01bd 22       		.uleb128 0x22
 8640 01be 05       		.uleb128 0x5
 8641 01bf 00       		.byte	0
 8642 01c0 03       		.uleb128 0x3
 8643 01c1 08       		.uleb128 0x8
 8644 01c2 3A       		.uleb128 0x3a
 8645 01c3 0B       		.uleb128 0xb
 8646 01c4 3B       		.uleb128 0x3b
 8647 01c5 0B       		.uleb128 0xb
 8648 01c6 49       		.uleb128 0x49
 8649 01c7 13       		.uleb128 0x13
 8650 01c8 00       		.byte	0
 8651 01c9 00       		.byte	0
 8652 01ca 23       		.uleb128 0x23
 8653 01cb 2E       		.uleb128 0x2e
 8654 01cc 01       		.byte	0x1
 8655 01cd 3F       		.uleb128 0x3f
 8656 01ce 19       		.uleb128 0x19
 8657 01cf 03       		.uleb128 0x3
 8658 01d0 0E       		.uleb128 0xe
 8659 01d1 3A       		.uleb128 0x3a
 8660 01d2 0B       		.uleb128 0xb
 8661 01d3 3B       		.uleb128 0x3b
 8662 01d4 0B       		.uleb128 0xb
 8663 01d5 27       		.uleb128 0x27
 8664 01d6 19       		.uleb128 0x19
 8665 01d7 49       		.uleb128 0x49
 8666 01d8 13       		.uleb128 0x13
 8667 01d9 20       		.uleb128 0x20
 8668 01da 0B       		.uleb128 0xb
 8669 01db 01       		.uleb128 0x1
 8670 01dc 13       		.uleb128 0x13
 8671 01dd 00       		.byte	0
 8672 01de 00       		.byte	0
 8673 01df 24       		.uleb128 0x24
 8674 01e0 34       		.uleb128 0x34
 8675 01e1 00       		.byte	0
 8676 01e2 03       		.uleb128 0x3
 8677 01e3 08       		.uleb128 0x8
 8678 01e4 3A       		.uleb128 0x3a
 8679 01e5 0B       		.uleb128 0xb
 8680 01e6 3B       		.uleb128 0x3b
ARM GAS  C:\Users\pearlstl\AppData\Local\Temp\cciL9yyu.s 			page 177


 8681 01e7 0B       		.uleb128 0xb
 8682 01e8 49       		.uleb128 0x49
 8683 01e9 13       		.uleb128 0x13
 8684 01ea 00       		.byte	0
 8685 01eb 00       		.byte	0
 8686 01ec 25       		.uleb128 0x25
 8687 01ed 2E       		.uleb128 0x2e
 8688 01ee 01       		.byte	0x1
 8689 01ef 03       		.uleb128 0x3
 8690 01f0 0E       		.uleb128 0xe
 8691 01f1 3A       		.uleb128 0x3a
 8692 01f2 0B       		.uleb128 0xb
 8693 01f3 3B       		.uleb128 0x3b
 8694 01f4 05       		.uleb128 0x5
 8695 01f5 27       		.uleb128 0x27
 8696 01f6 19       		.uleb128 0x19
 8697 01f7 20       		.uleb128 0x20
 8698 01f8 0B       		.uleb128 0xb
 8699 01f9 01       		.uleb128 0x1
 8700 01fa 13       		.uleb128 0x13
 8701 01fb 00       		.byte	0
 8702 01fc 00       		.byte	0
 8703 01fd 26       		.uleb128 0x26
 8704 01fe 05       		.uleb128 0x5
 8705 01ff 00       		.byte	0
 8706 0200 03       		.uleb128 0x3
 8707 0201 0E       		.uleb128 0xe
 8708 0202 3A       		.uleb128 0x3a
 8709 0203 0B       		.uleb128 0xb
 8710 0204 3B       		.uleb128 0x3b
 8711 0205 05       		.uleb128 0x5
 8712 0206 49       		.uleb128 0x49
 8713 0207 13       		.uleb128 0x13
 8714 0208 00       		.byte	0
 8715 0209 00       		.byte	0
 8716 020a 27       		.uleb128 0x27
 8717 020b 34       		.uleb128 0x34
 8718 020c 00       		.byte	0
 8719 020d 03       		.uleb128 0x3
 8720 020e 0E       		.uleb128 0xe
 8721 020f 3A       		.uleb128 0x3a
 8722 0210 0B       		.uleb128 0xb
 8723 0211 3B       		.uleb128 0x3b
 8724 0212 05       		.uleb128 0x5
 8725 0213 49       		.uleb128 0x49
 8726 0214 13       		.uleb128 0x13
 8727 0215 00       		.byte	0
 8728 0216 00       		.byte	0
 8729 0217 28       		.uleb128 0x28
 8730 0218 0B       		.uleb128 0xb
 8731 0219 01       		.byte	0x1
 8732 021a 00       		.byte	0
 8733 021b 00       		.byte	0
 8734 021c 29       		.uleb128 0x29
 8735 021d 0B       		.uleb128 0xb
 8736 021e 01       		.byte	0x1
 8737 021f 01       		.uleb128 0x1
ARM GAS  C:\Users\pearlstl\AppData\Local\Temp\cciL9yyu.s 			page 178


 8738 0220 13       		.uleb128 0x13
 8739 0221 00       		.byte	0
 8740 0222 00       		.byte	0
 8741 0223 2A       		.uleb128 0x2a
 8742 0224 34       		.uleb128 0x34
 8743 0225 00       		.byte	0
 8744 0226 03       		.uleb128 0x3
 8745 0227 08       		.uleb128 0x8
 8746 0228 3A       		.uleb128 0x3a
 8747 0229 0B       		.uleb128 0xb
 8748 022a 3B       		.uleb128 0x3b
 8749 022b 05       		.uleb128 0x5
 8750 022c 49       		.uleb128 0x49
 8751 022d 13       		.uleb128 0x13
 8752 022e 00       		.byte	0
 8753 022f 00       		.byte	0
 8754 0230 2B       		.uleb128 0x2b
 8755 0231 2E       		.uleb128 0x2e
 8756 0232 01       		.byte	0x1
 8757 0233 03       		.uleb128 0x3
 8758 0234 0E       		.uleb128 0xe
 8759 0235 3A       		.uleb128 0x3a
 8760 0236 0B       		.uleb128 0xb
 8761 0237 3B       		.uleb128 0x3b
 8762 0238 05       		.uleb128 0x5
 8763 0239 27       		.uleb128 0x27
 8764 023a 19       		.uleb128 0x19
 8765 023b 11       		.uleb128 0x11
 8766 023c 01       		.uleb128 0x1
 8767 023d 12       		.uleb128 0x12
 8768 023e 06       		.uleb128 0x6
 8769 023f 40       		.uleb128 0x40
 8770 0240 18       		.uleb128 0x18
 8771 0241 9742     		.uleb128 0x2117
 8772 0243 19       		.uleb128 0x19
 8773 0244 01       		.uleb128 0x1
 8774 0245 13       		.uleb128 0x13
 8775 0246 00       		.byte	0
 8776 0247 00       		.byte	0
 8777 0248 2C       		.uleb128 0x2c
 8778 0249 05       		.uleb128 0x5
 8779 024a 00       		.byte	0
 8780 024b 03       		.uleb128 0x3
 8781 024c 0E       		.uleb128 0xe
 8782 024d 3A       		.uleb128 0x3a
 8783 024e 0B       		.uleb128 0xb
 8784 024f 3B       		.uleb128 0x3b
 8785 0250 05       		.uleb128 0x5
 8786 0251 49       		.uleb128 0x49
 8787 0252 13       		.uleb128 0x13
 8788 0253 02       		.uleb128 0x2
 8789 0254 17       		.uleb128 0x17
 8790 0255 00       		.byte	0
 8791 0256 00       		.byte	0
 8792 0257 2D       		.uleb128 0x2d
 8793 0258 1D       		.uleb128 0x1d
 8794 0259 01       		.byte	0x1
ARM GAS  C:\Users\pearlstl\AppData\Local\Temp\cciL9yyu.s 			page 179


 8795 025a 31       		.uleb128 0x31
 8796 025b 13       		.uleb128 0x13
 8797 025c 52       		.uleb128 0x52
 8798 025d 01       		.uleb128 0x1
 8799 025e 55       		.uleb128 0x55
 8800 025f 17       		.uleb128 0x17
 8801 0260 58       		.uleb128 0x58
 8802 0261 0B       		.uleb128 0xb
 8803 0262 59       		.uleb128 0x59
 8804 0263 05       		.uleb128 0x5
 8805 0264 01       		.uleb128 0x1
 8806 0265 13       		.uleb128 0x13
 8807 0266 00       		.byte	0
 8808 0267 00       		.byte	0
 8809 0268 2E       		.uleb128 0x2e
 8810 0269 05       		.uleb128 0x5
 8811 026a 00       		.byte	0
 8812 026b 31       		.uleb128 0x31
 8813 026c 13       		.uleb128 0x13
 8814 026d 02       		.uleb128 0x2
 8815 026e 17       		.uleb128 0x17
 8816 026f 00       		.byte	0
 8817 0270 00       		.byte	0
 8818 0271 2F       		.uleb128 0x2f
 8819 0272 0B       		.uleb128 0xb
 8820 0273 01       		.byte	0x1
 8821 0274 55       		.uleb128 0x55
 8822 0275 17       		.uleb128 0x17
 8823 0276 00       		.byte	0
 8824 0277 00       		.byte	0
 8825 0278 30       		.uleb128 0x30
 8826 0279 34       		.uleb128 0x34
 8827 027a 00       		.byte	0
 8828 027b 31       		.uleb128 0x31
 8829 027c 13       		.uleb128 0x13
 8830 027d 02       		.uleb128 0x2
 8831 027e 17       		.uleb128 0x17
 8832 027f 00       		.byte	0
 8833 0280 00       		.byte	0
 8834 0281 31       		.uleb128 0x31
 8835 0282 898201   		.uleb128 0x4109
 8836 0285 01       		.byte	0x1
 8837 0286 11       		.uleb128 0x11
 8838 0287 01       		.uleb128 0x1
 8839 0288 31       		.uleb128 0x31
 8840 0289 13       		.uleb128 0x13
 8841 028a 00       		.byte	0
 8842 028b 00       		.byte	0
 8843 028c 32       		.uleb128 0x32
 8844 028d 8A8201   		.uleb128 0x410a
 8845 0290 00       		.byte	0
 8846 0291 02       		.uleb128 0x2
 8847 0292 18       		.uleb128 0x18
 8848 0293 9142     		.uleb128 0x2111
 8849 0295 18       		.uleb128 0x18
 8850 0296 00       		.byte	0
 8851 0297 00       		.byte	0
ARM GAS  C:\Users\pearlstl\AppData\Local\Temp\cciL9yyu.s 			page 180


 8852 0298 33       		.uleb128 0x33
 8853 0299 898201   		.uleb128 0x4109
 8854 029c 01       		.byte	0x1
 8855 029d 11       		.uleb128 0x11
 8856 029e 01       		.uleb128 0x1
 8857 029f 31       		.uleb128 0x31
 8858 02a0 13       		.uleb128 0x13
 8859 02a1 01       		.uleb128 0x1
 8860 02a2 13       		.uleb128 0x13
 8861 02a3 00       		.byte	0
 8862 02a4 00       		.byte	0
 8863 02a5 34       		.uleb128 0x34
 8864 02a6 898201   		.uleb128 0x4109
 8865 02a9 00       		.byte	0
 8866 02aa 11       		.uleb128 0x11
 8867 02ab 01       		.uleb128 0x1
 8868 02ac 31       		.uleb128 0x31
 8869 02ad 13       		.uleb128 0x13
 8870 02ae 00       		.byte	0
 8871 02af 00       		.byte	0
 8872 02b0 35       		.uleb128 0x35
 8873 02b1 898201   		.uleb128 0x4109
 8874 02b4 01       		.byte	0x1
 8875 02b5 11       		.uleb128 0x11
 8876 02b6 01       		.uleb128 0x1
 8877 02b7 9542     		.uleb128 0x2115
 8878 02b9 19       		.uleb128 0x19
 8879 02ba 31       		.uleb128 0x31
 8880 02bb 13       		.uleb128 0x13
 8881 02bc 01       		.uleb128 0x1
 8882 02bd 13       		.uleb128 0x13
 8883 02be 00       		.byte	0
 8884 02bf 00       		.byte	0
 8885 02c0 36       		.uleb128 0x36
 8886 02c1 34       		.uleb128 0x34
 8887 02c2 00       		.byte	0
 8888 02c3 31       		.uleb128 0x31
 8889 02c4 13       		.uleb128 0x13
 8890 02c5 00       		.byte	0
 8891 02c6 00       		.byte	0
 8892 02c7 37       		.uleb128 0x37
 8893 02c8 0B       		.uleb128 0xb
 8894 02c9 01       		.byte	0x1
 8895 02ca 55       		.uleb128 0x55
 8896 02cb 17       		.uleb128 0x17
 8897 02cc 01       		.uleb128 0x1
 8898 02cd 13       		.uleb128 0x13
 8899 02ce 00       		.byte	0
 8900 02cf 00       		.byte	0
 8901 02d0 38       		.uleb128 0x38
 8902 02d1 0B       		.uleb128 0xb
 8903 02d2 01       		.byte	0x1
 8904 02d3 11       		.uleb128 0x11
 8905 02d4 01       		.uleb128 0x1
 8906 02d5 12       		.uleb128 0x12
 8907 02d6 06       		.uleb128 0x6
 8908 02d7 01       		.uleb128 0x1
ARM GAS  C:\Users\pearlstl\AppData\Local\Temp\cciL9yyu.s 			page 181


 8909 02d8 13       		.uleb128 0x13
 8910 02d9 00       		.byte	0
 8911 02da 00       		.byte	0
 8912 02db 39       		.uleb128 0x39
 8913 02dc 34       		.uleb128 0x34
 8914 02dd 00       		.byte	0
 8915 02de 03       		.uleb128 0x3
 8916 02df 08       		.uleb128 0x8
 8917 02e0 3A       		.uleb128 0x3a
 8918 02e1 0B       		.uleb128 0xb
 8919 02e2 3B       		.uleb128 0x3b
 8920 02e3 05       		.uleb128 0x5
 8921 02e4 49       		.uleb128 0x49
 8922 02e5 13       		.uleb128 0x13
 8923 02e6 02       		.uleb128 0x2
 8924 02e7 17       		.uleb128 0x17
 8925 02e8 00       		.byte	0
 8926 02e9 00       		.byte	0
 8927 02ea 3A       		.uleb128 0x3a
 8928 02eb 34       		.uleb128 0x34
 8929 02ec 00       		.byte	0
 8930 02ed 03       		.uleb128 0x3
 8931 02ee 0E       		.uleb128 0xe
 8932 02ef 3A       		.uleb128 0x3a
 8933 02f0 0B       		.uleb128 0xb
 8934 02f1 3B       		.uleb128 0x3b
 8935 02f2 05       		.uleb128 0x5
 8936 02f3 49       		.uleb128 0x49
 8937 02f4 13       		.uleb128 0x13
 8938 02f5 02       		.uleb128 0x2
 8939 02f6 18       		.uleb128 0x18
 8940 02f7 00       		.byte	0
 8941 02f8 00       		.byte	0
 8942 02f9 3B       		.uleb128 0x3b
 8943 02fa 34       		.uleb128 0x34
 8944 02fb 00       		.byte	0
 8945 02fc 03       		.uleb128 0x3
 8946 02fd 08       		.uleb128 0x8
 8947 02fe 3A       		.uleb128 0x3a
 8948 02ff 0B       		.uleb128 0xb
 8949 0300 3B       		.uleb128 0x3b
 8950 0301 05       		.uleb128 0x5
 8951 0302 49       		.uleb128 0x49
 8952 0303 13       		.uleb128 0x13
 8953 0304 02       		.uleb128 0x2
 8954 0305 18       		.uleb128 0x18
 8955 0306 00       		.byte	0
 8956 0307 00       		.byte	0
 8957 0308 3C       		.uleb128 0x3c
 8958 0309 34       		.uleb128 0x34
 8959 030a 00       		.byte	0
 8960 030b 03       		.uleb128 0x3
 8961 030c 0E       		.uleb128 0xe
 8962 030d 3A       		.uleb128 0x3a
 8963 030e 0B       		.uleb128 0xb
 8964 030f 3B       		.uleb128 0x3b
 8965 0310 05       		.uleb128 0x5
ARM GAS  C:\Users\pearlstl\AppData\Local\Temp\cciL9yyu.s 			page 182


 8966 0311 49       		.uleb128 0x49
 8967 0312 13       		.uleb128 0x13
 8968 0313 02       		.uleb128 0x2
 8969 0314 17       		.uleb128 0x17
 8970 0315 00       		.byte	0
 8971 0316 00       		.byte	0
 8972 0317 3D       		.uleb128 0x3d
 8973 0318 1D       		.uleb128 0x1d
 8974 0319 01       		.byte	0x1
 8975 031a 31       		.uleb128 0x31
 8976 031b 13       		.uleb128 0x13
 8977 031c 11       		.uleb128 0x11
 8978 031d 01       		.uleb128 0x1
 8979 031e 12       		.uleb128 0x12
 8980 031f 06       		.uleb128 0x6
 8981 0320 58       		.uleb128 0x58
 8982 0321 0B       		.uleb128 0xb
 8983 0322 59       		.uleb128 0x59
 8984 0323 05       		.uleb128 0x5
 8985 0324 01       		.uleb128 0x1
 8986 0325 13       		.uleb128 0x13
 8987 0326 00       		.byte	0
 8988 0327 00       		.byte	0
 8989 0328 3E       		.uleb128 0x3e
 8990 0329 898201   		.uleb128 0x4109
 8991 032c 01       		.byte	0x1
 8992 032d 11       		.uleb128 0x11
 8993 032e 01       		.uleb128 0x1
 8994 032f 01       		.uleb128 0x1
 8995 0330 13       		.uleb128 0x13
 8996 0331 00       		.byte	0
 8997 0332 00       		.byte	0
 8998 0333 3F       		.uleb128 0x3f
 8999 0334 2E       		.uleb128 0x2e
 9000 0335 01       		.byte	0x1
 9001 0336 03       		.uleb128 0x3
 9002 0337 0E       		.uleb128 0xe
 9003 0338 3A       		.uleb128 0x3a
 9004 0339 0B       		.uleb128 0xb
 9005 033a 3B       		.uleb128 0x3b
 9006 033b 0B       		.uleb128 0xb
 9007 033c 27       		.uleb128 0x27
 9008 033d 19       		.uleb128 0x19
 9009 033e 49       		.uleb128 0x49
 9010 033f 13       		.uleb128 0x13
 9011 0340 11       		.uleb128 0x11
 9012 0341 01       		.uleb128 0x1
 9013 0342 12       		.uleb128 0x12
 9014 0343 06       		.uleb128 0x6
 9015 0344 40       		.uleb128 0x40
 9016 0345 18       		.uleb128 0x18
 9017 0346 9742     		.uleb128 0x2117
 9018 0348 19       		.uleb128 0x19
 9019 0349 01       		.uleb128 0x1
 9020 034a 13       		.uleb128 0x13
 9021 034b 00       		.byte	0
 9022 034c 00       		.byte	0
ARM GAS  C:\Users\pearlstl\AppData\Local\Temp\cciL9yyu.s 			page 183


 9023 034d 40       		.uleb128 0x40
 9024 034e 05       		.uleb128 0x5
 9025 034f 00       		.byte	0
 9026 0350 03       		.uleb128 0x3
 9027 0351 0E       		.uleb128 0xe
 9028 0352 3A       		.uleb128 0x3a
 9029 0353 0B       		.uleb128 0xb
 9030 0354 3B       		.uleb128 0x3b
 9031 0355 0B       		.uleb128 0xb
 9032 0356 49       		.uleb128 0x49
 9033 0357 13       		.uleb128 0x13
 9034 0358 02       		.uleb128 0x2
 9035 0359 17       		.uleb128 0x17
 9036 035a 00       		.byte	0
 9037 035b 00       		.byte	0
 9038 035c 41       		.uleb128 0x41
 9039 035d 34       		.uleb128 0x34
 9040 035e 00       		.byte	0
 9041 035f 03       		.uleb128 0x3
 9042 0360 08       		.uleb128 0x8
 9043 0361 3A       		.uleb128 0x3a
 9044 0362 0B       		.uleb128 0xb
 9045 0363 3B       		.uleb128 0x3b
 9046 0364 0B       		.uleb128 0xb
 9047 0365 49       		.uleb128 0x49
 9048 0366 13       		.uleb128 0x13
 9049 0367 02       		.uleb128 0x2
 9050 0368 17       		.uleb128 0x17
 9051 0369 00       		.byte	0
 9052 036a 00       		.byte	0
 9053 036b 42       		.uleb128 0x42
 9054 036c 898201   		.uleb128 0x4109
 9055 036f 01       		.byte	0x1
 9056 0370 11       		.uleb128 0x11
 9057 0371 01       		.uleb128 0x1
 9058 0372 9542     		.uleb128 0x2115
 9059 0374 19       		.uleb128 0x19
 9060 0375 31       		.uleb128 0x31
 9061 0376 13       		.uleb128 0x13
 9062 0377 00       		.byte	0
 9063 0378 00       		.byte	0
 9064 0379 43       		.uleb128 0x43
 9065 037a 2E       		.uleb128 0x2e
 9066 037b 01       		.byte	0x1
 9067 037c 3F       		.uleb128 0x3f
 9068 037d 19       		.uleb128 0x19
 9069 037e 03       		.uleb128 0x3
 9070 037f 0E       		.uleb128 0xe
 9071 0380 3A       		.uleb128 0x3a
 9072 0381 0B       		.uleb128 0xb
 9073 0382 3B       		.uleb128 0x3b
 9074 0383 0B       		.uleb128 0xb
 9075 0384 27       		.uleb128 0x27
 9076 0385 19       		.uleb128 0x19
 9077 0386 49       		.uleb128 0x49
 9078 0387 13       		.uleb128 0x13
 9079 0388 11       		.uleb128 0x11
ARM GAS  C:\Users\pearlstl\AppData\Local\Temp\cciL9yyu.s 			page 184


 9080 0389 01       		.uleb128 0x1
 9081 038a 12       		.uleb128 0x12
 9082 038b 06       		.uleb128 0x6
 9083 038c 40       		.uleb128 0x40
 9084 038d 18       		.uleb128 0x18
 9085 038e 9742     		.uleb128 0x2117
 9086 0390 19       		.uleb128 0x19
 9087 0391 01       		.uleb128 0x1
 9088 0392 13       		.uleb128 0x13
 9089 0393 00       		.byte	0
 9090 0394 00       		.byte	0
 9091 0395 44       		.uleb128 0x44
 9092 0396 05       		.uleb128 0x5
 9093 0397 00       		.byte	0
 9094 0398 03       		.uleb128 0x3
 9095 0399 08       		.uleb128 0x8
 9096 039a 3A       		.uleb128 0x3a
 9097 039b 0B       		.uleb128 0xb
 9098 039c 3B       		.uleb128 0x3b
 9099 039d 0B       		.uleb128 0xb
 9100 039e 49       		.uleb128 0x49
 9101 039f 13       		.uleb128 0x13
 9102 03a0 02       		.uleb128 0x2
 9103 03a1 17       		.uleb128 0x17
 9104 03a2 00       		.byte	0
 9105 03a3 00       		.byte	0
 9106 03a4 45       		.uleb128 0x45
 9107 03a5 34       		.uleb128 0x34
 9108 03a6 00       		.byte	0
 9109 03a7 03       		.uleb128 0x3
 9110 03a8 0E       		.uleb128 0xe
 9111 03a9 3A       		.uleb128 0x3a
 9112 03aa 0B       		.uleb128 0xb
 9113 03ab 3B       		.uleb128 0x3b
 9114 03ac 0B       		.uleb128 0xb
 9115 03ad 49       		.uleb128 0x49
 9116 03ae 13       		.uleb128 0x13
 9117 03af 02       		.uleb128 0x2
 9118 03b0 17       		.uleb128 0x17
 9119 03b1 00       		.byte	0
 9120 03b2 00       		.byte	0
 9121 03b3 46       		.uleb128 0x46
 9122 03b4 1D       		.uleb128 0x1d
 9123 03b5 01       		.byte	0x1
 9124 03b6 31       		.uleb128 0x31
 9125 03b7 13       		.uleb128 0x13
 9126 03b8 11       		.uleb128 0x11
 9127 03b9 01       		.uleb128 0x1
 9128 03ba 12       		.uleb128 0x12
 9129 03bb 06       		.uleb128 0x6
 9130 03bc 58       		.uleb128 0x58
 9131 03bd 0B       		.uleb128 0xb
 9132 03be 59       		.uleb128 0x59
 9133 03bf 0B       		.uleb128 0xb
 9134 03c0 01       		.uleb128 0x1
 9135 03c1 13       		.uleb128 0x13
 9136 03c2 00       		.byte	0
ARM GAS  C:\Users\pearlstl\AppData\Local\Temp\cciL9yyu.s 			page 185


 9137 03c3 00       		.byte	0
 9138 03c4 47       		.uleb128 0x47
 9139 03c5 05       		.uleb128 0x5
 9140 03c6 00       		.byte	0
 9141 03c7 31       		.uleb128 0x31
 9142 03c8 13       		.uleb128 0x13
 9143 03c9 1C       		.uleb128 0x1c
 9144 03ca 0B       		.uleb128 0xb
 9145 03cb 00       		.byte	0
 9146 03cc 00       		.byte	0
 9147 03cd 48       		.uleb128 0x48
 9148 03ce 05       		.uleb128 0x5
 9149 03cf 00       		.byte	0
 9150 03d0 31       		.uleb128 0x31
 9151 03d1 13       		.uleb128 0x13
 9152 03d2 00       		.byte	0
 9153 03d3 00       		.byte	0
 9154 03d4 49       		.uleb128 0x49
 9155 03d5 2E       		.uleb128 0x2e
 9156 03d6 01       		.byte	0x1
 9157 03d7 3F       		.uleb128 0x3f
 9158 03d8 19       		.uleb128 0x19
 9159 03d9 03       		.uleb128 0x3
 9160 03da 0E       		.uleb128 0xe
 9161 03db 3A       		.uleb128 0x3a
 9162 03dc 0B       		.uleb128 0xb
 9163 03dd 3B       		.uleb128 0x3b
 9164 03de 0B       		.uleb128 0xb
 9165 03df 27       		.uleb128 0x27
 9166 03e0 19       		.uleb128 0x19
 9167 03e1 11       		.uleb128 0x11
 9168 03e2 01       		.uleb128 0x1
 9169 03e3 12       		.uleb128 0x12
 9170 03e4 06       		.uleb128 0x6
 9171 03e5 40       		.uleb128 0x40
 9172 03e6 18       		.uleb128 0x18
 9173 03e7 9742     		.uleb128 0x2117
 9174 03e9 19       		.uleb128 0x19
 9175 03ea 01       		.uleb128 0x1
 9176 03eb 13       		.uleb128 0x13
 9177 03ec 00       		.byte	0
 9178 03ed 00       		.byte	0
 9179 03ee 4A       		.uleb128 0x4a
 9180 03ef 898201   		.uleb128 0x4109
 9181 03f2 01       		.byte	0x1
 9182 03f3 11       		.uleb128 0x11
 9183 03f4 01       		.uleb128 0x1
 9184 03f5 9542     		.uleb128 0x2115
 9185 03f7 19       		.uleb128 0x19
 9186 03f8 00       		.byte	0
 9187 03f9 00       		.byte	0
 9188 03fa 4B       		.uleb128 0x4b
 9189 03fb 2E       		.uleb128 0x2e
 9190 03fc 01       		.byte	0x1
 9191 03fd 31       		.uleb128 0x31
 9192 03fe 13       		.uleb128 0x13
 9193 03ff 11       		.uleb128 0x11
ARM GAS  C:\Users\pearlstl\AppData\Local\Temp\cciL9yyu.s 			page 186


 9194 0400 01       		.uleb128 0x1
 9195 0401 12       		.uleb128 0x12
 9196 0402 06       		.uleb128 0x6
 9197 0403 40       		.uleb128 0x40
 9198 0404 18       		.uleb128 0x18
 9199 0405 9742     		.uleb128 0x2117
 9200 0407 19       		.uleb128 0x19
 9201 0408 01       		.uleb128 0x1
 9202 0409 13       		.uleb128 0x13
 9203 040a 00       		.byte	0
 9204 040b 00       		.byte	0
 9205 040c 4C       		.uleb128 0x4c
 9206 040d 34       		.uleb128 0x34
 9207 040e 00       		.byte	0
 9208 040f 03       		.uleb128 0x3
 9209 0410 0E       		.uleb128 0xe
 9210 0411 3A       		.uleb128 0x3a
 9211 0412 0B       		.uleb128 0xb
 9212 0413 3B       		.uleb128 0x3b
 9213 0414 0B       		.uleb128 0xb
 9214 0415 49       		.uleb128 0x49
 9215 0416 13       		.uleb128 0x13
 9216 0417 02       		.uleb128 0x2
 9217 0418 18       		.uleb128 0x18
 9218 0419 00       		.byte	0
 9219 041a 00       		.byte	0
 9220 041b 4D       		.uleb128 0x4d
 9221 041c 34       		.uleb128 0x34
 9222 041d 00       		.byte	0
 9223 041e 03       		.uleb128 0x3
 9224 041f 0E       		.uleb128 0xe
 9225 0420 3A       		.uleb128 0x3a
 9226 0421 0B       		.uleb128 0xb
 9227 0422 3B       		.uleb128 0x3b
 9228 0423 05       		.uleb128 0x5
 9229 0424 49       		.uleb128 0x49
 9230 0425 13       		.uleb128 0x13
 9231 0426 3F       		.uleb128 0x3f
 9232 0427 19       		.uleb128 0x19
 9233 0428 3C       		.uleb128 0x3c
 9234 0429 19       		.uleb128 0x19
 9235 042a 00       		.byte	0
 9236 042b 00       		.byte	0
 9237 042c 4E       		.uleb128 0x4e
 9238 042d 2E       		.uleb128 0x2e
 9239 042e 00       		.byte	0
 9240 042f 3F       		.uleb128 0x3f
 9241 0430 19       		.uleb128 0x19
 9242 0431 3C       		.uleb128 0x3c
 9243 0432 19       		.uleb128 0x19
 9244 0433 6E       		.uleb128 0x6e
 9245 0434 0E       		.uleb128 0xe
 9246 0435 03       		.uleb128 0x3
 9247 0436 0E       		.uleb128 0xe
 9248 0437 3A       		.uleb128 0x3a
 9249 0438 0B       		.uleb128 0xb
 9250 0439 3B       		.uleb128 0x3b
ARM GAS  C:\Users\pearlstl\AppData\Local\Temp\cciL9yyu.s 			page 187


 9251 043a 05       		.uleb128 0x5
 9252 043b 00       		.byte	0
 9253 043c 00       		.byte	0
 9254 043d 4F       		.uleb128 0x4f
 9255 043e 2E       		.uleb128 0x2e
 9256 043f 00       		.byte	0
 9257 0440 3F       		.uleb128 0x3f
 9258 0441 19       		.uleb128 0x19
 9259 0442 3C       		.uleb128 0x3c
 9260 0443 19       		.uleb128 0x19
 9261 0444 6E       		.uleb128 0x6e
 9262 0445 0E       		.uleb128 0xe
 9263 0446 03       		.uleb128 0x3
 9264 0447 0E       		.uleb128 0xe
 9265 0448 3A       		.uleb128 0x3a
 9266 0449 0B       		.uleb128 0xb
 9267 044a 3B       		.uleb128 0x3b
 9268 044b 0B       		.uleb128 0xb
 9269 044c 00       		.byte	0
 9270 044d 00       		.byte	0
 9271 044e 00       		.byte	0
 9272              		.section	.debug_loc,"",%progbits
 9273              	.Ldebug_loc0:
 9274              	.LLST0:
 9275 0000 00000000 		.4byte	.LVL0
 9276 0004 0B000000 		.4byte	.LVL2-1
 9277 0008 0100     		.2byte	0x1
 9278 000a 50       		.byte	0x50
 9279 000b 0B000000 		.4byte	.LVL2-1
 9280 000f C8000000 		.4byte	.LVL27
 9281 0013 0100     		.2byte	0x1
 9282 0015 59       		.byte	0x59
 9283 0016 C8000000 		.4byte	.LVL27
 9284 001a 10010000 		.4byte	.LVL36
 9285 001e 0200     		.2byte	0x2
 9286 0020 91       		.byte	0x91
 9287 0021 54       		.sleb128 -44
 9288 0022 10010000 		.4byte	.LVL36
 9289 0026 88020000 		.4byte	.LVL86
 9290 002a 0100     		.2byte	0x1
 9291 002c 59       		.byte	0x59
 9292 002d 88020000 		.4byte	.LVL86
 9293 0031 91020000 		.4byte	.LVL87-1
 9294 0035 0100     		.2byte	0x1
 9295 0037 51       		.byte	0x51
 9296 0038 91020000 		.4byte	.LVL87-1
 9297 003c BC020000 		.4byte	.LVL91
 9298 0040 0100     		.2byte	0x1
 9299 0042 59       		.byte	0x59
 9300 0043 BC020000 		.4byte	.LVL91
 9301 0047 C5020000 		.4byte	.LVL92-1
 9302 004b 0100     		.2byte	0x1
 9303 004d 51       		.byte	0x51
 9304 004e C5020000 		.4byte	.LVL92-1
 9305 0052 7C030000 		.4byte	.LVL118
 9306 0056 0100     		.2byte	0x1
 9307 0058 59       		.byte	0x59
ARM GAS  C:\Users\pearlstl\AppData\Local\Temp\cciL9yyu.s 			page 188


 9308 0059 7C030000 		.4byte	.LVL118
 9309 005d F8030000 		.4byte	.LVL137
 9310 0061 0200     		.2byte	0x2
 9311 0063 91       		.byte	0x91
 9312 0064 50       		.sleb128 -48
 9313 0065 F8030000 		.4byte	.LVL137
 9314 0069 06040000 		.4byte	.LVL138
 9315 006d 0400     		.2byte	0x4
 9316 006f F3       		.byte	0xf3
 9317 0070 01       		.uleb128 0x1
 9318 0071 50       		.byte	0x50
 9319 0072 9F       		.byte	0x9f
 9320 0073 06040000 		.4byte	.LVL138
 9321 0077 8C040000 		.4byte	.LVL153
 9322 007b 0100     		.2byte	0x1
 9323 007d 59       		.byte	0x59
 9324 007e 8C040000 		.4byte	.LVL153
 9325 0082 A2040000 		.4byte	.LVL158
 9326 0086 0200     		.2byte	0x2
 9327 0088 91       		.byte	0x91
 9328 0089 54       		.sleb128 -44
 9329 008a A2040000 		.4byte	.LVL158
 9330 008e D6040000 		.4byte	.LVL167
 9331 0092 0100     		.2byte	0x1
 9332 0094 59       		.byte	0x59
 9333 0095 D6040000 		.4byte	.LVL167
 9334 0099 D2050000 		.4byte	.LVL201
 9335 009d 0200     		.2byte	0x2
 9336 009f 91       		.byte	0x91
 9337 00a0 50       		.sleb128 -48
 9338 00a1 D2050000 		.4byte	.LVL201
 9339 00a5 18060000 		.4byte	.LVL212
 9340 00a9 0100     		.2byte	0x1
 9341 00ab 59       		.byte	0x59
 9342 00ac 18060000 		.4byte	.LVL212
 9343 00b0 9C060000 		.4byte	.LVL226
 9344 00b4 0200     		.2byte	0x2
 9345 00b6 91       		.byte	0x91
 9346 00b7 50       		.sleb128 -48
 9347 00b8 9C060000 		.4byte	.LVL226
 9348 00bc AC060000 		.4byte	.LFE44
 9349 00c0 0100     		.2byte	0x1
 9350 00c2 59       		.byte	0x59
 9351 00c3 00000000 		.4byte	0
 9352 00c7 00000000 		.4byte	0
 9353              	.LLST1:
 9354 00cb 08000000 		.4byte	.LVL1
 9355 00cf 0B000000 		.4byte	.LVL2-1
 9356 00d3 0100     		.2byte	0x1
 9357 00d5 50       		.byte	0x50
 9358 00d6 0B000000 		.4byte	.LVL2-1
 9359 00da 12000000 		.4byte	.LVL3
 9360 00de 0100     		.2byte	0x1
 9361 00e0 59       		.byte	0x59
 9362 00e1 00000000 		.4byte	0
 9363 00e5 00000000 		.4byte	0
 9364              	.LLST2:
ARM GAS  C:\Users\pearlstl\AppData\Local\Temp\cciL9yyu.s 			page 189


 9365 00e9 0C000000 		.4byte	.LVL2
 9366 00ed 12000000 		.4byte	.LVL3
 9367 00f1 0100     		.2byte	0x1
 9368 00f3 50       		.byte	0x50
 9369 00f4 00000000 		.4byte	0
 9370 00f8 00000000 		.4byte	0
 9371              	.LLST3:
 9372 00fc 42000000 		.4byte	.LVL5
 9373 0100 C8000000 		.4byte	.LVL27
 9374 0104 0100     		.2byte	0x1
 9375 0106 59       		.byte	0x59
 9376 0107 C8000000 		.4byte	.LVL27
 9377 010b 10010000 		.4byte	.LVL36
 9378 010f 0200     		.2byte	0x2
 9379 0111 91       		.byte	0x91
 9380 0112 54       		.sleb128 -44
 9381 0113 16030000 		.4byte	.LVL102
 9382 0117 7C030000 		.4byte	.LVL118
 9383 011b 0100     		.2byte	0x1
 9384 011d 59       		.byte	0x59
 9385 011e 8C040000 		.4byte	.LVL153
 9386 0122 A2040000 		.4byte	.LVL158
 9387 0126 0200     		.2byte	0x2
 9388 0128 91       		.byte	0x91
 9389 0129 54       		.sleb128 -44
 9390 012a 00000000 		.4byte	0
 9391 012e 00000000 		.4byte	0
 9392              	.LLST4:
 9393 0132 B6000000 		.4byte	.LVL26
 9394 0136 C8000000 		.4byte	.LVL27
 9395 013a 0100     		.2byte	0x1
 9396 013c 50       		.byte	0x50
 9397 013d C8000000 		.4byte	.LVL27
 9398 0141 D0000000 		.4byte	.LVL28
 9399 0145 0100     		.2byte	0x1
 9400 0147 54       		.byte	0x54
 9401 0148 D0000000 		.4byte	.LVL28
 9402 014c DD000000 		.4byte	.LVL30-1
 9403 0150 0100     		.2byte	0x1
 9404 0152 50       		.byte	0x50
 9405 0153 DD000000 		.4byte	.LVL30-1
 9406 0157 10010000 		.4byte	.LVL36
 9407 015b 0100     		.2byte	0x1
 9408 015d 54       		.byte	0x54
 9409 015e 40030000 		.4byte	.LVL109
 9410 0162 46030000 		.4byte	.LVL111
 9411 0166 0100     		.2byte	0x1
 9412 0168 50       		.byte	0x50
 9413 0169 46030000 		.4byte	.LVL111
 9414 016d 4E030000 		.4byte	.LVL112
 9415 0171 0100     		.2byte	0x1
 9416 0173 54       		.byte	0x54
 9417 0174 4E030000 		.4byte	.LVL112
 9418 0178 59030000 		.4byte	.LVL113-1
 9419 017c 0100     		.2byte	0x1
 9420 017e 50       		.byte	0x50
 9421 017f 59030000 		.4byte	.LVL113-1
ARM GAS  C:\Users\pearlstl\AppData\Local\Temp\cciL9yyu.s 			page 190


 9422 0183 7C030000 		.4byte	.LVL118
 9423 0187 0100     		.2byte	0x1
 9424 0189 54       		.byte	0x54
 9425 018a 8C040000 		.4byte	.LVL153
 9426 018e 92040000 		.4byte	.LVL154
 9427 0192 0100     		.2byte	0x1
 9428 0194 50       		.byte	0x50
 9429 0195 92040000 		.4byte	.LVL154
 9430 0199 A2040000 		.4byte	.LVL158
 9431 019d 0100     		.2byte	0x1
 9432 019f 54       		.byte	0x54
 9433 01a0 00000000 		.4byte	0
 9434 01a4 00000000 		.4byte	0
 9435              	.LLST5:
 9436 01a8 4A000000 		.4byte	.LVL7
 9437 01ac 4C000000 		.4byte	.LVL8
 9438 01b0 0100     		.2byte	0x1
 9439 01b2 50       		.byte	0x50
 9440 01b3 4C000000 		.4byte	.LVL8
 9441 01b7 10010000 		.4byte	.LVL36
 9442 01bb 0100     		.2byte	0x1
 9443 01bd 5B       		.byte	0x5b
 9444 01be 16030000 		.4byte	.LVL102
 9445 01c2 7C030000 		.4byte	.LVL118
 9446 01c6 0100     		.2byte	0x1
 9447 01c8 5B       		.byte	0x5b
 9448 01c9 8C040000 		.4byte	.LVL153
 9449 01cd A2040000 		.4byte	.LVL158
 9450 01d1 0100     		.2byte	0x1
 9451 01d3 5B       		.byte	0x5b
 9452 01d4 00000000 		.4byte	0
 9453 01d8 00000000 		.4byte	0
 9454              	.LLST6:
 9455 01dc 54000000 		.4byte	.LVL10
 9456 01e0 AE000000 		.4byte	.LVL24
 9457 01e4 0100     		.2byte	0x1
 9458 01e6 57       		.byte	0x57
 9459 01e7 16030000 		.4byte	.LVL102
 9460 01eb 1E030000 		.4byte	.LVL103
 9461 01ef 0100     		.2byte	0x1
 9462 01f1 57       		.byte	0x57
 9463 01f2 00000000 		.4byte	0
 9464 01f6 00000000 		.4byte	0
 9465              	.LLST7:
 9466 01fa 60000000 		.4byte	.LVL13
 9467 01fe A0000000 		.4byte	.LVL21
 9468 0202 0100     		.2byte	0x1
 9469 0204 55       		.byte	0x55
 9470 0205 16030000 		.4byte	.LVL102
 9471 0209 30030000 		.4byte	.LVL105
 9472 020d 0100     		.2byte	0x1
 9473 020f 55       		.byte	0x55
 9474 0210 00000000 		.4byte	0
 9475 0214 00000000 		.4byte	0
 9476              	.LLST8:
 9477 0218 6A000000 		.4byte	.LVL15
 9478 021c 8A000000 		.4byte	.LVL19
ARM GAS  C:\Users\pearlstl\AppData\Local\Temp\cciL9yyu.s 			page 191


 9479 0220 0100     		.2byte	0x1
 9480 0222 54       		.byte	0x54
 9481 0223 16030000 		.4byte	.LVL102
 9482 0227 42030000 		.4byte	.LVL110
 9483 022b 0100     		.2byte	0x1
 9484 022d 54       		.byte	0x54
 9485 022e 00000000 		.4byte	0
 9486 0232 00000000 		.4byte	0
 9487              	.LLST9:
 9488 0236 74000000 		.4byte	.LVL17
 9489 023a 9C000000 		.4byte	.LVL20
 9490 023e 0100     		.2byte	0x1
 9491 0240 50       		.byte	0x50
 9492 0241 16030000 		.4byte	.LVL102
 9493 0245 2A030000 		.4byte	.LVL104
 9494 0249 0100     		.2byte	0x1
 9495 024b 50       		.byte	0x50
 9496 024c 00000000 		.4byte	0
 9497 0250 00000000 		.4byte	0
 9498              	.LLST10:
 9499 0254 80000000 		.4byte	.LVL18
 9500 0258 10010000 		.4byte	.LVL36
 9501 025c 0100     		.2byte	0x1
 9502 025e 56       		.byte	0x56
 9503 025f 16030000 		.4byte	.LVL102
 9504 0263 32030000 		.4byte	.LVL106
 9505 0267 0100     		.2byte	0x1
 9506 0269 56       		.byte	0x56
 9507 026a 8C040000 		.4byte	.LVL153
 9508 026e A2040000 		.4byte	.LVL158
 9509 0272 0100     		.2byte	0x1
 9510 0274 56       		.byte	0x56
 9511 0275 00000000 		.4byte	0
 9512 0279 00000000 		.4byte	0
 9513              	.LLST11:
 9514 027d A4000000 		.4byte	.LVL22
 9515 0281 10010000 		.4byte	.LVL36
 9516 0285 0200     		.2byte	0x2
 9517 0287 91       		.byte	0x91
 9518 0288 4C       		.sleb128 -52
 9519 0289 30030000 		.4byte	.LVL105
 9520 028d 7C030000 		.4byte	.LVL118
 9521 0291 0100     		.2byte	0x1
 9522 0293 55       		.byte	0x55
 9523 0294 8C040000 		.4byte	.LVL153
 9524 0298 A2040000 		.4byte	.LVL158
 9525 029c 0200     		.2byte	0x2
 9526 029e 91       		.byte	0x91
 9527 029f 4C       		.sleb128 -52
 9528 02a0 00000000 		.4byte	0
 9529 02a4 00000000 		.4byte	0
 9530              	.LLST12:
 9531 02a8 A4000000 		.4byte	.LVL22
 9532 02ac 10010000 		.4byte	.LVL36
 9533 02b0 0200     		.2byte	0x2
 9534 02b2 91       		.byte	0x91
 9535 02b3 50       		.sleb128 -48
ARM GAS  C:\Users\pearlstl\AppData\Local\Temp\cciL9yyu.s 			page 192


 9536 02b4 32030000 		.4byte	.LVL106
 9537 02b8 7C030000 		.4byte	.LVL118
 9538 02bc 0100     		.2byte	0x1
 9539 02be 56       		.byte	0x56
 9540 02bf 8C040000 		.4byte	.LVL153
 9541 02c3 A2040000 		.4byte	.LVL158
 9542 02c7 0200     		.2byte	0x2
 9543 02c9 91       		.byte	0x91
 9544 02ca 50       		.sleb128 -48
 9545 02cb 00000000 		.4byte	0
 9546 02cf 00000000 		.4byte	0
 9547              	.LLST13:
 9548 02d3 AE000000 		.4byte	.LVL24
 9549 02d7 FE000000 		.4byte	.LVL33
 9550 02db 0100     		.2byte	0x1
 9551 02dd 57       		.byte	0x57
 9552 02de FE000000 		.4byte	.LVL33
 9553 02e2 08010000 		.4byte	.LVL35
 9554 02e6 0800     		.2byte	0x8
 9555 02e8 77       		.byte	0x77
 9556 02e9 00       		.sleb128 0
 9557 02ea 91       		.byte	0x91
 9558 02eb 4C       		.sleb128 -52
 9559 02ec 94       		.byte	0x94
 9560 02ed 02       		.byte	0x2
 9561 02ee 22       		.byte	0x22
 9562 02ef 9F       		.byte	0x9f
 9563 02f0 36030000 		.4byte	.LVL107
 9564 02f4 3F030000 		.4byte	.LVL109-1
 9565 02f8 0200     		.2byte	0x2
 9566 02fa 7B       		.byte	0x7b
 9567 02fb 24       		.sleb128 36
 9568 02fc 76030000 		.4byte	.LVL116
 9569 0300 7C030000 		.4byte	.LVL118
 9570 0304 0200     		.2byte	0x2
 9571 0306 7B       		.byte	0x7b
 9572 0307 24       		.sleb128 36
 9573 0308 8C040000 		.4byte	.LVL153
 9574 030c 92040000 		.4byte	.LVL154
 9575 0310 0100     		.2byte	0x1
 9576 0312 57       		.byte	0x57
 9577 0313 98040000 		.4byte	.LVL155
 9578 0317 A2040000 		.4byte	.LVL158
 9579 031b 0100     		.2byte	0x1
 9580 031d 57       		.byte	0x57
 9581 031e 00000000 		.4byte	0
 9582 0322 00000000 		.4byte	0
 9583              	.LLST14:
 9584 0326 B2000000 		.4byte	.LVL25
 9585 032a 10010000 		.4byte	.LVL36
 9586 032e 0100     		.2byte	0x1
 9587 0330 58       		.byte	0x58
 9588 0331 3C030000 		.4byte	.LVL108
 9589 0335 72030000 		.4byte	.LVL115
 9590 0339 0100     		.2byte	0x1
 9591 033b 58       		.byte	0x58
 9592 033c 7A030000 		.4byte	.LVL117
ARM GAS  C:\Users\pearlstl\AppData\Local\Temp\cciL9yyu.s 			page 193


 9593 0340 7C030000 		.4byte	.LVL118
 9594 0344 0100     		.2byte	0x1
 9595 0346 58       		.byte	0x58
 9596 0347 8C040000 		.4byte	.LVL153
 9597 034b 9A040000 		.4byte	.LVL156
 9598 034f 0100     		.2byte	0x1
 9599 0351 58       		.byte	0x58
 9600 0352 9E040000 		.4byte	.LVL157
 9601 0356 A2040000 		.4byte	.LVL158
 9602 035a 0100     		.2byte	0x1
 9603 035c 58       		.byte	0x58
 9604 035d 00000000 		.4byte	0
 9605 0361 00000000 		.4byte	0
 9606              	.LLST15:
 9607 0365 B2000000 		.4byte	.LVL25
 9608 0369 C8000000 		.4byte	.LVL27
 9609 036d 0200     		.2byte	0x2
 9610 036f 30       		.byte	0x30
 9611 0370 9F       		.byte	0x9f
 9612 0371 C8000000 		.4byte	.LVL27
 9613 0375 FA000000 		.4byte	.LVL32
 9614 0379 0100     		.2byte	0x1
 9615 037b 5A       		.byte	0x5a
 9616 037c 02010000 		.4byte	.LVL34
 9617 0380 10010000 		.4byte	.LVL36
 9618 0384 0100     		.2byte	0x1
 9619 0386 5A       		.byte	0x5a
 9620 0387 3C030000 		.4byte	.LVL108
 9621 038b 7C030000 		.4byte	.LVL118
 9622 038f 0200     		.2byte	0x2
 9623 0391 30       		.byte	0x30
 9624 0392 9F       		.byte	0x9f
 9625 0393 8C040000 		.4byte	.LVL153
 9626 0397 92040000 		.4byte	.LVL154
 9627 039b 0100     		.2byte	0x1
 9628 039d 5A       		.byte	0x5a
 9629 039e 92040000 		.4byte	.LVL154
 9630 03a2 A2040000 		.4byte	.LVL158
 9631 03a6 0200     		.2byte	0x2
 9632 03a8 30       		.byte	0x30
 9633 03a9 9F       		.byte	0x9f
 9634 03aa 00000000 		.4byte	0
 9635 03ae 00000000 		.4byte	0
 9636              	.LLST16:
 9637 03b2 10010000 		.4byte	.LVL36
 9638 03b6 6C010000 		.4byte	.LVL50
 9639 03ba 0100     		.2byte	0x1
 9640 03bc 59       		.byte	0x59
 9641 03bd 06040000 		.4byte	.LVL138
 9642 03c1 8C040000 		.4byte	.LVL153
 9643 03c5 0100     		.2byte	0x1
 9644 03c7 59       		.byte	0x59
 9645 03c8 00000000 		.4byte	0
 9646 03cc 00000000 		.4byte	0
 9647              	.LLST17:
 9648 03d0 22010000 		.4byte	.LVL40
 9649 03d4 30010000 		.4byte	.LVL41
ARM GAS  C:\Users\pearlstl\AppData\Local\Temp\cciL9yyu.s 			page 194


 9650 03d8 0100     		.2byte	0x1
 9651 03da 50       		.byte	0x50
 9652 03db 30010000 		.4byte	.LVL41
 9653 03df 38010000 		.4byte	.LVL42
 9654 03e3 0100     		.2byte	0x1
 9655 03e5 54       		.byte	0x54
 9656 03e6 38010000 		.4byte	.LVL42
 9657 03ea 45010000 		.4byte	.LVL44-1
 9658 03ee 0100     		.2byte	0x1
 9659 03f0 50       		.byte	0x50
 9660 03f1 45010000 		.4byte	.LVL44-1
 9661 03f5 6C010000 		.4byte	.LVL50
 9662 03f9 0100     		.2byte	0x1
 9663 03fb 54       		.byte	0x54
 9664 03fc 06040000 		.4byte	.LVL138
 9665 0400 18040000 		.4byte	.LVL140
 9666 0404 0100     		.2byte	0x1
 9667 0406 50       		.byte	0x50
 9668 0407 2E040000 		.4byte	.LVL143
 9669 040b 34040000 		.4byte	.LVL145
 9670 040f 0100     		.2byte	0x1
 9671 0411 50       		.byte	0x50
 9672 0412 34040000 		.4byte	.LVL145
 9673 0416 3C040000 		.4byte	.LVL146
 9674 041a 0100     		.2byte	0x1
 9675 041c 54       		.byte	0x54
 9676 041d 3C040000 		.4byte	.LVL146
 9677 0421 47040000 		.4byte	.LVL147-1
 9678 0425 0100     		.2byte	0x1
 9679 0427 50       		.byte	0x50
 9680 0428 47040000 		.4byte	.LVL147-1
 9681 042c 8C040000 		.4byte	.LVL153
 9682 0430 0100     		.2byte	0x1
 9683 0432 54       		.byte	0x54
 9684 0433 00000000 		.4byte	0
 9685 0437 00000000 		.4byte	0
 9686              	.LLST18:
 9687 043b 1C010000 		.4byte	.LVL38
 9688 043f 1E010000 		.4byte	.LVL39
 9689 0443 0100     		.2byte	0x1
 9690 0445 50       		.byte	0x50
 9691 0446 1E010000 		.4byte	.LVL39
 9692 044a 6C010000 		.4byte	.LVL50
 9693 044e 0100     		.2byte	0x1
 9694 0450 57       		.byte	0x57
 9695 0451 06040000 		.4byte	.LVL138
 9696 0455 8C040000 		.4byte	.LVL153
 9697 0459 0100     		.2byte	0x1
 9698 045b 57       		.byte	0x57
 9699 045c 00000000 		.4byte	0
 9700 0460 00000000 		.4byte	0
 9701              	.LLST19:
 9702 0464 1C010000 		.4byte	.LVL38
 9703 0468 30010000 		.4byte	.LVL41
 9704 046c 0200     		.2byte	0x2
 9705 046e 30       		.byte	0x30
 9706 046f 9F       		.byte	0x9f
ARM GAS  C:\Users\pearlstl\AppData\Local\Temp\cciL9yyu.s 			page 195


 9707 0470 30010000 		.4byte	.LVL41
 9708 0474 68010000 		.4byte	.LVL48
 9709 0478 0100     		.2byte	0x1
 9710 047a 58       		.byte	0x58
 9711 047b 68010000 		.4byte	.LVL48
 9712 047f 6A010000 		.4byte	.LVL49
 9713 0483 0300     		.2byte	0x3
 9714 0485 78       		.byte	0x78
 9715 0486 7F       		.sleb128 -1
 9716 0487 9F       		.byte	0x9f
 9717 0488 6A010000 		.4byte	.LVL49
 9718 048c 6C010000 		.4byte	.LVL50
 9719 0490 0100     		.2byte	0x1
 9720 0492 58       		.byte	0x58
 9721 0493 06040000 		.4byte	.LVL138
 9722 0497 34040000 		.4byte	.LVL145
 9723 049b 0100     		.2byte	0x1
 9724 049d 58       		.byte	0x58
 9725 049e 00000000 		.4byte	0
 9726 04a2 00000000 		.4byte	0
 9727              	.LLST20:
 9728 04a6 1C010000 		.4byte	.LVL38
 9729 04aa 30010000 		.4byte	.LVL41
 9730 04ae 0200     		.2byte	0x2
 9731 04b0 30       		.byte	0x30
 9732 04b1 9F       		.byte	0x9f
 9733 04b2 30010000 		.4byte	.LVL41
 9734 04b6 64010000 		.4byte	.LVL47
 9735 04ba 0100     		.2byte	0x1
 9736 04bc 56       		.byte	0x56
 9737 04bd 6A010000 		.4byte	.LVL49
 9738 04c1 6C010000 		.4byte	.LVL50
 9739 04c5 0100     		.2byte	0x1
 9740 04c7 56       		.byte	0x56
 9741 04c8 06040000 		.4byte	.LVL138
 9742 04cc 14040000 		.4byte	.LVL139
 9743 04d0 0100     		.2byte	0x1
 9744 04d2 56       		.byte	0x56
 9745 04d3 14040000 		.4byte	.LVL139
 9746 04d7 30040000 		.4byte	.LVL144
 9747 04db 0100     		.2byte	0x1
 9748 04dd 54       		.byte	0x54
 9749 04de 00000000 		.4byte	0
 9750 04e2 00000000 		.4byte	0
 9751              	.LLST21:
 9752 04e6 2E040000 		.4byte	.LVL143
 9753 04ea 8C040000 		.4byte	.LVL153
 9754 04ee 0100     		.2byte	0x1
 9755 04f0 56       		.byte	0x56
 9756 04f1 00000000 		.4byte	0
 9757 04f5 00000000 		.4byte	0
 9758              	.LLST22:
 9759 04f9 6C010000 		.4byte	.LVL50
 9760 04fd FC010000 		.4byte	.LVL68
 9761 0501 0100     		.2byte	0x1
 9762 0503 59       		.byte	0x59
 9763 0504 0C030000 		.4byte	.LVL100
ARM GAS  C:\Users\pearlstl\AppData\Local\Temp\cciL9yyu.s 			page 196


 9764 0508 16030000 		.4byte	.LVL102
 9765 050c 0100     		.2byte	0x1
 9766 050e 59       		.byte	0x59
 9767 050f D2050000 		.4byte	.LVL201
 9768 0513 EE050000 		.4byte	.LVL204
 9769 0517 0100     		.2byte	0x1
 9770 0519 59       		.byte	0x59
 9771 051a 00000000 		.4byte	0
 9772 051e 00000000 		.4byte	0
 9773              	.LLST23:
 9774 0522 B0010000 		.4byte	.LVL60
 9775 0526 B6010000 		.4byte	.LVL61
 9776 052a 0100     		.2byte	0x1
 9777 052c 50       		.byte	0x50
 9778 052d B6010000 		.4byte	.LVL61
 9779 0531 BE010000 		.4byte	.LVL62
 9780 0535 0100     		.2byte	0x1
 9781 0537 54       		.byte	0x54
 9782 0538 BE010000 		.4byte	.LVL62
 9783 053c CB010000 		.4byte	.LVL63-1
 9784 0540 0100     		.2byte	0x1
 9785 0542 50       		.byte	0x50
 9786 0543 CB010000 		.4byte	.LVL63-1
 9787 0547 FC010000 		.4byte	.LVL68
 9788 054b 0100     		.2byte	0x1
 9789 054d 54       		.byte	0x54
 9790 054e 00000000 		.4byte	0
 9791 0552 00000000 		.4byte	0
 9792              	.LLST24:
 9793 0556 9A010000 		.4byte	.LVL56
 9794 055a FC010000 		.4byte	.LVL68
 9795 055e 0100     		.2byte	0x1
 9796 0560 5A       		.byte	0x5a
 9797 0561 10030000 		.4byte	.LVL101
 9798 0565 16030000 		.4byte	.LVL102
 9799 0569 0200     		.2byte	0x2
 9800 056b 31       		.byte	0x31
 9801 056c 9F       		.byte	0x9f
 9802 056d DE050000 		.4byte	.LVL202
 9803 0571 E4050000 		.4byte	.LVL203
 9804 0575 0200     		.2byte	0x2
 9805 0577 33       		.byte	0x33
 9806 0578 9F       		.byte	0x9f
 9807 0579 00000000 		.4byte	0
 9808 057d 00000000 		.4byte	0
 9809              	.LLST25:
 9810 0581 82010000 		.4byte	.LVL55
 9811 0585 9E010000 		.4byte	.LVL57
 9812 0589 0100     		.2byte	0x1
 9813 058b 50       		.byte	0x50
 9814 058c 9E010000 		.4byte	.LVL57
 9815 0590 FC010000 		.4byte	.LVL68
 9816 0594 0100     		.2byte	0x1
 9817 0596 57       		.byte	0x57
 9818 0597 0C030000 		.4byte	.LVL100
 9819 059b 16030000 		.4byte	.LVL102
 9820 059f 0100     		.2byte	0x1
ARM GAS  C:\Users\pearlstl\AppData\Local\Temp\cciL9yyu.s 			page 197


 9821 05a1 50       		.byte	0x50
 9822 05a2 D2050000 		.4byte	.LVL201
 9823 05a6 EE050000 		.4byte	.LVL204
 9824 05aa 0100     		.2byte	0x1
 9825 05ac 50       		.byte	0x50
 9826 05ad 00000000 		.4byte	0
 9827 05b1 00000000 		.4byte	0
 9828              	.LLST26:
 9829 05b5 9A010000 		.4byte	.LVL56
 9830 05b9 FC010000 		.4byte	.LVL68
 9831 05bd 0100     		.2byte	0x1
 9832 05bf 58       		.byte	0x58
 9833 05c0 10030000 		.4byte	.LVL101
 9834 05c4 16030000 		.4byte	.LVL102
 9835 05c8 0100     		.2byte	0x1
 9836 05ca 58       		.byte	0x58
 9837 05cb DE050000 		.4byte	.LVL202
 9838 05cf E4050000 		.4byte	.LVL203
 9839 05d3 0100     		.2byte	0x1
 9840 05d5 58       		.byte	0x58
 9841 05d6 00000000 		.4byte	0
 9842 05da 00000000 		.4byte	0
 9843              	.LLST27:
 9844 05de AC010000 		.4byte	.LVL59
 9845 05e2 FC010000 		.4byte	.LVL68
 9846 05e6 0100     		.2byte	0x1
 9847 05e8 56       		.byte	0x56
 9848 05e9 00000000 		.4byte	0
 9849 05ed 00000000 		.4byte	0
 9850              	.LLST28:
 9851 05f1 6C010000 		.4byte	.LVL50
 9852 05f5 7E010000 		.4byte	.LVL54
 9853 05f9 0100     		.2byte	0x1
 9854 05fb 59       		.byte	0x59
 9855 05fc 00000000 		.4byte	0
 9856 0600 00000000 		.4byte	0
 9857              	.LLST29:
 9858 0604 72010000 		.4byte	.LVL51
 9859 0608 76010000 		.4byte	.LVL52
 9860 060c 0100     		.2byte	0x1
 9861 060e 50       		.byte	0x50
 9862 060f 00000000 		.4byte	0
 9863 0613 00000000 		.4byte	0
 9864              	.LLST30:
 9865 0617 FC010000 		.4byte	.LVL68
 9866 061b 88020000 		.4byte	.LVL86
 9867 061f 0100     		.2byte	0x1
 9868 0621 59       		.byte	0x59
 9869 0622 88020000 		.4byte	.LVL86
 9870 0626 91020000 		.4byte	.LVL87-1
 9871 062a 0100     		.2byte	0x1
 9872 062c 51       		.byte	0x51
 9873 062d 91020000 		.4byte	.LVL87-1
 9874 0631 BC020000 		.4byte	.LVL91
 9875 0635 0100     		.2byte	0x1
 9876 0637 59       		.byte	0x59
 9877 0638 BC020000 		.4byte	.LVL91
ARM GAS  C:\Users\pearlstl\AppData\Local\Temp\cciL9yyu.s 			page 198


 9878 063c C5020000 		.4byte	.LVL92-1
 9879 0640 0100     		.2byte	0x1
 9880 0642 51       		.byte	0x51
 9881 0643 C5020000 		.4byte	.LVL92-1
 9882 0647 0C030000 		.4byte	.LVL100
 9883 064b 0100     		.2byte	0x1
 9884 064d 59       		.byte	0x59
 9885 064e EE050000 		.4byte	.LVL204
 9886 0652 18060000 		.4byte	.LVL212
 9887 0656 0100     		.2byte	0x1
 9888 0658 59       		.byte	0x59
 9889 0659 9C060000 		.4byte	.LVL226
 9890 065d AC060000 		.4byte	.LFE44
 9891 0661 0100     		.2byte	0x1
 9892 0663 59       		.byte	0x59
 9893 0664 00000000 		.4byte	0
 9894 0668 00000000 		.4byte	0
 9895              	.LLST31:
 9896 066c 4C020000 		.4byte	.LVL81
 9897 0670 5C020000 		.4byte	.LVL82
 9898 0674 0100     		.2byte	0x1
 9899 0676 50       		.byte	0x50
 9900 0677 5C020000 		.4byte	.LVL82
 9901 067b 64020000 		.4byte	.LVL83
 9902 067f 0100     		.2byte	0x1
 9903 0681 54       		.byte	0x54
 9904 0682 64020000 		.4byte	.LVL83
 9905 0686 71020000 		.4byte	.LVL84-1
 9906 068a 0100     		.2byte	0x1
 9907 068c 50       		.byte	0x50
 9908 068d 71020000 		.4byte	.LVL84-1
 9909 0691 E0020000 		.4byte	.LVL96
 9910 0695 0100     		.2byte	0x1
 9911 0697 54       		.byte	0x54
 9912 0698 E0020000 		.4byte	.LVL96
 9913 069c ED020000 		.4byte	.LVL97-1
 9914 06a0 0100     		.2byte	0x1
 9915 06a2 50       		.byte	0x50
 9916 06a3 ED020000 		.4byte	.LVL97-1
 9917 06a7 F4020000 		.4byte	.LVL98
 9918 06ab 0100     		.2byte	0x1
 9919 06ad 54       		.byte	0x54
 9920 06ae 00000000 		.4byte	0
 9921 06b2 00000000 		.4byte	0
 9922              	.LLST32:
 9923 06b6 36020000 		.4byte	.LVL77
 9924 06ba F4020000 		.4byte	.LVL98
 9925 06be 0100     		.2byte	0x1
 9926 06c0 58       		.byte	0x58
 9927 06c1 FC050000 		.4byte	.LVL207
 9928 06c5 0A060000 		.4byte	.LVL211
 9929 06c9 0100     		.2byte	0x1
 9930 06cb 58       		.byte	0x58
 9931 06cc 00000000 		.4byte	0
 9932 06d0 00000000 		.4byte	0
 9933              	.LLST33:
 9934 06d4 16020000 		.4byte	.LVL73
ARM GAS  C:\Users\pearlstl\AppData\Local\Temp\cciL9yyu.s 			page 199


 9935 06d8 0C030000 		.4byte	.LVL100
 9936 06dc 0100     		.2byte	0x1
 9937 06de 57       		.byte	0x57
 9938 06df EE050000 		.4byte	.LVL204
 9939 06e3 18060000 		.4byte	.LVL212
 9940 06e7 0100     		.2byte	0x1
 9941 06e9 57       		.byte	0x57
 9942 06ea 9C060000 		.4byte	.LVL226
 9943 06ee AC060000 		.4byte	.LFE44
 9944 06f2 0100     		.2byte	0x1
 9945 06f4 57       		.byte	0x57
 9946 06f5 00000000 		.4byte	0
 9947 06f9 00000000 		.4byte	0
 9948              	.LLST34:
 9949 06fd 28020000 		.4byte	.LVL75
 9950 0701 32020000 		.4byte	.LVL76
 9951 0705 0200     		.2byte	0x2
 9952 0707 30       		.byte	0x30
 9953 0708 9F       		.byte	0x9f
 9954 0709 36020000 		.4byte	.LVL77
 9955 070d F4020000 		.4byte	.LVL98
 9956 0711 0100     		.2byte	0x1
 9957 0713 5A       		.byte	0x5a
 9958 0714 02030000 		.4byte	.LVL99
 9959 0718 0C030000 		.4byte	.LVL100
 9960 071c 0100     		.2byte	0x1
 9961 071e 5A       		.byte	0x5a
 9962 071f F4050000 		.4byte	.LVL205
 9963 0723 F8050000 		.4byte	.LVL206
 9964 0727 0100     		.2byte	0x1
 9965 0729 5A       		.byte	0x5a
 9966 072a FC050000 		.4byte	.LVL207
 9967 072e 0A060000 		.4byte	.LVL211
 9968 0732 0100     		.2byte	0x1
 9969 0734 5A       		.byte	0x5a
 9970 0735 0A060000 		.4byte	.LVL211
 9971 0739 18060000 		.4byte	.LVL212
 9972 073d 0200     		.2byte	0x2
 9973 073f 30       		.byte	0x30
 9974 0740 9F       		.byte	0x9f
 9975 0741 9C060000 		.4byte	.LVL226
 9976 0745 A2060000 		.4byte	.LVL227
 9977 0749 0100     		.2byte	0x1
 9978 074b 5A       		.byte	0x5a
 9979 074c A2060000 		.4byte	.LVL227
 9980 0750 AC060000 		.4byte	.LFE44
 9981 0754 0200     		.2byte	0x2
 9982 0756 30       		.byte	0x30
 9983 0757 9F       		.byte	0x9f
 9984 0758 00000000 		.4byte	0
 9985 075c 00000000 		.4byte	0
 9986              	.LLST35:
 9987 0760 1A020000 		.4byte	.LVL74
 9988 0764 3A020000 		.4byte	.LVL78
 9989 0768 0100     		.2byte	0x1
 9990 076a 50       		.byte	0x50
 9991 076b F4020000 		.4byte	.LVL98
ARM GAS  C:\Users\pearlstl\AppData\Local\Temp\cciL9yyu.s 			page 200


 9992 076f 0C030000 		.4byte	.LVL100
 9993 0773 0100     		.2byte	0x1
 9994 0775 50       		.byte	0x50
 9995 0776 EE050000 		.4byte	.LVL204
 9996 077a 00060000 		.4byte	.LVL208
 9997 077e 0100     		.2byte	0x1
 9998 0780 50       		.byte	0x50
 9999 0781 0A060000 		.4byte	.LVL211
 10000 0785 18060000 		.4byte	.LVL212
 10001 0789 0100     		.2byte	0x1
 10002 078b 50       		.byte	0x50
 10003 078c 9C060000 		.4byte	.LVL226
 10004 0790 AC060000 		.4byte	.LFE44
 10005 0794 0100     		.2byte	0x1
 10006 0796 50       		.byte	0x50
 10007 0797 00000000 		.4byte	0
 10008 079b 00000000 		.4byte	0
 10009              	.LLST36:
 10010 079f 42020000 		.4byte	.LVL80
 10011 07a3 D6020000 		.4byte	.LVL94
 10012 07a7 0100     		.2byte	0x1
 10013 07a9 55       		.byte	0x55
 10014 07aa D6020000 		.4byte	.LVL94
 10015 07ae D8020000 		.4byte	.LVL95
 10016 07b2 0100     		.2byte	0x1
 10017 07b4 5B       		.byte	0x5b
 10018 07b5 D8020000 		.4byte	.LVL95
 10019 07b9 F4020000 		.4byte	.LVL98
 10020 07bd 0100     		.2byte	0x1
 10021 07bf 55       		.byte	0x55
 10022 07c0 08060000 		.4byte	.LVL210
 10023 07c4 0A060000 		.4byte	.LVL211
 10024 07c8 0100     		.2byte	0x1
 10025 07ca 55       		.byte	0x55
 10026 07cb 00000000 		.4byte	0
 10027 07cf 00000000 		.4byte	0
 10028              	.LLST37:
 10029 07d3 FC010000 		.4byte	.LVL68
 10030 07d7 16020000 		.4byte	.LVL73
 10031 07db 0100     		.2byte	0x1
 10032 07dd 59       		.byte	0x59
 10033 07de 00000000 		.4byte	0
 10034 07e2 00000000 		.4byte	0
 10035              	.LLST38:
 10036 07e6 02020000 		.4byte	.LVL69
 10037 07ea 06020000 		.4byte	.LVL70
 10038 07ee 0100     		.2byte	0x1
 10039 07f0 50       		.byte	0x50
 10040 07f1 00000000 		.4byte	0
 10041 07f5 00000000 		.4byte	0
 10042              	.LLST39:
 10043 07f9 7C030000 		.4byte	.LVL118
 10044 07fd F8030000 		.4byte	.LVL137
 10045 0801 0200     		.2byte	0x2
 10046 0803 91       		.byte	0x91
 10047 0804 50       		.sleb128 -48
 10048 0805 A2040000 		.4byte	.LVL158
ARM GAS  C:\Users\pearlstl\AppData\Local\Temp\cciL9yyu.s 			page 201


 10049 0809 D6040000 		.4byte	.LVL167
 10050 080d 0100     		.2byte	0x1
 10051 080f 59       		.byte	0x59
 10052 0810 D6040000 		.4byte	.LVL167
 10053 0814 D2050000 		.4byte	.LVL201
 10054 0818 0200     		.2byte	0x2
 10055 081a 91       		.byte	0x91
 10056 081b 50       		.sleb128 -48
 10057 081c 18060000 		.4byte	.LVL212
 10058 0820 9C060000 		.4byte	.LVL226
 10059 0824 0200     		.2byte	0x2
 10060 0826 91       		.byte	0x91
 10061 0827 50       		.sleb128 -48
 10062 0828 00000000 		.4byte	0
 10063 082c 00000000 		.4byte	0
 10064              	.LLST40:
 10065 0830 B8030000 		.4byte	.LVL128
 10066 0834 BE030000 		.4byte	.LVL129
 10067 0838 0100     		.2byte	0x1
 10068 083a 57       		.byte	0x57
 10069 083b EE030000 		.4byte	.LVL135
 10070 083f F4030000 		.4byte	.LVL136
 10071 0843 0100     		.2byte	0x1
 10072 0845 50       		.byte	0x50
 10073 0846 C2040000 		.4byte	.LVL164
 10074 084a CE040000 		.4byte	.LVL165
 10075 084e 0100     		.2byte	0x1
 10076 0850 50       		.byte	0x50
 10077 0851 CE040000 		.4byte	.LVL165
 10078 0855 E8040000 		.4byte	.LVL169
 10079 0859 0100     		.2byte	0x1
 10080 085b 54       		.byte	0x54
 10081 085c 08050000 		.4byte	.LVL173
 10082 0860 10050000 		.4byte	.LVL174
 10083 0864 0100     		.2byte	0x1
 10084 0866 50       		.byte	0x50
 10085 0867 10050000 		.4byte	.LVL174
 10086 086b 38050000 		.4byte	.LVL180
 10087 086f 0100     		.2byte	0x1
 10088 0871 57       		.byte	0x57
 10089 0872 94050000 		.4byte	.LVL191
 10090 0876 9E050000 		.4byte	.LVL192
 10091 087a 0100     		.2byte	0x1
 10092 087c 50       		.byte	0x50
 10093 087d A8050000 		.4byte	.LVL195
 10094 0881 B8050000 		.4byte	.LVL196
 10095 0885 0100     		.2byte	0x1
 10096 0887 57       		.byte	0x57
 10097 0888 D0050000 		.4byte	.LVL200
 10098 088c D2050000 		.4byte	.LVL201
 10099 0890 0100     		.2byte	0x1
 10100 0892 57       		.byte	0x57
 10101 0893 18060000 		.4byte	.LVL212
 10102 0897 62060000 		.4byte	.LVL222
 10103 089b 0100     		.2byte	0x1
 10104 089d 57       		.byte	0x57
 10105 089e 62060000 		.4byte	.LVL222
ARM GAS  C:\Users\pearlstl\AppData\Local\Temp\cciL9yyu.s 			page 202


 10106 08a2 6D060000 		.4byte	.LVL223-1
 10107 08a6 0100     		.2byte	0x1
 10108 08a8 50       		.byte	0x50
 10109 08a9 00000000 		.4byte	0
 10110 08ad 00000000 		.4byte	0
 10111              	.LLST41:
 10112 08b1 7C030000 		.4byte	.LVL118
 10113 08b5 8C030000 		.4byte	.LVL120
 10114 08b9 0100     		.2byte	0x1
 10115 08bb 54       		.byte	0x54
 10116 08bc 8C030000 		.4byte	.LVL120
 10117 08c0 8F030000 		.4byte	.LVL121-1
 10118 08c4 0100     		.2byte	0x1
 10119 08c6 50       		.byte	0x50
 10120 08c7 8F030000 		.4byte	.LVL121-1
 10121 08cb EE030000 		.4byte	.LVL135
 10122 08cf 0100     		.2byte	0x1
 10123 08d1 54       		.byte	0x54
 10124 08d2 EE030000 		.4byte	.LVL135
 10125 08d6 F4030000 		.4byte	.LVL136
 10126 08da 0100     		.2byte	0x1
 10127 08dc 50       		.byte	0x50
 10128 08dd F4030000 		.4byte	.LVL136
 10129 08e1 F8030000 		.4byte	.LVL137
 10130 08e5 0100     		.2byte	0x1
 10131 08e7 54       		.byte	0x54
 10132 08e8 D2040000 		.4byte	.LVL166
 10133 08ec 08050000 		.4byte	.LVL173
 10134 08f0 0100     		.2byte	0x1
 10135 08f2 54       		.byte	0x54
 10136 08f3 08050000 		.4byte	.LVL173
 10137 08f7 10050000 		.4byte	.LVL174
 10138 08fb 0100     		.2byte	0x1
 10139 08fd 50       		.byte	0x50
 10140 08fe 10050000 		.4byte	.LVL174
 10141 0902 94050000 		.4byte	.LVL191
 10142 0906 0100     		.2byte	0x1
 10143 0908 54       		.byte	0x54
 10144 0909 94050000 		.4byte	.LVL191
 10145 090d 9E050000 		.4byte	.LVL192
 10146 0911 0100     		.2byte	0x1
 10147 0913 50       		.byte	0x50
 10148 0914 9E050000 		.4byte	.LVL192
 10149 0918 C0050000 		.4byte	.LVL197
 10150 091c 0100     		.2byte	0x1
 10151 091e 54       		.byte	0x54
 10152 091f C0050000 		.4byte	.LVL197
 10153 0923 CA050000 		.4byte	.LVL198
 10154 0927 0100     		.2byte	0x1
 10155 0929 50       		.byte	0x50
 10156 092a CA050000 		.4byte	.LVL198
 10157 092e D0050000 		.4byte	.LVL200
 10158 0932 0100     		.2byte	0x1
 10159 0934 54       		.byte	0x54
 10160 0935 D0050000 		.4byte	.LVL200
 10161 0939 D2050000 		.4byte	.LVL201
 10162 093d 0100     		.2byte	0x1
ARM GAS  C:\Users\pearlstl\AppData\Local\Temp\cciL9yyu.s 			page 203


 10163 093f 50       		.byte	0x50
 10164 0940 18060000 		.4byte	.LVL212
 10165 0944 9C060000 		.4byte	.LVL226
 10166 0948 0100     		.2byte	0x1
 10167 094a 54       		.byte	0x54
 10168 094b 00000000 		.4byte	0
 10169 094f 00000000 		.4byte	0
 10170              	.LLST42:
 10171 0953 36050000 		.4byte	.LVL179
 10172 0957 42050000 		.4byte	.LVL181
 10173 095b 0100     		.2byte	0x1
 10174 095d 57       		.byte	0x57
 10175 095e 42050000 		.4byte	.LVL181
 10176 0962 45050000 		.4byte	.LVL182-1
 10177 0966 0100     		.2byte	0x1
 10178 0968 51       		.byte	0x51
 10179 0969 45050000 		.4byte	.LVL182-1
 10180 096d 46050000 		.4byte	.LVL182
 10181 0971 0100     		.2byte	0x1
 10182 0973 57       		.byte	0x57
 10183 0974 46050000 		.4byte	.LVL182
 10184 0978 4C050000 		.4byte	.LVL183
 10185 097c 0100     		.2byte	0x1
 10186 097e 50       		.byte	0x50
 10187 097f 4C050000 		.4byte	.LVL183
 10188 0983 94050000 		.4byte	.LVL191
 10189 0987 0100     		.2byte	0x1
 10190 0989 57       		.byte	0x57
 10191 098a 00000000 		.4byte	0
 10192 098e 00000000 		.4byte	0
 10193              	.LLST43:
 10194 0992 7C030000 		.4byte	.LVL118
 10195 0996 F8030000 		.4byte	.LVL137
 10196 099a 0100     		.2byte	0x1
 10197 099c 5B       		.byte	0x5b
 10198 099d AA040000 		.4byte	.LVL160
 10199 09a1 AC040000 		.4byte	.LVL161
 10200 09a5 0100     		.2byte	0x1
 10201 09a7 50       		.byte	0x50
 10202 09a8 AC040000 		.4byte	.LVL161
 10203 09ac D2050000 		.4byte	.LVL201
 10204 09b0 0100     		.2byte	0x1
 10205 09b2 5B       		.byte	0x5b
 10206 09b3 18060000 		.4byte	.LVL212
 10207 09b7 9C060000 		.4byte	.LVL226
 10208 09bb 0100     		.2byte	0x1
 10209 09bd 5B       		.byte	0x5b
 10210 09be 00000000 		.4byte	0
 10211 09c2 00000000 		.4byte	0
 10212              	.LLST44:
 10213 09c6 7C030000 		.4byte	.LVL118
 10214 09ca F8030000 		.4byte	.LVL137
 10215 09ce 0100     		.2byte	0x1
 10216 09d0 5A       		.byte	0x5a
 10217 09d1 BC040000 		.4byte	.LVL163
 10218 09d5 D2050000 		.4byte	.LVL201
 10219 09d9 0100     		.2byte	0x1
ARM GAS  C:\Users\pearlstl\AppData\Local\Temp\cciL9yyu.s 			page 204


 10220 09db 5A       		.byte	0x5a
 10221 09dc 18060000 		.4byte	.LVL212
 10222 09e0 9C060000 		.4byte	.LVL226
 10223 09e4 0100     		.2byte	0x1
 10224 09e6 5A       		.byte	0x5a
 10225 09e7 00000000 		.4byte	0
 10226 09eb 00000000 		.4byte	0
 10227              	.LLST45:
 10228 09ef 7C030000 		.4byte	.LVL118
 10229 09f3 F8030000 		.4byte	.LVL137
 10230 09f7 0200     		.2byte	0x2
 10231 09f9 91       		.byte	0x91
 10232 09fa 4C       		.sleb128 -52
 10233 09fb BC040000 		.4byte	.LVL163
 10234 09ff D2050000 		.4byte	.LVL201
 10235 0a03 0200     		.2byte	0x2
 10236 0a05 91       		.byte	0x91
 10237 0a06 4C       		.sleb128 -52
 10238 0a07 18060000 		.4byte	.LVL212
 10239 0a0b 9C060000 		.4byte	.LVL226
 10240 0a0f 0200     		.2byte	0x2
 10241 0a11 91       		.byte	0x91
 10242 0a12 4C       		.sleb128 -52
 10243 0a13 00000000 		.4byte	0
 10244 0a17 00000000 		.4byte	0
 10245              	.LLST46:
 10246 0a1b 7C030000 		.4byte	.LVL118
 10247 0a1f BE030000 		.4byte	.LVL129
 10248 0a23 0100     		.2byte	0x1
 10249 0a25 59       		.byte	0x59
 10250 0a26 D6030000 		.4byte	.LVL132
 10251 0a2a E0030000 		.4byte	.LVL133
 10252 0a2e 0100     		.2byte	0x1
 10253 0a30 59       		.byte	0x59
 10254 0a31 D6040000 		.4byte	.LVL167
 10255 0a35 E8040000 		.4byte	.LVL169
 10256 0a39 0200     		.2byte	0x2
 10257 0a3b 30       		.byte	0x30
 10258 0a3c 9F       		.byte	0x9f
 10259 0a3d E8040000 		.4byte	.LVL169
 10260 0a41 A6050000 		.4byte	.LVL194
 10261 0a45 0100     		.2byte	0x1
 10262 0a47 59       		.byte	0x59
 10263 0a48 A8050000 		.4byte	.LVL195
 10264 0a4c D2050000 		.4byte	.LVL201
 10265 0a50 0100     		.2byte	0x1
 10266 0a52 59       		.byte	0x59
 10267 0a53 18060000 		.4byte	.LVL212
 10268 0a57 9C060000 		.4byte	.LVL226
 10269 0a5b 0100     		.2byte	0x1
 10270 0a5d 59       		.byte	0x59
 10271 0a5e 00000000 		.4byte	0
 10272 0a62 00000000 		.4byte	0
 10273              	.LLST47:
 10274 0a66 7C030000 		.4byte	.LVL118
 10275 0a6a 98030000 		.4byte	.LVL122
 10276 0a6e 0100     		.2byte	0x1
ARM GAS  C:\Users\pearlstl\AppData\Local\Temp\cciL9yyu.s 			page 205


 10277 0a70 55       		.byte	0x55
 10278 0a71 A2030000 		.4byte	.LVL124
 10279 0a75 BE030000 		.4byte	.LVL129
 10280 0a79 0100     		.2byte	0x1
 10281 0a7b 55       		.byte	0x55
 10282 0a7c E4040000 		.4byte	.LVL168
 10283 0a80 26050000 		.4byte	.LVL175
 10284 0a84 0100     		.2byte	0x1
 10285 0a86 55       		.byte	0x55
 10286 0a87 26050000 		.4byte	.LVL175
 10287 0a8b 2E050000 		.4byte	.LVL176
 10288 0a8f 0100     		.2byte	0x1
 10289 0a91 53       		.byte	0x53
 10290 0a92 94050000 		.4byte	.LVL191
 10291 0a96 B8050000 		.4byte	.LVL196
 10292 0a9a 0100     		.2byte	0x1
 10293 0a9c 55       		.byte	0x55
 10294 0a9d C0050000 		.4byte	.LVL197
 10295 0aa1 D2050000 		.4byte	.LVL201
 10296 0aa5 0100     		.2byte	0x1
 10297 0aa7 55       		.byte	0x55
 10298 0aa8 18060000 		.4byte	.LVL212
 10299 0aac 22060000 		.4byte	.LVL214
 10300 0ab0 0100     		.2byte	0x1
 10301 0ab2 55       		.byte	0x55
 10302 0ab3 30060000 		.4byte	.LVL218
 10303 0ab7 32060000 		.4byte	.LVL219
 10304 0abb 0600     		.2byte	0x6
 10305 0abd 70       		.byte	0x70
 10306 0abe 00       		.sleb128 0
 10307 0abf 76       		.byte	0x76
 10308 0ac0 00       		.sleb128 0
 10309 0ac1 22       		.byte	0x22
 10310 0ac2 9F       		.byte	0x9f
 10311 0ac3 00000000 		.4byte	0
 10312 0ac7 00000000 		.4byte	0
 10313              	.LLST48:
 10314 0acb 7C030000 		.4byte	.LVL118
 10315 0acf A6030000 		.4byte	.LVL125
 10316 0ad3 0100     		.2byte	0x1
 10317 0ad5 56       		.byte	0x56
 10318 0ad6 A6030000 		.4byte	.LVL125
 10319 0ada AA030000 		.4byte	.LVL126
 10320 0ade 0300     		.2byte	0x3
 10321 0ae0 76       		.byte	0x76
 10322 0ae1 7F       		.sleb128 -1
 10323 0ae2 9F       		.byte	0x9f
 10324 0ae3 AA030000 		.4byte	.LVL126
 10325 0ae7 BE030000 		.4byte	.LVL129
 10326 0aeb 0100     		.2byte	0x1
 10327 0aed 56       		.byte	0x56
 10328 0aee E4040000 		.4byte	.LVL168
 10329 0af2 E8040000 		.4byte	.LVL169
 10330 0af6 0200     		.2byte	0x2
 10331 0af8 30       		.byte	0x30
 10332 0af9 9F       		.byte	0x9f
 10333 0afa E8040000 		.4byte	.LVL169
ARM GAS  C:\Users\pearlstl\AppData\Local\Temp\cciL9yyu.s 			page 206


 10334 0afe 06050000 		.4byte	.LVL172
 10335 0b02 0100     		.2byte	0x1
 10336 0b04 56       		.byte	0x56
 10337 0b05 06050000 		.4byte	.LVL172
 10338 0b09 10050000 		.4byte	.LVL174
 10339 0b0d 0200     		.2byte	0x2
 10340 0b0f 30       		.byte	0x30
 10341 0b10 9F       		.byte	0x9f
 10342 0b11 10050000 		.4byte	.LVL174
 10343 0b15 30050000 		.4byte	.LVL177
 10344 0b19 0100     		.2byte	0x1
 10345 0b1b 56       		.byte	0x56
 10346 0b1c 30050000 		.4byte	.LVL177
 10347 0b20 34050000 		.4byte	.LVL178
 10348 0b24 0300     		.2byte	0x3
 10349 0b26 75       		.byte	0x75
 10350 0b27 01       		.sleb128 1
 10351 0b28 9F       		.byte	0x9f
 10352 0b29 94050000 		.4byte	.LVL191
 10353 0b2d 9E050000 		.4byte	.LVL192
 10354 0b31 0200     		.2byte	0x2
 10355 0b33 30       		.byte	0x30
 10356 0b34 9F       		.byte	0x9f
 10357 0b35 9E050000 		.4byte	.LVL192
 10358 0b39 A8050000 		.4byte	.LVL195
 10359 0b3d 0300     		.2byte	0x3
 10360 0b3f 76       		.byte	0x76
 10361 0b40 7F       		.sleb128 -1
 10362 0b41 9F       		.byte	0x9f
 10363 0b42 A8050000 		.4byte	.LVL195
 10364 0b46 B8050000 		.4byte	.LVL196
 10365 0b4a 0100     		.2byte	0x1
 10366 0b4c 56       		.byte	0x56
 10367 0b4d C0050000 		.4byte	.LVL197
 10368 0b51 D2050000 		.4byte	.LVL201
 10369 0b55 0100     		.2byte	0x1
 10370 0b57 56       		.byte	0x56
 10371 0b58 18060000 		.4byte	.LVL212
 10372 0b5c 2A060000 		.4byte	.LVL217
 10373 0b60 0100     		.2byte	0x1
 10374 0b62 56       		.byte	0x56
 10375 0b63 00000000 		.4byte	0
 10376 0b67 00000000 		.4byte	0
 10377              	.LLST49:
 10378 0b6b 18060000 		.4byte	.LVL212
 10379 0b6f 62060000 		.4byte	.LVL222
 10380 0b73 0100     		.2byte	0x1
 10381 0b75 57       		.byte	0x57
 10382 0b76 62060000 		.4byte	.LVL222
 10383 0b7a 6D060000 		.4byte	.LVL223-1
 10384 0b7e 0100     		.2byte	0x1
 10385 0b80 50       		.byte	0x50
 10386 0b81 00000000 		.4byte	0
 10387 0b85 00000000 		.4byte	0
 10388              	.LLST50:
 10389 0b89 22060000 		.4byte	.LVL214
 10390 0b8d 24060000 		.4byte	.LVL215
ARM GAS  C:\Users\pearlstl\AppData\Local\Temp\cciL9yyu.s 			page 207


 10391 0b91 0100     		.2byte	0x1
 10392 0b93 50       		.byte	0x50
 10393 0b94 24060000 		.4byte	.LVL215
 10394 0b98 9C060000 		.4byte	.LVL226
 10395 0b9c 0100     		.2byte	0x1
 10396 0b9e 55       		.byte	0x55
 10397 0b9f 00000000 		.4byte	0
 10398 0ba3 00000000 		.4byte	0
 10399              	.LLST51:
 10400 0ba7 30060000 		.4byte	.LVL218
 10401 0bab 46060000 		.4byte	.LVL220
 10402 0baf 0200     		.2byte	0x2
 10403 0bb1 91       		.byte	0x91
 10404 0bb2 54       		.sleb128 -44
 10405 0bb3 00000000 		.4byte	0
 10406 0bb7 00000000 		.4byte	0
 10407              	.LLST52:
 10408 0bbb 36050000 		.4byte	.LVL179
 10409 0bbf 94050000 		.4byte	.LVL191
 10410 0bc3 0100     		.2byte	0x1
 10411 0bc5 55       		.byte	0x55
 10412 0bc6 00000000 		.4byte	0
 10413 0bca 00000000 		.4byte	0
 10414              	.LLST53:
 10415 0bce 36050000 		.4byte	.LVL179
 10416 0bd2 38050000 		.4byte	.LVL180
 10417 0bd6 0100     		.2byte	0x1
 10418 0bd8 52       		.byte	0x52
 10419 0bd9 38050000 		.4byte	.LVL180
 10420 0bdd 90050000 		.4byte	.LVL189
 10421 0be1 0100     		.2byte	0x1
 10422 0be3 56       		.byte	0x56
 10423 0be4 92050000 		.4byte	.LVL190
 10424 0be8 94050000 		.4byte	.LVL191
 10425 0bec 0100     		.2byte	0x1
 10426 0bee 56       		.byte	0x56
 10427 0bef 00000000 		.4byte	0
 10428 0bf3 00000000 		.4byte	0
 10429              	.LLST54:
 10430 0bf7 00000000 		.4byte	.LVL228
 10431 0bfb 0B000000 		.4byte	.LVL229-1
 10432 0bff 0100     		.2byte	0x1
 10433 0c01 50       		.byte	0x50
 10434 0c02 0B000000 		.4byte	.LVL229-1
 10435 0c06 70030000 		.4byte	.LFE50
 10436 0c0a 0100     		.2byte	0x1
 10437 0c0c 56       		.byte	0x56
 10438 0c0d 00000000 		.4byte	0
 10439 0c11 00000000 		.4byte	0
 10440              	.LLST55:
 10441 0c15 14000000 		.4byte	.LVL230
 10442 0c19 1C000000 		.4byte	.LVL231
 10443 0c1d 0100     		.2byte	0x1
 10444 0c1f 50       		.byte	0x50
 10445 0c20 1C000000 		.4byte	.LVL231
 10446 0c24 22000000 		.4byte	.LVL232
 10447 0c28 0100     		.2byte	0x1
ARM GAS  C:\Users\pearlstl\AppData\Local\Temp\cciL9yyu.s 			page 208


 10448 0c2a 58       		.byte	0x58
 10449 0c2b 22000000 		.4byte	.LVL232
 10450 0c2f 24000000 		.4byte	.LVL233
 10451 0c33 0100     		.2byte	0x1
 10452 0c35 50       		.byte	0x50
 10453 0c36 24000000 		.4byte	.LVL233
 10454 0c3a 70030000 		.4byte	.LFE50
 10455 0c3e 0100     		.2byte	0x1
 10456 0c40 58       		.byte	0x58
 10457 0c41 00000000 		.4byte	0
 10458 0c45 00000000 		.4byte	0
 10459              	.LLST56:
 10460 0c49 2A000000 		.4byte	.LVL235
 10461 0c4d 2C000000 		.4byte	.LVL236
 10462 0c51 0100     		.2byte	0x1
 10463 0c53 50       		.byte	0x50
 10464 0c54 2C000000 		.4byte	.LVL236
 10465 0c58 70030000 		.4byte	.LFE50
 10466 0c5c 0300     		.2byte	0x3
 10467 0c5e 91       		.byte	0x91
 10468 0c5f B47F     		.sleb128 -76
 10469 0c61 00000000 		.4byte	0
 10470 0c65 00000000 		.4byte	0
 10471              	.LLST57:
 10472 0c69 B8000000 		.4byte	.LVL250
 10473 0c6d C1000000 		.4byte	.LVL251-1
 10474 0c71 0100     		.2byte	0x1
 10475 0c73 50       		.byte	0x50
 10476 0c74 C1000000 		.4byte	.LVL251-1
 10477 0c78 C6000000 		.4byte	.LVL252
 10478 0c7c 0100     		.2byte	0x1
 10479 0c7e 54       		.byte	0x54
 10480 0c7f C6000000 		.4byte	.LVL252
 10481 0c83 13010000 		.4byte	.LVL253-1
 10482 0c87 0100     		.2byte	0x1
 10483 0c89 51       		.byte	0x51
 10484 0c8a 14010000 		.4byte	.LVL253
 10485 0c8e 20010000 		.4byte	.LVL254
 10486 0c92 0100     		.2byte	0x1
 10487 0c94 50       		.byte	0x50
 10488 0c95 12020000 		.4byte	.LVL265
 10489 0c99 23020000 		.4byte	.LVL266-1
 10490 0c9d 0100     		.2byte	0x1
 10491 0c9f 50       		.byte	0x50
 10492 0ca0 23020000 		.4byte	.LVL266-1
 10493 0ca4 2C020000 		.4byte	.LVL267
 10494 0ca8 0100     		.2byte	0x1
 10495 0caa 54       		.byte	0x54
 10496 0cab 2C020000 		.4byte	.LVL267
 10497 0caf 38020000 		.4byte	.LVL268
 10498 0cb3 0100     		.2byte	0x1
 10499 0cb5 50       		.byte	0x50
 10500 0cb6 00000000 		.4byte	0
 10501 0cba 00000000 		.4byte	0
 10502              	.LLST58:
 10503 0cbe 32000000 		.4byte	.LVL238
 10504 0cc2 35000000 		.4byte	.LVL239-1
ARM GAS  C:\Users\pearlstl\AppData\Local\Temp\cciL9yyu.s 			page 209


 10505 0cc6 0100     		.2byte	0x1
 10506 0cc8 50       		.byte	0x50
 10507 0cc9 35000000 		.4byte	.LVL239-1
 10508 0ccd 70030000 		.4byte	.LFE50
 10509 0cd1 0100     		.2byte	0x1
 10510 0cd3 5A       		.byte	0x5a
 10511 0cd4 00000000 		.4byte	0
 10512 0cd8 00000000 		.4byte	0
 10513              	.LLST59:
 10514 0cdc 3A000000 		.4byte	.LVL240
 10515 0ce0 3E000000 		.4byte	.LVL241
 10516 0ce4 0100     		.2byte	0x1
 10517 0ce6 50       		.byte	0x50
 10518 0ce7 3E000000 		.4byte	.LVL241
 10519 0ceb 5A000000 		.4byte	.LVL245
 10520 0cef 0100     		.2byte	0x1
 10521 0cf1 52       		.byte	0x52
 10522 0cf2 00000000 		.4byte	0
 10523 0cf6 00000000 		.4byte	0
 10524              	.LLST60:
 10525 0cfa AA000000 		.4byte	.LVL249
 10526 0cfe 78010000 		.4byte	.LVL258
 10527 0d02 0200     		.2byte	0x2
 10528 0d04 31       		.byte	0x31
 10529 0d05 9F       		.byte	0x9f
 10530 0d06 08030000 		.4byte	.LVL272
 10531 0d0a 24030000 		.4byte	.LVL273
 10532 0d0e 0200     		.2byte	0x2
 10533 0d10 31       		.byte	0x31
 10534 0d11 9F       		.byte	0x9f
 10535 0d12 42030000 		.4byte	.LVL274
 10536 0d16 5A030000 		.4byte	.LVL275
 10537 0d1a 0200     		.2byte	0x2
 10538 0d1c 31       		.byte	0x31
 10539 0d1d 9F       		.byte	0x9f
 10540 0d1e 5E030000 		.4byte	.LVL276
 10541 0d22 70030000 		.4byte	.LFE50
 10542 0d26 0200     		.2byte	0x2
 10543 0d28 31       		.byte	0x31
 10544 0d29 9F       		.byte	0x9f
 10545 0d2a 00000000 		.4byte	0
 10546 0d2e 00000000 		.4byte	0
 10547              	.LLST61:
 10548 0d32 3A000000 		.4byte	.LVL240
 10549 0d36 3E000000 		.4byte	.LVL241
 10550 0d3a 0300     		.2byte	0x3
 10551 0d3c 7A       		.byte	0x7a
 10552 0d3d 10       		.sleb128 16
 10553 0d3e 9F       		.byte	0x9f
 10554 0d3f 3E000000 		.4byte	.LVL241
 10555 0d43 44000000 		.4byte	.LVL242
 10556 0d47 0100     		.2byte	0x1
 10557 0d49 51       		.byte	0x51
 10558 0d4a 44000000 		.4byte	.LVL242
 10559 0d4e 4E000000 		.4byte	.LVL244
 10560 0d52 0300     		.2byte	0x3
 10561 0d54 7A       		.byte	0x7a
ARM GAS  C:\Users\pearlstl\AppData\Local\Temp\cciL9yyu.s 			page 210


 10562 0d55 10       		.sleb128 16
 10563 0d56 9F       		.byte	0x9f
 10564 0d57 00000000 		.4byte	0
 10565 0d5b 00000000 		.4byte	0
 10566              	.LLST62:
 10567 0d5f 3A000000 		.4byte	.LVL240
 10568 0d63 4C000000 		.4byte	.LVL243
 10569 0d67 0300     		.2byte	0x3
 10570 0d69 91       		.byte	0x91
 10571 0d6a 48       		.sleb128 -56
 10572 0d6b 9F       		.byte	0x9f
 10573 0d6c 4C000000 		.4byte	.LVL243
 10574 0d70 4E000000 		.4byte	.LVL244
 10575 0d74 0100     		.2byte	0x1
 10576 0d76 53       		.byte	0x53
 10577 0d77 00000000 		.4byte	0
 10578 0d7b 00000000 		.4byte	0
 10579              	.LLST63:
 10580 0d7f 52010000 		.4byte	.LVL255
 10581 0d83 6A010000 		.4byte	.LVL257
 10582 0d87 0100     		.2byte	0x1
 10583 0d89 59       		.byte	0x59
 10584 0d8a 38020000 		.4byte	.LVL268
 10585 0d8e 4C020000 		.4byte	.LVL270
 10586 0d92 0100     		.2byte	0x1
 10587 0d94 59       		.byte	0x59
 10588 0d95 00000000 		.4byte	0
 10589 0d99 00000000 		.4byte	0
 10590              	.LLST64:
 10591 0d9d 52010000 		.4byte	.LVL255
 10592 0da1 62010000 		.4byte	.LVL256
 10593 0da5 0300     		.2byte	0x3
 10594 0da7 91       		.byte	0x91
 10595 0da8 50       		.sleb128 -48
 10596 0da9 9F       		.byte	0x9f
 10597 0daa 62010000 		.4byte	.LVL256
 10598 0dae 6A010000 		.4byte	.LVL257
 10599 0db2 0100     		.2byte	0x1
 10600 0db4 54       		.byte	0x54
 10601 0db5 38020000 		.4byte	.LVL268
 10602 0db9 46020000 		.4byte	.LVL269
 10603 0dbd 0300     		.2byte	0x3
 10604 0dbf 91       		.byte	0x91
 10605 0dc0 50       		.sleb128 -48
 10606 0dc1 9F       		.byte	0x9f
 10607 0dc2 46020000 		.4byte	.LVL269
 10608 0dc6 4C020000 		.4byte	.LVL270
 10609 0dca 0100     		.2byte	0x1
 10610 0dcc 54       		.byte	0x54
 10611 0dcd 00000000 		.4byte	0
 10612 0dd1 00000000 		.4byte	0
 10613              	.LLST65:
 10614 0dd5 DE010000 		.4byte	.LVL259
 10615 0dd9 E6010000 		.4byte	.LVL260
 10616 0ddd 0100     		.2byte	0x1
 10617 0ddf 54       		.byte	0x54
 10618 0de0 00000000 		.4byte	0
ARM GAS  C:\Users\pearlstl\AppData\Local\Temp\cciL9yyu.s 			page 211


 10619 0de4 00000000 		.4byte	0
 10620              	.LLST66:
 10621 0de8 DE010000 		.4byte	.LVL259
 10622 0dec E6010000 		.4byte	.LVL260
 10623 0df0 0300     		.2byte	0x3
 10624 0df2 76       		.byte	0x76
 10625 0df3 10       		.sleb128 16
 10626 0df4 9F       		.byte	0x9f
 10627 0df5 00000000 		.4byte	0
 10628 0df9 00000000 		.4byte	0
 10629              	.LLST67:
 10630 0dfd 00000000 		.4byte	.LVL277
 10631 0e01 0D000000 		.4byte	.LVL278-1
 10632 0e05 0100     		.2byte	0x1
 10633 0e07 50       		.byte	0x50
 10634 0e08 0D000000 		.4byte	.LVL278-1
 10635 0e0c 6C000000 		.4byte	.LVL290
 10636 0e10 0100     		.2byte	0x1
 10637 0e12 56       		.byte	0x56
 10638 0e13 6C000000 		.4byte	.LVL290
 10639 0e17 78000000 		.4byte	.LFE43
 10640 0e1b 0400     		.2byte	0x4
 10641 0e1d F3       		.byte	0xf3
 10642 0e1e 01       		.uleb128 0x1
 10643 0e1f 50       		.byte	0x50
 10644 0e20 9F       		.byte	0x9f
 10645 0e21 00000000 		.4byte	0
 10646 0e25 00000000 		.4byte	0
 10647              	.LLST68:
 10648 0e29 00000000 		.4byte	.LVL277
 10649 0e2d 0D000000 		.4byte	.LVL278-1
 10650 0e31 0100     		.2byte	0x1
 10651 0e33 51       		.byte	0x51
 10652 0e34 0D000000 		.4byte	.LVL278-1
 10653 0e38 78000000 		.4byte	.LFE43
 10654 0e3c 0400     		.2byte	0x4
 10655 0e3e F3       		.byte	0xf3
 10656 0e3f 01       		.uleb128 0x1
 10657 0e40 51       		.byte	0x51
 10658 0e41 9F       		.byte	0x9f
 10659 0e42 00000000 		.4byte	0
 10660 0e46 00000000 		.4byte	0
 10661              	.LLST69:
 10662 0e4a 00000000 		.4byte	.LVL277
 10663 0e4e 0D000000 		.4byte	.LVL278-1
 10664 0e52 0100     		.2byte	0x1
 10665 0e54 52       		.byte	0x52
 10666 0e55 0D000000 		.4byte	.LVL278-1
 10667 0e59 6C000000 		.4byte	.LVL290
 10668 0e5d 0100     		.2byte	0x1
 10669 0e5f 57       		.byte	0x57
 10670 0e60 6C000000 		.4byte	.LVL290
 10671 0e64 6F000000 		.4byte	.LVL291-1
 10672 0e68 0100     		.2byte	0x1
 10673 0e6a 50       		.byte	0x50
 10674 0e6b 6F000000 		.4byte	.LVL291-1
 10675 0e6f 78000000 		.4byte	.LFE43
ARM GAS  C:\Users\pearlstl\AppData\Local\Temp\cciL9yyu.s 			page 212


 10676 0e73 0400     		.2byte	0x4
 10677 0e75 F3       		.byte	0xf3
 10678 0e76 01       		.uleb128 0x1
 10679 0e77 52       		.byte	0x52
 10680 0e78 9F       		.byte	0x9f
 10681 0e79 00000000 		.4byte	0
 10682 0e7d 00000000 		.4byte	0
 10683              	.LLST70:
 10684 0e81 0E000000 		.4byte	.LVL278
 10685 0e85 28000000 		.4byte	.LVL280
 10686 0e89 0100     		.2byte	0x1
 10687 0e8b 50       		.byte	0x50
 10688 0e8c 2C000000 		.4byte	.LVL281
 10689 0e90 2E000000 		.4byte	.LVL282
 10690 0e94 0100     		.2byte	0x1
 10691 0e96 50       		.byte	0x50
 10692 0e97 64000000 		.4byte	.LVL288
 10693 0e9b 66000000 		.4byte	.LVL289
 10694 0e9f 0100     		.2byte	0x1
 10695 0ea1 50       		.byte	0x50
 10696 0ea2 00000000 		.4byte	0
 10697 0ea6 00000000 		.4byte	0
 10698              	.LLST71:
 10699 0eaa 00000000 		.4byte	.LVL292
 10700 0eae 09000000 		.4byte	.LVL293-1
 10701 0eb2 0100     		.2byte	0x1
 10702 0eb4 50       		.byte	0x50
 10703 0eb5 09000000 		.4byte	.LVL293-1
 10704 0eb9 CA000000 		.4byte	.LVL314
 10705 0ebd 0100     		.2byte	0x1
 10706 0ebf 57       		.byte	0x57
 10707 0ec0 CA000000 		.4byte	.LVL314
 10708 0ec4 D8000000 		.4byte	.LFE35
 10709 0ec8 0400     		.2byte	0x4
 10710 0eca F3       		.byte	0xf3
 10711 0ecb 01       		.uleb128 0x1
 10712 0ecc 50       		.byte	0x50
 10713 0ecd 9F       		.byte	0x9f
 10714 0ece 00000000 		.4byte	0
 10715 0ed2 00000000 		.4byte	0
 10716              	.LLST72:
 10717 0ed6 00000000 		.4byte	.LVL292
 10718 0eda 09000000 		.4byte	.LVL293-1
 10719 0ede 0100     		.2byte	0x1
 10720 0ee0 51       		.byte	0x51
 10721 0ee1 09000000 		.4byte	.LVL293-1
 10722 0ee5 CA000000 		.4byte	.LVL314
 10723 0ee9 0100     		.2byte	0x1
 10724 0eeb 56       		.byte	0x56
 10725 0eec CA000000 		.4byte	.LVL314
 10726 0ef0 D8000000 		.4byte	.LFE35
 10727 0ef4 0400     		.2byte	0x4
 10728 0ef6 F3       		.byte	0xf3
 10729 0ef7 01       		.uleb128 0x1
 10730 0ef8 51       		.byte	0x51
 10731 0ef9 9F       		.byte	0x9f
 10732 0efa 00000000 		.4byte	0
ARM GAS  C:\Users\pearlstl\AppData\Local\Temp\cciL9yyu.s 			page 213


 10733 0efe 00000000 		.4byte	0
 10734              	.LLST73:
 10735 0f02 0A000000 		.4byte	.LVL293
 10736 0f06 18000000 		.4byte	.LVL294
 10737 0f0a 0100     		.2byte	0x1
 10738 0f0c 50       		.byte	0x50
 10739 0f0d 18000000 		.4byte	.LVL294
 10740 0f11 AE000000 		.4byte	.LVL307
 10741 0f15 0100     		.2byte	0x1
 10742 0f17 55       		.byte	0x55
 10743 0f18 AE000000 		.4byte	.LVL307
 10744 0f1c B1000000 		.4byte	.LVL308-1
 10745 0f20 0100     		.2byte	0x1
 10746 0f22 50       		.byte	0x50
 10747 0f23 B1000000 		.4byte	.LVL308-1
 10748 0f27 B6000000 		.4byte	.LVL309
 10749 0f2b 0100     		.2byte	0x1
 10750 0f2d 55       		.byte	0x55
 10751 0f2e BA000000 		.4byte	.LVL310
 10752 0f32 CA000000 		.4byte	.LVL314
 10753 0f36 0100     		.2byte	0x1
 10754 0f38 55       		.byte	0x55
 10755 0f39 CA000000 		.4byte	.LVL314
 10756 0f3d D8000000 		.4byte	.LFE35
 10757 0f41 0100     		.2byte	0x1
 10758 0f43 50       		.byte	0x50
 10759 0f44 00000000 		.4byte	0
 10760 0f48 00000000 		.4byte	0
 10761              	.LLST74:
 10762 0f4c 26000000 		.4byte	.LVL296
 10763 0f50 48000000 		.4byte	.LVL297
 10764 0f54 0100     		.2byte	0x1
 10765 0f56 50       		.byte	0x50
 10766 0f57 48000000 		.4byte	.LVL297
 10767 0f5b AE000000 		.4byte	.LVL307
 10768 0f5f 0100     		.2byte	0x1
 10769 0f61 54       		.byte	0x54
 10770 0f62 BA000000 		.4byte	.LVL310
 10771 0f66 CA000000 		.4byte	.LVL314
 10772 0f6a 0100     		.2byte	0x1
 10773 0f6c 54       		.byte	0x54
 10774 0f6d 00000000 		.4byte	0
 10775 0f71 00000000 		.4byte	0
 10776              	.LLST75:
 10777 0f75 54000000 		.4byte	.LVL299
 10778 0f79 90000000 		.4byte	.LVL300
 10779 0f7d 0100     		.2byte	0x1
 10780 0f7f 50       		.byte	0x50
 10781 0f80 00000000 		.4byte	0
 10782 0f84 00000000 		.4byte	0
 10783              	.LLST76:
 10784 0f88 A0000000 		.4byte	.LVL303
 10785 0f8c A6000000 		.4byte	.LVL305
 10786 0f90 0100     		.2byte	0x1
 10787 0f92 50       		.byte	0x50
 10788 0f93 BE000000 		.4byte	.LVL311
 10789 0f97 C0000000 		.4byte	.LVL312
ARM GAS  C:\Users\pearlstl\AppData\Local\Temp\cciL9yyu.s 			page 214


 10790 0f9b 0100     		.2byte	0x1
 10791 0f9d 50       		.byte	0x50
 10792 0f9e 00000000 		.4byte	0
 10793 0fa2 00000000 		.4byte	0
 10794              	.LLST77:
 10795 0fa6 A2000000 		.4byte	.LVL304
 10796 0faa AE000000 		.4byte	.LVL307
 10797 0fae 0200     		.2byte	0x2
 10798 0fb0 30       		.byte	0x30
 10799 0fb1 9F       		.byte	0x9f
 10800 0fb2 00000000 		.4byte	0
 10801 0fb6 00000000 		.4byte	0
 10802              	.LLST78:
 10803 0fba A2000000 		.4byte	.LVL304
 10804 0fbe A6000000 		.4byte	.LVL305
 10805 0fc2 0200     		.2byte	0x2
 10806 0fc4 70       		.byte	0x70
 10807 0fc5 0C       		.sleb128 12
 10808 0fc6 A6000000 		.4byte	.LVL305
 10809 0fca A9000000 		.4byte	.LVL306-1
 10810 0fce 0100     		.2byte	0x1
 10811 0fd0 51       		.byte	0x51
 10812 0fd1 00000000 		.4byte	0
 10813 0fd5 00000000 		.4byte	0
 10814              	.LLST79:
 10815 0fd9 A2000000 		.4byte	.LVL304
 10816 0fdd AE000000 		.4byte	.LVL307
 10817 0fe1 0100     		.2byte	0x1
 10818 0fe3 55       		.byte	0x55
 10819 0fe4 00000000 		.4byte	0
 10820 0fe8 00000000 		.4byte	0
 10821              	.LLST80:
 10822 0fec BE000000 		.4byte	.LVL311
 10823 0ff0 CA000000 		.4byte	.LVL314
 10824 0ff4 0100     		.2byte	0x1
 10825 0ff6 55       		.byte	0x55
 10826 0ff7 CA000000 		.4byte	.LVL314
 10827 0ffb D8000000 		.4byte	.LFE35
 10828 0fff 0100     		.2byte	0x1
 10829 1001 50       		.byte	0x50
 10830 1002 00000000 		.4byte	0
 10831 1006 00000000 		.4byte	0
 10832              	.LLST81:
 10833 100a 00000000 		.4byte	.LVL315
 10834 100e 09000000 		.4byte	.LVL316-1
 10835 1012 0100     		.2byte	0x1
 10836 1014 50       		.byte	0x50
 10837 1015 09000000 		.4byte	.LVL316-1
 10838 1019 26000000 		.4byte	.LVL318
 10839 101d 0100     		.2byte	0x1
 10840 101f 55       		.byte	0x55
 10841 1020 26000000 		.4byte	.LVL318
 10842 1024 27000000 		.4byte	.LVL319-1
 10843 1028 0100     		.2byte	0x1
 10844 102a 50       		.byte	0x50
 10845 102b 27000000 		.4byte	.LVL319-1
 10846 102f 28000000 		.4byte	.LVL319
ARM GAS  C:\Users\pearlstl\AppData\Local\Temp\cciL9yyu.s 			page 215


 10847 1033 0400     		.2byte	0x4
 10848 1035 F3       		.byte	0xf3
 10849 1036 01       		.uleb128 0x1
 10850 1037 50       		.byte	0x50
 10851 1038 9F       		.byte	0x9f
 10852 1039 28000000 		.4byte	.LVL319
 10853 103d 2A000000 		.4byte	.LFE36
 10854 1041 0100     		.2byte	0x1
 10855 1043 55       		.byte	0x55
 10856 1044 00000000 		.4byte	0
 10857 1048 00000000 		.4byte	0
 10858              	.LLST82:
 10859 104c 00000000 		.4byte	.LVL315
 10860 1050 09000000 		.4byte	.LVL316-1
 10861 1054 0100     		.2byte	0x1
 10862 1056 51       		.byte	0x51
 10863 1057 09000000 		.4byte	.LVL316-1
 10864 105b 2A000000 		.4byte	.LFE36
 10865 105f 0400     		.2byte	0x4
 10866 1061 F3       		.byte	0xf3
 10867 1062 01       		.uleb128 0x1
 10868 1063 51       		.byte	0x51
 10869 1064 9F       		.byte	0x9f
 10870 1065 00000000 		.4byte	0
 10871 1069 00000000 		.4byte	0
 10872              	.LLST83:
 10873 106d 0A000000 		.4byte	.LVL316
 10874 1071 20000000 		.4byte	.LVL317
 10875 1075 0100     		.2byte	0x1
 10876 1077 50       		.byte	0x50
 10877 1078 28000000 		.4byte	.LVL319
 10878 107c 2A000000 		.4byte	.LFE36
 10879 1080 0100     		.2byte	0x1
 10880 1082 50       		.byte	0x50
 10881 1083 00000000 		.4byte	0
 10882 1087 00000000 		.4byte	0
 10883              	.LLST84:
 10884 108b 00000000 		.4byte	.LVL320
 10885 108f 13000000 		.4byte	.LVL321-1
 10886 1093 0100     		.2byte	0x1
 10887 1095 50       		.byte	0x50
 10888 1096 13000000 		.4byte	.LVL321-1
 10889 109a 4C000000 		.4byte	.LVL324
 10890 109e 0100     		.2byte	0x1
 10891 10a0 56       		.byte	0x56
 10892 10a1 4C000000 		.4byte	.LVL324
 10893 10a5 4D000000 		.4byte	.LVL325-1
 10894 10a9 0100     		.2byte	0x1
 10895 10ab 50       		.byte	0x50
 10896 10ac 4D000000 		.4byte	.LVL325-1
 10897 10b0 4E000000 		.4byte	.LVL325
 10898 10b4 0400     		.2byte	0x4
 10899 10b6 F3       		.byte	0xf3
 10900 10b7 01       		.uleb128 0x1
 10901 10b8 50       		.byte	0x50
 10902 10b9 9F       		.byte	0x9f
 10903 10ba 4E000000 		.4byte	.LVL325
ARM GAS  C:\Users\pearlstl\AppData\Local\Temp\cciL9yyu.s 			page 216


 10904 10be 6A000000 		.4byte	.LFE37
 10905 10c2 0100     		.2byte	0x1
 10906 10c4 56       		.byte	0x56
 10907 10c5 00000000 		.4byte	0
 10908 10c9 00000000 		.4byte	0
 10909              	.LLST85:
 10910 10cd 00000000 		.4byte	.LVL320
 10911 10d1 13000000 		.4byte	.LVL321-1
 10912 10d5 0100     		.2byte	0x1
 10913 10d7 51       		.byte	0x51
 10914 10d8 13000000 		.4byte	.LVL321-1
 10915 10dc 6A000000 		.4byte	.LFE37
 10916 10e0 0400     		.2byte	0x4
 10917 10e2 F3       		.byte	0xf3
 10918 10e3 01       		.uleb128 0x1
 10919 10e4 51       		.byte	0x51
 10920 10e5 9F       		.byte	0x9f
 10921 10e6 00000000 		.4byte	0
 10922 10ea 00000000 		.4byte	0
 10923              	.LLST86:
 10924 10ee 00000000 		.4byte	.LVL320
 10925 10f2 13000000 		.4byte	.LVL321-1
 10926 10f6 0100     		.2byte	0x1
 10927 10f8 52       		.byte	0x52
 10928 10f9 13000000 		.4byte	.LVL321-1
 10929 10fd 6A000000 		.4byte	.LFE37
 10930 1101 0400     		.2byte	0x4
 10931 1103 F3       		.byte	0xf3
 10932 1104 01       		.uleb128 0x1
 10933 1105 52       		.byte	0x52
 10934 1106 9F       		.byte	0x9f
 10935 1107 00000000 		.4byte	0
 10936 110b 00000000 		.4byte	0
 10937              	.LLST87:
 10938 110f 00000000 		.4byte	.LVL320
 10939 1113 13000000 		.4byte	.LVL321-1
 10940 1117 0100     		.2byte	0x1
 10941 1119 53       		.byte	0x53
 10942 111a 13000000 		.4byte	.LVL321-1
 10943 111e 6A000000 		.4byte	.LFE37
 10944 1122 0400     		.2byte	0x4
 10945 1124 F3       		.byte	0xf3
 10946 1125 01       		.uleb128 0x1
 10947 1126 53       		.byte	0x53
 10948 1127 9F       		.byte	0x9f
 10949 1128 00000000 		.4byte	0
 10950 112c 00000000 		.4byte	0
 10951              	.LLST88:
 10952 1130 00000000 		.4byte	.LVL320
 10953 1134 4C000000 		.4byte	.LVL324
 10954 1138 0200     		.2byte	0x2
 10955 113a 91       		.byte	0x91
 10956 113b 00       		.sleb128 0
 10957 113c 4C000000 		.4byte	.LVL324
 10958 1140 4E000000 		.4byte	.LVL325
 10959 1144 0200     		.2byte	0x2
 10960 1146 7D       		.byte	0x7d
ARM GAS  C:\Users\pearlstl\AppData\Local\Temp\cciL9yyu.s 			page 217


 10961 1147 00       		.sleb128 0
 10962 1148 4E000000 		.4byte	.LVL325
 10963 114c 6A000000 		.4byte	.LFE37
 10964 1150 0200     		.2byte	0x2
 10965 1152 91       		.byte	0x91
 10966 1153 00       		.sleb128 0
 10967 1154 00000000 		.4byte	0
 10968 1158 00000000 		.4byte	0
 10969              	.LLST89:
 10970 115c 1A000000 		.4byte	.LVL322
 10971 1160 46000000 		.4byte	.LVL323
 10972 1164 0100     		.2byte	0x1
 10973 1166 50       		.byte	0x50
 10974 1167 4E000000 		.4byte	.LVL325
 10975 116b 6A000000 		.4byte	.LFE37
 10976 116f 0100     		.2byte	0x1
 10977 1171 50       		.byte	0x50
 10978 1172 00000000 		.4byte	0
 10979 1176 00000000 		.4byte	0
 10980              	.LLST90:
 10981 117a 00000000 		.4byte	.LVL326
 10982 117e 05000000 		.4byte	.LVL327-1
 10983 1182 0100     		.2byte	0x1
 10984 1184 50       		.byte	0x50
 10985 1185 05000000 		.4byte	.LVL327-1
 10986 1189 0E000000 		.4byte	.LFE38
 10987 118d 0400     		.2byte	0x4
 10988 118f F3       		.byte	0xf3
 10989 1190 01       		.uleb128 0x1
 10990 1191 50       		.byte	0x50
 10991 1192 9F       		.byte	0x9f
 10992 1193 00000000 		.4byte	0
 10993 1197 00000000 		.4byte	0
 10994              	.LLST91:
 10995 119b 06000000 		.4byte	.LVL327
 10996 119f 08000000 		.4byte	.LVL328
 10997 11a3 0100     		.2byte	0x1
 10998 11a5 50       		.byte	0x50
 10999 11a6 00000000 		.4byte	0
 11000 11aa 00000000 		.4byte	0
 11001              	.LLST92:
 11002 11ae 00000000 		.4byte	.LVL329
 11003 11b2 05000000 		.4byte	.LVL330-1
 11004 11b6 0100     		.2byte	0x1
 11005 11b8 50       		.byte	0x50
 11006 11b9 05000000 		.4byte	.LVL330-1
 11007 11bd 0E000000 		.4byte	.LFE39
 11008 11c1 0400     		.2byte	0x4
 11009 11c3 F3       		.byte	0xf3
 11010 11c4 01       		.uleb128 0x1
 11011 11c5 50       		.byte	0x50
 11012 11c6 9F       		.byte	0x9f
 11013 11c7 00000000 		.4byte	0
 11014 11cb 00000000 		.4byte	0
 11015              	.LLST93:
 11016 11cf 06000000 		.4byte	.LVL330
 11017 11d3 08000000 		.4byte	.LVL331
ARM GAS  C:\Users\pearlstl\AppData\Local\Temp\cciL9yyu.s 			page 218


 11018 11d7 0100     		.2byte	0x1
 11019 11d9 50       		.byte	0x50
 11020 11da 00000000 		.4byte	0
 11021 11de 00000000 		.4byte	0
 11022              	.LLST94:
 11023 11e2 00000000 		.4byte	.LVL332
 11024 11e6 05000000 		.4byte	.LVL333-1
 11025 11ea 0100     		.2byte	0x1
 11026 11ec 50       		.byte	0x50
 11027 11ed 05000000 		.4byte	.LVL333-1
 11028 11f1 0C000000 		.4byte	.LFE40
 11029 11f5 0400     		.2byte	0x4
 11030 11f7 F3       		.byte	0xf3
 11031 11f8 01       		.uleb128 0x1
 11032 11f9 50       		.byte	0x50
 11033 11fa 9F       		.byte	0x9f
 11034 11fb 00000000 		.4byte	0
 11035 11ff 00000000 		.4byte	0
 11036              	.LLST95:
 11037 1203 06000000 		.4byte	.LVL333
 11038 1207 08000000 		.4byte	.LVL334
 11039 120b 0100     		.2byte	0x1
 11040 120d 50       		.byte	0x50
 11041 120e 00000000 		.4byte	0
 11042 1212 00000000 		.4byte	0
 11043              	.LLST96:
 11044 1216 00000000 		.4byte	.LVL335
 11045 121a 05000000 		.4byte	.LVL336-1
 11046 121e 0100     		.2byte	0x1
 11047 1220 50       		.byte	0x50
 11048 1221 05000000 		.4byte	.LVL336-1
 11049 1225 0E000000 		.4byte	.LFE41
 11050 1229 0400     		.2byte	0x4
 11051 122b F3       		.byte	0xf3
 11052 122c 01       		.uleb128 0x1
 11053 122d 50       		.byte	0x50
 11054 122e 9F       		.byte	0x9f
 11055 122f 00000000 		.4byte	0
 11056 1233 00000000 		.4byte	0
 11057              	.LLST97:
 11058 1237 06000000 		.4byte	.LVL336
 11059 123b 08000000 		.4byte	.LVL337
 11060 123f 0100     		.2byte	0x1
 11061 1241 50       		.byte	0x50
 11062 1242 00000000 		.4byte	0
 11063 1246 00000000 		.4byte	0
 11064              	.LLST98:
 11065 124a 00000000 		.4byte	.LVL338
 11066 124e 05000000 		.4byte	.LVL339-1
 11067 1252 0100     		.2byte	0x1
 11068 1254 50       		.byte	0x50
 11069 1255 05000000 		.4byte	.LVL339-1
 11070 1259 0E000000 		.4byte	.LFE42
 11071 125d 0400     		.2byte	0x4
 11072 125f F3       		.byte	0xf3
 11073 1260 01       		.uleb128 0x1
 11074 1261 50       		.byte	0x50
ARM GAS  C:\Users\pearlstl\AppData\Local\Temp\cciL9yyu.s 			page 219


 11075 1262 9F       		.byte	0x9f
 11076 1263 00000000 		.4byte	0
 11077 1267 00000000 		.4byte	0
 11078              	.LLST99:
 11079 126b 06000000 		.4byte	.LVL339
 11080 126f 08000000 		.4byte	.LVL340
 11081 1273 0100     		.2byte	0x1
 11082 1275 50       		.byte	0x50
 11083 1276 00000000 		.4byte	0
 11084 127a 00000000 		.4byte	0
 11085              		.section	.debug_aranges,"",%progbits
 11086 0000 6C000000 		.4byte	0x6c
 11087 0004 0200     		.2byte	0x2
 11088 0006 00000000 		.4byte	.Ldebug_info0
 11089 000a 04       		.byte	0x4
 11090 000b 00       		.byte	0
 11091 000c 0000     		.2byte	0
 11092 000e 0000     		.2byte	0
 11093 0010 00000000 		.4byte	.LFB44
 11094 0014 AC060000 		.4byte	.LFE44-.LFB44
 11095 0018 00000000 		.4byte	.LFB50
 11096 001c 70030000 		.4byte	.LFE50-.LFB50
 11097 0020 00000000 		.4byte	.LFB43
 11098 0024 78000000 		.4byte	.LFE43-.LFB43
 11099 0028 00000000 		.4byte	.LFB35
 11100 002c D8000000 		.4byte	.LFE35-.LFB35
 11101 0030 00000000 		.4byte	.LFB36
 11102 0034 2A000000 		.4byte	.LFE36-.LFB36
 11103 0038 00000000 		.4byte	.LFB37
 11104 003c 6A000000 		.4byte	.LFE37-.LFB37
 11105 0040 00000000 		.4byte	.LFB38
 11106 0044 0E000000 		.4byte	.LFE38-.LFB38
 11107 0048 00000000 		.4byte	.LFB39
 11108 004c 0E000000 		.4byte	.LFE39-.LFB39
 11109 0050 00000000 		.4byte	.LFB40
 11110 0054 0C000000 		.4byte	.LFE40-.LFB40
 11111 0058 00000000 		.4byte	.LFB41
 11112 005c 0E000000 		.4byte	.LFE41-.LFB41
 11113 0060 00000000 		.4byte	.LFB42
 11114 0064 0E000000 		.4byte	.LFE42-.LFB42
 11115 0068 00000000 		.4byte	0
 11116 006c 00000000 		.4byte	0
 11117              		.section	.debug_ranges,"",%progbits
 11118              	.Ldebug_ranges0:
 11119 0000 08000000 		.4byte	.LBB43
 11120 0004 0C000000 		.4byte	.LBE43
 11121 0008 0E000000 		.4byte	.LBB46
 11122 000c 10000000 		.4byte	.LBE46
 11123 0010 00000000 		.4byte	0
 11124 0014 00000000 		.4byte	0
 11125 0018 42000000 		.4byte	.LBB47
 11126 001c 10010000 		.4byte	.LBE47
 11127 0020 16030000 		.4byte	.LBB72
 11128 0024 7C030000 		.4byte	.LBE72
 11129 0028 92040000 		.4byte	.LBB85
 11130 002c A2040000 		.4byte	.LBE85
 11131 0030 00000000 		.4byte	0
ARM GAS  C:\Users\pearlstl\AppData\Local\Temp\cciL9yyu.s 			page 220


 11132 0034 00000000 		.4byte	0
 11133 0038 10010000 		.4byte	.LBB51
 11134 003c 6C010000 		.4byte	.LBE51
 11135 0040 F8030000 		.4byte	.LBB83
 11136 0044 FC030000 		.4byte	.LBE83
 11137 0048 02040000 		.4byte	.LBB84
 11138 004c 92040000 		.4byte	.LBE84
 11139 0050 00000000 		.4byte	0
 11140 0054 00000000 		.4byte	0
 11141 0058 6C010000 		.4byte	.LBB55
 11142 005c FC010000 		.4byte	.LBE55
 11143 0060 0C030000 		.4byte	.LBB71
 11144 0064 16030000 		.4byte	.LBE71
 11145 0068 D2050000 		.4byte	.LBB87
 11146 006c EE050000 		.4byte	.LBE87
 11147 0070 00000000 		.4byte	0
 11148 0074 00000000 		.4byte	0
 11149 0078 6C010000 		.4byte	.LBB57
 11150 007c 74010000 		.4byte	.LBE57
 11151 0080 7A010000 		.4byte	.LBB60
 11152 0084 7E010000 		.4byte	.LBE60
 11153 0088 00000000 		.4byte	0
 11154 008c 00000000 		.4byte	0
 11155 0090 FC010000 		.4byte	.LBB63
 11156 0094 0C030000 		.4byte	.LBE63
 11157 0098 EE050000 		.4byte	.LBB88
 11158 009c 18060000 		.4byte	.LBE88
 11159 00a0 9C060000 		.4byte	.LBB90
 11160 00a4 AC060000 		.4byte	.LBE90
 11161 00a8 00000000 		.4byte	0
 11162 00ac 00000000 		.4byte	0
 11163 00b0 FC010000 		.4byte	.LBB65
 11164 00b4 04020000 		.4byte	.LBE65
 11165 00b8 12020000 		.4byte	.LBB68
 11166 00bc 16020000 		.4byte	.LBE68
 11167 00c0 00000000 		.4byte	0
 11168 00c4 00000000 		.4byte	0
 11169 00c8 7C030000 		.4byte	.LBB73
 11170 00cc F8030000 		.4byte	.LBE73
 11171 00d0 A2040000 		.4byte	.LBB86
 11172 00d4 D2050000 		.4byte	.LBE86
 11173 00d8 18060000 		.4byte	.LBB89
 11174 00dc 9C060000 		.4byte	.LBE89
 11175 00e0 00000000 		.4byte	0
 11176 00e4 00000000 		.4byte	0
 11177 00e8 7C030000 		.4byte	.LBB75
 11178 00ec EE030000 		.4byte	.LBE75
 11179 00f0 D2040000 		.4byte	.LBB79
 11180 00f4 D2050000 		.4byte	.LBE79
 11181 00f8 18060000 		.4byte	.LBB80
 11182 00fc 9C060000 		.4byte	.LBE80
 11183 0100 00000000 		.4byte	0
 11184 0104 00000000 		.4byte	0
 11185 0108 D2040000 		.4byte	.LBB76
 11186 010c D6040000 		.4byte	.LBE76
 11187 0110 18060000 		.4byte	.LBB78
 11188 0114 94060000 		.4byte	.LBE78
ARM GAS  C:\Users\pearlstl\AppData\Local\Temp\cciL9yyu.s 			page 221


 11189 0118 00000000 		.4byte	0
 11190 011c 00000000 		.4byte	0
 11191 0120 36000000 		.4byte	.LBB91
 11192 0124 38000000 		.4byte	.LBE91
 11193 0128 3A000000 		.4byte	.LBB96
 11194 012c 3E000000 		.4byte	.LBE96
 11195 0130 42000000 		.4byte	.LBB97
 11196 0134 44000000 		.4byte	.LBE97
 11197 0138 4A000000 		.4byte	.LBB98
 11198 013c 4E000000 		.4byte	.LBE98
 11199 0140 00000000 		.4byte	0
 11200 0144 00000000 		.4byte	0
 11201 0148 4A010000 		.4byte	.LBB99
 11202 014c 4E010000 		.4byte	.LBE99
 11203 0150 60010000 		.4byte	.LBB106
 11204 0154 62010000 		.4byte	.LBE106
 11205 0158 66010000 		.4byte	.LBB107
 11206 015c 6A010000 		.4byte	.LBE107
 11207 0160 3C020000 		.4byte	.LBB110
 11208 0164 40020000 		.4byte	.LBE110
 11209 0168 44020000 		.4byte	.LBB111
 11210 016c 46020000 		.4byte	.LBE111
 11211 0170 48020000 		.4byte	.LBB112
 11212 0174 4C020000 		.4byte	.LBE112
 11213 0178 00000000 		.4byte	0
 11214 017c 00000000 		.4byte	0
 11215 0180 9C000000 		.4byte	.LBB114
 11216 0184 AE000000 		.4byte	.LBE114
 11217 0188 BA000000 		.4byte	.LBB119
 11218 018c BC000000 		.4byte	.LBE119
 11219 0190 BE000000 		.4byte	.LBB120
 11220 0194 D8000000 		.4byte	.LBE120
 11221 0198 00000000 		.4byte	0
 11222 019c 00000000 		.4byte	0
 11223 01a0 00000000 		.4byte	.LFB44
 11224 01a4 AC060000 		.4byte	.LFE44
 11225 01a8 00000000 		.4byte	.LFB50
 11226 01ac 70030000 		.4byte	.LFE50
 11227 01b0 00000000 		.4byte	.LFB43
 11228 01b4 78000000 		.4byte	.LFE43
 11229 01b8 00000000 		.4byte	.LFB35
 11230 01bc D8000000 		.4byte	.LFE35
 11231 01c0 00000000 		.4byte	.LFB36
 11232 01c4 2A000000 		.4byte	.LFE36
 11233 01c8 00000000 		.4byte	.LFB37
 11234 01cc 6A000000 		.4byte	.LFE37
 11235 01d0 00000000 		.4byte	.LFB38
 11236 01d4 0E000000 		.4byte	.LFE38
 11237 01d8 00000000 		.4byte	.LFB39
 11238 01dc 0E000000 		.4byte	.LFE39
 11239 01e0 00000000 		.4byte	.LFB40
 11240 01e4 0C000000 		.4byte	.LFE40
 11241 01e8 00000000 		.4byte	.LFB41
 11242 01ec 0E000000 		.4byte	.LFE41
 11243 01f0 00000000 		.4byte	.LFB42
 11244 01f4 0E000000 		.4byte	.LFE42
 11245 01f8 00000000 		.4byte	0
ARM GAS  C:\Users\pearlstl\AppData\Local\Temp\cciL9yyu.s 			page 222


 11246 01fc 00000000 		.4byte	0
 11247              		.section	.debug_line,"",%progbits
 11248              	.Ldebug_line0:
 11249 0000 6D070000 		.section	.debug_str,"MS",%progbits,1
 11249      02000803 
 11249      00000201 
 11249      FB0E0D00 
 11249      01010101 
 11250              	.LASF310:
 11251 0000 6C765F6C 		.ascii	"lv_ll_get_prev\000"
 11251      6C5F6765 
 11251      745F7072 
 11251      657600
 11252              	.LASF14:
 11253 000f 696E7438 		.ascii	"int8_t\000"
 11253      5F7400
 11254              	.LASF75:
 11255 0016 6C765F6C 		.ascii	"lv_ll_node_t\000"
 11255      6C5F6E6F 
 11255      64655F74 
 11255      00
 11256              	.LASF21:
 11257 0023 6164765F 		.ascii	"adv_w\000"
 11257      7700
 11258              	.LASF212:
 11259 0029 68656164 		.ascii	"header_pr\000"
 11259      65725F70 
 11259      7200
 11260              	.LASF40:
 11261 0033 73697A65 		.ascii	"sizetype\000"
 11261      74797065 
 11261      00
 11262              	.LASF37:
 11263 003c 6C765F63 		.ascii	"lv_color32_t\000"
 11263      6F6C6F72 
 11263      33325F74 
 11263      00
 11264              	.LASF222:
 11265 0049 63656C6C 		.ascii	"cell\000"
 11265      00
 11266              	.LASF85:
 11267 004e 4C565F42 		.ascii	"LV_BIDI_DIR_WEAK\000"
 11267      4944495F 
 11267      4449525F 
 11267      5745414B 
 11267      00
 11268              	.LASF78:
 11269 005f 7461696C 		.ascii	"tail\000"
 11269      00
 11270              	.LASF170:
 11271 0064 4C565F50 		.ascii	"LV_PROTECT_POS\000"
 11271      524F5445 
 11271      43545F50 
 11271      4F5300
 11272              	.LASF118:
 11273 0073 4C565F53 		.ascii	"LV_SIGNAL_STYLE_CHG\000"
 11273      49474E41 
ARM GAS  C:\Users\pearlstl\AppData\Local\Temp\cciL9yyu.s 			page 223


 11273      4C5F5354 
 11273      594C455F 
 11273      43484700 
 11274              	.LASF39:
 11275 0087 6C765F6F 		.ascii	"lv_opa_t\000"
 11275      70615F74 
 11275      00
 11276              	.LASF63:
 11277 0090 696E7465 		.ascii	"intense\000"
 11277      6E736500 
 11278              	.LASF229:
 11279 0098 6C6D6574 		.ascii	"lmeter\000"
 11279      657200
 11280              	.LASF126:
 11281 009f 4C565F53 		.ascii	"LV_SIGNAL_LONG_PRESS\000"
 11281      49474E41 
 11281      4C5F4C4F 
 11281      4E475F50 
 11281      52455353 
 11282              	.LASF55:
 11283 00b4 72616469 		.ascii	"radius\000"
 11283      757300
 11284              	.LASF164:
 11285 00bb 6C765F72 		.ascii	"lv_reailgn_t\000"
 11285      6561696C 
 11285      676E5F74 
 11285      00
 11286              	.LASF29:
 11287 00c8 6C696E65 		.ascii	"line_height\000"
 11287      5F686569 
 11287      67687400 
 11288              	.LASF96:
 11289 00d4 636C6963 		.ascii	"click\000"
 11289      6B00
 11290              	.LASF80:
 11291 00da 4C565F42 		.ascii	"LV_BIDI_DIR_LTR\000"
 11291      4944495F 
 11291      4449525F 
 11291      4C545200 
 11292              	.LASF157:
 11293 00ea 6C765F61 		.ascii	"lv_align_t\000"
 11293      6C69676E 
 11293      5F7400
 11294              	.LASF128:
 11295 00f5 4C565F53 		.ascii	"LV_SIGNAL_DRAG_BEGIN\000"
 11295      49474E41 
 11295      4C5F4452 
 11295      41475F42 
 11295      4547494E 
 11296              	.LASF278:
 11297 010a 785F6F66 		.ascii	"x_ofs\000"
 11297      7300
 11298              	.LASF214:
 11299 0110 68696768 		.ascii	"highlighted_days\000"
 11299      6C696768 
 11299      7465645F 
 11299      64617973 
ARM GAS  C:\Users\pearlstl\AppData\Local\Temp\cciL9yyu.s 			page 224


 11299      00
 11300              	.LASF331:
 11301 0121 6C765F6F 		.ascii	"lv_obj_set_signal_cb\000"
 11301      626A5F73 
 11301      65745F73 
 11301      69676E61 
 11301      6C5F6362 
 11302              	.LASF289:
 11303 0136 7369676E 		.ascii	"sign\000"
 11303      00
 11304              	.LASF112:
 11305 013b 6C765F65 		.ascii	"lv_event_t\000"
 11305      76656E74 
 11305      5F7400
 11306              	.LASF260:
 11307 0146 76706164 		.ascii	"vpad_corr\000"
 11307      5F636F72 
 11307      7200
 11308              	.LASF265:
 11309 0150 775F6F62 		.ascii	"w_obj\000"
 11309      6A00
 11310              	.LASF282:
 11311 0156 6C765F63 		.ascii	"lv_cont_refr_autofit\000"
 11311      6F6E745F 
 11311      72656672 
 11311      5F617574 
 11311      6F666974 
 11312              	.LASF276:
 11313 016b 685F6F62 		.ascii	"h_obj\000"
 11313      6A00
 11314              	.LASF312:
 11315 0171 6C765F6F 		.ascii	"lv_obj_is_protected\000"
 11315      626A5F69 
 11315      735F7072 
 11315      6F746563 
 11315      74656400 
 11316              	.LASF72:
 11317 0185 4C565F52 		.ascii	"LV_RES_INV\000"
 11317      45535F49 
 11317      4E5600
 11318              	.LASF155:
 11319 0190 4C565F41 		.ascii	"LV_ALIGN_OUT_RIGHT_MID\000"
 11319      4C49474E 
 11319      5F4F5554 
 11319      5F524947 
 11319      48545F4D 
 11320              	.LASF122:
 11321 01a7 4C565F53 		.ascii	"LV_SIGNAL_PRESSED\000"
 11321      49474E41 
 11321      4C5F5052 
 11321      45535345 
 11321      4400
 11322              	.LASF304:
 11323 01b9 6C765F6F 		.ascii	"lv_obj_get_width\000"
 11323      626A5F67 
 11323      65745F77 
 11323      69647468 
ARM GAS  C:\Users\pearlstl\AppData\Local\Temp\cciL9yyu.s 			page 225


 11323      00
 11324              	.LASF48:
 11325 01ca 74797065 		.ascii	"type\000"
 11325      00
 11326              	.LASF186:
 11327 01cf 4C565F46 		.ascii	"LV_FIT_NONE\000"
 11327      49545F4E 
 11327      4F4E4500 
 11328              	.LASF204:
 11329 01db 6C696768 		.ascii	"light\000"
 11329      7400
 11330              	.LASF272:
 11331 01e1 6163745F 		.ascii	"act_x\000"
 11331      7800
 11332              	.LASF266:
 11333 01e7 6163745F 		.ascii	"act_y\000"
 11333      7900
 11334              	.LASF299:
 11335 01ed 6C765F63 		.ascii	"lv_cont_get_fit_top\000"
 11335      6F6E745F 
 11335      6765745F 
 11335      6669745F 
 11335      746F7000 
 11336              	.LASF225:
 11337 0201 636F6E74 		.ascii	"cont\000"
 11337      00
 11338              	.LASF333:
 11339 0206 474E5520 		.ascii	"GNU C11 5.4.1 20160609 (release) [ARM/embedded-5-br"
 11339      43313120 
 11339      352E342E 
 11339      31203230 
 11339      31363036 
 11340 0239 616E6368 		.ascii	"anch revision 237715] -mcpu=cortex-m4 -mfloat-abi=s"
 11340      20726576 
 11340      6973696F 
 11340      6E203233 
 11340      37373135 
 11341 026c 6F667466 		.ascii	"oftfp -mfpu=fpv4-sp-d16 -mthumb -g -O3 -ffunction-s"
 11341      70202D6D 
 11341      6670753D 
 11341      66707634 
 11341      2D73702D 
 11342 029f 65637469 		.ascii	"ections -ffat-lto-objects\000"
 11342      6F6E7320 
 11342      2D666661 
 11342      742D6C74 
 11342      6F2D6F62 
 11343              	.LASF202:
 11344 02b9 7072696D 		.ascii	"prim\000"
 11344      00
 11345              	.LASF232:
 11346 02be 63686172 		.ascii	"chart\000"
 11346      7400
 11347              	.LASF268:
 11348 02c4 775F726F 		.ascii	"w_row\000"
 11348      7700
 11349              	.LASF294:
ARM GAS  C:\Users\pearlstl\AppData\Local\Temp\cciL9yyu.s 			page 226


 11350 02ca 6C765F63 		.ascii	"lv_cont_set_layout\000"
 11350      6F6E745F 
 11350      7365745F 
 11350      6C61796F 
 11350      757400
 11351              	.LASF267:
 11352 02dd 685F726F 		.ascii	"h_row\000"
 11352      7700
 11353              	.LASF293:
 11354 02e3 636F7079 		.ascii	"copy_ext\000"
 11354      5F657874 
 11354      00
 11355              	.LASF1:
 11356 02ec 5F5F7569 		.ascii	"__uint8_t\000"
 11356      6E74385F 
 11356      7400
 11357              	.LASF35:
 11358 02f6 616C7068 		.ascii	"alpha\000"
 11358      6100
 11359              	.LASF100:
 11360 02fc 68696464 		.ascii	"hidden\000"
 11360      656E00
 11361              	.LASF8:
 11362 0303 6C6F6E67 		.ascii	"long int\000"
 11362      20696E74 
 11362      00
 11363              	.LASF242:
 11364 030c 74696C65 		.ascii	"tileview\000"
 11364      76696577 
 11364      00
 11365              	.LASF141:
 11366 0315 4C565F41 		.ascii	"LV_ALIGN_IN_BOTTOM_MID\000"
 11366      4C49474E 
 11366      5F494E5F 
 11366      424F5454 
 11366      4F4D5F4D 
 11367              	.LASF198:
 11368 032c 4C565F43 		.ascii	"LV_CONT_STYLE_MAIN\000"
 11368      4F4E545F 
 11368      5354594C 
 11368      455F4D41 
 11368      494E00
 11369              	.LASF291:
 11370 033f 636F7079 		.ascii	"copy\000"
 11370      00
 11371              	.LASF248:
 11372 0344 61726561 		.ascii	"area_p\000"
 11372      5F7000
 11373              	.LASF181:
 11374 034b 4C565F4C 		.ascii	"LV_LAYOUT_ROW_B\000"
 11374      41594F55 
 11374      545F524F 
 11374      575F4200 
 11375              	.LASF277:
 11376 035b 6F626A5F 		.ascii	"obj_row\000"
 11376      726F7700 
 11377              	.LASF182:
ARM GAS  C:\Users\pearlstl\AppData\Local\Temp\cciL9yyu.s 			page 227


 11378 0363 4C565F4C 		.ascii	"LV_LAYOUT_PRETTY\000"
 11378      41594F55 
 11378      545F5052 
 11378      45545459 
 11378      00
 11379              	.LASF77:
 11380 0374 68656164 		.ascii	"head\000"
 11380      00
 11381              	.LASF180:
 11382 0379 4C565F4C 		.ascii	"LV_LAYOUT_ROW_M\000"
 11382      41594F55 
 11382      545F524F 
 11382      575F4D00 
 11383              	.LASF179:
 11384 0389 4C565F4C 		.ascii	"LV_LAYOUT_ROW_T\000"
 11384      41594F55 
 11384      545F524F 
 11384      575F5400 
 11385              	.LASF324:
 11386 0399 6C765F6F 		.ascii	"lv_obj_realign\000"
 11386      626A5F72 
 11386      65616C69 
 11386      676E00
 11387              	.LASF234:
 11388 03a8 62746E6D 		.ascii	"btnm\000"
 11388      00
 11389              	.LASF298:
 11390 03ad 6C765F63 		.ascii	"lv_cont_get_fit_right\000"
 11390      6F6E745F 
 11390      6765745F 
 11390      6669745F 
 11390      72696768 
 11391              	.LASF316:
 11392 03c3 6C765F6F 		.ascii	"lv_obj_clear_protect\000"
 11392      626A5F63 
 11392      6C656172 
 11392      5F70726F 
 11392      74656374 
 11393              	.LASF2:
 11394 03d8 7369676E 		.ascii	"signed char\000"
 11394      65642063 
 11394      68617200 
 11395              	.LASF15:
 11396 03e4 75696E74 		.ascii	"uint8_t\000"
 11396      385F7400 
 11397              	.LASF217:
 11398 03ec 746F6461 		.ascii	"today_box\000"
 11398      795F626F 
 11398      7800
 11399              	.LASF201:
 11400 03f6 74676C5F 		.ascii	"tgl_pr\000"
 11400      707200
 11401              	.LASF195:
 11402 03fd 6669745F 		.ascii	"fit_top\000"
 11402      746F7000 
 11403              	.LASF28:
 11404 0405 6765745F 		.ascii	"get_glyph_bitmap\000"
ARM GAS  C:\Users\pearlstl\AppData\Local\Temp\cciL9yyu.s 			page 228


 11404      676C7970 
 11404      685F6269 
 11404      746D6170 
 11404      00
 11405              	.LASF218:
 11406 0416 7363726C 		.ascii	"scrl\000"
 11406      00
 11407              	.LASF33:
 11408 041b 626C7565 		.ascii	"blue\000"
 11408      00
 11409              	.LASF127:
 11410 0420 4C565F53 		.ascii	"LV_SIGNAL_LONG_PRESS_REP\000"
 11410      49474E41 
 11410      4C5F4C4F 
 11410      4E475F50 
 11410      52455353 
 11411              	.LASF3:
 11412 0439 756E7369 		.ascii	"unsigned char\000"
 11412      676E6564 
 11412      20636861 
 11412      7200
 11413              	.LASF303:
 11414 0447 6C765F6F 		.ascii	"lv_obj_get_style\000"
 11414      626A5F67 
 11414      65745F73 
 11414      74796C65 
 11414      00
 11415              	.LASF271:
 11416 0458 6E65775F 		.ascii	"new_opad\000"
 11416      6F706164 
 11416      00
 11417              	.LASF120:
 11418 0461 4C565F53 		.ascii	"LV_SIGNAL_REFR_EXT_DRAW_PAD\000"
 11418      49474E41 
 11418      4C5F5245 
 11418      46525F45 
 11418      58545F44 
 11419              	.LASF103:
 11420 047d 64726167 		.ascii	"drag_dir\000"
 11420      5F646972 
 11420      00
 11421              	.LASF169:
 11422 0486 4C565F50 		.ascii	"LV_PROTECT_PARENT\000"
 11422      524F5445 
 11422      43545F50 
 11422      4152454E 
 11422      5400
 11423              	.LASF210:
 11424 0498 6B6E6F62 		.ascii	"knob_on\000"
 11424      5F6F6E00 
 11425              	.LASF24:
 11426 04a0 6F66735F 		.ascii	"ofs_x\000"
 11426      7800
 11427              	.LASF25:
 11428 04a6 6F66735F 		.ascii	"ofs_y\000"
 11428      7900
 11429              	.LASF211:
ARM GAS  C:\Users\pearlstl\AppData\Local\Temp\cciL9yyu.s 			page 229


 11430 04ac 68656164 		.ascii	"header\000"
 11430      657200
 11431              	.LASF330:
 11432 04b3 6C765F6F 		.ascii	"lv_obj_allocate_ext_attr\000"
 11432      626A5F61 
 11432      6C6C6F63 
 11432      6174655F 
 11432      6578745F 
 11433              	.LASF31:
 11434 04cc 5F426F6F 		.ascii	"_Bool\000"
 11434      6C00
 11435              	.LASF280:
 11436 04d2 6F626A5F 		.ascii	"obj_cnt\000"
 11436      636E7400 
 11437              	.LASF135:
 11438 04da 6C765F73 		.ascii	"lv_signal_cb_t\000"
 11438      69676E61 
 11438      6C5F6362 
 11438      5F7400
 11439              	.LASF243:
 11440 04e9 7461626C 		.ascii	"table\000"
 11440      6500
 11441              	.LASF41:
 11442 04ef 63686172 		.ascii	"char\000"
 11442      00
 11443              	.LASF250:
 11444 04f4 6C765F61 		.ascii	"lv_area_copy\000"
 11444      7265615F 
 11444      636F7079 
 11444      00
 11445              	.LASF184:
 11446 0501 5F4C565F 		.ascii	"_LV_LAYOUT_NUM\000"
 11446      4C41594F 
 11446      55545F4E 
 11446      554D00
 11447              	.LASF334:
 11448 0510 2E2E5C2E 		.ascii	"..\\..\\..\\lvgl\\version_6.1.2\\lvgl\\src\\lv_objx"
 11448      2E5C2E2E 
 11448      5C6C7667 
 11448      6C5C7665 
 11448      7273696F 
 11449 053c 5C6C765F 		.ascii	"\\lv_cont.c\000"
 11449      636F6E74 
 11449      2E6300
 11450              	.LASF67:
 11451 0547 626F6479 		.ascii	"body\000"
 11451      00
 11452              	.LASF160:
 11453 054c 796F6673 		.ascii	"yofs\000"
 11453      00
 11454              	.LASF317:
 11455 0551 6C765F6F 		.ascii	"lv_obj_align\000"
 11455      626A5F61 
 11455      6C69676E 
 11455      00
 11456              	.LASF6:
 11457 055e 5F5F7569 		.ascii	"__uint16_t\000"
ARM GAS  C:\Users\pearlstl\AppData\Local\Temp\cciL9yyu.s 			page 230


 11457      6E743136 
 11457      5F7400
 11458              	.LASF216:
 11459 0569 7765656B 		.ascii	"week_box\000"
 11459      5F626F78 
 11459      00
 11460              	.LASF302:
 11461 0572 6C765F6F 		.ascii	"lv_obj_get_ext_attr\000"
 11461      626A5F67 
 11461      65745F65 
 11461      78745F61 
 11461      74747200 
 11462              	.LASF176:
 11463 0586 4C565F4C 		.ascii	"LV_LAYOUT_COL_L\000"
 11463      41594F55 
 11463      545F434F 
 11463      4C5F4C00 
 11464              	.LASF177:
 11465 0596 4C565F4C 		.ascii	"LV_LAYOUT_COL_M\000"
 11465      41594F55 
 11465      545F434F 
 11465      4C5F4D00 
 11466              	.LASF178:
 11467 05a6 4C565F4C 		.ascii	"LV_LAYOUT_COL_R\000"
 11467      41594F55 
 11467      545F434F 
 11467      4C5F5200 
 11468              	.LASF152:
 11469 05b6 4C565F41 		.ascii	"LV_ALIGN_OUT_LEFT_MID\000"
 11469      4C49474E 
 11469      5F4F5554 
 11469      5F4C4546 
 11469      545F4D49 
 11470              	.LASF329:
 11471 05cc 6C765F6F 		.ascii	"lv_obj_create\000"
 11471      626A5F63 
 11471      72656174 
 11471      6500
 11472              	.LASF93:
 11473 05da 64657369 		.ascii	"design_cb\000"
 11473      676E5F63 
 11473      6200
 11474              	.LASF131:
 11475 05e4 4C565F53 		.ascii	"LV_SIGNAL_DEFOCUS\000"
 11475      49474E41 
 11475      4C5F4445 
 11475      464F4355 
 11475      5300
 11476              	.LASF239:
 11477 05f6 64646C69 		.ascii	"ddlist\000"
 11477      737400
 11478              	.LASF68:
 11479 05fd 74657874 		.ascii	"text\000"
 11479      00
 11480              	.LASF295:
 11481 0602 6C765F63 		.ascii	"lv_cont_set_fit4\000"
 11481      6F6E745F 
ARM GAS  C:\Users\pearlstl\AppData\Local\Temp\cciL9yyu.s 			page 231


 11481      7365745F 
 11481      66697434 
 11481      00
 11482              	.LASF69:
 11483 0613 696D6167 		.ascii	"image\000"
 11483      6500
 11484              	.LASF65:
 11485 0619 726F756E 		.ascii	"rounded\000"
 11485      64656400 
 11486              	.LASF98:
 11487 0621 64726167 		.ascii	"drag_throw\000"
 11487      5F746872 
 11487      6F7700
 11488              	.LASF215:
 11489 062c 696E6163 		.ascii	"inactive_days\000"
 11489      74697665 
 11489      5F646179 
 11489      7300
 11490              	.LASF86:
 11491 063a 6C765F62 		.ascii	"lv_bidi_dir_t\000"
 11491      6964695F 
 11491      6469725F 
 11491      7400
 11492              	.LASF108:
 11493 0648 6578745F 		.ascii	"ext_draw_pad\000"
 11493      64726177 
 11493      5F706164 
 11493      00
 11494              	.LASF42:
 11495 0655 6C765F61 		.ascii	"lv_area_t\000"
 11495      7265615F 
 11495      7400
 11496              	.LASF300:
 11497 065f 6C765F63 		.ascii	"lv_cont_get_fit_bottom\000"
 11497      6F6E745F 
 11497      6765745F 
 11497      6669745F 
 11497      626F7474 
 11498              	.LASF171:
 11499 0676 4C565F50 		.ascii	"LV_PROTECT_FOLLOW\000"
 11499      524F5445 
 11499      43545F46 
 11499      4F4C4C4F 
 11499      5700
 11500              	.LASF83:
 11501 0688 4C565F42 		.ascii	"LV_BIDI_DIR_INHERIT\000"
 11501      4944495F 
 11501      4449525F 
 11501      494E4845 
 11501      52495400 
 11502              	.LASF50:
 11503 069c 6C656674 		.ascii	"left\000"
 11503      00
 11504              	.LASF245:
 11505 06a1 6C765F74 		.ascii	"lv_theme_t\000"
 11505      68656D65 
 11505      5F7400
ARM GAS  C:\Users\pearlstl\AppData\Local\Temp\cciL9yyu.s 			page 232


 11506              	.LASF109:
 11507 06ac 7265616C 		.ascii	"realign\000"
 11507      69676E00 
 11508              	.LASF337:
 11509 06b4 6C765F63 		.ascii	"lv_cont_signal\000"
 11509      6F6E745F 
 11509      7369676E 
 11509      616C00
 11510              	.LASF269:
 11511 06c3 6F626A31 		.ascii	"obj1\000"
 11511      00
 11512              	.LASF270:
 11513 06c8 6F626A32 		.ascii	"obj2\000"
 11513      00
 11514              	.LASF142:
 11515 06cd 4C565F41 		.ascii	"LV_ALIGN_IN_BOTTOM_RIGHT\000"
 11515      4C49474E 
 11515      5F494E5F 
 11515      424F5454 
 11515      4F4D5F52 
 11516              	.LASF150:
 11517 06e6 4C565F41 		.ascii	"LV_ALIGN_OUT_BOTTOM_RIGHT\000"
 11517      4C49474E 
 11517      5F4F5554 
 11517      5F424F54 
 11517      544F4D5F 
 11518              	.LASF121:
 11519 0700 4C565F53 		.ascii	"LV_SIGNAL_GET_TYPE\000"
 11519      49474E41 
 11519      4C5F4745 
 11519      545F5459 
 11519      504500
 11520              	.LASF199:
 11521 0713 6C765F63 		.ascii	"lv_cont_style_t\000"
 11521      6F6E745F 
 11521      7374796C 
 11521      655F7400 
 11522              	.LASF219:
 11523 0723 61726561 		.ascii	"area\000"
 11523      00
 11524              	.LASF71:
 11525 0728 6C765F73 		.ascii	"lv_style_t\000"
 11525      74796C65 
 11525      5F7400
 11526              	.LASF52:
 11527 0733 696E6E65 		.ascii	"inner\000"
 11527      7200
 11528              	.LASF292:
 11529 0739 6E65775F 		.ascii	"new_cont\000"
 11529      636F6E74 
 11529      00
 11530              	.LASF313:
 11531 0742 6C765F6F 		.ascii	"lv_obj_set_pos\000"
 11531      626A5F73 
 11531      65745F70 
 11531      6F7300
 11532              	.LASF149:
ARM GAS  C:\Users\pearlstl\AppData\Local\Temp\cciL9yyu.s 			page 233


 11533 0751 4C565F41 		.ascii	"LV_ALIGN_OUT_BOTTOM_MID\000"
 11533      4C49474E 
 11533      5F4F5554 
 11533      5F424F54 
 11533      544F4D5F 
 11534              	.LASF188:
 11535 0769 4C565F46 		.ascii	"LV_FIT_FLOOD\000"
 11535      49545F46 
 11535      4C4F4F44 
 11535      00
 11536              	.LASF10:
 11537 0776 6C6F6E67 		.ascii	"long unsigned int\000"
 11537      20756E73 
 11537      69676E65 
 11537      6420696E 
 11537      7400
 11538              	.LASF203:
 11539 0788 68696E74 		.ascii	"hint\000"
 11539      00
 11540              	.LASF290:
 11541 078d 70617261 		.ascii	"param\000"
 11541      6D00
 11542              	.LASF305:
 11543 0793 6C765F6F 		.ascii	"lv_obj_get_child\000"
 11543      626A5F67 
 11543      65745F63 
 11543      68696C64 
 11543      00
 11544              	.LASF174:
 11545 07a4 4C565F4C 		.ascii	"LV_LAYOUT_OFF\000"
 11545      41594F55 
 11545      545F4F46 
 11545      4600
 11546              	.LASF70:
 11547 07b2 6C696E65 		.ascii	"line\000"
 11547      00
 11548              	.LASF318:
 11549 07b7 6C765F6F 		.ascii	"lv_obj_get_base_dir\000"
 11549      626A5F67 
 11549      65745F62 
 11549      6173655F 
 11549      64697200 
 11550              	.LASF130:
 11551 07cb 4C565F53 		.ascii	"LV_SIGNAL_FOCUS\000"
 11551      49474E41 
 11551      4C5F464F 
 11551      43555300 
 11552              	.LASF321:
 11553 07db 6C765F6C 		.ascii	"lv_ll_is_empty\000"
 11553      6C5F6973 
 11553      5F656D70 
 11553      747900
 11554              	.LASF326:
 11555 07ea 6C765F6F 		.ascii	"lv_obj_refresh_style\000"
 11555      626A5F72 
 11555      65667265 
 11555      73685F73 
ARM GAS  C:\Users\pearlstl\AppData\Local\Temp\cciL9yyu.s 			page 234


 11555      74796C65 
 11556              	.LASF309:
 11557 07ff 6C765F6C 		.ascii	"lv_ll_get_tail\000"
 11557      6C5F6765 
 11557      745F7461 
 11557      696C00
 11558              	.LASF133:
 11559 080e 4C565F53 		.ascii	"LV_SIGNAL_GET_EDITABLE\000"
 11559      49474E41 
 11559      4C5F4745 
 11559      545F4544 
 11559      49544142 
 11560              	.LASF220:
 11561 0825 6F6E656C 		.ascii	"oneline\000"
 11561      696E6500 
 11562              	.LASF148:
 11563 082d 4C565F41 		.ascii	"LV_ALIGN_OUT_BOTTOM_LEFT\000"
 11563      4C49474E 
 11563      5F4F5554 
 11563      5F424F54 
 11563      544F4D5F 
 11564              	.LASF9:
 11565 0846 5F5F7569 		.ascii	"__uint32_t\000"
 11565      6E743332 
 11565      5F7400
 11566              	.LASF91:
 11567 0851 6576656E 		.ascii	"event_cb\000"
 11567      745F6362 
 11567      00
 11568              	.LASF51:
 11569 085a 72696768 		.ascii	"right\000"
 11569      7400
 11570              	.LASF95:
 11571 0860 7374796C 		.ascii	"style_p\000"
 11571      655F7000 
 11572              	.LASF11:
 11573 0868 6C6F6E67 		.ascii	"long long int\000"
 11573      206C6F6E 
 11573      6720696E 
 11573      7400
 11574              	.LASF153:
 11575 0876 4C565F41 		.ascii	"LV_ALIGN_OUT_LEFT_BOTTOM\000"
 11575      4C49474E 
 11575      5F4F5554 
 11575      5F4C4546 
 11575      545F424F 
 11576              	.LASF46:
 11577 088f 77696474 		.ascii	"width\000"
 11577      6800
 11578              	.LASF296:
 11579 0895 6C765F63 		.ascii	"lv_cont_create\000"
 11579      6F6E745F 
 11579      63726561 
 11579      746500
 11580              	.LASF139:
 11581 08a4 4C565F41 		.ascii	"LV_ALIGN_IN_TOP_RIGHT\000"
 11581      4C49474E 
ARM GAS  C:\Users\pearlstl\AppData\Local\Temp\cciL9yyu.s 			page 235


 11581      5F494E5F 
 11581      544F505F 
 11581      52494748 
 11582              	.LASF132:
 11583 08ba 4C565F53 		.ascii	"LV_SIGNAL_CONTROL\000"
 11583      49474E41 
 11583      4C5F434F 
 11583      4E54524F 
 11583      4C00
 11584              	.LASF49:
 11585 08cc 626F7474 		.ascii	"bottom\000"
 11585      6F6D00
 11586              	.LASF89:
 11587 08d3 6368696C 		.ascii	"child_ll\000"
 11587      645F6C6C 
 11587      00
 11588              	.LASF207:
 11589 08dc 696E6469 		.ascii	"indic\000"
 11589      6300
 11590              	.LASF106:
 11591 08e2 70726F74 		.ascii	"protect\000"
 11591      65637400 
 11592              	.LASF274:
 11593 08ea 775F746F 		.ascii	"w_tot\000"
 11593      7400
 11594              	.LASF253:
 11595 08f0 6368696C 		.ascii	"child\000"
 11595      6400
 11596              	.LASF255:
 11597 08f6 685F746F 		.ascii	"h_tot\000"
 11597      7400
 11598              	.LASF192:
 11599 08fc 6C61796F 		.ascii	"layout\000"
 11599      757400
 11600              	.LASF241:
 11601 0903 74616276 		.ascii	"tabview\000"
 11601      69657700 
 11602              	.LASF102:
 11603 090b 70617265 		.ascii	"parent_event\000"
 11603      6E745F65 
 11603      76656E74 
 11603      00
 11604              	.LASF114:
 11605 0918 4C565F53 		.ascii	"LV_SIGNAL_CLEANUP\000"
 11605      49474E41 
 11605      4C5F434C 
 11605      45414E55 
 11605      5000
 11606              	.LASF161:
 11607 092a 616C6967 		.ascii	"align\000"
 11607      6E00
 11608              	.LASF140:
 11609 0930 4C565F41 		.ascii	"LV_ALIGN_IN_BOTTOM_LEFT\000"
 11609      4C49474E 
 11609      5F494E5F 
 11609      424F5454 
 11609      4F4D5F4C 
ARM GAS  C:\Users\pearlstl\AppData\Local\Temp\cciL9yyu.s 			page 236


 11610              	.LASF66:
 11611 0948 676C6173 		.ascii	"glass\000"
 11611      7300
 11612              	.LASF197:
 11613 094e 6C765F63 		.ascii	"lv_cont_ext_t\000"
 11613      6F6E745F 
 11613      6578745F 
 11613      7400
 11614              	.LASF13:
 11615 095c 756E7369 		.ascii	"unsigned int\000"
 11615      676E6564 
 11615      20696E74 
 11615      00
 11616              	.LASF115:
 11617 0969 4C565F53 		.ascii	"LV_SIGNAL_CHILD_CHG\000"
 11617      49474E41 
 11617      4C5F4348 
 11617      494C445F 
 11617      43484700 
 11618              	.LASF254:
 11619 097d 6F626A5F 		.ascii	"obj_num\000"
 11619      6E756D00 
 11620              	.LASF235:
 11621 0985 6D626F78 		.ascii	"mbox\000"
 11621      00
 11622              	.LASF200:
 11623 098a 74676C5F 		.ascii	"tgl_rel\000"
 11623      72656C00 
 11624              	.LASF136:
 11625 0992 4C565F41 		.ascii	"LV_ALIGN_CENTER\000"
 11625      4C49474E 
 11625      5F43454E 
 11625      54455200 
 11626              	.LASF281:
 11627 09a2 6C765F63 		.ascii	"lv_cont_refr_layout\000"
 11627      6F6E745F 
 11627      72656672 
 11627      5F6C6179 
 11627      6F757400 
 11628              	.LASF283:
 11629 09b6 74696768 		.ascii	"tight_area\000"
 11629      745F6172 
 11629      656100
 11630              	.LASF275:
 11631 09c1 775F6669 		.ascii	"w_fit\000"
 11631      7400
 11632              	.LASF162:
 11633 09c7 6175746F 		.ascii	"auto_realign\000"
 11633      5F726561 
 11633      6C69676E 
 11633      00
 11634              	.LASF26:
 11635 09d4 6C765F66 		.ascii	"lv_font_glyph_dsc_t\000"
 11635      6F6E745F 
 11635      676C7970 
 11635      685F6473 
 11635      635F7400 
ARM GAS  C:\Users\pearlstl\AppData\Local\Temp\cciL9yyu.s 			page 237


 11636              	.LASF336:
 11637 09e8 6C765F63 		.ascii	"lv_cont_get_layout\000"
 11637      6F6E745F 
 11637      6765745F 
 11637      6C61796F 
 11637      757400
 11638              	.LASF238:
 11639 09fb 6C697374 		.ascii	"list\000"
 11639      00
 11640              	.LASF54:
 11641 0a00 67726164 		.ascii	"grad_color\000"
 11641      5F636F6C 
 11641      6F7200
 11642              	.LASF193:
 11643 0a0b 6669745F 		.ascii	"fit_left\000"
 11643      6C656674 
 11643      00
 11644              	.LASF236:
 11645 0a14 70616765 		.ascii	"page\000"
 11645      00
 11646              	.LASF319:
 11647 0a19 6C765F6F 		.ascii	"lv_obj_get_parent\000"
 11647      626A5F67 
 11647      65745F70 
 11647      6172656E 
 11647      7400
 11648              	.LASF209:
 11649 0a2b 6B6E6F62 		.ascii	"knob_off\000"
 11649      5F6F6666 
 11649      00
 11650              	.LASF230:
 11651 0a34 67617567 		.ascii	"gauge\000"
 11651      6500
 11652              	.LASF251:
 11653 0a3a 6C765F63 		.ascii	"lv_cont_set_style\000"
 11653      6F6E745F 
 11653      7365745F 
 11653      7374796C 
 11653      6500
 11654              	.LASF123:
 11655 0a4c 4C565F53 		.ascii	"LV_SIGNAL_PRESSING\000"
 11655      49474E41 
 11655      4C5F5052 
 11655      45535349 
 11655      4E4700
 11656              	.LASF285:
 11657 0a5f 7061725F 		.ascii	"par_style\000"
 11657      7374796C 
 11657      6500
 11658              	.LASF323:
 11659 0a69 6C765F6F 		.ascii	"lv_obj_get_auto_realign\000"
 11659      626A5F67 
 11659      65745F61 
 11659      75746F5F 
 11659      7265616C 
 11660              	.LASF74:
 11661 0a81 6C765F72 		.ascii	"lv_res_t\000"
ARM GAS  C:\Users\pearlstl\AppData\Local\Temp\cciL9yyu.s 			page 238


 11661      65735F74 
 11661      00
 11662              	.LASF156:
 11663 0a8a 4C565F41 		.ascii	"LV_ALIGN_OUT_RIGHT_BOTTOM\000"
 11663      4C49474E 
 11663      5F4F5554 
 11663      5F524947 
 11663      48545F42 
 11664              	.LASF20:
 11665 0aa4 6C6F6E67 		.ascii	"long double\000"
 11665      20646F75 
 11665      626C6500 
 11666              	.LASF165:
 11667 0ab0 6C765F64 		.ascii	"lv_drag_dir_t\000"
 11667      7261675F 
 11667      6469725F 
 11667      7400
 11668              	.LASF244:
 11669 0abe 7374796C 		.ascii	"style\000"
 11669      6500
 11670              	.LASF94:
 11671 0ac4 6578745F 		.ascii	"ext_attr\000"
 11671      61747472 
 11671      00
 11672              	.LASF167:
 11673 0acd 4C565F50 		.ascii	"LV_PROTECT_NONE\000"
 11673      524F5445 
 11673      43545F4E 
 11673      4F4E4500 
 11674              	.LASF145:
 11675 0add 4C565F41 		.ascii	"LV_ALIGN_OUT_TOP_LEFT\000"
 11675      4C49474E 
 11675      5F4F5554 
 11675      5F544F50 
 11675      5F4C4546 
 11676              	.LASF110:
 11677 0af3 6C765F64 		.ascii	"lv_design_mode_t\000"
 11677      65736967 
 11677      6E5F6D6F 
 11677      64655F74 
 11677      00
 11678              	.LASF64:
 11679 0b04 73756270 		.ascii	"subpx\000"
 11679      7800
 11680              	.LASF252:
 11681 0b0a 6C765F63 		.ascii	"lv_cont_layout_center\000"
 11681      6F6E745F 
 11681      6C61796F 
 11681      75745F63 
 11681      656E7465 
 11682              	.LASF124:
 11683 0b20 4C565F53 		.ascii	"LV_SIGNAL_PRESS_LOST\000"
 11683      49474E41 
 11683      4C5F5052 
 11683      4553535F 
 11683      4C4F5354 
 11684              	.LASF129:
ARM GAS  C:\Users\pearlstl\AppData\Local\Temp\cciL9yyu.s 			page 239


 11685 0b35 4C565F53 		.ascii	"LV_SIGNAL_DRAG_END\000"
 11685      49474E41 
 11685      4C5F4452 
 11685      41475F45 
 11685      4E4400
 11686              	.LASF117:
 11687 0b48 4C565F53 		.ascii	"LV_SIGNAL_PARENT_SIZE_CHG\000"
 11687      49474E41 
 11687      4C5F5041 
 11687      52454E54 
 11687      5F53495A 
 11688              	.LASF256:
 11689 0b62 6C617374 		.ascii	"last_cord\000"
 11689      5F636F72 
 11689      6400
 11690              	.LASF125:
 11691 0b6c 4C565F53 		.ascii	"LV_SIGNAL_RELEASED\000"
 11691      49474E41 
 11691      4C5F5245 
 11691      4C454153 
 11691      454400
 11692              	.LASF53:
 11693 0b7f 6D61696E 		.ascii	"main_color\000"
 11693      5F636F6C 
 11693      6F7200
 11694              	.LASF138:
 11695 0b8a 4C565F41 		.ascii	"LV_ALIGN_IN_TOP_MID\000"
 11695      4C49474E 
 11695      5F494E5F 
 11695      544F505F 
 11695      4D494400 
 11696              	.LASF0:
 11697 0b9e 5F5F696E 		.ascii	"__int8_t\000"
 11697      74385F74 
 11697      00
 11698              	.LASF134:
 11699 0ba7 6C765F73 		.ascii	"lv_signal_t\000"
 11699      69676E61 
 11699      6C5F7400 
 11700              	.LASF12:
 11701 0bb3 6C6F6E67 		.ascii	"long long unsigned int\000"
 11701      206C6F6E 
 11701      6720756E 
 11701      7369676E 
 11701      65642069 
 11702              	.LASF288:
 11703 0bca 6E65775F 		.ascii	"new_area\000"
 11703      61726561 
 11703      00
 11704              	.LASF173:
 11705 0bd3 4C565F50 		.ascii	"LV_PROTECT_CLICK_FOCUS\000"
 11705      524F5445 
 11705      43545F43 
 11705      4C49434B 
 11705      5F464F43 
 11706              	.LASF154:
 11707 0bea 4C565F41 		.ascii	"LV_ALIGN_OUT_RIGHT_TOP\000"
ARM GAS  C:\Users\pearlstl\AppData\Local\Temp\cciL9yyu.s 			page 240


 11707      4C49474E 
 11707      5F4F5554 
 11707      5F524947 
 11707      48545F54 
 11708              	.LASF17:
 11709 0c01 75696E74 		.ascii	"uint16_t\000"
 11709      31365F74 
 11709      00
 11710              	.LASF73:
 11711 0c0a 4C565F52 		.ascii	"LV_RES_OK\000"
 11711      45535F4F 
 11711      4B00
 11712              	.LASF263:
 11713 0c14 6368696C 		.ascii	"child_rc\000"
 11713      645F7263 
 11713      00
 11714              	.LASF38:
 11715 0c1d 6C765F63 		.ascii	"lv_color_t\000"
 11715      6F6C6F72 
 11715      5F7400
 11716              	.LASF301:
 11717 0c28 616E6365 		.ascii	"ancestor_signal\000"
 11717      73746F72 
 11717      5F736967 
 11717      6E616C00 
 11718              	.LASF262:
 11719 0c38 6368696C 		.ascii	"child_rs\000"
 11719      645F7273 
 11719      00
 11720              	.LASF286:
 11721 0c41 666C6F6F 		.ascii	"flood_area\000"
 11721      645F6172 
 11721      656100
 11722              	.LASF247:
 11723 0c4c 6C765F61 		.ascii	"lv_area_get_height\000"
 11723      7265615F 
 11723      6765745F 
 11723      68656967 
 11723      687400
 11724              	.LASF84:
 11725 0c5f 4C565F42 		.ascii	"LV_BIDI_DIR_NEUTRAL\000"
 11725      4944495F 
 11725      4449525F 
 11725      4E455554 
 11725      52414C00 
 11726              	.LASF191:
 11727 0c73 6C765F66 		.ascii	"lv_fit_t\000"
 11727      69745F74 
 11727      00
 11728              	.LASF196:
 11729 0c7c 6669745F 		.ascii	"fit_bottom\000"
 11729      626F7474 
 11729      6F6D00
 11730              	.LASF315:
 11731 0c87 6C765F6C 		.ascii	"lv_ll_get_next\000"
 11731      6C5F6765 
 11731      745F6E65 
ARM GAS  C:\Users\pearlstl\AppData\Local\Temp\cciL9yyu.s 			page 241


 11731      787400
 11732              	.LASF206:
 11733 0c96 6465636F 		.ascii	"decor\000"
 11733      7200
 11734              	.LASF226:
 11735 0c9c 696D6762 		.ascii	"imgbtn\000"
 11735      746E00
 11736              	.LASF308:
 11737 0ca3 6C765F6F 		.ascii	"lv_obj_set_protect\000"
 11737      626A5F73 
 11737      65745F70 
 11737      726F7465 
 11737      637400
 11738              	.LASF4:
 11739 0cb6 5F5F696E 		.ascii	"__int16_t\000"
 11739      7431365F 
 11739      7400
 11740              	.LASF224:
 11741 0cc0 70616E65 		.ascii	"panel\000"
 11741      6C00
 11742              	.LASF332:
 11743 0cc6 6C765F6F 		.ascii	"lv_obj_get_signal_cb\000"
 11743      626A5F67 
 11743      65745F73 
 11743      69676E61 
 11743      6C5F6362 
 11744              	.LASF249:
 11745 0cdb 64657374 		.ascii	"dest\000"
 11745      00
 11746              	.LASF82:
 11747 0ce0 4C565F42 		.ascii	"LV_BIDI_DIR_AUTO\000"
 11747      4944495F 
 11747      4449525F 
 11747      4155544F 
 11747      00
 11748              	.LASF307:
 11749 0cf1 6C765F6F 		.ascii	"lv_obj_get_height\000"
 11749      626A5F67 
 11749      65745F68 
 11749      65696768 
 11749      7400
 11750              	.LASF36:
 11751 0d03 66756C6C 		.ascii	"full\000"
 11751      00
 11752              	.LASF144:
 11753 0d08 4C565F41 		.ascii	"LV_ALIGN_IN_RIGHT_MID\000"
 11753      4C49474E 
 11753      5F494E5F 
 11753      52494748 
 11753      545F4D49 
 11754              	.LASF45:
 11755 0d1e 636F6C6F 		.ascii	"color\000"
 11755      7200
 11756              	.LASF62:
 11757 0d24 6C696E65 		.ascii	"line_space\000"
 11757      5F737061 
 11757      636500
ARM GAS  C:\Users\pearlstl\AppData\Local\Temp\cciL9yyu.s 			page 242


 11758              	.LASF159:
 11759 0d2f 786F6673 		.ascii	"xofs\000"
 11759      00
 11760              	.LASF194:
 11761 0d34 6669745F 		.ascii	"fit_right\000"
 11761      72696768 
 11761      7400
 11762              	.LASF190:
 11763 0d3e 5F4C565F 		.ascii	"_LV_FIT_NUM\000"
 11763      4649545F 
 11763      4E554D00 
 11764              	.LASF166:
 11765 0d4a 6C765F6F 		.ascii	"lv_obj_t\000"
 11765      626A5F74 
 11765      00
 11766              	.LASF183:
 11767 0d53 4C565F4C 		.ascii	"LV_LAYOUT_GRID\000"
 11767      41594F55 
 11767      545F4752 
 11767      494400
 11768              	.LASF44:
 11769 0d62 6C765F73 		.ascii	"lv_shadow_type_t\000"
 11769      6861646F 
 11769      775F7479 
 11769      70655F74 
 11769      00
 11770              	.LASF97:
 11771 0d73 64726167 		.ascii	"drag\000"
 11771      00
 11772              	.LASF338:
 11773 0d78 6C765F73 		.ascii	"lv_style_pretty\000"
 11773      74796C65 
 11773      5F707265 
 11773      74747900 
 11774              	.LASF189:
 11775 0d88 4C565F46 		.ascii	"LV_FIT_FILL\000"
 11775      49545F46 
 11775      494C4C00 
 11776              	.LASF88:
 11777 0d94 5F6C765F 		.ascii	"_lv_obj_t\000"
 11777      6F626A5F 
 11777      7400
 11778              	.LASF137:
 11779 0d9e 4C565F41 		.ascii	"LV_ALIGN_IN_TOP_LEFT\000"
 11779      4C49474E 
 11779      5F494E5F 
 11779      544F505F 
 11779      4C454654 
 11780              	.LASF60:
 11781 0db3 666F6E74 		.ascii	"font\000"
 11781      00
 11782              	.LASF61:
 11783 0db8 6C657474 		.ascii	"letter_space\000"
 11783      65725F73 
 11783      70616365 
 11783      00
 11784              	.LASF233:
ARM GAS  C:\Users\pearlstl\AppData\Local\Temp\cciL9yyu.s 			page 243


 11785 0dc5 63616C65 		.ascii	"calendar\000"
 11785      6E646172 
 11785      00
 11786              	.LASF264:
 11787 0dce 6368696C 		.ascii	"child_tmp\000"
 11787      645F746D 
 11787      7000
 11788              	.LASF104:
 11789 0dd8 62617365 		.ascii	"base_dir\000"
 11789      5F646972 
 11789      00
 11790              	.LASF168:
 11791 0de1 4C565F50 		.ascii	"LV_PROTECT_CHILD_CHG\000"
 11791      524F5445 
 11791      43545F43 
 11791      48494C44 
 11791      5F434847 
 11792              	.LASF172:
 11793 0df6 4C565F50 		.ascii	"LV_PROTECT_PRESS_LOST\000"
 11793      524F5445 
 11793      43545F50 
 11793      52455353 
 11793      5F4C4F53 
 11794              	.LASF23:
 11795 0e0c 626F785F 		.ascii	"box_h\000"
 11795      6800
 11796              	.LASF273:
 11797 0e12 6C765F63 		.ascii	"lv_cont_layout_grid\000"
 11797      6F6E745F 
 11797      6C61796F 
 11797      75745F67 
 11797      72696400 
 11798              	.LASF158:
 11799 0e26 62617365 		.ascii	"base\000"
 11799      00
 11800              	.LASF22:
 11801 0e2b 626F785F 		.ascii	"box_w\000"
 11801      7700
 11802              	.LASF5:
 11803 0e31 73686F72 		.ascii	"short int\000"
 11803      7420696E 
 11803      7400
 11804              	.LASF30:
 11805 0e3b 62617365 		.ascii	"base_line\000"
 11805      5F6C696E 
 11805      6500
 11806              	.LASF79:
 11807 0e45 6C765F6C 		.ascii	"lv_ll_t\000"
 11807      6C5F7400 
 11808              	.LASF147:
 11809 0e4d 4C565F41 		.ascii	"LV_ALIGN_OUT_TOP_RIGHT\000"
 11809      4C49474E 
 11809      5F4F5554 
 11809      5F544F50 
 11809      5F524947 
 11810              	.LASF16:
 11811 0e64 696E7431 		.ascii	"int16_t\000"
ARM GAS  C:\Users\pearlstl\AppData\Local\Temp\cciL9yyu.s 			page 244


 11811      365F7400 
 11812              	.LASF335:
 11813 0e6c 433A5C55 		.ascii	"C:\\Users\\pearlstl\\Documents\\_Research\\projects"
 11813      73657273 
 11813      5C706561 
 11813      726C7374 
 11813      6C5C446F 
 11814 0e9a 5C74636F 		.ascii	"\\tcom_engineering\\embed_sw\\tcom_app\\tcom_app_ps"
 11814      6D5F656E 
 11814      67696E65 
 11814      6572696E 
 11814      675C656D 
 11815 0ec9 6F63365F 		.ascii	"oc6_lvgl6\\tcom_displ_test_psoc6.cydsn\000"
 11815      6C76676C 
 11815      365C7463 
 11815      6F6D5F64 
 11815      6973706C 
 11816              	.LASF116:
 11817 0eef 4C565F53 		.ascii	"LV_SIGNAL_CORD_CHG\000"
 11817      49474E41 
 11817      4C5F434F 
 11817      52445F43 
 11817      484700
 11818              	.LASF90:
 11819 0f02 636F6F72 		.ascii	"coords\000"
 11819      647300
 11820              	.LASF237:
 11821 0f09 7370696E 		.ascii	"spinbox\000"
 11821      626F7800 
 11822              	.LASF101:
 11823 0f11 6F70615F 		.ascii	"opa_scale_en\000"
 11823      7363616C 
 11823      655F656E 
 11823      00
 11824              	.LASF213:
 11825 0f1e 6461795F 		.ascii	"day_names\000"
 11825      6E616D65 
 11825      7300
 11826              	.LASF325:
 11827 0f28 6C765F6F 		.ascii	"lv_obj_handle_get_type_signal\000"
 11827      626A5F68 
 11827      616E646C 
 11827      655F6765 
 11827      745F7479 
 11828              	.LASF57:
 11829 0f46 73686164 		.ascii	"shadow\000"
 11829      6F7700
 11830              	.LASF306:
 11831 0f4d 6C765F6F 		.ascii	"lv_obj_get_width_fit\000"
 11831      626A5F67 
 11831      65745F77 
 11831      69647468 
 11831      5F666974 
 11832              	.LASF185:
 11833 0f62 6C765F6C 		.ascii	"lv_layout_t\000"
 11833      61796F75 
 11833      745F7400 
ARM GAS  C:\Users\pearlstl\AppData\Local\Temp\cciL9yyu.s 			page 245


 11834              	.LASF246:
 11835 0f6e 6C765F61 		.ascii	"lv_area_get_width\000"
 11835      7265615F 
 11835      6765745F 
 11835      77696474 
 11835      6800
 11836              	.LASF143:
 11837 0f80 4C565F41 		.ascii	"LV_ALIGN_IN_LEFT_MID\000"
 11837      4C49474E 
 11837      5F494E5F 
 11837      4C454654 
 11837      5F4D4944 
 11838              	.LASF99:
 11839 0f95 64726167 		.ascii	"drag_parent\000"
 11839      5F706172 
 11839      656E7400 
 11840              	.LASF119:
 11841 0fa1 4C565F53 		.ascii	"LV_SIGNAL_BASE_DIR_CHG\000"
 11841      49474E41 
 11841      4C5F4241 
 11841      53455F44 
 11841      49525F43 
 11842              	.LASF146:
 11843 0fb8 4C565F41 		.ascii	"LV_ALIGN_OUT_TOP_MID\000"
 11843      4C49474E 
 11843      5F4F5554 
 11843      5F544F50 
 11843      5F4D4944 
 11844              	.LASF81:
 11845 0fcd 4C565F42 		.ascii	"LV_BIDI_DIR_RTL\000"
 11845      4944495F 
 11845      4449525F 
 11845      52544C00 
 11846              	.LASF327:
 11847 0fdd 6C765F6F 		.ascii	"lv_obj_set_style\000"
 11847      626A5F73 
 11847      65745F73 
 11847      74796C65 
 11847      00
 11848              	.LASF223:
 11849 0fee 636F6E74 		.ascii	"content\000"
 11849      656E7400 
 11850              	.LASF58:
 11851 0ff6 70616464 		.ascii	"padding\000"
 11851      696E6700 
 11852              	.LASF261:
 11853 0ffe 6C765F63 		.ascii	"lv_cont_layout_pretty\000"
 11853      6F6E745F 
 11853      6C61796F 
 11853      75745F70 
 11853      72657474 
 11854              	.LASF187:
 11855 1014 4C565F46 		.ascii	"LV_FIT_TIGHT\000"
 11855      49545F54 
 11855      49474854 
 11855      00
 11856              	.LASF92:
ARM GAS  C:\Users\pearlstl\AppData\Local\Temp\cciL9yyu.s 			page 246


 11857 1021 7369676E 		.ascii	"signal_cb\000"
 11857      616C5F63 
 11857      6200
 11858              	.LASF18:
 11859 102b 75696E74 		.ascii	"uint32_t\000"
 11859      33325F74 
 11859      00
 11860              	.LASF279:
 11861 1034 795F6F66 		.ascii	"y_ofs\000"
 11861      7300
 11862              	.LASF311:
 11863 103a 6C765F6F 		.ascii	"lv_obj_get_hidden\000"
 11863      626A5F67 
 11863      65745F68 
 11863      69646465 
 11863      6E00
 11864              	.LASF151:
 11865 104c 4C565F41 		.ascii	"LV_ALIGN_OUT_LEFT_TOP\000"
 11865      4C49474E 
 11865      5F4F5554 
 11865      5F4C4546 
 11865      545F544F 
 11866              	.LASF287:
 11867 1062 6861735F 		.ascii	"has_children\000"
 11867      6368696C 
 11867      6472656E 
 11867      00
 11868              	.LASF205:
 11869 106f 6461726B 		.ascii	"dark\000"
 11869      00
 11870              	.LASF34:
 11871 1074 67726565 		.ascii	"green\000"
 11871      6E00
 11872              	.LASF32:
 11873 107a 6C765F66 		.ascii	"lv_font_t\000"
 11873      6F6E745F 
 11873      7400
 11874              	.LASF105:
 11875 1084 72657365 		.ascii	"reserved\000"
 11875      72766564 
 11875      00
 11876              	.LASF320:
 11877 108d 6C765F6F 		.ascii	"lv_obj_get_coords\000"
 11877      626A5F67 
 11877      65745F63 
 11877      6F6F7264 
 11877      7300
 11878              	.LASF297:
 11879 109f 6C765F63 		.ascii	"lv_cont_get_fit_left\000"
 11879      6F6E745F 
 11879      6765745F 
 11879      6669745F 
 11879      6C656674 
 11880              	.LASF7:
 11881 10b4 73686F72 		.ascii	"short unsigned int\000"
 11881      7420756E 
 11881      7369676E 
ARM GAS  C:\Users\pearlstl\AppData\Local\Temp\cciL9yyu.s 			page 247


 11881      65642069 
 11881      6E7400
 11882              	.LASF19:
 11883 10c7 6C765F63 		.ascii	"lv_coord_t\000"
 11883      6F6F7264 
 11883      5F7400
 11884              	.LASF257:
 11885 10d2 6C765F63 		.ascii	"lv_cont_layout_col\000"
 11885      6F6E745F 
 11885      6C61796F 
 11885      75745F63 
 11885      6F6C00
 11886              	.LASF175:
 11887 10e5 4C565F4C 		.ascii	"LV_LAYOUT_CENTER\000"
 11887      41594F55 
 11887      545F4345 
 11887      4E544552 
 11887      00
 11888              	.LASF56:
 11889 10f6 626F7264 		.ascii	"border\000"
 11889      657200
 11890              	.LASF314:
 11891 10fd 6C765F6C 		.ascii	"lv_ll_get_head\000"
 11891      6C5F6765 
 11891      745F6865 
 11891      616400
 11892              	.LASF227:
 11893 110c 6C616265 		.ascii	"label\000"
 11893      6C00
 11894              	.LASF27:
 11895 1112 6765745F 		.ascii	"get_glyph_dsc\000"
 11895      676C7970 
 11895      685F6473 
 11895      6300
 11896              	.LASF228:
 11897 1120 736C6964 		.ascii	"slider\000"
 11897      657200
 11898              	.LASF43:
 11899 1127 6C765F62 		.ascii	"lv_border_part_t\000"
 11899      6F726465 
 11899      725F7061 
 11899      72745F74 
 11899      00
 11900              	.LASF113:
 11901 1138 6C765F65 		.ascii	"lv_event_cb_t\000"
 11901      76656E74 
 11901      5F63625F 
 11901      7400
 11902              	.LASF284:
 11903 1146 6368696C 		.ascii	"child_i\000"
 11903      645F6900 
 11904              	.LASF231:
 11905 114e 7072656C 		.ascii	"preload\000"
 11905      6F616400 
 11906              	.LASF259:
 11907 1156 6C765F63 		.ascii	"lv_cont_layout_row\000"
 11907      6F6E745F 
ARM GAS  C:\Users\pearlstl\AppData\Local\Temp\cciL9yyu.s 			page 248


 11907      6C61796F 
 11907      75745F72 
 11907      6F7700
 11908              	.LASF163:
 11909 1169 6F726967 		.ascii	"origo_align\000"
 11909      6F5F616C 
 11909      69676E00 
 11910              	.LASF208:
 11911 1175 6B6E6F62 		.ascii	"knob\000"
 11911      00
 11912              	.LASF59:
 11913 117a 73656C5F 		.ascii	"sel_color\000"
 11913      636F6C6F 
 11913      7200
 11914              	.LASF322:
 11915 1184 6C765F6F 		.ascii	"lv_obj_invalidate\000"
 11915      626A5F69 
 11915      6E76616C 
 11915      69646174 
 11915      6500
 11916              	.LASF258:
 11917 1196 68706164 		.ascii	"hpad_corr\000"
 11917      5F636F72 
 11917      7200
 11918              	.LASF87:
 11919 11a0 5F6C765F 		.ascii	"_lv_font_struct\000"
 11919      666F6E74 
 11919      5F737472 
 11919      75637400 
 11920              	.LASF47:
 11921 11b0 70617274 		.ascii	"part\000"
 11921      00
 11922              	.LASF76:
 11923 11b5 6E5F7369 		.ascii	"n_size\000"
 11923      7A6500
 11924              	.LASF221:
 11925 11bc 63757273 		.ascii	"cursor\000"
 11925      6F7200
 11926              	.LASF111:
 11927 11c3 6C765F64 		.ascii	"lv_design_cb_t\000"
 11927      65736967 
 11927      6E5F6362 
 11927      5F7400
 11928              	.LASF328:
 11929 11d2 6C765F74 		.ascii	"lv_theme_get_current\000"
 11929      68656D65 
 11929      5F676574 
 11929      5F637572 
 11929      72656E74 
 11930              	.LASF107:
 11931 11e7 6F70615F 		.ascii	"opa_scale\000"
 11931      7363616C 
 11931      6500
 11932              	.LASF240:
 11933 11f1 726F6C6C 		.ascii	"roller\000"
 11933      657200
 11934              		.ident	"GCC: (GNU Tools for ARM Embedded Processors) 5.4.1 20160609 (release) [ARM/embedded-5-bran
ARM GAS  C:\Users\pearlstl\AppData\Local\Temp\cciL9yyu.s 			page 249


