ARM GAS  C:\Users\pearlstl\AppData\Local\Temp\cciL9yyu.s 			page 1


   1              		.syntax unified
   2              		.cpu cortex-m4
   3              		.eabi_attribute 27, 1
   4              		.fpu fpv4-sp-d16
   5              		.eabi_attribute 20, 1
   6              		.eabi_attribute 21, 1
   7              		.eabi_attribute 23, 3
   8              		.eabi_attribute 24, 1
   9              		.eabi_attribute 25, 1
  10              		.eabi_attribute 26, 1
  11              		.eabi_attribute 30, 2
  12              		.eabi_attribute 34, 1
  13              		.eabi_attribute 18, 4
  14              		.thumb
  15              		.syntax unified
  16              		.file	"lv_cont.c"
  17              		.text
  18              	.Ltext0:
  19              		.cfi_sections	.debug_frame
  20              		.section	.text.lv_cont_refr_layout,"ax",%progbits
  21              		.align	2
  22              		.thumb
  23              		.thumb_func
  24              		.type	lv_cont_refr_layout, %function
  25              	lv_cont_refr_layout:
  26              	.LFB44:
  27              		.file 1 "..\\..\\..\\lvgl\\version_6.1.2\\lvgl\\src\\lv_objx\\lv_cont.c"
   1:..\..\..\lvgl\version_6.1.2\lvgl\src\lv_objx/lv_cont.c **** /**
   2:..\..\..\lvgl\version_6.1.2\lvgl\src\lv_objx/lv_cont.c ****  * @file lv_cont.c
   3:..\..\..\lvgl\version_6.1.2\lvgl\src\lv_objx/lv_cont.c ****  *
   4:..\..\..\lvgl\version_6.1.2\lvgl\src\lv_objx/lv_cont.c ****  */
   5:..\..\..\lvgl\version_6.1.2\lvgl\src\lv_objx/lv_cont.c **** 
   6:..\..\..\lvgl\version_6.1.2\lvgl\src\lv_objx/lv_cont.c **** /*********************
   7:..\..\..\lvgl\version_6.1.2\lvgl\src\lv_objx/lv_cont.c ****  *      INCLUDES
   8:..\..\..\lvgl\version_6.1.2\lvgl\src\lv_objx/lv_cont.c ****  *********************/
   9:..\..\..\lvgl\version_6.1.2\lvgl\src\lv_objx/lv_cont.c **** 
  10:..\..\..\lvgl\version_6.1.2\lvgl\src\lv_objx/lv_cont.c **** #include "lv_cont.h"
  11:..\..\..\lvgl\version_6.1.2\lvgl\src\lv_objx/lv_cont.c **** #if LV_USE_CONT != 0
  12:..\..\..\lvgl\version_6.1.2\lvgl\src\lv_objx/lv_cont.c **** 
  13:..\..\..\lvgl\version_6.1.2\lvgl\src\lv_objx/lv_cont.c **** #include <stdbool.h>
  14:..\..\..\lvgl\version_6.1.2\lvgl\src\lv_objx/lv_cont.c **** #include <stdint.h>
  15:..\..\..\lvgl\version_6.1.2\lvgl\src\lv_objx/lv_cont.c **** #include <string.h>
  16:..\..\..\lvgl\version_6.1.2\lvgl\src\lv_objx/lv_cont.c **** 
  17:..\..\..\lvgl\version_6.1.2\lvgl\src\lv_objx/lv_cont.c **** #include "../lv_core/lv_debug.h"
  18:..\..\..\lvgl\version_6.1.2\lvgl\src\lv_objx/lv_cont.c **** #include "../lv_draw/lv_draw.h"
  19:..\..\..\lvgl\version_6.1.2\lvgl\src\lv_objx/lv_cont.c **** #include "../lv_draw/lv_draw_basic.h"
  20:..\..\..\lvgl\version_6.1.2\lvgl\src\lv_objx/lv_cont.c **** #include "../lv_themes/lv_theme.h"
  21:..\..\..\lvgl\version_6.1.2\lvgl\src\lv_objx/lv_cont.c **** #include "../lv_misc/lv_area.h"
  22:..\..\..\lvgl\version_6.1.2\lvgl\src\lv_objx/lv_cont.c **** #include "../lv_misc/lv_color.h"
  23:..\..\..\lvgl\version_6.1.2\lvgl\src\lv_objx/lv_cont.c **** #include "../lv_misc/lv_math.h"
  24:..\..\..\lvgl\version_6.1.2\lvgl\src\lv_objx/lv_cont.c **** #include "../lv_misc/lv_bidi.h"
  25:..\..\..\lvgl\version_6.1.2\lvgl\src\lv_objx/lv_cont.c **** 
  26:..\..\..\lvgl\version_6.1.2\lvgl\src\lv_objx/lv_cont.c **** /*********************
  27:..\..\..\lvgl\version_6.1.2\lvgl\src\lv_objx/lv_cont.c ****  *      DEFINES
  28:..\..\..\lvgl\version_6.1.2\lvgl\src\lv_objx/lv_cont.c ****  *********************/
  29:..\..\..\lvgl\version_6.1.2\lvgl\src\lv_objx/lv_cont.c **** #define LV_OBJX_NAME "lv_cont"
  30:..\..\..\lvgl\version_6.1.2\lvgl\src\lv_objx/lv_cont.c **** 
ARM GAS  C:\Users\pearlstl\AppData\Local\Temp\cciL9yyu.s 			page 2


  31:..\..\..\lvgl\version_6.1.2\lvgl\src\lv_objx/lv_cont.c **** /**********************
  32:..\..\..\lvgl\version_6.1.2\lvgl\src\lv_objx/lv_cont.c ****  *      TYPEDEFS
  33:..\..\..\lvgl\version_6.1.2\lvgl\src\lv_objx/lv_cont.c ****  **********************/
  34:..\..\..\lvgl\version_6.1.2\lvgl\src\lv_objx/lv_cont.c **** 
  35:..\..\..\lvgl\version_6.1.2\lvgl\src\lv_objx/lv_cont.c **** /**********************
  36:..\..\..\lvgl\version_6.1.2\lvgl\src\lv_objx/lv_cont.c ****  *  STATIC PROTOTYPES
  37:..\..\..\lvgl\version_6.1.2\lvgl\src\lv_objx/lv_cont.c ****  **********************/
  38:..\..\..\lvgl\version_6.1.2\lvgl\src\lv_objx/lv_cont.c **** static lv_res_t lv_cont_signal(lv_obj_t * cont, lv_signal_t sign, void * param);
  39:..\..\..\lvgl\version_6.1.2\lvgl\src\lv_objx/lv_cont.c **** static void lv_cont_refr_layout(lv_obj_t * cont);
  40:..\..\..\lvgl\version_6.1.2\lvgl\src\lv_objx/lv_cont.c **** static void lv_cont_layout_col(lv_obj_t * cont);
  41:..\..\..\lvgl\version_6.1.2\lvgl\src\lv_objx/lv_cont.c **** static void lv_cont_layout_row(lv_obj_t * cont);
  42:..\..\..\lvgl\version_6.1.2\lvgl\src\lv_objx/lv_cont.c **** static void lv_cont_layout_center(lv_obj_t * cont);
  43:..\..\..\lvgl\version_6.1.2\lvgl\src\lv_objx/lv_cont.c **** static void lv_cont_layout_pretty(lv_obj_t * cont);
  44:..\..\..\lvgl\version_6.1.2\lvgl\src\lv_objx/lv_cont.c **** static void lv_cont_layout_grid(lv_obj_t * cont);
  45:..\..\..\lvgl\version_6.1.2\lvgl\src\lv_objx/lv_cont.c **** static void lv_cont_refr_autofit(lv_obj_t * cont);
  46:..\..\..\lvgl\version_6.1.2\lvgl\src\lv_objx/lv_cont.c **** 
  47:..\..\..\lvgl\version_6.1.2\lvgl\src\lv_objx/lv_cont.c **** /**********************
  48:..\..\..\lvgl\version_6.1.2\lvgl\src\lv_objx/lv_cont.c ****  *  STATIC VARIABLES
  49:..\..\..\lvgl\version_6.1.2\lvgl\src\lv_objx/lv_cont.c ****  **********************/
  50:..\..\..\lvgl\version_6.1.2\lvgl\src\lv_objx/lv_cont.c **** static lv_signal_cb_t ancestor_signal;
  51:..\..\..\lvgl\version_6.1.2\lvgl\src\lv_objx/lv_cont.c **** 
  52:..\..\..\lvgl\version_6.1.2\lvgl\src\lv_objx/lv_cont.c **** /**********************
  53:..\..\..\lvgl\version_6.1.2\lvgl\src\lv_objx/lv_cont.c ****  *      MACROS
  54:..\..\..\lvgl\version_6.1.2\lvgl\src\lv_objx/lv_cont.c ****  **********************/
  55:..\..\..\lvgl\version_6.1.2\lvgl\src\lv_objx/lv_cont.c **** 
  56:..\..\..\lvgl\version_6.1.2\lvgl\src\lv_objx/lv_cont.c **** /**********************
  57:..\..\..\lvgl\version_6.1.2\lvgl\src\lv_objx/lv_cont.c ****  *   GLOBAL FUNCTIONS
  58:..\..\..\lvgl\version_6.1.2\lvgl\src\lv_objx/lv_cont.c ****  **********************/
  59:..\..\..\lvgl\version_6.1.2\lvgl\src\lv_objx/lv_cont.c **** 
  60:..\..\..\lvgl\version_6.1.2\lvgl\src\lv_objx/lv_cont.c **** /**
  61:..\..\..\lvgl\version_6.1.2\lvgl\src\lv_objx/lv_cont.c ****  * Create a container objects
  62:..\..\..\lvgl\version_6.1.2\lvgl\src\lv_objx/lv_cont.c ****  * @param par pointer to an object, it will be the parent of the new container
  63:..\..\..\lvgl\version_6.1.2\lvgl\src\lv_objx/lv_cont.c ****  * @param copy pointer to a container object, if not NULL then the new object will be copied from i
  64:..\..\..\lvgl\version_6.1.2\lvgl\src\lv_objx/lv_cont.c ****  * @return pointer to the created container
  65:..\..\..\lvgl\version_6.1.2\lvgl\src\lv_objx/lv_cont.c ****  */
  66:..\..\..\lvgl\version_6.1.2\lvgl\src\lv_objx/lv_cont.c **** lv_obj_t * lv_cont_create(lv_obj_t * par, const lv_obj_t * copy)
  67:..\..\..\lvgl\version_6.1.2\lvgl\src\lv_objx/lv_cont.c **** {
  68:..\..\..\lvgl\version_6.1.2\lvgl\src\lv_objx/lv_cont.c **** 
  69:..\..\..\lvgl\version_6.1.2\lvgl\src\lv_objx/lv_cont.c ****     LV_LOG_TRACE("container create started");
  70:..\..\..\lvgl\version_6.1.2\lvgl\src\lv_objx/lv_cont.c **** 
  71:..\..\..\lvgl\version_6.1.2\lvgl\src\lv_objx/lv_cont.c ****     /*Create a basic object*/
  72:..\..\..\lvgl\version_6.1.2\lvgl\src\lv_objx/lv_cont.c ****     lv_obj_t * new_cont = lv_obj_create(par, copy);
  73:..\..\..\lvgl\version_6.1.2\lvgl\src\lv_objx/lv_cont.c ****     LV_ASSERT_MEM(new_cont);
  74:..\..\..\lvgl\version_6.1.2\lvgl\src\lv_objx/lv_cont.c ****     if(new_cont == NULL) return NULL;
  75:..\..\..\lvgl\version_6.1.2\lvgl\src\lv_objx/lv_cont.c **** 
  76:..\..\..\lvgl\version_6.1.2\lvgl\src\lv_objx/lv_cont.c ****     if(ancestor_signal == NULL) ancestor_signal = lv_obj_get_signal_cb(new_cont);
  77:..\..\..\lvgl\version_6.1.2\lvgl\src\lv_objx/lv_cont.c **** 
  78:..\..\..\lvgl\version_6.1.2\lvgl\src\lv_objx/lv_cont.c ****     lv_obj_allocate_ext_attr(new_cont, sizeof(lv_cont_ext_t));
  79:..\..\..\lvgl\version_6.1.2\lvgl\src\lv_objx/lv_cont.c ****     lv_cont_ext_t * ext = lv_obj_get_ext_attr(new_cont);
  80:..\..\..\lvgl\version_6.1.2\lvgl\src\lv_objx/lv_cont.c ****     if(ext == NULL) return NULL;
  81:..\..\..\lvgl\version_6.1.2\lvgl\src\lv_objx/lv_cont.c **** 
  82:..\..\..\lvgl\version_6.1.2\lvgl\src\lv_objx/lv_cont.c ****     LV_ASSERT_MEM(ext);
  83:..\..\..\lvgl\version_6.1.2\lvgl\src\lv_objx/lv_cont.c ****     ext->fit_left   = LV_FIT_NONE;
  84:..\..\..\lvgl\version_6.1.2\lvgl\src\lv_objx/lv_cont.c ****     ext->fit_right  = LV_FIT_NONE;
  85:..\..\..\lvgl\version_6.1.2\lvgl\src\lv_objx/lv_cont.c ****     ext->fit_top    = LV_FIT_NONE;
  86:..\..\..\lvgl\version_6.1.2\lvgl\src\lv_objx/lv_cont.c ****     ext->fit_bottom = LV_FIT_NONE;
  87:..\..\..\lvgl\version_6.1.2\lvgl\src\lv_objx/lv_cont.c ****     ext->layout     = LV_LAYOUT_OFF;
ARM GAS  C:\Users\pearlstl\AppData\Local\Temp\cciL9yyu.s 			page 3


  88:..\..\..\lvgl\version_6.1.2\lvgl\src\lv_objx/lv_cont.c **** 
  89:..\..\..\lvgl\version_6.1.2\lvgl\src\lv_objx/lv_cont.c ****     lv_obj_set_signal_cb(new_cont, lv_cont_signal);
  90:..\..\..\lvgl\version_6.1.2\lvgl\src\lv_objx/lv_cont.c **** 
  91:..\..\..\lvgl\version_6.1.2\lvgl\src\lv_objx/lv_cont.c ****     /*Init the new container*/
  92:..\..\..\lvgl\version_6.1.2\lvgl\src\lv_objx/lv_cont.c ****     if(copy == NULL) {
  93:..\..\..\lvgl\version_6.1.2\lvgl\src\lv_objx/lv_cont.c ****         /*Set the default styles if it's not screen*/
  94:..\..\..\lvgl\version_6.1.2\lvgl\src\lv_objx/lv_cont.c ****         if(par != NULL) {
  95:..\..\..\lvgl\version_6.1.2\lvgl\src\lv_objx/lv_cont.c ****             lv_theme_t * th = lv_theme_get_current();
  96:..\..\..\lvgl\version_6.1.2\lvgl\src\lv_objx/lv_cont.c ****             if(th) {
  97:..\..\..\lvgl\version_6.1.2\lvgl\src\lv_objx/lv_cont.c ****                 lv_cont_set_style(new_cont, LV_CONT_STYLE_MAIN, th->style.cont);
  98:..\..\..\lvgl\version_6.1.2\lvgl\src\lv_objx/lv_cont.c ****             } else {
  99:..\..\..\lvgl\version_6.1.2\lvgl\src\lv_objx/lv_cont.c ****                 lv_cont_set_style(new_cont, LV_CONT_STYLE_MAIN, &lv_style_pretty);
 100:..\..\..\lvgl\version_6.1.2\lvgl\src\lv_objx/lv_cont.c ****             }
 101:..\..\..\lvgl\version_6.1.2\lvgl\src\lv_objx/lv_cont.c ****         }
 102:..\..\..\lvgl\version_6.1.2\lvgl\src\lv_objx/lv_cont.c ****     }
 103:..\..\..\lvgl\version_6.1.2\lvgl\src\lv_objx/lv_cont.c ****     /*Copy an existing object*/
 104:..\..\..\lvgl\version_6.1.2\lvgl\src\lv_objx/lv_cont.c ****     else {
 105:..\..\..\lvgl\version_6.1.2\lvgl\src\lv_objx/lv_cont.c ****         lv_cont_ext_t * copy_ext = lv_obj_get_ext_attr(copy);
 106:..\..\..\lvgl\version_6.1.2\lvgl\src\lv_objx/lv_cont.c ****         ext->fit_left            = copy_ext->fit_left;
 107:..\..\..\lvgl\version_6.1.2\lvgl\src\lv_objx/lv_cont.c ****         ext->fit_right           = copy_ext->fit_right;
 108:..\..\..\lvgl\version_6.1.2\lvgl\src\lv_objx/lv_cont.c ****         ext->fit_top             = copy_ext->fit_top;
 109:..\..\..\lvgl\version_6.1.2\lvgl\src\lv_objx/lv_cont.c ****         ext->fit_bottom          = copy_ext->fit_bottom;
 110:..\..\..\lvgl\version_6.1.2\lvgl\src\lv_objx/lv_cont.c ****         ext->layout              = copy_ext->layout;
 111:..\..\..\lvgl\version_6.1.2\lvgl\src\lv_objx/lv_cont.c **** 
 112:..\..\..\lvgl\version_6.1.2\lvgl\src\lv_objx/lv_cont.c ****         /*Refresh the style with new signal function*/
 113:..\..\..\lvgl\version_6.1.2\lvgl\src\lv_objx/lv_cont.c ****         lv_obj_refresh_style(new_cont);
 114:..\..\..\lvgl\version_6.1.2\lvgl\src\lv_objx/lv_cont.c ****     }
 115:..\..\..\lvgl\version_6.1.2\lvgl\src\lv_objx/lv_cont.c **** 
 116:..\..\..\lvgl\version_6.1.2\lvgl\src\lv_objx/lv_cont.c ****     LV_LOG_INFO("container created");
 117:..\..\..\lvgl\version_6.1.2\lvgl\src\lv_objx/lv_cont.c **** 
 118:..\..\..\lvgl\version_6.1.2\lvgl\src\lv_objx/lv_cont.c ****     return new_cont;
 119:..\..\..\lvgl\version_6.1.2\lvgl\src\lv_objx/lv_cont.c **** }
 120:..\..\..\lvgl\version_6.1.2\lvgl\src\lv_objx/lv_cont.c **** 
 121:..\..\..\lvgl\version_6.1.2\lvgl\src\lv_objx/lv_cont.c **** /*=====================
 122:..\..\..\lvgl\version_6.1.2\lvgl\src\lv_objx/lv_cont.c ****  * Setter functions
 123:..\..\..\lvgl\version_6.1.2\lvgl\src\lv_objx/lv_cont.c ****  *====================*/
 124:..\..\..\lvgl\version_6.1.2\lvgl\src\lv_objx/lv_cont.c **** 
 125:..\..\..\lvgl\version_6.1.2\lvgl\src\lv_objx/lv_cont.c **** /**
 126:..\..\..\lvgl\version_6.1.2\lvgl\src\lv_objx/lv_cont.c ****  * Set a layout on a container
 127:..\..\..\lvgl\version_6.1.2\lvgl\src\lv_objx/lv_cont.c ****  * @param cont pointer to a container object
 128:..\..\..\lvgl\version_6.1.2\lvgl\src\lv_objx/lv_cont.c ****  * @param layout a layout from 'lv_cont_layout_t'
 129:..\..\..\lvgl\version_6.1.2\lvgl\src\lv_objx/lv_cont.c ****  */
 130:..\..\..\lvgl\version_6.1.2\lvgl\src\lv_objx/lv_cont.c **** void lv_cont_set_layout(lv_obj_t * cont, lv_layout_t layout)
 131:..\..\..\lvgl\version_6.1.2\lvgl\src\lv_objx/lv_cont.c **** {
 132:..\..\..\lvgl\version_6.1.2\lvgl\src\lv_objx/lv_cont.c ****     LV_ASSERT_OBJ(cont, LV_OBJX_NAME);
 133:..\..\..\lvgl\version_6.1.2\lvgl\src\lv_objx/lv_cont.c **** 
 134:..\..\..\lvgl\version_6.1.2\lvgl\src\lv_objx/lv_cont.c ****     lv_cont_ext_t * ext = lv_obj_get_ext_attr(cont);
 135:..\..\..\lvgl\version_6.1.2\lvgl\src\lv_objx/lv_cont.c ****     if(ext->layout == layout) return;
 136:..\..\..\lvgl\version_6.1.2\lvgl\src\lv_objx/lv_cont.c **** 
 137:..\..\..\lvgl\version_6.1.2\lvgl\src\lv_objx/lv_cont.c ****     ext->layout = layout;
 138:..\..\..\lvgl\version_6.1.2\lvgl\src\lv_objx/lv_cont.c **** 
 139:..\..\..\lvgl\version_6.1.2\lvgl\src\lv_objx/lv_cont.c ****     /*Send a signal to refresh the layout*/
 140:..\..\..\lvgl\version_6.1.2\lvgl\src\lv_objx/lv_cont.c ****     cont->signal_cb(cont, LV_SIGNAL_CHILD_CHG, NULL);
 141:..\..\..\lvgl\version_6.1.2\lvgl\src\lv_objx/lv_cont.c **** }
 142:..\..\..\lvgl\version_6.1.2\lvgl\src\lv_objx/lv_cont.c **** 
 143:..\..\..\lvgl\version_6.1.2\lvgl\src\lv_objx/lv_cont.c **** /**
 144:..\..\..\lvgl\version_6.1.2\lvgl\src\lv_objx/lv_cont.c ****  * Set the fit policy in all 4 directions separately.
ARM GAS  C:\Users\pearlstl\AppData\Local\Temp\cciL9yyu.s 			page 4


 145:..\..\..\lvgl\version_6.1.2\lvgl\src\lv_objx/lv_cont.c ****  * It tell how to change the container's size automatically.
 146:..\..\..\lvgl\version_6.1.2\lvgl\src\lv_objx/lv_cont.c ****  * @param cont pointer to a container object
 147:..\..\..\lvgl\version_6.1.2\lvgl\src\lv_objx/lv_cont.c ****  * @param left left fit policy from `lv_fit_t`
 148:..\..\..\lvgl\version_6.1.2\lvgl\src\lv_objx/lv_cont.c ****  * @param right right fit policy from `lv_fit_t`
 149:..\..\..\lvgl\version_6.1.2\lvgl\src\lv_objx/lv_cont.c ****  * @param top bottom fit policy from `lv_fit_t`
 150:..\..\..\lvgl\version_6.1.2\lvgl\src\lv_objx/lv_cont.c ****  * @param bottom bottom fit policy from `lv_fit_t`
 151:..\..\..\lvgl\version_6.1.2\lvgl\src\lv_objx/lv_cont.c ****  */
 152:..\..\..\lvgl\version_6.1.2\lvgl\src\lv_objx/lv_cont.c **** void lv_cont_set_fit4(lv_obj_t * cont, lv_fit_t left, lv_fit_t right, lv_fit_t top, lv_fit_t bottom
 153:..\..\..\lvgl\version_6.1.2\lvgl\src\lv_objx/lv_cont.c **** {
 154:..\..\..\lvgl\version_6.1.2\lvgl\src\lv_objx/lv_cont.c ****     LV_ASSERT_OBJ(cont, LV_OBJX_NAME);
 155:..\..\..\lvgl\version_6.1.2\lvgl\src\lv_objx/lv_cont.c **** 
 156:..\..\..\lvgl\version_6.1.2\lvgl\src\lv_objx/lv_cont.c ****     lv_obj_invalidate(cont);
 157:..\..\..\lvgl\version_6.1.2\lvgl\src\lv_objx/lv_cont.c ****     lv_cont_ext_t * ext = lv_obj_get_ext_attr(cont);
 158:..\..\..\lvgl\version_6.1.2\lvgl\src\lv_objx/lv_cont.c ****     if(ext->fit_left == left && ext->fit_right == right && ext->fit_top == top && ext->fit_bottom =
 159:..\..\..\lvgl\version_6.1.2\lvgl\src\lv_objx/lv_cont.c ****         return;
 160:..\..\..\lvgl\version_6.1.2\lvgl\src\lv_objx/lv_cont.c ****     }
 161:..\..\..\lvgl\version_6.1.2\lvgl\src\lv_objx/lv_cont.c **** 
 162:..\..\..\lvgl\version_6.1.2\lvgl\src\lv_objx/lv_cont.c ****     ext->fit_left   = left;
 163:..\..\..\lvgl\version_6.1.2\lvgl\src\lv_objx/lv_cont.c ****     ext->fit_right  = right;
 164:..\..\..\lvgl\version_6.1.2\lvgl\src\lv_objx/lv_cont.c ****     ext->fit_top    = top;
 165:..\..\..\lvgl\version_6.1.2\lvgl\src\lv_objx/lv_cont.c ****     ext->fit_bottom = bottom;
 166:..\..\..\lvgl\version_6.1.2\lvgl\src\lv_objx/lv_cont.c **** 
 167:..\..\..\lvgl\version_6.1.2\lvgl\src\lv_objx/lv_cont.c ****     /*Send a signal to refresh the layout*/
 168:..\..\..\lvgl\version_6.1.2\lvgl\src\lv_objx/lv_cont.c ****     cont->signal_cb(cont, LV_SIGNAL_CHILD_CHG, NULL);
 169:..\..\..\lvgl\version_6.1.2\lvgl\src\lv_objx/lv_cont.c **** }
 170:..\..\..\lvgl\version_6.1.2\lvgl\src\lv_objx/lv_cont.c **** 
 171:..\..\..\lvgl\version_6.1.2\lvgl\src\lv_objx/lv_cont.c **** /*=====================
 172:..\..\..\lvgl\version_6.1.2\lvgl\src\lv_objx/lv_cont.c ****  * Getter functions
 173:..\..\..\lvgl\version_6.1.2\lvgl\src\lv_objx/lv_cont.c ****  *====================*/
 174:..\..\..\lvgl\version_6.1.2\lvgl\src\lv_objx/lv_cont.c **** 
 175:..\..\..\lvgl\version_6.1.2\lvgl\src\lv_objx/lv_cont.c **** /**
 176:..\..\..\lvgl\version_6.1.2\lvgl\src\lv_objx/lv_cont.c ****  * Get the layout of a container
 177:..\..\..\lvgl\version_6.1.2\lvgl\src\lv_objx/lv_cont.c ****  * @param cont pointer to container object
 178:..\..\..\lvgl\version_6.1.2\lvgl\src\lv_objx/lv_cont.c ****  * @return the layout from 'lv_cont_layout_t'
 179:..\..\..\lvgl\version_6.1.2\lvgl\src\lv_objx/lv_cont.c ****  */
 180:..\..\..\lvgl\version_6.1.2\lvgl\src\lv_objx/lv_cont.c **** lv_layout_t lv_cont_get_layout(const lv_obj_t * cont)
 181:..\..\..\lvgl\version_6.1.2\lvgl\src\lv_objx/lv_cont.c **** {
 182:..\..\..\lvgl\version_6.1.2\lvgl\src\lv_objx/lv_cont.c ****     LV_ASSERT_OBJ(cont, LV_OBJX_NAME);
 183:..\..\..\lvgl\version_6.1.2\lvgl\src\lv_objx/lv_cont.c **** 
 184:..\..\..\lvgl\version_6.1.2\lvgl\src\lv_objx/lv_cont.c ****     lv_cont_ext_t * ext = lv_obj_get_ext_attr(cont);
 185:..\..\..\lvgl\version_6.1.2\lvgl\src\lv_objx/lv_cont.c ****     return ext->layout;
 186:..\..\..\lvgl\version_6.1.2\lvgl\src\lv_objx/lv_cont.c **** }
 187:..\..\..\lvgl\version_6.1.2\lvgl\src\lv_objx/lv_cont.c **** 
 188:..\..\..\lvgl\version_6.1.2\lvgl\src\lv_objx/lv_cont.c **** /**
 189:..\..\..\lvgl\version_6.1.2\lvgl\src\lv_objx/lv_cont.c ****  * Get left fit mode of a container
 190:..\..\..\lvgl\version_6.1.2\lvgl\src\lv_objx/lv_cont.c ****  * @param cont pointer to a container object
 191:..\..\..\lvgl\version_6.1.2\lvgl\src\lv_objx/lv_cont.c ****  * @return an element of `lv_fit_t`
 192:..\..\..\lvgl\version_6.1.2\lvgl\src\lv_objx/lv_cont.c ****  */
 193:..\..\..\lvgl\version_6.1.2\lvgl\src\lv_objx/lv_cont.c **** lv_fit_t lv_cont_get_fit_left(const lv_obj_t * cont)
 194:..\..\..\lvgl\version_6.1.2\lvgl\src\lv_objx/lv_cont.c **** {
 195:..\..\..\lvgl\version_6.1.2\lvgl\src\lv_objx/lv_cont.c ****     LV_ASSERT_OBJ(cont, LV_OBJX_NAME);
 196:..\..\..\lvgl\version_6.1.2\lvgl\src\lv_objx/lv_cont.c **** 
 197:..\..\..\lvgl\version_6.1.2\lvgl\src\lv_objx/lv_cont.c ****     lv_cont_ext_t * ext = lv_obj_get_ext_attr(cont);
 198:..\..\..\lvgl\version_6.1.2\lvgl\src\lv_objx/lv_cont.c ****     return ext->fit_left;
 199:..\..\..\lvgl\version_6.1.2\lvgl\src\lv_objx/lv_cont.c **** }
 200:..\..\..\lvgl\version_6.1.2\lvgl\src\lv_objx/lv_cont.c **** 
 201:..\..\..\lvgl\version_6.1.2\lvgl\src\lv_objx/lv_cont.c **** /**
ARM GAS  C:\Users\pearlstl\AppData\Local\Temp\cciL9yyu.s 			page 5


 202:..\..\..\lvgl\version_6.1.2\lvgl\src\lv_objx/lv_cont.c ****  * Get right fit mode of a container
 203:..\..\..\lvgl\version_6.1.2\lvgl\src\lv_objx/lv_cont.c ****  * @param cont pointer to a container object
 204:..\..\..\lvgl\version_6.1.2\lvgl\src\lv_objx/lv_cont.c ****  * @return an element of `lv_fit_t`
 205:..\..\..\lvgl\version_6.1.2\lvgl\src\lv_objx/lv_cont.c ****  */
 206:..\..\..\lvgl\version_6.1.2\lvgl\src\lv_objx/lv_cont.c **** lv_fit_t lv_cont_get_fit_right(const lv_obj_t * cont)
 207:..\..\..\lvgl\version_6.1.2\lvgl\src\lv_objx/lv_cont.c **** {
 208:..\..\..\lvgl\version_6.1.2\lvgl\src\lv_objx/lv_cont.c ****     LV_ASSERT_OBJ(cont, LV_OBJX_NAME);
 209:..\..\..\lvgl\version_6.1.2\lvgl\src\lv_objx/lv_cont.c **** 
 210:..\..\..\lvgl\version_6.1.2\lvgl\src\lv_objx/lv_cont.c ****     lv_cont_ext_t * ext = lv_obj_get_ext_attr(cont);
 211:..\..\..\lvgl\version_6.1.2\lvgl\src\lv_objx/lv_cont.c ****     return ext->fit_right;
 212:..\..\..\lvgl\version_6.1.2\lvgl\src\lv_objx/lv_cont.c **** }
 213:..\..\..\lvgl\version_6.1.2\lvgl\src\lv_objx/lv_cont.c **** 
 214:..\..\..\lvgl\version_6.1.2\lvgl\src\lv_objx/lv_cont.c **** /**
 215:..\..\..\lvgl\version_6.1.2\lvgl\src\lv_objx/lv_cont.c ****  * Get top fit mode of a container
 216:..\..\..\lvgl\version_6.1.2\lvgl\src\lv_objx/lv_cont.c ****  * @param cont pointer to a container object
 217:..\..\..\lvgl\version_6.1.2\lvgl\src\lv_objx/lv_cont.c ****  * @return an element of `lv_fit_t`
 218:..\..\..\lvgl\version_6.1.2\lvgl\src\lv_objx/lv_cont.c ****  */
 219:..\..\..\lvgl\version_6.1.2\lvgl\src\lv_objx/lv_cont.c **** lv_fit_t lv_cont_get_fit_top(const lv_obj_t * cont)
 220:..\..\..\lvgl\version_6.1.2\lvgl\src\lv_objx/lv_cont.c **** {
 221:..\..\..\lvgl\version_6.1.2\lvgl\src\lv_objx/lv_cont.c ****     LV_ASSERT_OBJ(cont, LV_OBJX_NAME);
 222:..\..\..\lvgl\version_6.1.2\lvgl\src\lv_objx/lv_cont.c **** 
 223:..\..\..\lvgl\version_6.1.2\lvgl\src\lv_objx/lv_cont.c ****     lv_cont_ext_t * ext = lv_obj_get_ext_attr(cont);
 224:..\..\..\lvgl\version_6.1.2\lvgl\src\lv_objx/lv_cont.c ****     return ext->fit_top;
 225:..\..\..\lvgl\version_6.1.2\lvgl\src\lv_objx/lv_cont.c **** }
 226:..\..\..\lvgl\version_6.1.2\lvgl\src\lv_objx/lv_cont.c **** 
 227:..\..\..\lvgl\version_6.1.2\lvgl\src\lv_objx/lv_cont.c **** /**
 228:..\..\..\lvgl\version_6.1.2\lvgl\src\lv_objx/lv_cont.c ****  * Get bottom fit mode of a container
 229:..\..\..\lvgl\version_6.1.2\lvgl\src\lv_objx/lv_cont.c ****  * @param cont pointer to a container object
 230:..\..\..\lvgl\version_6.1.2\lvgl\src\lv_objx/lv_cont.c ****  * @return an element of `lv_fit_t`
 231:..\..\..\lvgl\version_6.1.2\lvgl\src\lv_objx/lv_cont.c ****  */
 232:..\..\..\lvgl\version_6.1.2\lvgl\src\lv_objx/lv_cont.c **** lv_fit_t lv_cont_get_fit_bottom(const lv_obj_t * cont)
 233:..\..\..\lvgl\version_6.1.2\lvgl\src\lv_objx/lv_cont.c **** {
 234:..\..\..\lvgl\version_6.1.2\lvgl\src\lv_objx/lv_cont.c ****     LV_ASSERT_OBJ(cont, LV_OBJX_NAME);
 235:..\..\..\lvgl\version_6.1.2\lvgl\src\lv_objx/lv_cont.c **** 
 236:..\..\..\lvgl\version_6.1.2\lvgl\src\lv_objx/lv_cont.c ****     lv_cont_ext_t * ext = lv_obj_get_ext_attr(cont);
 237:..\..\..\lvgl\version_6.1.2\lvgl\src\lv_objx/lv_cont.c ****     return ext->fit_bottom;
 238:..\..\..\lvgl\version_6.1.2\lvgl\src\lv_objx/lv_cont.c **** }
 239:..\..\..\lvgl\version_6.1.2\lvgl\src\lv_objx/lv_cont.c **** 
 240:..\..\..\lvgl\version_6.1.2\lvgl\src\lv_objx/lv_cont.c **** /**********************
 241:..\..\..\lvgl\version_6.1.2\lvgl\src\lv_objx/lv_cont.c ****  *   STATIC FUNCTIONS
 242:..\..\..\lvgl\version_6.1.2\lvgl\src\lv_objx/lv_cont.c ****  **********************/
 243:..\..\..\lvgl\version_6.1.2\lvgl\src\lv_objx/lv_cont.c **** 
 244:..\..\..\lvgl\version_6.1.2\lvgl\src\lv_objx/lv_cont.c **** /**
 245:..\..\..\lvgl\version_6.1.2\lvgl\src\lv_objx/lv_cont.c ****  * Signal function of the container
 246:..\..\..\lvgl\version_6.1.2\lvgl\src\lv_objx/lv_cont.c ****  * @param cont pointer to a container object
 247:..\..\..\lvgl\version_6.1.2\lvgl\src\lv_objx/lv_cont.c ****  * @param sign a signal type from lv_signal_t enum
 248:..\..\..\lvgl\version_6.1.2\lvgl\src\lv_objx/lv_cont.c ****  * @param param pointer to a signal specific variable
 249:..\..\..\lvgl\version_6.1.2\lvgl\src\lv_objx/lv_cont.c ****  * @return LV_RES_OK: the object is not deleted in the function; LV_RES_INV: the object is deleted
 250:..\..\..\lvgl\version_6.1.2\lvgl\src\lv_objx/lv_cont.c ****  */
 251:..\..\..\lvgl\version_6.1.2\lvgl\src\lv_objx/lv_cont.c **** static lv_res_t lv_cont_signal(lv_obj_t * cont, lv_signal_t sign, void * param)
 252:..\..\..\lvgl\version_6.1.2\lvgl\src\lv_objx/lv_cont.c **** {
 253:..\..\..\lvgl\version_6.1.2\lvgl\src\lv_objx/lv_cont.c ****     lv_res_t res;
 254:..\..\..\lvgl\version_6.1.2\lvgl\src\lv_objx/lv_cont.c **** 
 255:..\..\..\lvgl\version_6.1.2\lvgl\src\lv_objx/lv_cont.c ****     /* Include the ancient signal function */
 256:..\..\..\lvgl\version_6.1.2\lvgl\src\lv_objx/lv_cont.c ****     res = ancestor_signal(cont, sign, param);
 257:..\..\..\lvgl\version_6.1.2\lvgl\src\lv_objx/lv_cont.c ****     if(res != LV_RES_OK) return res;
 258:..\..\..\lvgl\version_6.1.2\lvgl\src\lv_objx/lv_cont.c ****     if(sign == LV_SIGNAL_GET_TYPE) return lv_obj_handle_get_type_signal(param, LV_OBJX_NAME);
ARM GAS  C:\Users\pearlstl\AppData\Local\Temp\cciL9yyu.s 			page 6


 259:..\..\..\lvgl\version_6.1.2\lvgl\src\lv_objx/lv_cont.c **** 
 260:..\..\..\lvgl\version_6.1.2\lvgl\src\lv_objx/lv_cont.c ****     if(sign == LV_SIGNAL_STYLE_CHG) { /*Recalculate the padding if the style changed*/
 261:..\..\..\lvgl\version_6.1.2\lvgl\src\lv_objx/lv_cont.c ****         lv_cont_refr_layout(cont);
 262:..\..\..\lvgl\version_6.1.2\lvgl\src\lv_objx/lv_cont.c ****         lv_cont_refr_autofit(cont);
 263:..\..\..\lvgl\version_6.1.2\lvgl\src\lv_objx/lv_cont.c ****     } else if(sign == LV_SIGNAL_CHILD_CHG) {
 264:..\..\..\lvgl\version_6.1.2\lvgl\src\lv_objx/lv_cont.c ****         lv_cont_refr_layout(cont);
 265:..\..\..\lvgl\version_6.1.2\lvgl\src\lv_objx/lv_cont.c ****         lv_cont_refr_autofit(cont);
 266:..\..\..\lvgl\version_6.1.2\lvgl\src\lv_objx/lv_cont.c ****     } else if(sign == LV_SIGNAL_CORD_CHG) {
 267:..\..\..\lvgl\version_6.1.2\lvgl\src\lv_objx/lv_cont.c ****         if(lv_obj_get_width(cont) != lv_area_get_width(param) || lv_obj_get_height(cont) != lv_area
 268:..\..\..\lvgl\version_6.1.2\lvgl\src\lv_objx/lv_cont.c ****             lv_cont_refr_layout(cont);
 269:..\..\..\lvgl\version_6.1.2\lvgl\src\lv_objx/lv_cont.c ****             lv_cont_refr_autofit(cont);
 270:..\..\..\lvgl\version_6.1.2\lvgl\src\lv_objx/lv_cont.c ****         }
 271:..\..\..\lvgl\version_6.1.2\lvgl\src\lv_objx/lv_cont.c ****     } else if(sign == LV_SIGNAL_PARENT_SIZE_CHG) {
 272:..\..\..\lvgl\version_6.1.2\lvgl\src\lv_objx/lv_cont.c ****         /*FLOOD and FILL fit needs to be refreshed if the parent size has changed*/
 273:..\..\..\lvgl\version_6.1.2\lvgl\src\lv_objx/lv_cont.c ****         lv_cont_refr_autofit(cont);
 274:..\..\..\lvgl\version_6.1.2\lvgl\src\lv_objx/lv_cont.c **** 
 275:..\..\..\lvgl\version_6.1.2\lvgl\src\lv_objx/lv_cont.c ****     }
 276:..\..\..\lvgl\version_6.1.2\lvgl\src\lv_objx/lv_cont.c **** 
 277:..\..\..\lvgl\version_6.1.2\lvgl\src\lv_objx/lv_cont.c ****     return res;
 278:..\..\..\lvgl\version_6.1.2\lvgl\src\lv_objx/lv_cont.c **** }
 279:..\..\..\lvgl\version_6.1.2\lvgl\src\lv_objx/lv_cont.c **** 
 280:..\..\..\lvgl\version_6.1.2\lvgl\src\lv_objx/lv_cont.c **** /**
 281:..\..\..\lvgl\version_6.1.2\lvgl\src\lv_objx/lv_cont.c ****  * Refresh the layout of a container
 282:..\..\..\lvgl\version_6.1.2\lvgl\src\lv_objx/lv_cont.c ****  * @param cont pointer to an object which layout should be refreshed
 283:..\..\..\lvgl\version_6.1.2\lvgl\src\lv_objx/lv_cont.c ****  */
 284:..\..\..\lvgl\version_6.1.2\lvgl\src\lv_objx/lv_cont.c **** static void lv_cont_refr_layout(lv_obj_t * cont)
 285:..\..\..\lvgl\version_6.1.2\lvgl\src\lv_objx/lv_cont.c **** {
  28              		.loc 1 285 0
  29              		.cfi_startproc
  30              		@ args = 0, pretend = 0, frame = 16
  31              		@ frame_needed = 0, uses_anonymous_args = 0
  32              	.LVL0:
  33 0000 2DE9F04F 		push	{r4, r5, r6, r7, r8, r9, r10, fp, lr}
  34              		.cfi_def_cfa_offset 36
  35              		.cfi_offset 4, -36
  36              		.cfi_offset 5, -32
  37              		.cfi_offset 6, -28
  38              		.cfi_offset 7, -24
  39              		.cfi_offset 8, -20
  40              		.cfi_offset 9, -16
  41              		.cfi_offset 10, -12
  42              		.cfi_offset 11, -8
  43              		.cfi_offset 14, -4
  44 0004 87B0     		sub	sp, sp, #28
  45              		.cfi_def_cfa_offset 64
  46              		.loc 1 285 0
  47 0006 8146     		mov	r9, r0
  48              	.LVL1:
  49              	.LBB43:
  50              	.LBB44:
 184:..\..\..\lvgl\version_6.1.2\lvgl\src\lv_objx/lv_cont.c ****     return ext->layout;
  51              		.loc 1 184 0
  52 0008 FFF7FEFF 		bl	lv_obj_get_ext_attr
  53              	.LVL2:
  54              	.LBE44:
  55              	.LBE43:
 286:..\..\..\lvgl\version_6.1.2\lvgl\src\lv_objx/lv_cont.c ****     lv_layout_t type = lv_cont_get_layout(cont);
ARM GAS  C:\Users\pearlstl\AppData\Local\Temp\cciL9yyu.s 			page 7


 287:..\..\..\lvgl\version_6.1.2\lvgl\src\lv_objx/lv_cont.c **** 
 288:..\..\..\lvgl\version_6.1.2\lvgl\src\lv_objx/lv_cont.c ****     /*'cont' has to be at least 1 child*/
 289:..\..\..\lvgl\version_6.1.2\lvgl\src\lv_objx/lv_cont.c ****     if(lv_obj_get_child(cont, NULL) == NULL) return;
  56              		.loc 1 289 0
  57 000c 0021     		movs	r1, #0
  58              	.LBB46:
  59              	.LBB45:
 185:..\..\..\lvgl\version_6.1.2\lvgl\src\lv_objx/lv_cont.c **** }
  60              		.loc 1 185 0
  61 000e 0478     		ldrb	r4, [r0]	@ zero_extendqisi2
  62              	.LBE45:
  63              	.LBE46:
  64              		.loc 1 289 0
  65 0010 4846     		mov	r0, r9
  66              	.LVL3:
  67 0012 FFF7FEFF 		bl	lv_obj_get_child
  68              	.LVL4:
  69 0016 88B1     		cbz	r0, .L1
  70 0018 04F00F04 		and	r4, r4, #15
 290:..\..\..\lvgl\version_6.1.2\lvgl\src\lv_objx/lv_cont.c **** 
 291:..\..\..\lvgl\version_6.1.2\lvgl\src\lv_objx/lv_cont.c ****     if(type == LV_LAYOUT_OFF) return;
  71              		.loc 1 291 0
  72 001c 74B1     		cbz	r4, .L1
 292:..\..\..\lvgl\version_6.1.2\lvgl\src\lv_objx/lv_cont.c **** 
 293:..\..\..\lvgl\version_6.1.2\lvgl\src\lv_objx/lv_cont.c ****     if(type == LV_LAYOUT_CENTER) {
  73              		.loc 1 293 0
  74 001e 012C     		cmp	r4, #1
  75 0020 76D0     		beq	.L113
 294:..\..\..\lvgl\version_6.1.2\lvgl\src\lv_objx/lv_cont.c ****         lv_cont_layout_center(cont);
 295:..\..\..\lvgl\version_6.1.2\lvgl\src\lv_objx/lv_cont.c ****     } else if(type == LV_LAYOUT_COL_L || type == LV_LAYOUT_COL_M || type == LV_LAYOUT_COL_R) {
  76              		.loc 1 295 0
  77 0022 A31E     		subs	r3, r4, #2
  78 0024 022B     		cmp	r3, #2
  79 0026 40F2A180 		bls	.L114
 296:..\..\..\lvgl\version_6.1.2\lvgl\src\lv_objx/lv_cont.c ****         lv_cont_layout_col(cont);
 297:..\..\..\lvgl\version_6.1.2\lvgl\src\lv_objx/lv_cont.c ****     } else if(type == LV_LAYOUT_ROW_T || type == LV_LAYOUT_ROW_M || type == LV_LAYOUT_ROW_B) {
  80              		.loc 1 297 0
  81 002a 631F     		subs	r3, r4, #5
  82 002c 022B     		cmp	r3, #2
  83 002e 40F2E580 		bls	.L115
 298:..\..\..\lvgl\version_6.1.2\lvgl\src\lv_objx/lv_cont.c ****         lv_cont_layout_row(cont);
 299:..\..\..\lvgl\version_6.1.2\lvgl\src\lv_objx/lv_cont.c ****     } else if(type == LV_LAYOUT_PRETTY) {
  84              		.loc 1 299 0
  85 0032 082C     		cmp	r4, #8
  86 0034 00F03582 		beq	.L116
 300:..\..\..\lvgl\version_6.1.2\lvgl\src\lv_objx/lv_cont.c ****         lv_cont_layout_pretty(cont);
 301:..\..\..\lvgl\version_6.1.2\lvgl\src\lv_objx/lv_cont.c ****     } else if(type == LV_LAYOUT_GRID) {
  87              		.loc 1 301 0
  88 0038 092C     		cmp	r4, #9
  89 003a 02D0     		beq	.L117
  90              	.L1:
 302:..\..\..\lvgl\version_6.1.2\lvgl\src\lv_objx/lv_cont.c ****         lv_cont_layout_grid(cont);
 303:..\..\..\lvgl\version_6.1.2\lvgl\src\lv_objx/lv_cont.c ****     }
 304:..\..\..\lvgl\version_6.1.2\lvgl\src\lv_objx/lv_cont.c **** }
  91              		.loc 1 304 0
  92 003c 07B0     		add	sp, sp, #28
  93              		.cfi_remember_state
ARM GAS  C:\Users\pearlstl\AppData\Local\Temp\cciL9yyu.s 			page 8


  94              		.cfi_def_cfa_offset 36
  95              		@ sp needed
  96 003e BDE8F08F 		pop	{r4, r5, r6, r7, r8, r9, r10, fp, pc}
  97              	.LVL5:
  98              	.L117:
  99              		.cfi_restore_state
 100              	.LBB47:
 101              	.LBB48:
 305:..\..\..\lvgl\version_6.1.2\lvgl\src\lv_objx/lv_cont.c **** 
 306:..\..\..\lvgl\version_6.1.2\lvgl\src\lv_objx/lv_cont.c **** /**
 307:..\..\..\lvgl\version_6.1.2\lvgl\src\lv_objx/lv_cont.c ****  * Handle column type layouts
 308:..\..\..\lvgl\version_6.1.2\lvgl\src\lv_objx/lv_cont.c ****  * @param cont pointer to an object which layout should be handled
 309:..\..\..\lvgl\version_6.1.2\lvgl\src\lv_objx/lv_cont.c ****  */
 310:..\..\..\lvgl\version_6.1.2\lvgl\src\lv_objx/lv_cont.c **** static void lv_cont_layout_col(lv_obj_t * cont)
 311:..\..\..\lvgl\version_6.1.2\lvgl\src\lv_objx/lv_cont.c **** {
 312:..\..\..\lvgl\version_6.1.2\lvgl\src\lv_objx/lv_cont.c ****     lv_layout_t type = lv_cont_get_layout(cont);
 313:..\..\..\lvgl\version_6.1.2\lvgl\src\lv_objx/lv_cont.c ****     lv_obj_t * child;
 314:..\..\..\lvgl\version_6.1.2\lvgl\src\lv_objx/lv_cont.c **** 
 315:..\..\..\lvgl\version_6.1.2\lvgl\src\lv_objx/lv_cont.c ****     /*Adjust margin and get the alignment type*/
 316:..\..\..\lvgl\version_6.1.2\lvgl\src\lv_objx/lv_cont.c ****     lv_align_t align;
 317:..\..\..\lvgl\version_6.1.2\lvgl\src\lv_objx/lv_cont.c ****     const lv_style_t * style = lv_obj_get_style(cont);
 318:..\..\..\lvgl\version_6.1.2\lvgl\src\lv_objx/lv_cont.c ****     lv_coord_t hpad_corr;
 319:..\..\..\lvgl\version_6.1.2\lvgl\src\lv_objx/lv_cont.c **** 
 320:..\..\..\lvgl\version_6.1.2\lvgl\src\lv_objx/lv_cont.c ****     switch(type) {
 321:..\..\..\lvgl\version_6.1.2\lvgl\src\lv_objx/lv_cont.c ****         case LV_LAYOUT_COL_L:
 322:..\..\..\lvgl\version_6.1.2\lvgl\src\lv_objx/lv_cont.c ****             hpad_corr = style->body.padding.left;
 323:..\..\..\lvgl\version_6.1.2\lvgl\src\lv_objx/lv_cont.c ****             align     = LV_ALIGN_IN_TOP_LEFT;
 324:..\..\..\lvgl\version_6.1.2\lvgl\src\lv_objx/lv_cont.c ****             break;
 325:..\..\..\lvgl\version_6.1.2\lvgl\src\lv_objx/lv_cont.c ****         case LV_LAYOUT_COL_M:
 326:..\..\..\lvgl\version_6.1.2\lvgl\src\lv_objx/lv_cont.c ****             hpad_corr = 0;
 327:..\..\..\lvgl\version_6.1.2\lvgl\src\lv_objx/lv_cont.c ****             align     = LV_ALIGN_IN_TOP_MID;
 328:..\..\..\lvgl\version_6.1.2\lvgl\src\lv_objx/lv_cont.c ****             break;
 329:..\..\..\lvgl\version_6.1.2\lvgl\src\lv_objx/lv_cont.c ****         case LV_LAYOUT_COL_R:
 330:..\..\..\lvgl\version_6.1.2\lvgl\src\lv_objx/lv_cont.c ****             hpad_corr = -style->body.padding.right;
 331:..\..\..\lvgl\version_6.1.2\lvgl\src\lv_objx/lv_cont.c ****             align     = LV_ALIGN_IN_TOP_RIGHT;
 332:..\..\..\lvgl\version_6.1.2\lvgl\src\lv_objx/lv_cont.c ****             break;
 333:..\..\..\lvgl\version_6.1.2\lvgl\src\lv_objx/lv_cont.c ****         default:
 334:..\..\..\lvgl\version_6.1.2\lvgl\src\lv_objx/lv_cont.c ****             hpad_corr = 0;
 335:..\..\..\lvgl\version_6.1.2\lvgl\src\lv_objx/lv_cont.c ****             align     = LV_ALIGN_IN_TOP_LEFT;
 336:..\..\..\lvgl\version_6.1.2\lvgl\src\lv_objx/lv_cont.c ****             break;
 337:..\..\..\lvgl\version_6.1.2\lvgl\src\lv_objx/lv_cont.c ****     }
 338:..\..\..\lvgl\version_6.1.2\lvgl\src\lv_objx/lv_cont.c **** 
 339:..\..\..\lvgl\version_6.1.2\lvgl\src\lv_objx/lv_cont.c ****     /* Disable child change action because the children will be moved a lot
 340:..\..\..\lvgl\version_6.1.2\lvgl\src\lv_objx/lv_cont.c ****      * an unnecessary child change signals could be sent*/
 341:..\..\..\lvgl\version_6.1.2\lvgl\src\lv_objx/lv_cont.c ****     lv_obj_set_protect(cont, LV_PROTECT_CHILD_CHG);
 342:..\..\..\lvgl\version_6.1.2\lvgl\src\lv_objx/lv_cont.c ****     /* Align the children */
 343:..\..\..\lvgl\version_6.1.2\lvgl\src\lv_objx/lv_cont.c ****     lv_coord_t last_cord = style->body.padding.top;
 344:..\..\..\lvgl\version_6.1.2\lvgl\src\lv_objx/lv_cont.c ****     LV_LL_READ_BACK(cont->child_ll, child)
 345:..\..\..\lvgl\version_6.1.2\lvgl\src\lv_objx/lv_cont.c ****     {
 346:..\..\..\lvgl\version_6.1.2\lvgl\src\lv_objx/lv_cont.c ****         if(lv_obj_get_hidden(child) != false || lv_obj_is_protected(child, LV_PROTECT_POS) != false
 347:..\..\..\lvgl\version_6.1.2\lvgl\src\lv_objx/lv_cont.c **** 
 348:..\..\..\lvgl\version_6.1.2\lvgl\src\lv_objx/lv_cont.c ****         lv_obj_align(child, cont, align, hpad_corr, last_cord);
 349:..\..\..\lvgl\version_6.1.2\lvgl\src\lv_objx/lv_cont.c ****         last_cord += lv_obj_get_height(child) + style->body.padding.inner;
 350:..\..\..\lvgl\version_6.1.2\lvgl\src\lv_objx/lv_cont.c ****     }
 351:..\..\..\lvgl\version_6.1.2\lvgl\src\lv_objx/lv_cont.c **** 
 352:..\..\..\lvgl\version_6.1.2\lvgl\src\lv_objx/lv_cont.c ****     lv_obj_clear_protect(cont, LV_PROTECT_CHILD_CHG);
 353:..\..\..\lvgl\version_6.1.2\lvgl\src\lv_objx/lv_cont.c **** }
ARM GAS  C:\Users\pearlstl\AppData\Local\Temp\cciL9yyu.s 			page 9


 354:..\..\..\lvgl\version_6.1.2\lvgl\src\lv_objx/lv_cont.c **** 
 355:..\..\..\lvgl\version_6.1.2\lvgl\src\lv_objx/lv_cont.c **** /**
 356:..\..\..\lvgl\version_6.1.2\lvgl\src\lv_objx/lv_cont.c ****  * Handle row type layouts
 357:..\..\..\lvgl\version_6.1.2\lvgl\src\lv_objx/lv_cont.c ****  * @param cont pointer to an object which layout should be handled
 358:..\..\..\lvgl\version_6.1.2\lvgl\src\lv_objx/lv_cont.c ****  */
 359:..\..\..\lvgl\version_6.1.2\lvgl\src\lv_objx/lv_cont.c **** static void lv_cont_layout_row(lv_obj_t * cont)
 360:..\..\..\lvgl\version_6.1.2\lvgl\src\lv_objx/lv_cont.c **** {
 361:..\..\..\lvgl\version_6.1.2\lvgl\src\lv_objx/lv_cont.c ****     lv_layout_t type = lv_cont_get_layout(cont);
 362:..\..\..\lvgl\version_6.1.2\lvgl\src\lv_objx/lv_cont.c ****     lv_obj_t * child;
 363:..\..\..\lvgl\version_6.1.2\lvgl\src\lv_objx/lv_cont.c **** 
 364:..\..\..\lvgl\version_6.1.2\lvgl\src\lv_objx/lv_cont.c ****     /*Adjust margin and get the alignment type*/
 365:..\..\..\lvgl\version_6.1.2\lvgl\src\lv_objx/lv_cont.c ****     lv_align_t align;
 366:..\..\..\lvgl\version_6.1.2\lvgl\src\lv_objx/lv_cont.c ****     const lv_style_t * style = lv_obj_get_style(cont);
 367:..\..\..\lvgl\version_6.1.2\lvgl\src\lv_objx/lv_cont.c ****     lv_coord_t vpad_corr;
 368:..\..\..\lvgl\version_6.1.2\lvgl\src\lv_objx/lv_cont.c ****     lv_bidi_dir_t base_dir = lv_obj_get_base_dir(cont);
 369:..\..\..\lvgl\version_6.1.2\lvgl\src\lv_objx/lv_cont.c ****     switch(type) {
 370:..\..\..\lvgl\version_6.1.2\lvgl\src\lv_objx/lv_cont.c ****         case LV_LAYOUT_ROW_T:
 371:..\..\..\lvgl\version_6.1.2\lvgl\src\lv_objx/lv_cont.c ****             vpad_corr = style->body.padding.top;
 372:..\..\..\lvgl\version_6.1.2\lvgl\src\lv_objx/lv_cont.c ****             align     = base_dir == LV_BIDI_DIR_RTL ? LV_ALIGN_IN_TOP_RIGHT : LV_ALIGN_IN_TOP_LEFT;
 373:..\..\..\lvgl\version_6.1.2\lvgl\src\lv_objx/lv_cont.c ****             break;
 374:..\..\..\lvgl\version_6.1.2\lvgl\src\lv_objx/lv_cont.c ****         case LV_LAYOUT_ROW_M:
 375:..\..\..\lvgl\version_6.1.2\lvgl\src\lv_objx/lv_cont.c ****             vpad_corr = 0;
 376:..\..\..\lvgl\version_6.1.2\lvgl\src\lv_objx/lv_cont.c ****             align     = base_dir == LV_BIDI_DIR_RTL ? LV_ALIGN_IN_RIGHT_MID: LV_ALIGN_IN_LEFT_MID;
 377:..\..\..\lvgl\version_6.1.2\lvgl\src\lv_objx/lv_cont.c ****             break;
 378:..\..\..\lvgl\version_6.1.2\lvgl\src\lv_objx/lv_cont.c ****         case LV_LAYOUT_ROW_B:
 379:..\..\..\lvgl\version_6.1.2\lvgl\src\lv_objx/lv_cont.c ****             vpad_corr = -style->body.padding.bottom;
 380:..\..\..\lvgl\version_6.1.2\lvgl\src\lv_objx/lv_cont.c ****             align     = base_dir == LV_BIDI_DIR_RTL ? LV_ALIGN_IN_BOTTOM_RIGHT: LV_ALIGN_IN_BOTTOM_
 381:..\..\..\lvgl\version_6.1.2\lvgl\src\lv_objx/lv_cont.c ****             break;
 382:..\..\..\lvgl\version_6.1.2\lvgl\src\lv_objx/lv_cont.c ****         default:
 383:..\..\..\lvgl\version_6.1.2\lvgl\src\lv_objx/lv_cont.c ****             vpad_corr = 0;
 384:..\..\..\lvgl\version_6.1.2\lvgl\src\lv_objx/lv_cont.c ****             align     = base_dir == LV_BIDI_DIR_RTL ? LV_ALIGN_IN_TOP_RIGHT : LV_ALIGN_IN_TOP_LEFT;
 385:..\..\..\lvgl\version_6.1.2\lvgl\src\lv_objx/lv_cont.c ****             break;
 386:..\..\..\lvgl\version_6.1.2\lvgl\src\lv_objx/lv_cont.c ****     }
 387:..\..\..\lvgl\version_6.1.2\lvgl\src\lv_objx/lv_cont.c **** 
 388:..\..\..\lvgl\version_6.1.2\lvgl\src\lv_objx/lv_cont.c ****     /* Disable child change action because the children will be moved a lot
 389:..\..\..\lvgl\version_6.1.2\lvgl\src\lv_objx/lv_cont.c ****      * an unnecessary child change signals could be sent*/
 390:..\..\..\lvgl\version_6.1.2\lvgl\src\lv_objx/lv_cont.c ****     lv_obj_set_protect(cont, LV_PROTECT_CHILD_CHG);
 391:..\..\..\lvgl\version_6.1.2\lvgl\src\lv_objx/lv_cont.c **** 
 392:..\..\..\lvgl\version_6.1.2\lvgl\src\lv_objx/lv_cont.c ****     /* Align the children */
 393:..\..\..\lvgl\version_6.1.2\lvgl\src\lv_objx/lv_cont.c ****     lv_coord_t last_cord;
 394:..\..\..\lvgl\version_6.1.2\lvgl\src\lv_objx/lv_cont.c ****     if(base_dir == LV_BIDI_DIR_RTL) last_cord = style->body.padding.right;
 395:..\..\..\lvgl\version_6.1.2\lvgl\src\lv_objx/lv_cont.c ****     else last_cord = style->body.padding.left;
 396:..\..\..\lvgl\version_6.1.2\lvgl\src\lv_objx/lv_cont.c **** 
 397:..\..\..\lvgl\version_6.1.2\lvgl\src\lv_objx/lv_cont.c ****     LV_LL_READ_BACK(cont->child_ll, child)
 398:..\..\..\lvgl\version_6.1.2\lvgl\src\lv_objx/lv_cont.c ****     {
 399:..\..\..\lvgl\version_6.1.2\lvgl\src\lv_objx/lv_cont.c ****         if(lv_obj_get_hidden(child) != false || lv_obj_is_protected(child, LV_PROTECT_POS) != false
 400:..\..\..\lvgl\version_6.1.2\lvgl\src\lv_objx/lv_cont.c **** 
 401:..\..\..\lvgl\version_6.1.2\lvgl\src\lv_objx/lv_cont.c **** //        last_cord -= lv_obj_get_width(child);
 402:..\..\..\lvgl\version_6.1.2\lvgl\src\lv_objx/lv_cont.c **** 
 403:..\..\..\lvgl\version_6.1.2\lvgl\src\lv_objx/lv_cont.c ****         if(base_dir == LV_BIDI_DIR_RTL) lv_obj_align(child, cont, align, -last_cord, vpad_corr);
 404:..\..\..\lvgl\version_6.1.2\lvgl\src\lv_objx/lv_cont.c ****         else lv_obj_align(child, cont, align, last_cord, vpad_corr);
 405:..\..\..\lvgl\version_6.1.2\lvgl\src\lv_objx/lv_cont.c **** 
 406:..\..\..\lvgl\version_6.1.2\lvgl\src\lv_objx/lv_cont.c ****         last_cord += lv_obj_get_width(child) + style->body.padding.inner;
 407:..\..\..\lvgl\version_6.1.2\lvgl\src\lv_objx/lv_cont.c ****     }
 408:..\..\..\lvgl\version_6.1.2\lvgl\src\lv_objx/lv_cont.c **** 
 409:..\..\..\lvgl\version_6.1.2\lvgl\src\lv_objx/lv_cont.c ****     lv_obj_clear_protect(cont, LV_PROTECT_CHILD_CHG);
 410:..\..\..\lvgl\version_6.1.2\lvgl\src\lv_objx/lv_cont.c **** }
ARM GAS  C:\Users\pearlstl\AppData\Local\Temp\cciL9yyu.s 			page 10


 411:..\..\..\lvgl\version_6.1.2\lvgl\src\lv_objx/lv_cont.c **** 
 412:..\..\..\lvgl\version_6.1.2\lvgl\src\lv_objx/lv_cont.c **** /**
 413:..\..\..\lvgl\version_6.1.2\lvgl\src\lv_objx/lv_cont.c ****  * Handle the center layout
 414:..\..\..\lvgl\version_6.1.2\lvgl\src\lv_objx/lv_cont.c ****  * @param cont pointer to an object which layout should be handled
 415:..\..\..\lvgl\version_6.1.2\lvgl\src\lv_objx/lv_cont.c ****  */
 416:..\..\..\lvgl\version_6.1.2\lvgl\src\lv_objx/lv_cont.c **** static void lv_cont_layout_center(lv_obj_t * cont)
 417:..\..\..\lvgl\version_6.1.2\lvgl\src\lv_objx/lv_cont.c **** {
 418:..\..\..\lvgl\version_6.1.2\lvgl\src\lv_objx/lv_cont.c ****     lv_obj_t * child;
 419:..\..\..\lvgl\version_6.1.2\lvgl\src\lv_objx/lv_cont.c ****     const lv_style_t * style = lv_obj_get_style(cont);
 420:..\..\..\lvgl\version_6.1.2\lvgl\src\lv_objx/lv_cont.c ****     uint32_t obj_num         = 0;
 421:..\..\..\lvgl\version_6.1.2\lvgl\src\lv_objx/lv_cont.c ****     lv_coord_t h_tot         = 0;
 422:..\..\..\lvgl\version_6.1.2\lvgl\src\lv_objx/lv_cont.c **** 
 423:..\..\..\lvgl\version_6.1.2\lvgl\src\lv_objx/lv_cont.c ****     LV_LL_READ(cont->child_ll, child)
 424:..\..\..\lvgl\version_6.1.2\lvgl\src\lv_objx/lv_cont.c ****     {
 425:..\..\..\lvgl\version_6.1.2\lvgl\src\lv_objx/lv_cont.c ****         if(lv_obj_get_hidden(child) != false || lv_obj_is_protected(child, LV_PROTECT_POS) != false
 426:..\..\..\lvgl\version_6.1.2\lvgl\src\lv_objx/lv_cont.c ****         h_tot += lv_obj_get_height(child) + style->body.padding.inner;
 427:..\..\..\lvgl\version_6.1.2\lvgl\src\lv_objx/lv_cont.c ****         obj_num++;
 428:..\..\..\lvgl\version_6.1.2\lvgl\src\lv_objx/lv_cont.c ****     }
 429:..\..\..\lvgl\version_6.1.2\lvgl\src\lv_objx/lv_cont.c **** 
 430:..\..\..\lvgl\version_6.1.2\lvgl\src\lv_objx/lv_cont.c ****     if(obj_num == 0) return;
 431:..\..\..\lvgl\version_6.1.2\lvgl\src\lv_objx/lv_cont.c **** 
 432:..\..\..\lvgl\version_6.1.2\lvgl\src\lv_objx/lv_cont.c ****     h_tot -= style->body.padding.inner;
 433:..\..\..\lvgl\version_6.1.2\lvgl\src\lv_objx/lv_cont.c **** 
 434:..\..\..\lvgl\version_6.1.2\lvgl\src\lv_objx/lv_cont.c ****     /* Disable child change action because the children will be moved a lot
 435:..\..\..\lvgl\version_6.1.2\lvgl\src\lv_objx/lv_cont.c ****      * an unnecessary child change signals could be sent*/
 436:..\..\..\lvgl\version_6.1.2\lvgl\src\lv_objx/lv_cont.c ****     lv_obj_set_protect(cont, LV_PROTECT_CHILD_CHG);
 437:..\..\..\lvgl\version_6.1.2\lvgl\src\lv_objx/lv_cont.c **** 
 438:..\..\..\lvgl\version_6.1.2\lvgl\src\lv_objx/lv_cont.c ****     /* Align the children */
 439:..\..\..\lvgl\version_6.1.2\lvgl\src\lv_objx/lv_cont.c ****     lv_coord_t last_cord = -(h_tot / 2);
 440:..\..\..\lvgl\version_6.1.2\lvgl\src\lv_objx/lv_cont.c ****     LV_LL_READ_BACK(cont->child_ll, child)
 441:..\..\..\lvgl\version_6.1.2\lvgl\src\lv_objx/lv_cont.c ****     {
 442:..\..\..\lvgl\version_6.1.2\lvgl\src\lv_objx/lv_cont.c ****         if(lv_obj_get_hidden(child) != false || lv_obj_is_protected(child, LV_PROTECT_POS) != false
 443:..\..\..\lvgl\version_6.1.2\lvgl\src\lv_objx/lv_cont.c **** 
 444:..\..\..\lvgl\version_6.1.2\lvgl\src\lv_objx/lv_cont.c ****         lv_obj_align(child, cont, LV_ALIGN_CENTER, 0, last_cord + lv_obj_get_height(child) / 2);
 445:..\..\..\lvgl\version_6.1.2\lvgl\src\lv_objx/lv_cont.c ****         last_cord += lv_obj_get_height(child) + style->body.padding.inner;
 446:..\..\..\lvgl\version_6.1.2\lvgl\src\lv_objx/lv_cont.c ****     }
 447:..\..\..\lvgl\version_6.1.2\lvgl\src\lv_objx/lv_cont.c **** 
 448:..\..\..\lvgl\version_6.1.2\lvgl\src\lv_objx/lv_cont.c ****     lv_obj_clear_protect(cont, LV_PROTECT_CHILD_CHG);
 449:..\..\..\lvgl\version_6.1.2\lvgl\src\lv_objx/lv_cont.c **** }
 450:..\..\..\lvgl\version_6.1.2\lvgl\src\lv_objx/lv_cont.c **** 
 451:..\..\..\lvgl\version_6.1.2\lvgl\src\lv_objx/lv_cont.c **** /**
 452:..\..\..\lvgl\version_6.1.2\lvgl\src\lv_objx/lv_cont.c ****  * Handle the pretty layout. Put as many object as possible in row
 453:..\..\..\lvgl\version_6.1.2\lvgl\src\lv_objx/lv_cont.c ****  * then begin a new row
 454:..\..\..\lvgl\version_6.1.2\lvgl\src\lv_objx/lv_cont.c ****  * @param cont pointer to an object which layout should be handled
 455:..\..\..\lvgl\version_6.1.2\lvgl\src\lv_objx/lv_cont.c ****  */
 456:..\..\..\lvgl\version_6.1.2\lvgl\src\lv_objx/lv_cont.c **** static void lv_cont_layout_pretty(lv_obj_t * cont)
 457:..\..\..\lvgl\version_6.1.2\lvgl\src\lv_objx/lv_cont.c **** {
 458:..\..\..\lvgl\version_6.1.2\lvgl\src\lv_objx/lv_cont.c ****     lv_obj_t * child_rs;  /* Row starter child */
 459:..\..\..\lvgl\version_6.1.2\lvgl\src\lv_objx/lv_cont.c ****     lv_obj_t * child_rc;  /* Row closer child */
 460:..\..\..\lvgl\version_6.1.2\lvgl\src\lv_objx/lv_cont.c ****     lv_obj_t * child_tmp; /* Temporary child */
 461:..\..\..\lvgl\version_6.1.2\lvgl\src\lv_objx/lv_cont.c ****     const lv_style_t * style = lv_obj_get_style(cont);
 462:..\..\..\lvgl\version_6.1.2\lvgl\src\lv_objx/lv_cont.c ****     lv_coord_t w_obj         = lv_obj_get_width(cont);
 463:..\..\..\lvgl\version_6.1.2\lvgl\src\lv_objx/lv_cont.c ****     lv_coord_t act_y         = style->body.padding.top;
 464:..\..\..\lvgl\version_6.1.2\lvgl\src\lv_objx/lv_cont.c ****     /* Disable child change action because the children will be moved a lot
 465:..\..\..\lvgl\version_6.1.2\lvgl\src\lv_objx/lv_cont.c ****      * an unnecessary child change signals could be sent*/
 466:..\..\..\lvgl\version_6.1.2\lvgl\src\lv_objx/lv_cont.c **** 
 467:..\..\..\lvgl\version_6.1.2\lvgl\src\lv_objx/lv_cont.c ****     child_rs = lv_ll_get_tail(&cont->child_ll); /*Set the row starter child*/
ARM GAS  C:\Users\pearlstl\AppData\Local\Temp\cciL9yyu.s 			page 11


 468:..\..\..\lvgl\version_6.1.2\lvgl\src\lv_objx/lv_cont.c ****     if(child_rs == NULL) return;                /*Return if no child*/
 469:..\..\..\lvgl\version_6.1.2\lvgl\src\lv_objx/lv_cont.c **** 
 470:..\..\..\lvgl\version_6.1.2\lvgl\src\lv_objx/lv_cont.c ****     lv_obj_set_protect(cont, LV_PROTECT_CHILD_CHG);
 471:..\..\..\lvgl\version_6.1.2\lvgl\src\lv_objx/lv_cont.c **** 
 472:..\..\..\lvgl\version_6.1.2\lvgl\src\lv_objx/lv_cont.c ****     child_rc = child_rs; /*Initially the the row starter and closer is the same*/
 473:..\..\..\lvgl\version_6.1.2\lvgl\src\lv_objx/lv_cont.c ****     while(child_rs != NULL) {
 474:..\..\..\lvgl\version_6.1.2\lvgl\src\lv_objx/lv_cont.c ****         lv_coord_t h_row = 0;
 475:..\..\..\lvgl\version_6.1.2\lvgl\src\lv_objx/lv_cont.c ****         lv_coord_t w_row =
 476:..\..\..\lvgl\version_6.1.2\lvgl\src\lv_objx/lv_cont.c ****             style->body.padding.left + style->body.padding.right; /*The width is at least the left+
 477:..\..\..\lvgl\version_6.1.2\lvgl\src\lv_objx/lv_cont.c ****         uint32_t obj_num = 0;
 478:..\..\..\lvgl\version_6.1.2\lvgl\src\lv_objx/lv_cont.c **** 
 479:..\..\..\lvgl\version_6.1.2\lvgl\src\lv_objx/lv_cont.c ****         /*Find the row closer object and collect some data*/
 480:..\..\..\lvgl\version_6.1.2\lvgl\src\lv_objx/lv_cont.c ****         do {
 481:..\..\..\lvgl\version_6.1.2\lvgl\src\lv_objx/lv_cont.c ****             if(lv_obj_get_hidden(child_rc) == false && lv_obj_is_protected(child_rc, LV_PROTECT_POS
 482:..\..\..\lvgl\version_6.1.2\lvgl\src\lv_objx/lv_cont.c ****                 /*If this object is already not fit then break*/
 483:..\..\..\lvgl\version_6.1.2\lvgl\src\lv_objx/lv_cont.c ****                 if(w_row + lv_obj_get_width(child_rc) > w_obj) {
 484:..\..\..\lvgl\version_6.1.2\lvgl\src\lv_objx/lv_cont.c ****                     /*Step back one child because the last already not fit, so the previous is the
 485:..\..\..\lvgl\version_6.1.2\lvgl\src\lv_objx/lv_cont.c ****                      * closer*/
 486:..\..\..\lvgl\version_6.1.2\lvgl\src\lv_objx/lv_cont.c ****                     if(child_rc != NULL && obj_num != 0) {
 487:..\..\..\lvgl\version_6.1.2\lvgl\src\lv_objx/lv_cont.c ****                         child_rc = lv_ll_get_next(&cont->child_ll, child_rc);
 488:..\..\..\lvgl\version_6.1.2\lvgl\src\lv_objx/lv_cont.c ****                     }
 489:..\..\..\lvgl\version_6.1.2\lvgl\src\lv_objx/lv_cont.c ****                     break;
 490:..\..\..\lvgl\version_6.1.2\lvgl\src\lv_objx/lv_cont.c ****                 }
 491:..\..\..\lvgl\version_6.1.2\lvgl\src\lv_objx/lv_cont.c ****                 w_row += lv_obj_get_width(child_rc) + style->body.padding.inner; /*Add the object w
 492:..\..\..\lvgl\version_6.1.2\lvgl\src\lv_objx/lv_cont.c ****                 h_row = LV_MATH_MAX(h_row, lv_obj_get_height(child_rc));         /*Search the highe
 493:..\..\..\lvgl\version_6.1.2\lvgl\src\lv_objx/lv_cont.c ****                 obj_num++;
 494:..\..\..\lvgl\version_6.1.2\lvgl\src\lv_objx/lv_cont.c ****                 if(lv_obj_is_protected(child_rc, LV_PROTECT_FOLLOW))
 495:..\..\..\lvgl\version_6.1.2\lvgl\src\lv_objx/lv_cont.c ****                     break; /*If can not be followed by an other object then break here*/
 496:..\..\..\lvgl\version_6.1.2\lvgl\src\lv_objx/lv_cont.c ****             }
 497:..\..\..\lvgl\version_6.1.2\lvgl\src\lv_objx/lv_cont.c ****             child_rc = lv_ll_get_prev(&cont->child_ll, child_rc); /*Load the next object*/
 498:..\..\..\lvgl\version_6.1.2\lvgl\src\lv_objx/lv_cont.c ****             if(obj_num == 0)
 499:..\..\..\lvgl\version_6.1.2\lvgl\src\lv_objx/lv_cont.c ****                 child_rs = child_rc; /*If the first object was hidden (or too long) then set the
 500:..\..\..\lvgl\version_6.1.2\lvgl\src\lv_objx/lv_cont.c ****                                         next as first */
 501:..\..\..\lvgl\version_6.1.2\lvgl\src\lv_objx/lv_cont.c ****         } while(child_rc != NULL);
 502:..\..\..\lvgl\version_6.1.2\lvgl\src\lv_objx/lv_cont.c **** 
 503:..\..\..\lvgl\version_6.1.2\lvgl\src\lv_objx/lv_cont.c ****         /*If the object is too long  then align it to the middle*/
 504:..\..\..\lvgl\version_6.1.2\lvgl\src\lv_objx/lv_cont.c ****         if(obj_num == 0) {
 505:..\..\..\lvgl\version_6.1.2\lvgl\src\lv_objx/lv_cont.c ****             if(child_rc != NULL) {
 506:..\..\..\lvgl\version_6.1.2\lvgl\src\lv_objx/lv_cont.c ****                 lv_obj_align(child_rc, cont, LV_ALIGN_IN_TOP_MID, 0, act_y);
 507:..\..\..\lvgl\version_6.1.2\lvgl\src\lv_objx/lv_cont.c ****                 h_row = lv_obj_get_height(child_rc); /*Not set previously because of the early brea
 508:..\..\..\lvgl\version_6.1.2\lvgl\src\lv_objx/lv_cont.c ****             }
 509:..\..\..\lvgl\version_6.1.2\lvgl\src\lv_objx/lv_cont.c ****         }
 510:..\..\..\lvgl\version_6.1.2\lvgl\src\lv_objx/lv_cont.c ****         /*If there is only one object in the row then align it to the middle*/
 511:..\..\..\lvgl\version_6.1.2\lvgl\src\lv_objx/lv_cont.c ****         else if(obj_num == 1) {
 512:..\..\..\lvgl\version_6.1.2\lvgl\src\lv_objx/lv_cont.c ****             lv_obj_align(child_rs, cont, LV_ALIGN_IN_TOP_MID, 0, act_y);
 513:..\..\..\lvgl\version_6.1.2\lvgl\src\lv_objx/lv_cont.c ****         }
 514:..\..\..\lvgl\version_6.1.2\lvgl\src\lv_objx/lv_cont.c ****         /*If there are two object in the row then align them proportionally*/
 515:..\..\..\lvgl\version_6.1.2\lvgl\src\lv_objx/lv_cont.c ****         else if(obj_num == 2) {
 516:..\..\..\lvgl\version_6.1.2\lvgl\src\lv_objx/lv_cont.c ****             lv_obj_t * obj1 = child_rs;
 517:..\..\..\lvgl\version_6.1.2\lvgl\src\lv_objx/lv_cont.c ****             lv_obj_t * obj2 = lv_ll_get_prev(&cont->child_ll, child_rs);
 518:..\..\..\lvgl\version_6.1.2\lvgl\src\lv_objx/lv_cont.c ****             w_row           = lv_obj_get_width(obj1) + lv_obj_get_width(obj2);
 519:..\..\..\lvgl\version_6.1.2\lvgl\src\lv_objx/lv_cont.c ****             lv_coord_t pad  = (w_obj - w_row) / 3;
 520:..\..\..\lvgl\version_6.1.2\lvgl\src\lv_objx/lv_cont.c ****             lv_obj_align(obj1, cont, LV_ALIGN_IN_TOP_LEFT, pad, act_y + (h_row - lv_obj_get_height(
 521:..\..\..\lvgl\version_6.1.2\lvgl\src\lv_objx/lv_cont.c ****             lv_obj_align(obj2, cont, LV_ALIGN_IN_TOP_RIGHT, -pad, act_y + (h_row - lv_obj_get_heigh
 522:..\..\..\lvgl\version_6.1.2\lvgl\src\lv_objx/lv_cont.c ****         }
 523:..\..\..\lvgl\version_6.1.2\lvgl\src\lv_objx/lv_cont.c ****         /* Align the children (from child_rs to child_rc)*/
 524:..\..\..\lvgl\version_6.1.2\lvgl\src\lv_objx/lv_cont.c ****         else {
ARM GAS  C:\Users\pearlstl\AppData\Local\Temp\cciL9yyu.s 			page 12


 525:..\..\..\lvgl\version_6.1.2\lvgl\src\lv_objx/lv_cont.c ****             w_row -= style->body.padding.inner * obj_num;
 526:..\..\..\lvgl\version_6.1.2\lvgl\src\lv_objx/lv_cont.c ****             lv_coord_t new_opad = (w_obj - w_row) / (obj_num - 1);
 527:..\..\..\lvgl\version_6.1.2\lvgl\src\lv_objx/lv_cont.c ****             lv_coord_t act_x    = style->body.padding.left; /*x init*/
 528:..\..\..\lvgl\version_6.1.2\lvgl\src\lv_objx/lv_cont.c ****             child_tmp           = child_rs;
 529:..\..\..\lvgl\version_6.1.2\lvgl\src\lv_objx/lv_cont.c ****             while(child_tmp != NULL) {
 530:..\..\..\lvgl\version_6.1.2\lvgl\src\lv_objx/lv_cont.c ****                 if(lv_obj_get_hidden(child_tmp) == false && lv_obj_is_protected(child_tmp, LV_PROTE
 531:..\..\..\lvgl\version_6.1.2\lvgl\src\lv_objx/lv_cont.c ****                     lv_obj_align(child_tmp, cont, LV_ALIGN_IN_TOP_LEFT, act_x,
 532:..\..\..\lvgl\version_6.1.2\lvgl\src\lv_objx/lv_cont.c ****                                  act_y + (h_row - lv_obj_get_height(child_tmp)) / 2);
 533:..\..\..\lvgl\version_6.1.2\lvgl\src\lv_objx/lv_cont.c ****                     act_x += lv_obj_get_width(child_tmp) + new_opad;
 534:..\..\..\lvgl\version_6.1.2\lvgl\src\lv_objx/lv_cont.c ****                 }
 535:..\..\..\lvgl\version_6.1.2\lvgl\src\lv_objx/lv_cont.c ****                 if(child_tmp == child_rc) break;
 536:..\..\..\lvgl\version_6.1.2\lvgl\src\lv_objx/lv_cont.c ****                 child_tmp = lv_ll_get_prev(&cont->child_ll, child_tmp);
 537:..\..\..\lvgl\version_6.1.2\lvgl\src\lv_objx/lv_cont.c ****             }
 538:..\..\..\lvgl\version_6.1.2\lvgl\src\lv_objx/lv_cont.c ****         }
 539:..\..\..\lvgl\version_6.1.2\lvgl\src\lv_objx/lv_cont.c **** 
 540:..\..\..\lvgl\version_6.1.2\lvgl\src\lv_objx/lv_cont.c ****         if(child_rc == NULL) break;
 541:..\..\..\lvgl\version_6.1.2\lvgl\src\lv_objx/lv_cont.c ****         act_y += style->body.padding.inner + h_row;           /*y increment*/
 542:..\..\..\lvgl\version_6.1.2\lvgl\src\lv_objx/lv_cont.c ****         child_rs = lv_ll_get_prev(&cont->child_ll, child_rc); /*Go to the next object*/
 543:..\..\..\lvgl\version_6.1.2\lvgl\src\lv_objx/lv_cont.c ****         child_rc = child_rs;
 544:..\..\..\lvgl\version_6.1.2\lvgl\src\lv_objx/lv_cont.c ****     }
 545:..\..\..\lvgl\version_6.1.2\lvgl\src\lv_objx/lv_cont.c ****     lv_obj_clear_protect(cont, LV_PROTECT_CHILD_CHG);
 546:..\..\..\lvgl\version_6.1.2\lvgl\src\lv_objx/lv_cont.c **** }
 547:..\..\..\lvgl\version_6.1.2\lvgl\src\lv_objx/lv_cont.c **** 
 548:..\..\..\lvgl\version_6.1.2\lvgl\src\lv_objx/lv_cont.c **** /**
 549:..\..\..\lvgl\version_6.1.2\lvgl\src\lv_objx/lv_cont.c ****  * Handle the grid layout. Align same-sized objects in a grid
 550:..\..\..\lvgl\version_6.1.2\lvgl\src\lv_objx/lv_cont.c ****  * @param cont pointer to an object which layout should be handled
 551:..\..\..\lvgl\version_6.1.2\lvgl\src\lv_objx/lv_cont.c ****  */
 552:..\..\..\lvgl\version_6.1.2\lvgl\src\lv_objx/lv_cont.c **** static void lv_cont_layout_grid(lv_obj_t * cont)
 553:..\..\..\lvgl\version_6.1.2\lvgl\src\lv_objx/lv_cont.c **** {
 554:..\..\..\lvgl\version_6.1.2\lvgl\src\lv_objx/lv_cont.c ****     lv_obj_t * child;
 555:..\..\..\lvgl\version_6.1.2\lvgl\src\lv_objx/lv_cont.c ****     const lv_style_t * style = lv_obj_get_style(cont);
 102              		.loc 1 555 0
 103 0042 4846     		mov	r0, r9
 104 0044 FFF7FEFF 		bl	lv_obj_get_style
 105              	.LVL6:
 106 0048 8346     		mov	fp, r0
 107              	.LVL7:
 556:..\..\..\lvgl\version_6.1.2\lvgl\src\lv_objx/lv_cont.c ****     lv_coord_t w_tot         = lv_obj_get_width(cont);
 108              		.loc 1 556 0
 109 004a 4846     		mov	r0, r9
 110              	.LVL8:
 111 004c FFF7FEFF 		bl	lv_obj_get_width
 112              	.LVL9:
 557:..\..\..\lvgl\version_6.1.2\lvgl\src\lv_objx/lv_cont.c ****     lv_coord_t w_obj         = lv_obj_get_width(lv_obj_get_child(cont, NULL));
 113              		.loc 1 557 0
 114 0050 0021     		movs	r1, #0
 556:..\..\..\lvgl\version_6.1.2\lvgl\src\lv_objx/lv_cont.c ****     lv_coord_t w_tot         = lv_obj_get_width(cont);
 115              		.loc 1 556 0
 116 0052 0746     		mov	r7, r0
 117              	.LVL10:
 118              		.loc 1 557 0
 119 0054 4846     		mov	r0, r9
 120 0056 FFF7FEFF 		bl	lv_obj_get_child
 121              	.LVL11:
 122 005a FFF7FEFF 		bl	lv_obj_get_width
 123              	.LVL12:
 124 005e 0546     		mov	r5, r0
ARM GAS  C:\Users\pearlstl\AppData\Local\Temp\cciL9yyu.s 			page 13


 125              	.LVL13:
 558:..\..\..\lvgl\version_6.1.2\lvgl\src\lv_objx/lv_cont.c ****     lv_coord_t w_fit         =  lv_obj_get_width_fit(cont);
 126              		.loc 1 558 0
 127 0060 4846     		mov	r0, r9
 128 0062 FFF7FEFF 		bl	lv_obj_get_width_fit
 129              	.LVL14:
 559:..\..\..\lvgl\version_6.1.2\lvgl\src\lv_objx/lv_cont.c ****     lv_coord_t h_obj         = lv_obj_get_height(lv_obj_get_child(cont, NULL));
 130              		.loc 1 559 0
 131 0066 0021     		movs	r1, #0
 558:..\..\..\lvgl\version_6.1.2\lvgl\src\lv_objx/lv_cont.c ****     lv_coord_t w_fit         =  lv_obj_get_width_fit(cont);
 132              		.loc 1 558 0
 133 0068 0446     		mov	r4, r0
 134              	.LVL15:
 135              		.loc 1 559 0
 136 006a 4846     		mov	r0, r9
 137 006c FFF7FEFF 		bl	lv_obj_get_child
 138              	.LVL16:
 139 0070 FFF7FEFF 		bl	lv_obj_get_height
 140              	.LVL17:
 560:..\..\..\lvgl\version_6.1.2\lvgl\src\lv_objx/lv_cont.c ****     uint16_t obj_row         = (w_fit) / (w_obj + style->body.padding.inner); /*Obj. num. in a row*
 141              		.loc 1 560 0
 142 0074 BBF92820 		ldrsh	r2, [fp, #40]
 143 0078 5619     		adds	r6, r2, r5
 144 007a 94FBF6F6 		sdiv	r6, r4, r6
 145 007e B6B2     		uxth	r6, r6
 146              	.LVL18:
 561:..\..\..\lvgl\version_6.1.2\lvgl\src\lv_objx/lv_cont.c ****     lv_coord_t x_ofs;
 562:..\..\..\lvgl\version_6.1.2\lvgl\src\lv_objx/lv_cont.c ****     if(obj_row > 1) {
 147              		.loc 1 562 0
 148 0080 012E     		cmp	r6, #1
 149 0082 40F24881 		bls	.L48
 563:..\..\..\lvgl\version_6.1.2\lvgl\src\lv_objx/lv_cont.c ****         x_ofs = w_obj + (w_fit - (obj_row * w_obj)) / (obj_row - 1);
 150              		.loc 1 563 0
 151 0086 06FB1544 		mls	r4, r6, r5, r4
 152              	.LVL19:
 564:..\..\..\lvgl\version_6.1.2\lvgl\src\lv_objx/lv_cont.c ****     } else {
 565:..\..\..\lvgl\version_6.1.2\lvgl\src\lv_objx/lv_cont.c ****         x_ofs = w_tot / 2 - w_obj / 2;
 566:..\..\..\lvgl\version_6.1.2\lvgl\src\lv_objx/lv_cont.c ****     }
 567:..\..\..\lvgl\version_6.1.2\lvgl\src\lv_objx/lv_cont.c ****     lv_coord_t y_ofs = h_obj + style->body.padding.inner;
 153              		.loc 1 567 0
 154 008a 0244     		add	r2, r2, r0
 563:..\..\..\lvgl\version_6.1.2\lvgl\src\lv_objx/lv_cont.c ****         x_ofs = w_obj + (w_fit - (obj_row * w_obj)) / (obj_row - 1);
 155              		.loc 1 563 0
 156 008c 731E     		subs	r3, r6, #1
 157 008e 94FBF3F3 		sdiv	r3, r4, r3
 158 0092 2B44     		add	r3, r3, r5
 159              		.loc 1 567 0
 160 0094 92B2     		uxth	r2, r2
 563:..\..\..\lvgl\version_6.1.2\lvgl\src\lv_objx/lv_cont.c ****         x_ofs = w_obj + (w_fit - (obj_row * w_obj)) / (obj_row - 1);
 161              		.loc 1 563 0
 162 0096 9BB2     		uxth	r3, r3
 568:..\..\..\lvgl\version_6.1.2\lvgl\src\lv_objx/lv_cont.c **** 
 569:..\..\..\lvgl\version_6.1.2\lvgl\src\lv_objx/lv_cont.c ****     /* Disable child change action because the children will be moved a lot
 570:..\..\..\lvgl\version_6.1.2\lvgl\src\lv_objx/lv_cont.c ****      * an unnecessary child change signals could be sent*/
 571:..\..\..\lvgl\version_6.1.2\lvgl\src\lv_objx/lv_cont.c ****     lv_obj_set_protect(cont, LV_PROTECT_CHILD_CHG);
 163              		.loc 1 571 0
 164 0098 0121     		movs	r1, #1
ARM GAS  C:\Users\pearlstl\AppData\Local\Temp\cciL9yyu.s 			page 14


 165 009a 4846     		mov	r0, r9
 166              	.LVL20:
 572:..\..\..\lvgl\version_6.1.2\lvgl\src\lv_objx/lv_cont.c **** 
 573:..\..\..\lvgl\version_6.1.2\lvgl\src\lv_objx/lv_cont.c ****     /* Align the children */
 574:..\..\..\lvgl\version_6.1.2\lvgl\src\lv_objx/lv_cont.c ****     lv_coord_t act_x = style->body.padding.left;
 575:..\..\..\lvgl\version_6.1.2\lvgl\src\lv_objx/lv_cont.c ****     lv_coord_t act_y = style->body.padding.top;
 576:..\..\..\lvgl\version_6.1.2\lvgl\src\lv_objx/lv_cont.c ****     uint16_t obj_cnt = 0;
 577:..\..\..\lvgl\version_6.1.2\lvgl\src\lv_objx/lv_cont.c ****     LV_LL_READ_BACK(cont->child_ll, child)
 167              		.loc 1 577 0
 168 009c 09F10405 		add	r5, r9, #4
 169              	.LVL21:
 567:..\..\..\lvgl\version_6.1.2\lvgl\src\lv_objx/lv_cont.c **** 
 170              		.loc 1 567 0
 171 00a0 0492     		str	r2, [sp, #16]
 563:..\..\..\lvgl\version_6.1.2\lvgl\src\lv_objx/lv_cont.c ****     } else {
 172              		.loc 1 563 0
 173 00a2 0393     		str	r3, [sp, #12]
 174              	.LVL22:
 571:..\..\..\lvgl\version_6.1.2\lvgl\src\lv_objx/lv_cont.c **** 
 175              		.loc 1 571 0
 176 00a4 FFF7FEFF 		bl	lv_obj_set_protect
 177              	.LVL23:
 178              		.loc 1 577 0
 179 00a8 2846     		mov	r0, r5
 574:..\..\..\lvgl\version_6.1.2\lvgl\src\lv_objx/lv_cont.c ****     lv_coord_t act_y = style->body.padding.top;
 180              		.loc 1 574 0
 181 00aa BBF92470 		ldrsh	r7, [fp, #36]
 182              	.LVL24:
 575:..\..\..\lvgl\version_6.1.2\lvgl\src\lv_objx/lv_cont.c ****     uint16_t obj_cnt = 0;
 183              		.loc 1 575 0
 184 00ae BBF92080 		ldrsh	r8, [fp, #32]
 185              	.LVL25:
 186              		.loc 1 577 0
 187 00b2 FFF7FEFF 		bl	lv_ll_get_tail
 188              	.LVL26:
 189 00b6 0446     		mov	r4, r0
 190 00b8 0028     		cmp	r0, #0
 191 00ba 00F09D81 		beq	.L11
 192 00be 4FF0000A 		mov	r10, #0
 193 00c2 CDF81490 		str	r9, [sp, #20]
 194 00c6 07E0     		b	.L54
 195              	.LVL27:
 196              	.L52:
 197 00c8 2146     		mov	r1, r4
 198 00ca 2846     		mov	r0, r5
 199 00cc FFF7FEFF 		bl	lv_ll_get_prev
 200              	.LVL28:
 201 00d0 0446     		mov	r4, r0
 202 00d2 0028     		cmp	r0, #0
 203 00d4 00F0DA81 		beq	.L118
 204              	.LVL29:
 205              	.L54:
 578:..\..\..\lvgl\version_6.1.2\lvgl\src\lv_objx/lv_cont.c ****     {
 579:..\..\..\lvgl\version_6.1.2\lvgl\src\lv_objx/lv_cont.c ****         if(lv_obj_get_hidden(child) != false || lv_obj_is_protected(child, LV_PROTECT_POS) != false
 206              		.loc 1 579 0
 207 00d8 2046     		mov	r0, r4
 208 00da FFF7FEFF 		bl	lv_obj_get_hidden
ARM GAS  C:\Users\pearlstl\AppData\Local\Temp\cciL9yyu.s 			page 15


 209              	.LVL30:
 210 00de 0028     		cmp	r0, #0
 211 00e0 F2D1     		bne	.L52
 212 00e2 0421     		movs	r1, #4
 213 00e4 2046     		mov	r0, r4
 214 00e6 FFF7FEFF 		bl	lv_obj_is_protected
 215              	.LVL31:
 580:..\..\..\lvgl\version_6.1.2\lvgl\src\lv_objx/lv_cont.c **** 
 581:..\..\..\lvgl\version_6.1.2\lvgl\src\lv_objx/lv_cont.c ****         if(obj_row > 1) {
 582:..\..\..\lvgl\version_6.1.2\lvgl\src\lv_objx/lv_cont.c ****             lv_obj_set_pos(child, act_x, act_y);
 216              		.loc 1 582 0
 217 00ea 3946     		mov	r1, r7
 579:..\..\..\lvgl\version_6.1.2\lvgl\src\lv_objx/lv_cont.c **** 
 218              		.loc 1 579 0
 219 00ec 8146     		mov	r9, r0
 220              		.loc 1 582 0
 221 00ee 4246     		mov	r2, r8
 579:..\..\..\lvgl\version_6.1.2\lvgl\src\lv_objx/lv_cont.c **** 
 222              		.loc 1 579 0
 223 00f0 0028     		cmp	r0, #0
 224 00f2 E9D1     		bne	.L52
 225              		.loc 1 582 0
 226 00f4 2046     		mov	r0, r4
 583:..\..\..\lvgl\version_6.1.2\lvgl\src\lv_objx/lv_cont.c ****             act_x += x_ofs;
 584:..\..\..\lvgl\version_6.1.2\lvgl\src\lv_objx/lv_cont.c ****         } else {
 585:..\..\..\lvgl\version_6.1.2\lvgl\src\lv_objx/lv_cont.c ****             lv_obj_set_pos(child, x_ofs, act_y);
 586:..\..\..\lvgl\version_6.1.2\lvgl\src\lv_objx/lv_cont.c ****         }
 587:..\..\..\lvgl\version_6.1.2\lvgl\src\lv_objx/lv_cont.c ****         obj_cnt++;
 227              		.loc 1 587 0
 228 00f6 0AF1010A 		add	r10, r10, #1
 229              	.LVL32:
 582:..\..\..\lvgl\version_6.1.2\lvgl\src\lv_objx/lv_cont.c ****             act_x += x_ofs;
 230              		.loc 1 582 0
 231 00fa FFF7FEFF 		bl	lv_obj_set_pos
 232              	.LVL33:
 233              		.loc 1 587 0
 234 00fe 1FFA8AFA 		uxth	r10, r10
 235              	.LVL34:
 583:..\..\..\lvgl\version_6.1.2\lvgl\src\lv_objx/lv_cont.c ****             act_x += x_ofs;
 236              		.loc 1 583 0
 237 0102 039B     		ldr	r3, [sp, #12]
 588:..\..\..\lvgl\version_6.1.2\lvgl\src\lv_objx/lv_cont.c **** 
 589:..\..\..\lvgl\version_6.1.2\lvgl\src\lv_objx/lv_cont.c ****         if(obj_cnt >= obj_row) {
 238              		.loc 1 589 0
 239 0104 5645     		cmp	r6, r10
 583:..\..\..\lvgl\version_6.1.2\lvgl\src\lv_objx/lv_cont.c ****         } else {
 240              		.loc 1 583 0
 241 0106 1F44     		add	r7, r7, r3
 242              	.LVL35:
 243              		.loc 1 589 0
 244 0108 40F2C381 		bls	.L53
 583:..\..\..\lvgl\version_6.1.2\lvgl\src\lv_objx/lv_cont.c ****         } else {
 245              		.loc 1 583 0
 246 010c 3FB2     		sxth	r7, r7
 247 010e DBE7     		b	.L52
 248              	.LVL36:
 249              	.L113:
ARM GAS  C:\Users\pearlstl\AppData\Local\Temp\cciL9yyu.s 			page 16


 250              	.LBE48:
 251              	.LBE47:
 252              	.LBB51:
 253              	.LBB52:
 419:..\..\..\lvgl\version_6.1.2\lvgl\src\lv_objx/lv_cont.c ****     uint32_t obj_num         = 0;
 254              		.loc 1 419 0
 255 0110 4846     		mov	r0, r9
 256 0112 FFF7FEFF 		bl	lv_obj_get_style
 257              	.LVL37:
 423:..\..\..\lvgl\version_6.1.2\lvgl\src\lv_objx/lv_cont.c ****     {
 258              		.loc 1 423 0
 259 0116 09F10405 		add	r5, r9, #4
 419:..\..\..\lvgl\version_6.1.2\lvgl\src\lv_objx/lv_cont.c ****     uint32_t obj_num         = 0;
 260              		.loc 1 419 0
 261 011a 0746     		mov	r7, r0
 262              	.LVL38:
 423:..\..\..\lvgl\version_6.1.2\lvgl\src\lv_objx/lv_cont.c ****     {
 263              		.loc 1 423 0
 264 011c 2846     		mov	r0, r5
 265              	.LVL39:
 266 011e FFF7FEFF 		bl	lv_ll_get_head
 267              	.LVL40:
 268 0122 0446     		mov	r4, r0
 269 0124 0028     		cmp	r0, #0
 270 0126 89D0     		beq	.L1
 271 0128 4FF00008 		mov	r8, #0
 272 012c 4646     		mov	r6, r8
 273 012e 07E0     		b	.L7
 274              	.LVL41:
 275              	.L6:
 276 0130 2146     		mov	r1, r4
 277 0132 2846     		mov	r0, r5
 278 0134 FFF7FEFF 		bl	lv_ll_get_next
 279              	.LVL42:
 280 0138 0446     		mov	r4, r0
 281 013a 0028     		cmp	r0, #0
 282 013c 00F06381 		beq	.L119
 283              	.LVL43:
 284              	.L7:
 425:..\..\..\lvgl\version_6.1.2\lvgl\src\lv_objx/lv_cont.c ****         h_tot += lv_obj_get_height(child) + style->body.padding.inner;
 285              		.loc 1 425 0
 286 0140 2046     		mov	r0, r4
 287 0142 FFF7FEFF 		bl	lv_obj_get_hidden
 288              	.LVL44:
 289 0146 0028     		cmp	r0, #0
 290 0148 F2D1     		bne	.L6
 291 014a 0421     		movs	r1, #4
 292 014c 2046     		mov	r0, r4
 293 014e FFF7FEFF 		bl	lv_obj_is_protected
 294              	.LVL45:
 295 0152 0028     		cmp	r0, #0
 296 0154 ECD1     		bne	.L6
 426:..\..\..\lvgl\version_6.1.2\lvgl\src\lv_objx/lv_cont.c ****         obj_num++;
 297              		.loc 1 426 0
 298 0156 2046     		mov	r0, r4
 299 0158 FFF7FEFF 		bl	lv_obj_get_height
 300              	.LVL46:
ARM GAS  C:\Users\pearlstl\AppData\Local\Temp\cciL9yyu.s 			page 17


 301 015c B7F92830 		ldrsh	r3, [r7, #40]
 302 0160 1844     		add	r0, r0, r3
 303 0162 0644     		add	r6, r6, r0
 304              	.LVL47:
 427:..\..\..\lvgl\version_6.1.2\lvgl\src\lv_objx/lv_cont.c ****     }
 305              		.loc 1 427 0
 306 0164 08F10108 		add	r8, r8, #1
 307              	.LVL48:
 426:..\..\..\lvgl\version_6.1.2\lvgl\src\lv_objx/lv_cont.c ****         obj_num++;
 308              		.loc 1 426 0
 309 0168 36B2     		sxth	r6, r6
 310              	.LVL49:
 311 016a E1E7     		b	.L6
 312              	.LVL50:
 313              	.L114:
 314              	.LBE52:
 315              	.LBE51:
 316              	.LBB55:
 317              	.LBB56:
 318              	.LBB57:
 319              	.LBB58:
 184:..\..\..\lvgl\version_6.1.2\lvgl\src\lv_objx/lv_cont.c ****     return ext->layout;
 320              		.loc 1 184 0
 321 016c 4846     		mov	r0, r9
 322 016e FFF7FEFF 		bl	lv_obj_get_ext_attr
 323              	.LVL51:
 185:..\..\..\lvgl\version_6.1.2\lvgl\src\lv_objx/lv_cont.c **** }
 324              		.loc 1 185 0
 325 0172 0478     		ldrb	r4, [r0]	@ zero_extendqisi2
 326              	.LBE58:
 327              	.LBE57:
 317:..\..\..\lvgl\version_6.1.2\lvgl\src\lv_objx/lv_cont.c ****     lv_coord_t hpad_corr;
 328              		.loc 1 317 0
 329 0174 4846     		mov	r0, r9
 330              	.LVL52:
 331 0176 FFF7FEFF 		bl	lv_obj_get_style
 332              	.LVL53:
 333              	.LBB60:
 334              	.LBB59:
 185:..\..\..\lvgl\version_6.1.2\lvgl\src\lv_objx/lv_cont.c **** }
 335              		.loc 1 185 0
 336 017a 04F00F04 		and	r4, r4, #15
 337              	.LVL54:
 338              	.LBE59:
 339              	.LBE60:
 320:..\..\..\lvgl\version_6.1.2\lvgl\src\lv_objx/lv_cont.c ****         case LV_LAYOUT_COL_L:
 340              		.loc 1 320 0
 341 017e 032C     		cmp	r4, #3
 317:..\..\..\lvgl\version_6.1.2\lvgl\src\lv_objx/lv_cont.c ****     lv_coord_t hpad_corr;
 342              		.loc 1 317 0
 343 0180 0746     		mov	r7, r0
 344              	.LVL55:
 320:..\..\..\lvgl\version_6.1.2\lvgl\src\lv_objx/lv_cont.c ****         case LV_LAYOUT_COL_L:
 345              		.loc 1 320 0
 346 0182 00F02F82 		beq	.L14
 347 0186 042C     		cmp	r4, #4
 348 0188 00F02382 		beq	.L15
ARM GAS  C:\Users\pearlstl\AppData\Local\Temp\cciL9yyu.s 			page 18


 349 018c 022C     		cmp	r4, #2
 350 018e 00F0BD80 		beq	.L120
 334:..\..\..\lvgl\version_6.1.2\lvgl\src\lv_objx/lv_cont.c ****             align     = LV_ALIGN_IN_TOP_LEFT;
 351              		.loc 1 334 0
 352 0192 4FF00008 		mov	r8, #0
 335:..\..\..\lvgl\version_6.1.2\lvgl\src\lv_objx/lv_cont.c ****             break;
 353              		.loc 1 335 0
 354 0196 4FF0010A 		mov	r10, #1
 355              	.L13:
 356              	.LVL56:
 341:..\..\..\lvgl\version_6.1.2\lvgl\src\lv_objx/lv_cont.c ****     /* Align the children */
 357              		.loc 1 341 0
 358 019a 0121     		movs	r1, #1
 359 019c 4846     		mov	r0, r9
 360              	.LVL57:
 344:..\..\..\lvgl\version_6.1.2\lvgl\src\lv_objx/lv_cont.c ****     {
 361              		.loc 1 344 0
 362 019e 09F10405 		add	r5, r9, #4
 341:..\..\..\lvgl\version_6.1.2\lvgl\src\lv_objx/lv_cont.c ****     /* Align the children */
 363              		.loc 1 341 0
 364 01a2 FFF7FEFF 		bl	lv_obj_set_protect
 365              	.LVL58:
 344:..\..\..\lvgl\version_6.1.2\lvgl\src\lv_objx/lv_cont.c ****     {
 366              		.loc 1 344 0
 367 01a6 2846     		mov	r0, r5
 343:..\..\..\lvgl\version_6.1.2\lvgl\src\lv_objx/lv_cont.c ****     LV_LL_READ_BACK(cont->child_ll, child)
 368              		.loc 1 343 0
 369 01a8 B7F92060 		ldrsh	r6, [r7, #32]
 370              	.LVL59:
 344:..\..\..\lvgl\version_6.1.2\lvgl\src\lv_objx/lv_cont.c ****     {
 371              		.loc 1 344 0
 372 01ac FFF7FEFF 		bl	lv_ll_get_tail
 373              	.LVL60:
 374 01b0 0446     		mov	r4, r0
 375 01b2 40B9     		cbnz	r0, .L18
 376 01b4 20E1     		b	.L11
 377              	.LVL61:
 378              	.L17:
 379 01b6 2146     		mov	r1, r4
 380 01b8 2846     		mov	r0, r5
 381 01ba FFF7FEFF 		bl	lv_ll_get_prev
 382              	.LVL62:
 383 01be 0446     		mov	r4, r0
 384 01c0 0028     		cmp	r0, #0
 385 01c2 00F01981 		beq	.L11
 386              	.L18:
 346:..\..\..\lvgl\version_6.1.2\lvgl\src\lv_objx/lv_cont.c **** 
 387              		.loc 1 346 0
 388 01c6 2046     		mov	r0, r4
 389 01c8 FFF7FEFF 		bl	lv_obj_get_hidden
 390              	.LVL63:
 391 01cc 0028     		cmp	r0, #0
 392 01ce F2D1     		bne	.L17
 393 01d0 0421     		movs	r1, #4
 394 01d2 2046     		mov	r0, r4
 395 01d4 FFF7FEFF 		bl	lv_obj_is_protected
 396              	.LVL64:
ARM GAS  C:\Users\pearlstl\AppData\Local\Temp\cciL9yyu.s 			page 19


 397 01d8 0028     		cmp	r0, #0
 398 01da ECD1     		bne	.L17
 348:..\..\..\lvgl\version_6.1.2\lvgl\src\lv_objx/lv_cont.c ****         last_cord += lv_obj_get_height(child) + style->body.padding.inner;
 399              		.loc 1 348 0
 400 01dc 4346     		mov	r3, r8
 401 01de 0096     		str	r6, [sp]
 402 01e0 5246     		mov	r2, r10
 403 01e2 4946     		mov	r1, r9
 404 01e4 2046     		mov	r0, r4
 405 01e6 FFF7FEFF 		bl	lv_obj_align
 406              	.LVL65:
 349:..\..\..\lvgl\version_6.1.2\lvgl\src\lv_objx/lv_cont.c ****     }
 407              		.loc 1 349 0
 408 01ea 2046     		mov	r0, r4
 409 01ec FFF7FEFF 		bl	lv_obj_get_height
 410              	.LVL66:
 411 01f0 B7F92830 		ldrsh	r3, [r7, #40]
 412 01f4 1844     		add	r0, r0, r3
 413 01f6 8319     		adds	r3, r0, r6
 414 01f8 1EB2     		sxth	r6, r3
 415              	.LVL67:
 416 01fa DCE7     		b	.L17
 417              	.LVL68:
 418              	.L115:
 419              	.LBE56:
 420              	.LBE55:
 421              	.LBB63:
 422              	.LBB64:
 423              	.LBB65:
 424              	.LBB66:
 184:..\..\..\lvgl\version_6.1.2\lvgl\src\lv_objx/lv_cont.c ****     return ext->layout;
 425              		.loc 1 184 0
 426 01fc 4846     		mov	r0, r9
 427 01fe FFF7FEFF 		bl	lv_obj_get_ext_attr
 428              	.LVL69:
 185:..\..\..\lvgl\version_6.1.2\lvgl\src\lv_objx/lv_cont.c **** }
 429              		.loc 1 185 0
 430 0202 0478     		ldrb	r4, [r0]	@ zero_extendqisi2
 431              	.LBE66:
 432              	.LBE65:
 366:..\..\..\lvgl\version_6.1.2\lvgl\src\lv_objx/lv_cont.c ****     lv_coord_t vpad_corr;
 433              		.loc 1 366 0
 434 0204 4846     		mov	r0, r9
 435              	.LVL70:
 436 0206 FFF7FEFF 		bl	lv_obj_get_style
 437              	.LVL71:
 438 020a 0746     		mov	r7, r0
 368:..\..\..\lvgl\version_6.1.2\lvgl\src\lv_objx/lv_cont.c ****     switch(type) {
 439              		.loc 1 368 0
 440 020c 4846     		mov	r0, r9
 441 020e FFF7FEFF 		bl	lv_obj_get_base_dir
 442              	.LVL72:
 443              	.LBB68:
 444              	.LBB67:
 185:..\..\..\lvgl\version_6.1.2\lvgl\src\lv_objx/lv_cont.c **** }
 445              		.loc 1 185 0
 446 0212 04F00F04 		and	r4, r4, #15
ARM GAS  C:\Users\pearlstl\AppData\Local\Temp\cciL9yyu.s 			page 20


 447              	.LVL73:
 448              	.LBE67:
 449              	.LBE68:
 369:..\..\..\lvgl\version_6.1.2\lvgl\src\lv_objx/lv_cont.c ****         case LV_LAYOUT_ROW_T:
 450              		.loc 1 369 0
 451 0216 062C     		cmp	r4, #6
 368:..\..\..\lvgl\version_6.1.2\lvgl\src\lv_objx/lv_cont.c ****     switch(type) {
 452              		.loc 1 368 0
 453 0218 8346     		mov	fp, r0
 454              	.LVL74:
 369:..\..\..\lvgl\version_6.1.2\lvgl\src\lv_objx/lv_cont.c ****         case LV_LAYOUT_ROW_T:
 455              		.loc 1 369 0
 456 021a 00F0F681 		beq	.L21
 457 021e 072C     		cmp	r4, #7
 458 0220 68D0     		beq	.L22
 459 0222 052C     		cmp	r4, #5
 460 0224 00F0E381 		beq	.L121
 461              	.LVL75:
 384:..\..\..\lvgl\version_6.1.2\lvgl\src\lv_objx/lv_cont.c ****             break;
 462              		.loc 1 384 0
 463 0228 0128     		cmp	r0, #1
 383:..\..\..\lvgl\version_6.1.2\lvgl\src\lv_objx/lv_cont.c ****             align     = base_dir == LV_BIDI_DIR_RTL ? LV_ALIGN_IN_TOP_RIGHT : LV_ALIGN_IN_TOP_LEFT;
 464              		.loc 1 383 0
 465 022a 4FF0000A 		mov	r10, #0
 384:..\..\..\lvgl\version_6.1.2\lvgl\src\lv_objx/lv_cont.c ****             break;
 466              		.loc 1 384 0
 467 022e 00F0E381 		beq	.L61
 468              	.LVL76:
 469              	.L110:
 470 0232 4FF00108 		mov	r8, #1
 471              	.L25:
 472              	.LVL77:
 390:..\..\..\lvgl\version_6.1.2\lvgl\src\lv_objx/lv_cont.c **** 
 473              		.loc 1 390 0
 474 0236 0121     		movs	r1, #1
 475 0238 4846     		mov	r0, r9
 476              	.LVL78:
 477 023a FFF7FEFF 		bl	lv_obj_set_protect
 478              	.LVL79:
 395:..\..\..\lvgl\version_6.1.2\lvgl\src\lv_objx/lv_cont.c **** 
 479              		.loc 1 395 0
 480 023e B7F92450 		ldrsh	r5, [r7, #36]
 481              	.LVL80:
 482              	.L55:
 397:..\..\..\lvgl\version_6.1.2\lvgl\src\lv_objx/lv_cont.c ****     {
 483              		.loc 1 397 0
 484 0242 09F10406 		add	r6, r9, #4
 485 0246 3046     		mov	r0, r6
 486 0248 FFF7FEFF 		bl	lv_ll_get_tail
 487              	.LVL81:
 488 024c 0446     		mov	r4, r0
 489 024e 0028     		cmp	r0, #0
 490 0250 00F0D280 		beq	.L11
 491 0254 BBF1010F 		cmp	fp, #1
 492 0258 08D1     		bne	.L28
 493 025a 45E0     		b	.L30
 494              	.LVL82:
ARM GAS  C:\Users\pearlstl\AppData\Local\Temp\cciL9yyu.s 			page 21


 495              	.L27:
 496 025c 2146     		mov	r1, r4
 497 025e 3046     		mov	r0, r6
 498 0260 FFF7FEFF 		bl	lv_ll_get_prev
 499              	.LVL83:
 500 0264 0446     		mov	r4, r0
 501 0266 0028     		cmp	r0, #0
 502 0268 00F0C680 		beq	.L11
 503              	.L28:
 399:..\..\..\lvgl\version_6.1.2\lvgl\src\lv_objx/lv_cont.c **** 
 504              		.loc 1 399 0
 505 026c 2046     		mov	r0, r4
 506 026e FFF7FEFF 		bl	lv_obj_get_hidden
 507              	.LVL84:
 508 0272 0028     		cmp	r0, #0
 509 0274 F2D1     		bne	.L27
 510 0276 0421     		movs	r1, #4
 511 0278 2046     		mov	r0, r4
 512 027a FFF7FEFF 		bl	lv_obj_is_protected
 513              	.LVL85:
 404:..\..\..\lvgl\version_6.1.2\lvgl\src\lv_objx/lv_cont.c **** 
 514              		.loc 1 404 0
 515 027e 2B46     		mov	r3, r5
 516 0280 4246     		mov	r2, r8
 517 0282 4946     		mov	r1, r9
 399:..\..\..\lvgl\version_6.1.2\lvgl\src\lv_objx/lv_cont.c **** 
 518              		.loc 1 399 0
 519 0284 0028     		cmp	r0, #0
 520 0286 E9D1     		bne	.L27
 521              	.LVL86:
 404:..\..\..\lvgl\version_6.1.2\lvgl\src\lv_objx/lv_cont.c **** 
 522              		.loc 1 404 0
 523 0288 2046     		mov	r0, r4
 524 028a CDF800A0 		str	r10, [sp]
 525 028e FFF7FEFF 		bl	lv_obj_align
 526              	.LVL87:
 406:..\..\..\lvgl\version_6.1.2\lvgl\src\lv_objx/lv_cont.c ****     }
 527              		.loc 1 406 0
 528 0292 2046     		mov	r0, r4
 529 0294 FFF7FEFF 		bl	lv_obj_get_width
 530              	.LVL88:
 531 0298 B7F92830 		ldrsh	r3, [r7, #40]
 532 029c 1844     		add	r0, r0, r3
 533 029e 4319     		adds	r3, r0, r5
 534 02a0 1DB2     		sxth	r5, r3
 535              	.LVL89:
 536 02a2 DBE7     		b	.L27
 537              	.L122:
 399:..\..\..\lvgl\version_6.1.2\lvgl\src\lv_objx/lv_cont.c **** 
 538              		.loc 1 399 0
 539 02a4 0421     		movs	r1, #4
 540 02a6 2046     		mov	r0, r4
 541 02a8 FFF7FEFF 		bl	lv_obj_is_protected
 542              	.LVL90:
 403:..\..\..\lvgl\version_6.1.2\lvgl\src\lv_objx/lv_cont.c ****         else lv_obj_align(child, cont, align, last_cord, vpad_corr);
 543              		.loc 1 403 0
 544 02ac 1FFA85FB 		uxth	fp, r5
ARM GAS  C:\Users\pearlstl\AppData\Local\Temp\cciL9yyu.s 			page 22


 545 02b0 CBF10003 		rsb	r3, fp, #0
 546 02b4 1BB2     		sxth	r3, r3
 547 02b6 4246     		mov	r2, r8
 548 02b8 4946     		mov	r1, r9
 399:..\..\..\lvgl\version_6.1.2\lvgl\src\lv_objx/lv_cont.c **** 
 549              		.loc 1 399 0
 550 02ba 68B9     		cbnz	r0, .L29
 551              	.LVL91:
 403:..\..\..\lvgl\version_6.1.2\lvgl\src\lv_objx/lv_cont.c ****         else lv_obj_align(child, cont, align, last_cord, vpad_corr);
 552              		.loc 1 403 0
 553 02bc 2046     		mov	r0, r4
 554 02be CDF800A0 		str	r10, [sp]
 555 02c2 FFF7FEFF 		bl	lv_obj_align
 556              	.LVL92:
 406:..\..\..\lvgl\version_6.1.2\lvgl\src\lv_objx/lv_cont.c ****     }
 557              		.loc 1 406 0
 558 02c6 2046     		mov	r0, r4
 559 02c8 FFF7FEFF 		bl	lv_obj_get_width
 560              	.LVL93:
 561 02cc B7F92830 		ldrsh	r3, [r7, #40]
 562 02d0 1844     		add	r0, r0, r3
 563 02d2 0BEB0005 		add	r5, fp, r0
 564              	.LVL94:
 565 02d6 2DB2     		sxth	r5, r5
 566              	.LVL95:
 567              	.L29:
 397:..\..\..\lvgl\version_6.1.2\lvgl\src\lv_objx/lv_cont.c ****     {
 568              		.loc 1 397 0
 569 02d8 2146     		mov	r1, r4
 570 02da 3046     		mov	r0, r6
 571 02dc FFF7FEFF 		bl	lv_ll_get_prev
 572              	.LVL96:
 573 02e0 0446     		mov	r4, r0
 574 02e2 0028     		cmp	r0, #0
 575 02e4 00F08880 		beq	.L11
 576              	.L30:
 399:..\..\..\lvgl\version_6.1.2\lvgl\src\lv_objx/lv_cont.c **** 
 577              		.loc 1 399 0
 578 02e8 2046     		mov	r0, r4
 579 02ea FFF7FEFF 		bl	lv_obj_get_hidden
 580              	.LVL97:
 581 02ee 0028     		cmp	r0, #0
 582 02f0 F2D1     		bne	.L29
 583 02f2 D7E7     		b	.L122
 584              	.LVL98:
 585              	.L22:
 379:..\..\..\lvgl\version_6.1.2\lvgl\src\lv_objx/lv_cont.c ****             align     = base_dir == LV_BIDI_DIR_RTL ? LV_ALIGN_IN_BOTTOM_RIGHT: LV_ALIGN_IN_BOTTOM_
 586              		.loc 1 379 0
 587 02f4 B7F822A0 		ldrh	r10, [r7, #34]
 380:..\..\..\lvgl\version_6.1.2\lvgl\src\lv_objx/lv_cont.c ****             break;
 588              		.loc 1 380 0
 589 02f8 0128     		cmp	r0, #1
 379:..\..\..\lvgl\version_6.1.2\lvgl\src\lv_objx/lv_cont.c ****             align     = base_dir == LV_BIDI_DIR_RTL ? LV_ALIGN_IN_BOTTOM_RIGHT: LV_ALIGN_IN_BOTTOM_
 590              		.loc 1 379 0
 591 02fa CAF1000A 		rsb	r10, r10, #0
 592 02fe 0FFA8AFA 		sxth	r10, r10
 593              	.LVL99:
ARM GAS  C:\Users\pearlstl\AppData\Local\Temp\cciL9yyu.s 			page 23


 380:..\..\..\lvgl\version_6.1.2\lvgl\src\lv_objx/lv_cont.c ****             break;
 594              		.loc 1 380 0
 595 0302 00F0CB81 		beq	.L60
 596 0306 4FF00408 		mov	r8, #4
 597 030a 94E7     		b	.L25
 598              	.LVL100:
 599              	.L120:
 600              	.LBE64:
 601              	.LBE63:
 602              	.LBB71:
 603              	.LBB61:
 322:..\..\..\lvgl\version_6.1.2\lvgl\src\lv_objx/lv_cont.c ****             align     = LV_ALIGN_IN_TOP_LEFT;
 604              		.loc 1 322 0
 605 030c B0F92480 		ldrsh	r8, [r0, #36]
 606              	.LVL101:
 323:..\..\..\lvgl\version_6.1.2\lvgl\src\lv_objx/lv_cont.c ****             break;
 607              		.loc 1 323 0
 608 0310 4FF0010A 		mov	r10, #1
 609 0314 41E7     		b	.L13
 610              	.LVL102:
 611              	.L48:
 612              	.LBE61:
 613              	.LBE71:
 614              	.LBB72:
 615              	.LBB49:
 565:..\..\..\lvgl\version_6.1.2\lvgl\src\lv_objx/lv_cont.c ****     }
 616              		.loc 1 565 0
 617 0316 05EBD573 		add	r3, r5, r5, lsr #31
 618 031a 07EBD777 		add	r7, r7, r7, lsr #31
 619              	.LVL103:
 620 031e 5B10     		asrs	r3, r3, #1
 621 0320 C3EB6703 		rsb	r3, r3, r7, asr #1
 567:..\..\..\lvgl\version_6.1.2\lvgl\src\lv_objx/lv_cont.c **** 
 622              		.loc 1 567 0
 623 0324 0244     		add	r2, r2, r0
 571:..\..\..\lvgl\version_6.1.2\lvgl\src\lv_objx/lv_cont.c **** 
 624              		.loc 1 571 0
 625 0326 0121     		movs	r1, #1
 626 0328 4846     		mov	r0, r9
 627              	.LVL104:
 577:..\..\..\lvgl\version_6.1.2\lvgl\src\lv_objx/lv_cont.c ****     {
 628              		.loc 1 577 0
 629 032a 09F10407 		add	r7, r9, #4
 565:..\..\..\lvgl\version_6.1.2\lvgl\src\lv_objx/lv_cont.c ****     }
 630              		.loc 1 565 0
 631 032e 1DB2     		sxth	r5, r3
 632              	.LVL105:
 567:..\..\..\lvgl\version_6.1.2\lvgl\src\lv_objx/lv_cont.c **** 
 633              		.loc 1 567 0
 634 0330 96B2     		uxth	r6, r2
 635              	.LVL106:
 571:..\..\..\lvgl\version_6.1.2\lvgl\src\lv_objx/lv_cont.c **** 
 636              		.loc 1 571 0
 637 0332 FFF7FEFF 		bl	lv_obj_set_protect
 638              	.LVL107:
 577:..\..\..\lvgl\version_6.1.2\lvgl\src\lv_objx/lv_cont.c ****     {
 639              		.loc 1 577 0
ARM GAS  C:\Users\pearlstl\AppData\Local\Temp\cciL9yyu.s 			page 24


 640 0336 3846     		mov	r0, r7
 575:..\..\..\lvgl\version_6.1.2\lvgl\src\lv_objx/lv_cont.c ****     uint16_t obj_cnt = 0;
 641              		.loc 1 575 0
 642 0338 BBF92080 		ldrsh	r8, [fp, #32]
 643              	.LVL108:
 577:..\..\..\lvgl\version_6.1.2\lvgl\src\lv_objx/lv_cont.c ****     {
 644              		.loc 1 577 0
 645 033c FFF7FEFF 		bl	lv_ll_get_tail
 646              	.LVL109:
 647 0340 0446     		mov	r4, r0
 648              	.LVL110:
 649 0342 38B9     		cbnz	r0, .L51
 650 0344 58E0     		b	.L11
 651              	.LVL111:
 652              	.L50:
 653 0346 2146     		mov	r1, r4
 654 0348 3846     		mov	r0, r7
 655 034a FFF7FEFF 		bl	lv_ll_get_prev
 656              	.LVL112:
 657 034e 0446     		mov	r4, r0
 658 0350 0028     		cmp	r0, #0
 659 0352 51D0     		beq	.L11
 660              	.L51:
 579:..\..\..\lvgl\version_6.1.2\lvgl\src\lv_objx/lv_cont.c **** 
 661              		.loc 1 579 0
 662 0354 2046     		mov	r0, r4
 663 0356 FFF7FEFF 		bl	lv_obj_get_hidden
 664              	.LVL113:
 665 035a 0028     		cmp	r0, #0
 666 035c F3D1     		bne	.L50
 667 035e 0421     		movs	r1, #4
 668 0360 2046     		mov	r0, r4
 669 0362 FFF7FEFF 		bl	lv_obj_is_protected
 670              	.LVL114:
 671 0366 0028     		cmp	r0, #0
 672 0368 EDD1     		bne	.L50
 585:..\..\..\lvgl\version_6.1.2\lvgl\src\lv_objx/lv_cont.c ****         }
 673              		.loc 1 585 0
 674 036a 4246     		mov	r2, r8
 675 036c 2946     		mov	r1, r5
 676 036e 2046     		mov	r0, r4
 590:..\..\..\lvgl\version_6.1.2\lvgl\src\lv_objx/lv_cont.c ****             obj_cnt = 0;
 591:..\..\..\lvgl\version_6.1.2\lvgl\src\lv_objx/lv_cont.c ****             act_x   = style->body.padding.left;
 592:..\..\..\lvgl\version_6.1.2\lvgl\src\lv_objx/lv_cont.c ****             act_y += y_ofs;
 677              		.loc 1 592 0
 678 0370 B044     		add	r8, r8, r6
 679              	.LVL115:
 585:..\..\..\lvgl\version_6.1.2\lvgl\src\lv_objx/lv_cont.c ****         }
 680              		.loc 1 585 0
 681 0372 FFF7FEFF 		bl	lv_obj_set_pos
 682              	.LVL116:
 683              		.loc 1 592 0
 684 0376 0FFA88F8 		sxth	r8, r8
 685              	.LVL117:
 686 037a E4E7     		b	.L50
 687              	.LVL118:
 688              	.L125:
ARM GAS  C:\Users\pearlstl\AppData\Local\Temp\cciL9yyu.s 			page 25


 689              	.LBE49:
 690              	.LBE72:
 691              	.LBB73:
 692              	.LBB74:
 693              	.LBB75:
 483:..\..\..\lvgl\version_6.1.2\lvgl\src\lv_objx/lv_cont.c ****                     /*Step back one child because the last already not fit, so the previous is the
 694              		.loc 1 483 0
 695 037c 2046     		mov	r0, r4
 696 037e FFF7FEFF 		bl	lv_obj_get_width
 697              	.LVL119:
 698 0382 2B18     		adds	r3, r5, r0
 699 0384 5345     		cmp	r3, r10
 491:..\..\..\lvgl\version_6.1.2\lvgl\src\lv_objx/lv_cont.c ****                 h_row = LV_MATH_MAX(h_row, lv_obj_get_height(child_rc));         /*Search the highe
 700              		.loc 1 491 0
 701 0386 2046     		mov	r0, r4
 483:..\..\..\lvgl\version_6.1.2\lvgl\src\lv_objx/lv_cont.c ****                     /*Step back one child because the last already not fit, so the previous is the
 702              		.loc 1 483 0
 703 0388 00F31A81 		bgt	.L123
 704              	.LVL120:
 491:..\..\..\lvgl\version_6.1.2\lvgl\src\lv_objx/lv_cont.c ****                 h_row = LV_MATH_MAX(h_row, lv_obj_get_height(child_rc));         /*Search the highe
 705              		.loc 1 491 0
 706 038c FFF7FEFF 		bl	lv_obj_get_width
 707              	.LVL121:
 708 0390 BBF92830 		ldrsh	r3, [fp, #40]
 709 0394 1844     		add	r0, r0, r3
 710 0396 0544     		add	r5, r5, r0
 711              	.LVL122:
 492:..\..\..\lvgl\version_6.1.2\lvgl\src\lv_objx/lv_cont.c ****                 obj_num++;
 712              		.loc 1 492 0
 713 0398 2046     		mov	r0, r4
 714 039a FFF7FEFF 		bl	lv_obj_get_height
 715              	.LVL123:
 716 039e 4845     		cmp	r0, r9
 491:..\..\..\lvgl\version_6.1.2\lvgl\src\lv_objx/lv_cont.c ****                 h_row = LV_MATH_MAX(h_row, lv_obj_get_height(child_rc));         /*Search the highe
 717              		.loc 1 491 0
 718 03a0 2DB2     		sxth	r5, r5
 719              	.LVL124:
 493:..\..\..\lvgl\version_6.1.2\lvgl\src\lv_objx/lv_cont.c ****                 if(lv_obj_is_protected(child_rc, LV_PROTECT_FOLLOW))
 720              		.loc 1 493 0
 721 03a2 06F10106 		add	r6, r6, #1
 722              	.LVL125:
 492:..\..\..\lvgl\version_6.1.2\lvgl\src\lv_objx/lv_cont.c ****                 obj_num++;
 723              		.loc 1 492 0
 724 03a6 80F2FA80 		bge	.L124
 725              	.LVL126:
 726              	.L37:
 494:..\..\..\lvgl\version_6.1.2\lvgl\src\lv_objx/lv_cont.c ****                     break; /*If can not be followed by an other object then break here*/
 727              		.loc 1 494 0
 728 03aa 0821     		movs	r1, #8
 729 03ac 2046     		mov	r0, r4
 730 03ae FFF7FEFF 		bl	lv_obj_is_protected
 731              	.LVL127:
 732 03b2 0028     		cmp	r0, #0
 733 03b4 00F0A380 		beq	.L33
 734              	.LVL128:
 504:..\..\..\lvgl\version_6.1.2\lvgl\src\lv_objx/lv_cont.c ****             if(child_rc != NULL) {
 735              		.loc 1 504 0
ARM GAS  C:\Users\pearlstl\AppData\Local\Temp\cciL9yyu.s 			page 26


 736 03b8 002E     		cmp	r6, #0
 737 03ba 40F0A980 		bne	.L36
 738              	.LVL129:
 739              	.L35:
 506:..\..\..\lvgl\version_6.1.2\lvgl\src\lv_objx/lv_cont.c ****                 h_row = lv_obj_get_height(child_rc); /*Not set previously because of the early brea
 740              		.loc 1 506 0
 741 03be 039B     		ldr	r3, [sp, #12]
 742 03c0 0093     		str	r3, [sp]
 743 03c2 0222     		movs	r2, #2
 744 03c4 0023     		movs	r3, #0
 745 03c6 0499     		ldr	r1, [sp, #16]
 746 03c8 2046     		mov	r0, r4
 747 03ca FFF7FEFF 		bl	lv_obj_align
 748              	.LVL130:
 507:..\..\..\lvgl\version_6.1.2\lvgl\src\lv_objx/lv_cont.c ****             }
 749              		.loc 1 507 0
 750 03ce 2046     		mov	r0, r4
 751 03d0 FFF7FEFF 		bl	lv_obj_get_height
 752              	.LVL131:
 753 03d4 8146     		mov	r9, r0
 754              	.LVL132:
 755              	.L56:
 541:..\..\..\lvgl\version_6.1.2\lvgl\src\lv_objx/lv_cont.c ****         child_rs = lv_ll_get_prev(&cont->child_ll, child_rc); /*Go to the next object*/
 756              		.loc 1 541 0
 757 03d6 BBF82830 		ldrh	r3, [fp, #40]
 758 03da 039A     		ldr	r2, [sp, #12]
 759 03dc 1A44     		add	r2, r2, r3
 760 03de 9144     		add	r9, r9, r2
 761              	.LVL133:
 542:..\..\..\lvgl\version_6.1.2\lvgl\src\lv_objx/lv_cont.c ****         child_rc = child_rs;
 762              		.loc 1 542 0
 763 03e0 2146     		mov	r1, r4
 541:..\..\..\lvgl\version_6.1.2\lvgl\src\lv_objx/lv_cont.c ****         child_rs = lv_ll_get_prev(&cont->child_ll, child_rc); /*Go to the next object*/
 764              		.loc 1 541 0
 765 03e2 0FFA89F3 		sxth	r3, r9
 542:..\..\..\lvgl\version_6.1.2\lvgl\src\lv_objx/lv_cont.c ****         child_rc = child_rs;
 766              		.loc 1 542 0
 767 03e6 4046     		mov	r0, r8
 541:..\..\..\lvgl\version_6.1.2\lvgl\src\lv_objx/lv_cont.c ****         child_rs = lv_ll_get_prev(&cont->child_ll, child_rc); /*Go to the next object*/
 768              		.loc 1 541 0
 769 03e8 0393     		str	r3, [sp, #12]
 770              	.LVL134:
 542:..\..\..\lvgl\version_6.1.2\lvgl\src\lv_objx/lv_cont.c ****         child_rc = child_rs;
 771              		.loc 1 542 0
 772 03ea FFF7FEFF 		bl	lv_ll_get_prev
 773              	.LVL135:
 774              	.LBE75:
 473:..\..\..\lvgl\version_6.1.2\lvgl\src\lv_objx/lv_cont.c ****         lv_coord_t h_row = 0;
 775              		.loc 1 473 0
 776 03ee 0446     		mov	r4, r0
 777 03f0 0028     		cmp	r0, #0
 778 03f2 70D1     		bne	.L47
 779              	.LVL136:
 780              	.L108:
 781 03f4 DDF81090 		ldr	r9, [sp, #16]
 782              	.LVL137:
 783              	.L11:
ARM GAS  C:\Users\pearlstl\AppData\Local\Temp\cciL9yyu.s 			page 27


 784              	.LBE74:
 785              	.LBE73:
 786              	.LBB83:
 787              	.LBB53:
 448:..\..\..\lvgl\version_6.1.2\lvgl\src\lv_objx/lv_cont.c **** }
 788              		.loc 1 448 0
 789 03f8 4846     		mov	r0, r9
 790 03fa 0121     		movs	r1, #1
 791              	.LBE53:
 792              	.LBE83:
 304:..\..\..\lvgl\version_6.1.2\lvgl\src\lv_objx/lv_cont.c **** 
 793              		.loc 1 304 0
 794 03fc 07B0     		add	sp, sp, #28
 795              		.cfi_remember_state
 796              		.cfi_def_cfa_offset 36
 797              		@ sp needed
 798 03fe BDE8F04F 		pop	{r4, r5, r6, r7, r8, r9, r10, fp, lr}
 799              		.cfi_restore 14
 800              		.cfi_restore 11
 801              		.cfi_restore 10
 802              		.cfi_restore 9
 803              		.cfi_restore 8
 804              		.cfi_restore 7
 805              		.cfi_restore 6
 806              		.cfi_restore 5
 807              		.cfi_restore 4
 808              		.cfi_def_cfa_offset 0
 809              	.LBB84:
 810              	.LBB54:
 448:..\..\..\lvgl\version_6.1.2\lvgl\src\lv_objx/lv_cont.c **** }
 811              		.loc 1 448 0
 812 0402 FFF7FEBF 		b	lv_obj_clear_protect
 813              	.LVL138:
 814              	.L119:
 815              		.cfi_restore_state
 430:..\..\..\lvgl\version_6.1.2\lvgl\src\lv_objx/lv_cont.c **** 
 816              		.loc 1 430 0
 817 0406 B8F1000F 		cmp	r8, #0
 818 040a 3FF417AE 		beq	.L1
 432:..\..\..\lvgl\version_6.1.2\lvgl\src\lv_objx/lv_cont.c **** 
 819              		.loc 1 432 0
 820 040e 3B8D     		ldrh	r3, [r7, #40]
 821 0410 F31A     		subs	r3, r6, r3
 822 0412 9CB2     		uxth	r4, r3
 823              	.LVL139:
 436:..\..\..\lvgl\version_6.1.2\lvgl\src\lv_objx/lv_cont.c **** 
 824              		.loc 1 436 0
 825 0414 0121     		movs	r1, #1
 826 0416 4846     		mov	r0, r9
 827              	.LVL140:
 828 0418 FFF7FEFF 		bl	lv_obj_set_protect
 829              	.LVL141:
 439:..\..\..\lvgl\version_6.1.2\lvgl\src\lv_objx/lv_cont.c ****     LV_LL_READ_BACK(cont->child_ll, child)
 830              		.loc 1 439 0
 831 041c 23B2     		sxth	r3, r4
 832 041e 03EBD373 		add	r3, r3, r3, lsr #31
 440:..\..\..\lvgl\version_6.1.2\lvgl\src\lv_objx/lv_cont.c ****     {
ARM GAS  C:\Users\pearlstl\AppData\Local\Temp\cciL9yyu.s 			page 28


 833              		.loc 1 440 0
 834 0422 2846     		mov	r0, r5
 439:..\..\..\lvgl\version_6.1.2\lvgl\src\lv_objx/lv_cont.c ****     LV_LL_READ_BACK(cont->child_ll, child)
 835              		.loc 1 439 0
 836 0424 5E10     		asrs	r6, r3, #1
 440:..\..\..\lvgl\version_6.1.2\lvgl\src\lv_objx/lv_cont.c ****     {
 837              		.loc 1 440 0
 838 0426 FFF7FEFF 		bl	lv_ll_get_tail
 839              	.LVL142:
 439:..\..\..\lvgl\version_6.1.2\lvgl\src\lv_objx/lv_cont.c ****     LV_LL_READ_BACK(cont->child_ll, child)
 840              		.loc 1 439 0
 841 042a 7642     		negs	r6, r6
 842 042c 36B2     		sxth	r6, r6
 843              	.LVL143:
 440:..\..\..\lvgl\version_6.1.2\lvgl\src\lv_objx/lv_cont.c ****     {
 844              		.loc 1 440 0
 845 042e 0446     		mov	r4, r0
 846              	.LVL144:
 847 0430 38B9     		cbnz	r0, .L10
 848 0432 E1E7     		b	.L11
 849              	.LVL145:
 850              	.L9:
 851 0434 2146     		mov	r1, r4
 852 0436 2846     		mov	r0, r5
 853 0438 FFF7FEFF 		bl	lv_ll_get_prev
 854              	.LVL146:
 855 043c 0446     		mov	r4, r0
 856 043e 0028     		cmp	r0, #0
 857 0440 DAD0     		beq	.L11
 858              	.L10:
 442:..\..\..\lvgl\version_6.1.2\lvgl\src\lv_objx/lv_cont.c **** 
 859              		.loc 1 442 0
 860 0442 2046     		mov	r0, r4
 861 0444 FFF7FEFF 		bl	lv_obj_get_hidden
 862              	.LVL147:
 863 0448 0028     		cmp	r0, #0
 864 044a F3D1     		bne	.L9
 865 044c 0421     		movs	r1, #4
 866 044e 2046     		mov	r0, r4
 867 0450 FFF7FEFF 		bl	lv_obj_is_protected
 868              	.LVL148:
 869 0454 8046     		mov	r8, r0
 870 0456 0028     		cmp	r0, #0
 871 0458 ECD1     		bne	.L9
 444:..\..\..\lvgl\version_6.1.2\lvgl\src\lv_objx/lv_cont.c ****         last_cord += lv_obj_get_height(child) + style->body.padding.inner;
 872              		.loc 1 444 0
 873 045a 2046     		mov	r0, r4
 874 045c FFF7FEFF 		bl	lv_obj_get_height
 875              	.LVL149:
 876 0460 B6B2     		uxth	r6, r6
 877 0462 00EBD070 		add	r0, r0, r0, lsr #31
 878 0466 06EB6003 		add	r3, r6, r0, asr #1
 879 046a 1BB2     		sxth	r3, r3
 880 046c 0093     		str	r3, [sp]
 881 046e 4246     		mov	r2, r8
 882 0470 4346     		mov	r3, r8
 883 0472 4946     		mov	r1, r9
ARM GAS  C:\Users\pearlstl\AppData\Local\Temp\cciL9yyu.s 			page 29


 884 0474 2046     		mov	r0, r4
 885 0476 FFF7FEFF 		bl	lv_obj_align
 886              	.LVL150:
 445:..\..\..\lvgl\version_6.1.2\lvgl\src\lv_objx/lv_cont.c ****     }
 887              		.loc 1 445 0
 888 047a 2046     		mov	r0, r4
 889 047c FFF7FEFF 		bl	lv_obj_get_height
 890              	.LVL151:
 891 0480 B7F92830 		ldrsh	r3, [r7, #40]
 892 0484 1844     		add	r0, r0, r3
 893 0486 3318     		adds	r3, r6, r0
 894 0488 1EB2     		sxth	r6, r3
 895              	.LVL152:
 896 048a D3E7     		b	.L9
 897              	.LVL153:
 898              	.L118:
 899 048c DDF81490 		ldr	r9, [sp, #20]
 900 0490 B2E7     		b	.L11
 901              	.LVL154:
 902              	.L53:
 903              	.LBE54:
 904              	.LBE84:
 905              	.LBB85:
 906              	.LBB50:
 907              		.loc 1 592 0
 908 0492 049B     		ldr	r3, [sp, #16]
 591:..\..\..\lvgl\version_6.1.2\lvgl\src\lv_objx/lv_cont.c ****             act_y += y_ofs;
 909              		.loc 1 591 0
 910 0494 BBF92470 		ldrsh	r7, [fp, #36]
 911              	.LVL155:
 912              		.loc 1 592 0
 913 0498 9844     		add	r8, r8, r3
 914              	.LVL156:
 915 049a 0FFA88F8 		sxth	r8, r8
 916              	.LVL157:
 590:..\..\..\lvgl\version_6.1.2\lvgl\src\lv_objx/lv_cont.c ****             act_x   = style->body.padding.left;
 917              		.loc 1 590 0
 918 049e CA46     		mov	r10, r9
 919 04a0 12E6     		b	.L52
 920              	.LVL158:
 921              	.L116:
 922              	.LBE50:
 923              	.LBE85:
 924              	.LBB86:
 925              	.LBB81:
 461:..\..\..\lvgl\version_6.1.2\lvgl\src\lv_objx/lv_cont.c ****     lv_coord_t w_obj         = lv_obj_get_width(cont);
 926              		.loc 1 461 0
 927 04a2 4846     		mov	r0, r9
 928 04a4 FFF7FEFF 		bl	lv_obj_get_style
 929              	.LVL159:
 930 04a8 8346     		mov	fp, r0
 931              	.LVL160:
 462:..\..\..\lvgl\version_6.1.2\lvgl\src\lv_objx/lv_cont.c ****     lv_coord_t act_y         = style->body.padding.top;
 932              		.loc 1 462 0
 933 04aa 4846     		mov	r0, r9
 934              	.LVL161:
 935 04ac FFF7FEFF 		bl	lv_obj_get_width
ARM GAS  C:\Users\pearlstl\AppData\Local\Temp\cciL9yyu.s 			page 30


 936              	.LVL162:
 467:..\..\..\lvgl\version_6.1.2\lvgl\src\lv_objx/lv_cont.c ****     if(child_rs == NULL) return;                /*Return if no child*/
 937              		.loc 1 467 0
 938 04b0 09F10408 		add	r8, r9, #4
 463:..\..\..\lvgl\version_6.1.2\lvgl\src\lv_objx/lv_cont.c ****     /* Disable child change action because the children will be moved a lot
 939              		.loc 1 463 0
 940 04b4 BBF92030 		ldrsh	r3, [fp, #32]
 941 04b8 0393     		str	r3, [sp, #12]
 462:..\..\..\lvgl\version_6.1.2\lvgl\src\lv_objx/lv_cont.c ****     lv_coord_t act_y         = style->body.padding.top;
 942              		.loc 1 462 0
 943 04ba 8246     		mov	r10, r0
 944              	.LVL163:
 467:..\..\..\lvgl\version_6.1.2\lvgl\src\lv_objx/lv_cont.c ****     if(child_rs == NULL) return;                /*Return if no child*/
 945              		.loc 1 467 0
 946 04bc 4046     		mov	r0, r8
 947 04be FFF7FEFF 		bl	lv_ll_get_tail
 948              	.LVL164:
 468:..\..\..\lvgl\version_6.1.2\lvgl\src\lv_objx/lv_cont.c **** 
 949              		.loc 1 468 0
 950 04c2 0446     		mov	r4, r0
 951 04c4 0028     		cmp	r0, #0
 952 04c6 3FF4B9AD 		beq	.L1
 470:..\..\..\lvgl\version_6.1.2\lvgl\src\lv_objx/lv_cont.c **** 
 953              		.loc 1 470 0
 954 04ca 0121     		movs	r1, #1
 955 04cc 4846     		mov	r0, r9
 956              	.LVL165:
 957 04ce FFF7FEFF 		bl	lv_obj_set_protect
 958              	.LVL166:
 959              	.LBB79:
 960              	.LBB76:
 519:..\..\..\lvgl\version_6.1.2\lvgl\src\lv_objx/lv_cont.c ****             lv_obj_align(obj1, cont, LV_ALIGN_IN_TOP_LEFT, pad, act_y + (h_row - lv_obj_get_height(
 961              		.loc 1 519 0
 962 04d2 CDF81090 		str	r9, [sp, #16]
 963              	.LVL167:
 964              	.L47:
 965              	.LBE76:
 475:..\..\..\lvgl\version_6.1.2\lvgl\src\lv_objx/lv_cont.c ****             style->body.padding.left + style->body.padding.right; /*The width is at least the left+
 966              		.loc 1 475 0
 967 04d6 BBF82450 		ldrh	r5, [fp, #36]
 968 04da BBF82630 		ldrh	r3, [fp, #38]
 477:..\..\..\lvgl\version_6.1.2\lvgl\src\lv_objx/lv_cont.c **** 
 969              		.loc 1 477 0
 970 04de 0026     		movs	r6, #0
 475:..\..\..\lvgl\version_6.1.2\lvgl\src\lv_objx/lv_cont.c ****             style->body.padding.left + style->body.padding.right; /*The width is at least the left+
 971              		.loc 1 475 0
 972 04e0 1D44     		add	r5, r5, r3
 973 04e2 2DB2     		sxth	r5, r5
 974              	.LVL168:
 474:..\..\..\lvgl\version_6.1.2\lvgl\src\lv_objx/lv_cont.c ****         lv_coord_t w_row =
 975              		.loc 1 474 0
 976 04e4 B146     		mov	r9, r6
 475:..\..\..\lvgl\version_6.1.2\lvgl\src\lv_objx/lv_cont.c ****             style->body.padding.left + style->body.padding.right; /*The width is at least the left+
 977              		.loc 1 475 0
 978 04e6 2746     		mov	r7, r4
 979              	.LVL169:
 980              	.L32:
ARM GAS  C:\Users\pearlstl\AppData\Local\Temp\cciL9yyu.s 			page 31


 481:..\..\..\lvgl\version_6.1.2\lvgl\src\lv_objx/lv_cont.c ****                 /*If this object is already not fit then break*/
 981              		.loc 1 481 0
 982 04e8 2046     		mov	r0, r4
 983 04ea FFF7FEFF 		bl	lv_obj_get_hidden
 984              	.LVL170:
 985 04ee 0421     		movs	r1, #4
 986 04f0 28B9     		cbnz	r0, .L33
 987 04f2 2046     		mov	r0, r4
 988 04f4 FFF7FEFF 		bl	lv_obj_is_protected
 989              	.LVL171:
 990 04f8 0028     		cmp	r0, #0
 991 04fa 3FF43FAF 		beq	.L125
 992              	.L33:
 497:..\..\..\lvgl\version_6.1.2\lvgl\src\lv_objx/lv_cont.c ****             if(obj_num == 0)
 993              		.loc 1 497 0
 994 04fe 2146     		mov	r1, r4
 995 0500 4046     		mov	r0, r8
 996 0502 FFF7FEFF 		bl	lv_ll_get_prev
 997              	.LVL172:
 998 0506 0446     		mov	r4, r0
 999              	.LVL173:
 498:..\..\..\lvgl\version_6.1.2\lvgl\src\lv_objx/lv_cont.c ****                 child_rs = child_rc; /*If the first object was hidden (or too long) then set the
 1000              		.loc 1 498 0
 1001 0508 002E     		cmp	r6, #0
 1002 050a 43D0     		beq	.L39
 501:..\..\..\lvgl\version_6.1.2\lvgl\src\lv_objx/lv_cont.c **** 
 1003              		.loc 1 501 0
 1004 050c 0028     		cmp	r0, #0
 1005 050e EBD1     		bne	.L32
 1006              	.LVL174:
 1007              	.L36:
 511:..\..\..\lvgl\version_6.1.2\lvgl\src\lv_objx/lv_cont.c ****             lv_obj_align(child_rs, cont, LV_ALIGN_IN_TOP_MID, 0, act_y);
 1008              		.loc 1 511 0
 1009 0510 012E     		cmp	r6, #1
 1010 0512 49D0     		beq	.L126
 515:..\..\..\lvgl\version_6.1.2\lvgl\src\lv_objx/lv_cont.c ****             lv_obj_t * obj1 = child_rs;
 1011              		.loc 1 515 0
 1012 0514 022E     		cmp	r6, #2
 1013 0516 7FD0     		beq	.L127
 1014              	.LBB77:
 525:..\..\..\lvgl\version_6.1.2\lvgl\src\lv_objx/lv_cont.c ****             lv_coord_t new_opad = (w_obj - w_row) / (obj_num - 1);
 1015              		.loc 1 525 0
 1016 0518 BBF92830 		ldrsh	r3, [fp, #40]
 527:..\..\..\lvgl\version_6.1.2\lvgl\src\lv_objx/lv_cont.c ****             child_tmp           = child_rs;
 1017              		.loc 1 527 0
 1018 051c BBF92420 		ldrsh	r2, [fp, #36]
 525:..\..\..\lvgl\version_6.1.2\lvgl\src\lv_objx/lv_cont.c ****             lv_coord_t new_opad = (w_obj - w_row) / (obj_num - 1);
 1019              		.loc 1 525 0
 1020 0520 13FB06F3 		smulbb	r3, r3, r6
 1021 0524 EB1A     		subs	r3, r5, r3
 1022              	.LVL175:
 526:..\..\..\lvgl\version_6.1.2\lvgl\src\lv_objx/lv_cont.c ****             lv_coord_t act_x    = style->body.padding.left; /*x init*/
 1023              		.loc 1 526 0
 1024 0526 1BB2     		sxth	r3, r3
 1025 0528 751E     		subs	r5, r6, #1
 1026 052a C3EB0A03 		rsb	r3, r3, r10
 1027              	.LVL176:
ARM GAS  C:\Users\pearlstl\AppData\Local\Temp\cciL9yyu.s 			page 32


 1028 052e 1646     		mov	r6, r2
 1029              	.LVL177:
 1030 0530 B3FBF5F5 		udiv	r5, r3, r5
 1031              	.LVL178:
 1032 0534 2DB2     		sxth	r5, r5
 1033              	.LVL179:
 1034 0536 09E0     		b	.L46
 1035              	.LVL180:
 1036              	.L45:
 535:..\..\..\lvgl\version_6.1.2\lvgl\src\lv_objx/lv_cont.c ****                 child_tmp = lv_ll_get_prev(&cont->child_ll, child_tmp);
 1037              		.loc 1 535 0
 1038 0538 BC42     		cmp	r4, r7
 536:..\..\..\lvgl\version_6.1.2\lvgl\src\lv_objx/lv_cont.c ****             }
 1039              		.loc 1 536 0
 1040 053a 3946     		mov	r1, r7
 1041 053c 4046     		mov	r0, r8
 535:..\..\..\lvgl\version_6.1.2\lvgl\src\lv_objx/lv_cont.c ****                 child_tmp = lv_ll_get_prev(&cont->child_ll, child_tmp);
 1042              		.loc 1 535 0
 1043 053e 3FF44AAF 		beq	.L56
 1044              	.LVL181:
 536:..\..\..\lvgl\version_6.1.2\lvgl\src\lv_objx/lv_cont.c ****             }
 1045              		.loc 1 536 0
 1046 0542 FFF7FEFF 		bl	lv_ll_get_prev
 1047              	.LVL182:
 529:..\..\..\lvgl\version_6.1.2\lvgl\src\lv_objx/lv_cont.c ****                 if(lv_obj_get_hidden(child_tmp) == false && lv_obj_is_protected(child_tmp, LV_PROTE
 1048              		.loc 1 529 0
 1049 0546 0746     		mov	r7, r0
 1050 0548 0028     		cmp	r0, #0
 1051 054a 35D0     		beq	.L43
 1052              	.LVL183:
 1053              	.L46:
 530:..\..\..\lvgl\version_6.1.2\lvgl\src\lv_objx/lv_cont.c ****                     lv_obj_align(child_tmp, cont, LV_ALIGN_IN_TOP_LEFT, act_x,
 1054              		.loc 1 530 0
 1055 054c 3846     		mov	r0, r7
 1056 054e FFF7FEFF 		bl	lv_obj_get_hidden
 1057              	.LVL184:
 1058 0552 0028     		cmp	r0, #0
 1059 0554 F0D1     		bne	.L45
 1060 0556 0421     		movs	r1, #4
 1061 0558 3846     		mov	r0, r7
 1062 055a FFF7FEFF 		bl	lv_obj_is_protected
 1063              	.LVL185:
 1064 055e 0028     		cmp	r0, #0
 1065 0560 EAD1     		bne	.L45
 532:..\..\..\lvgl\version_6.1.2\lvgl\src\lv_objx/lv_cont.c ****                     act_x += lv_obj_get_width(child_tmp) + new_opad;
 1066              		.loc 1 532 0
 1067 0562 3846     		mov	r0, r7
 1068 0564 FFF7FEFF 		bl	lv_obj_get_height
 1069              	.LVL186:
 531:..\..\..\lvgl\version_6.1.2\lvgl\src\lv_objx/lv_cont.c ****                                  act_y + (h_row - lv_obj_get_height(child_tmp)) / 2);
 1070              		.loc 1 531 0
 1071 0568 039B     		ldr	r3, [sp, #12]
 1072 056a 0499     		ldr	r1, [sp, #16]
 1073 056c C0EB0900 		rsb	r0, r0, r9
 1074 0570 00EBD070 		add	r0, r0, r0, lsr #31
 1075 0574 03EB6003 		add	r3, r3, r0, asr #1
 1076 0578 1BB2     		sxth	r3, r3
ARM GAS  C:\Users\pearlstl\AppData\Local\Temp\cciL9yyu.s 			page 33


 1077 057a 0093     		str	r3, [sp]
 1078 057c 0122     		movs	r2, #1
 1079 057e 3346     		mov	r3, r6
 1080 0580 3846     		mov	r0, r7
 1081 0582 FFF7FEFF 		bl	lv_obj_align
 1082              	.LVL187:
 533:..\..\..\lvgl\version_6.1.2\lvgl\src\lv_objx/lv_cont.c ****                 }
 1083              		.loc 1 533 0
 1084 0586 3846     		mov	r0, r7
 1085 0588 FFF7FEFF 		bl	lv_obj_get_width
 1086              	.LVL188:
 1087 058c 2844     		add	r0, r0, r5
 1088 058e 0644     		add	r6, r6, r0
 1089              	.LVL189:
 1090 0590 36B2     		sxth	r6, r6
 1091              	.LVL190:
 1092 0592 D1E7     		b	.L45
 1093              	.LVL191:
 1094              	.L39:
 1095              	.LBE77:
 501:..\..\..\lvgl\version_6.1.2\lvgl\src\lv_objx/lv_cont.c **** 
 1096              		.loc 1 501 0
 1097 0594 0028     		cmp	r0, #0
 1098 0596 3FF42DAF 		beq	.L108
 1099 059a 2746     		mov	r7, r4
 1100 059c A4E7     		b	.L32
 1101              	.LVL192:
 1102              	.L124:
 492:..\..\..\lvgl\version_6.1.2\lvgl\src\lv_objx/lv_cont.c ****                 obj_num++;
 1103              		.loc 1 492 0
 1104 059e 2046     		mov	r0, r4
 1105 05a0 FFF7FEFF 		bl	lv_obj_get_height
 1106              	.LVL193:
 1107 05a4 8146     		mov	r9, r0
 1108              	.LVL194:
 1109 05a6 00E7     		b	.L37
 1110              	.LVL195:
 1111              	.L126:
 512:..\..\..\lvgl\version_6.1.2\lvgl\src\lv_objx/lv_cont.c ****         }
 1112              		.loc 1 512 0
 1113 05a8 039B     		ldr	r3, [sp, #12]
 1114 05aa 0093     		str	r3, [sp]
 1115 05ac 3846     		mov	r0, r7
 1116 05ae 0023     		movs	r3, #0
 1117 05b0 0222     		movs	r2, #2
 1118 05b2 0499     		ldr	r1, [sp, #16]
 1119 05b4 FFF7FEFF 		bl	lv_obj_align
 1120              	.LVL196:
 1121              	.L43:
 540:..\..\..\lvgl\version_6.1.2\lvgl\src\lv_objx/lv_cont.c ****         act_y += style->body.padding.inner + h_row;           /*y increment*/
 1122              		.loc 1 540 0
 1123 05b8 002C     		cmp	r4, #0
 1124 05ba 7FF40CAF 		bne	.L56
 1125 05be 19E7     		b	.L108
 1126              	.LVL197:
 1127              	.L123:
 486:..\..\..\lvgl\version_6.1.2\lvgl\src\lv_objx/lv_cont.c ****                         child_rc = lv_ll_get_next(&cont->child_ll, child_rc);
ARM GAS  C:\Users\pearlstl\AppData\Local\Temp\cciL9yyu.s 			page 34


 1128              		.loc 1 486 0
 1129 05c0 002E     		cmp	r6, #0
 1130 05c2 3FF4FCAE 		beq	.L35
 487:..\..\..\lvgl\version_6.1.2\lvgl\src\lv_objx/lv_cont.c ****                     }
 1131              		.loc 1 487 0
 1132 05c6 2146     		mov	r1, r4
 1133 05c8 4046     		mov	r0, r8
 1134              	.LVL198:
 1135 05ca FFF7FEFF 		bl	lv_ll_get_next
 1136              	.LVL199:
 1137 05ce 0446     		mov	r4, r0
 1138              	.LVL200:
 1139 05d0 9EE7     		b	.L36
 1140              	.LVL201:
 1141              	.L15:
 1142              	.LBE79:
 1143              	.LBE81:
 1144              	.LBE86:
 1145              	.LBB87:
 1146              	.LBB62:
 330:..\..\..\lvgl\version_6.1.2\lvgl\src\lv_objx/lv_cont.c ****             align     = LV_ALIGN_IN_TOP_RIGHT;
 1147              		.loc 1 330 0
 1148 05d2 B0F82680 		ldrh	r8, [r0, #38]
 1149 05d6 C8F10008 		rsb	r8, r8, #0
 1150 05da 0FFA88F8 		sxth	r8, r8
 1151              	.LVL202:
 331:..\..\..\lvgl\version_6.1.2\lvgl\src\lv_objx/lv_cont.c ****             break;
 1152              		.loc 1 331 0
 1153 05de 4FF0030A 		mov	r10, #3
 1154 05e2 DAE5     		b	.L13
 1155              	.LVL203:
 1156              	.L14:
 326:..\..\..\lvgl\version_6.1.2\lvgl\src\lv_objx/lv_cont.c ****             align     = LV_ALIGN_IN_TOP_MID;
 1157              		.loc 1 326 0
 1158 05e4 4FF00008 		mov	r8, #0
 327:..\..\..\lvgl\version_6.1.2\lvgl\src\lv_objx/lv_cont.c ****             break;
 1159              		.loc 1 327 0
 1160 05e8 4FF0020A 		mov	r10, #2
 1161 05ec D5E5     		b	.L13
 1162              	.LVL204:
 1163              	.L121:
 1164              	.LBE62:
 1165              	.LBE87:
 1166              	.LBB88:
 1167              	.LBB69:
 372:..\..\..\lvgl\version_6.1.2\lvgl\src\lv_objx/lv_cont.c ****             break;
 1168              		.loc 1 372 0
 1169 05ee 0128     		cmp	r0, #1
 371:..\..\..\lvgl\version_6.1.2\lvgl\src\lv_objx/lv_cont.c ****             align     = base_dir == LV_BIDI_DIR_RTL ? LV_ALIGN_IN_TOP_RIGHT : LV_ALIGN_IN_TOP_LEFT;
 1170              		.loc 1 371 0
 1171 05f0 B7F920A0 		ldrsh	r10, [r7, #32]
 1172              	.LVL205:
 372:..\..\..\lvgl\version_6.1.2\lvgl\src\lv_objx/lv_cont.c ****             break;
 1173              		.loc 1 372 0
 1174 05f4 7FF41DAE 		bne	.L110
 1175              	.LVL206:
 1176              	.L61:
ARM GAS  C:\Users\pearlstl\AppData\Local\Temp\cciL9yyu.s 			page 35


 384:..\..\..\lvgl\version_6.1.2\lvgl\src\lv_objx/lv_cont.c ****             break;
 1177              		.loc 1 384 0
 1178 05f8 4FF00308 		mov	r8, #3
 1179              	.L24:
 1180              	.LVL207:
 390:..\..\..\lvgl\version_6.1.2\lvgl\src\lv_objx/lv_cont.c **** 
 1181              		.loc 1 390 0
 1182 05fc 0121     		movs	r1, #1
 1183 05fe 4846     		mov	r0, r9
 1184              	.LVL208:
 1185 0600 FFF7FEFF 		bl	lv_obj_set_protect
 1186              	.LVL209:
 394:..\..\..\lvgl\version_6.1.2\lvgl\src\lv_objx/lv_cont.c ****     else last_cord = style->body.padding.left;
 1187              		.loc 1 394 0
 1188 0604 B7F92650 		ldrsh	r5, [r7, #38]
 1189              	.LVL210:
 1190 0608 1BE6     		b	.L55
 1191              	.LVL211:
 1192              	.L21:
 376:..\..\..\lvgl\version_6.1.2\lvgl\src\lv_objx/lv_cont.c ****             break;
 1193              		.loc 1 376 0
 1194 060a 0128     		cmp	r0, #1
 375:..\..\..\lvgl\version_6.1.2\lvgl\src\lv_objx/lv_cont.c ****             align     = base_dir == LV_BIDI_DIR_RTL ? LV_ALIGN_IN_RIGHT_MID: LV_ALIGN_IN_LEFT_MID;
 1195              		.loc 1 375 0
 1196 060c 4FF0000A 		mov	r10, #0
 376:..\..\..\lvgl\version_6.1.2\lvgl\src\lv_objx/lv_cont.c ****             break;
 1197              		.loc 1 376 0
 1198 0610 47D0     		beq	.L59
 1199 0612 4FF00708 		mov	r8, #7
 1200 0616 0EE6     		b	.L25
 1201              	.LVL212:
 1202              	.L127:
 1203              	.LBE69:
 1204              	.LBE88:
 1205              	.LBB89:
 1206              	.LBB82:
 1207              	.LBB80:
 1208              	.LBB78:
 517:..\..\..\lvgl\version_6.1.2\lvgl\src\lv_objx/lv_cont.c ****             w_row           = lv_obj_get_width(obj1) + lv_obj_get_width(obj2);
 1209              		.loc 1 517 0
 1210 0618 3946     		mov	r1, r7
 1211 061a 4046     		mov	r0, r8
 1212 061c FFF7FEFF 		bl	lv_ll_get_prev
 1213              	.LVL213:
 1214 0620 0546     		mov	r5, r0
 1215              	.LVL214:
 518:..\..\..\lvgl\version_6.1.2\lvgl\src\lv_objx/lv_cont.c ****             lv_coord_t pad  = (w_obj - w_row) / 3;
 1216              		.loc 1 518 0
 1217 0622 3846     		mov	r0, r7
 1218              	.LVL215:
 1219 0624 FFF7FEFF 		bl	lv_obj_get_width
 1220              	.LVL216:
 1221 0628 0646     		mov	r6, r0
 1222              	.LVL217:
 1223 062a 2846     		mov	r0, r5
 1224 062c FFF7FEFF 		bl	lv_obj_get_width
 1225              	.LVL218:
ARM GAS  C:\Users\pearlstl\AppData\Local\Temp\cciL9yyu.s 			page 36


 519:..\..\..\lvgl\version_6.1.2\lvgl\src\lv_objx/lv_cont.c ****             lv_obj_align(obj1, cont, LV_ALIGN_IN_TOP_LEFT, pad, act_y + (h_row - lv_obj_get_height(
 1226              		.loc 1 519 0
 1227 0630 3044     		add	r0, r0, r6
 1228              	.LVL219:
 1229 0632 03B2     		sxth	r3, r0
 1230 0634 1C4A     		ldr	r2, .L128
 1231 0636 C3EB0A03 		rsb	r3, r3, r10
 1232 063a 82FB0312 		smull	r1, r2, r2, r3
 1233 063e A2EBE373 		sub	r3, r2, r3, asr #31
 520:..\..\..\lvgl\version_6.1.2\lvgl\src\lv_objx/lv_cont.c ****             lv_obj_align(obj2, cont, LV_ALIGN_IN_TOP_RIGHT, -pad, act_y + (h_row - lv_obj_get_heigh
 1234              		.loc 1 520 0
 1235 0642 3846     		mov	r0, r7
 519:..\..\..\lvgl\version_6.1.2\lvgl\src\lv_objx/lv_cont.c ****             lv_obj_align(obj1, cont, LV_ALIGN_IN_TOP_LEFT, pad, act_y + (h_row - lv_obj_get_height(
 1236              		.loc 1 519 0
 1237 0644 0593     		str	r3, [sp, #20]
 1238              	.LVL220:
 520:..\..\..\lvgl\version_6.1.2\lvgl\src\lv_objx/lv_cont.c ****             lv_obj_align(obj2, cont, LV_ALIGN_IN_TOP_RIGHT, -pad, act_y + (h_row - lv_obj_get_heigh
 1239              		.loc 1 520 0
 1240 0646 FFF7FEFF 		bl	lv_obj_get_height
 1241              	.LVL221:
 1242 064a BDF80C60 		ldrh	r6, [sp, #12]
 1243 064e BDF91430 		ldrsh	r3, [sp, #20]
 1244 0652 C0EB0900 		rsb	r0, r0, r9
 1245 0656 00EBD070 		add	r0, r0, r0, lsr #31
 1246 065a 06EB6002 		add	r2, r6, r0, asr #1
 1247 065e 3846     		mov	r0, r7
 1248 0660 049F     		ldr	r7, [sp, #16]
 1249              	.LVL222:
 1250 0662 12B2     		sxth	r2, r2
 1251 0664 3946     		mov	r1, r7
 1252 0666 0092     		str	r2, [sp]
 1253 0668 0122     		movs	r2, #1
 1254 066a FFF7FEFF 		bl	lv_obj_align
 1255              	.LVL223:
 521:..\..\..\lvgl\version_6.1.2\lvgl\src\lv_objx/lv_cont.c ****         }
 1256              		.loc 1 521 0
 1257 066e 2846     		mov	r0, r5
 1258 0670 FFF7FEFF 		bl	lv_obj_get_height
 1259              	.LVL224:
 1260 0674 C0EB0900 		rsb	r0, r0, r9
 1261 0678 00EBD072 		add	r2, r0, r0, lsr #31
 1262 067c 059B     		ldr	r3, [sp, #20]
 1263 067e 06EB6202 		add	r2, r6, r2, asr #1
 1264 0682 12B2     		sxth	r2, r2
 1265 0684 5B42     		negs	r3, r3
 1266 0686 0092     		str	r2, [sp]
 1267 0688 1BB2     		sxth	r3, r3
 1268 068a 2846     		mov	r0, r5
 1269 068c 0322     		movs	r2, #3
 1270 068e 3946     		mov	r1, r7
 1271 0690 FFF7FEFF 		bl	lv_obj_align
 1272              	.LVL225:
 1273              	.LBE78:
 540:..\..\..\lvgl\version_6.1.2\lvgl\src\lv_objx/lv_cont.c ****         act_y += style->body.padding.inner + h_row;           /*y increment*/
 1274              		.loc 1 540 0
 1275 0694 002C     		cmp	r4, #0
 1276 0696 7FF49EAE 		bne	.L56
ARM GAS  C:\Users\pearlstl\AppData\Local\Temp\cciL9yyu.s 			page 37


 1277 069a ABE6     		b	.L108
 1278              	.LVL226:
 1279              	.L60:
 1280              	.LBE80:
 1281              	.LBE82:
 1282              	.LBE89:
 1283              	.LBB90:
 1284              	.LBB70:
 380:..\..\..\lvgl\version_6.1.2\lvgl\src\lv_objx/lv_cont.c ****             break;
 1285              		.loc 1 380 0
 1286 069c 4FF00608 		mov	r8, #6
 1287 06a0 ACE7     		b	.L24
 1288              	.LVL227:
 1289              	.L59:
 376:..\..\..\lvgl\version_6.1.2\lvgl\src\lv_objx/lv_cont.c ****             break;
 1290              		.loc 1 376 0
 1291 06a2 4FF00808 		mov	r8, #8
 1292 06a6 A9E7     		b	.L24
 1293              	.L129:
 1294              		.align	2
 1295              	.L128:
 1296 06a8 56555555 		.word	1431655766
 1297              	.LBE70:
 1298              	.LBE90:
 1299              		.cfi_endproc
 1300              	.LFE44:
 1301              		.size	lv_cont_refr_layout, .-lv_cont_refr_layout
 1302              		.section	.text.lv_cont_refr_autofit,"ax",%progbits
 1303              		.align	2
 1304              		.thumb
 1305              		.thumb_func
 1306              		.type	lv_cont_refr_autofit, %function
 1307              	lv_cont_refr_autofit:
 1308              	.LFB50:
 593:..\..\..\lvgl\version_6.1.2\lvgl\src\lv_objx/lv_cont.c ****         }
 594:..\..\..\lvgl\version_6.1.2\lvgl\src\lv_objx/lv_cont.c ****     }
 595:..\..\..\lvgl\version_6.1.2\lvgl\src\lv_objx/lv_cont.c **** 
 596:..\..\..\lvgl\version_6.1.2\lvgl\src\lv_objx/lv_cont.c ****     lv_obj_clear_protect(cont, LV_PROTECT_CHILD_CHG);
 597:..\..\..\lvgl\version_6.1.2\lvgl\src\lv_objx/lv_cont.c **** }
 598:..\..\..\lvgl\version_6.1.2\lvgl\src\lv_objx/lv_cont.c **** 
 599:..\..\..\lvgl\version_6.1.2\lvgl\src\lv_objx/lv_cont.c **** /**
 600:..\..\..\lvgl\version_6.1.2\lvgl\src\lv_objx/lv_cont.c ****  * Handle auto fit. Set the size of the object to involve all children.
 601:..\..\..\lvgl\version_6.1.2\lvgl\src\lv_objx/lv_cont.c ****  * @param cont pointer to an object which size will be modified
 602:..\..\..\lvgl\version_6.1.2\lvgl\src\lv_objx/lv_cont.c ****  */
 603:..\..\..\lvgl\version_6.1.2\lvgl\src\lv_objx/lv_cont.c **** static void lv_cont_refr_autofit(lv_obj_t * cont)
 604:..\..\..\lvgl\version_6.1.2\lvgl\src\lv_objx/lv_cont.c **** {
 1309              		.loc 1 604 0
 1310              		.cfi_startproc
 1311              		@ args = 0, pretend = 0, frame = 48
 1312              		@ frame_needed = 0, uses_anonymous_args = 0
 1313              	.LVL228:
 1314 0000 2DE9F04F 		push	{r4, r5, r6, r7, r8, r9, r10, fp, lr}
 1315              		.cfi_def_cfa_offset 36
 1316              		.cfi_offset 4, -36
 1317              		.cfi_offset 5, -32
 1318              		.cfi_offset 6, -28
 1319              		.cfi_offset 7, -24
ARM GAS  C:\Users\pearlstl\AppData\Local\Temp\cciL9yyu.s 			page 38


 1320              		.cfi_offset 8, -20
 1321              		.cfi_offset 9, -16
 1322              		.cfi_offset 10, -12
 1323              		.cfi_offset 11, -8
 1324              		.cfi_offset 14, -4
 1325 0004 8DB0     		sub	sp, sp, #52
 1326              		.cfi_def_cfa_offset 88
 1327              		.loc 1 604 0
 1328 0006 0646     		mov	r6, r0
 605:..\..\..\lvgl\version_6.1.2\lvgl\src\lv_objx/lv_cont.c ****     lv_cont_ext_t * ext = lv_obj_get_ext_attr(cont);
 1329              		.loc 1 605 0
 1330 0008 FFF7FEFF 		bl	lv_obj_get_ext_attr
 1331              	.LVL229:
 606:..\..\..\lvgl\version_6.1.2\lvgl\src\lv_objx/lv_cont.c **** 
 607:..\..\..\lvgl\version_6.1.2\lvgl\src\lv_objx/lv_cont.c ****     if(ext->fit_left == LV_FIT_NONE && ext->fit_right == LV_FIT_NONE && ext->fit_top == LV_FIT_NONE
 1332              		.loc 1 607 0
 1333 000c 0378     		ldrb	r3, [r0]	@ zero_extendqisi2
 1334 000e 13F0F00F 		tst	r3, #240
 605:..\..\..\lvgl\version_6.1.2\lvgl\src\lv_objx/lv_cont.c ****     lv_cont_ext_t * ext = lv_obj_get_ext_attr(cont);
 1335              		.loc 1 605 0
 1336 0012 8046     		mov	r8, r0
 1337              	.LVL230:
 1338              		.loc 1 607 0
 1339 0014 05D1     		bne	.L131
 1340              		.loc 1 607 0 is_stmt 0 discriminator 1
 1341 0016 4378     		ldrb	r3, [r0, #1]	@ zero_extendqisi2
 1342 0018 1B07     		lsls	r3, r3, #28
 1343 001a 02D1     		bne	.L131
 1344              	.LVL231:
 1345              	.L130:
 608:..\..\..\lvgl\version_6.1.2\lvgl\src\lv_objx/lv_cont.c ****        ext->fit_bottom == LV_FIT_NONE) {
 609:..\..\..\lvgl\version_6.1.2\lvgl\src\lv_objx/lv_cont.c ****         return;
 610:..\..\..\lvgl\version_6.1.2\lvgl\src\lv_objx/lv_cont.c ****     }
 611:..\..\..\lvgl\version_6.1.2\lvgl\src\lv_objx/lv_cont.c **** 
 612:..\..\..\lvgl\version_6.1.2\lvgl\src\lv_objx/lv_cont.c ****     lv_area_t tight_area;
 613:..\..\..\lvgl\version_6.1.2\lvgl\src\lv_objx/lv_cont.c ****     lv_area_t ori;
 614:..\..\..\lvgl\version_6.1.2\lvgl\src\lv_objx/lv_cont.c ****     const lv_style_t * style = lv_obj_get_style(cont);
 615:..\..\..\lvgl\version_6.1.2\lvgl\src\lv_objx/lv_cont.c ****     lv_obj_t * child_i;
 616:..\..\..\lvgl\version_6.1.2\lvgl\src\lv_objx/lv_cont.c **** 
 617:..\..\..\lvgl\version_6.1.2\lvgl\src\lv_objx/lv_cont.c ****     lv_obj_t * par               = lv_obj_get_parent(cont);
 618:..\..\..\lvgl\version_6.1.2\lvgl\src\lv_objx/lv_cont.c ****     const lv_style_t * par_style = lv_obj_get_style(par);
 619:..\..\..\lvgl\version_6.1.2\lvgl\src\lv_objx/lv_cont.c ****     lv_area_t flood_area;
 620:..\..\..\lvgl\version_6.1.2\lvgl\src\lv_objx/lv_cont.c ****     lv_area_copy(&flood_area, &par->coords);
 621:..\..\..\lvgl\version_6.1.2\lvgl\src\lv_objx/lv_cont.c ****     flood_area.x1 += par_style->body.padding.left;
 622:..\..\..\lvgl\version_6.1.2\lvgl\src\lv_objx/lv_cont.c ****     flood_area.x2 -= par_style->body.padding.right;
 623:..\..\..\lvgl\version_6.1.2\lvgl\src\lv_objx/lv_cont.c ****     flood_area.y1 += par_style->body.padding.top;
 624:..\..\..\lvgl\version_6.1.2\lvgl\src\lv_objx/lv_cont.c ****     flood_area.y2 -= par_style->body.padding.bottom;
 625:..\..\..\lvgl\version_6.1.2\lvgl\src\lv_objx/lv_cont.c **** 
 626:..\..\..\lvgl\version_6.1.2\lvgl\src\lv_objx/lv_cont.c ****     /*Search the side coordinates of the children*/
 627:..\..\..\lvgl\version_6.1.2\lvgl\src\lv_objx/lv_cont.c ****     lv_obj_get_coords(cont, &ori);
 628:..\..\..\lvgl\version_6.1.2\lvgl\src\lv_objx/lv_cont.c ****     lv_obj_get_coords(cont, &tight_area);
 629:..\..\..\lvgl\version_6.1.2\lvgl\src\lv_objx/lv_cont.c **** 
 630:..\..\..\lvgl\version_6.1.2\lvgl\src\lv_objx/lv_cont.c ****     bool has_children = lv_ll_is_empty(&cont->child_ll) ? false : true;
 631:..\..\..\lvgl\version_6.1.2\lvgl\src\lv_objx/lv_cont.c **** 
 632:..\..\..\lvgl\version_6.1.2\lvgl\src\lv_objx/lv_cont.c ****     if(has_children) {
 633:..\..\..\lvgl\version_6.1.2\lvgl\src\lv_objx/lv_cont.c ****         tight_area.x1 = LV_COORD_MAX;
 634:..\..\..\lvgl\version_6.1.2\lvgl\src\lv_objx/lv_cont.c ****         tight_area.y1 = LV_COORD_MAX;
ARM GAS  C:\Users\pearlstl\AppData\Local\Temp\cciL9yyu.s 			page 39


 635:..\..\..\lvgl\version_6.1.2\lvgl\src\lv_objx/lv_cont.c ****         tight_area.x2 = LV_COORD_MIN;
 636:..\..\..\lvgl\version_6.1.2\lvgl\src\lv_objx/lv_cont.c ****         tight_area.y2 = LV_COORD_MIN;
 637:..\..\..\lvgl\version_6.1.2\lvgl\src\lv_objx/lv_cont.c **** 
 638:..\..\..\lvgl\version_6.1.2\lvgl\src\lv_objx/lv_cont.c ****         LV_LL_READ(cont->child_ll, child_i)
 639:..\..\..\lvgl\version_6.1.2\lvgl\src\lv_objx/lv_cont.c ****         {
 640:..\..\..\lvgl\version_6.1.2\lvgl\src\lv_objx/lv_cont.c ****             if(lv_obj_get_hidden(child_i) != false) continue;
 641:..\..\..\lvgl\version_6.1.2\lvgl\src\lv_objx/lv_cont.c ****             tight_area.x1 = LV_MATH_MIN(tight_area.x1, child_i->coords.x1);
 642:..\..\..\lvgl\version_6.1.2\lvgl\src\lv_objx/lv_cont.c ****             tight_area.y1 = LV_MATH_MIN(tight_area.y1, child_i->coords.y1);
 643:..\..\..\lvgl\version_6.1.2\lvgl\src\lv_objx/lv_cont.c ****             tight_area.x2 = LV_MATH_MAX(tight_area.x2, child_i->coords.x2);
 644:..\..\..\lvgl\version_6.1.2\lvgl\src\lv_objx/lv_cont.c ****             tight_area.y2 = LV_MATH_MAX(tight_area.y2, child_i->coords.y2);
 645:..\..\..\lvgl\version_6.1.2\lvgl\src\lv_objx/lv_cont.c ****         }
 646:..\..\..\lvgl\version_6.1.2\lvgl\src\lv_objx/lv_cont.c **** 
 647:..\..\..\lvgl\version_6.1.2\lvgl\src\lv_objx/lv_cont.c ****         tight_area.x1 -= style->body.padding.left;
 648:..\..\..\lvgl\version_6.1.2\lvgl\src\lv_objx/lv_cont.c ****         tight_area.x2 += style->body.padding.right;
 649:..\..\..\lvgl\version_6.1.2\lvgl\src\lv_objx/lv_cont.c ****         tight_area.y1 -= style->body.padding.top;
 650:..\..\..\lvgl\version_6.1.2\lvgl\src\lv_objx/lv_cont.c ****         tight_area.y2 += style->body.padding.bottom;
 651:..\..\..\lvgl\version_6.1.2\lvgl\src\lv_objx/lv_cont.c ****     }
 652:..\..\..\lvgl\version_6.1.2\lvgl\src\lv_objx/lv_cont.c **** 
 653:..\..\..\lvgl\version_6.1.2\lvgl\src\lv_objx/lv_cont.c ****     lv_area_t new_area;
 654:..\..\..\lvgl\version_6.1.2\lvgl\src\lv_objx/lv_cont.c ****     lv_area_copy(&new_area, &ori);
 655:..\..\..\lvgl\version_6.1.2\lvgl\src\lv_objx/lv_cont.c **** 
 656:..\..\..\lvgl\version_6.1.2\lvgl\src\lv_objx/lv_cont.c ****     switch(ext->fit_left) {
 657:..\..\..\lvgl\version_6.1.2\lvgl\src\lv_objx/lv_cont.c ****         case LV_FIT_TIGHT: new_area.x1 = tight_area.x1; break;
 658:..\..\..\lvgl\version_6.1.2\lvgl\src\lv_objx/lv_cont.c ****         case LV_FIT_FLOOD: new_area.x1 = flood_area.x1; break;
 659:..\..\..\lvgl\version_6.1.2\lvgl\src\lv_objx/lv_cont.c ****         case LV_FIT_FILL: new_area.x1 = has_children ? LV_MATH_MIN(tight_area.x1, flood_area.x1) : 
 660:..\..\..\lvgl\version_6.1.2\lvgl\src\lv_objx/lv_cont.c ****         default: break;
 661:..\..\..\lvgl\version_6.1.2\lvgl\src\lv_objx/lv_cont.c ****     }
 662:..\..\..\lvgl\version_6.1.2\lvgl\src\lv_objx/lv_cont.c **** 
 663:..\..\..\lvgl\version_6.1.2\lvgl\src\lv_objx/lv_cont.c ****     switch(ext->fit_right) {
 664:..\..\..\lvgl\version_6.1.2\lvgl\src\lv_objx/lv_cont.c ****         case LV_FIT_TIGHT: new_area.x2 = tight_area.x2; break;
 665:..\..\..\lvgl\version_6.1.2\lvgl\src\lv_objx/lv_cont.c ****         case LV_FIT_FLOOD: new_area.x2 = flood_area.x2; break;
 666:..\..\..\lvgl\version_6.1.2\lvgl\src\lv_objx/lv_cont.c ****         case LV_FIT_FILL: new_area.x2 = has_children ? LV_MATH_MAX(tight_area.x2, flood_area.x2) : 
 667:..\..\..\lvgl\version_6.1.2\lvgl\src\lv_objx/lv_cont.c ****         default: break;
 668:..\..\..\lvgl\version_6.1.2\lvgl\src\lv_objx/lv_cont.c ****     }
 669:..\..\..\lvgl\version_6.1.2\lvgl\src\lv_objx/lv_cont.c **** 
 670:..\..\..\lvgl\version_6.1.2\lvgl\src\lv_objx/lv_cont.c ****     switch(ext->fit_top) {
 671:..\..\..\lvgl\version_6.1.2\lvgl\src\lv_objx/lv_cont.c ****         case LV_FIT_TIGHT: new_area.y1 = tight_area.y1; break;
 672:..\..\..\lvgl\version_6.1.2\lvgl\src\lv_objx/lv_cont.c ****         case LV_FIT_FLOOD: new_area.y1 = flood_area.y1; break;
 673:..\..\..\lvgl\version_6.1.2\lvgl\src\lv_objx/lv_cont.c ****         case LV_FIT_FILL: new_area.y1 = has_children ? LV_MATH_MIN(tight_area.y1, flood_area.y1) : 
 674:..\..\..\lvgl\version_6.1.2\lvgl\src\lv_objx/lv_cont.c ****         default: break;
 675:..\..\..\lvgl\version_6.1.2\lvgl\src\lv_objx/lv_cont.c ****     }
 676:..\..\..\lvgl\version_6.1.2\lvgl\src\lv_objx/lv_cont.c **** 
 677:..\..\..\lvgl\version_6.1.2\lvgl\src\lv_objx/lv_cont.c ****     switch(ext->fit_bottom) {
 678:..\..\..\lvgl\version_6.1.2\lvgl\src\lv_objx/lv_cont.c ****         case LV_FIT_TIGHT: new_area.y2 = tight_area.y2; break;
 679:..\..\..\lvgl\version_6.1.2\lvgl\src\lv_objx/lv_cont.c ****         case LV_FIT_FLOOD: new_area.y2 = flood_area.y2; break;
 680:..\..\..\lvgl\version_6.1.2\lvgl\src\lv_objx/lv_cont.c ****         case LV_FIT_FILL: new_area.y2 = has_children ? LV_MATH_MAX(tight_area.y2, flood_area.y2) : 
 681:..\..\..\lvgl\version_6.1.2\lvgl\src\lv_objx/lv_cont.c ****         default: break;
 682:..\..\..\lvgl\version_6.1.2\lvgl\src\lv_objx/lv_cont.c ****     }
 683:..\..\..\lvgl\version_6.1.2\lvgl\src\lv_objx/lv_cont.c **** 
 684:..\..\..\lvgl\version_6.1.2\lvgl\src\lv_objx/lv_cont.c ****     /*Do nothing if the coordinates are not changed*/
 685:..\..\..\lvgl\version_6.1.2\lvgl\src\lv_objx/lv_cont.c ****     if(cont->coords.x1 != new_area.x1 || cont->coords.y1 != new_area.y1 || cont->coords.x2 != new_a
 686:..\..\..\lvgl\version_6.1.2\lvgl\src\lv_objx/lv_cont.c ****        cont->coords.y2 != new_area.y2) {
 687:..\..\..\lvgl\version_6.1.2\lvgl\src\lv_objx/lv_cont.c **** 
 688:..\..\..\lvgl\version_6.1.2\lvgl\src\lv_objx/lv_cont.c ****         lv_obj_invalidate(cont);
 689:..\..\..\lvgl\version_6.1.2\lvgl\src\lv_objx/lv_cont.c ****         lv_area_copy(&cont->coords, &new_area);
 690:..\..\..\lvgl\version_6.1.2\lvgl\src\lv_objx/lv_cont.c ****         lv_obj_invalidate(cont);
 691:..\..\..\lvgl\version_6.1.2\lvgl\src\lv_objx/lv_cont.c **** 
ARM GAS  C:\Users\pearlstl\AppData\Local\Temp\cciL9yyu.s 			page 40


 692:..\..\..\lvgl\version_6.1.2\lvgl\src\lv_objx/lv_cont.c ****         /*Notify the object about its new coordinates*/
 693:..\..\..\lvgl\version_6.1.2\lvgl\src\lv_objx/lv_cont.c ****         cont->signal_cb(cont, LV_SIGNAL_CORD_CHG, &ori);
 694:..\..\..\lvgl\version_6.1.2\lvgl\src\lv_objx/lv_cont.c **** 
 695:..\..\..\lvgl\version_6.1.2\lvgl\src\lv_objx/lv_cont.c ****         /*Inform the parent about the new coordinates*/
 696:..\..\..\lvgl\version_6.1.2\lvgl\src\lv_objx/lv_cont.c ****         par->signal_cb(par, LV_SIGNAL_CHILD_CHG, cont);
 697:..\..\..\lvgl\version_6.1.2\lvgl\src\lv_objx/lv_cont.c **** 
 698:..\..\..\lvgl\version_6.1.2\lvgl\src\lv_objx/lv_cont.c ****         if(lv_obj_get_auto_realign(cont)) {
 699:..\..\..\lvgl\version_6.1.2\lvgl\src\lv_objx/lv_cont.c ****             lv_obj_realign(cont);
 700:..\..\..\lvgl\version_6.1.2\lvgl\src\lv_objx/lv_cont.c ****         }
 701:..\..\..\lvgl\version_6.1.2\lvgl\src\lv_objx/lv_cont.c **** 
 702:..\..\..\lvgl\version_6.1.2\lvgl\src\lv_objx/lv_cont.c ****         /*Tell the children the parent's size has changed*/
 703:..\..\..\lvgl\version_6.1.2\lvgl\src\lv_objx/lv_cont.c ****         LV_LL_READ(cont->child_ll, child_i)
 704:..\..\..\lvgl\version_6.1.2\lvgl\src\lv_objx/lv_cont.c ****         {
 705:..\..\..\lvgl\version_6.1.2\lvgl\src\lv_objx/lv_cont.c ****             child_i->signal_cb(child_i, LV_SIGNAL_PARENT_SIZE_CHG, NULL);
 706:..\..\..\lvgl\version_6.1.2\lvgl\src\lv_objx/lv_cont.c ****         }
 707:..\..\..\lvgl\version_6.1.2\lvgl\src\lv_objx/lv_cont.c ****     }
 708:..\..\..\lvgl\version_6.1.2\lvgl\src\lv_objx/lv_cont.c **** }
 1346              		.loc 1 708 0 is_stmt 1
 1347 001c 0DB0     		add	sp, sp, #52
 1348              		.cfi_remember_state
 1349              		.cfi_def_cfa_offset 36
 1350              		@ sp needed
 1351 001e BDE8F08F 		pop	{r4, r5, r6, r7, r8, r9, r10, fp, pc}
 1352              	.LVL232:
 1353              	.L131:
 1354              		.cfi_restore_state
 614:..\..\..\lvgl\version_6.1.2\lvgl\src\lv_objx/lv_cont.c ****     lv_obj_t * child_i;
 1355              		.loc 1 614 0
 1356 0022 3046     		mov	r0, r6
 1357              	.LVL233:
 1358 0024 FFF7FEFF 		bl	lv_obj_get_style
 1359              	.LVL234:
 1360 0028 0390     		str	r0, [sp, #12]
 1361              	.LVL235:
 617:..\..\..\lvgl\version_6.1.2\lvgl\src\lv_objx/lv_cont.c ****     const lv_style_t * par_style = lv_obj_get_style(par);
 1362              		.loc 1 617 0
 1363 002a 3046     		mov	r0, r6
 1364              	.LVL236:
 1365 002c FFF7FEFF 		bl	lv_obj_get_parent
 1366              	.LVL237:
 1367 0030 8246     		mov	r10, r0
 1368              	.LVL238:
 618:..\..\..\lvgl\version_6.1.2\lvgl\src\lv_objx/lv_cont.c ****     lv_area_t flood_area;
 1369              		.loc 1 618 0
 1370 0032 FFF7FEFF 		bl	lv_obj_get_style
 1371              	.LVL239:
 1372              	.LBB91:
 1373              	.LBB92:
 1374              		.file 2 "..\\..\\..\\lvgl\\version_6.1.2\\lvgl\\src\\lv_objx\\../lv_core/../lv_misc/lv_area.h"
   1:..\..\..\lvgl\version_6.1.2\lvgl\src\lv_objx\../lv_core/../lv_misc/lv_area.h **** /**
   2:..\..\..\lvgl\version_6.1.2\lvgl\src\lv_objx\../lv_core/../lv_misc/lv_area.h ****  * @file lv_area.h
   3:..\..\..\lvgl\version_6.1.2\lvgl\src\lv_objx\../lv_core/../lv_misc/lv_area.h ****  *
   4:..\..\..\lvgl\version_6.1.2\lvgl\src\lv_objx\../lv_core/../lv_misc/lv_area.h ****  */
   5:..\..\..\lvgl\version_6.1.2\lvgl\src\lv_objx\../lv_core/../lv_misc/lv_area.h **** 
   6:..\..\..\lvgl\version_6.1.2\lvgl\src\lv_objx\../lv_core/../lv_misc/lv_area.h **** #ifndef LV_AREA_H
   7:..\..\..\lvgl\version_6.1.2\lvgl\src\lv_objx\../lv_core/../lv_misc/lv_area.h **** #define LV_AREA_H
   8:..\..\..\lvgl\version_6.1.2\lvgl\src\lv_objx\../lv_core/../lv_misc/lv_area.h **** 
ARM GAS  C:\Users\pearlstl\AppData\Local\Temp\cciL9yyu.s 			page 41


   9:..\..\..\lvgl\version_6.1.2\lvgl\src\lv_objx\../lv_core/../lv_misc/lv_area.h **** #ifdef __cplusplus
  10:..\..\..\lvgl\version_6.1.2\lvgl\src\lv_objx\../lv_core/../lv_misc/lv_area.h **** extern "C" {
  11:..\..\..\lvgl\version_6.1.2\lvgl\src\lv_objx\../lv_core/../lv_misc/lv_area.h **** #endif
  12:..\..\..\lvgl\version_6.1.2\lvgl\src\lv_objx\../lv_core/../lv_misc/lv_area.h **** 
  13:..\..\..\lvgl\version_6.1.2\lvgl\src\lv_objx\../lv_core/../lv_misc/lv_area.h **** /*********************
  14:..\..\..\lvgl\version_6.1.2\lvgl\src\lv_objx\../lv_core/../lv_misc/lv_area.h ****  *      INCLUDES
  15:..\..\..\lvgl\version_6.1.2\lvgl\src\lv_objx\../lv_core/../lv_misc/lv_area.h ****  *********************/
  16:..\..\..\lvgl\version_6.1.2\lvgl\src\lv_objx\../lv_core/../lv_misc/lv_area.h **** #include <string.h>
  17:..\..\..\lvgl\version_6.1.2\lvgl\src\lv_objx\../lv_core/../lv_misc/lv_area.h **** #include <stdbool.h>
  18:..\..\..\lvgl\version_6.1.2\lvgl\src\lv_objx\../lv_core/../lv_misc/lv_area.h **** #include <stdint.h>
  19:..\..\..\lvgl\version_6.1.2\lvgl\src\lv_objx\../lv_core/../lv_misc/lv_area.h **** #ifdef LV_CONF_INCLUDE_SIMPLE
  20:..\..\..\lvgl\version_6.1.2\lvgl\src\lv_objx\../lv_core/../lv_misc/lv_area.h **** #include "lv_conf.h"
  21:..\..\..\lvgl\version_6.1.2\lvgl\src\lv_objx\../lv_core/../lv_misc/lv_area.h **** #else
  22:..\..\..\lvgl\version_6.1.2\lvgl\src\lv_objx\../lv_core/../lv_misc/lv_area.h **** #include "../../../lv_conf.h"
  23:..\..\..\lvgl\version_6.1.2\lvgl\src\lv_objx\../lv_core/../lv_misc/lv_area.h **** #endif
  24:..\..\..\lvgl\version_6.1.2\lvgl\src\lv_objx\../lv_core/../lv_misc/lv_area.h **** 
  25:..\..\..\lvgl\version_6.1.2\lvgl\src\lv_objx\../lv_core/../lv_misc/lv_area.h **** /*********************
  26:..\..\..\lvgl\version_6.1.2\lvgl\src\lv_objx\../lv_core/../lv_misc/lv_area.h ****  *      DEFINES
  27:..\..\..\lvgl\version_6.1.2\lvgl\src\lv_objx\../lv_core/../lv_misc/lv_area.h ****  *********************/
  28:..\..\..\lvgl\version_6.1.2\lvgl\src\lv_objx\../lv_core/../lv_misc/lv_area.h **** /*To avoid overflow don't let the max ranges (reduce with 1000) */
  29:..\..\..\lvgl\version_6.1.2\lvgl\src\lv_objx\../lv_core/../lv_misc/lv_area.h **** #define LV_COORD_MAX ((lv_coord_t)((uint32_t)((uint32_t)1 << (8 * sizeof(lv_coord_t) - 1)) - 1000))
  30:..\..\..\lvgl\version_6.1.2\lvgl\src\lv_objx\../lv_core/../lv_misc/lv_area.h **** #define LV_COORD_MIN (-LV_COORD_MAX)
  31:..\..\..\lvgl\version_6.1.2\lvgl\src\lv_objx\../lv_core/../lv_misc/lv_area.h **** 
  32:..\..\..\lvgl\version_6.1.2\lvgl\src\lv_objx\../lv_core/../lv_misc/lv_area.h **** LV_EXPORT_CONST_INT(LV_COORD_MAX);
  33:..\..\..\lvgl\version_6.1.2\lvgl\src\lv_objx\../lv_core/../lv_misc/lv_area.h **** LV_EXPORT_CONST_INT(LV_COORD_MIN);
  34:..\..\..\lvgl\version_6.1.2\lvgl\src\lv_objx\../lv_core/../lv_misc/lv_area.h **** 
  35:..\..\..\lvgl\version_6.1.2\lvgl\src\lv_objx\../lv_core/../lv_misc/lv_area.h **** /**********************
  36:..\..\..\lvgl\version_6.1.2\lvgl\src\lv_objx\../lv_core/../lv_misc/lv_area.h ****  *      TYPEDEFS
  37:..\..\..\lvgl\version_6.1.2\lvgl\src\lv_objx\../lv_core/../lv_misc/lv_area.h ****  **********************/
  38:..\..\..\lvgl\version_6.1.2\lvgl\src\lv_objx\../lv_core/../lv_misc/lv_area.h **** 
  39:..\..\..\lvgl\version_6.1.2\lvgl\src\lv_objx\../lv_core/../lv_misc/lv_area.h **** /**
  40:..\..\..\lvgl\version_6.1.2\lvgl\src\lv_objx\../lv_core/../lv_misc/lv_area.h ****  * Represents a point on the screen.
  41:..\..\..\lvgl\version_6.1.2\lvgl\src\lv_objx\../lv_core/../lv_misc/lv_area.h ****  */
  42:..\..\..\lvgl\version_6.1.2\lvgl\src\lv_objx\../lv_core/../lv_misc/lv_area.h **** typedef struct
  43:..\..\..\lvgl\version_6.1.2\lvgl\src\lv_objx\../lv_core/../lv_misc/lv_area.h **** {
  44:..\..\..\lvgl\version_6.1.2\lvgl\src\lv_objx\../lv_core/../lv_misc/lv_area.h ****     lv_coord_t x;
  45:..\..\..\lvgl\version_6.1.2\lvgl\src\lv_objx\../lv_core/../lv_misc/lv_area.h ****     lv_coord_t y;
  46:..\..\..\lvgl\version_6.1.2\lvgl\src\lv_objx\../lv_core/../lv_misc/lv_area.h **** } lv_point_t;
  47:..\..\..\lvgl\version_6.1.2\lvgl\src\lv_objx\../lv_core/../lv_misc/lv_area.h **** 
  48:..\..\..\lvgl\version_6.1.2\lvgl\src\lv_objx\../lv_core/../lv_misc/lv_area.h **** /** Represents an area of the screen. */
  49:..\..\..\lvgl\version_6.1.2\lvgl\src\lv_objx\../lv_core/../lv_misc/lv_area.h **** typedef struct
  50:..\..\..\lvgl\version_6.1.2\lvgl\src\lv_objx\../lv_core/../lv_misc/lv_area.h **** {
  51:..\..\..\lvgl\version_6.1.2\lvgl\src\lv_objx\../lv_core/../lv_misc/lv_area.h ****     lv_coord_t x1;
  52:..\..\..\lvgl\version_6.1.2\lvgl\src\lv_objx\../lv_core/../lv_misc/lv_area.h ****     lv_coord_t y1;
  53:..\..\..\lvgl\version_6.1.2\lvgl\src\lv_objx\../lv_core/../lv_misc/lv_area.h ****     lv_coord_t x2;
  54:..\..\..\lvgl\version_6.1.2\lvgl\src\lv_objx\../lv_core/../lv_misc/lv_area.h ****     lv_coord_t y2;
  55:..\..\..\lvgl\version_6.1.2\lvgl\src\lv_objx\../lv_core/../lv_misc/lv_area.h **** } lv_area_t;
  56:..\..\..\lvgl\version_6.1.2\lvgl\src\lv_objx\../lv_core/../lv_misc/lv_area.h **** 
  57:..\..\..\lvgl\version_6.1.2\lvgl\src\lv_objx\../lv_core/../lv_misc/lv_area.h **** /**********************
  58:..\..\..\lvgl\version_6.1.2\lvgl\src\lv_objx\../lv_core/../lv_misc/lv_area.h ****  * GLOBAL PROTOTYPES
  59:..\..\..\lvgl\version_6.1.2\lvgl\src\lv_objx\../lv_core/../lv_misc/lv_area.h ****  **********************/
  60:..\..\..\lvgl\version_6.1.2\lvgl\src\lv_objx\../lv_core/../lv_misc/lv_area.h **** 
  61:..\..\..\lvgl\version_6.1.2\lvgl\src\lv_objx\../lv_core/../lv_misc/lv_area.h **** /**
  62:..\..\..\lvgl\version_6.1.2\lvgl\src\lv_objx\../lv_core/../lv_misc/lv_area.h ****  * Initialize an area
  63:..\..\..\lvgl\version_6.1.2\lvgl\src\lv_objx\../lv_core/../lv_misc/lv_area.h ****  * @param area_p pointer to an area
  64:..\..\..\lvgl\version_6.1.2\lvgl\src\lv_objx\../lv_core/../lv_misc/lv_area.h ****  * @param x1 left coordinate of the area
  65:..\..\..\lvgl\version_6.1.2\lvgl\src\lv_objx\../lv_core/../lv_misc/lv_area.h ****  * @param y1 top coordinate of the area
ARM GAS  C:\Users\pearlstl\AppData\Local\Temp\cciL9yyu.s 			page 42


  66:..\..\..\lvgl\version_6.1.2\lvgl\src\lv_objx\../lv_core/../lv_misc/lv_area.h ****  * @param x2 right coordinate of the area
  67:..\..\..\lvgl\version_6.1.2\lvgl\src\lv_objx\../lv_core/../lv_misc/lv_area.h ****  * @param y2 bottom coordinate of the area
  68:..\..\..\lvgl\version_6.1.2\lvgl\src\lv_objx\../lv_core/../lv_misc/lv_area.h ****  */
  69:..\..\..\lvgl\version_6.1.2\lvgl\src\lv_objx\../lv_core/../lv_misc/lv_area.h **** void lv_area_set(lv_area_t * area_p, lv_coord_t x1, lv_coord_t y1, lv_coord_t x2, lv_coord_t y2);
  70:..\..\..\lvgl\version_6.1.2\lvgl\src\lv_objx\../lv_core/../lv_misc/lv_area.h **** 
  71:..\..\..\lvgl\version_6.1.2\lvgl\src\lv_objx\../lv_core/../lv_misc/lv_area.h **** /**
  72:..\..\..\lvgl\version_6.1.2\lvgl\src\lv_objx\../lv_core/../lv_misc/lv_area.h ****  * Copy an area
  73:..\..\..\lvgl\version_6.1.2\lvgl\src\lv_objx\../lv_core/../lv_misc/lv_area.h ****  * @param dest pointer to the destination area
  74:..\..\..\lvgl\version_6.1.2\lvgl\src\lv_objx\../lv_core/../lv_misc/lv_area.h ****  * @param src pointer to the source area
  75:..\..\..\lvgl\version_6.1.2\lvgl\src\lv_objx\../lv_core/../lv_misc/lv_area.h ****  */
  76:..\..\..\lvgl\version_6.1.2\lvgl\src\lv_objx\../lv_core/../lv_misc/lv_area.h **** inline static void lv_area_copy(lv_area_t * dest, const lv_area_t * src)
  77:..\..\..\lvgl\version_6.1.2\lvgl\src\lv_objx\../lv_core/../lv_misc/lv_area.h **** {
  78:..\..\..\lvgl\version_6.1.2\lvgl\src\lv_objx\../lv_core/../lv_misc/lv_area.h ****     memcpy(dest, src, sizeof(lv_area_t));
 1375              		.loc 2 78 0
 1376 0036 5146     		mov	r1, r10
 1377              	.LBE92:
 1378              	.LBE91:
 618:..\..\..\lvgl\version_6.1.2\lvgl\src\lv_objx/lv_cont.c ****     lv_area_t flood_area;
 1379              		.loc 1 618 0
 1380 0038 0246     		mov	r2, r0
 1381              	.LVL240:
 1382              	.LBB96:
 1383              	.LBB93:
 1384              		.loc 2 78 0
 1385 003a 51F8100F 		ldr	r0, [r1, #16]!	@ unaligned
 1386              	.LVL241:
 1387              	.LBE93:
 1388              	.LBE96:
 622:..\..\..\lvgl\version_6.1.2\lvgl\src\lv_objx/lv_cont.c ****     flood_area.y1 += par_style->body.padding.top;
 1389              		.loc 1 622 0
 1390 003e B2F826E0 		ldrh	lr, [r2, #38]
 1391              	.LBB97:
 1392              	.LBB94:
 1393              		.loc 2 78 0
 1394 0042 4968     		ldr	r1, [r1, #4]	@ unaligned
 1395              	.LVL242:
 1396              	.LBE94:
 1397              	.LBE97:
 623:..\..\..\lvgl\version_6.1.2\lvgl\src\lv_objx/lv_cont.c ****     flood_area.y2 -= par_style->body.padding.bottom;
 1398              		.loc 1 623 0
 1399 0044 148C     		ldrh	r4, [r2, #32]
 624:..\..\..\lvgl\version_6.1.2\lvgl\src\lv_objx/lv_cont.c **** 
 1400              		.loc 1 624 0
 1401 0046 558C     		ldrh	r5, [r2, #34]
 621:..\..\..\lvgl\version_6.1.2\lvgl\src\lv_objx/lv_cont.c ****     flood_area.x2 -= par_style->body.padding.right;
 1402              		.loc 1 621 0
 1403 0048 978C     		ldrh	r7, [r2, #36]
 1404              	.LBB98:
 1405              	.LBB95:
 1406              		.loc 2 78 0
 1407 004a 08AB     		add	r3, sp, #32
 1408              	.LVL243:
 1409 004c 03C3     		stmia	r3!, {r0, r1}
 1410              	.LVL244:
 1411              	.LBE95:
 1412              	.LBE98:
 622:..\..\..\lvgl\version_6.1.2\lvgl\src\lv_objx/lv_cont.c ****     flood_area.y1 += par_style->body.padding.top;
ARM GAS  C:\Users\pearlstl\AppData\Local\Temp\cciL9yyu.s 			page 43


 1413              		.loc 1 622 0
 1414 004e BDF82410 		ldrh	r1, [sp, #36]
 621:..\..\..\lvgl\version_6.1.2\lvgl\src\lv_objx/lv_cont.c ****     flood_area.x2 -= par_style->body.padding.right;
 1415              		.loc 1 621 0
 1416 0052 BDF82000 		ldrh	r0, [sp, #32]
 623:..\..\..\lvgl\version_6.1.2\lvgl\src\lv_objx/lv_cont.c ****     flood_area.y2 -= par_style->body.padding.bottom;
 1417              		.loc 1 623 0
 1418 0056 BDF82220 		ldrh	r2, [sp, #34]
 1419              	.LVL245:
 624:..\..\..\lvgl\version_6.1.2\lvgl\src\lv_objx/lv_cont.c **** 
 1420              		.loc 1 624 0
 1421 005a BDF82630 		ldrh	r3, [sp, #38]
 622:..\..\..\lvgl\version_6.1.2\lvgl\src\lv_objx/lv_cont.c ****     flood_area.y1 += par_style->body.padding.top;
 1422              		.loc 1 622 0
 1423 005e CEEB0101 		rsb	r1, lr, r1
 624:..\..\..\lvgl\version_6.1.2\lvgl\src\lv_objx/lv_cont.c **** 
 1424              		.loc 1 624 0
 1425 0062 5B1B     		subs	r3, r3, r5
 622:..\..\..\lvgl\version_6.1.2\lvgl\src\lv_objx/lv_cont.c ****     flood_area.y1 += par_style->body.padding.top;
 1426              		.loc 1 622 0
 1427 0064 09B2     		sxth	r1, r1
 621:..\..\..\lvgl\version_6.1.2\lvgl\src\lv_objx/lv_cont.c ****     flood_area.x2 -= par_style->body.padding.right;
 1428              		.loc 1 621 0
 1429 0066 0744     		add	r7, r7, r0
 623:..\..\..\lvgl\version_6.1.2\lvgl\src\lv_objx/lv_cont.c ****     flood_area.y2 -= par_style->body.padding.bottom;
 1430              		.loc 1 623 0
 1431 0068 2244     		add	r2, r2, r4
 627:..\..\..\lvgl\version_6.1.2\lvgl\src\lv_objx/lv_cont.c ****     lv_obj_get_coords(cont, &tight_area);
 1432              		.loc 1 627 0
 1433 006a 0DF11809 		add	r9, sp, #24
 623:..\..\..\lvgl\version_6.1.2\lvgl\src\lv_objx/lv_cont.c ****     flood_area.y2 -= par_style->body.padding.bottom;
 1434              		.loc 1 623 0
 1435 006e 12B2     		sxth	r2, r2
 624:..\..\..\lvgl\version_6.1.2\lvgl\src\lv_objx/lv_cont.c **** 
 1436              		.loc 1 624 0
 1437 0070 0FFA83FB 		sxth	fp, r3
 622:..\..\..\lvgl\version_6.1.2\lvgl\src\lv_objx/lv_cont.c ****     flood_area.y1 += par_style->body.padding.top;
 1438              		.loc 1 622 0
 1439 0074 0C46     		mov	r4, r1
 1440 0076 0191     		str	r1, [sp, #4]
 627:..\..\..\lvgl\version_6.1.2\lvgl\src\lv_objx/lv_cont.c ****     lv_obj_get_coords(cont, &tight_area);
 1441              		.loc 1 627 0
 1442 0078 3046     		mov	r0, r6
 1443 007a 4946     		mov	r1, r9
 621:..\..\..\lvgl\version_6.1.2\lvgl\src\lv_objx/lv_cont.c ****     flood_area.x2 -= par_style->body.padding.right;
 1444              		.loc 1 621 0
 1445 007c 3FB2     		sxth	r7, r7
 623:..\..\..\lvgl\version_6.1.2\lvgl\src\lv_objx/lv_cont.c ****     flood_area.y2 -= par_style->body.padding.bottom;
 1446              		.loc 1 623 0
 1447 007e 0292     		str	r2, [sp, #8]
 1448 0080 ADF82220 		strh	r2, [sp, #34]	@ movhi
 621:..\..\..\lvgl\version_6.1.2\lvgl\src\lv_objx/lv_cont.c ****     flood_area.x2 -= par_style->body.padding.right;
 1449              		.loc 1 621 0
 1450 0084 ADF82070 		strh	r7, [sp, #32]	@ movhi
 622:..\..\..\lvgl\version_6.1.2\lvgl\src\lv_objx/lv_cont.c ****     flood_area.y1 += par_style->body.padding.top;
 1451              		.loc 1 622 0
 1452 0088 ADF82440 		strh	r4, [sp, #36]	@ movhi
ARM GAS  C:\Users\pearlstl\AppData\Local\Temp\cciL9yyu.s 			page 44


 624:..\..\..\lvgl\version_6.1.2\lvgl\src\lv_objx/lv_cont.c **** 
 1453              		.loc 1 624 0
 1454 008c ADF826B0 		strh	fp, [sp, #38]	@ movhi
 630:..\..\..\lvgl\version_6.1.2\lvgl\src\lv_objx/lv_cont.c **** 
 1455              		.loc 1 630 0
 1456 0090 351D     		adds	r5, r6, #4
 627:..\..\..\lvgl\version_6.1.2\lvgl\src\lv_objx/lv_cont.c ****     lv_obj_get_coords(cont, &tight_area);
 1457              		.loc 1 627 0
 1458 0092 FFF7FEFF 		bl	lv_obj_get_coords
 1459              	.LVL246:
 628:..\..\..\lvgl\version_6.1.2\lvgl\src\lv_objx/lv_cont.c **** 
 1460              		.loc 1 628 0
 1461 0096 3046     		mov	r0, r6
 1462 0098 04A9     		add	r1, sp, #16
 1463 009a FFF7FEFF 		bl	lv_obj_get_coords
 1464              	.LVL247:
 630:..\..\..\lvgl\version_6.1.2\lvgl\src\lv_objx/lv_cont.c **** 
 1465              		.loc 1 630 0
 1466 009e 2846     		mov	r0, r5
 1467 00a0 FFF7FEFF 		bl	lv_ll_is_empty
 1468              	.LVL248:
 1469 00a4 0028     		cmp	r0, #0
 1470 00a6 40F0C780 		bne	.L133
 1471              	.LVL249:
 633:..\..\..\lvgl\version_6.1.2\lvgl\src\lv_objx/lv_cont.c ****         tight_area.y1 = LV_COORD_MAX;
 1472              		.loc 1 633 0
 1473 00aa AF4A     		ldr	r2, .L244
 1474 00ac AF4B     		ldr	r3, .L244+4
 1475 00ae 0492     		str	r2, [sp, #16]
 638:..\..\..\lvgl\version_6.1.2\lvgl\src\lv_objx/lv_cont.c ****         {
 1476              		.loc 1 638 0
 1477 00b0 2846     		mov	r0, r5
 633:..\..\..\lvgl\version_6.1.2\lvgl\src\lv_objx/lv_cont.c ****         tight_area.y1 = LV_COORD_MAX;
 1478              		.loc 1 633 0
 1479 00b2 0593     		str	r3, [sp, #20]
 638:..\..\..\lvgl\version_6.1.2\lvgl\src\lv_objx/lv_cont.c ****         {
 1480              		.loc 1 638 0
 1481 00b4 FFF7FEFF 		bl	lv_ll_get_head
 1482              	.LVL250:
 1483 00b8 0446     		mov	r4, r0
 1484 00ba 70B3     		cbz	r0, .L167
 1485              	.L136:
 640:..\..\..\lvgl\version_6.1.2\lvgl\src\lv_objx/lv_cont.c ****             tight_area.x1 = LV_MATH_MIN(tight_area.x1, child_i->coords.x1);
 1486              		.loc 1 640 0
 1487 00bc 2046     		mov	r0, r4
 1488 00be FFF7FEFF 		bl	lv_obj_get_hidden
 1489              	.LVL251:
 638:..\..\..\lvgl\version_6.1.2\lvgl\src\lv_objx/lv_cont.c ****         {
 1490              		.loc 1 638 0
 1491 00c2 2146     		mov	r1, r4
 640:..\..\..\lvgl\version_6.1.2\lvgl\src\lv_objx/lv_cont.c ****             tight_area.x1 = LV_MATH_MIN(tight_area.x1, child_i->coords.x1);
 1492              		.loc 1 640 0
 1493 00c4 18BB     		cbnz	r0, .L135
 1494              	.LVL252:
 641:..\..\..\lvgl\version_6.1.2\lvgl\src\lv_objx/lv_cont.c ****             tight_area.y1 = LV_MATH_MIN(tight_area.y1, child_i->coords.y1);
 1495              		.loc 1 641 0
 1496 00c6 B4F91030 		ldrsh	r3, [r4, #16]
ARM GAS  C:\Users\pearlstl\AppData\Local\Temp\cciL9yyu.s 			page 45


 1497 00ca BDF91000 		ldrsh	r0, [sp, #16]
 642:..\..\..\lvgl\version_6.1.2\lvgl\src\lv_objx/lv_cont.c ****             tight_area.x2 = LV_MATH_MAX(tight_area.x2, child_i->coords.x2);
 1498              		.loc 1 642 0
 1499 00ce B4F912C0 		ldrsh	ip, [r4, #18]
 1500 00d2 BDF91220 		ldrsh	r2, [sp, #18]
 643:..\..\..\lvgl\version_6.1.2\lvgl\src\lv_objx/lv_cont.c ****             tight_area.y2 = LV_MATH_MAX(tight_area.y2, child_i->coords.y2);
 1501              		.loc 1 643 0
 1502 00d6 B4F914E0 		ldrsh	lr, [r4, #20]
 644:..\..\..\lvgl\version_6.1.2\lvgl\src\lv_objx/lv_cont.c ****         }
 1503              		.loc 1 644 0
 1504 00da B4F91640 		ldrsh	r4, [r4, #22]
 641:..\..\..\lvgl\version_6.1.2\lvgl\src\lv_objx/lv_cont.c ****             tight_area.y1 = LV_MATH_MIN(tight_area.y1, child_i->coords.y1);
 1505              		.loc 1 641 0
 1506 00de 9842     		cmp	r0, r3
 1507 00e0 A8BF     		it	ge
 1508 00e2 1846     		movge	r0, r3
 643:..\..\..\lvgl\version_6.1.2\lvgl\src\lv_objx/lv_cont.c ****             tight_area.y2 = LV_MATH_MAX(tight_area.y2, child_i->coords.y2);
 1509              		.loc 1 643 0
 1510 00e4 BDF91430 		ldrsh	r3, [sp, #20]
 641:..\..\..\lvgl\version_6.1.2\lvgl\src\lv_objx/lv_cont.c ****             tight_area.y1 = LV_MATH_MIN(tight_area.y1, child_i->coords.y1);
 1511              		.loc 1 641 0
 1512 00e8 ADF81000 		strh	r0, [sp, #16]	@ movhi
 642:..\..\..\lvgl\version_6.1.2\lvgl\src\lv_objx/lv_cont.c ****             tight_area.x2 = LV_MATH_MAX(tight_area.x2, child_i->coords.x2);
 1513              		.loc 1 642 0
 1514 00ec 6245     		cmp	r2, ip
 1515 00ee A8BF     		it	ge
 1516 00f0 6246     		movge	r2, ip
 643:..\..\..\lvgl\version_6.1.2\lvgl\src\lv_objx/lv_cont.c ****             tight_area.y2 = LV_MATH_MAX(tight_area.y2, child_i->coords.y2);
 1517              		.loc 1 643 0
 1518 00f2 9E45     		cmp	lr, r3
 1519 00f4 B8BF     		it	lt
 1520 00f6 9E46     		movlt	lr, r3
 644:..\..\..\lvgl\version_6.1.2\lvgl\src\lv_objx/lv_cont.c ****         }
 1521              		.loc 1 644 0
 1522 00f8 BDF91630 		ldrsh	r3, [sp, #22]
 642:..\..\..\lvgl\version_6.1.2\lvgl\src\lv_objx/lv_cont.c ****             tight_area.x2 = LV_MATH_MAX(tight_area.x2, child_i->coords.x2);
 1523              		.loc 1 642 0
 1524 00fc ADF81220 		strh	r2, [sp, #18]	@ movhi
 644:..\..\..\lvgl\version_6.1.2\lvgl\src\lv_objx/lv_cont.c ****         }
 1525              		.loc 1 644 0
 1526 0100 A342     		cmp	r3, r4
 1527 0102 B8BF     		it	lt
 1528 0104 2346     		movlt	r3, r4
 643:..\..\..\lvgl\version_6.1.2\lvgl\src\lv_objx/lv_cont.c ****             tight_area.y2 = LV_MATH_MAX(tight_area.y2, child_i->coords.y2);
 1529              		.loc 1 643 0
 1530 0106 ADF814E0 		strh	lr, [sp, #20]	@ movhi
 644:..\..\..\lvgl\version_6.1.2\lvgl\src\lv_objx/lv_cont.c ****         }
 1531              		.loc 1 644 0
 1532 010a ADF81630 		strh	r3, [sp, #22]	@ movhi
 1533              	.L135:
 638:..\..\..\lvgl\version_6.1.2\lvgl\src\lv_objx/lv_cont.c ****         {
 1534              		.loc 1 638 0 discriminator 2
 1535 010e 2846     		mov	r0, r5
 1536 0110 FFF7FEFF 		bl	lv_ll_get_next
 1537              	.LVL253:
 1538 0114 0446     		mov	r4, r0
 1539 0116 0028     		cmp	r0, #0
ARM GAS  C:\Users\pearlstl\AppData\Local\Temp\cciL9yyu.s 			page 46


 1540 0118 D0D1     		bne	.L136
 1541              	.L167:
 647:..\..\..\lvgl\version_6.1.2\lvgl\src\lv_objx/lv_cont.c ****         tight_area.x2 += style->body.padding.right;
 1542              		.loc 1 647 0
 1543 011a 039C     		ldr	r4, [sp, #12]
 648:..\..\..\lvgl\version_6.1.2\lvgl\src\lv_objx/lv_cont.c ****         tight_area.y1 -= style->body.padding.top;
 1544              		.loc 1 648 0
 1545 011c BDF81400 		ldrh	r0, [sp, #20]
 1546              	.LVL254:
 1547 0120 E38C     		ldrh	r3, [r4, #38]
 647:..\..\..\lvgl\version_6.1.2\lvgl\src\lv_objx/lv_cont.c ****         tight_area.x2 += style->body.padding.right;
 1548              		.loc 1 647 0
 1549 0122 BDF81020 		ldrh	r2, [sp, #16]
 1550 0126 B4F824E0 		ldrh	lr, [r4, #36]
 649:..\..\..\lvgl\version_6.1.2\lvgl\src\lv_objx/lv_cont.c ****         tight_area.y2 += style->body.padding.bottom;
 1551              		.loc 1 649 0
 1552 012a BDF81210 		ldrh	r1, [sp, #18]
 648:..\..\..\lvgl\version_6.1.2\lvgl\src\lv_objx/lv_cont.c ****         tight_area.y1 -= style->body.padding.top;
 1553              		.loc 1 648 0
 1554 012e 0344     		add	r3, r3, r0
 649:..\..\..\lvgl\version_6.1.2\lvgl\src\lv_objx/lv_cont.c ****         tight_area.y2 += style->body.padding.bottom;
 1555              		.loc 1 649 0
 1556 0130 2046     		mov	r0, r4
 647:..\..\..\lvgl\version_6.1.2\lvgl\src\lv_objx/lv_cont.c ****         tight_area.x2 += style->body.padding.right;
 1557              		.loc 1 647 0
 1558 0132 CEEB020E 		rsb	lr, lr, r2
 649:..\..\..\lvgl\version_6.1.2\lvgl\src\lv_objx/lv_cont.c ****         tight_area.y2 += style->body.padding.bottom;
 1559              		.loc 1 649 0
 1560 0136 248C     		ldrh	r4, [r4, #32]
 650:..\..\..\lvgl\version_6.1.2\lvgl\src\lv_objx/lv_cont.c ****     }
 1561              		.loc 1 650 0
 1562 0138 428C     		ldrh	r2, [r0, #34]
 1563 013a BDF81600 		ldrh	r0, [sp, #22]
 648:..\..\..\lvgl\version_6.1.2\lvgl\src\lv_objx/lv_cont.c ****         tight_area.y1 -= style->body.padding.top;
 1564              		.loc 1 648 0
 1565 013e ADF81430 		strh	r3, [sp, #20]	@ movhi
 656:..\..\..\lvgl\version_6.1.2\lvgl\src\lv_objx/lv_cont.c ****         case LV_FIT_TIGHT: new_area.x1 = tight_area.x1; break;
 1566              		.loc 1 656 0
 1567 0142 98F80030 		ldrb	r3, [r8]	@ zero_extendqisi2
 649:..\..\..\lvgl\version_6.1.2\lvgl\src\lv_objx/lv_cont.c ****         tight_area.y2 += style->body.padding.bottom;
 1568              		.loc 1 649 0
 1569 0146 0C1B     		subs	r4, r1, r4
 650:..\..\..\lvgl\version_6.1.2\lvgl\src\lv_objx/lv_cont.c ****     }
 1570              		.loc 1 650 0
 1571 0148 0244     		add	r2, r2, r0
 1572              	.LBB99:
 1573              	.LBB100:
 1574              		.loc 2 78 0
 1575 014a 99E80300 		ldmia	r9, {r0, r1}
 1576              	.LBE100:
 1577              	.LBE99:
 650:..\..\..\lvgl\version_6.1.2\lvgl\src\lv_objx/lv_cont.c ****     }
 1578              		.loc 1 650 0
 1579 014e ADF81620 		strh	r2, [sp, #22]	@ movhi
 1580              	.LVL255:
 656:..\..\..\lvgl\version_6.1.2\lvgl\src\lv_objx/lv_cont.c ****         case LV_FIT_TIGHT: new_area.x1 = tight_area.x1; break;
 1581              		.loc 1 656 0
ARM GAS  C:\Users\pearlstl\AppData\Local\Temp\cciL9yyu.s 			page 47


 1582 0152 C3F30112 		ubfx	r2, r3, #4, #2
 647:..\..\..\lvgl\version_6.1.2\lvgl\src\lv_objx/lv_cont.c ****         tight_area.x2 += style->body.padding.right;
 1583              		.loc 1 647 0
 1584 0156 0FFA8EFE 		sxth	lr, lr
 649:..\..\..\lvgl\version_6.1.2\lvgl\src\lv_objx/lv_cont.c ****         tight_area.y2 += style->body.padding.bottom;
 1585              		.loc 1 649 0
 1586 015a ADF81240 		strh	r4, [sp, #18]	@ movhi
 656:..\..\..\lvgl\version_6.1.2\lvgl\src\lv_objx/lv_cont.c ****         case LV_FIT_TIGHT: new_area.x1 = tight_area.x1; break;
 1587              		.loc 1 656 0
 1588 015e 022A     		cmp	r2, #2
 1589              	.LBB106:
 1590              	.LBB101:
 1591              		.loc 2 78 0
 1592 0160 0AAC     		add	r4, sp, #40
 1593              	.LVL256:
 1594              	.LBE101:
 1595              	.LBE106:
 647:..\..\..\lvgl\version_6.1.2\lvgl\src\lv_objx/lv_cont.c ****         tight_area.x2 += style->body.padding.right;
 1596              		.loc 1 647 0
 1597 0162 ADF810E0 		strh	lr, [sp, #16]	@ movhi
 1598              	.LBB107:
 1599              	.LBB102:
 1600              		.loc 2 78 0
 1601 0166 84E80300 		stmia	r4, {r0, r1}
 1602              	.LVL257:
 1603              	.LBE102:
 1604              	.LBE107:
 656:..\..\..\lvgl\version_6.1.2\lvgl\src\lv_objx/lv_cont.c ****         case LV_FIT_TIGHT: new_area.x1 = tight_area.x1; break;
 1605              		.loc 1 656 0
 1606 016a 04D0     		beq	.L228
 1607 016c 40F2CC80 		bls	.L235
 659:..\..\..\lvgl\version_6.1.2\lvgl\src\lv_objx/lv_cont.c ****         default: break;
 1608              		.loc 1 659 0 discriminator 1
 1609 0170 7745     		cmp	r7, lr
 1610 0172 A8BF     		it	ge
 1611 0174 7746     		movge	r7, lr
 1612              	.L228:
 630:..\..\..\lvgl\version_6.1.2\lvgl\src\lv_objx/lv_cont.c **** 
 1613              		.loc 1 630 0 discriminator 1
 1614 0176 0122     		movs	r2, #1
 1615              	.LVL258:
 1616              	.L146:
 663:..\..\..\lvgl\version_6.1.2\lvgl\src\lv_objx/lv_cont.c ****         case LV_FIT_TIGHT: new_area.x2 = tight_area.x2; break;
 1617              		.loc 1 663 0 discriminator 4
 1618 0178 9B09     		lsrs	r3, r3, #6
 1619 017a 022B     		cmp	r3, #2
 659:..\..\..\lvgl\version_6.1.2\lvgl\src\lv_objx/lv_cont.c ****         default: break;
 1620              		.loc 1 659 0 discriminator 4
 1621 017c ADF82870 		strh	r7, [sp, #40]	@ movhi
 663:..\..\..\lvgl\version_6.1.2\lvgl\src\lv_objx/lv_cont.c ****         case LV_FIT_TIGHT: new_area.x2 = tight_area.x2; break;
 1622              		.loc 1 663 0 discriminator 4
 1623 0180 73D0     		beq	.L149
 1624              	.L238:
 663:..\..\..\lvgl\version_6.1.2\lvgl\src\lv_objx/lv_cont.c ****         case LV_FIT_TIGHT: new_area.x2 = tight_area.x2; break;
 1625              		.loc 1 663 0 is_stmt 0
 1626 0182 00F29D80 		bhi	.L148
 1627 0186 012B     		cmp	r3, #1
ARM GAS  C:\Users\pearlstl\AppData\Local\Temp\cciL9yyu.s 			page 48


 1628 0188 03D1     		bne	.L147
 1629              	.L144:
 664:..\..\..\lvgl\version_6.1.2\lvgl\src\lv_objx/lv_cont.c ****         case LV_FIT_FLOOD: new_area.x2 = flood_area.x2; break;
 1630              		.loc 1 664 0 is_stmt 1
 1631 018a BDF81430 		ldrh	r3, [sp, #20]
 1632 018e ADF82C30 		strh	r3, [sp, #44]	@ movhi
 1633              	.L147:
 670:..\..\..\lvgl\version_6.1.2\lvgl\src\lv_objx/lv_cont.c ****         case LV_FIT_TIGHT: new_area.y1 = tight_area.y1; break;
 1634              		.loc 1 670 0
 1635 0192 98F80130 		ldrb	r3, [r8, #1]	@ zero_extendqisi2
 1636 0196 03F00301 		and	r1, r3, #3
 1637 019a 0229     		cmp	r1, #2
 1638 019c 6FD0     		beq	.L154
 1639              	.L239:
 1640 019e 00F28580 		bhi	.L152
 1641 01a2 0129     		cmp	r1, #1
 1642 01a4 03D1     		bne	.L150
 1643              	.L153:
 671:..\..\..\lvgl\version_6.1.2\lvgl\src\lv_objx/lv_cont.c ****         case LV_FIT_FLOOD: new_area.y1 = flood_area.y1; break;
 1644              		.loc 1 671 0
 1645 01a6 BDF81210 		ldrh	r1, [sp, #18]
 1646 01aa ADF82A10 		strh	r1, [sp, #42]	@ movhi
 1647              	.L150:
 677:..\..\..\lvgl\version_6.1.2\lvgl\src\lv_objx/lv_cont.c ****         case LV_FIT_TIGHT: new_area.y2 = tight_area.y2; break;
 1648              		.loc 1 677 0
 1649 01ae C3F38103 		ubfx	r3, r3, #2, #2
 1650 01b2 022B     		cmp	r3, #2
 1651 01b4 6BD0     		beq	.L160
 1652              	.L240:
 1653 01b6 71D8     		bhi	.L158
 1654 01b8 012B     		cmp	r3, #1
 1655 01ba 03D1     		bne	.L156
 678:..\..\..\lvgl\version_6.1.2\lvgl\src\lv_objx/lv_cont.c ****         case LV_FIT_FLOOD: new_area.y2 = flood_area.y2; break;
 1656              		.loc 1 678 0
 1657 01bc BDF81630 		ldrh	r3, [sp, #22]
 1658 01c0 ADF82E30 		strh	r3, [sp, #46]	@ movhi
 1659              	.L156:
 685:..\..\..\lvgl\version_6.1.2\lvgl\src\lv_objx/lv_cont.c ****        cont->coords.y2 != new_area.y2) {
 1660              		.loc 1 685 0
 1661 01c4 B6F91030 		ldrsh	r3, [r6, #16]
 1662 01c8 BB42     		cmp	r3, r7
 1663 01ca 05D1     		bne	.L161
 685:..\..\..\lvgl\version_6.1.2\lvgl\src\lv_objx/lv_cont.c ****        cont->coords.y2 != new_area.y2) {
 1664              		.loc 1 685 0 is_stmt 0 discriminator 1
 1665 01cc B6F91220 		ldrsh	r2, [r6, #18]
 1666 01d0 BDF92A30 		ldrsh	r3, [sp, #42]
 1667 01d4 9A42     		cmp	r2, r3
 1668 01d6 7ED0     		beq	.L236
 1669              	.L161:
 688:..\..\..\lvgl\version_6.1.2\lvgl\src\lv_objx/lv_cont.c ****         lv_area_copy(&cont->coords, &new_area);
 1670              		.loc 1 688 0 is_stmt 1
 1671 01d8 3046     		mov	r0, r6
 1672 01da FFF7FEFF 		bl	lv_obj_invalidate
 1673              	.LVL259:
 1674              	.LBB108:
 1675              	.LBB109:
 1676              		.loc 2 78 0
ARM GAS  C:\Users\pearlstl\AppData\Local\Temp\cciL9yyu.s 			page 49


 1677 01de 2346     		mov	r3, r4
 1678 01e0 03CB     		ldmia	r3!, {r0, r1}
 1679 01e2 3061     		str	r0, [r6, #16]	@ unaligned
 1680 01e4 7161     		str	r1, [r6, #20]	@ unaligned
 1681              	.LVL260:
 1682              	.LBE109:
 1683              	.LBE108:
 690:..\..\..\lvgl\version_6.1.2\lvgl\src\lv_objx/lv_cont.c **** 
 1684              		.loc 1 690 0
 1685 01e6 3046     		mov	r0, r6
 1686 01e8 FFF7FEFF 		bl	lv_obj_invalidate
 1687              	.LVL261:
 693:..\..\..\lvgl\version_6.1.2\lvgl\src\lv_objx/lv_cont.c **** 
 1688              		.loc 1 693 0
 1689 01ec 4A46     		mov	r2, r9
 1690 01ee F369     		ldr	r3, [r6, #28]
 1691 01f0 0221     		movs	r1, #2
 1692 01f2 3046     		mov	r0, r6
 1693 01f4 9847     		blx	r3
 1694              	.LVL262:
 696:..\..\..\lvgl\version_6.1.2\lvgl\src\lv_objx/lv_cont.c **** 
 1695              		.loc 1 696 0
 1696 01f6 DAF81C30 		ldr	r3, [r10, #28]
 1697 01fa 5046     		mov	r0, r10
 1698 01fc 3246     		mov	r2, r6
 1699 01fe 0121     		movs	r1, #1
 1700 0200 9847     		blx	r3
 1701              	.LVL263:
 698:..\..\..\lvgl\version_6.1.2\lvgl\src\lv_objx/lv_cont.c ****             lv_obj_realign(cont);
 1702              		.loc 1 698 0
 1703 0202 3046     		mov	r0, r6
 1704 0204 FFF7FEFF 		bl	lv_obj_get_auto_realign
 1705              	.LVL264:
 1706 0208 0028     		cmp	r0, #0
 1707 020a 43D1     		bne	.L237
 1708              	.L163:
 703:..\..\..\lvgl\version_6.1.2\lvgl\src\lv_objx/lv_cont.c ****         {
 1709              		.loc 1 703 0
 1710 020c 2846     		mov	r0, r5
 1711 020e FFF7FEFF 		bl	lv_ll_get_head
 1712              	.LVL265:
 1713 0212 0446     		mov	r4, r0
 1714 0214 0028     		cmp	r0, #0
 1715 0216 3FF401AF 		beq	.L130
 1716              	.L165:
 705:..\..\..\lvgl\version_6.1.2\lvgl\src\lv_objx/lv_cont.c ****         }
 1717              		.loc 1 705 0 discriminator 3
 1718 021a E369     		ldr	r3, [r4, #28]
 1719 021c 0022     		movs	r2, #0
 1720 021e 0321     		movs	r1, #3
 1721 0220 2046     		mov	r0, r4
 1722 0222 9847     		blx	r3
 1723              	.LVL266:
 703:..\..\..\lvgl\version_6.1.2\lvgl\src\lv_objx/lv_cont.c ****         {
 1724              		.loc 1 703 0 discriminator 3
 1725 0224 2146     		mov	r1, r4
 1726 0226 2846     		mov	r0, r5
ARM GAS  C:\Users\pearlstl\AppData\Local\Temp\cciL9yyu.s 			page 50


 1727 0228 FFF7FEFF 		bl	lv_ll_get_next
 1728              	.LVL267:
 1729 022c 0446     		mov	r4, r0
 1730 022e 0028     		cmp	r0, #0
 1731 0230 F3D1     		bne	.L165
 1732              		.loc 1 708 0
 1733 0232 0DB0     		add	sp, sp, #52
 1734              		.cfi_remember_state
 1735              		.cfi_def_cfa_offset 36
 1736              		@ sp needed
 1737 0234 BDE8F08F 		pop	{r4, r5, r6, r7, r8, r9, r10, fp, pc}
 1738              	.LVL268:
 1739              	.L133:
 1740              		.cfi_restore_state
 656:..\..\..\lvgl\version_6.1.2\lvgl\src\lv_objx/lv_cont.c ****         case LV_FIT_TIGHT: new_area.x1 = tight_area.x1; break;
 1741              		.loc 1 656 0
 1742 0238 98F80030 		ldrb	r3, [r8]	@ zero_extendqisi2
 1743              	.LBB110:
 1744              	.LBB103:
 1745              		.loc 2 78 0
 1746 023c 99E80300 		ldmia	r9, {r0, r1}
 1747              	.LBE103:
 1748              	.LBE110:
 656:..\..\..\lvgl\version_6.1.2\lvgl\src\lv_objx/lv_cont.c ****         case LV_FIT_TIGHT: new_area.x1 = tight_area.x1; break;
 1749              		.loc 1 656 0
 1750 0240 C3F30112 		ubfx	r2, r3, #4, #2
 1751              	.LBB111:
 1752              	.LBB104:
 1753              		.loc 2 78 0
 1754 0244 0AAC     		add	r4, sp, #40
 1755              	.LVL269:
 1756              	.LBE104:
 1757              	.LBE111:
 656:..\..\..\lvgl\version_6.1.2\lvgl\src\lv_objx/lv_cont.c ****         case LV_FIT_TIGHT: new_area.x1 = tight_area.x1; break;
 1758              		.loc 1 656 0
 1759 0246 022A     		cmp	r2, #2
 1760              	.LBB112:
 1761              	.LBB105:
 1762              		.loc 2 78 0
 1763 0248 84E80300 		stmia	r4, {r0, r1}
 1764              	.LVL270:
 1765              	.LBE105:
 1766              	.LBE112:
 656:..\..\..\lvgl\version_6.1.2\lvgl\src\lv_objx/lv_cont.c ****         case LV_FIT_TIGHT: new_area.x1 = tight_area.x1; break;
 1767              		.loc 1 656 0
 1768 024c 06D0     		beq	.L176
 1769 024e 05D8     		bhi	.L176
 1770 0250 012A     		cmp	r2, #1
 1771 0252 4FD1     		bne	.L222
 1772 0254 BDF91070 		ldrsh	r7, [sp, #16]
 630:..\..\..\lvgl\version_6.1.2\lvgl\src\lv_objx/lv_cont.c **** 
 1773              		.loc 1 630 0
 1774 0258 0022     		movs	r2, #0
 1775 025a 8DE7     		b	.L146
 1776              	.L176:
 663:..\..\..\lvgl\version_6.1.2\lvgl\src\lv_objx/lv_cont.c ****         case LV_FIT_TIGHT: new_area.x2 = tight_area.x2; break;
 1777              		.loc 1 663 0
ARM GAS  C:\Users\pearlstl\AppData\Local\Temp\cciL9yyu.s 			page 51


 1778 025c 9B09     		lsrs	r3, r3, #6
 1779 025e 022B     		cmp	r3, #2
 630:..\..\..\lvgl\version_6.1.2\lvgl\src\lv_objx/lv_cont.c **** 
 1780              		.loc 1 630 0
 1781 0260 4FF00002 		mov	r2, #0
 659:..\..\..\lvgl\version_6.1.2\lvgl\src\lv_objx/lv_cont.c ****         default: break;
 1782              		.loc 1 659 0
 1783 0264 ADF82870 		strh	r7, [sp, #40]	@ movhi
 663:..\..\..\lvgl\version_6.1.2\lvgl\src\lv_objx/lv_cont.c ****         case LV_FIT_TIGHT: new_area.x2 = tight_area.x2; break;
 1784              		.loc 1 663 0
 1785 0268 8BD1     		bne	.L238
 1786              	.L149:
 666:..\..\..\lvgl\version_6.1.2\lvgl\src\lv_objx/lv_cont.c ****         default: break;
 1787              		.loc 1 666 0 discriminator 4
 1788 026a BDF80430 		ldrh	r3, [sp, #4]
 1789 026e ADF82C30 		strh	r3, [sp, #44]	@ movhi
 670:..\..\..\lvgl\version_6.1.2\lvgl\src\lv_objx/lv_cont.c ****         case LV_FIT_TIGHT: new_area.y1 = tight_area.y1; break;
 1790              		.loc 1 670 0 discriminator 4
 1791 0272 98F80130 		ldrb	r3, [r8, #1]	@ zero_extendqisi2
 1792 0276 03F00301 		and	r1, r3, #3
 1793 027a 0229     		cmp	r1, #2
 1794 027c 8FD1     		bne	.L239
 1795              	.L154:
 677:..\..\..\lvgl\version_6.1.2\lvgl\src\lv_objx/lv_cont.c ****         case LV_FIT_TIGHT: new_area.y2 = tight_area.y2; break;
 1796              		.loc 1 677 0 discriminator 4
 1797 027e C3F38103 		ubfx	r3, r3, #2, #2
 673:..\..\..\lvgl\version_6.1.2\lvgl\src\lv_objx/lv_cont.c ****         default: break;
 1798              		.loc 1 673 0 discriminator 4
 1799 0282 BDF80810 		ldrh	r1, [sp, #8]
 1800 0286 ADF82A10 		strh	r1, [sp, #42]	@ movhi
 677:..\..\..\lvgl\version_6.1.2\lvgl\src\lv_objx/lv_cont.c ****         case LV_FIT_TIGHT: new_area.y2 = tight_area.y2; break;
 1801              		.loc 1 677 0 discriminator 4
 1802 028a 022B     		cmp	r3, #2
 1803 028c 93D1     		bne	.L240
 1804              	.L160:
 680:..\..\..\lvgl\version_6.1.2\lvgl\src\lv_objx/lv_cont.c ****         default: break;
 1805              		.loc 1 680 0 discriminator 4
 1806 028e ADF82EB0 		strh	fp, [sp, #46]	@ movhi
 1807 0292 97E7     		b	.L156
 1808              	.L237:
 699:..\..\..\lvgl\version_6.1.2\lvgl\src\lv_objx/lv_cont.c ****         }
 1809              		.loc 1 699 0
 1810 0294 3046     		mov	r0, r6
 1811 0296 FFF7FEFF 		bl	lv_obj_realign
 1812              	.LVL271:
 1813 029a B7E7     		b	.L163
 1814              	.L158:
 680:..\..\..\lvgl\version_6.1.2\lvgl\src\lv_objx/lv_cont.c ****         default: break;
 1815              		.loc 1 680 0
 1816 029c 002A     		cmp	r2, #0
 1817 029e F6D0     		beq	.L160
 680:..\..\..\lvgl\version_6.1.2\lvgl\src\lv_objx/lv_cont.c ****         default: break;
 1818              		.loc 1 680 0 is_stmt 0 discriminator 1
 1819 02a0 BDF91630 		ldrsh	r3, [sp, #22]
 1820 02a4 9B45     		cmp	fp, r3
 1821 02a6 B8BF     		it	lt
 1822 02a8 9B46     		movlt	fp, r3
ARM GAS  C:\Users\pearlstl\AppData\Local\Temp\cciL9yyu.s 			page 52


 1823 02aa F0E7     		b	.L160
 1824              	.L152:
 673:..\..\..\lvgl\version_6.1.2\lvgl\src\lv_objx/lv_cont.c ****         default: break;
 1825              		.loc 1 673 0 is_stmt 1
 1826 02ac 002A     		cmp	r2, #0
 1827 02ae E6D0     		beq	.L154
 1828              	.L155:
 673:..\..\..\lvgl\version_6.1.2\lvgl\src\lv_objx/lv_cont.c ****         default: break;
 1829              		.loc 1 673 0 is_stmt 0 discriminator 1
 1830 02b0 0298     		ldr	r0, [sp, #8]
 1831 02b2 BDF91210 		ldrsh	r1, [sp, #18]
 1832 02b6 8842     		cmp	r0, r1
 1833 02b8 A8BF     		it	ge
 1834 02ba 0846     		movge	r0, r1
 1835 02bc 0290     		str	r0, [sp, #8]
 1836 02be DEE7     		b	.L154
 1837              	.L148:
 666:..\..\..\lvgl\version_6.1.2\lvgl\src\lv_objx/lv_cont.c ****         default: break;
 1838              		.loc 1 666 0 is_stmt 1
 1839 02c0 002A     		cmp	r2, #0
 1840 02c2 D2D0     		beq	.L149
 1841              	.L143:
 666:..\..\..\lvgl\version_6.1.2\lvgl\src\lv_objx/lv_cont.c ****         default: break;
 1842              		.loc 1 666 0 is_stmt 0 discriminator 1
 1843 02c4 019A     		ldr	r2, [sp, #4]
 1844 02c6 BDF91430 		ldrsh	r3, [sp, #20]
 1845 02ca 9A42     		cmp	r2, r3
 1846 02cc B8BF     		it	lt
 1847 02ce 1A46     		movlt	r2, r3
 1848 02d0 0192     		str	r2, [sp, #4]
 1849              	.L229:
 1850 02d2 0122     		movs	r2, #1
 1851 02d4 C9E7     		b	.L149
 1852              	.L236:
 685:..\..\..\lvgl\version_6.1.2\lvgl\src\lv_objx/lv_cont.c ****        cont->coords.y2 != new_area.y2) {
 1853              		.loc 1 685 0 is_stmt 1 discriminator 2
 1854 02d6 B6F91420 		ldrsh	r2, [r6, #20]
 1855 02da BDF92C30 		ldrsh	r3, [sp, #44]
 1856 02de 9A42     		cmp	r2, r3
 1857 02e0 7FF47AAF 		bne	.L161
 685:..\..\..\lvgl\version_6.1.2\lvgl\src\lv_objx/lv_cont.c ****        cont->coords.y2 != new_area.y2) {
 1858              		.loc 1 685 0 is_stmt 0 discriminator 3
 1859 02e4 B6F91620 		ldrsh	r2, [r6, #22]
 1860 02e8 BDF92E30 		ldrsh	r3, [sp, #46]
 1861 02ec 9A42     		cmp	r2, r3
 1862 02ee 7FF473AF 		bne	.L161
 1863 02f2 93E6     		b	.L130
 1864              	.L222:
 663:..\..\..\lvgl\version_6.1.2\lvgl\src\lv_objx/lv_cont.c ****         case LV_FIT_TIGHT: new_area.x2 = tight_area.x2; break;
 1865              		.loc 1 663 0 is_stmt 1
 1866 02f4 9B09     		lsrs	r3, r3, #6
 1867 02f6 022B     		cmp	r3, #2
 1868 02f8 BDF92870 		ldrsh	r7, [sp, #40]
 1869 02fc 12D0     		beq	.L179
 1870 02fe 11D8     		bhi	.L179
 1871 0300 012B     		cmp	r3, #1
 1872 0302 11D1     		bne	.L241
ARM GAS  C:\Users\pearlstl\AppData\Local\Temp\cciL9yyu.s 			page 53


 630:..\..\..\lvgl\version_6.1.2\lvgl\src\lv_objx/lv_cont.c **** 
 1873              		.loc 1 630 0
 1874 0304 0022     		movs	r2, #0
 1875 0306 40E7     		b	.L144
 1876              	.LVL272:
 1877              	.L235:
 656:..\..\..\lvgl\version_6.1.2\lvgl\src\lv_objx/lv_cont.c ****         case LV_FIT_TIGHT: new_area.x1 = tight_area.x1; break;
 1878              		.loc 1 656 0
 1879 0308 012A     		cmp	r2, #1
 1880 030a 09D0     		beq	.L171
 663:..\..\..\lvgl\version_6.1.2\lvgl\src\lv_objx/lv_cont.c ****         case LV_FIT_TIGHT: new_area.x2 = tight_area.x2; break;
 1881              		.loc 1 663 0
 1882 030c 9B09     		lsrs	r3, r3, #6
 1883 030e 022B     		cmp	r3, #2
 1884 0310 BDF92870 		ldrsh	r7, [sp, #40]
 1885 0314 DDD0     		beq	.L229
 1886 0316 D5D8     		bhi	.L143
 1887 0318 012B     		cmp	r3, #1
 1888 031a 12D1     		bne	.L242
 630:..\..\..\lvgl\version_6.1.2\lvgl\src\lv_objx/lv_cont.c **** 
 1889              		.loc 1 630 0
 1890 031c 1A46     		mov	r2, r3
 1891 031e 34E7     		b	.L144
 1892              	.L171:
 656:..\..\..\lvgl\version_6.1.2\lvgl\src\lv_objx/lv_cont.c ****         case LV_FIT_TIGHT: new_area.x1 = tight_area.x1; break;
 1893              		.loc 1 656 0
 1894 0320 7746     		mov	r7, lr
 1895 0322 29E7     		b	.L146
 1896              	.LVL273:
 1897              	.L179:
 630:..\..\..\lvgl\version_6.1.2\lvgl\src\lv_objx/lv_cont.c **** 
 1898              		.loc 1 630 0
 1899 0324 0022     		movs	r2, #0
 1900 0326 A0E7     		b	.L149
 1901              	.L241:
 670:..\..\..\lvgl\version_6.1.2\lvgl\src\lv_objx/lv_cont.c ****         case LV_FIT_TIGHT: new_area.y1 = tight_area.y1; break;
 1902              		.loc 1 670 0
 1903 0328 98F80130 		ldrb	r3, [r8, #1]	@ zero_extendqisi2
 1904 032c 03F00302 		and	r2, r3, #3
 1905 0330 022A     		cmp	r2, #2
 1906 0332 04D0     		beq	.L187
 1907 0334 03D8     		bhi	.L187
 1908 0336 012A     		cmp	r2, #1
 1909 0338 0FD1     		bne	.L243
 630:..\..\..\lvgl\version_6.1.2\lvgl\src\lv_objx/lv_cont.c **** 
 1910              		.loc 1 630 0
 1911 033a 0022     		movs	r2, #0
 1912 033c 33E7     		b	.L153
 1913              	.L187:
 1914 033e 0022     		movs	r2, #0
 1915 0340 9DE7     		b	.L154
 1916              	.LVL274:
 1917              	.L242:
 670:..\..\..\lvgl\version_6.1.2\lvgl\src\lv_objx/lv_cont.c ****         case LV_FIT_TIGHT: new_area.y1 = tight_area.y1; break;
 1918              		.loc 1 670 0
 1919 0342 98F80130 		ldrb	r3, [r8, #1]	@ zero_extendqisi2
 1920 0346 03F00302 		and	r2, r3, #3
ARM GAS  C:\Users\pearlstl\AppData\Local\Temp\cciL9yyu.s 			page 54


 1921 034a 022A     		cmp	r2, #2
 1922 034c 09D0     		beq	.L182
 1923 034e 06D8     		bhi	.L183
 1924 0350 012A     		cmp	r2, #1
 1925 0352 3FF428AF 		beq	.L153
 630:..\..\..\lvgl\version_6.1.2\lvgl\src\lv_objx/lv_cont.c **** 
 1926              		.loc 1 630 0
 1927 0356 0122     		movs	r2, #1
 1928 0358 29E7     		b	.L150
 1929              	.LVL275:
 1930              	.L243:
 1931 035a 0022     		movs	r2, #0
 1932 035c 27E7     		b	.L150
 1933              	.LVL276:
 1934              	.L183:
 1935 035e 0122     		movs	r2, #1
 1936 0360 A6E7     		b	.L155
 1937              	.L182:
 1938 0362 0122     		movs	r2, #1
 1939 0364 8BE7     		b	.L154
 1940              	.L245:
 1941 0366 00BF     		.align	2
 1942              	.L244:
 1943 0368 187C187C 		.word	2081979416
 1944 036c E883E883 		.word	-2081913880
 1945              		.cfi_endproc
 1946              	.LFE50:
 1947              		.size	lv_cont_refr_autofit, .-lv_cont_refr_autofit
 1948              		.section	.text.lv_cont_signal,"ax",%progbits
 1949              		.align	2
 1950              		.thumb
 1951              		.thumb_func
 1952              		.type	lv_cont_signal, %function
 1953              	lv_cont_signal:
 1954              	.LFB43:
 252:..\..\..\lvgl\version_6.1.2\lvgl\src\lv_objx/lv_cont.c ****     lv_res_t res;
 1955              		.loc 1 252 0
 1956              		.cfi_startproc
 1957              		@ args = 0, pretend = 0, frame = 0
 1958              		@ frame_needed = 0, uses_anonymous_args = 0
 1959              	.LVL277:
 1960 0000 F8B5     		push	{r3, r4, r5, r6, r7, lr}
 1961              		.cfi_def_cfa_offset 24
 1962              		.cfi_offset 3, -24
 1963              		.cfi_offset 4, -20
 1964              		.cfi_offset 5, -16
 1965              		.cfi_offset 6, -12
 1966              		.cfi_offset 7, -8
 1967              		.cfi_offset 14, -4
 256:..\..\..\lvgl\version_6.1.2\lvgl\src\lv_objx/lv_cont.c ****     if(res != LV_RES_OK) return res;
 1968              		.loc 1 256 0
 1969 0002 1B4B     		ldr	r3, .L265
 1970 0004 1B68     		ldr	r3, [r3]
 252:..\..\..\lvgl\version_6.1.2\lvgl\src\lv_objx/lv_cont.c ****     lv_res_t res;
 1971              		.loc 1 252 0
 1972 0006 0646     		mov	r6, r0
 1973 0008 0D46     		mov	r5, r1
ARM GAS  C:\Users\pearlstl\AppData\Local\Temp\cciL9yyu.s 			page 55


 1974 000a 1746     		mov	r7, r2
 256:..\..\..\lvgl\version_6.1.2\lvgl\src\lv_objx/lv_cont.c ****     if(res != LV_RES_OK) return res;
 1975              		.loc 1 256 0
 1976 000c 9847     		blx	r3
 1977              	.LVL278:
 257:..\..\..\lvgl\version_6.1.2\lvgl\src\lv_objx/lv_cont.c ****     if(sign == LV_SIGNAL_GET_TYPE) return lv_obj_handle_get_type_signal(param, LV_OBJX_NAME);
 1978              		.loc 1 257 0
 1979 000e 0128     		cmp	r0, #1
 1980 0010 00D0     		beq	.L262
 278:..\..\..\lvgl\version_6.1.2\lvgl\src\lv_objx/lv_cont.c **** 
 1981              		.loc 1 278 0
 1982 0012 F8BD     		pop	{r3, r4, r5, r6, r7, pc}
 1983              	.LVL279:
 1984              	.L262:
 258:..\..\..\lvgl\version_6.1.2\lvgl\src\lv_objx/lv_cont.c **** 
 1985              		.loc 1 258 0
 1986 0014 072D     		cmp	r5, #7
 1987 0016 25D0     		beq	.L263
 260:..\..\..\lvgl\version_6.1.2\lvgl\src\lv_objx/lv_cont.c ****         lv_cont_refr_layout(cont);
 1988              		.loc 1 260 0
 1989 0018 042D     		cmp	r5, #4
 1990 001a 1BD0     		beq	.L250
 263:..\..\..\lvgl\version_6.1.2\lvgl\src\lv_objx/lv_cont.c ****         lv_cont_refr_layout(cont);
 1991              		.loc 1 263 0
 1992 001c 012D     		cmp	r5, #1
 1993 001e 19D0     		beq	.L250
 266:..\..\..\lvgl\version_6.1.2\lvgl\src\lv_objx/lv_cont.c ****         if(lv_obj_get_width(cont) != lv_area_get_width(param) || lv_obj_get_height(cont) != lv_area
 1994              		.loc 1 266 0
 1995 0020 022D     		cmp	r5, #2
 1996 0022 03D0     		beq	.L264
 271:..\..\..\lvgl\version_6.1.2\lvgl\src\lv_objx/lv_cont.c ****         /*FLOOD and FILL fit needs to be refreshed if the parent size has changed*/
 1997              		.loc 1 271 0
 1998 0024 032D     		cmp	r5, #3
 1999 0026 18D0     		beq	.L260
 2000              	.LVL280:
 2001              	.L261:
 2002 0028 0120     		movs	r0, #1
 2003 002a F8BD     		pop	{r3, r4, r5, r6, r7, pc}
 2004              	.LVL281:
 2005              	.L264:
 267:..\..\..\lvgl\version_6.1.2\lvgl\src\lv_objx/lv_cont.c ****             lv_cont_refr_layout(cont);
 2006              		.loc 1 267 0
 2007 002c 3046     		mov	r0, r6
 2008              	.LVL282:
 2009 002e FFF7FEFF 		bl	lv_obj_get_width
 2010              	.LVL283:
 2011 0032 BB88     		ldrh	r3, [r7, #4]
 2012 0034 3A88     		ldrh	r2, [r7]
 2013 0036 0133     		adds	r3, r3, #1
 2014 0038 9B1A     		subs	r3, r3, r2
 2015 003a 1BB2     		sxth	r3, r3
 2016 003c 9842     		cmp	r0, r3
 2017 003e 09D1     		bne	.L250
 267:..\..\..\lvgl\version_6.1.2\lvgl\src\lv_objx/lv_cont.c ****             lv_cont_refr_layout(cont);
 2018              		.loc 1 267 0 is_stmt 0 discriminator 1
 2019 0040 3046     		mov	r0, r6
 2020 0042 FFF7FEFF 		bl	lv_obj_get_height
ARM GAS  C:\Users\pearlstl\AppData\Local\Temp\cciL9yyu.s 			page 56


 2021              	.LVL284:
 2022 0046 FB88     		ldrh	r3, [r7, #6]
 2023 0048 7A88     		ldrh	r2, [r7, #2]
 2024 004a 0133     		adds	r3, r3, #1
 2025 004c 9B1A     		subs	r3, r3, r2
 2026 004e 1BB2     		sxth	r3, r3
 2027 0050 9842     		cmp	r0, r3
 2028 0052 E9D0     		beq	.L261
 2029              	.LVL285:
 2030              	.L250:
 261:..\..\..\lvgl\version_6.1.2\lvgl\src\lv_objx/lv_cont.c ****         lv_cont_refr_autofit(cont);
 2031              		.loc 1 261 0 is_stmt 1
 2032 0054 3046     		mov	r0, r6
 2033 0056 FFF7FEFF 		bl	lv_cont_refr_layout
 2034              	.LVL286:
 2035              	.L260:
 262:..\..\..\lvgl\version_6.1.2\lvgl\src\lv_objx/lv_cont.c ****     } else if(sign == LV_SIGNAL_CHILD_CHG) {
 2036              		.loc 1 262 0
 2037 005a 3046     		mov	r0, r6
 2038 005c FFF7FEFF 		bl	lv_cont_refr_autofit
 2039              	.LVL287:
 2040 0060 0120     		movs	r0, #1
 2041 0062 F8BD     		pop	{r3, r4, r5, r6, r7, pc}
 2042              	.LVL288:
 2043              	.L263:
 258:..\..\..\lvgl\version_6.1.2\lvgl\src\lv_objx/lv_cont.c **** 
 2044              		.loc 1 258 0 discriminator 1
 2045 0064 3846     		mov	r0, r7
 2046              	.LVL289:
 2047 0066 0349     		ldr	r1, .L265+4
 278:..\..\..\lvgl\version_6.1.2\lvgl\src\lv_objx/lv_cont.c **** 
 2048              		.loc 1 278 0 discriminator 1
 2049 0068 BDE8F840 		pop	{r3, r4, r5, r6, r7, lr}
 2050              		.cfi_restore 14
 2051              		.cfi_restore 7
 2052              		.cfi_restore 6
 2053              		.cfi_restore 5
 2054              		.cfi_restore 4
 2055              		.cfi_restore 3
 2056              		.cfi_def_cfa_offset 0
 2057              	.LVL290:
 258:..\..\..\lvgl\version_6.1.2\lvgl\src\lv_objx/lv_cont.c **** 
 2058              		.loc 1 258 0 discriminator 1
 2059 006c FFF7FEBF 		b	lv_obj_handle_get_type_signal
 2060              	.LVL291:
 2061              	.L266:
 2062              		.align	2
 2063              	.L265:
 2064 0070 00000000 		.word	.LANCHOR0
 2065 0074 00000000 		.word	.LC0
 2066              		.cfi_endproc
 2067              	.LFE43:
 2068              		.size	lv_cont_signal, .-lv_cont_signal
 2069              		.section	.text.lv_cont_create,"ax",%progbits
 2070              		.align	2
 2071              		.global	lv_cont_create
 2072              		.thumb
ARM GAS  C:\Users\pearlstl\AppData\Local\Temp\cciL9yyu.s 			page 57


 2073              		.thumb_func
 2074              		.type	lv_cont_create, %function
 2075              	lv_cont_create:
 2076              	.LFB35:
  67:..\..\..\lvgl\version_6.1.2\lvgl\src\lv_objx/lv_cont.c **** 
 2077              		.loc 1 67 0
 2078              		.cfi_startproc
 2079              		@ args = 0, pretend = 0, frame = 0
 2080              		@ frame_needed = 0, uses_anonymous_args = 0
 2081              	.LVL292:
 2082 0000 F8B5     		push	{r3, r4, r5, r6, r7, lr}
 2083              		.cfi_def_cfa_offset 24
 2084              		.cfi_offset 3, -24
 2085              		.cfi_offset 4, -20
 2086              		.cfi_offset 5, -16
 2087              		.cfi_offset 6, -12
 2088              		.cfi_offset 7, -8
 2089              		.cfi_offset 14, -4
  67:..\..\..\lvgl\version_6.1.2\lvgl\src\lv_objx/lv_cont.c **** 
 2090              		.loc 1 67 0
 2091 0002 0746     		mov	r7, r0
 2092 0004 0E46     		mov	r6, r1
  72:..\..\..\lvgl\version_6.1.2\lvgl\src\lv_objx/lv_cont.c ****     LV_ASSERT_MEM(new_cont);
 2093              		.loc 1 72 0
 2094 0006 FFF7FEFF 		bl	lv_obj_create
 2095              	.LVL293:
  74:..\..\..\lvgl\version_6.1.2\lvgl\src\lv_objx/lv_cont.c **** 
 2096              		.loc 1 74 0
 2097 000a 0028     		cmp	r0, #0
 2098 000c 53D0     		beq	.L271
  76:..\..\..\lvgl\version_6.1.2\lvgl\src\lv_objx/lv_cont.c **** 
 2099              		.loc 1 76 0
 2100 000e 2F4C     		ldr	r4, .L281
 2101 0010 2368     		ldr	r3, [r4]
 2102 0012 0546     		mov	r5, r0
 2103 0014 002B     		cmp	r3, #0
 2104 0016 4AD0     		beq	.L279
 2105              	.LVL294:
 2106              	.L270:
  78:..\..\..\lvgl\version_6.1.2\lvgl\src\lv_objx/lv_cont.c ****     lv_cont_ext_t * ext = lv_obj_get_ext_attr(new_cont);
 2107              		.loc 1 78 0
 2108 0018 0221     		movs	r1, #2
 2109 001a 2846     		mov	r0, r5
 2110 001c FFF7FEFF 		bl	lv_obj_allocate_ext_attr
 2111              	.LVL295:
  79:..\..\..\lvgl\version_6.1.2\lvgl\src\lv_objx/lv_cont.c ****     if(ext == NULL) return NULL;
 2112              		.loc 1 79 0
 2113 0020 2846     		mov	r0, r5
 2114 0022 FFF7FEFF 		bl	lv_obj_get_ext_attr
 2115              	.LVL296:
  80:..\..\..\lvgl\version_6.1.2\lvgl\src\lv_objx/lv_cont.c **** 
 2116              		.loc 1 80 0
 2117 0026 0446     		mov	r4, r0
 2118 0028 0028     		cmp	r0, #0
 2119 002a 44D0     		beq	.L271
  83:..\..\..\lvgl\version_6.1.2\lvgl\src\lv_objx/lv_cont.c ****     ext->fit_right  = LV_FIT_NONE;
 2120              		.loc 1 83 0
ARM GAS  C:\Users\pearlstl\AppData\Local\Temp\cciL9yyu.s 			page 58


 2121 002c 0278     		ldrb	r2, [r0]	@ zero_extendqisi2
  85:..\..\..\lvgl\version_6.1.2\lvgl\src\lv_objx/lv_cont.c ****     ext->fit_bottom = LV_FIT_NONE;
 2122              		.loc 1 85 0
 2123 002e 4378     		ldrb	r3, [r0, #1]	@ zero_extendqisi2
  89:..\..\..\lvgl\version_6.1.2\lvgl\src\lv_objx/lv_cont.c **** 
 2124              		.loc 1 89 0
 2125 0030 2749     		ldr	r1, .L281+4
  87:..\..\..\lvgl\version_6.1.2\lvgl\src\lv_objx/lv_cont.c **** 
 2126              		.loc 1 87 0
 2127 0032 02F00F02 		and	r2, r2, #15
  86:..\..\..\lvgl\version_6.1.2\lvgl\src\lv_objx/lv_cont.c ****     ext->layout     = LV_LAYOUT_OFF;
 2128              		.loc 1 86 0
 2129 0036 03F0FC03 		and	r3, r3, #252
  87:..\..\..\lvgl\version_6.1.2\lvgl\src\lv_objx/lv_cont.c **** 
 2130              		.loc 1 87 0
 2131 003a 6FF30302 		bfc	r2, #0, #4
  86:..\..\..\lvgl\version_6.1.2\lvgl\src\lv_objx/lv_cont.c ****     ext->layout     = LV_LAYOUT_OFF;
 2132              		.loc 1 86 0
 2133 003e 6FF38303 		bfc	r3, #2, #2
  87:..\..\..\lvgl\version_6.1.2\lvgl\src\lv_objx/lv_cont.c **** 
 2134              		.loc 1 87 0
 2135 0042 0270     		strb	r2, [r0]
  86:..\..\..\lvgl\version_6.1.2\lvgl\src\lv_objx/lv_cont.c ****     ext->layout     = LV_LAYOUT_OFF;
 2136              		.loc 1 86 0
 2137 0044 4370     		strb	r3, [r0, #1]
  89:..\..\..\lvgl\version_6.1.2\lvgl\src\lv_objx/lv_cont.c **** 
 2138              		.loc 1 89 0
 2139 0046 2846     		mov	r0, r5
 2140              	.LVL297:
 2141 0048 FFF7FEFF 		bl	lv_obj_set_signal_cb
 2142              	.LVL298:
  92:..\..\..\lvgl\version_6.1.2\lvgl\src\lv_objx/lv_cont.c ****         /*Set the default styles if it's not screen*/
 2143              		.loc 1 92 0
 2144 004c 2EB3     		cbz	r6, .L280
 2145              	.LBB113:
 105:..\..\..\lvgl\version_6.1.2\lvgl\src\lv_objx/lv_cont.c ****         ext->fit_left            = copy_ext->fit_left;
 2146              		.loc 1 105 0
 2147 004e 3046     		mov	r0, r6
 2148 0050 FFF7FEFF 		bl	lv_obj_get_ext_attr
 2149              	.LVL299:
 106:..\..\..\lvgl\version_6.1.2\lvgl\src\lv_objx/lv_cont.c ****         ext->fit_right           = copy_ext->fit_right;
 2150              		.loc 1 106 0
 2151 0054 0378     		ldrb	r3, [r0]	@ zero_extendqisi2
 2152 0056 2278     		ldrb	r2, [r4]	@ zero_extendqisi2
 108:..\..\..\lvgl\version_6.1.2\lvgl\src\lv_objx/lv_cont.c ****         ext->fit_bottom          = copy_ext->fit_bottom;
 2153              		.loc 1 108 0
 2154 0058 6178     		ldrb	r1, [r4, #1]	@ zero_extendqisi2
 106:..\..\..\lvgl\version_6.1.2\lvgl\src\lv_objx/lv_cont.c ****         ext->fit_right           = copy_ext->fit_right;
 2155              		.loc 1 106 0
 2156 005a C3F30113 		ubfx	r3, r3, #4, #2
 2157 005e 63F30512 		bfi	r2, r3, #4, #2
 2158 0062 2270     		strb	r2, [r4]
 107:..\..\..\lvgl\version_6.1.2\lvgl\src\lv_objx/lv_cont.c ****         ext->fit_top             = copy_ext->fit_top;
 2159              		.loc 1 107 0
 2160 0064 0378     		ldrb	r3, [r0]	@ zero_extendqisi2
 2161 0066 D2B2     		uxtb	r2, r2
 2162 0068 9B09     		lsrs	r3, r3, #6
ARM GAS  C:\Users\pearlstl\AppData\Local\Temp\cciL9yyu.s 			page 59


 2163 006a 63F38712 		bfi	r2, r3, #6, #2
 2164 006e 2270     		strb	r2, [r4]
 108:..\..\..\lvgl\version_6.1.2\lvgl\src\lv_objx/lv_cont.c ****         ext->fit_bottom          = copy_ext->fit_bottom;
 2165              		.loc 1 108 0
 2166 0070 4378     		ldrb	r3, [r0, #1]	@ zero_extendqisi2
 2167 0072 63F30101 		bfi	r1, r3, #0, #2
 2168 0076 6170     		strb	r1, [r4, #1]
 109:..\..\..\lvgl\version_6.1.2\lvgl\src\lv_objx/lv_cont.c ****         ext->layout              = copy_ext->layout;
 2169              		.loc 1 109 0
 2170 0078 4378     		ldrb	r3, [r0, #1]	@ zero_extendqisi2
 2171 007a C9B2     		uxtb	r1, r1
 2172 007c C3F38103 		ubfx	r3, r3, #2, #2
 2173 0080 63F38301 		bfi	r1, r3, #2, #2
 2174 0084 6170     		strb	r1, [r4, #1]
 110:..\..\..\lvgl\version_6.1.2\lvgl\src\lv_objx/lv_cont.c **** 
 2175              		.loc 1 110 0
 2176 0086 0378     		ldrb	r3, [r0]	@ zero_extendqisi2
 2177 0088 D2B2     		uxtb	r2, r2
 2178 008a 63F30302 		bfi	r2, r3, #0, #4
 113:..\..\..\lvgl\version_6.1.2\lvgl\src\lv_objx/lv_cont.c ****     }
 2179              		.loc 1 113 0
 2180 008e 2846     		mov	r0, r5
 2181              	.LVL300:
 110:..\..\..\lvgl\version_6.1.2\lvgl\src\lv_objx/lv_cont.c **** 
 2182              		.loc 1 110 0
 2183 0090 2270     		strb	r2, [r4]
 113:..\..\..\lvgl\version_6.1.2\lvgl\src\lv_objx/lv_cont.c ****     }
 2184              		.loc 1 113 0
 2185 0092 FFF7FEFF 		bl	lv_obj_refresh_style
 2186              	.LVL301:
 2187 0096 2846     		mov	r0, r5
 2188 0098 F8BD     		pop	{r3, r4, r5, r6, r7, pc}
 2189              	.LVL302:
 2190              	.L280:
 2191              	.LBE113:
  94:..\..\..\lvgl\version_6.1.2\lvgl\src\lv_objx/lv_cont.c ****             lv_theme_t * th = lv_theme_get_current();
 2192              		.loc 1 94 0
 2193 009a 77B1     		cbz	r7, .L274
 2194              	.LBB114:
  95:..\..\..\lvgl\version_6.1.2\lvgl\src\lv_objx/lv_cont.c ****             if(th) {
 2195              		.loc 1 95 0
 2196 009c FFF7FEFF 		bl	lv_theme_get_current
 2197              	.LVL303:
  96:..\..\..\lvgl\version_6.1.2\lvgl\src\lv_objx/lv_cont.c ****                 lv_cont_set_style(new_cont, LV_CONT_STYLE_MAIN, th->style.cont);
 2198              		.loc 1 96 0
 2199 00a0 68B1     		cbz	r0, .L273
 2200              	.LVL304:
 2201              	.LBB115:
 2202              	.LBB116:
 2203              		.file 3 "..\\..\\..\\lvgl\\version_6.1.2\\lvgl\\src\\lv_objx\\lv_cont.h"
   1:..\..\..\lvgl\version_6.1.2\lvgl\src\lv_objx/lv_cont.h **** /**
   2:..\..\..\lvgl\version_6.1.2\lvgl\src\lv_objx/lv_cont.h ****  * @file lv_cont.h
   3:..\..\..\lvgl\version_6.1.2\lvgl\src\lv_objx/lv_cont.h ****  *
   4:..\..\..\lvgl\version_6.1.2\lvgl\src\lv_objx/lv_cont.h ****  */
   5:..\..\..\lvgl\version_6.1.2\lvgl\src\lv_objx/lv_cont.h **** 
   6:..\..\..\lvgl\version_6.1.2\lvgl\src\lv_objx/lv_cont.h **** #ifndef LV_CONT_H
   7:..\..\..\lvgl\version_6.1.2\lvgl\src\lv_objx/lv_cont.h **** #define LV_CONT_H
ARM GAS  C:\Users\pearlstl\AppData\Local\Temp\cciL9yyu.s 			page 60


   8:..\..\..\lvgl\version_6.1.2\lvgl\src\lv_objx/lv_cont.h **** 
   9:..\..\..\lvgl\version_6.1.2\lvgl\src\lv_objx/lv_cont.h **** #ifdef __cplusplus
  10:..\..\..\lvgl\version_6.1.2\lvgl\src\lv_objx/lv_cont.h **** extern "C" {
  11:..\..\..\lvgl\version_6.1.2\lvgl\src\lv_objx/lv_cont.h **** #endif
  12:..\..\..\lvgl\version_6.1.2\lvgl\src\lv_objx/lv_cont.h **** 
  13:..\..\..\lvgl\version_6.1.2\lvgl\src\lv_objx/lv_cont.h **** /*********************
  14:..\..\..\lvgl\version_6.1.2\lvgl\src\lv_objx/lv_cont.h ****  *      INCLUDES
  15:..\..\..\lvgl\version_6.1.2\lvgl\src\lv_objx/lv_cont.h ****  *********************/
  16:..\..\..\lvgl\version_6.1.2\lvgl\src\lv_objx/lv_cont.h **** #ifdef LV_CONF_INCLUDE_SIMPLE
  17:..\..\..\lvgl\version_6.1.2\lvgl\src\lv_objx/lv_cont.h **** #include "lv_conf.h"
  18:..\..\..\lvgl\version_6.1.2\lvgl\src\lv_objx/lv_cont.h **** #else
  19:..\..\..\lvgl\version_6.1.2\lvgl\src\lv_objx/lv_cont.h **** #include "../../../lv_conf.h"
  20:..\..\..\lvgl\version_6.1.2\lvgl\src\lv_objx/lv_cont.h **** #endif
  21:..\..\..\lvgl\version_6.1.2\lvgl\src\lv_objx/lv_cont.h **** 
  22:..\..\..\lvgl\version_6.1.2\lvgl\src\lv_objx/lv_cont.h **** #if LV_USE_CONT != 0
  23:..\..\..\lvgl\version_6.1.2\lvgl\src\lv_objx/lv_cont.h **** 
  24:..\..\..\lvgl\version_6.1.2\lvgl\src\lv_objx/lv_cont.h **** #include "../lv_core/lv_obj.h"
  25:..\..\..\lvgl\version_6.1.2\lvgl\src\lv_objx/lv_cont.h **** 
  26:..\..\..\lvgl\version_6.1.2\lvgl\src\lv_objx/lv_cont.h **** /*********************
  27:..\..\..\lvgl\version_6.1.2\lvgl\src\lv_objx/lv_cont.h ****  *      DEFINES
  28:..\..\..\lvgl\version_6.1.2\lvgl\src\lv_objx/lv_cont.h ****  *********************/
  29:..\..\..\lvgl\version_6.1.2\lvgl\src\lv_objx/lv_cont.h **** 
  30:..\..\..\lvgl\version_6.1.2\lvgl\src\lv_objx/lv_cont.h **** /**********************
  31:..\..\..\lvgl\version_6.1.2\lvgl\src\lv_objx/lv_cont.h ****  *      TYPEDEFS
  32:..\..\..\lvgl\version_6.1.2\lvgl\src\lv_objx/lv_cont.h ****  **********************/
  33:..\..\..\lvgl\version_6.1.2\lvgl\src\lv_objx/lv_cont.h **** 
  34:..\..\..\lvgl\version_6.1.2\lvgl\src\lv_objx/lv_cont.h **** /** Container layout options*/
  35:..\..\..\lvgl\version_6.1.2\lvgl\src\lv_objx/lv_cont.h **** enum {
  36:..\..\..\lvgl\version_6.1.2\lvgl\src\lv_objx/lv_cont.h ****     LV_LAYOUT_OFF = 0, /**< No layout */
  37:..\..\..\lvgl\version_6.1.2\lvgl\src\lv_objx/lv_cont.h ****     LV_LAYOUT_CENTER, /**< Center objects */
  38:..\..\..\lvgl\version_6.1.2\lvgl\src\lv_objx/lv_cont.h ****     LV_LAYOUT_COL_L,  /**< Column left align*/
  39:..\..\..\lvgl\version_6.1.2\lvgl\src\lv_objx/lv_cont.h ****     LV_LAYOUT_COL_M,  /**< Column middle align*/
  40:..\..\..\lvgl\version_6.1.2\lvgl\src\lv_objx/lv_cont.h ****     LV_LAYOUT_COL_R,  /**< Column right align*/
  41:..\..\..\lvgl\version_6.1.2\lvgl\src\lv_objx/lv_cont.h ****     LV_LAYOUT_ROW_T,  /**< Row top align*/
  42:..\..\..\lvgl\version_6.1.2\lvgl\src\lv_objx/lv_cont.h ****     LV_LAYOUT_ROW_M,  /**< Row middle align*/
  43:..\..\..\lvgl\version_6.1.2\lvgl\src\lv_objx/lv_cont.h ****     LV_LAYOUT_ROW_B,  /**< Row bottom align*/
  44:..\..\..\lvgl\version_6.1.2\lvgl\src\lv_objx/lv_cont.h ****     LV_LAYOUT_PRETTY, /**< Put as many object as possible in row and begin a new row*/
  45:..\..\..\lvgl\version_6.1.2\lvgl\src\lv_objx/lv_cont.h ****     LV_LAYOUT_GRID,   /**< Align same-sized object into a grid*/
  46:..\..\..\lvgl\version_6.1.2\lvgl\src\lv_objx/lv_cont.h ****     _LV_LAYOUT_NUM
  47:..\..\..\lvgl\version_6.1.2\lvgl\src\lv_objx/lv_cont.h **** };
  48:..\..\..\lvgl\version_6.1.2\lvgl\src\lv_objx/lv_cont.h **** typedef uint8_t lv_layout_t;
  49:..\..\..\lvgl\version_6.1.2\lvgl\src\lv_objx/lv_cont.h **** 
  50:..\..\..\lvgl\version_6.1.2\lvgl\src\lv_objx/lv_cont.h **** /**
  51:..\..\..\lvgl\version_6.1.2\lvgl\src\lv_objx/lv_cont.h ****  * How to resize the container around the children.
  52:..\..\..\lvgl\version_6.1.2\lvgl\src\lv_objx/lv_cont.h ****  */
  53:..\..\..\lvgl\version_6.1.2\lvgl\src\lv_objx/lv_cont.h **** enum {
  54:..\..\..\lvgl\version_6.1.2\lvgl\src\lv_objx/lv_cont.h ****     LV_FIT_NONE,  /**< Do not change the size automatically*/
  55:..\..\..\lvgl\version_6.1.2\lvgl\src\lv_objx/lv_cont.h ****     LV_FIT_TIGHT, /**< Shrink wrap around the children */
  56:..\..\..\lvgl\version_6.1.2\lvgl\src\lv_objx/lv_cont.h ****     LV_FIT_FLOOD, /**< Align the size to the parent's edge*/
  57:..\..\..\lvgl\version_6.1.2\lvgl\src\lv_objx/lv_cont.h ****     LV_FIT_FILL,  /**< Align the size to the parent's edge first but if there is an object out of i
  58:..\..\..\lvgl\version_6.1.2\lvgl\src\lv_objx/lv_cont.h ****                      then get larger */
  59:..\..\..\lvgl\version_6.1.2\lvgl\src\lv_objx/lv_cont.h ****     _LV_FIT_NUM
  60:..\..\..\lvgl\version_6.1.2\lvgl\src\lv_objx/lv_cont.h **** };
  61:..\..\..\lvgl\version_6.1.2\lvgl\src\lv_objx/lv_cont.h **** typedef uint8_t lv_fit_t;
  62:..\..\..\lvgl\version_6.1.2\lvgl\src\lv_objx/lv_cont.h **** 
  63:..\..\..\lvgl\version_6.1.2\lvgl\src\lv_objx/lv_cont.h **** typedef struct
  64:..\..\..\lvgl\version_6.1.2\lvgl\src\lv_objx/lv_cont.h **** {
ARM GAS  C:\Users\pearlstl\AppData\Local\Temp\cciL9yyu.s 			page 61


  65:..\..\..\lvgl\version_6.1.2\lvgl\src\lv_objx/lv_cont.h ****     /*Inherited from 'base_obj' so no inherited ext. */ /*Ext. of ancestor*/
  66:..\..\..\lvgl\version_6.1.2\lvgl\src\lv_objx/lv_cont.h ****     /*New data for this type */
  67:..\..\..\lvgl\version_6.1.2\lvgl\src\lv_objx/lv_cont.h ****     uint8_t layout : 4;     /*A layout from 'lv_layout_t' enum*/
  68:..\..\..\lvgl\version_6.1.2\lvgl\src\lv_objx/lv_cont.h ****     uint8_t fit_left : 2;   /*A fit type from `lv_fit_t` enum */
  69:..\..\..\lvgl\version_6.1.2\lvgl\src\lv_objx/lv_cont.h ****     uint8_t fit_right : 2;  /*A fit type from `lv_fit_t` enum */
  70:..\..\..\lvgl\version_6.1.2\lvgl\src\lv_objx/lv_cont.h ****     uint8_t fit_top : 2;    /*A fit type from `lv_fit_t` enum */
  71:..\..\..\lvgl\version_6.1.2\lvgl\src\lv_objx/lv_cont.h ****     uint8_t fit_bottom : 2; /*A fit type from `lv_fit_t` enum */
  72:..\..\..\lvgl\version_6.1.2\lvgl\src\lv_objx/lv_cont.h **** } lv_cont_ext_t;
  73:..\..\..\lvgl\version_6.1.2\lvgl\src\lv_objx/lv_cont.h **** 
  74:..\..\..\lvgl\version_6.1.2\lvgl\src\lv_objx/lv_cont.h **** /*Styles*/
  75:..\..\..\lvgl\version_6.1.2\lvgl\src\lv_objx/lv_cont.h **** enum {
  76:..\..\..\lvgl\version_6.1.2\lvgl\src\lv_objx/lv_cont.h ****     LV_CONT_STYLE_MAIN,
  77:..\..\..\lvgl\version_6.1.2\lvgl\src\lv_objx/lv_cont.h **** };
  78:..\..\..\lvgl\version_6.1.2\lvgl\src\lv_objx/lv_cont.h **** typedef uint8_t lv_cont_style_t;
  79:..\..\..\lvgl\version_6.1.2\lvgl\src\lv_objx/lv_cont.h **** 
  80:..\..\..\lvgl\version_6.1.2\lvgl\src\lv_objx/lv_cont.h **** /**********************
  81:..\..\..\lvgl\version_6.1.2\lvgl\src\lv_objx/lv_cont.h ****  * GLOBAL PROTOTYPES
  82:..\..\..\lvgl\version_6.1.2\lvgl\src\lv_objx/lv_cont.h ****  **********************/
  83:..\..\..\lvgl\version_6.1.2\lvgl\src\lv_objx/lv_cont.h **** 
  84:..\..\..\lvgl\version_6.1.2\lvgl\src\lv_objx/lv_cont.h **** /**
  85:..\..\..\lvgl\version_6.1.2\lvgl\src\lv_objx/lv_cont.h ****  * Create a container objects
  86:..\..\..\lvgl\version_6.1.2\lvgl\src\lv_objx/lv_cont.h ****  * @param par pointer to an object, it will be the parent of the new container
  87:..\..\..\lvgl\version_6.1.2\lvgl\src\lv_objx/lv_cont.h ****  * @param copy pointer to a container object, if not NULL then the new object will be copied from i
  88:..\..\..\lvgl\version_6.1.2\lvgl\src\lv_objx/lv_cont.h ****  * @return pointer to the created container
  89:..\..\..\lvgl\version_6.1.2\lvgl\src\lv_objx/lv_cont.h ****  */
  90:..\..\..\lvgl\version_6.1.2\lvgl\src\lv_objx/lv_cont.h **** lv_obj_t * lv_cont_create(lv_obj_t * par, const lv_obj_t * copy);
  91:..\..\..\lvgl\version_6.1.2\lvgl\src\lv_objx/lv_cont.h **** 
  92:..\..\..\lvgl\version_6.1.2\lvgl\src\lv_objx/lv_cont.h **** /*=====================
  93:..\..\..\lvgl\version_6.1.2\lvgl\src\lv_objx/lv_cont.h ****  * Setter functions
  94:..\..\..\lvgl\version_6.1.2\lvgl\src\lv_objx/lv_cont.h ****  *====================*/
  95:..\..\..\lvgl\version_6.1.2\lvgl\src\lv_objx/lv_cont.h **** 
  96:..\..\..\lvgl\version_6.1.2\lvgl\src\lv_objx/lv_cont.h **** /**
  97:..\..\..\lvgl\version_6.1.2\lvgl\src\lv_objx/lv_cont.h ****  * Set a layout on a container
  98:..\..\..\lvgl\version_6.1.2\lvgl\src\lv_objx/lv_cont.h ****  * @param cont pointer to a container object
  99:..\..\..\lvgl\version_6.1.2\lvgl\src\lv_objx/lv_cont.h ****  * @param layout a layout from 'lv_cont_layout_t'
 100:..\..\..\lvgl\version_6.1.2\lvgl\src\lv_objx/lv_cont.h ****  */
 101:..\..\..\lvgl\version_6.1.2\lvgl\src\lv_objx/lv_cont.h **** void lv_cont_set_layout(lv_obj_t * cont, lv_layout_t layout);
 102:..\..\..\lvgl\version_6.1.2\lvgl\src\lv_objx/lv_cont.h **** 
 103:..\..\..\lvgl\version_6.1.2\lvgl\src\lv_objx/lv_cont.h **** /**
 104:..\..\..\lvgl\version_6.1.2\lvgl\src\lv_objx/lv_cont.h ****  * Set the fit policy in all 4 directions separately.
 105:..\..\..\lvgl\version_6.1.2\lvgl\src\lv_objx/lv_cont.h ****  * It tell how to change the container's size automatically.
 106:..\..\..\lvgl\version_6.1.2\lvgl\src\lv_objx/lv_cont.h ****  * @param cont pointer to a container object
 107:..\..\..\lvgl\version_6.1.2\lvgl\src\lv_objx/lv_cont.h ****  * @param left left fit policy from `lv_fit_t`
 108:..\..\..\lvgl\version_6.1.2\lvgl\src\lv_objx/lv_cont.h ****  * @param right right fit policy from `lv_fit_t`
 109:..\..\..\lvgl\version_6.1.2\lvgl\src\lv_objx/lv_cont.h ****  * @param top top fit policy from `lv_fit_t`
 110:..\..\..\lvgl\version_6.1.2\lvgl\src\lv_objx/lv_cont.h ****  * @param bottom bottom fit policy from `lv_fit_t`
 111:..\..\..\lvgl\version_6.1.2\lvgl\src\lv_objx/lv_cont.h ****  */
 112:..\..\..\lvgl\version_6.1.2\lvgl\src\lv_objx/lv_cont.h **** void lv_cont_set_fit4(lv_obj_t * cont, lv_fit_t left, lv_fit_t right, lv_fit_t top, lv_fit_t bottom
 113:..\..\..\lvgl\version_6.1.2\lvgl\src\lv_objx/lv_cont.h **** 
 114:..\..\..\lvgl\version_6.1.2\lvgl\src\lv_objx/lv_cont.h **** /**
 115:..\..\..\lvgl\version_6.1.2\lvgl\src\lv_objx/lv_cont.h ****  * Set the fit policy horizontally and vertically separately.
 116:..\..\..\lvgl\version_6.1.2\lvgl\src\lv_objx/lv_cont.h ****  * It tells how to change the container's size automatically.
 117:..\..\..\lvgl\version_6.1.2\lvgl\src\lv_objx/lv_cont.h ****  * @param cont pointer to a container object
 118:..\..\..\lvgl\version_6.1.2\lvgl\src\lv_objx/lv_cont.h ****  * @param hor horizontal fit policy from `lv_fit_t`
 119:..\..\..\lvgl\version_6.1.2\lvgl\src\lv_objx/lv_cont.h ****  * @param ver vertical fit policy from `lv_fit_t`
 120:..\..\..\lvgl\version_6.1.2\lvgl\src\lv_objx/lv_cont.h ****  */
 121:..\..\..\lvgl\version_6.1.2\lvgl\src\lv_objx/lv_cont.h **** static inline void lv_cont_set_fit2(lv_obj_t * cont, lv_fit_t hor, lv_fit_t ver)
ARM GAS  C:\Users\pearlstl\AppData\Local\Temp\cciL9yyu.s 			page 62


 122:..\..\..\lvgl\version_6.1.2\lvgl\src\lv_objx/lv_cont.h **** {
 123:..\..\..\lvgl\version_6.1.2\lvgl\src\lv_objx/lv_cont.h ****     lv_cont_set_fit4(cont, hor, hor, ver, ver);
 124:..\..\..\lvgl\version_6.1.2\lvgl\src\lv_objx/lv_cont.h **** }
 125:..\..\..\lvgl\version_6.1.2\lvgl\src\lv_objx/lv_cont.h **** 
 126:..\..\..\lvgl\version_6.1.2\lvgl\src\lv_objx/lv_cont.h **** /**
 127:..\..\..\lvgl\version_6.1.2\lvgl\src\lv_objx/lv_cont.h ****  * Set the fit policy in all 4 direction at once.
 128:..\..\..\lvgl\version_6.1.2\lvgl\src\lv_objx/lv_cont.h ****  * It tells how to change the container's size automatically.
 129:..\..\..\lvgl\version_6.1.2\lvgl\src\lv_objx/lv_cont.h ****  * @param cont pointer to a container object
 130:..\..\..\lvgl\version_6.1.2\lvgl\src\lv_objx/lv_cont.h ****  * @param fit fit policy from `lv_fit_t`
 131:..\..\..\lvgl\version_6.1.2\lvgl\src\lv_objx/lv_cont.h ****  */
 132:..\..\..\lvgl\version_6.1.2\lvgl\src\lv_objx/lv_cont.h **** static inline void lv_cont_set_fit(lv_obj_t * cont, lv_fit_t fit)
 133:..\..\..\lvgl\version_6.1.2\lvgl\src\lv_objx/lv_cont.h **** {
 134:..\..\..\lvgl\version_6.1.2\lvgl\src\lv_objx/lv_cont.h ****     lv_cont_set_fit4(cont, fit, fit, fit, fit);
 135:..\..\..\lvgl\version_6.1.2\lvgl\src\lv_objx/lv_cont.h **** }
 136:..\..\..\lvgl\version_6.1.2\lvgl\src\lv_objx/lv_cont.h **** 
 137:..\..\..\lvgl\version_6.1.2\lvgl\src\lv_objx/lv_cont.h **** /**
 138:..\..\..\lvgl\version_6.1.2\lvgl\src\lv_objx/lv_cont.h ****  * Set the style of a container
 139:..\..\..\lvgl\version_6.1.2\lvgl\src\lv_objx/lv_cont.h ****  * @param cont pointer to a container object
 140:..\..\..\lvgl\version_6.1.2\lvgl\src\lv_objx/lv_cont.h ****  * @param type which style should be set (can be only `LV_CONT_STYLE_MAIN`)
 141:..\..\..\lvgl\version_6.1.2\lvgl\src\lv_objx/lv_cont.h ****  * @param style pointer to the new style
 142:..\..\..\lvgl\version_6.1.2\lvgl\src\lv_objx/lv_cont.h ****  */
 143:..\..\..\lvgl\version_6.1.2\lvgl\src\lv_objx/lv_cont.h **** static inline void lv_cont_set_style(lv_obj_t * cont, lv_cont_style_t type, const lv_style_t * styl
 144:..\..\..\lvgl\version_6.1.2\lvgl\src\lv_objx/lv_cont.h **** {
 145:..\..\..\lvgl\version_6.1.2\lvgl\src\lv_objx/lv_cont.h ****     (void)type; /*Unused*/
 146:..\..\..\lvgl\version_6.1.2\lvgl\src\lv_objx/lv_cont.h ****     lv_obj_set_style(cont, style);
 2204              		.loc 3 146 0
 2205 00a2 C168     		ldr	r1, [r0, #12]
 2206 00a4 2846     		mov	r0, r5
 2207              	.LVL305:
 2208 00a6 FFF7FEFF 		bl	lv_obj_set_style
 2209              	.LVL306:
 2210 00aa 2846     		mov	r0, r5
 2211 00ac F8BD     		pop	{r3, r4, r5, r6, r7, pc}
 2212              	.LVL307:
 2213              	.L279:
 2214              	.LBE116:
 2215              	.LBE115:
 2216              	.LBE114:
  76:..\..\..\lvgl\version_6.1.2\lvgl\src\lv_objx/lv_cont.c **** 
 2217              		.loc 1 76 0 discriminator 1
 2218 00ae FFF7FEFF 		bl	lv_obj_get_signal_cb
 2219              	.LVL308:
 2220 00b2 2060     		str	r0, [r4]
 2221 00b4 B0E7     		b	.L270
 2222              	.LVL309:
 2223              	.L271:
  74:..\..\..\lvgl\version_6.1.2\lvgl\src\lv_objx/lv_cont.c **** 
 2224              		.loc 1 74 0
 2225 00b6 0020     		movs	r0, #0
 2226 00b8 F8BD     		pop	{r3, r4, r5, r6, r7, pc}
 2227              	.LVL310:
 2228              	.L274:
 2229              	.LBB119:
 2230 00ba 2846     		mov	r0, r5
 2231              	.LBE119:
 119:..\..\..\lvgl\version_6.1.2\lvgl\src\lv_objx/lv_cont.c **** 
 2232              		.loc 1 119 0
ARM GAS  C:\Users\pearlstl\AppData\Local\Temp\cciL9yyu.s 			page 63


 2233 00bc F8BD     		pop	{r3, r4, r5, r6, r7, pc}
 2234              	.LVL311:
 2235              	.L273:
 2236              	.LBB120:
 2237              	.LBB117:
 2238              	.LBB118:
 2239              		.loc 3 146 0
 2240 00be 2846     		mov	r0, r5
 2241              	.LVL312:
 2242 00c0 0449     		ldr	r1, .L281+8
 2243 00c2 FFF7FEFF 		bl	lv_obj_set_style
 2244              	.LVL313:
 2245 00c6 2846     		mov	r0, r5
 2246 00c8 F8BD     		pop	{r3, r4, r5, r6, r7, pc}
 2247              	.LVL314:
 2248              	.L282:
 2249 00ca 00BF     		.align	2
 2250              	.L281:
 2251 00cc 00000000 		.word	.LANCHOR0
 2252 00d0 00000000 		.word	lv_cont_signal
 2253 00d4 00000000 		.word	lv_style_pretty
 2254              	.LBE118:
 2255              	.LBE117:
 2256              	.LBE120:
 2257              		.cfi_endproc
 2258              	.LFE35:
 2259              		.size	lv_cont_create, .-lv_cont_create
 2260              		.section	.text.lv_cont_set_layout,"ax",%progbits
 2261              		.align	2
 2262              		.global	lv_cont_set_layout
 2263              		.thumb
 2264              		.thumb_func
 2265              		.type	lv_cont_set_layout, %function
 2266              	lv_cont_set_layout:
 2267              	.LFB36:
 131:..\..\..\lvgl\version_6.1.2\lvgl\src\lv_objx/lv_cont.c ****     LV_ASSERT_OBJ(cont, LV_OBJX_NAME);
 2268              		.loc 1 131 0
 2269              		.cfi_startproc
 2270              		@ args = 0, pretend = 0, frame = 0
 2271              		@ frame_needed = 0, uses_anonymous_args = 0
 2272              	.LVL315:
 2273 0000 70B5     		push	{r4, r5, r6, lr}
 2274              		.cfi_def_cfa_offset 16
 2275              		.cfi_offset 4, -16
 2276              		.cfi_offset 5, -12
 2277              		.cfi_offset 6, -8
 2278              		.cfi_offset 14, -4
 131:..\..\..\lvgl\version_6.1.2\lvgl\src\lv_objx/lv_cont.c ****     LV_ASSERT_OBJ(cont, LV_OBJX_NAME);
 2279              		.loc 1 131 0
 2280 0002 0C46     		mov	r4, r1
 2281 0004 0546     		mov	r5, r0
 134:..\..\..\lvgl\version_6.1.2\lvgl\src\lv_objx/lv_cont.c ****     if(ext->layout == layout) return;
 2282              		.loc 1 134 0
 2283 0006 FFF7FEFF 		bl	lv_obj_get_ext_attr
 2284              	.LVL316:
 135:..\..\..\lvgl\version_6.1.2\lvgl\src\lv_objx/lv_cont.c **** 
 2285              		.loc 1 135 0
ARM GAS  C:\Users\pearlstl\AppData\Local\Temp\cciL9yyu.s 			page 64


 2286 000a 0378     		ldrb	r3, [r0]	@ zero_extendqisi2
 2287 000c 03F00F02 		and	r2, r3, #15
 2288 0010 A242     		cmp	r2, r4
 2289 0012 09D0     		beq	.L283
 137:..\..\..\lvgl\version_6.1.2\lvgl\src\lv_objx/lv_cont.c **** 
 2290              		.loc 1 137 0
 2291 0014 64F30303 		bfi	r3, r4, #0, #4
 2292 0018 0370     		strb	r3, [r0]
 140:..\..\..\lvgl\version_6.1.2\lvgl\src\lv_objx/lv_cont.c **** }
 2293              		.loc 1 140 0
 2294 001a 0022     		movs	r2, #0
 2295 001c EB69     		ldr	r3, [r5, #28]
 2296 001e 2846     		mov	r0, r5
 2297              	.LVL317:
 2298 0020 0121     		movs	r1, #1
 141:..\..\..\lvgl\version_6.1.2\lvgl\src\lv_objx/lv_cont.c **** 
 2299              		.loc 1 141 0
 2300 0022 BDE87040 		pop	{r4, r5, r6, lr}
 2301              		.cfi_remember_state
 2302              		.cfi_restore 14
 2303              		.cfi_restore 6
 2304              		.cfi_restore 5
 2305              		.cfi_restore 4
 2306              		.cfi_def_cfa_offset 0
 2307              	.LVL318:
 140:..\..\..\lvgl\version_6.1.2\lvgl\src\lv_objx/lv_cont.c **** }
 2308              		.loc 1 140 0
 2309 0026 1847     		bx	r3
 2310              	.LVL319:
 2311              	.L283:
 2312              		.cfi_restore_state
 2313 0028 70BD     		pop	{r4, r5, r6, pc}
 2314              		.cfi_endproc
 2315              	.LFE36:
 2316              		.size	lv_cont_set_layout, .-lv_cont_set_layout
 2317 002a 00BF     		.section	.text.lv_cont_set_fit4,"ax",%progbits
 2318              		.align	2
 2319              		.global	lv_cont_set_fit4
 2320              		.thumb
 2321              		.thumb_func
 2322              		.type	lv_cont_set_fit4, %function
 2323              	lv_cont_set_fit4:
 2324              	.LFB37:
 153:..\..\..\lvgl\version_6.1.2\lvgl\src\lv_objx/lv_cont.c ****     LV_ASSERT_OBJ(cont, LV_OBJX_NAME);
 2325              		.loc 1 153 0
 2326              		.cfi_startproc
 2327              		@ args = 4, pretend = 0, frame = 0
 2328              		@ frame_needed = 0, uses_anonymous_args = 0
 2329              	.LVL320:
 2330 0000 2DE9F047 		push	{r4, r5, r6, r7, r8, r9, r10, lr}
 2331              		.cfi_def_cfa_offset 32
 2332              		.cfi_offset 4, -32
 2333              		.cfi_offset 5, -28
 2334              		.cfi_offset 6, -24
 2335              		.cfi_offset 7, -20
 2336              		.cfi_offset 8, -16
 2337              		.cfi_offset 9, -12
ARM GAS  C:\Users\pearlstl\AppData\Local\Temp\cciL9yyu.s 			page 65


 2338              		.cfi_offset 10, -8
 2339              		.cfi_offset 14, -4
 153:..\..\..\lvgl\version_6.1.2\lvgl\src\lv_objx/lv_cont.c ****     LV_ASSERT_OBJ(cont, LV_OBJX_NAME);
 2340              		.loc 1 153 0
 2341 0004 0646     		mov	r6, r0
 2342 0006 0F46     		mov	r7, r1
 2343 0008 9946     		mov	r9, r3
 2344 000a 9046     		mov	r8, r2
 2345 000c 9DF820A0 		ldrb	r10, [sp, #32]	@ zero_extendqisi2
 156:..\..\..\lvgl\version_6.1.2\lvgl\src\lv_objx/lv_cont.c ****     lv_cont_ext_t * ext = lv_obj_get_ext_attr(cont);
 2346              		.loc 1 156 0
 2347 0010 FFF7FEFF 		bl	lv_obj_invalidate
 2348              	.LVL321:
 157:..\..\..\lvgl\version_6.1.2\lvgl\src\lv_objx/lv_cont.c ****     if(ext->fit_left == left && ext->fit_right == right && ext->fit_top == top && ext->fit_bottom =
 2349              		.loc 1 157 0
 2350 0014 3046     		mov	r0, r6
 2351 0016 FFF7FEFF 		bl	lv_obj_get_ext_attr
 2352              	.LVL322:
 158:..\..\..\lvgl\version_6.1.2\lvgl\src\lv_objx/lv_cont.c ****         return;
 2353              		.loc 1 158 0
 2354 001a 0178     		ldrb	r1, [r0]	@ zero_extendqisi2
 2355 001c C1F30113 		ubfx	r3, r1, #4, #2
 2356 0020 BB42     		cmp	r3, r7
 2357 0022 14D0     		beq	.L290
 2358              	.L287:
 162:..\..\..\lvgl\version_6.1.2\lvgl\src\lv_objx/lv_cont.c ****     ext->fit_right  = right;
 2359              		.loc 1 162 0
 2360 0024 0578     		ldrb	r5, [r0]	@ zero_extendqisi2
 164:..\..\..\lvgl\version_6.1.2\lvgl\src\lv_objx/lv_cont.c ****     ext->fit_bottom = bottom;
 2361              		.loc 1 164 0
 2362 0026 4478     		ldrb	r4, [r0, #1]	@ zero_extendqisi2
 162:..\..\..\lvgl\version_6.1.2\lvgl\src\lv_objx/lv_cont.c ****     ext->fit_right  = right;
 2363              		.loc 1 162 0
 2364 0028 67F30515 		bfi	r5, r7, #4, #2
 164:..\..\..\lvgl\version_6.1.2\lvgl\src\lv_objx/lv_cont.c ****     ext->fit_bottom = bottom;
 2365              		.loc 1 164 0
 2366 002c 69F30104 		bfi	r4, r9, #0, #2
 163:..\..\..\lvgl\version_6.1.2\lvgl\src\lv_objx/lv_cont.c ****     ext->fit_top    = top;
 2367              		.loc 1 163 0
 2368 0030 2946     		mov	r1, r5
 165:..\..\..\lvgl\version_6.1.2\lvgl\src\lv_objx/lv_cont.c **** 
 2369              		.loc 1 165 0
 2370 0032 2346     		mov	r3, r4
 163:..\..\..\lvgl\version_6.1.2\lvgl\src\lv_objx/lv_cont.c ****     ext->fit_top    = top;
 2371              		.loc 1 163 0
 2372 0034 68F38711 		bfi	r1, r8, #6, #2
 165:..\..\..\lvgl\version_6.1.2\lvgl\src\lv_objx/lv_cont.c **** 
 2373              		.loc 1 165 0
 2374 0038 6AF38303 		bfi	r3, r10, #2, #2
 163:..\..\..\lvgl\version_6.1.2\lvgl\src\lv_objx/lv_cont.c ****     ext->fit_top    = top;
 2375              		.loc 1 163 0
 2376 003c 0170     		strb	r1, [r0]
 165:..\..\..\lvgl\version_6.1.2\lvgl\src\lv_objx/lv_cont.c **** 
 2377              		.loc 1 165 0
 2378 003e 4370     		strb	r3, [r0, #1]
 168:..\..\..\lvgl\version_6.1.2\lvgl\src\lv_objx/lv_cont.c **** }
 2379              		.loc 1 168 0
ARM GAS  C:\Users\pearlstl\AppData\Local\Temp\cciL9yyu.s 			page 66


 2380 0040 0022     		movs	r2, #0
 2381 0042 F369     		ldr	r3, [r6, #28]
 2382 0044 3046     		mov	r0, r6
 2383              	.LVL323:
 2384 0046 0121     		movs	r1, #1
 169:..\..\..\lvgl\version_6.1.2\lvgl\src\lv_objx/lv_cont.c **** 
 2385              		.loc 1 169 0
 2386 0048 BDE8F047 		pop	{r4, r5, r6, r7, r8, r9, r10, lr}
 2387              		.cfi_remember_state
 2388              		.cfi_restore 14
 2389              		.cfi_restore 10
 2390              		.cfi_restore 9
 2391              		.cfi_restore 8
 2392              		.cfi_restore 7
 2393              		.cfi_restore 6
 2394              		.cfi_restore 5
 2395              		.cfi_restore 4
 2396              		.cfi_def_cfa_offset 0
 2397              	.LVL324:
 168:..\..\..\lvgl\version_6.1.2\lvgl\src\lv_objx/lv_cont.c **** }
 2398              		.loc 1 168 0
 2399 004c 1847     		bx	r3
 2400              	.LVL325:
 2401              	.L290:
 2402              		.cfi_restore_state
 158:..\..\..\lvgl\version_6.1.2\lvgl\src\lv_objx/lv_cont.c ****         return;
 2403              		.loc 1 158 0 discriminator 1
 2404 004e B8EB911F 		cmp	r8, r1, lsr #6
 2405 0052 E7D1     		bne	.L287
 158:..\..\..\lvgl\version_6.1.2\lvgl\src\lv_objx/lv_cont.c ****         return;
 2406              		.loc 1 158 0 is_stmt 0 discriminator 2
 2407 0054 4378     		ldrb	r3, [r0, #1]	@ zero_extendqisi2
 2408 0056 03F00302 		and	r2, r3, #3
 2409 005a 4A45     		cmp	r2, r9
 2410 005c E2D1     		bne	.L287
 158:..\..\..\lvgl\version_6.1.2\lvgl\src\lv_objx/lv_cont.c ****         return;
 2411              		.loc 1 158 0 discriminator 3
 2412 005e C3F38103 		ubfx	r3, r3, #2, #2
 2413 0062 5345     		cmp	r3, r10
 2414 0064 DED1     		bne	.L287
 2415 0066 BDE8F087 		pop	{r4, r5, r6, r7, r8, r9, r10, pc}
 2416              		.cfi_endproc
 2417              	.LFE37:
 2418              		.size	lv_cont_set_fit4, .-lv_cont_set_fit4
 2419 006a 00BF     		.section	.text.lv_cont_get_layout,"ax",%progbits
 2420              		.align	2
 2421              		.global	lv_cont_get_layout
 2422              		.thumb
 2423              		.thumb_func
 2424              		.type	lv_cont_get_layout, %function
 2425              	lv_cont_get_layout:
 2426              	.LFB38:
 181:..\..\..\lvgl\version_6.1.2\lvgl\src\lv_objx/lv_cont.c ****     LV_ASSERT_OBJ(cont, LV_OBJX_NAME);
 2427              		.loc 1 181 0 is_stmt 1
 2428              		.cfi_startproc
 2429              		@ args = 0, pretend = 0, frame = 0
 2430              		@ frame_needed = 0, uses_anonymous_args = 0
ARM GAS  C:\Users\pearlstl\AppData\Local\Temp\cciL9yyu.s 			page 67


 2431              	.LVL326:
 2432 0000 08B5     		push	{r3, lr}
 2433              		.cfi_def_cfa_offset 8
 2434              		.cfi_offset 3, -8
 2435              		.cfi_offset 14, -4
 184:..\..\..\lvgl\version_6.1.2\lvgl\src\lv_objx/lv_cont.c ****     return ext->layout;
 2436              		.loc 1 184 0
 2437 0002 FFF7FEFF 		bl	lv_obj_get_ext_attr
 2438              	.LVL327:
 185:..\..\..\lvgl\version_6.1.2\lvgl\src\lv_objx/lv_cont.c **** }
 2439              		.loc 1 185 0
 2440 0006 0078     		ldrb	r0, [r0]	@ zero_extendqisi2
 2441              	.LVL328:
 186:..\..\..\lvgl\version_6.1.2\lvgl\src\lv_objx/lv_cont.c **** 
 2442              		.loc 1 186 0
 2443 0008 00F00F00 		and	r0, r0, #15
 2444 000c 08BD     		pop	{r3, pc}
 2445              		.cfi_endproc
 2446              	.LFE38:
 2447              		.size	lv_cont_get_layout, .-lv_cont_get_layout
 2448 000e 00BF     		.section	.text.lv_cont_get_fit_left,"ax",%progbits
 2449              		.align	2
 2450              		.global	lv_cont_get_fit_left
 2451              		.thumb
 2452              		.thumb_func
 2453              		.type	lv_cont_get_fit_left, %function
 2454              	lv_cont_get_fit_left:
 2455              	.LFB39:
 194:..\..\..\lvgl\version_6.1.2\lvgl\src\lv_objx/lv_cont.c ****     LV_ASSERT_OBJ(cont, LV_OBJX_NAME);
 2456              		.loc 1 194 0
 2457              		.cfi_startproc
 2458              		@ args = 0, pretend = 0, frame = 0
 2459              		@ frame_needed = 0, uses_anonymous_args = 0
 2460              	.LVL329:
 2461 0000 08B5     		push	{r3, lr}
 2462              		.cfi_def_cfa_offset 8
 2463              		.cfi_offset 3, -8
 2464              		.cfi_offset 14, -4
 197:..\..\..\lvgl\version_6.1.2\lvgl\src\lv_objx/lv_cont.c ****     return ext->fit_left;
 2465              		.loc 1 197 0
 2466 0002 FFF7FEFF 		bl	lv_obj_get_ext_attr
 2467              	.LVL330:
 198:..\..\..\lvgl\version_6.1.2\lvgl\src\lv_objx/lv_cont.c **** }
 2468              		.loc 1 198 0
 2469 0006 0078     		ldrb	r0, [r0]	@ zero_extendqisi2
 2470              	.LVL331:
 199:..\..\..\lvgl\version_6.1.2\lvgl\src\lv_objx/lv_cont.c **** 
 2471              		.loc 1 199 0
 2472 0008 C0F30110 		ubfx	r0, r0, #4, #2
 2473 000c 08BD     		pop	{r3, pc}
 2474              		.cfi_endproc
 2475              	.LFE39:
 2476              		.size	lv_cont_get_fit_left, .-lv_cont_get_fit_left
 2477 000e 00BF     		.section	.text.lv_cont_get_fit_right,"ax",%progbits
 2478              		.align	2
 2479              		.global	lv_cont_get_fit_right
 2480              		.thumb
ARM GAS  C:\Users\pearlstl\AppData\Local\Temp\cciL9yyu.s 			page 68


 2481              		.thumb_func
 2482              		.type	lv_cont_get_fit_right, %function
 2483              	lv_cont_get_fit_right:
 2484              	.LFB40:
 207:..\..\..\lvgl\version_6.1.2\lvgl\src\lv_objx/lv_cont.c ****     LV_ASSERT_OBJ(cont, LV_OBJX_NAME);
 2485              		.loc 1 207 0
 2486              		.cfi_startproc
 2487              		@ args = 0, pretend = 0, frame = 0
 2488              		@ frame_needed = 0, uses_anonymous_args = 0
 2489              	.LVL332:
 2490 0000 08B5     		push	{r3, lr}
 2491              		.cfi_def_cfa_offset 8
 2492              		.cfi_offset 3, -8
 2493              		.cfi_offset 14, -4
 210:..\..\..\lvgl\version_6.1.2\lvgl\src\lv_objx/lv_cont.c ****     return ext->fit_right;
 2494              		.loc 1 210 0
 2495 0002 FFF7FEFF 		bl	lv_obj_get_ext_attr
 2496              	.LVL333:
 211:..\..\..\lvgl\version_6.1.2\lvgl\src\lv_objx/lv_cont.c **** }
 2497              		.loc 1 211 0
 2498 0006 0078     		ldrb	r0, [r0]	@ zero_extendqisi2
 2499              	.LVL334:
 212:..\..\..\lvgl\version_6.1.2\lvgl\src\lv_objx/lv_cont.c **** 
 2500              		.loc 1 212 0
 2501 0008 8009     		lsrs	r0, r0, #6
 2502 000a 08BD     		pop	{r3, pc}
 2503              		.cfi_endproc
 2504              	.LFE40:
 2505              		.size	lv_cont_get_fit_right, .-lv_cont_get_fit_right
 2506              		.section	.text.lv_cont_get_fit_top,"ax",%progbits
 2507              		.align	2
 2508              		.global	lv_cont_get_fit_top
 2509              		.thumb
 2510              		.thumb_func
 2511              		.type	lv_cont_get_fit_top, %function
 2512              	lv_cont_get_fit_top:
 2513              	.LFB41:
 220:..\..\..\lvgl\version_6.1.2\lvgl\src\lv_objx/lv_cont.c ****     LV_ASSERT_OBJ(cont, LV_OBJX_NAME);
 2514              		.loc 1 220 0
 2515              		.cfi_startproc
 2516              		@ args = 0, pretend = 0, frame = 0
 2517              		@ frame_needed = 0, uses_anonymous_args = 0
 2518              	.LVL335:
 2519 0000 08B5     		push	{r3, lr}
 2520              		.cfi_def_cfa_offset 8
 2521              		.cfi_offset 3, -8
 2522              		.cfi_offset 14, -4
 223:..\..\..\lvgl\version_6.1.2\lvgl\src\lv_objx/lv_cont.c ****     return ext->fit_top;
 2523              		.loc 1 223 0
 2524 0002 FFF7FEFF 		bl	lv_obj_get_ext_attr
 2525              	.LVL336:
 224:..\..\..\lvgl\version_6.1.2\lvgl\src\lv_objx/lv_cont.c **** }
 2526              		.loc 1 224 0
 2527 0006 4078     		ldrb	r0, [r0, #1]	@ zero_extendqisi2
 2528              	.LVL337:
 225:..\..\..\lvgl\version_6.1.2\lvgl\src\lv_objx/lv_cont.c **** 
 2529              		.loc 1 225 0
ARM GAS  C:\Users\pearlstl\AppData\Local\Temp\cciL9yyu.s 			page 69


 2530 0008 00F00300 		and	r0, r0, #3
 2531 000c 08BD     		pop	{r3, pc}
 2532              		.cfi_endproc
 2533              	.LFE41:
 2534              		.size	lv_cont_get_fit_top, .-lv_cont_get_fit_top
 2535 000e 00BF     		.section	.text.lv_cont_get_fit_bottom,"ax",%progbits
 2536              		.align	2
 2537              		.global	lv_cont_get_fit_bottom
 2538              		.thumb
 2539              		.thumb_func
 2540              		.type	lv_cont_get_fit_bottom, %function
 2541              	lv_cont_get_fit_bottom:
 2542              	.LFB42:
 233:..\..\..\lvgl\version_6.1.2\lvgl\src\lv_objx/lv_cont.c ****     LV_ASSERT_OBJ(cont, LV_OBJX_NAME);
 2543              		.loc 1 233 0
 2544              		.cfi_startproc
 2545              		@ args = 0, pretend = 0, frame = 0
 2546              		@ frame_needed = 0, uses_anonymous_args = 0
 2547              	.LVL338:
 2548 0000 08B5     		push	{r3, lr}
 2549              		.cfi_def_cfa_offset 8
 2550              		.cfi_offset 3, -8
 2551              		.cfi_offset 14, -4
 236:..\..\..\lvgl\version_6.1.2\lvgl\src\lv_objx/lv_cont.c ****     return ext->fit_bottom;
 2552              		.loc 1 236 0
 2553 0002 FFF7FEFF 		bl	lv_obj_get_ext_attr
 2554              	.LVL339:
 237:..\..\..\lvgl\version_6.1.2\lvgl\src\lv_objx/lv_cont.c **** }
 2555              		.loc 1 237 0
 2556 0006 4078     		ldrb	r0, [r0, #1]	@ zero_extendqisi2
 2557              	.LVL340:
 238:..\..\..\lvgl\version_6.1.2\lvgl\src\lv_objx/lv_cont.c **** 
 2558              		.loc 1 238 0
 2559 0008 C0F38100 		ubfx	r0, r0, #2, #2
 2560 000c 08BD     		pop	{r3, pc}
 2561              		.cfi_endproc
 2562              	.LFE42:
 2563              		.size	lv_cont_get_fit_bottom, .-lv_cont_get_fit_bottom
 2564 000e 00BF     		.section	.rodata.str1.4,"aMS",%progbits,1
 2565              		.align	2
 2566              	.LC0:
 2567 0000 6C765F63 		.ascii	"lv_cont\000"
 2567      6F6E7400 
 2568              		.bss
 2569              		.align	2
 2570              		.set	.LANCHOR0,. + 0
 2571              		.type	ancestor_signal, %object
 2572              		.size	ancestor_signal, 4
 2573              	ancestor_signal:
 2574 0000 00000000 		.space	4
 2575              		.text
 2576              	.Letext0:
 2577              		.file 4 "c:\\program files (x86)\\cypress\\psoc creator\\4.2\\psoc creator\\import\\gnu\\arm\\5.4.
 2578              		.file 5 "c:\\program files (x86)\\cypress\\psoc creator\\4.2\\psoc creator\\import\\gnu\\arm\\5.4.
 2579              		.file 6 "..\\..\\..\\lvgl\\version_6.1.2\\lvgl\\src\\lv_objx\\../../../lv_conf.h"
 2580              		.file 7 "..\\..\\..\\lvgl\\version_6.1.2\\lvgl\\src\\lv_objx\\../lv_core/../lv_font/lv_font.h"
 2581              		.file 8 "..\\..\\..\\lvgl\\version_6.1.2\\lvgl\\src\\lv_objx\\../lv_core/../lv_misc/lv_color.h"
ARM GAS  C:\Users\pearlstl\AppData\Local\Temp\cciL9yyu.s 			page 70


 2582              		.file 9 "..\\..\\..\\lvgl\\version_6.1.2\\lvgl\\src\\lv_objx\\../lv_core/lv_style.h"
 2583              		.file 10 "..\\..\\..\\lvgl\\version_6.1.2\\lvgl\\src\\lv_objx\\../lv_core/../lv_misc/lv_types.h"
 2584              		.file 11 "..\\..\\..\\lvgl\\version_6.1.2\\lvgl\\src\\lv_objx\\../lv_core/../lv_misc/lv_ll.h"
 2585              		.file 12 "..\\..\\..\\lvgl\\version_6.1.2\\lvgl\\src\\lv_objx\\../lv_core/../lv_misc/lv_bidi.h"
 2586              		.file 13 "..\\..\\..\\lvgl\\version_6.1.2\\lvgl\\src\\lv_objx\\../lv_core/lv_obj.h"
 2587              		.file 14 "..\\..\\..\\lvgl\\version_6.1.2\\lvgl\\src\\lv_objx\\../lv_themes/lv_theme.h"