ARM GAS  C:\Users\pearlstl\AppData\Local\Temp\ccEDNCxX.s 			page 1


   1              		.syntax unified
   2              		.cpu cortex-m4
   3              		.eabi_attribute 27, 1
   4              		.fpu fpv4-sp-d16
   5              		.eabi_attribute 20, 1
   6              		.eabi_attribute 21, 1
   7              		.eabi_attribute 23, 3
   8              		.eabi_attribute 24, 1
   9              		.eabi_attribute 25, 1
  10              		.eabi_attribute 26, 1
  11              		.eabi_attribute 30, 2
  12              		.eabi_attribute 34, 1
  13              		.eabi_attribute 18, 4
  14              		.thumb
  15              		.syntax unified
  16              		.file	"lv_cb.c"
  17              		.text
  18              	.Ltext0:
  19              		.cfi_sections	.debug_frame
  20              		.section	.text.lv_cb_signal,"ax",%progbits
  21              		.align	2
  22              		.thumb
  23              		.thumb_func
  24              		.type	lv_cb_signal, %function
  25              	lv_cb_signal:
  26              	.LFB58:
  27              		.file 1 "..\\..\\..\\lvgl\\version_6.1.2\\lvgl\\src\\lv_objx\\lv_cb.c"
   1:..\..\..\lvgl\version_6.1.2\lvgl\src\lv_objx/lv_cb.c **** /**
   2:..\..\..\lvgl\version_6.1.2\lvgl\src\lv_objx/lv_cb.c ****  * @file lv_cb.c
   3:..\..\..\lvgl\version_6.1.2\lvgl\src\lv_objx/lv_cb.c ****  *
   4:..\..\..\lvgl\version_6.1.2\lvgl\src\lv_objx/lv_cb.c ****  */
   5:..\..\..\lvgl\version_6.1.2\lvgl\src\lv_objx/lv_cb.c **** 
   6:..\..\..\lvgl\version_6.1.2\lvgl\src\lv_objx/lv_cb.c **** /*********************
   7:..\..\..\lvgl\version_6.1.2\lvgl\src\lv_objx/lv_cb.c ****  *      INCLUDES
   8:..\..\..\lvgl\version_6.1.2\lvgl\src\lv_objx/lv_cb.c ****  *********************/
   9:..\..\..\lvgl\version_6.1.2\lvgl\src\lv_objx/lv_cb.c **** #include "lv_cb.h"
  10:..\..\..\lvgl\version_6.1.2\lvgl\src\lv_objx/lv_cb.c **** #if LV_USE_CB != 0
  11:..\..\..\lvgl\version_6.1.2\lvgl\src\lv_objx/lv_cb.c **** 
  12:..\..\..\lvgl\version_6.1.2\lvgl\src\lv_objx/lv_cb.c **** #include "../lv_core/lv_debug.h"
  13:..\..\..\lvgl\version_6.1.2\lvgl\src\lv_objx/lv_cb.c **** #include "../lv_core/lv_group.h"
  14:..\..\..\lvgl\version_6.1.2\lvgl\src\lv_objx/lv_cb.c **** #include "../lv_themes/lv_theme.h"
  15:..\..\..\lvgl\version_6.1.2\lvgl\src\lv_objx/lv_cb.c **** 
  16:..\..\..\lvgl\version_6.1.2\lvgl\src\lv_objx/lv_cb.c **** /*********************
  17:..\..\..\lvgl\version_6.1.2\lvgl\src\lv_objx/lv_cb.c ****  *      DEFINES
  18:..\..\..\lvgl\version_6.1.2\lvgl\src\lv_objx/lv_cb.c ****  *********************/
  19:..\..\..\lvgl\version_6.1.2\lvgl\src\lv_objx/lv_cb.c **** #define LV_OBJX_NAME "lv_cb"
  20:..\..\..\lvgl\version_6.1.2\lvgl\src\lv_objx/lv_cb.c **** 
  21:..\..\..\lvgl\version_6.1.2\lvgl\src\lv_objx/lv_cb.c **** /**********************
  22:..\..\..\lvgl\version_6.1.2\lvgl\src\lv_objx/lv_cb.c ****  *      TYPEDEFS
  23:..\..\..\lvgl\version_6.1.2\lvgl\src\lv_objx/lv_cb.c ****  **********************/
  24:..\..\..\lvgl\version_6.1.2\lvgl\src\lv_objx/lv_cb.c **** 
  25:..\..\..\lvgl\version_6.1.2\lvgl\src\lv_objx/lv_cb.c **** /**********************
  26:..\..\..\lvgl\version_6.1.2\lvgl\src\lv_objx/lv_cb.c ****  *  STATIC PROTOTYPES
  27:..\..\..\lvgl\version_6.1.2\lvgl\src\lv_objx/lv_cb.c ****  **********************/
  28:..\..\..\lvgl\version_6.1.2\lvgl\src\lv_objx/lv_cb.c **** static bool lv_cb_design(lv_obj_t * cb, const lv_area_t * mask, lv_design_mode_t mode);
  29:..\..\..\lvgl\version_6.1.2\lvgl\src\lv_objx/lv_cb.c **** static bool lv_bullet_design(lv_obj_t * bullet, const lv_area_t * mask, lv_design_mode_t mode);
  30:..\..\..\lvgl\version_6.1.2\lvgl\src\lv_objx/lv_cb.c **** static lv_res_t lv_cb_signal(lv_obj_t * cb, lv_signal_t sign, void * param);
ARM GAS  C:\Users\pearlstl\AppData\Local\Temp\ccEDNCxX.s 			page 2


  31:..\..\..\lvgl\version_6.1.2\lvgl\src\lv_objx/lv_cb.c **** 
  32:..\..\..\lvgl\version_6.1.2\lvgl\src\lv_objx/lv_cb.c **** /**********************
  33:..\..\..\lvgl\version_6.1.2\lvgl\src\lv_objx/lv_cb.c ****  *  STATIC VARIABLES
  34:..\..\..\lvgl\version_6.1.2\lvgl\src\lv_objx/lv_cb.c ****  **********************/
  35:..\..\..\lvgl\version_6.1.2\lvgl\src\lv_objx/lv_cb.c **** static lv_design_cb_t ancestor_bg_design;
  36:..\..\..\lvgl\version_6.1.2\lvgl\src\lv_objx/lv_cb.c **** static lv_design_cb_t ancestor_bullet_design;
  37:..\..\..\lvgl\version_6.1.2\lvgl\src\lv_objx/lv_cb.c **** static lv_signal_cb_t ancestor_signal;
  38:..\..\..\lvgl\version_6.1.2\lvgl\src\lv_objx/lv_cb.c **** 
  39:..\..\..\lvgl\version_6.1.2\lvgl\src\lv_objx/lv_cb.c **** /**********************
  40:..\..\..\lvgl\version_6.1.2\lvgl\src\lv_objx/lv_cb.c ****  *      MACROS
  41:..\..\..\lvgl\version_6.1.2\lvgl\src\lv_objx/lv_cb.c ****  **********************/
  42:..\..\..\lvgl\version_6.1.2\lvgl\src\lv_objx/lv_cb.c **** 
  43:..\..\..\lvgl\version_6.1.2\lvgl\src\lv_objx/lv_cb.c **** /**********************
  44:..\..\..\lvgl\version_6.1.2\lvgl\src\lv_objx/lv_cb.c ****  *   GLOBAL FUNCTIONS
  45:..\..\..\lvgl\version_6.1.2\lvgl\src\lv_objx/lv_cb.c ****  **********************/
  46:..\..\..\lvgl\version_6.1.2\lvgl\src\lv_objx/lv_cb.c **** 
  47:..\..\..\lvgl\version_6.1.2\lvgl\src\lv_objx/lv_cb.c **** /**
  48:..\..\..\lvgl\version_6.1.2\lvgl\src\lv_objx/lv_cb.c ****  * Create a check box objects
  49:..\..\..\lvgl\version_6.1.2\lvgl\src\lv_objx/lv_cb.c ****  * @param par pointer to an object, it will be the parent of the new check box
  50:..\..\..\lvgl\version_6.1.2\lvgl\src\lv_objx/lv_cb.c ****  * @param copy pointer to a check box object, if not NULL then the new object will be copied from i
  51:..\..\..\lvgl\version_6.1.2\lvgl\src\lv_objx/lv_cb.c ****  * @return pointer to the created check box
  52:..\..\..\lvgl\version_6.1.2\lvgl\src\lv_objx/lv_cb.c ****  */
  53:..\..\..\lvgl\version_6.1.2\lvgl\src\lv_objx/lv_cb.c **** lv_obj_t * lv_cb_create(lv_obj_t * par, const lv_obj_t * copy)
  54:..\..\..\lvgl\version_6.1.2\lvgl\src\lv_objx/lv_cb.c **** {
  55:..\..\..\lvgl\version_6.1.2\lvgl\src\lv_objx/lv_cb.c **** 
  56:..\..\..\lvgl\version_6.1.2\lvgl\src\lv_objx/lv_cb.c ****     LV_LOG_TRACE("check box create started");
  57:..\..\..\lvgl\version_6.1.2\lvgl\src\lv_objx/lv_cb.c **** 
  58:..\..\..\lvgl\version_6.1.2\lvgl\src\lv_objx/lv_cb.c ****     /*Create the ancestor basic object*/
  59:..\..\..\lvgl\version_6.1.2\lvgl\src\lv_objx/lv_cb.c ****     lv_obj_t * new_cb = lv_btn_create(par, copy);
  60:..\..\..\lvgl\version_6.1.2\lvgl\src\lv_objx/lv_cb.c ****     LV_ASSERT_MEM(new_cb);
  61:..\..\..\lvgl\version_6.1.2\lvgl\src\lv_objx/lv_cb.c ****     if(new_cb == NULL) return NULL;
  62:..\..\..\lvgl\version_6.1.2\lvgl\src\lv_objx/lv_cb.c **** 
  63:..\..\..\lvgl\version_6.1.2\lvgl\src\lv_objx/lv_cb.c ****     if(ancestor_signal == NULL) ancestor_signal = lv_obj_get_signal_cb(new_cb);
  64:..\..\..\lvgl\version_6.1.2\lvgl\src\lv_objx/lv_cb.c ****     if(ancestor_bg_design == NULL) ancestor_bg_design = lv_obj_get_design_cb(new_cb);
  65:..\..\..\lvgl\version_6.1.2\lvgl\src\lv_objx/lv_cb.c **** 
  66:..\..\..\lvgl\version_6.1.2\lvgl\src\lv_objx/lv_cb.c ****     lv_cb_ext_t * ext = lv_obj_allocate_ext_attr(new_cb, sizeof(lv_cb_ext_t));
  67:..\..\..\lvgl\version_6.1.2\lvgl\src\lv_objx/lv_cb.c ****     LV_ASSERT_MEM(ext);
  68:..\..\..\lvgl\version_6.1.2\lvgl\src\lv_objx/lv_cb.c ****     if(ext == NULL) return NULL;
  69:..\..\..\lvgl\version_6.1.2\lvgl\src\lv_objx/lv_cb.c **** 
  70:..\..\..\lvgl\version_6.1.2\lvgl\src\lv_objx/lv_cb.c ****     ext->bullet = NULL;
  71:..\..\..\lvgl\version_6.1.2\lvgl\src\lv_objx/lv_cb.c ****     ext->label  = NULL;
  72:..\..\..\lvgl\version_6.1.2\lvgl\src\lv_objx/lv_cb.c **** 
  73:..\..\..\lvgl\version_6.1.2\lvgl\src\lv_objx/lv_cb.c ****     lv_obj_set_signal_cb(new_cb, lv_cb_signal);
  74:..\..\..\lvgl\version_6.1.2\lvgl\src\lv_objx/lv_cb.c ****     lv_obj_set_design_cb(new_cb, lv_cb_design);
  75:..\..\..\lvgl\version_6.1.2\lvgl\src\lv_objx/lv_cb.c **** 
  76:..\..\..\lvgl\version_6.1.2\lvgl\src\lv_objx/lv_cb.c ****     /*Init the new checkbox object*/
  77:..\..\..\lvgl\version_6.1.2\lvgl\src\lv_objx/lv_cb.c ****     if(copy == NULL) {
  78:..\..\..\lvgl\version_6.1.2\lvgl\src\lv_objx/lv_cb.c ****         ext->bullet = lv_btn_create(new_cb, NULL);
  79:..\..\..\lvgl\version_6.1.2\lvgl\src\lv_objx/lv_cb.c ****         if(ancestor_bullet_design == NULL) ancestor_bullet_design = lv_obj_get_design_cb(ext->bulle
  80:..\..\..\lvgl\version_6.1.2\lvgl\src\lv_objx/lv_cb.c ****         lv_obj_set_click(ext->bullet, false);
  81:..\..\..\lvgl\version_6.1.2\lvgl\src\lv_objx/lv_cb.c **** 
  82:..\..\..\lvgl\version_6.1.2\lvgl\src\lv_objx/lv_cb.c ****         ext->label = lv_label_create(new_cb, NULL);
  83:..\..\..\lvgl\version_6.1.2\lvgl\src\lv_objx/lv_cb.c **** 
  84:..\..\..\lvgl\version_6.1.2\lvgl\src\lv_objx/lv_cb.c ****         lv_cb_set_text(new_cb, "Check box");
  85:..\..\..\lvgl\version_6.1.2\lvgl\src\lv_objx/lv_cb.c ****         lv_btn_set_layout(new_cb, LV_LAYOUT_ROW_M);
  86:..\..\..\lvgl\version_6.1.2\lvgl\src\lv_objx/lv_cb.c ****         lv_btn_set_fit(new_cb, LV_FIT_TIGHT);
  87:..\..\..\lvgl\version_6.1.2\lvgl\src\lv_objx/lv_cb.c ****         lv_btn_set_toggle(new_cb, true);
ARM GAS  C:\Users\pearlstl\AppData\Local\Temp\ccEDNCxX.s 			page 3


  88:..\..\..\lvgl\version_6.1.2\lvgl\src\lv_objx/lv_cb.c ****         lv_obj_set_protect(new_cb, LV_PROTECT_PRESS_LOST);
  89:..\..\..\lvgl\version_6.1.2\lvgl\src\lv_objx/lv_cb.c **** 
  90:..\..\..\lvgl\version_6.1.2\lvgl\src\lv_objx/lv_cb.c ****         /*Set the default styles*/
  91:..\..\..\lvgl\version_6.1.2\lvgl\src\lv_objx/lv_cb.c ****         lv_theme_t * th = lv_theme_get_current();
  92:..\..\..\lvgl\version_6.1.2\lvgl\src\lv_objx/lv_cb.c ****         if(th) {
  93:..\..\..\lvgl\version_6.1.2\lvgl\src\lv_objx/lv_cb.c ****             lv_cb_set_style(new_cb, LV_CB_STYLE_BG, th->style.cb.bg);
  94:..\..\..\lvgl\version_6.1.2\lvgl\src\lv_objx/lv_cb.c ****             lv_cb_set_style(new_cb, LV_CB_STYLE_BOX_REL, th->style.cb.box.rel);
  95:..\..\..\lvgl\version_6.1.2\lvgl\src\lv_objx/lv_cb.c ****             lv_cb_set_style(new_cb, LV_CB_STYLE_BOX_PR, th->style.cb.box.pr);
  96:..\..\..\lvgl\version_6.1.2\lvgl\src\lv_objx/lv_cb.c ****             lv_cb_set_style(new_cb, LV_CB_STYLE_BOX_TGL_REL, th->style.cb.box.tgl_rel);
  97:..\..\..\lvgl\version_6.1.2\lvgl\src\lv_objx/lv_cb.c ****             lv_cb_set_style(new_cb, LV_CB_STYLE_BOX_TGL_PR, th->style.cb.box.tgl_pr);
  98:..\..\..\lvgl\version_6.1.2\lvgl\src\lv_objx/lv_cb.c ****             lv_cb_set_style(new_cb, LV_CB_STYLE_BOX_INA, th->style.cb.box.ina);
  99:..\..\..\lvgl\version_6.1.2\lvgl\src\lv_objx/lv_cb.c ****         } else {
 100:..\..\..\lvgl\version_6.1.2\lvgl\src\lv_objx/lv_cb.c ****             lv_cb_set_style(new_cb, LV_CB_STYLE_BG, &lv_style_transp);
 101:..\..\..\lvgl\version_6.1.2\lvgl\src\lv_objx/lv_cb.c ****             lv_cb_set_style(new_cb, LV_CB_STYLE_BOX_REL, &lv_style_pretty);
 102:..\..\..\lvgl\version_6.1.2\lvgl\src\lv_objx/lv_cb.c ****         }
 103:..\..\..\lvgl\version_6.1.2\lvgl\src\lv_objx/lv_cb.c ****     } else {
 104:..\..\..\lvgl\version_6.1.2\lvgl\src\lv_objx/lv_cb.c ****         lv_cb_ext_t * copy_ext = lv_obj_get_ext_attr(copy);
 105:..\..\..\lvgl\version_6.1.2\lvgl\src\lv_objx/lv_cb.c ****         ext->bullet            = lv_btn_create(new_cb, copy_ext->bullet);
 106:..\..\..\lvgl\version_6.1.2\lvgl\src\lv_objx/lv_cb.c ****         ext->label             = lv_label_create(new_cb, copy_ext->label);
 107:..\..\..\lvgl\version_6.1.2\lvgl\src\lv_objx/lv_cb.c **** 
 108:..\..\..\lvgl\version_6.1.2\lvgl\src\lv_objx/lv_cb.c ****         /*Refresh the style with new signal function*/
 109:..\..\..\lvgl\version_6.1.2\lvgl\src\lv_objx/lv_cb.c ****         lv_obj_refresh_style(new_cb);
 110:..\..\..\lvgl\version_6.1.2\lvgl\src\lv_objx/lv_cb.c ****     }
 111:..\..\..\lvgl\version_6.1.2\lvgl\src\lv_objx/lv_cb.c **** 
 112:..\..\..\lvgl\version_6.1.2\lvgl\src\lv_objx/lv_cb.c ****     lv_obj_set_design_cb(ext->bullet, lv_bullet_design);
 113:..\..\..\lvgl\version_6.1.2\lvgl\src\lv_objx/lv_cb.c **** 
 114:..\..\..\lvgl\version_6.1.2\lvgl\src\lv_objx/lv_cb.c ****     LV_LOG_INFO("check box created");
 115:..\..\..\lvgl\version_6.1.2\lvgl\src\lv_objx/lv_cb.c **** 
 116:..\..\..\lvgl\version_6.1.2\lvgl\src\lv_objx/lv_cb.c ****     return new_cb;
 117:..\..\..\lvgl\version_6.1.2\lvgl\src\lv_objx/lv_cb.c **** }
 118:..\..\..\lvgl\version_6.1.2\lvgl\src\lv_objx/lv_cb.c **** 
 119:..\..\..\lvgl\version_6.1.2\lvgl\src\lv_objx/lv_cb.c **** /*=====================
 120:..\..\..\lvgl\version_6.1.2\lvgl\src\lv_objx/lv_cb.c ****  * Setter functions
 121:..\..\..\lvgl\version_6.1.2\lvgl\src\lv_objx/lv_cb.c ****  *====================*/
 122:..\..\..\lvgl\version_6.1.2\lvgl\src\lv_objx/lv_cb.c **** 
 123:..\..\..\lvgl\version_6.1.2\lvgl\src\lv_objx/lv_cb.c **** /**
 124:..\..\..\lvgl\version_6.1.2\lvgl\src\lv_objx/lv_cb.c ****  * Set the text of a check box. `txt` will be copied and may be deallocated
 125:..\..\..\lvgl\version_6.1.2\lvgl\src\lv_objx/lv_cb.c ****  * after this function returns.
 126:..\..\..\lvgl\version_6.1.2\lvgl\src\lv_objx/lv_cb.c ****  * @param cb pointer to a check box
 127:..\..\..\lvgl\version_6.1.2\lvgl\src\lv_objx/lv_cb.c ****  * @param txt the text of the check box. NULL to refresh with the current text.
 128:..\..\..\lvgl\version_6.1.2\lvgl\src\lv_objx/lv_cb.c ****  */
 129:..\..\..\lvgl\version_6.1.2\lvgl\src\lv_objx/lv_cb.c **** void lv_cb_set_text(lv_obj_t * cb, const char * txt)
 130:..\..\..\lvgl\version_6.1.2\lvgl\src\lv_objx/lv_cb.c **** {
 131:..\..\..\lvgl\version_6.1.2\lvgl\src\lv_objx/lv_cb.c ****     LV_ASSERT_OBJ(cb, LV_OBJX_NAME);
 132:..\..\..\lvgl\version_6.1.2\lvgl\src\lv_objx/lv_cb.c **** 
 133:..\..\..\lvgl\version_6.1.2\lvgl\src\lv_objx/lv_cb.c ****     lv_cb_ext_t * ext = lv_obj_get_ext_attr(cb);
 134:..\..\..\lvgl\version_6.1.2\lvgl\src\lv_objx/lv_cb.c ****     lv_label_set_text(ext->label, txt);
 135:..\..\..\lvgl\version_6.1.2\lvgl\src\lv_objx/lv_cb.c **** }
 136:..\..\..\lvgl\version_6.1.2\lvgl\src\lv_objx/lv_cb.c **** 
 137:..\..\..\lvgl\version_6.1.2\lvgl\src\lv_objx/lv_cb.c **** /**
 138:..\..\..\lvgl\version_6.1.2\lvgl\src\lv_objx/lv_cb.c ****  * Set the text of a check box. `txt` must not be deallocated during the life
 139:..\..\..\lvgl\version_6.1.2\lvgl\src\lv_objx/lv_cb.c ****  * of this checkbox.
 140:..\..\..\lvgl\version_6.1.2\lvgl\src\lv_objx/lv_cb.c ****  * @param cb pointer to a check box
 141:..\..\..\lvgl\version_6.1.2\lvgl\src\lv_objx/lv_cb.c ****  * @param txt the text of the check box. NULL to refresh with the current text.
 142:..\..\..\lvgl\version_6.1.2\lvgl\src\lv_objx/lv_cb.c ****  */
 143:..\..\..\lvgl\version_6.1.2\lvgl\src\lv_objx/lv_cb.c **** void lv_cb_set_static_text(lv_obj_t * cb, const char * txt)
 144:..\..\..\lvgl\version_6.1.2\lvgl\src\lv_objx/lv_cb.c **** {
ARM GAS  C:\Users\pearlstl\AppData\Local\Temp\ccEDNCxX.s 			page 4


 145:..\..\..\lvgl\version_6.1.2\lvgl\src\lv_objx/lv_cb.c ****     LV_ASSERT_OBJ(cb, LV_OBJX_NAME);
 146:..\..\..\lvgl\version_6.1.2\lvgl\src\lv_objx/lv_cb.c **** 
 147:..\..\..\lvgl\version_6.1.2\lvgl\src\lv_objx/lv_cb.c ****     lv_cb_ext_t * ext = lv_obj_get_ext_attr(cb);
 148:..\..\..\lvgl\version_6.1.2\lvgl\src\lv_objx/lv_cb.c ****     lv_label_set_static_text(ext->label, txt);
 149:..\..\..\lvgl\version_6.1.2\lvgl\src\lv_objx/lv_cb.c **** }
 150:..\..\..\lvgl\version_6.1.2\lvgl\src\lv_objx/lv_cb.c **** 
 151:..\..\..\lvgl\version_6.1.2\lvgl\src\lv_objx/lv_cb.c **** /**
 152:..\..\..\lvgl\version_6.1.2\lvgl\src\lv_objx/lv_cb.c ****  * Set a style of a check box
 153:..\..\..\lvgl\version_6.1.2\lvgl\src\lv_objx/lv_cb.c ****  * @param cb pointer to check box object
 154:..\..\..\lvgl\version_6.1.2\lvgl\src\lv_objx/lv_cb.c ****  * @param type which style should be set
 155:..\..\..\lvgl\version_6.1.2\lvgl\src\lv_objx/lv_cb.c ****  * @param style pointer to a style
 156:..\..\..\lvgl\version_6.1.2\lvgl\src\lv_objx/lv_cb.c ****  *  */
 157:..\..\..\lvgl\version_6.1.2\lvgl\src\lv_objx/lv_cb.c **** void lv_cb_set_style(lv_obj_t * cb, lv_cb_style_t type, const lv_style_t * style)
 158:..\..\..\lvgl\version_6.1.2\lvgl\src\lv_objx/lv_cb.c **** {
 159:..\..\..\lvgl\version_6.1.2\lvgl\src\lv_objx/lv_cb.c ****     LV_ASSERT_OBJ(cb, LV_OBJX_NAME);
 160:..\..\..\lvgl\version_6.1.2\lvgl\src\lv_objx/lv_cb.c **** 
 161:..\..\..\lvgl\version_6.1.2\lvgl\src\lv_objx/lv_cb.c ****     lv_cb_ext_t * ext = lv_obj_get_ext_attr(cb);
 162:..\..\..\lvgl\version_6.1.2\lvgl\src\lv_objx/lv_cb.c **** 
 163:..\..\..\lvgl\version_6.1.2\lvgl\src\lv_objx/lv_cb.c ****     switch(type) {
 164:..\..\..\lvgl\version_6.1.2\lvgl\src\lv_objx/lv_cb.c ****         case LV_CB_STYLE_BG:
 165:..\..\..\lvgl\version_6.1.2\lvgl\src\lv_objx/lv_cb.c ****             lv_btn_set_style(cb, LV_BTN_STYLE_REL, style);
 166:..\..\..\lvgl\version_6.1.2\lvgl\src\lv_objx/lv_cb.c ****             lv_btn_set_style(cb, LV_BTN_STYLE_PR, style);
 167:..\..\..\lvgl\version_6.1.2\lvgl\src\lv_objx/lv_cb.c ****             lv_btn_set_style(cb, LV_BTN_STYLE_TGL_REL, style);
 168:..\..\..\lvgl\version_6.1.2\lvgl\src\lv_objx/lv_cb.c ****             lv_btn_set_style(cb, LV_BTN_STYLE_TGL_PR, style);
 169:..\..\..\lvgl\version_6.1.2\lvgl\src\lv_objx/lv_cb.c ****             lv_btn_set_style(cb, LV_BTN_STYLE_INA, style);
 170:..\..\..\lvgl\version_6.1.2\lvgl\src\lv_objx/lv_cb.c ****             break;
 171:..\..\..\lvgl\version_6.1.2\lvgl\src\lv_objx/lv_cb.c ****         case LV_CB_STYLE_BOX_REL: lv_btn_set_style(ext->bullet, LV_BTN_STYLE_REL, style); break;
 172:..\..\..\lvgl\version_6.1.2\lvgl\src\lv_objx/lv_cb.c ****         case LV_CB_STYLE_BOX_PR: lv_btn_set_style(ext->bullet, LV_BTN_STYLE_PR, style); break;
 173:..\..\..\lvgl\version_6.1.2\lvgl\src\lv_objx/lv_cb.c ****         case LV_CB_STYLE_BOX_TGL_REL: lv_btn_set_style(ext->bullet, LV_BTN_STYLE_TGL_REL, style); b
 174:..\..\..\lvgl\version_6.1.2\lvgl\src\lv_objx/lv_cb.c ****         case LV_CB_STYLE_BOX_TGL_PR: lv_btn_set_style(ext->bullet, LV_BTN_STYLE_TGL_PR, style); bre
 175:..\..\..\lvgl\version_6.1.2\lvgl\src\lv_objx/lv_cb.c ****         case LV_CB_STYLE_BOX_INA: lv_btn_set_style(ext->bullet, LV_BTN_STYLE_INA, style); break;
 176:..\..\..\lvgl\version_6.1.2\lvgl\src\lv_objx/lv_cb.c ****     }
 177:..\..\..\lvgl\version_6.1.2\lvgl\src\lv_objx/lv_cb.c **** }
 178:..\..\..\lvgl\version_6.1.2\lvgl\src\lv_objx/lv_cb.c **** 
 179:..\..\..\lvgl\version_6.1.2\lvgl\src\lv_objx/lv_cb.c **** /*=====================
 180:..\..\..\lvgl\version_6.1.2\lvgl\src\lv_objx/lv_cb.c ****  * Getter functions
 181:..\..\..\lvgl\version_6.1.2\lvgl\src\lv_objx/lv_cb.c ****  *====================*/
 182:..\..\..\lvgl\version_6.1.2\lvgl\src\lv_objx/lv_cb.c **** 
 183:..\..\..\lvgl\version_6.1.2\lvgl\src\lv_objx/lv_cb.c **** /**
 184:..\..\..\lvgl\version_6.1.2\lvgl\src\lv_objx/lv_cb.c ****  * Get the text of a check box
 185:..\..\..\lvgl\version_6.1.2\lvgl\src\lv_objx/lv_cb.c ****  * @param cb pointer to check box object
 186:..\..\..\lvgl\version_6.1.2\lvgl\src\lv_objx/lv_cb.c ****  * @return pointer to the text of the check box
 187:..\..\..\lvgl\version_6.1.2\lvgl\src\lv_objx/lv_cb.c ****  */
 188:..\..\..\lvgl\version_6.1.2\lvgl\src\lv_objx/lv_cb.c **** const char * lv_cb_get_text(const lv_obj_t * cb)
 189:..\..\..\lvgl\version_6.1.2\lvgl\src\lv_objx/lv_cb.c **** {
 190:..\..\..\lvgl\version_6.1.2\lvgl\src\lv_objx/lv_cb.c ****     LV_ASSERT_OBJ(cb, LV_OBJX_NAME);
 191:..\..\..\lvgl\version_6.1.2\lvgl\src\lv_objx/lv_cb.c **** 
 192:..\..\..\lvgl\version_6.1.2\lvgl\src\lv_objx/lv_cb.c ****     lv_cb_ext_t * ext = lv_obj_get_ext_attr(cb);
 193:..\..\..\lvgl\version_6.1.2\lvgl\src\lv_objx/lv_cb.c ****     return lv_label_get_text(ext->label);
 194:..\..\..\lvgl\version_6.1.2\lvgl\src\lv_objx/lv_cb.c **** }
 195:..\..\..\lvgl\version_6.1.2\lvgl\src\lv_objx/lv_cb.c **** 
 196:..\..\..\lvgl\version_6.1.2\lvgl\src\lv_objx/lv_cb.c **** /**
 197:..\..\..\lvgl\version_6.1.2\lvgl\src\lv_objx/lv_cb.c ****  * Get a style of a button
 198:..\..\..\lvgl\version_6.1.2\lvgl\src\lv_objx/lv_cb.c ****  * @param cb pointer to check box object
 199:..\..\..\lvgl\version_6.1.2\lvgl\src\lv_objx/lv_cb.c ****  * @param type which style should be get
 200:..\..\..\lvgl\version_6.1.2\lvgl\src\lv_objx/lv_cb.c ****  * @return style pointer to the style
 201:..\..\..\lvgl\version_6.1.2\lvgl\src\lv_objx/lv_cb.c ****  *  */
ARM GAS  C:\Users\pearlstl\AppData\Local\Temp\ccEDNCxX.s 			page 5


 202:..\..\..\lvgl\version_6.1.2\lvgl\src\lv_objx/lv_cb.c **** const lv_style_t * lv_cb_get_style(const lv_obj_t * cb, lv_cb_style_t type)
 203:..\..\..\lvgl\version_6.1.2\lvgl\src\lv_objx/lv_cb.c **** {
 204:..\..\..\lvgl\version_6.1.2\lvgl\src\lv_objx/lv_cb.c ****     LV_ASSERT_OBJ(cb, LV_OBJX_NAME);
 205:..\..\..\lvgl\version_6.1.2\lvgl\src\lv_objx/lv_cb.c **** 
 206:..\..\..\lvgl\version_6.1.2\lvgl\src\lv_objx/lv_cb.c ****     const lv_style_t * style = NULL;
 207:..\..\..\lvgl\version_6.1.2\lvgl\src\lv_objx/lv_cb.c ****     lv_cb_ext_t * ext        = lv_obj_get_ext_attr(cb);
 208:..\..\..\lvgl\version_6.1.2\lvgl\src\lv_objx/lv_cb.c **** 
 209:..\..\..\lvgl\version_6.1.2\lvgl\src\lv_objx/lv_cb.c ****     switch(type) {
 210:..\..\..\lvgl\version_6.1.2\lvgl\src\lv_objx/lv_cb.c ****         case LV_CB_STYLE_BG: style = lv_btn_get_style(cb, LV_BTN_STYLE_REL); break;
 211:..\..\..\lvgl\version_6.1.2\lvgl\src\lv_objx/lv_cb.c ****         case LV_CB_STYLE_BOX_REL: style = lv_btn_get_style(ext->bullet, LV_BTN_STYLE_REL); break;
 212:..\..\..\lvgl\version_6.1.2\lvgl\src\lv_objx/lv_cb.c ****         case LV_CB_STYLE_BOX_PR: style = lv_btn_get_style(ext->bullet, LV_BTN_STYLE_PR); break;
 213:..\..\..\lvgl\version_6.1.2\lvgl\src\lv_objx/lv_cb.c ****         case LV_CB_STYLE_BOX_TGL_REL: style = lv_btn_get_style(ext->bullet, LV_BTN_STYLE_TGL_REL); 
 214:..\..\..\lvgl\version_6.1.2\lvgl\src\lv_objx/lv_cb.c ****         case LV_CB_STYLE_BOX_TGL_PR: style = lv_btn_get_style(ext->bullet, LV_BTN_STYLE_TGL_PR); br
 215:..\..\..\lvgl\version_6.1.2\lvgl\src\lv_objx/lv_cb.c ****         case LV_CB_STYLE_BOX_INA: style = lv_btn_get_style(ext->bullet, LV_BTN_STYLE_INA); break;
 216:..\..\..\lvgl\version_6.1.2\lvgl\src\lv_objx/lv_cb.c ****         default: style = NULL; break;
 217:..\..\..\lvgl\version_6.1.2\lvgl\src\lv_objx/lv_cb.c ****     }
 218:..\..\..\lvgl\version_6.1.2\lvgl\src\lv_objx/lv_cb.c **** 
 219:..\..\..\lvgl\version_6.1.2\lvgl\src\lv_objx/lv_cb.c ****     return style;
 220:..\..\..\lvgl\version_6.1.2\lvgl\src\lv_objx/lv_cb.c **** }
 221:..\..\..\lvgl\version_6.1.2\lvgl\src\lv_objx/lv_cb.c **** 
 222:..\..\..\lvgl\version_6.1.2\lvgl\src\lv_objx/lv_cb.c **** /**********************
 223:..\..\..\lvgl\version_6.1.2\lvgl\src\lv_objx/lv_cb.c ****  *   STATIC FUNCTIONS
 224:..\..\..\lvgl\version_6.1.2\lvgl\src\lv_objx/lv_cb.c ****  **********************/
 225:..\..\..\lvgl\version_6.1.2\lvgl\src\lv_objx/lv_cb.c **** 
 226:..\..\..\lvgl\version_6.1.2\lvgl\src\lv_objx/lv_cb.c **** /**
 227:..\..\..\lvgl\version_6.1.2\lvgl\src\lv_objx/lv_cb.c ****  * Handle the drawing related tasks of the check boxes
 228:..\..\..\lvgl\version_6.1.2\lvgl\src\lv_objx/lv_cb.c ****  * @param cb pointer to an object
 229:..\..\..\lvgl\version_6.1.2\lvgl\src\lv_objx/lv_cb.c ****  * @param mask the object will be drawn only in this area
 230:..\..\..\lvgl\version_6.1.2\lvgl\src\lv_objx/lv_cb.c ****  * @param mode LV_DESIGN_COVER_CHK: only check if the object fully covers the 'mask_p' area
 231:..\..\..\lvgl\version_6.1.2\lvgl\src\lv_objx/lv_cb.c ****  *                                  (return 'true' if yes)
 232:..\..\..\lvgl\version_6.1.2\lvgl\src\lv_objx/lv_cb.c ****  *             LV_DESIGN_DRAW: draw the object (always return 'true')
 233:..\..\..\lvgl\version_6.1.2\lvgl\src\lv_objx/lv_cb.c ****  *             LV_DESIGN_DRAW_POST: drawing after every children are drawn
 234:..\..\..\lvgl\version_6.1.2\lvgl\src\lv_objx/lv_cb.c ****  * @param return true/false, depends on 'mode'
 235:..\..\..\lvgl\version_6.1.2\lvgl\src\lv_objx/lv_cb.c ****  */
 236:..\..\..\lvgl\version_6.1.2\lvgl\src\lv_objx/lv_cb.c **** static bool lv_cb_design(lv_obj_t * cb, const lv_area_t * mask, lv_design_mode_t mode)
 237:..\..\..\lvgl\version_6.1.2\lvgl\src\lv_objx/lv_cb.c **** {
 238:..\..\..\lvgl\version_6.1.2\lvgl\src\lv_objx/lv_cb.c ****     bool result = true;
 239:..\..\..\lvgl\version_6.1.2\lvgl\src\lv_objx/lv_cb.c **** 
 240:..\..\..\lvgl\version_6.1.2\lvgl\src\lv_objx/lv_cb.c ****     if(mode == LV_DESIGN_COVER_CHK) {
 241:..\..\..\lvgl\version_6.1.2\lvgl\src\lv_objx/lv_cb.c ****         /*Return false if the object is not covers the mask_p area*/
 242:..\..\..\lvgl\version_6.1.2\lvgl\src\lv_objx/lv_cb.c ****         result = ancestor_bg_design(cb, mask, mode);
 243:..\..\..\lvgl\version_6.1.2\lvgl\src\lv_objx/lv_cb.c ****     } else if(mode == LV_DESIGN_DRAW_MAIN || mode == LV_DESIGN_DRAW_POST) {
 244:..\..\..\lvgl\version_6.1.2\lvgl\src\lv_objx/lv_cb.c ****         lv_cb_ext_t * cb_ext      = lv_obj_get_ext_attr(cb);
 245:..\..\..\lvgl\version_6.1.2\lvgl\src\lv_objx/lv_cb.c ****         lv_btn_ext_t * bullet_ext = lv_obj_get_ext_attr(cb_ext->bullet);
 246:..\..\..\lvgl\version_6.1.2\lvgl\src\lv_objx/lv_cb.c **** 
 247:..\..\..\lvgl\version_6.1.2\lvgl\src\lv_objx/lv_cb.c ****         /*Be sure the state of the bullet is the same as the parent button*/
 248:..\..\..\lvgl\version_6.1.2\lvgl\src\lv_objx/lv_cb.c ****         bullet_ext->state = cb_ext->bg_btn.state;
 249:..\..\..\lvgl\version_6.1.2\lvgl\src\lv_objx/lv_cb.c **** 
 250:..\..\..\lvgl\version_6.1.2\lvgl\src\lv_objx/lv_cb.c ****         result = ancestor_bg_design(cb, mask, mode);
 251:..\..\..\lvgl\version_6.1.2\lvgl\src\lv_objx/lv_cb.c **** 
 252:..\..\..\lvgl\version_6.1.2\lvgl\src\lv_objx/lv_cb.c ****     } else {
 253:..\..\..\lvgl\version_6.1.2\lvgl\src\lv_objx/lv_cb.c ****         result = ancestor_bg_design(cb, mask, mode);
 254:..\..\..\lvgl\version_6.1.2\lvgl\src\lv_objx/lv_cb.c ****     }
 255:..\..\..\lvgl\version_6.1.2\lvgl\src\lv_objx/lv_cb.c **** 
 256:..\..\..\lvgl\version_6.1.2\lvgl\src\lv_objx/lv_cb.c ****     return result;
 257:..\..\..\lvgl\version_6.1.2\lvgl\src\lv_objx/lv_cb.c **** }
 258:..\..\..\lvgl\version_6.1.2\lvgl\src\lv_objx/lv_cb.c **** 
ARM GAS  C:\Users\pearlstl\AppData\Local\Temp\ccEDNCxX.s 			page 6


 259:..\..\..\lvgl\version_6.1.2\lvgl\src\lv_objx/lv_cb.c **** /**
 260:..\..\..\lvgl\version_6.1.2\lvgl\src\lv_objx/lv_cb.c ****  * Handle the drawing related tasks of the check boxes
 261:..\..\..\lvgl\version_6.1.2\lvgl\src\lv_objx/lv_cb.c ****  * @param bullet pointer to an object
 262:..\..\..\lvgl\version_6.1.2\lvgl\src\lv_objx/lv_cb.c ****  * @param mask the object will be drawn only in this area
 263:..\..\..\lvgl\version_6.1.2\lvgl\src\lv_objx/lv_cb.c ****  * @param mode LV_DESIGN_COVER_CHK: only check if the object fully covers the 'mask_p' area
 264:..\..\..\lvgl\version_6.1.2\lvgl\src\lv_objx/lv_cb.c ****  *                                  (return 'true' if yes)
 265:..\..\..\lvgl\version_6.1.2\lvgl\src\lv_objx/lv_cb.c ****  *             LV_DESIGN_DRAW: draw the object (always return 'true')
 266:..\..\..\lvgl\version_6.1.2\lvgl\src\lv_objx/lv_cb.c ****  *             LV_DESIGN_DRAW_POST: drawing after every children are drawn
 267:..\..\..\lvgl\version_6.1.2\lvgl\src\lv_objx/lv_cb.c ****  * @param return true/false, depends on 'mode'
 268:..\..\..\lvgl\version_6.1.2\lvgl\src\lv_objx/lv_cb.c ****  */
 269:..\..\..\lvgl\version_6.1.2\lvgl\src\lv_objx/lv_cb.c **** static bool lv_bullet_design(lv_obj_t * bullet, const lv_area_t * mask, lv_design_mode_t mode)
 270:..\..\..\lvgl\version_6.1.2\lvgl\src\lv_objx/lv_cb.c **** {
 271:..\..\..\lvgl\version_6.1.2\lvgl\src\lv_objx/lv_cb.c ****     if(mode == LV_DESIGN_COVER_CHK) {
 272:..\..\..\lvgl\version_6.1.2\lvgl\src\lv_objx/lv_cb.c ****         return ancestor_bullet_design(bullet, mask, mode);
 273:..\..\..\lvgl\version_6.1.2\lvgl\src\lv_objx/lv_cb.c ****     } else if(mode == LV_DESIGN_DRAW_MAIN) {
 274:..\..\..\lvgl\version_6.1.2\lvgl\src\lv_objx/lv_cb.c **** #if LV_USE_GROUP
 275:..\..\..\lvgl\version_6.1.2\lvgl\src\lv_objx/lv_cb.c ****         /* If the check box is the active in a group and
 276:..\..\..\lvgl\version_6.1.2\lvgl\src\lv_objx/lv_cb.c ****          * the background is not visible (transparent)
 277:..\..\..\lvgl\version_6.1.2\lvgl\src\lv_objx/lv_cb.c ****          * then activate the style of the bullet*/
 278:..\..\..\lvgl\version_6.1.2\lvgl\src\lv_objx/lv_cb.c ****         const lv_style_t * style_ori  = lv_obj_get_style(bullet);
 279:..\..\..\lvgl\version_6.1.2\lvgl\src\lv_objx/lv_cb.c ****         lv_obj_t * bg                 = lv_obj_get_parent(bullet);
 280:..\..\..\lvgl\version_6.1.2\lvgl\src\lv_objx/lv_cb.c ****         const lv_style_t * style_page = lv_obj_get_style(bg);
 281:..\..\..\lvgl\version_6.1.2\lvgl\src\lv_objx/lv_cb.c ****         lv_group_t * g                = lv_obj_get_group(bg);
 282:..\..\..\lvgl\version_6.1.2\lvgl\src\lv_objx/lv_cb.c ****         if(style_page->body.opa == LV_OPA_TRANSP) { /*Is the Background visible?*/
 283:..\..\..\lvgl\version_6.1.2\lvgl\src\lv_objx/lv_cb.c ****             if(lv_group_get_focused(g) == bg) {
 284:..\..\..\lvgl\version_6.1.2\lvgl\src\lv_objx/lv_cb.c ****                 lv_style_t * style_mod;
 285:..\..\..\lvgl\version_6.1.2\lvgl\src\lv_objx/lv_cb.c ****                 style_mod       = lv_group_mod_style(g, style_ori);
 286:..\..\..\lvgl\version_6.1.2\lvgl\src\lv_objx/lv_cb.c ****                 bullet->style_p = style_mod; /*Temporally change the style to the activated */
 287:..\..\..\lvgl\version_6.1.2\lvgl\src\lv_objx/lv_cb.c ****             }
 288:..\..\..\lvgl\version_6.1.2\lvgl\src\lv_objx/lv_cb.c ****         }
 289:..\..\..\lvgl\version_6.1.2\lvgl\src\lv_objx/lv_cb.c **** #endif
 290:..\..\..\lvgl\version_6.1.2\lvgl\src\lv_objx/lv_cb.c ****         ancestor_bullet_design(bullet, mask, mode);
 291:..\..\..\lvgl\version_6.1.2\lvgl\src\lv_objx/lv_cb.c **** 
 292:..\..\..\lvgl\version_6.1.2\lvgl\src\lv_objx/lv_cb.c **** #if LV_USE_GROUP
 293:..\..\..\lvgl\version_6.1.2\lvgl\src\lv_objx/lv_cb.c ****         bullet->style_p = style_ori; /*Revert the style*/
 294:..\..\..\lvgl\version_6.1.2\lvgl\src\lv_objx/lv_cb.c **** #endif
 295:..\..\..\lvgl\version_6.1.2\lvgl\src\lv_objx/lv_cb.c ****     } else if(mode == LV_DESIGN_DRAW_POST) {
 296:..\..\..\lvgl\version_6.1.2\lvgl\src\lv_objx/lv_cb.c ****         ancestor_bullet_design(bullet, mask, mode);
 297:..\..\..\lvgl\version_6.1.2\lvgl\src\lv_objx/lv_cb.c ****     }
 298:..\..\..\lvgl\version_6.1.2\lvgl\src\lv_objx/lv_cb.c **** 
 299:..\..\..\lvgl\version_6.1.2\lvgl\src\lv_objx/lv_cb.c ****     return true;
 300:..\..\..\lvgl\version_6.1.2\lvgl\src\lv_objx/lv_cb.c **** }
 301:..\..\..\lvgl\version_6.1.2\lvgl\src\lv_objx/lv_cb.c **** 
 302:..\..\..\lvgl\version_6.1.2\lvgl\src\lv_objx/lv_cb.c **** /**
 303:..\..\..\lvgl\version_6.1.2\lvgl\src\lv_objx/lv_cb.c ****  * Signal function of the check box
 304:..\..\..\lvgl\version_6.1.2\lvgl\src\lv_objx/lv_cb.c ****  * @param cb pointer to a check box object
 305:..\..\..\lvgl\version_6.1.2\lvgl\src\lv_objx/lv_cb.c ****  * @param sign a signal type from lv_signal_t enum
 306:..\..\..\lvgl\version_6.1.2\lvgl\src\lv_objx/lv_cb.c ****  * @param param pointer to a signal specific variable
 307:..\..\..\lvgl\version_6.1.2\lvgl\src\lv_objx/lv_cb.c ****  * @return LV_RES_OK: the object is not deleted in the function; LV_RES_INV: the object is deleted
 308:..\..\..\lvgl\version_6.1.2\lvgl\src\lv_objx/lv_cb.c ****  */
 309:..\..\..\lvgl\version_6.1.2\lvgl\src\lv_objx/lv_cb.c **** static lv_res_t lv_cb_signal(lv_obj_t * cb, lv_signal_t sign, void * param)
 310:..\..\..\lvgl\version_6.1.2\lvgl\src\lv_objx/lv_cb.c **** {
  28              		.loc 1 310 0
  29              		.cfi_startproc
  30              		@ args = 0, pretend = 0, frame = 0
  31              		@ frame_needed = 0, uses_anonymous_args = 0
  32              	.LVL0:
ARM GAS  C:\Users\pearlstl\AppData\Local\Temp\ccEDNCxX.s 			page 7


 311:..\..\..\lvgl\version_6.1.2\lvgl\src\lv_objx/lv_cb.c ****     lv_res_t res;
 312:..\..\..\lvgl\version_6.1.2\lvgl\src\lv_objx/lv_cb.c **** 
 313:..\..\..\lvgl\version_6.1.2\lvgl\src\lv_objx/lv_cb.c ****     /* Include the ancient signal function */
 314:..\..\..\lvgl\version_6.1.2\lvgl\src\lv_objx/lv_cb.c ****     res = ancestor_signal(cb, sign, param);
  33              		.loc 1 314 0
  34 0000 264B     		ldr	r3, .L21
 310:..\..\..\lvgl\version_6.1.2\lvgl\src\lv_objx/lv_cb.c ****     lv_res_t res;
  35              		.loc 1 310 0
  36 0002 2DE9F041 		push	{r4, r5, r6, r7, r8, lr}
  37              		.cfi_def_cfa_offset 24
  38              		.cfi_offset 4, -24
  39              		.cfi_offset 5, -20
  40              		.cfi_offset 6, -16
  41              		.cfi_offset 7, -12
  42              		.cfi_offset 8, -8
  43              		.cfi_offset 14, -4
  44              		.loc 1 314 0
  45 0006 1B68     		ldr	r3, [r3]
 310:..\..\..\lvgl\version_6.1.2\lvgl\src\lv_objx/lv_cb.c ****     lv_res_t res;
  46              		.loc 1 310 0
  47 0008 0646     		mov	r6, r0
  48 000a 0D46     		mov	r5, r1
  49 000c 1746     		mov	r7, r2
  50              		.loc 1 314 0
  51 000e 9847     		blx	r3
  52              	.LVL1:
 315:..\..\..\lvgl\version_6.1.2\lvgl\src\lv_objx/lv_cb.c ****     if(res != LV_RES_OK) return res;
  53              		.loc 1 315 0
  54 0010 0128     		cmp	r0, #1
 314:..\..\..\lvgl\version_6.1.2\lvgl\src\lv_objx/lv_cb.c ****     if(res != LV_RES_OK) return res;
  55              		.loc 1 314 0
  56 0012 0446     		mov	r4, r0
  57              	.LVL2:
  58              		.loc 1 315 0
  59 0014 01D0     		beq	.L17
  60 0016 BDE8F081 		pop	{r4, r5, r6, r7, r8, pc}
  61              	.LVL3:
  62              	.L17:
 316:..\..\..\lvgl\version_6.1.2\lvgl\src\lv_objx/lv_cb.c ****     if(sign == LV_SIGNAL_GET_TYPE) return lv_obj_handle_get_type_signal(param, LV_OBJX_NAME);
  63              		.loc 1 316 0
  64 001a 072D     		cmp	r5, #7
  65 001c 1CD0     		beq	.L18
 317:..\..\..\lvgl\version_6.1.2\lvgl\src\lv_objx/lv_cb.c **** 
 318:..\..\..\lvgl\version_6.1.2\lvgl\src\lv_objx/lv_cb.c ****     lv_cb_ext_t * ext = lv_obj_get_ext_attr(cb);
  66              		.loc 1 318 0
  67 001e 3046     		mov	r0, r6
  68              	.LVL4:
  69 0020 FFF7FEFF 		bl	lv_obj_get_ext_attr
  70              	.LVL5:
 319:..\..\..\lvgl\version_6.1.2\lvgl\src\lv_objx/lv_cb.c **** 
 320:..\..\..\lvgl\version_6.1.2\lvgl\src\lv_objx/lv_cb.c ****     if(sign == LV_SIGNAL_STYLE_CHG) {
  71              		.loc 1 320 0
  72 0024 042D     		cmp	r5, #4
 318:..\..\..\lvgl\version_6.1.2\lvgl\src\lv_objx/lv_cb.c **** 
  73              		.loc 1 318 0
  74 0026 8046     		mov	r8, r0
  75              	.LVL6:
ARM GAS  C:\Users\pearlstl\AppData\Local\Temp\ccEDNCxX.s 			page 8


  76              		.loc 1 320 0
  77 0028 2CD0     		beq	.L19
 321:..\..\..\lvgl\version_6.1.2\lvgl\src\lv_objx/lv_cb.c ****         const lv_style_t * label_style = lv_label_get_style(ext->label, LV_LABEL_STYLE_MAIN);
 322:..\..\..\lvgl\version_6.1.2\lvgl\src\lv_objx/lv_cb.c ****         lv_obj_set_size(ext->bullet, lv_font_get_line_height(label_style->text.font),
 323:..\..\..\lvgl\version_6.1.2\lvgl\src\lv_objx/lv_cb.c ****                         lv_font_get_line_height(label_style->text.font));
 324:..\..\..\lvgl\version_6.1.2\lvgl\src\lv_objx/lv_cb.c ****         lv_btn_set_state(ext->bullet, lv_btn_get_state(cb));
 325:..\..\..\lvgl\version_6.1.2\lvgl\src\lv_objx/lv_cb.c ****     } else if(sign == LV_SIGNAL_PRESSED || sign == LV_SIGNAL_RELEASED || sign == LV_SIGNAL_PRESS_LO
  78              		.loc 1 325 0
  79 002a 082D     		cmp	r5, #8
  80 002c 08D0     		beq	.L5
  81              		.loc 1 325 0 is_stmt 0 discriminator 2
  82 002e A5F10A03 		sub	r3, r5, #10
  83 0032 012B     		cmp	r3, #1
  84 0034 04D9     		bls	.L5
 326:..\..\..\lvgl\version_6.1.2\lvgl\src\lv_objx/lv_cb.c ****         lv_btn_set_state(ext->bullet, lv_btn_get_state(cb));
 327:..\..\..\lvgl\version_6.1.2\lvgl\src\lv_objx/lv_cb.c ****     } else if(sign == LV_SIGNAL_CONTROL) {
  85              		.loc 1 327 0 is_stmt 1
  86 0036 122D     		cmp	r5, #18
  87 0038 14D0     		beq	.L20
  88              	.L14:
 326:..\..\..\lvgl\version_6.1.2\lvgl\src\lv_objx/lv_cb.c ****         lv_btn_set_state(ext->bullet, lv_btn_get_state(cb));
  89              		.loc 1 326 0
  90 003a 0120     		movs	r0, #1
  91              	.LVL7:
  92 003c BDE8F081 		pop	{r4, r5, r6, r7, r8, pc}
  93              	.LVL8:
  94              	.L5:
  95 0040 3046     		mov	r0, r6
  96              	.LVL9:
  97 0042 D8F81C40 		ldr	r4, [r8, #28]
  98 0046 FFF7FEFF 		bl	lv_btn_get_state
  99              	.LVL10:
 100 004a 0146     		mov	r1, r0
 101 004c 2046     		mov	r0, r4
 102 004e FFF7FEFF 		bl	lv_btn_set_state
 103              	.LVL11:
 104 0052 0120     		movs	r0, #1
 105 0054 BDE8F081 		pop	{r4, r5, r6, r7, r8, pc}
 106              	.LVL12:
 107              	.L18:
 316:..\..\..\lvgl\version_6.1.2\lvgl\src\lv_objx/lv_cb.c **** 
 108              		.loc 1 316 0 discriminator 1
 109 0058 3846     		mov	r0, r7
 110              	.LVL13:
 111 005a 1149     		ldr	r1, .L21+4
 328:..\..\..\lvgl\version_6.1.2\lvgl\src\lv_objx/lv_cb.c ****         char c = *((char *)param);
 329:..\..\..\lvgl\version_6.1.2\lvgl\src\lv_objx/lv_cb.c ****         if(c == LV_KEY_RIGHT || c == LV_KEY_DOWN || c == LV_KEY_LEFT || c == LV_KEY_UP) {
 330:..\..\..\lvgl\version_6.1.2\lvgl\src\lv_objx/lv_cb.c ****             /*Follow the backgrounds state with the bullet*/
 331:..\..\..\lvgl\version_6.1.2\lvgl\src\lv_objx/lv_cb.c ****             lv_btn_set_state(ext->bullet, lv_btn_get_state(cb));
 332:..\..\..\lvgl\version_6.1.2\lvgl\src\lv_objx/lv_cb.c ****         }
 333:..\..\..\lvgl\version_6.1.2\lvgl\src\lv_objx/lv_cb.c ****     }
 334:..\..\..\lvgl\version_6.1.2\lvgl\src\lv_objx/lv_cb.c **** 
 335:..\..\..\lvgl\version_6.1.2\lvgl\src\lv_objx/lv_cb.c ****     return res;
 336:..\..\..\lvgl\version_6.1.2\lvgl\src\lv_objx/lv_cb.c **** }
 112              		.loc 1 336 0 discriminator 1
 113 005c BDE8F041 		pop	{r4, r5, r6, r7, r8, lr}
 114              		.cfi_remember_state
ARM GAS  C:\Users\pearlstl\AppData\Local\Temp\ccEDNCxX.s 			page 9


 115              		.cfi_restore 14
 116              		.cfi_restore 8
 117              		.cfi_restore 7
 118              		.cfi_restore 6
 119              		.cfi_restore 5
 120              		.cfi_restore 4
 121              		.cfi_def_cfa_offset 0
 122              	.LVL14:
 316:..\..\..\lvgl\version_6.1.2\lvgl\src\lv_objx/lv_cb.c **** 
 123              		.loc 1 316 0 discriminator 1
 124 0060 FFF7FEBF 		b	lv_obj_handle_get_type_signal
 125              	.LVL15:
 126              	.L20:
 127              		.cfi_restore_state
 128              	.LBB23:
 329:..\..\..\lvgl\version_6.1.2\lvgl\src\lv_objx/lv_cb.c ****             /*Follow the backgrounds state with the bullet*/
 129              		.loc 1 329 0
 130 0064 3B78     		ldrb	r3, [r7]	@ zero_extendqisi2
 131 0066 113B     		subs	r3, r3, #17
 132 0068 032B     		cmp	r3, #3
 133 006a E6D8     		bhi	.L14
 134              	.LVL16:
 135              	.L15:
 331:..\..\..\lvgl\version_6.1.2\lvgl\src\lv_objx/lv_cb.c ****         }
 136              		.loc 1 331 0
 137 006c 3046     		mov	r0, r6
 138 006e D8F81C50 		ldr	r5, [r8, #28]
 139 0072 FFF7FEFF 		bl	lv_btn_get_state
 140              	.LVL17:
 141 0076 0146     		mov	r1, r0
 142 0078 2846     		mov	r0, r5
 143 007a FFF7FEFF 		bl	lv_btn_set_state
 144              	.LVL18:
 145 007e 2046     		mov	r0, r4
 146 0080 BDE8F081 		pop	{r4, r5, r6, r7, r8, pc}
 147              	.LVL19:
 148              	.L19:
 149              	.LBE23:
 150              	.LBB24:
 151              	.LBB25:
 152              	.LBB26:
 153              		.file 2 "..\\..\\..\\lvgl\\version_6.1.2\\lvgl\\src\\lv_objx\\lv_label.h"
   1:..\..\..\lvgl\version_6.1.2\lvgl\src\lv_objx/lv_label.h **** /**
   2:..\..\..\lvgl\version_6.1.2\lvgl\src\lv_objx/lv_label.h ****  * @file lv_rect.h
   3:..\..\..\lvgl\version_6.1.2\lvgl\src\lv_objx/lv_label.h ****  *
   4:..\..\..\lvgl\version_6.1.2\lvgl\src\lv_objx/lv_label.h ****  */
   5:..\..\..\lvgl\version_6.1.2\lvgl\src\lv_objx/lv_label.h **** 
   6:..\..\..\lvgl\version_6.1.2\lvgl\src\lv_objx/lv_label.h **** #ifndef LV_LABEL_H
   7:..\..\..\lvgl\version_6.1.2\lvgl\src\lv_objx/lv_label.h **** #define LV_LABEL_H
   8:..\..\..\lvgl\version_6.1.2\lvgl\src\lv_objx/lv_label.h **** 
   9:..\..\..\lvgl\version_6.1.2\lvgl\src\lv_objx/lv_label.h **** #ifdef __cplusplus
  10:..\..\..\lvgl\version_6.1.2\lvgl\src\lv_objx/lv_label.h **** extern "C" {
  11:..\..\..\lvgl\version_6.1.2\lvgl\src\lv_objx/lv_label.h **** #endif
  12:..\..\..\lvgl\version_6.1.2\lvgl\src\lv_objx/lv_label.h **** 
  13:..\..\..\lvgl\version_6.1.2\lvgl\src\lv_objx/lv_label.h **** /*********************
  14:..\..\..\lvgl\version_6.1.2\lvgl\src\lv_objx/lv_label.h ****  *      INCLUDES
  15:..\..\..\lvgl\version_6.1.2\lvgl\src\lv_objx/lv_label.h ****  *********************/
ARM GAS  C:\Users\pearlstl\AppData\Local\Temp\ccEDNCxX.s 			page 10


  16:..\..\..\lvgl\version_6.1.2\lvgl\src\lv_objx/lv_label.h **** #ifdef LV_CONF_INCLUDE_SIMPLE
  17:..\..\..\lvgl\version_6.1.2\lvgl\src\lv_objx/lv_label.h **** #include "lv_conf.h"
  18:..\..\..\lvgl\version_6.1.2\lvgl\src\lv_objx/lv_label.h **** #else
  19:..\..\..\lvgl\version_6.1.2\lvgl\src\lv_objx/lv_label.h **** #include "../../../lv_conf.h"
  20:..\..\..\lvgl\version_6.1.2\lvgl\src\lv_objx/lv_label.h **** #endif
  21:..\..\..\lvgl\version_6.1.2\lvgl\src\lv_objx/lv_label.h **** 
  22:..\..\..\lvgl\version_6.1.2\lvgl\src\lv_objx/lv_label.h **** #if LV_USE_LABEL != 0
  23:..\..\..\lvgl\version_6.1.2\lvgl\src\lv_objx/lv_label.h **** 
  24:..\..\..\lvgl\version_6.1.2\lvgl\src\lv_objx/lv_label.h **** #include <stdarg.h>
  25:..\..\..\lvgl\version_6.1.2\lvgl\src\lv_objx/lv_label.h **** #include "../lv_core/lv_obj.h"
  26:..\..\..\lvgl\version_6.1.2\lvgl\src\lv_objx/lv_label.h **** #include "../lv_font/lv_font.h"
  27:..\..\..\lvgl\version_6.1.2\lvgl\src\lv_objx/lv_label.h **** #include "../lv_font/lv_symbol_def.h"
  28:..\..\..\lvgl\version_6.1.2\lvgl\src\lv_objx/lv_label.h **** #include "../lv_misc/lv_txt.h"
  29:..\..\..\lvgl\version_6.1.2\lvgl\src\lv_objx/lv_label.h **** #include "../lv_draw/lv_draw.h"
  30:..\..\..\lvgl\version_6.1.2\lvgl\src\lv_objx/lv_label.h **** 
  31:..\..\..\lvgl\version_6.1.2\lvgl\src\lv_objx/lv_label.h **** /*********************
  32:..\..\..\lvgl\version_6.1.2\lvgl\src\lv_objx/lv_label.h ****  *      DEFINES
  33:..\..\..\lvgl\version_6.1.2\lvgl\src\lv_objx/lv_label.h ****  *********************/
  34:..\..\..\lvgl\version_6.1.2\lvgl\src\lv_objx/lv_label.h **** #define LV_LABEL_DOT_NUM 3
  35:..\..\..\lvgl\version_6.1.2\lvgl\src\lv_objx/lv_label.h **** #define LV_LABEL_POS_LAST 0xFFFF
  36:..\..\..\lvgl\version_6.1.2\lvgl\src\lv_objx/lv_label.h **** #define LV_LABEL_TEXT_SEL_OFF LV_DRAW_LABEL_NO_TXT_SEL
  37:..\..\..\lvgl\version_6.1.2\lvgl\src\lv_objx/lv_label.h **** 
  38:..\..\..\lvgl\version_6.1.2\lvgl\src\lv_objx/lv_label.h **** LV_EXPORT_CONST_INT(LV_LABEL_DOT_NUM);
  39:..\..\..\lvgl\version_6.1.2\lvgl\src\lv_objx/lv_label.h **** LV_EXPORT_CONST_INT(LV_LABEL_POS_LAST);
  40:..\..\..\lvgl\version_6.1.2\lvgl\src\lv_objx/lv_label.h **** LV_EXPORT_CONST_INT(LV_LABEL_TEXT_SEL_OFF);
  41:..\..\..\lvgl\version_6.1.2\lvgl\src\lv_objx/lv_label.h **** 
  42:..\..\..\lvgl\version_6.1.2\lvgl\src\lv_objx/lv_label.h **** /**********************
  43:..\..\..\lvgl\version_6.1.2\lvgl\src\lv_objx/lv_label.h ****  *      TYPEDEFS
  44:..\..\..\lvgl\version_6.1.2\lvgl\src\lv_objx/lv_label.h ****  **********************/
  45:..\..\..\lvgl\version_6.1.2\lvgl\src\lv_objx/lv_label.h **** 
  46:..\..\..\lvgl\version_6.1.2\lvgl\src\lv_objx/lv_label.h **** /** Long mode behaviors. Used in 'lv_label_ext_t' */
  47:..\..\..\lvgl\version_6.1.2\lvgl\src\lv_objx/lv_label.h **** enum {
  48:..\..\..\lvgl\version_6.1.2\lvgl\src\lv_objx/lv_label.h ****     LV_LABEL_LONG_EXPAND,    /**< Expand the object size to the text size*/
  49:..\..\..\lvgl\version_6.1.2\lvgl\src\lv_objx/lv_label.h ****     LV_LABEL_LONG_BREAK,     /**< Keep the object width, break the too long lines and expand the ob
  50:..\..\..\lvgl\version_6.1.2\lvgl\src\lv_objx/lv_label.h ****                                 height*/
  51:..\..\..\lvgl\version_6.1.2\lvgl\src\lv_objx/lv_label.h ****     LV_LABEL_LONG_DOT,       /**< Keep the size and write dots at the end if the text is too long*/
  52:..\..\..\lvgl\version_6.1.2\lvgl\src\lv_objx/lv_label.h ****     LV_LABEL_LONG_SROLL,      /**< Keep the size and roll the text back and forth*/
  53:..\..\..\lvgl\version_6.1.2\lvgl\src\lv_objx/lv_label.h ****     LV_LABEL_LONG_SROLL_CIRC, /**< Keep the size and roll the text circularly*/
  54:..\..\..\lvgl\version_6.1.2\lvgl\src\lv_objx/lv_label.h ****     LV_LABEL_LONG_CROP,      /**< Keep the size and crop the text out of it*/
  55:..\..\..\lvgl\version_6.1.2\lvgl\src\lv_objx/lv_label.h **** };
  56:..\..\..\lvgl\version_6.1.2\lvgl\src\lv_objx/lv_label.h **** typedef uint8_t lv_label_long_mode_t;
  57:..\..\..\lvgl\version_6.1.2\lvgl\src\lv_objx/lv_label.h **** 
  58:..\..\..\lvgl\version_6.1.2\lvgl\src\lv_objx/lv_label.h **** /** Label align policy*/
  59:..\..\..\lvgl\version_6.1.2\lvgl\src\lv_objx/lv_label.h **** enum {
  60:..\..\..\lvgl\version_6.1.2\lvgl\src\lv_objx/lv_label.h ****     LV_LABEL_ALIGN_LEFT, /**< Align text to left */
  61:..\..\..\lvgl\version_6.1.2\lvgl\src\lv_objx/lv_label.h ****     LV_LABEL_ALIGN_CENTER, /**< Align text to center */
  62:..\..\..\lvgl\version_6.1.2\lvgl\src\lv_objx/lv_label.h ****     LV_LABEL_ALIGN_RIGHT, /**< Align text to right */
  63:..\..\..\lvgl\version_6.1.2\lvgl\src\lv_objx/lv_label.h ****     LV_LABEL_ALIGN_AUTO, /**< Use LEFT or RIGHT depending on the direction of the text (LTR/RTL)*/
  64:..\..\..\lvgl\version_6.1.2\lvgl\src\lv_objx/lv_label.h **** };
  65:..\..\..\lvgl\version_6.1.2\lvgl\src\lv_objx/lv_label.h **** typedef uint8_t lv_label_align_t;
  66:..\..\..\lvgl\version_6.1.2\lvgl\src\lv_objx/lv_label.h **** 
  67:..\..\..\lvgl\version_6.1.2\lvgl\src\lv_objx/lv_label.h **** /** Data of label*/
  68:..\..\..\lvgl\version_6.1.2\lvgl\src\lv_objx/lv_label.h **** typedef struct
  69:..\..\..\lvgl\version_6.1.2\lvgl\src\lv_objx/lv_label.h **** {
  70:..\..\..\lvgl\version_6.1.2\lvgl\src\lv_objx/lv_label.h ****     /*Inherited from 'base_obj' so no inherited ext.*/ /*Ext. of ancestor*/
  71:..\..\..\lvgl\version_6.1.2\lvgl\src\lv_objx/lv_label.h ****     /*New data for this type */
  72:..\..\..\lvgl\version_6.1.2\lvgl\src\lv_objx/lv_label.h ****     char * text;        /*Text of the label*/
ARM GAS  C:\Users\pearlstl\AppData\Local\Temp\ccEDNCxX.s 			page 11


  73:..\..\..\lvgl\version_6.1.2\lvgl\src\lv_objx/lv_label.h **** 
  74:..\..\..\lvgl\version_6.1.2\lvgl\src\lv_objx/lv_label.h ****     union
  75:..\..\..\lvgl\version_6.1.2\lvgl\src\lv_objx/lv_label.h ****     {
  76:..\..\..\lvgl\version_6.1.2\lvgl\src\lv_objx/lv_label.h ****         char * tmp_ptr; /* Pointer to the allocated memory containing the character which are repla
  77:..\..\..\lvgl\version_6.1.2\lvgl\src\lv_objx/lv_label.h ****                            by the library)*/
  78:..\..\..\lvgl\version_6.1.2\lvgl\src\lv_objx/lv_label.h ****         char tmp[LV_LABEL_DOT_NUM + 1]; /* Directly store the characters if <=4 characters */
  79:..\..\..\lvgl\version_6.1.2\lvgl\src\lv_objx/lv_label.h ****     } dot;
  80:..\..\..\lvgl\version_6.1.2\lvgl\src\lv_objx/lv_label.h ****     uint16_t dot_end;  /*The text end position in dot mode (Handled by the library)*/
  81:..\..\..\lvgl\version_6.1.2\lvgl\src\lv_objx/lv_label.h ****     lv_point_t offset; /*Text draw position offset*/
  82:..\..\..\lvgl\version_6.1.2\lvgl\src\lv_objx/lv_label.h **** #if LV_LABEL_LONG_TXT_HINT
  83:..\..\..\lvgl\version_6.1.2\lvgl\src\lv_objx/lv_label.h ****     lv_draw_label_hint_t hint; /*Used to buffer info about large text*/
  84:..\..\..\lvgl\version_6.1.2\lvgl\src\lv_objx/lv_label.h **** #endif
  85:..\..\..\lvgl\version_6.1.2\lvgl\src\lv_objx/lv_label.h **** 
  86:..\..\..\lvgl\version_6.1.2\lvgl\src\lv_objx/lv_label.h **** #if LV_USE_ANIMATION
  87:..\..\..\lvgl\version_6.1.2\lvgl\src\lv_objx/lv_label.h ****     uint16_t anim_speed; /*Speed of scroll and roll animation in px/sec unit*/
  88:..\..\..\lvgl\version_6.1.2\lvgl\src\lv_objx/lv_label.h **** #endif
  89:..\..\..\lvgl\version_6.1.2\lvgl\src\lv_objx/lv_label.h **** 
  90:..\..\..\lvgl\version_6.1.2\lvgl\src\lv_objx/lv_label.h **** #if LV_LABEL_TEXT_SEL
  91:..\..\..\lvgl\version_6.1.2\lvgl\src\lv_objx/lv_label.h ****     uint16_t txt_sel_start; /*Left-most selection character*/
  92:..\..\..\lvgl\version_6.1.2\lvgl\src\lv_objx/lv_label.h ****     uint16_t txt_sel_end;   /*Right-most selection character*/
  93:..\..\..\lvgl\version_6.1.2\lvgl\src\lv_objx/lv_label.h **** #endif
  94:..\..\..\lvgl\version_6.1.2\lvgl\src\lv_objx/lv_label.h **** 
  95:..\..\..\lvgl\version_6.1.2\lvgl\src\lv_objx/lv_label.h ****     lv_label_long_mode_t long_mode : 3; /*Determinate what to do with the long texts*/
  96:..\..\..\lvgl\version_6.1.2\lvgl\src\lv_objx/lv_label.h ****     uint8_t static_txt : 1;             /*Flag to indicate the text is static*/
  97:..\..\..\lvgl\version_6.1.2\lvgl\src\lv_objx/lv_label.h ****     uint8_t align : 2;                  /*Align type from 'lv_label_align_t'*/
  98:..\..\..\lvgl\version_6.1.2\lvgl\src\lv_objx/lv_label.h ****     uint8_t recolor : 1;                /*Enable in-line letter re-coloring*/
  99:..\..\..\lvgl\version_6.1.2\lvgl\src\lv_objx/lv_label.h ****     uint8_t expand : 1;                 /*Ignore real width (used by the library with LV_LABEL_LONG
 100:..\..\..\lvgl\version_6.1.2\lvgl\src\lv_objx/lv_label.h ****     uint8_t body_draw : 1;              /*Draw background body*/
 101:..\..\..\lvgl\version_6.1.2\lvgl\src\lv_objx/lv_label.h ****     uint8_t dot_tmp_alloc : 1; /*True if dot_tmp has been allocated. False if dot_tmp directly hold
 102:..\..\..\lvgl\version_6.1.2\lvgl\src\lv_objx/lv_label.h ****                                   characters */
 103:..\..\..\lvgl\version_6.1.2\lvgl\src\lv_objx/lv_label.h **** } lv_label_ext_t;
 104:..\..\..\lvgl\version_6.1.2\lvgl\src\lv_objx/lv_label.h **** 
 105:..\..\..\lvgl\version_6.1.2\lvgl\src\lv_objx/lv_label.h **** /** Label styles*/
 106:..\..\..\lvgl\version_6.1.2\lvgl\src\lv_objx/lv_label.h **** enum {
 107:..\..\..\lvgl\version_6.1.2\lvgl\src\lv_objx/lv_label.h ****     LV_LABEL_STYLE_MAIN,
 108:..\..\..\lvgl\version_6.1.2\lvgl\src\lv_objx/lv_label.h **** };
 109:..\..\..\lvgl\version_6.1.2\lvgl\src\lv_objx/lv_label.h **** typedef uint8_t lv_label_style_t;
 110:..\..\..\lvgl\version_6.1.2\lvgl\src\lv_objx/lv_label.h **** 
 111:..\..\..\lvgl\version_6.1.2\lvgl\src\lv_objx/lv_label.h **** /**********************
 112:..\..\..\lvgl\version_6.1.2\lvgl\src\lv_objx/lv_label.h ****  * GLOBAL PROTOTYPES
 113:..\..\..\lvgl\version_6.1.2\lvgl\src\lv_objx/lv_label.h ****  **********************/
 114:..\..\..\lvgl\version_6.1.2\lvgl\src\lv_objx/lv_label.h **** 
 115:..\..\..\lvgl\version_6.1.2\lvgl\src\lv_objx/lv_label.h **** /**
 116:..\..\..\lvgl\version_6.1.2\lvgl\src\lv_objx/lv_label.h ****  * Create a label objects
 117:..\..\..\lvgl\version_6.1.2\lvgl\src\lv_objx/lv_label.h ****  * @param par pointer to an object, it will be the parent of the new label
 118:..\..\..\lvgl\version_6.1.2\lvgl\src\lv_objx/lv_label.h ****  * @param copy pointer to a button object, if not NULL then the new object will be copied from it
 119:..\..\..\lvgl\version_6.1.2\lvgl\src\lv_objx/lv_label.h ****  * @return pointer to the created button
 120:..\..\..\lvgl\version_6.1.2\lvgl\src\lv_objx/lv_label.h ****  */
 121:..\..\..\lvgl\version_6.1.2\lvgl\src\lv_objx/lv_label.h **** lv_obj_t * lv_label_create(lv_obj_t * par, const lv_obj_t * copy);
 122:..\..\..\lvgl\version_6.1.2\lvgl\src\lv_objx/lv_label.h **** 
 123:..\..\..\lvgl\version_6.1.2\lvgl\src\lv_objx/lv_label.h **** /*=====================
 124:..\..\..\lvgl\version_6.1.2\lvgl\src\lv_objx/lv_label.h ****  * Setter functions
 125:..\..\..\lvgl\version_6.1.2\lvgl\src\lv_objx/lv_label.h ****  *====================*/
 126:..\..\..\lvgl\version_6.1.2\lvgl\src\lv_objx/lv_label.h **** 
 127:..\..\..\lvgl\version_6.1.2\lvgl\src\lv_objx/lv_label.h **** /**
 128:..\..\..\lvgl\version_6.1.2\lvgl\src\lv_objx/lv_label.h ****  * Set a new text for a label. Memory will be allocated to store the text by the label.
 129:..\..\..\lvgl\version_6.1.2\lvgl\src\lv_objx/lv_label.h ****  * @param label pointer to a label object
ARM GAS  C:\Users\pearlstl\AppData\Local\Temp\ccEDNCxX.s 			page 12


 130:..\..\..\lvgl\version_6.1.2\lvgl\src\lv_objx/lv_label.h ****  * @param text '\0' terminated character string. NULL to refresh with the current text.
 131:..\..\..\lvgl\version_6.1.2\lvgl\src\lv_objx/lv_label.h ****  */
 132:..\..\..\lvgl\version_6.1.2\lvgl\src\lv_objx/lv_label.h **** void lv_label_set_text(lv_obj_t * label, const char * text);
 133:..\..\..\lvgl\version_6.1.2\lvgl\src\lv_objx/lv_label.h **** 
 134:..\..\..\lvgl\version_6.1.2\lvgl\src\lv_objx/lv_label.h **** /**
 135:..\..\..\lvgl\version_6.1.2\lvgl\src\lv_objx/lv_label.h ****  * Set a new formatted text for a label. Memory will be allocated to store the text by the label.
 136:..\..\..\lvgl\version_6.1.2\lvgl\src\lv_objx/lv_label.h ****  * @param label pointer to a label object
 137:..\..\..\lvgl\version_6.1.2\lvgl\src\lv_objx/lv_label.h ****  * @param fmt `printf`-like format
 138:..\..\..\lvgl\version_6.1.2\lvgl\src\lv_objx/lv_label.h ****  */
 139:..\..\..\lvgl\version_6.1.2\lvgl\src\lv_objx/lv_label.h **** void lv_label_set_text_fmt(lv_obj_t * label, const char * fmt, ...);
 140:..\..\..\lvgl\version_6.1.2\lvgl\src\lv_objx/lv_label.h **** 
 141:..\..\..\lvgl\version_6.1.2\lvgl\src\lv_objx/lv_label.h **** /**
 142:..\..\..\lvgl\version_6.1.2\lvgl\src\lv_objx/lv_label.h ****  * Set a new text for a label from a character array. The array don't has to be '\0' terminated.
 143:..\..\..\lvgl\version_6.1.2\lvgl\src\lv_objx/lv_label.h ****  * Memory will be allocated to store the array by the label.
 144:..\..\..\lvgl\version_6.1.2\lvgl\src\lv_objx/lv_label.h ****  * @param label pointer to a label object
 145:..\..\..\lvgl\version_6.1.2\lvgl\src\lv_objx/lv_label.h ****  * @param array array of characters or NULL to refresh the label
 146:..\..\..\lvgl\version_6.1.2\lvgl\src\lv_objx/lv_label.h ****  * @param size the size of 'array' in bytes
 147:..\..\..\lvgl\version_6.1.2\lvgl\src\lv_objx/lv_label.h ****  */
 148:..\..\..\lvgl\version_6.1.2\lvgl\src\lv_objx/lv_label.h **** void lv_label_set_array_text(lv_obj_t * label, const char * array, uint16_t size);
 149:..\..\..\lvgl\version_6.1.2\lvgl\src\lv_objx/lv_label.h **** 
 150:..\..\..\lvgl\version_6.1.2\lvgl\src\lv_objx/lv_label.h **** /**
 151:..\..\..\lvgl\version_6.1.2\lvgl\src\lv_objx/lv_label.h ****  * Set a static text. It will not be saved by the label so the 'text' variable
 152:..\..\..\lvgl\version_6.1.2\lvgl\src\lv_objx/lv_label.h ****  * has to be 'alive' while the label exist.
 153:..\..\..\lvgl\version_6.1.2\lvgl\src\lv_objx/lv_label.h ****  * @param label pointer to a label object
 154:..\..\..\lvgl\version_6.1.2\lvgl\src\lv_objx/lv_label.h ****  * @param text pointer to a text. NULL to refresh with the current text.
 155:..\..\..\lvgl\version_6.1.2\lvgl\src\lv_objx/lv_label.h ****  */
 156:..\..\..\lvgl\version_6.1.2\lvgl\src\lv_objx/lv_label.h **** void lv_label_set_static_text(lv_obj_t * label, const char * text);
 157:..\..\..\lvgl\version_6.1.2\lvgl\src\lv_objx/lv_label.h **** 
 158:..\..\..\lvgl\version_6.1.2\lvgl\src\lv_objx/lv_label.h **** /**
 159:..\..\..\lvgl\version_6.1.2\lvgl\src\lv_objx/lv_label.h ****  * Set the behavior of the label with longer text then the object size
 160:..\..\..\lvgl\version_6.1.2\lvgl\src\lv_objx/lv_label.h ****  * @param label pointer to a label object
 161:..\..\..\lvgl\version_6.1.2\lvgl\src\lv_objx/lv_label.h ****  * @param long_mode the new mode from 'lv_label_long_mode' enum.
 162:..\..\..\lvgl\version_6.1.2\lvgl\src\lv_objx/lv_label.h ****  *                  In LV_LONG_BREAK/LONG/ROLL the size of the label should be set AFTER this
 163:..\..\..\lvgl\version_6.1.2\lvgl\src\lv_objx/lv_label.h ****  * function
 164:..\..\..\lvgl\version_6.1.2\lvgl\src\lv_objx/lv_label.h ****  */
 165:..\..\..\lvgl\version_6.1.2\lvgl\src\lv_objx/lv_label.h **** void lv_label_set_long_mode(lv_obj_t * label, lv_label_long_mode_t long_mode);
 166:..\..\..\lvgl\version_6.1.2\lvgl\src\lv_objx/lv_label.h **** 
 167:..\..\..\lvgl\version_6.1.2\lvgl\src\lv_objx/lv_label.h **** /**
 168:..\..\..\lvgl\version_6.1.2\lvgl\src\lv_objx/lv_label.h ****  * Set the align of the label (left or center)
 169:..\..\..\lvgl\version_6.1.2\lvgl\src\lv_objx/lv_label.h ****  * @param label pointer to a label object
 170:..\..\..\lvgl\version_6.1.2\lvgl\src\lv_objx/lv_label.h ****  * @param align 'LV_LABEL_ALIGN_LEFT' or 'LV_LABEL_ALIGN_LEFT'
 171:..\..\..\lvgl\version_6.1.2\lvgl\src\lv_objx/lv_label.h ****  */
 172:..\..\..\lvgl\version_6.1.2\lvgl\src\lv_objx/lv_label.h **** void lv_label_set_align(lv_obj_t * label, lv_label_align_t align);
 173:..\..\..\lvgl\version_6.1.2\lvgl\src\lv_objx/lv_label.h **** 
 174:..\..\..\lvgl\version_6.1.2\lvgl\src\lv_objx/lv_label.h **** /**
 175:..\..\..\lvgl\version_6.1.2\lvgl\src\lv_objx/lv_label.h ****  * Enable the recoloring by in-line commands
 176:..\..\..\lvgl\version_6.1.2\lvgl\src\lv_objx/lv_label.h ****  * @param label pointer to a label object
 177:..\..\..\lvgl\version_6.1.2\lvgl\src\lv_objx/lv_label.h ****  * @param en true: enable recoloring, false: disable
 178:..\..\..\lvgl\version_6.1.2\lvgl\src\lv_objx/lv_label.h ****  */
 179:..\..\..\lvgl\version_6.1.2\lvgl\src\lv_objx/lv_label.h **** void lv_label_set_recolor(lv_obj_t * label, bool en);
 180:..\..\..\lvgl\version_6.1.2\lvgl\src\lv_objx/lv_label.h **** 
 181:..\..\..\lvgl\version_6.1.2\lvgl\src\lv_objx/lv_label.h **** /**
 182:..\..\..\lvgl\version_6.1.2\lvgl\src\lv_objx/lv_label.h ****  * Set the label to draw (or not draw) background specified in its style's body
 183:..\..\..\lvgl\version_6.1.2\lvgl\src\lv_objx/lv_label.h ****  * @param label pointer to a label object
 184:..\..\..\lvgl\version_6.1.2\lvgl\src\lv_objx/lv_label.h ****  * @param en true: draw body; false: don't draw body
 185:..\..\..\lvgl\version_6.1.2\lvgl\src\lv_objx/lv_label.h ****  */
 186:..\..\..\lvgl\version_6.1.2\lvgl\src\lv_objx/lv_label.h **** void lv_label_set_body_draw(lv_obj_t * label, bool en);
ARM GAS  C:\Users\pearlstl\AppData\Local\Temp\ccEDNCxX.s 			page 13


 187:..\..\..\lvgl\version_6.1.2\lvgl\src\lv_objx/lv_label.h **** 
 188:..\..\..\lvgl\version_6.1.2\lvgl\src\lv_objx/lv_label.h **** /**
 189:..\..\..\lvgl\version_6.1.2\lvgl\src\lv_objx/lv_label.h ****  * Set the label's animation speed in LV_LABEL_LONG_SROLL/SCROLL_CIRC modes
 190:..\..\..\lvgl\version_6.1.2\lvgl\src\lv_objx/lv_label.h ****  * @param label pointer to a label object
 191:..\..\..\lvgl\version_6.1.2\lvgl\src\lv_objx/lv_label.h ****  * @param anim_speed speed of animation in px/sec unit
 192:..\..\..\lvgl\version_6.1.2\lvgl\src\lv_objx/lv_label.h ****  */
 193:..\..\..\lvgl\version_6.1.2\lvgl\src\lv_objx/lv_label.h **** void lv_label_set_anim_speed(lv_obj_t * label, uint16_t anim_speed);
 194:..\..\..\lvgl\version_6.1.2\lvgl\src\lv_objx/lv_label.h **** 
 195:..\..\..\lvgl\version_6.1.2\lvgl\src\lv_objx/lv_label.h **** /**
 196:..\..\..\lvgl\version_6.1.2\lvgl\src\lv_objx/lv_label.h ****  * Set the style of an label
 197:..\..\..\lvgl\version_6.1.2\lvgl\src\lv_objx/lv_label.h ****  * @param label pointer to an label object
 198:..\..\..\lvgl\version_6.1.2\lvgl\src\lv_objx/lv_label.h ****  * @param type which style should be get (can be only `LV_LABEL_STYLE_MAIN`)
 199:..\..\..\lvgl\version_6.1.2\lvgl\src\lv_objx/lv_label.h ****  * @param style pointer to a style
 200:..\..\..\lvgl\version_6.1.2\lvgl\src\lv_objx/lv_label.h ****  */
 201:..\..\..\lvgl\version_6.1.2\lvgl\src\lv_objx/lv_label.h **** static inline void lv_label_set_style(lv_obj_t * label, lv_label_style_t type, const lv_style_t * s
 202:..\..\..\lvgl\version_6.1.2\lvgl\src\lv_objx/lv_label.h **** {
 203:..\..\..\lvgl\version_6.1.2\lvgl\src\lv_objx/lv_label.h ****     (void)type; /*Unused*/
 204:..\..\..\lvgl\version_6.1.2\lvgl\src\lv_objx/lv_label.h ****     lv_obj_set_style(label, style);
 205:..\..\..\lvgl\version_6.1.2\lvgl\src\lv_objx/lv_label.h **** }
 206:..\..\..\lvgl\version_6.1.2\lvgl\src\lv_objx/lv_label.h **** 
 207:..\..\..\lvgl\version_6.1.2\lvgl\src\lv_objx/lv_label.h **** /**
 208:..\..\..\lvgl\version_6.1.2\lvgl\src\lv_objx/lv_label.h ****  * @brief Set the selection start index.
 209:..\..\..\lvgl\version_6.1.2\lvgl\src\lv_objx/lv_label.h ****  * @param label pointer to a label object.
 210:..\..\..\lvgl\version_6.1.2\lvgl\src\lv_objx/lv_label.h ****  * @param index index to set. `LV_LABEL_TXT_SEL_OFF` to select nothing.
 211:..\..\..\lvgl\version_6.1.2\lvgl\src\lv_objx/lv_label.h ****  */
 212:..\..\..\lvgl\version_6.1.2\lvgl\src\lv_objx/lv_label.h **** void lv_label_set_text_sel_start(lv_obj_t * label, uint16_t index);
 213:..\..\..\lvgl\version_6.1.2\lvgl\src\lv_objx/lv_label.h **** 
 214:..\..\..\lvgl\version_6.1.2\lvgl\src\lv_objx/lv_label.h **** /**
 215:..\..\..\lvgl\version_6.1.2\lvgl\src\lv_objx/lv_label.h ****  * @brief Set the selection end index.
 216:..\..\..\lvgl\version_6.1.2\lvgl\src\lv_objx/lv_label.h ****  * @param label pointer to a label object.
 217:..\..\..\lvgl\version_6.1.2\lvgl\src\lv_objx/lv_label.h ****  * @param index index to set. `LV_LABEL_TXT_SEL_OFF` to select nothing.
 218:..\..\..\lvgl\version_6.1.2\lvgl\src\lv_objx/lv_label.h ****  */
 219:..\..\..\lvgl\version_6.1.2\lvgl\src\lv_objx/lv_label.h **** void lv_label_set_text_sel_end(lv_obj_t * label, uint16_t index);
 220:..\..\..\lvgl\version_6.1.2\lvgl\src\lv_objx/lv_label.h **** 
 221:..\..\..\lvgl\version_6.1.2\lvgl\src\lv_objx/lv_label.h **** /*=====================
 222:..\..\..\lvgl\version_6.1.2\lvgl\src\lv_objx/lv_label.h ****  * Getter functions
 223:..\..\..\lvgl\version_6.1.2\lvgl\src\lv_objx/lv_label.h ****  *====================*/
 224:..\..\..\lvgl\version_6.1.2\lvgl\src\lv_objx/lv_label.h **** 
 225:..\..\..\lvgl\version_6.1.2\lvgl\src\lv_objx/lv_label.h **** /**
 226:..\..\..\lvgl\version_6.1.2\lvgl\src\lv_objx/lv_label.h ****  * Get the text of a label
 227:..\..\..\lvgl\version_6.1.2\lvgl\src\lv_objx/lv_label.h ****  * @param label pointer to a label object
 228:..\..\..\lvgl\version_6.1.2\lvgl\src\lv_objx/lv_label.h ****  * @return the text of the label
 229:..\..\..\lvgl\version_6.1.2\lvgl\src\lv_objx/lv_label.h ****  */
 230:..\..\..\lvgl\version_6.1.2\lvgl\src\lv_objx/lv_label.h **** char * lv_label_get_text(const lv_obj_t * label);
 231:..\..\..\lvgl\version_6.1.2\lvgl\src\lv_objx/lv_label.h **** 
 232:..\..\..\lvgl\version_6.1.2\lvgl\src\lv_objx/lv_label.h **** /**
 233:..\..\..\lvgl\version_6.1.2\lvgl\src\lv_objx/lv_label.h ****  * Get the long mode of a label
 234:..\..\..\lvgl\version_6.1.2\lvgl\src\lv_objx/lv_label.h ****  * @param label pointer to a label object
 235:..\..\..\lvgl\version_6.1.2\lvgl\src\lv_objx/lv_label.h ****  * @return the long mode
 236:..\..\..\lvgl\version_6.1.2\lvgl\src\lv_objx/lv_label.h ****  */
 237:..\..\..\lvgl\version_6.1.2\lvgl\src\lv_objx/lv_label.h **** lv_label_long_mode_t lv_label_get_long_mode(const lv_obj_t * label);
 238:..\..\..\lvgl\version_6.1.2\lvgl\src\lv_objx/lv_label.h **** 
 239:..\..\..\lvgl\version_6.1.2\lvgl\src\lv_objx/lv_label.h **** /**
 240:..\..\..\lvgl\version_6.1.2\lvgl\src\lv_objx/lv_label.h ****  * Get the align attribute
 241:..\..\..\lvgl\version_6.1.2\lvgl\src\lv_objx/lv_label.h ****  * @param label pointer to a label object
 242:..\..\..\lvgl\version_6.1.2\lvgl\src\lv_objx/lv_label.h ****  * @return LV_LABEL_ALIGN_LEFT or LV_LABEL_ALIGN_CENTER
 243:..\..\..\lvgl\version_6.1.2\lvgl\src\lv_objx/lv_label.h ****  */
ARM GAS  C:\Users\pearlstl\AppData\Local\Temp\ccEDNCxX.s 			page 14


 244:..\..\..\lvgl\version_6.1.2\lvgl\src\lv_objx/lv_label.h **** lv_label_align_t lv_label_get_align(const lv_obj_t * label);
 245:..\..\..\lvgl\version_6.1.2\lvgl\src\lv_objx/lv_label.h **** 
 246:..\..\..\lvgl\version_6.1.2\lvgl\src\lv_objx/lv_label.h **** /**
 247:..\..\..\lvgl\version_6.1.2\lvgl\src\lv_objx/lv_label.h ****  * Get the recoloring attribute
 248:..\..\..\lvgl\version_6.1.2\lvgl\src\lv_objx/lv_label.h ****  * @param label pointer to a label object
 249:..\..\..\lvgl\version_6.1.2\lvgl\src\lv_objx/lv_label.h ****  * @return true: recoloring is enabled, false: disable
 250:..\..\..\lvgl\version_6.1.2\lvgl\src\lv_objx/lv_label.h ****  */
 251:..\..\..\lvgl\version_6.1.2\lvgl\src\lv_objx/lv_label.h **** bool lv_label_get_recolor(const lv_obj_t * label);
 252:..\..\..\lvgl\version_6.1.2\lvgl\src\lv_objx/lv_label.h **** 
 253:..\..\..\lvgl\version_6.1.2\lvgl\src\lv_objx/lv_label.h **** /**
 254:..\..\..\lvgl\version_6.1.2\lvgl\src\lv_objx/lv_label.h ****  * Get the body draw attribute
 255:..\..\..\lvgl\version_6.1.2\lvgl\src\lv_objx/lv_label.h ****  * @param label pointer to a label object
 256:..\..\..\lvgl\version_6.1.2\lvgl\src\lv_objx/lv_label.h ****  * @return true: draw body; false: don't draw body
 257:..\..\..\lvgl\version_6.1.2\lvgl\src\lv_objx/lv_label.h ****  */
 258:..\..\..\lvgl\version_6.1.2\lvgl\src\lv_objx/lv_label.h **** bool lv_label_get_body_draw(const lv_obj_t * label);
 259:..\..\..\lvgl\version_6.1.2\lvgl\src\lv_objx/lv_label.h **** 
 260:..\..\..\lvgl\version_6.1.2\lvgl\src\lv_objx/lv_label.h **** /**
 261:..\..\..\lvgl\version_6.1.2\lvgl\src\lv_objx/lv_label.h ****  * Get the label's animation speed in LV_LABEL_LONG_ROLL and SCROLL modes
 262:..\..\..\lvgl\version_6.1.2\lvgl\src\lv_objx/lv_label.h ****  * @param label pointer to a label object
 263:..\..\..\lvgl\version_6.1.2\lvgl\src\lv_objx/lv_label.h ****  * @return speed of animation in px/sec unit
 264:..\..\..\lvgl\version_6.1.2\lvgl\src\lv_objx/lv_label.h ****  */
 265:..\..\..\lvgl\version_6.1.2\lvgl\src\lv_objx/lv_label.h **** uint16_t lv_label_get_anim_speed(const lv_obj_t * label);
 266:..\..\..\lvgl\version_6.1.2\lvgl\src\lv_objx/lv_label.h **** 
 267:..\..\..\lvgl\version_6.1.2\lvgl\src\lv_objx/lv_label.h **** /**
 268:..\..\..\lvgl\version_6.1.2\lvgl\src\lv_objx/lv_label.h ****  * Get the relative x and y coordinates of a letter
 269:..\..\..\lvgl\version_6.1.2\lvgl\src\lv_objx/lv_label.h ****  * @param label pointer to a label object
 270:..\..\..\lvgl\version_6.1.2\lvgl\src\lv_objx/lv_label.h ****  * @param index index of the letter [0 ... text length]. Expressed in character index, not byte
 271:..\..\..\lvgl\version_6.1.2\lvgl\src\lv_objx/lv_label.h ****  * index (different in UTF-8)
 272:..\..\..\lvgl\version_6.1.2\lvgl\src\lv_objx/lv_label.h ****  * @param pos store the result here (E.g. index = 0 gives 0;0 coordinates)
 273:..\..\..\lvgl\version_6.1.2\lvgl\src\lv_objx/lv_label.h ****  */
 274:..\..\..\lvgl\version_6.1.2\lvgl\src\lv_objx/lv_label.h **** void lv_label_get_letter_pos(const lv_obj_t * label, uint16_t index, lv_point_t * pos);
 275:..\..\..\lvgl\version_6.1.2\lvgl\src\lv_objx/lv_label.h **** 
 276:..\..\..\lvgl\version_6.1.2\lvgl\src\lv_objx/lv_label.h **** /**
 277:..\..\..\lvgl\version_6.1.2\lvgl\src\lv_objx/lv_label.h ****  * Get the index of letter on a relative point of a label
 278:..\..\..\lvgl\version_6.1.2\lvgl\src\lv_objx/lv_label.h ****  * @param label pointer to label object
 279:..\..\..\lvgl\version_6.1.2\lvgl\src\lv_objx/lv_label.h ****  * @param pos pointer to point with coordinates on a the label
 280:..\..\..\lvgl\version_6.1.2\lvgl\src\lv_objx/lv_label.h ****  * @return the index of the letter on the 'pos_p' point (E.g. on 0;0 is the 0. letter)
 281:..\..\..\lvgl\version_6.1.2\lvgl\src\lv_objx/lv_label.h ****  * Expressed in character index and not byte index (different in UTF-8)
 282:..\..\..\lvgl\version_6.1.2\lvgl\src\lv_objx/lv_label.h ****  */
 283:..\..\..\lvgl\version_6.1.2\lvgl\src\lv_objx/lv_label.h **** uint16_t lv_label_get_letter_on(const lv_obj_t * label, lv_point_t * pos);
 284:..\..\..\lvgl\version_6.1.2\lvgl\src\lv_objx/lv_label.h **** 
 285:..\..\..\lvgl\version_6.1.2\lvgl\src\lv_objx/lv_label.h **** /**
 286:..\..\..\lvgl\version_6.1.2\lvgl\src\lv_objx/lv_label.h ****  * Check if a character is drawn under a point.
 287:..\..\..\lvgl\version_6.1.2\lvgl\src\lv_objx/lv_label.h ****  * @param label Label object
 288:..\..\..\lvgl\version_6.1.2\lvgl\src\lv_objx/lv_label.h ****  * @param pos Point to check for characte under
 289:..\..\..\lvgl\version_6.1.2\lvgl\src\lv_objx/lv_label.h ****  * @return whether a character is drawn under the point
 290:..\..\..\lvgl\version_6.1.2\lvgl\src\lv_objx/lv_label.h ****  */
 291:..\..\..\lvgl\version_6.1.2\lvgl\src\lv_objx/lv_label.h **** bool lv_label_is_char_under_pos(const lv_obj_t * label, lv_point_t * pos);
 292:..\..\..\lvgl\version_6.1.2\lvgl\src\lv_objx/lv_label.h **** 
 293:..\..\..\lvgl\version_6.1.2\lvgl\src\lv_objx/lv_label.h **** /**
 294:..\..\..\lvgl\version_6.1.2\lvgl\src\lv_objx/lv_label.h ****  * Get the style of an label object
 295:..\..\..\lvgl\version_6.1.2\lvgl\src\lv_objx/lv_label.h ****  * @param label pointer to an label object
 296:..\..\..\lvgl\version_6.1.2\lvgl\src\lv_objx/lv_label.h ****  * @param type which style should be get (can be only `LV_LABEL_STYLE_MAIN`)
 297:..\..\..\lvgl\version_6.1.2\lvgl\src\lv_objx/lv_label.h ****  * @return pointer to the label's style
 298:..\..\..\lvgl\version_6.1.2\lvgl\src\lv_objx/lv_label.h ****  */
 299:..\..\..\lvgl\version_6.1.2\lvgl\src\lv_objx/lv_label.h **** static inline const lv_style_t * lv_label_get_style(const lv_obj_t * label, lv_label_style_t type)
 300:..\..\..\lvgl\version_6.1.2\lvgl\src\lv_objx/lv_label.h **** {
ARM GAS  C:\Users\pearlstl\AppData\Local\Temp\ccEDNCxX.s 			page 15


 301:..\..\..\lvgl\version_6.1.2\lvgl\src\lv_objx/lv_label.h ****     (void)type; /*Unused*/
 302:..\..\..\lvgl\version_6.1.2\lvgl\src\lv_objx/lv_label.h ****     return lv_obj_get_style(label);
 154              		.loc 2 302 0
 155 0084 006A     		ldr	r0, [r0, #32]
 156              	.LVL20:
 157 0086 FFF7FEFF 		bl	lv_obj_get_style
 158              	.LVL21:
 159 008a 436B     		ldr	r3, [r0, #52]
 160              	.LBE26:
 161              	.LBE25:
 322:..\..\..\lvgl\version_6.1.2\lvgl\src\lv_objx/lv_cb.c ****                         lv_font_get_line_height(label_style->text.font));
 162              		.loc 1 322 0
 163 008c D8F81C00 		ldr	r0, [r8, #28]
 164              	.LVL22:
 165 0090 1A7A     		ldrb	r2, [r3, #8]	@ zero_extendqisi2
 166              	.LVL23:
 167 0092 1146     		mov	r1, r2
 168 0094 FFF7FEFF 		bl	lv_obj_set_size
 169              	.LVL24:
 170 0098 E8E7     		b	.L15
 171              	.L22:
 172 009a 00BF     		.align	2
 173              	.L21:
 174 009c 00000000 		.word	.LANCHOR0
 175 00a0 00000000 		.word	.LC0
 176              	.LBE24:
 177              		.cfi_endproc
 178              	.LFE58:
 179              		.size	lv_cb_signal, .-lv_cb_signal
 180              		.section	.text.lv_bullet_design,"ax",%progbits
 181              		.align	2
 182              		.thumb
 183              		.thumb_func
 184              		.type	lv_bullet_design, %function
 185              	lv_bullet_design:
 186              	.LFB57:
 270:..\..\..\lvgl\version_6.1.2\lvgl\src\lv_objx/lv_cb.c ****     if(mode == LV_DESIGN_COVER_CHK) {
 187              		.loc 1 270 0
 188              		.cfi_startproc
 189              		@ args = 0, pretend = 0, frame = 0
 190              		@ frame_needed = 0, uses_anonymous_args = 0
 191              	.LVL25:
 271:..\..\..\lvgl\version_6.1.2\lvgl\src\lv_objx/lv_cb.c ****         return ancestor_bullet_design(bullet, mask, mode);
 192              		.loc 1 271 0
 193 0000 022A     		cmp	r2, #2
 270:..\..\..\lvgl\version_6.1.2\lvgl\src\lv_objx/lv_cb.c ****     if(mode == LV_DESIGN_COVER_CHK) {
 194              		.loc 1 270 0
 195 0002 10B5     		push	{r4, lr}
 196              		.cfi_def_cfa_offset 8
 197              		.cfi_offset 4, -8
 198              		.cfi_offset 14, -4
 271:..\..\..\lvgl\version_6.1.2\lvgl\src\lv_objx/lv_cb.c ****         return ancestor_bullet_design(bullet, mask, mode);
 199              		.loc 1 271 0
 200 0004 09D0     		beq	.L30
 273:..\..\..\lvgl\version_6.1.2\lvgl\src\lv_objx/lv_cb.c **** #if LV_USE_GROUP
 201              		.loc 1 273 0
 202 0006 1AB1     		cbz	r2, .L29
ARM GAS  C:\Users\pearlstl\AppData\Local\Temp\ccEDNCxX.s 			page 16


 295:..\..\..\lvgl\version_6.1.2\lvgl\src\lv_objx/lv_cb.c ****         ancestor_bullet_design(bullet, mask, mode);
 203              		.loc 1 295 0
 204 0008 012A     		cmp	r2, #1
 205 000a 01D0     		beq	.L29
 300:..\..\..\lvgl\version_6.1.2\lvgl\src\lv_objx/lv_cb.c **** 
 206              		.loc 1 300 0
 207 000c 0120     		movs	r0, #1
 208              	.LVL26:
 209 000e 10BD     		pop	{r4, pc}
 210              	.LVL27:
 211              	.L29:
 296:..\..\..\lvgl\version_6.1.2\lvgl\src\lv_objx/lv_cb.c ****     }
 212              		.loc 1 296 0
 213 0010 044B     		ldr	r3, .L31
 214 0012 5B68     		ldr	r3, [r3, #4]
 215 0014 9847     		blx	r3
 216              	.LVL28:
 300:..\..\..\lvgl\version_6.1.2\lvgl\src\lv_objx/lv_cb.c **** 
 217              		.loc 1 300 0
 218 0016 0120     		movs	r0, #1
 219 0018 10BD     		pop	{r4, pc}
 220              	.LVL29:
 221              	.L30:
 222              	.LBB29:
 223              	.LBB30:
 272:..\..\..\lvgl\version_6.1.2\lvgl\src\lv_objx/lv_cb.c ****     } else if(mode == LV_DESIGN_DRAW_MAIN) {
 224              		.loc 1 272 0
 225 001a 024B     		ldr	r3, .L31
 226              	.LBE30:
 227              	.LBE29:
 300:..\..\..\lvgl\version_6.1.2\lvgl\src\lv_objx/lv_cb.c **** 
 228              		.loc 1 300 0
 229 001c BDE81040 		pop	{r4, lr}
 230              		.cfi_restore 14
 231              		.cfi_restore 4
 232              		.cfi_def_cfa_offset 0
 233              	.LBB32:
 234              	.LBB31:
 272:..\..\..\lvgl\version_6.1.2\lvgl\src\lv_objx/lv_cb.c ****     } else if(mode == LV_DESIGN_DRAW_MAIN) {
 235              		.loc 1 272 0
 236 0020 5B68     		ldr	r3, [r3, #4]
 237 0022 1847     		bx	r3
 238              	.LVL30:
 239              	.L32:
 240              		.align	2
 241              	.L31:
 242 0024 00000000 		.word	.LANCHOR0
 243              	.LBE31:
 244              	.LBE32:
 245              		.cfi_endproc
 246              	.LFE57:
 247              		.size	lv_bullet_design, .-lv_bullet_design
 248              		.section	.text.lv_cb_design,"ax",%progbits
 249              		.align	2
 250              		.thumb
 251              		.thumb_func
 252              		.type	lv_cb_design, %function
ARM GAS  C:\Users\pearlstl\AppData\Local\Temp\ccEDNCxX.s 			page 17


 253              	lv_cb_design:
 254              	.LFB56:
 237:..\..\..\lvgl\version_6.1.2\lvgl\src\lv_objx/lv_cb.c ****     bool result = true;
 255              		.loc 1 237 0
 256              		.cfi_startproc
 257              		@ args = 0, pretend = 0, frame = 0
 258              		@ frame_needed = 0, uses_anonymous_args = 0
 259              	.LVL31:
 240:..\..\..\lvgl\version_6.1.2\lvgl\src\lv_objx/lv_cb.c ****         /*Return false if the object is not covers the mask_p area*/
 260              		.loc 1 240 0
 261 0000 022A     		cmp	r2, #2
 262 0002 01D0     		beq	.L35
 243:..\..\..\lvgl\version_6.1.2\lvgl\src\lv_objx/lv_cb.c ****         lv_cb_ext_t * cb_ext      = lv_obj_get_ext_attr(cb);
 263              		.loc 1 243 0
 264 0004 012A     		cmp	r2, #1
 265 0006 02D9     		bls	.L37
 266              	.L35:
 253:..\..\..\lvgl\version_6.1.2\lvgl\src\lv_objx/lv_cb.c ****     }
 267              		.loc 1 253 0
 268 0008 0E4B     		ldr	r3, .L38
 269 000a 9B68     		ldr	r3, [r3, #8]
 270 000c 1847     		bx	r3
 271              	.LVL32:
 272              	.L37:
 237:..\..\..\lvgl\version_6.1.2\lvgl\src\lv_objx/lv_cb.c ****     bool result = true;
 273              		.loc 1 237 0
 274 000e 2DE9F041 		push	{r4, r5, r6, r7, r8, lr}
 275              		.cfi_def_cfa_offset 24
 276              		.cfi_offset 4, -24
 277              		.cfi_offset 5, -20
 278              		.cfi_offset 6, -16
 279              		.cfi_offset 7, -12
 280              		.cfi_offset 8, -8
 281              		.cfi_offset 14, -4
 282 0012 1446     		mov	r4, r2
 283 0014 0E46     		mov	r6, r1
 284 0016 0546     		mov	r5, r0
 285              	.LBB37:
 244:..\..\..\lvgl\version_6.1.2\lvgl\src\lv_objx/lv_cb.c ****         lv_btn_ext_t * bullet_ext = lv_obj_get_ext_attr(cb_ext->bullet);
 286              		.loc 1 244 0
 287 0018 FFF7FEFF 		bl	lv_obj_get_ext_attr
 288              	.LVL33:
 289 001c 0746     		mov	r7, r0
 290              	.LVL34:
 245:..\..\..\lvgl\version_6.1.2\lvgl\src\lv_objx/lv_cb.c **** 
 291              		.loc 1 245 0
 292 001e C069     		ldr	r0, [r0, #28]
 293              	.LVL35:
 294 0020 FFF7FEFF 		bl	lv_obj_get_ext_attr
 295              	.LVL36:
 248:..\..\..\lvgl\version_6.1.2\lvgl\src\lv_objx/lv_cb.c **** 
 296              		.loc 1 248 0
 297 0024 3A7E     		ldrb	r2, [r7, #24]	@ zero_extendqisi2
 298 0026 077E     		ldrb	r7, [r0, #24]	@ zero_extendqisi2
 299              	.LVL37:
 250:..\..\..\lvgl\version_6.1.2\lvgl\src\lv_objx/lv_cb.c **** 
 300              		.loc 1 250 0
ARM GAS  C:\Users\pearlstl\AppData\Local\Temp\ccEDNCxX.s 			page 18


 301 0028 DFF818E0 		ldr	lr, .L38
 245:..\..\..\lvgl\version_6.1.2\lvgl\src\lv_objx/lv_cb.c **** 
 302              		.loc 1 245 0
 303 002c 0346     		mov	r3, r0
 304              	.LVL38:
 248:..\..\..\lvgl\version_6.1.2\lvgl\src\lv_objx/lv_cb.c **** 
 305              		.loc 1 248 0
 306 002e 62F30207 		bfi	r7, r2, #0, #3
 307 0032 1F76     		strb	r7, [r3, #24]
 250:..\..\..\lvgl\version_6.1.2\lvgl\src\lv_objx/lv_cb.c **** 
 308              		.loc 1 250 0
 309 0034 2246     		mov	r2, r4
 310 0036 3146     		mov	r1, r6
 311 0038 2846     		mov	r0, r5
 312              	.LVL39:
 313 003a DEF80830 		ldr	r3, [lr, #8]
 314              	.LVL40:
 315              	.LBE37:
 257:..\..\..\lvgl\version_6.1.2\lvgl\src\lv_objx/lv_cb.c **** 
 316              		.loc 1 257 0
 317 003e BDE8F041 		pop	{r4, r5, r6, r7, r8, lr}
 318              		.cfi_restore 14
 319              		.cfi_restore 8
 320              		.cfi_restore 7
 321              		.cfi_restore 6
 322              		.cfi_restore 5
 323              		.cfi_restore 4
 324              		.cfi_def_cfa_offset 0
 325              	.LVL41:
 326              	.LBB38:
 250:..\..\..\lvgl\version_6.1.2\lvgl\src\lv_objx/lv_cb.c **** 
 327              		.loc 1 250 0
 328 0042 1847     		bx	r3
 329              	.LVL42:
 330              	.L39:
 331              		.align	2
 332              	.L38:
 333 0044 00000000 		.word	.LANCHOR0
 334              	.LBE38:
 335              		.cfi_endproc
 336              	.LFE56:
 337              		.size	lv_cb_design, .-lv_cb_design
 338              		.section	.text.lv_cb_create,"ax",%progbits
 339              		.align	2
 340              		.global	lv_cb_create
 341              		.thumb
 342              		.thumb_func
 343              		.type	lv_cb_create, %function
 344              	lv_cb_create:
 345              	.LFB50:
  54:..\..\..\lvgl\version_6.1.2\lvgl\src\lv_objx/lv_cb.c **** 
 346              		.loc 1 54 0
 347              		.cfi_startproc
 348              		@ args = 0, pretend = 0, frame = 0
 349              		@ frame_needed = 0, uses_anonymous_args = 0
 350              	.LVL43:
 351 0000 2DE9F041 		push	{r4, r5, r6, r7, r8, lr}
ARM GAS  C:\Users\pearlstl\AppData\Local\Temp\ccEDNCxX.s 			page 19


 352              		.cfi_def_cfa_offset 24
 353              		.cfi_offset 4, -24
 354              		.cfi_offset 5, -20
 355              		.cfi_offset 6, -16
 356              		.cfi_offset 7, -12
 357              		.cfi_offset 8, -8
 358              		.cfi_offset 14, -4
 359 0004 82B0     		sub	sp, sp, #8
 360              		.cfi_def_cfa_offset 32
  54:..\..\..\lvgl\version_6.1.2\lvgl\src\lv_objx/lv_cb.c **** 
 361              		.loc 1 54 0
 362 0006 0F46     		mov	r7, r1
  59:..\..\..\lvgl\version_6.1.2\lvgl\src\lv_objx/lv_cb.c ****     LV_ASSERT_MEM(new_cb);
 363              		.loc 1 59 0
 364 0008 FFF7FEFF 		bl	lv_btn_create
 365              	.LVL44:
  61:..\..\..\lvgl\version_6.1.2\lvgl\src\lv_objx/lv_cb.c **** 
 366              		.loc 1 61 0
 367 000c 0028     		cmp	r0, #0
 368 000e 00F0C680 		beq	.L45
  63:..\..\..\lvgl\version_6.1.2\lvgl\src\lv_objx/lv_cb.c ****     if(ancestor_bg_design == NULL) ancestor_bg_design = lv_obj_get_design_cb(new_cb);
 369              		.loc 1 63 0
 370 0012 794E     		ldr	r6, .L58
 371 0014 3368     		ldr	r3, [r6]
 372 0016 0446     		mov	r4, r0
 373 0018 002B     		cmp	r3, #0
 374 001a 00F0B780 		beq	.L54
 375              	.LVL45:
 376              	.L43:
  64:..\..\..\lvgl\version_6.1.2\lvgl\src\lv_objx/lv_cb.c **** 
 377              		.loc 1 64 0
 378 001e B368     		ldr	r3, [r6, #8]
 379 0020 754D     		ldr	r5, .L58
 380 0022 002B     		cmp	r3, #0
 381 0024 00F0B680 		beq	.L55
 382              	.L44:
  66:..\..\..\lvgl\version_6.1.2\lvgl\src\lv_objx/lv_cb.c ****     LV_ASSERT_MEM(ext);
 383              		.loc 1 66 0
 384 0028 2421     		movs	r1, #36
 385 002a 2046     		mov	r0, r4
 386 002c FFF7FEFF 		bl	lv_obj_allocate_ext_attr
 387              	.LVL46:
  68:..\..\..\lvgl\version_6.1.2\lvgl\src\lv_objx/lv_cb.c **** 
 388              		.loc 1 68 0
 389 0030 0546     		mov	r5, r0
 390 0032 0028     		cmp	r0, #0
 391 0034 00F0B380 		beq	.L45
  70:..\..\..\lvgl\version_6.1.2\lvgl\src\lv_objx/lv_cb.c ****     ext->label  = NULL;
 392              		.loc 1 70 0
 393 0038 0023     		movs	r3, #0
 394 003a C361     		str	r3, [r0, #28]
  71:..\..\..\lvgl\version_6.1.2\lvgl\src\lv_objx/lv_cb.c **** 
 395              		.loc 1 71 0
 396 003c 0362     		str	r3, [r0, #32]
  73:..\..\..\lvgl\version_6.1.2\lvgl\src\lv_objx/lv_cb.c ****     lv_obj_set_design_cb(new_cb, lv_cb_design);
 397              		.loc 1 73 0
 398 003e 6F49     		ldr	r1, .L58+4
ARM GAS  C:\Users\pearlstl\AppData\Local\Temp\ccEDNCxX.s 			page 20


 399 0040 2046     		mov	r0, r4
 400              	.LVL47:
 401 0042 FFF7FEFF 		bl	lv_obj_set_signal_cb
 402              	.LVL48:
  74:..\..\..\lvgl\version_6.1.2\lvgl\src\lv_objx/lv_cb.c **** 
 403              		.loc 1 74 0
 404 0046 6E49     		ldr	r1, .L58+8
 405 0048 2046     		mov	r0, r4
 406 004a FFF7FEFF 		bl	lv_obj_set_design_cb
 407              	.LVL49:
  77:..\..\..\lvgl\version_6.1.2\lvgl\src\lv_objx/lv_cb.c ****         ext->bullet = lv_btn_create(new_cb, NULL);
 408              		.loc 1 77 0
 409 004e C7B1     		cbz	r7, .L56
 410              	.LBB64:
 104:..\..\..\lvgl\version_6.1.2\lvgl\src\lv_objx/lv_cb.c ****         ext->bullet            = lv_btn_create(new_cb, copy_ext->bullet);
 411              		.loc 1 104 0
 412 0050 3846     		mov	r0, r7
 413 0052 FFF7FEFF 		bl	lv_obj_get_ext_attr
 414              	.LVL50:
 415 0056 0646     		mov	r6, r0
 416              	.LVL51:
 105:..\..\..\lvgl\version_6.1.2\lvgl\src\lv_objx/lv_cb.c ****         ext->label             = lv_label_create(new_cb, copy_ext->label);
 417              		.loc 1 105 0
 418 0058 2046     		mov	r0, r4
 419              	.LVL52:
 420 005a F169     		ldr	r1, [r6, #28]
 421 005c FFF7FEFF 		bl	lv_btn_create
 422              	.LVL53:
 106:..\..\..\lvgl\version_6.1.2\lvgl\src\lv_objx/lv_cb.c **** 
 423              		.loc 1 106 0
 424 0060 316A     		ldr	r1, [r6, #32]
 105:..\..\..\lvgl\version_6.1.2\lvgl\src\lv_objx/lv_cb.c ****         ext->label             = lv_label_create(new_cb, copy_ext->label);
 425              		.loc 1 105 0
 426 0062 E861     		str	r0, [r5, #28]
 106:..\..\..\lvgl\version_6.1.2\lvgl\src\lv_objx/lv_cb.c **** 
 427              		.loc 1 106 0
 428 0064 2046     		mov	r0, r4
 429 0066 FFF7FEFF 		bl	lv_label_create
 430              	.LVL54:
 431 006a 2862     		str	r0, [r5, #32]
 109:..\..\..\lvgl\version_6.1.2\lvgl\src\lv_objx/lv_cb.c ****     }
 432              		.loc 1 109 0
 433 006c 2046     		mov	r0, r4
 434 006e FFF7FEFF 		bl	lv_obj_refresh_style
 435              	.LVL55:
 436              	.L49:
 437              	.LBE64:
 112:..\..\..\lvgl\version_6.1.2\lvgl\src\lv_objx/lv_cb.c **** 
 438              		.loc 1 112 0
 439 0072 E869     		ldr	r0, [r5, #28]
 440 0074 6349     		ldr	r1, .L58+12
 441 0076 FFF7FEFF 		bl	lv_obj_set_design_cb
 442              	.LVL56:
 116:..\..\..\lvgl\version_6.1.2\lvgl\src\lv_objx/lv_cb.c **** }
 443              		.loc 1 116 0
 444 007a 2046     		mov	r0, r4
 445              	.LVL57:
ARM GAS  C:\Users\pearlstl\AppData\Local\Temp\ccEDNCxX.s 			page 21


 446              	.L42:
 117:..\..\..\lvgl\version_6.1.2\lvgl\src\lv_objx/lv_cb.c **** 
 447              		.loc 1 117 0
 448 007c 02B0     		add	sp, sp, #8
 449              		.cfi_remember_state
 450              		.cfi_def_cfa_offset 24
 451              		@ sp needed
 452 007e BDE8F081 		pop	{r4, r5, r6, r7, r8, pc}
 453              	.LVL58:
 454              	.L56:
 455              		.cfi_restore_state
 456              	.LBB65:
  78:..\..\..\lvgl\version_6.1.2\lvgl\src\lv_objx/lv_cb.c ****         if(ancestor_bullet_design == NULL) ancestor_bullet_design = lv_obj_get_design_cb(ext->bulle
 457              		.loc 1 78 0
 458 0082 3946     		mov	r1, r7
 459 0084 2046     		mov	r0, r4
 460 0086 FFF7FEFF 		bl	lv_btn_create
 461              	.LVL59:
  79:..\..\..\lvgl\version_6.1.2\lvgl\src\lv_objx/lv_cb.c ****         lv_obj_set_click(ext->bullet, false);
 462              		.loc 1 79 0
 463 008a 7268     		ldr	r2, [r6, #4]
  78:..\..\..\lvgl\version_6.1.2\lvgl\src\lv_objx/lv_cb.c ****         if(ancestor_bullet_design == NULL) ancestor_bullet_design = lv_obj_get_design_cb(ext->bulle
 464              		.loc 1 78 0
 465 008c E861     		str	r0, [r5, #28]
 466 008e 0346     		mov	r3, r0
  79:..\..\..\lvgl\version_6.1.2\lvgl\src\lv_objx/lv_cb.c ****         lv_obj_set_click(ext->bullet, false);
 467              		.loc 1 79 0
 468 0090 594E     		ldr	r6, .L58
 469 0092 002A     		cmp	r2, #0
 470 0094 00F0AA80 		beq	.L57
 471              	.L47:
  80:..\..\..\lvgl\version_6.1.2\lvgl\src\lv_objx/lv_cb.c **** 
 472              		.loc 1 80 0
 473 0098 1846     		mov	r0, r3
 474 009a 0021     		movs	r1, #0
 475 009c FFF7FEFF 		bl	lv_obj_set_click
 476              	.LVL60:
  82:..\..\..\lvgl\version_6.1.2\lvgl\src\lv_objx/lv_cb.c **** 
 477              		.loc 1 82 0
 478 00a0 0021     		movs	r1, #0
 479 00a2 2046     		mov	r0, r4
 480 00a4 FFF7FEFF 		bl	lv_label_create
 481              	.LVL61:
 482 00a8 2862     		str	r0, [r5, #32]
 483              	.LVL62:
 484              	.LBB66:
 485              	.LBB67:
 133:..\..\..\lvgl\version_6.1.2\lvgl\src\lv_objx/lv_cb.c ****     lv_label_set_text(ext->label, txt);
 486              		.loc 1 133 0
 487 00aa 2046     		mov	r0, r4
 488 00ac FFF7FEFF 		bl	lv_obj_get_ext_attr
 489              	.LVL63:
 134:..\..\..\lvgl\version_6.1.2\lvgl\src\lv_objx/lv_cb.c **** }
 490              		.loc 1 134 0
 491 00b0 5549     		ldr	r1, .L58+16
 492 00b2 006A     		ldr	r0, [r0, #32]
 493              	.LVL64:
ARM GAS  C:\Users\pearlstl\AppData\Local\Temp\ccEDNCxX.s 			page 22


 494 00b4 FFF7FEFF 		bl	lv_label_set_text
 495              	.LVL65:
 496              	.LBE67:
 497              	.LBE66:
 498              	.LBB68:
 499              	.LBB69:
 500              	.LBB70:
 501              		.file 3 "..\\..\\..\\lvgl\\version_6.1.2\\lvgl\\src\\lv_objx\\lv_cont.h"
   1:..\..\..\lvgl\version_6.1.2\lvgl\src\lv_objx/lv_cont.h **** /**
   2:..\..\..\lvgl\version_6.1.2\lvgl\src\lv_objx/lv_cont.h ****  * @file lv_cont.h
   3:..\..\..\lvgl\version_6.1.2\lvgl\src\lv_objx/lv_cont.h ****  *
   4:..\..\..\lvgl\version_6.1.2\lvgl\src\lv_objx/lv_cont.h ****  */
   5:..\..\..\lvgl\version_6.1.2\lvgl\src\lv_objx/lv_cont.h **** 
   6:..\..\..\lvgl\version_6.1.2\lvgl\src\lv_objx/lv_cont.h **** #ifndef LV_CONT_H
   7:..\..\..\lvgl\version_6.1.2\lvgl\src\lv_objx/lv_cont.h **** #define LV_CONT_H
   8:..\..\..\lvgl\version_6.1.2\lvgl\src\lv_objx/lv_cont.h **** 
   9:..\..\..\lvgl\version_6.1.2\lvgl\src\lv_objx/lv_cont.h **** #ifdef __cplusplus
  10:..\..\..\lvgl\version_6.1.2\lvgl\src\lv_objx/lv_cont.h **** extern "C" {
  11:..\..\..\lvgl\version_6.1.2\lvgl\src\lv_objx/lv_cont.h **** #endif
  12:..\..\..\lvgl\version_6.1.2\lvgl\src\lv_objx/lv_cont.h **** 
  13:..\..\..\lvgl\version_6.1.2\lvgl\src\lv_objx/lv_cont.h **** /*********************
  14:..\..\..\lvgl\version_6.1.2\lvgl\src\lv_objx/lv_cont.h ****  *      INCLUDES
  15:..\..\..\lvgl\version_6.1.2\lvgl\src\lv_objx/lv_cont.h ****  *********************/
  16:..\..\..\lvgl\version_6.1.2\lvgl\src\lv_objx/lv_cont.h **** #ifdef LV_CONF_INCLUDE_SIMPLE
  17:..\..\..\lvgl\version_6.1.2\lvgl\src\lv_objx/lv_cont.h **** #include "lv_conf.h"
  18:..\..\..\lvgl\version_6.1.2\lvgl\src\lv_objx/lv_cont.h **** #else
  19:..\..\..\lvgl\version_6.1.2\lvgl\src\lv_objx/lv_cont.h **** #include "../../../lv_conf.h"
  20:..\..\..\lvgl\version_6.1.2\lvgl\src\lv_objx/lv_cont.h **** #endif
  21:..\..\..\lvgl\version_6.1.2\lvgl\src\lv_objx/lv_cont.h **** 
  22:..\..\..\lvgl\version_6.1.2\lvgl\src\lv_objx/lv_cont.h **** #if LV_USE_CONT != 0
  23:..\..\..\lvgl\version_6.1.2\lvgl\src\lv_objx/lv_cont.h **** 
  24:..\..\..\lvgl\version_6.1.2\lvgl\src\lv_objx/lv_cont.h **** #include "../lv_core/lv_obj.h"
  25:..\..\..\lvgl\version_6.1.2\lvgl\src\lv_objx/lv_cont.h **** 
  26:..\..\..\lvgl\version_6.1.2\lvgl\src\lv_objx/lv_cont.h **** /*********************
  27:..\..\..\lvgl\version_6.1.2\lvgl\src\lv_objx/lv_cont.h ****  *      DEFINES
  28:..\..\..\lvgl\version_6.1.2\lvgl\src\lv_objx/lv_cont.h ****  *********************/
  29:..\..\..\lvgl\version_6.1.2\lvgl\src\lv_objx/lv_cont.h **** 
  30:..\..\..\lvgl\version_6.1.2\lvgl\src\lv_objx/lv_cont.h **** /**********************
  31:..\..\..\lvgl\version_6.1.2\lvgl\src\lv_objx/lv_cont.h ****  *      TYPEDEFS
  32:..\..\..\lvgl\version_6.1.2\lvgl\src\lv_objx/lv_cont.h ****  **********************/
  33:..\..\..\lvgl\version_6.1.2\lvgl\src\lv_objx/lv_cont.h **** 
  34:..\..\..\lvgl\version_6.1.2\lvgl\src\lv_objx/lv_cont.h **** /** Container layout options*/
  35:..\..\..\lvgl\version_6.1.2\lvgl\src\lv_objx/lv_cont.h **** enum {
  36:..\..\..\lvgl\version_6.1.2\lvgl\src\lv_objx/lv_cont.h ****     LV_LAYOUT_OFF = 0, /**< No layout */
  37:..\..\..\lvgl\version_6.1.2\lvgl\src\lv_objx/lv_cont.h ****     LV_LAYOUT_CENTER, /**< Center objects */
  38:..\..\..\lvgl\version_6.1.2\lvgl\src\lv_objx/lv_cont.h ****     LV_LAYOUT_COL_L,  /**< Column left align*/
  39:..\..\..\lvgl\version_6.1.2\lvgl\src\lv_objx/lv_cont.h ****     LV_LAYOUT_COL_M,  /**< Column middle align*/
  40:..\..\..\lvgl\version_6.1.2\lvgl\src\lv_objx/lv_cont.h ****     LV_LAYOUT_COL_R,  /**< Column right align*/
  41:..\..\..\lvgl\version_6.1.2\lvgl\src\lv_objx/lv_cont.h ****     LV_LAYOUT_ROW_T,  /**< Row top align*/
  42:..\..\..\lvgl\version_6.1.2\lvgl\src\lv_objx/lv_cont.h ****     LV_LAYOUT_ROW_M,  /**< Row middle align*/
  43:..\..\..\lvgl\version_6.1.2\lvgl\src\lv_objx/lv_cont.h ****     LV_LAYOUT_ROW_B,  /**< Row bottom align*/
  44:..\..\..\lvgl\version_6.1.2\lvgl\src\lv_objx/lv_cont.h ****     LV_LAYOUT_PRETTY, /**< Put as many object as possible in row and begin a new row*/
  45:..\..\..\lvgl\version_6.1.2\lvgl\src\lv_objx/lv_cont.h ****     LV_LAYOUT_GRID,   /**< Align same-sized object into a grid*/
  46:..\..\..\lvgl\version_6.1.2\lvgl\src\lv_objx/lv_cont.h ****     _LV_LAYOUT_NUM
  47:..\..\..\lvgl\version_6.1.2\lvgl\src\lv_objx/lv_cont.h **** };
  48:..\..\..\lvgl\version_6.1.2\lvgl\src\lv_objx/lv_cont.h **** typedef uint8_t lv_layout_t;
  49:..\..\..\lvgl\version_6.1.2\lvgl\src\lv_objx/lv_cont.h **** 
ARM GAS  C:\Users\pearlstl\AppData\Local\Temp\ccEDNCxX.s 			page 23


  50:..\..\..\lvgl\version_6.1.2\lvgl\src\lv_objx/lv_cont.h **** /**
  51:..\..\..\lvgl\version_6.1.2\lvgl\src\lv_objx/lv_cont.h ****  * How to resize the container around the children.
  52:..\..\..\lvgl\version_6.1.2\lvgl\src\lv_objx/lv_cont.h ****  */
  53:..\..\..\lvgl\version_6.1.2\lvgl\src\lv_objx/lv_cont.h **** enum {
  54:..\..\..\lvgl\version_6.1.2\lvgl\src\lv_objx/lv_cont.h ****     LV_FIT_NONE,  /**< Do not change the size automatically*/
  55:..\..\..\lvgl\version_6.1.2\lvgl\src\lv_objx/lv_cont.h ****     LV_FIT_TIGHT, /**< Shrink wrap around the children */
  56:..\..\..\lvgl\version_6.1.2\lvgl\src\lv_objx/lv_cont.h ****     LV_FIT_FLOOD, /**< Align the size to the parent's edge*/
  57:..\..\..\lvgl\version_6.1.2\lvgl\src\lv_objx/lv_cont.h ****     LV_FIT_FILL,  /**< Align the size to the parent's edge first but if there is an object out of i
  58:..\..\..\lvgl\version_6.1.2\lvgl\src\lv_objx/lv_cont.h ****                      then get larger */
  59:..\..\..\lvgl\version_6.1.2\lvgl\src\lv_objx/lv_cont.h ****     _LV_FIT_NUM
  60:..\..\..\lvgl\version_6.1.2\lvgl\src\lv_objx/lv_cont.h **** };
  61:..\..\..\lvgl\version_6.1.2\lvgl\src\lv_objx/lv_cont.h **** typedef uint8_t lv_fit_t;
  62:..\..\..\lvgl\version_6.1.2\lvgl\src\lv_objx/lv_cont.h **** 
  63:..\..\..\lvgl\version_6.1.2\lvgl\src\lv_objx/lv_cont.h **** typedef struct
  64:..\..\..\lvgl\version_6.1.2\lvgl\src\lv_objx/lv_cont.h **** {
  65:..\..\..\lvgl\version_6.1.2\lvgl\src\lv_objx/lv_cont.h ****     /*Inherited from 'base_obj' so no inherited ext. */ /*Ext. of ancestor*/
  66:..\..\..\lvgl\version_6.1.2\lvgl\src\lv_objx/lv_cont.h ****     /*New data for this type */
  67:..\..\..\lvgl\version_6.1.2\lvgl\src\lv_objx/lv_cont.h ****     uint8_t layout : 4;     /*A layout from 'lv_layout_t' enum*/
  68:..\..\..\lvgl\version_6.1.2\lvgl\src\lv_objx/lv_cont.h ****     uint8_t fit_left : 2;   /*A fit type from `lv_fit_t` enum */
  69:..\..\..\lvgl\version_6.1.2\lvgl\src\lv_objx/lv_cont.h ****     uint8_t fit_right : 2;  /*A fit type from `lv_fit_t` enum */
  70:..\..\..\lvgl\version_6.1.2\lvgl\src\lv_objx/lv_cont.h ****     uint8_t fit_top : 2;    /*A fit type from `lv_fit_t` enum */
  71:..\..\..\lvgl\version_6.1.2\lvgl\src\lv_objx/lv_cont.h ****     uint8_t fit_bottom : 2; /*A fit type from `lv_fit_t` enum */
  72:..\..\..\lvgl\version_6.1.2\lvgl\src\lv_objx/lv_cont.h **** } lv_cont_ext_t;
  73:..\..\..\lvgl\version_6.1.2\lvgl\src\lv_objx/lv_cont.h **** 
  74:..\..\..\lvgl\version_6.1.2\lvgl\src\lv_objx/lv_cont.h **** /*Styles*/
  75:..\..\..\lvgl\version_6.1.2\lvgl\src\lv_objx/lv_cont.h **** enum {
  76:..\..\..\lvgl\version_6.1.2\lvgl\src\lv_objx/lv_cont.h ****     LV_CONT_STYLE_MAIN,
  77:..\..\..\lvgl\version_6.1.2\lvgl\src\lv_objx/lv_cont.h **** };
  78:..\..\..\lvgl\version_6.1.2\lvgl\src\lv_objx/lv_cont.h **** typedef uint8_t lv_cont_style_t;
  79:..\..\..\lvgl\version_6.1.2\lvgl\src\lv_objx/lv_cont.h **** 
  80:..\..\..\lvgl\version_6.1.2\lvgl\src\lv_objx/lv_cont.h **** /**********************
  81:..\..\..\lvgl\version_6.1.2\lvgl\src\lv_objx/lv_cont.h ****  * GLOBAL PROTOTYPES
  82:..\..\..\lvgl\version_6.1.2\lvgl\src\lv_objx/lv_cont.h ****  **********************/
  83:..\..\..\lvgl\version_6.1.2\lvgl\src\lv_objx/lv_cont.h **** 
  84:..\..\..\lvgl\version_6.1.2\lvgl\src\lv_objx/lv_cont.h **** /**
  85:..\..\..\lvgl\version_6.1.2\lvgl\src\lv_objx/lv_cont.h ****  * Create a container objects
  86:..\..\..\lvgl\version_6.1.2\lvgl\src\lv_objx/lv_cont.h ****  * @param par pointer to an object, it will be the parent of the new container
  87:..\..\..\lvgl\version_6.1.2\lvgl\src\lv_objx/lv_cont.h ****  * @param copy pointer to a container object, if not NULL then the new object will be copied from i
  88:..\..\..\lvgl\version_6.1.2\lvgl\src\lv_objx/lv_cont.h ****  * @return pointer to the created container
  89:..\..\..\lvgl\version_6.1.2\lvgl\src\lv_objx/lv_cont.h ****  */
  90:..\..\..\lvgl\version_6.1.2\lvgl\src\lv_objx/lv_cont.h **** lv_obj_t * lv_cont_create(lv_obj_t * par, const lv_obj_t * copy);
  91:..\..\..\lvgl\version_6.1.2\lvgl\src\lv_objx/lv_cont.h **** 
  92:..\..\..\lvgl\version_6.1.2\lvgl\src\lv_objx/lv_cont.h **** /*=====================
  93:..\..\..\lvgl\version_6.1.2\lvgl\src\lv_objx/lv_cont.h ****  * Setter functions
  94:..\..\..\lvgl\version_6.1.2\lvgl\src\lv_objx/lv_cont.h ****  *====================*/
  95:..\..\..\lvgl\version_6.1.2\lvgl\src\lv_objx/lv_cont.h **** 
  96:..\..\..\lvgl\version_6.1.2\lvgl\src\lv_objx/lv_cont.h **** /**
  97:..\..\..\lvgl\version_6.1.2\lvgl\src\lv_objx/lv_cont.h ****  * Set a layout on a container
  98:..\..\..\lvgl\version_6.1.2\lvgl\src\lv_objx/lv_cont.h ****  * @param cont pointer to a container object
  99:..\..\..\lvgl\version_6.1.2\lvgl\src\lv_objx/lv_cont.h ****  * @param layout a layout from 'lv_cont_layout_t'
 100:..\..\..\lvgl\version_6.1.2\lvgl\src\lv_objx/lv_cont.h ****  */
 101:..\..\..\lvgl\version_6.1.2\lvgl\src\lv_objx/lv_cont.h **** void lv_cont_set_layout(lv_obj_t * cont, lv_layout_t layout);
 102:..\..\..\lvgl\version_6.1.2\lvgl\src\lv_objx/lv_cont.h **** 
 103:..\..\..\lvgl\version_6.1.2\lvgl\src\lv_objx/lv_cont.h **** /**
 104:..\..\..\lvgl\version_6.1.2\lvgl\src\lv_objx/lv_cont.h ****  * Set the fit policy in all 4 directions separately.
 105:..\..\..\lvgl\version_6.1.2\lvgl\src\lv_objx/lv_cont.h ****  * It tell how to change the container's size automatically.
 106:..\..\..\lvgl\version_6.1.2\lvgl\src\lv_objx/lv_cont.h ****  * @param cont pointer to a container object
ARM GAS  C:\Users\pearlstl\AppData\Local\Temp\ccEDNCxX.s 			page 24


 107:..\..\..\lvgl\version_6.1.2\lvgl\src\lv_objx/lv_cont.h ****  * @param left left fit policy from `lv_fit_t`
 108:..\..\..\lvgl\version_6.1.2\lvgl\src\lv_objx/lv_cont.h ****  * @param right right fit policy from `lv_fit_t`
 109:..\..\..\lvgl\version_6.1.2\lvgl\src\lv_objx/lv_cont.h ****  * @param top top fit policy from `lv_fit_t`
 110:..\..\..\lvgl\version_6.1.2\lvgl\src\lv_objx/lv_cont.h ****  * @param bottom bottom fit policy from `lv_fit_t`
 111:..\..\..\lvgl\version_6.1.2\lvgl\src\lv_objx/lv_cont.h ****  */
 112:..\..\..\lvgl\version_6.1.2\lvgl\src\lv_objx/lv_cont.h **** void lv_cont_set_fit4(lv_obj_t * cont, lv_fit_t left, lv_fit_t right, lv_fit_t top, lv_fit_t bottom
 113:..\..\..\lvgl\version_6.1.2\lvgl\src\lv_objx/lv_cont.h **** 
 114:..\..\..\lvgl\version_6.1.2\lvgl\src\lv_objx/lv_cont.h **** /**
 115:..\..\..\lvgl\version_6.1.2\lvgl\src\lv_objx/lv_cont.h ****  * Set the fit policy horizontally and vertically separately.
 116:..\..\..\lvgl\version_6.1.2\lvgl\src\lv_objx/lv_cont.h ****  * It tells how to change the container's size automatically.
 117:..\..\..\lvgl\version_6.1.2\lvgl\src\lv_objx/lv_cont.h ****  * @param cont pointer to a container object
 118:..\..\..\lvgl\version_6.1.2\lvgl\src\lv_objx/lv_cont.h ****  * @param hor horizontal fit policy from `lv_fit_t`
 119:..\..\..\lvgl\version_6.1.2\lvgl\src\lv_objx/lv_cont.h ****  * @param ver vertical fit policy from `lv_fit_t`
 120:..\..\..\lvgl\version_6.1.2\lvgl\src\lv_objx/lv_cont.h ****  */
 121:..\..\..\lvgl\version_6.1.2\lvgl\src\lv_objx/lv_cont.h **** static inline void lv_cont_set_fit2(lv_obj_t * cont, lv_fit_t hor, lv_fit_t ver)
 122:..\..\..\lvgl\version_6.1.2\lvgl\src\lv_objx/lv_cont.h **** {
 123:..\..\..\lvgl\version_6.1.2\lvgl\src\lv_objx/lv_cont.h ****     lv_cont_set_fit4(cont, hor, hor, ver, ver);
 124:..\..\..\lvgl\version_6.1.2\lvgl\src\lv_objx/lv_cont.h **** }
 125:..\..\..\lvgl\version_6.1.2\lvgl\src\lv_objx/lv_cont.h **** 
 126:..\..\..\lvgl\version_6.1.2\lvgl\src\lv_objx/lv_cont.h **** /**
 127:..\..\..\lvgl\version_6.1.2\lvgl\src\lv_objx/lv_cont.h ****  * Set the fit policy in all 4 direction at once.
 128:..\..\..\lvgl\version_6.1.2\lvgl\src\lv_objx/lv_cont.h ****  * It tells how to change the container's size automatically.
 129:..\..\..\lvgl\version_6.1.2\lvgl\src\lv_objx/lv_cont.h ****  * @param cont pointer to a container object
 130:..\..\..\lvgl\version_6.1.2\lvgl\src\lv_objx/lv_cont.h ****  * @param fit fit policy from `lv_fit_t`
 131:..\..\..\lvgl\version_6.1.2\lvgl\src\lv_objx/lv_cont.h ****  */
 132:..\..\..\lvgl\version_6.1.2\lvgl\src\lv_objx/lv_cont.h **** static inline void lv_cont_set_fit(lv_obj_t * cont, lv_fit_t fit)
 133:..\..\..\lvgl\version_6.1.2\lvgl\src\lv_objx/lv_cont.h **** {
 134:..\..\..\lvgl\version_6.1.2\lvgl\src\lv_objx/lv_cont.h ****     lv_cont_set_fit4(cont, fit, fit, fit, fit);
 502              		.loc 3 134 0
 503 00b8 0126     		movs	r6, #1
 504              	.LBE70:
 505              	.LBE69:
 506              	.LBE68:
 507              	.LBB73:
 508              	.LBB74:
 509              		.file 4 "..\\..\\..\\lvgl\\version_6.1.2\\lvgl\\src\\lv_objx\\lv_btn.h"
   1:..\..\..\lvgl\version_6.1.2\lvgl\src\lv_objx/lv_btn.h **** /**
   2:..\..\..\lvgl\version_6.1.2\lvgl\src\lv_objx/lv_btn.h ****  * @file lv_btn.h
   3:..\..\..\lvgl\version_6.1.2\lvgl\src\lv_objx/lv_btn.h ****  *
   4:..\..\..\lvgl\version_6.1.2\lvgl\src\lv_objx/lv_btn.h ****  */
   5:..\..\..\lvgl\version_6.1.2\lvgl\src\lv_objx/lv_btn.h **** 
   6:..\..\..\lvgl\version_6.1.2\lvgl\src\lv_objx/lv_btn.h **** #ifndef LV_BTN_H
   7:..\..\..\lvgl\version_6.1.2\lvgl\src\lv_objx/lv_btn.h **** #define LV_BTN_H
   8:..\..\..\lvgl\version_6.1.2\lvgl\src\lv_objx/lv_btn.h **** 
   9:..\..\..\lvgl\version_6.1.2\lvgl\src\lv_objx/lv_btn.h **** #ifdef __cplusplus
  10:..\..\..\lvgl\version_6.1.2\lvgl\src\lv_objx/lv_btn.h **** extern "C" {
  11:..\..\..\lvgl\version_6.1.2\lvgl\src\lv_objx/lv_btn.h **** #endif
  12:..\..\..\lvgl\version_6.1.2\lvgl\src\lv_objx/lv_btn.h **** 
  13:..\..\..\lvgl\version_6.1.2\lvgl\src\lv_objx/lv_btn.h **** /*********************
  14:..\..\..\lvgl\version_6.1.2\lvgl\src\lv_objx/lv_btn.h ****  *      INCLUDES
  15:..\..\..\lvgl\version_6.1.2\lvgl\src\lv_objx/lv_btn.h ****  *********************/
  16:..\..\..\lvgl\version_6.1.2\lvgl\src\lv_objx/lv_btn.h **** #ifdef LV_CONF_INCLUDE_SIMPLE
  17:..\..\..\lvgl\version_6.1.2\lvgl\src\lv_objx/lv_btn.h **** #include "lv_conf.h"
  18:..\..\..\lvgl\version_6.1.2\lvgl\src\lv_objx/lv_btn.h **** #else
  19:..\..\..\lvgl\version_6.1.2\lvgl\src\lv_objx/lv_btn.h **** #include "../../../lv_conf.h"
  20:..\..\..\lvgl\version_6.1.2\lvgl\src\lv_objx/lv_btn.h **** #endif
  21:..\..\..\lvgl\version_6.1.2\lvgl\src\lv_objx/lv_btn.h **** 
ARM GAS  C:\Users\pearlstl\AppData\Local\Temp\ccEDNCxX.s 			page 25


  22:..\..\..\lvgl\version_6.1.2\lvgl\src\lv_objx/lv_btn.h **** #if LV_USE_BTN != 0
  23:..\..\..\lvgl\version_6.1.2\lvgl\src\lv_objx/lv_btn.h **** 
  24:..\..\..\lvgl\version_6.1.2\lvgl\src\lv_objx/lv_btn.h **** /*Testing of dependencies*/
  25:..\..\..\lvgl\version_6.1.2\lvgl\src\lv_objx/lv_btn.h **** #if LV_USE_CONT == 0
  26:..\..\..\lvgl\version_6.1.2\lvgl\src\lv_objx/lv_btn.h **** #error "lv_btn: lv_cont is required. Enable it in lv_conf.h (LV_USE_CONT  1) "
  27:..\..\..\lvgl\version_6.1.2\lvgl\src\lv_objx/lv_btn.h **** #endif
  28:..\..\..\lvgl\version_6.1.2\lvgl\src\lv_objx/lv_btn.h **** 
  29:..\..\..\lvgl\version_6.1.2\lvgl\src\lv_objx/lv_btn.h **** #include "lv_cont.h"
  30:..\..\..\lvgl\version_6.1.2\lvgl\src\lv_objx/lv_btn.h **** #include "../lv_core/lv_indev.h"
  31:..\..\..\lvgl\version_6.1.2\lvgl\src\lv_objx/lv_btn.h **** 
  32:..\..\..\lvgl\version_6.1.2\lvgl\src\lv_objx/lv_btn.h **** /*********************
  33:..\..\..\lvgl\version_6.1.2\lvgl\src\lv_objx/lv_btn.h ****  *      DEFINES
  34:..\..\..\lvgl\version_6.1.2\lvgl\src\lv_objx/lv_btn.h ****  *********************/
  35:..\..\..\lvgl\version_6.1.2\lvgl\src\lv_objx/lv_btn.h **** 
  36:..\..\..\lvgl\version_6.1.2\lvgl\src\lv_objx/lv_btn.h **** /**********************
  37:..\..\..\lvgl\version_6.1.2\lvgl\src\lv_objx/lv_btn.h ****  *      TYPEDEFS
  38:..\..\..\lvgl\version_6.1.2\lvgl\src\lv_objx/lv_btn.h ****  **********************/
  39:..\..\..\lvgl\version_6.1.2\lvgl\src\lv_objx/lv_btn.h **** 
  40:..\..\..\lvgl\version_6.1.2\lvgl\src\lv_objx/lv_btn.h **** /** Possible states of a button.
  41:..\..\..\lvgl\version_6.1.2\lvgl\src\lv_objx/lv_btn.h ****  * It can be used not only by buttons but other button-like objects too*/
  42:..\..\..\lvgl\version_6.1.2\lvgl\src\lv_objx/lv_btn.h **** enum {
  43:..\..\..\lvgl\version_6.1.2\lvgl\src\lv_objx/lv_btn.h ****     /**Released*/
  44:..\..\..\lvgl\version_6.1.2\lvgl\src\lv_objx/lv_btn.h ****     LV_BTN_STATE_REL,
  45:..\..\..\lvgl\version_6.1.2\lvgl\src\lv_objx/lv_btn.h **** 
  46:..\..\..\lvgl\version_6.1.2\lvgl\src\lv_objx/lv_btn.h ****     /**Pressed*/
  47:..\..\..\lvgl\version_6.1.2\lvgl\src\lv_objx/lv_btn.h ****     LV_BTN_STATE_PR,
  48:..\..\..\lvgl\version_6.1.2\lvgl\src\lv_objx/lv_btn.h **** 
  49:..\..\..\lvgl\version_6.1.2\lvgl\src\lv_objx/lv_btn.h ****     /**Toggled released*/
  50:..\..\..\lvgl\version_6.1.2\lvgl\src\lv_objx/lv_btn.h ****     LV_BTN_STATE_TGL_REL,
  51:..\..\..\lvgl\version_6.1.2\lvgl\src\lv_objx/lv_btn.h **** 
  52:..\..\..\lvgl\version_6.1.2\lvgl\src\lv_objx/lv_btn.h ****     /**Toggled pressed*/
  53:..\..\..\lvgl\version_6.1.2\lvgl\src\lv_objx/lv_btn.h ****     LV_BTN_STATE_TGL_PR,
  54:..\..\..\lvgl\version_6.1.2\lvgl\src\lv_objx/lv_btn.h **** 
  55:..\..\..\lvgl\version_6.1.2\lvgl\src\lv_objx/lv_btn.h ****     /**Inactive*/
  56:..\..\..\lvgl\version_6.1.2\lvgl\src\lv_objx/lv_btn.h ****     LV_BTN_STATE_INA,
  57:..\..\..\lvgl\version_6.1.2\lvgl\src\lv_objx/lv_btn.h **** 
  58:..\..\..\lvgl\version_6.1.2\lvgl\src\lv_objx/lv_btn.h ****     /**Number of states*/
  59:..\..\..\lvgl\version_6.1.2\lvgl\src\lv_objx/lv_btn.h ****     _LV_BTN_STATE_NUM,
  60:..\..\..\lvgl\version_6.1.2\lvgl\src\lv_objx/lv_btn.h **** };
  61:..\..\..\lvgl\version_6.1.2\lvgl\src\lv_objx/lv_btn.h **** typedef uint8_t lv_btn_state_t;
  62:..\..\..\lvgl\version_6.1.2\lvgl\src\lv_objx/lv_btn.h **** 
  63:..\..\..\lvgl\version_6.1.2\lvgl\src\lv_objx/lv_btn.h **** /** Extended data of button*/
  64:..\..\..\lvgl\version_6.1.2\lvgl\src\lv_objx/lv_btn.h **** typedef struct
  65:..\..\..\lvgl\version_6.1.2\lvgl\src\lv_objx/lv_btn.h **** {
  66:..\..\..\lvgl\version_6.1.2\lvgl\src\lv_objx/lv_btn.h ****     /** Ext. of ancestor*/
  67:..\..\..\lvgl\version_6.1.2\lvgl\src\lv_objx/lv_btn.h ****     lv_cont_ext_t cont;
  68:..\..\..\lvgl\version_6.1.2\lvgl\src\lv_objx/lv_btn.h **** 
  69:..\..\..\lvgl\version_6.1.2\lvgl\src\lv_objx/lv_btn.h ****     /*New data for this type */
  70:..\..\..\lvgl\version_6.1.2\lvgl\src\lv_objx/lv_btn.h **** 
  71:..\..\..\lvgl\version_6.1.2\lvgl\src\lv_objx/lv_btn.h ****     /**Styles in each state*/
  72:..\..\..\lvgl\version_6.1.2\lvgl\src\lv_objx/lv_btn.h ****     const lv_style_t * styles[_LV_BTN_STATE_NUM];
  73:..\..\..\lvgl\version_6.1.2\lvgl\src\lv_objx/lv_btn.h **** #if LV_BTN_INK_EFFECT
  74:..\..\..\lvgl\version_6.1.2\lvgl\src\lv_objx/lv_btn.h ****     /** [ms] Time of ink fill effect (0: disable ink effect)*/
  75:..\..\..\lvgl\version_6.1.2\lvgl\src\lv_objx/lv_btn.h ****     uint16_t ink_in_time;
  76:..\..\..\lvgl\version_6.1.2\lvgl\src\lv_objx/lv_btn.h **** 
  77:..\..\..\lvgl\version_6.1.2\lvgl\src\lv_objx/lv_btn.h ****     /** [ms] Wait before the ink disappears */
  78:..\..\..\lvgl\version_6.1.2\lvgl\src\lv_objx/lv_btn.h ****     uint16_t ink_wait_time;
ARM GAS  C:\Users\pearlstl\AppData\Local\Temp\ccEDNCxX.s 			page 26


  79:..\..\..\lvgl\version_6.1.2\lvgl\src\lv_objx/lv_btn.h **** 
  80:..\..\..\lvgl\version_6.1.2\lvgl\src\lv_objx/lv_btn.h ****     /** [ms] Time of ink disappearing*/
  81:..\..\..\lvgl\version_6.1.2\lvgl\src\lv_objx/lv_btn.h ****     uint16_t ink_out_time;
  82:..\..\..\lvgl\version_6.1.2\lvgl\src\lv_objx/lv_btn.h **** #endif
  83:..\..\..\lvgl\version_6.1.2\lvgl\src\lv_objx/lv_btn.h **** 
  84:..\..\..\lvgl\version_6.1.2\lvgl\src\lv_objx/lv_btn.h ****     /** Current state of the button from 'lv_btn_state_t' enum*/
  85:..\..\..\lvgl\version_6.1.2\lvgl\src\lv_objx/lv_btn.h ****     lv_btn_state_t state : 3;
  86:..\..\..\lvgl\version_6.1.2\lvgl\src\lv_objx/lv_btn.h **** 
  87:..\..\..\lvgl\version_6.1.2\lvgl\src\lv_objx/lv_btn.h ****     /** 1: Toggle enabled*/
  88:..\..\..\lvgl\version_6.1.2\lvgl\src\lv_objx/lv_btn.h ****     uint8_t toggle : 1;
  89:..\..\..\lvgl\version_6.1.2\lvgl\src\lv_objx/lv_btn.h **** } lv_btn_ext_t;
  90:..\..\..\lvgl\version_6.1.2\lvgl\src\lv_objx/lv_btn.h **** 
  91:..\..\..\lvgl\version_6.1.2\lvgl\src\lv_objx/lv_btn.h **** /**Styles*/
  92:..\..\..\lvgl\version_6.1.2\lvgl\src\lv_objx/lv_btn.h **** enum {
  93:..\..\..\lvgl\version_6.1.2\lvgl\src\lv_objx/lv_btn.h ****     /** Release style */
  94:..\..\..\lvgl\version_6.1.2\lvgl\src\lv_objx/lv_btn.h ****     LV_BTN_STYLE_REL,
  95:..\..\..\lvgl\version_6.1.2\lvgl\src\lv_objx/lv_btn.h **** 
  96:..\..\..\lvgl\version_6.1.2\lvgl\src\lv_objx/lv_btn.h ****     /**Pressed style*/
  97:..\..\..\lvgl\version_6.1.2\lvgl\src\lv_objx/lv_btn.h ****     LV_BTN_STYLE_PR,
  98:..\..\..\lvgl\version_6.1.2\lvgl\src\lv_objx/lv_btn.h **** 
  99:..\..\..\lvgl\version_6.1.2\lvgl\src\lv_objx/lv_btn.h ****     /** Toggle released style*/
 100:..\..\..\lvgl\version_6.1.2\lvgl\src\lv_objx/lv_btn.h ****     LV_BTN_STYLE_TGL_REL,
 101:..\..\..\lvgl\version_6.1.2\lvgl\src\lv_objx/lv_btn.h **** 
 102:..\..\..\lvgl\version_6.1.2\lvgl\src\lv_objx/lv_btn.h ****     /** Toggle pressed style */
 103:..\..\..\lvgl\version_6.1.2\lvgl\src\lv_objx/lv_btn.h ****     LV_BTN_STYLE_TGL_PR,
 104:..\..\..\lvgl\version_6.1.2\lvgl\src\lv_objx/lv_btn.h **** 
 105:..\..\..\lvgl\version_6.1.2\lvgl\src\lv_objx/lv_btn.h ****     /** Inactive style*/
 106:..\..\..\lvgl\version_6.1.2\lvgl\src\lv_objx/lv_btn.h ****     LV_BTN_STYLE_INA,
 107:..\..\..\lvgl\version_6.1.2\lvgl\src\lv_objx/lv_btn.h **** };
 108:..\..\..\lvgl\version_6.1.2\lvgl\src\lv_objx/lv_btn.h **** typedef uint8_t lv_btn_style_t;
 109:..\..\..\lvgl\version_6.1.2\lvgl\src\lv_objx/lv_btn.h **** 
 110:..\..\..\lvgl\version_6.1.2\lvgl\src\lv_objx/lv_btn.h **** /**********************
 111:..\..\..\lvgl\version_6.1.2\lvgl\src\lv_objx/lv_btn.h ****  * GLOBAL PROTOTYPES
 112:..\..\..\lvgl\version_6.1.2\lvgl\src\lv_objx/lv_btn.h ****  **********************/
 113:..\..\..\lvgl\version_6.1.2\lvgl\src\lv_objx/lv_btn.h **** 
 114:..\..\..\lvgl\version_6.1.2\lvgl\src\lv_objx/lv_btn.h **** /**
 115:..\..\..\lvgl\version_6.1.2\lvgl\src\lv_objx/lv_btn.h ****  * Create a button object
 116:..\..\..\lvgl\version_6.1.2\lvgl\src\lv_objx/lv_btn.h ****  * @param par pointer to an object, it will be the parent of the new button
 117:..\..\..\lvgl\version_6.1.2\lvgl\src\lv_objx/lv_btn.h ****  * @param copy pointer to a button object, if not NULL then the new object will be copied from it
 118:..\..\..\lvgl\version_6.1.2\lvgl\src\lv_objx/lv_btn.h ****  * @return pointer to the created button
 119:..\..\..\lvgl\version_6.1.2\lvgl\src\lv_objx/lv_btn.h ****  */
 120:..\..\..\lvgl\version_6.1.2\lvgl\src\lv_objx/lv_btn.h **** lv_obj_t * lv_btn_create(lv_obj_t * par, const lv_obj_t * copy);
 121:..\..\..\lvgl\version_6.1.2\lvgl\src\lv_objx/lv_btn.h **** 
 122:..\..\..\lvgl\version_6.1.2\lvgl\src\lv_objx/lv_btn.h **** /*=====================
 123:..\..\..\lvgl\version_6.1.2\lvgl\src\lv_objx/lv_btn.h ****  * Setter functions
 124:..\..\..\lvgl\version_6.1.2\lvgl\src\lv_objx/lv_btn.h ****  *====================*/
 125:..\..\..\lvgl\version_6.1.2\lvgl\src\lv_objx/lv_btn.h **** 
 126:..\..\..\lvgl\version_6.1.2\lvgl\src\lv_objx/lv_btn.h **** /**
 127:..\..\..\lvgl\version_6.1.2\lvgl\src\lv_objx/lv_btn.h ****  * Enable the toggled states. On release the button will change from/to toggled state.
 128:..\..\..\lvgl\version_6.1.2\lvgl\src\lv_objx/lv_btn.h ****  * @param btn pointer to a button object
 129:..\..\..\lvgl\version_6.1.2\lvgl\src\lv_objx/lv_btn.h ****  * @param tgl true: enable toggled states, false: disable
 130:..\..\..\lvgl\version_6.1.2\lvgl\src\lv_objx/lv_btn.h ****  */
 131:..\..\..\lvgl\version_6.1.2\lvgl\src\lv_objx/lv_btn.h **** void lv_btn_set_toggle(lv_obj_t * btn, bool tgl);
 132:..\..\..\lvgl\version_6.1.2\lvgl\src\lv_objx/lv_btn.h **** 
 133:..\..\..\lvgl\version_6.1.2\lvgl\src\lv_objx/lv_btn.h **** /**
 134:..\..\..\lvgl\version_6.1.2\lvgl\src\lv_objx/lv_btn.h ****  * Set the state of the button
 135:..\..\..\lvgl\version_6.1.2\lvgl\src\lv_objx/lv_btn.h ****  * @param btn pointer to a button object
ARM GAS  C:\Users\pearlstl\AppData\Local\Temp\ccEDNCxX.s 			page 27


 136:..\..\..\lvgl\version_6.1.2\lvgl\src\lv_objx/lv_btn.h ****  * @param state the new state of the button (from lv_btn_state_t enum)
 137:..\..\..\lvgl\version_6.1.2\lvgl\src\lv_objx/lv_btn.h ****  */
 138:..\..\..\lvgl\version_6.1.2\lvgl\src\lv_objx/lv_btn.h **** void lv_btn_set_state(lv_obj_t * btn, lv_btn_state_t state);
 139:..\..\..\lvgl\version_6.1.2\lvgl\src\lv_objx/lv_btn.h **** 
 140:..\..\..\lvgl\version_6.1.2\lvgl\src\lv_objx/lv_btn.h **** /**
 141:..\..\..\lvgl\version_6.1.2\lvgl\src\lv_objx/lv_btn.h ****  * Toggle the state of the button (ON->OFF, OFF->ON)
 142:..\..\..\lvgl\version_6.1.2\lvgl\src\lv_objx/lv_btn.h ****  * @param btn pointer to a button object
 143:..\..\..\lvgl\version_6.1.2\lvgl\src\lv_objx/lv_btn.h ****  */
 144:..\..\..\lvgl\version_6.1.2\lvgl\src\lv_objx/lv_btn.h **** void lv_btn_toggle(lv_obj_t * btn);
 145:..\..\..\lvgl\version_6.1.2\lvgl\src\lv_objx/lv_btn.h **** 
 146:..\..\..\lvgl\version_6.1.2\lvgl\src\lv_objx/lv_btn.h **** /**
 147:..\..\..\lvgl\version_6.1.2\lvgl\src\lv_objx/lv_btn.h ****  * Set the layout on a button
 148:..\..\..\lvgl\version_6.1.2\lvgl\src\lv_objx/lv_btn.h ****  * @param btn pointer to a button object
 149:..\..\..\lvgl\version_6.1.2\lvgl\src\lv_objx/lv_btn.h ****  * @param layout a layout from 'lv_cont_layout_t'
 150:..\..\..\lvgl\version_6.1.2\lvgl\src\lv_objx/lv_btn.h ****  */
 151:..\..\..\lvgl\version_6.1.2\lvgl\src\lv_objx/lv_btn.h **** static inline void lv_btn_set_layout(lv_obj_t * btn, lv_layout_t layout)
 152:..\..\..\lvgl\version_6.1.2\lvgl\src\lv_objx/lv_btn.h **** {
 153:..\..\..\lvgl\version_6.1.2\lvgl\src\lv_objx/lv_btn.h ****     lv_cont_set_layout(btn, layout);
 510              		.loc 4 153 0
 511 00ba 0621     		movs	r1, #6
 512 00bc 2046     		mov	r0, r4
 513 00be FFF7FEFF 		bl	lv_cont_set_layout
 514              	.LVL66:
 515              	.LBE74:
 516              	.LBE73:
 517              	.LBB75:
 518              	.LBB72:
 519              	.LBB71:
 520              		.loc 3 134 0
 521 00c2 3346     		mov	r3, r6
 522 00c4 3246     		mov	r2, r6
 523 00c6 3146     		mov	r1, r6
 524 00c8 2046     		mov	r0, r4
 525 00ca 0096     		str	r6, [sp]
 526 00cc FFF7FEFF 		bl	lv_cont_set_fit4
 527              	.LVL67:
 528              	.LBE71:
 529              	.LBE72:
 530              	.LBE75:
  87:..\..\..\lvgl\version_6.1.2\lvgl\src\lv_objx/lv_cb.c ****         lv_obj_set_protect(new_cb, LV_PROTECT_PRESS_LOST);
 531              		.loc 1 87 0
 532 00d0 3146     		mov	r1, r6
 533 00d2 2046     		mov	r0, r4
 534 00d4 FFF7FEFF 		bl	lv_btn_set_toggle
 535              	.LVL68:
  88:..\..\..\lvgl\version_6.1.2\lvgl\src\lv_objx/lv_cb.c **** 
 536              		.loc 1 88 0
 537 00d8 1021     		movs	r1, #16
 538 00da 2046     		mov	r0, r4
 539 00dc FFF7FEFF 		bl	lv_obj_set_protect
 540              	.LVL69:
  91:..\..\..\lvgl\version_6.1.2\lvgl\src\lv_objx/lv_cb.c ****         if(th) {
 541              		.loc 1 91 0
 542 00e0 FFF7FEFF 		bl	lv_theme_get_current
 543              	.LVL70:
  92:..\..\..\lvgl\version_6.1.2\lvgl\src\lv_objx/lv_cb.c ****             lv_cb_set_style(new_cb, LV_CB_STYLE_BG, th->style.cb.bg);
 544              		.loc 1 92 0
ARM GAS  C:\Users\pearlstl\AppData\Local\Temp\ccEDNCxX.s 			page 28


 545 00e4 0746     		mov	r7, r0
 546              	.LVL71:
 547 00e6 0028     		cmp	r0, #0
 548 00e8 5BD0     		beq	.L48
  93:..\..\..\lvgl\version_6.1.2\lvgl\src\lv_objx/lv_cb.c ****             lv_cb_set_style(new_cb, LV_CB_STYLE_BOX_REL, th->style.cb.box.rel);
 549              		.loc 1 93 0
 550 00ea D0F8AC80 		ldr	r8, [r0, #172]
 551              	.LVL72:
 552              	.LBB76:
 553              	.LBB77:
 161:..\..\..\lvgl\version_6.1.2\lvgl\src\lv_objx/lv_cb.c **** 
 554              		.loc 1 161 0
 555 00ee 2046     		mov	r0, r4
 556              	.LVL73:
 557 00f0 FFF7FEFF 		bl	lv_obj_get_ext_attr
 558              	.LVL74:
 165:..\..\..\lvgl\version_6.1.2\lvgl\src\lv_objx/lv_cb.c ****             lv_btn_set_style(cb, LV_BTN_STYLE_PR, style);
 559              		.loc 1 165 0
 560 00f4 4246     		mov	r2, r8
 561 00f6 2046     		mov	r0, r4
 562 00f8 0021     		movs	r1, #0
 563 00fa FFF7FEFF 		bl	lv_btn_set_style
 564              	.LVL75:
 166:..\..\..\lvgl\version_6.1.2\lvgl\src\lv_objx/lv_cb.c ****             lv_btn_set_style(cb, LV_BTN_STYLE_TGL_REL, style);
 565              		.loc 1 166 0
 566 00fe 4246     		mov	r2, r8
 567 0100 3146     		mov	r1, r6
 568 0102 2046     		mov	r0, r4
 569 0104 FFF7FEFF 		bl	lv_btn_set_style
 570              	.LVL76:
 167:..\..\..\lvgl\version_6.1.2\lvgl\src\lv_objx/lv_cb.c ****             lv_btn_set_style(cb, LV_BTN_STYLE_TGL_PR, style);
 571              		.loc 1 167 0
 572 0108 4246     		mov	r2, r8
 573 010a 2046     		mov	r0, r4
 574 010c 0221     		movs	r1, #2
 575 010e FFF7FEFF 		bl	lv_btn_set_style
 576              	.LVL77:
 168:..\..\..\lvgl\version_6.1.2\lvgl\src\lv_objx/lv_cb.c ****             lv_btn_set_style(cb, LV_BTN_STYLE_INA, style);
 577              		.loc 1 168 0
 578 0112 4246     		mov	r2, r8
 579 0114 2046     		mov	r0, r4
 580 0116 0321     		movs	r1, #3
 581 0118 FFF7FEFF 		bl	lv_btn_set_style
 582              	.LVL78:
 169:..\..\..\lvgl\version_6.1.2\lvgl\src\lv_objx/lv_cb.c ****             break;
 583              		.loc 1 169 0
 584 011c 4246     		mov	r2, r8
 585 011e 0421     		movs	r1, #4
 586 0120 2046     		mov	r0, r4
 587 0122 FFF7FEFF 		bl	lv_btn_set_style
 588              	.LVL79:
 589              	.LBE77:
 590              	.LBE76:
 591              	.LBB78:
 592              	.LBB79:
 161:..\..\..\lvgl\version_6.1.2\lvgl\src\lv_objx/lv_cb.c **** 
 593              		.loc 1 161 0
ARM GAS  C:\Users\pearlstl\AppData\Local\Temp\ccEDNCxX.s 			page 29


 594 0126 2046     		mov	r0, r4
 595              	.LBE79:
 596              	.LBE78:
  94:..\..\..\lvgl\version_6.1.2\lvgl\src\lv_objx/lv_cb.c ****             lv_cb_set_style(new_cb, LV_CB_STYLE_BOX_PR, th->style.cb.box.pr);
 597              		.loc 1 94 0
 598 0128 D7F8B080 		ldr	r8, [r7, #176]
 599              	.LVL80:
 600              	.LBB81:
 601              	.LBB80:
 161:..\..\..\lvgl\version_6.1.2\lvgl\src\lv_objx/lv_cb.c **** 
 602              		.loc 1 161 0
 603 012c FFF7FEFF 		bl	lv_obj_get_ext_attr
 604              	.LVL81:
 171:..\..\..\lvgl\version_6.1.2\lvgl\src\lv_objx/lv_cb.c ****         case LV_CB_STYLE_BOX_PR: lv_btn_set_style(ext->bullet, LV_BTN_STYLE_PR, style); break;
 605              		.loc 1 171 0
 606 0130 4246     		mov	r2, r8
 607 0132 0021     		movs	r1, #0
 608 0134 C069     		ldr	r0, [r0, #28]
 609              	.LVL82:
 610 0136 FFF7FEFF 		bl	lv_btn_set_style
 611              	.LVL83:
 612              	.LBE80:
 613              	.LBE81:
 614              	.LBB82:
 615              	.LBB83:
 161:..\..\..\lvgl\version_6.1.2\lvgl\src\lv_objx/lv_cb.c **** 
 616              		.loc 1 161 0
 617 013a 2046     		mov	r0, r4
 618              	.LBE83:
 619              	.LBE82:
  95:..\..\..\lvgl\version_6.1.2\lvgl\src\lv_objx/lv_cb.c ****             lv_cb_set_style(new_cb, LV_CB_STYLE_BOX_TGL_REL, th->style.cb.box.tgl_rel);
 620              		.loc 1 95 0
 621 013c D7F8B480 		ldr	r8, [r7, #180]
 622              	.LVL84:
 623              	.LBB85:
 624              	.LBB84:
 161:..\..\..\lvgl\version_6.1.2\lvgl\src\lv_objx/lv_cb.c **** 
 625              		.loc 1 161 0
 626 0140 FFF7FEFF 		bl	lv_obj_get_ext_attr
 627              	.LVL85:
 172:..\..\..\lvgl\version_6.1.2\lvgl\src\lv_objx/lv_cb.c ****         case LV_CB_STYLE_BOX_TGL_REL: lv_btn_set_style(ext->bullet, LV_BTN_STYLE_TGL_REL, style); b
 628              		.loc 1 172 0
 629 0144 4246     		mov	r2, r8
 630 0146 3146     		mov	r1, r6
 631 0148 C069     		ldr	r0, [r0, #28]
 632              	.LVL86:
 633 014a FFF7FEFF 		bl	lv_btn_set_style
 634              	.LVL87:
 635              	.LBE84:
 636              	.LBE85:
 637              	.LBB86:
 638              	.LBB87:
 161:..\..\..\lvgl\version_6.1.2\lvgl\src\lv_objx/lv_cb.c **** 
 639              		.loc 1 161 0
 640 014e 2046     		mov	r0, r4
 641              	.LBE87:
 642              	.LBE86:
ARM GAS  C:\Users\pearlstl\AppData\Local\Temp\ccEDNCxX.s 			page 30


  96:..\..\..\lvgl\version_6.1.2\lvgl\src\lv_objx/lv_cb.c ****             lv_cb_set_style(new_cb, LV_CB_STYLE_BOX_TGL_PR, th->style.cb.box.tgl_pr);
 643              		.loc 1 96 0
 644 0150 D7F8B860 		ldr	r6, [r7, #184]
 645              	.LVL88:
 646              	.LBB89:
 647              	.LBB88:
 161:..\..\..\lvgl\version_6.1.2\lvgl\src\lv_objx/lv_cb.c **** 
 648              		.loc 1 161 0
 649 0154 FFF7FEFF 		bl	lv_obj_get_ext_attr
 650              	.LVL89:
 173:..\..\..\lvgl\version_6.1.2\lvgl\src\lv_objx/lv_cb.c ****         case LV_CB_STYLE_BOX_TGL_PR: lv_btn_set_style(ext->bullet, LV_BTN_STYLE_TGL_PR, style); bre
 651              		.loc 1 173 0
 652 0158 3246     		mov	r2, r6
 653 015a 0221     		movs	r1, #2
 654 015c C069     		ldr	r0, [r0, #28]
 655              	.LVL90:
 656 015e FFF7FEFF 		bl	lv_btn_set_style
 657              	.LVL91:
 658              	.LBE88:
 659              	.LBE89:
 660              	.LBB90:
 661              	.LBB91:
 161:..\..\..\lvgl\version_6.1.2\lvgl\src\lv_objx/lv_cb.c **** 
 662              		.loc 1 161 0
 663 0162 2046     		mov	r0, r4
 664              	.LBE91:
 665              	.LBE90:
  97:..\..\..\lvgl\version_6.1.2\lvgl\src\lv_objx/lv_cb.c ****             lv_cb_set_style(new_cb, LV_CB_STYLE_BOX_INA, th->style.cb.box.ina);
 666              		.loc 1 97 0
 667 0164 D7F8BC60 		ldr	r6, [r7, #188]
 668              	.LVL92:
 669              	.LBB93:
 670              	.LBB92:
 161:..\..\..\lvgl\version_6.1.2\lvgl\src\lv_objx/lv_cb.c **** 
 671              		.loc 1 161 0
 672 0168 FFF7FEFF 		bl	lv_obj_get_ext_attr
 673              	.LVL93:
 174:..\..\..\lvgl\version_6.1.2\lvgl\src\lv_objx/lv_cb.c ****         case LV_CB_STYLE_BOX_INA: lv_btn_set_style(ext->bullet, LV_BTN_STYLE_INA, style); break;
 674              		.loc 1 174 0
 675 016c 3246     		mov	r2, r6
 676 016e 0321     		movs	r1, #3
 677 0170 C069     		ldr	r0, [r0, #28]
 678              	.LVL94:
 679 0172 FFF7FEFF 		bl	lv_btn_set_style
 680              	.LVL95:
 681              	.LBE92:
 682              	.LBE93:
 683              	.LBB94:
 684              	.LBB95:
 161:..\..\..\lvgl\version_6.1.2\lvgl\src\lv_objx/lv_cb.c **** 
 685              		.loc 1 161 0
 686 0176 2046     		mov	r0, r4
 687              	.LBE95:
 688              	.LBE94:
  98:..\..\..\lvgl\version_6.1.2\lvgl\src\lv_objx/lv_cb.c ****         } else {
 689              		.loc 1 98 0
 690 0178 D7F8C060 		ldr	r6, [r7, #192]
ARM GAS  C:\Users\pearlstl\AppData\Local\Temp\ccEDNCxX.s 			page 31


 691              	.LVL96:
 692              	.LBB97:
 693              	.LBB96:
 161:..\..\..\lvgl\version_6.1.2\lvgl\src\lv_objx/lv_cb.c **** 
 694              		.loc 1 161 0
 695 017c FFF7FEFF 		bl	lv_obj_get_ext_attr
 696              	.LVL97:
 175:..\..\..\lvgl\version_6.1.2\lvgl\src\lv_objx/lv_cb.c ****     }
 697              		.loc 1 175 0
 698 0180 3246     		mov	r2, r6
 699 0182 C069     		ldr	r0, [r0, #28]
 700              	.LVL98:
 701 0184 0421     		movs	r1, #4
 702 0186 FFF7FEFF 		bl	lv_btn_set_style
 703              	.LVL99:
 704 018a 72E7     		b	.L49
 705              	.LVL100:
 706              	.L54:
 707              	.LBE96:
 708              	.LBE97:
 709              	.LBE65:
  63:..\..\..\lvgl\version_6.1.2\lvgl\src\lv_objx/lv_cb.c ****     if(ancestor_bg_design == NULL) ancestor_bg_design = lv_obj_get_design_cb(new_cb);
 710              		.loc 1 63 0 discriminator 1
 711 018c FFF7FEFF 		bl	lv_obj_get_signal_cb
 712              	.LVL101:
 713 0190 3060     		str	r0, [r6]
 714 0192 44E7     		b	.L43
 715              	.L55:
  64:..\..\..\lvgl\version_6.1.2\lvgl\src\lv_objx/lv_cb.c **** 
 716              		.loc 1 64 0 discriminator 1
 717 0194 2046     		mov	r0, r4
 718 0196 FFF7FEFF 		bl	lv_obj_get_design_cb
 719              	.LVL102:
 720 019a A860     		str	r0, [r5, #8]
 721 019c 44E7     		b	.L44
 722              	.LVL103:
 723              	.L45:
  61:..\..\..\lvgl\version_6.1.2\lvgl\src\lv_objx/lv_cb.c **** 
 724              		.loc 1 61 0
 725 019e 0020     		movs	r0, #0
 726 01a0 6CE7     		b	.L42
 727              	.LVL104:
 728              	.L48:
 729              	.LBB102:
 730              	.LBB98:
 731              	.LBB99:
 161:..\..\..\lvgl\version_6.1.2\lvgl\src\lv_objx/lv_cb.c **** 
 732              		.loc 1 161 0
 733 01a2 2046     		mov	r0, r4
 734              	.LVL105:
 735 01a4 FFF7FEFF 		bl	lv_obj_get_ext_attr
 736              	.LVL106:
 165:..\..\..\lvgl\version_6.1.2\lvgl\src\lv_objx/lv_cb.c ****             lv_btn_set_style(cb, LV_BTN_STYLE_PR, style);
 737              		.loc 1 165 0
 738 01a8 3946     		mov	r1, r7
 739 01aa 2046     		mov	r0, r4
 740 01ac 174A     		ldr	r2, .L58+20
ARM GAS  C:\Users\pearlstl\AppData\Local\Temp\ccEDNCxX.s 			page 32


 741 01ae FFF7FEFF 		bl	lv_btn_set_style
 742              	.LVL107:
 166:..\..\..\lvgl\version_6.1.2\lvgl\src\lv_objx/lv_cb.c ****             lv_btn_set_style(cb, LV_BTN_STYLE_TGL_REL, style);
 743              		.loc 1 166 0
 744 01b2 3146     		mov	r1, r6
 745 01b4 2046     		mov	r0, r4
 746 01b6 154A     		ldr	r2, .L58+20
 747 01b8 FFF7FEFF 		bl	lv_btn_set_style
 748              	.LVL108:
 167:..\..\..\lvgl\version_6.1.2\lvgl\src\lv_objx/lv_cb.c ****             lv_btn_set_style(cb, LV_BTN_STYLE_TGL_PR, style);
 749              		.loc 1 167 0
 750 01bc 2046     		mov	r0, r4
 751 01be 134A     		ldr	r2, .L58+20
 752 01c0 0221     		movs	r1, #2
 753 01c2 FFF7FEFF 		bl	lv_btn_set_style
 754              	.LVL109:
 168:..\..\..\lvgl\version_6.1.2\lvgl\src\lv_objx/lv_cb.c ****             lv_btn_set_style(cb, LV_BTN_STYLE_INA, style);
 755              		.loc 1 168 0
 756 01c6 2046     		mov	r0, r4
 757 01c8 104A     		ldr	r2, .L58+20
 758 01ca 0321     		movs	r1, #3
 759 01cc FFF7FEFF 		bl	lv_btn_set_style
 760              	.LVL110:
 169:..\..\..\lvgl\version_6.1.2\lvgl\src\lv_objx/lv_cb.c ****             break;
 761              		.loc 1 169 0
 762 01d0 0E4A     		ldr	r2, .L58+20
 763 01d2 0421     		movs	r1, #4
 764 01d4 2046     		mov	r0, r4
 765 01d6 FFF7FEFF 		bl	lv_btn_set_style
 766              	.LVL111:
 767              	.LBE99:
 768              	.LBE98:
 769              	.LBB100:
 770              	.LBB101:
 161:..\..\..\lvgl\version_6.1.2\lvgl\src\lv_objx/lv_cb.c **** 
 771              		.loc 1 161 0
 772 01da 2046     		mov	r0, r4
 773 01dc FFF7FEFF 		bl	lv_obj_get_ext_attr
 774              	.LVL112:
 171:..\..\..\lvgl\version_6.1.2\lvgl\src\lv_objx/lv_cb.c ****         case LV_CB_STYLE_BOX_PR: lv_btn_set_style(ext->bullet, LV_BTN_STYLE_PR, style); break;
 775              		.loc 1 171 0
 776 01e0 3946     		mov	r1, r7
 777 01e2 C069     		ldr	r0, [r0, #28]
 778              	.LVL113:
 779 01e4 0A4A     		ldr	r2, .L58+24
 780 01e6 FFF7FEFF 		bl	lv_btn_set_style
 781              	.LVL114:
 782 01ea 42E7     		b	.L49
 783              	.LVL115:
 784              	.L57:
 785              	.LBE101:
 786              	.LBE100:
  79:..\..\..\lvgl\version_6.1.2\lvgl\src\lv_objx/lv_cb.c ****         lv_obj_set_click(ext->bullet, false);
 787              		.loc 1 79 0 discriminator 1
 788 01ec FFF7FEFF 		bl	lv_obj_get_design_cb
 789              	.LVL116:
 790 01f0 EB69     		ldr	r3, [r5, #28]
ARM GAS  C:\Users\pearlstl\AppData\Local\Temp\ccEDNCxX.s 			page 33


 791 01f2 7060     		str	r0, [r6, #4]
 792 01f4 50E7     		b	.L47
 793              	.L59:
 794 01f6 00BF     		.align	2
 795              	.L58:
 796 01f8 00000000 		.word	.LANCHOR0
 797 01fc 00000000 		.word	lv_cb_signal
 798 0200 00000000 		.word	lv_cb_design
 799 0204 00000000 		.word	lv_bullet_design
 800 0208 08000000 		.word	.LC1
 801 020c 00000000 		.word	lv_style_transp
 802 0210 00000000 		.word	lv_style_pretty
 803              	.LBE102:
 804              		.cfi_endproc
 805              	.LFE50:
 806              		.size	lv_cb_create, .-lv_cb_create
 807              		.section	.text.lv_cb_set_text,"ax",%progbits
 808              		.align	2
 809              		.global	lv_cb_set_text
 810              		.thumb
 811              		.thumb_func
 812              		.type	lv_cb_set_text, %function
 813              	lv_cb_set_text:
 814              	.LFB51:
 130:..\..\..\lvgl\version_6.1.2\lvgl\src\lv_objx/lv_cb.c ****     LV_ASSERT_OBJ(cb, LV_OBJX_NAME);
 815              		.loc 1 130 0
 816              		.cfi_startproc
 817              		@ args = 0, pretend = 0, frame = 0
 818              		@ frame_needed = 0, uses_anonymous_args = 0
 819              	.LVL117:
 820 0000 10B5     		push	{r4, lr}
 821              		.cfi_def_cfa_offset 8
 822              		.cfi_offset 4, -8
 823              		.cfi_offset 14, -4
 130:..\..\..\lvgl\version_6.1.2\lvgl\src\lv_objx/lv_cb.c ****     LV_ASSERT_OBJ(cb, LV_OBJX_NAME);
 824              		.loc 1 130 0
 825 0002 0C46     		mov	r4, r1
 133:..\..\..\lvgl\version_6.1.2\lvgl\src\lv_objx/lv_cb.c ****     lv_label_set_text(ext->label, txt);
 826              		.loc 1 133 0
 827 0004 FFF7FEFF 		bl	lv_obj_get_ext_attr
 828              	.LVL118:
 134:..\..\..\lvgl\version_6.1.2\lvgl\src\lv_objx/lv_cb.c **** }
 829              		.loc 1 134 0
 830 0008 2146     		mov	r1, r4
 831 000a 006A     		ldr	r0, [r0, #32]
 832              	.LVL119:
 135:..\..\..\lvgl\version_6.1.2\lvgl\src\lv_objx/lv_cb.c **** 
 833              		.loc 1 135 0
 834 000c BDE81040 		pop	{r4, lr}
 835              		.cfi_restore 14
 836              		.cfi_restore 4
 837              		.cfi_def_cfa_offset 0
 838              	.LVL120:
 134:..\..\..\lvgl\version_6.1.2\lvgl\src\lv_objx/lv_cb.c **** }
 839              		.loc 1 134 0
 840 0010 FFF7FEBF 		b	lv_label_set_text
 841              	.LVL121:
ARM GAS  C:\Users\pearlstl\AppData\Local\Temp\ccEDNCxX.s 			page 34


 842              		.cfi_endproc
 843              	.LFE51:
 844              		.size	lv_cb_set_text, .-lv_cb_set_text
 845              		.section	.text.lv_cb_set_static_text,"ax",%progbits
 846              		.align	2
 847              		.global	lv_cb_set_static_text
 848              		.thumb
 849              		.thumb_func
 850              		.type	lv_cb_set_static_text, %function
 851              	lv_cb_set_static_text:
 852              	.LFB52:
 144:..\..\..\lvgl\version_6.1.2\lvgl\src\lv_objx/lv_cb.c ****     LV_ASSERT_OBJ(cb, LV_OBJX_NAME);
 853              		.loc 1 144 0
 854              		.cfi_startproc
 855              		@ args = 0, pretend = 0, frame = 0
 856              		@ frame_needed = 0, uses_anonymous_args = 0
 857              	.LVL122:
 858 0000 10B5     		push	{r4, lr}
 859              		.cfi_def_cfa_offset 8
 860              		.cfi_offset 4, -8
 861              		.cfi_offset 14, -4
 144:..\..\..\lvgl\version_6.1.2\lvgl\src\lv_objx/lv_cb.c ****     LV_ASSERT_OBJ(cb, LV_OBJX_NAME);
 862              		.loc 1 144 0
 863 0002 0C46     		mov	r4, r1
 147:..\..\..\lvgl\version_6.1.2\lvgl\src\lv_objx/lv_cb.c ****     lv_label_set_static_text(ext->label, txt);
 864              		.loc 1 147 0
 865 0004 FFF7FEFF 		bl	lv_obj_get_ext_attr
 866              	.LVL123:
 148:..\..\..\lvgl\version_6.1.2\lvgl\src\lv_objx/lv_cb.c **** }
 867              		.loc 1 148 0
 868 0008 2146     		mov	r1, r4
 869 000a 006A     		ldr	r0, [r0, #32]
 870              	.LVL124:
 149:..\..\..\lvgl\version_6.1.2\lvgl\src\lv_objx/lv_cb.c **** 
 871              		.loc 1 149 0
 872 000c BDE81040 		pop	{r4, lr}
 873              		.cfi_restore 14
 874              		.cfi_restore 4
 875              		.cfi_def_cfa_offset 0
 876              	.LVL125:
 148:..\..\..\lvgl\version_6.1.2\lvgl\src\lv_objx/lv_cb.c **** }
 877              		.loc 1 148 0
 878 0010 FFF7FEBF 		b	lv_label_set_static_text
 879              	.LVL126:
 880              		.cfi_endproc
 881              	.LFE52:
 882              		.size	lv_cb_set_static_text, .-lv_cb_set_static_text
 883              		.section	.text.lv_cb_set_style,"ax",%progbits
 884              		.align	2
 885              		.global	lv_cb_set_style
 886              		.thumb
 887              		.thumb_func
 888              		.type	lv_cb_set_style, %function
 889              	lv_cb_set_style:
 890              	.LFB53:
 158:..\..\..\lvgl\version_6.1.2\lvgl\src\lv_objx/lv_cb.c ****     LV_ASSERT_OBJ(cb, LV_OBJX_NAME);
 891              		.loc 1 158 0
ARM GAS  C:\Users\pearlstl\AppData\Local\Temp\ccEDNCxX.s 			page 35


 892              		.cfi_startproc
 893              		@ args = 0, pretend = 0, frame = 0
 894              		@ frame_needed = 0, uses_anonymous_args = 0
 895              	.LVL127:
 896 0000 70B5     		push	{r4, r5, r6, lr}
 897              		.cfi_def_cfa_offset 16
 898              		.cfi_offset 4, -16
 899              		.cfi_offset 5, -12
 900              		.cfi_offset 6, -8
 901              		.cfi_offset 14, -4
 158:..\..\..\lvgl\version_6.1.2\lvgl\src\lv_objx/lv_cb.c ****     LV_ASSERT_OBJ(cb, LV_OBJX_NAME);
 902              		.loc 1 158 0
 903 0002 0C46     		mov	r4, r1
 904 0004 1546     		mov	r5, r2
 905 0006 0646     		mov	r6, r0
 161:..\..\..\lvgl\version_6.1.2\lvgl\src\lv_objx/lv_cb.c **** 
 906              		.loc 1 161 0
 907 0008 FFF7FEFF 		bl	lv_obj_get_ext_attr
 908              	.LVL128:
 163:..\..\..\lvgl\version_6.1.2\lvgl\src\lv_objx/lv_cb.c ****         case LV_CB_STYLE_BG:
 909              		.loc 1 163 0
 910 000c 052C     		cmp	r4, #5
 911 000e 42D8     		bhi	.L64
 912 0010 DFE804F0 		tbb	[pc, r4]
 913              	.L67:
 914 0014 0A       		.byte	(.L66-.L67)/2
 915 0015 25       		.byte	(.L68-.L67)/2
 916 0016 2C       		.byte	(.L69-.L67)/2
 917 0017 33       		.byte	(.L70-.L67)/2
 918 0018 3A       		.byte	(.L71-.L67)/2
 919 0019 03       		.byte	(.L72-.L67)/2
 920              		.p2align 1
 921              	.L72:
 175:..\..\..\lvgl\version_6.1.2\lvgl\src\lv_objx/lv_cb.c ****     }
 922              		.loc 1 175 0
 923 001a 2A46     		mov	r2, r5
 924 001c C069     		ldr	r0, [r0, #28]
 925              	.LVL129:
 926 001e 0421     		movs	r1, #4
 177:..\..\..\lvgl\version_6.1.2\lvgl\src\lv_objx/lv_cb.c **** 
 927              		.loc 1 177 0
 928 0020 BDE87040 		pop	{r4, r5, r6, lr}
 929              		.cfi_remember_state
 930              		.cfi_restore 14
 931              		.cfi_restore 6
 932              		.cfi_restore 5
 933              		.cfi_restore 4
 934              		.cfi_def_cfa_offset 0
 935              	.LVL130:
 175:..\..\..\lvgl\version_6.1.2\lvgl\src\lv_objx/lv_cb.c ****     }
 936              		.loc 1 175 0
 937 0024 FFF7FEBF 		b	lv_btn_set_style
 938              	.LVL131:
 939              	.L66:
 940              		.cfi_restore_state
 165:..\..\..\lvgl\version_6.1.2\lvgl\src\lv_objx/lv_cb.c ****             lv_btn_set_style(cb, LV_BTN_STYLE_PR, style);
 941              		.loc 1 165 0
ARM GAS  C:\Users\pearlstl\AppData\Local\Temp\ccEDNCxX.s 			page 36


 942 0028 2A46     		mov	r2, r5
 943 002a 3046     		mov	r0, r6
 944              	.LVL132:
 945 002c 0021     		movs	r1, #0
 946 002e FFF7FEFF 		bl	lv_btn_set_style
 947              	.LVL133:
 166:..\..\..\lvgl\version_6.1.2\lvgl\src\lv_objx/lv_cb.c ****             lv_btn_set_style(cb, LV_BTN_STYLE_TGL_REL, style);
 948              		.loc 1 166 0
 949 0032 2A46     		mov	r2, r5
 950 0034 3046     		mov	r0, r6
 951 0036 0121     		movs	r1, #1
 952 0038 FFF7FEFF 		bl	lv_btn_set_style
 953              	.LVL134:
 167:..\..\..\lvgl\version_6.1.2\lvgl\src\lv_objx/lv_cb.c ****             lv_btn_set_style(cb, LV_BTN_STYLE_TGL_PR, style);
 954              		.loc 1 167 0
 955 003c 2A46     		mov	r2, r5
 956 003e 3046     		mov	r0, r6
 957 0040 0221     		movs	r1, #2
 958 0042 FFF7FEFF 		bl	lv_btn_set_style
 959              	.LVL135:
 168:..\..\..\lvgl\version_6.1.2\lvgl\src\lv_objx/lv_cb.c ****             lv_btn_set_style(cb, LV_BTN_STYLE_INA, style);
 960              		.loc 1 168 0
 961 0046 2A46     		mov	r2, r5
 962 0048 3046     		mov	r0, r6
 963 004a 0321     		movs	r1, #3
 964 004c FFF7FEFF 		bl	lv_btn_set_style
 965              	.LVL136:
 169:..\..\..\lvgl\version_6.1.2\lvgl\src\lv_objx/lv_cb.c ****             break;
 966              		.loc 1 169 0
 967 0050 2A46     		mov	r2, r5
 968 0052 3046     		mov	r0, r6
 969 0054 0421     		movs	r1, #4
 177:..\..\..\lvgl\version_6.1.2\lvgl\src\lv_objx/lv_cb.c **** 
 970              		.loc 1 177 0
 971 0056 BDE87040 		pop	{r4, r5, r6, lr}
 972              		.cfi_remember_state
 973              		.cfi_restore 14
 974              		.cfi_restore 6
 975              		.cfi_restore 5
 976              		.cfi_restore 4
 977              		.cfi_def_cfa_offset 0
 978              	.LVL137:
 169:..\..\..\lvgl\version_6.1.2\lvgl\src\lv_objx/lv_cb.c ****             break;
 979              		.loc 1 169 0
 980 005a FFF7FEBF 		b	lv_btn_set_style
 981              	.LVL138:
 982              	.L68:
 983              		.cfi_restore_state
 171:..\..\..\lvgl\version_6.1.2\lvgl\src\lv_objx/lv_cb.c ****         case LV_CB_STYLE_BOX_PR: lv_btn_set_style(ext->bullet, LV_BTN_STYLE_PR, style); break;
 984              		.loc 1 171 0
 985 005e 2A46     		mov	r2, r5
 986 0060 C069     		ldr	r0, [r0, #28]
 987              	.LVL139:
 988 0062 0021     		movs	r1, #0
 177:..\..\..\lvgl\version_6.1.2\lvgl\src\lv_objx/lv_cb.c **** 
 989              		.loc 1 177 0
 990 0064 BDE87040 		pop	{r4, r5, r6, lr}
ARM GAS  C:\Users\pearlstl\AppData\Local\Temp\ccEDNCxX.s 			page 37


 991              		.cfi_remember_state
 992              		.cfi_restore 14
 993              		.cfi_restore 6
 994              		.cfi_restore 5
 995              		.cfi_restore 4
 996              		.cfi_def_cfa_offset 0
 997              	.LVL140:
 171:..\..\..\lvgl\version_6.1.2\lvgl\src\lv_objx/lv_cb.c ****         case LV_CB_STYLE_BOX_PR: lv_btn_set_style(ext->bullet, LV_BTN_STYLE_PR, style); break;
 998              		.loc 1 171 0
 999 0068 FFF7FEBF 		b	lv_btn_set_style
 1000              	.LVL141:
 1001              	.L69:
 1002              		.cfi_restore_state
 172:..\..\..\lvgl\version_6.1.2\lvgl\src\lv_objx/lv_cb.c ****         case LV_CB_STYLE_BOX_TGL_REL: lv_btn_set_style(ext->bullet, LV_BTN_STYLE_TGL_REL, style); b
 1003              		.loc 1 172 0
 1004 006c 2A46     		mov	r2, r5
 1005 006e C069     		ldr	r0, [r0, #28]
 1006              	.LVL142:
 1007 0070 0121     		movs	r1, #1
 177:..\..\..\lvgl\version_6.1.2\lvgl\src\lv_objx/lv_cb.c **** 
 1008              		.loc 1 177 0
 1009 0072 BDE87040 		pop	{r4, r5, r6, lr}
 1010              		.cfi_remember_state
 1011              		.cfi_restore 14
 1012              		.cfi_restore 6
 1013              		.cfi_restore 5
 1014              		.cfi_restore 4
 1015              		.cfi_def_cfa_offset 0
 1016              	.LVL143:
 172:..\..\..\lvgl\version_6.1.2\lvgl\src\lv_objx/lv_cb.c ****         case LV_CB_STYLE_BOX_TGL_REL: lv_btn_set_style(ext->bullet, LV_BTN_STYLE_TGL_REL, style); b
 1017              		.loc 1 172 0
 1018 0076 FFF7FEBF 		b	lv_btn_set_style
 1019              	.LVL144:
 1020              	.L70:
 1021              		.cfi_restore_state
 173:..\..\..\lvgl\version_6.1.2\lvgl\src\lv_objx/lv_cb.c ****         case LV_CB_STYLE_BOX_TGL_PR: lv_btn_set_style(ext->bullet, LV_BTN_STYLE_TGL_PR, style); bre
 1022              		.loc 1 173 0
 1023 007a 2A46     		mov	r2, r5
 1024 007c C069     		ldr	r0, [r0, #28]
 1025              	.LVL145:
 1026 007e 0221     		movs	r1, #2
 177:..\..\..\lvgl\version_6.1.2\lvgl\src\lv_objx/lv_cb.c **** 
 1027              		.loc 1 177 0
 1028 0080 BDE87040 		pop	{r4, r5, r6, lr}
 1029              		.cfi_remember_state
 1030              		.cfi_restore 14
 1031              		.cfi_restore 6
 1032              		.cfi_restore 5
 1033              		.cfi_restore 4
 1034              		.cfi_def_cfa_offset 0
 1035              	.LVL146:
 173:..\..\..\lvgl\version_6.1.2\lvgl\src\lv_objx/lv_cb.c ****         case LV_CB_STYLE_BOX_TGL_PR: lv_btn_set_style(ext->bullet, LV_BTN_STYLE_TGL_PR, style); bre
 1036              		.loc 1 173 0
 1037 0084 FFF7FEBF 		b	lv_btn_set_style
 1038              	.LVL147:
 1039              	.L71:
 1040              		.cfi_restore_state
ARM GAS  C:\Users\pearlstl\AppData\Local\Temp\ccEDNCxX.s 			page 38


 174:..\..\..\lvgl\version_6.1.2\lvgl\src\lv_objx/lv_cb.c ****         case LV_CB_STYLE_BOX_INA: lv_btn_set_style(ext->bullet, LV_BTN_STYLE_INA, style); break;
 1041              		.loc 1 174 0
 1042 0088 2A46     		mov	r2, r5
 1043 008a C069     		ldr	r0, [r0, #28]
 1044              	.LVL148:
 1045 008c 0321     		movs	r1, #3
 177:..\..\..\lvgl\version_6.1.2\lvgl\src\lv_objx/lv_cb.c **** 
 1046              		.loc 1 177 0
 1047 008e BDE87040 		pop	{r4, r5, r6, lr}
 1048              		.cfi_restore 14
 1049              		.cfi_restore 6
 1050              		.cfi_restore 5
 1051              		.cfi_restore 4
 1052              		.cfi_def_cfa_offset 0
 1053              	.LVL149:
 174:..\..\..\lvgl\version_6.1.2\lvgl\src\lv_objx/lv_cb.c ****         case LV_CB_STYLE_BOX_INA: lv_btn_set_style(ext->bullet, LV_BTN_STYLE_INA, style); break;
 1054              		.loc 1 174 0
 1055 0092 FFF7FEBF 		b	lv_btn_set_style
 1056              	.LVL150:
 1057              	.L64:
 1058 0096 70BD     		pop	{r4, r5, r6, pc}
 1059              		.cfi_endproc
 1060              	.LFE53:
 1061              		.size	lv_cb_set_style, .-lv_cb_set_style
 1062              		.section	.text.lv_cb_get_text,"ax",%progbits
 1063              		.align	2
 1064              		.global	lv_cb_get_text
 1065              		.thumb
 1066              		.thumb_func
 1067              		.type	lv_cb_get_text, %function
 1068              	lv_cb_get_text:
 1069              	.LFB54:
 189:..\..\..\lvgl\version_6.1.2\lvgl\src\lv_objx/lv_cb.c ****     LV_ASSERT_OBJ(cb, LV_OBJX_NAME);
 1070              		.loc 1 189 0
 1071              		.cfi_startproc
 1072              		@ args = 0, pretend = 0, frame = 0
 1073              		@ frame_needed = 0, uses_anonymous_args = 0
 1074              	.LVL151:
 1075 0000 08B5     		push	{r3, lr}
 1076              		.cfi_def_cfa_offset 8
 1077              		.cfi_offset 3, -8
 1078              		.cfi_offset 14, -4
 192:..\..\..\lvgl\version_6.1.2\lvgl\src\lv_objx/lv_cb.c ****     return lv_label_get_text(ext->label);
 1079              		.loc 1 192 0
 1080 0002 FFF7FEFF 		bl	lv_obj_get_ext_attr
 1081              	.LVL152:
 194:..\..\..\lvgl\version_6.1.2\lvgl\src\lv_objx/lv_cb.c **** 
 1082              		.loc 1 194 0
 1083 0006 BDE80840 		pop	{r3, lr}
 1084              		.cfi_restore 14
 1085              		.cfi_restore 3
 1086              		.cfi_def_cfa_offset 0
 193:..\..\..\lvgl\version_6.1.2\lvgl\src\lv_objx/lv_cb.c **** }
 1087              		.loc 1 193 0
 1088 000a 006A     		ldr	r0, [r0, #32]
 1089              	.LVL153:
 1090 000c FFF7FEBF 		b	lv_label_get_text
ARM GAS  C:\Users\pearlstl\AppData\Local\Temp\ccEDNCxX.s 			page 39


 1091              	.LVL154:
 1092              		.cfi_endproc
 1093              	.LFE54:
 1094              		.size	lv_cb_get_text, .-lv_cb_get_text
 1095              		.section	.text.lv_cb_get_style,"ax",%progbits
 1096              		.align	2
 1097              		.global	lv_cb_get_style
 1098              		.thumb
 1099              		.thumb_func
 1100              		.type	lv_cb_get_style, %function
 1101              	lv_cb_get_style:
 1102              	.LFB55:
 203:..\..\..\lvgl\version_6.1.2\lvgl\src\lv_objx/lv_cb.c ****     LV_ASSERT_OBJ(cb, LV_OBJX_NAME);
 1103              		.loc 1 203 0
 1104              		.cfi_startproc
 1105              		@ args = 0, pretend = 0, frame = 0
 1106              		@ frame_needed = 0, uses_anonymous_args = 0
 1107              	.LVL155:
 1108 0000 38B5     		push	{r3, r4, r5, lr}
 1109              		.cfi_def_cfa_offset 16
 1110              		.cfi_offset 3, -16
 1111              		.cfi_offset 4, -12
 1112              		.cfi_offset 5, -8
 1113              		.cfi_offset 14, -4
 203:..\..\..\lvgl\version_6.1.2\lvgl\src\lv_objx/lv_cb.c ****     LV_ASSERT_OBJ(cb, LV_OBJX_NAME);
 1114              		.loc 1 203 0
 1115 0002 0C46     		mov	r4, r1
 1116 0004 0546     		mov	r5, r0
 207:..\..\..\lvgl\version_6.1.2\lvgl\src\lv_objx/lv_cb.c **** 
 1117              		.loc 1 207 0
 1118 0006 FFF7FEFF 		bl	lv_obj_get_ext_attr
 1119              	.LVL156:
 209:..\..\..\lvgl\version_6.1.2\lvgl\src\lv_objx/lv_cb.c ****         case LV_CB_STYLE_BG: style = lv_btn_get_style(cb, LV_BTN_STYLE_REL); break;
 1120              		.loc 1 209 0
 1121 000a 052C     		cmp	r4, #5
 1122 000c 28D8     		bhi	.L77
 1123 000e DFE804F0 		tbb	[pc, r4]
 1124              	.L79:
 1125 0012 09       		.byte	(.L78-.L79)/2
 1126 0013 0F       		.byte	(.L80-.L79)/2
 1127 0014 15       		.byte	(.L81-.L79)/2
 1128 0015 1B       		.byte	(.L82-.L79)/2
 1129 0016 21       		.byte	(.L83-.L79)/2
 1130 0017 03       		.byte	(.L84-.L79)/2
 1131              		.p2align 1
 1132              	.L84:
 215:..\..\..\lvgl\version_6.1.2\lvgl\src\lv_objx/lv_cb.c ****         default: style = NULL; break;
 1133              		.loc 1 215 0
 1134 0018 C069     		ldr	r0, [r0, #28]
 1135              	.LVL157:
 1136 001a 0421     		movs	r1, #4
 220:..\..\..\lvgl\version_6.1.2\lvgl\src\lv_objx/lv_cb.c **** 
 1137              		.loc 1 220 0
 1138 001c BDE83840 		pop	{r3, r4, r5, lr}
 1139              		.cfi_remember_state
 1140              		.cfi_restore 14
 1141              		.cfi_restore 5
ARM GAS  C:\Users\pearlstl\AppData\Local\Temp\ccEDNCxX.s 			page 40


 1142              		.cfi_restore 4
 1143              		.cfi_restore 3
 1144              		.cfi_def_cfa_offset 0
 1145              	.LVL158:
 215:..\..\..\lvgl\version_6.1.2\lvgl\src\lv_objx/lv_cb.c ****         default: style = NULL; break;
 1146              		.loc 1 215 0
 1147 0020 FFF7FEBF 		b	lv_btn_get_style
 1148              	.LVL159:
 1149              	.L78:
 1150              		.cfi_restore_state
 210:..\..\..\lvgl\version_6.1.2\lvgl\src\lv_objx/lv_cb.c ****         case LV_CB_STYLE_BOX_REL: style = lv_btn_get_style(ext->bullet, LV_BTN_STYLE_REL); break;
 1151              		.loc 1 210 0
 1152 0024 2846     		mov	r0, r5
 1153              	.LVL160:
 1154 0026 0021     		movs	r1, #0
 220:..\..\..\lvgl\version_6.1.2\lvgl\src\lv_objx/lv_cb.c **** 
 1155              		.loc 1 220 0
 1156 0028 BDE83840 		pop	{r3, r4, r5, lr}
 1157              		.cfi_remember_state
 1158              		.cfi_restore 14
 1159              		.cfi_restore 5
 1160              		.cfi_restore 4
 1161              		.cfi_restore 3
 1162              		.cfi_def_cfa_offset 0
 1163              	.LVL161:
 210:..\..\..\lvgl\version_6.1.2\lvgl\src\lv_objx/lv_cb.c ****         case LV_CB_STYLE_BOX_REL: style = lv_btn_get_style(ext->bullet, LV_BTN_STYLE_REL); break;
 1164              		.loc 1 210 0
 1165 002c FFF7FEBF 		b	lv_btn_get_style
 1166              	.LVL162:
 1167              	.L80:
 1168              		.cfi_restore_state
 211:..\..\..\lvgl\version_6.1.2\lvgl\src\lv_objx/lv_cb.c ****         case LV_CB_STYLE_BOX_PR: style = lv_btn_get_style(ext->bullet, LV_BTN_STYLE_PR); break;
 1169              		.loc 1 211 0
 1170 0030 C069     		ldr	r0, [r0, #28]
 1171              	.LVL163:
 1172 0032 0021     		movs	r1, #0
 220:..\..\..\lvgl\version_6.1.2\lvgl\src\lv_objx/lv_cb.c **** 
 1173              		.loc 1 220 0
 1174 0034 BDE83840 		pop	{r3, r4, r5, lr}
 1175              		.cfi_remember_state
 1176              		.cfi_restore 14
 1177              		.cfi_restore 5
 1178              		.cfi_restore 4
 1179              		.cfi_restore 3
 1180              		.cfi_def_cfa_offset 0
 1181              	.LVL164:
 211:..\..\..\lvgl\version_6.1.2\lvgl\src\lv_objx/lv_cb.c ****         case LV_CB_STYLE_BOX_PR: style = lv_btn_get_style(ext->bullet, LV_BTN_STYLE_PR); break;
 1182              		.loc 1 211 0
 1183 0038 FFF7FEBF 		b	lv_btn_get_style
 1184              	.LVL165:
 1185              	.L81:
 1186              		.cfi_restore_state
 212:..\..\..\lvgl\version_6.1.2\lvgl\src\lv_objx/lv_cb.c ****         case LV_CB_STYLE_BOX_TGL_REL: style = lv_btn_get_style(ext->bullet, LV_BTN_STYLE_TGL_REL); 
 1187              		.loc 1 212 0
 1188 003c C069     		ldr	r0, [r0, #28]
 1189              	.LVL166:
 1190 003e 0121     		movs	r1, #1
ARM GAS  C:\Users\pearlstl\AppData\Local\Temp\ccEDNCxX.s 			page 41


 220:..\..\..\lvgl\version_6.1.2\lvgl\src\lv_objx/lv_cb.c **** 
 1191              		.loc 1 220 0
 1192 0040 BDE83840 		pop	{r3, r4, r5, lr}
 1193              		.cfi_remember_state
 1194              		.cfi_restore 14
 1195              		.cfi_restore 5
 1196              		.cfi_restore 4
 1197              		.cfi_restore 3
 1198              		.cfi_def_cfa_offset 0
 1199              	.LVL167:
 212:..\..\..\lvgl\version_6.1.2\lvgl\src\lv_objx/lv_cb.c ****         case LV_CB_STYLE_BOX_TGL_REL: style = lv_btn_get_style(ext->bullet, LV_BTN_STYLE_TGL_REL); 
 1200              		.loc 1 212 0
 1201 0044 FFF7FEBF 		b	lv_btn_get_style
 1202              	.LVL168:
 1203              	.L82:
 1204              		.cfi_restore_state
 213:..\..\..\lvgl\version_6.1.2\lvgl\src\lv_objx/lv_cb.c ****         case LV_CB_STYLE_BOX_TGL_PR: style = lv_btn_get_style(ext->bullet, LV_BTN_STYLE_TGL_PR); br
 1205              		.loc 1 213 0
 1206 0048 C069     		ldr	r0, [r0, #28]
 1207              	.LVL169:
 1208 004a 0221     		movs	r1, #2
 220:..\..\..\lvgl\version_6.1.2\lvgl\src\lv_objx/lv_cb.c **** 
 1209              		.loc 1 220 0
 1210 004c BDE83840 		pop	{r3, r4, r5, lr}
 1211              		.cfi_remember_state
 1212              		.cfi_restore 14
 1213              		.cfi_restore 5
 1214              		.cfi_restore 4
 1215              		.cfi_restore 3
 1216              		.cfi_def_cfa_offset 0
 1217              	.LVL170:
 213:..\..\..\lvgl\version_6.1.2\lvgl\src\lv_objx/lv_cb.c ****         case LV_CB_STYLE_BOX_TGL_PR: style = lv_btn_get_style(ext->bullet, LV_BTN_STYLE_TGL_PR); br
 1218              		.loc 1 213 0
 1219 0050 FFF7FEBF 		b	lv_btn_get_style
 1220              	.LVL171:
 1221              	.L83:
 1222              		.cfi_restore_state
 214:..\..\..\lvgl\version_6.1.2\lvgl\src\lv_objx/lv_cb.c ****         case LV_CB_STYLE_BOX_INA: style = lv_btn_get_style(ext->bullet, LV_BTN_STYLE_INA); break;
 1223              		.loc 1 214 0
 1224 0054 C069     		ldr	r0, [r0, #28]
 1225              	.LVL172:
 1226 0056 0321     		movs	r1, #3
 220:..\..\..\lvgl\version_6.1.2\lvgl\src\lv_objx/lv_cb.c **** 
 1227              		.loc 1 220 0
 1228 0058 BDE83840 		pop	{r3, r4, r5, lr}
 1229              		.cfi_restore 14
 1230              		.cfi_restore 5
 1231              		.cfi_restore 4
 1232              		.cfi_restore 3
 1233              		.cfi_def_cfa_offset 0
 1234              	.LVL173:
 214:..\..\..\lvgl\version_6.1.2\lvgl\src\lv_objx/lv_cb.c ****         case LV_CB_STYLE_BOX_INA: style = lv_btn_get_style(ext->bullet, LV_BTN_STYLE_INA); break;
 1235              		.loc 1 214 0
 1236 005c FFF7FEBF 		b	lv_btn_get_style
 1237              	.LVL174:
 1238              	.L77:
 220:..\..\..\lvgl\version_6.1.2\lvgl\src\lv_objx/lv_cb.c **** 
ARM GAS  C:\Users\pearlstl\AppData\Local\Temp\ccEDNCxX.s 			page 42


 1239              		.loc 1 220 0
 1240 0060 0020     		movs	r0, #0
 1241              	.LVL175:
 1242 0062 38BD     		pop	{r3, r4, r5, pc}
 1243              		.cfi_endproc
 1244              	.LFE55:
 1245              		.size	lv_cb_get_style, .-lv_cb_get_style
 1246              		.section	.rodata.str1.4,"aMS",%progbits,1
 1247              		.align	2
 1248              	.LC0:
 1249 0000 6C765F63 		.ascii	"lv_cb\000"
 1249      6200
 1250 0006 0000     		.space	2
 1251              	.LC1:
 1252 0008 43686563 		.ascii	"Check box\000"
 1252      6B20626F 
 1252      7800
 1253              		.bss
 1254              		.align	2
 1255              		.set	.LANCHOR0,. + 0
 1256              		.type	ancestor_signal, %object
 1257              		.size	ancestor_signal, 4
 1258              	ancestor_signal:
 1259 0000 00000000 		.space	4
 1260              		.type	ancestor_bullet_design, %object
 1261              		.size	ancestor_bullet_design, 4
 1262              	ancestor_bullet_design:
 1263 0004 00000000 		.space	4
 1264              		.type	ancestor_bg_design, %object
 1265              		.size	ancestor_bg_design, 4
 1266              	ancestor_bg_design:
 1267 0008 00000000 		.space	4
 1268              		.text
 1269              	.Letext0:
 1270              		.file 5 "c:\\program files (x86)\\cypress\\psoc creator\\4.2\\psoc creator\\import\\gnu\\arm\\5.4.
 1271              		.file 6 "c:\\program files (x86)\\cypress\\psoc creator\\4.2\\psoc creator\\import\\gnu\\arm\\5.4.
 1272              		.file 7 "..\\..\\..\\lvgl\\version_6.1.2\\lvgl\\src\\lv_objx\\../../../lv_conf.h"
 1273              		.file 8 "..\\..\\..\\lvgl\\version_6.1.2\\lvgl\\src\\lv_objx\\../lv_core/../lv_font/lv_font.h"
 1274              		.file 9 "..\\..\\..\\lvgl\\version_6.1.2\\lvgl\\src\\lv_objx\\../lv_core/../lv_misc/lv_color.h"
 1275              		.file 10 "..\\..\\..\\lvgl\\version_6.1.2\\lvgl\\src\\lv_objx\\../lv_core/../lv_misc/lv_area.h"
 1276              		.file 11 "..\\..\\..\\lvgl\\version_6.1.2\\lvgl\\src\\lv_objx\\../lv_core/lv_style.h"
 1277              		.file 12 "..\\..\\..\\lvgl\\version_6.1.2\\lvgl\\src\\lv_objx\\../lv_core/../lv_misc/lv_types.h"
 1278              		.file 13 "..\\..\\..\\lvgl\\version_6.1.2\\lvgl\\src\\lv_objx\\../lv_core/../lv_misc/lv_ll.h"
 1279              		.file 14 "..\\..\\..\\lvgl\\version_6.1.2\\lvgl\\src\\lv_objx\\../lv_core/../lv_misc/lv_bidi.h"
 1280              		.file 15 "..\\..\\..\\lvgl\\version_6.1.2\\lvgl\\src\\lv_objx\\../lv_core/lv_obj.h"
 1281              		.file 16 "..\\..\\..\\lvgl\\version_6.1.2\\lvgl\\src\\lv_objx\\../lv_core/../lv_core/lv_group.h"
 1282              		.file 17 "..\\..\\..\\lvgl\\version_6.1.2\\lvgl\\src\\lv_objx\\lv_cb.h"
 1283              		.file 18 "..\\..\\..\\lvgl\\version_6.1.2\\lvgl\\src\\lv_objx\\../lv_themes/lv_theme.h"