ARM GAS  C:\Users\pearlstl\AppData\Local\Temp\cc7pgkmL.s 			page 1


   1              		.syntax unified
   2              		.cpu cortex-m4
   3              		.eabi_attribute 27, 1
   4              		.fpu fpv4-sp-d16
   5              		.eabi_attribute 20, 1
   6              		.eabi_attribute 21, 1
   7              		.eabi_attribute 23, 3
   8              		.eabi_attribute 24, 1
   9              		.eabi_attribute 25, 1
  10              		.eabi_attribute 26, 1
  11              		.eabi_attribute 30, 2
  12              		.eabi_attribute 34, 1
  13              		.eabi_attribute 18, 4
  14              		.thumb
  15              		.syntax unified
  16              		.file	"lv_color.c"
  17              		.text
  18              	.Ltext0:
  19              		.cfi_sections	.debug_frame
  20              		.section	.text.lv_color_hsv_to_rgb,"ax",%progbits
  21              		.align	2
  22              		.global	lv_color_hsv_to_rgb
  23              		.thumb
  24              		.thumb_func
  25              		.type	lv_color_hsv_to_rgb, %function
  26              	lv_color_hsv_to_rgb:
  27              	.LFB9:
  28              		.file 1 "..\\..\\..\\lvgl\\version_6.1.2\\lvgl\\src\\lv_misc\\lv_color.c"
   1:..\..\..\lvgl\version_6.1.2\lvgl\src\lv_misc/lv_color.c **** /**
   2:..\..\..\lvgl\version_6.1.2\lvgl\src\lv_misc/lv_color.c ****  * @file lv_color.c
   3:..\..\..\lvgl\version_6.1.2\lvgl\src\lv_misc/lv_color.c ****  *
   4:..\..\..\lvgl\version_6.1.2\lvgl\src\lv_misc/lv_color.c ****  */
   5:..\..\..\lvgl\version_6.1.2\lvgl\src\lv_misc/lv_color.c **** 
   6:..\..\..\lvgl\version_6.1.2\lvgl\src\lv_misc/lv_color.c **** /*********************
   7:..\..\..\lvgl\version_6.1.2\lvgl\src\lv_misc/lv_color.c ****  *      INCLUDES
   8:..\..\..\lvgl\version_6.1.2\lvgl\src\lv_misc/lv_color.c ****  *********************/
   9:..\..\..\lvgl\version_6.1.2\lvgl\src\lv_misc/lv_color.c **** #include "lv_color.h"
  10:..\..\..\lvgl\version_6.1.2\lvgl\src\lv_misc/lv_color.c **** #include "lv_math.h"
  11:..\..\..\lvgl\version_6.1.2\lvgl\src\lv_misc/lv_color.c **** 
  12:..\..\..\lvgl\version_6.1.2\lvgl\src\lv_misc/lv_color.c **** /*********************
  13:..\..\..\lvgl\version_6.1.2\lvgl\src\lv_misc/lv_color.c ****  *      DEFINES
  14:..\..\..\lvgl\version_6.1.2\lvgl\src\lv_misc/lv_color.c ****  *********************/
  15:..\..\..\lvgl\version_6.1.2\lvgl\src\lv_misc/lv_color.c **** 
  16:..\..\..\lvgl\version_6.1.2\lvgl\src\lv_misc/lv_color.c **** /**********************
  17:..\..\..\lvgl\version_6.1.2\lvgl\src\lv_misc/lv_color.c ****  *      TYPEDEFS
  18:..\..\..\lvgl\version_6.1.2\lvgl\src\lv_misc/lv_color.c ****  **********************/
  19:..\..\..\lvgl\version_6.1.2\lvgl\src\lv_misc/lv_color.c **** 
  20:..\..\..\lvgl\version_6.1.2\lvgl\src\lv_misc/lv_color.c **** /**********************
  21:..\..\..\lvgl\version_6.1.2\lvgl\src\lv_misc/lv_color.c ****  *  STATIC PROTOTYPES
  22:..\..\..\lvgl\version_6.1.2\lvgl\src\lv_misc/lv_color.c ****  **********************/
  23:..\..\..\lvgl\version_6.1.2\lvgl\src\lv_misc/lv_color.c **** 
  24:..\..\..\lvgl\version_6.1.2\lvgl\src\lv_misc/lv_color.c **** /**********************
  25:..\..\..\lvgl\version_6.1.2\lvgl\src\lv_misc/lv_color.c ****  *  STATIC VARIABLES
  26:..\..\..\lvgl\version_6.1.2\lvgl\src\lv_misc/lv_color.c ****  **********************/
  27:..\..\..\lvgl\version_6.1.2\lvgl\src\lv_misc/lv_color.c **** 
  28:..\..\..\lvgl\version_6.1.2\lvgl\src\lv_misc/lv_color.c **** /**********************
  29:..\..\..\lvgl\version_6.1.2\lvgl\src\lv_misc/lv_color.c ****  *      MACROS
ARM GAS  C:\Users\pearlstl\AppData\Local\Temp\cc7pgkmL.s 			page 2


  30:..\..\..\lvgl\version_6.1.2\lvgl\src\lv_misc/lv_color.c ****  **********************/
  31:..\..\..\lvgl\version_6.1.2\lvgl\src\lv_misc/lv_color.c **** 
  32:..\..\..\lvgl\version_6.1.2\lvgl\src\lv_misc/lv_color.c **** /**********************
  33:..\..\..\lvgl\version_6.1.2\lvgl\src\lv_misc/lv_color.c ****  *   GLOBAL FUNCTIONS
  34:..\..\..\lvgl\version_6.1.2\lvgl\src\lv_misc/lv_color.c ****  **********************/
  35:..\..\..\lvgl\version_6.1.2\lvgl\src\lv_misc/lv_color.c **** 
  36:..\..\..\lvgl\version_6.1.2\lvgl\src\lv_misc/lv_color.c **** /**********************
  37:..\..\..\lvgl\version_6.1.2\lvgl\src\lv_misc/lv_color.c ****  *   STATIC FUNCTIONS
  38:..\..\..\lvgl\version_6.1.2\lvgl\src\lv_misc/lv_color.c ****  **********************/
  39:..\..\..\lvgl\version_6.1.2\lvgl\src\lv_misc/lv_color.c **** 
  40:..\..\..\lvgl\version_6.1.2\lvgl\src\lv_misc/lv_color.c **** /**
  41:..\..\..\lvgl\version_6.1.2\lvgl\src\lv_misc/lv_color.c ****  * Convert a HSV color to RGB
  42:..\..\..\lvgl\version_6.1.2\lvgl\src\lv_misc/lv_color.c ****  * @param h hue [0..359]
  43:..\..\..\lvgl\version_6.1.2\lvgl\src\lv_misc/lv_color.c ****  * @param s saturation [0..100]
  44:..\..\..\lvgl\version_6.1.2\lvgl\src\lv_misc/lv_color.c ****  * @param v value [0..100]
  45:..\..\..\lvgl\version_6.1.2\lvgl\src\lv_misc/lv_color.c ****  * @return the given RGB color in RGB (with LV_COLOR_DEPTH depth)
  46:..\..\..\lvgl\version_6.1.2\lvgl\src\lv_misc/lv_color.c ****  */
  47:..\..\..\lvgl\version_6.1.2\lvgl\src\lv_misc/lv_color.c **** lv_color_t lv_color_hsv_to_rgb(uint16_t h, uint8_t s, uint8_t v)
  48:..\..\..\lvgl\version_6.1.2\lvgl\src\lv_misc/lv_color.c **** {
  29              		.loc 1 48 0
  30              		.cfi_startproc
  31              		@ args = 0, pretend = 0, frame = 0
  32              		@ frame_needed = 0, uses_anonymous_args = 0
  33              		@ link register save eliminated.
  34              	.LVL0:
  49:..\..\..\lvgl\version_6.1.2\lvgl\src\lv_misc/lv_color.c ****     h = (uint32_t)((uint32_t)h * 255) / 360;
  50:..\..\..\lvgl\version_6.1.2\lvgl\src\lv_misc/lv_color.c ****     s = (uint16_t)((uint16_t)s * 255) / 100;
  35              		.loc 1 50 0
  36 0000 384B     		ldr	r3, .L14
  37 0002 C1EB0121 		rsb	r1, r1, r1, lsl #8
  38              	.LVL1:
  39 0006 89B2     		uxth	r1, r1
  51:..\..\..\lvgl\version_6.1.2\lvgl\src\lv_misc/lv_color.c ****     v = (uint16_t)((uint16_t)v * 255) / 100;
  40              		.loc 1 51 0
  41 0008 C2EB0222 		rsb	r2, r2, r2, lsl #8
  42              	.LVL2:
  48:..\..\..\lvgl\version_6.1.2\lvgl\src\lv_misc/lv_color.c ****     h = (uint32_t)((uint32_t)h * 255) / 360;
  43              		.loc 1 48 0
  44 000c 30B4     		push	{r4, r5}
  45              		.cfi_def_cfa_offset 8
  46              		.cfi_offset 4, -8
  47              		.cfi_offset 5, -4
  48              		.loc 1 51 0
  49 000e 92B2     		uxth	r2, r2
  50:..\..\..\lvgl\version_6.1.2\lvgl\src\lv_misc/lv_color.c ****     v = (uint16_t)((uint16_t)v * 255) / 100;
  50              		.loc 1 50 0
  51 0010 A3FB0141 		umull	r4, r1, r3, r1
  52 0014 C1F34711 		ubfx	r1, r1, #5, #8
  53              		.loc 1 51 0
  54 0018 A3FB0232 		umull	r3, r2, r3, r2
  55              	.LVL3:
  56 001c C2F34712 		ubfx	r2, r2, #5, #8
  57              	.LVL4:
  52:..\..\..\lvgl\version_6.1.2\lvgl\src\lv_misc/lv_color.c **** 
  53:..\..\..\lvgl\version_6.1.2\lvgl\src\lv_misc/lv_color.c ****     uint8_t r, g, b;
  54:..\..\..\lvgl\version_6.1.2\lvgl\src\lv_misc/lv_color.c **** 
  55:..\..\..\lvgl\version_6.1.2\lvgl\src\lv_misc/lv_color.c ****     uint8_t region, remainder, p, q, t;
ARM GAS  C:\Users\pearlstl\AppData\Local\Temp\cc7pgkmL.s 			page 3


  56:..\..\..\lvgl\version_6.1.2\lvgl\src\lv_misc/lv_color.c **** 
  57:..\..\..\lvgl\version_6.1.2\lvgl\src\lv_misc/lv_color.c ****     if(s == 0) {
  58              		.loc 1 57 0
  59 0020 0029     		cmp	r1, #0
  60 0022 42D0     		beq	.L13
  49:..\..\..\lvgl\version_6.1.2\lvgl\src\lv_misc/lv_color.c ****     s = (uint16_t)((uint16_t)s * 255) / 100;
  61              		.loc 1 49 0
  62 0024 C0EB0020 		rsb	r0, r0, r0, lsl #8
  63              	.LVL5:
  64 0028 2F4B     		ldr	r3, .L14+4
  58:..\..\..\lvgl\version_6.1.2\lvgl\src\lv_misc/lv_color.c ****         r = v;
  59:..\..\..\lvgl\version_6.1.2\lvgl\src\lv_misc/lv_color.c ****         g = v;
  60:..\..\..\lvgl\version_6.1.2\lvgl\src\lv_misc/lv_color.c ****         b = v;
  61:..\..\..\lvgl\version_6.1.2\lvgl\src\lv_misc/lv_color.c ****         return lv_color_make(v, v, v);
  62:..\..\..\lvgl\version_6.1.2\lvgl\src\lv_misc/lv_color.c ****     }
  63:..\..\..\lvgl\version_6.1.2\lvgl\src\lv_misc/lv_color.c **** 
  64:..\..\..\lvgl\version_6.1.2\lvgl\src\lv_misc/lv_color.c ****     region    = h / 43;
  65              		.loc 1 64 0
  66 002a 304D     		ldr	r5, .L14+8
  49:..\..\..\lvgl\version_6.1.2\lvgl\src\lv_misc/lv_color.c ****     s = (uint16_t)((uint16_t)s * 255) / 100;
  67              		.loc 1 49 0
  68 002c C008     		lsrs	r0, r0, #3
  69 002e A3FB0003 		umull	r0, r3, r3, r0
  70 0032 9C08     		lsrs	r4, r3, #2
  71              		.loc 1 64 0
  72 0034 A3B2     		uxth	r3, r4
  73 0036 A5FB0330 		umull	r3, r0, r5, r3
  74 003a C0F3C700 		ubfx	r0, r0, #3, #8
  75              	.LVL6:
  65:..\..\..\lvgl\version_6.1.2\lvgl\src\lv_misc/lv_color.c ****     remainder = (h - (region * 43)) * 6;
  76              		.loc 1 65 0
  77 003e 6FF02A03 		mvn	r3, #42
  78 0042 03FB0043 		mla	r3, r3, r0, r4
  79 0046 03EB4303 		add	r3, r3, r3, lsl #1
  80 004a 5B00     		lsls	r3, r3, #1
  81 004c DBB2     		uxtb	r3, r3
  82              	.LVL7:
  66:..\..\..\lvgl\version_6.1.2\lvgl\src\lv_misc/lv_color.c **** 
  67:..\..\..\lvgl\version_6.1.2\lvgl\src\lv_misc/lv_color.c ****     p = (v * (255 - s)) >> 8;
  68:..\..\..\lvgl\version_6.1.2\lvgl\src\lv_misc/lv_color.c ****     q = (v * (255 - ((s * remainder) >> 8))) >> 8;
  69:..\..\..\lvgl\version_6.1.2\lvgl\src\lv_misc/lv_color.c ****     t = (v * (255 - ((s * (255 - remainder)) >> 8))) >> 8;
  83              		.loc 1 69 0
  84 004e C3F1FF04 		rsb	r4, r3, #255
  85 0052 01FB04F4 		mul	r4, r1, r4
  68:..\..\..\lvgl\version_6.1.2\lvgl\src\lv_misc/lv_color.c ****     t = (v * (255 - ((s * (255 - remainder)) >> 8))) >> 8;
  86              		.loc 1 68 0
  87 0056 11FB03F3 		smulbb	r3, r1, r3
  88              	.LVL8:
  89              		.loc 1 69 0
  90 005a 2412     		asrs	r4, r4, #8
  68:..\..\..\lvgl\version_6.1.2\lvgl\src\lv_misc/lv_color.c ****     t = (v * (255 - ((s * (255 - remainder)) >> 8))) >> 8;
  91              		.loc 1 68 0
  92 005c 1B12     		asrs	r3, r3, #8
  93              		.loc 1 69 0
  94 005e C4F1FF04 		rsb	r4, r4, #255
  68:..\..\..\lvgl\version_6.1.2\lvgl\src\lv_misc/lv_color.c ****     t = (v * (255 - ((s * (255 - remainder)) >> 8))) >> 8;
  95              		.loc 1 68 0
ARM GAS  C:\Users\pearlstl\AppData\Local\Temp\cc7pgkmL.s 			page 4


  96 0062 C3F1FF03 		rsb	r3, r3, #255
  67:..\..\..\lvgl\version_6.1.2\lvgl\src\lv_misc/lv_color.c ****     q = (v * (255 - ((s * remainder) >> 8))) >> 8;
  97              		.loc 1 67 0
  98 0066 C1F1FF01 		rsb	r1, r1, #255
  99              	.LVL9:
 100              		.loc 1 69 0
 101 006a 02FB04F4 		mul	r4, r2, r4
  68:..\..\..\lvgl\version_6.1.2\lvgl\src\lv_misc/lv_color.c ****     t = (v * (255 - ((s * (255 - remainder)) >> 8))) >> 8;
 102              		.loc 1 68 0
 103 006e 02FB03F3 		mul	r3, r2, r3
  67:..\..\..\lvgl\version_6.1.2\lvgl\src\lv_misc/lv_color.c ****     q = (v * (255 - ((s * remainder) >> 8))) >> 8;
 104              		.loc 1 67 0
 105 0072 02FB01F1 		mul	r1, r2, r1
 106              		.loc 1 69 0
 107 0076 C4F30724 		ubfx	r4, r4, #8, #8
  68:..\..\..\lvgl\version_6.1.2\lvgl\src\lv_misc/lv_color.c ****     t = (v * (255 - ((s * (255 - remainder)) >> 8))) >> 8;
 108              		.loc 1 68 0
 109 007a C3F30723 		ubfx	r3, r3, #8, #8
  67:..\..\..\lvgl\version_6.1.2\lvgl\src\lv_misc/lv_color.c ****     q = (v * (255 - ((s * remainder) >> 8))) >> 8;
 110              		.loc 1 67 0
 111 007e C1F30721 		ubfx	r1, r1, #8, #8
 112              	.LVL10:
  70:..\..\..\lvgl\version_6.1.2\lvgl\src\lv_misc/lv_color.c **** 
  71:..\..\..\lvgl\version_6.1.2\lvgl\src\lv_misc/lv_color.c ****     switch(region) {
 113              		.loc 1 71 0
 114 0082 0428     		cmp	r0, #4
 115 0084 04D8     		bhi	.L4
 116 0086 DFE800F0 		tbb	[pc, r0]
 117              	.L6:
 118 008a 05       		.byte	(.L5-.L6)/2
 119 008b 20       		.byte	(.L7-.L6)/2
 120 008c 23       		.byte	(.L8-.L6)/2
 121 008d 28       		.byte	(.L9-.L6)/2
 122 008e 1B       		.byte	(.L10-.L6)/2
 123 008f 00       		.p2align 1
 124              	.L4:
 125              	.LVL11:
  72:..\..\..\lvgl\version_6.1.2\lvgl\src\lv_misc/lv_color.c ****         case 0:
  73:..\..\..\lvgl\version_6.1.2\lvgl\src\lv_misc/lv_color.c ****             r = v;
  74:..\..\..\lvgl\version_6.1.2\lvgl\src\lv_misc/lv_color.c ****             g = t;
  75:..\..\..\lvgl\version_6.1.2\lvgl\src\lv_misc/lv_color.c ****             b = p;
  76:..\..\..\lvgl\version_6.1.2\lvgl\src\lv_misc/lv_color.c ****             break;
  77:..\..\..\lvgl\version_6.1.2\lvgl\src\lv_misc/lv_color.c ****         case 1:
  78:..\..\..\lvgl\version_6.1.2\lvgl\src\lv_misc/lv_color.c ****             r = q;
  79:..\..\..\lvgl\version_6.1.2\lvgl\src\lv_misc/lv_color.c ****             g = v;
  80:..\..\..\lvgl\version_6.1.2\lvgl\src\lv_misc/lv_color.c ****             b = p;
  81:..\..\..\lvgl\version_6.1.2\lvgl\src\lv_misc/lv_color.c ****             break;
  82:..\..\..\lvgl\version_6.1.2\lvgl\src\lv_misc/lv_color.c ****         case 2:
  83:..\..\..\lvgl\version_6.1.2\lvgl\src\lv_misc/lv_color.c ****             r = p;
  84:..\..\..\lvgl\version_6.1.2\lvgl\src\lv_misc/lv_color.c ****             g = v;
  85:..\..\..\lvgl\version_6.1.2\lvgl\src\lv_misc/lv_color.c ****             b = t;
  86:..\..\..\lvgl\version_6.1.2\lvgl\src\lv_misc/lv_color.c ****             break;
  87:..\..\..\lvgl\version_6.1.2\lvgl\src\lv_misc/lv_color.c ****         case 3:
  88:..\..\..\lvgl\version_6.1.2\lvgl\src\lv_misc/lv_color.c ****             r = p;
  89:..\..\..\lvgl\version_6.1.2\lvgl\src\lv_misc/lv_color.c ****             g = q;
  90:..\..\..\lvgl\version_6.1.2\lvgl\src\lv_misc/lv_color.c ****             b = v;
  91:..\..\..\lvgl\version_6.1.2\lvgl\src\lv_misc/lv_color.c ****             break;
ARM GAS  C:\Users\pearlstl\AppData\Local\Temp\cc7pgkmL.s 			page 5


  92:..\..\..\lvgl\version_6.1.2\lvgl\src\lv_misc/lv_color.c ****         case 4:
  93:..\..\..\lvgl\version_6.1.2\lvgl\src\lv_misc/lv_color.c ****             r = t;
  94:..\..\..\lvgl\version_6.1.2\lvgl\src\lv_misc/lv_color.c ****             g = p;
  95:..\..\..\lvgl\version_6.1.2\lvgl\src\lv_misc/lv_color.c ****             b = v;
  96:..\..\..\lvgl\version_6.1.2\lvgl\src\lv_misc/lv_color.c ****             break;
  97:..\..\..\lvgl\version_6.1.2\lvgl\src\lv_misc/lv_color.c ****         default:
  98:..\..\..\lvgl\version_6.1.2\lvgl\src\lv_misc/lv_color.c ****             r = v;
  99:..\..\..\lvgl\version_6.1.2\lvgl\src\lv_misc/lv_color.c ****             g = p;
 126              		.loc 1 99 0
 127 0090 0C46     		mov	r4, r1
 128              	.LVL12:
 100:..\..\..\lvgl\version_6.1.2\lvgl\src\lv_misc/lv_color.c ****             b = q;
 129              		.loc 1 100 0
 130 0092 1946     		mov	r1, r3
 131              	.LVL13:
 132              	.L5:
 101:..\..\..\lvgl\version_6.1.2\lvgl\src\lv_misc/lv_color.c ****             break;
 102:..\..\..\lvgl\version_6.1.2\lvgl\src\lv_misc/lv_color.c ****     }
 103:..\..\..\lvgl\version_6.1.2\lvgl\src\lv_misc/lv_color.c **** 
 104:..\..\..\lvgl\version_6.1.2\lvgl\src\lv_misc/lv_color.c ****     lv_color_t result = lv_color_make(r, g, b);
 105:..\..\..\lvgl\version_6.1.2\lvgl\src\lv_misc/lv_color.c ****     return result;
 133              		.loc 1 105 0
 134 0094 0020     		movs	r0, #0
 135 0096 61F30700 		bfi	r0, r1, #0, #8
 136 009a 64F30F20 		bfi	r0, r4, #8, #8
 137 009e 62F31740 		bfi	r0, r2, #16, #8
 138 00a2 40F07F40 		orr	r0, r0, #-16777216
 139              	.LVL14:
 106:..\..\..\lvgl\version_6.1.2\lvgl\src\lv_misc/lv_color.c **** }
 140              		.loc 1 106 0
 141 00a6 30BC     		pop	{r4, r5}
 142              		.cfi_remember_state
 143              		.cfi_restore 5
 144              		.cfi_restore 4
 145              		.cfi_def_cfa_offset 0
 146              	.LVL15:
 147 00a8 7047     		bx	lr
 148              	.LVL16:
 149              	.L13:
 150              		.cfi_restore_state
 151 00aa 0020     		movs	r0, #0
 152              	.LVL17:
 153 00ac 62F30700 		bfi	r0, r2, #0, #8
 154 00b0 62F30F20 		bfi	r0, r2, #8, #8
 155 00b4 62F31740 		bfi	r0, r2, #16, #8
 156 00b8 40F07F40 		orr	r0, r0, #-16777216
 157 00bc 30BC     		pop	{r4, r5}
 158              		.cfi_remember_state
 159              		.cfi_restore 4
 160              		.cfi_restore 5
 161              		.cfi_def_cfa_offset 0
 162 00be 7047     		bx	lr
 163              	.LVL18:
 164              	.L10:
 165              		.cfi_restore_state
  96:..\..\..\lvgl\version_6.1.2\lvgl\src\lv_misc/lv_color.c ****         default:
 166              		.loc 1 96 0
ARM GAS  C:\Users\pearlstl\AppData\Local\Temp\cc7pgkmL.s 			page 6


 167 00c0 1346     		mov	r3, r2
 168              	.LVL19:
  93:..\..\..\lvgl\version_6.1.2\lvgl\src\lv_misc/lv_color.c ****             g = p;
 169              		.loc 1 93 0
 170 00c2 2246     		mov	r2, r4
 171              	.LVL20:
  94:..\..\..\lvgl\version_6.1.2\lvgl\src\lv_misc/lv_color.c ****             b = v;
 172              		.loc 1 94 0
 173 00c4 0C46     		mov	r4, r1
 174              	.LVL21:
  95:..\..\..\lvgl\version_6.1.2\lvgl\src\lv_misc/lv_color.c ****             break;
 175              		.loc 1 95 0
 176 00c6 1946     		mov	r1, r3
 177              	.LVL22:
  96:..\..\..\lvgl\version_6.1.2\lvgl\src\lv_misc/lv_color.c ****         default:
 178              		.loc 1 96 0
 179 00c8 E4E7     		b	.L5
 180              	.LVL23:
 181              	.L7:
  79:..\..\..\lvgl\version_6.1.2\lvgl\src\lv_misc/lv_color.c ****             b = p;
 182              		.loc 1 79 0
 183 00ca 1446     		mov	r4, r2
 184              	.LVL24:
  78:..\..\..\lvgl\version_6.1.2\lvgl\src\lv_misc/lv_color.c ****             g = v;
 185              		.loc 1 78 0
 186 00cc 1A46     		mov	r2, r3
 187              	.LVL25:
 188 00ce E1E7     		b	.L5
 189              	.LVL26:
 190              	.L8:
  86:..\..\..\lvgl\version_6.1.2\lvgl\src\lv_misc/lv_color.c ****         case 3:
 191              		.loc 1 86 0
 192 00d0 1346     		mov	r3, r2
 193              	.LVL27:
  83:..\..\..\lvgl\version_6.1.2\lvgl\src\lv_misc/lv_color.c ****             g = v;
 194              		.loc 1 83 0
 195 00d2 0A46     		mov	r2, r1
 196              	.LVL28:
  85:..\..\..\lvgl\version_6.1.2\lvgl\src\lv_misc/lv_color.c ****             break;
 197              		.loc 1 85 0
 198 00d4 2146     		mov	r1, r4
 199              	.LVL29:
  84:..\..\..\lvgl\version_6.1.2\lvgl\src\lv_misc/lv_color.c ****             b = t;
 200              		.loc 1 84 0
 201 00d6 1C46     		mov	r4, r3
 202              	.LVL30:
  86:..\..\..\lvgl\version_6.1.2\lvgl\src\lv_misc/lv_color.c ****         case 3:
 203              		.loc 1 86 0
 204 00d8 DCE7     		b	.L5
 205              	.LVL31:
 206              	.L9:
  91:..\..\..\lvgl\version_6.1.2\lvgl\src\lv_misc/lv_color.c ****         case 4:
 207              		.loc 1 91 0
 208 00da 1046     		mov	r0, r2
 209              	.LVL32:
  89:..\..\..\lvgl\version_6.1.2\lvgl\src\lv_misc/lv_color.c ****             b = v;
 210              		.loc 1 89 0
ARM GAS  C:\Users\pearlstl\AppData\Local\Temp\cc7pgkmL.s 			page 7


 211 00dc 1C46     		mov	r4, r3
 212              	.LVL33:
  88:..\..\..\lvgl\version_6.1.2\lvgl\src\lv_misc/lv_color.c ****             g = q;
 213              		.loc 1 88 0
 214 00de 0A46     		mov	r2, r1
 215              	.LVL34:
  90:..\..\..\lvgl\version_6.1.2\lvgl\src\lv_misc/lv_color.c ****             break;
 216              		.loc 1 90 0
 217 00e0 0146     		mov	r1, r0
 218              	.LVL35:
  91:..\..\..\lvgl\version_6.1.2\lvgl\src\lv_misc/lv_color.c ****         case 4:
 219              		.loc 1 91 0
 220 00e2 D7E7     		b	.L5
 221              	.L15:
 222              		.align	2
 223              	.L14:
 224 00e4 1F85EB51 		.word	1374389535
 225 00e8 176CC116 		.word	381774871
 226 00ec 83BEA02F 		.word	799063683
 227              		.cfi_endproc
 228              	.LFE9:
 229              		.size	lv_color_hsv_to_rgb, .-lv_color_hsv_to_rgb
 230              		.section	.text.lv_color_rgb_to_hsv,"ax",%progbits
 231              		.align	2
 232              		.global	lv_color_rgb_to_hsv
 233              		.thumb
 234              		.thumb_func
 235              		.type	lv_color_rgb_to_hsv, %function
 236              	lv_color_rgb_to_hsv:
 237              	.LFB10:
 107:..\..\..\lvgl\version_6.1.2\lvgl\src\lv_misc/lv_color.c **** 
 108:..\..\..\lvgl\version_6.1.2\lvgl\src\lv_misc/lv_color.c **** /**
 109:..\..\..\lvgl\version_6.1.2\lvgl\src\lv_misc/lv_color.c ****  * Convert a 32-bit RGB color to HSV
 110:..\..\..\lvgl\version_6.1.2\lvgl\src\lv_misc/lv_color.c ****  * @param r8 8-bit red
 111:..\..\..\lvgl\version_6.1.2\lvgl\src\lv_misc/lv_color.c ****  * @param g8 8-bit green
 112:..\..\..\lvgl\version_6.1.2\lvgl\src\lv_misc/lv_color.c ****  * @param b8 8-bit blue
 113:..\..\..\lvgl\version_6.1.2\lvgl\src\lv_misc/lv_color.c ****  * @return the given RGB color in HSV
 114:..\..\..\lvgl\version_6.1.2\lvgl\src\lv_misc/lv_color.c ****  */
 115:..\..\..\lvgl\version_6.1.2\lvgl\src\lv_misc/lv_color.c **** lv_color_hsv_t lv_color_rgb_to_hsv(uint8_t r8, uint8_t g8, uint8_t b8)
 116:..\..\..\lvgl\version_6.1.2\lvgl\src\lv_misc/lv_color.c **** {
 238              		.loc 1 116 0
 239              		.cfi_startproc
 240              		@ args = 0, pretend = 0, frame = 8
 241              		@ frame_needed = 0, uses_anonymous_args = 0
 242              	.LVL36:
 243 0000 2DE9F041 		push	{r4, r5, r6, r7, r8, lr}
 244              		.cfi_def_cfa_offset 24
 245              		.cfi_offset 4, -24
 246              		.cfi_offset 5, -20
 247              		.cfi_offset 6, -16
 248              		.cfi_offset 7, -12
 249              		.cfi_offset 8, -8
 250              		.cfi_offset 14, -4
 117:..\..\..\lvgl\version_6.1.2\lvgl\src\lv_misc/lv_color.c ****     uint16_t r = ((uint32_t)r8 << 10) / 255;
 251              		.loc 1 117 0
 252 0004 404C     		ldr	r4, .L39
 118:..\..\..\lvgl\version_6.1.2\lvgl\src\lv_misc/lv_color.c ****     uint16_t g = ((uint32_t)g8 << 10) / 255;
ARM GAS  C:\Users\pearlstl\AppData\Local\Temp\cc7pgkmL.s 			page 8


 253              		.loc 1 118 0
 254 0006 8902     		lsls	r1, r1, #10
 255              	.LVL37:
 117:..\..\..\lvgl\version_6.1.2\lvgl\src\lv_misc/lv_color.c ****     uint16_t r = ((uint32_t)r8 << 10) / 255;
 256              		.loc 1 117 0
 257 0008 8002     		lsls	r0, r0, #10
 258              	.LVL38:
 259              		.loc 1 118 0
 260 000a A4FB0135 		umull	r3, r5, r4, r1
 117:..\..\..\lvgl\version_6.1.2\lvgl\src\lv_misc/lv_color.c ****     uint16_t r = ((uint32_t)r8 << 10) / 255;
 261              		.loc 1 117 0
 262 000e A4FB0030 		umull	r3, r0, r4, r0
 263              		.loc 1 118 0
 264 0012 E909     		lsrs	r1, r5, #7
 119:..\..\..\lvgl\version_6.1.2\lvgl\src\lv_misc/lv_color.c ****     uint16_t b = ((uint32_t)b8 << 10) / 255;
 265              		.loc 1 119 0
 266 0014 9202     		lsls	r2, r2, #10
 267              	.LVL39:
 117:..\..\..\lvgl\version_6.1.2\lvgl\src\lv_misc/lv_color.c ****     uint16_t r = ((uint32_t)r8 << 10) / 255;
 268              		.loc 1 117 0
 269 0016 C009     		lsrs	r0, r0, #7
 270              		.loc 1 119 0
 271 0018 A4FB0232 		umull	r3, r2, r4, r2
 117:..\..\..\lvgl\version_6.1.2\lvgl\src\lv_misc/lv_color.c ****     uint16_t r = ((uint32_t)r8 << 10) / 255;
 272              		.loc 1 117 0
 273 001c 87B2     		uxth	r7, r0
 274              	.LVL40:
 118:..\..\..\lvgl\version_6.1.2\lvgl\src\lv_misc/lv_color.c ****     uint16_t g = ((uint32_t)g8 << 10) / 255;
 275              		.loc 1 118 0
 276 001e 1FFA81FE 		uxth	lr, r1
 277              	.LVL41:
 120:..\..\..\lvgl\version_6.1.2\lvgl\src\lv_misc/lv_color.c **** 
 121:..\..\..\lvgl\version_6.1.2\lvgl\src\lv_misc/lv_color.c ****     uint16_t rgbMin = r < g ? (r < b ? r : b) : (g < b ? g : b);
 278              		.loc 1 121 0
 279 0022 7745     		cmp	r7, lr
 119:..\..\..\lvgl\version_6.1.2\lvgl\src\lv_misc/lv_color.c ****     uint16_t b = ((uint32_t)b8 << 10) / 255;
 280              		.loc 1 119 0
 281 0024 4FEAD212 		lsr	r2, r2, #7
 282 0028 1FFA82FC 		uxth	ip, r2
 283              	.LVL42:
 284              		.loc 1 121 0
 285 002c 2CBF     		ite	cs
 286 002e 7346     		movcs	r3, lr
 287 0030 3B46     		movcc	r3, r7
 288 0032 6345     		cmp	r3, ip
 289 0034 28BF     		it	cs
 290 0036 6346     		movcs	r3, ip
 291              	.LVL43:
 122:..\..\..\lvgl\version_6.1.2\lvgl\src\lv_misc/lv_color.c ****     uint16_t rgbMax = r > g ? (r > b ? r : b) : (g > b ? g : b);
 292              		.loc 1 122 0
 293 0038 7745     		cmp	r7, lr
 294 003a 8CBF     		ite	hi
 295 003c 3E46     		movhi	r6, r7
 296 003e 7646     		movls	r6, lr
 297 0040 6645     		cmp	r6, ip
 298 0042 38BF     		it	cc
 299 0044 6646     		movcc	r6, ip
ARM GAS  C:\Users\pearlstl\AppData\Local\Temp\cc7pgkmL.s 			page 9


 300              	.LVL44:
 123:..\..\..\lvgl\version_6.1.2\lvgl\src\lv_misc/lv_color.c **** 
 124:..\..\..\lvgl\version_6.1.2\lvgl\src\lv_misc/lv_color.c ****     lv_color_hsv_t hsv;
 125:..\..\..\lvgl\version_6.1.2\lvgl\src\lv_misc/lv_color.c **** 
 126:..\..\..\lvgl\version_6.1.2\lvgl\src\lv_misc/lv_color.c ****     // https://en.wikipedia.org/wiki/HSL_and_HSV#Lightness
 127:..\..\..\lvgl\version_6.1.2\lvgl\src\lv_misc/lv_color.c ****     hsv.v = (100 * rgbMax) >> 10;
 128:..\..\..\lvgl\version_6.1.2\lvgl\src\lv_misc/lv_color.c **** 
 129:..\..\..\lvgl\version_6.1.2\lvgl\src\lv_misc/lv_color.c ****     int32_t delta = rgbMax - rgbMin;
 301              		.loc 1 129 0
 302 0046 F31A     		subs	r3, r6, r3
 303              	.LVL45:
 127:..\..\..\lvgl\version_6.1.2\lvgl\src\lv_misc/lv_color.c **** 
 304              		.loc 1 127 0
 305 0048 6424     		movs	r4, #100
 130:..\..\..\lvgl\version_6.1.2\lvgl\src\lv_misc/lv_color.c ****     if (LV_MATH_ABS(delta) < 3) {
 306              		.loc 1 130 0
 307 004a 03F10208 		add	r8, r3, #2
 127:..\..\..\lvgl\version_6.1.2\lvgl\src\lv_misc/lv_color.c **** 
 308              		.loc 1 127 0
 309 004e 04FB06F5 		mul	r5, r4, r6
 310              		.loc 1 130 0
 311 0052 B8F1040F 		cmp	r8, #4
 116:..\..\..\lvgl\version_6.1.2\lvgl\src\lv_misc/lv_color.c ****     uint16_t r = ((uint32_t)r8 << 10) / 255;
 312              		.loc 1 116 0
 313 0056 82B0     		sub	sp, sp, #8
 314              		.cfi_def_cfa_offset 32
 127:..\..\..\lvgl\version_6.1.2\lvgl\src\lv_misc/lv_color.c **** 
 315              		.loc 1 127 0
 316 0058 C5F38725 		ubfx	r5, r5, #10, #8
 317              	.LVL46:
 318              		.loc 1 130 0
 319 005c 27D9     		bls	.L34
 131:..\..\..\lvgl\version_6.1.2\lvgl\src\lv_misc/lv_color.c ****         hsv.h = 0;
 132:..\..\..\lvgl\version_6.1.2\lvgl\src\lv_misc/lv_color.c ****         hsv.s = 0;
 133:..\..\..\lvgl\version_6.1.2\lvgl\src\lv_misc/lv_color.c ****         return hsv;
 134:..\..\..\lvgl\version_6.1.2\lvgl\src\lv_misc/lv_color.c ****     }
 135:..\..\..\lvgl\version_6.1.2\lvgl\src\lv_misc/lv_color.c **** 
 136:..\..\..\lvgl\version_6.1.2\lvgl\src\lv_misc/lv_color.c ****     // https://en.wikipedia.org/wiki/HSL_and_HSV#Saturation
 137:..\..\..\lvgl\version_6.1.2\lvgl\src\lv_misc/lv_color.c ****     hsv.s = 100 * delta / rgbMax;
 320              		.loc 1 137 0
 321 005e 04FB03F4 		mul	r4, r4, r3
 322 0062 94FBF6F4 		sdiv	r4, r4, r6
 323 0066 E4B2     		uxtb	r4, r4
 324              	.LVL47:
 138:..\..\..\lvgl\version_6.1.2\lvgl\src\lv_misc/lv_color.c ****     if(hsv.s < 3) {
 325              		.loc 1 138 0
 326 0068 022C     		cmp	r4, #2
 327 006a 0DD9     		bls	.L35
 139:..\..\..\lvgl\version_6.1.2\lvgl\src\lv_misc/lv_color.c ****         hsv.h = 0;
 140:..\..\..\lvgl\version_6.1.2\lvgl\src\lv_misc/lv_color.c ****         return hsv;
 141:..\..\..\lvgl\version_6.1.2\lvgl\src\lv_misc/lv_color.c ****     }
 142:..\..\..\lvgl\version_6.1.2\lvgl\src\lv_misc/lv_color.c **** 
 143:..\..\..\lvgl\version_6.1.2\lvgl\src\lv_misc/lv_color.c ****     // https://en.wikipedia.org/wiki/HSL_and_HSV#Hue_and_chroma
 144:..\..\..\lvgl\version_6.1.2\lvgl\src\lv_misc/lv_color.c ****     int32_t h;
 145:..\..\..\lvgl\version_6.1.2\lvgl\src\lv_misc/lv_color.c ****     if(rgbMax == r)
 328              		.loc 1 145 0
 329 006c BE42     		cmp	r6, r7
ARM GAS  C:\Users\pearlstl\AppData\Local\Temp\cc7pgkmL.s 			page 10


 330 006e 36D0     		beq	.L36
 146:..\..\..\lvgl\version_6.1.2\lvgl\src\lv_misc/lv_color.c ****         h = (((g - b) << 10) / delta) + (g < b ? (6 << 10) : 0); // between yellow & magenta
 147:..\..\..\lvgl\version_6.1.2\lvgl\src\lv_misc/lv_color.c ****     else if(rgbMax == g)
 331              		.loc 1 147 0
 332 0070 7645     		cmp	r6, lr
 333 0072 24D0     		beq	.L37
 148:..\..\..\lvgl\version_6.1.2\lvgl\src\lv_misc/lv_color.c ****         h = (((b - r) << 10) / delta) + (2 << 10); // between cyan & yellow
 149:..\..\..\lvgl\version_6.1.2\lvgl\src\lv_misc/lv_color.c ****     else if(rgbMax == b)
 334              		.loc 1 149 0
 335 0074 6645     		cmp	r6, ip
 336 0076 3FD0     		beq	.L38
 337 0078 0023     		movs	r3, #0
 338              	.LVL48:
 339              	.L28:
 150:..\..\..\lvgl\version_6.1.2\lvgl\src\lv_misc/lv_color.c ****         h = (((r - g) << 10) / delta) + (4 << 10); // between magenta & cyan
 151:..\..\..\lvgl\version_6.1.2\lvgl\src\lv_misc/lv_color.c ****     else
 152:..\..\..\lvgl\version_6.1.2\lvgl\src\lv_misc/lv_color.c ****         h = 0;
 153:..\..\..\lvgl\version_6.1.2\lvgl\src\lv_misc/lv_color.c ****     h *= 60;
 154:..\..\..\lvgl\version_6.1.2\lvgl\src\lv_misc/lv_color.c ****     h >>= 10;
 155:..\..\..\lvgl\version_6.1.2\lvgl\src\lv_misc/lv_color.c ****     if (h < 0) h += 360;
 156:..\..\..\lvgl\version_6.1.2\lvgl\src\lv_misc/lv_color.c **** 
 157:..\..\..\lvgl\version_6.1.2\lvgl\src\lv_misc/lv_color.c ****     hsv.h = h;
 158:..\..\..\lvgl\version_6.1.2\lvgl\src\lv_misc/lv_color.c ****     return hsv;
 340              		.loc 1 158 0
 341 007a ADF80430 		strh	r3, [sp, #4]	@ movhi
 342 007e 8DF80640 		strb	r4, [sp, #6]
 343 0082 8DF80750 		strb	r5, [sp, #7]
 344 0086 06E0     		b	.L22
 345              	.LVL49:
 346              	.L35:
 140:..\..\..\lvgl\version_6.1.2\lvgl\src\lv_misc/lv_color.c ****     }
 347              		.loc 1 140 0
 348 0088 0023     		movs	r3, #0
 349              	.LVL50:
 350 008a 8DF80640 		strb	r4, [sp, #6]
 351 008e 8DF80750 		strb	r5, [sp, #7]
 352 0092 ADF80430 		strh	r3, [sp, #4]	@ movhi
 353              	.LVL51:
 354              	.L22:
 355 0096 BDF80420 		ldrh	r2, [sp, #4]
 356 009a BDF80630 		ldrh	r3, [sp, #6]
 357 009e 0020     		movs	r0, #0
 358 00a0 62F30F00 		bfi	r0, r2, #0, #16
 359 00a4 63F31F40 		bfi	r0, r3, #16, #16
 159:..\..\..\lvgl\version_6.1.2\lvgl\src\lv_misc/lv_color.c **** }
 360              		.loc 1 159 0
 361 00a8 02B0     		add	sp, sp, #8
 362              		.cfi_remember_state
 363              		.cfi_def_cfa_offset 24
 364              		@ sp needed
 365 00aa BDE8F081 		pop	{r4, r5, r6, r7, r8, pc}
 366              	.LVL52:
 367              	.L34:
 368              		.cfi_restore_state
 133:..\..\..\lvgl\version_6.1.2\lvgl\src\lv_misc/lv_color.c ****     }
 369              		.loc 1 133 0
 370 00ae 0023     		movs	r3, #0
ARM GAS  C:\Users\pearlstl\AppData\Local\Temp\cc7pgkmL.s 			page 11


 371              	.LVL53:
 372 00b0 8DF80750 		strb	r5, [sp, #7]
 373 00b4 ADF80430 		strh	r3, [sp, #4]	@ movhi
 374 00b8 8DF80630 		strb	r3, [sp, #6]
 375 00bc EBE7     		b	.L22
 376              	.LVL54:
 377              	.L37:
 148:..\..\..\lvgl\version_6.1.2\lvgl\src\lv_misc/lv_color.c ****     else if(rgbMax == b)
 378              		.loc 1 148 0
 379 00be 111A     		subs	r1, r2, r0
 380 00c0 8902     		lsls	r1, r1, #10
 381 00c2 91FBF3F3 		sdiv	r3, r1, r3
 382              	.LVL55:
 383 00c6 03F50063 		add	r3, r3, #2048
 384              	.LVL56:
 385              	.L26:
 153:..\..\..\lvgl\version_6.1.2\lvgl\src\lv_misc/lv_color.c ****     h >>= 10;
 386              		.loc 1 153 0
 387 00ca C3EB0313 		rsb	r3, r3, r3, lsl #4
 388              	.LVL57:
 154:..\..\..\lvgl\version_6.1.2\lvgl\src\lv_misc/lv_color.c ****     if (h < 0) h += 360;
 389              		.loc 1 154 0
 390 00ce 43F31523 		sbfx	r3, r3, #8, #22
 391              	.LVL58:
 155:..\..\..\lvgl\version_6.1.2\lvgl\src\lv_misc/lv_color.c **** 
 392              		.loc 1 155 0
 393 00d2 002B     		cmp	r3, #0
 394              	.LVL59:
 395 00d4 B8BF     		it	lt
 396 00d6 03F5B473 		addlt	r3, r3, #360
 397              	.LVL60:
 398 00da 9BB2     		uxth	r3, r3
 399 00dc CDE7     		b	.L28
 400              	.LVL61:
 401              	.L36:
 146:..\..\..\lvgl\version_6.1.2\lvgl\src\lv_misc/lv_color.c ****     else if(rgbMax == g)
 402              		.loc 1 146 0
 403 00de 8A1A     		subs	r2, r1, r2
 404 00e0 E645     		cmp	lr, ip
 405 00e2 34BF     		ite	cc
 406 00e4 4FF4C05E 		movcc	lr, #6144
 407 00e8 4FF0000E 		movcs	lr, #0
 408              	.LVL62:
 409 00ec 9202     		lsls	r2, r2, #10
 410 00ee 92FBF3F2 		sdiv	r2, r2, r3
 411 00f2 0EEB0203 		add	r3, lr, r2
 412              	.LVL63:
 413 00f6 E8E7     		b	.L26
 414              	.LVL64:
 415              	.L38:
 150:..\..\..\lvgl\version_6.1.2\lvgl\src\lv_misc/lv_color.c ****     else
 416              		.loc 1 150 0
 417 00f8 411A     		subs	r1, r0, r1
 418 00fa 8902     		lsls	r1, r1, #10
 419 00fc 91FBF3F3 		sdiv	r3, r1, r3
 420              	.LVL65:
 421 0100 03F58053 		add	r3, r3, #4096
ARM GAS  C:\Users\pearlstl\AppData\Local\Temp\cc7pgkmL.s 			page 12


 422              	.LVL66:
 423 0104 E1E7     		b	.L26
 424              	.L40:
 425 0106 00BF     		.align	2
 426              	.L39:
 427 0108 81808080 		.word	-2139062143
 428              		.cfi_endproc
 429              	.LFE10:
 430              		.size	lv_color_rgb_to_hsv, .-lv_color_rgb_to_hsv
 431              		.section	.text.lv_color_to_hsv,"ax",%progbits
 432              		.align	2
 433              		.global	lv_color_to_hsv
 434              		.thumb
 435              		.thumb_func
 436              		.type	lv_color_to_hsv, %function
 437              	lv_color_to_hsv:
 438              	.LFB11:
 160:..\..\..\lvgl\version_6.1.2\lvgl\src\lv_misc/lv_color.c **** 
 161:..\..\..\lvgl\version_6.1.2\lvgl\src\lv_misc/lv_color.c **** /**
 162:..\..\..\lvgl\version_6.1.2\lvgl\src\lv_misc/lv_color.c ****  * Convert a color to HSV
 163:..\..\..\lvgl\version_6.1.2\lvgl\src\lv_misc/lv_color.c ****  * @param color color
 164:..\..\..\lvgl\version_6.1.2\lvgl\src\lv_misc/lv_color.c ****  * @return the given color in HSV
 165:..\..\..\lvgl\version_6.1.2\lvgl\src\lv_misc/lv_color.c ****  */
 166:..\..\..\lvgl\version_6.1.2\lvgl\src\lv_misc/lv_color.c **** lv_color_hsv_t lv_color_to_hsv(lv_color_t color)
 167:..\..\..\lvgl\version_6.1.2\lvgl\src\lv_misc/lv_color.c **** {
 439              		.loc 1 167 0
 440              		.cfi_startproc
 441              		@ args = 0, pretend = 0, frame = 8
 442              		@ frame_needed = 0, uses_anonymous_args = 0
 443              	.LVL67:
 444 0000 2DE9F041 		push	{r4, r5, r6, r7, r8, lr}
 445              		.cfi_def_cfa_offset 24
 446              		.cfi_offset 4, -24
 447              		.cfi_offset 5, -20
 448              		.cfi_offset 6, -16
 449              		.cfi_offset 7, -12
 450              		.cfi_offset 8, -8
 451              		.cfi_offset 14, -4
 452              	.LBB10:
 453              	.LBB11:
 117:..\..\..\lvgl\version_6.1.2\lvgl\src\lv_misc/lv_color.c ****     uint16_t g = ((uint32_t)g8 << 10) / 255;
 454              		.loc 1 117 0
 455 0004 384B     		ldr	r3, .L61
 456 0006 C0F30744 		ubfx	r4, r0, #16, #8
 118:..\..\..\lvgl\version_6.1.2\lvgl\src\lv_misc/lv_color.c ****     uint16_t b = ((uint32_t)b8 << 10) / 255;
 457              		.loc 1 118 0
 458 000a C0F30721 		ubfx	r1, r0, #8, #8
 117:..\..\..\lvgl\version_6.1.2\lvgl\src\lv_misc/lv_color.c ****     uint16_t g = ((uint32_t)g8 << 10) / 255;
 459              		.loc 1 117 0
 460 000e A402     		lsls	r4, r4, #10
 118:..\..\..\lvgl\version_6.1.2\lvgl\src\lv_misc/lv_color.c ****     uint16_t b = ((uint32_t)b8 << 10) / 255;
 461              		.loc 1 118 0
 462 0010 8902     		lsls	r1, r1, #10
 117:..\..\..\lvgl\version_6.1.2\lvgl\src\lv_misc/lv_color.c ****     uint16_t g = ((uint32_t)g8 << 10) / 255;
 463              		.loc 1 117 0
 464 0012 A3FB0424 		umull	r2, r4, r3, r4
 118:..\..\..\lvgl\version_6.1.2\lvgl\src\lv_misc/lv_color.c ****     uint16_t b = ((uint32_t)b8 << 10) / 255;
ARM GAS  C:\Users\pearlstl\AppData\Local\Temp\cc7pgkmL.s 			page 13


 465              		.loc 1 118 0
 466 0016 A3FB0121 		umull	r2, r1, r3, r1
 119:..\..\..\lvgl\version_6.1.2\lvgl\src\lv_misc/lv_color.c **** 
 467              		.loc 1 119 0
 468 001a C0B2     		uxtb	r0, r0
 469              	.LVL68:
 470 001c 8002     		lsls	r0, r0, #10
 471              	.LVL69:
 117:..\..\..\lvgl\version_6.1.2\lvgl\src\lv_misc/lv_color.c ****     uint16_t g = ((uint32_t)g8 << 10) / 255;
 472              		.loc 1 117 0
 473 001e E409     		lsrs	r4, r4, #7
 118:..\..\..\lvgl\version_6.1.2\lvgl\src\lv_misc/lv_color.c ****     uint16_t b = ((uint32_t)b8 << 10) / 255;
 474              		.loc 1 118 0
 475 0020 C909     		lsrs	r1, r1, #7
 119:..\..\..\lvgl\version_6.1.2\lvgl\src\lv_misc/lv_color.c **** 
 476              		.loc 1 119 0
 477 0022 A3FB0030 		umull	r3, r0, r3, r0
 117:..\..\..\lvgl\version_6.1.2\lvgl\src\lv_misc/lv_color.c ****     uint16_t g = ((uint32_t)g8 << 10) / 255;
 478              		.loc 1 117 0
 479 0026 1FFA84FC 		uxth	ip, r4
 480              	.LVL70:
 118:..\..\..\lvgl\version_6.1.2\lvgl\src\lv_misc/lv_color.c ****     uint16_t b = ((uint32_t)b8 << 10) / 255;
 481              		.loc 1 118 0
 482 002a 8AB2     		uxth	r2, r1
 483              	.LVL71:
 121:..\..\..\lvgl\version_6.1.2\lvgl\src\lv_misc/lv_color.c ****     uint16_t rgbMax = r > g ? (r > b ? r : b) : (g > b ? g : b);
 484              		.loc 1 121 0
 485 002c 9445     		cmp	ip, r2
 119:..\..\..\lvgl\version_6.1.2\lvgl\src\lv_misc/lv_color.c **** 
 486              		.loc 1 119 0
 487 002e 4FEAD010 		lsr	r0, r0, #7
 488 0032 1FFA80F8 		uxth	r8, r0
 489              	.LVL72:
 121:..\..\..\lvgl\version_6.1.2\lvgl\src\lv_misc/lv_color.c ****     uint16_t rgbMax = r > g ? (r > b ? r : b) : (g > b ? g : b);
 490              		.loc 1 121 0
 491 0036 2CBF     		ite	cs
 492 0038 1346     		movcs	r3, r2
 493 003a 6346     		movcc	r3, ip
 494 003c 4345     		cmp	r3, r8
 495 003e 28BF     		it	cs
 496 0040 4346     		movcs	r3, r8
 497              	.LVL73:
 122:..\..\..\lvgl\version_6.1.2\lvgl\src\lv_misc/lv_color.c **** 
 498              		.loc 1 122 0
 499 0042 9445     		cmp	ip, r2
 500 0044 8CBF     		ite	hi
 501 0046 E646     		movhi	lr, ip
 502 0048 9646     		movls	lr, r2
 503 004a C645     		cmp	lr, r8
 504 004c 38BF     		it	cc
 505 004e C646     		movcc	lr, r8
 506              	.LVL74:
 129:..\..\..\lvgl\version_6.1.2\lvgl\src\lv_misc/lv_color.c ****     if (LV_MATH_ABS(delta) < 3) {
 507              		.loc 1 129 0
 508 0050 C3EB0E07 		rsb	r7, r3, lr
 127:..\..\..\lvgl\version_6.1.2\lvgl\src\lv_misc/lv_color.c **** 
 509              		.loc 1 127 0
ARM GAS  C:\Users\pearlstl\AppData\Local\Temp\cc7pgkmL.s 			page 14


 510 0054 6425     		movs	r5, #100
 130:..\..\..\lvgl\version_6.1.2\lvgl\src\lv_misc/lv_color.c ****         hsv.h = 0;
 511              		.loc 1 130 0
 512 0056 BB1C     		adds	r3, r7, #2
 513              	.LVL75:
 127:..\..\..\lvgl\version_6.1.2\lvgl\src\lv_misc/lv_color.c **** 
 514              		.loc 1 127 0
 515 0058 05FB0EF6 		mul	r6, r5, lr
 130:..\..\..\lvgl\version_6.1.2\lvgl\src\lv_misc/lv_color.c ****         hsv.h = 0;
 516              		.loc 1 130 0
 517 005c 042B     		cmp	r3, #4
 518              	.LBE11:
 519              	.LBE10:
 520              		.loc 1 167 0
 521 005e 82B0     		sub	sp, sp, #8
 522              		.cfi_def_cfa_offset 32
 523              	.LBB14:
 524              	.LBB12:
 127:..\..\..\lvgl\version_6.1.2\lvgl\src\lv_misc/lv_color.c **** 
 525              		.loc 1 127 0
 526 0060 C6F38726 		ubfx	r6, r6, #10, #8
 527              	.LVL76:
 130:..\..\..\lvgl\version_6.1.2\lvgl\src\lv_misc/lv_color.c ****         hsv.h = 0;
 528              		.loc 1 130 0
 529 0064 2BD9     		bls	.L53
 137:..\..\..\lvgl\version_6.1.2\lvgl\src\lv_misc/lv_color.c ****     if(hsv.s < 3) {
 530              		.loc 1 137 0
 531 0066 05FB07F5 		mul	r5, r5, r7
 532 006a 95FBFEF5 		sdiv	r5, r5, lr
 533 006e EDB2     		uxtb	r5, r5
 534              	.LVL77:
 138:..\..\..\lvgl\version_6.1.2\lvgl\src\lv_misc/lv_color.c ****         hsv.h = 0;
 535              		.loc 1 138 0
 536 0070 022D     		cmp	r5, #2
 537 0072 15D9     		bls	.L54
 145:..\..\..\lvgl\version_6.1.2\lvgl\src\lv_misc/lv_color.c ****         h = (((g - b) << 10) / delta) + (g < b ? (6 << 10) : 0); // between yellow & magenta
 538              		.loc 1 145 0
 539 0074 F445     		cmp	ip, lr
 540 0076 2CD0     		beq	.L59
 147:..\..\..\lvgl\version_6.1.2\lvgl\src\lv_misc/lv_color.c ****         h = (((b - r) << 10) / delta) + (2 << 10); // between cyan & yellow
 541              		.loc 1 147 0
 542 0078 7245     		cmp	r2, lr
 543 007a 23D0     		beq	.L60
 149:..\..\..\lvgl\version_6.1.2\lvgl\src\lv_misc/lv_color.c ****         h = (((r - g) << 10) / delta) + (4 << 10); // between magenta & cyan
 544              		.loc 1 149 0
 545 007c F045     		cmp	r8, lr
 546 007e 0FD1     		bne	.L54
 150:..\..\..\lvgl\version_6.1.2\lvgl\src\lv_misc/lv_color.c ****     else
 547              		.loc 1 150 0
 548 0080 631A     		subs	r3, r4, r1
 549 0082 9B02     		lsls	r3, r3, #10
 550 0084 93FBF7F3 		sdiv	r3, r3, r7
 551 0088 03F58053 		add	r3, r3, #4096
 552              	.LVL78:
 553              	.L49:
 153:..\..\..\lvgl\version_6.1.2\lvgl\src\lv_misc/lv_color.c ****     h >>= 10;
 554              		.loc 1 153 0
ARM GAS  C:\Users\pearlstl\AppData\Local\Temp\cc7pgkmL.s 			page 15


 555 008c C3EB0313 		rsb	r3, r3, r3, lsl #4
 556              	.LVL79:
 154:..\..\..\lvgl\version_6.1.2\lvgl\src\lv_misc/lv_color.c ****     if (h < 0) h += 360;
 557              		.loc 1 154 0
 558 0090 43F31523 		sbfx	r3, r3, #8, #22
 559              	.LVL80:
 155:..\..\..\lvgl\version_6.1.2\lvgl\src\lv_misc/lv_color.c **** 
 560              		.loc 1 155 0
 561 0094 002B     		cmp	r3, #0
 562              	.LVL81:
 563 0096 B8BF     		it	lt
 564 0098 03F5B473 		addlt	r3, r3, #360
 565              	.LVL82:
 566 009c 9BB2     		uxth	r3, r3
 567 009e 00E0     		b	.L46
 568              	.LVL83:
 569              	.L54:
 140:..\..\..\lvgl\version_6.1.2\lvgl\src\lv_misc/lv_color.c ****     }
 570              		.loc 1 140 0
 571 00a0 0023     		movs	r3, #0
 572              	.LVL84:
 573              	.L46:
 574 00a2 8DF80650 		strb	r5, [sp, #6]
 575 00a6 8DF80760 		strb	r6, [sp, #7]
 576              	.LVL85:
 577              	.LBE12:
 578              	.LBE14:
 168:..\..\..\lvgl\version_6.1.2\lvgl\src\lv_misc/lv_color.c ****     lv_color32_t color32;
 169:..\..\..\lvgl\version_6.1.2\lvgl\src\lv_misc/lv_color.c ****     color32.full = lv_color_to32(color);
 170:..\..\..\lvgl\version_6.1.2\lvgl\src\lv_misc/lv_color.c ****     return lv_color_rgb_to_hsv(color32.ch.red, color32.ch.green, color32.ch.blue);
 579              		.loc 1 170 0
 580 00aa BDF80620 		ldrh	r2, [sp, #6]
 581 00ae 0020     		movs	r0, #0
 582 00b0 63F30F00 		bfi	r0, r3, #0, #16
 583 00b4 62F31F40 		bfi	r0, r2, #16, #16
 171:..\..\..\lvgl\version_6.1.2\lvgl\src\lv_misc/lv_color.c **** }
 584              		.loc 1 171 0
 585 00b8 02B0     		add	sp, sp, #8
 586              		.cfi_remember_state
 587              		.cfi_def_cfa_offset 24
 588              		@ sp needed
 589 00ba BDE8F081 		pop	{r4, r5, r6, r7, r8, pc}
 590              	.LVL86:
 591              	.L53:
 592              		.cfi_restore_state
 593              	.LBB15:
 594              	.LBB13:
 133:..\..\..\lvgl\version_6.1.2\lvgl\src\lv_misc/lv_color.c ****     }
 595              		.loc 1 133 0
 596 00be 0025     		movs	r5, #0
 597 00c0 2B46     		mov	r3, r5
 598 00c2 EEE7     		b	.L46
 599              	.LVL87:
 600              	.L60:
 148:..\..\..\lvgl\version_6.1.2\lvgl\src\lv_misc/lv_color.c ****     else if(rgbMax == b)
 601              		.loc 1 148 0
 602 00c4 001B     		subs	r0, r0, r4
ARM GAS  C:\Users\pearlstl\AppData\Local\Temp\cc7pgkmL.s 			page 16


 603 00c6 8002     		lsls	r0, r0, #10
 604 00c8 90FBF7F3 		sdiv	r3, r0, r7
 605 00cc 03F50063 		add	r3, r3, #2048
 606              	.LVL88:
 607 00d0 DCE7     		b	.L49
 608              	.LVL89:
 609              	.L59:
 146:..\..\..\lvgl\version_6.1.2\lvgl\src\lv_misc/lv_color.c ****     else if(rgbMax == g)
 610              		.loc 1 146 0
 611 00d2 0B1A     		subs	r3, r1, r0
 612 00d4 4245     		cmp	r2, r8
 613 00d6 34BF     		ite	cc
 614 00d8 4FF4C052 		movcc	r2, #6144
 615 00dc 0022     		movcs	r2, #0
 616              	.LVL90:
 617 00de 9B02     		lsls	r3, r3, #10
 618 00e0 93FBF7F3 		sdiv	r3, r3, r7
 619 00e4 1344     		add	r3, r3, r2
 620              	.LVL91:
 621 00e6 D1E7     		b	.L49
 622              	.L62:
 623              		.align	2
 624              	.L61:
 625 00e8 81808080 		.word	-2139062143
 626              	.LBE13:
 627              	.LBE15:
 628              		.cfi_endproc
 629              	.LFE11:
 630              		.size	lv_color_to_hsv, .-lv_color_to_hsv
 631              		.text
 632              	.Letext0:
 633              		.file 2 "c:\\program files (x86)\\cypress\\psoc creator\\4.2\\psoc creator\\import\\gnu\\arm\\5.4.
 634              		.file 3 "c:\\program files (x86)\\cypress\\psoc creator\\4.2\\psoc creator\\import\\gnu\\arm\\5.4.
 635              		.file 4 "..\\..\\..\\lvgl\\version_6.1.2\\lvgl\\src\\lv_misc\\lv_color.h"