ARM GAS  C:\Users\pearlstl\AppData\Local\Temp\ccQFxYtd.s 			page 1


   1              		.syntax unified
   2              		.cpu cortex-m4
   3              		.eabi_attribute 27, 1
   4              		.fpu fpv4-sp-d16
   5              		.eabi_attribute 20, 1
   6              		.eabi_attribute 21, 1
   7              		.eabi_attribute 23, 3
   8              		.eabi_attribute 24, 1
   9              		.eabi_attribute 25, 1
  10              		.eabi_attribute 26, 1
  11              		.eabi_attribute 30, 2
  12              		.eabi_attribute 34, 1
  13              		.eabi_attribute 18, 4
  14              		.thumb
  15              		.syntax unified
  16              		.file	"lv_canvas.c"
  17              		.text
  18              	.Ltext0:
  19              		.cfi_sections	.debug_frame
  20              		.section	.text.lv_canvas_signal,"ax",%progbits
  21              		.align	2
  22              		.thumb
  23              		.thumb_func
  24              		.type	lv_canvas_signal, %function
  25              	lv_canvas_signal:
  26              	.LFB52:
  27              		.file 1 "..\\..\\..\\lvgl\\version_6.1.2\\lvgl\\src\\lv_objx\\lv_canvas.c"
   1:..\..\..\lvgl\version_6.1.2\lvgl\src\lv_objx/lv_canvas.c **** /**
   2:..\..\..\lvgl\version_6.1.2\lvgl\src\lv_objx/lv_canvas.c ****  * @file lv_canvas.c
   3:..\..\..\lvgl\version_6.1.2\lvgl\src\lv_objx/lv_canvas.c ****  *
   4:..\..\..\lvgl\version_6.1.2\lvgl\src\lv_objx/lv_canvas.c ****  */
   5:..\..\..\lvgl\version_6.1.2\lvgl\src\lv_objx/lv_canvas.c **** 
   6:..\..\..\lvgl\version_6.1.2\lvgl\src\lv_objx/lv_canvas.c **** /*********************
   7:..\..\..\lvgl\version_6.1.2\lvgl\src\lv_objx/lv_canvas.c ****  *      INCLUDES
   8:..\..\..\lvgl\version_6.1.2\lvgl\src\lv_objx/lv_canvas.c ****  *********************/
   9:..\..\..\lvgl\version_6.1.2\lvgl\src\lv_objx/lv_canvas.c **** #include <stdlib.h>
  10:..\..\..\lvgl\version_6.1.2\lvgl\src\lv_objx/lv_canvas.c **** #include "lv_canvas.h"
  11:..\..\..\lvgl\version_6.1.2\lvgl\src\lv_objx/lv_canvas.c **** #include "../lv_core/lv_debug.h"
  12:..\..\..\lvgl\version_6.1.2\lvgl\src\lv_objx/lv_canvas.c **** #include "../lv_misc/lv_math.h"
  13:..\..\..\lvgl\version_6.1.2\lvgl\src\lv_objx/lv_canvas.c **** #include "../lv_draw/lv_draw.h"
  14:..\..\..\lvgl\version_6.1.2\lvgl\src\lv_objx/lv_canvas.c **** #include "../lv_core/lv_refr.h"
  15:..\..\..\lvgl\version_6.1.2\lvgl\src\lv_objx/lv_canvas.c **** 
  16:..\..\..\lvgl\version_6.1.2\lvgl\src\lv_objx/lv_canvas.c **** #if LV_USE_CANVAS != 0
  17:..\..\..\lvgl\version_6.1.2\lvgl\src\lv_objx/lv_canvas.c **** 
  18:..\..\..\lvgl\version_6.1.2\lvgl\src\lv_objx/lv_canvas.c **** /*********************
  19:..\..\..\lvgl\version_6.1.2\lvgl\src\lv_objx/lv_canvas.c ****  *      DEFINES
  20:..\..\..\lvgl\version_6.1.2\lvgl\src\lv_objx/lv_canvas.c ****  *********************/
  21:..\..\..\lvgl\version_6.1.2\lvgl\src\lv_objx/lv_canvas.c **** #define LV_OBJX_NAME "lv_canvas"
  22:..\..\..\lvgl\version_6.1.2\lvgl\src\lv_objx/lv_canvas.c **** 
  23:..\..\..\lvgl\version_6.1.2\lvgl\src\lv_objx/lv_canvas.c **** /**********************
  24:..\..\..\lvgl\version_6.1.2\lvgl\src\lv_objx/lv_canvas.c ****  *      TYPEDEFS
  25:..\..\..\lvgl\version_6.1.2\lvgl\src\lv_objx/lv_canvas.c ****  **********************/
  26:..\..\..\lvgl\version_6.1.2\lvgl\src\lv_objx/lv_canvas.c **** 
  27:..\..\..\lvgl\version_6.1.2\lvgl\src\lv_objx/lv_canvas.c **** /**********************
  28:..\..\..\lvgl\version_6.1.2\lvgl\src\lv_objx/lv_canvas.c ****  *  STATIC PROTOTYPES
  29:..\..\..\lvgl\version_6.1.2\lvgl\src\lv_objx/lv_canvas.c ****  **********************/
  30:..\..\..\lvgl\version_6.1.2\lvgl\src\lv_objx/lv_canvas.c **** static lv_res_t lv_canvas_signal(lv_obj_t * canvas, lv_signal_t sign, void * param);
ARM GAS  C:\Users\pearlstl\AppData\Local\Temp\ccQFxYtd.s 			page 2


  31:..\..\..\lvgl\version_6.1.2\lvgl\src\lv_objx/lv_canvas.c **** 
  32:..\..\..\lvgl\version_6.1.2\lvgl\src\lv_objx/lv_canvas.c **** /**********************
  33:..\..\..\lvgl\version_6.1.2\lvgl\src\lv_objx/lv_canvas.c ****  *  STATIC VARIABLES
  34:..\..\..\lvgl\version_6.1.2\lvgl\src\lv_objx/lv_canvas.c ****  **********************/
  35:..\..\..\lvgl\version_6.1.2\lvgl\src\lv_objx/lv_canvas.c **** static lv_signal_cb_t ancestor_signal;
  36:..\..\..\lvgl\version_6.1.2\lvgl\src\lv_objx/lv_canvas.c **** static lv_design_cb_t ancestor_design;
  37:..\..\..\lvgl\version_6.1.2\lvgl\src\lv_objx/lv_canvas.c **** 
  38:..\..\..\lvgl\version_6.1.2\lvgl\src\lv_objx/lv_canvas.c **** /**********************
  39:..\..\..\lvgl\version_6.1.2\lvgl\src\lv_objx/lv_canvas.c ****  *      MACROS
  40:..\..\..\lvgl\version_6.1.2\lvgl\src\lv_objx/lv_canvas.c ****  **********************/
  41:..\..\..\lvgl\version_6.1.2\lvgl\src\lv_objx/lv_canvas.c **** 
  42:..\..\..\lvgl\version_6.1.2\lvgl\src\lv_objx/lv_canvas.c **** /**********************
  43:..\..\..\lvgl\version_6.1.2\lvgl\src\lv_objx/lv_canvas.c ****  *   GLOBAL FUNCTIONS
  44:..\..\..\lvgl\version_6.1.2\lvgl\src\lv_objx/lv_canvas.c ****  **********************/
  45:..\..\..\lvgl\version_6.1.2\lvgl\src\lv_objx/lv_canvas.c **** 
  46:..\..\..\lvgl\version_6.1.2\lvgl\src\lv_objx/lv_canvas.c **** /**
  47:..\..\..\lvgl\version_6.1.2\lvgl\src\lv_objx/lv_canvas.c ****  * Create a canvas object
  48:..\..\..\lvgl\version_6.1.2\lvgl\src\lv_objx/lv_canvas.c ****  * @param par pointer to an object, it will be the parent of the new canvas
  49:..\..\..\lvgl\version_6.1.2\lvgl\src\lv_objx/lv_canvas.c ****  * @param copy pointer to a canvas object, if not NULL then the new object will be copied from it
  50:..\..\..\lvgl\version_6.1.2\lvgl\src\lv_objx/lv_canvas.c ****  * @return pointer to the created canvas
  51:..\..\..\lvgl\version_6.1.2\lvgl\src\lv_objx/lv_canvas.c ****  */
  52:..\..\..\lvgl\version_6.1.2\lvgl\src\lv_objx/lv_canvas.c **** lv_obj_t * lv_canvas_create(lv_obj_t * par, const lv_obj_t * copy)
  53:..\..\..\lvgl\version_6.1.2\lvgl\src\lv_objx/lv_canvas.c **** {
  54:..\..\..\lvgl\version_6.1.2\lvgl\src\lv_objx/lv_canvas.c ****     LV_LOG_TRACE("canvas create started");
  55:..\..\..\lvgl\version_6.1.2\lvgl\src\lv_objx/lv_canvas.c **** 
  56:..\..\..\lvgl\version_6.1.2\lvgl\src\lv_objx/lv_canvas.c ****     /*Create the ancestor of canvas*/
  57:..\..\..\lvgl\version_6.1.2\lvgl\src\lv_objx/lv_canvas.c ****     lv_obj_t * new_canvas = lv_img_create(par, copy);
  58:..\..\..\lvgl\version_6.1.2\lvgl\src\lv_objx/lv_canvas.c ****     LV_ASSERT_MEM(new_canvas);
  59:..\..\..\lvgl\version_6.1.2\lvgl\src\lv_objx/lv_canvas.c ****     if(new_canvas == NULL) return NULL;
  60:..\..\..\lvgl\version_6.1.2\lvgl\src\lv_objx/lv_canvas.c **** 
  61:..\..\..\lvgl\version_6.1.2\lvgl\src\lv_objx/lv_canvas.c ****     /*Allocate the canvas type specific extended data*/
  62:..\..\..\lvgl\version_6.1.2\lvgl\src\lv_objx/lv_canvas.c ****     lv_canvas_ext_t * ext = lv_obj_allocate_ext_attr(new_canvas, sizeof(lv_canvas_ext_t));
  63:..\..\..\lvgl\version_6.1.2\lvgl\src\lv_objx/lv_canvas.c ****     LV_ASSERT_MEM(ext);
  64:..\..\..\lvgl\version_6.1.2\lvgl\src\lv_objx/lv_canvas.c ****     if(ext == NULL) return NULL;
  65:..\..\..\lvgl\version_6.1.2\lvgl\src\lv_objx/lv_canvas.c ****     if(ancestor_signal == NULL) ancestor_signal = lv_obj_get_signal_cb(new_canvas);
  66:..\..\..\lvgl\version_6.1.2\lvgl\src\lv_objx/lv_canvas.c ****     if(ancestor_design == NULL) ancestor_design = lv_obj_get_design_cb(new_canvas);
  67:..\..\..\lvgl\version_6.1.2\lvgl\src\lv_objx/lv_canvas.c **** 
  68:..\..\..\lvgl\version_6.1.2\lvgl\src\lv_objx/lv_canvas.c ****     /*Initialize the allocated 'ext' */
  69:..\..\..\lvgl\version_6.1.2\lvgl\src\lv_objx/lv_canvas.c ****     ext->dsc.header.always_zero = 0;
  70:..\..\..\lvgl\version_6.1.2\lvgl\src\lv_objx/lv_canvas.c ****     ext->dsc.header.cf          = LV_IMG_CF_TRUE_COLOR;
  71:..\..\..\lvgl\version_6.1.2\lvgl\src\lv_objx/lv_canvas.c ****     ext->dsc.header.h           = 0;
  72:..\..\..\lvgl\version_6.1.2\lvgl\src\lv_objx/lv_canvas.c ****     ext->dsc.header.w           = 0;
  73:..\..\..\lvgl\version_6.1.2\lvgl\src\lv_objx/lv_canvas.c ****     ext->dsc.data_size          = 0;
  74:..\..\..\lvgl\version_6.1.2\lvgl\src\lv_objx/lv_canvas.c ****     ext->dsc.data               = NULL;
  75:..\..\..\lvgl\version_6.1.2\lvgl\src\lv_objx/lv_canvas.c **** 
  76:..\..\..\lvgl\version_6.1.2\lvgl\src\lv_objx/lv_canvas.c ****     lv_img_set_src(new_canvas, &ext->dsc);
  77:..\..\..\lvgl\version_6.1.2\lvgl\src\lv_objx/lv_canvas.c **** 
  78:..\..\..\lvgl\version_6.1.2\lvgl\src\lv_objx/lv_canvas.c ****     /*The signal and design functions are not copied so set them here*/
  79:..\..\..\lvgl\version_6.1.2\lvgl\src\lv_objx/lv_canvas.c ****     lv_obj_set_signal_cb(new_canvas, lv_canvas_signal);
  80:..\..\..\lvgl\version_6.1.2\lvgl\src\lv_objx/lv_canvas.c **** 
  81:..\..\..\lvgl\version_6.1.2\lvgl\src\lv_objx/lv_canvas.c ****     /*Init the new canvas canvas*/
  82:..\..\..\lvgl\version_6.1.2\lvgl\src\lv_objx/lv_canvas.c ****     if(copy == NULL) {
  83:..\..\..\lvgl\version_6.1.2\lvgl\src\lv_objx/lv_canvas.c **** 
  84:..\..\..\lvgl\version_6.1.2\lvgl\src\lv_objx/lv_canvas.c ****     }
  85:..\..\..\lvgl\version_6.1.2\lvgl\src\lv_objx/lv_canvas.c ****     /*Copy an existing canvas*/
  86:..\..\..\lvgl\version_6.1.2\lvgl\src\lv_objx/lv_canvas.c ****     else {
  87:..\..\..\lvgl\version_6.1.2\lvgl\src\lv_objx/lv_canvas.c ****         /*Refresh the style with new signal function*/
ARM GAS  C:\Users\pearlstl\AppData\Local\Temp\ccQFxYtd.s 			page 3


  88:..\..\..\lvgl\version_6.1.2\lvgl\src\lv_objx/lv_canvas.c ****         lv_obj_refresh_style(new_canvas);
  89:..\..\..\lvgl\version_6.1.2\lvgl\src\lv_objx/lv_canvas.c ****     }
  90:..\..\..\lvgl\version_6.1.2\lvgl\src\lv_objx/lv_canvas.c **** 
  91:..\..\..\lvgl\version_6.1.2\lvgl\src\lv_objx/lv_canvas.c ****     LV_LOG_INFO("canvas created");
  92:..\..\..\lvgl\version_6.1.2\lvgl\src\lv_objx/lv_canvas.c **** 
  93:..\..\..\lvgl\version_6.1.2\lvgl\src\lv_objx/lv_canvas.c ****     return new_canvas;
  94:..\..\..\lvgl\version_6.1.2\lvgl\src\lv_objx/lv_canvas.c **** }
  95:..\..\..\lvgl\version_6.1.2\lvgl\src\lv_objx/lv_canvas.c **** 
  96:..\..\..\lvgl\version_6.1.2\lvgl\src\lv_objx/lv_canvas.c **** /*=====================
  97:..\..\..\lvgl\version_6.1.2\lvgl\src\lv_objx/lv_canvas.c ****  * Setter functions
  98:..\..\..\lvgl\version_6.1.2\lvgl\src\lv_objx/lv_canvas.c ****  *====================*/
  99:..\..\..\lvgl\version_6.1.2\lvgl\src\lv_objx/lv_canvas.c **** 
 100:..\..\..\lvgl\version_6.1.2\lvgl\src\lv_objx/lv_canvas.c **** /**
 101:..\..\..\lvgl\version_6.1.2\lvgl\src\lv_objx/lv_canvas.c ****  * Set a buffer for the canvas.
 102:..\..\..\lvgl\version_6.1.2\lvgl\src\lv_objx/lv_canvas.c ****  * @param buf a buffer where the content of the canvas will be.
 103:..\..\..\lvgl\version_6.1.2\lvgl\src\lv_objx/lv_canvas.c ****  * The required size is (lv_img_color_format_get_px_size(cf) * w * h) / 8)
 104:..\..\..\lvgl\version_6.1.2\lvgl\src\lv_objx/lv_canvas.c ****  * It can be allocated with `lv_mem_alloc()` or
 105:..\..\..\lvgl\version_6.1.2\lvgl\src\lv_objx/lv_canvas.c ****  * it can be statically allocated array (e.g. static lv_color_t buf[100*50]) or
 106:..\..\..\lvgl\version_6.1.2\lvgl\src\lv_objx/lv_canvas.c ****  * it can be an address in RAM or external SRAM
 107:..\..\..\lvgl\version_6.1.2\lvgl\src\lv_objx/lv_canvas.c ****  * @param canvas pointer to a canvas object
 108:..\..\..\lvgl\version_6.1.2\lvgl\src\lv_objx/lv_canvas.c ****  * @param w width of the canvas
 109:..\..\..\lvgl\version_6.1.2\lvgl\src\lv_objx/lv_canvas.c ****  * @param h height of the canvas
 110:..\..\..\lvgl\version_6.1.2\lvgl\src\lv_objx/lv_canvas.c ****  * @param cf color format. The following formats are supported:
 111:..\..\..\lvgl\version_6.1.2\lvgl\src\lv_objx/lv_canvas.c ****  *      LV_IMG_CF_TRUE_COLOR, LV_IMG_CF_TRUE_COLOR_CHROMA_KEYED, LV_IMG_CF_INDEXES_1/2/4/8BIT
 112:..\..\..\lvgl\version_6.1.2\lvgl\src\lv_objx/lv_canvas.c ****  *
 113:..\..\..\lvgl\version_6.1.2\lvgl\src\lv_objx/lv_canvas.c ****  */
 114:..\..\..\lvgl\version_6.1.2\lvgl\src\lv_objx/lv_canvas.c **** void lv_canvas_set_buffer(lv_obj_t * canvas, void * buf, lv_coord_t w, lv_coord_t h, lv_img_cf_t cf
 115:..\..\..\lvgl\version_6.1.2\lvgl\src\lv_objx/lv_canvas.c **** {
 116:..\..\..\lvgl\version_6.1.2\lvgl\src\lv_objx/lv_canvas.c ****     LV_ASSERT_OBJ(canvas, LV_OBJX_NAME);
 117:..\..\..\lvgl\version_6.1.2\lvgl\src\lv_objx/lv_canvas.c ****     LV_ASSERT_NULL(buf);
 118:..\..\..\lvgl\version_6.1.2\lvgl\src\lv_objx/lv_canvas.c **** 
 119:..\..\..\lvgl\version_6.1.2\lvgl\src\lv_objx/lv_canvas.c ****     lv_canvas_ext_t * ext = lv_obj_get_ext_attr(canvas);
 120:..\..\..\lvgl\version_6.1.2\lvgl\src\lv_objx/lv_canvas.c **** 
 121:..\..\..\lvgl\version_6.1.2\lvgl\src\lv_objx/lv_canvas.c ****     ext->dsc.header.cf = cf;
 122:..\..\..\lvgl\version_6.1.2\lvgl\src\lv_objx/lv_canvas.c ****     ext->dsc.header.w  = w;
 123:..\..\..\lvgl\version_6.1.2\lvgl\src\lv_objx/lv_canvas.c ****     ext->dsc.header.h  = h;
 124:..\..\..\lvgl\version_6.1.2\lvgl\src\lv_objx/lv_canvas.c ****     ext->dsc.data      = buf;
 125:..\..\..\lvgl\version_6.1.2\lvgl\src\lv_objx/lv_canvas.c ****     ext->dsc.data_size = (lv_img_color_format_get_px_size(cf) * w * h) / 8;
 126:..\..\..\lvgl\version_6.1.2\lvgl\src\lv_objx/lv_canvas.c **** 
 127:..\..\..\lvgl\version_6.1.2\lvgl\src\lv_objx/lv_canvas.c ****     lv_img_set_src(canvas, &ext->dsc);
 128:..\..\..\lvgl\version_6.1.2\lvgl\src\lv_objx/lv_canvas.c **** }
 129:..\..\..\lvgl\version_6.1.2\lvgl\src\lv_objx/lv_canvas.c **** 
 130:..\..\..\lvgl\version_6.1.2\lvgl\src\lv_objx/lv_canvas.c **** /**
 131:..\..\..\lvgl\version_6.1.2\lvgl\src\lv_objx/lv_canvas.c ****  * Set the color of a pixel on the canvas
 132:..\..\..\lvgl\version_6.1.2\lvgl\src\lv_objx/lv_canvas.c ****  * @param canvas pointer to canvas object
 133:..\..\..\lvgl\version_6.1.2\lvgl\src\lv_objx/lv_canvas.c ****  * @param x x coordinate of the point to set
 134:..\..\..\lvgl\version_6.1.2\lvgl\src\lv_objx/lv_canvas.c ****  * @param y x coordinate of the point to set
 135:..\..\..\lvgl\version_6.1.2\lvgl\src\lv_objx/lv_canvas.c ****  * @param c color of the point
 136:..\..\..\lvgl\version_6.1.2\lvgl\src\lv_objx/lv_canvas.c ****  */
 137:..\..\..\lvgl\version_6.1.2\lvgl\src\lv_objx/lv_canvas.c **** void lv_canvas_set_px(lv_obj_t * canvas, lv_coord_t x, lv_coord_t y, lv_color_t c)
 138:..\..\..\lvgl\version_6.1.2\lvgl\src\lv_objx/lv_canvas.c **** {
 139:..\..\..\lvgl\version_6.1.2\lvgl\src\lv_objx/lv_canvas.c ****     LV_ASSERT_OBJ(canvas, LV_OBJX_NAME);
 140:..\..\..\lvgl\version_6.1.2\lvgl\src\lv_objx/lv_canvas.c **** 
 141:..\..\..\lvgl\version_6.1.2\lvgl\src\lv_objx/lv_canvas.c ****     lv_canvas_ext_t * ext = lv_obj_get_ext_attr(canvas);
 142:..\..\..\lvgl\version_6.1.2\lvgl\src\lv_objx/lv_canvas.c **** 
 143:..\..\..\lvgl\version_6.1.2\lvgl\src\lv_objx/lv_canvas.c ****     lv_img_buf_set_px_color(&ext->dsc, x, y, c);
 144:..\..\..\lvgl\version_6.1.2\lvgl\src\lv_objx/lv_canvas.c ****     lv_obj_invalidate(canvas);
ARM GAS  C:\Users\pearlstl\AppData\Local\Temp\ccQFxYtd.s 			page 4


 145:..\..\..\lvgl\version_6.1.2\lvgl\src\lv_objx/lv_canvas.c **** }
 146:..\..\..\lvgl\version_6.1.2\lvgl\src\lv_objx/lv_canvas.c **** 
 147:..\..\..\lvgl\version_6.1.2\lvgl\src\lv_objx/lv_canvas.c **** /**
 148:..\..\..\lvgl\version_6.1.2\lvgl\src\lv_objx/lv_canvas.c ****  * Set the palette color of a canvas with index format. Valid only for `LV_IMG_CF_INDEXED1/2/4/8`
 149:..\..\..\lvgl\version_6.1.2\lvgl\src\lv_objx/lv_canvas.c ****  * @param canvas pointer to canvas object
 150:..\..\..\lvgl\version_6.1.2\lvgl\src\lv_objx/lv_canvas.c ****  * @param id the palette color to set:
 151:..\..\..\lvgl\version_6.1.2\lvgl\src\lv_objx/lv_canvas.c ****  *   - for `LV_IMG_CF_INDEXED1`: 0..1
 152:..\..\..\lvgl\version_6.1.2\lvgl\src\lv_objx/lv_canvas.c ****  *   - for `LV_IMG_CF_INDEXED2`: 0..3
 153:..\..\..\lvgl\version_6.1.2\lvgl\src\lv_objx/lv_canvas.c ****  *   - for `LV_IMG_CF_INDEXED4`: 0..15
 154:..\..\..\lvgl\version_6.1.2\lvgl\src\lv_objx/lv_canvas.c ****  *   - for `LV_IMG_CF_INDEXED8`: 0..255
 155:..\..\..\lvgl\version_6.1.2\lvgl\src\lv_objx/lv_canvas.c ****  * @param c the color to set
 156:..\..\..\lvgl\version_6.1.2\lvgl\src\lv_objx/lv_canvas.c ****  */
 157:..\..\..\lvgl\version_6.1.2\lvgl\src\lv_objx/lv_canvas.c **** void lv_canvas_set_palette(lv_obj_t * canvas, uint8_t id, lv_color_t c)
 158:..\..\..\lvgl\version_6.1.2\lvgl\src\lv_objx/lv_canvas.c **** {
 159:..\..\..\lvgl\version_6.1.2\lvgl\src\lv_objx/lv_canvas.c ****     LV_ASSERT_OBJ(canvas, LV_OBJX_NAME);
 160:..\..\..\lvgl\version_6.1.2\lvgl\src\lv_objx/lv_canvas.c **** 
 161:..\..\..\lvgl\version_6.1.2\lvgl\src\lv_objx/lv_canvas.c ****     lv_canvas_ext_t * ext = lv_obj_get_ext_attr(canvas);
 162:..\..\..\lvgl\version_6.1.2\lvgl\src\lv_objx/lv_canvas.c **** 
 163:..\..\..\lvgl\version_6.1.2\lvgl\src\lv_objx/lv_canvas.c ****     lv_img_buf_set_palette(&ext->dsc, id, c);
 164:..\..\..\lvgl\version_6.1.2\lvgl\src\lv_objx/lv_canvas.c ****     lv_obj_invalidate(canvas);
 165:..\..\..\lvgl\version_6.1.2\lvgl\src\lv_objx/lv_canvas.c **** }
 166:..\..\..\lvgl\version_6.1.2\lvgl\src\lv_objx/lv_canvas.c **** 
 167:..\..\..\lvgl\version_6.1.2\lvgl\src\lv_objx/lv_canvas.c **** /**
 168:..\..\..\lvgl\version_6.1.2\lvgl\src\lv_objx/lv_canvas.c ****  * Set a style of a canvas.
 169:..\..\..\lvgl\version_6.1.2\lvgl\src\lv_objx/lv_canvas.c ****  * @param canvas pointer to canvas object
 170:..\..\..\lvgl\version_6.1.2\lvgl\src\lv_objx/lv_canvas.c ****  * @param type which style should be set
 171:..\..\..\lvgl\version_6.1.2\lvgl\src\lv_objx/lv_canvas.c ****  * @param style pointer to a style
 172:..\..\..\lvgl\version_6.1.2\lvgl\src\lv_objx/lv_canvas.c ****  */
 173:..\..\..\lvgl\version_6.1.2\lvgl\src\lv_objx/lv_canvas.c **** void lv_canvas_set_style(lv_obj_t * canvas, lv_canvas_style_t type, const lv_style_t * style)
 174:..\..\..\lvgl\version_6.1.2\lvgl\src\lv_objx/lv_canvas.c **** {
 175:..\..\..\lvgl\version_6.1.2\lvgl\src\lv_objx/lv_canvas.c ****     LV_ASSERT_OBJ(canvas, LV_OBJX_NAME);
 176:..\..\..\lvgl\version_6.1.2\lvgl\src\lv_objx/lv_canvas.c **** 
 177:..\..\..\lvgl\version_6.1.2\lvgl\src\lv_objx/lv_canvas.c ****     switch(type) {
 178:..\..\..\lvgl\version_6.1.2\lvgl\src\lv_objx/lv_canvas.c ****         case LV_CANVAS_STYLE_MAIN: lv_img_set_style(canvas, LV_IMG_STYLE_MAIN, style); break;
 179:..\..\..\lvgl\version_6.1.2\lvgl\src\lv_objx/lv_canvas.c ****     }
 180:..\..\..\lvgl\version_6.1.2\lvgl\src\lv_objx/lv_canvas.c **** }
 181:..\..\..\lvgl\version_6.1.2\lvgl\src\lv_objx/lv_canvas.c **** 
 182:..\..\..\lvgl\version_6.1.2\lvgl\src\lv_objx/lv_canvas.c **** /*=====================
 183:..\..\..\lvgl\version_6.1.2\lvgl\src\lv_objx/lv_canvas.c ****  * Getter functions
 184:..\..\..\lvgl\version_6.1.2\lvgl\src\lv_objx/lv_canvas.c ****  *====================*/
 185:..\..\..\lvgl\version_6.1.2\lvgl\src\lv_objx/lv_canvas.c **** 
 186:..\..\..\lvgl\version_6.1.2\lvgl\src\lv_objx/lv_canvas.c **** /**
 187:..\..\..\lvgl\version_6.1.2\lvgl\src\lv_objx/lv_canvas.c ****  * Get the color of a pixel on the canvas
 188:..\..\..\lvgl\version_6.1.2\lvgl\src\lv_objx/lv_canvas.c ****  * @param canvas
 189:..\..\..\lvgl\version_6.1.2\lvgl\src\lv_objx/lv_canvas.c ****  * @param x x coordinate of the point to set
 190:..\..\..\lvgl\version_6.1.2\lvgl\src\lv_objx/lv_canvas.c ****  * @param y x coordinate of the point to set
 191:..\..\..\lvgl\version_6.1.2\lvgl\src\lv_objx/lv_canvas.c ****  * @return color of the point
 192:..\..\..\lvgl\version_6.1.2\lvgl\src\lv_objx/lv_canvas.c ****  */
 193:..\..\..\lvgl\version_6.1.2\lvgl\src\lv_objx/lv_canvas.c **** lv_color_t lv_canvas_get_px(lv_obj_t * canvas, lv_coord_t x, lv_coord_t y)
 194:..\..\..\lvgl\version_6.1.2\lvgl\src\lv_objx/lv_canvas.c **** {
 195:..\..\..\lvgl\version_6.1.2\lvgl\src\lv_objx/lv_canvas.c ****     LV_ASSERT_OBJ(canvas, LV_OBJX_NAME);
 196:..\..\..\lvgl\version_6.1.2\lvgl\src\lv_objx/lv_canvas.c **** 
 197:..\..\..\lvgl\version_6.1.2\lvgl\src\lv_objx/lv_canvas.c ****     lv_canvas_ext_t * ext    = lv_obj_get_ext_attr(canvas);
 198:..\..\..\lvgl\version_6.1.2\lvgl\src\lv_objx/lv_canvas.c ****     const lv_style_t * style = lv_canvas_get_style(canvas, LV_CANVAS_STYLE_MAIN);
 199:..\..\..\lvgl\version_6.1.2\lvgl\src\lv_objx/lv_canvas.c **** 
 200:..\..\..\lvgl\version_6.1.2\lvgl\src\lv_objx/lv_canvas.c ****     return lv_img_buf_get_px_color(&ext->dsc, x, y, style);
 201:..\..\..\lvgl\version_6.1.2\lvgl\src\lv_objx/lv_canvas.c **** }
ARM GAS  C:\Users\pearlstl\AppData\Local\Temp\ccQFxYtd.s 			page 5


 202:..\..\..\lvgl\version_6.1.2\lvgl\src\lv_objx/lv_canvas.c **** 
 203:..\..\..\lvgl\version_6.1.2\lvgl\src\lv_objx/lv_canvas.c **** /**
 204:..\..\..\lvgl\version_6.1.2\lvgl\src\lv_objx/lv_canvas.c ****  * Get the image of the canvas as a pointer to an `lv_img_dsc_t` variable.
 205:..\..\..\lvgl\version_6.1.2\lvgl\src\lv_objx/lv_canvas.c ****  * @param canvas pointer to a canvas object
 206:..\..\..\lvgl\version_6.1.2\lvgl\src\lv_objx/lv_canvas.c ****  * @return pointer to the image descriptor.
 207:..\..\..\lvgl\version_6.1.2\lvgl\src\lv_objx/lv_canvas.c ****  */
 208:..\..\..\lvgl\version_6.1.2\lvgl\src\lv_objx/lv_canvas.c **** lv_img_dsc_t * lv_canvas_get_img(lv_obj_t * canvas)
 209:..\..\..\lvgl\version_6.1.2\lvgl\src\lv_objx/lv_canvas.c **** {
 210:..\..\..\lvgl\version_6.1.2\lvgl\src\lv_objx/lv_canvas.c ****     LV_ASSERT_OBJ(canvas, LV_OBJX_NAME);
 211:..\..\..\lvgl\version_6.1.2\lvgl\src\lv_objx/lv_canvas.c **** 
 212:..\..\..\lvgl\version_6.1.2\lvgl\src\lv_objx/lv_canvas.c ****     lv_canvas_ext_t * ext = lv_obj_get_ext_attr(canvas);
 213:..\..\..\lvgl\version_6.1.2\lvgl\src\lv_objx/lv_canvas.c **** 
 214:..\..\..\lvgl\version_6.1.2\lvgl\src\lv_objx/lv_canvas.c ****     return &ext->dsc;
 215:..\..\..\lvgl\version_6.1.2\lvgl\src\lv_objx/lv_canvas.c **** }
 216:..\..\..\lvgl\version_6.1.2\lvgl\src\lv_objx/lv_canvas.c **** 
 217:..\..\..\lvgl\version_6.1.2\lvgl\src\lv_objx/lv_canvas.c **** /**
 218:..\..\..\lvgl\version_6.1.2\lvgl\src\lv_objx/lv_canvas.c ****  * Get style of a canvas.
 219:..\..\..\lvgl\version_6.1.2\lvgl\src\lv_objx/lv_canvas.c ****  * @param canvas pointer to canvas object
 220:..\..\..\lvgl\version_6.1.2\lvgl\src\lv_objx/lv_canvas.c ****  * @param type which style should be get
 221:..\..\..\lvgl\version_6.1.2\lvgl\src\lv_objx/lv_canvas.c ****  * @return style pointer to the style
 222:..\..\..\lvgl\version_6.1.2\lvgl\src\lv_objx/lv_canvas.c ****  */
 223:..\..\..\lvgl\version_6.1.2\lvgl\src\lv_objx/lv_canvas.c **** const lv_style_t * lv_canvas_get_style(const lv_obj_t * canvas, lv_canvas_style_t type)
 224:..\..\..\lvgl\version_6.1.2\lvgl\src\lv_objx/lv_canvas.c **** {
 225:..\..\..\lvgl\version_6.1.2\lvgl\src\lv_objx/lv_canvas.c ****     LV_ASSERT_OBJ(canvas, LV_OBJX_NAME);
 226:..\..\..\lvgl\version_6.1.2\lvgl\src\lv_objx/lv_canvas.c **** 
 227:..\..\..\lvgl\version_6.1.2\lvgl\src\lv_objx/lv_canvas.c ****     const lv_style_t * style = NULL;
 228:..\..\..\lvgl\version_6.1.2\lvgl\src\lv_objx/lv_canvas.c **** 
 229:..\..\..\lvgl\version_6.1.2\lvgl\src\lv_objx/lv_canvas.c ****     switch(type) {
 230:..\..\..\lvgl\version_6.1.2\lvgl\src\lv_objx/lv_canvas.c ****         case LV_CANVAS_STYLE_MAIN: style = lv_img_get_style(canvas, LV_IMG_STYLE_MAIN); break;
 231:..\..\..\lvgl\version_6.1.2\lvgl\src\lv_objx/lv_canvas.c ****         default: style = NULL;
 232:..\..\..\lvgl\version_6.1.2\lvgl\src\lv_objx/lv_canvas.c ****     }
 233:..\..\..\lvgl\version_6.1.2\lvgl\src\lv_objx/lv_canvas.c **** 
 234:..\..\..\lvgl\version_6.1.2\lvgl\src\lv_objx/lv_canvas.c ****     return style;
 235:..\..\..\lvgl\version_6.1.2\lvgl\src\lv_objx/lv_canvas.c **** }
 236:..\..\..\lvgl\version_6.1.2\lvgl\src\lv_objx/lv_canvas.c **** 
 237:..\..\..\lvgl\version_6.1.2\lvgl\src\lv_objx/lv_canvas.c **** /*=====================
 238:..\..\..\lvgl\version_6.1.2\lvgl\src\lv_objx/lv_canvas.c ****  * Other functions
 239:..\..\..\lvgl\version_6.1.2\lvgl\src\lv_objx/lv_canvas.c ****  *====================*/
 240:..\..\..\lvgl\version_6.1.2\lvgl\src\lv_objx/lv_canvas.c **** 
 241:..\..\..\lvgl\version_6.1.2\lvgl\src\lv_objx/lv_canvas.c **** /**
 242:..\..\..\lvgl\version_6.1.2\lvgl\src\lv_objx/lv_canvas.c ****  * Copy a buffer to the canvas
 243:..\..\..\lvgl\version_6.1.2\lvgl\src\lv_objx/lv_canvas.c ****  * @param canvas pointer to a canvas object
 244:..\..\..\lvgl\version_6.1.2\lvgl\src\lv_objx/lv_canvas.c ****  * @param to_copy buffer to copy. The color format has to match with the canvas's buffer color
 245:..\..\..\lvgl\version_6.1.2\lvgl\src\lv_objx/lv_canvas.c ****  * format
 246:..\..\..\lvgl\version_6.1.2\lvgl\src\lv_objx/lv_canvas.c ****  * @param w width of the buffer to copy
 247:..\..\..\lvgl\version_6.1.2\lvgl\src\lv_objx/lv_canvas.c ****  * @param h height of the buffer to copy
 248:..\..\..\lvgl\version_6.1.2\lvgl\src\lv_objx/lv_canvas.c ****  * @param x left side of the destination position
 249:..\..\..\lvgl\version_6.1.2\lvgl\src\lv_objx/lv_canvas.c ****  * @param y top side of the destination position
 250:..\..\..\lvgl\version_6.1.2\lvgl\src\lv_objx/lv_canvas.c ****  */
 251:..\..\..\lvgl\version_6.1.2\lvgl\src\lv_objx/lv_canvas.c **** void lv_canvas_copy_buf(lv_obj_t * canvas, const void * to_copy, lv_coord_t x, lv_coord_t y, lv_coo
 252:..\..\..\lvgl\version_6.1.2\lvgl\src\lv_objx/lv_canvas.c **** {
 253:..\..\..\lvgl\version_6.1.2\lvgl\src\lv_objx/lv_canvas.c ****     LV_ASSERT_OBJ(canvas, LV_OBJX_NAME);
 254:..\..\..\lvgl\version_6.1.2\lvgl\src\lv_objx/lv_canvas.c ****     LV_ASSERT_NULL(to_copy);
 255:..\..\..\lvgl\version_6.1.2\lvgl\src\lv_objx/lv_canvas.c **** 
 256:..\..\..\lvgl\version_6.1.2\lvgl\src\lv_objx/lv_canvas.c ****     lv_canvas_ext_t * ext = lv_obj_get_ext_attr(canvas);
 257:..\..\..\lvgl\version_6.1.2\lvgl\src\lv_objx/lv_canvas.c ****     if(x + w >= (lv_coord_t)ext->dsc.header.w || y + h >= (lv_coord_t)ext->dsc.header.h) {
 258:..\..\..\lvgl\version_6.1.2\lvgl\src\lv_objx/lv_canvas.c ****         LV_LOG_WARN("lv_canvas_copy_buf: x or y out of the canvas");
ARM GAS  C:\Users\pearlstl\AppData\Local\Temp\ccQFxYtd.s 			page 6


 259:..\..\..\lvgl\version_6.1.2\lvgl\src\lv_objx/lv_canvas.c ****         return;
 260:..\..\..\lvgl\version_6.1.2\lvgl\src\lv_objx/lv_canvas.c ****     }
 261:..\..\..\lvgl\version_6.1.2\lvgl\src\lv_objx/lv_canvas.c **** 
 262:..\..\..\lvgl\version_6.1.2\lvgl\src\lv_objx/lv_canvas.c ****     uint32_t px_size   = lv_img_color_format_get_px_size(ext->dsc.header.cf) >> 3;
 263:..\..\..\lvgl\version_6.1.2\lvgl\src\lv_objx/lv_canvas.c ****     uint32_t px        = ext->dsc.header.w * y * px_size + x * px_size;
 264:..\..\..\lvgl\version_6.1.2\lvgl\src\lv_objx/lv_canvas.c ****     uint8_t * to_copy8 = (uint8_t *)to_copy;
 265:..\..\..\lvgl\version_6.1.2\lvgl\src\lv_objx/lv_canvas.c ****     lv_coord_t i;
 266:..\..\..\lvgl\version_6.1.2\lvgl\src\lv_objx/lv_canvas.c ****     for(i = 0; i < h; i++) {
 267:..\..\..\lvgl\version_6.1.2\lvgl\src\lv_objx/lv_canvas.c ****         memcpy((void *)&ext->dsc.data[px], to_copy8, w * px_size);
 268:..\..\..\lvgl\version_6.1.2\lvgl\src\lv_objx/lv_canvas.c ****         px += ext->dsc.header.w * px_size;
 269:..\..\..\lvgl\version_6.1.2\lvgl\src\lv_objx/lv_canvas.c ****         to_copy8 += w * px_size;
 270:..\..\..\lvgl\version_6.1.2\lvgl\src\lv_objx/lv_canvas.c ****     }
 271:..\..\..\lvgl\version_6.1.2\lvgl\src\lv_objx/lv_canvas.c **** }
 272:..\..\..\lvgl\version_6.1.2\lvgl\src\lv_objx/lv_canvas.c **** 
 273:..\..\..\lvgl\version_6.1.2\lvgl\src\lv_objx/lv_canvas.c **** /**
 274:..\..\..\lvgl\version_6.1.2\lvgl\src\lv_objx/lv_canvas.c ****  * Rotate and image and store the result on a canvas.
 275:..\..\..\lvgl\version_6.1.2\lvgl\src\lv_objx/lv_canvas.c ****  * @param canvas pointer to a canvas object
 276:..\..\..\lvgl\version_6.1.2\lvgl\src\lv_objx/lv_canvas.c ****  * @param img pointer to an image descriptor.
 277:..\..\..\lvgl\version_6.1.2\lvgl\src\lv_objx/lv_canvas.c ****  *             Can be the image descriptor of an other canvas too (`lv_canvas_get_img()`).
 278:..\..\..\lvgl\version_6.1.2\lvgl\src\lv_objx/lv_canvas.c ****  * @param angle the angle of rotation (0..360);
 279:..\..\..\lvgl\version_6.1.2\lvgl\src\lv_objx/lv_canvas.c ****  * @param offset_x offset X to tell where to put the result data on destination canvas
 280:..\..\..\lvgl\version_6.1.2\lvgl\src\lv_objx/lv_canvas.c ****  * @param offset_y offset X to tell where to put the result data on destination canvas
 281:..\..\..\lvgl\version_6.1.2\lvgl\src\lv_objx/lv_canvas.c ****  * @param pivot_x pivot X of rotation. Relative to the source canvas
 282:..\..\..\lvgl\version_6.1.2\lvgl\src\lv_objx/lv_canvas.c ****  *                Set to `source width / 2` to rotate around the center
 283:..\..\..\lvgl\version_6.1.2\lvgl\src\lv_objx/lv_canvas.c ****  * @param pivot_y pivot Y of rotation. Relative to the source canvas
 284:..\..\..\lvgl\version_6.1.2\lvgl\src\lv_objx/lv_canvas.c ****  *                Set to `source height / 2` to rotate around the center
 285:..\..\..\lvgl\version_6.1.2\lvgl\src\lv_objx/lv_canvas.c ****  */
 286:..\..\..\lvgl\version_6.1.2\lvgl\src\lv_objx/lv_canvas.c **** void lv_canvas_rotate(lv_obj_t * canvas, lv_img_dsc_t * img, int16_t angle, lv_coord_t offset_x, lv
 287:..\..\..\lvgl\version_6.1.2\lvgl\src\lv_objx/lv_canvas.c ****                       int32_t pivot_x, int32_t pivot_y)
 288:..\..\..\lvgl\version_6.1.2\lvgl\src\lv_objx/lv_canvas.c **** {
 289:..\..\..\lvgl\version_6.1.2\lvgl\src\lv_objx/lv_canvas.c ****     LV_ASSERT_OBJ(canvas, LV_OBJX_NAME);
 290:..\..\..\lvgl\version_6.1.2\lvgl\src\lv_objx/lv_canvas.c ****     LV_ASSERT_NULL(img);
 291:..\..\..\lvgl\version_6.1.2\lvgl\src\lv_objx/lv_canvas.c **** 
 292:..\..\..\lvgl\version_6.1.2\lvgl\src\lv_objx/lv_canvas.c ****     lv_canvas_ext_t * ext_dst = lv_obj_get_ext_attr(canvas);
 293:..\..\..\lvgl\version_6.1.2\lvgl\src\lv_objx/lv_canvas.c ****     const lv_style_t * style  = lv_canvas_get_style(canvas, LV_CANVAS_STYLE_MAIN);
 294:..\..\..\lvgl\version_6.1.2\lvgl\src\lv_objx/lv_canvas.c ****     int32_t sinma             = lv_trigo_sin(-angle);
 295:..\..\..\lvgl\version_6.1.2\lvgl\src\lv_objx/lv_canvas.c ****     int32_t cosma             = lv_trigo_sin(-angle + 90); /* cos */
 296:..\..\..\lvgl\version_6.1.2\lvgl\src\lv_objx/lv_canvas.c **** 
 297:..\..\..\lvgl\version_6.1.2\lvgl\src\lv_objx/lv_canvas.c ****     int32_t img_width   = img->header.w;
 298:..\..\..\lvgl\version_6.1.2\lvgl\src\lv_objx/lv_canvas.c ****     int32_t img_height  = img->header.h;
 299:..\..\..\lvgl\version_6.1.2\lvgl\src\lv_objx/lv_canvas.c ****     int32_t dest_width  = ext_dst->dsc.header.w;
 300:..\..\..\lvgl\version_6.1.2\lvgl\src\lv_objx/lv_canvas.c ****     int32_t dest_height = ext_dst->dsc.header.h;
 301:..\..\..\lvgl\version_6.1.2\lvgl\src\lv_objx/lv_canvas.c **** 
 302:..\..\..\lvgl\version_6.1.2\lvgl\src\lv_objx/lv_canvas.c ****     int32_t x;
 303:..\..\..\lvgl\version_6.1.2\lvgl\src\lv_objx/lv_canvas.c ****     int32_t y;
 304:..\..\..\lvgl\version_6.1.2\lvgl\src\lv_objx/lv_canvas.c ****     for(x = -offset_x; x < dest_width - offset_x; x++) {
 305:..\..\..\lvgl\version_6.1.2\lvgl\src\lv_objx/lv_canvas.c ****         for(y = -offset_y; y < dest_height - offset_y; y++) {
 306:..\..\..\lvgl\version_6.1.2\lvgl\src\lv_objx/lv_canvas.c ****             /*Get the target point relative coordinates to the pivot*/
 307:..\..\..\lvgl\version_6.1.2\lvgl\src\lv_objx/lv_canvas.c ****             int32_t xt = x - pivot_x;
 308:..\..\..\lvgl\version_6.1.2\lvgl\src\lv_objx/lv_canvas.c ****             int32_t yt = y - pivot_y;
 309:..\..\..\lvgl\version_6.1.2\lvgl\src\lv_objx/lv_canvas.c **** 
 310:..\..\..\lvgl\version_6.1.2\lvgl\src\lv_objx/lv_canvas.c ****             /*Get the source pixel from the upscaled image*/
 311:..\..\..\lvgl\version_6.1.2\lvgl\src\lv_objx/lv_canvas.c ****             int32_t xs = ((cosma * xt - sinma * yt) >> (LV_TRIGO_SHIFT - 8)) + pivot_x * 256;
 312:..\..\..\lvgl\version_6.1.2\lvgl\src\lv_objx/lv_canvas.c ****             int32_t ys = ((sinma * xt + cosma * yt) >> (LV_TRIGO_SHIFT - 8)) + pivot_y * 256;
 313:..\..\..\lvgl\version_6.1.2\lvgl\src\lv_objx/lv_canvas.c **** 
 314:..\..\..\lvgl\version_6.1.2\lvgl\src\lv_objx/lv_canvas.c ****             /*Get the integer part of the source pixel*/
 315:..\..\..\lvgl\version_6.1.2\lvgl\src\lv_objx/lv_canvas.c ****             int xs_int = xs >> 8;
ARM GAS  C:\Users\pearlstl\AppData\Local\Temp\ccQFxYtd.s 			page 7


 316:..\..\..\lvgl\version_6.1.2\lvgl\src\lv_objx/lv_canvas.c ****             int ys_int = ys >> 8;
 317:..\..\..\lvgl\version_6.1.2\lvgl\src\lv_objx/lv_canvas.c **** 
 318:..\..\..\lvgl\version_6.1.2\lvgl\src\lv_objx/lv_canvas.c ****             if(xs_int >= img_width)
 319:..\..\..\lvgl\version_6.1.2\lvgl\src\lv_objx/lv_canvas.c ****                 continue;
 320:..\..\..\lvgl\version_6.1.2\lvgl\src\lv_objx/lv_canvas.c ****             else if(xs_int < 0)
 321:..\..\..\lvgl\version_6.1.2\lvgl\src\lv_objx/lv_canvas.c ****                 continue;
 322:..\..\..\lvgl\version_6.1.2\lvgl\src\lv_objx/lv_canvas.c **** 
 323:..\..\..\lvgl\version_6.1.2\lvgl\src\lv_objx/lv_canvas.c ****             if(ys_int >= img_height)
 324:..\..\..\lvgl\version_6.1.2\lvgl\src\lv_objx/lv_canvas.c ****                 continue;
 325:..\..\..\lvgl\version_6.1.2\lvgl\src\lv_objx/lv_canvas.c ****             else if(ys_int < 0)
 326:..\..\..\lvgl\version_6.1.2\lvgl\src\lv_objx/lv_canvas.c ****                 continue;
 327:..\..\..\lvgl\version_6.1.2\lvgl\src\lv_objx/lv_canvas.c **** 
 328:..\..\..\lvgl\version_6.1.2\lvgl\src\lv_objx/lv_canvas.c ****             /*Get the fractional part of the source pixel*/
 329:..\..\..\lvgl\version_6.1.2\lvgl\src\lv_objx/lv_canvas.c ****             int xs_fract = xs & 0xff;
 330:..\..\..\lvgl\version_6.1.2\lvgl\src\lv_objx/lv_canvas.c ****             int ys_fract = ys & 0xff;
 331:..\..\..\lvgl\version_6.1.2\lvgl\src\lv_objx/lv_canvas.c **** 
 332:..\..\..\lvgl\version_6.1.2\lvgl\src\lv_objx/lv_canvas.c ****             /* If the fractional < 0x70 mix the source pixel with the left/top pixel
 333:..\..\..\lvgl\version_6.1.2\lvgl\src\lv_objx/lv_canvas.c ****              * If the fractional > 0x90 mix the source pixel with the right/bottom pixel
 334:..\..\..\lvgl\version_6.1.2\lvgl\src\lv_objx/lv_canvas.c ****              * In the 0x70..0x90 range use the unchanged source pixel */
 335:..\..\..\lvgl\version_6.1.2\lvgl\src\lv_objx/lv_canvas.c **** 
 336:..\..\..\lvgl\version_6.1.2\lvgl\src\lv_objx/lv_canvas.c ****             int xn;      /*x neightboor*/
 337:..\..\..\lvgl\version_6.1.2\lvgl\src\lv_objx/lv_canvas.c ****             lv_opa_t xr; /*x mix ratio*/
 338:..\..\..\lvgl\version_6.1.2\lvgl\src\lv_objx/lv_canvas.c ****             if(xs_fract < 0x70) {
 339:..\..\..\lvgl\version_6.1.2\lvgl\src\lv_objx/lv_canvas.c ****                 xn = xs_int - 1;
 340:..\..\..\lvgl\version_6.1.2\lvgl\src\lv_objx/lv_canvas.c ****                 xr = xs_fract * 2;
 341:..\..\..\lvgl\version_6.1.2\lvgl\src\lv_objx/lv_canvas.c ****             } else if(xs_fract > 0x90) {
 342:..\..\..\lvgl\version_6.1.2\lvgl\src\lv_objx/lv_canvas.c ****                 xn = xs_int + 1;
 343:..\..\..\lvgl\version_6.1.2\lvgl\src\lv_objx/lv_canvas.c ****                 xr = (0xFF - xs_fract) * 2;
 344:..\..\..\lvgl\version_6.1.2\lvgl\src\lv_objx/lv_canvas.c ****             } else {
 345:..\..\..\lvgl\version_6.1.2\lvgl\src\lv_objx/lv_canvas.c ****                 xn = xs_int;
 346:..\..\..\lvgl\version_6.1.2\lvgl\src\lv_objx/lv_canvas.c ****                 xr = 0xFF;
 347:..\..\..\lvgl\version_6.1.2\lvgl\src\lv_objx/lv_canvas.c ****             }
 348:..\..\..\lvgl\version_6.1.2\lvgl\src\lv_objx/lv_canvas.c **** 
 349:..\..\..\lvgl\version_6.1.2\lvgl\src\lv_objx/lv_canvas.c ****             /*Handle under/overflow*/
 350:..\..\..\lvgl\version_6.1.2\lvgl\src\lv_objx/lv_canvas.c ****             if(xn >= img_width)
 351:..\..\..\lvgl\version_6.1.2\lvgl\src\lv_objx/lv_canvas.c ****                 continue;
 352:..\..\..\lvgl\version_6.1.2\lvgl\src\lv_objx/lv_canvas.c ****             else if(xn < 0)
 353:..\..\..\lvgl\version_6.1.2\lvgl\src\lv_objx/lv_canvas.c ****                 continue;
 354:..\..\..\lvgl\version_6.1.2\lvgl\src\lv_objx/lv_canvas.c **** 
 355:..\..\..\lvgl\version_6.1.2\lvgl\src\lv_objx/lv_canvas.c ****             int yn;      /*y neightboor*/
 356:..\..\..\lvgl\version_6.1.2\lvgl\src\lv_objx/lv_canvas.c ****             lv_opa_t yr; /*y mix ratio*/
 357:..\..\..\lvgl\version_6.1.2\lvgl\src\lv_objx/lv_canvas.c ****             if(ys_fract < 0x70) {
 358:..\..\..\lvgl\version_6.1.2\lvgl\src\lv_objx/lv_canvas.c ****                 yn = ys_int - 1;
 359:..\..\..\lvgl\version_6.1.2\lvgl\src\lv_objx/lv_canvas.c ****                 yr = ys_fract * 2;
 360:..\..\..\lvgl\version_6.1.2\lvgl\src\lv_objx/lv_canvas.c ****             } else if(ys_fract > 0x90) {
 361:..\..\..\lvgl\version_6.1.2\lvgl\src\lv_objx/lv_canvas.c ****                 yn = ys_int + 1;
 362:..\..\..\lvgl\version_6.1.2\lvgl\src\lv_objx/lv_canvas.c ****                 yr = (0xFF - ys_fract) * 2;
 363:..\..\..\lvgl\version_6.1.2\lvgl\src\lv_objx/lv_canvas.c ****             } else {
 364:..\..\..\lvgl\version_6.1.2\lvgl\src\lv_objx/lv_canvas.c ****                 yn = ys_int;
 365:..\..\..\lvgl\version_6.1.2\lvgl\src\lv_objx/lv_canvas.c ****                 yr = 0xFF;
 366:..\..\..\lvgl\version_6.1.2\lvgl\src\lv_objx/lv_canvas.c ****             }
 367:..\..\..\lvgl\version_6.1.2\lvgl\src\lv_objx/lv_canvas.c **** 
 368:..\..\..\lvgl\version_6.1.2\lvgl\src\lv_objx/lv_canvas.c ****             /*Handle under/overflow*/
 369:..\..\..\lvgl\version_6.1.2\lvgl\src\lv_objx/lv_canvas.c ****             if(yn >= img_height)
 370:..\..\..\lvgl\version_6.1.2\lvgl\src\lv_objx/lv_canvas.c ****                 continue;
 371:..\..\..\lvgl\version_6.1.2\lvgl\src\lv_objx/lv_canvas.c ****             else if(yn < 0)
 372:..\..\..\lvgl\version_6.1.2\lvgl\src\lv_objx/lv_canvas.c ****                 continue;
ARM GAS  C:\Users\pearlstl\AppData\Local\Temp\ccQFxYtd.s 			page 8


 373:..\..\..\lvgl\version_6.1.2\lvgl\src\lv_objx/lv_canvas.c **** 
 374:..\..\..\lvgl\version_6.1.2\lvgl\src\lv_objx/lv_canvas.c ****             /*Get the mixture of the original source and the neightboor pixels in both directions*/
 375:..\..\..\lvgl\version_6.1.2\lvgl\src\lv_objx/lv_canvas.c ****             lv_color_t c_dest_int = lv_img_buf_get_px_color(img, xs_int, ys_int, style);
 376:..\..\..\lvgl\version_6.1.2\lvgl\src\lv_objx/lv_canvas.c **** 
 377:..\..\..\lvgl\version_6.1.2\lvgl\src\lv_objx/lv_canvas.c ****             if(lv_img_color_format_is_chroma_keyed(img->header.cf)) {
 378:..\..\..\lvgl\version_6.1.2\lvgl\src\lv_objx/lv_canvas.c ****                 lv_color_t ct = LV_COLOR_TRANSP;
 379:..\..\..\lvgl\version_6.1.2\lvgl\src\lv_objx/lv_canvas.c ****                 if(c_dest_int.full == ct.full) continue;
 380:..\..\..\lvgl\version_6.1.2\lvgl\src\lv_objx/lv_canvas.c ****             }
 381:..\..\..\lvgl\version_6.1.2\lvgl\src\lv_objx/lv_canvas.c **** 
 382:..\..\..\lvgl\version_6.1.2\lvgl\src\lv_objx/lv_canvas.c ****             lv_color_t c_dest_xn = lv_img_buf_get_px_color(img, xn, ys_int, style);
 383:..\..\..\lvgl\version_6.1.2\lvgl\src\lv_objx/lv_canvas.c ****             lv_color_t c_dest_yn = lv_img_buf_get_px_color(img, xs_int, yn, style);
 384:..\..\..\lvgl\version_6.1.2\lvgl\src\lv_objx/lv_canvas.c ****             lv_color_t x_dest    = lv_color_mix(c_dest_int, c_dest_xn, xr);
 385:..\..\..\lvgl\version_6.1.2\lvgl\src\lv_objx/lv_canvas.c ****             lv_color_t y_dest    = lv_color_mix(c_dest_int, c_dest_yn, yr);
 386:..\..\..\lvgl\version_6.1.2\lvgl\src\lv_objx/lv_canvas.c ****             lv_color_t color_res = lv_color_mix(x_dest, y_dest, LV_OPA_50);
 387:..\..\..\lvgl\version_6.1.2\lvgl\src\lv_objx/lv_canvas.c **** 
 388:..\..\..\lvgl\version_6.1.2\lvgl\src\lv_objx/lv_canvas.c ****             if(x + offset_x >= 0 && x + offset_x < dest_width && y + offset_y >= 0 && y + offset_y 
 389:..\..\..\lvgl\version_6.1.2\lvgl\src\lv_objx/lv_canvas.c ****                 /*If the image has no alpha channel just simple set the result color on the canvas*
 390:..\..\..\lvgl\version_6.1.2\lvgl\src\lv_objx/lv_canvas.c ****                 if(lv_img_color_format_has_alpha(img->header.cf) == false) {
 391:..\..\..\lvgl\version_6.1.2\lvgl\src\lv_objx/lv_canvas.c ****                     lv_img_buf_set_px_color(&ext_dst->dsc, x + offset_x, y + offset_y, color_res);
 392:..\..\..\lvgl\version_6.1.2\lvgl\src\lv_objx/lv_canvas.c ****                 } else {
 393:..\..\..\lvgl\version_6.1.2\lvgl\src\lv_objx/lv_canvas.c ****                     /*Get result pixel opacity*/
 394:..\..\..\lvgl\version_6.1.2\lvgl\src\lv_objx/lv_canvas.c ****                     lv_opa_t opa_int = lv_img_buf_get_px_alpha(img, xs_int, ys_int);
 395:..\..\..\lvgl\version_6.1.2\lvgl\src\lv_objx/lv_canvas.c ****                     lv_opa_t opa_xn  = lv_img_buf_get_px_alpha(img, xn, ys_int);
 396:..\..\..\lvgl\version_6.1.2\lvgl\src\lv_objx/lv_canvas.c ****                     lv_opa_t opa_yn  = lv_img_buf_get_px_alpha(img, xs_int, yn);
 397:..\..\..\lvgl\version_6.1.2\lvgl\src\lv_objx/lv_canvas.c ****                     lv_opa_t opa_x   = (opa_int * xr + (opa_xn * (255 - xr))) >> 8;
 398:..\..\..\lvgl\version_6.1.2\lvgl\src\lv_objx/lv_canvas.c ****                     lv_opa_t opa_y   = (opa_int * yr + (opa_yn * (255 - yr))) >> 8;
 399:..\..\..\lvgl\version_6.1.2\lvgl\src\lv_objx/lv_canvas.c ****                     lv_opa_t opa_res = (opa_x + opa_y) / 2;
 400:..\..\..\lvgl\version_6.1.2\lvgl\src\lv_objx/lv_canvas.c ****                     if(opa_res <= LV_OPA_MIN) continue;
 401:..\..\..\lvgl\version_6.1.2\lvgl\src\lv_objx/lv_canvas.c **** 
 402:..\..\..\lvgl\version_6.1.2\lvgl\src\lv_objx/lv_canvas.c ****                     lv_color_t bg_color = lv_img_buf_get_px_color(&ext_dst->dsc, x + offset_x, y + 
 403:..\..\..\lvgl\version_6.1.2\lvgl\src\lv_objx/lv_canvas.c **** 
 404:..\..\..\lvgl\version_6.1.2\lvgl\src\lv_objx/lv_canvas.c ****                     /*If the canvas has no alpha but the image has mix the image's color with
 405:..\..\..\lvgl\version_6.1.2\lvgl\src\lv_objx/lv_canvas.c ****                      * canvas*/
 406:..\..\..\lvgl\version_6.1.2\lvgl\src\lv_objx/lv_canvas.c ****                     if(lv_img_color_format_has_alpha(ext_dst->dsc.header.cf) == false) {
 407:..\..\..\lvgl\version_6.1.2\lvgl\src\lv_objx/lv_canvas.c ****                         if(opa_res < LV_OPA_MAX) color_res = lv_color_mix(color_res, bg_color, opa_
 408:..\..\..\lvgl\version_6.1.2\lvgl\src\lv_objx/lv_canvas.c ****                         lv_img_buf_set_px_color(&ext_dst->dsc, x + offset_x, y + offset_y, color_re
 409:..\..\..\lvgl\version_6.1.2\lvgl\src\lv_objx/lv_canvas.c ****                     }
 410:..\..\..\lvgl\version_6.1.2\lvgl\src\lv_objx/lv_canvas.c ****                     /*Both the image and canvas has alpha channel. Some extra calculation is
 411:..\..\..\lvgl\version_6.1.2\lvgl\src\lv_objx/lv_canvas.c ****                        required*/
 412:..\..\..\lvgl\version_6.1.2\lvgl\src\lv_objx/lv_canvas.c ****                     else {
 413:..\..\..\lvgl\version_6.1.2\lvgl\src\lv_objx/lv_canvas.c ****                         lv_opa_t bg_opa = lv_img_buf_get_px_alpha(&ext_dst->dsc, x + offset_x, y + 
 414:..\..\..\lvgl\version_6.1.2\lvgl\src\lv_objx/lv_canvas.c ****                         /* Pick the foreground if it's fully opaque or the Background is fully
 415:..\..\..\lvgl\version_6.1.2\lvgl\src\lv_objx/lv_canvas.c ****                          * transparent*/
 416:..\..\..\lvgl\version_6.1.2\lvgl\src\lv_objx/lv_canvas.c ****                         if(opa_res >= LV_OPA_MAX || bg_opa <= LV_OPA_MIN) {
 417:..\..\..\lvgl\version_6.1.2\lvgl\src\lv_objx/lv_canvas.c ****                             lv_img_buf_set_px_color(&ext_dst->dsc, x + offset_x, y + offset_y, colo
 418:..\..\..\lvgl\version_6.1.2\lvgl\src\lv_objx/lv_canvas.c ****                             lv_img_buf_set_px_alpha(&ext_dst->dsc, x + offset_x, y + offset_y, opa_
 419:..\..\..\lvgl\version_6.1.2\lvgl\src\lv_objx/lv_canvas.c ****                         }
 420:..\..\..\lvgl\version_6.1.2\lvgl\src\lv_objx/lv_canvas.c ****                         /*Opaque background: use simple mix*/
 421:..\..\..\lvgl\version_6.1.2\lvgl\src\lv_objx/lv_canvas.c ****                         else if(bg_opa >= LV_OPA_MAX) {
 422:..\..\..\lvgl\version_6.1.2\lvgl\src\lv_objx/lv_canvas.c ****                             lv_img_buf_set_px_color(&ext_dst->dsc, x + offset_x, y + offset_y,
 423:..\..\..\lvgl\version_6.1.2\lvgl\src\lv_objx/lv_canvas.c ****                                                     lv_color_mix(color_res, bg_color, opa_res));
 424:..\..\..\lvgl\version_6.1.2\lvgl\src\lv_objx/lv_canvas.c ****                         }
 425:..\..\..\lvgl\version_6.1.2\lvgl\src\lv_objx/lv_canvas.c ****                         /*Both colors have alpha. Expensive calculation need to be applied*/
 426:..\..\..\lvgl\version_6.1.2\lvgl\src\lv_objx/lv_canvas.c ****                         else {
 427:..\..\..\lvgl\version_6.1.2\lvgl\src\lv_objx/lv_canvas.c **** 
 428:..\..\..\lvgl\version_6.1.2\lvgl\src\lv_objx/lv_canvas.c ****                             /*Info:
 429:..\..\..\lvgl\version_6.1.2\lvgl\src\lv_objx/lv_canvas.c ****                              * https://en.wikipedia.org/wiki/Alpha_compositing#Analytical_derivatio
ARM GAS  C:\Users\pearlstl\AppData\Local\Temp\ccQFxYtd.s 			page 9


 430:..\..\..\lvgl\version_6.1.2\lvgl\src\lv_objx/lv_canvas.c ****                             lv_opa_t opa_res_2 = 255 - ((uint16_t)((uint16_t)(255 - opa_res) * (255
 431:..\..\..\lvgl\version_6.1.2\lvgl\src\lv_objx/lv_canvas.c ****                             if(opa_res_2 == 0) {
 432:..\..\..\lvgl\version_6.1.2\lvgl\src\lv_objx/lv_canvas.c ****                                 opa_res_2 = 1; /*never happens, just to be sure*/
 433:..\..\..\lvgl\version_6.1.2\lvgl\src\lv_objx/lv_canvas.c ****                             }
 434:..\..\..\lvgl\version_6.1.2\lvgl\src\lv_objx/lv_canvas.c ****                             lv_opa_t ratio = (uint16_t)((uint16_t)opa_res * 255) / opa_res_2;
 435:..\..\..\lvgl\version_6.1.2\lvgl\src\lv_objx/lv_canvas.c **** 
 436:..\..\..\lvgl\version_6.1.2\lvgl\src\lv_objx/lv_canvas.c ****                             lv_img_buf_set_px_color(&ext_dst->dsc, x + offset_x, y + offset_y,
 437:..\..\..\lvgl\version_6.1.2\lvgl\src\lv_objx/lv_canvas.c ****                                                     lv_color_mix(color_res, bg_color, ratio));
 438:..\..\..\lvgl\version_6.1.2\lvgl\src\lv_objx/lv_canvas.c ****                             lv_img_buf_set_px_alpha(&ext_dst->dsc, x + offset_x, y + offset_y, opa_
 439:..\..\..\lvgl\version_6.1.2\lvgl\src\lv_objx/lv_canvas.c ****                         }
 440:..\..\..\lvgl\version_6.1.2\lvgl\src\lv_objx/lv_canvas.c ****                     }
 441:..\..\..\lvgl\version_6.1.2\lvgl\src\lv_objx/lv_canvas.c ****                 }
 442:..\..\..\lvgl\version_6.1.2\lvgl\src\lv_objx/lv_canvas.c ****             }
 443:..\..\..\lvgl\version_6.1.2\lvgl\src\lv_objx/lv_canvas.c ****         }
 444:..\..\..\lvgl\version_6.1.2\lvgl\src\lv_objx/lv_canvas.c ****     }
 445:..\..\..\lvgl\version_6.1.2\lvgl\src\lv_objx/lv_canvas.c **** 
 446:..\..\..\lvgl\version_6.1.2\lvgl\src\lv_objx/lv_canvas.c ****     lv_obj_invalidate(canvas);
 447:..\..\..\lvgl\version_6.1.2\lvgl\src\lv_objx/lv_canvas.c **** }
 448:..\..\..\lvgl\version_6.1.2\lvgl\src\lv_objx/lv_canvas.c **** 
 449:..\..\..\lvgl\version_6.1.2\lvgl\src\lv_objx/lv_canvas.c **** /**
 450:..\..\..\lvgl\version_6.1.2\lvgl\src\lv_objx/lv_canvas.c ****  * Fill the canvas with color
 451:..\..\..\lvgl\version_6.1.2\lvgl\src\lv_objx/lv_canvas.c ****  * @param canvas pointer to a canvas
 452:..\..\..\lvgl\version_6.1.2\lvgl\src\lv_objx/lv_canvas.c ****  * @param color the background color
 453:..\..\..\lvgl\version_6.1.2\lvgl\src\lv_objx/lv_canvas.c ****  */
 454:..\..\..\lvgl\version_6.1.2\lvgl\src\lv_objx/lv_canvas.c **** void lv_canvas_fill_bg(lv_obj_t * canvas, lv_color_t color)
 455:..\..\..\lvgl\version_6.1.2\lvgl\src\lv_objx/lv_canvas.c **** {
 456:..\..\..\lvgl\version_6.1.2\lvgl\src\lv_objx/lv_canvas.c ****     LV_ASSERT_OBJ(canvas, LV_OBJX_NAME);
 457:..\..\..\lvgl\version_6.1.2\lvgl\src\lv_objx/lv_canvas.c **** 
 458:..\..\..\lvgl\version_6.1.2\lvgl\src\lv_objx/lv_canvas.c ****     lv_img_dsc_t * dsc = lv_canvas_get_img(canvas);
 459:..\..\..\lvgl\version_6.1.2\lvgl\src\lv_objx/lv_canvas.c **** 
 460:..\..\..\lvgl\version_6.1.2\lvgl\src\lv_objx/lv_canvas.c ****     uint32_t x = dsc->header.w * dsc->header.h;
 461:..\..\..\lvgl\version_6.1.2\lvgl\src\lv_objx/lv_canvas.c ****     uint32_t y;
 462:..\..\..\lvgl\version_6.1.2\lvgl\src\lv_objx/lv_canvas.c ****     for(y = 0; y < dsc->header.h; y++) {
 463:..\..\..\lvgl\version_6.1.2\lvgl\src\lv_objx/lv_canvas.c ****         for(x = 0; x < dsc->header.w; x++) {
 464:..\..\..\lvgl\version_6.1.2\lvgl\src\lv_objx/lv_canvas.c ****             lv_img_buf_set_px_color(dsc, x, y, color);
 465:..\..\..\lvgl\version_6.1.2\lvgl\src\lv_objx/lv_canvas.c ****         }
 466:..\..\..\lvgl\version_6.1.2\lvgl\src\lv_objx/lv_canvas.c ****     }
 467:..\..\..\lvgl\version_6.1.2\lvgl\src\lv_objx/lv_canvas.c **** }
 468:..\..\..\lvgl\version_6.1.2\lvgl\src\lv_objx/lv_canvas.c **** 
 469:..\..\..\lvgl\version_6.1.2\lvgl\src\lv_objx/lv_canvas.c **** /**
 470:..\..\..\lvgl\version_6.1.2\lvgl\src\lv_objx/lv_canvas.c ****  * Draw a rectangle on the canvas
 471:..\..\..\lvgl\version_6.1.2\lvgl\src\lv_objx/lv_canvas.c ****  * @param canvas pointer to a canvas object
 472:..\..\..\lvgl\version_6.1.2\lvgl\src\lv_objx/lv_canvas.c ****  * @param x left coordinate of the rectangle
 473:..\..\..\lvgl\version_6.1.2\lvgl\src\lv_objx/lv_canvas.c ****  * @param y top coordinate of the rectangle
 474:..\..\..\lvgl\version_6.1.2\lvgl\src\lv_objx/lv_canvas.c ****  * @param w width of the rectangle
 475:..\..\..\lvgl\version_6.1.2\lvgl\src\lv_objx/lv_canvas.c ****  * @param h height of the rectangle
 476:..\..\..\lvgl\version_6.1.2\lvgl\src\lv_objx/lv_canvas.c ****  * @param style style of the rectangle (`body` properties are used except `padding`)
 477:..\..\..\lvgl\version_6.1.2\lvgl\src\lv_objx/lv_canvas.c ****  */
 478:..\..\..\lvgl\version_6.1.2\lvgl\src\lv_objx/lv_canvas.c **** void lv_canvas_draw_rect(lv_obj_t * canvas, lv_coord_t x, lv_coord_t y, lv_coord_t w, lv_coord_t h,
 479:..\..\..\lvgl\version_6.1.2\lvgl\src\lv_objx/lv_canvas.c ****                          const lv_style_t * style)
 480:..\..\..\lvgl\version_6.1.2\lvgl\src\lv_objx/lv_canvas.c **** {
 481:..\..\..\lvgl\version_6.1.2\lvgl\src\lv_objx/lv_canvas.c ****     LV_ASSERT_OBJ(canvas, LV_OBJX_NAME);
 482:..\..\..\lvgl\version_6.1.2\lvgl\src\lv_objx/lv_canvas.c ****     LV_ASSERT_NULL(style);
 483:..\..\..\lvgl\version_6.1.2\lvgl\src\lv_objx/lv_canvas.c **** 
 484:..\..\..\lvgl\version_6.1.2\lvgl\src\lv_objx/lv_canvas.c ****     lv_img_dsc_t * dsc = lv_canvas_get_img(canvas);
 485:..\..\..\lvgl\version_6.1.2\lvgl\src\lv_objx/lv_canvas.c **** 
 486:..\..\..\lvgl\version_6.1.2\lvgl\src\lv_objx/lv_canvas.c ****     /* Create a dummy display to fool the lv_draw function.
ARM GAS  C:\Users\pearlstl\AppData\Local\Temp\ccQFxYtd.s 			page 10


 487:..\..\..\lvgl\version_6.1.2\lvgl\src\lv_objx/lv_canvas.c ****      * It will think it draws to real screen. */
 488:..\..\..\lvgl\version_6.1.2\lvgl\src\lv_objx/lv_canvas.c ****     lv_area_t mask;
 489:..\..\..\lvgl\version_6.1.2\lvgl\src\lv_objx/lv_canvas.c ****     mask.x1 = 0;
 490:..\..\..\lvgl\version_6.1.2\lvgl\src\lv_objx/lv_canvas.c ****     mask.x2 = dsc->header.w - 1;
 491:..\..\..\lvgl\version_6.1.2\lvgl\src\lv_objx/lv_canvas.c ****     mask.y1 = 0;
 492:..\..\..\lvgl\version_6.1.2\lvgl\src\lv_objx/lv_canvas.c ****     mask.y2 = dsc->header.h - 1;
 493:..\..\..\lvgl\version_6.1.2\lvgl\src\lv_objx/lv_canvas.c **** 
 494:..\..\..\lvgl\version_6.1.2\lvgl\src\lv_objx/lv_canvas.c ****     lv_area_t coords;
 495:..\..\..\lvgl\version_6.1.2\lvgl\src\lv_objx/lv_canvas.c ****     coords.x1 = x;
 496:..\..\..\lvgl\version_6.1.2\lvgl\src\lv_objx/lv_canvas.c ****     coords.y1 = y;
 497:..\..\..\lvgl\version_6.1.2\lvgl\src\lv_objx/lv_canvas.c ****     coords.x2 = x + w - 1;
 498:..\..\..\lvgl\version_6.1.2\lvgl\src\lv_objx/lv_canvas.c ****     coords.y2 = y + h - 1;
 499:..\..\..\lvgl\version_6.1.2\lvgl\src\lv_objx/lv_canvas.c **** 
 500:..\..\..\lvgl\version_6.1.2\lvgl\src\lv_objx/lv_canvas.c ****     lv_disp_t disp;
 501:..\..\..\lvgl\version_6.1.2\lvgl\src\lv_objx/lv_canvas.c ****     memset(&disp, 0, sizeof(lv_disp_t));
 502:..\..\..\lvgl\version_6.1.2\lvgl\src\lv_objx/lv_canvas.c **** 
 503:..\..\..\lvgl\version_6.1.2\lvgl\src\lv_objx/lv_canvas.c ****     lv_disp_buf_t disp_buf;
 504:..\..\..\lvgl\version_6.1.2\lvgl\src\lv_objx/lv_canvas.c ****     lv_disp_buf_init(&disp_buf, (void *)dsc->data, NULL, dsc->header.w * dsc->header.h);
 505:..\..\..\lvgl\version_6.1.2\lvgl\src\lv_objx/lv_canvas.c ****     lv_area_copy(&disp_buf.area, &mask);
 506:..\..\..\lvgl\version_6.1.2\lvgl\src\lv_objx/lv_canvas.c **** 
 507:..\..\..\lvgl\version_6.1.2\lvgl\src\lv_objx/lv_canvas.c ****     lv_disp_drv_init(&disp.driver);
 508:..\..\..\lvgl\version_6.1.2\lvgl\src\lv_objx/lv_canvas.c **** 
 509:..\..\..\lvgl\version_6.1.2\lvgl\src\lv_objx/lv_canvas.c ****     disp.driver.buffer  = &disp_buf;
 510:..\..\..\lvgl\version_6.1.2\lvgl\src\lv_objx/lv_canvas.c ****     disp.driver.hor_res = dsc->header.w;
 511:..\..\..\lvgl\version_6.1.2\lvgl\src\lv_objx/lv_canvas.c ****     disp.driver.ver_res = dsc->header.h;
 512:..\..\..\lvgl\version_6.1.2\lvgl\src\lv_objx/lv_canvas.c **** 
 513:..\..\..\lvgl\version_6.1.2\lvgl\src\lv_objx/lv_canvas.c **** #if LV_ANTIALIAS
 514:..\..\..\lvgl\version_6.1.2\lvgl\src\lv_objx/lv_canvas.c ****     /*Disable anti-aliasing if drawing with transparent color to chroma keyed canvas*/
 515:..\..\..\lvgl\version_6.1.2\lvgl\src\lv_objx/lv_canvas.c ****     lv_color_t ctransp = LV_COLOR_TRANSP;
 516:..\..\..\lvgl\version_6.1.2\lvgl\src\lv_objx/lv_canvas.c ****     if(dsc->header.cf == LV_IMG_CF_TRUE_COLOR_CHROMA_KEYED &&
 517:..\..\..\lvgl\version_6.1.2\lvgl\src\lv_objx/lv_canvas.c ****         style->body.main_color.full == ctransp.full &&
 518:..\..\..\lvgl\version_6.1.2\lvgl\src\lv_objx/lv_canvas.c ****         style->body.grad_color.full == ctransp.full)
 519:..\..\..\lvgl\version_6.1.2\lvgl\src\lv_objx/lv_canvas.c ****     {
 520:..\..\..\lvgl\version_6.1.2\lvgl\src\lv_objx/lv_canvas.c ****         disp.driver.antialiasing = 0;
 521:..\..\..\lvgl\version_6.1.2\lvgl\src\lv_objx/lv_canvas.c ****     }
 522:..\..\..\lvgl\version_6.1.2\lvgl\src\lv_objx/lv_canvas.c **** #endif
 523:..\..\..\lvgl\version_6.1.2\lvgl\src\lv_objx/lv_canvas.c **** 
 524:..\..\..\lvgl\version_6.1.2\lvgl\src\lv_objx/lv_canvas.c ****     lv_disp_t * refr_ori = lv_refr_get_disp_refreshing();
 525:..\..\..\lvgl\version_6.1.2\lvgl\src\lv_objx/lv_canvas.c ****     lv_refr_set_disp_refreshing(&disp);
 526:..\..\..\lvgl\version_6.1.2\lvgl\src\lv_objx/lv_canvas.c **** 
 527:..\..\..\lvgl\version_6.1.2\lvgl\src\lv_objx/lv_canvas.c ****     lv_draw_rect(&coords, &mask, style, LV_OPA_COVER);
 528:..\..\..\lvgl\version_6.1.2\lvgl\src\lv_objx/lv_canvas.c **** 
 529:..\..\..\lvgl\version_6.1.2\lvgl\src\lv_objx/lv_canvas.c ****     lv_refr_set_disp_refreshing(refr_ori);
 530:..\..\..\lvgl\version_6.1.2\lvgl\src\lv_objx/lv_canvas.c **** }
 531:..\..\..\lvgl\version_6.1.2\lvgl\src\lv_objx/lv_canvas.c **** 
 532:..\..\..\lvgl\version_6.1.2\lvgl\src\lv_objx/lv_canvas.c **** /**
 533:..\..\..\lvgl\version_6.1.2\lvgl\src\lv_objx/lv_canvas.c ****  * Draw a text on the canvas.
 534:..\..\..\lvgl\version_6.1.2\lvgl\src\lv_objx/lv_canvas.c ****  * @param canvas pointer to a canvas object
 535:..\..\..\lvgl\version_6.1.2\lvgl\src\lv_objx/lv_canvas.c ****  * @param x left coordinate of the text
 536:..\..\..\lvgl\version_6.1.2\lvgl\src\lv_objx/lv_canvas.c ****  * @param y top coordinate of the text
 537:..\..\..\lvgl\version_6.1.2\lvgl\src\lv_objx/lv_canvas.c ****  * @param max_w max width of the text. The text will be wrapped to fit into this size
 538:..\..\..\lvgl\version_6.1.2\lvgl\src\lv_objx/lv_canvas.c ****  * @param style style of the text (`text` properties are used)
 539:..\..\..\lvgl\version_6.1.2\lvgl\src\lv_objx/lv_canvas.c ****  * @param txt text to display
 540:..\..\..\lvgl\version_6.1.2\lvgl\src\lv_objx/lv_canvas.c ****  * @param align align of the text (`LV_LABEL_ALIGN_LEFT/RIGHT/CENTER`)
 541:..\..\..\lvgl\version_6.1.2\lvgl\src\lv_objx/lv_canvas.c ****  */
 542:..\..\..\lvgl\version_6.1.2\lvgl\src\lv_objx/lv_canvas.c **** void lv_canvas_draw_text(lv_obj_t * canvas, lv_coord_t x, lv_coord_t y, lv_coord_t max_w, const lv_
 543:..\..\..\lvgl\version_6.1.2\lvgl\src\lv_objx/lv_canvas.c ****                          const char * txt, lv_label_align_t align)
ARM GAS  C:\Users\pearlstl\AppData\Local\Temp\ccQFxYtd.s 			page 11


 544:..\..\..\lvgl\version_6.1.2\lvgl\src\lv_objx/lv_canvas.c **** {
 545:..\..\..\lvgl\version_6.1.2\lvgl\src\lv_objx/lv_canvas.c ****     LV_ASSERT_OBJ(canvas, LV_OBJX_NAME);
 546:..\..\..\lvgl\version_6.1.2\lvgl\src\lv_objx/lv_canvas.c ****     LV_ASSERT_NULL(style);
 547:..\..\..\lvgl\version_6.1.2\lvgl\src\lv_objx/lv_canvas.c **** 
 548:..\..\..\lvgl\version_6.1.2\lvgl\src\lv_objx/lv_canvas.c ****     lv_img_dsc_t * dsc = lv_canvas_get_img(canvas);
 549:..\..\..\lvgl\version_6.1.2\lvgl\src\lv_objx/lv_canvas.c **** 
 550:..\..\..\lvgl\version_6.1.2\lvgl\src\lv_objx/lv_canvas.c ****     /* Create a dummy display to fool the lv_draw function.
 551:..\..\..\lvgl\version_6.1.2\lvgl\src\lv_objx/lv_canvas.c ****      * It will think it draws to real screen. */
 552:..\..\..\lvgl\version_6.1.2\lvgl\src\lv_objx/lv_canvas.c ****     lv_area_t mask;
 553:..\..\..\lvgl\version_6.1.2\lvgl\src\lv_objx/lv_canvas.c ****     mask.x1 = 0;
 554:..\..\..\lvgl\version_6.1.2\lvgl\src\lv_objx/lv_canvas.c ****     mask.x2 = dsc->header.w - 1;
 555:..\..\..\lvgl\version_6.1.2\lvgl\src\lv_objx/lv_canvas.c ****     mask.y1 = 0;
 556:..\..\..\lvgl\version_6.1.2\lvgl\src\lv_objx/lv_canvas.c ****     mask.y2 = dsc->header.h - 1;
 557:..\..\..\lvgl\version_6.1.2\lvgl\src\lv_objx/lv_canvas.c **** 
 558:..\..\..\lvgl\version_6.1.2\lvgl\src\lv_objx/lv_canvas.c ****     lv_area_t coords;
 559:..\..\..\lvgl\version_6.1.2\lvgl\src\lv_objx/lv_canvas.c ****     coords.x1 = x;
 560:..\..\..\lvgl\version_6.1.2\lvgl\src\lv_objx/lv_canvas.c ****     coords.y1 = y;
 561:..\..\..\lvgl\version_6.1.2\lvgl\src\lv_objx/lv_canvas.c ****     coords.x2 = x + max_w - 1;
 562:..\..\..\lvgl\version_6.1.2\lvgl\src\lv_objx/lv_canvas.c ****     coords.y2 = dsc->header.h - 1;
 563:..\..\..\lvgl\version_6.1.2\lvgl\src\lv_objx/lv_canvas.c **** 
 564:..\..\..\lvgl\version_6.1.2\lvgl\src\lv_objx/lv_canvas.c ****     lv_disp_t disp;
 565:..\..\..\lvgl\version_6.1.2\lvgl\src\lv_objx/lv_canvas.c ****     memset(&disp, 0, sizeof(lv_disp_t));
 566:..\..\..\lvgl\version_6.1.2\lvgl\src\lv_objx/lv_canvas.c **** 
 567:..\..\..\lvgl\version_6.1.2\lvgl\src\lv_objx/lv_canvas.c ****     lv_disp_buf_t disp_buf;
 568:..\..\..\lvgl\version_6.1.2\lvgl\src\lv_objx/lv_canvas.c ****     lv_disp_buf_init(&disp_buf, (void *)dsc->data, NULL, dsc->header.w * dsc->header.h);
 569:..\..\..\lvgl\version_6.1.2\lvgl\src\lv_objx/lv_canvas.c ****     lv_area_copy(&disp_buf.area, &mask);
 570:..\..\..\lvgl\version_6.1.2\lvgl\src\lv_objx/lv_canvas.c **** 
 571:..\..\..\lvgl\version_6.1.2\lvgl\src\lv_objx/lv_canvas.c ****     lv_disp_drv_init(&disp.driver);
 572:..\..\..\lvgl\version_6.1.2\lvgl\src\lv_objx/lv_canvas.c **** 
 573:..\..\..\lvgl\version_6.1.2\lvgl\src\lv_objx/lv_canvas.c ****     disp.driver.buffer  = &disp_buf;
 574:..\..\..\lvgl\version_6.1.2\lvgl\src\lv_objx/lv_canvas.c ****     disp.driver.hor_res = dsc->header.w;
 575:..\..\..\lvgl\version_6.1.2\lvgl\src\lv_objx/lv_canvas.c ****     disp.driver.ver_res = dsc->header.h;
 576:..\..\..\lvgl\version_6.1.2\lvgl\src\lv_objx/lv_canvas.c **** 
 577:..\..\..\lvgl\version_6.1.2\lvgl\src\lv_objx/lv_canvas.c ****     lv_disp_t * refr_ori = lv_refr_get_disp_refreshing();
 578:..\..\..\lvgl\version_6.1.2\lvgl\src\lv_objx/lv_canvas.c ****     lv_refr_set_disp_refreshing(&disp);
 579:..\..\..\lvgl\version_6.1.2\lvgl\src\lv_objx/lv_canvas.c **** 
 580:..\..\..\lvgl\version_6.1.2\lvgl\src\lv_objx/lv_canvas.c ****     lv_txt_flag_t flag;
 581:..\..\..\lvgl\version_6.1.2\lvgl\src\lv_objx/lv_canvas.c ****     switch(align) {
 582:..\..\..\lvgl\version_6.1.2\lvgl\src\lv_objx/lv_canvas.c ****         case LV_LABEL_ALIGN_LEFT: flag = LV_TXT_FLAG_NONE; break;
 583:..\..\..\lvgl\version_6.1.2\lvgl\src\lv_objx/lv_canvas.c ****         case LV_LABEL_ALIGN_RIGHT: flag = LV_TXT_FLAG_RIGHT; break;
 584:..\..\..\lvgl\version_6.1.2\lvgl\src\lv_objx/lv_canvas.c ****         case LV_LABEL_ALIGN_CENTER: flag = LV_TXT_FLAG_CENTER; break;
 585:..\..\..\lvgl\version_6.1.2\lvgl\src\lv_objx/lv_canvas.c ****         default: flag = LV_TXT_FLAG_NONE; break;
 586:..\..\..\lvgl\version_6.1.2\lvgl\src\lv_objx/lv_canvas.c ****     }
 587:..\..\..\lvgl\version_6.1.2\lvgl\src\lv_objx/lv_canvas.c **** 
 588:..\..\..\lvgl\version_6.1.2\lvgl\src\lv_objx/lv_canvas.c ****     lv_draw_label(&coords, &mask, style, LV_OPA_COVER, txt, flag, NULL,  NULL, NULL, lv_obj_get_bas
 589:..\..\..\lvgl\version_6.1.2\lvgl\src\lv_objx/lv_canvas.c **** 
 590:..\..\..\lvgl\version_6.1.2\lvgl\src\lv_objx/lv_canvas.c ****     lv_refr_set_disp_refreshing(refr_ori);
 591:..\..\..\lvgl\version_6.1.2\lvgl\src\lv_objx/lv_canvas.c **** }
 592:..\..\..\lvgl\version_6.1.2\lvgl\src\lv_objx/lv_canvas.c **** 
 593:..\..\..\lvgl\version_6.1.2\lvgl\src\lv_objx/lv_canvas.c **** /**
 594:..\..\..\lvgl\version_6.1.2\lvgl\src\lv_objx/lv_canvas.c ****  * Draw an image on the canvas
 595:..\..\..\lvgl\version_6.1.2\lvgl\src\lv_objx/lv_canvas.c ****  * @param canvas pointer to a canvas object
 596:..\..\..\lvgl\version_6.1.2\lvgl\src\lv_objx/lv_canvas.c ****  * @param src image source. Can be a pointer an `lv_img_dsc_t` variable or a path an image.
 597:..\..\..\lvgl\version_6.1.2\lvgl\src\lv_objx/lv_canvas.c ****  * @param style style of the image (`image` properties are used)
 598:..\..\..\lvgl\version_6.1.2\lvgl\src\lv_objx/lv_canvas.c ****  */
 599:..\..\..\lvgl\version_6.1.2\lvgl\src\lv_objx/lv_canvas.c **** void lv_canvas_draw_img(lv_obj_t * canvas, lv_coord_t x, lv_coord_t y, const void * src, const lv_s
 600:..\..\..\lvgl\version_6.1.2\lvgl\src\lv_objx/lv_canvas.c **** {
ARM GAS  C:\Users\pearlstl\AppData\Local\Temp\ccQFxYtd.s 			page 12


 601:..\..\..\lvgl\version_6.1.2\lvgl\src\lv_objx/lv_canvas.c ****     LV_ASSERT_OBJ(canvas, LV_OBJX_NAME);
 602:..\..\..\lvgl\version_6.1.2\lvgl\src\lv_objx/lv_canvas.c ****     LV_ASSERT_NULL(style);
 603:..\..\..\lvgl\version_6.1.2\lvgl\src\lv_objx/lv_canvas.c **** 
 604:..\..\..\lvgl\version_6.1.2\lvgl\src\lv_objx/lv_canvas.c ****     lv_img_dsc_t * dsc = lv_canvas_get_img(canvas);
 605:..\..\..\lvgl\version_6.1.2\lvgl\src\lv_objx/lv_canvas.c **** 
 606:..\..\..\lvgl\version_6.1.2\lvgl\src\lv_objx/lv_canvas.c ****     /* Create a dummy display to fool the lv_draw function.
 607:..\..\..\lvgl\version_6.1.2\lvgl\src\lv_objx/lv_canvas.c ****      * It will think it draws to real screen. */
 608:..\..\..\lvgl\version_6.1.2\lvgl\src\lv_objx/lv_canvas.c ****     lv_area_t mask;
 609:..\..\..\lvgl\version_6.1.2\lvgl\src\lv_objx/lv_canvas.c ****     mask.x1 = 0;
 610:..\..\..\lvgl\version_6.1.2\lvgl\src\lv_objx/lv_canvas.c ****     mask.x2 = dsc->header.w - 1;
 611:..\..\..\lvgl\version_6.1.2\lvgl\src\lv_objx/lv_canvas.c ****     mask.y1 = 0;
 612:..\..\..\lvgl\version_6.1.2\lvgl\src\lv_objx/lv_canvas.c ****     mask.y2 = dsc->header.h - 1;
 613:..\..\..\lvgl\version_6.1.2\lvgl\src\lv_objx/lv_canvas.c **** 
 614:..\..\..\lvgl\version_6.1.2\lvgl\src\lv_objx/lv_canvas.c ****     lv_img_header_t header;
 615:..\..\..\lvgl\version_6.1.2\lvgl\src\lv_objx/lv_canvas.c ****     lv_res_t res = lv_img_decoder_get_info(src, &header);
 616:..\..\..\lvgl\version_6.1.2\lvgl\src\lv_objx/lv_canvas.c ****     if(res != LV_RES_OK) {
 617:..\..\..\lvgl\version_6.1.2\lvgl\src\lv_objx/lv_canvas.c ****         LV_LOG_WARN("lv_canvas_draw_img: Couldn't get the image data.");
 618:..\..\..\lvgl\version_6.1.2\lvgl\src\lv_objx/lv_canvas.c ****         return;
 619:..\..\..\lvgl\version_6.1.2\lvgl\src\lv_objx/lv_canvas.c ****     }
 620:..\..\..\lvgl\version_6.1.2\lvgl\src\lv_objx/lv_canvas.c **** 
 621:..\..\..\lvgl\version_6.1.2\lvgl\src\lv_objx/lv_canvas.c ****     lv_area_t coords;
 622:..\..\..\lvgl\version_6.1.2\lvgl\src\lv_objx/lv_canvas.c ****     coords.x1 = x;
 623:..\..\..\lvgl\version_6.1.2\lvgl\src\lv_objx/lv_canvas.c ****     coords.y1 = y;
 624:..\..\..\lvgl\version_6.1.2\lvgl\src\lv_objx/lv_canvas.c ****     coords.x2 = x + header.w - 1;
 625:..\..\..\lvgl\version_6.1.2\lvgl\src\lv_objx/lv_canvas.c ****     coords.y2 = y + header.h - 1;
 626:..\..\..\lvgl\version_6.1.2\lvgl\src\lv_objx/lv_canvas.c **** 
 627:..\..\..\lvgl\version_6.1.2\lvgl\src\lv_objx/lv_canvas.c ****     lv_disp_t disp;
 628:..\..\..\lvgl\version_6.1.2\lvgl\src\lv_objx/lv_canvas.c ****     memset(&disp, 0, sizeof(lv_disp_t));
 629:..\..\..\lvgl\version_6.1.2\lvgl\src\lv_objx/lv_canvas.c **** 
 630:..\..\..\lvgl\version_6.1.2\lvgl\src\lv_objx/lv_canvas.c ****     lv_disp_buf_t disp_buf;
 631:..\..\..\lvgl\version_6.1.2\lvgl\src\lv_objx/lv_canvas.c ****     lv_disp_buf_init(&disp_buf, (void *)dsc->data, NULL, dsc->header.w * dsc->header.h);
 632:..\..\..\lvgl\version_6.1.2\lvgl\src\lv_objx/lv_canvas.c ****     lv_area_copy(&disp_buf.area, &mask);
 633:..\..\..\lvgl\version_6.1.2\lvgl\src\lv_objx/lv_canvas.c **** 
 634:..\..\..\lvgl\version_6.1.2\lvgl\src\lv_objx/lv_canvas.c ****     lv_disp_drv_init(&disp.driver);
 635:..\..\..\lvgl\version_6.1.2\lvgl\src\lv_objx/lv_canvas.c **** 
 636:..\..\..\lvgl\version_6.1.2\lvgl\src\lv_objx/lv_canvas.c ****     disp.driver.buffer  = &disp_buf;
 637:..\..\..\lvgl\version_6.1.2\lvgl\src\lv_objx/lv_canvas.c ****     disp.driver.hor_res = dsc->header.w;
 638:..\..\..\lvgl\version_6.1.2\lvgl\src\lv_objx/lv_canvas.c ****     disp.driver.ver_res = dsc->header.h;
 639:..\..\..\lvgl\version_6.1.2\lvgl\src\lv_objx/lv_canvas.c **** 
 640:..\..\..\lvgl\version_6.1.2\lvgl\src\lv_objx/lv_canvas.c ****     lv_disp_t * refr_ori = lv_refr_get_disp_refreshing();
 641:..\..\..\lvgl\version_6.1.2\lvgl\src\lv_objx/lv_canvas.c ****     lv_refr_set_disp_refreshing(&disp);
 642:..\..\..\lvgl\version_6.1.2\lvgl\src\lv_objx/lv_canvas.c **** 
 643:..\..\..\lvgl\version_6.1.2\lvgl\src\lv_objx/lv_canvas.c ****     lv_draw_img(&coords, &mask, src, style, LV_OPA_COVER);
 644:..\..\..\lvgl\version_6.1.2\lvgl\src\lv_objx/lv_canvas.c **** 
 645:..\..\..\lvgl\version_6.1.2\lvgl\src\lv_objx/lv_canvas.c ****     lv_refr_set_disp_refreshing(refr_ori);
 646:..\..\..\lvgl\version_6.1.2\lvgl\src\lv_objx/lv_canvas.c **** }
 647:..\..\..\lvgl\version_6.1.2\lvgl\src\lv_objx/lv_canvas.c **** 
 648:..\..\..\lvgl\version_6.1.2\lvgl\src\lv_objx/lv_canvas.c **** /**
 649:..\..\..\lvgl\version_6.1.2\lvgl\src\lv_objx/lv_canvas.c ****  * Draw a line on the canvas
 650:..\..\..\lvgl\version_6.1.2\lvgl\src\lv_objx/lv_canvas.c ****  * @param canvas pointer to a canvas object
 651:..\..\..\lvgl\version_6.1.2\lvgl\src\lv_objx/lv_canvas.c ****  * @param points point of the line
 652:..\..\..\lvgl\version_6.1.2\lvgl\src\lv_objx/lv_canvas.c ****  * @param point_cnt number of points
 653:..\..\..\lvgl\version_6.1.2\lvgl\src\lv_objx/lv_canvas.c ****  * @param style style of the line (`line` properties are used)
 654:..\..\..\lvgl\version_6.1.2\lvgl\src\lv_objx/lv_canvas.c ****  */
 655:..\..\..\lvgl\version_6.1.2\lvgl\src\lv_objx/lv_canvas.c **** void lv_canvas_draw_line(lv_obj_t * canvas, const lv_point_t * points, uint32_t point_cnt, const lv
 656:..\..\..\lvgl\version_6.1.2\lvgl\src\lv_objx/lv_canvas.c **** {
 657:..\..\..\lvgl\version_6.1.2\lvgl\src\lv_objx/lv_canvas.c ****     LV_ASSERT_OBJ(canvas, LV_OBJX_NAME);
ARM GAS  C:\Users\pearlstl\AppData\Local\Temp\ccQFxYtd.s 			page 13


 658:..\..\..\lvgl\version_6.1.2\lvgl\src\lv_objx/lv_canvas.c ****     LV_ASSERT_NULL(style);
 659:..\..\..\lvgl\version_6.1.2\lvgl\src\lv_objx/lv_canvas.c **** 
 660:..\..\..\lvgl\version_6.1.2\lvgl\src\lv_objx/lv_canvas.c ****     lv_img_dsc_t * dsc = lv_canvas_get_img(canvas);
 661:..\..\..\lvgl\version_6.1.2\lvgl\src\lv_objx/lv_canvas.c **** 
 662:..\..\..\lvgl\version_6.1.2\lvgl\src\lv_objx/lv_canvas.c ****     /* Create a dummy display to fool the lv_draw function.
 663:..\..\..\lvgl\version_6.1.2\lvgl\src\lv_objx/lv_canvas.c ****      * It will think it draws to real screen. */
 664:..\..\..\lvgl\version_6.1.2\lvgl\src\lv_objx/lv_canvas.c ****     lv_area_t mask;
 665:..\..\..\lvgl\version_6.1.2\lvgl\src\lv_objx/lv_canvas.c ****     mask.x1 = 0;
 666:..\..\..\lvgl\version_6.1.2\lvgl\src\lv_objx/lv_canvas.c ****     mask.x2 = dsc->header.w - 1;
 667:..\..\..\lvgl\version_6.1.2\lvgl\src\lv_objx/lv_canvas.c ****     mask.y1 = 0;
 668:..\..\..\lvgl\version_6.1.2\lvgl\src\lv_objx/lv_canvas.c ****     mask.y2 = dsc->header.h - 1;
 669:..\..\..\lvgl\version_6.1.2\lvgl\src\lv_objx/lv_canvas.c **** 
 670:..\..\..\lvgl\version_6.1.2\lvgl\src\lv_objx/lv_canvas.c ****     lv_disp_t disp;
 671:..\..\..\lvgl\version_6.1.2\lvgl\src\lv_objx/lv_canvas.c ****     memset(&disp, 0, sizeof(lv_disp_t));
 672:..\..\..\lvgl\version_6.1.2\lvgl\src\lv_objx/lv_canvas.c **** 
 673:..\..\..\lvgl\version_6.1.2\lvgl\src\lv_objx/lv_canvas.c ****     lv_disp_buf_t disp_buf;
 674:..\..\..\lvgl\version_6.1.2\lvgl\src\lv_objx/lv_canvas.c ****     lv_disp_buf_init(&disp_buf, (void *)dsc->data, NULL, dsc->header.w * dsc->header.h);
 675:..\..\..\lvgl\version_6.1.2\lvgl\src\lv_objx/lv_canvas.c ****     lv_area_copy(&disp_buf.area, &mask);
 676:..\..\..\lvgl\version_6.1.2\lvgl\src\lv_objx/lv_canvas.c **** 
 677:..\..\..\lvgl\version_6.1.2\lvgl\src\lv_objx/lv_canvas.c ****     lv_disp_drv_init(&disp.driver);
 678:..\..\..\lvgl\version_6.1.2\lvgl\src\lv_objx/lv_canvas.c **** 
 679:..\..\..\lvgl\version_6.1.2\lvgl\src\lv_objx/lv_canvas.c ****     disp.driver.buffer  = &disp_buf;
 680:..\..\..\lvgl\version_6.1.2\lvgl\src\lv_objx/lv_canvas.c ****     disp.driver.hor_res = dsc->header.w;
 681:..\..\..\lvgl\version_6.1.2\lvgl\src\lv_objx/lv_canvas.c ****     disp.driver.ver_res = dsc->header.h;
 682:..\..\..\lvgl\version_6.1.2\lvgl\src\lv_objx/lv_canvas.c **** 
 683:..\..\..\lvgl\version_6.1.2\lvgl\src\lv_objx/lv_canvas.c **** #if LV_ANTIALIAS
 684:..\..\..\lvgl\version_6.1.2\lvgl\src\lv_objx/lv_canvas.c ****     /*Disable anti-aliasing if drawing with transparent color to chroma keyed canvas*/
 685:..\..\..\lvgl\version_6.1.2\lvgl\src\lv_objx/lv_canvas.c ****     lv_color_t ctransp = LV_COLOR_TRANSP;
 686:..\..\..\lvgl\version_6.1.2\lvgl\src\lv_objx/lv_canvas.c ****     if(dsc->header.cf == LV_IMG_CF_TRUE_COLOR_CHROMA_KEYED &&
 687:..\..\..\lvgl\version_6.1.2\lvgl\src\lv_objx/lv_canvas.c ****         style->body.main_color.full == ctransp.full &&
 688:..\..\..\lvgl\version_6.1.2\lvgl\src\lv_objx/lv_canvas.c ****         style->body.grad_color.full == ctransp.full)
 689:..\..\..\lvgl\version_6.1.2\lvgl\src\lv_objx/lv_canvas.c ****     {
 690:..\..\..\lvgl\version_6.1.2\lvgl\src\lv_objx/lv_canvas.c ****         disp.driver.antialiasing = 0;
 691:..\..\..\lvgl\version_6.1.2\lvgl\src\lv_objx/lv_canvas.c ****     }
 692:..\..\..\lvgl\version_6.1.2\lvgl\src\lv_objx/lv_canvas.c **** #endif
 693:..\..\..\lvgl\version_6.1.2\lvgl\src\lv_objx/lv_canvas.c **** 
 694:..\..\..\lvgl\version_6.1.2\lvgl\src\lv_objx/lv_canvas.c ****     lv_disp_t * refr_ori = lv_refr_get_disp_refreshing();
 695:..\..\..\lvgl\version_6.1.2\lvgl\src\lv_objx/lv_canvas.c ****     lv_refr_set_disp_refreshing(&disp);
 696:..\..\..\lvgl\version_6.1.2\lvgl\src\lv_objx/lv_canvas.c **** 
 697:..\..\..\lvgl\version_6.1.2\lvgl\src\lv_objx/lv_canvas.c ****     lv_style_t circle_style_tmp; /*If rounded...*/
 698:..\..\..\lvgl\version_6.1.2\lvgl\src\lv_objx/lv_canvas.c ****     if(style->line.rounded) {
 699:..\..\..\lvgl\version_6.1.2\lvgl\src\lv_objx/lv_canvas.c ****         lv_style_copy(&circle_style_tmp, style);
 700:..\..\..\lvgl\version_6.1.2\lvgl\src\lv_objx/lv_canvas.c ****         circle_style_tmp.body.radius     = LV_RADIUS_CIRCLE;
 701:..\..\..\lvgl\version_6.1.2\lvgl\src\lv_objx/lv_canvas.c ****         circle_style_tmp.body.main_color = style->line.color;
 702:..\..\..\lvgl\version_6.1.2\lvgl\src\lv_objx/lv_canvas.c ****         circle_style_tmp.body.grad_color = style->line.color;
 703:..\..\..\lvgl\version_6.1.2\lvgl\src\lv_objx/lv_canvas.c ****         circle_style_tmp.body.opa        = style->line.opa;
 704:..\..\..\lvgl\version_6.1.2\lvgl\src\lv_objx/lv_canvas.c ****     }
 705:..\..\..\lvgl\version_6.1.2\lvgl\src\lv_objx/lv_canvas.c ****     lv_area_t circle_area;
 706:..\..\..\lvgl\version_6.1.2\lvgl\src\lv_objx/lv_canvas.c ****     uint32_t i;
 707:..\..\..\lvgl\version_6.1.2\lvgl\src\lv_objx/lv_canvas.c ****     for(i = 0; i < point_cnt - 1; i++) {
 708:..\..\..\lvgl\version_6.1.2\lvgl\src\lv_objx/lv_canvas.c ****         lv_draw_line(&points[i], &points[i + 1], &mask, style, LV_OPA_COVER);
 709:..\..\..\lvgl\version_6.1.2\lvgl\src\lv_objx/lv_canvas.c ****         
 710:..\..\..\lvgl\version_6.1.2\lvgl\src\lv_objx/lv_canvas.c ****         /*Draw circle on the joints if enabled*/
 711:..\..\..\lvgl\version_6.1.2\lvgl\src\lv_objx/lv_canvas.c ****         if(style->line.rounded) {
 712:..\..\..\lvgl\version_6.1.2\lvgl\src\lv_objx/lv_canvas.c ****             circle_area.x1 = points[i].x - ((style->line.width - 1) >> 1) - ((style->line.width - 1
 713:..\..\..\lvgl\version_6.1.2\lvgl\src\lv_objx/lv_canvas.c ****             circle_area.y1 = points[i].y - ((style->line.width - 1) >> 1) - ((style->line.width - 1
 714:..\..\..\lvgl\version_6.1.2\lvgl\src\lv_objx/lv_canvas.c ****             circle_area.x2 = points[i].x + ((style->line.width - 1) >> 1);
ARM GAS  C:\Users\pearlstl\AppData\Local\Temp\ccQFxYtd.s 			page 14


 715:..\..\..\lvgl\version_6.1.2\lvgl\src\lv_objx/lv_canvas.c ****             circle_area.y2 = points[i].y + ((style->line.width - 1) >> 1);
 716:..\..\..\lvgl\version_6.1.2\lvgl\src\lv_objx/lv_canvas.c ****             lv_draw_rect(&circle_area, &mask, &circle_style_tmp, LV_OPA_COVER);
 717:..\..\..\lvgl\version_6.1.2\lvgl\src\lv_objx/lv_canvas.c ****         }
 718:..\..\..\lvgl\version_6.1.2\lvgl\src\lv_objx/lv_canvas.c ****     }
 719:..\..\..\lvgl\version_6.1.2\lvgl\src\lv_objx/lv_canvas.c ****     /*Draw circle on the last point too if enabled*/
 720:..\..\..\lvgl\version_6.1.2\lvgl\src\lv_objx/lv_canvas.c ****     if(style->line.rounded) {
 721:..\..\..\lvgl\version_6.1.2\lvgl\src\lv_objx/lv_canvas.c ****         circle_area.x1 = points[i].x - ((style->line.width - 1) >> 1) - ((style->line.width - 1) & 
 722:..\..\..\lvgl\version_6.1.2\lvgl\src\lv_objx/lv_canvas.c ****         circle_area.y1 = points[i].y - ((style->line.width - 1) >> 1) - ((style->line.width - 1) & 
 723:..\..\..\lvgl\version_6.1.2\lvgl\src\lv_objx/lv_canvas.c ****         circle_area.x2 = points[i].x + ((style->line.width - 1) >> 1);
 724:..\..\..\lvgl\version_6.1.2\lvgl\src\lv_objx/lv_canvas.c ****         circle_area.y2 = points[i].y + ((style->line.width - 1) >> 1);
 725:..\..\..\lvgl\version_6.1.2\lvgl\src\lv_objx/lv_canvas.c ****         lv_draw_rect(&circle_area, &mask, &circle_style_tmp, LV_OPA_COVER);
 726:..\..\..\lvgl\version_6.1.2\lvgl\src\lv_objx/lv_canvas.c ****     }
 727:..\..\..\lvgl\version_6.1.2\lvgl\src\lv_objx/lv_canvas.c ****     
 728:..\..\..\lvgl\version_6.1.2\lvgl\src\lv_objx/lv_canvas.c ****     lv_refr_set_disp_refreshing(refr_ori);
 729:..\..\..\lvgl\version_6.1.2\lvgl\src\lv_objx/lv_canvas.c **** }
 730:..\..\..\lvgl\version_6.1.2\lvgl\src\lv_objx/lv_canvas.c **** 
 731:..\..\..\lvgl\version_6.1.2\lvgl\src\lv_objx/lv_canvas.c **** /**
 732:..\..\..\lvgl\version_6.1.2\lvgl\src\lv_objx/lv_canvas.c ****  * Draw a polygon on the canvas
 733:..\..\..\lvgl\version_6.1.2\lvgl\src\lv_objx/lv_canvas.c ****  * @param canvas pointer to a canvas object
 734:..\..\..\lvgl\version_6.1.2\lvgl\src\lv_objx/lv_canvas.c ****  * @param points point of the polygon
 735:..\..\..\lvgl\version_6.1.2\lvgl\src\lv_objx/lv_canvas.c ****  * @param point_cnt number of points
 736:..\..\..\lvgl\version_6.1.2\lvgl\src\lv_objx/lv_canvas.c ****  * @param style style of the polygon (`body.main_color` and `body.opa` is used)
 737:..\..\..\lvgl\version_6.1.2\lvgl\src\lv_objx/lv_canvas.c ****  */
 738:..\..\..\lvgl\version_6.1.2\lvgl\src\lv_objx/lv_canvas.c **** void lv_canvas_draw_polygon(lv_obj_t * canvas, const lv_point_t * points, uint32_t point_cnt, const
 739:..\..\..\lvgl\version_6.1.2\lvgl\src\lv_objx/lv_canvas.c **** {
 740:..\..\..\lvgl\version_6.1.2\lvgl\src\lv_objx/lv_canvas.c ****     LV_ASSERT_OBJ(canvas, LV_OBJX_NAME);
 741:..\..\..\lvgl\version_6.1.2\lvgl\src\lv_objx/lv_canvas.c ****     LV_ASSERT_NULL(style);
 742:..\..\..\lvgl\version_6.1.2\lvgl\src\lv_objx/lv_canvas.c **** 
 743:..\..\..\lvgl\version_6.1.2\lvgl\src\lv_objx/lv_canvas.c ****     lv_img_dsc_t * dsc = lv_canvas_get_img(canvas);
 744:..\..\..\lvgl\version_6.1.2\lvgl\src\lv_objx/lv_canvas.c **** 
 745:..\..\..\lvgl\version_6.1.2\lvgl\src\lv_objx/lv_canvas.c ****     /* Create a dummy display to fool the lv_draw function.
 746:..\..\..\lvgl\version_6.1.2\lvgl\src\lv_objx/lv_canvas.c ****      * It will think it draws to real screen. */
 747:..\..\..\lvgl\version_6.1.2\lvgl\src\lv_objx/lv_canvas.c ****     lv_area_t mask;
 748:..\..\..\lvgl\version_6.1.2\lvgl\src\lv_objx/lv_canvas.c ****     mask.x1 = 0;
 749:..\..\..\lvgl\version_6.1.2\lvgl\src\lv_objx/lv_canvas.c ****     mask.x2 = dsc->header.w - 1;
 750:..\..\..\lvgl\version_6.1.2\lvgl\src\lv_objx/lv_canvas.c ****     mask.y1 = 0;
 751:..\..\..\lvgl\version_6.1.2\lvgl\src\lv_objx/lv_canvas.c ****     mask.y2 = dsc->header.h - 1;
 752:..\..\..\lvgl\version_6.1.2\lvgl\src\lv_objx/lv_canvas.c **** 
 753:..\..\..\lvgl\version_6.1.2\lvgl\src\lv_objx/lv_canvas.c ****     lv_disp_t disp;
 754:..\..\..\lvgl\version_6.1.2\lvgl\src\lv_objx/lv_canvas.c ****     memset(&disp, 0, sizeof(lv_disp_t));
 755:..\..\..\lvgl\version_6.1.2\lvgl\src\lv_objx/lv_canvas.c **** 
 756:..\..\..\lvgl\version_6.1.2\lvgl\src\lv_objx/lv_canvas.c ****     lv_disp_buf_t disp_buf;
 757:..\..\..\lvgl\version_6.1.2\lvgl\src\lv_objx/lv_canvas.c ****     lv_disp_buf_init(&disp_buf, (void *)dsc->data, NULL, dsc->header.w * dsc->header.h);
 758:..\..\..\lvgl\version_6.1.2\lvgl\src\lv_objx/lv_canvas.c ****     lv_area_copy(&disp_buf.area, &mask);
 759:..\..\..\lvgl\version_6.1.2\lvgl\src\lv_objx/lv_canvas.c **** 
 760:..\..\..\lvgl\version_6.1.2\lvgl\src\lv_objx/lv_canvas.c ****     lv_disp_drv_init(&disp.driver);
 761:..\..\..\lvgl\version_6.1.2\lvgl\src\lv_objx/lv_canvas.c **** 
 762:..\..\..\lvgl\version_6.1.2\lvgl\src\lv_objx/lv_canvas.c ****     disp.driver.buffer  = &disp_buf;
 763:..\..\..\lvgl\version_6.1.2\lvgl\src\lv_objx/lv_canvas.c ****     disp.driver.hor_res = dsc->header.w;
 764:..\..\..\lvgl\version_6.1.2\lvgl\src\lv_objx/lv_canvas.c ****     disp.driver.ver_res = dsc->header.h;
 765:..\..\..\lvgl\version_6.1.2\lvgl\src\lv_objx/lv_canvas.c **** 
 766:..\..\..\lvgl\version_6.1.2\lvgl\src\lv_objx/lv_canvas.c **** #if LV_ANTIALIAS
 767:..\..\..\lvgl\version_6.1.2\lvgl\src\lv_objx/lv_canvas.c ****     /*Disable anti-aliasing if drawing with transparent color to chroma keyed canvas*/
 768:..\..\..\lvgl\version_6.1.2\lvgl\src\lv_objx/lv_canvas.c ****     lv_color_t ctransp = LV_COLOR_TRANSP;
 769:..\..\..\lvgl\version_6.1.2\lvgl\src\lv_objx/lv_canvas.c ****     if(dsc->header.cf == LV_IMG_CF_TRUE_COLOR_CHROMA_KEYED &&
 770:..\..\..\lvgl\version_6.1.2\lvgl\src\lv_objx/lv_canvas.c ****         style->body.main_color.full == ctransp.full &&
 771:..\..\..\lvgl\version_6.1.2\lvgl\src\lv_objx/lv_canvas.c ****         style->body.grad_color.full == ctransp.full)
ARM GAS  C:\Users\pearlstl\AppData\Local\Temp\ccQFxYtd.s 			page 15


 772:..\..\..\lvgl\version_6.1.2\lvgl\src\lv_objx/lv_canvas.c ****     {
 773:..\..\..\lvgl\version_6.1.2\lvgl\src\lv_objx/lv_canvas.c ****         disp.driver.antialiasing = 0;
 774:..\..\..\lvgl\version_6.1.2\lvgl\src\lv_objx/lv_canvas.c ****     }
 775:..\..\..\lvgl\version_6.1.2\lvgl\src\lv_objx/lv_canvas.c **** #endif
 776:..\..\..\lvgl\version_6.1.2\lvgl\src\lv_objx/lv_canvas.c **** 
 777:..\..\..\lvgl\version_6.1.2\lvgl\src\lv_objx/lv_canvas.c ****     lv_disp_t * refr_ori = lv_refr_get_disp_refreshing();
 778:..\..\..\lvgl\version_6.1.2\lvgl\src\lv_objx/lv_canvas.c ****     lv_refr_set_disp_refreshing(&disp);
 779:..\..\..\lvgl\version_6.1.2\lvgl\src\lv_objx/lv_canvas.c **** 
 780:..\..\..\lvgl\version_6.1.2\lvgl\src\lv_objx/lv_canvas.c ****     lv_draw_polygon(points, point_cnt, &mask, style, LV_OPA_COVER);
 781:..\..\..\lvgl\version_6.1.2\lvgl\src\lv_objx/lv_canvas.c **** 
 782:..\..\..\lvgl\version_6.1.2\lvgl\src\lv_objx/lv_canvas.c ****     lv_refr_set_disp_refreshing(refr_ori);
 783:..\..\..\lvgl\version_6.1.2\lvgl\src\lv_objx/lv_canvas.c **** }
 784:..\..\..\lvgl\version_6.1.2\lvgl\src\lv_objx/lv_canvas.c **** 
 785:..\..\..\lvgl\version_6.1.2\lvgl\src\lv_objx/lv_canvas.c **** /**
 786:..\..\..\lvgl\version_6.1.2\lvgl\src\lv_objx/lv_canvas.c ****  * Draw an arc on the canvas
 787:..\..\..\lvgl\version_6.1.2\lvgl\src\lv_objx/lv_canvas.c ****  * @param canvas pointer to a canvas object
 788:..\..\..\lvgl\version_6.1.2\lvgl\src\lv_objx/lv_canvas.c ****  * @param x origo x  of the arc
 789:..\..\..\lvgl\version_6.1.2\lvgl\src\lv_objx/lv_canvas.c ****  * @param y origo y of the arc
 790:..\..\..\lvgl\version_6.1.2\lvgl\src\lv_objx/lv_canvas.c ****  * @param r radius of the arc
 791:..\..\..\lvgl\version_6.1.2\lvgl\src\lv_objx/lv_canvas.c ****  * @param start_angle start angle in degrees
 792:..\..\..\lvgl\version_6.1.2\lvgl\src\lv_objx/lv_canvas.c ****  * @param end_angle end angle in degrees
 793:..\..\..\lvgl\version_6.1.2\lvgl\src\lv_objx/lv_canvas.c ****  * @param style style of the polygon (`body.main_color` and `body.opa` is used)
 794:..\..\..\lvgl\version_6.1.2\lvgl\src\lv_objx/lv_canvas.c ****  */
 795:..\..\..\lvgl\version_6.1.2\lvgl\src\lv_objx/lv_canvas.c **** void lv_canvas_draw_arc(lv_obj_t * canvas, lv_coord_t x, lv_coord_t y, lv_coord_t r, int32_t start_
 796:..\..\..\lvgl\version_6.1.2\lvgl\src\lv_objx/lv_canvas.c ****                         int32_t end_angle, const lv_style_t * style)
 797:..\..\..\lvgl\version_6.1.2\lvgl\src\lv_objx/lv_canvas.c **** {
 798:..\..\..\lvgl\version_6.1.2\lvgl\src\lv_objx/lv_canvas.c ****     LV_ASSERT_OBJ(canvas, LV_OBJX_NAME);
 799:..\..\..\lvgl\version_6.1.2\lvgl\src\lv_objx/lv_canvas.c ****     LV_ASSERT_NULL(style);
 800:..\..\..\lvgl\version_6.1.2\lvgl\src\lv_objx/lv_canvas.c **** 
 801:..\..\..\lvgl\version_6.1.2\lvgl\src\lv_objx/lv_canvas.c ****     lv_img_dsc_t * dsc = lv_canvas_get_img(canvas);
 802:..\..\..\lvgl\version_6.1.2\lvgl\src\lv_objx/lv_canvas.c **** 
 803:..\..\..\lvgl\version_6.1.2\lvgl\src\lv_objx/lv_canvas.c ****     /* Create a dummy display to fool the lv_draw function.
 804:..\..\..\lvgl\version_6.1.2\lvgl\src\lv_objx/lv_canvas.c ****      * It will think it draws to real screen. */
 805:..\..\..\lvgl\version_6.1.2\lvgl\src\lv_objx/lv_canvas.c ****     lv_area_t mask;
 806:..\..\..\lvgl\version_6.1.2\lvgl\src\lv_objx/lv_canvas.c ****     mask.x1 = 0;
 807:..\..\..\lvgl\version_6.1.2\lvgl\src\lv_objx/lv_canvas.c ****     mask.x2 = dsc->header.w - 1;
 808:..\..\..\lvgl\version_6.1.2\lvgl\src\lv_objx/lv_canvas.c ****     mask.y1 = 0;
 809:..\..\..\lvgl\version_6.1.2\lvgl\src\lv_objx/lv_canvas.c ****     mask.y2 = dsc->header.h - 1;
 810:..\..\..\lvgl\version_6.1.2\lvgl\src\lv_objx/lv_canvas.c **** 
 811:..\..\..\lvgl\version_6.1.2\lvgl\src\lv_objx/lv_canvas.c ****     lv_disp_t disp;
 812:..\..\..\lvgl\version_6.1.2\lvgl\src\lv_objx/lv_canvas.c ****     memset(&disp, 0, sizeof(lv_disp_t));
 813:..\..\..\lvgl\version_6.1.2\lvgl\src\lv_objx/lv_canvas.c **** 
 814:..\..\..\lvgl\version_6.1.2\lvgl\src\lv_objx/lv_canvas.c ****     lv_disp_buf_t disp_buf;
 815:..\..\..\lvgl\version_6.1.2\lvgl\src\lv_objx/lv_canvas.c ****     lv_disp_buf_init(&disp_buf, (void *)dsc->data, NULL, dsc->header.w * dsc->header.h);
 816:..\..\..\lvgl\version_6.1.2\lvgl\src\lv_objx/lv_canvas.c ****     lv_area_copy(&disp_buf.area, &mask);
 817:..\..\..\lvgl\version_6.1.2\lvgl\src\lv_objx/lv_canvas.c **** 
 818:..\..\..\lvgl\version_6.1.2\lvgl\src\lv_objx/lv_canvas.c ****     lv_disp_drv_init(&disp.driver);
 819:..\..\..\lvgl\version_6.1.2\lvgl\src\lv_objx/lv_canvas.c **** 
 820:..\..\..\lvgl\version_6.1.2\lvgl\src\lv_objx/lv_canvas.c ****     disp.driver.buffer  = &disp_buf;
 821:..\..\..\lvgl\version_6.1.2\lvgl\src\lv_objx/lv_canvas.c ****     disp.driver.hor_res = dsc->header.w;
 822:..\..\..\lvgl\version_6.1.2\lvgl\src\lv_objx/lv_canvas.c ****     disp.driver.ver_res = dsc->header.h;
 823:..\..\..\lvgl\version_6.1.2\lvgl\src\lv_objx/lv_canvas.c **** 
 824:..\..\..\lvgl\version_6.1.2\lvgl\src\lv_objx/lv_canvas.c **** #if LV_ANTIALIAS
 825:..\..\..\lvgl\version_6.1.2\lvgl\src\lv_objx/lv_canvas.c ****     /*Disable anti-aliasing if drawing with transparent color to chroma keyed canvas*/
 826:..\..\..\lvgl\version_6.1.2\lvgl\src\lv_objx/lv_canvas.c ****     lv_color_t ctransp = LV_COLOR_TRANSP;
 827:..\..\..\lvgl\version_6.1.2\lvgl\src\lv_objx/lv_canvas.c ****     if(dsc->header.cf == LV_IMG_CF_TRUE_COLOR_CHROMA_KEYED &&
 828:..\..\..\lvgl\version_6.1.2\lvgl\src\lv_objx/lv_canvas.c ****         style->body.main_color.full == ctransp.full &&
ARM GAS  C:\Users\pearlstl\AppData\Local\Temp\ccQFxYtd.s 			page 16


 829:..\..\..\lvgl\version_6.1.2\lvgl\src\lv_objx/lv_canvas.c ****         style->body.grad_color.full == ctransp.full)
 830:..\..\..\lvgl\version_6.1.2\lvgl\src\lv_objx/lv_canvas.c ****     {
 831:..\..\..\lvgl\version_6.1.2\lvgl\src\lv_objx/lv_canvas.c ****         disp.driver.antialiasing = 0;
 832:..\..\..\lvgl\version_6.1.2\lvgl\src\lv_objx/lv_canvas.c ****     }
 833:..\..\..\lvgl\version_6.1.2\lvgl\src\lv_objx/lv_canvas.c **** #endif
 834:..\..\..\lvgl\version_6.1.2\lvgl\src\lv_objx/lv_canvas.c **** 
 835:..\..\..\lvgl\version_6.1.2\lvgl\src\lv_objx/lv_canvas.c ****     lv_disp_t * refr_ori = lv_refr_get_disp_refreshing();
 836:..\..\..\lvgl\version_6.1.2\lvgl\src\lv_objx/lv_canvas.c ****     lv_refr_set_disp_refreshing(&disp);
 837:..\..\..\lvgl\version_6.1.2\lvgl\src\lv_objx/lv_canvas.c **** 
 838:..\..\..\lvgl\version_6.1.2\lvgl\src\lv_objx/lv_canvas.c ****     lv_draw_arc(x, y, r, &mask, start_angle, end_angle, style, LV_OPA_COVER);
 839:..\..\..\lvgl\version_6.1.2\lvgl\src\lv_objx/lv_canvas.c **** 
 840:..\..\..\lvgl\version_6.1.2\lvgl\src\lv_objx/lv_canvas.c ****     lv_refr_set_disp_refreshing(refr_ori);
 841:..\..\..\lvgl\version_6.1.2\lvgl\src\lv_objx/lv_canvas.c **** }
 842:..\..\..\lvgl\version_6.1.2\lvgl\src\lv_objx/lv_canvas.c **** 
 843:..\..\..\lvgl\version_6.1.2\lvgl\src\lv_objx/lv_canvas.c **** /**********************
 844:..\..\..\lvgl\version_6.1.2\lvgl\src\lv_objx/lv_canvas.c ****  *   STATIC FUNCTIONS
 845:..\..\..\lvgl\version_6.1.2\lvgl\src\lv_objx/lv_canvas.c ****  **********************/
 846:..\..\..\lvgl\version_6.1.2\lvgl\src\lv_objx/lv_canvas.c **** 
 847:..\..\..\lvgl\version_6.1.2\lvgl\src\lv_objx/lv_canvas.c **** /**
 848:..\..\..\lvgl\version_6.1.2\lvgl\src\lv_objx/lv_canvas.c ****  * Signal function of the canvas
 849:..\..\..\lvgl\version_6.1.2\lvgl\src\lv_objx/lv_canvas.c ****  * @param canvas pointer to a canvas object
 850:..\..\..\lvgl\version_6.1.2\lvgl\src\lv_objx/lv_canvas.c ****  * @param sign a signal type from lv_signal_t enum
 851:..\..\..\lvgl\version_6.1.2\lvgl\src\lv_objx/lv_canvas.c ****  * @param param pointer to a signal specific variable
 852:..\..\..\lvgl\version_6.1.2\lvgl\src\lv_objx/lv_canvas.c ****  * @return LV_RES_OK: the object is not deleted in the function; LV_RES_INV: the object is deleted
 853:..\..\..\lvgl\version_6.1.2\lvgl\src\lv_objx/lv_canvas.c ****  */
 854:..\..\..\lvgl\version_6.1.2\lvgl\src\lv_objx/lv_canvas.c **** static lv_res_t lv_canvas_signal(lv_obj_t * canvas, lv_signal_t sign, void * param)
 855:..\..\..\lvgl\version_6.1.2\lvgl\src\lv_objx/lv_canvas.c **** {
  28              		.loc 1 855 0
  29              		.cfi_startproc
  30              		@ args = 0, pretend = 0, frame = 0
  31              		@ frame_needed = 0, uses_anonymous_args = 0
  32              	.LVL0:
  33 0000 38B5     		push	{r3, r4, r5, lr}
  34              		.cfi_def_cfa_offset 16
  35              		.cfi_offset 3, -16
  36              		.cfi_offset 4, -12
  37              		.cfi_offset 5, -8
  38              		.cfi_offset 14, -4
 856:..\..\..\lvgl\version_6.1.2\lvgl\src\lv_objx/lv_canvas.c ****     lv_res_t res;
 857:..\..\..\lvgl\version_6.1.2\lvgl\src\lv_objx/lv_canvas.c **** 
 858:..\..\..\lvgl\version_6.1.2\lvgl\src\lv_objx/lv_canvas.c ****     /* Include the ancient signal function */
 859:..\..\..\lvgl\version_6.1.2\lvgl\src\lv_objx/lv_canvas.c ****     res = ancestor_signal(canvas, sign, param);
  39              		.loc 1 859 0
  40 0002 084B     		ldr	r3, .L8
  41 0004 1B68     		ldr	r3, [r3]
 855:..\..\..\lvgl\version_6.1.2\lvgl\src\lv_objx/lv_canvas.c ****     lv_res_t res;
  42              		.loc 1 855 0
  43 0006 0C46     		mov	r4, r1
  44 0008 1546     		mov	r5, r2
  45              		.loc 1 859 0
  46 000a 9847     		blx	r3
  47              	.LVL1:
 860:..\..\..\lvgl\version_6.1.2\lvgl\src\lv_objx/lv_canvas.c ****     if(res != LV_RES_OK) return res;
  48              		.loc 1 860 0
  49 000c 0128     		cmp	r0, #1
  50 000e 00D0     		beq	.L7
  51              	.L2:
ARM GAS  C:\Users\pearlstl\AppData\Local\Temp\ccQFxYtd.s 			page 17


 861:..\..\..\lvgl\version_6.1.2\lvgl\src\lv_objx/lv_canvas.c ****     if(sign == LV_SIGNAL_GET_TYPE) return lv_obj_handle_get_type_signal(param, LV_OBJX_NAME);
 862:..\..\..\lvgl\version_6.1.2\lvgl\src\lv_objx/lv_canvas.c **** 
 863:..\..\..\lvgl\version_6.1.2\lvgl\src\lv_objx/lv_canvas.c ****     if(sign == LV_SIGNAL_CLEANUP) {
 864:..\..\..\lvgl\version_6.1.2\lvgl\src\lv_objx/lv_canvas.c ****         /*Nothing to cleanup. (No dynamically allocated memory in 'ext')*/
 865:..\..\..\lvgl\version_6.1.2\lvgl\src\lv_objx/lv_canvas.c ****     }
 866:..\..\..\lvgl\version_6.1.2\lvgl\src\lv_objx/lv_canvas.c **** 
 867:..\..\..\lvgl\version_6.1.2\lvgl\src\lv_objx/lv_canvas.c ****     return res;
 868:..\..\..\lvgl\version_6.1.2\lvgl\src\lv_objx/lv_canvas.c **** }
  52              		.loc 1 868 0
  53 0010 38BD     		pop	{r3, r4, r5, pc}
  54              	.LVL2:
  55              	.L7:
 861:..\..\..\lvgl\version_6.1.2\lvgl\src\lv_objx/lv_canvas.c ****     if(sign == LV_SIGNAL_GET_TYPE) return lv_obj_handle_get_type_signal(param, LV_OBJX_NAME);
  56              		.loc 1 861 0
  57 0012 072C     		cmp	r4, #7
  58 0014 FCD1     		bne	.L2
  59              	.LVL3:
  60              	.LBB59:
  61              	.LBB60:
  62 0016 2846     		mov	r0, r5
  63              	.LVL4:
  64 0018 0349     		ldr	r1, .L8+4
  65              	.LBE60:
  66              	.LBE59:
  67              		.loc 1 868 0
  68 001a BDE83840 		pop	{r3, r4, r5, lr}
  69              		.cfi_restore 14
  70              		.cfi_restore 5
  71              		.cfi_restore 4
  72              		.cfi_restore 3
  73              		.cfi_def_cfa_offset 0
  74              	.LVL5:
  75              	.LBB62:
  76              	.LBB61:
 861:..\..\..\lvgl\version_6.1.2\lvgl\src\lv_objx/lv_canvas.c ****     if(sign == LV_SIGNAL_GET_TYPE) return lv_obj_handle_get_type_signal(param, LV_OBJX_NAME);
  77              		.loc 1 861 0
  78 001e FFF7FEBF 		b	lv_obj_handle_get_type_signal
  79              	.LVL6:
  80              	.L9:
  81 0022 00BF     		.align	2
  82              	.L8:
  83 0024 00000000 		.word	.LANCHOR0
  84 0028 00000000 		.word	.LC0
  85              	.LBE61:
  86              	.LBE62:
  87              		.cfi_endproc
  88              	.LFE52:
  89              		.size	lv_canvas_signal, .-lv_canvas_signal
  90              		.section	.text.lv_canvas_create,"ax",%progbits
  91              		.align	2
  92              		.global	lv_canvas_create
  93              		.thumb
  94              		.thumb_func
  95              		.type	lv_canvas_create, %function
  96              	lv_canvas_create:
  97              	.LFB35:
  53:..\..\..\lvgl\version_6.1.2\lvgl\src\lv_objx/lv_canvas.c ****     LV_LOG_TRACE("canvas create started");
ARM GAS  C:\Users\pearlstl\AppData\Local\Temp\ccQFxYtd.s 			page 18


  98              		.loc 1 53 0
  99              		.cfi_startproc
 100              		@ args = 0, pretend = 0, frame = 0
 101              		@ frame_needed = 0, uses_anonymous_args = 0
 102              	.LVL7:
 103 0000 F8B5     		push	{r3, r4, r5, r6, r7, lr}
 104              		.cfi_def_cfa_offset 24
 105              		.cfi_offset 3, -24
 106              		.cfi_offset 4, -20
 107              		.cfi_offset 5, -16
 108              		.cfi_offset 6, -12
 109              		.cfi_offset 7, -8
 110              		.cfi_offset 14, -4
  53:..\..\..\lvgl\version_6.1.2\lvgl\src\lv_objx/lv_canvas.c ****     LV_LOG_TRACE("canvas create started");
 111              		.loc 1 53 0
 112 0002 0F46     		mov	r7, r1
  57:..\..\..\lvgl\version_6.1.2\lvgl\src\lv_objx/lv_canvas.c ****     LV_ASSERT_MEM(new_canvas);
 113              		.loc 1 57 0
 114 0004 FFF7FEFF 		bl	lv_img_create
 115              	.LVL8:
  59:..\..\..\lvgl\version_6.1.2\lvgl\src\lv_objx/lv_canvas.c **** 
 116              		.loc 1 59 0
 117 0008 40B3     		cbz	r0, .L13
  62:..\..\..\lvgl\version_6.1.2\lvgl\src\lv_objx/lv_canvas.c ****     LV_ASSERT_MEM(ext);
 118              		.loc 1 62 0
 119 000a 1C21     		movs	r1, #28
 120 000c 0546     		mov	r5, r0
 121 000e FFF7FEFF 		bl	lv_obj_allocate_ext_attr
 122              	.LVL9:
  64:..\..\..\lvgl\version_6.1.2\lvgl\src\lv_objx/lv_canvas.c ****     if(ancestor_signal == NULL) ancestor_signal = lv_obj_get_signal_cb(new_canvas);
 123              		.loc 1 64 0
 124 0012 0446     		mov	r4, r0
 125 0014 10B3     		cbz	r0, .L13
  65:..\..\..\lvgl\version_6.1.2\lvgl\src\lv_objx/lv_canvas.c ****     if(ancestor_design == NULL) ancestor_design = lv_obj_get_design_cb(new_canvas);
 126              		.loc 1 65 0
 127 0016 174E     		ldr	r6, .L23
 128 0018 3368     		ldr	r3, [r6]
 129 001a 0BB3     		cbz	r3, .L21
 130              	.LVL10:
 131              	.L14:
  66:..\..\..\lvgl\version_6.1.2\lvgl\src\lv_objx/lv_canvas.c **** 
 132              		.loc 1 66 0
 133 001c 7368     		ldr	r3, [r6, #4]
 134 001e 154E     		ldr	r6, .L23
 135 0020 1BB3     		cbz	r3, .L22
 136              	.L15:
  71:..\..\..\lvgl\version_6.1.2\lvgl\src\lv_objx/lv_canvas.c ****     ext->dsc.header.w           = 0;
 137              		.loc 1 71 0
 138 0022 638A     		ldrh	r3, [r4, #18]
  70:..\..\..\lvgl\version_6.1.2\lvgl\src\lv_objx/lv_canvas.c ****     ext->dsc.header.h           = 0;
 139              		.loc 1 70 0
 140 0024 0422     		movs	r2, #4
  71:..\..\..\lvgl\version_6.1.2\lvgl\src\lv_objx/lv_canvas.c ****     ext->dsc.header.w           = 0;
 141              		.loc 1 71 0
 142 0026 6FF34F13 		bfc	r3, #5, #11
 143 002a 6382     		strh	r3, [r4, #18]	@ movhi
  70:..\..\..\lvgl\version_6.1.2\lvgl\src\lv_objx/lv_canvas.c ****     ext->dsc.header.h           = 0;
ARM GAS  C:\Users\pearlstl\AppData\Local\Temp\ccQFxYtd.s 			page 19


 144              		.loc 1 70 0
 145 002c 2274     		strb	r2, [r4, #16]
  72:..\..\..\lvgl\version_6.1.2\lvgl\src\lv_objx/lv_canvas.c ****     ext->dsc.data_size          = 0;
 146              		.loc 1 72 0
 147 002e 2269     		ldr	r2, [r4, #16]
  73:..\..\..\lvgl\version_6.1.2\lvgl\src\lv_objx/lv_canvas.c ****     ext->dsc.data               = NULL;
 148              		.loc 1 73 0
 149 0030 0023     		movs	r3, #0
  72:..\..\..\lvgl\version_6.1.2\lvgl\src\lv_objx/lv_canvas.c ****     ext->dsc.data_size          = 0;
 150              		.loc 1 72 0
 151 0032 6FF39422 		bfc	r2, #10, #11
 152 0036 2261     		str	r2, [r4, #16]
  73:..\..\..\lvgl\version_6.1.2\lvgl\src\lv_objx/lv_canvas.c ****     ext->dsc.data               = NULL;
 153              		.loc 1 73 0
 154 0038 6361     		str	r3, [r4, #20]
  74:..\..\..\lvgl\version_6.1.2\lvgl\src\lv_objx/lv_canvas.c **** 
 155              		.loc 1 74 0
 156 003a A361     		str	r3, [r4, #24]
  76:..\..\..\lvgl\version_6.1.2\lvgl\src\lv_objx/lv_canvas.c **** 
 157              		.loc 1 76 0
 158 003c 04F11001 		add	r1, r4, #16
 159 0040 2846     		mov	r0, r5
 160 0042 FFF7FEFF 		bl	lv_img_set_src
 161              	.LVL11:
  79:..\..\..\lvgl\version_6.1.2\lvgl\src\lv_objx/lv_canvas.c **** 
 162              		.loc 1 79 0
 163 0046 2846     		mov	r0, r5
 164 0048 0B49     		ldr	r1, .L23+4
 165 004a FFF7FEFF 		bl	lv_obj_set_signal_cb
 166              	.LVL12:
 167 004e 2846     		mov	r0, r5
  82:..\..\..\lvgl\version_6.1.2\lvgl\src\lv_objx/lv_canvas.c **** 
 168              		.loc 1 82 0
 169 0050 1FB1     		cbz	r7, .L16
 170              	.LVL13:
  88:..\..\..\lvgl\version_6.1.2\lvgl\src\lv_objx/lv_canvas.c ****     }
 171              		.loc 1 88 0
 172 0052 FFF7FEFF 		bl	lv_obj_refresh_style
 173              	.LVL14:
 174 0056 2846     		mov	r0, r5
 175 0058 F8BD     		pop	{r3, r4, r5, r6, r7, pc}
 176              	.LVL15:
 177              	.L16:
  94:..\..\..\lvgl\version_6.1.2\lvgl\src\lv_objx/lv_canvas.c **** 
 178              		.loc 1 94 0
 179 005a F8BD     		pop	{r3, r4, r5, r6, r7, pc}
 180              	.LVL16:
 181              	.L13:
  59:..\..\..\lvgl\version_6.1.2\lvgl\src\lv_objx/lv_canvas.c **** 
 182              		.loc 1 59 0
 183 005c 0020     		movs	r0, #0
 184 005e F8BD     		pop	{r3, r4, r5, r6, r7, pc}
 185              	.LVL17:
 186              	.L21:
  65:..\..\..\lvgl\version_6.1.2\lvgl\src\lv_objx/lv_canvas.c ****     if(ancestor_design == NULL) ancestor_design = lv_obj_get_design_cb(new_canvas);
 187              		.loc 1 65 0 discriminator 1
 188 0060 2846     		mov	r0, r5
ARM GAS  C:\Users\pearlstl\AppData\Local\Temp\ccQFxYtd.s 			page 20


 189              	.LVL18:
 190 0062 FFF7FEFF 		bl	lv_obj_get_signal_cb
 191              	.LVL19:
 192 0066 3060     		str	r0, [r6]
 193 0068 D8E7     		b	.L14
 194              	.L22:
  66:..\..\..\lvgl\version_6.1.2\lvgl\src\lv_objx/lv_canvas.c **** 
 195              		.loc 1 66 0 discriminator 1
 196 006a 2846     		mov	r0, r5
 197 006c FFF7FEFF 		bl	lv_obj_get_design_cb
 198              	.LVL20:
 199 0070 7060     		str	r0, [r6, #4]
 200 0072 D6E7     		b	.L15
 201              	.L24:
 202              		.align	2
 203              	.L23:
 204 0074 00000000 		.word	.LANCHOR0
 205 0078 00000000 		.word	lv_canvas_signal
 206              		.cfi_endproc
 207              	.LFE35:
 208              		.size	lv_canvas_create, .-lv_canvas_create
 209              		.section	.text.lv_canvas_set_buffer,"ax",%progbits
 210              		.align	2
 211              		.global	lv_canvas_set_buffer
 212              		.thumb
 213              		.thumb_func
 214              		.type	lv_canvas_set_buffer, %function
 215              	lv_canvas_set_buffer:
 216              	.LFB36:
 115:..\..\..\lvgl\version_6.1.2\lvgl\src\lv_objx/lv_canvas.c ****     LV_ASSERT_OBJ(canvas, LV_OBJX_NAME);
 217              		.loc 1 115 0
 218              		.cfi_startproc
 219              		@ args = 4, pretend = 0, frame = 0
 220              		@ frame_needed = 0, uses_anonymous_args = 0
 221              	.LVL21:
 222 0000 2DE9F843 		push	{r3, r4, r5, r6, r7, r8, r9, lr}
 223              		.cfi_def_cfa_offset 32
 224              		.cfi_offset 3, -32
 225              		.cfi_offset 4, -28
 226              		.cfi_offset 5, -24
 227              		.cfi_offset 6, -20
 228              		.cfi_offset 7, -16
 229              		.cfi_offset 8, -12
 230              		.cfi_offset 9, -8
 231              		.cfi_offset 14, -4
 115:..\..\..\lvgl\version_6.1.2\lvgl\src\lv_objx/lv_canvas.c ****     LV_ASSERT_OBJ(canvas, LV_OBJX_NAME);
 232              		.loc 1 115 0
 233 0004 8946     		mov	r9, r1
 234 0006 1646     		mov	r6, r2
 235 0008 1D46     		mov	r5, r3
 236 000a 9DF82080 		ldrb	r8, [sp, #32]	@ zero_extendqisi2
 237 000e 0746     		mov	r7, r0
 119:..\..\..\lvgl\version_6.1.2\lvgl\src\lv_objx/lv_canvas.c **** 
 238              		.loc 1 119 0
 239 0010 FFF7FEFF 		bl	lv_obj_get_ext_attr
 240              	.LVL22:
 241 0014 0446     		mov	r4, r0
ARM GAS  C:\Users\pearlstl\AppData\Local\Temp\ccQFxYtd.s 			page 21


 242              	.LVL23:
 125:..\..\..\lvgl\version_6.1.2\lvgl\src\lv_objx/lv_canvas.c **** 
 243              		.loc 1 125 0
 244 0016 4046     		mov	r0, r8
 245              	.LVL24:
 121:..\..\..\lvgl\version_6.1.2\lvgl\src\lv_objx/lv_canvas.c ****     ext->dsc.header.w  = w;
 246              		.loc 1 121 0
 247 0018 237C     		ldrb	r3, [r4, #16]	@ zero_extendqisi2
 124:..\..\..\lvgl\version_6.1.2\lvgl\src\lv_objx/lv_canvas.c ****     ext->dsc.data_size = (lv_img_color_format_get_px_size(cf) * w * h) / 8;
 248              		.loc 1 124 0
 249 001a C4F81890 		str	r9, [r4, #24]
 121:..\..\..\lvgl\version_6.1.2\lvgl\src\lv_objx/lv_canvas.c ****     ext->dsc.header.w  = w;
 250              		.loc 1 121 0
 251 001e 68F30403 		bfi	r3, r8, #0, #5
 252 0022 2374     		strb	r3, [r4, #16]
 122:..\..\..\lvgl\version_6.1.2\lvgl\src\lv_objx/lv_canvas.c ****     ext->dsc.header.h  = h;
 253              		.loc 1 122 0
 254 0024 2369     		ldr	r3, [r4, #16]
 255 0026 66F39423 		bfi	r3, r6, #10, #11
 123:..\..\..\lvgl\version_6.1.2\lvgl\src\lv_objx/lv_canvas.c ****     ext->dsc.data      = buf;
 256              		.loc 1 123 0
 257 002a 1A0C     		lsrs	r2, r3, #16
 258 002c 65F34F12 		bfi	r2, r5, #5, #11
 259              	.LVL25:
 122:..\..\..\lvgl\version_6.1.2\lvgl\src\lv_objx/lv_canvas.c ****     ext->dsc.header.h  = h;
 260              		.loc 1 122 0
 261 0030 2361     		str	r3, [r4, #16]
 123:..\..\..\lvgl\version_6.1.2\lvgl\src\lv_objx/lv_canvas.c ****     ext->dsc.data      = buf;
 262              		.loc 1 123 0
 263 0032 6282     		strh	r2, [r4, #18]	@ movhi
 125:..\..\..\lvgl\version_6.1.2\lvgl\src\lv_objx/lv_canvas.c **** 
 264              		.loc 1 125 0
 265 0034 FFF7FEFF 		bl	lv_img_color_format_get_px_size
 266              	.LVL26:
 267 0038 10FB06F3 		smulbb	r3, r0, r6
 268 003c 05FB03F3 		mul	r3, r5, r3
 269 0040 002B     		cmp	r3, #0
 270 0042 B8BF     		it	lt
 271 0044 0733     		addlt	r3, r3, #7
 272 0046 DB10     		asrs	r3, r3, #3
 273 0048 6361     		str	r3, [r4, #20]
 127:..\..\..\lvgl\version_6.1.2\lvgl\src\lv_objx/lv_canvas.c **** }
 274              		.loc 1 127 0
 275 004a 04F11001 		add	r1, r4, #16
 276 004e 3846     		mov	r0, r7
 128:..\..\..\lvgl\version_6.1.2\lvgl\src\lv_objx/lv_canvas.c **** 
 277              		.loc 1 128 0
 278 0050 BDE8F843 		pop	{r3, r4, r5, r6, r7, r8, r9, lr}
 279              		.cfi_restore 14
 280              		.cfi_restore 9
 281              		.cfi_restore 8
 282              		.cfi_restore 7
 283              		.cfi_restore 6
 284              		.cfi_restore 5
 285              		.cfi_restore 4
 286              		.cfi_restore 3
 287              		.cfi_def_cfa_offset 0
ARM GAS  C:\Users\pearlstl\AppData\Local\Temp\ccQFxYtd.s 			page 22


 288              	.LVL27:
 127:..\..\..\lvgl\version_6.1.2\lvgl\src\lv_objx/lv_canvas.c **** }
 289              		.loc 1 127 0
 290 0054 FFF7FEBF 		b	lv_img_set_src
 291              	.LVL28:
 292              		.cfi_endproc
 293              	.LFE36:
 294              		.size	lv_canvas_set_buffer, .-lv_canvas_set_buffer
 295              		.section	.text.lv_canvas_set_px,"ax",%progbits
 296              		.align	2
 297              		.global	lv_canvas_set_px
 298              		.thumb
 299              		.thumb_func
 300              		.type	lv_canvas_set_px, %function
 301              	lv_canvas_set_px:
 302              	.LFB37:
 138:..\..\..\lvgl\version_6.1.2\lvgl\src\lv_objx/lv_canvas.c ****     LV_ASSERT_OBJ(canvas, LV_OBJX_NAME);
 303              		.loc 1 138 0
 304              		.cfi_startproc
 305              		@ args = 0, pretend = 0, frame = 0
 306              		@ frame_needed = 0, uses_anonymous_args = 0
 307              	.LVL29:
 308 0000 F8B5     		push	{r3, r4, r5, r6, r7, lr}
 309              		.cfi_def_cfa_offset 24
 310              		.cfi_offset 3, -24
 311              		.cfi_offset 4, -20
 312              		.cfi_offset 5, -16
 313              		.cfi_offset 6, -12
 314              		.cfi_offset 7, -8
 315              		.cfi_offset 14, -4
 138:..\..\..\lvgl\version_6.1.2\lvgl\src\lv_objx/lv_canvas.c ****     LV_ASSERT_OBJ(canvas, LV_OBJX_NAME);
 316              		.loc 1 138 0
 317 0002 0D46     		mov	r5, r1
 318 0004 1646     		mov	r6, r2
 319 0006 1F46     		mov	r7, r3
 320 0008 0446     		mov	r4, r0
 141:..\..\..\lvgl\version_6.1.2\lvgl\src\lv_objx/lv_canvas.c **** 
 321              		.loc 1 141 0
 322 000a FFF7FEFF 		bl	lv_obj_get_ext_attr
 323              	.LVL30:
 143:..\..\..\lvgl\version_6.1.2\lvgl\src\lv_objx/lv_canvas.c ****     lv_obj_invalidate(canvas);
 324              		.loc 1 143 0
 325 000e 3B46     		mov	r3, r7
 326 0010 3246     		mov	r2, r6
 327 0012 2946     		mov	r1, r5
 328 0014 1030     		adds	r0, r0, #16
 329              	.LVL31:
 330 0016 FFF7FEFF 		bl	lv_img_buf_set_px_color
 331              	.LVL32:
 144:..\..\..\lvgl\version_6.1.2\lvgl\src\lv_objx/lv_canvas.c **** }
 332              		.loc 1 144 0
 333 001a 2046     		mov	r0, r4
 145:..\..\..\lvgl\version_6.1.2\lvgl\src\lv_objx/lv_canvas.c **** 
 334              		.loc 1 145 0
 335 001c BDE8F840 		pop	{r3, r4, r5, r6, r7, lr}
 336              		.cfi_restore 14
 337              		.cfi_restore 7
ARM GAS  C:\Users\pearlstl\AppData\Local\Temp\ccQFxYtd.s 			page 23


 338              		.cfi_restore 6
 339              		.cfi_restore 5
 340              		.cfi_restore 4
 341              		.cfi_restore 3
 342              		.cfi_def_cfa_offset 0
 343              	.LVL33:
 144:..\..\..\lvgl\version_6.1.2\lvgl\src\lv_objx/lv_canvas.c **** }
 344              		.loc 1 144 0
 345 0020 FFF7FEBF 		b	lv_obj_invalidate
 346              	.LVL34:
 347              		.cfi_endproc
 348              	.LFE37:
 349              		.size	lv_canvas_set_px, .-lv_canvas_set_px
 350              		.section	.text.lv_canvas_set_palette,"ax",%progbits
 351              		.align	2
 352              		.global	lv_canvas_set_palette
 353              		.thumb
 354              		.thumb_func
 355              		.type	lv_canvas_set_palette, %function
 356              	lv_canvas_set_palette:
 357              	.LFB38:
 158:..\..\..\lvgl\version_6.1.2\lvgl\src\lv_objx/lv_canvas.c ****     LV_ASSERT_OBJ(canvas, LV_OBJX_NAME);
 358              		.loc 1 158 0
 359              		.cfi_startproc
 360              		@ args = 0, pretend = 0, frame = 0
 361              		@ frame_needed = 0, uses_anonymous_args = 0
 362              	.LVL35:
 363 0000 70B5     		push	{r4, r5, r6, lr}
 364              		.cfi_def_cfa_offset 16
 365              		.cfi_offset 4, -16
 366              		.cfi_offset 5, -12
 367              		.cfi_offset 6, -8
 368              		.cfi_offset 14, -4
 158:..\..\..\lvgl\version_6.1.2\lvgl\src\lv_objx/lv_canvas.c ****     LV_ASSERT_OBJ(canvas, LV_OBJX_NAME);
 369              		.loc 1 158 0
 370 0002 0D46     		mov	r5, r1
 371 0004 1646     		mov	r6, r2
 372 0006 0446     		mov	r4, r0
 161:..\..\..\lvgl\version_6.1.2\lvgl\src\lv_objx/lv_canvas.c **** 
 373              		.loc 1 161 0
 374 0008 FFF7FEFF 		bl	lv_obj_get_ext_attr
 375              	.LVL36:
 163:..\..\..\lvgl\version_6.1.2\lvgl\src\lv_objx/lv_canvas.c ****     lv_obj_invalidate(canvas);
 376              		.loc 1 163 0
 377 000c 3246     		mov	r2, r6
 378 000e 2946     		mov	r1, r5
 379 0010 1030     		adds	r0, r0, #16
 380              	.LVL37:
 381 0012 FFF7FEFF 		bl	lv_img_buf_set_palette
 382              	.LVL38:
 164:..\..\..\lvgl\version_6.1.2\lvgl\src\lv_objx/lv_canvas.c **** }
 383              		.loc 1 164 0
 384 0016 2046     		mov	r0, r4
 165:..\..\..\lvgl\version_6.1.2\lvgl\src\lv_objx/lv_canvas.c **** 
 385              		.loc 1 165 0
 386 0018 BDE87040 		pop	{r4, r5, r6, lr}
 387              		.cfi_restore 14
ARM GAS  C:\Users\pearlstl\AppData\Local\Temp\ccQFxYtd.s 			page 24


 388              		.cfi_restore 6
 389              		.cfi_restore 5
 390              		.cfi_restore 4
 391              		.cfi_def_cfa_offset 0
 392              	.LVL39:
 164:..\..\..\lvgl\version_6.1.2\lvgl\src\lv_objx/lv_canvas.c **** }
 393              		.loc 1 164 0
 394 001c FFF7FEBF 		b	lv_obj_invalidate
 395              	.LVL40:
 396              		.cfi_endproc
 397              	.LFE38:
 398              		.size	lv_canvas_set_palette, .-lv_canvas_set_palette
 399              		.section	.text.lv_canvas_set_style,"ax",%progbits
 400              		.align	2
 401              		.global	lv_canvas_set_style
 402              		.thumb
 403              		.thumb_func
 404              		.type	lv_canvas_set_style, %function
 405              	lv_canvas_set_style:
 406              	.LFB39:
 174:..\..\..\lvgl\version_6.1.2\lvgl\src\lv_objx/lv_canvas.c ****     LV_ASSERT_OBJ(canvas, LV_OBJX_NAME);
 407              		.loc 1 174 0
 408              		.cfi_startproc
 409              		@ args = 0, pretend = 0, frame = 0
 410              		@ frame_needed = 0, uses_anonymous_args = 0
 411              		@ link register save eliminated.
 412              	.LVL41:
 177:..\..\..\lvgl\version_6.1.2\lvgl\src\lv_objx/lv_canvas.c ****         case LV_CANVAS_STYLE_MAIN: lv_img_set_style(canvas, LV_IMG_STYLE_MAIN, style); break;
 413              		.loc 1 177 0
 414 0000 01B1     		cbz	r1, .L36
 415 0002 7047     		bx	lr
 416              	.L36:
 417              	.LVL42:
 418              	.LBB63:
 419              	.LBB64:
 420              		.file 2 "..\\..\\..\\lvgl\\version_6.1.2\\lvgl\\src\\lv_objx\\../lv_objx/lv_img.h"
   1:..\..\..\lvgl\version_6.1.2\lvgl\src\lv_objx\../lv_objx/lv_img.h **** /**
   2:..\..\..\lvgl\version_6.1.2\lvgl\src\lv_objx\../lv_objx/lv_img.h ****  * @file lv_img.h
   3:..\..\..\lvgl\version_6.1.2\lvgl\src\lv_objx\../lv_objx/lv_img.h ****  *
   4:..\..\..\lvgl\version_6.1.2\lvgl\src\lv_objx\../lv_objx/lv_img.h ****  */
   5:..\..\..\lvgl\version_6.1.2\lvgl\src\lv_objx\../lv_objx/lv_img.h **** 
   6:..\..\..\lvgl\version_6.1.2\lvgl\src\lv_objx\../lv_objx/lv_img.h **** #ifndef LV_IMG_H
   7:..\..\..\lvgl\version_6.1.2\lvgl\src\lv_objx\../lv_objx/lv_img.h **** #define LV_IMG_H
   8:..\..\..\lvgl\version_6.1.2\lvgl\src\lv_objx\../lv_objx/lv_img.h **** 
   9:..\..\..\lvgl\version_6.1.2\lvgl\src\lv_objx\../lv_objx/lv_img.h **** #ifdef __cplusplus
  10:..\..\..\lvgl\version_6.1.2\lvgl\src\lv_objx\../lv_objx/lv_img.h **** extern "C" {
  11:..\..\..\lvgl\version_6.1.2\lvgl\src\lv_objx\../lv_objx/lv_img.h **** #endif
  12:..\..\..\lvgl\version_6.1.2\lvgl\src\lv_objx\../lv_objx/lv_img.h **** 
  13:..\..\..\lvgl\version_6.1.2\lvgl\src\lv_objx\../lv_objx/lv_img.h **** /*********************
  14:..\..\..\lvgl\version_6.1.2\lvgl\src\lv_objx\../lv_objx/lv_img.h ****  *      INCLUDES
  15:..\..\..\lvgl\version_6.1.2\lvgl\src\lv_objx\../lv_objx/lv_img.h ****  *********************/
  16:..\..\..\lvgl\version_6.1.2\lvgl\src\lv_objx\../lv_objx/lv_img.h **** #ifdef LV_CONF_INCLUDE_SIMPLE
  17:..\..\..\lvgl\version_6.1.2\lvgl\src\lv_objx\../lv_objx/lv_img.h **** #include "lv_conf.h"
  18:..\..\..\lvgl\version_6.1.2\lvgl\src\lv_objx\../lv_objx/lv_img.h **** #else
  19:..\..\..\lvgl\version_6.1.2\lvgl\src\lv_objx\../lv_objx/lv_img.h **** #include "../../../lv_conf.h"
  20:..\..\..\lvgl\version_6.1.2\lvgl\src\lv_objx\../lv_objx/lv_img.h **** #endif
  21:..\..\..\lvgl\version_6.1.2\lvgl\src\lv_objx\../lv_objx/lv_img.h **** 
ARM GAS  C:\Users\pearlstl\AppData\Local\Temp\ccQFxYtd.s 			page 25


  22:..\..\..\lvgl\version_6.1.2\lvgl\src\lv_objx\../lv_objx/lv_img.h **** #if LV_USE_IMG != 0
  23:..\..\..\lvgl\version_6.1.2\lvgl\src\lv_objx\../lv_objx/lv_img.h **** 
  24:..\..\..\lvgl\version_6.1.2\lvgl\src\lv_objx\../lv_objx/lv_img.h **** #include "../lv_core/lv_obj.h"
  25:..\..\..\lvgl\version_6.1.2\lvgl\src\lv_objx\../lv_objx/lv_img.h **** #include "../lv_misc/lv_fs.h"
  26:..\..\..\lvgl\version_6.1.2\lvgl\src\lv_objx\../lv_objx/lv_img.h **** #include "lv_label.h"
  27:..\..\..\lvgl\version_6.1.2\lvgl\src\lv_objx\../lv_objx/lv_img.h **** #include "../lv_draw/lv_draw.h"
  28:..\..\..\lvgl\version_6.1.2\lvgl\src\lv_objx\../lv_objx/lv_img.h **** 
  29:..\..\..\lvgl\version_6.1.2\lvgl\src\lv_objx\../lv_objx/lv_img.h **** /*********************
  30:..\..\..\lvgl\version_6.1.2\lvgl\src\lv_objx\../lv_objx/lv_img.h ****  *      DEFINES
  31:..\..\..\lvgl\version_6.1.2\lvgl\src\lv_objx\../lv_objx/lv_img.h ****  *********************/
  32:..\..\..\lvgl\version_6.1.2\lvgl\src\lv_objx\../lv_objx/lv_img.h **** 
  33:..\..\..\lvgl\version_6.1.2\lvgl\src\lv_objx\../lv_objx/lv_img.h **** /**********************
  34:..\..\..\lvgl\version_6.1.2\lvgl\src\lv_objx\../lv_objx/lv_img.h ****  *      TYPEDEFS
  35:..\..\..\lvgl\version_6.1.2\lvgl\src\lv_objx\../lv_objx/lv_img.h ****  **********************/
  36:..\..\..\lvgl\version_6.1.2\lvgl\src\lv_objx\../lv_objx/lv_img.h **** /*Data of image*/
  37:..\..\..\lvgl\version_6.1.2\lvgl\src\lv_objx\../lv_objx/lv_img.h **** typedef struct
  38:..\..\..\lvgl\version_6.1.2\lvgl\src\lv_objx\../lv_objx/lv_img.h **** {
  39:..\..\..\lvgl\version_6.1.2\lvgl\src\lv_objx\../lv_objx/lv_img.h ****     /*No inherited ext. because inherited from the base object*/ /*Ext. of ancestor*/
  40:..\..\..\lvgl\version_6.1.2\lvgl\src\lv_objx\../lv_objx/lv_img.h ****     /*New data for this type */
  41:..\..\..\lvgl\version_6.1.2\lvgl\src\lv_objx\../lv_objx/lv_img.h ****     const void * src; /*Image source: Pointer to an array or a file or a symbol*/
  42:..\..\..\lvgl\version_6.1.2\lvgl\src\lv_objx\../lv_objx/lv_img.h ****     lv_point_t offset;
  43:..\..\..\lvgl\version_6.1.2\lvgl\src\lv_objx\../lv_objx/lv_img.h ****     lv_coord_t w;          /*Width of the image (Handled by the library)*/
  44:..\..\..\lvgl\version_6.1.2\lvgl\src\lv_objx\../lv_objx/lv_img.h ****     lv_coord_t h;          /*Height of the image (Handled by the library)*/
  45:..\..\..\lvgl\version_6.1.2\lvgl\src\lv_objx\../lv_objx/lv_img.h ****     uint8_t src_type : 2;  /*See: lv_img_src_t*/
  46:..\..\..\lvgl\version_6.1.2\lvgl\src\lv_objx\../lv_objx/lv_img.h ****     uint8_t auto_size : 1; /*1: automatically set the object size to the image size*/
  47:..\..\..\lvgl\version_6.1.2\lvgl\src\lv_objx\../lv_objx/lv_img.h ****     uint8_t cf : 5;        /*Color format from `lv_img_color_format_t`*/
  48:..\..\..\lvgl\version_6.1.2\lvgl\src\lv_objx\../lv_objx/lv_img.h **** } lv_img_ext_t;
  49:..\..\..\lvgl\version_6.1.2\lvgl\src\lv_objx\../lv_objx/lv_img.h **** 
  50:..\..\..\lvgl\version_6.1.2\lvgl\src\lv_objx\../lv_objx/lv_img.h **** /*Styles*/
  51:..\..\..\lvgl\version_6.1.2\lvgl\src\lv_objx\../lv_objx/lv_img.h **** enum {
  52:..\..\..\lvgl\version_6.1.2\lvgl\src\lv_objx\../lv_objx/lv_img.h ****     LV_IMG_STYLE_MAIN,
  53:..\..\..\lvgl\version_6.1.2\lvgl\src\lv_objx\../lv_objx/lv_img.h **** };
  54:..\..\..\lvgl\version_6.1.2\lvgl\src\lv_objx\../lv_objx/lv_img.h **** typedef uint8_t lv_img_style_t;
  55:..\..\..\lvgl\version_6.1.2\lvgl\src\lv_objx\../lv_objx/lv_img.h **** 
  56:..\..\..\lvgl\version_6.1.2\lvgl\src\lv_objx\../lv_objx/lv_img.h **** /**********************
  57:..\..\..\lvgl\version_6.1.2\lvgl\src\lv_objx\../lv_objx/lv_img.h ****  * GLOBAL PROTOTYPES
  58:..\..\..\lvgl\version_6.1.2\lvgl\src\lv_objx\../lv_objx/lv_img.h ****  **********************/
  59:..\..\..\lvgl\version_6.1.2\lvgl\src\lv_objx\../lv_objx/lv_img.h **** 
  60:..\..\..\lvgl\version_6.1.2\lvgl\src\lv_objx\../lv_objx/lv_img.h **** /**
  61:..\..\..\lvgl\version_6.1.2\lvgl\src\lv_objx\../lv_objx/lv_img.h ****  * Create an image objects
  62:..\..\..\lvgl\version_6.1.2\lvgl\src\lv_objx\../lv_objx/lv_img.h ****  * @param par pointer to an object, it will be the parent of the new button
  63:..\..\..\lvgl\version_6.1.2\lvgl\src\lv_objx\../lv_objx/lv_img.h ****  * @param copy pointer to a image object, if not NULL then the new object will be copied from it
  64:..\..\..\lvgl\version_6.1.2\lvgl\src\lv_objx\../lv_objx/lv_img.h ****  * @return pointer to the created image
  65:..\..\..\lvgl\version_6.1.2\lvgl\src\lv_objx\../lv_objx/lv_img.h ****  */
  66:..\..\..\lvgl\version_6.1.2\lvgl\src\lv_objx\../lv_objx/lv_img.h **** lv_obj_t * lv_img_create(lv_obj_t * par, const lv_obj_t * copy);
  67:..\..\..\lvgl\version_6.1.2\lvgl\src\lv_objx\../lv_objx/lv_img.h **** 
  68:..\..\..\lvgl\version_6.1.2\lvgl\src\lv_objx\../lv_objx/lv_img.h **** /*=====================
  69:..\..\..\lvgl\version_6.1.2\lvgl\src\lv_objx\../lv_objx/lv_img.h ****  * Setter functions
  70:..\..\..\lvgl\version_6.1.2\lvgl\src\lv_objx\../lv_objx/lv_img.h ****  *====================*/
  71:..\..\..\lvgl\version_6.1.2\lvgl\src\lv_objx\../lv_objx/lv_img.h **** 
  72:..\..\..\lvgl\version_6.1.2\lvgl\src\lv_objx\../lv_objx/lv_img.h **** /**
  73:..\..\..\lvgl\version_6.1.2\lvgl\src\lv_objx\../lv_objx/lv_img.h ****  * Set the pixel map to display by the image
  74:..\..\..\lvgl\version_6.1.2\lvgl\src\lv_objx\../lv_objx/lv_img.h ****  * @param img pointer to an image object
  75:..\..\..\lvgl\version_6.1.2\lvgl\src\lv_objx\../lv_objx/lv_img.h ****  * @param data the image data
  76:..\..\..\lvgl\version_6.1.2\lvgl\src\lv_objx\../lv_objx/lv_img.h ****  */
  77:..\..\..\lvgl\version_6.1.2\lvgl\src\lv_objx\../lv_objx/lv_img.h **** void lv_img_set_src(lv_obj_t * img, const void * src_img);
  78:..\..\..\lvgl\version_6.1.2\lvgl\src\lv_objx\../lv_objx/lv_img.h **** 
ARM GAS  C:\Users\pearlstl\AppData\Local\Temp\ccQFxYtd.s 			page 26


  79:..\..\..\lvgl\version_6.1.2\lvgl\src\lv_objx\../lv_objx/lv_img.h **** /**
  80:..\..\..\lvgl\version_6.1.2\lvgl\src\lv_objx\../lv_objx/lv_img.h ****  * Enable the auto size feature.
  81:..\..\..\lvgl\version_6.1.2\lvgl\src\lv_objx\../lv_objx/lv_img.h ****  * If enabled the object size will be same as the picture size.
  82:..\..\..\lvgl\version_6.1.2\lvgl\src\lv_objx\../lv_objx/lv_img.h ****  * @param img pointer to an image
  83:..\..\..\lvgl\version_6.1.2\lvgl\src\lv_objx\../lv_objx/lv_img.h ****  * @param en true: auto size enable, false: auto size disable
  84:..\..\..\lvgl\version_6.1.2\lvgl\src\lv_objx\../lv_objx/lv_img.h ****  */
  85:..\..\..\lvgl\version_6.1.2\lvgl\src\lv_objx\../lv_objx/lv_img.h **** void lv_img_set_auto_size(lv_obj_t * img, bool autosize_en);
  86:..\..\..\lvgl\version_6.1.2\lvgl\src\lv_objx\../lv_objx/lv_img.h **** 
  87:..\..\..\lvgl\version_6.1.2\lvgl\src\lv_objx\../lv_objx/lv_img.h **** /**
  88:..\..\..\lvgl\version_6.1.2\lvgl\src\lv_objx\../lv_objx/lv_img.h ****  * Set an offset for the source of an image.
  89:..\..\..\lvgl\version_6.1.2\lvgl\src\lv_objx\../lv_objx/lv_img.h ****  * so the image will be displayed from the new origin.
  90:..\..\..\lvgl\version_6.1.2\lvgl\src\lv_objx\../lv_objx/lv_img.h ****  * @param img pointer to an image
  91:..\..\..\lvgl\version_6.1.2\lvgl\src\lv_objx\../lv_objx/lv_img.h ****  * @param x: the new offset along x axis.
  92:..\..\..\lvgl\version_6.1.2\lvgl\src\lv_objx\../lv_objx/lv_img.h ****  */
  93:..\..\..\lvgl\version_6.1.2\lvgl\src\lv_objx\../lv_objx/lv_img.h **** void lv_img_set_offset_x(lv_obj_t * img, lv_coord_t x);
  94:..\..\..\lvgl\version_6.1.2\lvgl\src\lv_objx\../lv_objx/lv_img.h **** 
  95:..\..\..\lvgl\version_6.1.2\lvgl\src\lv_objx\../lv_objx/lv_img.h **** /**
  96:..\..\..\lvgl\version_6.1.2\lvgl\src\lv_objx\../lv_objx/lv_img.h ****  * Set an offset for the source of an image.
  97:..\..\..\lvgl\version_6.1.2\lvgl\src\lv_objx\../lv_objx/lv_img.h ****  * so the image will be displayed from the new origin.
  98:..\..\..\lvgl\version_6.1.2\lvgl\src\lv_objx\../lv_objx/lv_img.h ****  * @param img pointer to an image
  99:..\..\..\lvgl\version_6.1.2\lvgl\src\lv_objx\../lv_objx/lv_img.h ****  * @param y: the new offset along y axis.
 100:..\..\..\lvgl\version_6.1.2\lvgl\src\lv_objx\../lv_objx/lv_img.h ****  */
 101:..\..\..\lvgl\version_6.1.2\lvgl\src\lv_objx\../lv_objx/lv_img.h **** void lv_img_set_offset_y(lv_obj_t * img, lv_coord_t y);
 102:..\..\..\lvgl\version_6.1.2\lvgl\src\lv_objx\../lv_objx/lv_img.h **** 
 103:..\..\..\lvgl\version_6.1.2\lvgl\src\lv_objx\../lv_objx/lv_img.h **** /**
 104:..\..\..\lvgl\version_6.1.2\lvgl\src\lv_objx\../lv_objx/lv_img.h ****  * Set the style of an image
 105:..\..\..\lvgl\version_6.1.2\lvgl\src\lv_objx\../lv_objx/lv_img.h ****  * @param img pointer to an image object
 106:..\..\..\lvgl\version_6.1.2\lvgl\src\lv_objx\../lv_objx/lv_img.h ****  * @param type which style should be set (can be only `LV_IMG_STYLE_MAIN`)
 107:..\..\..\lvgl\version_6.1.2\lvgl\src\lv_objx\../lv_objx/lv_img.h ****  * @param style pointer to a style
 108:..\..\..\lvgl\version_6.1.2\lvgl\src\lv_objx\../lv_objx/lv_img.h ****  */
 109:..\..\..\lvgl\version_6.1.2\lvgl\src\lv_objx\../lv_objx/lv_img.h **** static inline void lv_img_set_style(lv_obj_t * img, lv_img_style_t type, const lv_style_t * style)
 110:..\..\..\lvgl\version_6.1.2\lvgl\src\lv_objx\../lv_objx/lv_img.h **** {
 111:..\..\..\lvgl\version_6.1.2\lvgl\src\lv_objx\../lv_objx/lv_img.h ****     (void)type; /*Unused*/
 112:..\..\..\lvgl\version_6.1.2\lvgl\src\lv_objx\../lv_objx/lv_img.h ****     lv_obj_set_style(img, style);
 421              		.loc 2 112 0
 422 0004 1146     		mov	r1, r2
 423              	.LVL43:
 424 0006 FFF7FEBF 		b	lv_obj_set_style
 425              	.LVL44:
 426              	.LBE64:
 427              	.LBE63:
 428              		.cfi_endproc
 429              	.LFE39:
 430              		.size	lv_canvas_set_style, .-lv_canvas_set_style
 431 000a 00BF     		.section	.text.lv_canvas_get_px,"ax",%progbits
 432              		.align	2
 433              		.global	lv_canvas_get_px
 434              		.thumb
 435              		.thumb_func
 436              		.type	lv_canvas_get_px, %function
 437              	lv_canvas_get_px:
 438              	.LFB40:
 194:..\..\..\lvgl\version_6.1.2\lvgl\src\lv_objx/lv_canvas.c ****     LV_ASSERT_OBJ(canvas, LV_OBJX_NAME);
 439              		.loc 1 194 0
 440              		.cfi_startproc
 441              		@ args = 0, pretend = 0, frame = 0
 442              		@ frame_needed = 0, uses_anonymous_args = 0
ARM GAS  C:\Users\pearlstl\AppData\Local\Temp\ccQFxYtd.s 			page 27


 443              	.LVL45:
 444 0000 F8B5     		push	{r3, r4, r5, r6, r7, lr}
 445              		.cfi_def_cfa_offset 24
 446              		.cfi_offset 3, -24
 447              		.cfi_offset 4, -20
 448              		.cfi_offset 5, -16
 449              		.cfi_offset 6, -12
 450              		.cfi_offset 7, -8
 451              		.cfi_offset 14, -4
 194:..\..\..\lvgl\version_6.1.2\lvgl\src\lv_objx/lv_canvas.c ****     LV_ASSERT_OBJ(canvas, LV_OBJX_NAME);
 452              		.loc 1 194 0
 453 0002 0D46     		mov	r5, r1
 454 0004 1646     		mov	r6, r2
 455 0006 0746     		mov	r7, r0
 197:..\..\..\lvgl\version_6.1.2\lvgl\src\lv_objx/lv_canvas.c ****     const lv_style_t * style = lv_canvas_get_style(canvas, LV_CANVAS_STYLE_MAIN);
 456              		.loc 1 197 0
 457 0008 FFF7FEFF 		bl	lv_obj_get_ext_attr
 458              	.LVL46:
 459 000c 0446     		mov	r4, r0
 460              	.LVL47:
 461              	.LBB65:
 462              	.LBB66:
 463              	.LBB67:
 464              	.LBB68:
 113:..\..\..\lvgl\version_6.1.2\lvgl\src\lv_objx\../lv_objx/lv_img.h **** }
 114:..\..\..\lvgl\version_6.1.2\lvgl\src\lv_objx\../lv_objx/lv_img.h **** 
 115:..\..\..\lvgl\version_6.1.2\lvgl\src\lv_objx\../lv_objx/lv_img.h **** /*=====================
 116:..\..\..\lvgl\version_6.1.2\lvgl\src\lv_objx\../lv_objx/lv_img.h ****  * Getter functions
 117:..\..\..\lvgl\version_6.1.2\lvgl\src\lv_objx\../lv_objx/lv_img.h ****  *====================*/
 118:..\..\..\lvgl\version_6.1.2\lvgl\src\lv_objx\../lv_objx/lv_img.h **** 
 119:..\..\..\lvgl\version_6.1.2\lvgl\src\lv_objx\../lv_objx/lv_img.h **** /**
 120:..\..\..\lvgl\version_6.1.2\lvgl\src\lv_objx\../lv_objx/lv_img.h ****  * Get the source of the image
 121:..\..\..\lvgl\version_6.1.2\lvgl\src\lv_objx\../lv_objx/lv_img.h ****  * @param img pointer to an image object
 122:..\..\..\lvgl\version_6.1.2\lvgl\src\lv_objx\../lv_objx/lv_img.h ****  * @return the image source (symbol, file name or C array)
 123:..\..\..\lvgl\version_6.1.2\lvgl\src\lv_objx\../lv_objx/lv_img.h ****  */
 124:..\..\..\lvgl\version_6.1.2\lvgl\src\lv_objx\../lv_objx/lv_img.h **** const void * lv_img_get_src(lv_obj_t * img);
 125:..\..\..\lvgl\version_6.1.2\lvgl\src\lv_objx\../lv_objx/lv_img.h **** 
 126:..\..\..\lvgl\version_6.1.2\lvgl\src\lv_objx\../lv_objx/lv_img.h **** /**
 127:..\..\..\lvgl\version_6.1.2\lvgl\src\lv_objx\../lv_objx/lv_img.h ****  * Get the name of the file set for an image
 128:..\..\..\lvgl\version_6.1.2\lvgl\src\lv_objx\../lv_objx/lv_img.h ****  * @param img pointer to an image
 129:..\..\..\lvgl\version_6.1.2\lvgl\src\lv_objx\../lv_objx/lv_img.h ****  * @return file name
 130:..\..\..\lvgl\version_6.1.2\lvgl\src\lv_objx\../lv_objx/lv_img.h ****  */
 131:..\..\..\lvgl\version_6.1.2\lvgl\src\lv_objx\../lv_objx/lv_img.h **** const char * lv_img_get_file_name(const lv_obj_t * img);
 132:..\..\..\lvgl\version_6.1.2\lvgl\src\lv_objx\../lv_objx/lv_img.h **** 
 133:..\..\..\lvgl\version_6.1.2\lvgl\src\lv_objx\../lv_objx/lv_img.h **** /**
 134:..\..\..\lvgl\version_6.1.2\lvgl\src\lv_objx\../lv_objx/lv_img.h ****  * Get the auto size enable attribute
 135:..\..\..\lvgl\version_6.1.2\lvgl\src\lv_objx\../lv_objx/lv_img.h ****  * @param img pointer to an image
 136:..\..\..\lvgl\version_6.1.2\lvgl\src\lv_objx\../lv_objx/lv_img.h ****  * @return true: auto size is enabled, false: auto size is disabled
 137:..\..\..\lvgl\version_6.1.2\lvgl\src\lv_objx\../lv_objx/lv_img.h ****  */
 138:..\..\..\lvgl\version_6.1.2\lvgl\src\lv_objx\../lv_objx/lv_img.h **** bool lv_img_get_auto_size(const lv_obj_t * img);
 139:..\..\..\lvgl\version_6.1.2\lvgl\src\lv_objx\../lv_objx/lv_img.h **** 
 140:..\..\..\lvgl\version_6.1.2\lvgl\src\lv_objx\../lv_objx/lv_img.h **** /**
 141:..\..\..\lvgl\version_6.1.2\lvgl\src\lv_objx\../lv_objx/lv_img.h ****  * Get the offset.x attribute of the img object.
 142:..\..\..\lvgl\version_6.1.2\lvgl\src\lv_objx\../lv_objx/lv_img.h ****  * @param img pointer to an image
 143:..\..\..\lvgl\version_6.1.2\lvgl\src\lv_objx\../lv_objx/lv_img.h ****  * @return offset.x value.
 144:..\..\..\lvgl\version_6.1.2\lvgl\src\lv_objx\../lv_objx/lv_img.h ****  */
 145:..\..\..\lvgl\version_6.1.2\lvgl\src\lv_objx\../lv_objx/lv_img.h **** lv_coord_t lv_img_get_offset_x(lv_obj_t * img);
ARM GAS  C:\Users\pearlstl\AppData\Local\Temp\ccQFxYtd.s 			page 28


 146:..\..\..\lvgl\version_6.1.2\lvgl\src\lv_objx\../lv_objx/lv_img.h **** 
 147:..\..\..\lvgl\version_6.1.2\lvgl\src\lv_objx\../lv_objx/lv_img.h **** /**
 148:..\..\..\lvgl\version_6.1.2\lvgl\src\lv_objx\../lv_objx/lv_img.h ****  * Get the offset.y attribute of the img object.
 149:..\..\..\lvgl\version_6.1.2\lvgl\src\lv_objx\../lv_objx/lv_img.h ****  * @param img pointer to an image
 150:..\..\..\lvgl\version_6.1.2\lvgl\src\lv_objx\../lv_objx/lv_img.h ****  * @return offset.y value.
 151:..\..\..\lvgl\version_6.1.2\lvgl\src\lv_objx\../lv_objx/lv_img.h ****  */
 152:..\..\..\lvgl\version_6.1.2\lvgl\src\lv_objx\../lv_objx/lv_img.h **** lv_coord_t lv_img_get_offset_y(lv_obj_t * img);
 153:..\..\..\lvgl\version_6.1.2\lvgl\src\lv_objx\../lv_objx/lv_img.h **** 
 154:..\..\..\lvgl\version_6.1.2\lvgl\src\lv_objx\../lv_objx/lv_img.h **** /**
 155:..\..\..\lvgl\version_6.1.2\lvgl\src\lv_objx\../lv_objx/lv_img.h ****  * Get the style of an image object
 156:..\..\..\lvgl\version_6.1.2\lvgl\src\lv_objx\../lv_objx/lv_img.h ****  * @param img pointer to an image object
 157:..\..\..\lvgl\version_6.1.2\lvgl\src\lv_objx\../lv_objx/lv_img.h ****  * @param type which style should be get (can be only `LV_IMG_STYLE_MAIN`)
 158:..\..\..\lvgl\version_6.1.2\lvgl\src\lv_objx\../lv_objx/lv_img.h ****  * @return pointer to the image's style
 159:..\..\..\lvgl\version_6.1.2\lvgl\src\lv_objx\../lv_objx/lv_img.h ****  */
 160:..\..\..\lvgl\version_6.1.2\lvgl\src\lv_objx\../lv_objx/lv_img.h **** static inline const lv_style_t * lv_img_get_style(const lv_obj_t * img, lv_img_style_t type)
 161:..\..\..\lvgl\version_6.1.2\lvgl\src\lv_objx\../lv_objx/lv_img.h **** {
 162:..\..\..\lvgl\version_6.1.2\lvgl\src\lv_objx\../lv_objx/lv_img.h ****     (void)type; /*Unused*/
 163:..\..\..\lvgl\version_6.1.2\lvgl\src\lv_objx\../lv_objx/lv_img.h ****     return lv_obj_get_style(img);
 465              		.loc 2 163 0
 466 000e 3846     		mov	r0, r7
 467              	.LVL48:
 468 0010 FFF7FEFF 		bl	lv_obj_get_style
 469              	.LVL49:
 470              	.LBE68:
 471              	.LBE67:
 472              	.LBE66:
 473              	.LBE65:
 200:..\..\..\lvgl\version_6.1.2\lvgl\src\lv_objx/lv_canvas.c **** }
 474              		.loc 1 200 0
 475 0014 3246     		mov	r2, r6
 476 0016 0346     		mov	r3, r0
 477 0018 2946     		mov	r1, r5
 478 001a 04F11000 		add	r0, r4, #16
 479 001e FFF7FEFF 		bl	lv_img_buf_get_px_color
 480              	.LVL50:
 201:..\..\..\lvgl\version_6.1.2\lvgl\src\lv_objx/lv_canvas.c **** 
 481              		.loc 1 201 0
 482 0022 F8BD     		pop	{r3, r4, r5, r6, r7, pc}
 483              		.cfi_endproc
 484              	.LFE40:
 485              		.size	lv_canvas_get_px, .-lv_canvas_get_px
 486              		.section	.text.lv_canvas_get_img,"ax",%progbits
 487              		.align	2
 488              		.global	lv_canvas_get_img
 489              		.thumb
 490              		.thumb_func
 491              		.type	lv_canvas_get_img, %function
 492              	lv_canvas_get_img:
 493              	.LFB41:
 209:..\..\..\lvgl\version_6.1.2\lvgl\src\lv_objx/lv_canvas.c ****     LV_ASSERT_OBJ(canvas, LV_OBJX_NAME);
 494              		.loc 1 209 0
 495              		.cfi_startproc
 496              		@ args = 0, pretend = 0, frame = 0
 497              		@ frame_needed = 0, uses_anonymous_args = 0
 498              	.LVL51:
 499 0000 08B5     		push	{r3, lr}
 500              		.cfi_def_cfa_offset 8
ARM GAS  C:\Users\pearlstl\AppData\Local\Temp\ccQFxYtd.s 			page 29


 501              		.cfi_offset 3, -8
 502              		.cfi_offset 14, -4
 212:..\..\..\lvgl\version_6.1.2\lvgl\src\lv_objx/lv_canvas.c **** 
 503              		.loc 1 212 0
 504 0002 FFF7FEFF 		bl	lv_obj_get_ext_attr
 505              	.LVL52:
 215:..\..\..\lvgl\version_6.1.2\lvgl\src\lv_objx/lv_canvas.c **** 
 506              		.loc 1 215 0
 507 0006 1030     		adds	r0, r0, #16
 508              	.LVL53:
 509 0008 08BD     		pop	{r3, pc}
 510              		.cfi_endproc
 511              	.LFE41:
 512              		.size	lv_canvas_get_img, .-lv_canvas_get_img
 513 000a 00BF     		.section	.text.lv_canvas_get_style,"ax",%progbits
 514              		.align	2
 515              		.global	lv_canvas_get_style
 516              		.thumb
 517              		.thumb_func
 518              		.type	lv_canvas_get_style, %function
 519              	lv_canvas_get_style:
 520              	.LFB42:
 224:..\..\..\lvgl\version_6.1.2\lvgl\src\lv_objx/lv_canvas.c ****     LV_ASSERT_OBJ(canvas, LV_OBJX_NAME);
 521              		.loc 1 224 0
 522              		.cfi_startproc
 523              		@ args = 0, pretend = 0, frame = 0
 524              		@ frame_needed = 0, uses_anonymous_args = 0
 525              		@ link register save eliminated.
 526              	.LVL54:
 229:..\..\..\lvgl\version_6.1.2\lvgl\src\lv_objx/lv_canvas.c ****         case LV_CANVAS_STYLE_MAIN: style = lv_img_get_style(canvas, LV_IMG_STYLE_MAIN); break;
 527              		.loc 1 229 0
 528 0000 09B9     		cbnz	r1, .L44
 529              	.LVL55:
 530              	.LBB69:
 531              	.LBB70:
 532              		.loc 2 163 0
 533 0002 FFF7FEBF 		b	lv_obj_get_style
 534              	.LVL56:
 535              	.L44:
 536              	.LBE70:
 537              	.LBE69:
 235:..\..\..\lvgl\version_6.1.2\lvgl\src\lv_objx/lv_canvas.c **** 
 538              		.loc 1 235 0
 539 0006 0020     		movs	r0, #0
 540              	.LVL57:
 541 0008 7047     		bx	lr
 542              		.cfi_endproc
 543              	.LFE42:
 544              		.size	lv_canvas_get_style, .-lv_canvas_get_style
 545 000a 00BF     		.section	.text.lv_canvas_copy_buf,"ax",%progbits
 546              		.align	2
 547              		.global	lv_canvas_copy_buf
 548              		.thumb
 549              		.thumb_func
 550              		.type	lv_canvas_copy_buf, %function
 551              	lv_canvas_copy_buf:
 552              	.LFB43:
ARM GAS  C:\Users\pearlstl\AppData\Local\Temp\ccQFxYtd.s 			page 30


 252:..\..\..\lvgl\version_6.1.2\lvgl\src\lv_objx/lv_canvas.c ****     LV_ASSERT_OBJ(canvas, LV_OBJX_NAME);
 553              		.loc 1 252 0
 554              		.cfi_startproc
 555              		@ args = 8, pretend = 0, frame = 0
 556              		@ frame_needed = 0, uses_anonymous_args = 0
 557              	.LVL58:
 558 0000 2DE9F84F 		push	{r3, r4, r5, r6, r7, r8, r9, r10, fp, lr}
 559              		.cfi_def_cfa_offset 40
 560              		.cfi_offset 3, -40
 561              		.cfi_offset 4, -36
 562              		.cfi_offset 5, -32
 563              		.cfi_offset 6, -28
 564              		.cfi_offset 7, -24
 565              		.cfi_offset 8, -20
 566              		.cfi_offset 9, -16
 567              		.cfi_offset 10, -12
 568              		.cfi_offset 11, -8
 569              		.cfi_offset 14, -4
 252:..\..\..\lvgl\version_6.1.2\lvgl\src\lv_objx/lv_canvas.c ****     LV_ASSERT_OBJ(canvas, LV_OBJX_NAME);
 570              		.loc 1 252 0
 571 0004 9346     		mov	fp, r2
 572 0006 1C46     		mov	r4, r3
 573 0008 BDF928A0 		ldrsh	r10, [sp, #40]
 574 000c BDF92C80 		ldrsh	r8, [sp, #44]
 575 0010 0E46     		mov	r6, r1
 256:..\..\..\lvgl\version_6.1.2\lvgl\src\lv_objx/lv_canvas.c ****     if(x + w >= (lv_coord_t)ext->dsc.header.w || y + h >= (lv_coord_t)ext->dsc.header.h) {
 576              		.loc 1 256 0
 577 0012 FFF7FEFF 		bl	lv_obj_get_ext_attr
 578              	.LVL59:
 257:..\..\..\lvgl\version_6.1.2\lvgl\src\lv_objx/lv_canvas.c ****         LV_LOG_WARN("lv_canvas_copy_buf: x or y out of the canvas");
 579              		.loc 1 257 0
 580 0016 0369     		ldr	r3, [r0, #16]
 581 0018 0BEB0A02 		add	r2, fp, r10
 582 001c C3F38A23 		ubfx	r3, r3, #10, #11
 583 0020 9A42     		cmp	r2, r3
 584 0022 06DA     		bge	.L45
 257:..\..\..\lvgl\version_6.1.2\lvgl\src\lv_objx/lv_canvas.c ****         LV_LOG_WARN("lv_canvas_copy_buf: x or y out of the canvas");
 585              		.loc 1 257 0 is_stmt 0 discriminator 1
 586 0024 428A     		ldrh	r2, [r0, #18]
 587 0026 04EB0803 		add	r3, r4, r8
 588 002a B3EB521F 		cmp	r3, r2, lsr #5
 589 002e 0746     		mov	r7, r0
 590 0030 01DB     		blt	.L51
 591              	.LVL60:
 592              	.L45:
 593 0032 BDE8F88F 		pop	{r3, r4, r5, r6, r7, r8, r9, r10, fp, pc}
 594              	.LVL61:
 595              	.L51:
 262:..\..\..\lvgl\version_6.1.2\lvgl\src\lv_objx/lv_canvas.c ****     uint32_t px        = ext->dsc.header.w * y * px_size + x * px_size;
 596              		.loc 1 262 0 is_stmt 1
 597 0036 007C     		ldrb	r0, [r0, #16]	@ zero_extendqisi2
 598              	.LVL62:
 599 0038 00F01F00 		and	r0, r0, #31
 600 003c FFF7FEFF 		bl	lv_img_color_format_get_px_size
 601              	.LVL63:
 263:..\..\..\lvgl\version_6.1.2\lvgl\src\lv_objx/lv_canvas.c ****     uint8_t * to_copy8 = (uint8_t *)to_copy;
 602              		.loc 1 263 0
ARM GAS  C:\Users\pearlstl\AppData\Local\Temp\ccQFxYtd.s 			page 31


 603 0040 3D69     		ldr	r5, [r7, #16]
 604 0042 C5F38A25 		ubfx	r5, r5, #10, #11
 262:..\..\..\lvgl\version_6.1.2\lvgl\src\lv_objx/lv_canvas.c ****     uint32_t px        = ext->dsc.header.w * y * px_size + x * px_size;
 605              		.loc 1 262 0
 606 0046 C0F3C709 		ubfx	r9, r0, #3, #8
 607              	.LVL64:
 263:..\..\..\lvgl\version_6.1.2\lvgl\src\lv_objx/lv_canvas.c ****     uint8_t * to_copy8 = (uint8_t *)to_copy;
 608              		.loc 1 263 0
 609 004a 14FB05B5 		smlabb	r5, r4, r5, fp
 266:..\..\..\lvgl\version_6.1.2\lvgl\src\lv_objx/lv_canvas.c ****         memcpy((void *)&ext->dsc.data[px], to_copy8, w * px_size);
 610              		.loc 1 266 0
 611 004e B8F1000F 		cmp	r8, #0
 263:..\..\..\lvgl\version_6.1.2\lvgl\src\lv_objx/lv_canvas.c ****     uint8_t * to_copy8 = (uint8_t *)to_copy;
 612              		.loc 1 263 0
 613 0052 09FB05F5 		mul	r5, r9, r5
 614              	.LVL65:
 266:..\..\..\lvgl\version_6.1.2\lvgl\src\lv_objx/lv_canvas.c ****         memcpy((void *)&ext->dsc.data[px], to_copy8, w * px_size);
 615              		.loc 1 266 0
 616 0056 ECDD     		ble	.L45
 617 0058 19FB0AFA 		smulbb	r10, r9, r10
 618 005c 0024     		movs	r4, #0
 619              	.LVL66:
 620              	.L48:
 267:..\..\..\lvgl\version_6.1.2\lvgl\src\lv_objx/lv_canvas.c ****         px += ext->dsc.header.w * px_size;
 621              		.loc 1 267 0 discriminator 3
 622 005e B869     		ldr	r0, [r7, #24]
 623 0060 3146     		mov	r1, r6
 624 0062 2844     		add	r0, r0, r5
 625 0064 5246     		mov	r2, r10
 626 0066 FFF7FEFF 		bl	memcpy
 627              	.LVL67:
 628 006a 0134     		adds	r4, r4, #1
 629              	.LVL68:
 268:..\..\..\lvgl\version_6.1.2\lvgl\src\lv_objx/lv_canvas.c ****         to_copy8 += w * px_size;
 630              		.loc 1 268 0 discriminator 3
 631 006c 3B69     		ldr	r3, [r7, #16]
 632 006e 24B2     		sxth	r4, r4
 633 0070 C3F38A23 		ubfx	r3, r3, #10, #11
 266:..\..\..\lvgl\version_6.1.2\lvgl\src\lv_objx/lv_canvas.c ****         memcpy((void *)&ext->dsc.data[px], to_copy8, w * px_size);
 634              		.loc 1 266 0 discriminator 3
 635 0074 A045     		cmp	r8, r4
 269:..\..\..\lvgl\version_6.1.2\lvgl\src\lv_objx/lv_canvas.c ****     }
 636              		.loc 1 269 0 discriminator 3
 637 0076 5644     		add	r6, r6, r10
 638              	.LVL69:
 268:..\..\..\lvgl\version_6.1.2\lvgl\src\lv_objx/lv_canvas.c ****         to_copy8 += w * px_size;
 639              		.loc 1 268 0 discriminator 3
 640 0078 03FB0955 		mla	r5, r3, r9, r5
 641              	.LVL70:
 266:..\..\..\lvgl\version_6.1.2\lvgl\src\lv_objx/lv_canvas.c ****         memcpy((void *)&ext->dsc.data[px], to_copy8, w * px_size);
 642              		.loc 1 266 0 discriminator 3
 643 007c EFD1     		bne	.L48
 644 007e BDE8F88F 		pop	{r3, r4, r5, r6, r7, r8, r9, r10, fp, pc}
 645              		.cfi_endproc
 646              	.LFE43:
 647              		.size	lv_canvas_copy_buf, .-lv_canvas_copy_buf
 648 0082 00BF     		.section	.text.lv_canvas_rotate,"ax",%progbits
ARM GAS  C:\Users\pearlstl\AppData\Local\Temp\ccQFxYtd.s 			page 32


 649              		.align	2
 650              		.global	lv_canvas_rotate
 651              		.thumb
 652              		.thumb_func
 653              		.type	lv_canvas_rotate, %function
 654              	lv_canvas_rotate:
 655              	.LFB44:
 288:..\..\..\lvgl\version_6.1.2\lvgl\src\lv_objx/lv_canvas.c ****     LV_ASSERT_OBJ(canvas, LV_OBJX_NAME);
 656              		.loc 1 288 0
 657              		.cfi_startproc
 658              		@ args = 12, pretend = 0, frame = 168
 659              		@ frame_needed = 0, uses_anonymous_args = 0
 660              	.LVL71:
 661 0000 2DE9F04F 		push	{r4, r5, r6, r7, r8, r9, r10, fp, lr}
 662              		.cfi_def_cfa_offset 36
 663              		.cfi_offset 4, -36
 664              		.cfi_offset 5, -32
 665              		.cfi_offset 6, -28
 666              		.cfi_offset 7, -24
 667              		.cfi_offset 8, -20
 668              		.cfi_offset 9, -16
 669              		.cfi_offset 10, -12
 670              		.cfi_offset 11, -8
 671              		.cfi_offset 14, -4
 672 0004 ABB0     		sub	sp, sp, #172
 673              		.cfi_def_cfa_offset 208
 288:..\..\..\lvgl\version_6.1.2\lvgl\src\lv_objx/lv_canvas.c ****     LV_ASSERT_OBJ(canvas, LV_OBJX_NAME);
 674              		.loc 1 288 0
 675 0006 1D46     		mov	r5, r3
 676 0008 369B     		ldr	r3, [sp, #216]
 677              	.LVL72:
 678 000a 1491     		str	r1, [sp, #80]
 294:..\..\..\lvgl\version_6.1.2\lvgl\src\lv_objx/lv_canvas.c ****     int32_t cosma             = lv_trigo_sin(-angle + 90); /* cos */
 679              		.loc 1 294 0
 680 000c 97B2     		uxth	r7, r2
 288:..\..\..\lvgl\version_6.1.2\lvgl\src\lv_objx/lv_canvas.c ****     LV_ASSERT_OBJ(canvas, LV_OBJX_NAME);
 681              		.loc 1 288 0
 682 000e 8B46     		mov	fp, r1
 683 0010 0093     		str	r3, [sp]
 684 0012 8046     		mov	r8, r0
 685 0014 2090     		str	r0, [sp, #128]
 686 0016 BDF9D040 		ldrsh	r4, [sp, #208]
 687 001a 359E     		ldr	r6, [sp, #212]
 292:..\..\..\lvgl\version_6.1.2\lvgl\src\lv_objx/lv_canvas.c ****     const lv_style_t * style  = lv_canvas_get_style(canvas, LV_CANVAS_STYLE_MAIN);
 688              		.loc 1 292 0
 689 001c FFF7FEFF 		bl	lv_obj_get_ext_attr
 690              	.LVL73:
 691 0020 8146     		mov	r9, r0
 692 0022 0C90     		str	r0, [sp, #48]
 693              	.LVL74:
 694              	.LBB71:
 695              	.LBB72:
 696              	.LBB73:
 697              	.LBB74:
 698              		.loc 2 163 0
 699 0024 4046     		mov	r0, r8
 700              	.LVL75:
ARM GAS  C:\Users\pearlstl\AppData\Local\Temp\ccQFxYtd.s 			page 33


 701 0026 FFF7FEFF 		bl	lv_obj_get_style
 702              	.LVL76:
 703 002a 1590     		str	r0, [sp, #84]
 704              	.LVL77:
 705              	.LBE74:
 706              	.LBE73:
 707              	.LBE72:
 708              	.LBE71:
 294:..\..\..\lvgl\version_6.1.2\lvgl\src\lv_objx/lv_canvas.c ****     int32_t cosma             = lv_trigo_sin(-angle + 90); /* cos */
 709              		.loc 1 294 0
 710 002c 7842     		negs	r0, r7
 711 002e 00B2     		sxth	r0, r0
 712 0030 FFF7FEFF 		bl	lv_trigo_sin
 713              	.LVL78:
 714 0034 8246     		mov	r10, r0
 715              	.LVL79:
 295:..\..\..\lvgl\version_6.1.2\lvgl\src\lv_objx/lv_canvas.c **** 
 716              		.loc 1 295 0
 717 0036 C7F15A00 		rsb	r0, r7, #90
 718              	.LVL80:
 719 003a 00B2     		sxth	r0, r0
 720 003c FFF7FEFF 		bl	lv_trigo_sin
 721              	.LVL81:
 299:..\..\..\lvgl\version_6.1.2\lvgl\src\lv_objx/lv_canvas.c ****     int32_t dest_height = ext_dst->dsc.header.h;
 722              		.loc 1 299 0
 723 0040 D9F81020 		ldr	r2, [r9, #16]
 297:..\..\..\lvgl\version_6.1.2\lvgl\src\lv_objx/lv_canvas.c ****     int32_t img_height  = img->header.h;
 724              		.loc 1 297 0
 725 0044 DBF80030 		ldr	r3, [fp]
 298:..\..\..\lvgl\version_6.1.2\lvgl\src\lv_objx/lv_canvas.c ****     int32_t dest_width  = ext_dst->dsc.header.w;
 726              		.loc 1 298 0
 727 0048 BBF80270 		ldrh	r7, [fp, #2]
 728              	.LVL82:
 299:..\..\..\lvgl\version_6.1.2\lvgl\src\lv_objx/lv_canvas.c ****     int32_t dest_height = ext_dst->dsc.header.h;
 729              		.loc 1 299 0
 730 004c C2F38A22 		ubfx	r2, r2, #10, #11
 295:..\..\..\lvgl\version_6.1.2\lvgl\src\lv_objx/lv_canvas.c **** 
 731              		.loc 1 295 0
 732 0050 8046     		mov	r8, r0
 733              	.LVL83:
 300:..\..\..\lvgl\version_6.1.2\lvgl\src\lv_objx/lv_canvas.c **** 
 734              		.loc 1 300 0
 735 0052 B9F81200 		ldrh	r0, [r9, #18]
 736              	.LVL84:
 299:..\..\..\lvgl\version_6.1.2\lvgl\src\lv_objx/lv_canvas.c ****     int32_t dest_height = ext_dst->dsc.header.h;
 737              		.loc 1 299 0
 738 0056 2192     		str	r2, [sp, #132]
 304:..\..\..\lvgl\version_6.1.2\lvgl\src\lv_objx/lv_canvas.c ****         for(y = -offset_y; y < dest_height - offset_y; y++) {
 739              		.loc 1 304 0
 740 0058 511B     		subs	r1, r2, r5
 297:..\..\..\lvgl\version_6.1.2\lvgl\src\lv_objx/lv_canvas.c ****     int32_t img_height  = img->header.h;
 741              		.loc 1 297 0
 742 005a C3F38A29 		ubfx	r9, r3, #10, #11
 743              	.LVL85:
 304:..\..\..\lvgl\version_6.1.2\lvgl\src\lv_objx/lv_canvas.c ****         for(y = -offset_y; y < dest_height - offset_y; y++) {
 744              		.loc 1 304 0
 745 005e 6A42     		negs	r2, r5
ARM GAS  C:\Users\pearlstl\AppData\Local\Temp\ccQFxYtd.s 			page 34


 298:..\..\..\lvgl\version_6.1.2\lvgl\src\lv_objx/lv_canvas.c ****     int32_t dest_width  = ext_dst->dsc.header.w;
 746              		.loc 1 298 0
 747 0060 C7F34A13 		ubfx	r3, r7, #5, #11
 748 0064 0293     		str	r3, [sp, #8]
 749              	.LVL86:
 304:..\..\..\lvgl\version_6.1.2\lvgl\src\lv_objx/lv_canvas.c ****         for(y = -offset_y; y < dest_height - offset_y; y++) {
 750              		.loc 1 304 0
 751 0066 9142     		cmp	r1, r2
 300:..\..\..\lvgl\version_6.1.2\lvgl\src\lv_objx/lv_canvas.c **** 
 752              		.loc 1 300 0
 753 0068 C0F34A13 		ubfx	r3, r0, #5, #11
 754              	.LVL87:
 755 006c 1B93     		str	r3, [sp, #108]
 756              	.LVL88:
 304:..\..\..\lvgl\version_6.1.2\lvgl\src\lv_objx/lv_canvas.c ****         for(y = -offset_y; y < dest_height - offset_y; y++) {
 757              		.loc 1 304 0
 758 006e 73DD     		ble	.L56
 759 0070 6342     		negs	r3, r4
 760              	.LVL89:
 761 0072 009F     		ldr	r7, [sp]
 762 0074 0993     		str	r3, [sp, #36]
 763 0076 1846     		mov	r0, r3
 764 0078 921B     		subs	r2, r2, r6
 765              	.LVL90:
 766 007a DB1B     		subs	r3, r3, r7
 767 007c 04EB000C 		add	ip, r4, r0
 768 0080 02FB08F7 		mul	r7, r2, r8
 769 0084 1B98     		ldr	r0, [sp, #108]
 770 0086 4D19     		adds	r5, r1, r5
 771              	.LVL91:
 772 0088 03FB08FE 		mul	lr, r3, r8
 773 008c 0099     		ldr	r1, [sp]
 774 008e 0B95     		str	r5, [sp, #44]
 775 0090 03FB1A73 		mls	r3, r3, r10, r7
 776 0094 001B     		subs	r0, r0, r4
 777 0096 0593     		str	r3, [sp, #20]
 778 0098 1FFA8CF3 		uxth	r3, ip
 779 009c 4FEA062B 		lsl	fp, r6, #8
 780              	.LVL92:
 781 00a0 0025     		movs	r5, #0
 782 00a2 0902     		lsls	r1, r1, #8
 783 00a4 02FB0AE2 		mla	r2, r2, r10, lr
 784 00a8 0E93     		str	r3, [sp, #56]
 785 00aa 0319     		adds	r3, r0, r4
 786 00ac 4E46     		mov	r6, r9
 787 00ae 0A90     		str	r0, [sp, #40]
 788 00b0 0795     		str	r5, [sp, #28]
 789 00b2 0391     		str	r1, [sp, #12]
 790 00b4 0692     		str	r2, [sp, #24]
 791 00b6 0193     		str	r3, [sp, #4]
 792 00b8 0495     		str	r5, [sp, #16]
 793 00ba 5446     		mov	r4, r10
 794 00bc CDF83CB0 		str	fp, [sp, #60]
 795 00c0 C146     		mov	r9, r8
 796              	.LVL93:
 797              	.L55:
 305:..\..\..\lvgl\version_6.1.2\lvgl\src\lv_objx/lv_canvas.c ****             /*Get the target point relative coordinates to the pivot*/
ARM GAS  C:\Users\pearlstl\AppData\Local\Temp\ccQFxYtd.s 			page 35


 798              		.loc 1 305 0
 799 00c2 099B     		ldr	r3, [sp, #36]
 800 00c4 0A9A     		ldr	r2, [sp, #40]
 801 00c6 9342     		cmp	r3, r2
 802 00c8 36DA     		bge	.L77
 803              	.LBB75:
 804              	.LBB76:
 402:..\..\..\lvgl\version_6.1.2\lvgl\src\lv_objx/lv_canvas.c **** 
 805              		.loc 1 402 0
 806 00ca 0C9B     		ldr	r3, [sp, #48]
 807 00cc DDF838A0 		ldr	r10, [sp, #56]
 808              	.LBE76:
 809              	.LBE75:
 305:..\..\..\lvgl\version_6.1.2\lvgl\src\lv_objx/lv_canvas.c ****             /*Get the target point relative coordinates to the pivot*/
 810              		.loc 1 305 0
 811 00d0 069D     		ldr	r5, [sp, #24]
 812 00d2 DDF814B0 		ldr	fp, [sp, #20]
 813              	.LBB137:
 814              	.LBB87:
 402:..\..\..\lvgl\version_6.1.2\lvgl\src\lv_objx/lv_canvas.c **** 
 815              		.loc 1 402 0
 816 00d6 1033     		adds	r3, r3, #16
 817 00d8 1093     		str	r3, [sp, #64]
 818 00da BDF91030 		ldrsh	r3, [sp, #16]
 819 00de 0D93     		str	r3, [sp, #52]
 820              	.LBE87:
 821              	.LBB88:
 378:..\..\..\lvgl\version_6.1.2\lvgl\src\lv_objx/lv_canvas.c ****                 if(c_dest_int.full == ct.full) continue;
 822              		.loc 1 378 0
 823 00e0 0F9B     		ldr	r3, [sp, #60]
 824 00e2 0093     		str	r3, [sp]
 825 00e4 4FF00008 		mov	r8, #0
 826              	.L76:
 827              	.LVL94:
 828              	.LBE88:
 311:..\..\..\lvgl\version_6.1.2\lvgl\src\lv_objx/lv_canvas.c ****             int32_t ys = ((sinma * xt + cosma * yt) >> (LV_TRIGO_SHIFT - 8)) + pivot_y * 256;
 829              		.loc 1 311 0
 830 00e8 009B     		ldr	r3, [sp]
 831 00ea 03EBEB12 		add	r2, r3, fp, asr #7
 832              	.LVL95:
 315:..\..\..\lvgl\version_6.1.2\lvgl\src\lv_objx/lv_canvas.c ****             int ys_int = ys >> 8;
 833              		.loc 1 315 0
 834 00ee 1312     		asrs	r3, r2, #8
 835              	.LVL96:
 318:..\..\..\lvgl\version_6.1.2\lvgl\src\lv_objx/lv_canvas.c ****                 continue;
 836              		.loc 1 318 0
 837 00f0 9E42     		cmp	r6, r3
 838 00f2 15DD     		ble	.L75
 320:..\..\..\lvgl\version_6.1.2\lvgl\src\lv_objx/lv_canvas.c ****                 continue;
 839              		.loc 1 320 0
 840 00f4 002B     		cmp	r3, #0
 841 00f6 13DB     		blt	.L75
 312:..\..\..\lvgl\version_6.1.2\lvgl\src\lv_objx/lv_canvas.c **** 
 842              		.loc 1 312 0
 843 00f8 0399     		ldr	r1, [sp, #12]
 323:..\..\..\lvgl\version_6.1.2\lvgl\src\lv_objx/lv_canvas.c ****                 continue;
 844              		.loc 1 323 0
ARM GAS  C:\Users\pearlstl\AppData\Local\Temp\ccQFxYtd.s 			page 36


 845 00fa 029F     		ldr	r7, [sp, #8]
 312:..\..\..\lvgl\version_6.1.2\lvgl\src\lv_objx/lv_canvas.c **** 
 846              		.loc 1 312 0
 847 00fc 01EBE510 		add	r0, r1, r5, asr #7
 316:..\..\..\lvgl\version_6.1.2\lvgl\src\lv_objx/lv_canvas.c **** 
 848              		.loc 1 316 0
 849 0100 0112     		asrs	r1, r0, #8
 323:..\..\..\lvgl\version_6.1.2\lvgl\src\lv_objx/lv_canvas.c ****                 continue;
 850              		.loc 1 323 0
 851 0102 8F42     		cmp	r7, r1
 852 0104 0CDD     		ble	.L75
 325:..\..\..\lvgl\version_6.1.2\lvgl\src\lv_objx/lv_canvas.c ****                 continue;
 853              		.loc 1 325 0
 854 0106 0029     		cmp	r1, #0
 855 0108 0ADB     		blt	.L75
 329:..\..\..\lvgl\version_6.1.2\lvgl\src\lv_objx/lv_canvas.c ****             int ys_fract = ys & 0xff;
 856              		.loc 1 329 0
 857 010a 5FFA82FE 		uxtb	lr, r2
 858              	.LVL97:
 338:..\..\..\lvgl\version_6.1.2\lvgl\src\lv_objx/lv_canvas.c ****                 xn = xs_int - 1;
 859              		.loc 1 338 0
 860 010e BEF16F0F 		cmp	lr, #111
 861 0112 27DC     		bgt	.L58
 339:..\..\..\lvgl\version_6.1.2\lvgl\src\lv_objx/lv_canvas.c ****                 xr = xs_fract * 2;
 862              		.loc 1 339 0
 863 0114 5F1E     		subs	r7, r3, #1
 350:..\..\..\lvgl\version_6.1.2\lvgl\src\lv_objx/lv_canvas.c ****                 continue;
 864              		.loc 1 350 0
 865 0116 BE42     		cmp	r6, r7
 339:..\..\..\lvgl\version_6.1.2\lvgl\src\lv_objx/lv_canvas.c ****                 xr = xs_fract * 2;
 866              		.loc 1 339 0
 867 0118 0897     		str	r7, [sp, #32]
 868              	.LVL98:
 350:..\..\..\lvgl\version_6.1.2\lvgl\src\lv_objx/lv_canvas.c ****                 continue;
 869              		.loc 1 350 0
 870 011a 01DD     		ble	.L75
 352:..\..\..\lvgl\version_6.1.2\lvgl\src\lv_objx/lv_canvas.c ****                 continue;
 871              		.loc 1 352 0
 872 011c 0137     		adds	r7, r7, #1
 873              	.LVL99:
 874 011e 4CD1     		bne	.L96
 875              	.LVL100:
 876              	.L75:
 877              	.LBE137:
 305:..\..\..\lvgl\version_6.1.2\lvgl\src\lv_objx/lv_canvas.c ****             /*Get the target point relative coordinates to the pivot*/
 878              		.loc 1 305 0 discriminator 2
 879 0120 019B     		ldr	r3, [sp, #4]
 880              	.LVL101:
 881 0122 08F10108 		add	r8, r8, #1
 882 0126 0AF1010A 		add	r10, r10, #1
 883 012a 4345     		cmp	r3, r8
 884 012c 1FFA8AFA 		uxth	r10, r10
 885 0130 C4EB0B0B 		rsb	fp, r4, fp
 886              	.LVL102:
 887 0134 4D44     		add	r5, r5, r9
 888 0136 D7D1     		bne	.L76
 889              	.L77:
ARM GAS  C:\Users\pearlstl\AppData\Local\Temp\ccQFxYtd.s 			page 37


 890 0138 049B     		ldr	r3, [sp, #16]
 891 013a 079A     		ldr	r2, [sp, #28]
 892 013c 0133     		adds	r3, r3, #1
 893 013e 9BB2     		uxth	r3, r3
 894 0140 0493     		str	r3, [sp, #16]
 895 0142 059B     		ldr	r3, [sp, #20]
 896 0144 4B44     		add	r3, r3, r9
 897 0146 0593     		str	r3, [sp, #20]
 898 0148 069B     		ldr	r3, [sp, #24]
 899 014a 2344     		add	r3, r3, r4
 900 014c 0693     		str	r3, [sp, #24]
 304:..\..\..\lvgl\version_6.1.2\lvgl\src\lv_objx/lv_canvas.c ****         for(y = -offset_y; y < dest_height - offset_y; y++) {
 901              		.loc 1 304 0
 902 014e 0B9B     		ldr	r3, [sp, #44]
 903 0150 0132     		adds	r2, r2, #1
 904 0152 9A42     		cmp	r2, r3
 905 0154 0792     		str	r2, [sp, #28]
 906 0156 B4D1     		bne	.L55
 907              	.LVL103:
 908              	.L56:
 446:..\..\..\lvgl\version_6.1.2\lvgl\src\lv_objx/lv_canvas.c **** }
 909              		.loc 1 446 0
 910 0158 2098     		ldr	r0, [sp, #128]
 447:..\..\..\lvgl\version_6.1.2\lvgl\src\lv_objx/lv_canvas.c **** 
 911              		.loc 1 447 0
 912 015a 2BB0     		add	sp, sp, #172
 913              		.cfi_remember_state
 914              		.cfi_def_cfa_offset 36
 915              		@ sp needed
 916 015c BDE8F04F 		pop	{r4, r5, r6, r7, r8, r9, r10, fp, lr}
 917              		.cfi_restore 14
 918              		.cfi_restore 11
 919              		.cfi_restore 10
 920              		.cfi_restore 9
 921              		.cfi_restore 8
 922              		.cfi_restore 7
 923              		.cfi_restore 6
 924              		.cfi_restore 5
 925              		.cfi_restore 4
 926              		.cfi_def_cfa_offset 0
 927              	.LVL104:
 446:..\..\..\lvgl\version_6.1.2\lvgl\src\lv_objx/lv_canvas.c **** }
 928              		.loc 1 446 0
 929 0160 FFF7FEBF 		b	lv_obj_invalidate
 930              	.LVL105:
 931              	.L58:
 932              		.cfi_restore_state
 933              	.LBB138:
 341:..\..\..\lvgl\version_6.1.2\lvgl\src\lv_objx/lv_canvas.c ****                 xn = xs_int + 1;
 934              		.loc 1 341 0
 935 0164 BEF1900F 		cmp	lr, #144
 936 0168 09DD     		ble	.L78
 342:..\..\..\lvgl\version_6.1.2\lvgl\src\lv_objx/lv_canvas.c ****                 xr = (0xFF - xs_fract) * 2;
 937              		.loc 1 342 0
 938 016a 5A1C     		adds	r2, r3, #1
 939              	.LVL106:
 350:..\..\..\lvgl\version_6.1.2\lvgl\src\lv_objx/lv_canvas.c ****                 continue;
ARM GAS  C:\Users\pearlstl\AppData\Local\Temp\ccQFxYtd.s 			page 38


 940              		.loc 1 350 0
 941 016c 9642     		cmp	r6, r2
 342:..\..\..\lvgl\version_6.1.2\lvgl\src\lv_objx/lv_canvas.c ****                 xr = (0xFF - xs_fract) * 2;
 942              		.loc 1 342 0
 943 016e 0892     		str	r2, [sp, #32]
 944              	.LVL107:
 350:..\..\..\lvgl\version_6.1.2\lvgl\src\lv_objx/lv_canvas.c ****                 continue;
 945              		.loc 1 350 0
 946 0170 D6DD     		ble	.L75
 343:..\..\..\lvgl\version_6.1.2\lvgl\src\lv_objx/lv_canvas.c ****             } else {
 947              		.loc 1 343 0
 948 0172 CEF1FF02 		rsb	r2, lr, #255
 949              	.LVL108:
 950 0176 5200     		lsls	r2, r2, #1
 951              	.LVL109:
 952 0178 D2B2     		uxtb	r2, r2
 953 017a 1292     		str	r2, [sp, #72]
 954 017c 02E0     		b	.L60
 955              	.LVL110:
 956              	.L78:
 346:..\..\..\lvgl\version_6.1.2\lvgl\src\lv_objx/lv_canvas.c ****             }
 957              		.loc 1 346 0
 958 017e FF22     		movs	r2, #255
 959              	.LVL111:
 960 0180 0893     		str	r3, [sp, #32]
 961 0182 1292     		str	r2, [sp, #72]
 962              	.L60:
 330:..\..\..\lvgl\version_6.1.2\lvgl\src\lv_objx/lv_canvas.c **** 
 963              		.loc 1 330 0
 964 0184 C2B2     		uxtb	r2, r0
 357:..\..\..\lvgl\version_6.1.2\lvgl\src\lv_objx/lv_canvas.c ****                 yn = ys_int - 1;
 965              		.loc 1 357 0
 966 0186 6F2A     		cmp	r2, #111
 967 0188 0ADC     		bgt	.L61
 369:..\..\..\lvgl\version_6.1.2\lvgl\src\lv_objx/lv_canvas.c ****                 continue;
 968              		.loc 1 369 0
 969 018a 029F     		ldr	r7, [sp, #8]
 358:..\..\..\lvgl\version_6.1.2\lvgl\src\lv_objx/lv_canvas.c ****                 yr = ys_fract * 2;
 970              		.loc 1 358 0
 971 018c 4A1E     		subs	r2, r1, #1
 369:..\..\..\lvgl\version_6.1.2\lvgl\src\lv_objx/lv_canvas.c ****                 continue;
 972              		.loc 1 369 0
 973 018e 9742     		cmp	r7, r2
 358:..\..\..\lvgl\version_6.1.2\lvgl\src\lv_objx/lv_canvas.c ****                 yr = ys_fract * 2;
 974              		.loc 1 358 0
 975 0190 1192     		str	r2, [sp, #68]
 976              	.LVL112:
 369:..\..\..\lvgl\version_6.1.2\lvgl\src\lv_objx/lv_canvas.c ****                 continue;
 977              		.loc 1 369 0
 978 0192 C5DD     		ble	.L75
 371:..\..\..\lvgl\version_6.1.2\lvgl\src\lv_objx/lv_canvas.c ****                 continue;
 979              		.loc 1 371 0
 980 0194 0132     		adds	r2, r2, #1
 981              	.LVL113:
 982 0196 C3D0     		beq	.L75
 359:..\..\..\lvgl\version_6.1.2\lvgl\src\lv_objx/lv_canvas.c ****             } else if(ys_fract > 0x90) {
 983              		.loc 1 359 0
ARM GAS  C:\Users\pearlstl\AppData\Local\Temp\ccQFxYtd.s 			page 39


 984 0198 4000     		lsls	r0, r0, #1
 985 019a C2B2     		uxtb	r2, r0
 986 019c 1792     		str	r2, [sp, #92]
 987 019e 13E0     		b	.L63
 988              	.LVL114:
 989              	.L61:
 360:..\..\..\lvgl\version_6.1.2\lvgl\src\lv_objx/lv_canvas.c ****                 yn = ys_int + 1;
 990              		.loc 1 360 0
 991 01a0 902A     		cmp	r2, #144
 992 01a2 0EDD     		ble	.L79
 369:..\..\..\lvgl\version_6.1.2\lvgl\src\lv_objx/lv_canvas.c ****                 continue;
 993              		.loc 1 369 0
 994 01a4 029F     		ldr	r7, [sp, #8]
 361:..\..\..\lvgl\version_6.1.2\lvgl\src\lv_objx/lv_canvas.c ****                 yr = (0xFF - ys_fract) * 2;
 995              		.loc 1 361 0
 996 01a6 481C     		adds	r0, r1, #1
 369:..\..\..\lvgl\version_6.1.2\lvgl\src\lv_objx/lv_canvas.c ****                 continue;
 997              		.loc 1 369 0
 998 01a8 8742     		cmp	r7, r0
 361:..\..\..\lvgl\version_6.1.2\lvgl\src\lv_objx/lv_canvas.c ****                 yr = (0xFF - ys_fract) * 2;
 999              		.loc 1 361 0
 1000 01aa 1190     		str	r0, [sp, #68]
 1001              	.LVL115:
 369:..\..\..\lvgl\version_6.1.2\lvgl\src\lv_objx/lv_canvas.c ****                 continue;
 1002              		.loc 1 369 0
 1003 01ac B8DD     		ble	.L75
 362:..\..\..\lvgl\version_6.1.2\lvgl\src\lv_objx/lv_canvas.c ****             } else {
 1004              		.loc 1 362 0
 1005 01ae C2F1FF02 		rsb	r2, r2, #255
 1006 01b2 5200     		lsls	r2, r2, #1
 1007 01b4 D2B2     		uxtb	r2, r2
 1008 01b6 1792     		str	r2, [sp, #92]
 1009 01b8 06E0     		b	.L63
 1010              	.LVL116:
 1011              	.L96:
 340:..\..\..\lvgl\version_6.1.2\lvgl\src\lv_objx/lv_canvas.c ****             } else if(xs_fract > 0x90) {
 1012              		.loc 1 340 0
 1013 01ba 5200     		lsls	r2, r2, #1
 1014              	.LVL117:
 1015 01bc D2B2     		uxtb	r2, r2
 1016 01be 1292     		str	r2, [sp, #72]
 1017 01c0 E0E7     		b	.L60
 1018              	.LVL118:
 1019              	.L79:
 365:..\..\..\lvgl\version_6.1.2\lvgl\src\lv_objx/lv_canvas.c ****             }
 1020              		.loc 1 365 0
 1021 01c2 FF22     		movs	r2, #255
 1022 01c4 1191     		str	r1, [sp, #68]
 1023 01c6 1792     		str	r2, [sp, #92]
 1024              	.L63:
 375:..\..\..\lvgl\version_6.1.2\lvgl\src\lv_objx/lv_canvas.c **** 
 1025              		.loc 1 375 0
 1026 01c8 149F     		ldr	r7, [sp, #80]
 1027 01ca 1BB2     		sxth	r3, r3
 1028              	.LVL119:
 1029 01cc 0AB2     		sxth	r2, r1
 1030 01ce 1893     		str	r3, [sp, #96]
ARM GAS  C:\Users\pearlstl\AppData\Local\Temp\ccQFxYtd.s 			page 40


 1031 01d0 1946     		mov	r1, r3
 1032 01d2 3846     		mov	r0, r7
 1033 01d4 159B     		ldr	r3, [sp, #84]
 1034 01d6 1992     		str	r2, [sp, #100]
 1035 01d8 FFF7FEFF 		bl	lv_img_buf_get_px_color
 1036              	.LVL120:
 1037 01dc 1390     		str	r0, [sp, #76]
 377:..\..\..\lvgl\version_6.1.2\lvgl\src\lv_objx/lv_canvas.c ****                 lv_color_t ct = LV_COLOR_TRANSP;
 1038              		.loc 1 377 0
 1039 01de 3878     		ldrb	r0, [r7]	@ zero_extendqisi2
 1040 01e0 00F01F00 		and	r0, r0, #31
 1041 01e4 FFF7FEFF 		bl	lv_img_color_format_is_chroma_keyed
 1042              	.LVL121:
 1043 01e8 30B1     		cbz	r0, .L64
 1044              	.LBB89:
 378:..\..\..\lvgl\version_6.1.2\lvgl\src\lv_objx/lv_canvas.c ****                 if(c_dest_int.full == ct.full) continue;
 1045              		.loc 1 378 0
 1046 01ea 4FF0FF23 		mov	r3, #-16711936
 1047 01ee 2993     		str	r3, [sp, #164]
 379:..\..\..\lvgl\version_6.1.2\lvgl\src\lv_objx/lv_canvas.c ****             }
 1048              		.loc 1 379 0
 1049 01f0 139B     		ldr	r3, [sp, #76]
 1050              	.LVL122:
 1051 01f2 B3F1FF2F 		cmp	r3, #-16711936
 1052 01f6 93D0     		beq	.L75
 1053              	.L64:
 1054              	.LBE89:
 382:..\..\..\lvgl\version_6.1.2\lvgl\src\lv_objx/lv_canvas.c ****             lv_color_t c_dest_yn = lv_img_buf_get_px_color(img, xs_int, yn, style);
 1055              		.loc 1 382 0
 1056 01f8 BDF92030 		ldrsh	r3, [sp, #32]
 1057              	.LVL123:
 383:..\..\..\lvgl\version_6.1.2\lvgl\src\lv_objx/lv_canvas.c ****             lv_color_t x_dest    = lv_color_mix(c_dest_int, c_dest_xn, xr);
 1058              		.loc 1 383 0
 1059 01fc BDF94420 		ldrsh	r2, [sp, #68]
 382:..\..\..\lvgl\version_6.1.2\lvgl\src\lv_objx/lv_canvas.c ****             lv_color_t c_dest_yn = lv_img_buf_get_px_color(img, xs_int, yn, style);
 1060              		.loc 1 382 0
 1061 0200 2293     		str	r3, [sp, #136]
 383:..\..\..\lvgl\version_6.1.2\lvgl\src\lv_objx/lv_canvas.c ****             lv_color_t x_dest    = lv_color_mix(c_dest_int, c_dest_xn, xr);
 1062              		.loc 1 383 0
 1063 0202 1746     		mov	r7, r2
 382:..\..\..\lvgl\version_6.1.2\lvgl\src\lv_objx/lv_canvas.c ****             lv_color_t c_dest_yn = lv_img_buf_get_px_color(img, xs_int, yn, style);
 1064              		.loc 1 382 0
 1065 0204 1946     		mov	r1, r3
 383:..\..\..\lvgl\version_6.1.2\lvgl\src\lv_objx/lv_canvas.c ****             lv_color_t x_dest    = lv_color_mix(c_dest_int, c_dest_xn, xr);
 1066              		.loc 1 383 0
 1067 0206 2392     		str	r2, [sp, #140]
 382:..\..\..\lvgl\version_6.1.2\lvgl\src\lv_objx/lv_canvas.c ****             lv_color_t c_dest_yn = lv_img_buf_get_px_color(img, xs_int, yn, style);
 1068              		.loc 1 382 0
 1069 0208 159B     		ldr	r3, [sp, #84]
 1070 020a 199A     		ldr	r2, [sp, #100]
 1071 020c 1498     		ldr	r0, [sp, #80]
 1072 020e FFF7FEFF 		bl	lv_img_buf_get_px_color
 1073              	.LVL124:
 383:..\..\..\lvgl\version_6.1.2\lvgl\src\lv_objx/lv_canvas.c ****             lv_color_t x_dest    = lv_color_mix(c_dest_int, c_dest_xn, xr);
 1074              		.loc 1 383 0
 1075 0212 3A46     		mov	r2, r7
 1076              	.LBB90:
ARM GAS  C:\Users\pearlstl\AppData\Local\Temp\ccQFxYtd.s 			page 41


 1077              	.LBB91:
 1078              		.file 3 "..\\..\\..\\lvgl\\version_6.1.2\\lvgl\\src\\lv_objx\\../lv_core/../lv_misc/lv_color.h"
   1:..\..\..\lvgl\version_6.1.2\lvgl\src\lv_objx\../lv_core/../lv_misc/lv_color.h **** /**
   2:..\..\..\lvgl\version_6.1.2\lvgl\src\lv_objx\../lv_core/../lv_misc/lv_color.h ****  * @file lv_color.h
   3:..\..\..\lvgl\version_6.1.2\lvgl\src\lv_objx\../lv_core/../lv_misc/lv_color.h ****  *
   4:..\..\..\lvgl\version_6.1.2\lvgl\src\lv_objx\../lv_core/../lv_misc/lv_color.h ****  */
   5:..\..\..\lvgl\version_6.1.2\lvgl\src\lv_objx\../lv_core/../lv_misc/lv_color.h **** 
   6:..\..\..\lvgl\version_6.1.2\lvgl\src\lv_objx\../lv_core/../lv_misc/lv_color.h **** #ifndef LV_COLOR_H
   7:..\..\..\lvgl\version_6.1.2\lvgl\src\lv_objx\../lv_core/../lv_misc/lv_color.h **** #define LV_COLOR_H
   8:..\..\..\lvgl\version_6.1.2\lvgl\src\lv_objx\../lv_core/../lv_misc/lv_color.h **** 
   9:..\..\..\lvgl\version_6.1.2\lvgl\src\lv_objx\../lv_core/../lv_misc/lv_color.h **** #ifdef __cplusplus
  10:..\..\..\lvgl\version_6.1.2\lvgl\src\lv_objx\../lv_core/../lv_misc/lv_color.h **** extern "C" {
  11:..\..\..\lvgl\version_6.1.2\lvgl\src\lv_objx\../lv_core/../lv_misc/lv_color.h **** #endif
  12:..\..\..\lvgl\version_6.1.2\lvgl\src\lv_objx\../lv_core/../lv_misc/lv_color.h **** 
  13:..\..\..\lvgl\version_6.1.2\lvgl\src\lv_objx\../lv_core/../lv_misc/lv_color.h **** /*********************
  14:..\..\..\lvgl\version_6.1.2\lvgl\src\lv_objx\../lv_core/../lv_misc/lv_color.h ****  *      INCLUDES
  15:..\..\..\lvgl\version_6.1.2\lvgl\src\lv_objx\../lv_core/../lv_misc/lv_color.h ****  *********************/
  16:..\..\..\lvgl\version_6.1.2\lvgl\src\lv_objx\../lv_core/../lv_misc/lv_color.h **** #ifdef LV_CONF_INCLUDE_SIMPLE
  17:..\..\..\lvgl\version_6.1.2\lvgl\src\lv_objx\../lv_core/../lv_misc/lv_color.h **** #include "lv_conf.h"
  18:..\..\..\lvgl\version_6.1.2\lvgl\src\lv_objx\../lv_core/../lv_misc/lv_color.h **** #else
  19:..\..\..\lvgl\version_6.1.2\lvgl\src\lv_objx\../lv_core/../lv_misc/lv_color.h **** #include "../../../lv_conf.h"
  20:..\..\..\lvgl\version_6.1.2\lvgl\src\lv_objx\../lv_core/../lv_misc/lv_color.h **** #endif
  21:..\..\..\lvgl\version_6.1.2\lvgl\src\lv_objx\../lv_core/../lv_misc/lv_color.h **** 
  22:..\..\..\lvgl\version_6.1.2\lvgl\src\lv_objx\../lv_core/../lv_misc/lv_color.h **** /*Error checking*/
  23:..\..\..\lvgl\version_6.1.2\lvgl\src\lv_objx\../lv_core/../lv_misc/lv_color.h **** #if LV_COLOR_DEPTH == 24
  24:..\..\..\lvgl\version_6.1.2\lvgl\src\lv_objx\../lv_core/../lv_misc/lv_color.h **** #error "LV_COLOR_DEPTH  24 is deprecated. Use LV_COLOR_DEPTH  32 instead (lv_conf.h)"
  25:..\..\..\lvgl\version_6.1.2\lvgl\src\lv_objx\../lv_core/../lv_misc/lv_color.h **** #endif
  26:..\..\..\lvgl\version_6.1.2\lvgl\src\lv_objx\../lv_core/../lv_misc/lv_color.h **** 
  27:..\..\..\lvgl\version_6.1.2\lvgl\src\lv_objx\../lv_core/../lv_misc/lv_color.h **** #if LV_COLOR_DEPTH != 32 && LV_COLOR_SCREEN_TRANSP != 0
  28:..\..\..\lvgl\version_6.1.2\lvgl\src\lv_objx\../lv_core/../lv_misc/lv_color.h **** #error "LV_COLOR_SCREEN_TRANSP requires LV_COLOR_DEPTH == 32. Set it in lv_conf.h"
  29:..\..\..\lvgl\version_6.1.2\lvgl\src\lv_objx\../lv_core/../lv_misc/lv_color.h **** #endif
  30:..\..\..\lvgl\version_6.1.2\lvgl\src\lv_objx\../lv_core/../lv_misc/lv_color.h **** 
  31:..\..\..\lvgl\version_6.1.2\lvgl\src\lv_objx\../lv_core/../lv_misc/lv_color.h **** #if LV_COLOR_DEPTH != 16 && LV_COLOR_16_SWAP != 0
  32:..\..\..\lvgl\version_6.1.2\lvgl\src\lv_objx\../lv_core/../lv_misc/lv_color.h **** #error "LV_COLOR_16_SWAP requires LV_COLOR_DEPTH == 16. Set it in lv_conf.h"
  33:..\..\..\lvgl\version_6.1.2\lvgl\src\lv_objx\../lv_core/../lv_misc/lv_color.h **** #endif
  34:..\..\..\lvgl\version_6.1.2\lvgl\src\lv_objx\../lv_core/../lv_misc/lv_color.h **** 
  35:..\..\..\lvgl\version_6.1.2\lvgl\src\lv_objx\../lv_core/../lv_misc/lv_color.h **** #include <stdint.h>
  36:..\..\..\lvgl\version_6.1.2\lvgl\src\lv_objx\../lv_core/../lv_misc/lv_color.h **** 
  37:..\..\..\lvgl\version_6.1.2\lvgl\src\lv_objx\../lv_core/../lv_misc/lv_color.h **** /*********************
  38:..\..\..\lvgl\version_6.1.2\lvgl\src\lv_objx\../lv_core/../lv_misc/lv_color.h ****  *      DEFINES
  39:..\..\..\lvgl\version_6.1.2\lvgl\src\lv_objx\../lv_core/../lv_misc/lv_color.h ****  *********************/
  40:..\..\..\lvgl\version_6.1.2\lvgl\src\lv_objx\../lv_core/../lv_misc/lv_color.h **** #define LV_COLOR_WHITE LV_COLOR_MAKE(0xFF, 0xFF, 0xFF)
  41:..\..\..\lvgl\version_6.1.2\lvgl\src\lv_objx\../lv_core/../lv_misc/lv_color.h **** #define LV_COLOR_SILVER LV_COLOR_MAKE(0xC0, 0xC0, 0xC0)
  42:..\..\..\lvgl\version_6.1.2\lvgl\src\lv_objx\../lv_core/../lv_misc/lv_color.h **** #define LV_COLOR_GRAY LV_COLOR_MAKE(0x80, 0x80, 0x80)
  43:..\..\..\lvgl\version_6.1.2\lvgl\src\lv_objx\../lv_core/../lv_misc/lv_color.h **** #define LV_COLOR_BLACK LV_COLOR_MAKE(0x00, 0x00, 0x00)
  44:..\..\..\lvgl\version_6.1.2\lvgl\src\lv_objx\../lv_core/../lv_misc/lv_color.h **** #define LV_COLOR_RED LV_COLOR_MAKE(0xFF, 0x00, 0x00)
  45:..\..\..\lvgl\version_6.1.2\lvgl\src\lv_objx\../lv_core/../lv_misc/lv_color.h **** #define LV_COLOR_MAROON LV_COLOR_MAKE(0x80, 0x00, 0x00)
  46:..\..\..\lvgl\version_6.1.2\lvgl\src\lv_objx\../lv_core/../lv_misc/lv_color.h **** #define LV_COLOR_YELLOW LV_COLOR_MAKE(0xFF, 0xFF, 0x00)
  47:..\..\..\lvgl\version_6.1.2\lvgl\src\lv_objx\../lv_core/../lv_misc/lv_color.h **** #define LV_COLOR_OLIVE LV_COLOR_MAKE(0x80, 0x80, 0x00)
  48:..\..\..\lvgl\version_6.1.2\lvgl\src\lv_objx\../lv_core/../lv_misc/lv_color.h **** #define LV_COLOR_LIME LV_COLOR_MAKE(0x00, 0xFF, 0x00)
  49:..\..\..\lvgl\version_6.1.2\lvgl\src\lv_objx\../lv_core/../lv_misc/lv_color.h **** #define LV_COLOR_GREEN LV_COLOR_MAKE(0x00, 0x80, 0x00)
  50:..\..\..\lvgl\version_6.1.2\lvgl\src\lv_objx\../lv_core/../lv_misc/lv_color.h **** #define LV_COLOR_CYAN LV_COLOR_MAKE(0x00, 0xFF, 0xFF)
  51:..\..\..\lvgl\version_6.1.2\lvgl\src\lv_objx\../lv_core/../lv_misc/lv_color.h **** #define LV_COLOR_AQUA LV_COLOR_CYAN
  52:..\..\..\lvgl\version_6.1.2\lvgl\src\lv_objx\../lv_core/../lv_misc/lv_color.h **** #define LV_COLOR_TEAL LV_COLOR_MAKE(0x00, 0x80, 0x80)
  53:..\..\..\lvgl\version_6.1.2\lvgl\src\lv_objx\../lv_core/../lv_misc/lv_color.h **** #define LV_COLOR_BLUE LV_COLOR_MAKE(0x00, 0x00, 0xFF)
  54:..\..\..\lvgl\version_6.1.2\lvgl\src\lv_objx\../lv_core/../lv_misc/lv_color.h **** #define LV_COLOR_NAVY LV_COLOR_MAKE(0x00, 0x00, 0x80)
  55:..\..\..\lvgl\version_6.1.2\lvgl\src\lv_objx\../lv_core/../lv_misc/lv_color.h **** #define LV_COLOR_MAGENTA LV_COLOR_MAKE(0xFF, 0x00, 0xFF)
ARM GAS  C:\Users\pearlstl\AppData\Local\Temp\ccQFxYtd.s 			page 42


  56:..\..\..\lvgl\version_6.1.2\lvgl\src\lv_objx\../lv_core/../lv_misc/lv_color.h **** #define LV_COLOR_PURPLE LV_COLOR_MAKE(0x80, 0x00, 0x80)
  57:..\..\..\lvgl\version_6.1.2\lvgl\src\lv_objx\../lv_core/../lv_misc/lv_color.h **** #define LV_COLOR_ORANGE LV_COLOR_MAKE(0xFF, 0xA5, 0x00)
  58:..\..\..\lvgl\version_6.1.2\lvgl\src\lv_objx\../lv_core/../lv_misc/lv_color.h **** 
  59:..\..\..\lvgl\version_6.1.2\lvgl\src\lv_objx\../lv_core/../lv_misc/lv_color.h **** /**
  60:..\..\..\lvgl\version_6.1.2\lvgl\src\lv_objx\../lv_core/../lv_misc/lv_color.h ****  * Opacity percentages.
  61:..\..\..\lvgl\version_6.1.2\lvgl\src\lv_objx\../lv_core/../lv_misc/lv_color.h ****  */
  62:..\..\..\lvgl\version_6.1.2\lvgl\src\lv_objx\../lv_core/../lv_misc/lv_color.h **** enum {
  63:..\..\..\lvgl\version_6.1.2\lvgl\src\lv_objx\../lv_core/../lv_misc/lv_color.h ****     LV_OPA_TRANSP = 0,
  64:..\..\..\lvgl\version_6.1.2\lvgl\src\lv_objx\../lv_core/../lv_misc/lv_color.h ****     LV_OPA_0      = 0,
  65:..\..\..\lvgl\version_6.1.2\lvgl\src\lv_objx\../lv_core/../lv_misc/lv_color.h ****     LV_OPA_10     = 25,
  66:..\..\..\lvgl\version_6.1.2\lvgl\src\lv_objx\../lv_core/../lv_misc/lv_color.h ****     LV_OPA_20     = 51,
  67:..\..\..\lvgl\version_6.1.2\lvgl\src\lv_objx\../lv_core/../lv_misc/lv_color.h ****     LV_OPA_30     = 76,
  68:..\..\..\lvgl\version_6.1.2\lvgl\src\lv_objx\../lv_core/../lv_misc/lv_color.h ****     LV_OPA_40     = 102,
  69:..\..\..\lvgl\version_6.1.2\lvgl\src\lv_objx\../lv_core/../lv_misc/lv_color.h ****     LV_OPA_50     = 127,
  70:..\..\..\lvgl\version_6.1.2\lvgl\src\lv_objx\../lv_core/../lv_misc/lv_color.h ****     LV_OPA_60     = 153,
  71:..\..\..\lvgl\version_6.1.2\lvgl\src\lv_objx\../lv_core/../lv_misc/lv_color.h ****     LV_OPA_70     = 178,
  72:..\..\..\lvgl\version_6.1.2\lvgl\src\lv_objx\../lv_core/../lv_misc/lv_color.h ****     LV_OPA_80     = 204,
  73:..\..\..\lvgl\version_6.1.2\lvgl\src\lv_objx\../lv_core/../lv_misc/lv_color.h ****     LV_OPA_90     = 229,
  74:..\..\..\lvgl\version_6.1.2\lvgl\src\lv_objx\../lv_core/../lv_misc/lv_color.h ****     LV_OPA_100    = 255,
  75:..\..\..\lvgl\version_6.1.2\lvgl\src\lv_objx\../lv_core/../lv_misc/lv_color.h ****     LV_OPA_COVER  = 255,
  76:..\..\..\lvgl\version_6.1.2\lvgl\src\lv_objx\../lv_core/../lv_misc/lv_color.h **** };
  77:..\..\..\lvgl\version_6.1.2\lvgl\src\lv_objx\../lv_core/../lv_misc/lv_color.h **** 
  78:..\..\..\lvgl\version_6.1.2\lvgl\src\lv_objx\../lv_core/../lv_misc/lv_color.h **** #define LV_OPA_MIN 16  /*Opacities below this will be transparent*/
  79:..\..\..\lvgl\version_6.1.2\lvgl\src\lv_objx\../lv_core/../lv_misc/lv_color.h **** #define LV_OPA_MAX 251 /*Opacities above this will fully cover*/
  80:..\..\..\lvgl\version_6.1.2\lvgl\src\lv_objx\../lv_core/../lv_misc/lv_color.h **** 
  81:..\..\..\lvgl\version_6.1.2\lvgl\src\lv_objx\../lv_core/../lv_misc/lv_color.h **** #if LV_COLOR_DEPTH == 1
  82:..\..\..\lvgl\version_6.1.2\lvgl\src\lv_objx\../lv_core/../lv_misc/lv_color.h **** #define LV_COLOR_SIZE 8
  83:..\..\..\lvgl\version_6.1.2\lvgl\src\lv_objx\../lv_core/../lv_misc/lv_color.h **** #elif LV_COLOR_DEPTH == 8
  84:..\..\..\lvgl\version_6.1.2\lvgl\src\lv_objx\../lv_core/../lv_misc/lv_color.h **** #define LV_COLOR_SIZE 8
  85:..\..\..\lvgl\version_6.1.2\lvgl\src\lv_objx\../lv_core/../lv_misc/lv_color.h **** #elif LV_COLOR_DEPTH == 16
  86:..\..\..\lvgl\version_6.1.2\lvgl\src\lv_objx\../lv_core/../lv_misc/lv_color.h **** #define LV_COLOR_SIZE 16
  87:..\..\..\lvgl\version_6.1.2\lvgl\src\lv_objx\../lv_core/../lv_misc/lv_color.h **** #elif LV_COLOR_DEPTH == 32
  88:..\..\..\lvgl\version_6.1.2\lvgl\src\lv_objx\../lv_core/../lv_misc/lv_color.h **** #define LV_COLOR_SIZE 32
  89:..\..\..\lvgl\version_6.1.2\lvgl\src\lv_objx\../lv_core/../lv_misc/lv_color.h **** #else
  90:..\..\..\lvgl\version_6.1.2\lvgl\src\lv_objx\../lv_core/../lv_misc/lv_color.h **** #error "Invalid LV_COLOR_DEPTH in lv_conf.h! Set it to 1, 8, 16 or 32!"
  91:..\..\..\lvgl\version_6.1.2\lvgl\src\lv_objx\../lv_core/../lv_misc/lv_color.h **** #endif
  92:..\..\..\lvgl\version_6.1.2\lvgl\src\lv_objx\../lv_core/../lv_misc/lv_color.h **** 
  93:..\..\..\lvgl\version_6.1.2\lvgl\src\lv_objx\../lv_core/../lv_misc/lv_color.h **** /*---------------------------------------
  94:..\..\..\lvgl\version_6.1.2\lvgl\src\lv_objx\../lv_core/../lv_misc/lv_color.h ****  * Macros for all existing  color depths
  95:..\..\..\lvgl\version_6.1.2\lvgl\src\lv_objx\../lv_core/../lv_misc/lv_color.h ****  * to set/get values of the color channels
  96:..\..\..\lvgl\version_6.1.2\lvgl\src\lv_objx\../lv_core/../lv_misc/lv_color.h ****  *------------------------------------------*/
  97:..\..\..\lvgl\version_6.1.2\lvgl\src\lv_objx\../lv_core/../lv_misc/lv_color.h **** # define LV_COLOR_SET_R1(c, v) (c).ch.red = (uint8_t)((v) & 0x1);
  98:..\..\..\lvgl\version_6.1.2\lvgl\src\lv_objx\../lv_core/../lv_misc/lv_color.h **** # define LV_COLOR_SET_G1(c, v) (c).ch.green = (uint8_t)((v) & 0x1);
  99:..\..\..\lvgl\version_6.1.2\lvgl\src\lv_objx\../lv_core/../lv_misc/lv_color.h **** # define LV_COLOR_SET_B1(c, v) (c).ch.blue = (uint8_t)((v) & 0x1);
 100:..\..\..\lvgl\version_6.1.2\lvgl\src\lv_objx\../lv_core/../lv_misc/lv_color.h **** # define LV_COLOR_SET_A1(c, v)
 101:..\..\..\lvgl\version_6.1.2\lvgl\src\lv_objx\../lv_core/../lv_misc/lv_color.h **** 
 102:..\..\..\lvgl\version_6.1.2\lvgl\src\lv_objx\../lv_core/../lv_misc/lv_color.h **** # define LV_COLOR_GET_R1(c) (c).ch.red
 103:..\..\..\lvgl\version_6.1.2\lvgl\src\lv_objx\../lv_core/../lv_misc/lv_color.h **** # define LV_COLOR_GET_G1(c) (c).ch.green
 104:..\..\..\lvgl\version_6.1.2\lvgl\src\lv_objx\../lv_core/../lv_misc/lv_color.h **** # define LV_COLOR_GET_B1(c) (c).ch.blue
 105:..\..\..\lvgl\version_6.1.2\lvgl\src\lv_objx\../lv_core/../lv_misc/lv_color.h **** # define LV_COLOR_GET_A1(c) 1
 106:..\..\..\lvgl\version_6.1.2\lvgl\src\lv_objx\../lv_core/../lv_misc/lv_color.h **** 
 107:..\..\..\lvgl\version_6.1.2\lvgl\src\lv_objx\../lv_core/../lv_misc/lv_color.h **** # define LV_COLOR_SET_R8(c, v) (c).ch.red = (uint8_t)(v) & 0x7U;
 108:..\..\..\lvgl\version_6.1.2\lvgl\src\lv_objx\../lv_core/../lv_misc/lv_color.h **** # define LV_COLOR_SET_G8(c, v) (c).ch.green = (uint8_t)(v) & 0x7U;
 109:..\..\..\lvgl\version_6.1.2\lvgl\src\lv_objx\../lv_core/../lv_misc/lv_color.h **** # define LV_COLOR_SET_B8(c, v) (c).ch.blue = (uint8_t)(v) & 0x3U;
 110:..\..\..\lvgl\version_6.1.2\lvgl\src\lv_objx\../lv_core/../lv_misc/lv_color.h **** # define LV_COLOR_SET_A8(c, v) do {} while(0)
 111:..\..\..\lvgl\version_6.1.2\lvgl\src\lv_objx\../lv_core/../lv_misc/lv_color.h **** 
 112:..\..\..\lvgl\version_6.1.2\lvgl\src\lv_objx\../lv_core/../lv_misc/lv_color.h **** # define LV_COLOR_GET_R8(c) (c).ch.red
ARM GAS  C:\Users\pearlstl\AppData\Local\Temp\ccQFxYtd.s 			page 43


 113:..\..\..\lvgl\version_6.1.2\lvgl\src\lv_objx\../lv_core/../lv_misc/lv_color.h **** # define LV_COLOR_GET_G8(c) (c).ch.green
 114:..\..\..\lvgl\version_6.1.2\lvgl\src\lv_objx\../lv_core/../lv_misc/lv_color.h **** # define LV_COLOR_GET_B8(c) (c).ch.blue
 115:..\..\..\lvgl\version_6.1.2\lvgl\src\lv_objx\../lv_core/../lv_misc/lv_color.h **** # define LV_COLOR_GET_A8(c) 0xFF
 116:..\..\..\lvgl\version_6.1.2\lvgl\src\lv_objx\../lv_core/../lv_misc/lv_color.h **** 
 117:..\..\..\lvgl\version_6.1.2\lvgl\src\lv_objx\../lv_core/../lv_misc/lv_color.h **** # define LV_COLOR_SET_R16(c, v) (c).ch.red = (uint8_t)(v) & 0x1FU;
 118:..\..\..\lvgl\version_6.1.2\lvgl\src\lv_objx\../lv_core/../lv_misc/lv_color.h **** # define LV_COLOR_SET_G16(c, v) (c).ch.green = (uint8_t)(v) & 0x3FU;
 119:..\..\..\lvgl\version_6.1.2\lvgl\src\lv_objx\../lv_core/../lv_misc/lv_color.h **** # define LV_COLOR_SET_G16_SWAP(c, v) {(c).ch.green_h = (uint8_t)(((v) >> 3) & 0x7); (c).ch.green_l 
 120:..\..\..\lvgl\version_6.1.2\lvgl\src\lv_objx\../lv_core/../lv_misc/lv_color.h **** # define LV_COLOR_SET_B16(c, v) (c).ch.blue = (uint8_t)(v) & 0x1FU;
 121:..\..\..\lvgl\version_6.1.2\lvgl\src\lv_objx\../lv_core/../lv_misc/lv_color.h **** # define LV_COLOR_SET_A16(c, v) do {} while(0)
 122:..\..\..\lvgl\version_6.1.2\lvgl\src\lv_objx\../lv_core/../lv_misc/lv_color.h **** 
 123:..\..\..\lvgl\version_6.1.2\lvgl\src\lv_objx\../lv_core/../lv_misc/lv_color.h **** # define LV_COLOR_GET_R16(c) (c).ch.red
 124:..\..\..\lvgl\version_6.1.2\lvgl\src\lv_objx\../lv_core/../lv_misc/lv_color.h **** # define LV_COLOR_GET_G16(c) (c).ch.green
 125:..\..\..\lvgl\version_6.1.2\lvgl\src\lv_objx\../lv_core/../lv_misc/lv_color.h **** # define LV_COLOR_GET_G16_SWAP(c) (((c).ch.green_h << 3) + (c).ch.green_l)
 126:..\..\..\lvgl\version_6.1.2\lvgl\src\lv_objx\../lv_core/../lv_misc/lv_color.h **** # define LV_COLOR_GET_B16(c) (c).ch.blue
 127:..\..\..\lvgl\version_6.1.2\lvgl\src\lv_objx\../lv_core/../lv_misc/lv_color.h **** # define LV_COLOR_GET_A16(c) 0xFF
 128:..\..\..\lvgl\version_6.1.2\lvgl\src\lv_objx\../lv_core/../lv_misc/lv_color.h **** 
 129:..\..\..\lvgl\version_6.1.2\lvgl\src\lv_objx\../lv_core/../lv_misc/lv_color.h **** # define LV_COLOR_SET_R32(c, v) (c).ch.red = (uint32_t)((v) & 0xFF);
 130:..\..\..\lvgl\version_6.1.2\lvgl\src\lv_objx\../lv_core/../lv_misc/lv_color.h **** # define LV_COLOR_SET_G32(c, v) (c).ch.green = (uint32_t)((v) & 0xFF);
 131:..\..\..\lvgl\version_6.1.2\lvgl\src\lv_objx\../lv_core/../lv_misc/lv_color.h **** # define LV_COLOR_SET_B32(c, v) (c).ch.blue = (uint32_t)((v) & 0xFF);
 132:..\..\..\lvgl\version_6.1.2\lvgl\src\lv_objx\../lv_core/../lv_misc/lv_color.h **** # define LV_COLOR_SET_A32(c, v) (c).ch.alpha = (uint32_t)((v) & 0xFF);
 133:..\..\..\lvgl\version_6.1.2\lvgl\src\lv_objx\../lv_core/../lv_misc/lv_color.h **** 
 134:..\..\..\lvgl\version_6.1.2\lvgl\src\lv_objx\../lv_core/../lv_misc/lv_color.h **** # define LV_COLOR_GET_R32(c) (c).ch.red
 135:..\..\..\lvgl\version_6.1.2\lvgl\src\lv_objx\../lv_core/../lv_misc/lv_color.h **** # define LV_COLOR_GET_G32(c) (c).ch.green
 136:..\..\..\lvgl\version_6.1.2\lvgl\src\lv_objx\../lv_core/../lv_misc/lv_color.h **** # define LV_COLOR_GET_B32(c) (c).ch.blue
 137:..\..\..\lvgl\version_6.1.2\lvgl\src\lv_objx\../lv_core/../lv_misc/lv_color.h **** # define LV_COLOR_GET_A32(c) (c).ch.alpha
 138:..\..\..\lvgl\version_6.1.2\lvgl\src\lv_objx\../lv_core/../lv_misc/lv_color.h **** 
 139:..\..\..\lvgl\version_6.1.2\lvgl\src\lv_objx\../lv_core/../lv_misc/lv_color.h **** 
 140:..\..\..\lvgl\version_6.1.2\lvgl\src\lv_objx\../lv_core/../lv_misc/lv_color.h **** /*---------------------------------------
 141:..\..\..\lvgl\version_6.1.2\lvgl\src\lv_objx\../lv_core/../lv_misc/lv_color.h ****  * Macros for the current color depth
 142:..\..\..\lvgl\version_6.1.2\lvgl\src\lv_objx\../lv_core/../lv_misc/lv_color.h ****  * to set/get values of the color channels
 143:..\..\..\lvgl\version_6.1.2\lvgl\src\lv_objx\../lv_core/../lv_misc/lv_color.h ****  *------------------------------------------*/
 144:..\..\..\lvgl\version_6.1.2\lvgl\src\lv_objx\../lv_core/../lv_misc/lv_color.h **** #if LV_COLOR_DEPTH == 1
 145:..\..\..\lvgl\version_6.1.2\lvgl\src\lv_objx\../lv_core/../lv_misc/lv_color.h **** # define LV_COLOR_SET_R(c, v) LV_COLOR_SET_R1(c,v)
 146:..\..\..\lvgl\version_6.1.2\lvgl\src\lv_objx\../lv_core/../lv_misc/lv_color.h **** # define LV_COLOR_SET_G(c, v) LV_COLOR_SET_G1(c,v)
 147:..\..\..\lvgl\version_6.1.2\lvgl\src\lv_objx\../lv_core/../lv_misc/lv_color.h **** # define LV_COLOR_SET_B(c, v) LV_COLOR_SET_B1(c,v)
 148:..\..\..\lvgl\version_6.1.2\lvgl\src\lv_objx\../lv_core/../lv_misc/lv_color.h **** # define LV_COLOR_SET_A(c, v) LV_COLOR_SET_A1(c,v)
 149:..\..\..\lvgl\version_6.1.2\lvgl\src\lv_objx\../lv_core/../lv_misc/lv_color.h **** 
 150:..\..\..\lvgl\version_6.1.2\lvgl\src\lv_objx\../lv_core/../lv_misc/lv_color.h **** # define LV_COLOR_GET_R(c) LV_COLOR_GET_R1(c)
 151:..\..\..\lvgl\version_6.1.2\lvgl\src\lv_objx\../lv_core/../lv_misc/lv_color.h **** # define LV_COLOR_GET_G(c) LV_COLOR_GET_G1(c)
 152:..\..\..\lvgl\version_6.1.2\lvgl\src\lv_objx\../lv_core/../lv_misc/lv_color.h **** # define LV_COLOR_GET_B(c) LV_COLOR_GET_B1(c)
 153:..\..\..\lvgl\version_6.1.2\lvgl\src\lv_objx\../lv_core/../lv_misc/lv_color.h **** # define LV_COLOR_GET_A(c) LV_COLOR_GET_A1(c)
 154:..\..\..\lvgl\version_6.1.2\lvgl\src\lv_objx\../lv_core/../lv_misc/lv_color.h **** 
 155:..\..\..\lvgl\version_6.1.2\lvgl\src\lv_objx\../lv_core/../lv_misc/lv_color.h **** #elif LV_COLOR_DEPTH == 8
 156:..\..\..\lvgl\version_6.1.2\lvgl\src\lv_objx\../lv_core/../lv_misc/lv_color.h **** # define LV_COLOR_SET_R(c, v) LV_COLOR_SET_R8(c,v)
 157:..\..\..\lvgl\version_6.1.2\lvgl\src\lv_objx\../lv_core/../lv_misc/lv_color.h **** # define LV_COLOR_SET_G(c, v) LV_COLOR_SET_G8(c,v)
 158:..\..\..\lvgl\version_6.1.2\lvgl\src\lv_objx\../lv_core/../lv_misc/lv_color.h **** # define LV_COLOR_SET_B(c, v) LV_COLOR_SET_B8(c,v)
 159:..\..\..\lvgl\version_6.1.2\lvgl\src\lv_objx\../lv_core/../lv_misc/lv_color.h **** # define LV_COLOR_SET_A(c, v) LV_COLOR_SET_A8(c,v)
 160:..\..\..\lvgl\version_6.1.2\lvgl\src\lv_objx\../lv_core/../lv_misc/lv_color.h **** 
 161:..\..\..\lvgl\version_6.1.2\lvgl\src\lv_objx\../lv_core/../lv_misc/lv_color.h **** # define LV_COLOR_GET_R(c) LV_COLOR_GET_R8(c)
 162:..\..\..\lvgl\version_6.1.2\lvgl\src\lv_objx\../lv_core/../lv_misc/lv_color.h **** # define LV_COLOR_GET_G(c) LV_COLOR_GET_G8(c)
 163:..\..\..\lvgl\version_6.1.2\lvgl\src\lv_objx\../lv_core/../lv_misc/lv_color.h **** # define LV_COLOR_GET_B(c) LV_COLOR_GET_B8(c)
 164:..\..\..\lvgl\version_6.1.2\lvgl\src\lv_objx\../lv_core/../lv_misc/lv_color.h **** # define LV_COLOR_GET_A(c) LV_COLOR_GET_A8(c)
 165:..\..\..\lvgl\version_6.1.2\lvgl\src\lv_objx\../lv_core/../lv_misc/lv_color.h **** 
 166:..\..\..\lvgl\version_6.1.2\lvgl\src\lv_objx\../lv_core/../lv_misc/lv_color.h **** #elif LV_COLOR_DEPTH == 16
 167:..\..\..\lvgl\version_6.1.2\lvgl\src\lv_objx\../lv_core/../lv_misc/lv_color.h **** # define LV_COLOR_SET_R(c, v) LV_COLOR_SET_R16(c,v)
 168:..\..\..\lvgl\version_6.1.2\lvgl\src\lv_objx\../lv_core/../lv_misc/lv_color.h **** # if LV_COLOR_16_SWAP == 0
 169:..\..\..\lvgl\version_6.1.2\lvgl\src\lv_objx\../lv_core/../lv_misc/lv_color.h **** #   define LV_COLOR_SET_G(c, v) LV_COLOR_SET_G16(c,v)
ARM GAS  C:\Users\pearlstl\AppData\Local\Temp\ccQFxYtd.s 			page 44


 170:..\..\..\lvgl\version_6.1.2\lvgl\src\lv_objx\../lv_core/../lv_misc/lv_color.h **** # else
 171:..\..\..\lvgl\version_6.1.2\lvgl\src\lv_objx\../lv_core/../lv_misc/lv_color.h **** #   define LV_COLOR_SET_G(c, v) LV_COLOR_SET_G16_SWAP(c,v)
 172:..\..\..\lvgl\version_6.1.2\lvgl\src\lv_objx\../lv_core/../lv_misc/lv_color.h **** # endif
 173:..\..\..\lvgl\version_6.1.2\lvgl\src\lv_objx\../lv_core/../lv_misc/lv_color.h **** # define LV_COLOR_SET_B(c, v) LV_COLOR_SET_B16(c,v)
 174:..\..\..\lvgl\version_6.1.2\lvgl\src\lv_objx\../lv_core/../lv_misc/lv_color.h **** # define LV_COLOR_SET_A(c, v) LV_COLOR_SET_A16(c,v)
 175:..\..\..\lvgl\version_6.1.2\lvgl\src\lv_objx\../lv_core/../lv_misc/lv_color.h **** 
 176:..\..\..\lvgl\version_6.1.2\lvgl\src\lv_objx\../lv_core/../lv_misc/lv_color.h **** # define LV_COLOR_GET_R(c) LV_COLOR_GET_R16(c)
 177:..\..\..\lvgl\version_6.1.2\lvgl\src\lv_objx\../lv_core/../lv_misc/lv_color.h **** # if LV_COLOR_16_SWAP == 0
 178:..\..\..\lvgl\version_6.1.2\lvgl\src\lv_objx\../lv_core/../lv_misc/lv_color.h **** #   define LV_COLOR_GET_G(c) LV_COLOR_GET_G16(c)
 179:..\..\..\lvgl\version_6.1.2\lvgl\src\lv_objx\../lv_core/../lv_misc/lv_color.h **** # else
 180:..\..\..\lvgl\version_6.1.2\lvgl\src\lv_objx\../lv_core/../lv_misc/lv_color.h **** #   define LV_COLOR_GET_G(c) LV_COLOR_GET_G16_SWAP(c)
 181:..\..\..\lvgl\version_6.1.2\lvgl\src\lv_objx\../lv_core/../lv_misc/lv_color.h **** # endif
 182:..\..\..\lvgl\version_6.1.2\lvgl\src\lv_objx\../lv_core/../lv_misc/lv_color.h **** # define LV_COLOR_GET_B(c)   LV_COLOR_GET_B16(c)
 183:..\..\..\lvgl\version_6.1.2\lvgl\src\lv_objx\../lv_core/../lv_misc/lv_color.h **** # define LV_COLOR_GET_A(c)   LV_COLOR_GET_A16(c)
 184:..\..\..\lvgl\version_6.1.2\lvgl\src\lv_objx\../lv_core/../lv_misc/lv_color.h **** 
 185:..\..\..\lvgl\version_6.1.2\lvgl\src\lv_objx\../lv_core/../lv_misc/lv_color.h **** #elif LV_COLOR_DEPTH == 32
 186:..\..\..\lvgl\version_6.1.2\lvgl\src\lv_objx\../lv_core/../lv_misc/lv_color.h **** # define LV_COLOR_SET_R(c, v) LV_COLOR_SET_R32(c,v)
 187:..\..\..\lvgl\version_6.1.2\lvgl\src\lv_objx\../lv_core/../lv_misc/lv_color.h **** # define LV_COLOR_SET_G(c, v) LV_COLOR_SET_G32(c,v)
 188:..\..\..\lvgl\version_6.1.2\lvgl\src\lv_objx\../lv_core/../lv_misc/lv_color.h **** # define LV_COLOR_SET_B(c, v) LV_COLOR_SET_B32(c,v)
 189:..\..\..\lvgl\version_6.1.2\lvgl\src\lv_objx\../lv_core/../lv_misc/lv_color.h **** # define LV_COLOR_SET_A(c, v) LV_COLOR_SET_A32(c,v)
 190:..\..\..\lvgl\version_6.1.2\lvgl\src\lv_objx\../lv_core/../lv_misc/lv_color.h **** 
 191:..\..\..\lvgl\version_6.1.2\lvgl\src\lv_objx\../lv_core/../lv_misc/lv_color.h **** # define LV_COLOR_GET_R(c) LV_COLOR_GET_R32(c)
 192:..\..\..\lvgl\version_6.1.2\lvgl\src\lv_objx\../lv_core/../lv_misc/lv_color.h **** # define LV_COLOR_GET_G(c) LV_COLOR_GET_G32(c)
 193:..\..\..\lvgl\version_6.1.2\lvgl\src\lv_objx\../lv_core/../lv_misc/lv_color.h **** # define LV_COLOR_GET_B(c) LV_COLOR_GET_B32(c)
 194:..\..\..\lvgl\version_6.1.2\lvgl\src\lv_objx\../lv_core/../lv_misc/lv_color.h **** # define LV_COLOR_GET_A(c) LV_COLOR_GET_A32(c)
 195:..\..\..\lvgl\version_6.1.2\lvgl\src\lv_objx\../lv_core/../lv_misc/lv_color.h **** #endif
 196:..\..\..\lvgl\version_6.1.2\lvgl\src\lv_objx\../lv_core/../lv_misc/lv_color.h **** 
 197:..\..\..\lvgl\version_6.1.2\lvgl\src\lv_objx\../lv_core/../lv_misc/lv_color.h **** /**********************
 198:..\..\..\lvgl\version_6.1.2\lvgl\src\lv_objx\../lv_core/../lv_misc/lv_color.h ****  *      TYPEDEFS
 199:..\..\..\lvgl\version_6.1.2\lvgl\src\lv_objx\../lv_core/../lv_misc/lv_color.h ****  **********************/
 200:..\..\..\lvgl\version_6.1.2\lvgl\src\lv_objx\../lv_core/../lv_misc/lv_color.h **** 
 201:..\..\..\lvgl\version_6.1.2\lvgl\src\lv_objx\../lv_core/../lv_misc/lv_color.h **** typedef union
 202:..\..\..\lvgl\version_6.1.2\lvgl\src\lv_objx\../lv_core/../lv_misc/lv_color.h **** {
 203:..\..\..\lvgl\version_6.1.2\lvgl\src\lv_objx\../lv_core/../lv_misc/lv_color.h ****     struct
 204:..\..\..\lvgl\version_6.1.2\lvgl\src\lv_objx\../lv_core/../lv_misc/lv_color.h ****     {
 205:..\..\..\lvgl\version_6.1.2\lvgl\src\lv_objx\../lv_core/../lv_misc/lv_color.h ****         uint8_t blue : 1;
 206:..\..\..\lvgl\version_6.1.2\lvgl\src\lv_objx\../lv_core/../lv_misc/lv_color.h ****         uint8_t green : 1;
 207:..\..\..\lvgl\version_6.1.2\lvgl\src\lv_objx\../lv_core/../lv_misc/lv_color.h ****         uint8_t red : 1;
 208:..\..\..\lvgl\version_6.1.2\lvgl\src\lv_objx\../lv_core/../lv_misc/lv_color.h ****     } ch;
 209:..\..\..\lvgl\version_6.1.2\lvgl\src\lv_objx\../lv_core/../lv_misc/lv_color.h ****     uint8_t full;
 210:..\..\..\lvgl\version_6.1.2\lvgl\src\lv_objx\../lv_core/../lv_misc/lv_color.h **** } lv_color1_t;
 211:..\..\..\lvgl\version_6.1.2\lvgl\src\lv_objx\../lv_core/../lv_misc/lv_color.h **** 
 212:..\..\..\lvgl\version_6.1.2\lvgl\src\lv_objx\../lv_core/../lv_misc/lv_color.h **** typedef union
 213:..\..\..\lvgl\version_6.1.2\lvgl\src\lv_objx\../lv_core/../lv_misc/lv_color.h **** {
 214:..\..\..\lvgl\version_6.1.2\lvgl\src\lv_objx\../lv_core/../lv_misc/lv_color.h ****     struct
 215:..\..\..\lvgl\version_6.1.2\lvgl\src\lv_objx\../lv_core/../lv_misc/lv_color.h ****     {
 216:..\..\..\lvgl\version_6.1.2\lvgl\src\lv_objx\../lv_core/../lv_misc/lv_color.h ****         uint8_t blue : 2;
 217:..\..\..\lvgl\version_6.1.2\lvgl\src\lv_objx\../lv_core/../lv_misc/lv_color.h ****         uint8_t green : 3;
 218:..\..\..\lvgl\version_6.1.2\lvgl\src\lv_objx\../lv_core/../lv_misc/lv_color.h ****         uint8_t red : 3;
 219:..\..\..\lvgl\version_6.1.2\lvgl\src\lv_objx\../lv_core/../lv_misc/lv_color.h ****     } ch;
 220:..\..\..\lvgl\version_6.1.2\lvgl\src\lv_objx\../lv_core/../lv_misc/lv_color.h ****     uint8_t full;
 221:..\..\..\lvgl\version_6.1.2\lvgl\src\lv_objx\../lv_core/../lv_misc/lv_color.h **** } lv_color8_t;
 222:..\..\..\lvgl\version_6.1.2\lvgl\src\lv_objx\../lv_core/../lv_misc/lv_color.h **** 
 223:..\..\..\lvgl\version_6.1.2\lvgl\src\lv_objx\../lv_core/../lv_misc/lv_color.h **** typedef union
 224:..\..\..\lvgl\version_6.1.2\lvgl\src\lv_objx\../lv_core/../lv_misc/lv_color.h **** {
 225:..\..\..\lvgl\version_6.1.2\lvgl\src\lv_objx\../lv_core/../lv_misc/lv_color.h ****     struct
 226:..\..\..\lvgl\version_6.1.2\lvgl\src\lv_objx\../lv_core/../lv_misc/lv_color.h ****     {
ARM GAS  C:\Users\pearlstl\AppData\Local\Temp\ccQFxYtd.s 			page 45


 227:..\..\..\lvgl\version_6.1.2\lvgl\src\lv_objx\../lv_core/../lv_misc/lv_color.h **** #if LV_COLOR_16_SWAP == 0
 228:..\..\..\lvgl\version_6.1.2\lvgl\src\lv_objx\../lv_core/../lv_misc/lv_color.h ****         uint16_t blue : 5;
 229:..\..\..\lvgl\version_6.1.2\lvgl\src\lv_objx\../lv_core/../lv_misc/lv_color.h ****         uint16_t green : 6;
 230:..\..\..\lvgl\version_6.1.2\lvgl\src\lv_objx\../lv_core/../lv_misc/lv_color.h ****         uint16_t red : 5;
 231:..\..\..\lvgl\version_6.1.2\lvgl\src\lv_objx\../lv_core/../lv_misc/lv_color.h **** #else
 232:..\..\..\lvgl\version_6.1.2\lvgl\src\lv_objx\../lv_core/../lv_misc/lv_color.h ****         uint16_t green_h : 3;
 233:..\..\..\lvgl\version_6.1.2\lvgl\src\lv_objx\../lv_core/../lv_misc/lv_color.h ****         uint16_t red : 5;
 234:..\..\..\lvgl\version_6.1.2\lvgl\src\lv_objx\../lv_core/../lv_misc/lv_color.h ****         uint16_t blue : 5;
 235:..\..\..\lvgl\version_6.1.2\lvgl\src\lv_objx\../lv_core/../lv_misc/lv_color.h ****         uint16_t green_l : 3;
 236:..\..\..\lvgl\version_6.1.2\lvgl\src\lv_objx\../lv_core/../lv_misc/lv_color.h **** #endif
 237:..\..\..\lvgl\version_6.1.2\lvgl\src\lv_objx\../lv_core/../lv_misc/lv_color.h ****     } ch;
 238:..\..\..\lvgl\version_6.1.2\lvgl\src\lv_objx\../lv_core/../lv_misc/lv_color.h ****     uint16_t full;
 239:..\..\..\lvgl\version_6.1.2\lvgl\src\lv_objx\../lv_core/../lv_misc/lv_color.h **** } lv_color16_t;
 240:..\..\..\lvgl\version_6.1.2\lvgl\src\lv_objx\../lv_core/../lv_misc/lv_color.h **** 
 241:..\..\..\lvgl\version_6.1.2\lvgl\src\lv_objx\../lv_core/../lv_misc/lv_color.h **** typedef union
 242:..\..\..\lvgl\version_6.1.2\lvgl\src\lv_objx\../lv_core/../lv_misc/lv_color.h **** {
 243:..\..\..\lvgl\version_6.1.2\lvgl\src\lv_objx\../lv_core/../lv_misc/lv_color.h ****     struct
 244:..\..\..\lvgl\version_6.1.2\lvgl\src\lv_objx\../lv_core/../lv_misc/lv_color.h ****     {
 245:..\..\..\lvgl\version_6.1.2\lvgl\src\lv_objx\../lv_core/../lv_misc/lv_color.h ****         uint8_t blue;
 246:..\..\..\lvgl\version_6.1.2\lvgl\src\lv_objx\../lv_core/../lv_misc/lv_color.h ****         uint8_t green;
 247:..\..\..\lvgl\version_6.1.2\lvgl\src\lv_objx\../lv_core/../lv_misc/lv_color.h ****         uint8_t red;
 248:..\..\..\lvgl\version_6.1.2\lvgl\src\lv_objx\../lv_core/../lv_misc/lv_color.h ****         uint8_t alpha;
 249:..\..\..\lvgl\version_6.1.2\lvgl\src\lv_objx\../lv_core/../lv_misc/lv_color.h ****     } ch;
 250:..\..\..\lvgl\version_6.1.2\lvgl\src\lv_objx\../lv_core/../lv_misc/lv_color.h ****     uint32_t full;
 251:..\..\..\lvgl\version_6.1.2\lvgl\src\lv_objx\../lv_core/../lv_misc/lv_color.h **** } lv_color32_t;
 252:..\..\..\lvgl\version_6.1.2\lvgl\src\lv_objx\../lv_core/../lv_misc/lv_color.h **** 
 253:..\..\..\lvgl\version_6.1.2\lvgl\src\lv_objx\../lv_core/../lv_misc/lv_color.h **** #if LV_COLOR_DEPTH == 1
 254:..\..\..\lvgl\version_6.1.2\lvgl\src\lv_objx\../lv_core/../lv_misc/lv_color.h **** typedef uint8_t lv_color_int_t;
 255:..\..\..\lvgl\version_6.1.2\lvgl\src\lv_objx\../lv_core/../lv_misc/lv_color.h **** typedef lv_color1_t lv_color_t;
 256:..\..\..\lvgl\version_6.1.2\lvgl\src\lv_objx\../lv_core/../lv_misc/lv_color.h **** #elif LV_COLOR_DEPTH == 8
 257:..\..\..\lvgl\version_6.1.2\lvgl\src\lv_objx\../lv_core/../lv_misc/lv_color.h **** typedef uint8_t lv_color_int_t;
 258:..\..\..\lvgl\version_6.1.2\lvgl\src\lv_objx\../lv_core/../lv_misc/lv_color.h **** typedef lv_color8_t lv_color_t;
 259:..\..\..\lvgl\version_6.1.2\lvgl\src\lv_objx\../lv_core/../lv_misc/lv_color.h **** #elif LV_COLOR_DEPTH == 16
 260:..\..\..\lvgl\version_6.1.2\lvgl\src\lv_objx\../lv_core/../lv_misc/lv_color.h **** typedef uint16_t lv_color_int_t;
 261:..\..\..\lvgl\version_6.1.2\lvgl\src\lv_objx\../lv_core/../lv_misc/lv_color.h **** typedef lv_color16_t lv_color_t;
 262:..\..\..\lvgl\version_6.1.2\lvgl\src\lv_objx\../lv_core/../lv_misc/lv_color.h **** #elif LV_COLOR_DEPTH == 32
 263:..\..\..\lvgl\version_6.1.2\lvgl\src\lv_objx\../lv_core/../lv_misc/lv_color.h **** typedef uint32_t lv_color_int_t;
 264:..\..\..\lvgl\version_6.1.2\lvgl\src\lv_objx\../lv_core/../lv_misc/lv_color.h **** typedef lv_color32_t lv_color_t;
 265:..\..\..\lvgl\version_6.1.2\lvgl\src\lv_objx\../lv_core/../lv_misc/lv_color.h **** #else
 266:..\..\..\lvgl\version_6.1.2\lvgl\src\lv_objx\../lv_core/../lv_misc/lv_color.h **** #error "Invalid LV_COLOR_DEPTH in lv_conf.h! Set it to 1, 8, 16 or 32!"
 267:..\..\..\lvgl\version_6.1.2\lvgl\src\lv_objx\../lv_core/../lv_misc/lv_color.h **** #endif
 268:..\..\..\lvgl\version_6.1.2\lvgl\src\lv_objx\../lv_core/../lv_misc/lv_color.h **** 
 269:..\..\..\lvgl\version_6.1.2\lvgl\src\lv_objx\../lv_core/../lv_misc/lv_color.h **** typedef uint8_t lv_opa_t;
 270:..\..\..\lvgl\version_6.1.2\lvgl\src\lv_objx\../lv_core/../lv_misc/lv_color.h **** 
 271:..\..\..\lvgl\version_6.1.2\lvgl\src\lv_objx\../lv_core/../lv_misc/lv_color.h **** typedef struct
 272:..\..\..\lvgl\version_6.1.2\lvgl\src\lv_objx\../lv_core/../lv_misc/lv_color.h **** {
 273:..\..\..\lvgl\version_6.1.2\lvgl\src\lv_objx\../lv_core/../lv_misc/lv_color.h ****     uint16_t h;
 274:..\..\..\lvgl\version_6.1.2\lvgl\src\lv_objx\../lv_core/../lv_misc/lv_color.h ****     uint8_t s;
 275:..\..\..\lvgl\version_6.1.2\lvgl\src\lv_objx\../lv_core/../lv_misc/lv_color.h ****     uint8_t v;
 276:..\..\..\lvgl\version_6.1.2\lvgl\src\lv_objx\../lv_core/../lv_misc/lv_color.h **** } lv_color_hsv_t;
 277:..\..\..\lvgl\version_6.1.2\lvgl\src\lv_objx\../lv_core/../lv_misc/lv_color.h **** 
 278:..\..\..\lvgl\version_6.1.2\lvgl\src\lv_objx\../lv_core/../lv_misc/lv_color.h **** /**********************
 279:..\..\..\lvgl\version_6.1.2\lvgl\src\lv_objx\../lv_core/../lv_misc/lv_color.h ****  * GLOBAL PROTOTYPES
 280:..\..\..\lvgl\version_6.1.2\lvgl\src\lv_objx\../lv_core/../lv_misc/lv_color.h ****  **********************/
 281:..\..\..\lvgl\version_6.1.2\lvgl\src\lv_objx\../lv_core/../lv_misc/lv_color.h **** 
 282:..\..\..\lvgl\version_6.1.2\lvgl\src\lv_objx\../lv_core/../lv_misc/lv_color.h **** /*In color conversations:
 283:..\..\..\lvgl\version_6.1.2\lvgl\src\lv_objx\../lv_core/../lv_misc/lv_color.h ****  * - When converting to bigger color type the LSB weight of 1 LSB is calculated
ARM GAS  C:\Users\pearlstl\AppData\Local\Temp\ccQFxYtd.s 			page 46


 284:..\..\..\lvgl\version_6.1.2\lvgl\src\lv_objx\../lv_core/../lv_misc/lv_color.h ****  *   E.g. 16 bit Red has 5 bits
 285:..\..\..\lvgl\version_6.1.2\lvgl\src\lv_objx\../lv_core/../lv_misc/lv_color.h ****  *         8 bit Red has 2 bits
 286:..\..\..\lvgl\version_6.1.2\lvgl\src\lv_objx\../lv_core/../lv_misc/lv_color.h ****  *        ----------------------
 287:..\..\..\lvgl\version_6.1.2\lvgl\src\lv_objx\../lv_core/../lv_misc/lv_color.h ****  *        8 bit red LSB = (2^5 - 1) / (2^2 - 1) = 31 / 3 = 10
 288:..\..\..\lvgl\version_6.1.2\lvgl\src\lv_objx\../lv_core/../lv_misc/lv_color.h ****  *
 289:..\..\..\lvgl\version_6.1.2\lvgl\src\lv_objx\../lv_core/../lv_misc/lv_color.h ****  * - When calculating to smaller color type simply shift out the LSBs
 290:..\..\..\lvgl\version_6.1.2\lvgl\src\lv_objx\../lv_core/../lv_misc/lv_color.h ****  *   E.g.  8 bit Red has 2 bits
 291:..\..\..\lvgl\version_6.1.2\lvgl\src\lv_objx\../lv_core/../lv_misc/lv_color.h ****  *        16 bit Red has 5 bits
 292:..\..\..\lvgl\version_6.1.2\lvgl\src\lv_objx\../lv_core/../lv_misc/lv_color.h ****  *        ----------------------
 293:..\..\..\lvgl\version_6.1.2\lvgl\src\lv_objx\../lv_core/../lv_misc/lv_color.h ****  *         Shift right with 5 - 3 = 2
 294:..\..\..\lvgl\version_6.1.2\lvgl\src\lv_objx\../lv_core/../lv_misc/lv_color.h ****  */
 295:..\..\..\lvgl\version_6.1.2\lvgl\src\lv_objx\../lv_core/../lv_misc/lv_color.h **** 
 296:..\..\..\lvgl\version_6.1.2\lvgl\src\lv_objx\../lv_core/../lv_misc/lv_color.h **** static inline uint8_t lv_color_to1(lv_color_t color)
 297:..\..\..\lvgl\version_6.1.2\lvgl\src\lv_objx\../lv_core/../lv_misc/lv_color.h **** {
 298:..\..\..\lvgl\version_6.1.2\lvgl\src\lv_objx\../lv_core/../lv_misc/lv_color.h **** #if LV_COLOR_DEPTH == 1
 299:..\..\..\lvgl\version_6.1.2\lvgl\src\lv_objx\../lv_core/../lv_misc/lv_color.h ****     return color.full;
 300:..\..\..\lvgl\version_6.1.2\lvgl\src\lv_objx\../lv_core/../lv_misc/lv_color.h **** #elif LV_COLOR_DEPTH == 8
 301:..\..\..\lvgl\version_6.1.2\lvgl\src\lv_objx\../lv_core/../lv_misc/lv_color.h ****     if((LV_COLOR_GET_R(color) & 0x4) || (LV_COLOR_GET_G(color) & 0x4) || (LV_COLOR_GET_B(color) & 0
 302:..\..\..\lvgl\version_6.1.2\lvgl\src\lv_objx\../lv_core/../lv_misc/lv_color.h ****         return 1;
 303:..\..\..\lvgl\version_6.1.2\lvgl\src\lv_objx\../lv_core/../lv_misc/lv_color.h ****     } else {
 304:..\..\..\lvgl\version_6.1.2\lvgl\src\lv_objx\../lv_core/../lv_misc/lv_color.h ****         return 0;
 305:..\..\..\lvgl\version_6.1.2\lvgl\src\lv_objx\../lv_core/../lv_misc/lv_color.h ****     }
 306:..\..\..\lvgl\version_6.1.2\lvgl\src\lv_objx\../lv_core/../lv_misc/lv_color.h **** #elif LV_COLOR_DEPTH == 16
 307:..\..\..\lvgl\version_6.1.2\lvgl\src\lv_objx\../lv_core/../lv_misc/lv_color.h ****     if((LV_COLOR_GET_R(color) & 0x10) || (LV_COLOR_GET_G(color) & 0x20) || (LV_COLOR_GET_B(color) &
 308:..\..\..\lvgl\version_6.1.2\lvgl\src\lv_objx\../lv_core/../lv_misc/lv_color.h ****         return 1;
 309:..\..\..\lvgl\version_6.1.2\lvgl\src\lv_objx\../lv_core/../lv_misc/lv_color.h ****     } else {
 310:..\..\..\lvgl\version_6.1.2\lvgl\src\lv_objx\../lv_core/../lv_misc/lv_color.h ****         return 0;
 311:..\..\..\lvgl\version_6.1.2\lvgl\src\lv_objx\../lv_core/../lv_misc/lv_color.h ****     }
 312:..\..\..\lvgl\version_6.1.2\lvgl\src\lv_objx\../lv_core/../lv_misc/lv_color.h **** #elif LV_COLOR_DEPTH == 32
 313:..\..\..\lvgl\version_6.1.2\lvgl\src\lv_objx\../lv_core/../lv_misc/lv_color.h ****     if((LV_COLOR_GET_R(color) & 0x80) || (LV_COLOR_GET_G(color) & 0x80) || (LV_COLOR_GET_B(color) &
 314:..\..\..\lvgl\version_6.1.2\lvgl\src\lv_objx\../lv_core/../lv_misc/lv_color.h ****         return 1;
 315:..\..\..\lvgl\version_6.1.2\lvgl\src\lv_objx\../lv_core/../lv_misc/lv_color.h ****     } else {
 316:..\..\..\lvgl\version_6.1.2\lvgl\src\lv_objx\../lv_core/../lv_misc/lv_color.h ****         return 0;
 317:..\..\..\lvgl\version_6.1.2\lvgl\src\lv_objx\../lv_core/../lv_misc/lv_color.h ****     }
 318:..\..\..\lvgl\version_6.1.2\lvgl\src\lv_objx\../lv_core/../lv_misc/lv_color.h **** #endif
 319:..\..\..\lvgl\version_6.1.2\lvgl\src\lv_objx\../lv_core/../lv_misc/lv_color.h **** }
 320:..\..\..\lvgl\version_6.1.2\lvgl\src\lv_objx\../lv_core/../lv_misc/lv_color.h **** 
 321:..\..\..\lvgl\version_6.1.2\lvgl\src\lv_objx\../lv_core/../lv_misc/lv_color.h **** static inline uint8_t lv_color_to8(lv_color_t color)
 322:..\..\..\lvgl\version_6.1.2\lvgl\src\lv_objx\../lv_core/../lv_misc/lv_color.h **** {
 323:..\..\..\lvgl\version_6.1.2\lvgl\src\lv_objx\../lv_core/../lv_misc/lv_color.h **** #if LV_COLOR_DEPTH == 1
 324:..\..\..\lvgl\version_6.1.2\lvgl\src\lv_objx\../lv_core/../lv_misc/lv_color.h ****     if(color.full == 0)
 325:..\..\..\lvgl\version_6.1.2\lvgl\src\lv_objx\../lv_core/../lv_misc/lv_color.h ****         return 0;
 326:..\..\..\lvgl\version_6.1.2\lvgl\src\lv_objx\../lv_core/../lv_misc/lv_color.h ****     else
 327:..\..\..\lvgl\version_6.1.2\lvgl\src\lv_objx\../lv_core/../lv_misc/lv_color.h ****         return 0xFF;
 328:..\..\..\lvgl\version_6.1.2\lvgl\src\lv_objx\../lv_core/../lv_misc/lv_color.h **** #elif LV_COLOR_DEPTH == 8
 329:..\..\..\lvgl\version_6.1.2\lvgl\src\lv_objx\../lv_core/../lv_misc/lv_color.h ****     return color.full;
 330:..\..\..\lvgl\version_6.1.2\lvgl\src\lv_objx\../lv_core/../lv_misc/lv_color.h **** #elif LV_COLOR_DEPTH == 16
 331:..\..\..\lvgl\version_6.1.2\lvgl\src\lv_objx\../lv_core/../lv_misc/lv_color.h ****     lv_color8_t ret;
 332:..\..\..\lvgl\version_6.1.2\lvgl\src\lv_objx\../lv_core/../lv_misc/lv_color.h ****     LV_COLOR_SET_R8(ret, LV_COLOR_GET_R(color) >> 2);   /* 5 - 3  = 2*/
 333:..\..\..\lvgl\version_6.1.2\lvgl\src\lv_objx\../lv_core/../lv_misc/lv_color.h ****     LV_COLOR_SET_G8(ret, LV_COLOR_GET_G(color) >> 3); /* 6 - 3  = 3*/
 334:..\..\..\lvgl\version_6.1.2\lvgl\src\lv_objx\../lv_core/../lv_misc/lv_color.h ****     LV_COLOR_SET_B8(ret, LV_COLOR_GET_B(color) >> 3);  /* 5 - 2  = 3*/
 335:..\..\..\lvgl\version_6.1.2\lvgl\src\lv_objx\../lv_core/../lv_misc/lv_color.h ****     return ret.full;
 336:..\..\..\lvgl\version_6.1.2\lvgl\src\lv_objx\../lv_core/../lv_misc/lv_color.h **** #elif LV_COLOR_DEPTH == 32
 337:..\..\..\lvgl\version_6.1.2\lvgl\src\lv_objx\../lv_core/../lv_misc/lv_color.h ****     lv_color8_t ret;
 338:..\..\..\lvgl\version_6.1.2\lvgl\src\lv_objx\../lv_core/../lv_misc/lv_color.h ****     LV_COLOR_SET_R8(ret, LV_COLOR_GET_R(color) >> 5);   /* 8 - 3  = 5*/
 339:..\..\..\lvgl\version_6.1.2\lvgl\src\lv_objx\../lv_core/../lv_misc/lv_color.h ****     LV_COLOR_SET_G8(ret, LV_COLOR_GET_G(color) >> 5); /* 8 - 3  = 5*/
 340:..\..\..\lvgl\version_6.1.2\lvgl\src\lv_objx\../lv_core/../lv_misc/lv_color.h ****     LV_COLOR_SET_B8(ret, LV_COLOR_GET_B(color) >> 6);  /* 8 - 2  = 6*/
ARM GAS  C:\Users\pearlstl\AppData\Local\Temp\ccQFxYtd.s 			page 47


 341:..\..\..\lvgl\version_6.1.2\lvgl\src\lv_objx\../lv_core/../lv_misc/lv_color.h ****     return ret.full;
 342:..\..\..\lvgl\version_6.1.2\lvgl\src\lv_objx\../lv_core/../lv_misc/lv_color.h **** #endif
 343:..\..\..\lvgl\version_6.1.2\lvgl\src\lv_objx\../lv_core/../lv_misc/lv_color.h **** }
 344:..\..\..\lvgl\version_6.1.2\lvgl\src\lv_objx\../lv_core/../lv_misc/lv_color.h **** 
 345:..\..\..\lvgl\version_6.1.2\lvgl\src\lv_objx\../lv_core/../lv_misc/lv_color.h **** static inline uint16_t lv_color_to16(lv_color_t color)
 346:..\..\..\lvgl\version_6.1.2\lvgl\src\lv_objx\../lv_core/../lv_misc/lv_color.h **** {
 347:..\..\..\lvgl\version_6.1.2\lvgl\src\lv_objx\../lv_core/../lv_misc/lv_color.h **** #if LV_COLOR_DEPTH == 1
 348:..\..\..\lvgl\version_6.1.2\lvgl\src\lv_objx\../lv_core/../lv_misc/lv_color.h ****     if(color.full == 0)
 349:..\..\..\lvgl\version_6.1.2\lvgl\src\lv_objx\../lv_core/../lv_misc/lv_color.h ****         return 0;
 350:..\..\..\lvgl\version_6.1.2\lvgl\src\lv_objx\../lv_core/../lv_misc/lv_color.h ****     else
 351:..\..\..\lvgl\version_6.1.2\lvgl\src\lv_objx\../lv_core/../lv_misc/lv_color.h ****         return 0xFFFF;
 352:..\..\..\lvgl\version_6.1.2\lvgl\src\lv_objx\../lv_core/../lv_misc/lv_color.h **** #elif LV_COLOR_DEPTH == 8
 353:..\..\..\lvgl\version_6.1.2\lvgl\src\lv_objx\../lv_core/../lv_misc/lv_color.h ****     lv_color16_t ret;
 354:..\..\..\lvgl\version_6.1.2\lvgl\src\lv_objx\../lv_core/../lv_misc/lv_color.h ****     LV_COLOR_SET_R16(ret, LV_COLOR_GET_R(color) * 4);     /*(2^5 - 1)/(2^3 - 1) = 31/7 = 4*/
 355:..\..\..\lvgl\version_6.1.2\lvgl\src\lv_objx\../lv_core/../lv_misc/lv_color.h **** #if LV_COLOR_16_SWAP == 0
 356:..\..\..\lvgl\version_6.1.2\lvgl\src\lv_objx\../lv_core/../lv_misc/lv_color.h ****     LV_COLOR_SET_G16(ret,  LV_COLOR_GET_G(color) * 9); /*(2^6 - 1)/(2^3 - 1) = 63/7 = 9*/
 357:..\..\..\lvgl\version_6.1.2\lvgl\src\lv_objx\../lv_core/../lv_misc/lv_color.h **** #else
 358:..\..\..\lvgl\version_6.1.2\lvgl\src\lv_objx\../lv_core/../lv_misc/lv_color.h ****     LV_COLOR_SET_G16_SWAP(ret, (LV_COLOR_GET_G(color) * 9)); /*(2^6 - 1)/(2^3 - 1) = 63/7 = 9*/
 359:..\..\..\lvgl\version_6.1.2\lvgl\src\lv_objx\../lv_core/../lv_misc/lv_color.h **** #endif
 360:..\..\..\lvgl\version_6.1.2\lvgl\src\lv_objx\../lv_core/../lv_misc/lv_color.h ****     LV_COLOR_SET_B16(ret, LV_COLOR_GET_B(color) * 10);  /*(2^5 - 1)/(2^2 - 1) = 31/3 = 10*/
 361:..\..\..\lvgl\version_6.1.2\lvgl\src\lv_objx\../lv_core/../lv_misc/lv_color.h ****     return ret.full;
 362:..\..\..\lvgl\version_6.1.2\lvgl\src\lv_objx\../lv_core/../lv_misc/lv_color.h **** #elif LV_COLOR_DEPTH == 16
 363:..\..\..\lvgl\version_6.1.2\lvgl\src\lv_objx\../lv_core/../lv_misc/lv_color.h ****     return color.full;
 364:..\..\..\lvgl\version_6.1.2\lvgl\src\lv_objx\../lv_core/../lv_misc/lv_color.h **** #elif LV_COLOR_DEPTH == 32
 365:..\..\..\lvgl\version_6.1.2\lvgl\src\lv_objx\../lv_core/../lv_misc/lv_color.h ****     lv_color16_t ret;
 366:..\..\..\lvgl\version_6.1.2\lvgl\src\lv_objx\../lv_core/../lv_misc/lv_color.h ****     LV_COLOR_SET_R16(ret, LV_COLOR_GET_R(color) >> 3);   /* 8 - 5  = 3*/
 367:..\..\..\lvgl\version_6.1.2\lvgl\src\lv_objx\../lv_core/../lv_misc/lv_color.h **** 
 368:..\..\..\lvgl\version_6.1.2\lvgl\src\lv_objx\../lv_core/../lv_misc/lv_color.h **** #if LV_COLOR_16_SWAP == 0
 369:..\..\..\lvgl\version_6.1.2\lvgl\src\lv_objx\../lv_core/../lv_misc/lv_color.h ****     LV_COLOR_SET_G16(ret, LV_COLOR_GET_G(color) >> 2); /* 8 - 6  = 2*/
 370:..\..\..\lvgl\version_6.1.2\lvgl\src\lv_objx\../lv_core/../lv_misc/lv_color.h **** #else
 371:..\..\..\lvgl\version_6.1.2\lvgl\src\lv_objx\../lv_core/../lv_misc/lv_color.h ****     LV_COLOR_SET_G16_SWAP(ret, ret.ch.green_h = (LV_COLOR_GET_G(color) >> 2); /*(2^6 - 1)/(2^3 - 1)
 372:..\..\..\lvgl\version_6.1.2\lvgl\src\lv_objx\../lv_core/../lv_misc/lv_color.h **** #endif
 373:..\..\..\lvgl\version_6.1.2\lvgl\src\lv_objx\../lv_core/../lv_misc/lv_color.h ****     LV_COLOR_SET_B16(ret, LV_COLOR_GET_B(color) >> 3);  /* 8 - 5  = 3*/
 374:..\..\..\lvgl\version_6.1.2\lvgl\src\lv_objx\../lv_core/../lv_misc/lv_color.h ****     return ret.full;
 375:..\..\..\lvgl\version_6.1.2\lvgl\src\lv_objx\../lv_core/../lv_misc/lv_color.h **** #endif                         
 376:..\..\..\lvgl\version_6.1.2\lvgl\src\lv_objx\../lv_core/../lv_misc/lv_color.h **** }
 377:..\..\..\lvgl\version_6.1.2\lvgl\src\lv_objx\../lv_core/../lv_misc/lv_color.h **** 
 378:..\..\..\lvgl\version_6.1.2\lvgl\src\lv_objx\../lv_core/../lv_misc/lv_color.h **** static inline uint32_t lv_color_to32(lv_color_t color)
 379:..\..\..\lvgl\version_6.1.2\lvgl\src\lv_objx\../lv_core/../lv_misc/lv_color.h **** {
 380:..\..\..\lvgl\version_6.1.2\lvgl\src\lv_objx\../lv_core/../lv_misc/lv_color.h **** #if LV_COLOR_DEPTH == 1
 381:..\..\..\lvgl\version_6.1.2\lvgl\src\lv_objx\../lv_core/../lv_misc/lv_color.h ****     if(color.full == 0)
 382:..\..\..\lvgl\version_6.1.2\lvgl\src\lv_objx\../lv_core/../lv_misc/lv_color.h ****         return 0;
 383:..\..\..\lvgl\version_6.1.2\lvgl\src\lv_objx\../lv_core/../lv_misc/lv_color.h ****     else
 384:..\..\..\lvgl\version_6.1.2\lvgl\src\lv_objx\../lv_core/../lv_misc/lv_color.h ****         return 0xFFFFFFFF;
 385:..\..\..\lvgl\version_6.1.2\lvgl\src\lv_objx\../lv_core/../lv_misc/lv_color.h **** #elif LV_COLOR_DEPTH == 8
 386:..\..\..\lvgl\version_6.1.2\lvgl\src\lv_objx\../lv_core/../lv_misc/lv_color.h ****     lv_color32_t ret;
 387:..\..\..\lvgl\version_6.1.2\lvgl\src\lv_objx\../lv_core/../lv_misc/lv_color.h ****     LV_COLOR_SET_R32(ret, LV_COLOR_GET_R(color) * 36);     /*(2^8 - 1)/(2^3 - 1) = 255/7 = 36*/
 388:..\..\..\lvgl\version_6.1.2\lvgl\src\lv_objx\../lv_core/../lv_misc/lv_color.h ****     LV_COLOR_SET_G32(ret, LV_COLOR_GET_G(color) * 36); /*(2^8 - 1)/(2^3 - 1) = 255/7 = 36*/
 389:..\..\..\lvgl\version_6.1.2\lvgl\src\lv_objx\../lv_core/../lv_misc/lv_color.h ****     LV_COLOR_SET_B32(ret, LV_COLOR_GET_B(color) * 85);   /*(2^8 - 1)/(2^2 - 1) = 255/3 = 85*/
 390:..\..\..\lvgl\version_6.1.2\lvgl\src\lv_objx\../lv_core/../lv_misc/lv_color.h ****     LV_COLOR_SET_A32(ret, 0xFF);
 391:..\..\..\lvgl\version_6.1.2\lvgl\src\lv_objx\../lv_core/../lv_misc/lv_color.h ****     return ret.full;
 392:..\..\..\lvgl\version_6.1.2\lvgl\src\lv_objx\../lv_core/../lv_misc/lv_color.h **** #elif LV_COLOR_DEPTH == 16
 393:..\..\..\lvgl\version_6.1.2\lvgl\src\lv_objx\../lv_core/../lv_misc/lv_color.h ****     /**
 394:..\..\..\lvgl\version_6.1.2\lvgl\src\lv_objx\../lv_core/../lv_misc/lv_color.h ****      * The floating point math for conversion is:
 395:..\..\..\lvgl\version_6.1.2\lvgl\src\lv_objx\../lv_core/../lv_misc/lv_color.h ****      *  valueto = valuefrom * ( (2^bitsto - 1) / (float)(2^bitsfrom - 1) )
 396:..\..\..\lvgl\version_6.1.2\lvgl\src\lv_objx\../lv_core/../lv_misc/lv_color.h ****      * The faster integer math for conversion is:
 397:..\..\..\lvgl\version_6.1.2\lvgl\src\lv_objx\../lv_core/../lv_misc/lv_color.h ****      *  valueto = ( valuefrom * multiplier + adder ) >> divisor
ARM GAS  C:\Users\pearlstl\AppData\Local\Temp\ccQFxYtd.s 			page 48


 398:..\..\..\lvgl\version_6.1.2\lvgl\src\lv_objx\../lv_core/../lv_misc/lv_color.h ****      *   multiplier = FLOOR( ( (2^bitsto - 1) << divisor ) / (float)(2^bitsfrom - 1) )
 399:..\..\..\lvgl\version_6.1.2\lvgl\src\lv_objx\../lv_core/../lv_misc/lv_color.h ****      * 
 400:..\..\..\lvgl\version_6.1.2\lvgl\src\lv_objx\../lv_core/../lv_misc/lv_color.h ****      * Find the first divisor where ( adder >> divisor ) <= 0
 401:..\..\..\lvgl\version_6.1.2\lvgl\src\lv_objx\../lv_core/../lv_misc/lv_color.h ****      * 
 402:..\..\..\lvgl\version_6.1.2\lvgl\src\lv_objx\../lv_core/../lv_misc/lv_color.h ****      * 5-bit to 8-bit: ( 31 * multiplier + adder ) >> divisor = 255
 403:..\..\..\lvgl\version_6.1.2\lvgl\src\lv_objx\../lv_core/../lv_misc/lv_color.h ****      * divisor  multiplier  adder  min (0)  max (31)
 404:..\..\..\lvgl\version_6.1.2\lvgl\src\lv_objx\../lv_core/../lv_misc/lv_color.h ****      *       0           8      7        7       255
 405:..\..\..\lvgl\version_6.1.2\lvgl\src\lv_objx\../lv_core/../lv_misc/lv_color.h ****      *       1          16     14        7       255
 406:..\..\..\lvgl\version_6.1.2\lvgl\src\lv_objx\../lv_core/../lv_misc/lv_color.h ****      *       2          32     28        7       255
 407:..\..\..\lvgl\version_6.1.2\lvgl\src\lv_objx\../lv_core/../lv_misc/lv_color.h ****      *       3          65     25        3       255
 408:..\..\..\lvgl\version_6.1.2\lvgl\src\lv_objx\../lv_core/../lv_misc/lv_color.h ****      *       4         131     19        1       255
 409:..\..\..\lvgl\version_6.1.2\lvgl\src\lv_objx\../lv_core/../lv_misc/lv_color.h ****      *       5         263      7        0       255
 410:..\..\..\lvgl\version_6.1.2\lvgl\src\lv_objx\../lv_core/../lv_misc/lv_color.h ****      * 
 411:..\..\..\lvgl\version_6.1.2\lvgl\src\lv_objx\../lv_core/../lv_misc/lv_color.h ****      * 6-bit to 8-bit: 255 = ( 63 * multiplier + adder ) >> divisor
 412:..\..\..\lvgl\version_6.1.2\lvgl\src\lv_objx\../lv_core/../lv_misc/lv_color.h ****      * divisor  multiplier  adder  min (0)  max (63)
 413:..\..\..\lvgl\version_6.1.2\lvgl\src\lv_objx\../lv_core/../lv_misc/lv_color.h ****      *       0           4      3        3       255
 414:..\..\..\lvgl\version_6.1.2\lvgl\src\lv_objx\../lv_core/../lv_misc/lv_color.h ****      *       1           8      6        3       255
 415:..\..\..\lvgl\version_6.1.2\lvgl\src\lv_objx\../lv_core/../lv_misc/lv_color.h ****      *       2          16     12        3       255
 416:..\..\..\lvgl\version_6.1.2\lvgl\src\lv_objx\../lv_core/../lv_misc/lv_color.h ****      *       3          32     24        3       255
 417:..\..\..\lvgl\version_6.1.2\lvgl\src\lv_objx\../lv_core/../lv_misc/lv_color.h ****      *       4          64     48        3       255
 418:..\..\..\lvgl\version_6.1.2\lvgl\src\lv_objx\../lv_core/../lv_misc/lv_color.h ****      *       5         129     33        1       255
 419:..\..\..\lvgl\version_6.1.2\lvgl\src\lv_objx\../lv_core/../lv_misc/lv_color.h ****      *       6         259      3        0       255
 420:..\..\..\lvgl\version_6.1.2\lvgl\src\lv_objx\../lv_core/../lv_misc/lv_color.h ****      */
 421:..\..\..\lvgl\version_6.1.2\lvgl\src\lv_objx\../lv_core/../lv_misc/lv_color.h ****     lv_color32_t ret;
 422:..\..\..\lvgl\version_6.1.2\lvgl\src\lv_objx\../lv_core/../lv_misc/lv_color.h ****     LV_COLOR_SET_R32(ret, (LV_COLOR_GET_R(color) * 263 + 7 ) >> 5);
 423:..\..\..\lvgl\version_6.1.2\lvgl\src\lv_objx\../lv_core/../lv_misc/lv_color.h ****     LV_COLOR_SET_G32(ret, (LV_COLOR_GET_G(color) * 259 + 3 ) >> 6);
 424:..\..\..\lvgl\version_6.1.2\lvgl\src\lv_objx\../lv_core/../lv_misc/lv_color.h ****     LV_COLOR_SET_B32(ret, (LV_COLOR_GET_B(color) * 263 + 7 ) >> 5);
 425:..\..\..\lvgl\version_6.1.2\lvgl\src\lv_objx\../lv_core/../lv_misc/lv_color.h ****     LV_COLOR_SET_A32(ret, 0xFF);
 426:..\..\..\lvgl\version_6.1.2\lvgl\src\lv_objx\../lv_core/../lv_misc/lv_color.h ****     return ret.full;
 427:..\..\..\lvgl\version_6.1.2\lvgl\src\lv_objx\../lv_core/../lv_misc/lv_color.h **** #elif LV_COLOR_DEPTH == 32
 428:..\..\..\lvgl\version_6.1.2\lvgl\src\lv_objx\../lv_core/../lv_misc/lv_color.h ****     return color.full;
 429:..\..\..\lvgl\version_6.1.2\lvgl\src\lv_objx\../lv_core/../lv_misc/lv_color.h **** #endif
 430:..\..\..\lvgl\version_6.1.2\lvgl\src\lv_objx\../lv_core/../lv_misc/lv_color.h **** }
 431:..\..\..\lvgl\version_6.1.2\lvgl\src\lv_objx\../lv_core/../lv_misc/lv_color.h **** 
 432:..\..\..\lvgl\version_6.1.2\lvgl\src\lv_objx\../lv_core/../lv_misc/lv_color.h **** static inline lv_color_t lv_color_mix(lv_color_t c1, lv_color_t c2, uint8_t mix)
 433:..\..\..\lvgl\version_6.1.2\lvgl\src\lv_objx\../lv_core/../lv_misc/lv_color.h **** {
 434:..\..\..\lvgl\version_6.1.2\lvgl\src\lv_objx\../lv_core/../lv_misc/lv_color.h ****     lv_color_t ret;
 435:..\..\..\lvgl\version_6.1.2\lvgl\src\lv_objx\../lv_core/../lv_misc/lv_color.h **** #if LV_COLOR_DEPTH != 1
 436:..\..\..\lvgl\version_6.1.2\lvgl\src\lv_objx\../lv_core/../lv_misc/lv_color.h ****     /*LV_COLOR_DEPTH == 8, 16 or 32*/
 437:..\..\..\lvgl\version_6.1.2\lvgl\src\lv_objx\../lv_core/../lv_misc/lv_color.h ****     LV_COLOR_SET_R(ret, (uint16_t)((uint16_t) LV_COLOR_GET_R(c1) * mix + LV_COLOR_GET_R(c2) * (255 
 1079              		.loc 3 437 0
 1080 0214 129F     		ldr	r7, [sp, #72]
 1081              	.LBE91:
 1082              	.LBE90:
 382:..\..\..\lvgl\version_6.1.2\lvgl\src\lv_objx/lv_canvas.c ****             lv_color_t c_dest_yn = lv_img_buf_get_px_color(img, xs_int, yn, style);
 1083              		.loc 1 382 0
 1084 0216 1190     		str	r0, [sp, #68]
 1085              	.LBB99:
 1086              	.LBB92:
 1087              		.loc 3 437 0
 1088 0218 C7F1FF07 		rsb	r7, r7, #255
 1089              	.LBE92:
 1090              	.LBE99:
 383:..\..\..\lvgl\version_6.1.2\lvgl\src\lv_objx/lv_canvas.c ****             lv_color_t x_dest    = lv_color_mix(c_dest_int, c_dest_xn, xr);
 1091              		.loc 1 383 0
 1092 021c 159B     		ldr	r3, [sp, #84]
 1093 021e 1899     		ldr	r1, [sp, #96]
ARM GAS  C:\Users\pearlstl\AppData\Local\Temp\ccQFxYtd.s 			page 49


 1094 0220 1498     		ldr	r0, [sp, #80]
 1095              	.LBB100:
 1096              	.LBB93:
 1097              		.loc 3 437 0
 1098 0222 2597     		str	r7, [sp, #148]
 1099              	.LBE93:
 1100              	.LBE100:
 383:..\..\..\lvgl\version_6.1.2\lvgl\src\lv_objx/lv_canvas.c ****             lv_color_t x_dest    = lv_color_mix(c_dest_int, c_dest_xn, xr);
 1101              		.loc 1 383 0
 1102 0224 FFF7FEFF 		bl	lv_img_buf_get_px_color
 1103              	.LVL125:
 1104              	.LBB101:
 1105              	.LBB102:
 1106              		.loc 3 437 0
 1107 0228 179B     		ldr	r3, [sp, #92]
 1108              	.LBE102:
 1109              	.LBE101:
 1110              	.LBB108:
 1111              	.LBB109:
 438:..\..\..\lvgl\version_6.1.2\lvgl\src\lv_objx\../lv_core/../lv_misc/lv_color.h ****     LV_COLOR_SET_G(ret, (uint16_t)((uint16_t) LV_COLOR_GET_G(c1) * mix + LV_COLOR_GET_G(c2) * (255 
 439:..\..\..\lvgl\version_6.1.2\lvgl\src\lv_objx\../lv_core/../lv_misc/lv_color.h ****     LV_COLOR_SET_B(ret, (uint16_t)((uint16_t) LV_COLOR_GET_B(c1) * mix + LV_COLOR_GET_B(c2) * (255 
 1112              		.loc 3 439 0
 1113 022a DDF844C0 		ldr	ip, [sp, #68]
 1114              	.LVL126:
 1115              	.LBE109:
 1116              	.LBE108:
 1117              	.LBB118:
 1118              	.LBB103:
 437:..\..\..\lvgl\version_6.1.2\lvgl\src\lv_objx\../lv_core/../lv_misc/lv_color.h ****     LV_COLOR_SET_G(ret, (uint16_t)((uint16_t) LV_COLOR_GET_G(c1) * mix + LV_COLOR_GET_G(c2) * (255 
 1119              		.loc 3 437 0
 1120 022e C3F1FF03 		rsb	r3, r3, #255
 1121 0232 1A46     		mov	r2, r3
 1122              	.LBE103:
 1123              	.LBE118:
 383:..\..\..\lvgl\version_6.1.2\lvgl\src\lv_objx/lv_canvas.c ****             lv_color_t x_dest    = lv_color_mix(c_dest_int, c_dest_xn, xr);
 1124              		.loc 1 383 0
 1125 0234 8646     		mov	lr, r0
 1126              	.LVL127:
 1127              	.LBB119:
 1128              	.LBB104:
 437:..\..\..\lvgl\version_6.1.2\lvgl\src\lv_objx\../lv_core/../lv_misc/lv_color.h ****     LV_COLOR_SET_G(ret, (uint16_t)((uint16_t) LV_COLOR_GET_G(c1) * mix + LV_COLOR_GET_G(c2) * (255 
 1129              		.loc 3 437 0
 1130 0236 92B2     		uxth	r2, r2
 1131              	.LBE104:
 1132              	.LBE119:
 1133              	.LBB120:
 1134              	.LBB94:
 1135 0238 B8B2     		uxth	r0, r7
 1136              	.LVL128:
 1137              		.loc 3 439 0
 1138 023a 9DF84C70 		ldrb	r7, [sp, #76]	@ zero_extendqisi2
 1139              	.LBE94:
 1140              	.LBE120:
 1141              	.LBB121:
 1142              	.LBB105:
 437:..\..\..\lvgl\version_6.1.2\lvgl\src\lv_objx\../lv_core/../lv_misc/lv_color.h ****     LV_COLOR_SET_G(ret, (uint16_t)((uint16_t) LV_COLOR_GET_G(c1) * mix + LV_COLOR_GET_G(c2) * (255 
 1143              		.loc 3 437 0
ARM GAS  C:\Users\pearlstl\AppData\Local\Temp\ccQFxYtd.s 			page 50


 1144 023e 0892     		str	r2, [sp, #32]
 1145              	.LBE105:
 1146              	.LBE121:
 1147              	.LBB122:
 1148              	.LBB110:
 1149              		.loc 3 439 0
 1150 0240 5FFA8CF1 		uxtb	r1, ip
 1151              	.LBE110:
 1152              	.LBE122:
 1153              	.LBB123:
 1154              	.LBB106:
 437:..\..\..\lvgl\version_6.1.2\lvgl\src\lv_objx\../lv_core/../lv_misc/lv_color.h ****     LV_COLOR_SET_G(ret, (uint16_t)((uint16_t) LV_COLOR_GET_G(c1) * mix + LV_COLOR_GET_G(c2) * (255 
 1155              		.loc 3 437 0
 1156 0244 2493     		str	r3, [sp, #144]
 1157              	.LVL129:
 1158              	.LBE106:
 1159              	.LBE123:
 1160              	.LBB124:
 1161              	.LBB111:
 438:..\..\..\lvgl\version_6.1.2\lvgl\src\lv_objx\../lv_core/../lv_misc/lv_color.h ****     LV_COLOR_SET_G(ret, (uint16_t)((uint16_t) LV_COLOR_GET_G(c1) * mix + LV_COLOR_GET_G(c2) * (255 
 1162              		.loc 3 438 0
 1163 0246 CCF30722 		ubfx	r2, ip, #8, #8
 1164              	.LBE111:
 1165              	.LBE124:
 1166              	.LBB125:
 1167              	.LBB95:
 437:..\..\..\lvgl\version_6.1.2\lvgl\src\lv_objx\../lv_core/../lv_misc/lv_color.h ****     LV_COLOR_SET_G(ret, (uint16_t)((uint16_t) LV_COLOR_GET_G(c1) * mix + LV_COLOR_GET_G(c2) * (255 
 1168              		.loc 3 437 0
 1169 024a BDF84830 		ldrh	r3, [sp, #72]
 1170              	.LVL130:
 1171              	.LBE95:
 1172              	.LBE125:
 1173              	.LBB126:
 1174              	.LBB112:
 1175              		.loc 3 439 0
 1176 024e CDF858E0 		str	lr, [sp, #88]
 1177 0252 BC46     		mov	ip, r7
 1178              	.LVL131:
 438:..\..\..\lvgl\version_6.1.2\lvgl\src\lv_objx\../lv_core/../lv_misc/lv_color.h ****     LV_COLOR_SET_G(ret, (uint16_t)((uint16_t) LV_COLOR_GET_G(c1) * mix + LV_COLOR_GET_G(c2) * (255 
 1179              		.loc 3 438 0
 1180 0254 12FB00F2 		smulbb	r2, r2, r0
 1181              		.loc 3 439 0
 1182 0258 11FB00F1 		smulbb	r1, r1, r0
 1183 025c 9DF858E0 		ldrb	lr, [sp, #88]	@ zero_extendqisi2
 1184              	.LVL132:
 438:..\..\..\lvgl\version_6.1.2\lvgl\src\lv_objx\../lv_core/../lv_misc/lv_color.h ****     LV_COLOR_SET_G(ret, (uint16_t)((uint16_t) LV_COLOR_GET_G(c1) * mix + LV_COLOR_GET_G(c2) * (255 
 1185              		.loc 3 438 0
 1186 0260 1E92     		str	r2, [sp, #120]
 1187              		.loc 3 439 0
 1188 0262 03FB0C11 		mla	r1, r3, ip, r1
 437:..\..\..\lvgl\version_6.1.2\lvgl\src\lv_objx\../lv_core/../lv_misc/lv_color.h ****     LV_COLOR_SET_G(ret, (uint16_t)((uint16_t) LV_COLOR_GET_G(c1) * mix + LV_COLOR_GET_G(c2) * (255 
 1189              		.loc 3 437 0
 1190 0266 119A     		ldr	r2, [sp, #68]
 1191              		.loc 3 439 0
 1192 0268 BDF820C0 		ldrh	ip, [sp, #32]
 1193 026c 1C97     		str	r7, [sp, #112]
 1194 026e 1F46     		mov	r7, r3
ARM GAS  C:\Users\pearlstl\AppData\Local\Temp\ccQFxYtd.s 			page 51


 1195 0270 1EFB0CF3 		smulbb	r3, lr, ip
 1196              	.LBE112:
 1197              	.LBE126:
 1198              	.LBB127:
 1199              	.LBB107:
 437:..\..\..\lvgl\version_6.1.2\lvgl\src\lv_objx\../lv_core/../lv_misc/lv_color.h ****     LV_COLOR_SET_G(ret, (uint16_t)((uint16_t) LV_COLOR_GET_G(c1) * mix + LV_COLOR_GET_G(c2) * (255 
 1200              		.loc 3 437 0
 1201 0274 BDF85CC0 		ldrh	ip, [sp, #92]
 1202              	.LVL133:
 1203              	.LBE107:
 1204              	.LBE127:
 1205              	.LBB128:
 1206              	.LBB113:
 1207 0278 C2F3074E 		ubfx	lr, r2, #16, #8
 1208              		.loc 3 439 0
 1209 027c 1C9A     		ldr	r2, [sp, #112]
 1210              	.LVL134:
 438:..\..\..\lvgl\version_6.1.2\lvgl\src\lv_objx\../lv_core/../lv_misc/lv_color.h ****     LV_COLOR_SET_G(ret, (uint16_t)((uint16_t) LV_COLOR_GET_G(c1) * mix + LV_COLOR_GET_G(c2) * (255 
 1211              		.loc 3 438 0
 1212 027e 1C97     		str	r7, [sp, #112]
 1213              		.loc 3 439 0
 1214 0280 0CFB0233 		mla	r3, ip, r2, r3
 1215 0284 1F93     		str	r3, [sp, #124]
 1216              	.LBE113:
 1217              	.LBE128:
 1218              	.LBB129:
 1219              	.LBB96:
 438:..\..\..\lvgl\version_6.1.2\lvgl\src\lv_objx\../lv_core/../lv_misc/lv_color.h ****     LV_COLOR_SET_G(ret, (uint16_t)((uint16_t) LV_COLOR_GET_G(c1) * mix + LV_COLOR_GET_G(c2) * (255 
 1220              		.loc 3 438 0
 1221 0286 139B     		ldr	r3, [sp, #76]
 1222              	.LVL135:
 1223 0288 C3F30722 		ubfx	r2, r3, #8, #8
 1224              	.LBE96:
 1225              	.LBE129:
 1226              	.LBB130:
 1227              	.LBB114:
 437:..\..\..\lvgl\version_6.1.2\lvgl\src\lv_objx\../lv_core/../lv_misc/lv_color.h ****     LV_COLOR_SET_G(ret, (uint16_t)((uint16_t) LV_COLOR_GET_G(c1) * mix + LV_COLOR_GET_G(c2) * (255 
 1228              		.loc 3 437 0
 1229 028c 1EFB00F3 		smulbb	r3, lr, r0
 1230              	.LVL136:
 438:..\..\..\lvgl\version_6.1.2\lvgl\src\lv_objx\../lv_core/../lv_misc/lv_color.h ****     LV_COLOR_SET_G(ret, (uint16_t)((uint16_t) LV_COLOR_GET_G(c1) * mix + LV_COLOR_GET_G(c2) * (255 
 1231              		.loc 3 438 0
 1232 0290 BE46     		mov	lr, r7
 1233 0292 1E9F     		ldr	r7, [sp, #120]
 1234 0294 1D92     		str	r2, [sp, #116]
 1235 0296 0EFB0272 		mla	r2, lr, r2, r7
 1236              	.LBE114:
 1237              	.LBE130:
 1238              	.LBB131:
 1239              	.LBB97:
 437:..\..\..\lvgl\version_6.1.2\lvgl\src\lv_objx\../lv_core/../lv_misc/lv_color.h ****     LV_COLOR_SET_G(ret, (uint16_t)((uint16_t) LV_COLOR_GET_G(c1) * mix + LV_COLOR_GET_G(c2) * (255 
 1240              		.loc 3 437 0
 1241 029a 139F     		ldr	r7, [sp, #76]
 1242              	.LBE97:
 1243              	.LBE131:
 1244              	.LBB132:
 1245              	.LBB115:
ARM GAS  C:\Users\pearlstl\AppData\Local\Temp\ccQFxYtd.s 			page 52


 438:..\..\..\lvgl\version_6.1.2\lvgl\src\lv_objx\../lv_core/../lv_misc/lv_color.h ****     LV_COLOR_SET_G(ret, (uint16_t)((uint16_t) LV_COLOR_GET_G(c1) * mix + LV_COLOR_GET_G(c2) * (255 
 1246              		.loc 3 438 0
 1247 029c 1698     		ldr	r0, [sp, #88]
 1248              	.LVL137:
 1249              	.LBE115:
 1250              	.LBE132:
 1251              	.LBB133:
 1252              	.LBB98:
 437:..\..\..\lvgl\version_6.1.2\lvgl\src\lv_objx\../lv_core/../lv_misc/lv_color.h ****     LV_COLOR_SET_G(ret, (uint16_t)((uint16_t) LV_COLOR_GET_G(c1) * mix + LV_COLOR_GET_G(c2) * (255 
 1253              		.loc 3 437 0
 1254 029e C7F3074E 		ubfx	lr, r7, #16, #8
 1255 02a2 CDF844E0 		str	lr, [sp, #68]
 1256              	.LBE98:
 1257              	.LBE133:
 1258              	.LBB134:
 1259              	.LBB116:
 1260 02a6 169F     		ldr	r7, [sp, #88]
 1261              	.LVL138:
 438:..\..\..\lvgl\version_6.1.2\lvgl\src\lv_objx\../lv_core/../lv_misc/lv_color.h ****     LV_COLOR_SET_G(ret, (uint16_t)((uint16_t) LV_COLOR_GET_G(c1) * mix + LV_COLOR_GET_G(c2) * (255 
 1262              		.loc 3 438 0
 1263 02a8 BDF820E0 		ldrh	lr, [sp, #32]
 1264              		.loc 3 439 0
 1265 02ac C1F30721 		ubfx	r1, r1, #8, #8
 1266              	.LVL139:
 438:..\..\..\lvgl\version_6.1.2\lvgl\src\lv_objx\../lv_core/../lv_misc/lv_color.h ****     LV_COLOR_SET_G(ret, (uint16_t)((uint16_t) LV_COLOR_GET_G(c1) * mix + LV_COLOR_GET_G(c2) * (255 
 1267              		.loc 3 438 0
 1268 02b0 C0F30720 		ubfx	r0, r0, #8, #8
 1269              	.LVL140:
 1270 02b4 10FB0EF0 		smulbb	r0, r0, lr
 1271              	.LVL141:
 437:..\..\..\lvgl\version_6.1.2\lvgl\src\lv_objx\../lv_core/../lv_misc/lv_color.h ****     LV_COLOR_SET_G(ret, (uint16_t)((uint16_t) LV_COLOR_GET_G(c1) * mix + LV_COLOR_GET_G(c2) * (255 
 1272              		.loc 3 437 0
 1273 02b8 C7F3074E 		ubfx	lr, r7, #16, #8
 1274              		.loc 3 439 0
 1275 02bc C1EBC117 		rsb	r7, r1, r1, lsl #7
 1276              	.LVL142:
 1277 02c0 1397     		str	r7, [sp, #76]
 1278 02c2 1F9F     		ldr	r7, [sp, #124]
 1279 02c4 C7F30727 		ubfx	r7, r7, #8, #8
 1280 02c8 1697     		str	r7, [sp, #88]
 437:..\..\..\lvgl\version_6.1.2\lvgl\src\lv_objx\../lv_core/../lv_misc/lv_color.h ****     LV_COLOR_SET_G(ret, (uint16_t)((uint16_t) LV_COLOR_GET_G(c1) * mix + LV_COLOR_GET_G(c2) * (255 
 1281              		.loc 3 437 0
 1282 02ca 1C9F     		ldr	r7, [sp, #112]
 1283 02cc 3946     		mov	r1, r7
 1284 02ce 119F     		ldr	r7, [sp, #68]
 1285 02d0 07FB0133 		mla	r3, r7, r1, r3
 438:..\..\..\lvgl\version_6.1.2\lvgl\src\lv_objx\../lv_core/../lv_misc/lv_color.h ****     LV_COLOR_SET_G(ret, (uint16_t)((uint16_t) LV_COLOR_GET_G(c1) * mix + LV_COLOR_GET_G(c2) * (255 
 1286              		.loc 3 438 0
 1287 02d4 1D9F     		ldr	r7, [sp, #116]
 437:..\..\..\lvgl\version_6.1.2\lvgl\src\lv_objx\../lv_core/../lv_misc/lv_color.h ****     LV_COLOR_SET_G(ret, (uint16_t)((uint16_t) LV_COLOR_GET_G(c1) * mix + LV_COLOR_GET_G(c2) * (255 
 1288              		.loc 3 437 0
 1289 02d6 BDF82010 		ldrh	r1, [sp, #32]
 438:..\..\..\lvgl\version_6.1.2\lvgl\src\lv_objx\../lv_core/../lv_misc/lv_color.h ****     LV_COLOR_SET_G(ret, (uint16_t)((uint16_t) LV_COLOR_GET_G(c1) * mix + LV_COLOR_GET_G(c2) * (255 
 1290              		.loc 3 438 0
 1291 02da 0CFB0700 		mla	r0, ip, r7, r0
 1292              		.loc 3 439 0
 1293 02de 169F     		ldr	r7, [sp, #88]
ARM GAS  C:\Users\pearlstl\AppData\Local\Temp\ccQFxYtd.s 			page 53


 437:..\..\..\lvgl\version_6.1.2\lvgl\src\lv_objx\../lv_core/../lv_misc/lv_color.h ****     LV_COLOR_SET_G(ret, (uint16_t)((uint16_t) LV_COLOR_GET_G(c1) * mix + LV_COLOR_GET_G(c2) * (255 
 1294              		.loc 3 437 0
 1295 02e0 1EFB01FE 		smulbb	lr, lr, r1
 1296              		.loc 3 439 0
 1297 02e4 3946     		mov	r1, r7
 1298 02e6 139F     		ldr	r7, [sp, #76]
 438:..\..\..\lvgl\version_6.1.2\lvgl\src\lv_objx\../lv_core/../lv_misc/lv_color.h ****     LV_COLOR_SET_G(ret, (uint16_t)((uint16_t) LV_COLOR_GET_G(c1) * mix + LV_COLOR_GET_G(c2) * (255 
 1299              		.loc 3 438 0
 1300 02e8 C2F30722 		ubfx	r2, r2, #8, #8
 1301              		.loc 3 439 0
 1302 02ec 07EBC111 		add	r1, r7, r1, lsl #7
 437:..\..\..\lvgl\version_6.1.2\lvgl\src\lv_objx\../lv_core/../lv_misc/lv_color.h ****     LV_COLOR_SET_G(ret, (uint16_t)((uint16_t) LV_COLOR_GET_G(c1) * mix + LV_COLOR_GET_G(c2) * (255 
 1303              		.loc 3 437 0
 1304 02f0 119F     		ldr	r7, [sp, #68]
 438:..\..\..\lvgl\version_6.1.2\lvgl\src\lv_objx\../lv_core/../lv_misc/lv_color.h ****     LV_COLOR_SET_G(ret, (uint16_t)((uint16_t) LV_COLOR_GET_G(c1) * mix + LV_COLOR_GET_G(c2) * (255 
 1305              		.loc 3 438 0
 1306 02f2 C0F30720 		ubfx	r0, r0, #8, #8
 1307 02f6 C2EBC212 		rsb	r2, r2, r2, lsl #7
 1308              		.loc 3 439 0
 1309 02fa C1F30721 		ubfx	r1, r1, #8, #8
 438:..\..\..\lvgl\version_6.1.2\lvgl\src\lv_objx\../lv_core/../lv_misc/lv_color.h ****     LV_COLOR_SET_G(ret, (uint16_t)((uint16_t) LV_COLOR_GET_G(c1) * mix + LV_COLOR_GET_G(c2) * (255 
 1310              		.loc 3 438 0
 1311 02fe 02EBC012 		add	r2, r2, r0, lsl #7
 437:..\..\..\lvgl\version_6.1.2\lvgl\src\lv_objx\../lv_core/../lv_misc/lv_color.h ****     LV_COLOR_SET_G(ret, (uint16_t)((uint16_t) LV_COLOR_GET_G(c1) * mix + LV_COLOR_GET_G(c2) * (255 
 1312              		.loc 3 437 0
 1313 0302 C3F30723 		ubfx	r3, r3, #8, #8
 1314 0306 1A98     		ldr	r0, [sp, #104]
 1315              	.LVL143:
 1316              		.loc 3 439 0
 1317 0308 1391     		str	r1, [sp, #76]
 437:..\..\..\lvgl\version_6.1.2\lvgl\src\lv_objx\../lv_core/../lv_misc/lv_color.h ****     LV_COLOR_SET_G(ret, (uint16_t)((uint16_t) LV_COLOR_GET_G(c1) * mix + LV_COLOR_GET_G(c2) * (255 
 1318              		.loc 3 437 0
 1319 030a 0CFB07EE 		mla	lr, ip, r7, lr
 1320              		.loc 3 439 0
 1321 030e C9B2     		uxtb	r1, r1
 437:..\..\..\lvgl\version_6.1.2\lvgl\src\lv_objx\../lv_core/../lv_misc/lv_color.h ****     LV_COLOR_SET_G(ret, (uint16_t)((uint16_t) LV_COLOR_GET_G(c1) * mix + LV_COLOR_GET_G(c2) * (255 
 1322              		.loc 3 437 0
 1323 0310 C3EBC313 		rsb	r3, r3, r3, lsl #7
 1324 0314 CEF3072E 		ubfx	lr, lr, #8, #8
 438:..\..\..\lvgl\version_6.1.2\lvgl\src\lv_objx\../lv_core/../lv_misc/lv_color.h ****     LV_COLOR_SET_G(ret, (uint16_t)((uint16_t) LV_COLOR_GET_G(c1) * mix + LV_COLOR_GET_G(c2) * (255 
 1325              		.loc 3 438 0
 1326 0318 C2F30722 		ubfx	r2, r2, #8, #8
 437:..\..\..\lvgl\version_6.1.2\lvgl\src\lv_objx\../lv_core/../lv_misc/lv_color.h ****     LV_COLOR_SET_G(ret, (uint16_t)((uint16_t) LV_COLOR_GET_G(c1) * mix + LV_COLOR_GET_G(c2) * (255 
 1327              		.loc 3 437 0
 1328 031c 03EBCE13 		add	r3, r3, lr, lsl #7
 1329 0320 61F30700 		bfi	r0, r1, #0, #8
 1330              	.LVL144:
 1331 0324 C3F30723 		ubfx	r3, r3, #8, #8
 1332              		.loc 3 439 0
 1333 0328 1D91     		str	r1, [sp, #116]
 438:..\..\..\lvgl\version_6.1.2\lvgl\src\lv_objx\../lv_core/../lv_misc/lv_color.h ****     LV_COLOR_SET_G(ret, (uint16_t)((uint16_t) LV_COLOR_GET_G(c1) * mix + LV_COLOR_GET_G(c2) * (255 
 1334              		.loc 3 438 0
 1335 032a 1192     		str	r2, [sp, #68]
 1336 032c 0146     		mov	r1, r0
 1337 032e D2B2     		uxtb	r2, r2
 437:..\..\..\lvgl\version_6.1.2\lvgl\src\lv_objx\../lv_core/../lv_misc/lv_color.h ****     LV_COLOR_SET_G(ret, (uint16_t)((uint16_t) LV_COLOR_GET_G(c1) * mix + LV_COLOR_GET_G(c2) * (255 
 1338              		.loc 3 437 0
ARM GAS  C:\Users\pearlstl\AppData\Local\Temp\ccQFxYtd.s 			page 54


 1339 0330 0893     		str	r3, [sp, #32]
 1340 0332 62F30F21 		bfi	r1, r2, #8, #8
 1341              	.LVL145:
 1342 0336 DBB2     		uxtb	r3, r3
 1343 0338 63F31741 		bfi	r1, r3, #16, #8
 1344 033c 1693     		str	r3, [sp, #88]
 1345 033e 41F07F43 		orr	r3, r1, #-16777216
 1346              	.LVL146:
 1347 0342 1A93     		str	r3, [sp, #104]
 1348              	.LVL147:
 1349              	.LBE116:
 1350              	.LBE134:
 388:..\..\..\lvgl\version_6.1.2\lvgl\src\lv_objx/lv_canvas.c ****                 /*If the image has no alpha channel just simple set the result color on the canvas*
 1351              		.loc 1 388 0
 1352 0344 079B     		ldr	r3, [sp, #28]
 1353              	.LVL148:
 1354              	.LBB135:
 1355              	.LBB117:
 438:..\..\..\lvgl\version_6.1.2\lvgl\src\lv_objx\../lv_core/../lv_misc/lv_color.h ****     LV_COLOR_SET_B(ret, (uint16_t)((uint16_t) LV_COLOR_GET_B(c1) * mix + LV_COLOR_GET_B(c2) * (255 
 1356              		.loc 3 438 0
 1357 0346 1C92     		str	r2, [sp, #112]
 1358              	.LVL149:
 1359              	.LBE117:
 1360              	.LBE135:
 388:..\..\..\lvgl\version_6.1.2\lvgl\src\lv_objx/lv_canvas.c ****                 /*If the image has no alpha channel just simple set the result color on the canvas*
 1361              		.loc 1 388 0
 1362 0348 002B     		cmp	r3, #0
 1363 034a FFF6E9AE 		blt	.L75
 388:..\..\..\lvgl\version_6.1.2\lvgl\src\lv_objx/lv_canvas.c ****                 /*If the image has no alpha channel just simple set the result color on the canvas*
 1364              		.loc 1 388 0 is_stmt 0 discriminator 1
 1365 034e 219A     		ldr	r2, [sp, #132]
 1366 0350 9A42     		cmp	r2, r3
 1367 0352 7FF7E5AE 		ble	.L75
 388:..\..\..\lvgl\version_6.1.2\lvgl\src\lv_objx/lv_canvas.c ****                 /*If the image has no alpha channel just simple set the result color on the canvas*
 1368              		.loc 1 388 0 discriminator 2
 1369 0356 B8F1000F 		cmp	r8, #0
 1370 035a FFF6E1AE 		blt	.L75
 388:..\..\..\lvgl\version_6.1.2\lvgl\src\lv_objx/lv_canvas.c ****                 /*If the image has no alpha channel just simple set the result color on the canvas*
 1371              		.loc 1 388 0 discriminator 3
 1372 035e 1B9B     		ldr	r3, [sp, #108]
 1373 0360 4345     		cmp	r3, r8
 1374 0362 7FF7DDAE 		ble	.L75
 390:..\..\..\lvgl\version_6.1.2\lvgl\src\lv_objx/lv_canvas.c ****                     lv_img_buf_set_px_color(&ext_dst->dsc, x + offset_x, y + offset_y, color_res);
 1375              		.loc 1 390 0 is_stmt 1
 1376 0366 149B     		ldr	r3, [sp, #80]
 1377 0368 1878     		ldrb	r0, [r3]	@ zero_extendqisi2
 1378 036a 00F01F00 		and	r0, r0, #31
 1379 036e FFF7FEFF 		bl	lv_img_color_format_has_alpha
 1380              	.LVL150:
 1381 0372 38B9     		cbnz	r0, .L67
 391:..\..\..\lvgl\version_6.1.2\lvgl\src\lv_objx/lv_canvas.c ****                 } else {
 1382              		.loc 1 391 0
 1383 0374 1A9B     		ldr	r3, [sp, #104]
 1384 0376 0D99     		ldr	r1, [sp, #52]
 1385 0378 1098     		ldr	r0, [sp, #64]
 1386 037a 0FFA8AF2 		sxth	r2, r10
 1387 037e FFF7FEFF 		bl	lv_img_buf_set_px_color
ARM GAS  C:\Users\pearlstl\AppData\Local\Temp\ccQFxYtd.s 			page 55


 1388              	.LVL151:
 1389 0382 CDE6     		b	.L75
 1390              	.L67:
 1391              	.LBB136:
 394:..\..\..\lvgl\version_6.1.2\lvgl\src\lv_objx/lv_canvas.c ****                     lv_opa_t opa_xn  = lv_img_buf_get_px_alpha(img, xn, ys_int);
 1392              		.loc 1 394 0
 1393 0384 149F     		ldr	r7, [sp, #80]
 1394 0386 199A     		ldr	r2, [sp, #100]
 1395 0388 1899     		ldr	r1, [sp, #96]
 1396 038a 3846     		mov	r0, r7
 1397 038c FFF7FEFF 		bl	lv_img_buf_get_px_alpha
 1398              	.LVL152:
 395:..\..\..\lvgl\version_6.1.2\lvgl\src\lv_objx/lv_canvas.c ****                     lv_opa_t opa_yn  = lv_img_buf_get_px_alpha(img, xs_int, yn);
 1399              		.loc 1 395 0
 1400 0390 199A     		ldr	r2, [sp, #100]
 394:..\..\..\lvgl\version_6.1.2\lvgl\src\lv_objx/lv_canvas.c ****                     lv_opa_t opa_xn  = lv_img_buf_get_px_alpha(img, xn, ys_int);
 1401              		.loc 1 394 0
 1402 0392 1E90     		str	r0, [sp, #120]
 1403              	.LVL153:
 395:..\..\..\lvgl\version_6.1.2\lvgl\src\lv_objx/lv_canvas.c ****                     lv_opa_t opa_yn  = lv_img_buf_get_px_alpha(img, xs_int, yn);
 1404              		.loc 1 395 0
 1405 0394 2299     		ldr	r1, [sp, #136]
 1406 0396 3846     		mov	r0, r7
 1407 0398 FFF7FEFF 		bl	lv_img_buf_get_px_alpha
 1408              	.LVL154:
 396:..\..\..\lvgl\version_6.1.2\lvgl\src\lv_objx/lv_canvas.c ****                     lv_opa_t opa_x   = (opa_int * xr + (opa_xn * (255 - xr))) >> 8;
 1409              		.loc 1 396 0
 1410 039c 239A     		ldr	r2, [sp, #140]
 395:..\..\..\lvgl\version_6.1.2\lvgl\src\lv_objx/lv_canvas.c ****                     lv_opa_t opa_yn  = lv_img_buf_get_px_alpha(img, xs_int, yn);
 1411              		.loc 1 395 0
 1412 039e 1990     		str	r0, [sp, #100]
 1413              	.LVL155:
 396:..\..\..\lvgl\version_6.1.2\lvgl\src\lv_objx/lv_canvas.c ****                     lv_opa_t opa_x   = (opa_int * xr + (opa_xn * (255 - xr))) >> 8;
 1414              		.loc 1 396 0
 1415 03a0 1899     		ldr	r1, [sp, #96]
 1416 03a2 3846     		mov	r0, r7
 1417 03a4 FFF7FEFF 		bl	lv_img_buf_get_px_alpha
 1418              	.LVL156:
 399:..\..\..\lvgl\version_6.1.2\lvgl\src\lv_objx/lv_canvas.c ****                     if(opa_res <= LV_OPA_MIN) continue;
 1419              		.loc 1 399 0
 1420 03a8 BDF85C10 		ldrh	r1, [sp, #92]
 1421 03ac 1E9B     		ldr	r3, [sp, #120]
 1422 03ae 13FB01F2 		smulbb	r2, r3, r1
 1423 03b2 BDF84810 		ldrh	r1, [sp, #72]
 1424 03b6 13FB01F3 		smulbb	r3, r3, r1
 1425 03ba 2499     		ldr	r1, [sp, #144]
 1426 03bc 01FB0020 		mla	r0, r1, r0, r2
 1427              	.LVL157:
 1428 03c0 199A     		ldr	r2, [sp, #100]
 1429 03c2 2599     		ldr	r1, [sp, #148]
 1430 03c4 01FB0233 		mla	r3, r1, r2, r3
 1431 03c8 C3F30723 		ubfx	r3, r3, #8, #8
 1432 03cc C0F30722 		ubfx	r2, r0, #8, #8
 1433 03d0 1A44     		add	r2, r2, r3
 1434 03d2 5310     		asrs	r3, r2, #1
 400:..\..\..\lvgl\version_6.1.2\lvgl\src\lv_objx/lv_canvas.c **** 
 1435              		.loc 1 400 0
ARM GAS  C:\Users\pearlstl\AppData\Local\Temp\ccQFxYtd.s 			page 56


 1436 03d4 102B     		cmp	r3, #16
 399:..\..\..\lvgl\version_6.1.2\lvgl\src\lv_objx/lv_canvas.c ****                     if(opa_res <= LV_OPA_MIN) continue;
 1437              		.loc 1 399 0
 1438 03d6 1793     		str	r3, [sp, #92]
 1439              	.LVL158:
 400:..\..\..\lvgl\version_6.1.2\lvgl\src\lv_objx/lv_canvas.c **** 
 1440              		.loc 1 400 0
 1441 03d8 7FF7A2AE 		ble	.L75
 402:..\..\..\lvgl\version_6.1.2\lvgl\src\lv_objx/lv_canvas.c **** 
 1442              		.loc 1 402 0
 1443 03dc 0FFA8AF3 		sxth	r3, r10
 1444              	.LVL159:
 1445 03e0 1A46     		mov	r2, r3
 1446 03e2 1293     		str	r3, [sp, #72]
 1447              	.LVL160:
 1448 03e4 0D99     		ldr	r1, [sp, #52]
 1449 03e6 159B     		ldr	r3, [sp, #84]
 1450 03e8 1098     		ldr	r0, [sp, #64]
 1451 03ea FFF7FEFF 		bl	lv_img_buf_get_px_color
 1452              	.LVL161:
 406:..\..\..\lvgl\version_6.1.2\lvgl\src\lv_objx/lv_canvas.c ****                         if(opa_res < LV_OPA_MAX) color_res = lv_color_mix(color_res, bg_color, opa_
 1453              		.loc 1 406 0
 1454 03ee 0C9B     		ldr	r3, [sp, #48]
 399:..\..\..\lvgl\version_6.1.2\lvgl\src\lv_objx/lv_canvas.c ****                     if(opa_res <= LV_OPA_MIN) continue;
 1455              		.loc 1 399 0
 1456 03f0 9DF85C10 		ldrb	r1, [sp, #92]	@ zero_extendqisi2
 1457 03f4 1891     		str	r1, [sp, #96]
 402:..\..\..\lvgl\version_6.1.2\lvgl\src\lv_objx/lv_canvas.c **** 
 1458              		.loc 1 402 0
 1459 03f6 0246     		mov	r2, r0
 1460              	.LVL162:
 406:..\..\..\lvgl\version_6.1.2\lvgl\src\lv_objx/lv_canvas.c ****                         if(opa_res < LV_OPA_MAX) color_res = lv_color_mix(color_res, bg_color, opa_
 1461              		.loc 1 406 0
 1462 03f8 187C     		ldrb	r0, [r3, #16]	@ zero_extendqisi2
 402:..\..\..\lvgl\version_6.1.2\lvgl\src\lv_objx/lv_canvas.c **** 
 1463              		.loc 1 402 0
 1464 03fa D3B2     		uxtb	r3, r2
 1465 03fc 1F46     		mov	r7, r3
 1466              	.LVL163:
 406:..\..\..\lvgl\version_6.1.2\lvgl\src\lv_objx/lv_canvas.c ****                         if(opa_res < LV_OPA_MAX) color_res = lv_color_mix(color_res, bg_color, opa_
 1467              		.loc 1 406 0
 1468 03fe 00F01F00 		and	r0, r0, #31
 402:..\..\..\lvgl\version_6.1.2\lvgl\src\lv_objx/lv_canvas.c **** 
 1469              		.loc 1 402 0
 1470 0402 C2F30723 		ubfx	r3, r2, #8, #8
 1471 0406 C2F30742 		ubfx	r2, r2, #16, #8
 1472              	.LVL164:
 1473 040a 1E93     		str	r3, [sp, #120]
 1474              	.LVL165:
 1475 040c 1992     		str	r2, [sp, #100]
 406:..\..\..\lvgl\version_6.1.2\lvgl\src\lv_objx/lv_canvas.c ****                         if(opa_res < LV_OPA_MAX) color_res = lv_color_mix(color_res, bg_color, opa_
 1476              		.loc 1 406 0
 1477 040e FFF7FEFF 		bl	lv_img_color_format_has_alpha
 1478              	.LVL166:
 1479 0412 0028     		cmp	r0, #0
 1480 0414 34D1     		bne	.L69
 407:..\..\..\lvgl\version_6.1.2\lvgl\src\lv_objx/lv_canvas.c ****                         lv_img_buf_set_px_color(&ext_dst->dsc, x + offset_x, y + offset_y, color_re
ARM GAS  C:\Users\pearlstl\AppData\Local\Temp\ccQFxYtd.s 			page 57


 1481              		.loc 1 407 0
 1482 0416 1798     		ldr	r0, [sp, #92]
 1483 0418 FA28     		cmp	r0, #250
 1484 041a 20DC     		bgt	.L70
 1485              	.LVL167:
 1486              	.LBB77:
 1487              	.LBB78:
 437:..\..\..\lvgl\version_6.1.2\lvgl\src\lv_objx\../lv_core/../lv_misc/lv_color.h ****     LV_COLOR_SET_G(ret, (uint16_t)((uint16_t) LV_COLOR_GET_G(c1) * mix + LV_COLOR_GET_G(c2) * (255 
 1488              		.loc 3 437 0 discriminator 1
 1489 041c C0F1FF02 		rsb	r2, r0, #255
 438:..\..\..\lvgl\version_6.1.2\lvgl\src\lv_objx\../lv_core/../lv_misc/lv_color.h ****     LV_COLOR_SET_B(ret, (uint16_t)((uint16_t) LV_COLOR_GET_B(c1) * mix + LV_COLOR_GET_B(c2) * (255 
 1490              		.loc 3 438 0 discriminator 1
 1491 0420 BDF87830 		ldrh	r3, [sp, #120]
 437:..\..\..\lvgl\version_6.1.2\lvgl\src\lv_objx\../lv_core/../lv_misc/lv_color.h ****     LV_COLOR_SET_G(ret, (uint16_t)((uint16_t) LV_COLOR_GET_G(c1) * mix + LV_COLOR_GET_G(c2) * (255 
 1492              		.loc 3 437 0 discriminator 1
 1493 0424 BDF86400 		ldrh	r0, [sp, #100]
 1494 0428 92B2     		uxth	r2, r2
 438:..\..\..\lvgl\version_6.1.2\lvgl\src\lv_objx\../lv_core/../lv_misc/lv_color.h ****     LV_COLOR_SET_B(ret, (uint16_t)((uint16_t) LV_COLOR_GET_B(c1) * mix + LV_COLOR_GET_B(c2) * (255 
 1495              		.loc 3 438 0 discriminator 1
 1496 042a 13FB02F1 		smulbb	r1, r3, r2
 437:..\..\..\lvgl\version_6.1.2\lvgl\src\lv_objx\../lv_core/../lv_misc/lv_color.h ****     LV_COLOR_SET_G(ret, (uint16_t)((uint16_t) LV_COLOR_GET_G(c1) * mix + LV_COLOR_GET_G(c2) * (255 
 1497              		.loc 3 437 0 discriminator 1
 1498 042e 10FB02F0 		smulbb	r0, r0, r2
 1499              		.loc 3 439 0 discriminator 1
 1500 0432 17FB02F3 		smulbb	r3, r7, r2
 437:..\..\..\lvgl\version_6.1.2\lvgl\src\lv_objx\../lv_core/../lv_misc/lv_color.h ****     LV_COLOR_SET_G(ret, (uint16_t)((uint16_t) LV_COLOR_GET_G(c1) * mix + LV_COLOR_GET_G(c2) * (255 
 1501              		.loc 3 437 0 discriminator 1
 1502 0436 BDF86020 		ldrh	r2, [sp, #96]
 1503 043a 089F     		ldr	r7, [sp, #32]
 1504              	.LVL168:
 1505 043c 07FB0200 		mla	r0, r7, r2, r0
 438:..\..\..\lvgl\version_6.1.2\lvgl\src\lv_objx\../lv_core/../lv_misc/lv_color.h ****     LV_COLOR_SET_B(ret, (uint16_t)((uint16_t) LV_COLOR_GET_B(c1) * mix + LV_COLOR_GET_B(c2) * (255 
 1506              		.loc 3 438 0 discriminator 1
 1507 0440 119F     		ldr	r7, [sp, #68]
 1508 0442 07FB0211 		mla	r1, r7, r2, r1
 1509              		.loc 3 439 0 discriminator 1
 1510 0446 139F     		ldr	r7, [sp, #76]
 1511 0448 07FB0233 		mla	r3, r7, r2, r3
 437:..\..\..\lvgl\version_6.1.2\lvgl\src\lv_objx\../lv_core/../lv_misc/lv_color.h ****     LV_COLOR_SET_G(ret, (uint16_t)((uint16_t) LV_COLOR_GET_G(c1) * mix + LV_COLOR_GET_G(c2) * (255 
 1512              		.loc 3 437 0 discriminator 1
 1513 044c C0F30722 		ubfx	r2, r0, #8, #8
 1514 0450 1692     		str	r2, [sp, #88]
 1515              	.LVL169:
 1516              		.loc 3 439 0 discriminator 1
 1517 0452 C3F30723 		ubfx	r3, r3, #8, #8
 438:..\..\..\lvgl\version_6.1.2\lvgl\src\lv_objx\../lv_core/../lv_misc/lv_color.h ****     LV_COLOR_SET_B(ret, (uint16_t)((uint16_t) LV_COLOR_GET_B(c1) * mix + LV_COLOR_GET_B(c2) * (255 
 1518              		.loc 3 438 0 discriminator 1
 1519 0456 C1F30722 		ubfx	r2, r1, #8, #8
 1520 045a 1C92     		str	r2, [sp, #112]
 1521              	.LVL170:
 1522              		.loc 3 439 0 discriminator 1
 1523 045c 1D93     		str	r3, [sp, #116]
 1524              	.LVL171:
 1525              	.L70:
 1526              	.LBE78:
 1527              	.LBE77:
 408:..\..\..\lvgl\version_6.1.2\lvgl\src\lv_objx/lv_canvas.c ****                     }
ARM GAS  C:\Users\pearlstl\AppData\Local\Temp\ccQFxYtd.s 			page 58


 1528              		.loc 1 408 0
 1529 045e 1A9B     		ldr	r3, [sp, #104]
 1530              	.LVL172:
 1531 0460 1D9A     		ldr	r2, [sp, #116]
 1532 0462 0D99     		ldr	r1, [sp, #52]
 1533 0464 1098     		ldr	r0, [sp, #64]
 1534 0466 62F30703 		bfi	r3, r2, #0, #8
 1535              	.LVL173:
 1536 046a 1C9A     		ldr	r2, [sp, #112]
 1537 046c 62F30F23 		bfi	r3, r2, #8, #8
 1538 0470 169A     		ldr	r2, [sp, #88]
 1539 0472 62F31743 		bfi	r3, r2, #16, #8
 1540 0476 129A     		ldr	r2, [sp, #72]
 1541 0478 1A93     		str	r3, [sp, #104]
 1542 047a FFF7FEFF 		bl	lv_img_buf_set_px_color
 1543              	.LVL174:
 1544 047e 4FE6     		b	.L75
 1545              	.LVL175:
 1546              	.L69:
 1547              	.LBB79:
 413:..\..\..\lvgl\version_6.1.2\lvgl\src\lv_objx/lv_canvas.c ****                         /* Pick the foreground if it's fully opaque or the Background is fully
 1548              		.loc 1 413 0
 1549 0480 129A     		ldr	r2, [sp, #72]
 1550 0482 0D99     		ldr	r1, [sp, #52]
 1551 0484 1098     		ldr	r0, [sp, #64]
 1552 0486 FFF7FEFF 		bl	lv_img_buf_get_px_alpha
 1553              	.LVL176:
 416:..\..\..\lvgl\version_6.1.2\lvgl\src\lv_objx/lv_canvas.c ****                             lv_img_buf_set_px_color(&ext_dst->dsc, x + offset_x, y + offset_y, colo
 1554              		.loc 1 416 0
 1555 048a 179B     		ldr	r3, [sp, #92]
 1556 048c FA2B     		cmp	r3, #250
 1557 048e 01DC     		bgt	.L72
 416:..\..\..\lvgl\version_6.1.2\lvgl\src\lv_objx/lv_canvas.c ****                             lv_img_buf_set_px_color(&ext_dst->dsc, x + offset_x, y + offset_y, colo
 1558              		.loc 1 416 0 is_stmt 0 discriminator 1
 1559 0490 1028     		cmp	r0, #16
 1560 0492 0DD8     		bhi	.L73
 1561              	.L72:
 417:..\..\..\lvgl\version_6.1.2\lvgl\src\lv_objx/lv_canvas.c ****                             lv_img_buf_set_px_alpha(&ext_dst->dsc, x + offset_x, y + offset_y, opa_
 1562              		.loc 1 417 0 is_stmt 1
 1563 0494 109F     		ldr	r7, [sp, #64]
 1564              	.LVL177:
 1565 0496 1A9B     		ldr	r3, [sp, #104]
 1566 0498 129A     		ldr	r2, [sp, #72]
 1567 049a 0D99     		ldr	r1, [sp, #52]
 1568 049c 3846     		mov	r0, r7
 1569              	.LVL178:
 1570 049e FFF7FEFF 		bl	lv_img_buf_set_px_color
 1571              	.LVL179:
 418:..\..\..\lvgl\version_6.1.2\lvgl\src\lv_objx/lv_canvas.c ****                         }
 1572              		.loc 1 418 0
 1573 04a2 189B     		ldr	r3, [sp, #96]
 1574 04a4 129A     		ldr	r2, [sp, #72]
 1575 04a6 0D99     		ldr	r1, [sp, #52]
 1576 04a8 3846     		mov	r0, r7
 1577 04aa FFF7FEFF 		bl	lv_img_buf_set_px_alpha
 1578              	.LVL180:
 1579 04ae 37E6     		b	.L75
ARM GAS  C:\Users\pearlstl\AppData\Local\Temp\ccQFxYtd.s 			page 59


 1580              	.LVL181:
 1581              	.L73:
 421:..\..\..\lvgl\version_6.1.2\lvgl\src\lv_objx/lv_canvas.c ****                             lv_img_buf_set_px_color(&ext_dst->dsc, x + offset_x, y + offset_y,
 1582              		.loc 1 421 0
 1583 04b0 FA28     		cmp	r0, #250
 1584 04b2 47D8     		bhi	.L97
 1585              	.LBB80:
 430:..\..\..\lvgl\version_6.1.2\lvgl\src\lv_objx/lv_canvas.c ****                             if(opa_res_2 == 0) {
 1586              		.loc 1 430 0
 1587 04b4 BDF86020 		ldrh	r2, [sp, #96]
 1588 04b8 C0F1FF00 		rsb	r0, r0, #255
 1589              	.LVL182:
 1590 04bc C2F1FF03 		rsb	r3, r2, #255
 1591 04c0 13FB00F3 		smulbb	r3, r3, r0
 434:..\..\..\lvgl\version_6.1.2\lvgl\src\lv_objx/lv_canvas.c **** 
 1592              		.loc 1 434 0
