ARM GAS  C:\Users\pearlstl\AppData\Local\Temp\ccRrtFoa.s 			page 1


   1              		.syntax unified
   2              		.cpu cortex-m4
   3              		.eabi_attribute 27, 1
   4              		.fpu fpv4-sp-d16
   5              		.eabi_attribute 20, 1
   6              		.eabi_attribute 21, 1
   7              		.eabi_attribute 23, 3
   8              		.eabi_attribute 24, 1
   9              		.eabi_attribute 25, 1
  10              		.eabi_attribute 26, 1
  11              		.eabi_attribute 30, 2
  12              		.eabi_attribute 34, 1
  13              		.eabi_attribute 18, 4
  14              		.thumb
  15              		.syntax unified
  16              		.file	"lv_chart.c"
  17              		.text
  18              	.Ltext0:
  19              		.cfi_sections	.debug_frame
  20              		.section	.text.lv_chart_draw_lines,"ax",%progbits
  21              		.align	2
  22              		.thumb
  23              		.thumb_func
  24              		.type	lv_chart_draw_lines, %function
  25              	lv_chart_draw_lines:
  26              	.LFB66:
  27              		.file 1 "..\\..\\..\\lvgl\\version_6.1.2\\lvgl\\src\\lv_objx\\lv_chart.c"
   1:..\..\..\lvgl\version_6.1.2\lvgl\src\lv_objx/lv_chart.c **** /**
   2:..\..\..\lvgl\version_6.1.2\lvgl\src\lv_objx/lv_chart.c ****  * @file lv_chart.c
   3:..\..\..\lvgl\version_6.1.2\lvgl\src\lv_objx/lv_chart.c ****  *
   4:..\..\..\lvgl\version_6.1.2\lvgl\src\lv_objx/lv_chart.c ****  */
   5:..\..\..\lvgl\version_6.1.2\lvgl\src\lv_objx/lv_chart.c **** 
   6:..\..\..\lvgl\version_6.1.2\lvgl\src\lv_objx/lv_chart.c **** /*********************
   7:..\..\..\lvgl\version_6.1.2\lvgl\src\lv_objx/lv_chart.c ****  *      INCLUDES
   8:..\..\..\lvgl\version_6.1.2\lvgl\src\lv_objx/lv_chart.c ****  *********************/
   9:..\..\..\lvgl\version_6.1.2\lvgl\src\lv_objx/lv_chart.c **** #include "lv_chart.h"
  10:..\..\..\lvgl\version_6.1.2\lvgl\src\lv_objx/lv_chart.c **** #if LV_USE_CHART != 0
  11:..\..\..\lvgl\version_6.1.2\lvgl\src\lv_objx/lv_chart.c **** 
  12:..\..\..\lvgl\version_6.1.2\lvgl\src\lv_objx/lv_chart.c **** #include "../lv_core/lv_debug.h"
  13:..\..\..\lvgl\version_6.1.2\lvgl\src\lv_objx/lv_chart.c **** #include "../lv_core/lv_refr.h"
  14:..\..\..\lvgl\version_6.1.2\lvgl\src\lv_objx/lv_chart.c **** #include "../lv_draw/lv_draw.h"
  15:..\..\..\lvgl\version_6.1.2\lvgl\src\lv_objx/lv_chart.c **** #include "../lv_themes/lv_theme.h"
  16:..\..\..\lvgl\version_6.1.2\lvgl\src\lv_objx/lv_chart.c **** 
  17:..\..\..\lvgl\version_6.1.2\lvgl\src\lv_objx/lv_chart.c **** /*********************
  18:..\..\..\lvgl\version_6.1.2\lvgl\src\lv_objx/lv_chart.c ****  *      DEFINES
  19:..\..\..\lvgl\version_6.1.2\lvgl\src\lv_objx/lv_chart.c ****  *********************/
  20:..\..\..\lvgl\version_6.1.2\lvgl\src\lv_objx/lv_chart.c **** #define LV_OBJX_NAME "lv_chart"
  21:..\..\..\lvgl\version_6.1.2\lvgl\src\lv_objx/lv_chart.c **** 
  22:..\..\..\lvgl\version_6.1.2\lvgl\src\lv_objx/lv_chart.c **** #define LV_CHART_YMIN_DEF 0
  23:..\..\..\lvgl\version_6.1.2\lvgl\src\lv_objx/lv_chart.c **** #define LV_CHART_YMAX_DEF 100
  24:..\..\..\lvgl\version_6.1.2\lvgl\src\lv_objx/lv_chart.c **** #define LV_CHART_HDIV_DEF 3
  25:..\..\..\lvgl\version_6.1.2\lvgl\src\lv_objx/lv_chart.c **** #define LV_CHART_VDIV_DEF 5
  26:..\..\..\lvgl\version_6.1.2\lvgl\src\lv_objx/lv_chart.c **** #define LV_CHART_PNUM_DEF 10
  27:..\..\..\lvgl\version_6.1.2\lvgl\src\lv_objx/lv_chart.c **** #define LV_CHART_AXIS_TO_LABEL_DISTANCE 4
  28:..\..\..\lvgl\version_6.1.2\lvgl\src\lv_objx/lv_chart.c **** #define LV_CHART_AXIS_MAJOR_TICK_LEN_COE 1 / 15
  29:..\..\..\lvgl\version_6.1.2\lvgl\src\lv_objx/lv_chart.c **** #define LV_CHART_AXIS_MINOR_TICK_LEN_COE 2 / 3
  30:..\..\..\lvgl\version_6.1.2\lvgl\src\lv_objx/lv_chart.c **** #define LV_CHART_AXIS_PRIMARY_Y 1
ARM GAS  C:\Users\pearlstl\AppData\Local\Temp\ccRrtFoa.s 			page 2


  31:..\..\..\lvgl\version_6.1.2\lvgl\src\lv_objx/lv_chart.c **** #define LV_CHART_AXIS_SECONDARY_Y 0
  32:..\..\..\lvgl\version_6.1.2\lvgl\src\lv_objx/lv_chart.c **** #define LV_CHART_LABEL_ITERATOR_FORWARD 1
  33:..\..\..\lvgl\version_6.1.2\lvgl\src\lv_objx/lv_chart.c **** #define LV_CHART_LABEL_ITERATOR_REVERSE 0
  34:..\..\..\lvgl\version_6.1.2\lvgl\src\lv_objx/lv_chart.c **** 
  35:..\..\..\lvgl\version_6.1.2\lvgl\src\lv_objx/lv_chart.c **** /**********************
  36:..\..\..\lvgl\version_6.1.2\lvgl\src\lv_objx/lv_chart.c ****  *      TYPEDEFS
  37:..\..\..\lvgl\version_6.1.2\lvgl\src\lv_objx/lv_chart.c ****  **********************/
  38:..\..\..\lvgl\version_6.1.2\lvgl\src\lv_objx/lv_chart.c **** 
  39:..\..\..\lvgl\version_6.1.2\lvgl\src\lv_objx/lv_chart.c **** typedef struct {
  40:..\..\..\lvgl\version_6.1.2\lvgl\src\lv_objx/lv_chart.c ****     const char * list_start;
  41:..\..\..\lvgl\version_6.1.2\lvgl\src\lv_objx/lv_chart.c ****     const char * current_pos;
  42:..\..\..\lvgl\version_6.1.2\lvgl\src\lv_objx/lv_chart.c ****     uint8_t items_left;
  43:..\..\..\lvgl\version_6.1.2\lvgl\src\lv_objx/lv_chart.c ****     uint8_t is_reverse_iter;
  44:..\..\..\lvgl\version_6.1.2\lvgl\src\lv_objx/lv_chart.c **** } lv_chart_label_iterator_t;
  45:..\..\..\lvgl\version_6.1.2\lvgl\src\lv_objx/lv_chart.c **** 
  46:..\..\..\lvgl\version_6.1.2\lvgl\src\lv_objx/lv_chart.c **** /**********************
  47:..\..\..\lvgl\version_6.1.2\lvgl\src\lv_objx/lv_chart.c ****  *  STATIC PROTOTYPES
  48:..\..\..\lvgl\version_6.1.2\lvgl\src\lv_objx/lv_chart.c ****  **********************/
  49:..\..\..\lvgl\version_6.1.2\lvgl\src\lv_objx/lv_chart.c **** static bool lv_chart_design(lv_obj_t * chart, const lv_area_t * mask, lv_design_mode_t mode);
  50:..\..\..\lvgl\version_6.1.2\lvgl\src\lv_objx/lv_chart.c **** static lv_res_t lv_chart_signal(lv_obj_t * chart, lv_signal_t sign, void * param);
  51:..\..\..\lvgl\version_6.1.2\lvgl\src\lv_objx/lv_chart.c **** static void lv_chart_draw_div(lv_obj_t * chart, const lv_area_t * mask);
  52:..\..\..\lvgl\version_6.1.2\lvgl\src\lv_objx/lv_chart.c **** static void lv_chart_draw_lines(lv_obj_t * chart, const lv_area_t * mask);
  53:..\..\..\lvgl\version_6.1.2\lvgl\src\lv_objx/lv_chart.c **** static void lv_chart_draw_points(lv_obj_t * chart, const lv_area_t * mask);
  54:..\..\..\lvgl\version_6.1.2\lvgl\src\lv_objx/lv_chart.c **** static void lv_chart_draw_cols(lv_obj_t * chart, const lv_area_t * mask);
  55:..\..\..\lvgl\version_6.1.2\lvgl\src\lv_objx/lv_chart.c **** static void lv_chart_draw_vertical_lines(lv_obj_t * chart, const lv_area_t * mask);
  56:..\..\..\lvgl\version_6.1.2\lvgl\src\lv_objx/lv_chart.c **** static void lv_chart_draw_areas(lv_obj_t * chart, const lv_area_t * mask);
  57:..\..\..\lvgl\version_6.1.2\lvgl\src\lv_objx/lv_chart.c **** static void lv_chart_draw_axes(lv_obj_t * chart, const lv_area_t * mask);
  58:..\..\..\lvgl\version_6.1.2\lvgl\src\lv_objx/lv_chart.c **** static void lv_chart_inv_lines(lv_obj_t * chart, uint16_t i);
  59:..\..\..\lvgl\version_6.1.2\lvgl\src\lv_objx/lv_chart.c **** static void lv_chart_inv_points(lv_obj_t * chart, uint16_t i);
  60:..\..\..\lvgl\version_6.1.2\lvgl\src\lv_objx/lv_chart.c **** static void lv_chart_inv_cols(lv_obj_t * chart, uint16_t i);
  61:..\..\..\lvgl\version_6.1.2\lvgl\src\lv_objx/lv_chart.c **** static void lv_chart_get_next_label(lv_chart_label_iterator_t * iterator, char * buf);
  62:..\..\..\lvgl\version_6.1.2\lvgl\src\lv_objx/lv_chart.c **** static inline bool lv_chart_is_tick_with_label(uint8_t tick_num, lv_chart_axis_cfg_t * axis);
  63:..\..\..\lvgl\version_6.1.2\lvgl\src\lv_objx/lv_chart.c **** static lv_chart_label_iterator_t lv_chart_create_label_iter(const char * list, uint8_t iterator_dir
  64:..\..\..\lvgl\version_6.1.2\lvgl\src\lv_objx/lv_chart.c **** 
  65:..\..\..\lvgl\version_6.1.2\lvgl\src\lv_objx/lv_chart.c **** /**********************
  66:..\..\..\lvgl\version_6.1.2\lvgl\src\lv_objx/lv_chart.c ****  *  STATIC VARIABLES
  67:..\..\..\lvgl\version_6.1.2\lvgl\src\lv_objx/lv_chart.c ****  **********************/
  68:..\..\..\lvgl\version_6.1.2\lvgl\src\lv_objx/lv_chart.c **** static lv_design_cb_t ancestor_design_f;
  69:..\..\..\lvgl\version_6.1.2\lvgl\src\lv_objx/lv_chart.c **** static lv_signal_cb_t ancestor_signal;
  70:..\..\..\lvgl\version_6.1.2\lvgl\src\lv_objx/lv_chart.c **** 
  71:..\..\..\lvgl\version_6.1.2\lvgl\src\lv_objx/lv_chart.c **** /**********************
  72:..\..\..\lvgl\version_6.1.2\lvgl\src\lv_objx/lv_chart.c ****  *      MACROS
  73:..\..\..\lvgl\version_6.1.2\lvgl\src\lv_objx/lv_chart.c ****  **********************/
  74:..\..\..\lvgl\version_6.1.2\lvgl\src\lv_objx/lv_chart.c **** 
  75:..\..\..\lvgl\version_6.1.2\lvgl\src\lv_objx/lv_chart.c **** /**********************
  76:..\..\..\lvgl\version_6.1.2\lvgl\src\lv_objx/lv_chart.c ****  *   GLOBAL FUNCTIONS
  77:..\..\..\lvgl\version_6.1.2\lvgl\src\lv_objx/lv_chart.c ****  **********************/
  78:..\..\..\lvgl\version_6.1.2\lvgl\src\lv_objx/lv_chart.c **** 
  79:..\..\..\lvgl\version_6.1.2\lvgl\src\lv_objx/lv_chart.c **** /**
  80:..\..\..\lvgl\version_6.1.2\lvgl\src\lv_objx/lv_chart.c ****  * Create a chart background objects
  81:..\..\..\lvgl\version_6.1.2\lvgl\src\lv_objx/lv_chart.c ****  * @param par pointer to an object, it will be the parent of the new chart background
  82:..\..\..\lvgl\version_6.1.2\lvgl\src\lv_objx/lv_chart.c ****  * @param copy pointer to a chart background object, if not NULL then the new object will be copied
  83:..\..\..\lvgl\version_6.1.2\lvgl\src\lv_objx/lv_chart.c ****  * from it
  84:..\..\..\lvgl\version_6.1.2\lvgl\src\lv_objx/lv_chart.c ****  * @return pointer to the created chart background
  85:..\..\..\lvgl\version_6.1.2\lvgl\src\lv_objx/lv_chart.c ****  */
  86:..\..\..\lvgl\version_6.1.2\lvgl\src\lv_objx/lv_chart.c **** lv_obj_t * lv_chart_create(lv_obj_t * par, const lv_obj_t * copy)
  87:..\..\..\lvgl\version_6.1.2\lvgl\src\lv_objx/lv_chart.c **** {
ARM GAS  C:\Users\pearlstl\AppData\Local\Temp\ccRrtFoa.s 			page 3


  88:..\..\..\lvgl\version_6.1.2\lvgl\src\lv_objx/lv_chart.c ****     LV_LOG_TRACE("chart create started");
  89:..\..\..\lvgl\version_6.1.2\lvgl\src\lv_objx/lv_chart.c **** 
  90:..\..\..\lvgl\version_6.1.2\lvgl\src\lv_objx/lv_chart.c ****     /*Create the ancestor basic object*/
  91:..\..\..\lvgl\version_6.1.2\lvgl\src\lv_objx/lv_chart.c ****     lv_obj_t * new_chart = lv_obj_create(par, copy);
  92:..\..\..\lvgl\version_6.1.2\lvgl\src\lv_objx/lv_chart.c ****     LV_ASSERT_MEM(new_chart);
  93:..\..\..\lvgl\version_6.1.2\lvgl\src\lv_objx/lv_chart.c ****     if(new_chart == NULL) return NULL;
  94:..\..\..\lvgl\version_6.1.2\lvgl\src\lv_objx/lv_chart.c **** 
  95:..\..\..\lvgl\version_6.1.2\lvgl\src\lv_objx/lv_chart.c ****     /*Allocate the object type specific extended data*/
  96:..\..\..\lvgl\version_6.1.2\lvgl\src\lv_objx/lv_chart.c ****     lv_chart_ext_t * ext = lv_obj_allocate_ext_attr(new_chart, sizeof(lv_chart_ext_t));
  97:..\..\..\lvgl\version_6.1.2\lvgl\src\lv_objx/lv_chart.c ****     LV_ASSERT_MEM(ext);
  98:..\..\..\lvgl\version_6.1.2\lvgl\src\lv_objx/lv_chart.c ****     if(ext == NULL) return NULL;
  99:..\..\..\lvgl\version_6.1.2\lvgl\src\lv_objx/lv_chart.c **** 
 100:..\..\..\lvgl\version_6.1.2\lvgl\src\lv_objx/lv_chart.c ****     lv_ll_init(&ext->series_ll, sizeof(lv_chart_series_t));
 101:..\..\..\lvgl\version_6.1.2\lvgl\src\lv_objx/lv_chart.c **** 
 102:..\..\..\lvgl\version_6.1.2\lvgl\src\lv_objx/lv_chart.c ****     ext->series.num            = 0;
 103:..\..\..\lvgl\version_6.1.2\lvgl\src\lv_objx/lv_chart.c ****     ext->ymin                  = LV_CHART_YMIN_DEF;
 104:..\..\..\lvgl\version_6.1.2\lvgl\src\lv_objx/lv_chart.c ****     ext->ymax                  = LV_CHART_YMAX_DEF;
 105:..\..\..\lvgl\version_6.1.2\lvgl\src\lv_objx/lv_chart.c ****     ext->hdiv_cnt              = LV_CHART_HDIV_DEF;
 106:..\..\..\lvgl\version_6.1.2\lvgl\src\lv_objx/lv_chart.c ****     ext->vdiv_cnt              = LV_CHART_VDIV_DEF;
 107:..\..\..\lvgl\version_6.1.2\lvgl\src\lv_objx/lv_chart.c ****     ext->point_cnt             = LV_CHART_PNUM_DEF;
 108:..\..\..\lvgl\version_6.1.2\lvgl\src\lv_objx/lv_chart.c ****     ext->type                  = LV_CHART_TYPE_LINE;
 109:..\..\..\lvgl\version_6.1.2\lvgl\src\lv_objx/lv_chart.c ****     ext->update_mode           = LV_CHART_UPDATE_MODE_SHIFT;
 110:..\..\..\lvgl\version_6.1.2\lvgl\src\lv_objx/lv_chart.c ****     ext->series.opa            = LV_OPA_COVER;
 111:..\..\..\lvgl\version_6.1.2\lvgl\src\lv_objx/lv_chart.c ****     ext->series.dark           = LV_OPA_50;
 112:..\..\..\lvgl\version_6.1.2\lvgl\src\lv_objx/lv_chart.c ****     ext->series.width          = 2;
 113:..\..\..\lvgl\version_6.1.2\lvgl\src\lv_objx/lv_chart.c ****     ext->margin                = 0;
 114:..\..\..\lvgl\version_6.1.2\lvgl\src\lv_objx/lv_chart.c ****     memset(&ext->x_axis, 0, sizeof(ext->x_axis));
 115:..\..\..\lvgl\version_6.1.2\lvgl\src\lv_objx/lv_chart.c ****     memset(&ext->y_axis, 0, sizeof(ext->y_axis));
 116:..\..\..\lvgl\version_6.1.2\lvgl\src\lv_objx/lv_chart.c ****     memset(&ext->secondary_y_axis, 0, sizeof(ext->secondary_y_axis));
 117:..\..\..\lvgl\version_6.1.2\lvgl\src\lv_objx/lv_chart.c ****     ext->x_axis.major_tick_len = LV_CHART_TICK_LENGTH_AUTO;
 118:..\..\..\lvgl\version_6.1.2\lvgl\src\lv_objx/lv_chart.c ****     ext->x_axis.minor_tick_len = LV_CHART_TICK_LENGTH_AUTO;
 119:..\..\..\lvgl\version_6.1.2\lvgl\src\lv_objx/lv_chart.c ****     ext->y_axis.major_tick_len = LV_CHART_TICK_LENGTH_AUTO;
 120:..\..\..\lvgl\version_6.1.2\lvgl\src\lv_objx/lv_chart.c ****     ext->y_axis.minor_tick_len = LV_CHART_TICK_LENGTH_AUTO;
 121:..\..\..\lvgl\version_6.1.2\lvgl\src\lv_objx/lv_chart.c ****     ext->secondary_y_axis.major_tick_len = LV_CHART_TICK_LENGTH_AUTO;
 122:..\..\..\lvgl\version_6.1.2\lvgl\src\lv_objx/lv_chart.c ****     ext->secondary_y_axis.minor_tick_len = LV_CHART_TICK_LENGTH_AUTO;
 123:..\..\..\lvgl\version_6.1.2\lvgl\src\lv_objx/lv_chart.c **** 
 124:..\..\..\lvgl\version_6.1.2\lvgl\src\lv_objx/lv_chart.c ****     if(ancestor_design_f == NULL) ancestor_design_f = lv_obj_get_design_cb(new_chart);
 125:..\..\..\lvgl\version_6.1.2\lvgl\src\lv_objx/lv_chart.c ****     if(ancestor_signal == NULL) ancestor_signal = lv_obj_get_signal_cb(new_chart);
 126:..\..\..\lvgl\version_6.1.2\lvgl\src\lv_objx/lv_chart.c **** 
 127:..\..\..\lvgl\version_6.1.2\lvgl\src\lv_objx/lv_chart.c ****     lv_obj_set_signal_cb(new_chart, lv_chart_signal);
 128:..\..\..\lvgl\version_6.1.2\lvgl\src\lv_objx/lv_chart.c ****     lv_obj_set_design_cb(new_chart, lv_chart_design);
 129:..\..\..\lvgl\version_6.1.2\lvgl\src\lv_objx/lv_chart.c **** 
 130:..\..\..\lvgl\version_6.1.2\lvgl\src\lv_objx/lv_chart.c ****     /*Init the new chart background object*/
 131:..\..\..\lvgl\version_6.1.2\lvgl\src\lv_objx/lv_chart.c ****     if(copy == NULL) {
 132:..\..\..\lvgl\version_6.1.2\lvgl\src\lv_objx/lv_chart.c ****         lv_obj_set_size(new_chart, LV_DPI * 3, LV_DPI * 2);
 133:..\..\..\lvgl\version_6.1.2\lvgl\src\lv_objx/lv_chart.c **** 
 134:..\..\..\lvgl\version_6.1.2\lvgl\src\lv_objx/lv_chart.c ****         /*Set the default styles*/
 135:..\..\..\lvgl\version_6.1.2\lvgl\src\lv_objx/lv_chart.c ****         lv_theme_t * th = lv_theme_get_current();
 136:..\..\..\lvgl\version_6.1.2\lvgl\src\lv_objx/lv_chart.c ****         if(th) {
 137:..\..\..\lvgl\version_6.1.2\lvgl\src\lv_objx/lv_chart.c ****             lv_chart_set_style(new_chart, LV_CHART_STYLE_MAIN, th->style.chart);
 138:..\..\..\lvgl\version_6.1.2\lvgl\src\lv_objx/lv_chart.c ****         } else {
 139:..\..\..\lvgl\version_6.1.2\lvgl\src\lv_objx/lv_chart.c ****             lv_chart_set_style(new_chart, LV_CHART_STYLE_MAIN, &lv_style_pretty);
 140:..\..\..\lvgl\version_6.1.2\lvgl\src\lv_objx/lv_chart.c ****         }
 141:..\..\..\lvgl\version_6.1.2\lvgl\src\lv_objx/lv_chart.c **** 
 142:..\..\..\lvgl\version_6.1.2\lvgl\src\lv_objx/lv_chart.c ****     } else {
 143:..\..\..\lvgl\version_6.1.2\lvgl\src\lv_objx/lv_chart.c ****         lv_chart_ext_t * ext_copy = lv_obj_get_ext_attr(copy);
 144:..\..\..\lvgl\version_6.1.2\lvgl\src\lv_objx/lv_chart.c **** 
ARM GAS  C:\Users\pearlstl\AppData\Local\Temp\ccRrtFoa.s 			page 4


 145:..\..\..\lvgl\version_6.1.2\lvgl\src\lv_objx/lv_chart.c ****         ext->type       = ext_copy->type;
 146:..\..\..\lvgl\version_6.1.2\lvgl\src\lv_objx/lv_chart.c ****         ext->ymin       = ext_copy->ymin;
 147:..\..\..\lvgl\version_6.1.2\lvgl\src\lv_objx/lv_chart.c ****         ext->ymax       = ext_copy->ymax;
 148:..\..\..\lvgl\version_6.1.2\lvgl\src\lv_objx/lv_chart.c ****         ext->hdiv_cnt   = ext_copy->hdiv_cnt;
 149:..\..\..\lvgl\version_6.1.2\lvgl\src\lv_objx/lv_chart.c ****         ext->vdiv_cnt   = ext_copy->vdiv_cnt;
 150:..\..\..\lvgl\version_6.1.2\lvgl\src\lv_objx/lv_chart.c ****         ext->point_cnt  = ext_copy->point_cnt;
 151:..\..\..\lvgl\version_6.1.2\lvgl\src\lv_objx/lv_chart.c ****         ext->series.opa = ext_copy->series.opa;
 152:..\..\..\lvgl\version_6.1.2\lvgl\src\lv_objx/lv_chart.c ****         ext->margin     = ext_copy->margin;
 153:..\..\..\lvgl\version_6.1.2\lvgl\src\lv_objx/lv_chart.c ****         memcpy(&ext->x_axis, &ext_copy->x_axis, sizeof(lv_chart_axis_cfg_t));
 154:..\..\..\lvgl\version_6.1.2\lvgl\src\lv_objx/lv_chart.c ****         memcpy(&ext->y_axis, &ext_copy->y_axis, sizeof(lv_chart_axis_cfg_t));
 155:..\..\..\lvgl\version_6.1.2\lvgl\src\lv_objx/lv_chart.c ****         memcpy(&ext->secondary_y_axis, &ext_copy->secondary_y_axis, sizeof(lv_chart_axis_cfg_t));
 156:..\..\..\lvgl\version_6.1.2\lvgl\src\lv_objx/lv_chart.c **** 
 157:..\..\..\lvgl\version_6.1.2\lvgl\src\lv_objx/lv_chart.c ****         /*Refresh the style with new signal function*/
 158:..\..\..\lvgl\version_6.1.2\lvgl\src\lv_objx/lv_chart.c ****         lv_obj_refresh_style(new_chart);
 159:..\..\..\lvgl\version_6.1.2\lvgl\src\lv_objx/lv_chart.c ****     }
 160:..\..\..\lvgl\version_6.1.2\lvgl\src\lv_objx/lv_chart.c **** 
 161:..\..\..\lvgl\version_6.1.2\lvgl\src\lv_objx/lv_chart.c ****     LV_LOG_INFO("chart created");
 162:..\..\..\lvgl\version_6.1.2\lvgl\src\lv_objx/lv_chart.c **** 
 163:..\..\..\lvgl\version_6.1.2\lvgl\src\lv_objx/lv_chart.c ****     return new_chart;
 164:..\..\..\lvgl\version_6.1.2\lvgl\src\lv_objx/lv_chart.c **** }
 165:..\..\..\lvgl\version_6.1.2\lvgl\src\lv_objx/lv_chart.c **** 
 166:..\..\..\lvgl\version_6.1.2\lvgl\src\lv_objx/lv_chart.c **** /*======================
 167:..\..\..\lvgl\version_6.1.2\lvgl\src\lv_objx/lv_chart.c ****  * Add/remove functions
 168:..\..\..\lvgl\version_6.1.2\lvgl\src\lv_objx/lv_chart.c ****  *=====================*/
 169:..\..\..\lvgl\version_6.1.2\lvgl\src\lv_objx/lv_chart.c **** 
 170:..\..\..\lvgl\version_6.1.2\lvgl\src\lv_objx/lv_chart.c **** /**
 171:..\..\..\lvgl\version_6.1.2\lvgl\src\lv_objx/lv_chart.c ****  * Allocate and add a data series to the chart
 172:..\..\..\lvgl\version_6.1.2\lvgl\src\lv_objx/lv_chart.c ****  * @param chart pointer to a chart object
 173:..\..\..\lvgl\version_6.1.2\lvgl\src\lv_objx/lv_chart.c ****  * @param color color of the data series
 174:..\..\..\lvgl\version_6.1.2\lvgl\src\lv_objx/lv_chart.c ****  * @return pointer to the allocated data series
 175:..\..\..\lvgl\version_6.1.2\lvgl\src\lv_objx/lv_chart.c ****  */
 176:..\..\..\lvgl\version_6.1.2\lvgl\src\lv_objx/lv_chart.c **** lv_chart_series_t * lv_chart_add_series(lv_obj_t * chart, lv_color_t color)
 177:..\..\..\lvgl\version_6.1.2\lvgl\src\lv_objx/lv_chart.c **** {
 178:..\..\..\lvgl\version_6.1.2\lvgl\src\lv_objx/lv_chart.c ****     LV_ASSERT_OBJ(chart, LV_OBJX_NAME);
 179:..\..\..\lvgl\version_6.1.2\lvgl\src\lv_objx/lv_chart.c **** 
 180:..\..\..\lvgl\version_6.1.2\lvgl\src\lv_objx/lv_chart.c ****     lv_chart_ext_t * ext    = lv_obj_get_ext_attr(chart);
 181:..\..\..\lvgl\version_6.1.2\lvgl\src\lv_objx/lv_chart.c ****     lv_chart_series_t * ser = lv_ll_ins_head(&ext->series_ll);
 182:..\..\..\lvgl\version_6.1.2\lvgl\src\lv_objx/lv_chart.c ****     LV_ASSERT_MEM(ser);
 183:..\..\..\lvgl\version_6.1.2\lvgl\src\lv_objx/lv_chart.c ****     if(ser == NULL) return NULL;
 184:..\..\..\lvgl\version_6.1.2\lvgl\src\lv_objx/lv_chart.c **** 
 185:..\..\..\lvgl\version_6.1.2\lvgl\src\lv_objx/lv_chart.c ****     lv_coord_t def = LV_CHART_POINT_DEF;
 186:..\..\..\lvgl\version_6.1.2\lvgl\src\lv_objx/lv_chart.c **** 
 187:..\..\..\lvgl\version_6.1.2\lvgl\src\lv_objx/lv_chart.c ****     if(ser == NULL) return NULL;
 188:..\..\..\lvgl\version_6.1.2\lvgl\src\lv_objx/lv_chart.c **** 
 189:..\..\..\lvgl\version_6.1.2\lvgl\src\lv_objx/lv_chart.c ****     ser->color  = color;
 190:..\..\..\lvgl\version_6.1.2\lvgl\src\lv_objx/lv_chart.c ****     ser->points = lv_mem_alloc(sizeof(lv_coord_t) * ext->point_cnt);
 191:..\..\..\lvgl\version_6.1.2\lvgl\src\lv_objx/lv_chart.c ****     LV_ASSERT_MEM(ser->points);
 192:..\..\..\lvgl\version_6.1.2\lvgl\src\lv_objx/lv_chart.c ****     if(ser->points == NULL) {
 193:..\..\..\lvgl\version_6.1.2\lvgl\src\lv_objx/lv_chart.c ****         lv_ll_rem(&ext->series_ll, ser);
 194:..\..\..\lvgl\version_6.1.2\lvgl\src\lv_objx/lv_chart.c ****         lv_mem_free(ser);
 195:..\..\..\lvgl\version_6.1.2\lvgl\src\lv_objx/lv_chart.c ****         return NULL;
 196:..\..\..\lvgl\version_6.1.2\lvgl\src\lv_objx/lv_chart.c ****     }
 197:..\..\..\lvgl\version_6.1.2\lvgl\src\lv_objx/lv_chart.c **** 
 198:..\..\..\lvgl\version_6.1.2\lvgl\src\lv_objx/lv_chart.c ****     ser->start_point = 0;
 199:..\..\..\lvgl\version_6.1.2\lvgl\src\lv_objx/lv_chart.c **** 
 200:..\..\..\lvgl\version_6.1.2\lvgl\src\lv_objx/lv_chart.c ****     uint16_t i;
 201:..\..\..\lvgl\version_6.1.2\lvgl\src\lv_objx/lv_chart.c ****     lv_coord_t * p_tmp = ser->points;
ARM GAS  C:\Users\pearlstl\AppData\Local\Temp\ccRrtFoa.s 			page 5


 202:..\..\..\lvgl\version_6.1.2\lvgl\src\lv_objx/lv_chart.c ****     for(i = 0; i < ext->point_cnt; i++) {
 203:..\..\..\lvgl\version_6.1.2\lvgl\src\lv_objx/lv_chart.c ****         *p_tmp = def;
 204:..\..\..\lvgl\version_6.1.2\lvgl\src\lv_objx/lv_chart.c ****         p_tmp++;
 205:..\..\..\lvgl\version_6.1.2\lvgl\src\lv_objx/lv_chart.c ****     }
 206:..\..\..\lvgl\version_6.1.2\lvgl\src\lv_objx/lv_chart.c **** 
 207:..\..\..\lvgl\version_6.1.2\lvgl\src\lv_objx/lv_chart.c ****     ext->series.num++;
 208:..\..\..\lvgl\version_6.1.2\lvgl\src\lv_objx/lv_chart.c **** 
 209:..\..\..\lvgl\version_6.1.2\lvgl\src\lv_objx/lv_chart.c ****     return ser;
 210:..\..\..\lvgl\version_6.1.2\lvgl\src\lv_objx/lv_chart.c **** }
 211:..\..\..\lvgl\version_6.1.2\lvgl\src\lv_objx/lv_chart.c **** 
 212:..\..\..\lvgl\version_6.1.2\lvgl\src\lv_objx/lv_chart.c **** /**
 213:..\..\..\lvgl\version_6.1.2\lvgl\src\lv_objx/lv_chart.c ****  * Clear the point of a serie
 214:..\..\..\lvgl\version_6.1.2\lvgl\src\lv_objx/lv_chart.c ****  * @param chart pointer to a chart object
 215:..\..\..\lvgl\version_6.1.2\lvgl\src\lv_objx/lv_chart.c ****  * @param serie pointer to the chart's serie to clear
 216:..\..\..\lvgl\version_6.1.2\lvgl\src\lv_objx/lv_chart.c ****  */
 217:..\..\..\lvgl\version_6.1.2\lvgl\src\lv_objx/lv_chart.c **** void lv_chart_clear_serie(lv_obj_t * chart, lv_chart_series_t * serie)
 218:..\..\..\lvgl\version_6.1.2\lvgl\src\lv_objx/lv_chart.c **** {
 219:..\..\..\lvgl\version_6.1.2\lvgl\src\lv_objx/lv_chart.c ****     LV_ASSERT_OBJ(chart, LV_OBJX_NAME);
 220:..\..\..\lvgl\version_6.1.2\lvgl\src\lv_objx/lv_chart.c ****     LV_ASSERT_NULL(serie);
 221:..\..\..\lvgl\version_6.1.2\lvgl\src\lv_objx/lv_chart.c **** 
 222:..\..\..\lvgl\version_6.1.2\lvgl\src\lv_objx/lv_chart.c ****     if(chart == NULL || serie == NULL) return;
 223:..\..\..\lvgl\version_6.1.2\lvgl\src\lv_objx/lv_chart.c ****     lv_chart_ext_t * ext = lv_obj_get_ext_attr(chart);
 224:..\..\..\lvgl\version_6.1.2\lvgl\src\lv_objx/lv_chart.c ****     if(ext == NULL) return;
 225:..\..\..\lvgl\version_6.1.2\lvgl\src\lv_objx/lv_chart.c **** 
 226:..\..\..\lvgl\version_6.1.2\lvgl\src\lv_objx/lv_chart.c ****     uint32_t i;
 227:..\..\..\lvgl\version_6.1.2\lvgl\src\lv_objx/lv_chart.c ****     for(i = 0; i < ext->point_cnt; i++) {
 228:..\..\..\lvgl\version_6.1.2\lvgl\src\lv_objx/lv_chart.c ****         serie->points[i] = LV_CHART_POINT_DEF;
 229:..\..\..\lvgl\version_6.1.2\lvgl\src\lv_objx/lv_chart.c ****     }
 230:..\..\..\lvgl\version_6.1.2\lvgl\src\lv_objx/lv_chart.c **** 
 231:..\..\..\lvgl\version_6.1.2\lvgl\src\lv_objx/lv_chart.c ****     serie->start_point = 0;
 232:..\..\..\lvgl\version_6.1.2\lvgl\src\lv_objx/lv_chart.c **** }
 233:..\..\..\lvgl\version_6.1.2\lvgl\src\lv_objx/lv_chart.c **** 
 234:..\..\..\lvgl\version_6.1.2\lvgl\src\lv_objx/lv_chart.c **** /*=====================
 235:..\..\..\lvgl\version_6.1.2\lvgl\src\lv_objx/lv_chart.c ****  * Setter functions
 236:..\..\..\lvgl\version_6.1.2\lvgl\src\lv_objx/lv_chart.c ****  *====================*/
 237:..\..\..\lvgl\version_6.1.2\lvgl\src\lv_objx/lv_chart.c **** 
 238:..\..\..\lvgl\version_6.1.2\lvgl\src\lv_objx/lv_chart.c **** /**
 239:..\..\..\lvgl\version_6.1.2\lvgl\src\lv_objx/lv_chart.c ****  * Set the number of horizontal and vertical division lines
 240:..\..\..\lvgl\version_6.1.2\lvgl\src\lv_objx/lv_chart.c ****  * @param chart pointer to a graph background object
 241:..\..\..\lvgl\version_6.1.2\lvgl\src\lv_objx/lv_chart.c ****  * @param hdiv number of horizontal division lines
 242:..\..\..\lvgl\version_6.1.2\lvgl\src\lv_objx/lv_chart.c ****  * @param vdiv number of vertical division lines
 243:..\..\..\lvgl\version_6.1.2\lvgl\src\lv_objx/lv_chart.c ****  */
 244:..\..\..\lvgl\version_6.1.2\lvgl\src\lv_objx/lv_chart.c **** void lv_chart_set_div_line_count(lv_obj_t * chart, uint8_t hdiv, uint8_t vdiv)
 245:..\..\..\lvgl\version_6.1.2\lvgl\src\lv_objx/lv_chart.c **** {
 246:..\..\..\lvgl\version_6.1.2\lvgl\src\lv_objx/lv_chart.c ****     LV_ASSERT_OBJ(chart, LV_OBJX_NAME);
 247:..\..\..\lvgl\version_6.1.2\lvgl\src\lv_objx/lv_chart.c **** 
 248:..\..\..\lvgl\version_6.1.2\lvgl\src\lv_objx/lv_chart.c ****     lv_chart_ext_t * ext = lv_obj_get_ext_attr(chart);
 249:..\..\..\lvgl\version_6.1.2\lvgl\src\lv_objx/lv_chart.c ****     if(ext->hdiv_cnt == hdiv && ext->vdiv_cnt == vdiv) return;
 250:..\..\..\lvgl\version_6.1.2\lvgl\src\lv_objx/lv_chart.c **** 
 251:..\..\..\lvgl\version_6.1.2\lvgl\src\lv_objx/lv_chart.c ****     ext->hdiv_cnt = hdiv;
 252:..\..\..\lvgl\version_6.1.2\lvgl\src\lv_objx/lv_chart.c ****     ext->vdiv_cnt = vdiv;
 253:..\..\..\lvgl\version_6.1.2\lvgl\src\lv_objx/lv_chart.c **** 
 254:..\..\..\lvgl\version_6.1.2\lvgl\src\lv_objx/lv_chart.c ****     lv_obj_invalidate(chart);
 255:..\..\..\lvgl\version_6.1.2\lvgl\src\lv_objx/lv_chart.c **** }
 256:..\..\..\lvgl\version_6.1.2\lvgl\src\lv_objx/lv_chart.c **** 
 257:..\..\..\lvgl\version_6.1.2\lvgl\src\lv_objx/lv_chart.c **** /**
 258:..\..\..\lvgl\version_6.1.2\lvgl\src\lv_objx/lv_chart.c ****  * Set the minimal and maximal y values
ARM GAS  C:\Users\pearlstl\AppData\Local\Temp\ccRrtFoa.s 			page 6


 259:..\..\..\lvgl\version_6.1.2\lvgl\src\lv_objx/lv_chart.c ****  * @param chart pointer to a graph background object
 260:..\..\..\lvgl\version_6.1.2\lvgl\src\lv_objx/lv_chart.c ****  * @param ymin y minimum value
 261:..\..\..\lvgl\version_6.1.2\lvgl\src\lv_objx/lv_chart.c ****  * @param ymax y maximum value
 262:..\..\..\lvgl\version_6.1.2\lvgl\src\lv_objx/lv_chart.c ****  */
 263:..\..\..\lvgl\version_6.1.2\lvgl\src\lv_objx/lv_chart.c **** void lv_chart_set_range(lv_obj_t * chart, lv_coord_t ymin, lv_coord_t ymax)
 264:..\..\..\lvgl\version_6.1.2\lvgl\src\lv_objx/lv_chart.c **** {
 265:..\..\..\lvgl\version_6.1.2\lvgl\src\lv_objx/lv_chart.c ****     LV_ASSERT_OBJ(chart, LV_OBJX_NAME);
 266:..\..\..\lvgl\version_6.1.2\lvgl\src\lv_objx/lv_chart.c **** 
 267:..\..\..\lvgl\version_6.1.2\lvgl\src\lv_objx/lv_chart.c ****     lv_chart_ext_t * ext = lv_obj_get_ext_attr(chart);
 268:..\..\..\lvgl\version_6.1.2\lvgl\src\lv_objx/lv_chart.c ****     if(ext->ymin == ymin && ext->ymax == ymax) return;
 269:..\..\..\lvgl\version_6.1.2\lvgl\src\lv_objx/lv_chart.c **** 
 270:..\..\..\lvgl\version_6.1.2\lvgl\src\lv_objx/lv_chart.c ****     ext->ymin = ymin;
 271:..\..\..\lvgl\version_6.1.2\lvgl\src\lv_objx/lv_chart.c ****     ext->ymax = ymax;
 272:..\..\..\lvgl\version_6.1.2\lvgl\src\lv_objx/lv_chart.c **** 
 273:..\..\..\lvgl\version_6.1.2\lvgl\src\lv_objx/lv_chart.c ****     lv_chart_refresh(chart);
 274:..\..\..\lvgl\version_6.1.2\lvgl\src\lv_objx/lv_chart.c **** }
 275:..\..\..\lvgl\version_6.1.2\lvgl\src\lv_objx/lv_chart.c **** 
 276:..\..\..\lvgl\version_6.1.2\lvgl\src\lv_objx/lv_chart.c **** /**
 277:..\..\..\lvgl\version_6.1.2\lvgl\src\lv_objx/lv_chart.c ****  * Set a new type for a chart
 278:..\..\..\lvgl\version_6.1.2\lvgl\src\lv_objx/lv_chart.c ****  * @param chart pointer to a chart object
 279:..\..\..\lvgl\version_6.1.2\lvgl\src\lv_objx/lv_chart.c ****  * @param type new type of the chart (from 'lv_chart_type_t' enum)
 280:..\..\..\lvgl\version_6.1.2\lvgl\src\lv_objx/lv_chart.c ****  */
 281:..\..\..\lvgl\version_6.1.2\lvgl\src\lv_objx/lv_chart.c **** void lv_chart_set_type(lv_obj_t * chart, lv_chart_type_t type)
 282:..\..\..\lvgl\version_6.1.2\lvgl\src\lv_objx/lv_chart.c **** {
 283:..\..\..\lvgl\version_6.1.2\lvgl\src\lv_objx/lv_chart.c ****     LV_ASSERT_OBJ(chart, LV_OBJX_NAME);
 284:..\..\..\lvgl\version_6.1.2\lvgl\src\lv_objx/lv_chart.c **** 
 285:..\..\..\lvgl\version_6.1.2\lvgl\src\lv_objx/lv_chart.c ****     lv_chart_ext_t * ext = lv_obj_get_ext_attr(chart);
 286:..\..\..\lvgl\version_6.1.2\lvgl\src\lv_objx/lv_chart.c ****     if(ext->type == type) return;
 287:..\..\..\lvgl\version_6.1.2\lvgl\src\lv_objx/lv_chart.c **** 
 288:..\..\..\lvgl\version_6.1.2\lvgl\src\lv_objx/lv_chart.c ****     ext->type = type;
 289:..\..\..\lvgl\version_6.1.2\lvgl\src\lv_objx/lv_chart.c **** 
 290:..\..\..\lvgl\version_6.1.2\lvgl\src\lv_objx/lv_chart.c ****     lv_chart_refresh(chart);
 291:..\..\..\lvgl\version_6.1.2\lvgl\src\lv_objx/lv_chart.c **** }
 292:..\..\..\lvgl\version_6.1.2\lvgl\src\lv_objx/lv_chart.c **** 
 293:..\..\..\lvgl\version_6.1.2\lvgl\src\lv_objx/lv_chart.c **** /**
 294:..\..\..\lvgl\version_6.1.2\lvgl\src\lv_objx/lv_chart.c ****  * Set the number of points on a data line on a chart
 295:..\..\..\lvgl\version_6.1.2\lvgl\src\lv_objx/lv_chart.c ****  * @param chart pointer r to chart object
 296:..\..\..\lvgl\version_6.1.2\lvgl\src\lv_objx/lv_chart.c ****  * @param point_cnt new number of points on the data lines
 297:..\..\..\lvgl\version_6.1.2\lvgl\src\lv_objx/lv_chart.c ****  */
 298:..\..\..\lvgl\version_6.1.2\lvgl\src\lv_objx/lv_chart.c **** void lv_chart_set_point_count(lv_obj_t * chart, uint16_t point_cnt)
 299:..\..\..\lvgl\version_6.1.2\lvgl\src\lv_objx/lv_chart.c **** {
 300:..\..\..\lvgl\version_6.1.2\lvgl\src\lv_objx/lv_chart.c ****     LV_ASSERT_OBJ(chart, LV_OBJX_NAME);
 301:..\..\..\lvgl\version_6.1.2\lvgl\src\lv_objx/lv_chart.c **** 
 302:..\..\..\lvgl\version_6.1.2\lvgl\src\lv_objx/lv_chart.c ****     lv_chart_ext_t * ext = lv_obj_get_ext_attr(chart);
 303:..\..\..\lvgl\version_6.1.2\lvgl\src\lv_objx/lv_chart.c ****     if(ext->point_cnt == point_cnt) return;
 304:..\..\..\lvgl\version_6.1.2\lvgl\src\lv_objx/lv_chart.c **** 
 305:..\..\..\lvgl\version_6.1.2\lvgl\src\lv_objx/lv_chart.c ****     lv_chart_series_t * ser;
 306:..\..\..\lvgl\version_6.1.2\lvgl\src\lv_objx/lv_chart.c ****     uint16_t point_cnt_old = ext->point_cnt;
 307:..\..\..\lvgl\version_6.1.2\lvgl\src\lv_objx/lv_chart.c ****     uint16_t i;
 308:..\..\..\lvgl\version_6.1.2\lvgl\src\lv_objx/lv_chart.c ****     lv_coord_t def = LV_CHART_POINT_DEF;
 309:..\..\..\lvgl\version_6.1.2\lvgl\src\lv_objx/lv_chart.c **** 
 310:..\..\..\lvgl\version_6.1.2\lvgl\src\lv_objx/lv_chart.c ****     if(point_cnt < 1) point_cnt = 1;
 311:..\..\..\lvgl\version_6.1.2\lvgl\src\lv_objx/lv_chart.c **** 
 312:..\..\..\lvgl\version_6.1.2\lvgl\src\lv_objx/lv_chart.c ****     LV_LL_READ_BACK(ext->series_ll, ser)
 313:..\..\..\lvgl\version_6.1.2\lvgl\src\lv_objx/lv_chart.c ****     {
 314:..\..\..\lvgl\version_6.1.2\lvgl\src\lv_objx/lv_chart.c ****         if(ser->start_point != 0) {
 315:..\..\..\lvgl\version_6.1.2\lvgl\src\lv_objx/lv_chart.c ****             lv_coord_t * new_points = lv_mem_alloc(sizeof(lv_coord_t) * point_cnt);
ARM GAS  C:\Users\pearlstl\AppData\Local\Temp\ccRrtFoa.s 			page 7


 316:..\..\..\lvgl\version_6.1.2\lvgl\src\lv_objx/lv_chart.c ****             LV_ASSERT_MEM(new_points);
 317:..\..\..\lvgl\version_6.1.2\lvgl\src\lv_objx/lv_chart.c ****             if(new_points == NULL) return;
 318:..\..\..\lvgl\version_6.1.2\lvgl\src\lv_objx/lv_chart.c **** 
 319:..\..\..\lvgl\version_6.1.2\lvgl\src\lv_objx/lv_chart.c ****             if(point_cnt >= point_cnt_old) {
 320:..\..\..\lvgl\version_6.1.2\lvgl\src\lv_objx/lv_chart.c ****                 for(i = 0; i < point_cnt_old; i++) {
 321:..\..\..\lvgl\version_6.1.2\lvgl\src\lv_objx/lv_chart.c ****                     new_points[i] =
 322:..\..\..\lvgl\version_6.1.2\lvgl\src\lv_objx/lv_chart.c ****                         ser->points[(i + ser->start_point) % point_cnt_old]; /*Copy old contents to
 323:..\..\..\lvgl\version_6.1.2\lvgl\src\lv_objx/lv_chart.c ****                 }
 324:..\..\..\lvgl\version_6.1.2\lvgl\src\lv_objx/lv_chart.c ****                 for(i = point_cnt_old; i < point_cnt; i++) {
 325:..\..\..\lvgl\version_6.1.2\lvgl\src\lv_objx/lv_chart.c ****                     new_points[i] = def; /*Fill up the rest with default value*/
 326:..\..\..\lvgl\version_6.1.2\lvgl\src\lv_objx/lv_chart.c ****                 }
 327:..\..\..\lvgl\version_6.1.2\lvgl\src\lv_objx/lv_chart.c ****             } else {
 328:..\..\..\lvgl\version_6.1.2\lvgl\src\lv_objx/lv_chart.c ****                 for(i = 0; i < point_cnt; i++) {
 329:..\..\..\lvgl\version_6.1.2\lvgl\src\lv_objx/lv_chart.c ****                     new_points[i] =
 330:..\..\..\lvgl\version_6.1.2\lvgl\src\lv_objx/lv_chart.c ****                         ser->points[(i + ser->start_point) % point_cnt_old]; /*Copy old contents to
 331:..\..\..\lvgl\version_6.1.2\lvgl\src\lv_objx/lv_chart.c ****                 }
 332:..\..\..\lvgl\version_6.1.2\lvgl\src\lv_objx/lv_chart.c ****             }
 333:..\..\..\lvgl\version_6.1.2\lvgl\src\lv_objx/lv_chart.c **** 
 334:..\..\..\lvgl\version_6.1.2\lvgl\src\lv_objx/lv_chart.c ****             /*Switch over pointer from old to new*/
 335:..\..\..\lvgl\version_6.1.2\lvgl\src\lv_objx/lv_chart.c ****             lv_mem_free(ser->points);
 336:..\..\..\lvgl\version_6.1.2\lvgl\src\lv_objx/lv_chart.c ****             ser->points = new_points;
 337:..\..\..\lvgl\version_6.1.2\lvgl\src\lv_objx/lv_chart.c ****         } else {
 338:..\..\..\lvgl\version_6.1.2\lvgl\src\lv_objx/lv_chart.c ****             ser->points = lv_mem_realloc(ser->points, sizeof(lv_coord_t) * point_cnt);
 339:..\..\..\lvgl\version_6.1.2\lvgl\src\lv_objx/lv_chart.c ****             LV_ASSERT_MEM(ser->points);
 340:..\..\..\lvgl\version_6.1.2\lvgl\src\lv_objx/lv_chart.c ****             if(ser->points == NULL) return;
 341:..\..\..\lvgl\version_6.1.2\lvgl\src\lv_objx/lv_chart.c ****             /*Initialize the new points*/
 342:..\..\..\lvgl\version_6.1.2\lvgl\src\lv_objx/lv_chart.c ****             if(point_cnt > point_cnt_old) {
 343:..\..\..\lvgl\version_6.1.2\lvgl\src\lv_objx/lv_chart.c ****                 for(i = point_cnt_old - 1; i < point_cnt; i++) {
 344:..\..\..\lvgl\version_6.1.2\lvgl\src\lv_objx/lv_chart.c ****                     ser->points[i] = def;
 345:..\..\..\lvgl\version_6.1.2\lvgl\src\lv_objx/lv_chart.c ****                 }
 346:..\..\..\lvgl\version_6.1.2\lvgl\src\lv_objx/lv_chart.c ****             }
 347:..\..\..\lvgl\version_6.1.2\lvgl\src\lv_objx/lv_chart.c ****         }
 348:..\..\..\lvgl\version_6.1.2\lvgl\src\lv_objx/lv_chart.c **** 
 349:..\..\..\lvgl\version_6.1.2\lvgl\src\lv_objx/lv_chart.c ****         ser->start_point = 0;
 350:..\..\..\lvgl\version_6.1.2\lvgl\src\lv_objx/lv_chart.c ****     }
 351:..\..\..\lvgl\version_6.1.2\lvgl\src\lv_objx/lv_chart.c **** 
 352:..\..\..\lvgl\version_6.1.2\lvgl\src\lv_objx/lv_chart.c ****     ext->point_cnt = point_cnt;
 353:..\..\..\lvgl\version_6.1.2\lvgl\src\lv_objx/lv_chart.c **** 
 354:..\..\..\lvgl\version_6.1.2\lvgl\src\lv_objx/lv_chart.c ****     lv_chart_refresh(chart);
 355:..\..\..\lvgl\version_6.1.2\lvgl\src\lv_objx/lv_chart.c **** }
 356:..\..\..\lvgl\version_6.1.2\lvgl\src\lv_objx/lv_chart.c **** 
 357:..\..\..\lvgl\version_6.1.2\lvgl\src\lv_objx/lv_chart.c **** /**
 358:..\..\..\lvgl\version_6.1.2\lvgl\src\lv_objx/lv_chart.c ****  * Set the opacity of the data series
 359:..\..\..\lvgl\version_6.1.2\lvgl\src\lv_objx/lv_chart.c ****  * @param chart pointer to a chart object
 360:..\..\..\lvgl\version_6.1.2\lvgl\src\lv_objx/lv_chart.c ****  * @param opa opacity of the data series
 361:..\..\..\lvgl\version_6.1.2\lvgl\src\lv_objx/lv_chart.c ****  */
 362:..\..\..\lvgl\version_6.1.2\lvgl\src\lv_objx/lv_chart.c **** void lv_chart_set_series_opa(lv_obj_t * chart, lv_opa_t opa)
 363:..\..\..\lvgl\version_6.1.2\lvgl\src\lv_objx/lv_chart.c **** {
 364:..\..\..\lvgl\version_6.1.2\lvgl\src\lv_objx/lv_chart.c ****     LV_ASSERT_OBJ(chart, LV_OBJX_NAME);
 365:..\..\..\lvgl\version_6.1.2\lvgl\src\lv_objx/lv_chart.c **** 
 366:..\..\..\lvgl\version_6.1.2\lvgl\src\lv_objx/lv_chart.c ****     lv_chart_ext_t * ext = lv_obj_get_ext_attr(chart);
 367:..\..\..\lvgl\version_6.1.2\lvgl\src\lv_objx/lv_chart.c ****     if(ext->series.opa == opa) return;
 368:..\..\..\lvgl\version_6.1.2\lvgl\src\lv_objx/lv_chart.c **** 
 369:..\..\..\lvgl\version_6.1.2\lvgl\src\lv_objx/lv_chart.c ****     ext->series.opa = opa;
 370:..\..\..\lvgl\version_6.1.2\lvgl\src\lv_objx/lv_chart.c ****     lv_obj_invalidate(chart);
 371:..\..\..\lvgl\version_6.1.2\lvgl\src\lv_objx/lv_chart.c **** }
 372:..\..\..\lvgl\version_6.1.2\lvgl\src\lv_objx/lv_chart.c **** 
ARM GAS  C:\Users\pearlstl\AppData\Local\Temp\ccRrtFoa.s 			page 8


 373:..\..\..\lvgl\version_6.1.2\lvgl\src\lv_objx/lv_chart.c **** /**
 374:..\..\..\lvgl\version_6.1.2\lvgl\src\lv_objx/lv_chart.c ****  * Set the line width or point radius of the data series
 375:..\..\..\lvgl\version_6.1.2\lvgl\src\lv_objx/lv_chart.c ****  * @param chart pointer to a chart object
 376:..\..\..\lvgl\version_6.1.2\lvgl\src\lv_objx/lv_chart.c ****  * @param width the new width
 377:..\..\..\lvgl\version_6.1.2\lvgl\src\lv_objx/lv_chart.c ****  */
 378:..\..\..\lvgl\version_6.1.2\lvgl\src\lv_objx/lv_chart.c **** void lv_chart_set_series_width(lv_obj_t * chart, lv_coord_t width)
 379:..\..\..\lvgl\version_6.1.2\lvgl\src\lv_objx/lv_chart.c **** {
 380:..\..\..\lvgl\version_6.1.2\lvgl\src\lv_objx/lv_chart.c ****     LV_ASSERT_OBJ(chart, LV_OBJX_NAME);
 381:..\..\..\lvgl\version_6.1.2\lvgl\src\lv_objx/lv_chart.c **** 
 382:..\..\..\lvgl\version_6.1.2\lvgl\src\lv_objx/lv_chart.c ****     lv_chart_ext_t * ext = lv_obj_get_ext_attr(chart);
 383:..\..\..\lvgl\version_6.1.2\lvgl\src\lv_objx/lv_chart.c ****     if(ext->series.width == width) return;
 384:..\..\..\lvgl\version_6.1.2\lvgl\src\lv_objx/lv_chart.c **** 
 385:..\..\..\lvgl\version_6.1.2\lvgl\src\lv_objx/lv_chart.c ****     ext->series.width = width;
 386:..\..\..\lvgl\version_6.1.2\lvgl\src\lv_objx/lv_chart.c ****     lv_obj_invalidate(chart);
 387:..\..\..\lvgl\version_6.1.2\lvgl\src\lv_objx/lv_chart.c **** }
 388:..\..\..\lvgl\version_6.1.2\lvgl\src\lv_objx/lv_chart.c **** /**
 389:..\..\..\lvgl\version_6.1.2\lvgl\src\lv_objx/lv_chart.c ****  * Set the dark effect on the bottom of the points or columns
 390:..\..\..\lvgl\version_6.1.2\lvgl\src\lv_objx/lv_chart.c ****  * @param chart pointer to a chart object
 391:..\..\..\lvgl\version_6.1.2\lvgl\src\lv_objx/lv_chart.c ****  * @param dark_eff dark effect level (LV_OPA_TRANSP to turn off)
 392:..\..\..\lvgl\version_6.1.2\lvgl\src\lv_objx/lv_chart.c ****  */
 393:..\..\..\lvgl\version_6.1.2\lvgl\src\lv_objx/lv_chart.c **** void lv_chart_set_series_darking(lv_obj_t * chart, lv_opa_t dark_eff)
 394:..\..\..\lvgl\version_6.1.2\lvgl\src\lv_objx/lv_chart.c **** {
 395:..\..\..\lvgl\version_6.1.2\lvgl\src\lv_objx/lv_chart.c ****     LV_ASSERT_OBJ(chart, LV_OBJX_NAME);
 396:..\..\..\lvgl\version_6.1.2\lvgl\src\lv_objx/lv_chart.c **** 
 397:..\..\..\lvgl\version_6.1.2\lvgl\src\lv_objx/lv_chart.c ****     lv_chart_ext_t * ext = lv_obj_get_ext_attr(chart);
 398:..\..\..\lvgl\version_6.1.2\lvgl\src\lv_objx/lv_chart.c ****     if(ext->series.dark == dark_eff) return;
 399:..\..\..\lvgl\version_6.1.2\lvgl\src\lv_objx/lv_chart.c **** 
 400:..\..\..\lvgl\version_6.1.2\lvgl\src\lv_objx/lv_chart.c ****     ext->series.dark = dark_eff;
 401:..\..\..\lvgl\version_6.1.2\lvgl\src\lv_objx/lv_chart.c ****     lv_obj_invalidate(chart);
 402:..\..\..\lvgl\version_6.1.2\lvgl\src\lv_objx/lv_chart.c **** }
 403:..\..\..\lvgl\version_6.1.2\lvgl\src\lv_objx/lv_chart.c **** 
 404:..\..\..\lvgl\version_6.1.2\lvgl\src\lv_objx/lv_chart.c **** /**
 405:..\..\..\lvgl\version_6.1.2\lvgl\src\lv_objx/lv_chart.c ****  * Initialize all data points with a value
 406:..\..\..\lvgl\version_6.1.2\lvgl\src\lv_objx/lv_chart.c ****  * @param chart pointer to chart object
 407:..\..\..\lvgl\version_6.1.2\lvgl\src\lv_objx/lv_chart.c ****  * @param ser pointer to a data series on 'chart'
 408:..\..\..\lvgl\version_6.1.2\lvgl\src\lv_objx/lv_chart.c ****  * @param y the new value  for all points
 409:..\..\..\lvgl\version_6.1.2\lvgl\src\lv_objx/lv_chart.c ****  */
 410:..\..\..\lvgl\version_6.1.2\lvgl\src\lv_objx/lv_chart.c **** void lv_chart_init_points(lv_obj_t * chart, lv_chart_series_t * ser, lv_coord_t y)
 411:..\..\..\lvgl\version_6.1.2\lvgl\src\lv_objx/lv_chart.c **** {
 412:..\..\..\lvgl\version_6.1.2\lvgl\src\lv_objx/lv_chart.c ****     LV_ASSERT_OBJ(chart, LV_OBJX_NAME);
 413:..\..\..\lvgl\version_6.1.2\lvgl\src\lv_objx/lv_chart.c ****     LV_ASSERT_NULL(ser);
 414:..\..\..\lvgl\version_6.1.2\lvgl\src\lv_objx/lv_chart.c **** 
 415:..\..\..\lvgl\version_6.1.2\lvgl\src\lv_objx/lv_chart.c ****     lv_chart_ext_t * ext = lv_obj_get_ext_attr(chart);
 416:..\..\..\lvgl\version_6.1.2\lvgl\src\lv_objx/lv_chart.c ****     uint16_t i;
 417:..\..\..\lvgl\version_6.1.2\lvgl\src\lv_objx/lv_chart.c ****     for(i = 0; i < ext->point_cnt; i++) {
 418:..\..\..\lvgl\version_6.1.2\lvgl\src\lv_objx/lv_chart.c ****         ser->points[i] = y;
 419:..\..\..\lvgl\version_6.1.2\lvgl\src\lv_objx/lv_chart.c ****     }
 420:..\..\..\lvgl\version_6.1.2\lvgl\src\lv_objx/lv_chart.c ****     ser->start_point = 0;
 421:..\..\..\lvgl\version_6.1.2\lvgl\src\lv_objx/lv_chart.c ****     lv_chart_refresh(chart);
 422:..\..\..\lvgl\version_6.1.2\lvgl\src\lv_objx/lv_chart.c **** }
 423:..\..\..\lvgl\version_6.1.2\lvgl\src\lv_objx/lv_chart.c **** 
 424:..\..\..\lvgl\version_6.1.2\lvgl\src\lv_objx/lv_chart.c **** /**
 425:..\..\..\lvgl\version_6.1.2\lvgl\src\lv_objx/lv_chart.c ****  * Set the value of points from an array
 426:..\..\..\lvgl\version_6.1.2\lvgl\src\lv_objx/lv_chart.c ****  * @param chart pointer to chart object
 427:..\..\..\lvgl\version_6.1.2\lvgl\src\lv_objx/lv_chart.c ****  * @param ser pointer to a data series on 'chart'
 428:..\..\..\lvgl\version_6.1.2\lvgl\src\lv_objx/lv_chart.c ****  * @param y_array array of 'lv_coord_t' points (with 'points count' elements )
 429:..\..\..\lvgl\version_6.1.2\lvgl\src\lv_objx/lv_chart.c ****  */
ARM GAS  C:\Users\pearlstl\AppData\Local\Temp\ccRrtFoa.s 			page 9


 430:..\..\..\lvgl\version_6.1.2\lvgl\src\lv_objx/lv_chart.c **** void lv_chart_set_points(lv_obj_t * chart, lv_chart_series_t * ser, lv_coord_t y_array[])
 431:..\..\..\lvgl\version_6.1.2\lvgl\src\lv_objx/lv_chart.c **** {
 432:..\..\..\lvgl\version_6.1.2\lvgl\src\lv_objx/lv_chart.c ****     LV_ASSERT_OBJ(chart, LV_OBJX_NAME);
 433:..\..\..\lvgl\version_6.1.2\lvgl\src\lv_objx/lv_chart.c ****     LV_ASSERT_NULL(ser);
 434:..\..\..\lvgl\version_6.1.2\lvgl\src\lv_objx/lv_chart.c **** 
 435:..\..\..\lvgl\version_6.1.2\lvgl\src\lv_objx/lv_chart.c ****     lv_chart_ext_t * ext = lv_obj_get_ext_attr(chart);
 436:..\..\..\lvgl\version_6.1.2\lvgl\src\lv_objx/lv_chart.c ****     memcpy(ser->points, y_array, ext->point_cnt * (sizeof(lv_coord_t)));
 437:..\..\..\lvgl\version_6.1.2\lvgl\src\lv_objx/lv_chart.c ****     ser->start_point = 0;
 438:..\..\..\lvgl\version_6.1.2\lvgl\src\lv_objx/lv_chart.c ****     lv_chart_refresh(chart);
 439:..\..\..\lvgl\version_6.1.2\lvgl\src\lv_objx/lv_chart.c **** }
 440:..\..\..\lvgl\version_6.1.2\lvgl\src\lv_objx/lv_chart.c **** 
 441:..\..\..\lvgl\version_6.1.2\lvgl\src\lv_objx/lv_chart.c **** /**
 442:..\..\..\lvgl\version_6.1.2\lvgl\src\lv_objx/lv_chart.c ****  * Shift all data left and set the rightmost data on a data line
 443:..\..\..\lvgl\version_6.1.2\lvgl\src\lv_objx/lv_chart.c ****  * @param chart pointer to chart object
 444:..\..\..\lvgl\version_6.1.2\lvgl\src\lv_objx/lv_chart.c ****  * @param ser pointer to a data series on 'chart'
 445:..\..\..\lvgl\version_6.1.2\lvgl\src\lv_objx/lv_chart.c ****  * @param y the new value of the rightmost data
 446:..\..\..\lvgl\version_6.1.2\lvgl\src\lv_objx/lv_chart.c ****  */
 447:..\..\..\lvgl\version_6.1.2\lvgl\src\lv_objx/lv_chart.c **** void lv_chart_set_next(lv_obj_t * chart, lv_chart_series_t * ser, lv_coord_t y)
 448:..\..\..\lvgl\version_6.1.2\lvgl\src\lv_objx/lv_chart.c **** {
 449:..\..\..\lvgl\version_6.1.2\lvgl\src\lv_objx/lv_chart.c ****     LV_ASSERT_OBJ(chart, LV_OBJX_NAME);
 450:..\..\..\lvgl\version_6.1.2\lvgl\src\lv_objx/lv_chart.c ****     LV_ASSERT_NULL(ser);
 451:..\..\..\lvgl\version_6.1.2\lvgl\src\lv_objx/lv_chart.c **** 
 452:..\..\..\lvgl\version_6.1.2\lvgl\src\lv_objx/lv_chart.c ****     lv_chart_ext_t * ext = lv_obj_get_ext_attr(chart);
 453:..\..\..\lvgl\version_6.1.2\lvgl\src\lv_objx/lv_chart.c ****     if(ext->update_mode == LV_CHART_UPDATE_MODE_SHIFT) {
 454:..\..\..\lvgl\version_6.1.2\lvgl\src\lv_objx/lv_chart.c ****         ser->points[ser->start_point] =
 455:..\..\..\lvgl\version_6.1.2\lvgl\src\lv_objx/lv_chart.c ****             y; /*This was the place of the former left most value, after shifting it is the rightmo
 456:..\..\..\lvgl\version_6.1.2\lvgl\src\lv_objx/lv_chart.c ****         ser->start_point = (ser->start_point + 1) % ext->point_cnt;
 457:..\..\..\lvgl\version_6.1.2\lvgl\src\lv_objx/lv_chart.c ****         lv_chart_refresh(chart);
 458:..\..\..\lvgl\version_6.1.2\lvgl\src\lv_objx/lv_chart.c ****     } else if(ext->update_mode == LV_CHART_UPDATE_MODE_CIRCULAR) {
 459:..\..\..\lvgl\version_6.1.2\lvgl\src\lv_objx/lv_chart.c ****         ser->points[ser->start_point] = y;
 460:..\..\..\lvgl\version_6.1.2\lvgl\src\lv_objx/lv_chart.c **** 
 461:..\..\..\lvgl\version_6.1.2\lvgl\src\lv_objx/lv_chart.c ****         if(ext->type & LV_CHART_TYPE_LINE) lv_chart_inv_lines(chart, ser->start_point);
 462:..\..\..\lvgl\version_6.1.2\lvgl\src\lv_objx/lv_chart.c ****         if(ext->type & LV_CHART_TYPE_COLUMN) lv_chart_inv_cols(chart, ser->start_point);
 463:..\..\..\lvgl\version_6.1.2\lvgl\src\lv_objx/lv_chart.c ****         if(ext->type & LV_CHART_TYPE_POINT) lv_chart_inv_points(chart, ser->start_point);
 464:..\..\..\lvgl\version_6.1.2\lvgl\src\lv_objx/lv_chart.c ****         if(ext->type & LV_CHART_TYPE_VERTICAL_LINE) lv_chart_inv_lines(chart, ser->start_point);
 465:..\..\..\lvgl\version_6.1.2\lvgl\src\lv_objx/lv_chart.c ****         if(ext->type & LV_CHART_TYPE_AREA) lv_chart_inv_lines(chart, ser->start_point);
 466:..\..\..\lvgl\version_6.1.2\lvgl\src\lv_objx/lv_chart.c **** 
 467:..\..\..\lvgl\version_6.1.2\lvgl\src\lv_objx/lv_chart.c ****         ser->start_point = (ser->start_point + 1) % ext->point_cnt; /*update the x for next incomin
 468:..\..\..\lvgl\version_6.1.2\lvgl\src\lv_objx/lv_chart.c ****     }
 469:..\..\..\lvgl\version_6.1.2\lvgl\src\lv_objx/lv_chart.c **** }
 470:..\..\..\lvgl\version_6.1.2\lvgl\src\lv_objx/lv_chart.c **** 
 471:..\..\..\lvgl\version_6.1.2\lvgl\src\lv_objx/lv_chart.c **** /**
 472:..\..\..\lvgl\version_6.1.2\lvgl\src\lv_objx/lv_chart.c ****  * Set update mode of the chart object.
 473:..\..\..\lvgl\version_6.1.2\lvgl\src\lv_objx/lv_chart.c ****  * @param chart pointer to a chart object
 474:..\..\..\lvgl\version_6.1.2\lvgl\src\lv_objx/lv_chart.c ****  * @param update mode
 475:..\..\..\lvgl\version_6.1.2\lvgl\src\lv_objx/lv_chart.c ****  */
 476:..\..\..\lvgl\version_6.1.2\lvgl\src\lv_objx/lv_chart.c **** void lv_chart_set_update_mode(lv_obj_t * chart, lv_chart_update_mode_t update_mode)
 477:..\..\..\lvgl\version_6.1.2\lvgl\src\lv_objx/lv_chart.c **** {
 478:..\..\..\lvgl\version_6.1.2\lvgl\src\lv_objx/lv_chart.c ****     LV_ASSERT_OBJ(chart, LV_OBJX_NAME);
 479:..\..\..\lvgl\version_6.1.2\lvgl\src\lv_objx/lv_chart.c **** 
 480:..\..\..\lvgl\version_6.1.2\lvgl\src\lv_objx/lv_chart.c ****     lv_chart_ext_t * ext = lv_obj_get_ext_attr(chart);
 481:..\..\..\lvgl\version_6.1.2\lvgl\src\lv_objx/lv_chart.c ****     if(ext->update_mode == update_mode) return;
 482:..\..\..\lvgl\version_6.1.2\lvgl\src\lv_objx/lv_chart.c **** 
 483:..\..\..\lvgl\version_6.1.2\lvgl\src\lv_objx/lv_chart.c ****     ext->update_mode = update_mode;
 484:..\..\..\lvgl\version_6.1.2\lvgl\src\lv_objx/lv_chart.c ****     lv_obj_invalidate(chart);
 485:..\..\..\lvgl\version_6.1.2\lvgl\src\lv_objx/lv_chart.c **** }
 486:..\..\..\lvgl\version_6.1.2\lvgl\src\lv_objx/lv_chart.c **** 
ARM GAS  C:\Users\pearlstl\AppData\Local\Temp\ccRrtFoa.s 			page 10


 487:..\..\..\lvgl\version_6.1.2\lvgl\src\lv_objx/lv_chart.c **** /**
 488:..\..\..\lvgl\version_6.1.2\lvgl\src\lv_objx/lv_chart.c ****  * Set the length of the tick marks on the x axis
 489:..\..\..\lvgl\version_6.1.2\lvgl\src\lv_objx/lv_chart.c ****  * @param chart pointer to the chart
 490:..\..\..\lvgl\version_6.1.2\lvgl\src\lv_objx/lv_chart.c ****  * @param major_tick_len the length of the major tick or `LV_CHART_TICK_LENGTH_AUTO` to set automat
 491:..\..\..\lvgl\version_6.1.2\lvgl\src\lv_objx/lv_chart.c ****  *                       (where labels are added)
 492:..\..\..\lvgl\version_6.1.2\lvgl\src\lv_objx/lv_chart.c ****  * @param minor_tick_len the length of the minor tick, `LV_CHART_TICK_LENGTH_AUTO` to set automatic
 493:..\..\..\lvgl\version_6.1.2\lvgl\src\lv_objx/lv_chart.c ****  *                       (where no labels are added)
 494:..\..\..\lvgl\version_6.1.2\lvgl\src\lv_objx/lv_chart.c ****  */
 495:..\..\..\lvgl\version_6.1.2\lvgl\src\lv_objx/lv_chart.c **** void lv_chart_set_x_tick_length(lv_obj_t * chart, uint8_t major_tick_len, uint8_t minor_tick_len)
 496:..\..\..\lvgl\version_6.1.2\lvgl\src\lv_objx/lv_chart.c **** {
 497:..\..\..\lvgl\version_6.1.2\lvgl\src\lv_objx/lv_chart.c ****     LV_ASSERT_OBJ(chart, LV_OBJX_NAME);
 498:..\..\..\lvgl\version_6.1.2\lvgl\src\lv_objx/lv_chart.c **** 
 499:..\..\..\lvgl\version_6.1.2\lvgl\src\lv_objx/lv_chart.c ****     lv_chart_ext_t * ext       = lv_obj_get_ext_attr(chart);
 500:..\..\..\lvgl\version_6.1.2\lvgl\src\lv_objx/lv_chart.c ****     ext->x_axis.major_tick_len = major_tick_len;
 501:..\..\..\lvgl\version_6.1.2\lvgl\src\lv_objx/lv_chart.c ****     ext->x_axis.minor_tick_len = minor_tick_len;
 502:..\..\..\lvgl\version_6.1.2\lvgl\src\lv_objx/lv_chart.c **** }
 503:..\..\..\lvgl\version_6.1.2\lvgl\src\lv_objx/lv_chart.c **** 
 504:..\..\..\lvgl\version_6.1.2\lvgl\src\lv_objx/lv_chart.c **** /**
 505:..\..\..\lvgl\version_6.1.2\lvgl\src\lv_objx/lv_chart.c ****  * Set the length of the tick marks on the y axis
 506:..\..\..\lvgl\version_6.1.2\lvgl\src\lv_objx/lv_chart.c ****  * @param chart pointer to the chart
 507:..\..\..\lvgl\version_6.1.2\lvgl\src\lv_objx/lv_chart.c ****  * @param major_tick_len the length of the major tick or `LV_CHART_TICK_LENGTH_AUTO` to set automat
 508:..\..\..\lvgl\version_6.1.2\lvgl\src\lv_objx/lv_chart.c ****  *                       (where labels are added)
 509:..\..\..\lvgl\version_6.1.2\lvgl\src\lv_objx/lv_chart.c ****  * @param minor_tick_len the length of the minor tick, `LV_CHART_TICK_LENGTH_AUTO` to set automatic
 510:..\..\..\lvgl\version_6.1.2\lvgl\src\lv_objx/lv_chart.c ****  *                       (where no labels are added)
 511:..\..\..\lvgl\version_6.1.2\lvgl\src\lv_objx/lv_chart.c ****  */
 512:..\..\..\lvgl\version_6.1.2\lvgl\src\lv_objx/lv_chart.c **** void lv_chart_set_y_tick_length(lv_obj_t * chart, uint8_t major_tick_len, uint8_t minor_tick_len)
 513:..\..\..\lvgl\version_6.1.2\lvgl\src\lv_objx/lv_chart.c **** {
 514:..\..\..\lvgl\version_6.1.2\lvgl\src\lv_objx/lv_chart.c ****     LV_ASSERT_OBJ(chart, LV_OBJX_NAME);
 515:..\..\..\lvgl\version_6.1.2\lvgl\src\lv_objx/lv_chart.c **** 
 516:..\..\..\lvgl\version_6.1.2\lvgl\src\lv_objx/lv_chart.c ****     lv_chart_ext_t * ext       = lv_obj_get_ext_attr(chart);
 517:..\..\..\lvgl\version_6.1.2\lvgl\src\lv_objx/lv_chart.c ****     ext->y_axis.major_tick_len = major_tick_len;
 518:..\..\..\lvgl\version_6.1.2\lvgl\src\lv_objx/lv_chart.c ****     ext->y_axis.minor_tick_len = minor_tick_len;
 519:..\..\..\lvgl\version_6.1.2\lvgl\src\lv_objx/lv_chart.c **** }
 520:..\..\..\lvgl\version_6.1.2\lvgl\src\lv_objx/lv_chart.c **** 
 521:..\..\..\lvgl\version_6.1.2\lvgl\src\lv_objx/lv_chart.c **** /**
 522:..\..\..\lvgl\version_6.1.2\lvgl\src\lv_objx/lv_chart.c ****  * Set the length of the tick marks on the secondary y axis
 523:..\..\..\lvgl\version_6.1.2\lvgl\src\lv_objx/lv_chart.c ****  * @param chart pointer to the chart
 524:..\..\..\lvgl\version_6.1.2\lvgl\src\lv_objx/lv_chart.c ****  * @param major_tick_len the length of the major tick or `LV_CHART_TICK_LENGTH_AUTO` to set automat
 525:..\..\..\lvgl\version_6.1.2\lvgl\src\lv_objx/lv_chart.c ****  *                       (where labels are added)
 526:..\..\..\lvgl\version_6.1.2\lvgl\src\lv_objx/lv_chart.c ****  * @param minor_tick_len the length of the minor tick, `LV_CHART_TICK_LENGTH_AUTO` to set automatic
 527:..\..\..\lvgl\version_6.1.2\lvgl\src\lv_objx/lv_chart.c ****  *                       (where no labels are added)
 528:..\..\..\lvgl\version_6.1.2\lvgl\src\lv_objx/lv_chart.c ****  */
 529:..\..\..\lvgl\version_6.1.2\lvgl\src\lv_objx/lv_chart.c **** void lv_chart_set_secondary_y_tick_length(lv_obj_t * chart, uint8_t major_tick_len, uint8_t minor_t
 530:..\..\..\lvgl\version_6.1.2\lvgl\src\lv_objx/lv_chart.c **** {
 531:..\..\..\lvgl\version_6.1.2\lvgl\src\lv_objx/lv_chart.c ****     LV_ASSERT_OBJ(chart, LV_OBJX_NAME);
 532:..\..\..\lvgl\version_6.1.2\lvgl\src\lv_objx/lv_chart.c **** 
 533:..\..\..\lvgl\version_6.1.2\lvgl\src\lv_objx/lv_chart.c ****     lv_chart_ext_t * ext       = lv_obj_get_ext_attr(chart);
 534:..\..\..\lvgl\version_6.1.2\lvgl\src\lv_objx/lv_chart.c ****     ext->secondary_y_axis.major_tick_len = major_tick_len;
 535:..\..\..\lvgl\version_6.1.2\lvgl\src\lv_objx/lv_chart.c ****     ext->secondary_y_axis.minor_tick_len = minor_tick_len;
 536:..\..\..\lvgl\version_6.1.2\lvgl\src\lv_objx/lv_chart.c **** }
 537:..\..\..\lvgl\version_6.1.2\lvgl\src\lv_objx/lv_chart.c **** 
 538:..\..\..\lvgl\version_6.1.2\lvgl\src\lv_objx/lv_chart.c **** /**
 539:..\..\..\lvgl\version_6.1.2\lvgl\src\lv_objx/lv_chart.c ****  * Set the x-axis tick count and labels of a chart
 540:..\..\..\lvgl\version_6.1.2\lvgl\src\lv_objx/lv_chart.c ****  * @param chart 			pointer to a chart object
 541:..\..\..\lvgl\version_6.1.2\lvgl\src\lv_objx/lv_chart.c ****  * @param list_of_values 	list of string values, terminated with \n, except the last
 542:..\..\..\lvgl\version_6.1.2\lvgl\src\lv_objx/lv_chart.c ****  * @param num_tick_marks 	if list_of_values is NULL: total number of ticks per axis
 543:..\..\..\lvgl\version_6.1.2\lvgl\src\lv_objx/lv_chart.c ****  * 							else number of ticks between two value labels
ARM GAS  C:\Users\pearlstl\AppData\Local\Temp\ccRrtFoa.s 			page 11


 544:..\..\..\lvgl\version_6.1.2\lvgl\src\lv_objx/lv_chart.c ****  * @param options			extra options
 545:..\..\..\lvgl\version_6.1.2\lvgl\src\lv_objx/lv_chart.c ****  */
 546:..\..\..\lvgl\version_6.1.2\lvgl\src\lv_objx/lv_chart.c **** void lv_chart_set_x_tick_texts(lv_obj_t * chart, const char * list_of_values, uint8_t num_tick_mark
 547:..\..\..\lvgl\version_6.1.2\lvgl\src\lv_objx/lv_chart.c ****                                lv_chart_axis_options_t options)
 548:..\..\..\lvgl\version_6.1.2\lvgl\src\lv_objx/lv_chart.c **** {
 549:..\..\..\lvgl\version_6.1.2\lvgl\src\lv_objx/lv_chart.c ****     LV_ASSERT_OBJ(chart, LV_OBJX_NAME);
 550:..\..\..\lvgl\version_6.1.2\lvgl\src\lv_objx/lv_chart.c ****     LV_ASSERT_NULL(list_of_values);
 551:..\..\..\lvgl\version_6.1.2\lvgl\src\lv_objx/lv_chart.c **** 
 552:..\..\..\lvgl\version_6.1.2\lvgl\src\lv_objx/lv_chart.c ****     lv_chart_ext_t * ext       = lv_obj_get_ext_attr(chart);
 553:..\..\..\lvgl\version_6.1.2\lvgl\src\lv_objx/lv_chart.c ****     ext->x_axis.num_tick_marks = num_tick_marks;
 554:..\..\..\lvgl\version_6.1.2\lvgl\src\lv_objx/lv_chart.c ****     ext->x_axis.list_of_values = list_of_values;
 555:..\..\..\lvgl\version_6.1.2\lvgl\src\lv_objx/lv_chart.c ****     ext->x_axis.options        = options;
 556:..\..\..\lvgl\version_6.1.2\lvgl\src\lv_objx/lv_chart.c **** }
 557:..\..\..\lvgl\version_6.1.2\lvgl\src\lv_objx/lv_chart.c **** 
 558:..\..\..\lvgl\version_6.1.2\lvgl\src\lv_objx/lv_chart.c **** /**
 559:..\..\..\lvgl\version_6.1.2\lvgl\src\lv_objx/lv_chart.c ****  * Set the y-axis tick count and labels of a chart
 560:..\..\..\lvgl\version_6.1.2\lvgl\src\lv_objx/lv_chart.c ****  * @param chart             pointer to a chart object
 561:..\..\..\lvgl\version_6.1.2\lvgl\src\lv_objx/lv_chart.c ****  * @param list_of_values    list of string values, terminated with \n, except the last
 562:..\..\..\lvgl\version_6.1.2\lvgl\src\lv_objx/lv_chart.c ****  * @param num_tick_marks    if list_of_values is NULL: total number of ticks per axis
 563:..\..\..\lvgl\version_6.1.2\lvgl\src\lv_objx/lv_chart.c ****  *                          else number of ticks between two value labels
 564:..\..\..\lvgl\version_6.1.2\lvgl\src\lv_objx/lv_chart.c ****  * @param options           extra options
 565:..\..\..\lvgl\version_6.1.2\lvgl\src\lv_objx/lv_chart.c ****  */
 566:..\..\..\lvgl\version_6.1.2\lvgl\src\lv_objx/lv_chart.c **** void lv_chart_set_y_tick_texts(lv_obj_t * chart, const char * list_of_values, uint8_t num_tick_mark
 567:..\..\..\lvgl\version_6.1.2\lvgl\src\lv_objx/lv_chart.c ****                                lv_chart_axis_options_t options)
 568:..\..\..\lvgl\version_6.1.2\lvgl\src\lv_objx/lv_chart.c **** {
 569:..\..\..\lvgl\version_6.1.2\lvgl\src\lv_objx/lv_chart.c ****     LV_ASSERT_OBJ(chart, LV_OBJX_NAME);
 570:..\..\..\lvgl\version_6.1.2\lvgl\src\lv_objx/lv_chart.c ****     LV_ASSERT_NULL(list_of_values);
 571:..\..\..\lvgl\version_6.1.2\lvgl\src\lv_objx/lv_chart.c **** 
 572:..\..\..\lvgl\version_6.1.2\lvgl\src\lv_objx/lv_chart.c ****     lv_chart_ext_t * ext       = lv_obj_get_ext_attr(chart);
 573:..\..\..\lvgl\version_6.1.2\lvgl\src\lv_objx/lv_chart.c ****     ext->y_axis.num_tick_marks = num_tick_marks;
 574:..\..\..\lvgl\version_6.1.2\lvgl\src\lv_objx/lv_chart.c ****     ext->y_axis.list_of_values = list_of_values;
 575:..\..\..\lvgl\version_6.1.2\lvgl\src\lv_objx/lv_chart.c ****     ext->y_axis.options        = options;
 576:..\..\..\lvgl\version_6.1.2\lvgl\src\lv_objx/lv_chart.c **** }
 577:..\..\..\lvgl\version_6.1.2\lvgl\src\lv_objx/lv_chart.c **** 
 578:..\..\..\lvgl\version_6.1.2\lvgl\src\lv_objx/lv_chart.c **** /**
 579:..\..\..\lvgl\version_6.1.2\lvgl\src\lv_objx/lv_chart.c ****  * Set the secondary y-axis tick count and labels of a chart
 580:..\..\..\lvgl\version_6.1.2\lvgl\src\lv_objx/lv_chart.c ****  * @param chart             pointer to a chart object
 581:..\..\..\lvgl\version_6.1.2\lvgl\src\lv_objx/lv_chart.c ****  * @param list_of_values    list of string values, terminated with \n, except the last
 582:..\..\..\lvgl\version_6.1.2\lvgl\src\lv_objx/lv_chart.c ****  * @param num_tick_marks    if list_of_values is NULL: total number of ticks per axis
 583:..\..\..\lvgl\version_6.1.2\lvgl\src\lv_objx/lv_chart.c ****  *                          else number of ticks between two value labels
 584:..\..\..\lvgl\version_6.1.2\lvgl\src\lv_objx/lv_chart.c ****  * @param options           extra options
 585:..\..\..\lvgl\version_6.1.2\lvgl\src\lv_objx/lv_chart.c ****  */
 586:..\..\..\lvgl\version_6.1.2\lvgl\src\lv_objx/lv_chart.c **** void lv_chart_set_secondary_y_tick_texts(lv_obj_t * chart, const char * list_of_values, uint8_t num
 587:..\..\..\lvgl\version_6.1.2\lvgl\src\lv_objx/lv_chart.c ****                                         lv_chart_axis_options_t options)
 588:..\..\..\lvgl\version_6.1.2\lvgl\src\lv_objx/lv_chart.c **** {
 589:..\..\..\lvgl\version_6.1.2\lvgl\src\lv_objx/lv_chart.c ****     LV_ASSERT_OBJ(chart, LV_OBJX_NAME);
 590:..\..\..\lvgl\version_6.1.2\lvgl\src\lv_objx/lv_chart.c ****     LV_ASSERT_NULL(list_of_values);
 591:..\..\..\lvgl\version_6.1.2\lvgl\src\lv_objx/lv_chart.c **** 
 592:..\..\..\lvgl\version_6.1.2\lvgl\src\lv_objx/lv_chart.c ****     lv_chart_ext_t * ext       = lv_obj_get_ext_attr(chart);
 593:..\..\..\lvgl\version_6.1.2\lvgl\src\lv_objx/lv_chart.c ****     ext->secondary_y_axis.num_tick_marks = num_tick_marks;
 594:..\..\..\lvgl\version_6.1.2\lvgl\src\lv_objx/lv_chart.c ****     ext->secondary_y_axis.list_of_values = list_of_values;
 595:..\..\..\lvgl\version_6.1.2\lvgl\src\lv_objx/lv_chart.c ****     ext->secondary_y_axis.options        = options;
 596:..\..\..\lvgl\version_6.1.2\lvgl\src\lv_objx/lv_chart.c **** }
 597:..\..\..\lvgl\version_6.1.2\lvgl\src\lv_objx/lv_chart.c **** 
 598:..\..\..\lvgl\version_6.1.2\lvgl\src\lv_objx/lv_chart.c **** /**
 599:..\..\..\lvgl\version_6.1.2\lvgl\src\lv_objx/lv_chart.c ****  * Set the margin around the chart, used for axes value and ticks
 600:..\..\..\lvgl\version_6.1.2\lvgl\src\lv_objx/lv_chart.c ****  * @param chart     pointer to an chart object
ARM GAS  C:\Users\pearlstl\AppData\Local\Temp\ccRrtFoa.s 			page 12


 601:..\..\..\lvgl\version_6.1.2\lvgl\src\lv_objx/lv_chart.c ****  * @param margin    value of the margin [px]
 602:..\..\..\lvgl\version_6.1.2\lvgl\src\lv_objx/lv_chart.c ****  */
 603:..\..\..\lvgl\version_6.1.2\lvgl\src\lv_objx/lv_chart.c **** void lv_chart_set_margin(lv_obj_t * chart, uint16_t margin)
 604:..\..\..\lvgl\version_6.1.2\lvgl\src\lv_objx/lv_chart.c **** {
 605:..\..\..\lvgl\version_6.1.2\lvgl\src\lv_objx/lv_chart.c ****     LV_ASSERT_OBJ(chart, LV_OBJX_NAME);
 606:..\..\..\lvgl\version_6.1.2\lvgl\src\lv_objx/lv_chart.c **** 
 607:..\..\..\lvgl\version_6.1.2\lvgl\src\lv_objx/lv_chart.c ****     lv_chart_ext_t * ext = lv_obj_get_ext_attr(chart);
 608:..\..\..\lvgl\version_6.1.2\lvgl\src\lv_objx/lv_chart.c ****     ext->margin          = margin;
 609:..\..\..\lvgl\version_6.1.2\lvgl\src\lv_objx/lv_chart.c ****     lv_obj_refresh_ext_draw_pad(chart);
 610:..\..\..\lvgl\version_6.1.2\lvgl\src\lv_objx/lv_chart.c **** }
 611:..\..\..\lvgl\version_6.1.2\lvgl\src\lv_objx/lv_chart.c **** 
 612:..\..\..\lvgl\version_6.1.2\lvgl\src\lv_objx/lv_chart.c **** /*=====================
 613:..\..\..\lvgl\version_6.1.2\lvgl\src\lv_objx/lv_chart.c ****  * Getter functions
 614:..\..\..\lvgl\version_6.1.2\lvgl\src\lv_objx/lv_chart.c ****  *====================*/
 615:..\..\..\lvgl\version_6.1.2\lvgl\src\lv_objx/lv_chart.c **** 
 616:..\..\..\lvgl\version_6.1.2\lvgl\src\lv_objx/lv_chart.c **** /**
 617:..\..\..\lvgl\version_6.1.2\lvgl\src\lv_objx/lv_chart.c ****  * Get the type of a chart
 618:..\..\..\lvgl\version_6.1.2\lvgl\src\lv_objx/lv_chart.c ****  * @param chart pointer to chart object
 619:..\..\..\lvgl\version_6.1.2\lvgl\src\lv_objx/lv_chart.c ****  * @return type of the chart (from 'lv_chart_t' enum)
 620:..\..\..\lvgl\version_6.1.2\lvgl\src\lv_objx/lv_chart.c ****  */
 621:..\..\..\lvgl\version_6.1.2\lvgl\src\lv_objx/lv_chart.c **** lv_chart_type_t lv_chart_get_type(const lv_obj_t * chart)
 622:..\..\..\lvgl\version_6.1.2\lvgl\src\lv_objx/lv_chart.c **** {
 623:..\..\..\lvgl\version_6.1.2\lvgl\src\lv_objx/lv_chart.c ****     LV_ASSERT_OBJ(chart, LV_OBJX_NAME);
 624:..\..\..\lvgl\version_6.1.2\lvgl\src\lv_objx/lv_chart.c **** 
 625:..\..\..\lvgl\version_6.1.2\lvgl\src\lv_objx/lv_chart.c ****     lv_chart_ext_t * ext = lv_obj_get_ext_attr(chart);
 626:..\..\..\lvgl\version_6.1.2\lvgl\src\lv_objx/lv_chart.c ****     return ext->type;
 627:..\..\..\lvgl\version_6.1.2\lvgl\src\lv_objx/lv_chart.c **** }
 628:..\..\..\lvgl\version_6.1.2\lvgl\src\lv_objx/lv_chart.c **** 
 629:..\..\..\lvgl\version_6.1.2\lvgl\src\lv_objx/lv_chart.c **** /**
 630:..\..\..\lvgl\version_6.1.2\lvgl\src\lv_objx/lv_chart.c ****  * Get the data point number per data line on chart
 631:..\..\..\lvgl\version_6.1.2\lvgl\src\lv_objx/lv_chart.c ****  * @param chart pointer to chart object
 632:..\..\..\lvgl\version_6.1.2\lvgl\src\lv_objx/lv_chart.c ****  * @return point number on each data line
 633:..\..\..\lvgl\version_6.1.2\lvgl\src\lv_objx/lv_chart.c ****  */
 634:..\..\..\lvgl\version_6.1.2\lvgl\src\lv_objx/lv_chart.c **** uint16_t lv_chart_get_point_cnt(const lv_obj_t * chart)
 635:..\..\..\lvgl\version_6.1.2\lvgl\src\lv_objx/lv_chart.c **** {
 636:..\..\..\lvgl\version_6.1.2\lvgl\src\lv_objx/lv_chart.c ****     LV_ASSERT_OBJ(chart, LV_OBJX_NAME);
 637:..\..\..\lvgl\version_6.1.2\lvgl\src\lv_objx/lv_chart.c **** 
 638:..\..\..\lvgl\version_6.1.2\lvgl\src\lv_objx/lv_chart.c ****     lv_chart_ext_t * ext = lv_obj_get_ext_attr(chart);
 639:..\..\..\lvgl\version_6.1.2\lvgl\src\lv_objx/lv_chart.c ****     return ext->point_cnt;
 640:..\..\..\lvgl\version_6.1.2\lvgl\src\lv_objx/lv_chart.c **** }
 641:..\..\..\lvgl\version_6.1.2\lvgl\src\lv_objx/lv_chart.c **** 
 642:..\..\..\lvgl\version_6.1.2\lvgl\src\lv_objx/lv_chart.c **** /**
 643:..\..\..\lvgl\version_6.1.2\lvgl\src\lv_objx/lv_chart.c ****  * Get the opacity of the data series
 644:..\..\..\lvgl\version_6.1.2\lvgl\src\lv_objx/lv_chart.c ****  * @param chart pointer to chart object
 645:..\..\..\lvgl\version_6.1.2\lvgl\src\lv_objx/lv_chart.c ****  * @return the opacity of the data series
 646:..\..\..\lvgl\version_6.1.2\lvgl\src\lv_objx/lv_chart.c ****  */
 647:..\..\..\lvgl\version_6.1.2\lvgl\src\lv_objx/lv_chart.c **** lv_opa_t lv_chart_get_series_opa(const lv_obj_t * chart)
 648:..\..\..\lvgl\version_6.1.2\lvgl\src\lv_objx/lv_chart.c **** {
 649:..\..\..\lvgl\version_6.1.2\lvgl\src\lv_objx/lv_chart.c ****     LV_ASSERT_OBJ(chart, LV_OBJX_NAME);
 650:..\..\..\lvgl\version_6.1.2\lvgl\src\lv_objx/lv_chart.c **** 
 651:..\..\..\lvgl\version_6.1.2\lvgl\src\lv_objx/lv_chart.c ****     lv_chart_ext_t * ext = lv_obj_get_ext_attr(chart);
 652:..\..\..\lvgl\version_6.1.2\lvgl\src\lv_objx/lv_chart.c ****     return ext->series.opa;
 653:..\..\..\lvgl\version_6.1.2\lvgl\src\lv_objx/lv_chart.c **** }
 654:..\..\..\lvgl\version_6.1.2\lvgl\src\lv_objx/lv_chart.c **** 
 655:..\..\..\lvgl\version_6.1.2\lvgl\src\lv_objx/lv_chart.c **** /**
 656:..\..\..\lvgl\version_6.1.2\lvgl\src\lv_objx/lv_chart.c ****  * Get the data series width
 657:..\..\..\lvgl\version_6.1.2\lvgl\src\lv_objx/lv_chart.c ****  * @param chart pointer to chart object
ARM GAS  C:\Users\pearlstl\AppData\Local\Temp\ccRrtFoa.s 			page 13


 658:..\..\..\lvgl\version_6.1.2\lvgl\src\lv_objx/lv_chart.c ****  * @return the width the data series (lines or points)
 659:..\..\..\lvgl\version_6.1.2\lvgl\src\lv_objx/lv_chart.c ****  */
 660:..\..\..\lvgl\version_6.1.2\lvgl\src\lv_objx/lv_chart.c **** lv_coord_t lv_chart_get_series_width(const lv_obj_t * chart)
 661:..\..\..\lvgl\version_6.1.2\lvgl\src\lv_objx/lv_chart.c **** {
 662:..\..\..\lvgl\version_6.1.2\lvgl\src\lv_objx/lv_chart.c ****     LV_ASSERT_OBJ(chart, LV_OBJX_NAME);
 663:..\..\..\lvgl\version_6.1.2\lvgl\src\lv_objx/lv_chart.c **** 
 664:..\..\..\lvgl\version_6.1.2\lvgl\src\lv_objx/lv_chart.c ****     lv_chart_ext_t * ext = lv_obj_get_ext_attr(chart);
 665:..\..\..\lvgl\version_6.1.2\lvgl\src\lv_objx/lv_chart.c ****     return ext->series.width;
 666:..\..\..\lvgl\version_6.1.2\lvgl\src\lv_objx/lv_chart.c **** }
 667:..\..\..\lvgl\version_6.1.2\lvgl\src\lv_objx/lv_chart.c **** 
 668:..\..\..\lvgl\version_6.1.2\lvgl\src\lv_objx/lv_chart.c **** /**
 669:..\..\..\lvgl\version_6.1.2\lvgl\src\lv_objx/lv_chart.c ****  * Get the dark effect level on the bottom of the points or columns
 670:..\..\..\lvgl\version_6.1.2\lvgl\src\lv_objx/lv_chart.c ****  * @param chart pointer to chart object
 671:..\..\..\lvgl\version_6.1.2\lvgl\src\lv_objx/lv_chart.c ****  * @return dark effect level (LV_OPA_TRANSP to turn off)
 672:..\..\..\lvgl\version_6.1.2\lvgl\src\lv_objx/lv_chart.c ****  */
 673:..\..\..\lvgl\version_6.1.2\lvgl\src\lv_objx/lv_chart.c **** lv_opa_t lv_chart_get_series_darking(const lv_obj_t * chart)
 674:..\..\..\lvgl\version_6.1.2\lvgl\src\lv_objx/lv_chart.c **** {
 675:..\..\..\lvgl\version_6.1.2\lvgl\src\lv_objx/lv_chart.c ****     LV_ASSERT_OBJ(chart, LV_OBJX_NAME);
 676:..\..\..\lvgl\version_6.1.2\lvgl\src\lv_objx/lv_chart.c **** 
 677:..\..\..\lvgl\version_6.1.2\lvgl\src\lv_objx/lv_chart.c ****     lv_chart_ext_t * ext = lv_obj_get_ext_attr(chart);
 678:..\..\..\lvgl\version_6.1.2\lvgl\src\lv_objx/lv_chart.c ****     return ext->series.dark;
 679:..\..\..\lvgl\version_6.1.2\lvgl\src\lv_objx/lv_chart.c **** }
 680:..\..\..\lvgl\version_6.1.2\lvgl\src\lv_objx/lv_chart.c **** 
 681:..\..\..\lvgl\version_6.1.2\lvgl\src\lv_objx/lv_chart.c **** /*=====================
 682:..\..\..\lvgl\version_6.1.2\lvgl\src\lv_objx/lv_chart.c ****  * Other functions
 683:..\..\..\lvgl\version_6.1.2\lvgl\src\lv_objx/lv_chart.c ****  *====================*/
 684:..\..\..\lvgl\version_6.1.2\lvgl\src\lv_objx/lv_chart.c **** 
 685:..\..\..\lvgl\version_6.1.2\lvgl\src\lv_objx/lv_chart.c **** /**
 686:..\..\..\lvgl\version_6.1.2\lvgl\src\lv_objx/lv_chart.c ****  * Refresh a chart if its data line has changed
 687:..\..\..\lvgl\version_6.1.2\lvgl\src\lv_objx/lv_chart.c ****  * @param chart pointer to chart object
 688:..\..\..\lvgl\version_6.1.2\lvgl\src\lv_objx/lv_chart.c ****  */
 689:..\..\..\lvgl\version_6.1.2\lvgl\src\lv_objx/lv_chart.c **** void lv_chart_refresh(lv_obj_t * chart)
 690:..\..\..\lvgl\version_6.1.2\lvgl\src\lv_objx/lv_chart.c **** {
 691:..\..\..\lvgl\version_6.1.2\lvgl\src\lv_objx/lv_chart.c ****     LV_ASSERT_OBJ(chart, LV_OBJX_NAME);
 692:..\..\..\lvgl\version_6.1.2\lvgl\src\lv_objx/lv_chart.c **** 
 693:..\..\..\lvgl\version_6.1.2\lvgl\src\lv_objx/lv_chart.c ****     lv_obj_invalidate(chart);
 694:..\..\..\lvgl\version_6.1.2\lvgl\src\lv_objx/lv_chart.c **** }
 695:..\..\..\lvgl\version_6.1.2\lvgl\src\lv_objx/lv_chart.c **** 
 696:..\..\..\lvgl\version_6.1.2\lvgl\src\lv_objx/lv_chart.c **** /**
 697:..\..\..\lvgl\version_6.1.2\lvgl\src\lv_objx/lv_chart.c ****  * Get the margin around the chart, used for axes value and labels
 698:..\..\..\lvgl\version_6.1.2\lvgl\src\lv_objx/lv_chart.c ****  * @param chart pointer to an chart object
 699:..\..\..\lvgl\version_6.1.2\lvgl\src\lv_objx/lv_chart.c ****  * @param return value of the margin
 700:..\..\..\lvgl\version_6.1.2\lvgl\src\lv_objx/lv_chart.c ****  */
 701:..\..\..\lvgl\version_6.1.2\lvgl\src\lv_objx/lv_chart.c **** uint16_t lv_chart_get_margin(lv_obj_t * chart)
 702:..\..\..\lvgl\version_6.1.2\lvgl\src\lv_objx/lv_chart.c **** {
 703:..\..\..\lvgl\version_6.1.2\lvgl\src\lv_objx/lv_chart.c ****     LV_ASSERT_OBJ(chart, LV_OBJX_NAME);
 704:..\..\..\lvgl\version_6.1.2\lvgl\src\lv_objx/lv_chart.c **** 
 705:..\..\..\lvgl\version_6.1.2\lvgl\src\lv_objx/lv_chart.c ****     lv_chart_ext_t * ext = lv_obj_get_ext_attr(chart);
 706:..\..\..\lvgl\version_6.1.2\lvgl\src\lv_objx/lv_chart.c ****     return ext->margin;
 707:..\..\..\lvgl\version_6.1.2\lvgl\src\lv_objx/lv_chart.c **** }
 708:..\..\..\lvgl\version_6.1.2\lvgl\src\lv_objx/lv_chart.c **** 
 709:..\..\..\lvgl\version_6.1.2\lvgl\src\lv_objx/lv_chart.c **** /**********************
 710:..\..\..\lvgl\version_6.1.2\lvgl\src\lv_objx/lv_chart.c ****  *   STATIC FUNCTIONS
 711:..\..\..\lvgl\version_6.1.2\lvgl\src\lv_objx/lv_chart.c ****  **********************/
 712:..\..\..\lvgl\version_6.1.2\lvgl\src\lv_objx/lv_chart.c **** 
 713:..\..\..\lvgl\version_6.1.2\lvgl\src\lv_objx/lv_chart.c **** /**
 714:..\..\..\lvgl\version_6.1.2\lvgl\src\lv_objx/lv_chart.c ****  * Handle the drawing related tasks of the chart backgrounds
ARM GAS  C:\Users\pearlstl\AppData\Local\Temp\ccRrtFoa.s 			page 14


 715:..\..\..\lvgl\version_6.1.2\lvgl\src\lv_objx/lv_chart.c ****  * @param chart pointer to an object
 716:..\..\..\lvgl\version_6.1.2\lvgl\src\lv_objx/lv_chart.c ****  * @param mask the object will be drawn only in this area
 717:..\..\..\lvgl\version_6.1.2\lvgl\src\lv_objx/lv_chart.c ****  * @param mode LV_DESIGN_COVER_CHK: only check if the object fully covers the 'mask_p' area
 718:..\..\..\lvgl\version_6.1.2\lvgl\src\lv_objx/lv_chart.c ****  *                                  (return 'true' if yes)
 719:..\..\..\lvgl\version_6.1.2\lvgl\src\lv_objx/lv_chart.c ****  *             LV_DESIGN_DRAW: draw the object (always return 'true')
 720:..\..\..\lvgl\version_6.1.2\lvgl\src\lv_objx/lv_chart.c ****  *             LV_DESIGN_DRAW_POST: drawing after every children are drawn
 721:..\..\..\lvgl\version_6.1.2\lvgl\src\lv_objx/lv_chart.c ****  * @param return true/false, depends on 'mode'
 722:..\..\..\lvgl\version_6.1.2\lvgl\src\lv_objx/lv_chart.c ****  */
 723:..\..\..\lvgl\version_6.1.2\lvgl\src\lv_objx/lv_chart.c **** static bool lv_chart_design(lv_obj_t * chart, const lv_area_t * mask, lv_design_mode_t mode)
 724:..\..\..\lvgl\version_6.1.2\lvgl\src\lv_objx/lv_chart.c **** {
 725:..\..\..\lvgl\version_6.1.2\lvgl\src\lv_objx/lv_chart.c ****     if(mode == LV_DESIGN_COVER_CHK) {
 726:..\..\..\lvgl\version_6.1.2\lvgl\src\lv_objx/lv_chart.c ****         /*Return false if the object is not covers the mask_p area*/
 727:..\..\..\lvgl\version_6.1.2\lvgl\src\lv_objx/lv_chart.c ****         return ancestor_design_f(chart, mask, mode);
 728:..\..\..\lvgl\version_6.1.2\lvgl\src\lv_objx/lv_chart.c ****     } else if(mode == LV_DESIGN_DRAW_MAIN) {
 729:..\..\..\lvgl\version_6.1.2\lvgl\src\lv_objx/lv_chart.c ****         /*Draw the background*/
 730:..\..\..\lvgl\version_6.1.2\lvgl\src\lv_objx/lv_chart.c ****         lv_draw_rect(&chart->coords, mask, lv_obj_get_style(chart), lv_obj_get_opa_scale(chart));
 731:..\..\..\lvgl\version_6.1.2\lvgl\src\lv_objx/lv_chart.c **** 
 732:..\..\..\lvgl\version_6.1.2\lvgl\src\lv_objx/lv_chart.c ****         lv_chart_ext_t * ext = lv_obj_get_ext_attr(chart);
 733:..\..\..\lvgl\version_6.1.2\lvgl\src\lv_objx/lv_chart.c **** 
 734:..\..\..\lvgl\version_6.1.2\lvgl\src\lv_objx/lv_chart.c ****         lv_chart_draw_div(chart, mask);
 735:..\..\..\lvgl\version_6.1.2\lvgl\src\lv_objx/lv_chart.c **** 
 736:..\..\..\lvgl\version_6.1.2\lvgl\src\lv_objx/lv_chart.c ****         /* Adjust the mask to remove the margin (clips chart contents to be within background) */
 737:..\..\..\lvgl\version_6.1.2\lvgl\src\lv_objx/lv_chart.c **** 
 738:..\..\..\lvgl\version_6.1.2\lvgl\src\lv_objx/lv_chart.c ****         lv_area_t mask_tmp, adjusted_mask;
 739:..\..\..\lvgl\version_6.1.2\lvgl\src\lv_objx/lv_chart.c ****         lv_obj_get_coords(chart, &mask_tmp);
 740:..\..\..\lvgl\version_6.1.2\lvgl\src\lv_objx/lv_chart.c **** 
 741:..\..\..\lvgl\version_6.1.2\lvgl\src\lv_objx/lv_chart.c ****         bool union_ok = lv_area_intersect(&adjusted_mask, mask, &mask_tmp);
 742:..\..\..\lvgl\version_6.1.2\lvgl\src\lv_objx/lv_chart.c **** 
 743:..\..\..\lvgl\version_6.1.2\lvgl\src\lv_objx/lv_chart.c ****         if(union_ok) {
 744:..\..\..\lvgl\version_6.1.2\lvgl\src\lv_objx/lv_chart.c ****                 if(ext->type & LV_CHART_TYPE_LINE) lv_chart_draw_lines(chart, &adjusted_mask);
 745:..\..\..\lvgl\version_6.1.2\lvgl\src\lv_objx/lv_chart.c ****                 if(ext->type & LV_CHART_TYPE_COLUMN) lv_chart_draw_cols(chart, &adjusted_mask);
 746:..\..\..\lvgl\version_6.1.2\lvgl\src\lv_objx/lv_chart.c ****                 if(ext->type & LV_CHART_TYPE_POINT) lv_chart_draw_points(chart, &adjusted_mask);
 747:..\..\..\lvgl\version_6.1.2\lvgl\src\lv_objx/lv_chart.c ****                 if(ext->type & LV_CHART_TYPE_VERTICAL_LINE) lv_chart_draw_vertical_lines(chart, &ad
 748:..\..\..\lvgl\version_6.1.2\lvgl\src\lv_objx/lv_chart.c ****                 if(ext->type & LV_CHART_TYPE_AREA) lv_chart_draw_areas(chart, &adjusted_mask);
 749:..\..\..\lvgl\version_6.1.2\lvgl\src\lv_objx/lv_chart.c ****         }
 750:..\..\..\lvgl\version_6.1.2\lvgl\src\lv_objx/lv_chart.c **** 
 751:..\..\..\lvgl\version_6.1.2\lvgl\src\lv_objx/lv_chart.c ****         lv_chart_draw_axes(chart, mask);
 752:..\..\..\lvgl\version_6.1.2\lvgl\src\lv_objx/lv_chart.c ****     }
 753:..\..\..\lvgl\version_6.1.2\lvgl\src\lv_objx/lv_chart.c ****     return true;
 754:..\..\..\lvgl\version_6.1.2\lvgl\src\lv_objx/lv_chart.c **** }
 755:..\..\..\lvgl\version_6.1.2\lvgl\src\lv_objx/lv_chart.c **** 
 756:..\..\..\lvgl\version_6.1.2\lvgl\src\lv_objx/lv_chart.c **** /**
 757:..\..\..\lvgl\version_6.1.2\lvgl\src\lv_objx/lv_chart.c ****  * Signal function of the chart background
 758:..\..\..\lvgl\version_6.1.2\lvgl\src\lv_objx/lv_chart.c ****  * @param chart pointer to a chart background object
 759:..\..\..\lvgl\version_6.1.2\lvgl\src\lv_objx/lv_chart.c ****  * @param sign a signal type from lv_signal_t enum
 760:..\..\..\lvgl\version_6.1.2\lvgl\src\lv_objx/lv_chart.c ****  * @param param pointer to a signal specific variable
 761:..\..\..\lvgl\version_6.1.2\lvgl\src\lv_objx/lv_chart.c ****  */
 762:..\..\..\lvgl\version_6.1.2\lvgl\src\lv_objx/lv_chart.c **** static lv_res_t lv_chart_signal(lv_obj_t * chart, lv_signal_t sign, void * param)
 763:..\..\..\lvgl\version_6.1.2\lvgl\src\lv_objx/lv_chart.c **** {
 764:..\..\..\lvgl\version_6.1.2\lvgl\src\lv_objx/lv_chart.c ****     /* Include the ancient signal function */
 765:..\..\..\lvgl\version_6.1.2\lvgl\src\lv_objx/lv_chart.c ****     lv_res_t res;
 766:..\..\..\lvgl\version_6.1.2\lvgl\src\lv_objx/lv_chart.c ****     res = ancestor_signal(chart, sign, param);
 767:..\..\..\lvgl\version_6.1.2\lvgl\src\lv_objx/lv_chart.c ****     if(res != LV_RES_OK) return res;
 768:..\..\..\lvgl\version_6.1.2\lvgl\src\lv_objx/lv_chart.c ****     if(sign == LV_SIGNAL_GET_TYPE) return lv_obj_handle_get_type_signal(param, LV_OBJX_NAME);
 769:..\..\..\lvgl\version_6.1.2\lvgl\src\lv_objx/lv_chart.c **** 
 770:..\..\..\lvgl\version_6.1.2\lvgl\src\lv_objx/lv_chart.c ****     lv_chart_ext_t * ext = lv_obj_get_ext_attr(chart);
 771:..\..\..\lvgl\version_6.1.2\lvgl\src\lv_objx/lv_chart.c **** 
ARM GAS  C:\Users\pearlstl\AppData\Local\Temp\ccRrtFoa.s 			page 15


 772:..\..\..\lvgl\version_6.1.2\lvgl\src\lv_objx/lv_chart.c ****     if(sign == LV_SIGNAL_CLEANUP) {
 773:..\..\..\lvgl\version_6.1.2\lvgl\src\lv_objx/lv_chart.c ****         lv_coord_t ** datal;
 774:..\..\..\lvgl\version_6.1.2\lvgl\src\lv_objx/lv_chart.c ****         LV_LL_READ(ext->series_ll, datal)
 775:..\..\..\lvgl\version_6.1.2\lvgl\src\lv_objx/lv_chart.c ****         {
 776:..\..\..\lvgl\version_6.1.2\lvgl\src\lv_objx/lv_chart.c ****             lv_mem_free(*datal);
 777:..\..\..\lvgl\version_6.1.2\lvgl\src\lv_objx/lv_chart.c ****         }
 778:..\..\..\lvgl\version_6.1.2\lvgl\src\lv_objx/lv_chart.c ****         lv_ll_clear(&ext->series_ll);
 779:..\..\..\lvgl\version_6.1.2\lvgl\src\lv_objx/lv_chart.c ****     } else if(sign == LV_SIGNAL_REFR_EXT_DRAW_PAD) {
 780:..\..\..\lvgl\version_6.1.2\lvgl\src\lv_objx/lv_chart.c ****         /*Provide extra px draw area around the chart*/
 781:..\..\..\lvgl\version_6.1.2\lvgl\src\lv_objx/lv_chart.c ****         chart->ext_draw_pad = ext->margin;
 782:..\..\..\lvgl\version_6.1.2\lvgl\src\lv_objx/lv_chart.c ****     }
 783:..\..\..\lvgl\version_6.1.2\lvgl\src\lv_objx/lv_chart.c **** 
 784:..\..\..\lvgl\version_6.1.2\lvgl\src\lv_objx/lv_chart.c ****     return res;
 785:..\..\..\lvgl\version_6.1.2\lvgl\src\lv_objx/lv_chart.c **** }
 786:..\..\..\lvgl\version_6.1.2\lvgl\src\lv_objx/lv_chart.c **** 
 787:..\..\..\lvgl\version_6.1.2\lvgl\src\lv_objx/lv_chart.c **** /**
 788:..\..\..\lvgl\version_6.1.2\lvgl\src\lv_objx/lv_chart.c ****  * Draw the division lines on chart background
 789:..\..\..\lvgl\version_6.1.2\lvgl\src\lv_objx/lv_chart.c ****  * @param chart pointer to chart object
 790:..\..\..\lvgl\version_6.1.2\lvgl\src\lv_objx/lv_chart.c ****  * @param mask mask, inherited from the design function
 791:..\..\..\lvgl\version_6.1.2\lvgl\src\lv_objx/lv_chart.c ****  */
 792:..\..\..\lvgl\version_6.1.2\lvgl\src\lv_objx/lv_chart.c **** static void lv_chart_draw_div(lv_obj_t * chart, const lv_area_t * mask)
 793:..\..\..\lvgl\version_6.1.2\lvgl\src\lv_objx/lv_chart.c **** {
 794:..\..\..\lvgl\version_6.1.2\lvgl\src\lv_objx/lv_chart.c ****     lv_chart_ext_t * ext     = lv_obj_get_ext_attr(chart);
 795:..\..\..\lvgl\version_6.1.2\lvgl\src\lv_objx/lv_chart.c ****     const lv_style_t * style = lv_obj_get_style(chart);
 796:..\..\..\lvgl\version_6.1.2\lvgl\src\lv_objx/lv_chart.c ****     lv_opa_t opa_scale       = lv_obj_get_opa_scale(chart);
 797:..\..\..\lvgl\version_6.1.2\lvgl\src\lv_objx/lv_chart.c **** 
 798:..\..\..\lvgl\version_6.1.2\lvgl\src\lv_objx/lv_chart.c ****     uint8_t div_i;
 799:..\..\..\lvgl\version_6.1.2\lvgl\src\lv_objx/lv_chart.c ****     uint8_t div_i_end;
 800:..\..\..\lvgl\version_6.1.2\lvgl\src\lv_objx/lv_chart.c ****     uint8_t div_i_start;
 801:..\..\..\lvgl\version_6.1.2\lvgl\src\lv_objx/lv_chart.c ****     lv_point_t p1;
 802:..\..\..\lvgl\version_6.1.2\lvgl\src\lv_objx/lv_chart.c ****     lv_point_t p2;
 803:..\..\..\lvgl\version_6.1.2\lvgl\src\lv_objx/lv_chart.c ****     lv_coord_t w     = lv_obj_get_width(chart);
 804:..\..\..\lvgl\version_6.1.2\lvgl\src\lv_objx/lv_chart.c ****     lv_coord_t h     = lv_obj_get_height(chart);
 805:..\..\..\lvgl\version_6.1.2\lvgl\src\lv_objx/lv_chart.c ****     lv_coord_t x_ofs = chart->coords.x1;
 806:..\..\..\lvgl\version_6.1.2\lvgl\src\lv_objx/lv_chart.c ****     lv_coord_t y_ofs = chart->coords.y1;
 807:..\..\..\lvgl\version_6.1.2\lvgl\src\lv_objx/lv_chart.c **** 
 808:..\..\..\lvgl\version_6.1.2\lvgl\src\lv_objx/lv_chart.c ****     if(ext->hdiv_cnt != 0) {
 809:..\..\..\lvgl\version_6.1.2\lvgl\src\lv_objx/lv_chart.c ****         /*Draw side lines if no border*/
 810:..\..\..\lvgl\version_6.1.2\lvgl\src\lv_objx/lv_chart.c ****         if(style->body.border.width != 0) {
 811:..\..\..\lvgl\version_6.1.2\lvgl\src\lv_objx/lv_chart.c ****             div_i_start = 1;
 812:..\..\..\lvgl\version_6.1.2\lvgl\src\lv_objx/lv_chart.c ****             div_i_end   = ext->hdiv_cnt;
 813:..\..\..\lvgl\version_6.1.2\lvgl\src\lv_objx/lv_chart.c ****         } else {
 814:..\..\..\lvgl\version_6.1.2\lvgl\src\lv_objx/lv_chart.c ****             div_i_start = 0;
 815:..\..\..\lvgl\version_6.1.2\lvgl\src\lv_objx/lv_chart.c ****             div_i_end   = ext->hdiv_cnt + 1;
 816:..\..\..\lvgl\version_6.1.2\lvgl\src\lv_objx/lv_chart.c ****         }
 817:..\..\..\lvgl\version_6.1.2\lvgl\src\lv_objx/lv_chart.c **** 
 818:..\..\..\lvgl\version_6.1.2\lvgl\src\lv_objx/lv_chart.c ****         p1.x = 0 + x_ofs;
 819:..\..\..\lvgl\version_6.1.2\lvgl\src\lv_objx/lv_chart.c ****         p2.x = w - 1 + x_ofs;
 820:..\..\..\lvgl\version_6.1.2\lvgl\src\lv_objx/lv_chart.c ****         for(div_i = div_i_start; div_i <= div_i_end; div_i++) {
 821:..\..\..\lvgl\version_6.1.2\lvgl\src\lv_objx/lv_chart.c ****             p1.y = (int32_t)((int32_t)(h - style->line.width) * div_i) / (ext->hdiv_cnt + 1);
 822:..\..\..\lvgl\version_6.1.2\lvgl\src\lv_objx/lv_chart.c ****             p1.y += y_ofs;
 823:..\..\..\lvgl\version_6.1.2\lvgl\src\lv_objx/lv_chart.c ****             p2.y = p1.y;
 824:..\..\..\lvgl\version_6.1.2\lvgl\src\lv_objx/lv_chart.c ****             lv_draw_line(&p1, &p2, mask, style, opa_scale);
 825:..\..\..\lvgl\version_6.1.2\lvgl\src\lv_objx/lv_chart.c ****         }
 826:..\..\..\lvgl\version_6.1.2\lvgl\src\lv_objx/lv_chart.c ****     }
 827:..\..\..\lvgl\version_6.1.2\lvgl\src\lv_objx/lv_chart.c **** 
 828:..\..\..\lvgl\version_6.1.2\lvgl\src\lv_objx/lv_chart.c ****     if(ext->vdiv_cnt != 0) {
ARM GAS  C:\Users\pearlstl\AppData\Local\Temp\ccRrtFoa.s 			page 16


 829:..\..\..\lvgl\version_6.1.2\lvgl\src\lv_objx/lv_chart.c ****         /*Draw side lines if no border*/
 830:..\..\..\lvgl\version_6.1.2\lvgl\src\lv_objx/lv_chart.c ****         if(style->body.border.width != 0) {
 831:..\..\..\lvgl\version_6.1.2\lvgl\src\lv_objx/lv_chart.c ****             div_i_start = 1;
 832:..\..\..\lvgl\version_6.1.2\lvgl\src\lv_objx/lv_chart.c ****             div_i_end   = ext->vdiv_cnt;
 833:..\..\..\lvgl\version_6.1.2\lvgl\src\lv_objx/lv_chart.c ****         } else {
 834:..\..\..\lvgl\version_6.1.2\lvgl\src\lv_objx/lv_chart.c ****             div_i_start = 0;
 835:..\..\..\lvgl\version_6.1.2\lvgl\src\lv_objx/lv_chart.c ****             div_i_end   = ext->vdiv_cnt + 1;
 836:..\..\..\lvgl\version_6.1.2\lvgl\src\lv_objx/lv_chart.c ****         }
 837:..\..\..\lvgl\version_6.1.2\lvgl\src\lv_objx/lv_chart.c **** 
 838:..\..\..\lvgl\version_6.1.2\lvgl\src\lv_objx/lv_chart.c ****         p1.y = 0 + y_ofs;
 839:..\..\..\lvgl\version_6.1.2\lvgl\src\lv_objx/lv_chart.c ****         p2.y = h + y_ofs - 1;
 840:..\..\..\lvgl\version_6.1.2\lvgl\src\lv_objx/lv_chart.c ****         for(div_i = div_i_start; div_i <= div_i_end; div_i++) {
 841:..\..\..\lvgl\version_6.1.2\lvgl\src\lv_objx/lv_chart.c ****             p1.x = (int32_t)((int32_t)(w - style->line.width) * div_i) / (ext->vdiv_cnt + 1);
 842:..\..\..\lvgl\version_6.1.2\lvgl\src\lv_objx/lv_chart.c ****             p1.x += x_ofs;
 843:..\..\..\lvgl\version_6.1.2\lvgl\src\lv_objx/lv_chart.c ****             p2.x = p1.x;
 844:..\..\..\lvgl\version_6.1.2\lvgl\src\lv_objx/lv_chart.c ****             lv_draw_line(&p1, &p2, mask, style, opa_scale);
 845:..\..\..\lvgl\version_6.1.2\lvgl\src\lv_objx/lv_chart.c ****         }
 846:..\..\..\lvgl\version_6.1.2\lvgl\src\lv_objx/lv_chart.c ****     }
 847:..\..\..\lvgl\version_6.1.2\lvgl\src\lv_objx/lv_chart.c **** }
 848:..\..\..\lvgl\version_6.1.2\lvgl\src\lv_objx/lv_chart.c **** 
 849:..\..\..\lvgl\version_6.1.2\lvgl\src\lv_objx/lv_chart.c **** /**
 850:..\..\..\lvgl\version_6.1.2\lvgl\src\lv_objx/lv_chart.c ****  * Draw the data lines as lines on a chart
 851:..\..\..\lvgl\version_6.1.2\lvgl\src\lv_objx/lv_chart.c ****  * @param obj pointer to chart object
 852:..\..\..\lvgl\version_6.1.2\lvgl\src\lv_objx/lv_chart.c ****  */
 853:..\..\..\lvgl\version_6.1.2\lvgl\src\lv_objx/lv_chart.c **** static void lv_chart_draw_lines(lv_obj_t * chart, const lv_area_t * mask)
 854:..\..\..\lvgl\version_6.1.2\lvgl\src\lv_objx/lv_chart.c **** {
  28              		.loc 1 854 0
  29              		.cfi_startproc
  30              		@ args = 0, pretend = 0, frame = 120
  31              		@ frame_needed = 0, uses_anonymous_args = 0
  32              	.LVL0:
  33 0000 2DE9F04F 		push	{r4, r5, r6, r7, r8, r9, r10, fp, lr}
  34              		.cfi_def_cfa_offset 36
  35              		.cfi_offset 4, -36
  36              		.cfi_offset 5, -32
  37              		.cfi_offset 6, -28
  38              		.cfi_offset 7, -24
  39              		.cfi_offset 8, -20
  40              		.cfi_offset 9, -16
  41              		.cfi_offset 10, -12
  42              		.cfi_offset 11, -8
  43              		.cfi_offset 14, -4
  44 0004 A1B0     		sub	sp, sp, #132
  45              		.cfi_def_cfa_offset 168
  46              		.loc 1 854 0
  47 0006 0446     		mov	r4, r0
  48 0008 0891     		str	r1, [sp, #32]
 855:..\..\..\lvgl\version_6.1.2\lvgl\src\lv_objx/lv_chart.c ****     lv_chart_ext_t * ext = lv_obj_get_ext_attr(chart);
  49              		.loc 1 855 0
  50 000a FFF7FEFF 		bl	lv_obj_get_ext_attr
  51              	.LVL1:
  52 000e 0646     		mov	r6, r0
  53              	.LVL2:
 856:..\..\..\lvgl\version_6.1.2\lvgl\src\lv_objx/lv_chart.c **** 
 857:..\..\..\lvgl\version_6.1.2\lvgl\src\lv_objx/lv_chart.c ****     uint16_t i;
 858:..\..\..\lvgl\version_6.1.2\lvgl\src\lv_objx/lv_chart.c ****     lv_point_t p1;
 859:..\..\..\lvgl\version_6.1.2\lvgl\src\lv_objx/lv_chart.c ****     lv_point_t p2;
ARM GAS  C:\Users\pearlstl\AppData\Local\Temp\ccRrtFoa.s 			page 17


 860:..\..\..\lvgl\version_6.1.2\lvgl\src\lv_objx/lv_chart.c ****     lv_coord_t w     = lv_obj_get_width(chart);
  54              		.loc 1 860 0
  55 0010 2046     		mov	r0, r4
  56              	.LVL3:
  57 0012 FFF7FEFF 		bl	lv_obj_get_width
  58              	.LVL4:
  59 0016 0690     		str	r0, [sp, #24]
  60              	.LVL5:
 861:..\..\..\lvgl\version_6.1.2\lvgl\src\lv_objx/lv_chart.c ****     lv_coord_t h     = lv_obj_get_height(chart);
  61              		.loc 1 861 0
  62 0018 2046     		mov	r0, r4
  63 001a FFF7FEFF 		bl	lv_obj_get_height
  64              	.LVL6:
 862:..\..\..\lvgl\version_6.1.2\lvgl\src\lv_objx/lv_chart.c ****     lv_coord_t x_ofs = chart->coords.x1;
  65              		.loc 1 862 0
  66 001e B4F91030 		ldrsh	r3, [r4, #16]
  67 0022 0993     		str	r3, [sp, #36]
 861:..\..\..\lvgl\version_6.1.2\lvgl\src\lv_objx/lv_chart.c ****     lv_coord_t h     = lv_obj_get_height(chart);
  68              		.loc 1 861 0
  69 0024 8146     		mov	r9, r0
  70              	.LVL7:
 863:..\..\..\lvgl\version_6.1.2\lvgl\src\lv_objx/lv_chart.c ****     lv_coord_t y_ofs = chart->coords.y1;
 864:..\..\..\lvgl\version_6.1.2\lvgl\src\lv_objx/lv_chart.c ****     int32_t y_tmp;
 865:..\..\..\lvgl\version_6.1.2\lvgl\src\lv_objx/lv_chart.c ****     lv_coord_t p_prev;
 866:..\..\..\lvgl\version_6.1.2\lvgl\src\lv_objx/lv_chart.c ****     lv_coord_t p_act;
 867:..\..\..\lvgl\version_6.1.2\lvgl\src\lv_objx/lv_chart.c ****     lv_chart_series_t * ser;
 868:..\..\..\lvgl\version_6.1.2\lvgl\src\lv_objx/lv_chart.c ****     lv_opa_t opa_scale = lv_obj_get_opa_scale(chart);
  71              		.loc 1 868 0
  72 0026 2046     		mov	r0, r4
 863:..\..\..\lvgl\version_6.1.2\lvgl\src\lv_objx/lv_chart.c ****     lv_coord_t y_ofs = chart->coords.y1;
  73              		.loc 1 863 0
  74 0028 B4F91240 		ldrsh	r4, [r4, #18]
  75              	.LVL8:
  76              		.loc 1 868 0
  77 002c FFF7FEFF 		bl	lv_obj_get_opa_scale
  78              	.LVL9:
 869:..\..\..\lvgl\version_6.1.2\lvgl\src\lv_objx/lv_chart.c ****     lv_style_t style;
 870:..\..\..\lvgl\version_6.1.2\lvgl\src\lv_objx/lv_chart.c ****     lv_style_copy(&style, &lv_style_plain);
  79              		.loc 1 870 0
  80 0030 4E49     		ldr	r1, .L16
 868:..\..\..\lvgl\version_6.1.2\lvgl\src\lv_objx/lv_chart.c ****     lv_style_t style;
  81              		.loc 1 868 0
  82 0032 0790     		str	r0, [sp, #28]
  83              	.LVL10:
  84              		.loc 1 870 0
  85 0034 0CA8     		add	r0, sp, #48
  86 0036 FFF7FEFF 		bl	lv_style_copy
  87              	.LVL11:
 871:..\..\..\lvgl\version_6.1.2\lvgl\src\lv_objx/lv_chart.c ****     style.line.opa   = ext->series.opa;
  88              		.loc 1 871 0
  89 003a 96F83730 		ldrb	r3, [r6, #55]	@ zero_extendqisi2
  90 003e 8DF87E30 		strb	r3, [sp, #126]
 872:..\..\..\lvgl\version_6.1.2\lvgl\src\lv_objx/lv_chart.c ****     style.line.width = ext->series.width;
  91              		.loc 1 872 0
  92 0042 B38E     		ldrh	r3, [r6, #52]
  93 0044 ADF87C30 		strh	r3, [sp, #124]	@ movhi
 873:..\..\..\lvgl\version_6.1.2\lvgl\src\lv_objx/lv_chart.c **** 
ARM GAS  C:\Users\pearlstl\AppData\Local\Temp\ccRrtFoa.s 			page 18


 874:..\..\..\lvgl\version_6.1.2\lvgl\src\lv_objx/lv_chart.c ****     /*Go through all data lines*/
 875:..\..\..\lvgl\version_6.1.2\lvgl\src\lv_objx/lv_chart.c ****     LV_LL_READ_BACK(ext->series_ll, ser)
  94              		.loc 1 875 0
  95 0048 3046     		mov	r0, r6
  96 004a FFF7FEFF 		bl	lv_ll_get_tail
  97              	.LVL12:
  98 004e 0028     		cmp	r0, #0
  99 0050 00F08980 		beq	.L1
 100 0054 4C44     		add	r4, r4, r9
 101              	.LVL13:
 102 0056 A3B2     		uxth	r3, r4
 103 0058 8046     		mov	r8, r0
 104 005a 0393     		str	r3, [sp, #12]
 105              	.L5:
 106              	.LBB37:
 876:..\..\..\lvgl\version_6.1.2\lvgl\src\lv_objx/lv_chart.c ****     {
 877:..\..\..\lvgl\version_6.1.2\lvgl\src\lv_objx/lv_chart.c ****         style.line.color = ser->color;
 107              		.loc 1 877 0
 108 005c D8F80430 		ldr	r3, [r8, #4]
 109 0060 1E93     		str	r3, [sp, #120]
 878:..\..\..\lvgl\version_6.1.2\lvgl\src\lv_objx/lv_chart.c **** 
 879:..\..\..\lvgl\version_6.1.2\lvgl\src\lv_objx/lv_chart.c ****         lv_coord_t start_point = ext->update_mode == LV_CHART_UPDATE_MODE_SHIFT ? ser->start_point 
 110              		.loc 1 879 0
 111 0062 96F83230 		ldrb	r3, [r6, #50]	@ zero_extendqisi2
 880:..\..\..\lvgl\version_6.1.2\lvgl\src\lv_objx/lv_chart.c **** 
 881:..\..\..\lvgl\version_6.1.2\lvgl\src\lv_objx/lv_chart.c ****         p1.x = 0 + x_ofs;
 882:..\..\..\lvgl\version_6.1.2\lvgl\src\lv_objx/lv_chart.c ****         p2.x = 0 + x_ofs;
 883:..\..\..\lvgl\version_6.1.2\lvgl\src\lv_objx/lv_chart.c **** 
 884:..\..\..\lvgl\version_6.1.2\lvgl\src\lv_objx/lv_chart.c ****         p_prev = start_point;
 885:..\..\..\lvgl\version_6.1.2\lvgl\src\lv_objx/lv_chart.c ****         y_tmp  = (int32_t)((int32_t)ser->points[p_prev] - ext->ymin) * h;
 112              		.loc 1 885 0
 113 0066 D8F800E0 		ldr	lr, [r8]
 881:..\..\..\lvgl\version_6.1.2\lvgl\src\lv_objx/lv_chart.c ****         p2.x = 0 + x_ofs;
 114              		.loc 1 881 0
 115 006a 099A     		ldr	r2, [sp, #36]
 116 006c ADF82820 		strh	r2, [sp, #40]	@ movhi
 879:..\..\..\lvgl\version_6.1.2\lvgl\src\lv_objx/lv_chart.c **** 
 117              		.loc 1 879 0
 118 0070 DB07     		lsls	r3, r3, #31
 119 0072 58BF     		it	pl
 120 0074 B8F908B0 		ldrshpl	fp, [r8, #8]
 882:..\..\..\lvgl\version_6.1.2\lvgl\src\lv_objx/lv_chart.c **** 
 121              		.loc 1 882 0
 122 0078 ADF82C20 		strh	r2, [sp, #44]	@ movhi
 123 007c 4CBF     		ite	mi
 124 007e 0023     		movmi	r3, #0
 125 0080 4FEA4B03 		lslpl	r3, fp, #1
 126              		.loc 1 885 0
 127 0084 B6F90CC0 		ldrsh	ip, [r6, #12]
 128 0088 3EF903A0 		ldrsh	r10, [lr, r3]
 886:..\..\..\lvgl\version_6.1.2\lvgl\src\lv_objx/lv_chart.c ****         y_tmp  = y_tmp / (ext->ymax - ext->ymin);
 887:..\..\..\lvgl\version_6.1.2\lvgl\src\lv_objx/lv_chart.c ****         p2.y   = h - y_tmp + y_ofs;
 129              		.loc 1 887 0
 130 008c 039A     		ldr	r2, [sp, #12]
 888:..\..\..\lvgl\version_6.1.2\lvgl\src\lv_objx/lv_chart.c **** 
 889:..\..\..\lvgl\version_6.1.2\lvgl\src\lv_objx/lv_chart.c ****         for(i = 1; i < ext->point_cnt; i++) {
 131              		.loc 1 889 0
ARM GAS  C:\Users\pearlstl\AppData\Local\Temp\ccRrtFoa.s 			page 19


 132 008e 708A     		ldrh	r0, [r6, #18]
 133              	.LVL14:
 879:..\..\..\lvgl\version_6.1.2\lvgl\src\lv_objx/lv_chart.c **** 
 134              		.loc 1 879 0
 135 0090 48BF     		it	mi
 136 0092 9B46     		movmi	fp, r3
 137              	.LVL15:
 886:..\..\..\lvgl\version_6.1.2\lvgl\src\lv_objx/lv_chart.c ****         y_tmp  = y_tmp / (ext->ymax - ext->ymin);
 138              		.loc 1 886 0
 139 0094 B6F90E30 		ldrsh	r3, [r6, #14]
 885:..\..\..\lvgl\version_6.1.2\lvgl\src\lv_objx/lv_chart.c ****         y_tmp  = y_tmp / (ext->ymax - ext->ymin);
 140              		.loc 1 885 0
 141 0098 CCEB0A0A 		rsb	r10, ip, r10
 142 009c 09FB0AFA 		mul	r10, r9, r10
 143              	.LVL16:
 887:..\..\..\lvgl\version_6.1.2\lvgl\src\lv_objx/lv_chart.c **** 
 144              		.loc 1 887 0
 145 00a0 CCEB0303 		rsb	r3, ip, r3
 146              	.LVL17:
 147 00a4 9AFBF3FA 		sdiv	r10, r10, r3
 148              	.LVL18:
 149 00a8 CAEB020A 		rsb	r10, r10, r2
 150 00ac 0FFA8AFA 		sxth	r10, r10
 151              		.loc 1 889 0
 152 00b0 0128     		cmp	r0, #1
 887:..\..\..\lvgl\version_6.1.2\lvgl\src\lv_objx/lv_chart.c **** 
 153              		.loc 1 887 0
 154 00b2 ADF82EA0 		strh	r10, [sp, #46]	@ movhi
 155              	.LVL19:
 156              		.loc 1 889 0
 157 00b6 4ED9     		bls	.L8
 158 00b8 099A     		ldr	r2, [sp, #36]
 159 00ba CDF814B0 		str	fp, [sp, #20]
 160 00be 91B2     		uxth	r1, r2
 161 00c0 0491     		str	r1, [sp, #16]
 162 00c2 0125     		movs	r5, #1
 890:..\..\..\lvgl\version_6.1.2\lvgl\src\lv_objx/lv_chart.c ****             p1.x = p2.x;
 891:..\..\..\lvgl\version_6.1.2\lvgl\src\lv_objx/lv_chart.c ****             p1.y = p2.y;
 892:..\..\..\lvgl\version_6.1.2\lvgl\src\lv_objx/lv_chart.c **** 
 893:..\..\..\lvgl\version_6.1.2\lvgl\src\lv_objx/lv_chart.c ****             p2.x = ((w * i) / (ext->point_cnt - 1)) + x_ofs;
 894:..\..\..\lvgl\version_6.1.2\lvgl\src\lv_objx/lv_chart.c **** 
 895:..\..\..\lvgl\version_6.1.2\lvgl\src\lv_objx/lv_chart.c ****             p_act = (start_point + i) % ext->point_cnt;
 896:..\..\..\lvgl\version_6.1.2\lvgl\src\lv_objx/lv_chart.c **** 
 897:..\..\..\lvgl\version_6.1.2\lvgl\src\lv_objx/lv_chart.c ****             y_tmp = (int32_t)((int32_t)ser->points[p_act] - ext->ymin) * h;
 898:..\..\..\lvgl\version_6.1.2\lvgl\src\lv_objx/lv_chart.c ****             y_tmp = y_tmp / (ext->ymax - ext->ymin);
 899:..\..\..\lvgl\version_6.1.2\lvgl\src\lv_objx/lv_chart.c ****             p2.y  = h - y_tmp + y_ofs;
 900:..\..\..\lvgl\version_6.1.2\lvgl\src\lv_objx/lv_chart.c **** 
 901:..\..\..\lvgl\version_6.1.2\lvgl\src\lv_objx/lv_chart.c ****             if(ser->points[p_prev] != LV_CHART_POINT_DEF && ser->points[p_act] != LV_CHART_POINT_DE
 902:..\..\..\lvgl\version_6.1.2\lvgl\src\lv_objx/lv_chart.c ****                 lv_draw_line(&p1, &p2, mask, &style, opa_scale);
 163              		.loc 1 902 0
 164 00c4 7146     		mov	r1, lr
 165 00c6 9646     		mov	lr, r2
 166 00c8 5A46     		mov	r2, fp
 167 00ca 0DE0     		b	.L9
 168              	.LVL20:
 169              	.L15:
 170 00cc B6F90CC0 		ldrsh	ip, [r6, #12]
ARM GAS  C:\Users\pearlstl\AppData\Local\Temp\ccRrtFoa.s 			page 20


 171 00d0 B6F90E30 		ldrsh	r3, [r6, #14]
 172 00d4 BDF92CE0 		ldrsh	lr, [sp, #44]
 173 00d8 BDF92EA0 		ldrsh	r10, [sp, #46]
 174 00dc D8F80010 		ldr	r1, [r8]
 175 00e0 059A     		ldr	r2, [sp, #20]
 903:..\..\..\lvgl\version_6.1.2\lvgl\src\lv_objx/lv_chart.c **** 
 904:..\..\..\lvgl\version_6.1.2\lvgl\src\lv_objx/lv_chart.c ****             p_prev = p_act;
 176              		.loc 1 904 0
 177 00e2 A346     		mov	fp, r4
 178 00e4 CCEB0303 		rsb	r3, ip, r3
 179              	.LVL21:
 180              	.L9:
 895:..\..\..\lvgl\version_6.1.2\lvgl\src\lv_objx/lv_chart.c **** 
 181              		.loc 1 895 0
 182 00e8 AC18     		adds	r4, r5, r2
 893:..\..\..\lvgl\version_6.1.2\lvgl\src\lv_objx/lv_chart.c **** 
 183              		.loc 1 893 0
 184 00ea 049F     		ldr	r7, [sp, #16]
 895:..\..\..\lvgl\version_6.1.2\lvgl\src\lv_objx/lv_chart.c **** 
 185              		.loc 1 895 0
 186 00ec 94FBF0F2 		sdiv	r2, r4, r0
 187 00f0 00FB1244 		mls	r4, r0, r2, r4
 893:..\..\..\lvgl\version_6.1.2\lvgl\src\lv_objx/lv_chart.c **** 
 188              		.loc 1 893 0
 189 00f4 069A     		ldr	r2, [sp, #24]
 890:..\..\..\lvgl\version_6.1.2\lvgl\src\lv_objx/lv_chart.c ****             p1.y = p2.y;
 190              		.loc 1 890 0
 191 00f6 ADF828E0 		strh	lr, [sp, #40]	@ movhi
 895:..\..\..\lvgl\version_6.1.2\lvgl\src\lv_objx/lv_chart.c **** 
 192              		.loc 1 895 0
 193 00fa 24B2     		sxth	r4, r4
 194              	.LVL22:
 893:..\..\..\lvgl\version_6.1.2\lvgl\src\lv_objx/lv_chart.c **** 
 195              		.loc 1 893 0
 196 00fc 02FB05F2 		mul	r2, r2, r5
 197 0100 00F1FF3E 		add	lr, r0, #-1
 198 0104 92FBFEF2 		sdiv	r2, r2, lr
 199 0108 3A44     		add	r2, r2, r7
 891:..\..\..\lvgl\version_6.1.2\lvgl\src\lv_objx/lv_chart.c **** 
 200              		.loc 1 891 0
 201 010a ADF82AA0 		strh	r10, [sp, #42]	@ movhi
 893:..\..\..\lvgl\version_6.1.2\lvgl\src\lv_objx/lv_chart.c **** 
 202              		.loc 1 893 0
 203 010e ADF82C20 		strh	r2, [sp, #44]	@ movhi
 897:..\..\..\lvgl\version_6.1.2\lvgl\src\lv_objx/lv_chart.c ****             y_tmp = y_tmp / (ext->ymax - ext->ymin);
 204              		.loc 1 897 0
 205 0112 31F91420 		ldrsh	r2, [r1, r4, lsl #1]
 206 0116 CCEB020C 		rsb	ip, ip, r2
 899:..\..\..\lvgl\version_6.1.2\lvgl\src\lv_objx/lv_chart.c **** 
 207              		.loc 1 899 0
 208 011a 039A     		ldr	r2, [sp, #12]
 897:..\..\..\lvgl\version_6.1.2\lvgl\src\lv_objx/lv_chart.c ****             y_tmp = y_tmp / (ext->ymax - ext->ymin);
 209              		.loc 1 897 0
 210 011c 09FB0CFC 		mul	ip, r9, ip
 899:..\..\..\lvgl\version_6.1.2\lvgl\src\lv_objx/lv_chart.c **** 
 211              		.loc 1 899 0
 212 0120 9CFBF3F3 		sdiv	r3, ip, r3
ARM GAS  C:\Users\pearlstl\AppData\Local\Temp\ccRrtFoa.s 			page 21


 213 0124 D31A     		subs	r3, r2, r3
 214 0126 ADF82E30 		strh	r3, [sp, #46]	@ movhi
 901:..\..\..\lvgl\version_6.1.2\lvgl\src\lv_objx/lv_chart.c ****                 lv_draw_line(&p1, &p2, mask, &style, opa_scale);
 215              		.loc 1 901 0
 216 012a 31F91B30 		ldrsh	r3, [r1, fp, lsl #1]
 217 012e 104A     		ldr	r2, .L16+4
 218 0130 9342     		cmp	r3, r2
 219 0132 0CD0     		beq	.L7
 901:..\..\..\lvgl\version_6.1.2\lvgl\src\lv_objx/lv_chart.c ****                 lv_draw_line(&p1, &p2, mask, &style, opa_scale);
 220              		.loc 1 901 0 is_stmt 0 discriminator 1
 221 0134 31F91430 		ldrsh	r3, [r1, r4, lsl #1]
 222 0138 9342     		cmp	r3, r2
 223 013a 08D0     		beq	.L7
 902:..\..\..\lvgl\version_6.1.2\lvgl\src\lv_objx/lv_chart.c **** 
 224              		.loc 1 902 0 is_stmt 1
 225 013c 079B     		ldr	r3, [sp, #28]
 226 013e 0093     		str	r3, [sp]
 227 0140 0AA8     		add	r0, sp, #40
 228 0142 0CAB     		add	r3, sp, #48
 229 0144 089A     		ldr	r2, [sp, #32]
 230 0146 0BA9     		add	r1, sp, #44
 231 0148 FFF7FEFF 		bl	lv_draw_line
 232              	.LVL23:
 233 014c 708A     		ldrh	r0, [r6, #18]
 234              	.L7:
 235              	.LVL24:
 889:..\..\..\lvgl\version_6.1.2\lvgl\src\lv_objx/lv_chart.c ****             p1.x = p2.x;
 236              		.loc 1 889 0 discriminator 2
 237 014e 0135     		adds	r5, r5, #1
 238              	.LVL25:
 239 0150 ADB2     		uxth	r5, r5
 240              	.LVL26:
 241 0152 8542     		cmp	r5, r0
 242 0154 BAD3     		bcc	.L15
 243              	.LVL27:
 244              	.L8:
 245              	.LBE37:
 875:..\..\..\lvgl\version_6.1.2\lvgl\src\lv_objx/lv_chart.c ****     {
 246              		.loc 1 875 0
 247 0156 4146     		mov	r1, r8
 248 0158 3046     		mov	r0, r6
 249 015a FFF7FEFF 		bl	lv_ll_get_prev
 250              	.LVL28:
 251 015e 8046     		mov	r8, r0
 252 0160 0028     		cmp	r0, #0
 253 0162 7FF47BAF 		bne	.L5
 254              	.L1:
 905:..\..\..\lvgl\version_6.1.2\lvgl\src\lv_objx/lv_chart.c ****         }
 906:..\..\..\lvgl\version_6.1.2\lvgl\src\lv_objx/lv_chart.c ****     }
 907:..\..\..\lvgl\version_6.1.2\lvgl\src\lv_objx/lv_chart.c **** }
 255              		.loc 1 907 0
 256 0166 21B0     		add	sp, sp, #132
 257              		.cfi_def_cfa_offset 36
 258              		@ sp needed
 259 0168 BDE8F08F 		pop	{r4, r5, r6, r7, r8, r9, r10, fp, pc}
 260              	.LVL29:
 261              	.L17:
ARM GAS  C:\Users\pearlstl\AppData\Local\Temp\ccRrtFoa.s 			page 22


 262              		.align	2
 263              	.L16:
 264 016c 00000000 		.word	lv_style_plain
 265 0170 E883FFFF 		.word	-31768
 266              		.cfi_endproc
 267              	.LFE66:
 268              		.size	lv_chart_draw_lines, .-lv_chart_draw_lines
 269              		.section	.text.lv_chart_get_next_label,"ax",%progbits
 270              		.align	2
 271              		.thumb
 272              		.thumb_func
 273              		.type	lv_chart_get_next_label, %function
 274              	lv_chart_get_next_label:
 275              	.LFB72:
 908:..\..\..\lvgl\version_6.1.2\lvgl\src\lv_objx/lv_chart.c **** 
 909:..\..\..\lvgl\version_6.1.2\lvgl\src\lv_objx/lv_chart.c **** /**
 910:..\..\..\lvgl\version_6.1.2\lvgl\src\lv_objx/lv_chart.c ****  * Draw the data lines as points on a chart
 911:..\..\..\lvgl\version_6.1.2\lvgl\src\lv_objx/lv_chart.c ****  * @param chart pointer to chart object
 912:..\..\..\lvgl\version_6.1.2\lvgl\src\lv_objx/lv_chart.c ****  * @param mask mask, inherited from the design function
 913:..\..\..\lvgl\version_6.1.2\lvgl\src\lv_objx/lv_chart.c ****  */
 914:..\..\..\lvgl\version_6.1.2\lvgl\src\lv_objx/lv_chart.c **** static void lv_chart_draw_points(lv_obj_t * chart, const lv_area_t * mask)
 915:..\..\..\lvgl\version_6.1.2\lvgl\src\lv_objx/lv_chart.c **** {
 916:..\..\..\lvgl\version_6.1.2\lvgl\src\lv_objx/lv_chart.c ****     lv_chart_ext_t * ext = lv_obj_get_ext_attr(chart);
 917:..\..\..\lvgl\version_6.1.2\lvgl\src\lv_objx/lv_chart.c **** 
 918:..\..\..\lvgl\version_6.1.2\lvgl\src\lv_objx/lv_chart.c ****     uint16_t i;
 919:..\..\..\lvgl\version_6.1.2\lvgl\src\lv_objx/lv_chart.c ****     lv_area_t cir_a;
 920:..\..\..\lvgl\version_6.1.2\lvgl\src\lv_objx/lv_chart.c ****     lv_coord_t w     = lv_obj_get_width(chart);
 921:..\..\..\lvgl\version_6.1.2\lvgl\src\lv_objx/lv_chart.c ****     lv_coord_t h     = lv_obj_get_height(chart);
 922:..\..\..\lvgl\version_6.1.2\lvgl\src\lv_objx/lv_chart.c ****     lv_coord_t x_ofs = chart->coords.x1;
 923:..\..\..\lvgl\version_6.1.2\lvgl\src\lv_objx/lv_chart.c ****     lv_coord_t y_ofs = chart->coords.y1;
 924:..\..\..\lvgl\version_6.1.2\lvgl\src\lv_objx/lv_chart.c ****     int32_t y_tmp;
 925:..\..\..\lvgl\version_6.1.2\lvgl\src\lv_objx/lv_chart.c ****     lv_coord_t p_act;
 926:..\..\..\lvgl\version_6.1.2\lvgl\src\lv_objx/lv_chart.c ****     lv_chart_series_t * ser;
 927:..\..\..\lvgl\version_6.1.2\lvgl\src\lv_objx/lv_chart.c ****     uint8_t series_cnt = 0;
 928:..\..\..\lvgl\version_6.1.2\lvgl\src\lv_objx/lv_chart.c ****     lv_style_t style_point;
 929:..\..\..\lvgl\version_6.1.2\lvgl\src\lv_objx/lv_chart.c ****     lv_style_copy(&style_point, &lv_style_plain);
 930:..\..\..\lvgl\version_6.1.2\lvgl\src\lv_objx/lv_chart.c **** 
 931:..\..\..\lvgl\version_6.1.2\lvgl\src\lv_objx/lv_chart.c ****     style_point.body.border.width = 0;
 932:..\..\..\lvgl\version_6.1.2\lvgl\src\lv_objx/lv_chart.c ****     style_point.body.radius       = LV_RADIUS_CIRCLE;
 933:..\..\..\lvgl\version_6.1.2\lvgl\src\lv_objx/lv_chart.c ****     style_point.body.opa          = ext->series.opa;
 934:..\..\..\lvgl\version_6.1.2\lvgl\src\lv_objx/lv_chart.c ****     style_point.body.radius       = ext->series.width;
 935:..\..\..\lvgl\version_6.1.2\lvgl\src\lv_objx/lv_chart.c **** 
 936:..\..\..\lvgl\version_6.1.2\lvgl\src\lv_objx/lv_chart.c ****     /*Go through all data lines*/
 937:..\..\..\lvgl\version_6.1.2\lvgl\src\lv_objx/lv_chart.c **** 
 938:..\..\..\lvgl\version_6.1.2\lvgl\src\lv_objx/lv_chart.c ****     LV_LL_READ_BACK(ext->series_ll, ser)
 939:..\..\..\lvgl\version_6.1.2\lvgl\src\lv_objx/lv_chart.c ****     {
 940:..\..\..\lvgl\version_6.1.2\lvgl\src\lv_objx/lv_chart.c ****         lv_coord_t start_point = ext->update_mode == LV_CHART_UPDATE_MODE_SHIFT ? ser->start_point 
 941:..\..\..\lvgl\version_6.1.2\lvgl\src\lv_objx/lv_chart.c **** 
 942:..\..\..\lvgl\version_6.1.2\lvgl\src\lv_objx/lv_chart.c ****         style_point.body.main_color = ser->color;
 943:..\..\..\lvgl\version_6.1.2\lvgl\src\lv_objx/lv_chart.c ****         style_point.body.grad_color = lv_color_mix(LV_COLOR_BLACK, ser->color, ext->series.dark);
 944:..\..\..\lvgl\version_6.1.2\lvgl\src\lv_objx/lv_chart.c **** 
 945:..\..\..\lvgl\version_6.1.2\lvgl\src\lv_objx/lv_chart.c ****         for(i = 0; i < ext->point_cnt; i++) {
 946:..\..\..\lvgl\version_6.1.2\lvgl\src\lv_objx/lv_chart.c ****             cir_a.x1 = ((w * i) / (ext->point_cnt - 1)) + x_ofs;
 947:..\..\..\lvgl\version_6.1.2\lvgl\src\lv_objx/lv_chart.c ****             cir_a.x2 = cir_a.x1 + style_point.body.radius;
 948:..\..\..\lvgl\version_6.1.2\lvgl\src\lv_objx/lv_chart.c ****             cir_a.x1 -= style_point.body.radius;
 949:..\..\..\lvgl\version_6.1.2\lvgl\src\lv_objx/lv_chart.c **** 
 950:..\..\..\lvgl\version_6.1.2\lvgl\src\lv_objx/lv_chart.c ****             p_act = (start_point + i) % ext->point_cnt;
ARM GAS  C:\Users\pearlstl\AppData\Local\Temp\ccRrtFoa.s 			page 23


 951:..\..\..\lvgl\version_6.1.2\lvgl\src\lv_objx/lv_chart.c ****             y_tmp = (int32_t)((int32_t)ser->points[p_act] - ext->ymin) * h;
 952:..\..\..\lvgl\version_6.1.2\lvgl\src\lv_objx/lv_chart.c ****             y_tmp = y_tmp / (ext->ymax - ext->ymin);
 953:..\..\..\lvgl\version_6.1.2\lvgl\src\lv_objx/lv_chart.c **** 
 954:..\..\..\lvgl\version_6.1.2\lvgl\src\lv_objx/lv_chart.c ****             cir_a.y1 = h - y_tmp + y_ofs - 1;
 955:..\..\..\lvgl\version_6.1.2\lvgl\src\lv_objx/lv_chart.c ****             cir_a.y2 = cir_a.y1 + style_point.body.radius;
 956:..\..\..\lvgl\version_6.1.2\lvgl\src\lv_objx/lv_chart.c ****             cir_a.y1 -= style_point.body.radius;
 957:..\..\..\lvgl\version_6.1.2\lvgl\src\lv_objx/lv_chart.c **** 
 958:..\..\..\lvgl\version_6.1.2\lvgl\src\lv_objx/lv_chart.c ****             if(ser->points[p_act] != LV_CHART_POINT_DEF)
 959:..\..\..\lvgl\version_6.1.2\lvgl\src\lv_objx/lv_chart.c ****                 lv_draw_rect(&cir_a, mask, &style_point, lv_obj_get_opa_scale(chart));
 960:..\..\..\lvgl\version_6.1.2\lvgl\src\lv_objx/lv_chart.c ****         }
 961:..\..\..\lvgl\version_6.1.2\lvgl\src\lv_objx/lv_chart.c ****         series_cnt++;
 962:..\..\..\lvgl\version_6.1.2\lvgl\src\lv_objx/lv_chart.c ****     }
 963:..\..\..\lvgl\version_6.1.2\lvgl\src\lv_objx/lv_chart.c **** }
 964:..\..\..\lvgl\version_6.1.2\lvgl\src\lv_objx/lv_chart.c **** 
 965:..\..\..\lvgl\version_6.1.2\lvgl\src\lv_objx/lv_chart.c **** /**
 966:..\..\..\lvgl\version_6.1.2\lvgl\src\lv_objx/lv_chart.c ****  * Draw the data lines as columns on a chart
 967:..\..\..\lvgl\version_6.1.2\lvgl\src\lv_objx/lv_chart.c ****  * @param chart pointer to chart object
 968:..\..\..\lvgl\version_6.1.2\lvgl\src\lv_objx/lv_chart.c ****  * @param mask mask, inherited from the design function
 969:..\..\..\lvgl\version_6.1.2\lvgl\src\lv_objx/lv_chart.c ****  */
 970:..\..\..\lvgl\version_6.1.2\lvgl\src\lv_objx/lv_chart.c **** static void lv_chart_draw_cols(lv_obj_t * chart, const lv_area_t * mask)
 971:..\..\..\lvgl\version_6.1.2\lvgl\src\lv_objx/lv_chart.c **** {
 972:..\..\..\lvgl\version_6.1.2\lvgl\src\lv_objx/lv_chart.c ****     lv_chart_ext_t * ext = lv_obj_get_ext_attr(chart);
 973:..\..\..\lvgl\version_6.1.2\lvgl\src\lv_objx/lv_chart.c **** 
 974:..\..\..\lvgl\version_6.1.2\lvgl\src\lv_objx/lv_chart.c ****     uint16_t i;
 975:..\..\..\lvgl\version_6.1.2\lvgl\src\lv_objx/lv_chart.c ****     lv_area_t col_a;
 976:..\..\..\lvgl\version_6.1.2\lvgl\src\lv_objx/lv_chart.c ****     lv_area_t col_mask;
 977:..\..\..\lvgl\version_6.1.2\lvgl\src\lv_objx/lv_chart.c ****     bool mask_ret;
 978:..\..\..\lvgl\version_6.1.2\lvgl\src\lv_objx/lv_chart.c ****     lv_coord_t w = lv_obj_get_width(chart);
 979:..\..\..\lvgl\version_6.1.2\lvgl\src\lv_objx/lv_chart.c ****     lv_coord_t h = lv_obj_get_height(chart);
 980:..\..\..\lvgl\version_6.1.2\lvgl\src\lv_objx/lv_chart.c ****     int32_t y_tmp;
 981:..\..\..\lvgl\version_6.1.2\lvgl\src\lv_objx/lv_chart.c ****     lv_chart_series_t * ser;
 982:..\..\..\lvgl\version_6.1.2\lvgl\src\lv_objx/lv_chart.c ****     lv_style_t rects;
 983:..\..\..\lvgl\version_6.1.2\lvgl\src\lv_objx/lv_chart.c ****     lv_coord_t col_w = w / ((ext->series.num + 1) * ext->point_cnt); /* Suppose + 1 series as separ
 984:..\..\..\lvgl\version_6.1.2\lvgl\src\lv_objx/lv_chart.c ****     lv_coord_t x_ofs = col_w / 2;                                    /*Shift with a half col.*/
 985:..\..\..\lvgl\version_6.1.2\lvgl\src\lv_objx/lv_chart.c **** 
 986:..\..\..\lvgl\version_6.1.2\lvgl\src\lv_objx/lv_chart.c ****     lv_style_copy(&rects, &lv_style_plain);
 987:..\..\..\lvgl\version_6.1.2\lvgl\src\lv_objx/lv_chart.c ****     rects.body.border.width = 0;
 988:..\..\..\lvgl\version_6.1.2\lvgl\src\lv_objx/lv_chart.c ****     rects.body.radius       = 0;
 989:..\..\..\lvgl\version_6.1.2\lvgl\src\lv_objx/lv_chart.c ****     rects.body.opa          = ext->series.opa;
 990:..\..\..\lvgl\version_6.1.2\lvgl\src\lv_objx/lv_chart.c **** 
 991:..\..\..\lvgl\version_6.1.2\lvgl\src\lv_objx/lv_chart.c ****     col_a.y2 = chart->coords.y2;
 992:..\..\..\lvgl\version_6.1.2\lvgl\src\lv_objx/lv_chart.c **** 
 993:..\..\..\lvgl\version_6.1.2\lvgl\src\lv_objx/lv_chart.c ****     lv_coord_t x_act;
 994:..\..\..\lvgl\version_6.1.2\lvgl\src\lv_objx/lv_chart.c **** 
 995:..\..\..\lvgl\version_6.1.2\lvgl\src\lv_objx/lv_chart.c ****     /*Go through all points*/
 996:..\..\..\lvgl\version_6.1.2\lvgl\src\lv_objx/lv_chart.c ****     for(i = 0; i < ext->point_cnt; i++) {
 997:..\..\..\lvgl\version_6.1.2\lvgl\src\lv_objx/lv_chart.c ****         x_act = (int32_t)((int32_t)w * i) / ext->point_cnt;
 998:..\..\..\lvgl\version_6.1.2\lvgl\src\lv_objx/lv_chart.c ****         x_act += chart->coords.x1 + x_ofs;
 999:..\..\..\lvgl\version_6.1.2\lvgl\src\lv_objx/lv_chart.c **** 
1000:..\..\..\lvgl\version_6.1.2\lvgl\src\lv_objx/lv_chart.c ****         /*Draw the current point of all data line*/
1001:..\..\..\lvgl\version_6.1.2\lvgl\src\lv_objx/lv_chart.c ****         LV_LL_READ_BACK(ext->series_ll, ser)
1002:..\..\..\lvgl\version_6.1.2\lvgl\src\lv_objx/lv_chart.c ****         {
1003:..\..\..\lvgl\version_6.1.2\lvgl\src\lv_objx/lv_chart.c ****             lv_coord_t start_point = ext->update_mode == LV_CHART_UPDATE_MODE_SHIFT ? ser->start_po
1004:..\..\..\lvgl\version_6.1.2\lvgl\src\lv_objx/lv_chart.c **** 
1005:..\..\..\lvgl\version_6.1.2\lvgl\src\lv_objx/lv_chart.c ****             col_a.x1 = x_act;
1006:..\..\..\lvgl\version_6.1.2\lvgl\src\lv_objx/lv_chart.c ****             col_a.x2 = col_a.x1 + col_w;
1007:..\..\..\lvgl\version_6.1.2\lvgl\src\lv_objx/lv_chart.c ****             x_act += col_w;
ARM GAS  C:\Users\pearlstl\AppData\Local\Temp\ccRrtFoa.s 			page 24


1008:..\..\..\lvgl\version_6.1.2\lvgl\src\lv_objx/lv_chart.c **** 
1009:..\..\..\lvgl\version_6.1.2\lvgl\src\lv_objx/lv_chart.c ****             if(col_a.x2 < mask->x1) continue;
1010:..\..\..\lvgl\version_6.1.2\lvgl\src\lv_objx/lv_chart.c ****             if(col_a.x1 > mask->x2) break;
1011:..\..\..\lvgl\version_6.1.2\lvgl\src\lv_objx/lv_chart.c **** 
1012:..\..\..\lvgl\version_6.1.2\lvgl\src\lv_objx/lv_chart.c ****             rects.body.main_color = ser->color;
1013:..\..\..\lvgl\version_6.1.2\lvgl\src\lv_objx/lv_chart.c ****             rects.body.grad_color = lv_color_mix(LV_COLOR_BLACK, ser->color, ext->series.dark);
1014:..\..\..\lvgl\version_6.1.2\lvgl\src\lv_objx/lv_chart.c **** 
1015:..\..\..\lvgl\version_6.1.2\lvgl\src\lv_objx/lv_chart.c ****             lv_coord_t p_act = (start_point + i) % ext->point_cnt;
1016:..\..\..\lvgl\version_6.1.2\lvgl\src\lv_objx/lv_chart.c ****             y_tmp            = (int32_t)((int32_t)ser->points[p_act] - ext->ymin) * h;
1017:..\..\..\lvgl\version_6.1.2\lvgl\src\lv_objx/lv_chart.c ****             y_tmp            = y_tmp / (ext->ymax - ext->ymin);
1018:..\..\..\lvgl\version_6.1.2\lvgl\src\lv_objx/lv_chart.c ****             col_a.y1         = h - y_tmp + chart->coords.y1;
1019:..\..\..\lvgl\version_6.1.2\lvgl\src\lv_objx/lv_chart.c **** 
1020:..\..\..\lvgl\version_6.1.2\lvgl\src\lv_objx/lv_chart.c ****             mask_ret = lv_area_intersect(&col_mask, mask, &col_a);
1021:..\..\..\lvgl\version_6.1.2\lvgl\src\lv_objx/lv_chart.c ****             if(mask_ret != false && ser->points[p_act] != LV_CHART_POINT_DEF) {
1022:..\..\..\lvgl\version_6.1.2\lvgl\src\lv_objx/lv_chart.c ****                 lv_draw_rect(&chart->coords, &col_mask, &rects, lv_obj_get_opa_scale(chart));
1023:..\..\..\lvgl\version_6.1.2\lvgl\src\lv_objx/lv_chart.c ****             }
1024:..\..\..\lvgl\version_6.1.2\lvgl\src\lv_objx/lv_chart.c ****         }
1025:..\..\..\lvgl\version_6.1.2\lvgl\src\lv_objx/lv_chart.c ****     }
1026:..\..\..\lvgl\version_6.1.2\lvgl\src\lv_objx/lv_chart.c **** }
1027:..\..\..\lvgl\version_6.1.2\lvgl\src\lv_objx/lv_chart.c **** 
1028:..\..\..\lvgl\version_6.1.2\lvgl\src\lv_objx/lv_chart.c **** /**
1029:..\..\..\lvgl\version_6.1.2\lvgl\src\lv_objx/lv_chart.c ****  * Draw the data lines as vertical lines on a chart if there is only 1px between point
1030:..\..\..\lvgl\version_6.1.2\lvgl\src\lv_objx/lv_chart.c ****  * @param obj pointer to chart object
1031:..\..\..\lvgl\version_6.1.2\lvgl\src\lv_objx/lv_chart.c ****  */
1032:..\..\..\lvgl\version_6.1.2\lvgl\src\lv_objx/lv_chart.c **** static void lv_chart_draw_vertical_lines(lv_obj_t * chart, const lv_area_t * mask)
1033:..\..\..\lvgl\version_6.1.2\lvgl\src\lv_objx/lv_chart.c **** {
1034:..\..\..\lvgl\version_6.1.2\lvgl\src\lv_objx/lv_chart.c **** 
1035:..\..\..\lvgl\version_6.1.2\lvgl\src\lv_objx/lv_chart.c ****     lv_chart_ext_t * ext = lv_obj_get_ext_attr(chart);
1036:..\..\..\lvgl\version_6.1.2\lvgl\src\lv_objx/lv_chart.c ****     lv_coord_t w         = lv_obj_get_width(chart);
1037:..\..\..\lvgl\version_6.1.2\lvgl\src\lv_objx/lv_chart.c ****     /*Vertical lines works only if the width == point count. Else use the normal line type*/
1038:..\..\..\lvgl\version_6.1.2\lvgl\src\lv_objx/lv_chart.c ****     if(ext->point_cnt != w) {
1039:..\..\..\lvgl\version_6.1.2\lvgl\src\lv_objx/lv_chart.c ****         lv_chart_draw_lines(chart, mask);
1040:..\..\..\lvgl\version_6.1.2\lvgl\src\lv_objx/lv_chart.c ****         return;
1041:..\..\..\lvgl\version_6.1.2\lvgl\src\lv_objx/lv_chart.c ****     }
1042:..\..\..\lvgl\version_6.1.2\lvgl\src\lv_objx/lv_chart.c **** 
1043:..\..\..\lvgl\version_6.1.2\lvgl\src\lv_objx/lv_chart.c ****     uint16_t i;
1044:..\..\..\lvgl\version_6.1.2\lvgl\src\lv_objx/lv_chart.c ****     lv_point_t p1;
1045:..\..\..\lvgl\version_6.1.2\lvgl\src\lv_objx/lv_chart.c ****     lv_point_t p2;
1046:..\..\..\lvgl\version_6.1.2\lvgl\src\lv_objx/lv_chart.c ****     lv_coord_t p_act;
1047:..\..\..\lvgl\version_6.1.2\lvgl\src\lv_objx/lv_chart.c ****     lv_coord_t h     = lv_obj_get_height(chart);
1048:..\..\..\lvgl\version_6.1.2\lvgl\src\lv_objx/lv_chart.c ****     lv_coord_t x_ofs = chart->coords.x1;
1049:..\..\..\lvgl\version_6.1.2\lvgl\src\lv_objx/lv_chart.c ****     lv_coord_t y_ofs = chart->coords.y1;
1050:..\..\..\lvgl\version_6.1.2\lvgl\src\lv_objx/lv_chart.c ****     int32_t y_tmp;
1051:..\..\..\lvgl\version_6.1.2\lvgl\src\lv_objx/lv_chart.c ****     lv_chart_series_t * ser;
1052:..\..\..\lvgl\version_6.1.2\lvgl\src\lv_objx/lv_chart.c ****     lv_opa_t opa_scale = lv_obj_get_opa_scale(chart);
1053:..\..\..\lvgl\version_6.1.2\lvgl\src\lv_objx/lv_chart.c ****     lv_style_t style;
1054:..\..\..\lvgl\version_6.1.2\lvgl\src\lv_objx/lv_chart.c ****     lv_style_copy(&style, &lv_style_plain);
1055:..\..\..\lvgl\version_6.1.2\lvgl\src\lv_objx/lv_chart.c ****     style.line.opa   = ext->series.opa;
1056:..\..\..\lvgl\version_6.1.2\lvgl\src\lv_objx/lv_chart.c ****     style.line.width = ext->series.width;
1057:..\..\..\lvgl\version_6.1.2\lvgl\src\lv_objx/lv_chart.c **** 
1058:..\..\..\lvgl\version_6.1.2\lvgl\src\lv_objx/lv_chart.c ****     /*Go through all data lines*/
1059:..\..\..\lvgl\version_6.1.2\lvgl\src\lv_objx/lv_chart.c ****     LV_LL_READ_BACK(ext->series_ll, ser)
1060:..\..\..\lvgl\version_6.1.2\lvgl\src\lv_objx/lv_chart.c ****     {
1061:..\..\..\lvgl\version_6.1.2\lvgl\src\lv_objx/lv_chart.c ****         lv_coord_t start_point = ext->update_mode == LV_CHART_UPDATE_MODE_SHIFT ? ser->start_point 
1062:..\..\..\lvgl\version_6.1.2\lvgl\src\lv_objx/lv_chart.c ****         style.line.color       = ser->color;
1063:..\..\..\lvgl\version_6.1.2\lvgl\src\lv_objx/lv_chart.c **** 
1064:..\..\..\lvgl\version_6.1.2\lvgl\src\lv_objx/lv_chart.c ****         p1.x  = 0 + x_ofs;
ARM GAS  C:\Users\pearlstl\AppData\Local\Temp\ccRrtFoa.s 			page 25


1065:..\..\..\lvgl\version_6.1.2\lvgl\src\lv_objx/lv_chart.c ****         p2.x  = 0 + x_ofs;
1066:..\..\..\lvgl\version_6.1.2\lvgl\src\lv_objx/lv_chart.c ****         y_tmp = (int32_t)((int32_t)ser->points[0] - ext->ymin) * h;
1067:..\..\..\lvgl\version_6.1.2\lvgl\src\lv_objx/lv_chart.c ****         y_tmp = y_tmp / (ext->ymax - ext->ymin);
1068:..\..\..\lvgl\version_6.1.2\lvgl\src\lv_objx/lv_chart.c ****         p2.y  = h - y_tmp + y_ofs;
1069:..\..\..\lvgl\version_6.1.2\lvgl\src\lv_objx/lv_chart.c ****         p1.y  = p2.y;
1070:..\..\..\lvgl\version_6.1.2\lvgl\src\lv_objx/lv_chart.c **** 
1071:..\..\..\lvgl\version_6.1.2\lvgl\src\lv_objx/lv_chart.c ****         for(i = 0; i < ext->point_cnt; i++) {
1072:..\..\..\lvgl\version_6.1.2\lvgl\src\lv_objx/lv_chart.c ****             p_act = (start_point + i) % ext->point_cnt;
1073:..\..\..\lvgl\version_6.1.2\lvgl\src\lv_objx/lv_chart.c **** 
1074:..\..\..\lvgl\version_6.1.2\lvgl\src\lv_objx/lv_chart.c ****             y_tmp = (int32_t)((int32_t)ser->points[p_act] - ext->ymin) * h;
1075:..\..\..\lvgl\version_6.1.2\lvgl\src\lv_objx/lv_chart.c ****             y_tmp = y_tmp / (ext->ymax - ext->ymin);
1076:..\..\..\lvgl\version_6.1.2\lvgl\src\lv_objx/lv_chart.c ****             p2.y  = h - y_tmp + y_ofs;
1077:..\..\..\lvgl\version_6.1.2\lvgl\src\lv_objx/lv_chart.c **** 
1078:..\..\..\lvgl\version_6.1.2\lvgl\src\lv_objx/lv_chart.c ****             if(p1.y == p2.y) {
1079:..\..\..\lvgl\version_6.1.2\lvgl\src\lv_objx/lv_chart.c ****                 p2.x++;
1080:..\..\..\lvgl\version_6.1.2\lvgl\src\lv_objx/lv_chart.c ****             }
1081:..\..\..\lvgl\version_6.1.2\lvgl\src\lv_objx/lv_chart.c **** 
1082:..\..\..\lvgl\version_6.1.2\lvgl\src\lv_objx/lv_chart.c ****             if(ser->points[p_act] != LV_CHART_POINT_DEF) {
1083:..\..\..\lvgl\version_6.1.2\lvgl\src\lv_objx/lv_chart.c ****                 lv_draw_line(&p1, &p2, mask, &style, opa_scale);
1084:..\..\..\lvgl\version_6.1.2\lvgl\src\lv_objx/lv_chart.c ****             }
1085:..\..\..\lvgl\version_6.1.2\lvgl\src\lv_objx/lv_chart.c **** 
1086:..\..\..\lvgl\version_6.1.2\lvgl\src\lv_objx/lv_chart.c ****             p2.x = ((w * p_act) / (ext->point_cnt - 1)) + x_ofs;
1087:..\..\..\lvgl\version_6.1.2\lvgl\src\lv_objx/lv_chart.c ****             p1.x = p2.x;
1088:..\..\..\lvgl\version_6.1.2\lvgl\src\lv_objx/lv_chart.c ****             p1.y = p2.y;
1089:..\..\..\lvgl\version_6.1.2\lvgl\src\lv_objx/lv_chart.c ****         }
1090:..\..\..\lvgl\version_6.1.2\lvgl\src\lv_objx/lv_chart.c ****     }
1091:..\..\..\lvgl\version_6.1.2\lvgl\src\lv_objx/lv_chart.c **** }
1092:..\..\..\lvgl\version_6.1.2\lvgl\src\lv_objx/lv_chart.c **** 
1093:..\..\..\lvgl\version_6.1.2\lvgl\src\lv_objx/lv_chart.c **** /**
1094:..\..\..\lvgl\version_6.1.2\lvgl\src\lv_objx/lv_chart.c ****  * Draw the data lines as areas on a chart
1095:..\..\..\lvgl\version_6.1.2\lvgl\src\lv_objx/lv_chart.c ****  * @param obj pointer to chart object
1096:..\..\..\lvgl\version_6.1.2\lvgl\src\lv_objx/lv_chart.c ****  */
1097:..\..\..\lvgl\version_6.1.2\lvgl\src\lv_objx/lv_chart.c **** static void lv_chart_draw_areas(lv_obj_t * chart, const lv_area_t * mask)
1098:..\..\..\lvgl\version_6.1.2\lvgl\src\lv_objx/lv_chart.c **** {
1099:..\..\..\lvgl\version_6.1.2\lvgl\src\lv_objx/lv_chart.c ****     lv_chart_ext_t * ext = lv_obj_get_ext_attr(chart);
1100:..\..\..\lvgl\version_6.1.2\lvgl\src\lv_objx/lv_chart.c **** 
1101:..\..\..\lvgl\version_6.1.2\lvgl\src\lv_objx/lv_chart.c ****     uint16_t i;
1102:..\..\..\lvgl\version_6.1.2\lvgl\src\lv_objx/lv_chart.c ****     lv_point_t p1;
1103:..\..\..\lvgl\version_6.1.2\lvgl\src\lv_objx/lv_chart.c ****     lv_point_t p2;
1104:..\..\..\lvgl\version_6.1.2\lvgl\src\lv_objx/lv_chart.c ****     lv_coord_t w     = lv_obj_get_width(chart);
1105:..\..\..\lvgl\version_6.1.2\lvgl\src\lv_objx/lv_chart.c ****     lv_coord_t h     = lv_obj_get_height(chart);
1106:..\..\..\lvgl\version_6.1.2\lvgl\src\lv_objx/lv_chart.c ****     lv_coord_t x_ofs = chart->coords.x1;
1107:..\..\..\lvgl\version_6.1.2\lvgl\src\lv_objx/lv_chart.c ****     lv_coord_t y_ofs = chart->coords.y1;
1108:..\..\..\lvgl\version_6.1.2\lvgl\src\lv_objx/lv_chart.c ****     int32_t y_tmp;
1109:..\..\..\lvgl\version_6.1.2\lvgl\src\lv_objx/lv_chart.c ****     lv_coord_t p_prev;
1110:..\..\..\lvgl\version_6.1.2\lvgl\src\lv_objx/lv_chart.c ****     lv_coord_t p_act;
1111:..\..\..\lvgl\version_6.1.2\lvgl\src\lv_objx/lv_chart.c ****     lv_chart_series_t * ser;
1112:..\..\..\lvgl\version_6.1.2\lvgl\src\lv_objx/lv_chart.c ****     lv_opa_t opa_scale = lv_obj_get_opa_scale(chart);
1113:..\..\..\lvgl\version_6.1.2\lvgl\src\lv_objx/lv_chart.c ****     lv_style_t style;
1114:..\..\..\lvgl\version_6.1.2\lvgl\src\lv_objx/lv_chart.c ****     lv_style_copy(&style, &lv_style_plain);
1115:..\..\..\lvgl\version_6.1.2\lvgl\src\lv_objx/lv_chart.c **** 
1116:..\..\..\lvgl\version_6.1.2\lvgl\src\lv_objx/lv_chart.c ****     /*Go through all data lines*/
1117:..\..\..\lvgl\version_6.1.2\lvgl\src\lv_objx/lv_chart.c ****     LV_LL_READ_BACK(ext->series_ll, ser)
1118:..\..\..\lvgl\version_6.1.2\lvgl\src\lv_objx/lv_chart.c ****     {
1119:..\..\..\lvgl\version_6.1.2\lvgl\src\lv_objx/lv_chart.c ****         lv_coord_t start_point = ext->update_mode == LV_CHART_UPDATE_MODE_SHIFT ? ser->start_point 
1120:..\..\..\lvgl\version_6.1.2\lvgl\src\lv_objx/lv_chart.c ****         style.body.main_color  = ser->color;
1121:..\..\..\lvgl\version_6.1.2\lvgl\src\lv_objx/lv_chart.c ****         style.body.opa         = ext->series.opa;
ARM GAS  C:\Users\pearlstl\AppData\Local\Temp\ccRrtFoa.s 			page 26


1122:..\..\..\lvgl\version_6.1.2\lvgl\src\lv_objx/lv_chart.c **** 
1123:..\..\..\lvgl\version_6.1.2\lvgl\src\lv_objx/lv_chart.c ****         p2.x = 0 + x_ofs;
1124:..\..\..\lvgl\version_6.1.2\lvgl\src\lv_objx/lv_chart.c **** 
1125:..\..\..\lvgl\version_6.1.2\lvgl\src\lv_objx/lv_chart.c ****         p_prev = start_point;
1126:..\..\..\lvgl\version_6.1.2\lvgl\src\lv_objx/lv_chart.c ****         y_tmp  = (int32_t)((int32_t)ser->points[p_prev] - ext->ymin) * h;
1127:..\..\..\lvgl\version_6.1.2\lvgl\src\lv_objx/lv_chart.c ****         y_tmp  = y_tmp / (ext->ymax - ext->ymin);
1128:..\..\..\lvgl\version_6.1.2\lvgl\src\lv_objx/lv_chart.c ****         p2.y   = h - y_tmp + y_ofs;
1129:..\..\..\lvgl\version_6.1.2\lvgl\src\lv_objx/lv_chart.c **** 
1130:..\..\..\lvgl\version_6.1.2\lvgl\src\lv_objx/lv_chart.c ****         for(i = 1; i < ext->point_cnt; i++) {
1131:..\..\..\lvgl\version_6.1.2\lvgl\src\lv_objx/lv_chart.c ****             p1.x = p2.x;
1132:..\..\..\lvgl\version_6.1.2\lvgl\src\lv_objx/lv_chart.c ****             p1.y = p2.y;
1133:..\..\..\lvgl\version_6.1.2\lvgl\src\lv_objx/lv_chart.c **** 
1134:..\..\..\lvgl\version_6.1.2\lvgl\src\lv_objx/lv_chart.c ****             p_act = (start_point + i) % ext->point_cnt;
1135:..\..\..\lvgl\version_6.1.2\lvgl\src\lv_objx/lv_chart.c ****             p2.x  = ((w * i) / (ext->point_cnt - 1)) + x_ofs;
1136:..\..\..\lvgl\version_6.1.2\lvgl\src\lv_objx/lv_chart.c **** 
1137:..\..\..\lvgl\version_6.1.2\lvgl\src\lv_objx/lv_chart.c ****             y_tmp = (int32_t)((int32_t)ser->points[p_act] - ext->ymin) * h;
1138:..\..\..\lvgl\version_6.1.2\lvgl\src\lv_objx/lv_chart.c ****             y_tmp = y_tmp / (ext->ymax - ext->ymin);
1139:..\..\..\lvgl\version_6.1.2\lvgl\src\lv_objx/lv_chart.c ****             p2.y  = h - y_tmp + y_ofs;
1140:..\..\..\lvgl\version_6.1.2\lvgl\src\lv_objx/lv_chart.c **** 
1141:..\..\..\lvgl\version_6.1.2\lvgl\src\lv_objx/lv_chart.c ****             if(ser->points[p_prev] != LV_CHART_POINT_DEF && ser->points[p_act] != LV_CHART_POINT_DE
1142:..\..\..\lvgl\version_6.1.2\lvgl\src\lv_objx/lv_chart.c ****                 lv_point_t triangle_points[3];
1143:..\..\..\lvgl\version_6.1.2\lvgl\src\lv_objx/lv_chart.c ****                 triangle_points[0]   = p1;
1144:..\..\..\lvgl\version_6.1.2\lvgl\src\lv_objx/lv_chart.c ****                 triangle_points[1]   = p2;
1145:..\..\..\lvgl\version_6.1.2\lvgl\src\lv_objx/lv_chart.c ****                 triangle_points[2].x = p1.x;
1146:..\..\..\lvgl\version_6.1.2\lvgl\src\lv_objx/lv_chart.c ****                 triangle_points[2].y = chart->coords.y2;
1147:..\..\..\lvgl\version_6.1.2\lvgl\src\lv_objx/lv_chart.c ****                 lv_draw_triangle(triangle_points, mask, &style, opa_scale);
1148:..\..\..\lvgl\version_6.1.2\lvgl\src\lv_objx/lv_chart.c ****                 triangle_points[2].x = p2.x;
1149:..\..\..\lvgl\version_6.1.2\lvgl\src\lv_objx/lv_chart.c ****                 triangle_points[0].y = chart->coords.y2;
1150:..\..\..\lvgl\version_6.1.2\lvgl\src\lv_objx/lv_chart.c ****                 lv_draw_triangle(triangle_points, mask, &style, opa_scale);
1151:..\..\..\lvgl\version_6.1.2\lvgl\src\lv_objx/lv_chart.c ****             }
1152:..\..\..\lvgl\version_6.1.2\lvgl\src\lv_objx/lv_chart.c ****             p_prev = p_act;
1153:..\..\..\lvgl\version_6.1.2\lvgl\src\lv_objx/lv_chart.c ****         }
1154:..\..\..\lvgl\version_6.1.2\lvgl\src\lv_objx/lv_chart.c ****     }
1155:..\..\..\lvgl\version_6.1.2\lvgl\src\lv_objx/lv_chart.c **** }
1156:..\..\..\lvgl\version_6.1.2\lvgl\src\lv_objx/lv_chart.c **** 
1157:..\..\..\lvgl\version_6.1.2\lvgl\src\lv_objx/lv_chart.c **** /**
1158:..\..\..\lvgl\version_6.1.2\lvgl\src\lv_objx/lv_chart.c ****  * Create iterator for newline-separated list
1159:..\..\..\lvgl\version_6.1.2\lvgl\src\lv_objx/lv_chart.c ****  * @param list pointer to newline-separated labels list
1160:..\..\..\lvgl\version_6.1.2\lvgl\src\lv_objx/lv_chart.c ****  * @param iterator_dir LV_CHART_ITERATOR_FORWARD or LV_CHART_LABEL_ITERATOR_REVERSE
1161:..\..\..\lvgl\version_6.1.2\lvgl\src\lv_objx/lv_chart.c ****  * @return lv_chart_label_iterator_t
1162:..\..\..\lvgl\version_6.1.2\lvgl\src\lv_objx/lv_chart.c ****  */
1163:..\..\..\lvgl\version_6.1.2\lvgl\src\lv_objx/lv_chart.c **** static lv_chart_label_iterator_t lv_chart_create_label_iter(const char * list, uint8_t iterator_dir
1164:..\..\..\lvgl\version_6.1.2\lvgl\src\lv_objx/lv_chart.c **** {
1165:..\..\..\lvgl\version_6.1.2\lvgl\src\lv_objx/lv_chart.c ****     lv_chart_label_iterator_t iterator = {0};
1166:..\..\..\lvgl\version_6.1.2\lvgl\src\lv_objx/lv_chart.c ****     uint8_t j;
1167:..\..\..\lvgl\version_6.1.2\lvgl\src\lv_objx/lv_chart.c **** 
1168:..\..\..\lvgl\version_6.1.2\lvgl\src\lv_objx/lv_chart.c ****     iterator.list_start = list;
1169:..\..\..\lvgl\version_6.1.2\lvgl\src\lv_objx/lv_chart.c **** 
1170:..\..\..\lvgl\version_6.1.2\lvgl\src\lv_objx/lv_chart.c ****     /* count number of list items */
1171:..\..\..\lvgl\version_6.1.2\lvgl\src\lv_objx/lv_chart.c ****     for(j = 0; list[j] != '\0'; j++) {
1172:..\..\..\lvgl\version_6.1.2\lvgl\src\lv_objx/lv_chart.c ****             if(list[j] == '\n')
1173:..\..\..\lvgl\version_6.1.2\lvgl\src\lv_objx/lv_chart.c ****                iterator.items_left++;
1174:..\..\..\lvgl\version_6.1.2\lvgl\src\lv_objx/lv_chart.c ****     }
1175:..\..\..\lvgl\version_6.1.2\lvgl\src\lv_objx/lv_chart.c **** 
1176:..\..\..\lvgl\version_6.1.2\lvgl\src\lv_objx/lv_chart.c ****     if(iterator_dir == LV_CHART_LABEL_ITERATOR_FORWARD) {
1177:..\..\..\lvgl\version_6.1.2\lvgl\src\lv_objx/lv_chart.c ****         iterator.is_reverse_iter = 0;
1178:..\..\..\lvgl\version_6.1.2\lvgl\src\lv_objx/lv_chart.c ****         iterator.current_pos = list;
ARM GAS  C:\Users\pearlstl\AppData\Local\Temp\ccRrtFoa.s 			page 27


1179:..\..\..\lvgl\version_6.1.2\lvgl\src\lv_objx/lv_chart.c ****     } else {
1180:..\..\..\lvgl\version_6.1.2\lvgl\src\lv_objx/lv_chart.c ****         iterator.is_reverse_iter = 1;
1181:..\..\..\lvgl\version_6.1.2\lvgl\src\lv_objx/lv_chart.c ****         // -1 to skip '\0' at the end of the string
1182:..\..\..\lvgl\version_6.1.2\lvgl\src\lv_objx/lv_chart.c ****         iterator.current_pos = list + j - 1;
1183:..\..\..\lvgl\version_6.1.2\lvgl\src\lv_objx/lv_chart.c ****     }
1184:..\..\..\lvgl\version_6.1.2\lvgl\src\lv_objx/lv_chart.c ****     iterator.items_left++;
1185:..\..\..\lvgl\version_6.1.2\lvgl\src\lv_objx/lv_chart.c ****     return iterator;
1186:..\..\..\lvgl\version_6.1.2\lvgl\src\lv_objx/lv_chart.c **** }
1187:..\..\..\lvgl\version_6.1.2\lvgl\src\lv_objx/lv_chart.c **** 
1188:..\..\..\lvgl\version_6.1.2\lvgl\src\lv_objx/lv_chart.c **** /**
1189:..\..\..\lvgl\version_6.1.2\lvgl\src\lv_objx/lv_chart.c ****  * Get next label from iterator created by lv_chart_create_label_iter()
1190:..\..\..\lvgl\version_6.1.2\lvgl\src\lv_objx/lv_chart.c ****  * @param iterator iterator to get label from
1191:..\..\..\lvgl\version_6.1.2\lvgl\src\lv_objx/lv_chart.c ****  * @param[out] buf buffer to point next label to
1192:..\..\..\lvgl\version_6.1.2\lvgl\src\lv_objx/lv_chart.c ****  */
1193:..\..\..\lvgl\version_6.1.2\lvgl\src\lv_objx/lv_chart.c **** static void lv_chart_get_next_label(lv_chart_label_iterator_t * iterator, char * buf)
1194:..\..\..\lvgl\version_6.1.2\lvgl\src\lv_objx/lv_chart.c **** {
 276              		.loc 1 1194 0
 277              		.cfi_startproc
 278              		@ args = 0, pretend = 0, frame = 0
 279              		@ frame_needed = 0, uses_anonymous_args = 0
 280              	.LVL30:
 281 0000 70B5     		push	{r4, r5, r6, lr}
 282              		.cfi_def_cfa_offset 16
 283              		.cfi_offset 4, -16
 284              		.cfi_offset 5, -12
 285              		.cfi_offset 6, -8
 286              		.cfi_offset 14, -4
 287              		.loc 1 1194 0
 288 0002 0D46     		mov	r5, r1
1195:..\..\..\lvgl\version_6.1.2\lvgl\src\lv_objx/lv_chart.c ****     uint8_t label_len = 0;
1196:..\..\..\lvgl\version_6.1.2\lvgl\src\lv_objx/lv_chart.c ****     if (iterator->is_reverse_iter) {
 289              		.loc 1 1196 0
 290 0004 417A     		ldrb	r1, [r0, #9]	@ zero_extendqisi2
 291              	.LVL31:
 292 0006 D1B9     		cbnz	r1, .L19
 293 0008 4468     		ldr	r4, [r0, #4]
 294 000a 05E0     		b	.L20
 295              	.LVL32:
 296              	.L39:
1197:..\..\..\lvgl\version_6.1.2\lvgl\src\lv_objx/lv_chart.c ****         const char * label_start;
1198:..\..\..\lvgl\version_6.1.2\lvgl\src\lv_objx/lv_chart.c ****         /* count the length of the current label*/
1199:..\..\..\lvgl\version_6.1.2\lvgl\src\lv_objx/lv_chart.c ****         while ((*iterator->current_pos != '\n') &&
1200:..\..\..\lvgl\version_6.1.2\lvgl\src\lv_objx/lv_chart.c ****                 (iterator->current_pos != iterator->list_start)) {
1201:..\..\..\lvgl\version_6.1.2\lvgl\src\lv_objx/lv_chart.c ****             iterator->current_pos--;
1202:..\..\..\lvgl\version_6.1.2\lvgl\src\lv_objx/lv_chart.c ****             label_len++;
1203:..\..\..\lvgl\version_6.1.2\lvgl\src\lv_objx/lv_chart.c ****         }
1204:..\..\..\lvgl\version_6.1.2\lvgl\src\lv_objx/lv_chart.c **** 
1205:..\..\..\lvgl\version_6.1.2\lvgl\src\lv_objx/lv_chart.c ****         label_start = iterator->current_pos;
1206:..\..\..\lvgl\version_6.1.2\lvgl\src\lv_objx/lv_chart.c **** 
1207:..\..\..\lvgl\version_6.1.2\lvgl\src\lv_objx/lv_chart.c ****         if (*iterator->current_pos == '\n') {
1208:..\..\..\lvgl\version_6.1.2\lvgl\src\lv_objx/lv_chart.c ****             /* do not copy \n symbol, +1 to skip it*/
1209:..\..\..\lvgl\version_6.1.2\lvgl\src\lv_objx/lv_chart.c ****             label_start++;
1210:..\..\..\lvgl\version_6.1.2\lvgl\src\lv_objx/lv_chart.c ****             /* skip newline*/
1211:..\..\..\lvgl\version_6.1.2\lvgl\src\lv_objx/lv_chart.c ****             iterator->current_pos--;
1212:..\..\..\lvgl\version_6.1.2\lvgl\src\lv_objx/lv_chart.c ****         } else {
1213:..\..\..\lvgl\version_6.1.2\lvgl\src\lv_objx/lv_chart.c ****             /* it is last label in list (first one from the beginning )*/
1214:..\..\..\lvgl\version_6.1.2\lvgl\src\lv_objx/lv_chart.c ****             label_len++;
ARM GAS  C:\Users\pearlstl\AppData\Local\Temp\ccRrtFoa.s 			page 28


1215:..\..\..\lvgl\version_6.1.2\lvgl\src\lv_objx/lv_chart.c ****         }
1216:..\..\..\lvgl\version_6.1.2\lvgl\src\lv_objx/lv_chart.c **** 
1217:..\..\..\lvgl\version_6.1.2\lvgl\src\lv_objx/lv_chart.c ****         /* do not allow output buffer overflow */
1218:..\..\..\lvgl\version_6.1.2\lvgl\src\lv_objx/lv_chart.c ****         if (label_len > LV_CHART_AXIS_TICK_LABEL_MAX_LEN) {
1219:..\..\..\lvgl\version_6.1.2\lvgl\src\lv_objx/lv_chart.c ****             label_len = LV_CHART_AXIS_TICK_LABEL_MAX_LEN;
1220:..\..\..\lvgl\version_6.1.2\lvgl\src\lv_objx/lv_chart.c ****         }
1221:..\..\..\lvgl\version_6.1.2\lvgl\src\lv_objx/lv_chart.c **** 
1222:..\..\..\lvgl\version_6.1.2\lvgl\src\lv_objx/lv_chart.c ****         strncpy(buf, label_start, label_len);
1223:..\..\..\lvgl\version_6.1.2\lvgl\src\lv_objx/lv_chart.c ****     } else {
1224:..\..\..\lvgl\version_6.1.2\lvgl\src\lv_objx/lv_chart.c ****         /* search for tick string */
1225:..\..\..\lvgl\version_6.1.2\lvgl\src\lv_objx/lv_chart.c ****         while(iterator->current_pos[label_len] != '\n' &&
 297              		.loc 1 1225 0 discriminator 1
 298 000c 4AB1     		cbz	r2, .L27
1226:..\..\..\lvgl\version_6.1.2\lvgl\src\lv_objx/lv_chart.c ****             iterator->current_pos[label_len] != '\0') {
1227:..\..\..\lvgl\version_6.1.2\lvgl\src\lv_objx/lv_chart.c ****             /* do not overflow the buffer, but move to the end of the current label */
1228:..\..\..\lvgl\version_6.1.2\lvgl\src\lv_objx/lv_chart.c ****             if(label_len < LV_CHART_AXIS_TICK_LABEL_MAX_LEN) {
 299              		.loc 1 1228 0
 300 000e 132B     		cmp	r3, #19
1229:..\..\..\lvgl\version_6.1.2\lvgl\src\lv_objx/lv_chart.c ****                 buf[label_len] = iterator->current_pos[label_len];
 301              		.loc 1 1229 0
 302 0010 9CBF     		itt	ls
 303 0012 EA54     		strbls	r2, [r5, r3]
 304              	.LVL33:
 305 0014 4468     		ldrls	r4, [r0, #4]
 306 0016 0131     		adds	r1, r1, #1
 307              	.L20:
 308 0018 CBB2     		uxtb	r3, r1
 309              	.LVL34:
1225:..\..\..\lvgl\version_6.1.2\lvgl\src\lv_objx/lv_chart.c ****             iterator->current_pos[label_len] != '\0') {
 310              		.loc 1 1225 0
 311 001a E618     		adds	r6, r4, r3
 312 001c E25C     		ldrb	r2, [r4, r3]	@ zero_extendqisi2
 313 001e 0A2A     		cmp	r2, #10
 314 0020 F4D1     		bne	.L39
 315              	.L27:
1230:..\..\..\lvgl\version_6.1.2\lvgl\src\lv_objx/lv_chart.c ****                 label_len++;
1231:..\..\..\lvgl\version_6.1.2\lvgl\src\lv_objx/lv_chart.c ****             } else {
1232:..\..\..\lvgl\version_6.1.2\lvgl\src\lv_objx/lv_chart.c ****                 label_len++;
1233:..\..\..\lvgl\version_6.1.2\lvgl\src\lv_objx/lv_chart.c ****             }
1234:..\..\..\lvgl\version_6.1.2\lvgl\src\lv_objx/lv_chart.c ****         }
1235:..\..\..\lvgl\version_6.1.2\lvgl\src\lv_objx/lv_chart.c **** 
1236:..\..\..\lvgl\version_6.1.2\lvgl\src\lv_objx/lv_chart.c ****         iterator->current_pos += label_len;
 316              		.loc 1 1236 0
 317 0022 4660     		str	r6, [r0, #4]
1237:..\..\..\lvgl\version_6.1.2\lvgl\src\lv_objx/lv_chart.c **** 
1238:..\..\..\lvgl\version_6.1.2\lvgl\src\lv_objx/lv_chart.c ****         /* do not allow output buffer overflow */
1239:..\..\..\lvgl\version_6.1.2\lvgl\src\lv_objx/lv_chart.c ****         if (label_len > LV_CHART_AXIS_TICK_LABEL_MAX_LEN) {
1240:..\..\..\lvgl\version_6.1.2\lvgl\src\lv_objx/lv_chart.c ****             label_len = LV_CHART_AXIS_TICK_LABEL_MAX_LEN;
1241:..\..\..\lvgl\version_6.1.2\lvgl\src\lv_objx/lv_chart.c ****         }
1242:..\..\..\lvgl\version_6.1.2\lvgl\src\lv_objx/lv_chart.c **** 
1243:..\..\..\lvgl\version_6.1.2\lvgl\src\lv_objx/lv_chart.c ****         if(*iterator->current_pos == '\n') iterator->current_pos++;
 318              		.loc 1 1243 0
 319 0024 3278     		ldrb	r2, [r6]	@ zero_extendqisi2
 320 0026 142B     		cmp	r3, #20
 321 0028 28BF     		it	cs
 322 002a 1423     		movcs	r3, #20
 323              	.LVL35:
ARM GAS  C:\Users\pearlstl\AppData\Local\Temp\ccRrtFoa.s 			page 29


 324 002c 0A2A     		cmp	r2, #10
 325 002e 08BF     		it	eq
 326 0030 0136     		addeq	r6, r6, #1
1244:..\..\..\lvgl\version_6.1.2\lvgl\src\lv_objx/lv_chart.c ****     }
1245:..\..\..\lvgl\version_6.1.2\lvgl\src\lv_objx/lv_chart.c **** 
1246:..\..\..\lvgl\version_6.1.2\lvgl\src\lv_objx/lv_chart.c ****     /* terminate the string */
1247:..\..\..\lvgl\version_6.1.2\lvgl\src\lv_objx/lv_chart.c ****     buf[label_len] = '\0';
 327              		.loc 1 1247 0
 328 0032 4FF00002 		mov	r2, #0
1243:..\..\..\lvgl\version_6.1.2\lvgl\src\lv_objx/lv_chart.c ****     }
 329              		.loc 1 1243 0
 330 0036 08BF     		it	eq
 331 0038 4660     		streq	r6, [r0, #4]
 332              	.LVL36:
 333              		.loc 1 1247 0
 334 003a EA54     		strb	r2, [r5, r3]
1248:..\..\..\lvgl\version_6.1.2\lvgl\src\lv_objx/lv_chart.c **** }
 335              		.loc 1 1248 0
 336 003c 70BD     		pop	{r4, r5, r6, pc}
 337              	.LVL37:
 338              	.L19:
 339              	.LBB38:
1199:..\..\..\lvgl\version_6.1.2\lvgl\src\lv_objx/lv_chart.c ****                 (iterator->current_pos != iterator->list_start)) {
 340              		.loc 1 1199 0
 341 003e 4668     		ldr	r6, [r0, #4]
 342 0040 3378     		ldrb	r3, [r6]	@ zero_extendqisi2
 343 0042 0A2B     		cmp	r3, #10
 344 0044 23D0     		beq	.L31
1200:..\..\..\lvgl\version_6.1.2\lvgl\src\lv_objx/lv_chart.c ****             iterator->current_pos--;
 345              		.loc 1 1200 0
 346 0046 0168     		ldr	r1, [r0]
1199:..\..\..\lvgl\version_6.1.2\lvgl\src\lv_objx/lv_chart.c ****                 (iterator->current_pos != iterator->list_start)) {
 347              		.loc 1 1199 0
 348 0048 8E42     		cmp	r6, r1
 349 004a 23D0     		beq	.L32
 350 004c 3246     		mov	r2, r6
 351 004e 01E0     		b	.L24
 352              	.LVL38:
 353              	.L23:
1199:..\..\..\lvgl\version_6.1.2\lvgl\src\lv_objx/lv_chart.c ****                 (iterator->current_pos != iterator->list_start)) {
 354              		.loc 1 1199 0 is_stmt 0 discriminator 1
 355 0050 8A42     		cmp	r2, r1
 356 0052 15D0     		beq	.L40
 357              	.LVL39:
 358              	.L24:
1201:..\..\..\lvgl\version_6.1.2\lvgl\src\lv_objx/lv_chart.c ****             label_len++;
 359              		.loc 1 1201 0 is_stmt 1
 360 0054 013A     		subs	r2, r2, #1
 361              	.LVL40:
 362 0056 4260     		str	r2, [r0, #4]
1199:..\..\..\lvgl\version_6.1.2\lvgl\src\lv_objx/lv_chart.c ****                 (iterator->current_pos != iterator->list_start)) {
 363              		.loc 1 1199 0
 364 0058 1478     		ldrb	r4, [r2]	@ zero_extendqisi2
 365 005a B31A     		subs	r3, r6, r2
 366 005c 0A2C     		cmp	r4, #10
 367 005e DBB2     		uxtb	r3, r3
 368              	.LVL41:
ARM GAS  C:\Users\pearlstl\AppData\Local\Temp\ccRrtFoa.s 			page 30


 369 0060 F6D1     		bne	.L23
 370 0062 142B     		cmp	r3, #20
 371 0064 28BF     		it	cs
 372 0066 1423     		movcs	r3, #20
 373              	.LVL42:
 374 0068 1C46     		mov	r4, r3
 375              	.LVL43:
 376              	.L21:
1211:..\..\..\lvgl\version_6.1.2\lvgl\src\lv_objx/lv_chart.c ****         } else {
 377              		.loc 1 1211 0
 378 006a 531E     		subs	r3, r2, #1
 379 006c 4360     		str	r3, [r0, #4]
1209:..\..\..\lvgl\version_6.1.2\lvgl\src\lv_objx/lv_chart.c ****             /* skip newline*/
 380              		.loc 1 1209 0
 381 006e 511C     		adds	r1, r2, #1
 382              	.LVL44:
 383              	.L30:
1222:..\..\..\lvgl\version_6.1.2\lvgl\src\lv_objx/lv_chart.c ****     } else {
 384              		.loc 1 1222 0
 385 0070 2246     		mov	r2, r4
 386 0072 2846     		mov	r0, r5
 387              	.LVL45:
 388 0074 FFF7FEFF 		bl	strncpy
 389              	.LVL46:
 390              	.LBE38:
 391 0078 2346     		mov	r3, r4
1247:..\..\..\lvgl\version_6.1.2\lvgl\src\lv_objx/lv_chart.c **** }
 392              		.loc 1 1247 0
 393 007a 0022     		movs	r2, #0
 394 007c EA54     		strb	r2, [r5, r3]
 395              		.loc 1 1248 0
 396 007e 70BD     		pop	{r4, r5, r6, pc}
 397              	.LVL47:
 398              	.L40:
 399 0080 0133     		adds	r3, r3, #1
 400              	.LVL48:
 401 0082 DBB2     		uxtb	r3, r3
 402              	.LVL49:
 403 0084 142B     		cmp	r3, #20
 404 0086 28BF     		it	cs
 405 0088 1423     		movcs	r3, #20
 406 008a 1C46     		mov	r4, r3
 407 008c F0E7     		b	.L30
 408              	.LVL50:
 409              	.L31:
 410              	.LBB39:
1199:..\..\..\lvgl\version_6.1.2\lvgl\src\lv_objx/lv_chart.c ****                 (iterator->current_pos != iterator->list_start)) {
 411              		.loc 1 1199 0
 412 008e 3246     		mov	r2, r6
 413 0090 0024     		movs	r4, #0
 414 0092 EAE7     		b	.L21
 415              	.L32:
 416 0094 0124     		movs	r4, #1
 417              	.LVL51:
 418 0096 EBE7     		b	.L30
 419              	.LBE39:
 420              		.cfi_endproc
ARM GAS  C:\Users\pearlstl\AppData\Local\Temp\ccRrtFoa.s 			page 31


 421              	.LFE72:
 422              		.size	lv_chart_get_next_label, .-lv_chart_get_next_label
 423              		.section	.text.lv_chart_draw_y_ticks,"ax",%progbits
 424              		.align	2
 425              		.thumb
 426              		.thumb_func
 427              		.type	lv_chart_draw_y_ticks, %function
 428              	lv_chart_draw_y_ticks:
 429              	.LFB74:
1249:..\..\..\lvgl\version_6.1.2\lvgl\src\lv_objx/lv_chart.c **** 
1250:..\..\..\lvgl\version_6.1.2\lvgl\src\lv_objx/lv_chart.c **** /**
1251:..\..\..\lvgl\version_6.1.2\lvgl\src\lv_objx/lv_chart.c ****  * Check whether there should be a label next to tick with given
1252:..\..\..\lvgl\version_6.1.2\lvgl\src\lv_objx/lv_chart.c ****  * number
1253:..\..\..\lvgl\version_6.1.2\lvgl\src\lv_objx/lv_chart.c ****  * @param tick_num number of the tick to check
1254:..\..\..\lvgl\version_6.1.2\lvgl\src\lv_objx/lv_chart.c ****  * @param axis pointer to struct containing info on the axis
1255:..\..\..\lvgl\version_6.1.2\lvgl\src\lv_objx/lv_chart.c ****  * @return true if label should be located next to current tick
1256:..\..\..\lvgl\version_6.1.2\lvgl\src\lv_objx/lv_chart.c ****  */
1257:..\..\..\lvgl\version_6.1.2\lvgl\src\lv_objx/lv_chart.c **** static inline bool lv_chart_is_tick_with_label(uint8_t tick_num, lv_chart_axis_cfg_t * axis)
1258:..\..\..\lvgl\version_6.1.2\lvgl\src\lv_objx/lv_chart.c **** {
1259:..\..\..\lvgl\version_6.1.2\lvgl\src\lv_objx/lv_chart.c ****     return ((tick_num == 0) || ((tick_num % axis->num_tick_marks) == 0));
1260:..\..\..\lvgl\version_6.1.2\lvgl\src\lv_objx/lv_chart.c **** }
1261:..\..\..\lvgl\version_6.1.2\lvgl\src\lv_objx/lv_chart.c **** 
1262:..\..\..\lvgl\version_6.1.2\lvgl\src\lv_objx/lv_chart.c **** static void lv_chart_draw_y_ticks(lv_obj_t * chart, const lv_area_t * mask, uint8_t which_axis)
1263:..\..\..\lvgl\version_6.1.2\lvgl\src\lv_objx/lv_chart.c **** {
 430              		.loc 1 1263 0
 431              		.cfi_startproc
 432              		@ args = 0, pretend = 0, frame = 104
 433              		@ frame_needed = 0, uses_anonymous_args = 0
 434              	.LVL52:
 435 0000 2DE9F04F 		push	{r4, r5, r6, r7, r8, r9, r10, fp, lr}
 436              		.cfi_def_cfa_offset 36
 437              		.cfi_offset 4, -36
 438              		.cfi_offset 5, -32
 439              		.cfi_offset 6, -28
 440              		.cfi_offset 7, -24
 441              		.cfi_offset 8, -20
 442              		.cfi_offset 9, -16
 443              		.cfi_offset 10, -12
 444              		.cfi_offset 11, -8
 445              		.cfi_offset 14, -4
 446 0004 A1B0     		sub	sp, sp, #132
 447              		.cfi_def_cfa_offset 168
 448              		.loc 1 1263 0
 449 0006 1446     		mov	r4, r2
 450 0008 0B92     		str	r2, [sp, #44]
 451 000a 0991     		str	r1, [sp, #36]
 452 000c 0D90     		str	r0, [sp, #52]
1264:..\..\..\lvgl\version_6.1.2\lvgl\src\lv_objx/lv_chart.c ****     lv_chart_ext_t * ext = lv_obj_get_ext_attr(chart);
 453              		.loc 1 1264 0
 454 000e FFF7FEFF 		bl	lv_obj_get_ext_attr
 455              	.LVL53:
1265:..\..\..\lvgl\version_6.1.2\lvgl\src\lv_objx/lv_chart.c ****     lv_chart_axis_cfg_t * y_axis = (which_axis == LV_CHART_AXIS_PRIMARY_Y) ?
1266:..\..\..\lvgl\version_6.1.2\lvgl\src\lv_objx/lv_chart.c ****                                             &ext->y_axis : &ext->secondary_y_axis;
 456              		.loc 1 1266 0
 457 0012 012C     		cmp	r4, #1
 458 0014 00F08E81 		beq	.L113
1267:..\..\..\lvgl\version_6.1.2\lvgl\src\lv_objx/lv_chart.c **** 
ARM GAS  C:\Users\pearlstl\AppData\Local\Temp\ccRrtFoa.s 			page 32


1268:..\..\..\lvgl\version_6.1.2\lvgl\src\lv_objx/lv_chart.c ****     if(y_axis->list_of_values != NULL || y_axis->num_tick_marks != 0) {
 459              		.loc 1 1268 0 discriminator 2
 460 0018 836A     		ldr	r3, [r0, #40]
1266:..\..\..\lvgl\version_6.1.2\lvgl\src\lv_objx/lv_chart.c **** 
 461              		.loc 1 1266 0 discriminator 2
 462 001a 00F12808 		add	r8, r0, #40
 463              	.LVL54:
 464              		.loc 1 1268 0 discriminator 2
 465 001e 002B     		cmp	r3, #0
 466 0020 00F06781 		beq	.L114
 467              	.L80:
 468              	.LBB46:
1269:..\..\..\lvgl\version_6.1.2\lvgl\src\lv_objx/lv_chart.c **** 
1270:..\..\..\lvgl\version_6.1.2\lvgl\src\lv_objx/lv_chart.c ****         const lv_style_t * style = lv_obj_get_style(chart);
 469              		.loc 1 1270 0
 470 0024 0D9C     		ldr	r4, [sp, #52]
 471 0026 2046     		mov	r0, r4
 472              	.LVL55:
 473 0028 FFF7FEFF 		bl	lv_obj_get_style
 474              	.LVL56:
 475 002c 0746     		mov	r7, r0
 476              	.LVL57:
1271:..\..\..\lvgl\version_6.1.2\lvgl\src\lv_objx/lv_chart.c ****         lv_opa_t opa_scale       = lv_obj_get_opa_scale(chart);
 477              		.loc 1 1271 0
 478 002e 2046     		mov	r0, r4
 479              	.LVL58:
 480 0030 FFF7FEFF 		bl	lv_obj_get_opa_scale
 481              	.LVL59:
1272:..\..\..\lvgl\version_6.1.2\lvgl\src\lv_objx/lv_chart.c **** 
1273:..\..\..\lvgl\version_6.1.2\lvgl\src\lv_objx/lv_chart.c ****         uint8_t i;
1274:..\..\..\lvgl\version_6.1.2\lvgl\src\lv_objx/lv_chart.c ****         uint8_t num_of_labels;
1275:..\..\..\lvgl\version_6.1.2\lvgl\src\lv_objx/lv_chart.c ****         uint8_t num_scale_ticks;
1276:..\..\..\lvgl\version_6.1.2\lvgl\src\lv_objx/lv_chart.c ****         int8_t major_tick_len, minor_tick_len;
1277:..\..\..\lvgl\version_6.1.2\lvgl\src\lv_objx/lv_chart.c ****         uint8_t iter_dir;
1278:..\..\..\lvgl\version_6.1.2\lvgl\src\lv_objx/lv_chart.c **** 
1279:..\..\..\lvgl\version_6.1.2\lvgl\src\lv_objx/lv_chart.c ****         lv_point_t p1;
1280:..\..\..\lvgl\version_6.1.2\lvgl\src\lv_objx/lv_chart.c ****         lv_point_t p2;
1281:..\..\..\lvgl\version_6.1.2\lvgl\src\lv_objx/lv_chart.c ****         lv_coord_t x_ofs;
1282:..\..\..\lvgl\version_6.1.2\lvgl\src\lv_objx/lv_chart.c ****         lv_chart_label_iterator_t iter;
1283:..\..\..\lvgl\version_6.1.2\lvgl\src\lv_objx/lv_chart.c ****         lv_coord_t y_ofs = chart->coords.y1;
 482              		.loc 1 1283 0
 483 0034 B4F91230 		ldrsh	r3, [r4, #18]
1271:..\..\..\lvgl\version_6.1.2\lvgl\src\lv_objx/lv_chart.c ****         lv_opa_t opa_scale       = lv_obj_get_opa_scale(chart);
 484              		.loc 1 1271 0
 485 0038 0A90     		str	r0, [sp, #40]
 486              	.LVL60:
1284:..\..\..\lvgl\version_6.1.2\lvgl\src\lv_objx/lv_chart.c ****         lv_coord_t h     = lv_obj_get_height(chart);
 487              		.loc 1 1284 0
 488 003a 2046     		mov	r0, r4
1283:..\..\..\lvgl\version_6.1.2\lvgl\src\lv_objx/lv_chart.c ****         lv_coord_t h     = lv_obj_get_height(chart);
 489              		.loc 1 1283 0
 490 003c 0893     		str	r3, [sp, #32]
 491              	.LVL61:
 492              		.loc 1 1284 0
 493 003e FFF7FEFF 		bl	lv_obj_get_height
 494              	.LVL62:
 495 0042 0790     		str	r0, [sp, #28]
ARM GAS  C:\Users\pearlstl\AppData\Local\Temp\ccRrtFoa.s 			page 33


 496              	.LVL63:
1285:..\..\..\lvgl\version_6.1.2\lvgl\src\lv_objx/lv_chart.c ****         lv_coord_t w     = lv_obj_get_width(chart);
 497              		.loc 1 1285 0
 498 0044 2046     		mov	r0, r4
 499 0046 FFF7FEFF 		bl	lv_obj_get_width
 500              	.LVL64:
1286:..\..\..\lvgl\version_6.1.2\lvgl\src\lv_objx/lv_chart.c ****         char buf[LV_CHART_AXIS_TICK_LABEL_MAX_LEN + 1]; /* up to N symbols per label + null termina
1287:..\..\..\lvgl\version_6.1.2\lvgl\src\lv_objx/lv_chart.c **** 
1288:..\..\..\lvgl\version_6.1.2\lvgl\src\lv_objx/lv_chart.c ****         /* chose correct side of the chart */
1289:..\..\..\lvgl\version_6.1.2\lvgl\src\lv_objx/lv_chart.c ****         if(which_axis == LV_CHART_AXIS_PRIMARY_Y)
1290:..\..\..\lvgl\version_6.1.2\lvgl\src\lv_objx/lv_chart.c ****             x_ofs = chart->coords.x1;
1291:..\..\..\lvgl\version_6.1.2\lvgl\src\lv_objx/lv_chart.c ****         else
1292:..\..\..\lvgl\version_6.1.2\lvgl\src\lv_objx/lv_chart.c ****             x_ofs = chart->coords.x2;
1293:..\..\..\lvgl\version_6.1.2\lvgl\src\lv_objx/lv_chart.c **** 
1294:..\..\..\lvgl\version_6.1.2\lvgl\src\lv_objx/lv_chart.c ****         /* calculate the size of tick marks */
1295:..\..\..\lvgl\version_6.1.2\lvgl\src\lv_objx/lv_chart.c ****         if(y_axis->major_tick_len == LV_CHART_TICK_LENGTH_AUTO)
 501              		.loc 1 1295 0
 502 004a 98F806E0 		ldrb	lr, [r8, #6]	@ zero_extendqisi2
1292:..\..\..\lvgl\version_6.1.2\lvgl\src\lv_objx/lv_chart.c **** 
 503              		.loc 1 1292 0
 504 004e 0D9B     		ldr	r3, [sp, #52]
 505              		.loc 1 1295 0
 506 0050 BEF1FF0F 		cmp	lr, #255
1292:..\..\..\lvgl\version_6.1.2\lvgl\src\lv_objx/lv_chart.c **** 
 507              		.loc 1 1292 0
 508 0054 B3F914B0 		ldrsh	fp, [r3, #20]
 509              	.LVL65:
 510              		.loc 1 1295 0
 511 0058 00F08F81 		beq	.L115
 512              	.LVL66:
 513              	.L48:
1296:..\..\..\lvgl\version_6.1.2\lvgl\src\lv_objx/lv_chart.c ****             major_tick_len = (int32_t)w * LV_CHART_AXIS_MAJOR_TICK_LEN_COE;
1297:..\..\..\lvgl\version_6.1.2\lvgl\src\lv_objx/lv_chart.c ****         else
1298:..\..\..\lvgl\version_6.1.2\lvgl\src\lv_objx/lv_chart.c ****             major_tick_len = y_axis->major_tick_len;
 514              		.loc 1 1298 0
 515 005c 4FFA8EFE 		sxtb	lr, lr
 516              	.LVL67:
 517              	.L49:
1299:..\..\..\lvgl\version_6.1.2\lvgl\src\lv_objx/lv_chart.c **** 
1300:..\..\..\lvgl\version_6.1.2\lvgl\src\lv_objx/lv_chart.c ****         if(y_axis->minor_tick_len == LV_CHART_TICK_LENGTH_AUTO)
 518              		.loc 1 1300 0
 519 0060 98F807C0 		ldrb	ip, [r8, #7]	@ zero_extendqisi2
 520 0064 BCF1FF0F 		cmp	ip, #255
1301:..\..\..\lvgl\version_6.1.2\lvgl\src\lv_objx/lv_chart.c ****             minor_tick_len = major_tick_len * LV_CHART_AXIS_MINOR_TICK_LEN_COE;
 521              		.loc 1 1301 0
 522 0068 01BF     		itttt	eq
 523 006a B14B     		ldreq	r3, .L122
 524 006c 4FEA4E0C 		lsleq	ip, lr, #1
 525 0070 83FB0C23 		smulleq	r2, r3, r3, ip
 526 0074 A3EBEC7C 		subeq	ip, r3, ip, asr #31
1302:..\..\..\lvgl\version_6.1.2\lvgl\src\lv_objx/lv_chart.c ****         else
1303:..\..\..\lvgl\version_6.1.2\lvgl\src\lv_objx/lv_chart.c ****             minor_tick_len = y_axis->minor_tick_len;
1304:..\..\..\lvgl\version_6.1.2\lvgl\src\lv_objx/lv_chart.c **** 
1305:..\..\..\lvgl\version_6.1.2\lvgl\src\lv_objx/lv_chart.c ****         /* tick lines on secondary y axis are drawn in other direction*/
1306:..\..\..\lvgl\version_6.1.2\lvgl\src\lv_objx/lv_chart.c ****         if(which_axis == LV_CHART_AXIS_SECONDARY_Y) {
 527              		.loc 1 1306 0
 528 0078 0B9B     		ldr	r3, [sp, #44]
ARM GAS  C:\Users\pearlstl\AppData\Local\Temp\ccRrtFoa.s 			page 34


1303:..\..\..\lvgl\version_6.1.2\lvgl\src\lv_objx/lv_chart.c **** 
 529              		.loc 1 1303 0
 530 007a 4FFA8CFC 		sxtb	ip, ip
 531              	.LVL68:
 532              		.loc 1 1306 0
 533 007e 002B     		cmp	r3, #0
 534 0080 00F04381 		beq	.L116
 535              	.L52:
 536              	.LBB47:
 537              	.LBB48:
1165:..\..\..\lvgl\version_6.1.2\lvgl\src\lv_objx/lv_chart.c ****     uint8_t j;
 538              		.loc 1 1165 0
 539 0084 0DF1680A 		add	r10, sp, #104
 540              	.LBE48:
 541              	.LBE47:
1307:..\..\..\lvgl\version_6.1.2\lvgl\src\lv_objx/lv_chart.c ****             major_tick_len *= -1;
1308:..\..\..\lvgl\version_6.1.2\lvgl\src\lv_objx/lv_chart.c ****             minor_tick_len *= -1;
1309:..\..\..\lvgl\version_6.1.2\lvgl\src\lv_objx/lv_chart.c ****         }
1310:..\..\..\lvgl\version_6.1.2\lvgl\src\lv_objx/lv_chart.c **** 
1311:..\..\..\lvgl\version_6.1.2\lvgl\src\lv_objx/lv_chart.c ****         iter_dir = (y_axis->options & LV_CHART_AXIS_INVERSE_LABELS_ORDER) ? LV_CHART_LABEL_ITERATOR
1312:..\..\..\lvgl\version_6.1.2\lvgl\src\lv_objx/lv_chart.c ****         iter = lv_chart_create_label_iter(y_axis->list_of_values, iter_dir);
 542              		.loc 1 1312 0
 543 0088 D8F80040 		ldr	r4, [r8]
 544 008c 98F80460 		ldrb	r6, [r8, #4]	@ zero_extendqisi2
 545              	.LBB51:
 546              	.LBB49:
1165:..\..\..\lvgl\version_6.1.2\lvgl\src\lv_objx/lv_chart.c ****     uint8_t j;
 547              		.loc 1 1165 0
 548 0090 0022     		movs	r2, #0
 549 0092 CAF80420 		str	r2, [r10, #4]
 550 0096 1A92     		str	r2, [sp, #104]
 551 0098 CAF80820 		str	r2, [r10, #8]
1171:..\..\..\lvgl\version_6.1.2\lvgl\src\lv_objx/lv_chart.c ****             if(list[j] == '\n')
 552              		.loc 1 1171 0
 553 009c 2178     		ldrb	r1, [r4]	@ zero_extendqisi2
 554 009e 06F00206 		and	r6, r6, #2
 555 00a2 F6B2     		uxtb	r6, r6
 556              	.LVL69:
 557 00a4 0029     		cmp	r1, #0
 558 00a6 00F07D81 		beq	.L82
 559 00aa 1546     		mov	r5, r2
 560              	.LVL70:
 561              	.L54:
 562 00ac 0132     		adds	r2, r2, #1
 563 00ae D3B2     		uxtb	r3, r2
 564 00b0 0A29     		cmp	r1, #10
 565 00b2 08BF     		it	eq
 566 00b4 0135     		addeq	r5, r5, #1
 567 00b6 E15C     		ldrb	r1, [r4, r3]	@ zero_extendqisi2
 568 00b8 EDB2     		uxtb	r5, r5
 569              	.LVL71:
 570 00ba 1A46     		mov	r2, r3
 571              	.LVL72:
 572 00bc 0029     		cmp	r1, #0
 573 00be F5D1     		bne	.L54
 574 00c0 0135     		adds	r5, r5, #1
 575              	.LVL73:
ARM GAS  C:\Users\pearlstl\AppData\Local\Temp\ccRrtFoa.s 			page 35


 576 00c2 EDB2     		uxtb	r5, r5
 577              	.LVL74:
 578              	.L53:
1176:..\..\..\lvgl\version_6.1.2\lvgl\src\lv_objx/lv_chart.c ****         iterator.is_reverse_iter = 0;
 579              		.loc 1 1176 0
 580 00c4 002E     		cmp	r6, #0
 581 00c6 00F06B81 		beq	.L83
 582              	.LVL75:
1182:..\..\..\lvgl\version_6.1.2\lvgl\src\lv_objx/lv_chart.c ****     }
 583              		.loc 1 1182 0
 584 00ca 013B     		subs	r3, r3, #1
 585 00cc 2344     		add	r3, r3, r4
 586              	.LVL76:
1180:..\..\..\lvgl\version_6.1.2\lvgl\src\lv_objx/lv_chart.c ****         // -1 to skip '\0' at the end of the string
 587              		.loc 1 1180 0
 588 00ce 0126     		movs	r6, #1
 589              	.LVL77:
 590              	.L55:
1185:..\..\..\lvgl\version_6.1.2\lvgl\src\lv_objx/lv_chart.c **** }
 591              		.loc 1 1185 0
 592 00d0 1B93     		str	r3, [sp, #108]
 593 00d2 1A94     		str	r4, [sp, #104]
 594 00d4 8DF87050 		strb	r5, [sp, #112]
 595 00d8 8DF87160 		strb	r6, [sp, #113]
 596 00dc 9AE80700 		ldmia	r10, {r0, r1, r2}
 597 00e0 0DF15C09 		add	r9, sp, #92
 598 00e4 89E80700 		stmia	r9, {r0, r1, r2}
 599              	.LVL78:
 600              	.LBE49:
 601              	.LBE51:
 602              		.loc 1 1312 0
 603 00e8 1893     		str	r3, [sp, #96]
 604 00ea 8DF86560 		strb	r6, [sp, #101]
 605 00ee 1794     		str	r4, [sp, #92]
 606 00f0 8DF86450 		strb	r5, [sp, #100]
 607 00f4 99E80700 		ldmia	r9, {r0, r1, r2}
 608 00f8 14AB     		add	r3, sp, #80
 609 00fa 83E80700 		stmia	r3, {r0, r1, r2}
 610              	.LVL79:
1313:..\..\..\lvgl\version_6.1.2\lvgl\src\lv_objx/lv_chart.c **** 
1314:..\..\..\lvgl\version_6.1.2\lvgl\src\lv_objx/lv_chart.c ****         /*determine the number of options */
1315:..\..\..\lvgl\version_6.1.2\lvgl\src\lv_objx/lv_chart.c ****         num_of_labels = iter.items_left;
1316:..\..\..\lvgl\version_6.1.2\lvgl\src\lv_objx/lv_chart.c **** 
1317:..\..\..\lvgl\version_6.1.2\lvgl\src\lv_objx/lv_chart.c ****         /* we can't have string labels without ticks step, set to 1 if not specified */
1318:..\..\..\lvgl\version_6.1.2\lvgl\src\lv_objx/lv_chart.c ****         if(y_axis->num_tick_marks == 0) y_axis->num_tick_marks = 1;
 611              		.loc 1 1318 0
 612 00fe 98F80560 		ldrb	r6, [r8, #5]	@ zero_extendqisi2
 613 0102 002E     		cmp	r6, #0
 614 0104 00F0FD80 		beq	.L117
 615              	.L56:
1319:..\..\..\lvgl\version_6.1.2\lvgl\src\lv_objx/lv_chart.c **** 
1320:..\..\..\lvgl\version_6.1.2\lvgl\src\lv_objx/lv_chart.c ****         /* calculate total number of ticks */
1321:..\..\..\lvgl\version_6.1.2\lvgl\src\lv_objx/lv_chart.c ****         if(num_of_labels < 2)
 616              		.loc 1 1321 0
 617 0108 012D     		cmp	r5, #1
 618 010a 03D9     		bls	.L57
1322:..\..\..\lvgl\version_6.1.2\lvgl\src\lv_objx/lv_chart.c ****             num_scale_ticks = y_axis->num_tick_marks;
ARM GAS  C:\Users\pearlstl\AppData\Local\Temp\ccRrtFoa.s 			page 36


1323:..\..\..\lvgl\version_6.1.2\lvgl\src\lv_objx/lv_chart.c ****         else
1324:..\..\..\lvgl\version_6.1.2\lvgl\src\lv_objx/lv_chart.c ****             num_scale_ticks = (y_axis->num_tick_marks * (num_of_labels - 1));
 619              		.loc 1 1324 0
 620 010c 6B1E     		subs	r3, r5, #1
 621 010e 13FB06F6 		smulbb	r6, r3, r6
 622 0112 F6B2     		uxtb	r6, r6
 623              	.LVL80:
 624              	.L57:
 625 0114 1FFA8BFB 		uxth	fp, fp
 626 0118 0B9B     		ldr	r3, [sp, #44]
 627 011a 0BF1FF39 		add	r9, fp, #-1
 628 011e 0BF1010B 		add	fp, fp, #1
 629              	.LVL81:
 630 0122 012B     		cmp	r3, #1
 631 0124 08BF     		it	eq
 632 0126 CB46     		moveq	fp, r9
 633              	.LVL82:
 634 0128 0FFA8BF9 		sxth	r9, fp
 635              	.LVL83:
1325:..\..\..\lvgl\version_6.1.2\lvgl\src\lv_objx/lv_chart.c **** 
1326:..\..\..\lvgl\version_6.1.2\lvgl\src\lv_objx/lv_chart.c ****         for(i = 0; i < (num_scale_ticks + 1); i++) { /* one extra loop - it may not exist in the li
1327:..\..\..\lvgl\version_6.1.2\lvgl\src\lv_objx/lv_chart.c ****                                                      /* first point of the tick */
1328:..\..\..\lvgl\version_6.1.2\lvgl\src\lv_objx/lv_chart.c ****             p1.x = x_ofs;
1329:..\..\..\lvgl\version_6.1.2\lvgl\src\lv_objx/lv_chart.c **** 
1330:..\..\..\lvgl\version_6.1.2\lvgl\src\lv_objx/lv_chart.c ****             /* move extra pixel out of chart boundary */
1331:..\..\..\lvgl\version_6.1.2\lvgl\src\lv_objx/lv_chart.c ****             if (which_axis == LV_CHART_AXIS_PRIMARY_Y)
1332:..\..\..\lvgl\version_6.1.2\lvgl\src\lv_objx/lv_chart.c ****                 p1.x--;
1333:..\..\..\lvgl\version_6.1.2\lvgl\src\lv_objx/lv_chart.c ****             else
1334:..\..\..\lvgl\version_6.1.2\lvgl\src\lv_objx/lv_chart.c ****                 p1.x++;
1335:..\..\..\lvgl\version_6.1.2\lvgl\src\lv_objx/lv_chart.c **** 
1336:..\..\..\lvgl\version_6.1.2\lvgl\src\lv_objx/lv_chart.c ****             /* second point of the tick */
1337:..\..\..\lvgl\version_6.1.2\lvgl\src\lv_objx/lv_chart.c ****             if((num_of_labels != 0) && (i == 0 || i % y_axis->num_tick_marks == 0))
1338:..\..\..\lvgl\version_6.1.2\lvgl\src\lv_objx/lv_chart.c ****                 p2.x = p1.x - major_tick_len; /* major tick */
 636              		.loc 1 1338 0
 637 012c 1FFA89F3 		uxth	r3, r9
 638 0130 CEEB030E 		rsb	lr, lr, r3
 639              	.LVL84:
1339:..\..\..\lvgl\version_6.1.2\lvgl\src\lv_objx/lv_chart.c ****             else
1340:..\..\..\lvgl\version_6.1.2\lvgl\src\lv_objx/lv_chart.c ****                 p2.x = p1.x - minor_tick_len; /* minor tick */
 640              		.loc 1 1340 0
 641 0134 CCEB030C 		rsb	ip, ip, r3
 642              	.LVL85:
1338:..\..\..\lvgl\version_6.1.2\lvgl\src\lv_objx/lv_chart.c ****             else
 643              		.loc 1 1338 0
 644 0138 0FFA8EF2 		sxth	r2, lr
 645              		.loc 1 1340 0
 646 013c 0023     		movs	r3, #0
1338:..\..\..\lvgl\version_6.1.2\lvgl\src\lv_objx/lv_chart.c ****             else
 647              		.loc 1 1338 0
 648 013e 0C92     		str	r2, [sp, #48]
 649              		.loc 1 1340 0
 650 0140 0FFA8CF2 		sxth	r2, ip
 651 0144 BDF820B0 		ldrh	fp, [sp, #32]
 652 0148 0892     		str	r2, [sp, #32]
 653 014a 1C46     		mov	r4, r3
 654 014c 7CE0     		b	.L73
 655              	.LVL86:
ARM GAS  C:\Users\pearlstl\AppData\Local\Temp\ccRrtFoa.s 			page 37


 656              	.L119:
1337:..\..\..\lvgl\version_6.1.2\lvgl\src\lv_objx/lv_chart.c ****                 p2.x = p1.x - major_tick_len; /* major tick */
 657              		.loc 1 1337 0 discriminator 1
 658 014e 002C     		cmp	r4, #0
 659 0150 00F0A880 		beq	.L59
1337:..\..\..\lvgl\version_6.1.2\lvgl\src\lv_objx/lv_chart.c ****                 p2.x = p1.x - major_tick_len; /* major tick */
 660              		.loc 1 1337 0 is_stmt 0 discriminator 2
 661 0154 98F80500 		ldrb	r0, [r8, #5]	@ zero_extendqisi2
1341:..\..\..\lvgl\version_6.1.2\lvgl\src\lv_objx/lv_chart.c **** 
1342:..\..\..\lvgl\version_6.1.2\lvgl\src\lv_objx/lv_chart.c ****             /* draw a line at moving y position */
1343:..\..\..\lvgl\version_6.1.2\lvgl\src\lv_objx/lv_chart.c ****             p2.y = p1.y =
 662              		.loc 1 1343 0 is_stmt 1 discriminator 2
 663 0158 0799     		ldr	r1, [sp, #28]
1337:..\..\..\lvgl\version_6.1.2\lvgl\src\lv_objx/lv_chart.c ****                 p2.x = p1.x - major_tick_len; /* major tick */
 664              		.loc 1 1337 0 discriminator 2
 665 015a B4FBF0FE 		udiv	lr, r4, r0
 666              		.loc 1 1343 0 discriminator 2
 667 015e 8A1A     		subs	r2, r1, r2
1337:..\..\..\lvgl\version_6.1.2\lvgl\src\lv_objx/lv_chart.c ****                 p2.x = p1.x - major_tick_len; /* major tick */
 668              		.loc 1 1337 0 discriminator 2
 669 0160 00FB1E41 		mls	r1, r0, lr, r4
1340:..\..\..\lvgl\version_6.1.2\lvgl\src\lv_objx/lv_chart.c **** 
 670              		.loc 1 1340 0 discriminator 2
 671 0164 0C98     		ldr	r0, [sp, #48]
 672              		.loc 1 1343 0 discriminator 2
 673 0166 03FB02F3 		mul	r3, r3, r2
1340:..\..\..\lvgl\version_6.1.2\lvgl\src\lv_objx/lv_chart.c **** 
 674              		.loc 1 1340 0 discriminator 2
 675 016a 8646     		mov	lr, r0
 676              		.loc 1 1343 0 discriminator 2
 677 016c 93FBF6F3 		sdiv	r3, r3, r6
1344:..\..\..\lvgl\version_6.1.2\lvgl\src\lv_objx/lv_chart.c ****                 y_ofs + (int32_t)((int32_t)(h - style->line.width) * i) / num_scale_ticks;
1345:..\..\..\lvgl\version_6.1.2\lvgl\src\lv_objx/lv_chart.c **** 
1346:..\..\..\lvgl\version_6.1.2\lvgl\src\lv_objx/lv_chart.c ****             if(y_axis->options & LV_CHART_AXIS_INVERSE_LABELS_ORDER) {
 678              		.loc 1 1346 0 discriminator 2
 679 0170 98F80420 		ldrb	r2, [r8, #4]	@ zero_extendqisi2
1340:..\..\..\lvgl\version_6.1.2\lvgl\src\lv_objx/lv_chart.c **** 
 680              		.loc 1 1340 0 discriminator 2
 681 0174 0898     		ldr	r0, [sp, #32]
1343:..\..\..\lvgl\version_6.1.2\lvgl\src\lv_objx/lv_chart.c ****                 y_ofs + (int32_t)((int32_t)(h - style->line.width) * i) / num_scale_ticks;
 682              		.loc 1 1343 0 discriminator 2
 683 0176 5B44     		add	r3, r3, fp
 684 0178 1BB2     		sxth	r3, r3
1337:..\..\..\lvgl\version_6.1.2\lvgl\src\lv_objx/lv_chart.c ****                 p2.x = p1.x - major_tick_len; /* major tick */
 685              		.loc 1 1337 0 discriminator 2
 686 017a C9B2     		uxtb	r1, r1
1340:..\..\..\lvgl\version_6.1.2\lvgl\src\lv_objx/lv_chart.c **** 
 687              		.loc 1 1340 0 discriminator 2
 688 017c 0029     		cmp	r1, #0
 689 017e 18BF     		it	ne
 690 0180 8646     		movne	lr, r0
1343:..\..\..\lvgl\version_6.1.2\lvgl\src\lv_objx/lv_chart.c ****                 y_ofs + (int32_t)((int32_t)(h - style->line.width) * i) / num_scale_ticks;
 691              		.loc 1 1343 0 discriminator 2
 692 0182 ADF83E30 		strh	r3, [sp, #62]	@ movhi
 693 0186 ADF84230 		strh	r3, [sp, #66]	@ movhi
 694              		.loc 1 1346 0 discriminator 2
 695 018a 9307     		lsls	r3, r2, #30
ARM GAS  C:\Users\pearlstl\AppData\Local\Temp\ccRrtFoa.s 			page 38


 696 018c ADF840E0 		strh	lr, [sp, #64]	@ movhi
 697 0190 40F19C80 		bpl	.L62
1347:..\..\..\lvgl\version_6.1.2\lvgl\src\lv_objx/lv_chart.c ****                 /*if label order is inversed last tick have number 0*/
1348:..\..\..\lvgl\version_6.1.2\lvgl\src\lv_objx/lv_chart.c ****                 if(i != 0)
1349:..\..\..\lvgl\version_6.1.2\lvgl\src\lv_objx/lv_chart.c ****                     lv_draw_line(&p1, &p2, mask, style, opa_scale);
 698              		.loc 1 1349 0
 699 0194 0A9B     		ldr	r3, [sp, #40]
 700 0196 0093     		str	r3, [sp]
 701 0198 099A     		ldr	r2, [sp, #36]
 702 019a 3B46     		mov	r3, r7
 703 019c 10A9     		add	r1, sp, #64
 704 019e 0FA8     		add	r0, sp, #60
 705 01a0 FFF7FEFF 		bl	lv_draw_line
 706              	.LVL87:
 707              	.L71:
 708              	.LBB52:
 709              	.LBB53:
1259:..\..\..\lvgl\version_6.1.2\lvgl\src\lv_objx/lv_chart.c **** }
 710              		.loc 1 1259 0
 711 01a4 98F80520 		ldrb	r2, [r8, #5]	@ zero_extendqisi2
 712 01a8 B4FBF2F3 		udiv	r3, r4, r2
 713 01ac 02FB1343 		mls	r3, r2, r3, r4
 714 01b0 13F0FF0F 		tst	r3, #255
 715 01b4 43D1     		bne	.L65
 716              	.LVL88:
 717              	.L66:
 718              	.LBE53:
 719              	.LBE52:
 720              	.LBB55:
1350:..\..\..\lvgl\version_6.1.2\lvgl\src\lv_objx/lv_chart.c ****                 else if((y_axis->options & LV_CHART_AXIS_DRAW_LAST_TICK) != 0)
1351:..\..\..\lvgl\version_6.1.2\lvgl\src\lv_objx/lv_chart.c ****                     lv_draw_line(&p1, &p2, mask, style, opa_scale);
1352:..\..\..\lvgl\version_6.1.2\lvgl\src\lv_objx/lv_chart.c ****             } else {
1353:..\..\..\lvgl\version_6.1.2\lvgl\src\lv_objx/lv_chart.c ****                 if(i != num_scale_ticks)
1354:..\..\..\lvgl\version_6.1.2\lvgl\src\lv_objx/lv_chart.c ****                     lv_draw_line(&p1, &p2, mask, style, opa_scale);
1355:..\..\..\lvgl\version_6.1.2\lvgl\src\lv_objx/lv_chart.c ****                 else if((y_axis->options & LV_CHART_AXIS_DRAW_LAST_TICK) != 0)
1356:..\..\..\lvgl\version_6.1.2\lvgl\src\lv_objx/lv_chart.c ****                     lv_draw_line(&p1, &p2, mask, style, opa_scale);
1357:..\..\..\lvgl\version_6.1.2\lvgl\src\lv_objx/lv_chart.c ****             }
1358:..\..\..\lvgl\version_6.1.2\lvgl\src\lv_objx/lv_chart.c **** 
1359:..\..\..\lvgl\version_6.1.2\lvgl\src\lv_objx/lv_chart.c ****             /* draw values if available */
1360:..\..\..\lvgl\version_6.1.2\lvgl\src\lv_objx/lv_chart.c ****             if(num_of_labels != 0) {
1361:..\..\..\lvgl\version_6.1.2\lvgl\src\lv_objx/lv_chart.c ****                 /* add text only to major tick */
1362:..\..\..\lvgl\version_6.1.2\lvgl\src\lv_objx/lv_chart.c ****                 if(lv_chart_is_tick_with_label(i, y_axis)) {
1363:..\..\..\lvgl\version_6.1.2\lvgl\src\lv_objx/lv_chart.c **** 
1364:..\..\..\lvgl\version_6.1.2\lvgl\src\lv_objx/lv_chart.c ****                     lv_chart_get_next_label(&iter, buf);
 721              		.loc 1 1364 0
 722 01b6 5146     		mov	r1, r10
 723 01b8 14A8     		add	r0, sp, #80
 724 01ba FFF7FEFF 		bl	lv_chart_get_next_label
 725              	.LVL89:
1365:..\..\..\lvgl\version_6.1.2\lvgl\src\lv_objx/lv_chart.c **** 
1366:..\..\..\lvgl\version_6.1.2\lvgl\src\lv_objx/lv_chart.c ****                     /* reserve appropriate area */
1367:..\..\..\lvgl\version_6.1.2\lvgl\src\lv_objx/lv_chart.c ****                     lv_point_t size;
1368:..\..\..\lvgl\version_6.1.2\lvgl\src\lv_objx/lv_chart.c ****                     lv_txt_get_size(&size, buf, style->text.font, style->text.letter_space, style->
 726              		.loc 1 1368 0
 727 01be 0421     		movs	r1, #4
 728 01c0 B7F93830 		ldrsh	r3, [r7, #56]
 729 01c4 7A6B     		ldr	r2, [r7, #52]
ARM GAS  C:\Users\pearlstl\AppData\Local\Temp\ccRrtFoa.s 			page 39


 730 01c6 0291     		str	r1, [sp, #8]
 731 01c8 47F61841 		movw	r1, #31768
 732 01cc 0191     		str	r1, [sp, #4]
 733 01ce B7F93A10 		ldrsh	r1, [r7, #58]
 734 01d2 0091     		str	r1, [sp]
 735 01d4 11A8     		add	r0, sp, #68
 736 01d6 5146     		mov	r1, r10
 737 01d8 FFF7FEFF 		bl	lv_txt_get_size
 738              	.LVL90:
1369:..\..\..\lvgl\version_6.1.2\lvgl\src\lv_objx/lv_chart.c ****                                     LV_COORD_MAX, LV_TXT_FLAG_CENTER);
1370:..\..\..\lvgl\version_6.1.2\lvgl\src\lv_objx/lv_chart.c **** 
1371:..\..\..\lvgl\version_6.1.2\lvgl\src\lv_objx/lv_chart.c ****                     /* set the area at some distance of the major tick len left of the tick */
1372:..\..\..\lvgl\version_6.1.2\lvgl\src\lv_objx/lv_chart.c ****                     lv_area_t a = {.y1 = p2.y - size.y / 2, .y2 = p2.y + size.y / 2};
 739              		.loc 1 1372 0
 740 01dc BDF94630 		ldrsh	r3, [sp, #70]
 741 01e0 BDF84220 		ldrh	r2, [sp, #66]
 742 01e4 03EBD373 		add	r3, r3, r3, lsr #31
 743 01e8 A2EB6301 		sub	r1, r2, r3, asr #1
 744 01ec 02EB6303 		add	r3, r2, r3, asr #1
 745 01f0 ADF84E30 		strh	r3, [sp, #78]	@ movhi
1373:..\..\..\lvgl\version_6.1.2\lvgl\src\lv_objx/lv_chart.c **** 
1374:..\..\..\lvgl\version_6.1.2\lvgl\src\lv_objx/lv_chart.c ****                     if(which_axis == LV_CHART_AXIS_PRIMARY_Y) {
 746              		.loc 1 1374 0
 747 01f4 0B9B     		ldr	r3, [sp, #44]
1372:..\..\..\lvgl\version_6.1.2\lvgl\src\lv_objx/lv_chart.c **** 
 748              		.loc 1 1372 0
 749 01f6 ADF84A10 		strh	r1, [sp, #74]	@ movhi
 750              		.loc 1 1374 0
 751 01fa 012B     		cmp	r3, #1
 752 01fc 00F08E80 		beq	.L118
1375:..\..\..\lvgl\version_6.1.2\lvgl\src\lv_objx/lv_chart.c ****                         a.x1 = p2.x - size.x - LV_CHART_AXIS_TO_LABEL_DISTANCE;
1376:..\..\..\lvgl\version_6.1.2\lvgl\src\lv_objx/lv_chart.c ****                         a.x2 = p2.x - LV_CHART_AXIS_TO_LABEL_DISTANCE;
1377:..\..\..\lvgl\version_6.1.2\lvgl\src\lv_objx/lv_chart.c ****                     } else {
1378:..\..\..\lvgl\version_6.1.2\lvgl\src\lv_objx/lv_chart.c ****                         a.x1 = p2.x + LV_CHART_AXIS_TO_LABEL_DISTANCE;
 753              		.loc 1 1378 0
 754 0200 BDF84020 		ldrh	r2, [sp, #64]
1379:..\..\..\lvgl\version_6.1.2\lvgl\src\lv_objx/lv_chart.c ****                         a.x2 = p2.x + size.x + LV_CHART_AXIS_TO_LABEL_DISTANCE;
 755              		.loc 1 1379 0
 756 0204 BDF84430 		ldrh	r3, [sp, #68]
 757 0208 1344     		add	r3, r3, r2
 758 020a 0433     		adds	r3, r3, #4
1378:..\..\..\lvgl\version_6.1.2\lvgl\src\lv_objx/lv_chart.c ****                         a.x2 = p2.x + size.x + LV_CHART_AXIS_TO_LABEL_DISTANCE;
 759              		.loc 1 1378 0
 760 020c 0432     		adds	r2, r2, #4
 761              		.loc 1 1379 0
 762 020e 1BB2     		sxth	r3, r3
1378:..\..\..\lvgl\version_6.1.2\lvgl\src\lv_objx/lv_chart.c ****                         a.x2 = p2.x + size.x + LV_CHART_AXIS_TO_LABEL_DISTANCE;
 763              		.loc 1 1378 0
 764 0210 12B2     		sxth	r2, r2
 765              	.L72:
1380:..\..\..\lvgl\version_6.1.2\lvgl\src\lv_objx/lv_chart.c ****                     }
1381:..\..\..\lvgl\version_6.1.2\lvgl\src\lv_objx/lv_chart.c **** 
1382:..\..\..\lvgl\version_6.1.2\lvgl\src\lv_objx/lv_chart.c ****                     lv_draw_label(&a, mask, style, opa_scale, buf, LV_TXT_FLAG_CENTER, NULL, NULL, 
 766              		.loc 1 1382 0
 767 0212 0D98     		ldr	r0, [sp, #52]
 768 0214 ADF84C30 		strh	r3, [sp, #76]	@ movhi
 769 0218 ADF84820 		strh	r2, [sp, #72]	@ movhi
ARM GAS  C:\Users\pearlstl\AppData\Local\Temp\ccRrtFoa.s 			page 40


 770 021c FFF7FEFF 		bl	lv_obj_get_base_dir
 771              	.LVL91:
 772 0220 0023     		movs	r3, #0
 773 0222 0422     		movs	r2, #4
 774 0224 0590     		str	r0, [sp, #20]
 775 0226 0192     		str	r2, [sp, #4]
 776 0228 0493     		str	r3, [sp, #16]
 777 022a 0393     		str	r3, [sp, #12]
 778 022c 0293     		str	r3, [sp, #8]
 779 022e CDF800A0 		str	r10, [sp]
 780 0232 12A8     		add	r0, sp, #72
 781 0234 0A9B     		ldr	r3, [sp, #40]
 782 0236 0999     		ldr	r1, [sp, #36]
 783 0238 3A46     		mov	r2, r7
 784 023a FFF7FEFF 		bl	lv_draw_label
 785              	.LVL92:
 786              	.L65:
 787              	.LBE55:
1326:..\..\..\lvgl\version_6.1.2\lvgl\src\lv_objx/lv_chart.c ****                                                      /* first point of the tick */
 788              		.loc 1 1326 0 discriminator 2
 789 023e 0134     		adds	r4, r4, #1
 790              	.LVL93:
 791 0240 E4B2     		uxtb	r4, r4
 792              	.LVL94:
 793 0242 B442     		cmp	r4, r6
 794 0244 2346     		mov	r3, r4
 795 0246 59DC     		bgt	.L41
 796              	.LVL95:
 797              	.L73:
 798 0248 ADF83C90 		strh	r9, [sp, #60]	@ movhi
1343:..\..\..\lvgl\version_6.1.2\lvgl\src\lv_objx/lv_chart.c ****                 y_ofs + (int32_t)((int32_t)(h - style->line.width) * i) / num_scale_ticks;
 799              		.loc 1 1343 0
 800 024c B7F94C20 		ldrsh	r2, [r7, #76]
1337:..\..\..\lvgl\version_6.1.2\lvgl\src\lv_objx/lv_chart.c ****                 p2.x = p1.x - major_tick_len; /* major tick */
 801              		.loc 1 1337 0
 802 0250 002D     		cmp	r5, #0
 803 0252 7FF47CAF 		bne	.L119
 804 0256 BDF82010 		ldrh	r1, [sp, #32]
 805 025a ADF84010 		strh	r1, [sp, #64]	@ movhi
1343:..\..\..\lvgl\version_6.1.2\lvgl\src\lv_objx/lv_chart.c ****                 y_ofs + (int32_t)((int32_t)(h - style->line.width) * i) / num_scale_ticks;
 806              		.loc 1 1343 0
 807 025e 0799     		ldr	r1, [sp, #28]
 808 0260 8A1A     		subs	r2, r1, r2
 809 0262 03FB02F3 		mul	r3, r3, r2
1346:..\..\..\lvgl\version_6.1.2\lvgl\src\lv_objx/lv_chart.c ****                 /*if label order is inversed last tick have number 0*/
 810              		.loc 1 1346 0
 811 0266 98F80420 		ldrb	r2, [r8, #4]	@ zero_extendqisi2
1343:..\..\..\lvgl\version_6.1.2\lvgl\src\lv_objx/lv_chart.c ****                 y_ofs + (int32_t)((int32_t)(h - style->line.width) * i) / num_scale_ticks;
 812              		.loc 1 1343 0
 813 026a 93FBF6F3 		sdiv	r3, r3, r6
 814 026e 5B44     		add	r3, r3, fp
 815 0270 1BB2     		sxth	r3, r3
1346:..\..\..\lvgl\version_6.1.2\lvgl\src\lv_objx/lv_chart.c ****                 /*if label order is inversed last tick have number 0*/
 816              		.loc 1 1346 0
 817 0272 9007     		lsls	r0, r2, #30
1343:..\..\..\lvgl\version_6.1.2\lvgl\src\lv_objx/lv_chart.c ****                 y_ofs + (int32_t)((int32_t)(h - style->line.width) * i) / num_scale_ticks;
 818              		.loc 1 1343 0
ARM GAS  C:\Users\pearlstl\AppData\Local\Temp\ccRrtFoa.s 			page 41


 819 0274 ADF83E30 		strh	r3, [sp, #62]	@ movhi
 820 0278 ADF84230 		strh	r3, [sp, #66]	@ movhi
1346:..\..\..\lvgl\version_6.1.2\lvgl\src\lv_objx/lv_chart.c ****                 /*if label order is inversed last tick have number 0*/
 821              		.loc 1 1346 0
 822 027c 26D5     		bpl	.L62
1348:..\..\..\lvgl\version_6.1.2\lvgl\src\lv_objx/lv_chart.c ****                     lv_draw_line(&p1, &p2, mask, style, opa_scale);
 823              		.loc 1 1348 0
 824 027e 002C     		cmp	r4, #0
 825 0280 40F08580 		bne	.L120
 826              	.L64:
1350:..\..\..\lvgl\version_6.1.2\lvgl\src\lv_objx/lv_chart.c ****                     lv_draw_line(&p1, &p2, mask, style, opa_scale);
 827              		.loc 1 1350 0
 828 0284 D107     		lsls	r1, r2, #31
 829 0286 02D4     		bmi	.L121
1360:..\..\..\lvgl\version_6.1.2\lvgl\src\lv_objx/lv_chart.c ****                 /* add text only to major tick */
 830              		.loc 1 1360 0
 831 0288 002D     		cmp	r5, #0
 832 028a 94D1     		bne	.L66
 833 028c D7E7     		b	.L65
 834              	.L121:
1351:..\..\..\lvgl\version_6.1.2\lvgl\src\lv_objx/lv_chart.c ****             } else {
 835              		.loc 1 1351 0
 836 028e 0A9B     		ldr	r3, [sp, #40]
 837 0290 0093     		str	r3, [sp]
 838 0292 099A     		ldr	r2, [sp, #36]
 839 0294 3B46     		mov	r3, r7
 840 0296 10A9     		add	r1, sp, #64
 841 0298 0FA8     		add	r0, sp, #60
 842 029a FFF7FEFF 		bl	lv_draw_line
 843              	.LVL96:
1360:..\..\..\lvgl\version_6.1.2\lvgl\src\lv_objx/lv_chart.c ****                 /* add text only to major tick */
 844              		.loc 1 1360 0
 845 029e 002D     		cmp	r5, #0
 846 02a0 89D1     		bne	.L66
 847 02a2 CCE7     		b	.L65
 848              	.L59:
 849 02a4 BDF83010 		ldrh	r1, [sp, #48]
 850 02a8 ADF84010 		strh	r1, [sp, #64]	@ movhi
1343:..\..\..\lvgl\version_6.1.2\lvgl\src\lv_objx/lv_chart.c ****                 y_ofs + (int32_t)((int32_t)(h - style->line.width) * i) / num_scale_ticks;
 851              		.loc 1 1343 0
 852 02ac 0799     		ldr	r1, [sp, #28]
 853 02ae 8A1A     		subs	r2, r1, r2
 854 02b0 03FB02F3 		mul	r3, r3, r2
1346:..\..\..\lvgl\version_6.1.2\lvgl\src\lv_objx/lv_chart.c ****                 /*if label order is inversed last tick have number 0*/
 855              		.loc 1 1346 0
 856 02b4 98F80420 		ldrb	r2, [r8, #4]	@ zero_extendqisi2
1343:..\..\..\lvgl\version_6.1.2\lvgl\src\lv_objx/lv_chart.c ****                 y_ofs + (int32_t)((int32_t)(h - style->line.width) * i) / num_scale_ticks;
 857              		.loc 1 1343 0
 858 02b8 93FBF6F3 		sdiv	r3, r3, r6
 859 02bc 5B44     		add	r3, r3, fp
 860 02be 1BB2     		sxth	r3, r3
 861 02c0 ADF83E30 		strh	r3, [sp, #62]	@ movhi
 862 02c4 ADF84230 		strh	r3, [sp, #66]	@ movhi
1346:..\..\..\lvgl\version_6.1.2\lvgl\src\lv_objx/lv_chart.c ****                 /*if label order is inversed last tick have number 0*/
 863              		.loc 1 1346 0
 864 02c8 9307     		lsls	r3, r2, #30
 865 02ca DBD4     		bmi	.L64
ARM GAS  C:\Users\pearlstl\AppData\Local\Temp\ccRrtFoa.s 			page 42


 866              	.L62:
1353:..\..\..\lvgl\version_6.1.2\lvgl\src\lv_objx/lv_chart.c ****                     lv_draw_line(&p1, &p2, mask, style, opa_scale);
 867              		.loc 1 1353 0
 868 02cc A642     		cmp	r6, r4
 869 02ce 07D1     		bne	.L109
1355:..\..\..\lvgl\version_6.1.2\lvgl\src\lv_objx/lv_chart.c ****                     lv_draw_line(&p1, &p2, mask, style, opa_scale);
 870              		.loc 1 1355 0
 871 02d0 D207     		lsls	r2, r2, #31
 872 02d2 05D4     		bmi	.L109
 873              	.L70:
1360:..\..\..\lvgl\version_6.1.2\lvgl\src\lv_objx/lv_chart.c ****                 /* add text only to major tick */
 874              		.loc 1 1360 0
 875 02d4 002D     		cmp	r5, #0
 876 02d6 B2D0     		beq	.L65
 877              	.LVL97:
 878              	.LBB56:
 879              	.LBB54:
1259:..\..\..\lvgl\version_6.1.2\lvgl\src\lv_objx/lv_chart.c **** }
 880              		.loc 1 1259 0
 881 02d8 002C     		cmp	r4, #0
 882 02da 7FF463AF 		bne	.L71
 883 02de 6AE7     		b	.L66
 884              	.LVL98:
 885              	.L109:
 886              	.LBE54:
 887              	.LBE56:
1356:..\..\..\lvgl\version_6.1.2\lvgl\src\lv_objx/lv_chart.c ****             }
 888              		.loc 1 1356 0
 889 02e0 0A9B     		ldr	r3, [sp, #40]
 890 02e2 0093     		str	r3, [sp]
 891 02e4 099A     		ldr	r2, [sp, #36]
 892 02e6 3B46     		mov	r3, r7
 893 02e8 10A9     		add	r1, sp, #64
 894 02ea 0FA8     		add	r0, sp, #60
 895 02ec FFF7FEFF 		bl	lv_draw_line
 896              	.LVL99:
 897 02f0 F0E7     		b	.L70
 898              	.LVL100:
 899              	.L114:
 900              	.LBE46:
1268:..\..\..\lvgl\version_6.1.2\lvgl\src\lv_objx/lv_chart.c **** 
 901              		.loc 1 1268 0
 902 02f2 90F82D30 		ldrb	r3, [r0, #45]	@ zero_extendqisi2
 903 02f6 002B     		cmp	r3, #0
 904 02f8 7FF494AE 		bne	.L80
 905              	.LVL101:
 906              	.L41:
1383:..\..\..\lvgl\version_6.1.2\lvgl\src\lv_objx/lv_chart.c ****                 }
1384:..\..\..\lvgl\version_6.1.2\lvgl\src\lv_objx/lv_chart.c ****             }
1385:..\..\..\lvgl\version_6.1.2\lvgl\src\lv_objx/lv_chart.c **** 
1386:..\..\..\lvgl\version_6.1.2\lvgl\src\lv_objx/lv_chart.c ****         }
1387:..\..\..\lvgl\version_6.1.2\lvgl\src\lv_objx/lv_chart.c ****     }
1388:..\..\..\lvgl\version_6.1.2\lvgl\src\lv_objx/lv_chart.c **** }
 907              		.loc 1 1388 0
 908 02fc 21B0     		add	sp, sp, #132
 909              		.cfi_remember_state
 910              		.cfi_def_cfa_offset 36
ARM GAS  C:\Users\pearlstl\AppData\Local\Temp\ccRrtFoa.s 			page 43


 911              		@ sp needed
 912 02fe BDE8F08F 		pop	{r4, r5, r6, r7, r8, r9, r10, fp, pc}
 913              	.LVL102:
 914              	.L117:
 915              		.cfi_restore_state
 916              	.LBB59:
1318:..\..\..\lvgl\version_6.1.2\lvgl\src\lv_objx/lv_chart.c **** 
 917              		.loc 1 1318 0 discriminator 1
 918 0302 0126     		movs	r6, #1
 919 0304 88F80560 		strb	r6, [r8, #5]
 920 0308 FEE6     		b	.L56
 921              	.L116:
1307:..\..\..\lvgl\version_6.1.2\lvgl\src\lv_objx/lv_chart.c ****             minor_tick_len *= -1;
 922              		.loc 1 1307 0
 923 030a CEF1000E 		rsb	lr, lr, #0
 924              	.LVL103:
1308:..\..\..\lvgl\version_6.1.2\lvgl\src\lv_objx/lv_chart.c ****         }
 925              		.loc 1 1308 0
 926 030e CCF1000C 		rsb	ip, ip, #0
 927              	.LVL104:
1307:..\..\..\lvgl\version_6.1.2\lvgl\src\lv_objx/lv_chart.c ****             minor_tick_len *= -1;
 928              		.loc 1 1307 0
 929 0312 4FFA8EFE 		sxtb	lr, lr
 930              	.LVL105:
1308:..\..\..\lvgl\version_6.1.2\lvgl\src\lv_objx/lv_chart.c ****         }
 931              		.loc 1 1308 0
 932 0316 4FFA8CFC 		sxtb	ip, ip
 933              	.LVL106:
 934 031a B3E6     		b	.L52
 935              	.LVL107:
 936              	.L118:
 937 031c BDF84030 		ldrh	r3, [sp, #64]
 938              	.LBB57:
1375:..\..\..\lvgl\version_6.1.2\lvgl\src\lv_objx/lv_chart.c ****                         a.x2 = p2.x - LV_CHART_AXIS_TO_LABEL_DISTANCE;
 939              		.loc 1 1375 0
 940 0320 BDF84420 		ldrh	r2, [sp, #68]
 941 0324 043B     		subs	r3, r3, #4
 942 0326 9BB2     		uxth	r3, r3
 943 0328 9A1A     		subs	r2, r3, r2
 944 032a 12B2     		sxth	r2, r2
1376:..\..\..\lvgl\version_6.1.2\lvgl\src\lv_objx/lv_chart.c ****                     } else {
 945              		.loc 1 1376 0
 946 032c 1BB2     		sxth	r3, r3
 947 032e 70E7     		b	.L72
 948              	.L123:
 949              		.align	2
 950              	.L122:
 951 0330 56555555 		.word	1431655766
 952              	.LVL108:
 953              	.L113:
 954              	.LBE57:
 955              	.LBE59:
1268:..\..\..\lvgl\version_6.1.2\lvgl\src\lv_objx/lv_chart.c **** 
 956              		.loc 1 1268 0 discriminator 1
 957 0334 8369     		ldr	r3, [r0, #24]
1266:..\..\..\lvgl\version_6.1.2\lvgl\src\lv_objx/lv_chart.c **** 
 958              		.loc 1 1266 0 discriminator 1
ARM GAS  C:\Users\pearlstl\AppData\Local\Temp\ccRrtFoa.s 			page 44


 959 0336 00F11808 		add	r8, r0, #24
 960              	.LVL109:
1268:..\..\..\lvgl\version_6.1.2\lvgl\src\lv_objx/lv_chart.c **** 
 961              		.loc 1 1268 0 discriminator 1
 962 033a 13B9     		cbnz	r3, .L78
1268:..\..\..\lvgl\version_6.1.2\lvgl\src\lv_objx/lv_chart.c **** 
 963              		.loc 1 1268 0 is_stmt 0
 964 033c 437F     		ldrb	r3, [r0, #29]	@ zero_extendqisi2
 965 033e 002B     		cmp	r3, #0
 966 0340 DCD0     		beq	.L41
 967              	.L78:
 968              	.LBB60:
1270:..\..\..\lvgl\version_6.1.2\lvgl\src\lv_objx/lv_chart.c ****         lv_opa_t opa_scale       = lv_obj_get_opa_scale(chart);
 969              		.loc 1 1270 0 is_stmt 1
 970 0342 0D9C     		ldr	r4, [sp, #52]
 971 0344 2046     		mov	r0, r4
 972              	.LVL110:
 973 0346 FFF7FEFF 		bl	lv_obj_get_style
 974              	.LVL111:
 975 034a 0746     		mov	r7, r0
 976              	.LVL112:
1271:..\..\..\lvgl\version_6.1.2\lvgl\src\lv_objx/lv_chart.c **** 
 977              		.loc 1 1271 0
 978 034c 2046     		mov	r0, r4
 979              	.LVL113:
 980 034e FFF7FEFF 		bl	lv_obj_get_opa_scale
 981              	.LVL114:
1283:..\..\..\lvgl\version_6.1.2\lvgl\src\lv_objx/lv_chart.c ****         lv_coord_t h     = lv_obj_get_height(chart);
 982              		.loc 1 1283 0
 983 0352 B4F91230 		ldrsh	r3, [r4, #18]
1271:..\..\..\lvgl\version_6.1.2\lvgl\src\lv_objx/lv_chart.c **** 
 984              		.loc 1 1271 0
 985 0356 0A90     		str	r0, [sp, #40]
 986              	.LVL115:
1284:..\..\..\lvgl\version_6.1.2\lvgl\src\lv_objx/lv_chart.c ****         lv_coord_t w     = lv_obj_get_width(chart);
 987              		.loc 1 1284 0
 988 0358 2046     		mov	r0, r4
1283:..\..\..\lvgl\version_6.1.2\lvgl\src\lv_objx/lv_chart.c ****         lv_coord_t h     = lv_obj_get_height(chart);
 989              		.loc 1 1283 0
 990 035a 0893     		str	r3, [sp, #32]
 991              	.LVL116:
1284:..\..\..\lvgl\version_6.1.2\lvgl\src\lv_objx/lv_chart.c ****         lv_coord_t w     = lv_obj_get_width(chart);
 992              		.loc 1 1284 0
 993 035c FFF7FEFF 		bl	lv_obj_get_height
 994              	.LVL117:
 995 0360 0790     		str	r0, [sp, #28]
 996              	.LVL118:
1285:..\..\..\lvgl\version_6.1.2\lvgl\src\lv_objx/lv_chart.c ****         char buf[LV_CHART_AXIS_TICK_LABEL_MAX_LEN + 1]; /* up to N symbols per label + null termina
 997              		.loc 1 1285 0
 998 0362 2046     		mov	r0, r4
 999 0364 FFF7FEFF 		bl	lv_obj_get_width
 1000              	.LVL119:
1295:..\..\..\lvgl\version_6.1.2\lvgl\src\lv_objx/lv_chart.c ****             major_tick_len = (int32_t)w * LV_CHART_AXIS_MAJOR_TICK_LEN_COE;
 1001              		.loc 1 1295 0
 1002 0368 98F806E0 		ldrb	lr, [r8, #6]	@ zero_extendqisi2
1290:..\..\..\lvgl\version_6.1.2\lvgl\src\lv_objx/lv_chart.c ****         else
 1003              		.loc 1 1290 0
ARM GAS  C:\Users\pearlstl\AppData\Local\Temp\ccRrtFoa.s 			page 45


 1004 036c 0D9B     		ldr	r3, [sp, #52]
1295:..\..\..\lvgl\version_6.1.2\lvgl\src\lv_objx/lv_chart.c ****             major_tick_len = (int32_t)w * LV_CHART_AXIS_MAJOR_TICK_LEN_COE;
 1005              		.loc 1 1295 0
 1006 036e BEF1FF0F 		cmp	lr, #255
1290:..\..\..\lvgl\version_6.1.2\lvgl\src\lv_objx/lv_chart.c ****         else
 1007              		.loc 1 1290 0
 1008 0372 B3F910B0 		ldrsh	fp, [r3, #16]
 1009              	.LVL120:
1295:..\..\..\lvgl\version_6.1.2\lvgl\src\lv_objx/lv_chart.c ****             major_tick_len = (int32_t)w * LV_CHART_AXIS_MAJOR_TICK_LEN_COE;
 1010              		.loc 1 1295 0
 1011 0376 7FF471AE 		bne	.L48
 1012              	.LVL121:
 1013              	.L115:
1296:..\..\..\lvgl\version_6.1.2\lvgl\src\lv_objx/lv_chart.c ****         else
 1014              		.loc 1 1296 0
 1015 037a 0C4B     		ldr	r3, .L124
 1016 037c 83FB003E 		smull	r3, lr, r3, r0
 1017 0380 8644     		add	lr, lr, r0
 1018 0382 C017     		asrs	r0, r0, #31
 1019              	.LVL122:
 1020 0384 C0EBEE0E 		rsb	lr, r0, lr, asr #3
 1021 0388 4FFA8EFE 		sxtb	lr, lr
 1022              	.LVL123:
 1023 038c 68E6     		b	.L49
 1024              	.LVL124:
 1025              	.L120:
1349:..\..\..\lvgl\version_6.1.2\lvgl\src\lv_objx/lv_chart.c ****                 else if((y_axis->options & LV_CHART_AXIS_DRAW_LAST_TICK) != 0)
 1026              		.loc 1 1349 0
 1027 038e 0A9B     		ldr	r3, [sp, #40]
 1028 0390 0093     		str	r3, [sp]
 1029 0392 099A     		ldr	r2, [sp, #36]
 1030 0394 3B46     		mov	r3, r7
 1031 0396 10A9     		add	r1, sp, #64
 1032 0398 0FA8     		add	r0, sp, #60
 1033 039a FFF7FEFF 		bl	lv_draw_line
 1034              	.LVL125:
 1035 039e 4EE7     		b	.L65
 1036              	.LVL126:
 1037              	.L83:
 1038              	.LBB58:
 1039              	.LBB50:
1176:..\..\..\lvgl\version_6.1.2\lvgl\src\lv_objx/lv_chart.c ****         iterator.is_reverse_iter = 0;
 1040              		.loc 1 1176 0
 1041 03a0 2346     		mov	r3, r4
 1042 03a2 95E6     		b	.L55
 1043              	.LVL127:
 1044              	.L82:
1171:..\..\..\lvgl\version_6.1.2\lvgl\src\lv_objx/lv_chart.c ****             if(list[j] == '\n')
 1045              		.loc 1 1171 0
 1046 03a4 0B46     		mov	r3, r1
 1047 03a6 0125     		movs	r5, #1
 1048 03a8 8CE6     		b	.L53
 1049              	.L125:
 1050 03aa 00BF     		.align	2
 1051              	.L124:
 1052 03ac 89888888 		.word	-2004318071
 1053              	.LBE50:
ARM GAS  C:\Users\pearlstl\AppData\Local\Temp\ccRrtFoa.s 			page 46


 1054              	.LBE58:
 1055              	.LBE60:
 1056              		.cfi_endproc
 1057              	.LFE74:
 1058              		.size	lv_chart_draw_y_ticks, .-lv_chart_draw_y_ticks
 1059              		.section	.text.lv_chart_inv_lines,"ax",%progbits
 1060              		.align	2
 1061              		.thumb
 1062              		.thumb_func
 1063              		.type	lv_chart_inv_lines, %function
 1064              	lv_chart_inv_lines:
 1065              	.LFB77:
1389:..\..\..\lvgl\version_6.1.2\lvgl\src\lv_objx/lv_chart.c **** 
1390:..\..\..\lvgl\version_6.1.2\lvgl\src\lv_objx/lv_chart.c **** static void lv_chart_draw_x_ticks(lv_obj_t * chart, const lv_area_t * mask)
1391:..\..\..\lvgl\version_6.1.2\lvgl\src\lv_objx/lv_chart.c **** {
1392:..\..\..\lvgl\version_6.1.2\lvgl\src\lv_objx/lv_chart.c ****     lv_chart_ext_t * ext = lv_obj_get_ext_attr(chart);
1393:..\..\..\lvgl\version_6.1.2\lvgl\src\lv_objx/lv_chart.c **** 
1394:..\..\..\lvgl\version_6.1.2\lvgl\src\lv_objx/lv_chart.c ****     if(ext->x_axis.list_of_values != NULL || ext->x_axis.num_tick_marks != 0) {
1395:..\..\..\lvgl\version_6.1.2\lvgl\src\lv_objx/lv_chart.c **** 
1396:..\..\..\lvgl\version_6.1.2\lvgl\src\lv_objx/lv_chart.c ****         const lv_style_t * style = lv_obj_get_style(chart);
1397:..\..\..\lvgl\version_6.1.2\lvgl\src\lv_objx/lv_chart.c ****         lv_opa_t opa_scale       = lv_obj_get_opa_scale(chart);
1398:..\..\..\lvgl\version_6.1.2\lvgl\src\lv_objx/lv_chart.c **** 
1399:..\..\..\lvgl\version_6.1.2\lvgl\src\lv_objx/lv_chart.c ****         uint8_t i;
1400:..\..\..\lvgl\version_6.1.2\lvgl\src\lv_objx/lv_chart.c ****         uint8_t num_of_labels;
1401:..\..\..\lvgl\version_6.1.2\lvgl\src\lv_objx/lv_chart.c ****         uint8_t num_scale_ticks;
1402:..\..\..\lvgl\version_6.1.2\lvgl\src\lv_objx/lv_chart.c ****         uint8_t major_tick_len, minor_tick_len;
1403:..\..\..\lvgl\version_6.1.2\lvgl\src\lv_objx/lv_chart.c ****         lv_chart_label_iterator_t iter;
1404:..\..\..\lvgl\version_6.1.2\lvgl\src\lv_objx/lv_chart.c ****         lv_point_t p1;
1405:..\..\..\lvgl\version_6.1.2\lvgl\src\lv_objx/lv_chart.c ****         lv_point_t p2;
1406:..\..\..\lvgl\version_6.1.2\lvgl\src\lv_objx/lv_chart.c ****         lv_coord_t x_ofs = chart->coords.x1;
1407:..\..\..\lvgl\version_6.1.2\lvgl\src\lv_objx/lv_chart.c ****         lv_coord_t y_ofs = chart->coords.y1;
1408:..\..\..\lvgl\version_6.1.2\lvgl\src\lv_objx/lv_chart.c ****         lv_coord_t h     = lv_obj_get_height(chart);
1409:..\..\..\lvgl\version_6.1.2\lvgl\src\lv_objx/lv_chart.c ****         lv_coord_t w     = lv_obj_get_width(chart);
1410:..\..\..\lvgl\version_6.1.2\lvgl\src\lv_objx/lv_chart.c ****         char buf[LV_CHART_AXIS_TICK_LABEL_MAX_LEN + 1]; /* up to N symbols per label + null termina
1411:..\..\..\lvgl\version_6.1.2\lvgl\src\lv_objx/lv_chart.c **** 
1412:..\..\..\lvgl\version_6.1.2\lvgl\src\lv_objx/lv_chart.c ****         /* calculate the size of tick marks */
1413:..\..\..\lvgl\version_6.1.2\lvgl\src\lv_objx/lv_chart.c ****         if(ext->x_axis.major_tick_len == LV_CHART_TICK_LENGTH_AUTO)
1414:..\..\..\lvgl\version_6.1.2\lvgl\src\lv_objx/lv_chart.c ****             major_tick_len = (int32_t)w * LV_CHART_AXIS_MAJOR_TICK_LEN_COE;
1415:..\..\..\lvgl\version_6.1.2\lvgl\src\lv_objx/lv_chart.c ****         else
1416:..\..\..\lvgl\version_6.1.2\lvgl\src\lv_objx/lv_chart.c ****             major_tick_len = ext->x_axis.major_tick_len;
1417:..\..\..\lvgl\version_6.1.2\lvgl\src\lv_objx/lv_chart.c **** 
1418:..\..\..\lvgl\version_6.1.2\lvgl\src\lv_objx/lv_chart.c ****         if(ext->x_axis.minor_tick_len == LV_CHART_TICK_LENGTH_AUTO)
1419:..\..\..\lvgl\version_6.1.2\lvgl\src\lv_objx/lv_chart.c ****             minor_tick_len = major_tick_len * LV_CHART_AXIS_MINOR_TICK_LEN_COE;
1420:..\..\..\lvgl\version_6.1.2\lvgl\src\lv_objx/lv_chart.c ****         else
1421:..\..\..\lvgl\version_6.1.2\lvgl\src\lv_objx/lv_chart.c ****             minor_tick_len = ext->x_axis.minor_tick_len;
1422:..\..\..\lvgl\version_6.1.2\lvgl\src\lv_objx/lv_chart.c **** 
1423:..\..\..\lvgl\version_6.1.2\lvgl\src\lv_objx/lv_chart.c ****         /*determine the number of options */
1424:..\..\..\lvgl\version_6.1.2\lvgl\src\lv_objx/lv_chart.c ****         iter = lv_chart_create_label_iter(ext->x_axis.list_of_values, LV_CHART_LABEL_ITERATOR_FORWA
1425:..\..\..\lvgl\version_6.1.2\lvgl\src\lv_objx/lv_chart.c ****         num_of_labels = iter.items_left;
1426:..\..\..\lvgl\version_6.1.2\lvgl\src\lv_objx/lv_chart.c **** 
1427:..\..\..\lvgl\version_6.1.2\lvgl\src\lv_objx/lv_chart.c ****         /* we can't have string labels without ticks step, set to 1 if not specified */
1428:..\..\..\lvgl\version_6.1.2\lvgl\src\lv_objx/lv_chart.c ****         if(ext->x_axis.num_tick_marks == 0) ext->x_axis.num_tick_marks = 1;
1429:..\..\..\lvgl\version_6.1.2\lvgl\src\lv_objx/lv_chart.c **** 
1430:..\..\..\lvgl\version_6.1.2\lvgl\src\lv_objx/lv_chart.c ****         /* calculate total number of marks */
1431:..\..\..\lvgl\version_6.1.2\lvgl\src\lv_objx/lv_chart.c ****         if(num_of_labels < 2)
1432:..\..\..\lvgl\version_6.1.2\lvgl\src\lv_objx/lv_chart.c ****             num_scale_ticks = ext->x_axis.num_tick_marks;
1433:..\..\..\lvgl\version_6.1.2\lvgl\src\lv_objx/lv_chart.c ****         else
ARM GAS  C:\Users\pearlstl\AppData\Local\Temp\ccRrtFoa.s 			page 47


1434:..\..\..\lvgl\version_6.1.2\lvgl\src\lv_objx/lv_chart.c ****             num_scale_ticks = (ext->x_axis.num_tick_marks * (num_of_labels - 1));
1435:..\..\..\lvgl\version_6.1.2\lvgl\src\lv_objx/lv_chart.c **** 
1436:..\..\..\lvgl\version_6.1.2\lvgl\src\lv_objx/lv_chart.c ****         for(i = 0; i < (num_scale_ticks + 1); i++) { /* one extra loop - it may not exist in the li
1437:..\..\..\lvgl\version_6.1.2\lvgl\src\lv_objx/lv_chart.c ****                                                      /* first point of the tick */
1438:..\..\..\lvgl\version_6.1.2\lvgl\src\lv_objx/lv_chart.c ****             p1.y = h + y_ofs;
1439:..\..\..\lvgl\version_6.1.2\lvgl\src\lv_objx/lv_chart.c **** 
1440:..\..\..\lvgl\version_6.1.2\lvgl\src\lv_objx/lv_chart.c ****             /* second point of the tick */
1441:..\..\..\lvgl\version_6.1.2\lvgl\src\lv_objx/lv_chart.c ****             if((num_of_labels != 0) && (i == 0 || i % ext->x_axis.num_tick_marks == 0))
1442:..\..\..\lvgl\version_6.1.2\lvgl\src\lv_objx/lv_chart.c ****                 p2.y = p1.y + major_tick_len; /* major tick */
1443:..\..\..\lvgl\version_6.1.2\lvgl\src\lv_objx/lv_chart.c ****             else
1444:..\..\..\lvgl\version_6.1.2\lvgl\src\lv_objx/lv_chart.c ****                 p2.y = p1.y + minor_tick_len; /* minor tick */
1445:..\..\..\lvgl\version_6.1.2\lvgl\src\lv_objx/lv_chart.c **** 
1446:..\..\..\lvgl\version_6.1.2\lvgl\src\lv_objx/lv_chart.c ****             /* draw a line at moving x position */
1447:..\..\..\lvgl\version_6.1.2\lvgl\src\lv_objx/lv_chart.c ****             p2.x = p1.x = x_ofs + (int32_t)((int32_t)(w - style->line.width) * i) / num_scale_ticks
1448:..\..\..\lvgl\version_6.1.2\lvgl\src\lv_objx/lv_chart.c **** 
1449:..\..\..\lvgl\version_6.1.2\lvgl\src\lv_objx/lv_chart.c ****             if(i != num_scale_ticks)
1450:..\..\..\lvgl\version_6.1.2\lvgl\src\lv_objx/lv_chart.c ****                 lv_draw_line(&p1, &p2, mask, style, opa_scale);
1451:..\..\..\lvgl\version_6.1.2\lvgl\src\lv_objx/lv_chart.c ****             else if((ext->x_axis.options & LV_CHART_AXIS_DRAW_LAST_TICK) != 0)
1452:..\..\..\lvgl\version_6.1.2\lvgl\src\lv_objx/lv_chart.c ****                 lv_draw_line(&p1, &p2, mask, style, opa_scale);
1453:..\..\..\lvgl\version_6.1.2\lvgl\src\lv_objx/lv_chart.c **** 
1454:..\..\..\lvgl\version_6.1.2\lvgl\src\lv_objx/lv_chart.c ****             /* draw values if available */
1455:..\..\..\lvgl\version_6.1.2\lvgl\src\lv_objx/lv_chart.c ****             if(num_of_labels != 0) {
1456:..\..\..\lvgl\version_6.1.2\lvgl\src\lv_objx/lv_chart.c ****                 /* add text only to major tick */
1457:..\..\..\lvgl\version_6.1.2\lvgl\src\lv_objx/lv_chart.c ****                 if(lv_chart_is_tick_with_label(i, &(ext->x_axis))) {
1458:..\..\..\lvgl\version_6.1.2\lvgl\src\lv_objx/lv_chart.c ****                     lv_chart_get_next_label(&iter, buf);
1459:..\..\..\lvgl\version_6.1.2\lvgl\src\lv_objx/lv_chart.c **** 
1460:..\..\..\lvgl\version_6.1.2\lvgl\src\lv_objx/lv_chart.c ****                     /* reserve appropriate area */
1461:..\..\..\lvgl\version_6.1.2\lvgl\src\lv_objx/lv_chart.c ****                     lv_point_t size;
1462:..\..\..\lvgl\version_6.1.2\lvgl\src\lv_objx/lv_chart.c ****                     lv_txt_get_size(&size, buf, style->text.font, style->text.letter_space, style->
1463:..\..\..\lvgl\version_6.1.2\lvgl\src\lv_objx/lv_chart.c ****                                     LV_COORD_MAX, LV_TXT_FLAG_CENTER);
1464:..\..\..\lvgl\version_6.1.2\lvgl\src\lv_objx/lv_chart.c **** 
1465:..\..\..\lvgl\version_6.1.2\lvgl\src\lv_objx/lv_chart.c ****                     /* set the area at some distance of the major tick len under of the tick */
1466:..\..\..\lvgl\version_6.1.2\lvgl\src\lv_objx/lv_chart.c ****                     lv_area_t a = {(p2.x - size.x / 2), (p2.y + LV_CHART_AXIS_TO_LABEL_DISTANCE), (
1467:..\..\..\lvgl\version_6.1.2\lvgl\src\lv_objx/lv_chart.c ****                                    (p2.y + size.y + LV_CHART_AXIS_TO_LABEL_DISTANCE)};
1468:..\..\..\lvgl\version_6.1.2\lvgl\src\lv_objx/lv_chart.c ****                     lv_draw_label(&a, mask, style, opa_scale, buf, LV_TXT_FLAG_CENTER, NULL, NULL, 
1469:..\..\..\lvgl\version_6.1.2\lvgl\src\lv_objx/lv_chart.c ****                 }
1470:..\..\..\lvgl\version_6.1.2\lvgl\src\lv_objx/lv_chart.c ****             }
1471:..\..\..\lvgl\version_6.1.2\lvgl\src\lv_objx/lv_chart.c ****         }
1472:..\..\..\lvgl\version_6.1.2\lvgl\src\lv_objx/lv_chart.c ****     }
1473:..\..\..\lvgl\version_6.1.2\lvgl\src\lv_objx/lv_chart.c **** }
1474:..\..\..\lvgl\version_6.1.2\lvgl\src\lv_objx/lv_chart.c **** 
1475:..\..\..\lvgl\version_6.1.2\lvgl\src\lv_objx/lv_chart.c **** static void lv_chart_draw_axes(lv_obj_t * chart, const lv_area_t * mask)
1476:..\..\..\lvgl\version_6.1.2\lvgl\src\lv_objx/lv_chart.c **** {
1477:..\..\..\lvgl\version_6.1.2\lvgl\src\lv_objx/lv_chart.c ****     lv_chart_draw_y_ticks(chart, mask, LV_CHART_AXIS_PRIMARY_Y);
1478:..\..\..\lvgl\version_6.1.2\lvgl\src\lv_objx/lv_chart.c ****     lv_chart_draw_y_ticks(chart, mask, LV_CHART_AXIS_SECONDARY_Y);
1479:..\..\..\lvgl\version_6.1.2\lvgl\src\lv_objx/lv_chart.c ****     lv_chart_draw_x_ticks(chart, mask);
1480:..\..\..\lvgl\version_6.1.2\lvgl\src\lv_objx/lv_chart.c **** }
1481:..\..\..\lvgl\version_6.1.2\lvgl\src\lv_objx/lv_chart.c **** 
1482:..\..\..\lvgl\version_6.1.2\lvgl\src\lv_objx/lv_chart.c **** /**
1483:..\..\..\lvgl\version_6.1.2\lvgl\src\lv_objx/lv_chart.c ****  * invalid area of the new line data lines on a chart
1484:..\..\..\lvgl\version_6.1.2\lvgl\src\lv_objx/lv_chart.c ****  * @param obj pointer to chart object
1485:..\..\..\lvgl\version_6.1.2\lvgl\src\lv_objx/lv_chart.c ****  */
1486:..\..\..\lvgl\version_6.1.2\lvgl\src\lv_objx/lv_chart.c **** static void lv_chart_inv_lines(lv_obj_t * chart, uint16_t i)
1487:..\..\..\lvgl\version_6.1.2\lvgl\src\lv_objx/lv_chart.c **** {
 1066              		.loc 1 1487 0
 1067              		.cfi_startproc
 1068              		@ args = 0, pretend = 0, frame = 8
ARM GAS  C:\Users\pearlstl\AppData\Local\Temp\ccRrtFoa.s 			page 48


 1069              		@ frame_needed = 0, uses_anonymous_args = 0
 1070              	.LVL128:
 1071 0000 2DE9F041 		push	{r4, r5, r6, r7, r8, lr}
 1072              		.cfi_def_cfa_offset 24
 1073              		.cfi_offset 4, -24
 1074              		.cfi_offset 5, -20
 1075              		.cfi_offset 6, -16
 1076              		.cfi_offset 7, -12
 1077              		.cfi_offset 8, -8
 1078              		.cfi_offset 14, -4
 1079 0004 82B0     		sub	sp, sp, #8
 1080              		.cfi_def_cfa_offset 32
 1081              		.loc 1 1487 0
 1082 0006 0C46     		mov	r4, r1
 1083 0008 0546     		mov	r5, r0
1488:..\..\..\lvgl\version_6.1.2\lvgl\src\lv_objx/lv_chart.c ****     lv_chart_ext_t * ext = lv_obj_get_ext_attr(chart);
 1084              		.loc 1 1488 0
 1085 000a FFF7FEFF 		bl	lv_obj_get_ext_attr
 1086              	.LVL129:
 1087 000e 0646     		mov	r6, r0
 1088              	.LVL130:
1489:..\..\..\lvgl\version_6.1.2\lvgl\src\lv_objx/lv_chart.c **** 
1490:..\..\..\lvgl\version_6.1.2\lvgl\src\lv_objx/lv_chart.c ****     lv_coord_t w     = lv_obj_get_width(chart);
 1089              		.loc 1 1490 0
 1090 0010 2846     		mov	r0, r5
 1091              	.LVL131:
 1092 0012 FFF7FEFF 		bl	lv_obj_get_width
 1093              	.LVL132:
1491:..\..\..\lvgl\version_6.1.2\lvgl\src\lv_objx/lv_chart.c ****     lv_coord_t x_ofs = chart->coords.x1;
1492:..\..\..\lvgl\version_6.1.2\lvgl\src\lv_objx/lv_chart.c **** 
1493:..\..\..\lvgl\version_6.1.2\lvgl\src\lv_objx/lv_chart.c ****     if(i < ext->point_cnt) {
 1094              		.loc 1 1493 0
 1095 0016 738A     		ldrh	r3, [r6, #18]
 1096 0018 A342     		cmp	r3, r4
 1097 001a 02D8     		bhi	.L134
 1098              	.LVL133:
 1099              	.L126:
1494:..\..\..\lvgl\version_6.1.2\lvgl\src\lv_objx/lv_chart.c ****         lv_area_t coords;
1495:..\..\..\lvgl\version_6.1.2\lvgl\src\lv_objx/lv_chart.c ****         lv_obj_get_coords(chart, &coords);
1496:..\..\..\lvgl\version_6.1.2\lvgl\src\lv_objx/lv_chart.c ****         if(i < ext->point_cnt - 1) {
1497:..\..\..\lvgl\version_6.1.2\lvgl\src\lv_objx/lv_chart.c ****             coords.x1 = ((w * i) / (ext->point_cnt - 1)) + x_ofs - ext->series.width;
1498:..\..\..\lvgl\version_6.1.2\lvgl\src\lv_objx/lv_chart.c ****             coords.x2 = ((w * (i + 1)) / (ext->point_cnt - 1)) + x_ofs + ext->series.width;
1499:..\..\..\lvgl\version_6.1.2\lvgl\src\lv_objx/lv_chart.c ****             lv_obj_invalidate_area(chart, &coords);
1500:..\..\..\lvgl\version_6.1.2\lvgl\src\lv_objx/lv_chart.c ****         }
1501:..\..\..\lvgl\version_6.1.2\lvgl\src\lv_objx/lv_chart.c **** 
1502:..\..\..\lvgl\version_6.1.2\lvgl\src\lv_objx/lv_chart.c ****         if(i > 0) {
1503:..\..\..\lvgl\version_6.1.2\lvgl\src\lv_objx/lv_chart.c ****             coords.x1 = ((w * (i - 1)) / (ext->point_cnt - 1)) + x_ofs - ext->series.width;
1504:..\..\..\lvgl\version_6.1.2\lvgl\src\lv_objx/lv_chart.c ****             coords.x2 = ((w * i) / (ext->point_cnt - 1)) + x_ofs + ext->series.width;
1505:..\..\..\lvgl\version_6.1.2\lvgl\src\lv_objx/lv_chart.c ****             lv_obj_invalidate_area(chart, &coords);
1506:..\..\..\lvgl\version_6.1.2\lvgl\src\lv_objx/lv_chart.c ****         }
1507:..\..\..\lvgl\version_6.1.2\lvgl\src\lv_objx/lv_chart.c ****     }
1508:..\..\..\lvgl\version_6.1.2\lvgl\src\lv_objx/lv_chart.c **** }
 1100              		.loc 1 1508 0
 1101 001c 02B0     		add	sp, sp, #8
 1102              		.cfi_remember_state
 1103              		.cfi_def_cfa_offset 24
 1104              		@ sp needed
ARM GAS  C:\Users\pearlstl\AppData\Local\Temp\ccRrtFoa.s 			page 49


 1105 001e BDE8F081 		pop	{r4, r5, r6, r7, r8, pc}
 1106              	.LVL134:
 1107              	.L134:
 1108              		.cfi_restore_state
 1109 0022 0746     		mov	r7, r0
 1110              	.LBB61:
1495:..\..\..\lvgl\version_6.1.2\lvgl\src\lv_objx/lv_chart.c ****         if(i < ext->point_cnt - 1) {
 1111              		.loc 1 1495 0
 1112 0024 6946     		mov	r1, sp
 1113 0026 2846     		mov	r0, r5
 1114              	.LVL135:
 1115              	.LBE61:
1491:..\..\..\lvgl\version_6.1.2\lvgl\src\lv_objx/lv_chart.c ****     lv_coord_t x_ofs = chart->coords.x1;
 1116              		.loc 1 1491 0
 1117 0028 B5F91080 		ldrsh	r8, [r5, #16]
 1118              	.LBB62:
1495:..\..\..\lvgl\version_6.1.2\lvgl\src\lv_objx/lv_chart.c ****         if(i < ext->point_cnt - 1) {
 1119              		.loc 1 1495 0
 1120 002c FFF7FEFF 		bl	lv_obj_get_coords
 1121              	.LVL136:
1496:..\..\..\lvgl\version_6.1.2\lvgl\src\lv_objx/lv_chart.c ****             coords.x1 = ((w * i) / (ext->point_cnt - 1)) + x_ofs - ext->series.width;
 1122              		.loc 1 1496 0
 1123 0030 738A     		ldrh	r3, [r6, #18]
 1124 0032 013B     		subs	r3, r3, #1
 1125 0034 9C42     		cmp	r4, r3
 1126 0036 1FDB     		blt	.L135
1502:..\..\..\lvgl\version_6.1.2\lvgl\src\lv_objx/lv_chart.c ****             coords.x1 = ((w * (i - 1)) / (ext->point_cnt - 1)) + x_ofs - ext->series.width;
 1127              		.loc 1 1502 0
 1128 0038 002C     		cmp	r4, #0
 1129 003a EFD0     		beq	.L126
 1130              	.L136:
1503:..\..\..\lvgl\version_6.1.2\lvgl\src\lv_objx/lv_chart.c ****             coords.x2 = ((w * i) / (ext->point_cnt - 1)) + x_ofs + ext->series.width;
 1131              		.loc 1 1503 0
 1132 003c B18E     		ldrh	r1, [r6, #52]
 1133 003e 738A     		ldrh	r3, [r6, #18]
 1134 0040 1FFA88F8 		uxth	r8, r8
 1135 0044 013C     		subs	r4, r4, #1
1504:..\..\..\lvgl\version_6.1.2\lvgl\src\lv_objx/lv_chart.c ****             lv_obj_invalidate_area(chart, &coords);
 1136              		.loc 1 1504 0
 1137 0046 08EB0102 		add	r2, r8, r1
1503:..\..\..\lvgl\version_6.1.2\lvgl\src\lv_objx/lv_chart.c ****             coords.x2 = ((w * i) / (ext->point_cnt - 1)) + x_ofs + ext->series.width;
 1138              		.loc 1 1503 0
 1139 004a 07FB04F4 		mul	r4, r7, r4
 1140 004e C1EB0808 		rsb	r8, r1, r8
 1141 0052 013B     		subs	r3, r3, #1
1504:..\..\..\lvgl\version_6.1.2\lvgl\src\lv_objx/lv_chart.c ****             lv_obj_invalidate_area(chart, &coords);
 1142              		.loc 1 1504 0
 1143 0054 2744     		add	r7, r7, r4
1505:..\..\..\lvgl\version_6.1.2\lvgl\src\lv_objx/lv_chart.c ****         }
 1144              		.loc 1 1505 0
 1145 0056 6946     		mov	r1, sp
1504:..\..\..\lvgl\version_6.1.2\lvgl\src\lv_objx/lv_chart.c ****             lv_obj_invalidate_area(chart, &coords);
 1146              		.loc 1 1504 0
 1147 0058 97FBF3F7 		sdiv	r7, r7, r3
1503:..\..\..\lvgl\version_6.1.2\lvgl\src\lv_objx/lv_chart.c ****             coords.x2 = ((w * i) / (ext->point_cnt - 1)) + x_ofs + ext->series.width;
 1148              		.loc 1 1503 0
 1149 005c 94FBF3F4 		sdiv	r4, r4, r3
ARM GAS  C:\Users\pearlstl\AppData\Local\Temp\ccRrtFoa.s 			page 50


1504:..\..\..\lvgl\version_6.1.2\lvgl\src\lv_objx/lv_chart.c ****             lv_obj_invalidate_area(chart, &coords);
 1150              		.loc 1 1504 0
 1151 0060 1744     		add	r7, r7, r2
1505:..\..\..\lvgl\version_6.1.2\lvgl\src\lv_objx/lv_chart.c ****         }
 1152              		.loc 1 1505 0
 1153 0062 2846     		mov	r0, r5
1503:..\..\..\lvgl\version_6.1.2\lvgl\src\lv_objx/lv_chart.c ****             coords.x2 = ((w * i) / (ext->point_cnt - 1)) + x_ofs + ext->series.width;
 1154              		.loc 1 1503 0
 1155 0064 4444     		add	r4, r4, r8
1504:..\..\..\lvgl\version_6.1.2\lvgl\src\lv_objx/lv_chart.c ****             lv_obj_invalidate_area(chart, &coords);
 1156              		.loc 1 1504 0
 1157 0066 ADF80470 		strh	r7, [sp, #4]	@ movhi
1503:..\..\..\lvgl\version_6.1.2\lvgl\src\lv_objx/lv_chart.c ****             coords.x2 = ((w * i) / (ext->point_cnt - 1)) + x_ofs + ext->series.width;
 1158              		.loc 1 1503 0
 1159 006a ADF80040 		strh	r4, [sp]	@ movhi
1505:..\..\..\lvgl\version_6.1.2\lvgl\src\lv_objx/lv_chart.c ****         }
 1160              		.loc 1 1505 0
 1161 006e FFF7FEFF 		bl	lv_obj_invalidate_area
 1162              	.LVL137:
 1163              	.LBE62:
 1164              		.loc 1 1508 0
 1165 0072 02B0     		add	sp, sp, #8
 1166              		.cfi_remember_state
 1167              		.cfi_def_cfa_offset 24
 1168              		@ sp needed
 1169 0074 BDE8F081 		pop	{r4, r5, r6, r7, r8, pc}
 1170              	.LVL138:
 1171              	.L135:
 1172              		.cfi_restore_state
 1173              	.LBB63:
1497:..\..\..\lvgl\version_6.1.2\lvgl\src\lv_objx/lv_chart.c ****             coords.x2 = ((w * (i + 1)) / (ext->point_cnt - 1)) + x_ofs + ext->series.width;
 1174              		.loc 1 1497 0
 1175 0078 B6F834E0 		ldrh	lr, [r6, #52]
 1176 007c 1FFA88F2 		uxth	r2, r8
1498:..\..\..\lvgl\version_6.1.2\lvgl\src\lv_objx/lv_chart.c ****             lv_obj_invalidate_area(chart, &coords);
 1177              		.loc 1 1498 0
 1178 0080 02EB0E00 		add	r0, r2, lr
1497:..\..\..\lvgl\version_6.1.2\lvgl\src\lv_objx/lv_chart.c ****             coords.x2 = ((w * (i + 1)) / (ext->point_cnt - 1)) + x_ofs + ext->series.width;
 1179              		.loc 1 1497 0
 1180 0084 07FB04F1 		mul	r1, r7, r4
 1181 0088 CEEB0202 		rsb	r2, lr, r2
1498:..\..\..\lvgl\version_6.1.2\lvgl\src\lv_objx/lv_chart.c ****             lv_obj_invalidate_area(chart, &coords);
 1182              		.loc 1 1498 0
 1183 008c 07EB010E 		add	lr, r7, r1
1497:..\..\..\lvgl\version_6.1.2\lvgl\src\lv_objx/lv_chart.c ****             coords.x2 = ((w * (i + 1)) / (ext->point_cnt - 1)) + x_ofs + ext->series.width;
 1184              		.loc 1 1497 0
 1185 0090 91FBF3F1 		sdiv	r1, r1, r3
1498:..\..\..\lvgl\version_6.1.2\lvgl\src\lv_objx/lv_chart.c ****             lv_obj_invalidate_area(chart, &coords);
 1186              		.loc 1 1498 0
 1187 0094 9EFBF3F3 		sdiv	r3, lr, r3
1497:..\..\..\lvgl\version_6.1.2\lvgl\src\lv_objx/lv_chart.c ****             coords.x2 = ((w * (i + 1)) / (ext->point_cnt - 1)) + x_ofs + ext->series.width;
 1188              		.loc 1 1497 0
 1189 0098 0A44     		add	r2, r2, r1
1498:..\..\..\lvgl\version_6.1.2\lvgl\src\lv_objx/lv_chart.c ****             lv_obj_invalidate_area(chart, &coords);
 1190              		.loc 1 1498 0
 1191 009a 0344     		add	r3, r3, r0
1499:..\..\..\lvgl\version_6.1.2\lvgl\src\lv_objx/lv_chart.c ****         }
ARM GAS  C:\Users\pearlstl\AppData\Local\Temp\ccRrtFoa.s 			page 51


 1192              		.loc 1 1499 0
 1193 009c 6946     		mov	r1, sp
 1194 009e 2846     		mov	r0, r5
1498:..\..\..\lvgl\version_6.1.2\lvgl\src\lv_objx/lv_chart.c ****             lv_obj_invalidate_area(chart, &coords);
 1195              		.loc 1 1498 0
 1196 00a0 ADF80430 		strh	r3, [sp, #4]	@ movhi
1497:..\..\..\lvgl\version_6.1.2\lvgl\src\lv_objx/lv_chart.c ****             coords.x2 = ((w * (i + 1)) / (ext->point_cnt - 1)) + x_ofs + ext->series.width;
 1197              		.loc 1 1497 0
 1198 00a4 ADF80020 		strh	r2, [sp]	@ movhi
1499:..\..\..\lvgl\version_6.1.2\lvgl\src\lv_objx/lv_chart.c ****         }
 1199              		.loc 1 1499 0
 1200 00a8 FFF7FEFF 		bl	lv_obj_invalidate_area
 1201              	.LVL139:
1502:..\..\..\lvgl\version_6.1.2\lvgl\src\lv_objx/lv_chart.c ****             coords.x1 = ((w * (i - 1)) / (ext->point_cnt - 1)) + x_ofs - ext->series.width;
 1202              		.loc 1 1502 0
 1203 00ac 002C     		cmp	r4, #0
 1204 00ae B5D0     		beq	.L126
 1205 00b0 C4E7     		b	.L136
 1206              	.LBE63:
 1207              		.cfi_endproc
 1208              	.LFE77:
 1209              		.size	lv_chart_inv_lines, .-lv_chart_inv_lines
 1210 00b2 00BF     		.section	.text.lv_chart_signal,"ax",%progbits
 1211              		.align	2
 1212              		.thumb
 1213              		.thumb_func
 1214              		.type	lv_chart_signal, %function
 1215              	lv_chart_signal:
 1216              	.LFB64:
 763:..\..\..\lvgl\version_6.1.2\lvgl\src\lv_objx/lv_chart.c ****     /* Include the ancient signal function */
 1217              		.loc 1 763 0
 1218              		.cfi_startproc
 1219              		@ args = 0, pretend = 0, frame = 0
 1220              		@ frame_needed = 0, uses_anonymous_args = 0
 1221              	.LVL140:
 1222 0000 F8B5     		push	{r3, r4, r5, r6, r7, lr}
 1223              		.cfi_def_cfa_offset 24
 1224              		.cfi_offset 3, -24
 1225              		.cfi_offset 4, -20
 1226              		.cfi_offset 5, -16
 1227              		.cfi_offset 6, -12
 1228              		.cfi_offset 7, -8
 1229              		.cfi_offset 14, -4
 766:..\..\..\lvgl\version_6.1.2\lvgl\src\lv_objx/lv_chart.c ****     if(res != LV_RES_OK) return res;
 1230              		.loc 1 766 0
 1231 0002 184B     		ldr	r3, .L153
 1232 0004 1B68     		ldr	r3, [r3]
 763:..\..\..\lvgl\version_6.1.2\lvgl\src\lv_objx/lv_chart.c ****     /* Include the ancient signal function */
 1233              		.loc 1 763 0
 1234 0006 0646     		mov	r6, r0
 1235 0008 0D46     		mov	r5, r1
 1236 000a 1746     		mov	r7, r2
 766:..\..\..\lvgl\version_6.1.2\lvgl\src\lv_objx/lv_chart.c ****     if(res != LV_RES_OK) return res;
 1237              		.loc 1 766 0
 1238 000c 9847     		blx	r3
 1239              	.LVL141:
 767:..\..\..\lvgl\version_6.1.2\lvgl\src\lv_objx/lv_chart.c ****     if(sign == LV_SIGNAL_GET_TYPE) return lv_obj_handle_get_type_signal(param, LV_OBJX_NAME);
ARM GAS  C:\Users\pearlstl\AppData\Local\Temp\ccRrtFoa.s 			page 52


 1240              		.loc 1 767 0
 1241 000e 0128     		cmp	r0, #1
 766:..\..\..\lvgl\version_6.1.2\lvgl\src\lv_objx/lv_chart.c ****     if(res != LV_RES_OK) return res;
 1242              		.loc 1 766 0
 1243 0010 0446     		mov	r4, r0
 1244              	.LVL142:
 767:..\..\..\lvgl\version_6.1.2\lvgl\src\lv_objx/lv_chart.c ****     if(sign == LV_SIGNAL_GET_TYPE) return lv_obj_handle_get_type_signal(param, LV_OBJX_NAME);
 1245              		.loc 1 767 0
 1246 0012 00D0     		beq	.L149
 1247 0014 F8BD     		pop	{r3, r4, r5, r6, r7, pc}
 1248              	.LVL143:
 1249              	.L149:
 768:..\..\..\lvgl\version_6.1.2\lvgl\src\lv_objx/lv_chart.c **** 
 1250              		.loc 1 768 0
 1251 0016 072D     		cmp	r5, #7
 1252 0018 1ED0     		beq	.L150
 770:..\..\..\lvgl\version_6.1.2\lvgl\src\lv_objx/lv_chart.c **** 
 1253              		.loc 1 770 0
 1254 001a 3046     		mov	r0, r6
 1255              	.LVL144:
 1256 001c FFF7FEFF 		bl	lv_obj_get_ext_attr
 1257              	.LVL145:
 1258 0020 0746     		mov	r7, r0
 1259              	.LVL146:
 772:..\..\..\lvgl\version_6.1.2\lvgl\src\lv_objx/lv_chart.c ****         lv_coord_t ** datal;
 1260              		.loc 1 772 0
 1261 0022 3DB1     		cbz	r5, .L151
 779:..\..\..\lvgl\version_6.1.2\lvgl\src\lv_objx/lv_chart.c ****         /*Provide extra px draw area around the chart*/
 1262              		.loc 1 779 0
 1263 0024 062D     		cmp	r5, #6
 1264 0026 01D0     		beq	.L152
 1265              	.LVL147:
 1266              	.L148:
 1267 0028 0120     		movs	r0, #1
 1268 002a F8BD     		pop	{r3, r4, r5, r6, r7, pc}
 1269              	.LVL148:
 1270              	.L152:
 781:..\..\..\lvgl\version_6.1.2\lvgl\src\lv_objx/lv_chart.c ****     }
 1271              		.loc 1 781 0
 1272 002c 038E     		ldrh	r3, [r0, #48]
 1273 002e 3386     		strh	r3, [r6, #48]	@ movhi
 1274 0030 2046     		mov	r0, r4
 1275              	.LVL149:
 1276 0032 F8BD     		pop	{r3, r4, r5, r6, r7, pc}
 1277              	.LVL150:
 1278              	.L151:
 1279              	.LBB68:
 774:..\..\..\lvgl\version_6.1.2\lvgl\src\lv_objx/lv_chart.c ****         {
 1280              		.loc 1 774 0
 1281 0034 FFF7FEFF 		bl	lv_ll_get_head
 1282              	.LVL151:
 1283 0038 0446     		mov	r4, r0
 1284 003a 48B1     		cbz	r0, .L143
 1285              	.L142:
 776:..\..\..\lvgl\version_6.1.2\lvgl\src\lv_objx/lv_chart.c ****         }
 1286              		.loc 1 776 0 discriminator 3
 1287 003c 2068     		ldr	r0, [r4]
ARM GAS  C:\Users\pearlstl\AppData\Local\Temp\ccRrtFoa.s 			page 53


 1288              	.LVL152:
 1289 003e FFF7FEFF 		bl	lv_mem_free
 1290              	.LVL153:
 774:..\..\..\lvgl\version_6.1.2\lvgl\src\lv_objx/lv_chart.c ****         {
 1291              		.loc 1 774 0 discriminator 3
 1292 0042 2146     		mov	r1, r4
 1293 0044 3846     		mov	r0, r7
 1294 0046 FFF7FEFF 		bl	lv_ll_get_next
 1295              	.LVL154:
 1296 004a 0446     		mov	r4, r0
 1297 004c 0028     		cmp	r0, #0
 1298 004e F5D1     		bne	.L142
 1299              	.L143:
 778:..\..\..\lvgl\version_6.1.2\lvgl\src\lv_objx/lv_chart.c ****     } else if(sign == LV_SIGNAL_REFR_EXT_DRAW_PAD) {
 1300              		.loc 1 778 0
 1301 0050 3846     		mov	r0, r7
 1302              	.LVL155:
 1303 0052 FFF7FEFF 		bl	lv_ll_clear
 1304              	.LVL156:
 1305 0056 E7E7     		b	.L148
 1306              	.LVL157:
 1307              	.L150:
 1308              	.LBE68:
 1309              	.LBB69:
 1310              	.LBB70:
 768:..\..\..\lvgl\version_6.1.2\lvgl\src\lv_objx/lv_chart.c **** 
 1311              		.loc 1 768 0
 1312 0058 3846     		mov	r0, r7
 1313              	.LVL158:
 1314 005a 0349     		ldr	r1, .L153+4
 1315              	.LBE70:
 1316              	.LBE69:
 785:..\..\..\lvgl\version_6.1.2\lvgl\src\lv_objx/lv_chart.c **** 
 1317              		.loc 1 785 0
 1318 005c BDE8F840 		pop	{r3, r4, r5, r6, r7, lr}
 1319              		.cfi_restore 14
 1320              		.cfi_restore 7
 1321              		.cfi_restore 6
 1322              		.cfi_restore 5
 1323              		.cfi_restore 4
 1324              		.cfi_restore 3
 1325              		.cfi_def_cfa_offset 0
 1326              	.LVL159:
 1327              	.LBB72:
 1328              	.LBB71:
 768:..\..\..\lvgl\version_6.1.2\lvgl\src\lv_objx/lv_chart.c **** 
 1329              		.loc 1 768 0
 1330 0060 FFF7FEBF 		b	lv_obj_handle_get_type_signal
 1331              	.LVL160:
 1332              	.L154:
 1333              		.align	2
 1334              	.L153:
 1335 0064 00000000 		.word	.LANCHOR0
 1336 0068 00000000 		.word	.LC0
 1337              	.LBE71:
 1338              	.LBE72:
 1339              		.cfi_endproc
ARM GAS  C:\Users\pearlstl\AppData\Local\Temp\ccRrtFoa.s 			page 54


 1340              	.LFE64:
 1341              		.size	lv_chart_signal, .-lv_chart_signal
 1342              		.section	.text.lv_chart_design,"ax",%progbits
 1343              		.align	2
 1344              		.thumb
 1345              		.thumb_func
 1346              		.type	lv_chart_design, %function
 1347              	lv_chart_design:
 1348              	.LFB63:
 724:..\..\..\lvgl\version_6.1.2\lvgl\src\lv_objx/lv_chart.c ****     if(mode == LV_DESIGN_COVER_CHK) {
 1349              		.loc 1 724 0
 1350              		.cfi_startproc
 1351              		@ args = 0, pretend = 0, frame = 192
 1352              		@ frame_needed = 0, uses_anonymous_args = 0
 1353              	.LVL161:
 1354 0000 2DE9F04F 		push	{r4, r5, r6, r7, r8, r9, r10, fp, lr}
 1355              		.cfi_def_cfa_offset 36
 1356              		.cfi_offset 4, -36
 1357              		.cfi_offset 5, -32
 1358              		.cfi_offset 6, -28
 1359              		.cfi_offset 7, -24
 1360              		.cfi_offset 8, -20
 1361              		.cfi_offset 9, -16
 1362              		.cfi_offset 10, -12
 1363              		.cfi_offset 11, -8
 1364              		.cfi_offset 14, -4
 1365 0004 B7B0     		sub	sp, sp, #220
 1366              		.cfi_def_cfa_offset 256
 725:..\..\..\lvgl\version_6.1.2\lvgl\src\lv_objx/lv_chart.c ****         /*Return false if the object is not covers the mask_p area*/
 1367              		.loc 1 725 0
 1368 0006 022A     		cmp	r2, #2
 724:..\..\..\lvgl\version_6.1.2\lvgl\src\lv_objx/lv_chart.c ****     if(mode == LV_DESIGN_COVER_CHK) {
 1369              		.loc 1 724 0
 1370 0008 0890     		str	r0, [sp, #32]
 1371 000a 0991     		str	r1, [sp, #36]
 725:..\..\..\lvgl\version_6.1.2\lvgl\src\lv_objx/lv_chart.c ****         /*Return false if the object is not covers the mask_p area*/
 1372              		.loc 1 725 0
 1373 000c 00F0B882 		beq	.L291
 728:..\..\..\lvgl\version_6.1.2\lvgl\src\lv_objx/lv_chart.c ****         /*Draw the background*/
 1374              		.loc 1 728 0
 1375 0010 1AB1     		cbz	r2, .L292
 1376              	.LVL162:
 1377              	.L229:
 753:..\..\..\lvgl\version_6.1.2\lvgl\src\lv_objx/lv_chart.c **** }
 1378              		.loc 1 753 0
 1379 0012 0120     		movs	r0, #1
 1380              	.L283:
 754:..\..\..\lvgl\version_6.1.2\lvgl\src\lv_objx/lv_chart.c **** 
 1381              		.loc 1 754 0
 1382 0014 37B0     		add	sp, sp, #220
 1383              		.cfi_remember_state
 1384              		.cfi_def_cfa_offset 36
 1385              		@ sp needed
 1386 0016 BDE8F08F 		pop	{r4, r5, r6, r7, r8, r9, r10, fp, pc}
 1387              	.LVL163:
 1388              	.L292:
 1389              		.cfi_restore_state
ARM GAS  C:\Users\pearlstl\AppData\Local\Temp\ccRrtFoa.s 			page 55


 1390              	.LBB105:
 1391              	.LBB106:
 730:..\..\..\lvgl\version_6.1.2\lvgl\src\lv_objx/lv_chart.c **** 
 1392              		.loc 1 730 0
 1393 001a FFF7FEFF 		bl	lv_obj_get_style
 1394              	.LVL164:
 1395 001e 089E     		ldr	r6, [sp, #32]
 1396 0020 3346     		mov	r3, r6
 1397 0022 1033     		adds	r3, r3, #16
 1398 0024 0446     		mov	r4, r0
 1399 0026 3046     		mov	r0, r6
 1400 0028 1D46     		mov	r5, r3
 1401 002a 0B93     		str	r3, [sp, #44]
 1402 002c FFF7FEFF 		bl	lv_obj_get_opa_scale
 1403              	.LVL165:
 1404 0030 2246     		mov	r2, r4
 1405 0032 0346     		mov	r3, r0
 1406 0034 0999     		ldr	r1, [sp, #36]
 1407 0036 2846     		mov	r0, r5
 1408 0038 FFF7FEFF 		bl	lv_draw_rect
 1409              	.LVL166:
 732:..\..\..\lvgl\version_6.1.2\lvgl\src\lv_objx/lv_chart.c **** 
 1410              		.loc 1 732 0
 1411 003c 3046     		mov	r0, r6
 1412 003e FFF7FEFF 		bl	lv_obj_get_ext_attr
 1413              	.LVL167:
 1414 0042 0E90     		str	r0, [sp, #56]
 1415              	.LVL168:
 1416              	.LBB107:
 1417              	.LBB108:
 794:..\..\..\lvgl\version_6.1.2\lvgl\src\lv_objx/lv_chart.c ****     const lv_style_t * style = lv_obj_get_style(chart);
 1418              		.loc 1 794 0
 1419 0044 3046     		mov	r0, r6
 1420              	.LVL169:
 1421 0046 FFF7FEFF 		bl	lv_obj_get_ext_attr
 1422              	.LVL170:
 1423 004a 3446     		mov	r4, r6
 1424 004c 0646     		mov	r6, r0
 1425              	.LVL171:
 795:..\..\..\lvgl\version_6.1.2\lvgl\src\lv_objx/lv_chart.c ****     lv_opa_t opa_scale       = lv_obj_get_opa_scale(chart);
 1426              		.loc 1 795 0
 1427 004e 2046     		mov	r0, r4
 1428              	.LVL172:
 1429 0050 FFF7FEFF 		bl	lv_obj_get_style
 1430              	.LVL173:
 1431 0054 0546     		mov	r5, r0
 1432              	.LVL174:
 796:..\..\..\lvgl\version_6.1.2\lvgl\src\lv_objx/lv_chart.c **** 
 1433              		.loc 1 796 0
 1434 0056 2046     		mov	r0, r4
 1435              	.LVL175:
 1436 0058 FFF7FEFF 		bl	lv_obj_get_opa_scale
 1437              	.LVL176:
 1438 005c 8046     		mov	r8, r0
 1439              	.LVL177:
 803:..\..\..\lvgl\version_6.1.2\lvgl\src\lv_objx/lv_chart.c ****     lv_coord_t h     = lv_obj_get_height(chart);
 1440              		.loc 1 803 0
ARM GAS  C:\Users\pearlstl\AppData\Local\Temp\ccRrtFoa.s 			page 56


 1441 005e 2046     		mov	r0, r4
 1442 0060 FFF7FEFF 		bl	lv_obj_get_width
 1443              	.LVL178:
 1444 0064 8346     		mov	fp, r0
 1445              	.LVL179:
 804:..\..\..\lvgl\version_6.1.2\lvgl\src\lv_objx/lv_chart.c ****     lv_coord_t x_ofs = chart->coords.x1;
 1446              		.loc 1 804 0
 1447 0066 2046     		mov	r0, r4
 1448 0068 FFF7FEFF 		bl	lv_obj_get_height
 1449              	.LVL180:
 805:..\..\..\lvgl\version_6.1.2\lvgl\src\lv_objx/lv_chart.c ****     lv_coord_t y_ofs = chart->coords.y1;
 1450              		.loc 1 805 0
 1451 006c B4F91020 		ldrsh	r2, [r4, #16]
 808:..\..\..\lvgl\version_6.1.2\lvgl\src\lv_objx/lv_chart.c ****         /*Draw side lines if no border*/
 1452              		.loc 1 808 0
 1453 0070 337C     		ldrb	r3, [r6, #16]	@ zero_extendqisi2
 805:..\..\..\lvgl\version_6.1.2\lvgl\src\lv_objx/lv_chart.c ****     lv_coord_t y_ofs = chart->coords.y1;
 1454              		.loc 1 805 0
 1455 0072 0A92     		str	r2, [sp, #40]
 806:..\..\..\lvgl\version_6.1.2\lvgl\src\lv_objx/lv_chart.c **** 
 1456              		.loc 1 806 0
 1457 0074 B4F91220 		ldrsh	r2, [r4, #18]
 1458 0078 0C92     		str	r2, [sp, #48]
 804:..\..\..\lvgl\version_6.1.2\lvgl\src\lv_objx/lv_chart.c ****     lv_coord_t x_ofs = chart->coords.x1;
 1459              		.loc 1 804 0
 1460 007a 8146     		mov	r9, r0
 1461              	.LVL181:
 808:..\..\..\lvgl\version_6.1.2\lvgl\src\lv_objx/lv_chart.c ****         /*Draw side lines if no border*/
 1462              		.loc 1 808 0
 1463 007c 002B     		cmp	r3, #0
 1464 007e 3ED0     		beq	.L163
 819:..\..\..\lvgl\version_6.1.2\lvgl\src\lv_objx/lv_chart.c ****         for(div_i = div_i_start; div_i <= div_i_end; div_i++) {
 1465              		.loc 1 819 0
 1466 0080 0A99     		ldr	r1, [sp, #40]
 810:..\..\..\lvgl\version_6.1.2\lvgl\src\lv_objx/lv_chart.c ****             div_i_start = 1;
 1467              		.loc 1 810 0
 1468 0082 B5F91440 		ldrsh	r4, [r5, #20]
 1469              	.LVL182:
 819:..\..\..\lvgl\version_6.1.2\lvgl\src\lv_objx/lv_chart.c ****         for(div_i = div_i_start; div_i <= div_i_end; div_i++) {
 1470              		.loc 1 819 0
 1471 0086 4A1E     		subs	r2, r1, #1
 1472 0088 5A44     		add	r2, r2, fp
 810:..\..\..\lvgl\version_6.1.2\lvgl\src\lv_objx/lv_chart.c ****             div_i_start = 1;
 1473              		.loc 1 810 0
 1474 008a 002C     		cmp	r4, #0
 1475 008c 40F07C82 		bne	.L161
 1476              	.LVL183:
 815:..\..\..\lvgl\version_6.1.2\lvgl\src\lv_objx/lv_chart.c ****         }
 1477              		.loc 1 815 0
 1478 0090 03F1010A 		add	r10, r3, #1
 818:..\..\..\lvgl\version_6.1.2\lvgl\src\lv_objx/lv_chart.c ****         p2.x = w - 1 + x_ofs;
 1479              		.loc 1 818 0
 1480 0094 ADF87C10 		strh	r1, [sp, #124]	@ movhi
 819:..\..\..\lvgl\version_6.1.2\lvgl\src\lv_objx/lv_chart.c ****         for(div_i = div_i_start; div_i <= div_i_end; div_i++) {
 1481              		.loc 1 819 0
 1482 0098 ADF88820 		strh	r2, [sp, #136]	@ movhi
 815:..\..\..\lvgl\version_6.1.2\lvgl\src\lv_objx/lv_chart.c ****         }
ARM GAS  C:\Users\pearlstl\AppData\Local\Temp\ccRrtFoa.s 			page 57


 1483              		.loc 1 815 0
 1484 009c 5FFA8AFA 		uxtb	r10, r10
 1485              	.LVL184:
 1486              	.L162:
 1487 00a0 BDF83020 		ldrh	r2, [sp, #48]
 1488 00a4 0792     		str	r2, [sp, #28]
 1489 00a6 1FAF     		add	r7, sp, #124
 1490 00a8 22AA     		add	r2, sp, #136
 1491 00aa 9E46     		mov	lr, r3
 1492 00ac 3B46     		mov	r3, r7
 1493 00ae CDF834B0 		str	fp, [sp, #52]
 1494 00b2 4746     		mov	r7, r8
 1495 00b4 9346     		mov	fp, r2
 1496              	.LVL185:
 1497 00b6 9846     		mov	r8, r3
 1498              	.LVL186:
 1499 00b8 01E0     		b	.L164
 1500              	.LVL187:
 1501              	.L293:
 1502 00ba 96F810E0 		ldrb	lr, [r6, #16]	@ zero_extendqisi2
 1503              	.L164:
 822:..\..\..\lvgl\version_6.1.2\lvgl\src\lv_objx/lv_chart.c ****             p2.y = p1.y;
 1504              		.loc 1 822 0
 1505 00be B5F94C30 		ldrsh	r3, [r5, #76]
 824:..\..\..\lvgl\version_6.1.2\lvgl\src\lv_objx/lv_chart.c ****         }
 1506              		.loc 1 824 0
 1507 00c2 099A     		ldr	r2, [sp, #36]
 1508 00c4 0097     		str	r7, [sp]
 822:..\..\..\lvgl\version_6.1.2\lvgl\src\lv_objx/lv_chart.c ****             p2.y = p1.y;
 1509              		.loc 1 822 0
 1510 00c6 C3EB0903 		rsb	r3, r3, r9
 1511 00ca 04FB03F3 		mul	r3, r4, r3
 1512 00ce 0EF1010E 		add	lr, lr, #1
 1513 00d2 93FBFEFE 		sdiv	lr, r3, lr
 1514 00d6 079B     		ldr	r3, [sp, #28]
 820:..\..\..\lvgl\version_6.1.2\lvgl\src\lv_objx/lv_chart.c ****             p1.y = (int32_t)((int32_t)(h - style->line.width) * div_i) / (ext->hdiv_cnt + 1);
 1515              		.loc 1 820 0
 1516 00d8 0134     		adds	r4, r4, #1
 1517              	.LVL188:
 822:..\..\..\lvgl\version_6.1.2\lvgl\src\lv_objx/lv_chart.c ****             p2.y = p1.y;
 1518              		.loc 1 822 0
 1519 00da 9E44     		add	lr, lr, r3
 1520 00dc 0FFA8EFE 		sxth	lr, lr
 824:..\..\..\lvgl\version_6.1.2\lvgl\src\lv_objx/lv_chart.c ****         }
 1521              		.loc 1 824 0
 1522 00e0 2B46     		mov	r3, r5
 1523 00e2 5946     		mov	r1, fp
 1524 00e4 4046     		mov	r0, r8
 820:..\..\..\lvgl\version_6.1.2\lvgl\src\lv_objx/lv_chart.c ****             p1.y = (int32_t)((int32_t)(h - style->line.width) * div_i) / (ext->hdiv_cnt + 1);
 1525              		.loc 1 820 0
 1526 00e6 E4B2     		uxtb	r4, r4
 822:..\..\..\lvgl\version_6.1.2\lvgl\src\lv_objx/lv_chart.c ****             p2.y = p1.y;
 1527              		.loc 1 822 0
 1528 00e8 ADF87EE0 		strh	lr, [sp, #126]	@ movhi
 823:..\..\..\lvgl\version_6.1.2\lvgl\src\lv_objx/lv_chart.c ****             lv_draw_line(&p1, &p2, mask, style, opa_scale);
 1529              		.loc 1 823 0
 1530 00ec ADF88AE0 		strh	lr, [sp, #138]	@ movhi
ARM GAS  C:\Users\pearlstl\AppData\Local\Temp\ccRrtFoa.s 			page 58


 824:..\..\..\lvgl\version_6.1.2\lvgl\src\lv_objx/lv_chart.c ****         }
 1531              		.loc 1 824 0
 1532 00f0 FFF7FEFF 		bl	lv_draw_line
 1533              	.LVL189:
 820:..\..\..\lvgl\version_6.1.2\lvgl\src\lv_objx/lv_chart.c ****             p1.y = (int32_t)((int32_t)(h - style->line.width) * div_i) / (ext->hdiv_cnt + 1);
 1534              		.loc 1 820 0
 1535 00f4 5445     		cmp	r4, r10
 1536 00f6 E0D9     		bls	.L293
 1537 00f8 DDF834B0 		ldr	fp, [sp, #52]
 1538 00fc B846     		mov	r8, r7
 1539              	.LVL190:
 1540              	.L163:
 828:..\..\..\lvgl\version_6.1.2\lvgl\src\lv_objx/lv_chart.c ****         /*Draw side lines if no border*/
 1541              		.loc 1 828 0
 1542 00fe 737C     		ldrb	r3, [r6, #17]	@ zero_extendqisi2
 1543 0100 002B     		cmp	r3, #0
 1544 0102 37D0     		beq	.L160
 839:..\..\..\lvgl\version_6.1.2\lvgl\src\lv_objx/lv_chart.c ****         for(div_i = div_i_start; div_i <= div_i_end; div_i++) {
 1545              		.loc 1 839 0
 1546 0104 0C99     		ldr	r1, [sp, #48]
 830:..\..\..\lvgl\version_6.1.2\lvgl\src\lv_objx/lv_chart.c ****             div_i_start = 1;
 1547              		.loc 1 830 0
 1548 0106 B5F91440 		ldrsh	r4, [r5, #20]
 839:..\..\..\lvgl\version_6.1.2\lvgl\src\lv_objx/lv_chart.c ****         for(div_i = div_i_start; div_i <= div_i_end; div_i++) {
 1549              		.loc 1 839 0
 1550 010a 4A1E     		subs	r2, r1, #1
 1551 010c 9144     		add	r9, r9, r2
 1552              	.LVL191:
 830:..\..\..\lvgl\version_6.1.2\lvgl\src\lv_objx/lv_chart.c ****             div_i_start = 1;
 1553              		.loc 1 830 0
 1554 010e 002C     		cmp	r4, #0
 1555 0110 40F02982 		bne	.L167
 1556              	.LVL192:
 835:..\..\..\lvgl\version_6.1.2\lvgl\src\lv_objx/lv_chart.c ****         }
 1557              		.loc 1 835 0
 1558 0114 03F1010A 		add	r10, r3, #1
 838:..\..\..\lvgl\version_6.1.2\lvgl\src\lv_objx/lv_chart.c ****         p2.y = h + y_ofs - 1;
 1559              		.loc 1 838 0
 1560 0118 ADF87E10 		strh	r1, [sp, #126]	@ movhi
 839:..\..\..\lvgl\version_6.1.2\lvgl\src\lv_objx/lv_chart.c ****         for(div_i = div_i_start; div_i <= div_i_end; div_i++) {
 1561              		.loc 1 839 0
 1562 011c ADF88A90 		strh	r9, [sp, #138]	@ movhi
 835:..\..\..\lvgl\version_6.1.2\lvgl\src\lv_objx/lv_chart.c ****         }
 1563              		.loc 1 835 0
 1564 0120 5FFA8AFA 		uxtb	r10, r10
 1565              	.LVL193:
 1566              	.L168:
 1567 0124 22AA     		add	r2, sp, #136
 1568 0126 0792     		str	r2, [sp, #28]
 1569 0128 4246     		mov	r2, r8
 1570 012a BDF82890 		ldrh	r9, [sp, #40]
 1571 012e B046     		mov	r8, r6
 1572 0130 1FAF     		add	r7, sp, #124
 1573 0132 9E46     		mov	lr, r3
 1574 0134 1646     		mov	r6, r2
 1575              	.LVL194:
 1576 0136 01E0     		b	.L169
ARM GAS  C:\Users\pearlstl\AppData\Local\Temp\ccRrtFoa.s 			page 59


 1577              	.LVL195:
 1578              	.L294:
 1579 0138 98F811E0 		ldrb	lr, [r8, #17]	@ zero_extendqisi2
 1580              	.L169:
 842:..\..\..\lvgl\version_6.1.2\lvgl\src\lv_objx/lv_chart.c ****             p2.x = p1.x;
 1581              		.loc 1 842 0
 1582 013c B5F94C30 		ldrsh	r3, [r5, #76]
 844:..\..\..\lvgl\version_6.1.2\lvgl\src\lv_objx/lv_chart.c ****         }
 1583              		.loc 1 844 0
 1584 0140 099A     		ldr	r2, [sp, #36]
 1585 0142 0096     		str	r6, [sp]
 842:..\..\..\lvgl\version_6.1.2\lvgl\src\lv_objx/lv_chart.c ****             p2.x = p1.x;
 1586              		.loc 1 842 0
 1587 0144 C3EB0B03 		rsb	r3, r3, fp
 1588 0148 04FB03F3 		mul	r3, r4, r3
 1589 014c 0EF1010E 		add	lr, lr, #1
 840:..\..\..\lvgl\version_6.1.2\lvgl\src\lv_objx/lv_chart.c ****             p1.x = (int32_t)((int32_t)(w - style->line.width) * div_i) / (ext->vdiv_cnt + 1);
 1590              		.loc 1 840 0
 1591 0150 0134     		adds	r4, r4, #1
 1592              	.LVL196:
 842:..\..\..\lvgl\version_6.1.2\lvgl\src\lv_objx/lv_chart.c ****             p2.x = p1.x;
 1593              		.loc 1 842 0
 1594 0152 93FBFEFE 		sdiv	lr, r3, lr
 1595 0156 CE44     		add	lr, lr, r9
 1596 0158 0FFA8EFE 		sxth	lr, lr
 844:..\..\..\lvgl\version_6.1.2\lvgl\src\lv_objx/lv_chart.c ****         }
 1597              		.loc 1 844 0
 1598 015c 2B46     		mov	r3, r5
 1599 015e 0799     		ldr	r1, [sp, #28]
 842:..\..\..\lvgl\version_6.1.2\lvgl\src\lv_objx/lv_chart.c ****             p2.x = p1.x;
 1600              		.loc 1 842 0
 1601 0160 ADF87CE0 		strh	lr, [sp, #124]	@ movhi
 844:..\..\..\lvgl\version_6.1.2\lvgl\src\lv_objx/lv_chart.c ****         }
 1602              		.loc 1 844 0
 1603 0164 3846     		mov	r0, r7
 840:..\..\..\lvgl\version_6.1.2\lvgl\src\lv_objx/lv_chart.c ****             p1.x = (int32_t)((int32_t)(w - style->line.width) * div_i) / (ext->vdiv_cnt + 1);
 1604              		.loc 1 840 0
 1605 0166 E4B2     		uxtb	r4, r4
 843:..\..\..\lvgl\version_6.1.2\lvgl\src\lv_objx/lv_chart.c ****             lv_draw_line(&p1, &p2, mask, style, opa_scale);
 1606              		.loc 1 843 0
 1607 0168 ADF888E0 		strh	lr, [sp, #136]	@ movhi
 844:..\..\..\lvgl\version_6.1.2\lvgl\src\lv_objx/lv_chart.c ****         }
 1608              		.loc 1 844 0
 1609 016c FFF7FEFF 		bl	lv_draw_line
 1610              	.LVL197:
 840:..\..\..\lvgl\version_6.1.2\lvgl\src\lv_objx/lv_chart.c ****             p1.x = (int32_t)((int32_t)(w - style->line.width) * div_i) / (ext->vdiv_cnt + 1);
 1611              		.loc 1 840 0
 1612 0170 5445     		cmp	r4, r10
 1613 0172 E1D9     		bls	.L294
 1614              	.LVL198:
 1615              	.L160:
 1616              	.LBE108:
 1617              	.LBE107:
 739:..\..\..\lvgl\version_6.1.2\lvgl\src\lv_objx/lv_chart.c **** 
 1618              		.loc 1 739 0
 1619 0174 16A9     		add	r1, sp, #88
 1620 0176 0898     		ldr	r0, [sp, #32]
ARM GAS  C:\Users\pearlstl\AppData\Local\Temp\ccRrtFoa.s 			page 60


 1621 0178 FFF7FEFF 		bl	lv_obj_get_coords
 1622              	.LVL199:
 741:..\..\..\lvgl\version_6.1.2\lvgl\src\lv_objx/lv_chart.c **** 
 1623              		.loc 1 741 0
 1624 017c 16AA     		add	r2, sp, #88
 1625 017e 18A8     		add	r0, sp, #96
 1626 0180 0999     		ldr	r1, [sp, #36]
 1627 0182 FFF7FEFF 		bl	lv_area_intersect
 1628              	.LVL200:
 743:..\..\..\lvgl\version_6.1.2\lvgl\src\lv_objx/lv_chart.c ****                 if(ext->type & LV_CHART_TYPE_LINE) lv_chart_draw_lines(chart, &adjusted_mask);
 1629              		.loc 1 743 0
 1630 0186 0028     		cmp	r0, #0
 1631 0188 00F0CF80 		beq	.L170
 744:..\..\..\lvgl\version_6.1.2\lvgl\src\lv_objx/lv_chart.c ****                 if(ext->type & LV_CHART_TYPE_COLUMN) lv_chart_draw_cols(chart, &adjusted_mask);
 1632              		.loc 1 744 0
 1633 018c 0E9B     		ldr	r3, [sp, #56]
 1634 018e 1B7D     		ldrb	r3, [r3, #20]	@ zero_extendqisi2
 1635 0190 DC07     		lsls	r4, r3, #31
 1636 0192 00F1A783 		bmi	.L295
 1637              	.LVL201:
 1638              	.L171:
 745:..\..\..\lvgl\version_6.1.2\lvgl\src\lv_objx/lv_chart.c ****                 if(ext->type & LV_CHART_TYPE_POINT) lv_chart_draw_points(chart, &adjusted_mask);
 1639              		.loc 1 745 0
 1640 0196 9807     		lsls	r0, r3, #30
 1641 0198 00F1D082 		bmi	.L296
 1642              	.L172:
 746:..\..\..\lvgl\version_6.1.2\lvgl\src\lv_objx/lv_chart.c ****                 if(ext->type & LV_CHART_TYPE_VERTICAL_LINE) lv_chart_draw_vertical_lines(chart, &ad
 1643              		.loc 1 746 0
 1644 019c 5A07     		lsls	r2, r3, #29
 1645 019e 00F12282 		bmi	.L297
 1646              	.L183:
 747:..\..\..\lvgl\version_6.1.2\lvgl\src\lv_objx/lv_chart.c ****                 if(ext->type & LV_CHART_TYPE_AREA) lv_chart_draw_areas(chart, &adjusted_mask);
 1647              		.loc 1 747 0
 1648 01a2 1C07     		lsls	r4, r3, #28
 1649 01a4 00F10B82 		bmi	.L298
 1650              	.L192:
 748:..\..\..\lvgl\version_6.1.2\lvgl\src\lv_objx/lv_chart.c ****         }
 1651              		.loc 1 748 0
 1652 01a8 D906     		lsls	r1, r3, #27
 1653 01aa 40F1BE80 		bpl	.L170
 1654              	.LVL202:
 1655              	.LBB111:
 1656              	.LBB112:
1099:..\..\..\lvgl\version_6.1.2\lvgl\src\lv_objx/lv_chart.c **** 
 1657              		.loc 1 1099 0
 1658 01ae 089C     		ldr	r4, [sp, #32]
 1659 01b0 2046     		mov	r0, r4
 1660 01b2 FFF7FEFF 		bl	lv_obj_get_ext_attr
 1661              	.LVL203:
 1662 01b6 8046     		mov	r8, r0
 1663              	.LVL204:
1104:..\..\..\lvgl\version_6.1.2\lvgl\src\lv_objx/lv_chart.c ****     lv_coord_t h     = lv_obj_get_height(chart);
 1664              		.loc 1 1104 0
 1665 01b8 2046     		mov	r0, r4
 1666              	.LVL205:
 1667 01ba FFF7FEFF 		bl	lv_obj_get_width
 1668              	.LVL206:
ARM GAS  C:\Users\pearlstl\AppData\Local\Temp\ccRrtFoa.s 			page 61


 1669 01be 1090     		str	r0, [sp, #64]
 1670              	.LVL207:
1105:..\..\..\lvgl\version_6.1.2\lvgl\src\lv_objx/lv_chart.c ****     lv_coord_t x_ofs = chart->coords.x1;
 1671              		.loc 1 1105 0
 1672 01c0 2046     		mov	r0, r4
 1673 01c2 FFF7FEFF 		bl	lv_obj_get_height
 1674              	.LVL208:
1114:..\..\..\lvgl\version_6.1.2\lvgl\src\lv_objx/lv_chart.c **** 
 1675              		.loc 1 1114 0
 1676 01c6 22AB     		add	r3, sp, #136
1105:..\..\..\lvgl\version_6.1.2\lvgl\src\lv_objx/lv_chart.c ****     lv_coord_t x_ofs = chart->coords.x1;
 1677              		.loc 1 1105 0
 1678 01c8 0B90     		str	r0, [sp, #44]
1114:..\..\..\lvgl\version_6.1.2\lvgl\src\lv_objx/lv_chart.c **** 
 1679              		.loc 1 1114 0
 1680 01ca 1D46     		mov	r5, r3
 1681 01cc 0793     		str	r3, [sp, #28]
1105:..\..\..\lvgl\version_6.1.2\lvgl\src\lv_objx/lv_chart.c ****     lv_coord_t x_ofs = chart->coords.x1;
 1682              		.loc 1 1105 0
 1683 01ce 0646     		mov	r6, r0
 1684              	.LVL209:
1106:..\..\..\lvgl\version_6.1.2\lvgl\src\lv_objx/lv_chart.c ****     lv_coord_t y_ofs = chart->coords.y1;
 1685              		.loc 1 1106 0
 1686 01d0 B4F91030 		ldrsh	r3, [r4, #16]
 1687 01d4 1193     		str	r3, [sp, #68]
 1688              	.LVL210:
1112:..\..\..\lvgl\version_6.1.2\lvgl\src\lv_objx/lv_chart.c ****     lv_style_t style;
 1689              		.loc 1 1112 0
 1690 01d6 2046     		mov	r0, r4
1107:..\..\..\lvgl\version_6.1.2\lvgl\src\lv_objx/lv_chart.c ****     int32_t y_tmp;
 1691              		.loc 1 1107 0
 1692 01d8 B4F91240 		ldrsh	r4, [r4, #18]
 1693              	.LVL211:
1112:..\..\..\lvgl\version_6.1.2\lvgl\src\lv_objx/lv_chart.c ****     lv_style_t style;
 1694              		.loc 1 1112 0
 1695 01dc FFF7FEFF 		bl	lv_obj_get_opa_scale
 1696              	.LVL212:
1114:..\..\..\lvgl\version_6.1.2\lvgl\src\lv_objx/lv_chart.c **** 
 1697              		.loc 1 1114 0
 1698 01e0 2249     		ldr	r1, .L305
1112:..\..\..\lvgl\version_6.1.2\lvgl\src\lv_objx/lv_chart.c ****     lv_style_t style;
 1699              		.loc 1 1112 0
 1700 01e2 0C90     		str	r0, [sp, #48]
 1701              	.LVL213:
1114:..\..\..\lvgl\version_6.1.2\lvgl\src\lv_objx/lv_chart.c **** 
 1702              		.loc 1 1114 0
 1703 01e4 2846     		mov	r0, r5
 1704 01e6 FFF7FEFF 		bl	lv_style_copy
 1705              	.LVL214:
1117:..\..\..\lvgl\version_6.1.2\lvgl\src\lv_objx/lv_chart.c ****     {
 1706              		.loc 1 1117 0
 1707 01ea 4046     		mov	r0, r8
 1708 01ec FFF7FEFF 		bl	lv_ll_get_tail
 1709              	.LVL215:
 1710 01f0 8146     		mov	r9, r0
 1711 01f2 0028     		cmp	r0, #0
 1712 01f4 00F09980 		beq	.L170
ARM GAS  C:\Users\pearlstl\AppData\Local\Temp\ccRrtFoa.s 			page 62


 1713 01f8 3444     		add	r4, r4, r6
 1714              	.LVL216:
 1715 01fa A3B2     		uxth	r3, r4
 1716              	.LBB113:
1141:..\..\..\lvgl\version_6.1.2\lvgl\src\lv_objx/lv_chart.c ****                 lv_point_t triangle_points[3];
 1717              		.loc 1 1141 0
 1718 01fc DFF870A0 		ldr	r10, .L305+4
 1719 0200 0A93     		str	r3, [sp, #40]
 1720              	.LVL217:
 1721              	.L206:
1119:..\..\..\lvgl\version_6.1.2\lvgl\src\lv_objx/lv_chart.c ****         style.body.main_color  = ser->color;
 1722              		.loc 1 1119 0
 1723 0202 98F83230 		ldrb	r3, [r8, #50]	@ zero_extendqisi2
 1724 0206 DA07     		lsls	r2, r3, #31
 1725 0208 00F12484 		bmi	.L234
 1726 020c B9F90830 		ldrsh	r3, [r9, #8]
 1727 0210 0D93     		str	r3, [sp, #52]
 1728 0212 5B00     		lsls	r3, r3, #1
 1729              	.L204:
 1730              	.LVL218:
1120:..\..\..\lvgl\version_6.1.2\lvgl\src\lv_objx/lv_chart.c ****         style.body.opa         = ext->series.opa;
 1731              		.loc 1 1120 0
 1732 0214 D9F80420 		ldr	r2, [r9, #4]
 1733 0218 2392     		str	r2, [sp, #140]
1121:..\..\..\lvgl\version_6.1.2\lvgl\src\lv_objx/lv_chart.c **** 
 1734              		.loc 1 1121 0
 1735 021a 98F83720 		ldrb	r2, [r8, #55]	@ zero_extendqisi2
 1736 021e 8DF89620 		strb	r2, [sp, #150]
 1737              	.LVL219:
1126:..\..\..\lvgl\version_6.1.2\lvgl\src\lv_objx/lv_chart.c ****         y_tmp  = y_tmp / (ext->ymax - ext->ymin);
 1738              		.loc 1 1126 0
 1739 0222 D9F80010 		ldr	r1, [r9]
 1740 0226 B8F90C20 		ldrsh	r2, [r8, #12]
 1741 022a C85E     		ldrsh	r0, [r1, r3]
 1742              	.LVL220:
 1743 022c 0B9C     		ldr	r4, [sp, #44]
1127:..\..\..\lvgl\version_6.1.2\lvgl\src\lv_objx/lv_chart.c ****         p2.y   = h - y_tmp + y_ofs;
 1744              		.loc 1 1127 0
 1745 022e B8F90E30 		ldrsh	r3, [r8, #14]
1130:..\..\..\lvgl\version_6.1.2\lvgl\src\lv_objx/lv_chart.c ****             p1.x = p2.x;
 1746              		.loc 1 1130 0
 1747 0232 B8F812E0 		ldrh	lr, [r8, #18]
1126:..\..\..\lvgl\version_6.1.2\lvgl\src\lv_objx/lv_chart.c ****         y_tmp  = y_tmp / (ext->ymax - ext->ymin);
 1748              		.loc 1 1126 0
 1749 0236 C2EB000C 		rsb	ip, r2, r0
 1750 023a 04FB0CFC 		mul	ip, r4, ip
 1751              	.LVL221:
1128:..\..\..\lvgl\version_6.1.2\lvgl\src\lv_objx/lv_chart.c **** 
 1752              		.loc 1 1128 0
 1753 023e 0A9C     		ldr	r4, [sp, #40]
 1754 0240 9B1A     		subs	r3, r3, r2
 1755              	.LVL222:
1130:..\..\..\lvgl\version_6.1.2\lvgl\src\lv_objx/lv_chart.c ****             p1.x = p2.x;
 1756              		.loc 1 1130 0
 1757 0242 BEF1010F 		cmp	lr, #1
1128:..\..\..\lvgl\version_6.1.2\lvgl\src\lv_objx/lv_chart.c **** 
 1758              		.loc 1 1128 0
ARM GAS  C:\Users\pearlstl\AppData\Local\Temp\ccRrtFoa.s 			page 63


 1759 0246 9CFBF3FC 		sdiv	ip, ip, r3
 1760              	.LVL223:
 1761 024a CCEB040C 		rsb	ip, ip, r4
 1762 024e 0FFA8CFC 		sxth	ip, ip
 1763              	.LVL224:
1130:..\..\..\lvgl\version_6.1.2\lvgl\src\lv_objx/lv_chart.c ****             p1.x = p2.x;
 1764              		.loc 1 1130 0
 1765 0252 62D9     		bls	.L209
 1766 0254 DDF844B0 		ldr	fp, [sp, #68]
 1767              	.LBB114:
1147:..\..\..\lvgl\version_6.1.2\lvgl\src\lv_objx/lv_chart.c ****                 triangle_points[2].x = p2.x;
 1768              		.loc 1 1147 0
 1769 0258 CDF83C90 		str	r9, [sp, #60]
 1770 025c 1FFA8BF4 		uxth	r4, fp
 1771 0260 0E94     		str	r4, [sp, #56]
 1772              	.LBE114:
1130:..\..\..\lvgl\version_6.1.2\lvgl\src\lv_objx/lv_chart.c ****             p1.x = p2.x;
 1773              		.loc 1 1130 0
 1774 0262 0127     		movs	r7, #1
 1775              	.LBB115:
1147:..\..\..\lvgl\version_6.1.2\lvgl\src\lv_objx/lv_chart.c ****                 triangle_points[2].x = p2.x;
 1776              		.loc 1 1147 0
 1777 0264 DDF82090 		ldr	r9, [sp, #32]
 1778              	.LVL225:
 1779 0268 0FE0     		b	.L210
 1780              	.L306:
 1781 026a 00BF     		.align	2
 1782              	.L305:
 1783 026c 00000000 		.word	lv_style_plain
 1784 0270 E883FFFF 		.word	-31768
 1785              	.LVL226:
 1786              	.L299:
 1787 0274 0F9B     		ldr	r3, [sp, #60]
 1788 0276 B8F90C20 		ldrsh	r2, [r8, #12]
 1789 027a 1968     		ldr	r1, [r3]
 1790 027c B8F90E30 		ldrsh	r3, [r8, #14]
 1791 0280 31F91500 		ldrsh	r0, [r1, r5, lsl #1]
 1792              	.LBE115:
1139:..\..\..\lvgl\version_6.1.2\lvgl\src\lv_objx/lv_chart.c **** 
 1793              		.loc 1 1139 0
 1794 0284 B446     		mov	ip, r6
1135:..\..\..\lvgl\version_6.1.2\lvgl\src\lv_objx/lv_chart.c **** 
 1795              		.loc 1 1135 0
 1796 0286 A346     		mov	fp, r4
 1797              	.LVL227:
 1798 0288 9B1A     		subs	r3, r3, r2
 1799              	.LVL228:
 1800              	.L210:
1134:..\..\..\lvgl\version_6.1.2\lvgl\src\lv_objx/lv_chart.c ****             p2.x  = ((w * i) / (ext->point_cnt - 1)) + x_ofs;
 1801              		.loc 1 1134 0
 1802 028a 0D9C     		ldr	r4, [sp, #52]
 1803 028c 3D19     		adds	r5, r7, r4
 1804 028e 95FBFEF4 		sdiv	r4, r5, lr
 1805 0292 0EFB1455 		mls	r5, lr, r4, r5
 1806 0296 2DB2     		sxth	r5, r5
 1807              	.LVL229:
1135:..\..\..\lvgl\version_6.1.2\lvgl\src\lv_objx/lv_chart.c **** 
ARM GAS  C:\Users\pearlstl\AppData\Local\Temp\ccRrtFoa.s 			page 64


 1808              		.loc 1 1135 0
 1809 0298 109C     		ldr	r4, [sp, #64]
1137:..\..\..\lvgl\version_6.1.2\lvgl\src\lv_objx/lv_chart.c ****             y_tmp = y_tmp / (ext->ymax - ext->ymin);
 1810              		.loc 1 1137 0
 1811 029a 31F91510 		ldrsh	r1, [r1, r5, lsl #1]
 1812 029e 8E1A     		subs	r6, r1, r2
 1813 02a0 0B9A     		ldr	r2, [sp, #44]
 1814 02a2 02FB06F6 		mul	r6, r2, r6
1139:..\..\..\lvgl\version_6.1.2\lvgl\src\lv_objx/lv_chart.c **** 
 1815              		.loc 1 1139 0
 1816 02a6 96FBF3F6 		sdiv	r6, r6, r3
 1817 02aa 0A9B     		ldr	r3, [sp, #40]
 1818 02ac 9E1B     		subs	r6, r3, r6
1135:..\..\..\lvgl\version_6.1.2\lvgl\src\lv_objx/lv_chart.c **** 
 1819              		.loc 1 1135 0
 1820 02ae 0E9B     		ldr	r3, [sp, #56]
 1821 02b0 04FB07F4 		mul	r4, r4, r7
 1822 02b4 0EF1FF32 		add	r2, lr, #-1
1141:..\..\..\lvgl\version_6.1.2\lvgl\src\lv_objx/lv_chart.c ****                 lv_point_t triangle_points[3];
 1823              		.loc 1 1141 0
 1824 02b8 5045     		cmp	r0, r10
1135:..\..\..\lvgl\version_6.1.2\lvgl\src\lv_objx/lv_chart.c **** 
 1825              		.loc 1 1135 0
 1826 02ba 94FBF2F4 		sdiv	r4, r4, r2
 1827 02be 1C44     		add	r4, r4, r3
1139:..\..\..\lvgl\version_6.1.2\lvgl\src\lv_objx/lv_chart.c **** 
 1828              		.loc 1 1139 0
 1829 02c0 36B2     		sxth	r6, r6
1135:..\..\..\lvgl\version_6.1.2\lvgl\src\lv_objx/lv_chart.c **** 
 1830              		.loc 1 1135 0
 1831 02c2 24B2     		sxth	r4, r4
 1832              	.LVL230:
