ARM GAS  C:\Users\pearlstl\AppData\Local\Temp\ccHPSyCj.s 			page 1


   1              		.syntax unified
   2              		.cpu cortex-m4
   3              		.eabi_attribute 27, 1
   4              		.fpu fpv4-sp-d16
   5              		.eabi_attribute 20, 1
   6              		.eabi_attribute 21, 1
   7              		.eabi_attribute 23, 3
   8              		.eabi_attribute 24, 1
   9              		.eabi_attribute 25, 1
  10              		.eabi_attribute 26, 1
  11              		.eabi_attribute 30, 2
  12              		.eabi_attribute 34, 1
  13              		.eabi_attribute 18, 4
  14              		.thumb
  15              		.syntax unified
  16              		.file	"lv_calendar.c"
  17              		.text
  18              	.Ltext0:
  19              		.cfi_sections	.debug_frame
  20              		.section	.text.lv_calendar_design,"ax",%progbits
  21              		.align	2
  22              		.thumb
  23              		.thumb_func
  24              		.type	lv_calendar_design, %function
  25              	lv_calendar_design:
  26              	.LFB46:
  27              		.file 1 "..\\..\\..\\lvgl\\version_6.1.2\\lvgl\\src\\lv_objx\\lv_calendar.c"
   1:..\..\..\lvgl\version_6.1.2\lvgl\src\lv_objx/lv_calendar.c **** /**
   2:..\..\..\lvgl\version_6.1.2\lvgl\src\lv_objx/lv_calendar.c ****  * @file lv_calendar.c
   3:..\..\..\lvgl\version_6.1.2\lvgl\src\lv_objx/lv_calendar.c ****  *
   4:..\..\..\lvgl\version_6.1.2\lvgl\src\lv_objx/lv_calendar.c ****  */
   5:..\..\..\lvgl\version_6.1.2\lvgl\src\lv_objx/lv_calendar.c **** 
   6:..\..\..\lvgl\version_6.1.2\lvgl\src\lv_objx/lv_calendar.c **** /*********************
   7:..\..\..\lvgl\version_6.1.2\lvgl\src\lv_objx/lv_calendar.c ****  *      INCLUDES
   8:..\..\..\lvgl\version_6.1.2\lvgl\src\lv_objx/lv_calendar.c ****  *********************/
   9:..\..\..\lvgl\version_6.1.2\lvgl\src\lv_objx/lv_calendar.c **** #include "lv_calendar.h"
  10:..\..\..\lvgl\version_6.1.2\lvgl\src\lv_objx/lv_calendar.c **** #if LV_USE_CALENDAR != 0
  11:..\..\..\lvgl\version_6.1.2\lvgl\src\lv_objx/lv_calendar.c **** 
  12:..\..\..\lvgl\version_6.1.2\lvgl\src\lv_objx/lv_calendar.c **** #include "../lv_core/lv_debug.h"
  13:..\..\..\lvgl\version_6.1.2\lvgl\src\lv_objx/lv_calendar.c **** #include "../lv_draw/lv_draw.h"
  14:..\..\..\lvgl\version_6.1.2\lvgl\src\lv_objx/lv_calendar.c **** #include "../lv_hal/lv_hal_indev.h"
  15:..\..\..\lvgl\version_6.1.2\lvgl\src\lv_objx/lv_calendar.c **** #include "../lv_misc/lv_utils.h"
  16:..\..\..\lvgl\version_6.1.2\lvgl\src\lv_objx/lv_calendar.c **** #include "../lv_core/lv_indev.h"
  17:..\..\..\lvgl\version_6.1.2\lvgl\src\lv_objx/lv_calendar.c **** #include "../lv_themes/lv_theme.h"
  18:..\..\..\lvgl\version_6.1.2\lvgl\src\lv_objx/lv_calendar.c **** #include <string.h>
  19:..\..\..\lvgl\version_6.1.2\lvgl\src\lv_objx/lv_calendar.c **** 
  20:..\..\..\lvgl\version_6.1.2\lvgl\src\lv_objx/lv_calendar.c **** /*********************
  21:..\..\..\lvgl\version_6.1.2\lvgl\src\lv_objx/lv_calendar.c ****  *      DEFINES
  22:..\..\..\lvgl\version_6.1.2\lvgl\src\lv_objx/lv_calendar.c ****  *********************/
  23:..\..\..\lvgl\version_6.1.2\lvgl\src\lv_objx/lv_calendar.c **** #define LV_OBJX_NAME "lv_calendar"
  24:..\..\..\lvgl\version_6.1.2\lvgl\src\lv_objx/lv_calendar.c **** 
  25:..\..\..\lvgl\version_6.1.2\lvgl\src\lv_objx/lv_calendar.c **** /**********************
  26:..\..\..\lvgl\version_6.1.2\lvgl\src\lv_objx/lv_calendar.c ****  *      TYPEDEFS
  27:..\..\..\lvgl\version_6.1.2\lvgl\src\lv_objx/lv_calendar.c ****  **********************/
  28:..\..\..\lvgl\version_6.1.2\lvgl\src\lv_objx/lv_calendar.c **** enum {
  29:..\..\..\lvgl\version_6.1.2\lvgl\src\lv_objx/lv_calendar.c ****     DAY_DRAW_PREV_MONTH,
  30:..\..\..\lvgl\version_6.1.2\lvgl\src\lv_objx/lv_calendar.c ****     DAY_DRAW_ACT_MONTH,
ARM GAS  C:\Users\pearlstl\AppData\Local\Temp\ccHPSyCj.s 			page 2


  31:..\..\..\lvgl\version_6.1.2\lvgl\src\lv_objx/lv_calendar.c ****     DAY_DRAW_NEXT_MONTH,
  32:..\..\..\lvgl\version_6.1.2\lvgl\src\lv_objx/lv_calendar.c **** };
  33:..\..\..\lvgl\version_6.1.2\lvgl\src\lv_objx/lv_calendar.c **** typedef uint8_t day_draw_state_t;
  34:..\..\..\lvgl\version_6.1.2\lvgl\src\lv_objx/lv_calendar.c **** 
  35:..\..\..\lvgl\version_6.1.2\lvgl\src\lv_objx/lv_calendar.c **** /**********************
  36:..\..\..\lvgl\version_6.1.2\lvgl\src\lv_objx/lv_calendar.c ****  *  STATIC PROTOTYPES
  37:..\..\..\lvgl\version_6.1.2\lvgl\src\lv_objx/lv_calendar.c ****  **********************/
  38:..\..\..\lvgl\version_6.1.2\lvgl\src\lv_objx/lv_calendar.c **** static bool lv_calendar_design(lv_obj_t * calendar, const lv_area_t * mask, lv_design_mode_t mode);
  39:..\..\..\lvgl\version_6.1.2\lvgl\src\lv_objx/lv_calendar.c **** static lv_res_t lv_calendar_signal(lv_obj_t * calendar, lv_signal_t sign, void * param);
  40:..\..\..\lvgl\version_6.1.2\lvgl\src\lv_objx/lv_calendar.c **** static bool calculate_touched_day(lv_obj_t * calendar, const lv_point_t * touched_point);
  41:..\..\..\lvgl\version_6.1.2\lvgl\src\lv_objx/lv_calendar.c **** static lv_coord_t get_header_height(lv_obj_t * calendar);
  42:..\..\..\lvgl\version_6.1.2\lvgl\src\lv_objx/lv_calendar.c **** static lv_coord_t get_day_names_height(lv_obj_t * calendar);
  43:..\..\..\lvgl\version_6.1.2\lvgl\src\lv_objx/lv_calendar.c **** static void draw_header(lv_obj_t * calendar, const lv_area_t * mask);
  44:..\..\..\lvgl\version_6.1.2\lvgl\src\lv_objx/lv_calendar.c **** static void draw_day_names(lv_obj_t * calendar, const lv_area_t * mask);
  45:..\..\..\lvgl\version_6.1.2\lvgl\src\lv_objx/lv_calendar.c **** static void draw_days(lv_obj_t * calendar, const lv_area_t * mask);
  46:..\..\..\lvgl\version_6.1.2\lvgl\src\lv_objx/lv_calendar.c **** static uint8_t get_day_of_week(uint32_t year, uint32_t month, uint32_t day);
  47:..\..\..\lvgl\version_6.1.2\lvgl\src\lv_objx/lv_calendar.c **** static bool is_highlighted(lv_obj_t * calendar, int32_t year, int32_t month, int32_t day);
  48:..\..\..\lvgl\version_6.1.2\lvgl\src\lv_objx/lv_calendar.c **** static const char * get_day_name(lv_obj_t * calendar, uint8_t day);
  49:..\..\..\lvgl\version_6.1.2\lvgl\src\lv_objx/lv_calendar.c **** static const char * get_month_name(lv_obj_t * calendar, int32_t month);
  50:..\..\..\lvgl\version_6.1.2\lvgl\src\lv_objx/lv_calendar.c **** static uint8_t get_month_length(int32_t year, int32_t month);
  51:..\..\..\lvgl\version_6.1.2\lvgl\src\lv_objx/lv_calendar.c **** static uint8_t is_leap_year(uint32_t year);
  52:..\..\..\lvgl\version_6.1.2\lvgl\src\lv_objx/lv_calendar.c **** 
  53:..\..\..\lvgl\version_6.1.2\lvgl\src\lv_objx/lv_calendar.c **** /**********************
  54:..\..\..\lvgl\version_6.1.2\lvgl\src\lv_objx/lv_calendar.c ****  *  STATIC VARIABLES
  55:..\..\..\lvgl\version_6.1.2\lvgl\src\lv_objx/lv_calendar.c ****  **********************/
  56:..\..\..\lvgl\version_6.1.2\lvgl\src\lv_objx/lv_calendar.c **** static lv_signal_cb_t ancestor_signal;
  57:..\..\..\lvgl\version_6.1.2\lvgl\src\lv_objx/lv_calendar.c **** static lv_design_cb_t ancestor_design;
  58:..\..\..\lvgl\version_6.1.2\lvgl\src\lv_objx/lv_calendar.c **** static const char * day_name[7]    = {"Su", "Mo", "Tu", "We", "Th", "Fr", "Sa"};
  59:..\..\..\lvgl\version_6.1.2\lvgl\src\lv_objx/lv_calendar.c **** static const char * month_name[12] = {"January", "February", "March",     "April",   "May",      "J
  60:..\..\..\lvgl\version_6.1.2\lvgl\src\lv_objx/lv_calendar.c ****                                       "July",    "August",   "September", "October", "November", "D
  61:..\..\..\lvgl\version_6.1.2\lvgl\src\lv_objx/lv_calendar.c **** 
  62:..\..\..\lvgl\version_6.1.2\lvgl\src\lv_objx/lv_calendar.c **** /**********************
  63:..\..\..\lvgl\version_6.1.2\lvgl\src\lv_objx/lv_calendar.c ****  *      MACROS
  64:..\..\..\lvgl\version_6.1.2\lvgl\src\lv_objx/lv_calendar.c ****  **********************/
  65:..\..\..\lvgl\version_6.1.2\lvgl\src\lv_objx/lv_calendar.c **** 
  66:..\..\..\lvgl\version_6.1.2\lvgl\src\lv_objx/lv_calendar.c **** /**********************
  67:..\..\..\lvgl\version_6.1.2\lvgl\src\lv_objx/lv_calendar.c ****  *   GLOBAL FUNCTIONS
  68:..\..\..\lvgl\version_6.1.2\lvgl\src\lv_objx/lv_calendar.c ****  **********************/
  69:..\..\..\lvgl\version_6.1.2\lvgl\src\lv_objx/lv_calendar.c **** 
  70:..\..\..\lvgl\version_6.1.2\lvgl\src\lv_objx/lv_calendar.c **** /**
  71:..\..\..\lvgl\version_6.1.2\lvgl\src\lv_objx/lv_calendar.c ****  * Create a calendar object
  72:..\..\..\lvgl\version_6.1.2\lvgl\src\lv_objx/lv_calendar.c ****  * @param par pointer to an object, it will be the parent of the new calendar
  73:..\..\..\lvgl\version_6.1.2\lvgl\src\lv_objx/lv_calendar.c ****  * @param copy pointer to a calendar object, if not NULL then the new object will be copied from it
  74:..\..\..\lvgl\version_6.1.2\lvgl\src\lv_objx/lv_calendar.c ****  * @return pointer to the created calendar
  75:..\..\..\lvgl\version_6.1.2\lvgl\src\lv_objx/lv_calendar.c ****  */
  76:..\..\..\lvgl\version_6.1.2\lvgl\src\lv_objx/lv_calendar.c **** lv_obj_t * lv_calendar_create(lv_obj_t * par, const lv_obj_t * copy)
  77:..\..\..\lvgl\version_6.1.2\lvgl\src\lv_objx/lv_calendar.c **** {
  78:..\..\..\lvgl\version_6.1.2\lvgl\src\lv_objx/lv_calendar.c ****     LV_LOG_TRACE("calendar create started");
  79:..\..\..\lvgl\version_6.1.2\lvgl\src\lv_objx/lv_calendar.c **** 
  80:..\..\..\lvgl\version_6.1.2\lvgl\src\lv_objx/lv_calendar.c ****     /*Create the ancestor of calendar*/
  81:..\..\..\lvgl\version_6.1.2\lvgl\src\lv_objx/lv_calendar.c ****     lv_obj_t * new_calendar = lv_obj_create(par, copy);
  82:..\..\..\lvgl\version_6.1.2\lvgl\src\lv_objx/lv_calendar.c ****     LV_ASSERT_MEM(new_calendar);
  83:..\..\..\lvgl\version_6.1.2\lvgl\src\lv_objx/lv_calendar.c ****     if(new_calendar == NULL) return NULL;
  84:..\..\..\lvgl\version_6.1.2\lvgl\src\lv_objx/lv_calendar.c **** 
  85:..\..\..\lvgl\version_6.1.2\lvgl\src\lv_objx/lv_calendar.c ****     /*Allocate the calendar type specific extended data*/
  86:..\..\..\lvgl\version_6.1.2\lvgl\src\lv_objx/lv_calendar.c ****     lv_calendar_ext_t * ext = lv_obj_allocate_ext_attr(new_calendar, sizeof(lv_calendar_ext_t));
  87:..\..\..\lvgl\version_6.1.2\lvgl\src\lv_objx/lv_calendar.c ****     LV_ASSERT_MEM(ext);
ARM GAS  C:\Users\pearlstl\AppData\Local\Temp\ccHPSyCj.s 			page 3


  88:..\..\..\lvgl\version_6.1.2\lvgl\src\lv_objx/lv_calendar.c ****     if(ext == NULL) return NULL;
  89:..\..\..\lvgl\version_6.1.2\lvgl\src\lv_objx/lv_calendar.c ****     if(ancestor_signal == NULL) ancestor_signal = lv_obj_get_signal_cb(new_calendar);
  90:..\..\..\lvgl\version_6.1.2\lvgl\src\lv_objx/lv_calendar.c ****     if(ancestor_design == NULL) ancestor_design = lv_obj_get_design_cb(new_calendar);
  91:..\..\..\lvgl\version_6.1.2\lvgl\src\lv_objx/lv_calendar.c **** 
  92:..\..\..\lvgl\version_6.1.2\lvgl\src\lv_objx/lv_calendar.c ****     /*Initialize the allocated 'ext' */
  93:..\..\..\lvgl\version_6.1.2\lvgl\src\lv_objx/lv_calendar.c ****     ext->today.year  = 2018;
  94:..\..\..\lvgl\version_6.1.2\lvgl\src\lv_objx/lv_calendar.c ****     ext->today.month = 1;
  95:..\..\..\lvgl\version_6.1.2\lvgl\src\lv_objx/lv_calendar.c ****     ext->today.day   = 1;
  96:..\..\..\lvgl\version_6.1.2\lvgl\src\lv_objx/lv_calendar.c **** 
  97:..\..\..\lvgl\version_6.1.2\lvgl\src\lv_objx/lv_calendar.c ****     ext->showed_date.year  = 2018;
  98:..\..\..\lvgl\version_6.1.2\lvgl\src\lv_objx/lv_calendar.c ****     ext->showed_date.month = 1;
  99:..\..\..\lvgl\version_6.1.2\lvgl\src\lv_objx/lv_calendar.c ****     ext->showed_date.day   = 1;
 100:..\..\..\lvgl\version_6.1.2\lvgl\src\lv_objx/lv_calendar.c **** 
 101:..\..\..\lvgl\version_6.1.2\lvgl\src\lv_objx/lv_calendar.c ****     ext->pressed_date.year  = 0;
 102:..\..\..\lvgl\version_6.1.2\lvgl\src\lv_objx/lv_calendar.c ****     ext->pressed_date.month = 0;
 103:..\..\..\lvgl\version_6.1.2\lvgl\src\lv_objx/lv_calendar.c ****     ext->pressed_date.day   = 0;
 104:..\..\..\lvgl\version_6.1.2\lvgl\src\lv_objx/lv_calendar.c **** 
 105:..\..\..\lvgl\version_6.1.2\lvgl\src\lv_objx/lv_calendar.c ****     ext->highlighted_dates      = NULL;
 106:..\..\..\lvgl\version_6.1.2\lvgl\src\lv_objx/lv_calendar.c ****     ext->highlighted_dates_num  = 0;
 107:..\..\..\lvgl\version_6.1.2\lvgl\src\lv_objx/lv_calendar.c ****     ext->day_names              = NULL;
 108:..\..\..\lvgl\version_6.1.2\lvgl\src\lv_objx/lv_calendar.c ****     ext->month_names            = NULL;
 109:..\..\..\lvgl\version_6.1.2\lvgl\src\lv_objx/lv_calendar.c ****     ext->style_header           = &lv_style_plain_color;
 110:..\..\..\lvgl\version_6.1.2\lvgl\src\lv_objx/lv_calendar.c ****     ext->style_header_pr        = &lv_style_pretty_color;
 111:..\..\..\lvgl\version_6.1.2\lvgl\src\lv_objx/lv_calendar.c ****     ext->style_highlighted_days = &lv_style_plain_color;
 112:..\..\..\lvgl\version_6.1.2\lvgl\src\lv_objx/lv_calendar.c ****     ext->style_inactive_days    = &lv_style_btn_ina;
 113:..\..\..\lvgl\version_6.1.2\lvgl\src\lv_objx/lv_calendar.c ****     ext->style_week_box         = &lv_style_plain_color;
 114:..\..\..\lvgl\version_6.1.2\lvgl\src\lv_objx/lv_calendar.c ****     ext->style_today_box        = &lv_style_pretty_color;
 115:..\..\..\lvgl\version_6.1.2\lvgl\src\lv_objx/lv_calendar.c ****     ext->style_day_names        = &lv_style_pretty;
 116:..\..\..\lvgl\version_6.1.2\lvgl\src\lv_objx/lv_calendar.c **** 
 117:..\..\..\lvgl\version_6.1.2\lvgl\src\lv_objx/lv_calendar.c ****     /*The signal and design functions are not copied so set them here*/
 118:..\..\..\lvgl\version_6.1.2\lvgl\src\lv_objx/lv_calendar.c ****     lv_obj_set_signal_cb(new_calendar, lv_calendar_signal);
 119:..\..\..\lvgl\version_6.1.2\lvgl\src\lv_objx/lv_calendar.c ****     lv_obj_set_design_cb(new_calendar, lv_calendar_design);
 120:..\..\..\lvgl\version_6.1.2\lvgl\src\lv_objx/lv_calendar.c **** 
 121:..\..\..\lvgl\version_6.1.2\lvgl\src\lv_objx/lv_calendar.c ****     /*Init the new calendar calendar*/
 122:..\..\..\lvgl\version_6.1.2\lvgl\src\lv_objx/lv_calendar.c ****     if(copy == NULL) {
 123:..\..\..\lvgl\version_6.1.2\lvgl\src\lv_objx/lv_calendar.c ****         lv_obj_set_size(new_calendar, LV_DPI * 2, LV_DPI * 2);
 124:..\..\..\lvgl\version_6.1.2\lvgl\src\lv_objx/lv_calendar.c ****         lv_obj_set_style(new_calendar, &lv_style_pretty);
 125:..\..\..\lvgl\version_6.1.2\lvgl\src\lv_objx/lv_calendar.c **** 
 126:..\..\..\lvgl\version_6.1.2\lvgl\src\lv_objx/lv_calendar.c ****         lv_theme_t * th = lv_theme_get_current();
 127:..\..\..\lvgl\version_6.1.2\lvgl\src\lv_objx/lv_calendar.c ****         if(th) {
 128:..\..\..\lvgl\version_6.1.2\lvgl\src\lv_objx/lv_calendar.c ****             lv_calendar_set_style(new_calendar, LV_CALENDAR_STYLE_BG, th->style.calendar.bg);
 129:..\..\..\lvgl\version_6.1.2\lvgl\src\lv_objx/lv_calendar.c ****             lv_calendar_set_style(new_calendar, LV_CALENDAR_STYLE_HEADER, th->style.calendar.header
 130:..\..\..\lvgl\version_6.1.2\lvgl\src\lv_objx/lv_calendar.c ****             lv_calendar_set_style(new_calendar, LV_CALENDAR_STYLE_HEADER_PR, th->style.calendar.hea
 131:..\..\..\lvgl\version_6.1.2\lvgl\src\lv_objx/lv_calendar.c ****             lv_calendar_set_style(new_calendar, LV_CALENDAR_STYLE_DAY_NAMES, th->style.calendar.day
 132:..\..\..\lvgl\version_6.1.2\lvgl\src\lv_objx/lv_calendar.c ****             lv_calendar_set_style(new_calendar, LV_CALENDAR_STYLE_WEEK_BOX, th->style.calendar.week
 133:..\..\..\lvgl\version_6.1.2\lvgl\src\lv_objx/lv_calendar.c ****             lv_calendar_set_style(new_calendar, LV_CALENDAR_STYLE_TODAY_BOX, th->style.calendar.tod
 134:..\..\..\lvgl\version_6.1.2\lvgl\src\lv_objx/lv_calendar.c ****             lv_calendar_set_style(new_calendar, LV_CALENDAR_STYLE_HIGHLIGHTED_DAYS,
 135:..\..\..\lvgl\version_6.1.2\lvgl\src\lv_objx/lv_calendar.c ****                                   th->style.calendar.highlighted_days);
 136:..\..\..\lvgl\version_6.1.2\lvgl\src\lv_objx/lv_calendar.c ****             lv_calendar_set_style(new_calendar, LV_CALENDAR_STYLE_INACTIVE_DAYS, th->style.calendar
 137:..\..\..\lvgl\version_6.1.2\lvgl\src\lv_objx/lv_calendar.c ****         } else {
 138:..\..\..\lvgl\version_6.1.2\lvgl\src\lv_objx/lv_calendar.c ****             lv_calendar_set_style(new_calendar, LV_CALENDAR_STYLE_BG, &lv_style_pretty);
 139:..\..\..\lvgl\version_6.1.2\lvgl\src\lv_objx/lv_calendar.c ****             lv_calendar_set_style(new_calendar, LV_CALENDAR_STYLE_HEADER, ext->style_header);
 140:..\..\..\lvgl\version_6.1.2\lvgl\src\lv_objx/lv_calendar.c ****             lv_calendar_set_style(new_calendar, LV_CALENDAR_STYLE_HEADER_PR, ext->style_header_pr);
 141:..\..\..\lvgl\version_6.1.2\lvgl\src\lv_objx/lv_calendar.c ****             lv_calendar_set_style(new_calendar, LV_CALENDAR_STYLE_DAY_NAMES, ext->style_day_names);
 142:..\..\..\lvgl\version_6.1.2\lvgl\src\lv_objx/lv_calendar.c ****             lv_calendar_set_style(new_calendar, LV_CALENDAR_STYLE_WEEK_BOX, ext->style_week_box);
 143:..\..\..\lvgl\version_6.1.2\lvgl\src\lv_objx/lv_calendar.c ****             lv_calendar_set_style(new_calendar, LV_CALENDAR_STYLE_TODAY_BOX, ext->style_today_box);
 144:..\..\..\lvgl\version_6.1.2\lvgl\src\lv_objx/lv_calendar.c ****             lv_calendar_set_style(new_calendar, LV_CALENDAR_STYLE_HIGHLIGHTED_DAYS, ext->style_high
ARM GAS  C:\Users\pearlstl\AppData\Local\Temp\ccHPSyCj.s 			page 4


 145:..\..\..\lvgl\version_6.1.2\lvgl\src\lv_objx/lv_calendar.c ****             lv_calendar_set_style(new_calendar, LV_CALENDAR_STYLE_INACTIVE_DAYS, ext->style_inactiv
 146:..\..\..\lvgl\version_6.1.2\lvgl\src\lv_objx/lv_calendar.c ****         }
 147:..\..\..\lvgl\version_6.1.2\lvgl\src\lv_objx/lv_calendar.c ****     }
 148:..\..\..\lvgl\version_6.1.2\lvgl\src\lv_objx/lv_calendar.c ****     /*Copy an existing calendar*/
 149:..\..\..\lvgl\version_6.1.2\lvgl\src\lv_objx/lv_calendar.c ****     else {
 150:..\..\..\lvgl\version_6.1.2\lvgl\src\lv_objx/lv_calendar.c ****         lv_calendar_ext_t * copy_ext = lv_obj_get_ext_attr(copy);
 151:..\..\..\lvgl\version_6.1.2\lvgl\src\lv_objx/lv_calendar.c ****         ext->today.year              = copy_ext->today.year;
 152:..\..\..\lvgl\version_6.1.2\lvgl\src\lv_objx/lv_calendar.c ****         ext->today.month             = copy_ext->today.month;
 153:..\..\..\lvgl\version_6.1.2\lvgl\src\lv_objx/lv_calendar.c ****         ext->today.day               = copy_ext->today.day;
 154:..\..\..\lvgl\version_6.1.2\lvgl\src\lv_objx/lv_calendar.c **** 
 155:..\..\..\lvgl\version_6.1.2\lvgl\src\lv_objx/lv_calendar.c ****         ext->showed_date.year  = copy_ext->showed_date.year;
 156:..\..\..\lvgl\version_6.1.2\lvgl\src\lv_objx/lv_calendar.c ****         ext->showed_date.month = copy_ext->showed_date.month;
 157:..\..\..\lvgl\version_6.1.2\lvgl\src\lv_objx/lv_calendar.c ****         ext->showed_date.day   = copy_ext->showed_date.day;
 158:..\..\..\lvgl\version_6.1.2\lvgl\src\lv_objx/lv_calendar.c **** 
 159:..\..\..\lvgl\version_6.1.2\lvgl\src\lv_objx/lv_calendar.c ****         ext->highlighted_dates     = copy_ext->highlighted_dates;
 160:..\..\..\lvgl\version_6.1.2\lvgl\src\lv_objx/lv_calendar.c ****         ext->highlighted_dates_num = copy_ext->highlighted_dates_num;
 161:..\..\..\lvgl\version_6.1.2\lvgl\src\lv_objx/lv_calendar.c ****         ext->day_names             = copy_ext->day_names;
 162:..\..\..\lvgl\version_6.1.2\lvgl\src\lv_objx/lv_calendar.c **** 
 163:..\..\..\lvgl\version_6.1.2\lvgl\src\lv_objx/lv_calendar.c ****         ext->month_names            = copy_ext->month_names;
 164:..\..\..\lvgl\version_6.1.2\lvgl\src\lv_objx/lv_calendar.c ****         ext->style_header           = copy_ext->style_header;
 165:..\..\..\lvgl\version_6.1.2\lvgl\src\lv_objx/lv_calendar.c ****         ext->style_header_pr        = copy_ext->style_header_pr;
 166:..\..\..\lvgl\version_6.1.2\lvgl\src\lv_objx/lv_calendar.c ****         ext->style_highlighted_days = copy_ext->style_highlighted_days;
 167:..\..\..\lvgl\version_6.1.2\lvgl\src\lv_objx/lv_calendar.c ****         ext->style_inactive_days    = copy_ext->style_inactive_days;
 168:..\..\..\lvgl\version_6.1.2\lvgl\src\lv_objx/lv_calendar.c ****         ext->style_week_box         = copy_ext->style_week_box;
 169:..\..\..\lvgl\version_6.1.2\lvgl\src\lv_objx/lv_calendar.c ****         ext->style_today_box        = copy_ext->style_today_box;
 170:..\..\..\lvgl\version_6.1.2\lvgl\src\lv_objx/lv_calendar.c ****         ext->style_day_names        = copy_ext->style_day_names;
 171:..\..\..\lvgl\version_6.1.2\lvgl\src\lv_objx/lv_calendar.c ****         /*Refresh the style with new signal function*/
 172:..\..\..\lvgl\version_6.1.2\lvgl\src\lv_objx/lv_calendar.c ****         lv_obj_refresh_style(new_calendar);
 173:..\..\..\lvgl\version_6.1.2\lvgl\src\lv_objx/lv_calendar.c ****     }
 174:..\..\..\lvgl\version_6.1.2\lvgl\src\lv_objx/lv_calendar.c **** 
 175:..\..\..\lvgl\version_6.1.2\lvgl\src\lv_objx/lv_calendar.c ****     LV_LOG_INFO("calendar created");
 176:..\..\..\lvgl\version_6.1.2\lvgl\src\lv_objx/lv_calendar.c **** 
 177:..\..\..\lvgl\version_6.1.2\lvgl\src\lv_objx/lv_calendar.c ****     return new_calendar;
 178:..\..\..\lvgl\version_6.1.2\lvgl\src\lv_objx/lv_calendar.c **** }
 179:..\..\..\lvgl\version_6.1.2\lvgl\src\lv_objx/lv_calendar.c **** 
 180:..\..\..\lvgl\version_6.1.2\lvgl\src\lv_objx/lv_calendar.c **** /*======================
 181:..\..\..\lvgl\version_6.1.2\lvgl\src\lv_objx/lv_calendar.c ****  * Add/remove functions
 182:..\..\..\lvgl\version_6.1.2\lvgl\src\lv_objx/lv_calendar.c ****  *=====================*/
 183:..\..\..\lvgl\version_6.1.2\lvgl\src\lv_objx/lv_calendar.c **** 
 184:..\..\..\lvgl\version_6.1.2\lvgl\src\lv_objx/lv_calendar.c **** /*
 185:..\..\..\lvgl\version_6.1.2\lvgl\src\lv_objx/lv_calendar.c ****  * New object specific "add" or "remove" functions come here
 186:..\..\..\lvgl\version_6.1.2\lvgl\src\lv_objx/lv_calendar.c ****  */
 187:..\..\..\lvgl\version_6.1.2\lvgl\src\lv_objx/lv_calendar.c **** 
 188:..\..\..\lvgl\version_6.1.2\lvgl\src\lv_objx/lv_calendar.c **** /*=====================
 189:..\..\..\lvgl\version_6.1.2\lvgl\src\lv_objx/lv_calendar.c ****  * Setter functions
 190:..\..\..\lvgl\version_6.1.2\lvgl\src\lv_objx/lv_calendar.c ****  *====================*/
 191:..\..\..\lvgl\version_6.1.2\lvgl\src\lv_objx/lv_calendar.c **** 
 192:..\..\..\lvgl\version_6.1.2\lvgl\src\lv_objx/lv_calendar.c **** /**
 193:..\..\..\lvgl\version_6.1.2\lvgl\src\lv_objx/lv_calendar.c ****  * Set the today's date
 194:..\..\..\lvgl\version_6.1.2\lvgl\src\lv_objx/lv_calendar.c ****  * @param calendar pointer to a calendar object
 195:..\..\..\lvgl\version_6.1.2\lvgl\src\lv_objx/lv_calendar.c ****  * @param today pointer to an `lv_calendar_date_t` variable containing the date of today. The value
 196:..\..\..\lvgl\version_6.1.2\lvgl\src\lv_objx/lv_calendar.c ****  * will be saved it can be local variable too.
 197:..\..\..\lvgl\version_6.1.2\lvgl\src\lv_objx/lv_calendar.c ****  */
 198:..\..\..\lvgl\version_6.1.2\lvgl\src\lv_objx/lv_calendar.c **** void lv_calendar_set_today_date(lv_obj_t * calendar, lv_calendar_date_t * today)
 199:..\..\..\lvgl\version_6.1.2\lvgl\src\lv_objx/lv_calendar.c **** {
 200:..\..\..\lvgl\version_6.1.2\lvgl\src\lv_objx/lv_calendar.c ****     LV_ASSERT_OBJ(calendar, LV_OBJX_NAME);
 201:..\..\..\lvgl\version_6.1.2\lvgl\src\lv_objx/lv_calendar.c ****     LV_ASSERT_NULL(today);
ARM GAS  C:\Users\pearlstl\AppData\Local\Temp\ccHPSyCj.s 			page 5


 202:..\..\..\lvgl\version_6.1.2\lvgl\src\lv_objx/lv_calendar.c **** 
 203:..\..\..\lvgl\version_6.1.2\lvgl\src\lv_objx/lv_calendar.c ****     lv_calendar_ext_t * ext = lv_obj_get_ext_attr(calendar);
 204:..\..\..\lvgl\version_6.1.2\lvgl\src\lv_objx/lv_calendar.c ****     ext->today.year         = today->year;
 205:..\..\..\lvgl\version_6.1.2\lvgl\src\lv_objx/lv_calendar.c ****     ext->today.month        = today->month;
 206:..\..\..\lvgl\version_6.1.2\lvgl\src\lv_objx/lv_calendar.c ****     ext->today.day          = today->day;
 207:..\..\..\lvgl\version_6.1.2\lvgl\src\lv_objx/lv_calendar.c **** 
 208:..\..\..\lvgl\version_6.1.2\lvgl\src\lv_objx/lv_calendar.c ****     lv_obj_invalidate(calendar);
 209:..\..\..\lvgl\version_6.1.2\lvgl\src\lv_objx/lv_calendar.c **** }
 210:..\..\..\lvgl\version_6.1.2\lvgl\src\lv_objx/lv_calendar.c **** 
 211:..\..\..\lvgl\version_6.1.2\lvgl\src\lv_objx/lv_calendar.c **** /**
 212:..\..\..\lvgl\version_6.1.2\lvgl\src\lv_objx/lv_calendar.c ****  * Set the currently showed
 213:..\..\..\lvgl\version_6.1.2\lvgl\src\lv_objx/lv_calendar.c ****  * @param calendar pointer to a calendar object
 214:..\..\..\lvgl\version_6.1.2\lvgl\src\lv_objx/lv_calendar.c ****  * @param showed pointer to an `lv_calendar_date_t` variable containing the date to show. The value
 215:..\..\..\lvgl\version_6.1.2\lvgl\src\lv_objx/lv_calendar.c ****  * will be saved it can be local variable too.
 216:..\..\..\lvgl\version_6.1.2\lvgl\src\lv_objx/lv_calendar.c ****  */
 217:..\..\..\lvgl\version_6.1.2\lvgl\src\lv_objx/lv_calendar.c **** void lv_calendar_set_showed_date(lv_obj_t * calendar, lv_calendar_date_t * showed)
 218:..\..\..\lvgl\version_6.1.2\lvgl\src\lv_objx/lv_calendar.c **** {
 219:..\..\..\lvgl\version_6.1.2\lvgl\src\lv_objx/lv_calendar.c ****     LV_ASSERT_OBJ(calendar, LV_OBJX_NAME);
 220:..\..\..\lvgl\version_6.1.2\lvgl\src\lv_objx/lv_calendar.c ****     LV_ASSERT_NULL(showed);
 221:..\..\..\lvgl\version_6.1.2\lvgl\src\lv_objx/lv_calendar.c **** 
 222:..\..\..\lvgl\version_6.1.2\lvgl\src\lv_objx/lv_calendar.c ****     lv_calendar_ext_t * ext = lv_obj_get_ext_attr(calendar);
 223:..\..\..\lvgl\version_6.1.2\lvgl\src\lv_objx/lv_calendar.c ****     ext->showed_date.year   = showed->year;
 224:..\..\..\lvgl\version_6.1.2\lvgl\src\lv_objx/lv_calendar.c ****     ext->showed_date.month  = showed->month;
 225:..\..\..\lvgl\version_6.1.2\lvgl\src\lv_objx/lv_calendar.c ****     ext->showed_date.day    = showed->day;
 226:..\..\..\lvgl\version_6.1.2\lvgl\src\lv_objx/lv_calendar.c **** 
 227:..\..\..\lvgl\version_6.1.2\lvgl\src\lv_objx/lv_calendar.c ****     lv_obj_invalidate(calendar);
 228:..\..\..\lvgl\version_6.1.2\lvgl\src\lv_objx/lv_calendar.c **** }
 229:..\..\..\lvgl\version_6.1.2\lvgl\src\lv_objx/lv_calendar.c **** 
 230:..\..\..\lvgl\version_6.1.2\lvgl\src\lv_objx/lv_calendar.c **** /**
 231:..\..\..\lvgl\version_6.1.2\lvgl\src\lv_objx/lv_calendar.c ****  * Set the the highlighted dates
 232:..\..\..\lvgl\version_6.1.2\lvgl\src\lv_objx/lv_calendar.c ****  * @param calendar pointer to a calendar object
 233:..\..\..\lvgl\version_6.1.2\lvgl\src\lv_objx/lv_calendar.c ****  * @param highlighted pointer to an `lv_calendar_date_t` array containing the dates. ONLY A POINTER
 234:..\..\..\lvgl\version_6.1.2\lvgl\src\lv_objx/lv_calendar.c ****  * WILL BE SAVED! CAN'T BE LOCAL ARRAY.
 235:..\..\..\lvgl\version_6.1.2\lvgl\src\lv_objx/lv_calendar.c ****  * @param date_num number of dates in the array
 236:..\..\..\lvgl\version_6.1.2\lvgl\src\lv_objx/lv_calendar.c ****  */
 237:..\..\..\lvgl\version_6.1.2\lvgl\src\lv_objx/lv_calendar.c **** void lv_calendar_set_highlighted_dates(lv_obj_t * calendar, lv_calendar_date_t highlighted[], uint1
 238:..\..\..\lvgl\version_6.1.2\lvgl\src\lv_objx/lv_calendar.c **** {
 239:..\..\..\lvgl\version_6.1.2\lvgl\src\lv_objx/lv_calendar.c ****     LV_ASSERT_OBJ(calendar, LV_OBJX_NAME);
 240:..\..\..\lvgl\version_6.1.2\lvgl\src\lv_objx/lv_calendar.c ****     LV_ASSERT_NULL(highlighted);
 241:..\..\..\lvgl\version_6.1.2\lvgl\src\lv_objx/lv_calendar.c **** 
 242:..\..\..\lvgl\version_6.1.2\lvgl\src\lv_objx/lv_calendar.c ****     lv_calendar_ext_t * ext    = lv_obj_get_ext_attr(calendar);
 243:..\..\..\lvgl\version_6.1.2\lvgl\src\lv_objx/lv_calendar.c ****     ext->highlighted_dates     = highlighted;
 244:..\..\..\lvgl\version_6.1.2\lvgl\src\lv_objx/lv_calendar.c ****     ext->highlighted_dates_num = date_num;
 245:..\..\..\lvgl\version_6.1.2\lvgl\src\lv_objx/lv_calendar.c **** 
 246:..\..\..\lvgl\version_6.1.2\lvgl\src\lv_objx/lv_calendar.c ****     lv_obj_invalidate(calendar);
 247:..\..\..\lvgl\version_6.1.2\lvgl\src\lv_objx/lv_calendar.c **** }
 248:..\..\..\lvgl\version_6.1.2\lvgl\src\lv_objx/lv_calendar.c **** 
 249:..\..\..\lvgl\version_6.1.2\lvgl\src\lv_objx/lv_calendar.c **** /**
 250:..\..\..\lvgl\version_6.1.2\lvgl\src\lv_objx/lv_calendar.c ****  * Set the name of the days
 251:..\..\..\lvgl\version_6.1.2\lvgl\src\lv_objx/lv_calendar.c ****  * @param calendar pointer to a calendar object
 252:..\..\..\lvgl\version_6.1.2\lvgl\src\lv_objx/lv_calendar.c ****  * @param day_names pointer to an array with the names. E.g. `const char * days[7] = {"Sun", "Mon",
 253:..\..\..\lvgl\version_6.1.2\lvgl\src\lv_objx/lv_calendar.c ****  * ...}` Only the pointer will be saved so this variable can't be local which will be destroyed
 254:..\..\..\lvgl\version_6.1.2\lvgl\src\lv_objx/lv_calendar.c ****  * later.
 255:..\..\..\lvgl\version_6.1.2\lvgl\src\lv_objx/lv_calendar.c ****  */
 256:..\..\..\lvgl\version_6.1.2\lvgl\src\lv_objx/lv_calendar.c **** void lv_calendar_set_day_names(lv_obj_t * calendar, const char ** day_names)
 257:..\..\..\lvgl\version_6.1.2\lvgl\src\lv_objx/lv_calendar.c **** {
 258:..\..\..\lvgl\version_6.1.2\lvgl\src\lv_objx/lv_calendar.c ****     LV_ASSERT_OBJ(calendar, LV_OBJX_NAME);
ARM GAS  C:\Users\pearlstl\AppData\Local\Temp\ccHPSyCj.s 			page 6


 259:..\..\..\lvgl\version_6.1.2\lvgl\src\lv_objx/lv_calendar.c ****     LV_ASSERT_NULL(day_names);
 260:..\..\..\lvgl\version_6.1.2\lvgl\src\lv_objx/lv_calendar.c **** 
 261:..\..\..\lvgl\version_6.1.2\lvgl\src\lv_objx/lv_calendar.c ****     lv_calendar_ext_t * ext = lv_obj_get_ext_attr(calendar);
 262:..\..\..\lvgl\version_6.1.2\lvgl\src\lv_objx/lv_calendar.c ****     ext->day_names          = day_names;
 263:..\..\..\lvgl\version_6.1.2\lvgl\src\lv_objx/lv_calendar.c ****     lv_obj_invalidate(calendar);
 264:..\..\..\lvgl\version_6.1.2\lvgl\src\lv_objx/lv_calendar.c **** }
 265:..\..\..\lvgl\version_6.1.2\lvgl\src\lv_objx/lv_calendar.c **** 
 266:..\..\..\lvgl\version_6.1.2\lvgl\src\lv_objx/lv_calendar.c **** /**
 267:..\..\..\lvgl\version_6.1.2\lvgl\src\lv_objx/lv_calendar.c ****  * Set the name of the month
 268:..\..\..\lvgl\version_6.1.2\lvgl\src\lv_objx/lv_calendar.c ****  * @param calendar pointer to a calendar object
 269:..\..\..\lvgl\version_6.1.2\lvgl\src\lv_objx/lv_calendar.c ****  * @param month_names pointer to an array with the names. E.g. `const char * days[12] = {"Jan", "Fe
 270:..\..\..\lvgl\version_6.1.2\lvgl\src\lv_objx/lv_calendar.c ****  * ...}` Only the pointer will be saved so this variable can't be local which will be destroyed
 271:..\..\..\lvgl\version_6.1.2\lvgl\src\lv_objx/lv_calendar.c ****  * later.
 272:..\..\..\lvgl\version_6.1.2\lvgl\src\lv_objx/lv_calendar.c ****  */
 273:..\..\..\lvgl\version_6.1.2\lvgl\src\lv_objx/lv_calendar.c **** void lv_calendar_set_month_names(lv_obj_t * calendar, const char ** month_names)
 274:..\..\..\lvgl\version_6.1.2\lvgl\src\lv_objx/lv_calendar.c **** {
 275:..\..\..\lvgl\version_6.1.2\lvgl\src\lv_objx/lv_calendar.c ****     LV_ASSERT_OBJ(calendar, LV_OBJX_NAME);
 276:..\..\..\lvgl\version_6.1.2\lvgl\src\lv_objx/lv_calendar.c ****     LV_ASSERT_NULL(month_names);
 277:..\..\..\lvgl\version_6.1.2\lvgl\src\lv_objx/lv_calendar.c **** 
 278:..\..\..\lvgl\version_6.1.2\lvgl\src\lv_objx/lv_calendar.c ****     lv_calendar_ext_t * ext = lv_obj_get_ext_attr(calendar);
 279:..\..\..\lvgl\version_6.1.2\lvgl\src\lv_objx/lv_calendar.c ****     ext->month_names        = month_names;
 280:..\..\..\lvgl\version_6.1.2\lvgl\src\lv_objx/lv_calendar.c ****     lv_obj_invalidate(calendar);
 281:..\..\..\lvgl\version_6.1.2\lvgl\src\lv_objx/lv_calendar.c **** }
 282:..\..\..\lvgl\version_6.1.2\lvgl\src\lv_objx/lv_calendar.c **** 
 283:..\..\..\lvgl\version_6.1.2\lvgl\src\lv_objx/lv_calendar.c **** /**
 284:..\..\..\lvgl\version_6.1.2\lvgl\src\lv_objx/lv_calendar.c ****  * Set a style of a calendar.
 285:..\..\..\lvgl\version_6.1.2\lvgl\src\lv_objx/lv_calendar.c ****  * @param calendar pointer to calendar object
 286:..\..\..\lvgl\version_6.1.2\lvgl\src\lv_objx/lv_calendar.c ****  * @param type which style should be set
 287:..\..\..\lvgl\version_6.1.2\lvgl\src\lv_objx/lv_calendar.c ****  * @param style pointer to a style
 288:..\..\..\lvgl\version_6.1.2\lvgl\src\lv_objx/lv_calendar.c ****  *  */
 289:..\..\..\lvgl\version_6.1.2\lvgl\src\lv_objx/lv_calendar.c **** void lv_calendar_set_style(lv_obj_t * calendar, lv_calendar_style_t type, const lv_style_t * style)
 290:..\..\..\lvgl\version_6.1.2\lvgl\src\lv_objx/lv_calendar.c **** {
 291:..\..\..\lvgl\version_6.1.2\lvgl\src\lv_objx/lv_calendar.c ****     LV_ASSERT_OBJ(calendar, LV_OBJX_NAME);
 292:..\..\..\lvgl\version_6.1.2\lvgl\src\lv_objx/lv_calendar.c **** 
 293:..\..\..\lvgl\version_6.1.2\lvgl\src\lv_objx/lv_calendar.c ****     lv_calendar_ext_t * ext = lv_obj_get_ext_attr(calendar);
 294:..\..\..\lvgl\version_6.1.2\lvgl\src\lv_objx/lv_calendar.c **** 
 295:..\..\..\lvgl\version_6.1.2\lvgl\src\lv_objx/lv_calendar.c ****     switch(type) {
 296:..\..\..\lvgl\version_6.1.2\lvgl\src\lv_objx/lv_calendar.c ****         case LV_CALENDAR_STYLE_BG: lv_obj_set_style(calendar, style); break;
 297:..\..\..\lvgl\version_6.1.2\lvgl\src\lv_objx/lv_calendar.c ****         case LV_CALENDAR_STYLE_DAY_NAMES: ext->style_day_names = style; break;
 298:..\..\..\lvgl\version_6.1.2\lvgl\src\lv_objx/lv_calendar.c ****         case LV_CALENDAR_STYLE_HEADER: ext->style_header = style; break;
 299:..\..\..\lvgl\version_6.1.2\lvgl\src\lv_objx/lv_calendar.c ****         case LV_CALENDAR_STYLE_HEADER_PR: ext->style_header_pr = style; break;
 300:..\..\..\lvgl\version_6.1.2\lvgl\src\lv_objx/lv_calendar.c ****         case LV_CALENDAR_STYLE_HIGHLIGHTED_DAYS: ext->style_highlighted_days = style; break;
 301:..\..\..\lvgl\version_6.1.2\lvgl\src\lv_objx/lv_calendar.c ****         case LV_CALENDAR_STYLE_INACTIVE_DAYS: ext->style_inactive_days = style; break;
 302:..\..\..\lvgl\version_6.1.2\lvgl\src\lv_objx/lv_calendar.c ****         case LV_CALENDAR_STYLE_TODAY_BOX: ext->style_today_box = style; break;
 303:..\..\..\lvgl\version_6.1.2\lvgl\src\lv_objx/lv_calendar.c ****         case LV_CALENDAR_STYLE_WEEK_BOX: ext->style_week_box = style; break;
 304:..\..\..\lvgl\version_6.1.2\lvgl\src\lv_objx/lv_calendar.c ****     }
 305:..\..\..\lvgl\version_6.1.2\lvgl\src\lv_objx/lv_calendar.c **** 
 306:..\..\..\lvgl\version_6.1.2\lvgl\src\lv_objx/lv_calendar.c ****     lv_obj_invalidate(calendar);
 307:..\..\..\lvgl\version_6.1.2\lvgl\src\lv_objx/lv_calendar.c **** }
 308:..\..\..\lvgl\version_6.1.2\lvgl\src\lv_objx/lv_calendar.c **** 
 309:..\..\..\lvgl\version_6.1.2\lvgl\src\lv_objx/lv_calendar.c **** /*=====================
 310:..\..\..\lvgl\version_6.1.2\lvgl\src\lv_objx/lv_calendar.c ****  * Getter functions
 311:..\..\..\lvgl\version_6.1.2\lvgl\src\lv_objx/lv_calendar.c ****  *====================*/
 312:..\..\..\lvgl\version_6.1.2\lvgl\src\lv_objx/lv_calendar.c **** 
 313:..\..\..\lvgl\version_6.1.2\lvgl\src\lv_objx/lv_calendar.c **** /**
 314:..\..\..\lvgl\version_6.1.2\lvgl\src\lv_objx/lv_calendar.c ****  * Get the today's date
 315:..\..\..\lvgl\version_6.1.2\lvgl\src\lv_objx/lv_calendar.c ****  * @param calendar pointer to a calendar object
ARM GAS  C:\Users\pearlstl\AppData\Local\Temp\ccHPSyCj.s 			page 7


 316:..\..\..\lvgl\version_6.1.2\lvgl\src\lv_objx/lv_calendar.c ****  * @return return pointer to an `lv_calendar_date_t` variable containing the date of today.
 317:..\..\..\lvgl\version_6.1.2\lvgl\src\lv_objx/lv_calendar.c ****  */
 318:..\..\..\lvgl\version_6.1.2\lvgl\src\lv_objx/lv_calendar.c **** lv_calendar_date_t * lv_calendar_get_today_date(const lv_obj_t * calendar)
 319:..\..\..\lvgl\version_6.1.2\lvgl\src\lv_objx/lv_calendar.c **** {
 320:..\..\..\lvgl\version_6.1.2\lvgl\src\lv_objx/lv_calendar.c ****     LV_ASSERT_OBJ(calendar, LV_OBJX_NAME);
 321:..\..\..\lvgl\version_6.1.2\lvgl\src\lv_objx/lv_calendar.c **** 
 322:..\..\..\lvgl\version_6.1.2\lvgl\src\lv_objx/lv_calendar.c ****     lv_calendar_ext_t * ext = lv_obj_get_ext_attr(calendar);
 323:..\..\..\lvgl\version_6.1.2\lvgl\src\lv_objx/lv_calendar.c ****     return &ext->today;
 324:..\..\..\lvgl\version_6.1.2\lvgl\src\lv_objx/lv_calendar.c **** }
 325:..\..\..\lvgl\version_6.1.2\lvgl\src\lv_objx/lv_calendar.c **** 
 326:..\..\..\lvgl\version_6.1.2\lvgl\src\lv_objx/lv_calendar.c **** /**
 327:..\..\..\lvgl\version_6.1.2\lvgl\src\lv_objx/lv_calendar.c ****  * Get the currently showed
 328:..\..\..\lvgl\version_6.1.2\lvgl\src\lv_objx/lv_calendar.c ****  * @param calendar pointer to a calendar object
 329:..\..\..\lvgl\version_6.1.2\lvgl\src\lv_objx/lv_calendar.c ****  * @return pointer to an `lv_calendar_date_t` variable containing the date is being shown.
 330:..\..\..\lvgl\version_6.1.2\lvgl\src\lv_objx/lv_calendar.c ****  */
 331:..\..\..\lvgl\version_6.1.2\lvgl\src\lv_objx/lv_calendar.c **** lv_calendar_date_t * lv_calendar_get_showed_date(const lv_obj_t * calendar)
 332:..\..\..\lvgl\version_6.1.2\lvgl\src\lv_objx/lv_calendar.c **** {
 333:..\..\..\lvgl\version_6.1.2\lvgl\src\lv_objx/lv_calendar.c ****     LV_ASSERT_OBJ(calendar, LV_OBJX_NAME);
 334:..\..\..\lvgl\version_6.1.2\lvgl\src\lv_objx/lv_calendar.c **** 
 335:..\..\..\lvgl\version_6.1.2\lvgl\src\lv_objx/lv_calendar.c ****     lv_calendar_ext_t * ext = lv_obj_get_ext_attr(calendar);
 336:..\..\..\lvgl\version_6.1.2\lvgl\src\lv_objx/lv_calendar.c ****     return &ext->showed_date;
 337:..\..\..\lvgl\version_6.1.2\lvgl\src\lv_objx/lv_calendar.c **** }
 338:..\..\..\lvgl\version_6.1.2\lvgl\src\lv_objx/lv_calendar.c **** 
 339:..\..\..\lvgl\version_6.1.2\lvgl\src\lv_objx/lv_calendar.c **** /**
 340:..\..\..\lvgl\version_6.1.2\lvgl\src\lv_objx/lv_calendar.c ****  * Get the the pressed date.
 341:..\..\..\lvgl\version_6.1.2\lvgl\src\lv_objx/lv_calendar.c ****  * @param calendar pointer to a calendar object
 342:..\..\..\lvgl\version_6.1.2\lvgl\src\lv_objx/lv_calendar.c ****  * @return pointer to an `lv_calendar_date_t` variable containing the pressed date.
 343:..\..\..\lvgl\version_6.1.2\lvgl\src\lv_objx/lv_calendar.c ****  * `NULL` if not date pressed (e.g. the header)
 344:..\..\..\lvgl\version_6.1.2\lvgl\src\lv_objx/lv_calendar.c ****  */
 345:..\..\..\lvgl\version_6.1.2\lvgl\src\lv_objx/lv_calendar.c **** lv_calendar_date_t * lv_calendar_get_pressed_date(const lv_obj_t * calendar)
 346:..\..\..\lvgl\version_6.1.2\lvgl\src\lv_objx/lv_calendar.c **** {
 347:..\..\..\lvgl\version_6.1.2\lvgl\src\lv_objx/lv_calendar.c ****     LV_ASSERT_OBJ(calendar, LV_OBJX_NAME);
 348:..\..\..\lvgl\version_6.1.2\lvgl\src\lv_objx/lv_calendar.c **** 
 349:..\..\..\lvgl\version_6.1.2\lvgl\src\lv_objx/lv_calendar.c ****     lv_calendar_ext_t * ext = lv_obj_get_ext_attr(calendar);
 350:..\..\..\lvgl\version_6.1.2\lvgl\src\lv_objx/lv_calendar.c ****     return ext->pressed_date.year != 0 ? &ext->pressed_date : NULL;
 351:..\..\..\lvgl\version_6.1.2\lvgl\src\lv_objx/lv_calendar.c **** }
 352:..\..\..\lvgl\version_6.1.2\lvgl\src\lv_objx/lv_calendar.c **** 
 353:..\..\..\lvgl\version_6.1.2\lvgl\src\lv_objx/lv_calendar.c **** /**
 354:..\..\..\lvgl\version_6.1.2\lvgl\src\lv_objx/lv_calendar.c ****  * Get the the highlighted dates
 355:..\..\..\lvgl\version_6.1.2\lvgl\src\lv_objx/lv_calendar.c ****  * @param calendar pointer to a calendar object
 356:..\..\..\lvgl\version_6.1.2\lvgl\src\lv_objx/lv_calendar.c ****  * @return pointer to an `lv_calendar_date_t` array containing the dates.
 357:..\..\..\lvgl\version_6.1.2\lvgl\src\lv_objx/lv_calendar.c ****  */
 358:..\..\..\lvgl\version_6.1.2\lvgl\src\lv_objx/lv_calendar.c **** lv_calendar_date_t * lv_calendar_get_highlighted_dates(const lv_obj_t * calendar)
 359:..\..\..\lvgl\version_6.1.2\lvgl\src\lv_objx/lv_calendar.c **** {
 360:..\..\..\lvgl\version_6.1.2\lvgl\src\lv_objx/lv_calendar.c ****     LV_ASSERT_OBJ(calendar, LV_OBJX_NAME);
 361:..\..\..\lvgl\version_6.1.2\lvgl\src\lv_objx/lv_calendar.c **** 
 362:..\..\..\lvgl\version_6.1.2\lvgl\src\lv_objx/lv_calendar.c ****     lv_calendar_ext_t * ext = lv_obj_get_ext_attr(calendar);
 363:..\..\..\lvgl\version_6.1.2\lvgl\src\lv_objx/lv_calendar.c ****     return ext->highlighted_dates;
 364:..\..\..\lvgl\version_6.1.2\lvgl\src\lv_objx/lv_calendar.c **** }
 365:..\..\..\lvgl\version_6.1.2\lvgl\src\lv_objx/lv_calendar.c **** 
 366:..\..\..\lvgl\version_6.1.2\lvgl\src\lv_objx/lv_calendar.c **** /**
 367:..\..\..\lvgl\version_6.1.2\lvgl\src\lv_objx/lv_calendar.c ****  * Get the number of the highlighted dates
 368:..\..\..\lvgl\version_6.1.2\lvgl\src\lv_objx/lv_calendar.c ****  * @param calendar pointer to a calendar object
 369:..\..\..\lvgl\version_6.1.2\lvgl\src\lv_objx/lv_calendar.c ****  * @return number of highlighted days
 370:..\..\..\lvgl\version_6.1.2\lvgl\src\lv_objx/lv_calendar.c ****  */
 371:..\..\..\lvgl\version_6.1.2\lvgl\src\lv_objx/lv_calendar.c **** uint16_t lv_calendar_get_highlighted_dates_num(const lv_obj_t * calendar)
 372:..\..\..\lvgl\version_6.1.2\lvgl\src\lv_objx/lv_calendar.c **** {
ARM GAS  C:\Users\pearlstl\AppData\Local\Temp\ccHPSyCj.s 			page 8


 373:..\..\..\lvgl\version_6.1.2\lvgl\src\lv_objx/lv_calendar.c ****     LV_ASSERT_OBJ(calendar, LV_OBJX_NAME);
 374:..\..\..\lvgl\version_6.1.2\lvgl\src\lv_objx/lv_calendar.c **** 
 375:..\..\..\lvgl\version_6.1.2\lvgl\src\lv_objx/lv_calendar.c ****     lv_calendar_ext_t * ext = lv_obj_get_ext_attr(calendar);
 376:..\..\..\lvgl\version_6.1.2\lvgl\src\lv_objx/lv_calendar.c ****     return ext->highlighted_dates_num;
 377:..\..\..\lvgl\version_6.1.2\lvgl\src\lv_objx/lv_calendar.c **** }
 378:..\..\..\lvgl\version_6.1.2\lvgl\src\lv_objx/lv_calendar.c **** 
 379:..\..\..\lvgl\version_6.1.2\lvgl\src\lv_objx/lv_calendar.c **** /**
 380:..\..\..\lvgl\version_6.1.2\lvgl\src\lv_objx/lv_calendar.c ****  * Get the name of the days
 381:..\..\..\lvgl\version_6.1.2\lvgl\src\lv_objx/lv_calendar.c ****  * @param calendar pointer to a calendar object
 382:..\..\..\lvgl\version_6.1.2\lvgl\src\lv_objx/lv_calendar.c ****  * @return pointer to the array of day names
 383:..\..\..\lvgl\version_6.1.2\lvgl\src\lv_objx/lv_calendar.c ****  */
 384:..\..\..\lvgl\version_6.1.2\lvgl\src\lv_objx/lv_calendar.c **** const char ** lv_calendar_get_day_names(const lv_obj_t * calendar)
 385:..\..\..\lvgl\version_6.1.2\lvgl\src\lv_objx/lv_calendar.c **** {
 386:..\..\..\lvgl\version_6.1.2\lvgl\src\lv_objx/lv_calendar.c ****     LV_ASSERT_OBJ(calendar, LV_OBJX_NAME);
 387:..\..\..\lvgl\version_6.1.2\lvgl\src\lv_objx/lv_calendar.c **** 
 388:..\..\..\lvgl\version_6.1.2\lvgl\src\lv_objx/lv_calendar.c ****     lv_calendar_ext_t * ext = lv_obj_get_ext_attr(calendar);
 389:..\..\..\lvgl\version_6.1.2\lvgl\src\lv_objx/lv_calendar.c ****     return ext->day_names;
 390:..\..\..\lvgl\version_6.1.2\lvgl\src\lv_objx/lv_calendar.c **** }
 391:..\..\..\lvgl\version_6.1.2\lvgl\src\lv_objx/lv_calendar.c **** 
 392:..\..\..\lvgl\version_6.1.2\lvgl\src\lv_objx/lv_calendar.c **** /**
 393:..\..\..\lvgl\version_6.1.2\lvgl\src\lv_objx/lv_calendar.c ****  * Get the name of the month
 394:..\..\..\lvgl\version_6.1.2\lvgl\src\lv_objx/lv_calendar.c ****  * @param calendar pointer to a calendar object
 395:..\..\..\lvgl\version_6.1.2\lvgl\src\lv_objx/lv_calendar.c ****  * @return pointer to the array of month names
 396:..\..\..\lvgl\version_6.1.2\lvgl\src\lv_objx/lv_calendar.c ****  */
 397:..\..\..\lvgl\version_6.1.2\lvgl\src\lv_objx/lv_calendar.c **** const char ** lv_calendar_get_month_names(const lv_obj_t * calendar)
 398:..\..\..\lvgl\version_6.1.2\lvgl\src\lv_objx/lv_calendar.c **** {
 399:..\..\..\lvgl\version_6.1.2\lvgl\src\lv_objx/lv_calendar.c ****     LV_ASSERT_OBJ(calendar, LV_OBJX_NAME);
 400:..\..\..\lvgl\version_6.1.2\lvgl\src\lv_objx/lv_calendar.c **** 
 401:..\..\..\lvgl\version_6.1.2\lvgl\src\lv_objx/lv_calendar.c ****     lv_calendar_ext_t * ext = lv_obj_get_ext_attr(calendar);
 402:..\..\..\lvgl\version_6.1.2\lvgl\src\lv_objx/lv_calendar.c ****     return ext->month_names;
 403:..\..\..\lvgl\version_6.1.2\lvgl\src\lv_objx/lv_calendar.c **** }
 404:..\..\..\lvgl\version_6.1.2\lvgl\src\lv_objx/lv_calendar.c **** 
 405:..\..\..\lvgl\version_6.1.2\lvgl\src\lv_objx/lv_calendar.c **** /**
 406:..\..\..\lvgl\version_6.1.2\lvgl\src\lv_objx/lv_calendar.c ****  * Get style of a calendar.
 407:..\..\..\lvgl\version_6.1.2\lvgl\src\lv_objx/lv_calendar.c ****  * @param calendar pointer to calendar object
 408:..\..\..\lvgl\version_6.1.2\lvgl\src\lv_objx/lv_calendar.c ****  * @param type which style should be get
 409:..\..\..\lvgl\version_6.1.2\lvgl\src\lv_objx/lv_calendar.c ****  * @return style pointer to the style
 410:..\..\..\lvgl\version_6.1.2\lvgl\src\lv_objx/lv_calendar.c ****  *  */
 411:..\..\..\lvgl\version_6.1.2\lvgl\src\lv_objx/lv_calendar.c **** const lv_style_t * lv_calendar_get_style(const lv_obj_t * calendar, lv_calendar_style_t type)
 412:..\..\..\lvgl\version_6.1.2\lvgl\src\lv_objx/lv_calendar.c **** {
 413:..\..\..\lvgl\version_6.1.2\lvgl\src\lv_objx/lv_calendar.c ****     LV_ASSERT_OBJ(calendar, LV_OBJX_NAME);
 414:..\..\..\lvgl\version_6.1.2\lvgl\src\lv_objx/lv_calendar.c **** 
 415:..\..\..\lvgl\version_6.1.2\lvgl\src\lv_objx/lv_calendar.c ****     const lv_style_t * style = NULL;
 416:..\..\..\lvgl\version_6.1.2\lvgl\src\lv_objx/lv_calendar.c ****     lv_calendar_ext_t * ext  = lv_obj_get_ext_attr(calendar);
 417:..\..\..\lvgl\version_6.1.2\lvgl\src\lv_objx/lv_calendar.c **** 
 418:..\..\..\lvgl\version_6.1.2\lvgl\src\lv_objx/lv_calendar.c ****     switch(type) {
 419:..\..\..\lvgl\version_6.1.2\lvgl\src\lv_objx/lv_calendar.c ****         case LV_CALENDAR_STYLE_BG: style = lv_obj_get_style(calendar); break;
 420:..\..\..\lvgl\version_6.1.2\lvgl\src\lv_objx/lv_calendar.c ****         case LV_CALENDAR_STYLE_HEADER: style = ext->style_header; break;
 421:..\..\..\lvgl\version_6.1.2\lvgl\src\lv_objx/lv_calendar.c ****         case LV_CALENDAR_STYLE_HEADER_PR: style = ext->style_header_pr; break;
 422:..\..\..\lvgl\version_6.1.2\lvgl\src\lv_objx/lv_calendar.c ****         case LV_CALENDAR_STYLE_DAY_NAMES: style = ext->style_day_names; break;
 423:..\..\..\lvgl\version_6.1.2\lvgl\src\lv_objx/lv_calendar.c ****         case LV_CALENDAR_STYLE_HIGHLIGHTED_DAYS: style = ext->style_highlighted_days; break;
 424:..\..\..\lvgl\version_6.1.2\lvgl\src\lv_objx/lv_calendar.c ****         case LV_CALENDAR_STYLE_INACTIVE_DAYS: style = ext->style_inactive_days; break;
 425:..\..\..\lvgl\version_6.1.2\lvgl\src\lv_objx/lv_calendar.c ****         case LV_CALENDAR_STYLE_WEEK_BOX: style = ext->style_week_box; break;
 426:..\..\..\lvgl\version_6.1.2\lvgl\src\lv_objx/lv_calendar.c ****         case LV_CALENDAR_STYLE_TODAY_BOX: style = ext->style_today_box; break;
 427:..\..\..\lvgl\version_6.1.2\lvgl\src\lv_objx/lv_calendar.c ****         default: style = NULL; break;
 428:..\..\..\lvgl\version_6.1.2\lvgl\src\lv_objx/lv_calendar.c ****     }
 429:..\..\..\lvgl\version_6.1.2\lvgl\src\lv_objx/lv_calendar.c **** 
ARM GAS  C:\Users\pearlstl\AppData\Local\Temp\ccHPSyCj.s 			page 9


 430:..\..\..\lvgl\version_6.1.2\lvgl\src\lv_objx/lv_calendar.c ****     return style;
 431:..\..\..\lvgl\version_6.1.2\lvgl\src\lv_objx/lv_calendar.c **** }
 432:..\..\..\lvgl\version_6.1.2\lvgl\src\lv_objx/lv_calendar.c **** 
 433:..\..\..\lvgl\version_6.1.2\lvgl\src\lv_objx/lv_calendar.c **** /*=====================
 434:..\..\..\lvgl\version_6.1.2\lvgl\src\lv_objx/lv_calendar.c ****  * Other functions
 435:..\..\..\lvgl\version_6.1.2\lvgl\src\lv_objx/lv_calendar.c ****  *====================*/
 436:..\..\..\lvgl\version_6.1.2\lvgl\src\lv_objx/lv_calendar.c **** 
 437:..\..\..\lvgl\version_6.1.2\lvgl\src\lv_objx/lv_calendar.c **** /*
 438:..\..\..\lvgl\version_6.1.2\lvgl\src\lv_objx/lv_calendar.c ****  * New object specific "other" functions come here
 439:..\..\..\lvgl\version_6.1.2\lvgl\src\lv_objx/lv_calendar.c ****  */
 440:..\..\..\lvgl\version_6.1.2\lvgl\src\lv_objx/lv_calendar.c **** 
 441:..\..\..\lvgl\version_6.1.2\lvgl\src\lv_objx/lv_calendar.c **** /**********************
 442:..\..\..\lvgl\version_6.1.2\lvgl\src\lv_objx/lv_calendar.c ****  *   STATIC FUNCTIONS
 443:..\..\..\lvgl\version_6.1.2\lvgl\src\lv_objx/lv_calendar.c ****  **********************/
 444:..\..\..\lvgl\version_6.1.2\lvgl\src\lv_objx/lv_calendar.c **** 
 445:..\..\..\lvgl\version_6.1.2\lvgl\src\lv_objx/lv_calendar.c **** /**
 446:..\..\..\lvgl\version_6.1.2\lvgl\src\lv_objx/lv_calendar.c ****  * Handle the drawing related tasks of the calendars
 447:..\..\..\lvgl\version_6.1.2\lvgl\src\lv_objx/lv_calendar.c ****  * @param calendar pointer to an object
 448:..\..\..\lvgl\version_6.1.2\lvgl\src\lv_objx/lv_calendar.c ****  * @param mask the object will be drawn only in this area
 449:..\..\..\lvgl\version_6.1.2\lvgl\src\lv_objx/lv_calendar.c ****  * @param mode LV_DESIGN_COVER_CHK: only check if the object fully covers the 'mask_p' area
 450:..\..\..\lvgl\version_6.1.2\lvgl\src\lv_objx/lv_calendar.c ****  *                                  (return 'true' if yes)
 451:..\..\..\lvgl\version_6.1.2\lvgl\src\lv_objx/lv_calendar.c ****  *             LV_DESIGN_DRAW: draw the object (always return 'true')
 452:..\..\..\lvgl\version_6.1.2\lvgl\src\lv_objx/lv_calendar.c ****  *             LV_DESIGN_DRAW_POST: drawing after every children are drawn
 453:..\..\..\lvgl\version_6.1.2\lvgl\src\lv_objx/lv_calendar.c ****  * @param return true/false, depends on 'mode'
 454:..\..\..\lvgl\version_6.1.2\lvgl\src\lv_objx/lv_calendar.c ****  */
 455:..\..\..\lvgl\version_6.1.2\lvgl\src\lv_objx/lv_calendar.c **** static bool lv_calendar_design(lv_obj_t * calendar, const lv_area_t * mask, lv_design_mode_t mode)
 456:..\..\..\lvgl\version_6.1.2\lvgl\src\lv_objx/lv_calendar.c **** {
  28              		.loc 1 456 0
  29              		.cfi_startproc
  30              		@ args = 0, pretend = 0, frame = 144
  31              		@ frame_needed = 0, uses_anonymous_args = 0
  32              	.LVL0:
  33 0000 2DE9F04F 		push	{r4, r5, r6, r7, r8, r9, r10, fp, lr}
  34              		.cfi_def_cfa_offset 36
  35              		.cfi_offset 4, -36
  36              		.cfi_offset 5, -32
  37              		.cfi_offset 6, -28
  38              		.cfi_offset 7, -24
  39              		.cfi_offset 8, -20
  40              		.cfi_offset 9, -16
  41              		.cfi_offset 10, -12
  42              		.cfi_offset 11, -8
  43              		.cfi_offset 14, -4
  44 0004 ABB0     		sub	sp, sp, #172
  45              		.cfi_def_cfa_offset 208
 457:..\..\..\lvgl\version_6.1.2\lvgl\src\lv_objx/lv_calendar.c ****     /*Return false if the object is not covers the mask_p area*/
 458:..\..\..\lvgl\version_6.1.2\lvgl\src\lv_objx/lv_calendar.c ****     if(mode == LV_DESIGN_COVER_CHK) {
  46              		.loc 1 458 0
  47 0006 022A     		cmp	r2, #2
 456:..\..\..\lvgl\version_6.1.2\lvgl\src\lv_objx/lv_calendar.c ****     /*Return false if the object is not covers the mask_p area*/
  48              		.loc 1 456 0
  49 0008 0690     		str	r0, [sp, #24]
  50 000a 0791     		str	r1, [sp, #28]
  51              		.loc 1 458 0
  52 000c 00F02184 		beq	.L111
  53 0010 1446     		mov	r4, r2
 459:..\..\..\lvgl\version_6.1.2\lvgl\src\lv_objx/lv_calendar.c ****         return ancestor_design(calendar, mask, mode);
ARM GAS  C:\Users\pearlstl\AppData\Local\Temp\ccHPSyCj.s 			page 10


 460:..\..\..\lvgl\version_6.1.2\lvgl\src\lv_objx/lv_calendar.c ****     }
 461:..\..\..\lvgl\version_6.1.2\lvgl\src\lv_objx/lv_calendar.c ****     /*Draw the object*/
 462:..\..\..\lvgl\version_6.1.2\lvgl\src\lv_objx/lv_calendar.c ****     else if(mode == LV_DESIGN_DRAW_MAIN) {
  54              		.loc 1 462 0
  55 0012 1AB1     		cbz	r2, .L112
  56              	.LVL1:
  57              	.L61:
 463:..\..\..\lvgl\version_6.1.2\lvgl\src\lv_objx/lv_calendar.c ****         lv_opa_t opa_scale = lv_obj_get_opa_scale(calendar);
 464:..\..\..\lvgl\version_6.1.2\lvgl\src\lv_objx/lv_calendar.c ****         lv_draw_rect(&calendar->coords, mask, lv_calendar_get_style(calendar, LV_CALENDAR_STYLE_BG)
 465:..\..\..\lvgl\version_6.1.2\lvgl\src\lv_objx/lv_calendar.c **** 
 466:..\..\..\lvgl\version_6.1.2\lvgl\src\lv_objx/lv_calendar.c ****         draw_header(calendar, mask);
 467:..\..\..\lvgl\version_6.1.2\lvgl\src\lv_objx/lv_calendar.c ****         draw_day_names(calendar, mask);
 468:..\..\..\lvgl\version_6.1.2\lvgl\src\lv_objx/lv_calendar.c ****         draw_days(calendar, mask);
 469:..\..\..\lvgl\version_6.1.2\lvgl\src\lv_objx/lv_calendar.c **** 
 470:..\..\..\lvgl\version_6.1.2\lvgl\src\lv_objx/lv_calendar.c ****     }
 471:..\..\..\lvgl\version_6.1.2\lvgl\src\lv_objx/lv_calendar.c ****     /*Post draw when the children are drawn*/
 472:..\..\..\lvgl\version_6.1.2\lvgl\src\lv_objx/lv_calendar.c ****     else if(mode == LV_DESIGN_DRAW_POST) {
 473:..\..\..\lvgl\version_6.1.2\lvgl\src\lv_objx/lv_calendar.c ****     }
 474:..\..\..\lvgl\version_6.1.2\lvgl\src\lv_objx/lv_calendar.c **** 
 475:..\..\..\lvgl\version_6.1.2\lvgl\src\lv_objx/lv_calendar.c ****     return true;
  58              		.loc 1 475 0
  59 0014 0120     		movs	r0, #1
 476:..\..\..\lvgl\version_6.1.2\lvgl\src\lv_objx/lv_calendar.c **** }
  60              		.loc 1 476 0
  61 0016 2BB0     		add	sp, sp, #172
  62              		.cfi_remember_state
  63              		.cfi_def_cfa_offset 36
  64              		@ sp needed
  65 0018 BDE8F08F 		pop	{r4, r5, r6, r7, r8, r9, r10, fp, pc}
  66              	.LVL2:
  67              	.L112:
  68              		.cfi_restore_state
  69              	.LBB155:
 463:..\..\..\lvgl\version_6.1.2\lvgl\src\lv_objx/lv_calendar.c ****         lv_opa_t opa_scale = lv_obj_get_opa_scale(calendar);
  70              		.loc 1 463 0
  71 001c FFF7FEFF 		bl	lv_obj_get_opa_scale
  72              	.LVL3:
  73              	.LBB156:
  74              	.LBB157:
 416:..\..\..\lvgl\version_6.1.2\lvgl\src\lv_objx/lv_calendar.c **** 
  75              		.loc 1 416 0
  76 0020 069E     		ldr	r6, [sp, #24]
  77              	.LBE157:
  78              	.LBE156:
 463:..\..\..\lvgl\version_6.1.2\lvgl\src\lv_objx/lv_calendar.c ****         lv_opa_t opa_scale = lv_obj_get_opa_scale(calendar);
  79              		.loc 1 463 0
  80 0022 0546     		mov	r5, r0
  81              	.LVL4:
  82              	.LBB159:
  83              	.LBB158:
 416:..\..\..\lvgl\version_6.1.2\lvgl\src\lv_objx/lv_calendar.c **** 
  84              		.loc 1 416 0
  85 0024 3046     		mov	r0, r6
  86 0026 FFF7FEFF 		bl	lv_obj_get_ext_attr
  87              	.LVL5:
 419:..\..\..\lvgl\version_6.1.2\lvgl\src\lv_objx/lv_calendar.c ****         case LV_CALENDAR_STYLE_HEADER: style = ext->style_header; break;
  88              		.loc 1 419 0
ARM GAS  C:\Users\pearlstl\AppData\Local\Temp\ccHPSyCj.s 			page 11


  89 002a 3046     		mov	r0, r6
  90 002c FFF7FEFF 		bl	lv_obj_get_style
  91              	.LVL6:
  92              	.LBE158:
  93              	.LBE159:
 464:..\..\..\lvgl\version_6.1.2\lvgl\src\lv_objx/lv_calendar.c **** 
  94              		.loc 1 464 0
  95 0030 DDF81CA0 		ldr	r10, [sp, #28]
  96 0034 2B46     		mov	r3, r5
  97 0036 0246     		mov	r2, r0
  98 0038 5146     		mov	r1, r10
  99 003a 06F11000 		add	r0, r6, #16
 100 003e FFF7FEFF 		bl	lv_draw_rect
 101              	.LVL7:
 102              	.LBB160:
 103              	.LBB161:
 477:..\..\..\lvgl\version_6.1.2\lvgl\src\lv_objx/lv_calendar.c **** 
 478:..\..\..\lvgl\version_6.1.2\lvgl\src\lv_objx/lv_calendar.c **** /**
 479:..\..\..\lvgl\version_6.1.2\lvgl\src\lv_objx/lv_calendar.c ****  * Signal function of the calendar
 480:..\..\..\lvgl\version_6.1.2\lvgl\src\lv_objx/lv_calendar.c ****  * @param calendar pointer to a calendar object
 481:..\..\..\lvgl\version_6.1.2\lvgl\src\lv_objx/lv_calendar.c ****  * @param sign a signal type from lv_signal_t enum
 482:..\..\..\lvgl\version_6.1.2\lvgl\src\lv_objx/lv_calendar.c ****  * @param param pointer to a signal specific variable
 483:..\..\..\lvgl\version_6.1.2\lvgl\src\lv_objx/lv_calendar.c ****  * @return LV_RES_OK: the object is not deleted in the function; LV_RES_INV: the object is deleted
 484:..\..\..\lvgl\version_6.1.2\lvgl\src\lv_objx/lv_calendar.c ****  */
 485:..\..\..\lvgl\version_6.1.2\lvgl\src\lv_objx/lv_calendar.c **** static lv_res_t lv_calendar_signal(lv_obj_t * calendar, lv_signal_t sign, void * param)
 486:..\..\..\lvgl\version_6.1.2\lvgl\src\lv_objx/lv_calendar.c **** {
 487:..\..\..\lvgl\version_6.1.2\lvgl\src\lv_objx/lv_calendar.c ****     lv_res_t res;
 488:..\..\..\lvgl\version_6.1.2\lvgl\src\lv_objx/lv_calendar.c **** 
 489:..\..\..\lvgl\version_6.1.2\lvgl\src\lv_objx/lv_calendar.c ****     /* Include the ancient signal function */
 490:..\..\..\lvgl\version_6.1.2\lvgl\src\lv_objx/lv_calendar.c ****     res = ancestor_signal(calendar, sign, param);
 491:..\..\..\lvgl\version_6.1.2\lvgl\src\lv_objx/lv_calendar.c ****     if(res != LV_RES_OK) return res;
 492:..\..\..\lvgl\version_6.1.2\lvgl\src\lv_objx/lv_calendar.c ****     if(sign == LV_SIGNAL_GET_TYPE) return lv_obj_handle_get_type_signal(param, LV_OBJX_NAME);
 493:..\..\..\lvgl\version_6.1.2\lvgl\src\lv_objx/lv_calendar.c **** 
 494:..\..\..\lvgl\version_6.1.2\lvgl\src\lv_objx/lv_calendar.c ****     if(sign == LV_SIGNAL_CLEANUP) {
 495:..\..\..\lvgl\version_6.1.2\lvgl\src\lv_objx/lv_calendar.c ****         /*Nothing to cleanup. (No dynamically allocated memory in 'ext')*/
 496:..\..\..\lvgl\version_6.1.2\lvgl\src\lv_objx/lv_calendar.c ****     } else if(sign == LV_SIGNAL_PRESSING) {
 497:..\..\..\lvgl\version_6.1.2\lvgl\src\lv_objx/lv_calendar.c ****         lv_calendar_ext_t * ext = lv_obj_get_ext_attr(calendar);
 498:..\..\..\lvgl\version_6.1.2\lvgl\src\lv_objx/lv_calendar.c ****         lv_area_t header_area;
 499:..\..\..\lvgl\version_6.1.2\lvgl\src\lv_objx/lv_calendar.c ****         lv_area_copy(&header_area, &calendar->coords);
 500:..\..\..\lvgl\version_6.1.2\lvgl\src\lv_objx/lv_calendar.c ****         header_area.y2 = header_area.y1 + get_header_height(calendar);
 501:..\..\..\lvgl\version_6.1.2\lvgl\src\lv_objx/lv_calendar.c **** 
 502:..\..\..\lvgl\version_6.1.2\lvgl\src\lv_objx/lv_calendar.c ****         lv_indev_t * indev = lv_indev_get_act();
 503:..\..\..\lvgl\version_6.1.2\lvgl\src\lv_objx/lv_calendar.c ****         lv_point_t p;
 504:..\..\..\lvgl\version_6.1.2\lvgl\src\lv_objx/lv_calendar.c ****         lv_indev_get_point(indev, &p);
 505:..\..\..\lvgl\version_6.1.2\lvgl\src\lv_objx/lv_calendar.c **** 
 506:..\..\..\lvgl\version_6.1.2\lvgl\src\lv_objx/lv_calendar.c ****         /*If the header is pressed mark an arrow as pressed*/
 507:..\..\..\lvgl\version_6.1.2\lvgl\src\lv_objx/lv_calendar.c ****         if(lv_area_is_point_on(&header_area, &p)) {
 508:..\..\..\lvgl\version_6.1.2\lvgl\src\lv_objx/lv_calendar.c ****             if(p.x < header_area.x1 + lv_area_get_width(&header_area) / 2) {
 509:..\..\..\lvgl\version_6.1.2\lvgl\src\lv_objx/lv_calendar.c ****                 if(ext->btn_pressing != -1) lv_obj_invalidate(calendar);
 510:..\..\..\lvgl\version_6.1.2\lvgl\src\lv_objx/lv_calendar.c ****                 ext->btn_pressing = -1;
 511:..\..\..\lvgl\version_6.1.2\lvgl\src\lv_objx/lv_calendar.c ****             } else {
 512:..\..\..\lvgl\version_6.1.2\lvgl\src\lv_objx/lv_calendar.c ****                 if(ext->btn_pressing != 1) lv_obj_invalidate(calendar);
 513:..\..\..\lvgl\version_6.1.2\lvgl\src\lv_objx/lv_calendar.c ****                 ext->btn_pressing = 1;
 514:..\..\..\lvgl\version_6.1.2\lvgl\src\lv_objx/lv_calendar.c ****             }
 515:..\..\..\lvgl\version_6.1.2\lvgl\src\lv_objx/lv_calendar.c **** 
 516:..\..\..\lvgl\version_6.1.2\lvgl\src\lv_objx/lv_calendar.c ****             ext->pressed_date.year  = 0;
 517:..\..\..\lvgl\version_6.1.2\lvgl\src\lv_objx/lv_calendar.c ****             ext->pressed_date.month = 0;
ARM GAS  C:\Users\pearlstl\AppData\Local\Temp\ccHPSyCj.s 			page 12


 518:..\..\..\lvgl\version_6.1.2\lvgl\src\lv_objx/lv_calendar.c ****             ext->pressed_date.day   = 0;
 519:..\..\..\lvgl\version_6.1.2\lvgl\src\lv_objx/lv_calendar.c ****         }
 520:..\..\..\lvgl\version_6.1.2\lvgl\src\lv_objx/lv_calendar.c ****         /*If a day is pressed save it*/
 521:..\..\..\lvgl\version_6.1.2\lvgl\src\lv_objx/lv_calendar.c ****         else if(calculate_touched_day(calendar, &p)) {
 522:..\..\..\lvgl\version_6.1.2\lvgl\src\lv_objx/lv_calendar.c ****             if(ext->btn_pressing != 0) lv_obj_invalidate(calendar);
 523:..\..\..\lvgl\version_6.1.2\lvgl\src\lv_objx/lv_calendar.c ****             ext->btn_pressing = 0;
 524:..\..\..\lvgl\version_6.1.2\lvgl\src\lv_objx/lv_calendar.c ****         }
 525:..\..\..\lvgl\version_6.1.2\lvgl\src\lv_objx/lv_calendar.c ****         /*ELse set a deafault state*/
 526:..\..\..\lvgl\version_6.1.2\lvgl\src\lv_objx/lv_calendar.c ****         else {
 527:..\..\..\lvgl\version_6.1.2\lvgl\src\lv_objx/lv_calendar.c ****             if(ext->btn_pressing != 0) lv_obj_invalidate(calendar);
 528:..\..\..\lvgl\version_6.1.2\lvgl\src\lv_objx/lv_calendar.c ****             ext->btn_pressing       = 0;
 529:..\..\..\lvgl\version_6.1.2\lvgl\src\lv_objx/lv_calendar.c ****             ext->pressed_date.year  = 0;
 530:..\..\..\lvgl\version_6.1.2\lvgl\src\lv_objx/lv_calendar.c ****             ext->pressed_date.month = 0;
 531:..\..\..\lvgl\version_6.1.2\lvgl\src\lv_objx/lv_calendar.c ****             ext->pressed_date.day   = 0;
 532:..\..\..\lvgl\version_6.1.2\lvgl\src\lv_objx/lv_calendar.c ****         }
 533:..\..\..\lvgl\version_6.1.2\lvgl\src\lv_objx/lv_calendar.c ****     } else if(sign == LV_SIGNAL_PRESS_LOST) {
 534:..\..\..\lvgl\version_6.1.2\lvgl\src\lv_objx/lv_calendar.c ****         lv_calendar_ext_t * ext = lv_obj_get_ext_attr(calendar);
 535:..\..\..\lvgl\version_6.1.2\lvgl\src\lv_objx/lv_calendar.c ****         ext->btn_pressing       = 0;
 536:..\..\..\lvgl\version_6.1.2\lvgl\src\lv_objx/lv_calendar.c ****         lv_obj_invalidate(calendar);
 537:..\..\..\lvgl\version_6.1.2\lvgl\src\lv_objx/lv_calendar.c **** 
 538:..\..\..\lvgl\version_6.1.2\lvgl\src\lv_objx/lv_calendar.c ****     } else if(sign == LV_SIGNAL_RELEASED) {
 539:..\..\..\lvgl\version_6.1.2\lvgl\src\lv_objx/lv_calendar.c ****         lv_calendar_ext_t * ext = lv_obj_get_ext_attr(calendar);
 540:..\..\..\lvgl\version_6.1.2\lvgl\src\lv_objx/lv_calendar.c ****         if(ext->btn_pressing < 0) {
 541:..\..\..\lvgl\version_6.1.2\lvgl\src\lv_objx/lv_calendar.c ****             if(ext->showed_date.month <= 1) {
 542:..\..\..\lvgl\version_6.1.2\lvgl\src\lv_objx/lv_calendar.c ****                 ext->showed_date.month = 12;
 543:..\..\..\lvgl\version_6.1.2\lvgl\src\lv_objx/lv_calendar.c ****                 ext->showed_date.year--;
 544:..\..\..\lvgl\version_6.1.2\lvgl\src\lv_objx/lv_calendar.c ****             } else {
 545:..\..\..\lvgl\version_6.1.2\lvgl\src\lv_objx/lv_calendar.c ****                 ext->showed_date.month--;
 546:..\..\..\lvgl\version_6.1.2\lvgl\src\lv_objx/lv_calendar.c ****             }
 547:..\..\..\lvgl\version_6.1.2\lvgl\src\lv_objx/lv_calendar.c ****         } else if(ext->btn_pressing > 0) {
 548:..\..\..\lvgl\version_6.1.2\lvgl\src\lv_objx/lv_calendar.c ****             if(ext->showed_date.month >= 12) {
 549:..\..\..\lvgl\version_6.1.2\lvgl\src\lv_objx/lv_calendar.c ****                 ext->showed_date.month = 1;
 550:..\..\..\lvgl\version_6.1.2\lvgl\src\lv_objx/lv_calendar.c ****                 ext->showed_date.year++;
 551:..\..\..\lvgl\version_6.1.2\lvgl\src\lv_objx/lv_calendar.c ****             } else {
 552:..\..\..\lvgl\version_6.1.2\lvgl\src\lv_objx/lv_calendar.c ****                 ext->showed_date.month++;
 553:..\..\..\lvgl\version_6.1.2\lvgl\src\lv_objx/lv_calendar.c ****             }
 554:..\..\..\lvgl\version_6.1.2\lvgl\src\lv_objx/lv_calendar.c ****         } else if(ext->pressed_date.year != 0) {
 555:..\..\..\lvgl\version_6.1.2\lvgl\src\lv_objx/lv_calendar.c ****             res = lv_event_send(calendar, LV_EVENT_VALUE_CHANGED, NULL);
 556:..\..\..\lvgl\version_6.1.2\lvgl\src\lv_objx/lv_calendar.c ****             if(res != LV_RES_OK) return res;
 557:..\..\..\lvgl\version_6.1.2\lvgl\src\lv_objx/lv_calendar.c ****         }
 558:..\..\..\lvgl\version_6.1.2\lvgl\src\lv_objx/lv_calendar.c **** 
 559:..\..\..\lvgl\version_6.1.2\lvgl\src\lv_objx/lv_calendar.c ****         ext->btn_pressing = 0;
 560:..\..\..\lvgl\version_6.1.2\lvgl\src\lv_objx/lv_calendar.c ****         lv_obj_invalidate(calendar);
 561:..\..\..\lvgl\version_6.1.2\lvgl\src\lv_objx/lv_calendar.c ****     } else if(sign == LV_SIGNAL_CONTROL) {
 562:..\..\..\lvgl\version_6.1.2\lvgl\src\lv_objx/lv_calendar.c ****         uint8_t c               = *((uint8_t *)param);
 563:..\..\..\lvgl\version_6.1.2\lvgl\src\lv_objx/lv_calendar.c ****         lv_calendar_ext_t * ext = lv_obj_get_ext_attr(calendar);
 564:..\..\..\lvgl\version_6.1.2\lvgl\src\lv_objx/lv_calendar.c ****         if(c == LV_KEY_RIGHT || c == LV_KEY_UP) {
 565:..\..\..\lvgl\version_6.1.2\lvgl\src\lv_objx/lv_calendar.c ****             if(ext->showed_date.month >= 12) {
 566:..\..\..\lvgl\version_6.1.2\lvgl\src\lv_objx/lv_calendar.c ****                 ext->showed_date.month = 1;
 567:..\..\..\lvgl\version_6.1.2\lvgl\src\lv_objx/lv_calendar.c ****                 ext->showed_date.year++;
 568:..\..\..\lvgl\version_6.1.2\lvgl\src\lv_objx/lv_calendar.c ****             } else {
 569:..\..\..\lvgl\version_6.1.2\lvgl\src\lv_objx/lv_calendar.c ****                 ext->showed_date.month++;
 570:..\..\..\lvgl\version_6.1.2\lvgl\src\lv_objx/lv_calendar.c ****             }
 571:..\..\..\lvgl\version_6.1.2\lvgl\src\lv_objx/lv_calendar.c ****             lv_obj_invalidate(calendar);
 572:..\..\..\lvgl\version_6.1.2\lvgl\src\lv_objx/lv_calendar.c ****         } else if(c == LV_KEY_LEFT || c == LV_KEY_DOWN) {
 573:..\..\..\lvgl\version_6.1.2\lvgl\src\lv_objx/lv_calendar.c ****             if(ext->showed_date.month <= 1) {
 574:..\..\..\lvgl\version_6.1.2\lvgl\src\lv_objx/lv_calendar.c ****                 ext->showed_date.month = 12;
ARM GAS  C:\Users\pearlstl\AppData\Local\Temp\ccHPSyCj.s 			page 13


 575:..\..\..\lvgl\version_6.1.2\lvgl\src\lv_objx/lv_calendar.c ****                 ext->showed_date.year--;
 576:..\..\..\lvgl\version_6.1.2\lvgl\src\lv_objx/lv_calendar.c ****             } else {
 577:..\..\..\lvgl\version_6.1.2\lvgl\src\lv_objx/lv_calendar.c ****                 ext->showed_date.month--;
 578:..\..\..\lvgl\version_6.1.2\lvgl\src\lv_objx/lv_calendar.c ****             }
 579:..\..\..\lvgl\version_6.1.2\lvgl\src\lv_objx/lv_calendar.c ****             lv_obj_invalidate(calendar);
 580:..\..\..\lvgl\version_6.1.2\lvgl\src\lv_objx/lv_calendar.c ****         }
 581:..\..\..\lvgl\version_6.1.2\lvgl\src\lv_objx/lv_calendar.c ****     }
 582:..\..\..\lvgl\version_6.1.2\lvgl\src\lv_objx/lv_calendar.c **** 
 583:..\..\..\lvgl\version_6.1.2\lvgl\src\lv_objx/lv_calendar.c ****     return res;
 584:..\..\..\lvgl\version_6.1.2\lvgl\src\lv_objx/lv_calendar.c **** }
 585:..\..\..\lvgl\version_6.1.2\lvgl\src\lv_objx/lv_calendar.c **** 
 586:..\..\..\lvgl\version_6.1.2\lvgl\src\lv_objx/lv_calendar.c **** /**
 587:..\..\..\lvgl\version_6.1.2\lvgl\src\lv_objx/lv_calendar.c ****  * It will check if the days part of calendar is touched
 588:..\..\..\lvgl\version_6.1.2\lvgl\src\lv_objx/lv_calendar.c ****  * and if it is, it will calculate the day and put it in pressed_date of calendar object.
 589:..\..\..\lvgl\version_6.1.2\lvgl\src\lv_objx/lv_calendar.c ****  * @param calendar pointer to a calendar object
 590:..\..\..\lvgl\version_6.1.2\lvgl\src\lv_objx/lv_calendar.c ****  * @param pointer to a point
 591:..\..\..\lvgl\version_6.1.2\lvgl\src\lv_objx/lv_calendar.c ****  * @return true: days part of calendar is touched and its related date is put in pressed date
 592:..\..\..\lvgl\version_6.1.2\lvgl\src\lv_objx/lv_calendar.c ****  * false: the point is out of days part area.
 593:..\..\..\lvgl\version_6.1.2\lvgl\src\lv_objx/lv_calendar.c ****  */
 594:..\..\..\lvgl\version_6.1.2\lvgl\src\lv_objx/lv_calendar.c **** static bool calculate_touched_day(lv_obj_t * calendar, const lv_point_t * touched_point)
 595:..\..\..\lvgl\version_6.1.2\lvgl\src\lv_objx/lv_calendar.c **** {
 596:..\..\..\lvgl\version_6.1.2\lvgl\src\lv_objx/lv_calendar.c ****     lv_area_t days_area;
 597:..\..\..\lvgl\version_6.1.2\lvgl\src\lv_objx/lv_calendar.c ****     lv_area_copy(&days_area, &calendar->coords);
 598:..\..\..\lvgl\version_6.1.2\lvgl\src\lv_objx/lv_calendar.c ****     const lv_style_t * style_bg = lv_calendar_get_style(calendar, LV_CALENDAR_STYLE_BG);
 599:..\..\..\lvgl\version_6.1.2\lvgl\src\lv_objx/lv_calendar.c ****     days_area.x1 += style_bg->body.padding.left;
 600:..\..\..\lvgl\version_6.1.2\lvgl\src\lv_objx/lv_calendar.c ****     days_area.x2 -= style_bg->body.padding.right;
 601:..\..\..\lvgl\version_6.1.2\lvgl\src\lv_objx/lv_calendar.c ****     days_area.y1 =
 602:..\..\..\lvgl\version_6.1.2\lvgl\src\lv_objx/lv_calendar.c ****         calendar->coords.y1 + get_header_height(calendar) + get_day_names_height(calendar) - style_
 603:..\..\..\lvgl\version_6.1.2\lvgl\src\lv_objx/lv_calendar.c **** 
 604:..\..\..\lvgl\version_6.1.2\lvgl\src\lv_objx/lv_calendar.c ****     if(lv_area_is_point_on(&days_area, touched_point)) {
 605:..\..\..\lvgl\version_6.1.2\lvgl\src\lv_objx/lv_calendar.c ****         lv_coord_t w  = (days_area.x2 - days_area.x1 + 1) / 7;
 606:..\..\..\lvgl\version_6.1.2\lvgl\src\lv_objx/lv_calendar.c ****         lv_coord_t h  = (days_area.y2 - days_area.y1 + 1) / 6;
 607:..\..\..\lvgl\version_6.1.2\lvgl\src\lv_objx/lv_calendar.c ****         uint8_t x_pos = 0;
 608:..\..\..\lvgl\version_6.1.2\lvgl\src\lv_objx/lv_calendar.c ****         x_pos         = (touched_point->x - days_area.x1) / w;
 609:..\..\..\lvgl\version_6.1.2\lvgl\src\lv_objx/lv_calendar.c ****         if(x_pos > 6) x_pos = 6;
 610:..\..\..\lvgl\version_6.1.2\lvgl\src\lv_objx/lv_calendar.c ****         uint8_t y_pos = 0;
 611:..\..\..\lvgl\version_6.1.2\lvgl\src\lv_objx/lv_calendar.c ****         y_pos         = (touched_point->y - days_area.y1) / h;
 612:..\..\..\lvgl\version_6.1.2\lvgl\src\lv_objx/lv_calendar.c ****         if(y_pos > 5) y_pos = 5;
 613:..\..\..\lvgl\version_6.1.2\lvgl\src\lv_objx/lv_calendar.c **** 
 614:..\..\..\lvgl\version_6.1.2\lvgl\src\lv_objx/lv_calendar.c ****         uint8_t i_pos           = 0;
 615:..\..\..\lvgl\version_6.1.2\lvgl\src\lv_objx/lv_calendar.c ****         i_pos                   = (y_pos * 7) + x_pos;
 616:..\..\..\lvgl\version_6.1.2\lvgl\src\lv_objx/lv_calendar.c ****         lv_calendar_ext_t * ext = lv_obj_get_ext_attr(calendar);
 617:..\..\..\lvgl\version_6.1.2\lvgl\src\lv_objx/lv_calendar.c ****         if(i_pos < get_day_of_week(ext->showed_date.year, ext->showed_date.month, 1)) {
 618:..\..\..\lvgl\version_6.1.2\lvgl\src\lv_objx/lv_calendar.c ****             ext->pressed_date.year  = ext->showed_date.year - (ext->showed_date.month == 1 ? 1 : 0)
 619:..\..\..\lvgl\version_6.1.2\lvgl\src\lv_objx/lv_calendar.c ****             ext->pressed_date.month = ext->showed_date.month == 1 ? 12 : (ext->showed_date.month - 
 620:..\..\..\lvgl\version_6.1.2\lvgl\src\lv_objx/lv_calendar.c ****             ext->pressed_date.day   = get_month_length(ext->pressed_date.year, ext->pressed_date.mo
 621:..\..\..\lvgl\version_6.1.2\lvgl\src\lv_objx/lv_calendar.c ****                                     get_day_of_week(ext->showed_date.year, ext->showed_date.month, 
 622:..\..\..\lvgl\version_6.1.2\lvgl\src\lv_objx/lv_calendar.c ****         } else if(i_pos < (get_day_of_week(ext->showed_date.year, ext->showed_date.month, 1) +
 623:..\..\..\lvgl\version_6.1.2\lvgl\src\lv_objx/lv_calendar.c ****                            get_month_length(ext->showed_date.year, ext->showed_date.month))) {
 624:..\..\..\lvgl\version_6.1.2\lvgl\src\lv_objx/lv_calendar.c ****             ext->pressed_date.year  = ext->showed_date.year;
 625:..\..\..\lvgl\version_6.1.2\lvgl\src\lv_objx/lv_calendar.c ****             ext->pressed_date.month = ext->showed_date.month;
 626:..\..\..\lvgl\version_6.1.2\lvgl\src\lv_objx/lv_calendar.c ****             ext->pressed_date.day   = i_pos + 1 - get_day_of_week(ext->showed_date.year, ext->showe
 627:..\..\..\lvgl\version_6.1.2\lvgl\src\lv_objx/lv_calendar.c ****         } else if(i_pos < 42) {
 628:..\..\..\lvgl\version_6.1.2\lvgl\src\lv_objx/lv_calendar.c ****             ext->pressed_date.year  = ext->showed_date.year + (ext->showed_date.month == 12 ? 1 : 0
 629:..\..\..\lvgl\version_6.1.2\lvgl\src\lv_objx/lv_calendar.c ****             ext->pressed_date.month = ext->showed_date.month == 12 ? 1 : (ext->showed_date.month + 
 630:..\..\..\lvgl\version_6.1.2\lvgl\src\lv_objx/lv_calendar.c ****             ext->pressed_date.day   = i_pos + 1 - get_day_of_week(ext->showed_date.year, ext->showe
 631:..\..\..\lvgl\version_6.1.2\lvgl\src\lv_objx/lv_calendar.c ****                                     get_month_length(ext->showed_date.year, ext->showed_date.month)
ARM GAS  C:\Users\pearlstl\AppData\Local\Temp\ccHPSyCj.s 			page 14


 632:..\..\..\lvgl\version_6.1.2\lvgl\src\lv_objx/lv_calendar.c ****         }
 633:..\..\..\lvgl\version_6.1.2\lvgl\src\lv_objx/lv_calendar.c ****         return true;
 634:..\..\..\lvgl\version_6.1.2\lvgl\src\lv_objx/lv_calendar.c ****     } else {
 635:..\..\..\lvgl\version_6.1.2\lvgl\src\lv_objx/lv_calendar.c ****         return false;
 636:..\..\..\lvgl\version_6.1.2\lvgl\src\lv_objx/lv_calendar.c ****     }
 637:..\..\..\lvgl\version_6.1.2\lvgl\src\lv_objx/lv_calendar.c **** }
 638:..\..\..\lvgl\version_6.1.2\lvgl\src\lv_objx/lv_calendar.c **** 
 639:..\..\..\lvgl\version_6.1.2\lvgl\src\lv_objx/lv_calendar.c **** /**
 640:..\..\..\lvgl\version_6.1.2\lvgl\src\lv_objx/lv_calendar.c ****  * Get the height of a calendar's header based on it's style
 641:..\..\..\lvgl\version_6.1.2\lvgl\src\lv_objx/lv_calendar.c ****  * @param calendar point to a calendar
 642:..\..\..\lvgl\version_6.1.2\lvgl\src\lv_objx/lv_calendar.c ****  * @return the header's height
 643:..\..\..\lvgl\version_6.1.2\lvgl\src\lv_objx/lv_calendar.c ****  */
 644:..\..\..\lvgl\version_6.1.2\lvgl\src\lv_objx/lv_calendar.c **** static lv_coord_t get_header_height(lv_obj_t * calendar)
 645:..\..\..\lvgl\version_6.1.2\lvgl\src\lv_objx/lv_calendar.c **** {
 646:..\..\..\lvgl\version_6.1.2\lvgl\src\lv_objx/lv_calendar.c ****     lv_calendar_ext_t * ext = lv_obj_get_ext_attr(calendar);
 647:..\..\..\lvgl\version_6.1.2\lvgl\src\lv_objx/lv_calendar.c **** 
 648:..\..\..\lvgl\version_6.1.2\lvgl\src\lv_objx/lv_calendar.c ****     return lv_font_get_line_height(ext->style_header->text.font) + ext->style_header->body.padding.
 649:..\..\..\lvgl\version_6.1.2\lvgl\src\lv_objx/lv_calendar.c ****            ext->style_header->body.padding.bottom;
 650:..\..\..\lvgl\version_6.1.2\lvgl\src\lv_objx/lv_calendar.c **** }
 651:..\..\..\lvgl\version_6.1.2\lvgl\src\lv_objx/lv_calendar.c **** 
 652:..\..\..\lvgl\version_6.1.2\lvgl\src\lv_objx/lv_calendar.c **** /**
 653:..\..\..\lvgl\version_6.1.2\lvgl\src\lv_objx/lv_calendar.c ****  * Get the height of a calendar's day_names based on it's style
 654:..\..\..\lvgl\version_6.1.2\lvgl\src\lv_objx/lv_calendar.c ****  * @param calendar point to a calendar
 655:..\..\..\lvgl\version_6.1.2\lvgl\src\lv_objx/lv_calendar.c ****  * @return the day_names's height
 656:..\..\..\lvgl\version_6.1.2\lvgl\src\lv_objx/lv_calendar.c ****  */
 657:..\..\..\lvgl\version_6.1.2\lvgl\src\lv_objx/lv_calendar.c **** static lv_coord_t get_day_names_height(lv_obj_t * calendar)
 658:..\..\..\lvgl\version_6.1.2\lvgl\src\lv_objx/lv_calendar.c **** {
 659:..\..\..\lvgl\version_6.1.2\lvgl\src\lv_objx/lv_calendar.c ****     lv_calendar_ext_t * ext = lv_obj_get_ext_attr(calendar);
 660:..\..\..\lvgl\version_6.1.2\lvgl\src\lv_objx/lv_calendar.c **** 
 661:..\..\..\lvgl\version_6.1.2\lvgl\src\lv_objx/lv_calendar.c ****     return lv_font_get_line_height(ext->style_day_names->text.font) + ext->style_day_names->body.pa
 662:..\..\..\lvgl\version_6.1.2\lvgl\src\lv_objx/lv_calendar.c ****            ext->style_day_names->body.padding.bottom;
 663:..\..\..\lvgl\version_6.1.2\lvgl\src\lv_objx/lv_calendar.c **** }
 664:..\..\..\lvgl\version_6.1.2\lvgl\src\lv_objx/lv_calendar.c **** 
 665:..\..\..\lvgl\version_6.1.2\lvgl\src\lv_objx/lv_calendar.c **** /**
 666:..\..\..\lvgl\version_6.1.2\lvgl\src\lv_objx/lv_calendar.c ****  * Draw the calendar header with month name and arrows
 667:..\..\..\lvgl\version_6.1.2\lvgl\src\lv_objx/lv_calendar.c ****  * @param calendar point to a calendar
 668:..\..\..\lvgl\version_6.1.2\lvgl\src\lv_objx/lv_calendar.c ****  * @param mask a mask for drawing
 669:..\..\..\lvgl\version_6.1.2\lvgl\src\lv_objx/lv_calendar.c ****  */
 670:..\..\..\lvgl\version_6.1.2\lvgl\src\lv_objx/lv_calendar.c **** static void draw_header(lv_obj_t * calendar, const lv_area_t * mask)
 671:..\..\..\lvgl\version_6.1.2\lvgl\src\lv_objx/lv_calendar.c **** {
 672:..\..\..\lvgl\version_6.1.2\lvgl\src\lv_objx/lv_calendar.c ****     lv_calendar_ext_t * ext = lv_obj_get_ext_attr(calendar);
 104              		.loc 1 672 0
 105 0042 3046     		mov	r0, r6
 106 0044 FFF7FEFF 		bl	lv_obj_get_ext_attr
 107              	.LVL8:
 108 0048 0546     		mov	r5, r0
 109              	.LVL9:
 673:..\..\..\lvgl\version_6.1.2\lvgl\src\lv_objx/lv_calendar.c **** 
 674:..\..\..\lvgl\version_6.1.2\lvgl\src\lv_objx/lv_calendar.c ****     lv_bidi_dir_t bidi_dir = lv_obj_get_base_dir(calendar);
 110              		.loc 1 674 0
 111 004a 3046     		mov	r0, r6
 112              	.LVL10:
 113 004c FFF7FEFF 		bl	lv_obj_get_base_dir
 114              	.LVL11:
 115 0050 8046     		mov	r8, r0
 116              	.LVL12:
 675:..\..\..\lvgl\version_6.1.2\lvgl\src\lv_objx/lv_calendar.c **** 
ARM GAS  C:\Users\pearlstl\AppData\Local\Temp\ccHPSyCj.s 			page 15


 676:..\..\..\lvgl\version_6.1.2\lvgl\src\lv_objx/lv_calendar.c ****     lv_opa_t opa_scale      = lv_obj_get_opa_scale(calendar);
 117              		.loc 1 676 0
 118 0052 3046     		mov	r0, r6
 119 0054 FFF7FEFF 		bl	lv_obj_get_opa_scale
 120              	.LVL13:
 677:..\..\..\lvgl\version_6.1.2\lvgl\src\lv_objx/lv_calendar.c **** 
 678:..\..\..\lvgl\version_6.1.2\lvgl\src\lv_objx/lv_calendar.c ****     lv_area_t header_area;
 679:..\..\..\lvgl\version_6.1.2\lvgl\src\lv_objx/lv_calendar.c ****     header_area.x1 = calendar->coords.x1;
 121              		.loc 1 679 0
 122 0058 328A     		ldrh	r2, [r6, #16]
 680:..\..\..\lvgl\version_6.1.2\lvgl\src\lv_objx/lv_calendar.c ****     header_area.x2 = calendar->coords.x2;
 123              		.loc 1 680 0
 124 005a B38A     		ldrh	r3, [r6, #20]
 681:..\..\..\lvgl\version_6.1.2\lvgl\src\lv_objx/lv_calendar.c ****     header_area.y1 = calendar->coords.y1;
 125              		.loc 1 681 0
 126 005c B6F91290 		ldrsh	r9, [r6, #18]
 679:..\..\..\lvgl\version_6.1.2\lvgl\src\lv_objx/lv_calendar.c ****     header_area.x2 = calendar->coords.x2;
 127              		.loc 1 679 0
 128 0060 ADF86020 		strh	r2, [sp, #96]	@ movhi
 676:..\..\..\lvgl\version_6.1.2\lvgl\src\lv_objx/lv_calendar.c **** 
 129              		.loc 1 676 0
 130 0064 0746     		mov	r7, r0
 131              	.LVL14:
 680:..\..\..\lvgl\version_6.1.2\lvgl\src\lv_objx/lv_calendar.c ****     header_area.y1 = calendar->coords.y1;
 132              		.loc 1 680 0
 133 0066 3046     		mov	r0, r6
 134 0068 ADF86430 		strh	r3, [sp, #100]	@ movhi
 135              		.loc 1 681 0
 136 006c ADF86290 		strh	r9, [sp, #98]	@ movhi
 137              	.LVL15:
 138              	.LBB162:
 139              	.LBB163:
 646:..\..\..\lvgl\version_6.1.2\lvgl\src\lv_objx/lv_calendar.c **** 
 140              		.loc 1 646 0
 141 0070 FFF7FEFF 		bl	lv_obj_get_ext_attr
 142              	.LVL16:
 648:..\..\..\lvgl\version_6.1.2\lvgl\src\lv_objx/lv_calendar.c ****            ext->style_header->body.padding.bottom;
 143              		.loc 1 648 0
 144 0074 C069     		ldr	r0, [r0, #28]
 145              	.LVL17:
 146              	.LBE163:
 147              	.LBE162:
 682:..\..\..\lvgl\version_6.1.2\lvgl\src\lv_objx/lv_calendar.c ****     header_area.y2 = calendar->coords.y1 + get_header_height(calendar);
 683:..\..\..\lvgl\version_6.1.2\lvgl\src\lv_objx/lv_calendar.c **** 
 684:..\..\..\lvgl\version_6.1.2\lvgl\src\lv_objx/lv_calendar.c ****     lv_draw_rect(&header_area, mask, ext->style_header, opa_scale);
 148              		.loc 1 684 0
 149 0076 EA69     		ldr	r2, [r5, #28]
 682:..\..\..\lvgl\version_6.1.2\lvgl\src\lv_objx/lv_calendar.c ****     header_area.y2 = calendar->coords.y1 + get_header_height(calendar);
 150              		.loc 1 682 0
 151 0078 018C     		ldrh	r1, [r0, #32]
 152 007a 466B     		ldr	r6, [r0, #52]
 153              	.LVL18:
 154 007c 438C     		ldrh	r3, [r0, #34]
 155 007e 367A     		ldrb	r6, [r6, #8]	@ zero_extendqisi2
 156 0080 4944     		add	r1, r1, r9
 157 0082 0B44     		add	r3, r3, r1
 158 0084 1E44     		add	r6, r6, r3
ARM GAS  C:\Users\pearlstl\AppData\Local\Temp\ccHPSyCj.s 			page 16


 159              		.loc 1 684 0
 160 0086 18A8     		add	r0, sp, #96
 161              	.LVL19:
 162 0088 3B46     		mov	r3, r7
 163 008a 5146     		mov	r1, r10
 682:..\..\..\lvgl\version_6.1.2\lvgl\src\lv_objx/lv_calendar.c ****     header_area.y2 = calendar->coords.y1 + get_header_height(calendar);
 164              		.loc 1 682 0
 165 008c ADF86660 		strh	r6, [sp, #102]	@ movhi
 166              		.loc 1 684 0
 167 0090 FFF7FEFF 		bl	lv_draw_rect
 168              	.LVL20:
 685:..\..\..\lvgl\version_6.1.2\lvgl\src\lv_objx/lv_calendar.c **** 
 686:..\..\..\lvgl\version_6.1.2\lvgl\src\lv_objx/lv_calendar.c ****     /*Add the year + month name*/
 687:..\..\..\lvgl\version_6.1.2\lvgl\src\lv_objx/lv_calendar.c ****     char txt_buf[64];
 688:..\..\..\lvgl\version_6.1.2\lvgl\src\lv_objx/lv_calendar.c ****     lv_utils_num_to_str(ext->showed_date.year, txt_buf);
 169              		.loc 1 688 0
 170 0094 1AA9     		add	r1, sp, #104
 171 0096 A888     		ldrh	r0, [r5, #4]
 172 0098 FFF7FEFF 		bl	lv_utils_num_to_str
 173              	.LVL21:
 689:..\..\..\lvgl\version_6.1.2\lvgl\src\lv_objx/lv_calendar.c ****     txt_buf[4] = ' ';
 174              		.loc 1 689 0
 175 009c 2023     		movs	r3, #32
 690:..\..\..\lvgl\version_6.1.2\lvgl\src\lv_objx/lv_calendar.c ****     txt_buf[5] = '\0';
 176              		.loc 1 690 0
 177 009e 8DF86D40 		strb	r4, [sp, #109]
 689:..\..\..\lvgl\version_6.1.2\lvgl\src\lv_objx/lv_calendar.c ****     txt_buf[4] = ' ';
 178              		.loc 1 689 0
 179 00a2 8DF86C30 		strb	r3, [sp, #108]
 691:..\..\..\lvgl\version_6.1.2\lvgl\src\lv_objx/lv_calendar.c ****     strcpy(&txt_buf[5], get_month_name(calendar, ext->showed_date.month));
 180              		.loc 1 691 0
 181 00a6 95F90630 		ldrsb	r3, [r5, #6]
 182              	.LVL22:
 183              	.LBB164:
 184              	.LBB165:
 692:..\..\..\lvgl\version_6.1.2\lvgl\src\lv_objx/lv_calendar.c ****     header_area.y1 += ext->style_header->body.padding.top;
 693:..\..\..\lvgl\version_6.1.2\lvgl\src\lv_objx/lv_calendar.c ****     lv_draw_label(&header_area, mask, ext->style_header, opa_scale, txt_buf, LV_TXT_FLAG_CENTER, NU
 694:..\..\..\lvgl\version_6.1.2\lvgl\src\lv_objx/lv_calendar.c **** 
 695:..\..\..\lvgl\version_6.1.2\lvgl\src\lv_objx/lv_calendar.c ****     /*Add the left arrow*/
 696:..\..\..\lvgl\version_6.1.2\lvgl\src\lv_objx/lv_calendar.c ****     const lv_style_t * arrow_style = ext->btn_pressing < 0 ? ext->style_header_pr : ext->style_head
 697:..\..\..\lvgl\version_6.1.2\lvgl\src\lv_objx/lv_calendar.c ****     header_area.x1 += ext->style_header->body.padding.left;
 698:..\..\..\lvgl\version_6.1.2\lvgl\src\lv_objx/lv_calendar.c ****     lv_draw_label(&header_area, mask, arrow_style, opa_scale, LV_SYMBOL_LEFT, LV_TXT_FLAG_NONE, NUL
 699:..\..\..\lvgl\version_6.1.2\lvgl\src\lv_objx/lv_calendar.c **** 
 700:..\..\..\lvgl\version_6.1.2\lvgl\src\lv_objx/lv_calendar.c ****     /*Add the right arrow*/
 701:..\..\..\lvgl\version_6.1.2\lvgl\src\lv_objx/lv_calendar.c ****     arrow_style    = ext->btn_pressing > 0 ? ext->style_header_pr : ext->style_header;
 702:..\..\..\lvgl\version_6.1.2\lvgl\src\lv_objx/lv_calendar.c ****     header_area.x1 = header_area.x2 - ext->style_header->body.padding.right -
 703:..\..\..\lvgl\version_6.1.2\lvgl\src\lv_objx/lv_calendar.c ****                      lv_txt_get_width(LV_SYMBOL_RIGHT, (uint16_t)strlen(LV_SYMBOL_RIGHT), arrow_sty
 704:..\..\..\lvgl\version_6.1.2\lvgl\src\lv_objx/lv_calendar.c ****                                       arrow_style->text.line_space, LV_TXT_FLAG_NONE);
 705:..\..\..\lvgl\version_6.1.2\lvgl\src\lv_objx/lv_calendar.c ****     lv_draw_label(&header_area, mask, arrow_style, opa_scale, LV_SYMBOL_RIGHT, LV_TXT_FLAG_NONE, NU
 706:..\..\..\lvgl\version_6.1.2\lvgl\src\lv_objx/lv_calendar.c **** }
 707:..\..\..\lvgl\version_6.1.2\lvgl\src\lv_objx/lv_calendar.c **** 
 708:..\..\..\lvgl\version_6.1.2\lvgl\src\lv_objx/lv_calendar.c **** /**
 709:..\..\..\lvgl\version_6.1.2\lvgl\src\lv_objx/lv_calendar.c ****  * Draw the day's name below the header
 710:..\..\..\lvgl\version_6.1.2\lvgl\src\lv_objx/lv_calendar.c ****  * @param calendar point to a calendar
 711:..\..\..\lvgl\version_6.1.2\lvgl\src\lv_objx/lv_calendar.c ****  * @param mask a mask for drawing
 712:..\..\..\lvgl\version_6.1.2\lvgl\src\lv_objx/lv_calendar.c ****  */
 713:..\..\..\lvgl\version_6.1.2\lvgl\src\lv_objx/lv_calendar.c **** static void draw_day_names(lv_obj_t * calendar, const lv_area_t * mask)
ARM GAS  C:\Users\pearlstl\AppData\Local\Temp\ccHPSyCj.s 			page 17


 714:..\..\..\lvgl\version_6.1.2\lvgl\src\lv_objx/lv_calendar.c **** {
 715:..\..\..\lvgl\version_6.1.2\lvgl\src\lv_objx/lv_calendar.c ****     lv_calendar_ext_t * ext = lv_obj_get_ext_attr(calendar);
 716:..\..\..\lvgl\version_6.1.2\lvgl\src\lv_objx/lv_calendar.c ****     lv_bidi_dir_t bidi_dir = lv_obj_get_base_dir(calendar);
 717:..\..\..\lvgl\version_6.1.2\lvgl\src\lv_objx/lv_calendar.c ****     lv_opa_t opa_scale      = lv_obj_get_opa_scale(calendar);
 718:..\..\..\lvgl\version_6.1.2\lvgl\src\lv_objx/lv_calendar.c **** 
 719:..\..\..\lvgl\version_6.1.2\lvgl\src\lv_objx/lv_calendar.c ****     lv_coord_t l_pad = ext->style_day_names->body.padding.left;
 720:..\..\..\lvgl\version_6.1.2\lvgl\src\lv_objx/lv_calendar.c ****     lv_coord_t w =
 721:..\..\..\lvgl\version_6.1.2\lvgl\src\lv_objx/lv_calendar.c ****         lv_obj_get_width(calendar) - ext->style_day_names->body.padding.left - ext->style_day_names
 722:..\..\..\lvgl\version_6.1.2\lvgl\src\lv_objx/lv_calendar.c ****     lv_coord_t box_w = w / 7;
 723:..\..\..\lvgl\version_6.1.2\lvgl\src\lv_objx/lv_calendar.c ****     lv_area_t label_area;
 724:..\..\..\lvgl\version_6.1.2\lvgl\src\lv_objx/lv_calendar.c ****     label_area.y1 = calendar->coords.y1 + get_header_height(calendar) + ext->style_day_names->body.
 725:..\..\..\lvgl\version_6.1.2\lvgl\src\lv_objx/lv_calendar.c ****     label_area.y2 = label_area.y1 + lv_font_get_line_height(ext->style_day_names->text.font);
 726:..\..\..\lvgl\version_6.1.2\lvgl\src\lv_objx/lv_calendar.c ****     uint32_t i;
 727:..\..\..\lvgl\version_6.1.2\lvgl\src\lv_objx/lv_calendar.c ****     for(i = 0; i < 7; i++) {
 728:..\..\..\lvgl\version_6.1.2\lvgl\src\lv_objx/lv_calendar.c ****         label_area.x1 = calendar->coords.x1 + (w * i) / 7 + l_pad;
 729:..\..\..\lvgl\version_6.1.2\lvgl\src\lv_objx/lv_calendar.c ****         label_area.x2 = label_area.x1 + box_w - 1;
 730:..\..\..\lvgl\version_6.1.2\lvgl\src\lv_objx/lv_calendar.c ****         lv_draw_label(&label_area, mask, ext->style_day_names, opa_scale, get_day_name(calendar, i)
 731:..\..\..\lvgl\version_6.1.2\lvgl\src\lv_objx/lv_calendar.c ****                       NULL, NULL, NULL, bidi_dir);
 732:..\..\..\lvgl\version_6.1.2\lvgl\src\lv_objx/lv_calendar.c ****     }
 733:..\..\..\lvgl\version_6.1.2\lvgl\src\lv_objx/lv_calendar.c **** }
 734:..\..\..\lvgl\version_6.1.2\lvgl\src\lv_objx/lv_calendar.c **** 
 735:..\..\..\lvgl\version_6.1.2\lvgl\src\lv_objx/lv_calendar.c **** /**
 736:..\..\..\lvgl\version_6.1.2\lvgl\src\lv_objx/lv_calendar.c ****  * Draw the date numbers in a matrix
 737:..\..\..\lvgl\version_6.1.2\lvgl\src\lv_objx/lv_calendar.c ****  * @param calendar point to a calendar
 738:..\..\..\lvgl\version_6.1.2\lvgl\src\lv_objx/lv_calendar.c ****  * @param mask a mask for drawing
 739:..\..\..\lvgl\version_6.1.2\lvgl\src\lv_objx/lv_calendar.c ****  */
 740:..\..\..\lvgl\version_6.1.2\lvgl\src\lv_objx/lv_calendar.c **** static void draw_days(lv_obj_t * calendar, const lv_area_t * mask)
 741:..\..\..\lvgl\version_6.1.2\lvgl\src\lv_objx/lv_calendar.c **** {
 742:..\..\..\lvgl\version_6.1.2\lvgl\src\lv_objx/lv_calendar.c ****     lv_calendar_ext_t * ext     = lv_obj_get_ext_attr(calendar);
 743:..\..\..\lvgl\version_6.1.2\lvgl\src\lv_objx/lv_calendar.c ****     lv_bidi_dir_t bidi_dir = lv_obj_get_base_dir(calendar);
 744:..\..\..\lvgl\version_6.1.2\lvgl\src\lv_objx/lv_calendar.c ****     const lv_style_t * style_bg = lv_calendar_get_style(calendar, LV_CALENDAR_STYLE_BG);
 745:..\..\..\lvgl\version_6.1.2\lvgl\src\lv_objx/lv_calendar.c ****     lv_area_t label_area;
 746:..\..\..\lvgl\version_6.1.2\lvgl\src\lv_objx/lv_calendar.c ****     lv_opa_t opa_scale = lv_obj_get_opa_scale(calendar);
 747:..\..\..\lvgl\version_6.1.2\lvgl\src\lv_objx/lv_calendar.c ****     label_area.y1      = calendar->coords.y1 + get_header_height(calendar) + ext->style_day_names->
 748:..\..\..\lvgl\version_6.1.2\lvgl\src\lv_objx/lv_calendar.c ****                     lv_font_get_line_height(ext->style_day_names->text.font) +
 749:..\..\..\lvgl\version_6.1.2\lvgl\src\lv_objx/lv_calendar.c ****                     ext->style_day_names->body.padding.bottom;
 750:..\..\..\lvgl\version_6.1.2\lvgl\src\lv_objx/lv_calendar.c ****     label_area.y2 = label_area.y1 + lv_font_get_line_height(style_bg->text.font);
 751:..\..\..\lvgl\version_6.1.2\lvgl\src\lv_objx/lv_calendar.c **** 
 752:..\..\..\lvgl\version_6.1.2\lvgl\src\lv_objx/lv_calendar.c ****     lv_coord_t w          = lv_obj_get_width(calendar) - style_bg->body.padding.left - style_bg->bo
 753:..\..\..\lvgl\version_6.1.2\lvgl\src\lv_objx/lv_calendar.c ****     lv_coord_t h          = calendar->coords.y2 - label_area.y1 - style_bg->body.padding.bottom;
 754:..\..\..\lvgl\version_6.1.2\lvgl\src\lv_objx/lv_calendar.c ****     lv_coord_t box_w      = w / 7;
 755:..\..\..\lvgl\version_6.1.2\lvgl\src\lv_objx/lv_calendar.c ****     lv_coord_t vert_space = (h - (6 * lv_font_get_line_height(style_bg->text.font))) / 5;
 756:..\..\..\lvgl\version_6.1.2\lvgl\src\lv_objx/lv_calendar.c **** 
 757:..\..\..\lvgl\version_6.1.2\lvgl\src\lv_objx/lv_calendar.c ****     uint32_t week;
 758:..\..\..\lvgl\version_6.1.2\lvgl\src\lv_objx/lv_calendar.c ****     uint8_t day_cnt;
 759:..\..\..\lvgl\version_6.1.2\lvgl\src\lv_objx/lv_calendar.c ****     uint8_t month_start_day = get_day_of_week(ext->showed_date.year, ext->showed_date.month, 1);
 760:..\..\..\lvgl\version_6.1.2\lvgl\src\lv_objx/lv_calendar.c ****     day_draw_state_t draw_state; /*true: Not the prev. or next month is drawn*/
 761:..\..\..\lvgl\version_6.1.2\lvgl\src\lv_objx/lv_calendar.c ****     const lv_style_t * act_style;
 762:..\..\..\lvgl\version_6.1.2\lvgl\src\lv_objx/lv_calendar.c **** 
 763:..\..\..\lvgl\version_6.1.2\lvgl\src\lv_objx/lv_calendar.c ****     /*If starting with the first day of the week then the previous month is not visible*/
 764:..\..\..\lvgl\version_6.1.2\lvgl\src\lv_objx/lv_calendar.c ****     if(month_start_day == 0) {
 765:..\..\..\lvgl\version_6.1.2\lvgl\src\lv_objx/lv_calendar.c ****         day_cnt    = 1;
 766:..\..\..\lvgl\version_6.1.2\lvgl\src\lv_objx/lv_calendar.c ****         draw_state = DAY_DRAW_ACT_MONTH;
 767:..\..\..\lvgl\version_6.1.2\lvgl\src\lv_objx/lv_calendar.c ****         act_style  = style_bg;
 768:..\..\..\lvgl\version_6.1.2\lvgl\src\lv_objx/lv_calendar.c ****     } else {
 769:..\..\..\lvgl\version_6.1.2\lvgl\src\lv_objx/lv_calendar.c ****         draw_state = DAY_DRAW_PREV_MONTH;
 770:..\..\..\lvgl\version_6.1.2\lvgl\src\lv_objx/lv_calendar.c ****         day_cnt = get_month_length(ext->showed_date.year, ext->showed_date.month - 1); /*Length of 
ARM GAS  C:\Users\pearlstl\AppData\Local\Temp\ccHPSyCj.s 			page 18


 771:..\..\..\lvgl\version_6.1.2\lvgl\src\lv_objx/lv_calendar.c ****         day_cnt -= month_start_day - 1; /*First visible number of the previous month*/
 772:..\..\..\lvgl\version_6.1.2\lvgl\src\lv_objx/lv_calendar.c ****         act_style = ext->style_inactive_days;
 773:..\..\..\lvgl\version_6.1.2\lvgl\src\lv_objx/lv_calendar.c ****     }
 774:..\..\..\lvgl\version_6.1.2\lvgl\src\lv_objx/lv_calendar.c **** 
 775:..\..\..\lvgl\version_6.1.2\lvgl\src\lv_objx/lv_calendar.c ****     bool month_of_today_shown = false;
 776:..\..\..\lvgl\version_6.1.2\lvgl\src\lv_objx/lv_calendar.c ****     if(ext->showed_date.year == ext->today.year && ext->showed_date.month == ext->today.month) {
 777:..\..\..\lvgl\version_6.1.2\lvgl\src\lv_objx/lv_calendar.c ****         month_of_today_shown = true;
 778:..\..\..\lvgl\version_6.1.2\lvgl\src\lv_objx/lv_calendar.c ****     }
 779:..\..\..\lvgl\version_6.1.2\lvgl\src\lv_objx/lv_calendar.c **** 
 780:..\..\..\lvgl\version_6.1.2\lvgl\src\lv_objx/lv_calendar.c ****     char buf[3];
 781:..\..\..\lvgl\version_6.1.2\lvgl\src\lv_objx/lv_calendar.c ****     bool in_week_box = false;
 782:..\..\..\lvgl\version_6.1.2\lvgl\src\lv_objx/lv_calendar.c **** 
 783:..\..\..\lvgl\version_6.1.2\lvgl\src\lv_objx/lv_calendar.c ****     /*Draw 6 weeks*/
 784:..\..\..\lvgl\version_6.1.2\lvgl\src\lv_objx/lv_calendar.c ****     for(week = 0; week < 6; week++) {
 785:..\..\..\lvgl\version_6.1.2\lvgl\src\lv_objx/lv_calendar.c **** 
 786:..\..\..\lvgl\version_6.1.2\lvgl\src\lv_objx/lv_calendar.c ****         /*Draw the "week box"*/
 787:..\..\..\lvgl\version_6.1.2\lvgl\src\lv_objx/lv_calendar.c ****         if(month_of_today_shown &&
 788:..\..\..\lvgl\version_6.1.2\lvgl\src\lv_objx/lv_calendar.c ****            ((draw_state == DAY_DRAW_ACT_MONTH && ext->today.day >= day_cnt && ext->today.day < day_
 789:..\..\..\lvgl\version_6.1.2\lvgl\src\lv_objx/lv_calendar.c ****             (draw_state == DAY_DRAW_PREV_MONTH && ext->today.day <= 7 - month_start_day && week == 
 790:..\..\..\lvgl\version_6.1.2\lvgl\src\lv_objx/lv_calendar.c ****             lv_area_t week_box_area;
 791:..\..\..\lvgl\version_6.1.2\lvgl\src\lv_objx/lv_calendar.c ****             lv_area_copy(&week_box_area, &label_area); /*'label_area' is already set for this row*/
 792:..\..\..\lvgl\version_6.1.2\lvgl\src\lv_objx/lv_calendar.c ****             week_box_area.x1 =
 793:..\..\..\lvgl\version_6.1.2\lvgl\src\lv_objx/lv_calendar.c ****                 calendar->coords.x1 + style_bg->body.padding.left - ext->style_week_box->body.paddi
 794:..\..\..\lvgl\version_6.1.2\lvgl\src\lv_objx/lv_calendar.c ****             week_box_area.x2 =
 795:..\..\..\lvgl\version_6.1.2\lvgl\src\lv_objx/lv_calendar.c ****                 calendar->coords.x2 - style_bg->body.padding.right + ext->style_week_box->body.padd
 796:..\..\..\lvgl\version_6.1.2\lvgl\src\lv_objx/lv_calendar.c **** 
 797:..\..\..\lvgl\version_6.1.2\lvgl\src\lv_objx/lv_calendar.c ****             week_box_area.y1 -= ext->style_week_box->body.padding.top;
 798:..\..\..\lvgl\version_6.1.2\lvgl\src\lv_objx/lv_calendar.c ****             week_box_area.y2 += ext->style_week_box->body.padding.bottom;
 799:..\..\..\lvgl\version_6.1.2\lvgl\src\lv_objx/lv_calendar.c ****             lv_draw_rect(&week_box_area, mask, ext->style_week_box, opa_scale);
 800:..\..\..\lvgl\version_6.1.2\lvgl\src\lv_objx/lv_calendar.c **** 
 801:..\..\..\lvgl\version_6.1.2\lvgl\src\lv_objx/lv_calendar.c ****             in_week_box = true;
 802:..\..\..\lvgl\version_6.1.2\lvgl\src\lv_objx/lv_calendar.c ****         } else {
 803:..\..\..\lvgl\version_6.1.2\lvgl\src\lv_objx/lv_calendar.c ****             in_week_box = false;
 804:..\..\..\lvgl\version_6.1.2\lvgl\src\lv_objx/lv_calendar.c ****         }
 805:..\..\..\lvgl\version_6.1.2\lvgl\src\lv_objx/lv_calendar.c **** 
 806:..\..\..\lvgl\version_6.1.2\lvgl\src\lv_objx/lv_calendar.c ****         /*Draw the 7 days of a week*/
 807:..\..\..\lvgl\version_6.1.2\lvgl\src\lv_objx/lv_calendar.c ****         uint32_t day;
 808:..\..\..\lvgl\version_6.1.2\lvgl\src\lv_objx/lv_calendar.c ****         for(day = 0; day < 7; day++) {
 809:..\..\..\lvgl\version_6.1.2\lvgl\src\lv_objx/lv_calendar.c ****             /*The previous month is over*/
 810:..\..\..\lvgl\version_6.1.2\lvgl\src\lv_objx/lv_calendar.c ****             if(draw_state == DAY_DRAW_PREV_MONTH && day == month_start_day) {
 811:..\..\..\lvgl\version_6.1.2\lvgl\src\lv_objx/lv_calendar.c ****                 draw_state = DAY_DRAW_ACT_MONTH;
 812:..\..\..\lvgl\version_6.1.2\lvgl\src\lv_objx/lv_calendar.c ****                 day_cnt    = 1;
 813:..\..\..\lvgl\version_6.1.2\lvgl\src\lv_objx/lv_calendar.c ****                 act_style  = style_bg;
 814:..\..\..\lvgl\version_6.1.2\lvgl\src\lv_objx/lv_calendar.c ****             }
 815:..\..\..\lvgl\version_6.1.2\lvgl\src\lv_objx/lv_calendar.c ****             /*The current month is over*/
 816:..\..\..\lvgl\version_6.1.2\lvgl\src\lv_objx/lv_calendar.c ****             if(draw_state == DAY_DRAW_ACT_MONTH &&
 817:..\..\..\lvgl\version_6.1.2\lvgl\src\lv_objx/lv_calendar.c ****                day_cnt > get_month_length(ext->showed_date.year, ext->showed_date.month)) {
 818:..\..\..\lvgl\version_6.1.2\lvgl\src\lv_objx/lv_calendar.c ****                 draw_state = DAY_DRAW_NEXT_MONTH;
 819:..\..\..\lvgl\version_6.1.2\lvgl\src\lv_objx/lv_calendar.c ****                 day_cnt    = 1;
 820:..\..\..\lvgl\version_6.1.2\lvgl\src\lv_objx/lv_calendar.c ****                 act_style  = ext->style_inactive_days;
 821:..\..\..\lvgl\version_6.1.2\lvgl\src\lv_objx/lv_calendar.c ****             }
 822:..\..\..\lvgl\version_6.1.2\lvgl\src\lv_objx/lv_calendar.c **** 
 823:..\..\..\lvgl\version_6.1.2\lvgl\src\lv_objx/lv_calendar.c ****             label_area.x1 =
 824:..\..\..\lvgl\version_6.1.2\lvgl\src\lv_objx/lv_calendar.c ****                 calendar->coords.x1 + (w * day) / 7 + style_bg->body.padding.left;
 825:..\..\..\lvgl\version_6.1.2\lvgl\src\lv_objx/lv_calendar.c ****             label_area.x2 = label_area.x1 + box_w - 1;
 826:..\..\..\lvgl\version_6.1.2\lvgl\src\lv_objx/lv_calendar.c **** 
 827:..\..\..\lvgl\version_6.1.2\lvgl\src\lv_objx/lv_calendar.c ****             /*Draw the "today box"*/
ARM GAS  C:\Users\pearlstl\AppData\Local\Temp\ccHPSyCj.s 			page 19


 828:..\..\..\lvgl\version_6.1.2\lvgl\src\lv_objx/lv_calendar.c ****             if(draw_state == DAY_DRAW_ACT_MONTH && month_of_today_shown && ext->today.day == day_cn
 829:..\..\..\lvgl\version_6.1.2\lvgl\src\lv_objx/lv_calendar.c ****                 lv_area_t today_box_area;
 830:..\..\..\lvgl\version_6.1.2\lvgl\src\lv_objx/lv_calendar.c ****                 lv_area_copy(&today_box_area, &label_area);
 831:..\..\..\lvgl\version_6.1.2\lvgl\src\lv_objx/lv_calendar.c ****                 today_box_area.x1 = label_area.x1;
 832:..\..\..\lvgl\version_6.1.2\lvgl\src\lv_objx/lv_calendar.c ****                 today_box_area.x2 = label_area.x2;
 833:..\..\..\lvgl\version_6.1.2\lvgl\src\lv_objx/lv_calendar.c **** 
 834:..\..\..\lvgl\version_6.1.2\lvgl\src\lv_objx/lv_calendar.c ****                 today_box_area.y1 = label_area.y1 - ext->style_today_box->body.padding.top;
 835:..\..\..\lvgl\version_6.1.2\lvgl\src\lv_objx/lv_calendar.c ****                 today_box_area.y2 = label_area.y2 + ext->style_today_box->body.padding.bottom;
 836:..\..\..\lvgl\version_6.1.2\lvgl\src\lv_objx/lv_calendar.c ****                 lv_draw_rect(&today_box_area, mask, ext->style_today_box, opa_scale);
 837:..\..\..\lvgl\version_6.1.2\lvgl\src\lv_objx/lv_calendar.c ****             }
 838:..\..\..\lvgl\version_6.1.2\lvgl\src\lv_objx/lv_calendar.c **** 
 839:..\..\..\lvgl\version_6.1.2\lvgl\src\lv_objx/lv_calendar.c ****             /*Get the final style : highlighted/week box/today box/normal*/
 840:..\..\..\lvgl\version_6.1.2\lvgl\src\lv_objx/lv_calendar.c ****             const lv_style_t * final_style;
 841:..\..\..\lvgl\version_6.1.2\lvgl\src\lv_objx/lv_calendar.c ****             if(draw_state == DAY_DRAW_PREV_MONTH &&
 842:..\..\..\lvgl\version_6.1.2\lvgl\src\lv_objx/lv_calendar.c ****                is_highlighted(calendar, ext->showed_date.year - (ext->showed_date.month == 1 ? 1 : 
 843:..\..\..\lvgl\version_6.1.2\lvgl\src\lv_objx/lv_calendar.c ****                               ext->showed_date.month == 1 ? 12 : ext->showed_date.month - 1, day_cn
 844:..\..\..\lvgl\version_6.1.2\lvgl\src\lv_objx/lv_calendar.c ****                 final_style = ext->style_highlighted_days;
 845:..\..\..\lvgl\version_6.1.2\lvgl\src\lv_objx/lv_calendar.c ****             } else if(draw_state == DAY_DRAW_ACT_MONTH &&
 846:..\..\..\lvgl\version_6.1.2\lvgl\src\lv_objx/lv_calendar.c ****                       is_highlighted(calendar, ext->showed_date.year, ext->showed_date.month, day_c
 847:..\..\..\lvgl\version_6.1.2\lvgl\src\lv_objx/lv_calendar.c ****                 final_style = ext->style_highlighted_days;
 848:..\..\..\lvgl\version_6.1.2\lvgl\src\lv_objx/lv_calendar.c ****             } else if(draw_state == DAY_DRAW_NEXT_MONTH &&
 849:..\..\..\lvgl\version_6.1.2\lvgl\src\lv_objx/lv_calendar.c ****                       is_highlighted(calendar, ext->showed_date.year + (ext->showed_date.month == 1
 850:..\..\..\lvgl\version_6.1.2\lvgl\src\lv_objx/lv_calendar.c ****                                      ext->showed_date.month == 12 ? 1 : ext->showed_date.month + 1,
 851:..\..\..\lvgl\version_6.1.2\lvgl\src\lv_objx/lv_calendar.c ****                 final_style = ext->style_highlighted_days;
 852:..\..\..\lvgl\version_6.1.2\lvgl\src\lv_objx/lv_calendar.c ****             } else if(month_of_today_shown && day_cnt == ext->today.day && draw_state == DAY_DRAW_A
 853:..\..\..\lvgl\version_6.1.2\lvgl\src\lv_objx/lv_calendar.c ****                 final_style = ext->style_today_box;
 854:..\..\..\lvgl\version_6.1.2\lvgl\src\lv_objx/lv_calendar.c ****             else if(in_week_box && draw_state == DAY_DRAW_ACT_MONTH)
 855:..\..\..\lvgl\version_6.1.2\lvgl\src\lv_objx/lv_calendar.c ****                 final_style = ext->style_week_box;
 856:..\..\..\lvgl\version_6.1.2\lvgl\src\lv_objx/lv_calendar.c ****             else
 857:..\..\..\lvgl\version_6.1.2\lvgl\src\lv_objx/lv_calendar.c ****                 final_style = act_style;
 858:..\..\..\lvgl\version_6.1.2\lvgl\src\lv_objx/lv_calendar.c **** 
 859:..\..\..\lvgl\version_6.1.2\lvgl\src\lv_objx/lv_calendar.c ****             /*Write the day's number*/
 860:..\..\..\lvgl\version_6.1.2\lvgl\src\lv_objx/lv_calendar.c ****             lv_utils_num_to_str(day_cnt, buf);
 861:..\..\..\lvgl\version_6.1.2\lvgl\src\lv_objx/lv_calendar.c ****             lv_draw_label(&label_area, mask, final_style, opa_scale, buf, LV_TXT_FLAG_CENTER, NULL,
 862:..\..\..\lvgl\version_6.1.2\lvgl\src\lv_objx/lv_calendar.c **** 
 863:..\..\..\lvgl\version_6.1.2\lvgl\src\lv_objx/lv_calendar.c ****             /*Go to the next day*/
 864:..\..\..\lvgl\version_6.1.2\lvgl\src\lv_objx/lv_calendar.c ****             day_cnt++;
 865:..\..\..\lvgl\version_6.1.2\lvgl\src\lv_objx/lv_calendar.c ****         }
 866:..\..\..\lvgl\version_6.1.2\lvgl\src\lv_objx/lv_calendar.c **** 
 867:..\..\..\lvgl\version_6.1.2\lvgl\src\lv_objx/lv_calendar.c ****         /*Got to the next weeks row*/
 868:..\..\..\lvgl\version_6.1.2\lvgl\src\lv_objx/lv_calendar.c ****         label_area.y1 += vert_space + lv_font_get_line_height(style_bg->text.font);
 869:..\..\..\lvgl\version_6.1.2\lvgl\src\lv_objx/lv_calendar.c ****         label_area.y2 += vert_space + lv_font_get_line_height(style_bg->text.font);
 870:..\..\..\lvgl\version_6.1.2\lvgl\src\lv_objx/lv_calendar.c ****     }
 871:..\..\..\lvgl\version_6.1.2\lvgl\src\lv_objx/lv_calendar.c **** }
 872:..\..\..\lvgl\version_6.1.2\lvgl\src\lv_objx/lv_calendar.c **** 
 873:..\..\..\lvgl\version_6.1.2\lvgl\src\lv_objx/lv_calendar.c **** /**
 874:..\..\..\lvgl\version_6.1.2\lvgl\src\lv_objx/lv_calendar.c ****  * Check weather a date is highlighted or not
 875:..\..\..\lvgl\version_6.1.2\lvgl\src\lv_objx/lv_calendar.c ****  * @param calendar pointer to a calendar object
 876:..\..\..\lvgl\version_6.1.2\lvgl\src\lv_objx/lv_calendar.c ****  * @param year a year
 877:..\..\..\lvgl\version_6.1.2\lvgl\src\lv_objx/lv_calendar.c ****  * @param month a  month [1..12]
 878:..\..\..\lvgl\version_6.1.2\lvgl\src\lv_objx/lv_calendar.c ****  * @param day a day [1..31]
 879:..\..\..\lvgl\version_6.1.2\lvgl\src\lv_objx/lv_calendar.c ****  * @return true: highlighted
 880:..\..\..\lvgl\version_6.1.2\lvgl\src\lv_objx/lv_calendar.c ****  */
 881:..\..\..\lvgl\version_6.1.2\lvgl\src\lv_objx/lv_calendar.c **** static bool is_highlighted(lv_obj_t * calendar, int32_t year, int32_t month, int32_t day)
 882:..\..\..\lvgl\version_6.1.2\lvgl\src\lv_objx/lv_calendar.c **** {
 883:..\..\..\lvgl\version_6.1.2\lvgl\src\lv_objx/lv_calendar.c ****     lv_calendar_ext_t * ext = lv_obj_get_ext_attr(calendar);
 884:..\..\..\lvgl\version_6.1.2\lvgl\src\lv_objx/lv_calendar.c **** 
ARM GAS  C:\Users\pearlstl\AppData\Local\Temp\ccHPSyCj.s 			page 20


 885:..\..\..\lvgl\version_6.1.2\lvgl\src\lv_objx/lv_calendar.c ****     if(ext->highlighted_dates == NULL || ext->highlighted_dates_num == 0) return false;
 886:..\..\..\lvgl\version_6.1.2\lvgl\src\lv_objx/lv_calendar.c **** 
 887:..\..\..\lvgl\version_6.1.2\lvgl\src\lv_objx/lv_calendar.c ****     uint32_t i;
 888:..\..\..\lvgl\version_6.1.2\lvgl\src\lv_objx/lv_calendar.c ****     for(i = 0; i < ext->highlighted_dates_num; i++) {
 889:..\..\..\lvgl\version_6.1.2\lvgl\src\lv_objx/lv_calendar.c ****         if(ext->highlighted_dates[i].year == year && ext->highlighted_dates[i].month == month &&
 890:..\..\..\lvgl\version_6.1.2\lvgl\src\lv_objx/lv_calendar.c ****            ext->highlighted_dates[i].day == day) {
 891:..\..\..\lvgl\version_6.1.2\lvgl\src\lv_objx/lv_calendar.c ****             return true;
 892:..\..\..\lvgl\version_6.1.2\lvgl\src\lv_objx/lv_calendar.c ****         }
 893:..\..\..\lvgl\version_6.1.2\lvgl\src\lv_objx/lv_calendar.c ****     }
 894:..\..\..\lvgl\version_6.1.2\lvgl\src\lv_objx/lv_calendar.c **** 
 895:..\..\..\lvgl\version_6.1.2\lvgl\src\lv_objx/lv_calendar.c ****     return false;
 896:..\..\..\lvgl\version_6.1.2\lvgl\src\lv_objx/lv_calendar.c **** }
 897:..\..\..\lvgl\version_6.1.2\lvgl\src\lv_objx/lv_calendar.c **** 
 898:..\..\..\lvgl\version_6.1.2\lvgl\src\lv_objx/lv_calendar.c **** /**
 899:..\..\..\lvgl\version_6.1.2\lvgl\src\lv_objx/lv_calendar.c ****  * Get the day name
 900:..\..\..\lvgl\version_6.1.2\lvgl\src\lv_objx/lv_calendar.c ****  * @param calendar pointer to a calendar object
 901:..\..\..\lvgl\version_6.1.2\lvgl\src\lv_objx/lv_calendar.c ****  * @param day a day in [0..6]
 902:..\..\..\lvgl\version_6.1.2\lvgl\src\lv_objx/lv_calendar.c ****  * @return
 903:..\..\..\lvgl\version_6.1.2\lvgl\src\lv_objx/lv_calendar.c ****  */
 904:..\..\..\lvgl\version_6.1.2\lvgl\src\lv_objx/lv_calendar.c **** static const char * get_day_name(lv_obj_t * calendar, uint8_t day)
 905:..\..\..\lvgl\version_6.1.2\lvgl\src\lv_objx/lv_calendar.c **** {
 906:..\..\..\lvgl\version_6.1.2\lvgl\src\lv_objx/lv_calendar.c **** 
 907:..\..\..\lvgl\version_6.1.2\lvgl\src\lv_objx/lv_calendar.c ****     lv_calendar_ext_t * ext = lv_obj_get_ext_attr(calendar);
 908:..\..\..\lvgl\version_6.1.2\lvgl\src\lv_objx/lv_calendar.c ****     if(ext->day_names)
 909:..\..\..\lvgl\version_6.1.2\lvgl\src\lv_objx/lv_calendar.c ****         return ext->day_names[day];
 910:..\..\..\lvgl\version_6.1.2\lvgl\src\lv_objx/lv_calendar.c ****     else
 911:..\..\..\lvgl\version_6.1.2\lvgl\src\lv_objx/lv_calendar.c ****         return day_name[day];
 912:..\..\..\lvgl\version_6.1.2\lvgl\src\lv_objx/lv_calendar.c **** }
 913:..\..\..\lvgl\version_6.1.2\lvgl\src\lv_objx/lv_calendar.c **** 
 914:..\..\..\lvgl\version_6.1.2\lvgl\src\lv_objx/lv_calendar.c **** /**
 915:..\..\..\lvgl\version_6.1.2\lvgl\src\lv_objx/lv_calendar.c ****  * Get the month name
 916:..\..\..\lvgl\version_6.1.2\lvgl\src\lv_objx/lv_calendar.c ****  * @param calendar pointer to a calendar object
 917:..\..\..\lvgl\version_6.1.2\lvgl\src\lv_objx/lv_calendar.c ****  * @param month a month. The range is basically [1..12] but [-11..1] is also supported to handle
 918:..\..\..\lvgl\version_6.1.2\lvgl\src\lv_objx/lv_calendar.c ****  * previous year
 919:..\..\..\lvgl\version_6.1.2\lvgl\src\lv_objx/lv_calendar.c ****  * @return
 920:..\..\..\lvgl\version_6.1.2\lvgl\src\lv_objx/lv_calendar.c ****  */
 921:..\..\..\lvgl\version_6.1.2\lvgl\src\lv_objx/lv_calendar.c **** static const char * get_month_name(lv_obj_t * calendar, int32_t month)
 922:..\..\..\lvgl\version_6.1.2\lvgl\src\lv_objx/lv_calendar.c **** {
 923:..\..\..\lvgl\version_6.1.2\lvgl\src\lv_objx/lv_calendar.c ****     month--; /*Range of months id [1..12] but range of indexes is [0..11]*/
 924:..\..\..\lvgl\version_6.1.2\lvgl\src\lv_objx/lv_calendar.c ****     if(month < 0) month = 12 + month;
 925:..\..\..\lvgl\version_6.1.2\lvgl\src\lv_objx/lv_calendar.c **** 
 926:..\..\..\lvgl\version_6.1.2\lvgl\src\lv_objx/lv_calendar.c ****     lv_calendar_ext_t * ext = lv_obj_get_ext_attr(calendar);
 185              		.loc 1 926 0
 186 00aa 0698     		ldr	r0, [sp, #24]
 924:..\..\..\lvgl\version_6.1.2\lvgl\src\lv_objx/lv_calendar.c **** 
 187              		.loc 1 924 0
 188 00ac 5C1E     		subs	r4, r3, #1
 189              	.LVL23:
 190 00ae 48BF     		it	mi
 191 00b0 03F10B04 		addmi	r4, r3, #11
 192              	.LVL24:
 193              		.loc 1 926 0
 194 00b4 FFF7FEFF 		bl	lv_obj_get_ext_attr
 195              	.LVL25:
 927:..\..\..\lvgl\version_6.1.2\lvgl\src\lv_objx/lv_calendar.c ****     if(ext->month_names)
 196              		.loc 1 927 0
 197 00b8 8369     		ldr	r3, [r0, #24]
ARM GAS  C:\Users\pearlstl\AppData\Local\Temp\ccHPSyCj.s 			page 21


 198 00ba 002B     		cmp	r3, #0
 199 00bc 00F0CF83 		beq	.L113
 200              	.L106:
 201              	.LVL26:
 928:..\..\..\lvgl\version_6.1.2\lvgl\src\lv_objx/lv_calendar.c ****         return ext->month_names[month];
 929:..\..\..\lvgl\version_6.1.2\lvgl\src\lv_objx/lv_calendar.c ****     else
 930:..\..\..\lvgl\version_6.1.2\lvgl\src\lv_objx/lv_calendar.c ****         return month_name[month];
 202              		.loc 1 930 0
 203 00c0 53F82410 		ldr	r1, [r3, r4, lsl #2]
 204              	.LBE165:
 205              	.LBE164:
 703:..\..\..\lvgl\version_6.1.2\lvgl\src\lv_objx/lv_calendar.c ****                                       arrow_style->text.line_space, LV_TXT_FLAG_NONE);
 206              		.loc 1 703 0
 207 00c4 DFF8C891 		ldr	r9, .L125+16
 691:..\..\..\lvgl\version_6.1.2\lvgl\src\lv_objx/lv_calendar.c ****     header_area.y1 += ext->style_header->body.padding.top;
 208              		.loc 1 691 0
 209 00c8 0DF16D00 		add	r0, sp, #109
 210 00cc FFF7FEFF 		bl	strcpy
 211              	.LVL27:
 692:..\..\..\lvgl\version_6.1.2\lvgl\src\lv_objx/lv_calendar.c ****     lv_draw_label(&header_area, mask, ext->style_header, opa_scale, txt_buf, LV_TXT_FLAG_CENTER, NU
 212              		.loc 1 692 0
 213 00d0 EA69     		ldr	r2, [r5, #28]
 693:..\..\..\lvgl\version_6.1.2\lvgl\src\lv_objx/lv_calendar.c **** 
 214              		.loc 1 693 0
 215 00d2 DDF81CA0 		ldr	r10, [sp, #28]
 216              	.LVL28:
 692:..\..\..\lvgl\version_6.1.2\lvgl\src\lv_objx/lv_calendar.c ****     lv_draw_label(&header_area, mask, ext->style_header, opa_scale, txt_buf, LV_TXT_FLAG_CENTER, NU
 217              		.loc 1 692 0
 218 00d6 138C     		ldrh	r3, [r2, #32]
 219 00d8 BDF86260 		ldrh	r6, [sp, #98]
 693:..\..\..\lvgl\version_6.1.2\lvgl\src\lv_objx/lv_calendar.c **** 
 220              		.loc 1 693 0
 221 00dc CDF81480 		str	r8, [sp, #20]
 222 00e0 0024     		movs	r4, #0
 223 00e2 0421     		movs	r1, #4
 224 00e4 1AA8     		add	r0, sp, #104
 692:..\..\..\lvgl\version_6.1.2\lvgl\src\lv_objx/lv_calendar.c ****     lv_draw_label(&header_area, mask, ext->style_header, opa_scale, txt_buf, LV_TXT_FLAG_CENTER, NU
 225              		.loc 1 692 0
 226 00e6 1E44     		add	r6, r6, r3
 693:..\..\..\lvgl\version_6.1.2\lvgl\src\lv_objx/lv_calendar.c **** 
 227              		.loc 1 693 0
 228 00e8 0090     		str	r0, [sp]
 229 00ea 3B46     		mov	r3, r7
 230 00ec 0191     		str	r1, [sp, #4]
 231 00ee 18A8     		add	r0, sp, #96
 232 00f0 5146     		mov	r1, r10
 233 00f2 0494     		str	r4, [sp, #16]
 234 00f4 0394     		str	r4, [sp, #12]
 235 00f6 0294     		str	r4, [sp, #8]
 692:..\..\..\lvgl\version_6.1.2\lvgl\src\lv_objx/lv_calendar.c ****     lv_draw_label(&header_area, mask, ext->style_header, opa_scale, txt_buf, LV_TXT_FLAG_CENTER, NU
 236              		.loc 1 692 0
 237 00f8 ADF86260 		strh	r6, [sp, #98]	@ movhi
 693:..\..\..\lvgl\version_6.1.2\lvgl\src\lv_objx/lv_calendar.c **** 
 238              		.loc 1 693 0
 239 00fc FFF7FEFF 		bl	lv_draw_label
 240              	.LVL29:
 696:..\..\..\lvgl\version_6.1.2\lvgl\src\lv_objx/lv_calendar.c ****     header_area.x1 += ext->style_header->body.padding.left;
ARM GAS  C:\Users\pearlstl\AppData\Local\Temp\ccHPSyCj.s 			page 22


 241              		.loc 1 696 0
 242 0100 E969     		ldr	r1, [r5, #28]
 243 0102 95F90CE0 		ldrsb	lr, [r5, #12]
 697:..\..\..\lvgl\version_6.1.2\lvgl\src\lv_objx/lv_calendar.c ****     lv_draw_label(&header_area, mask, arrow_style, opa_scale, LV_SYMBOL_LEFT, LV_TXT_FLAG_NONE, NUL
 244              		.loc 1 697 0
 245 0106 8B8C     		ldrh	r3, [r1, #36]
 696:..\..\..\lvgl\version_6.1.2\lvgl\src\lv_objx/lv_calendar.c ****     header_area.x1 += ext->style_header->body.padding.left;
 246              		.loc 1 696 0
 247 0108 2A6A     		ldr	r2, [r5, #32]
 248              	.LVL30:
 697:..\..\..\lvgl\version_6.1.2\lvgl\src\lv_objx/lv_calendar.c ****     lv_draw_label(&header_area, mask, arrow_style, opa_scale, LV_SYMBOL_LEFT, LV_TXT_FLAG_NONE, NUL
 249              		.loc 1 697 0
 250 010a BDF86060 		ldrh	r6, [sp, #96]
 698:..\..\..\lvgl\version_6.1.2\lvgl\src\lv_objx/lv_calendar.c **** 
 251              		.loc 1 698 0
 252 010e 5C48     		ldr	r0, .L125
 253 0110 CDF81480 		str	r8, [sp, #20]
 254 0114 A645     		cmp	lr, r4
 255 0116 A8BF     		it	ge
 256 0118 0A46     		movge	r2, r1
 257              	.LVL31:
 697:..\..\..\lvgl\version_6.1.2\lvgl\src\lv_objx/lv_calendar.c ****     lv_draw_label(&header_area, mask, arrow_style, opa_scale, LV_SYMBOL_LEFT, LV_TXT_FLAG_NONE, NUL
 258              		.loc 1 697 0
 259 011a 1E44     		add	r6, r6, r3
 698:..\..\..\lvgl\version_6.1.2\lvgl\src\lv_objx/lv_calendar.c **** 
 260              		.loc 1 698 0
 261 011c 5146     		mov	r1, r10
 262 011e 3B46     		mov	r3, r7
 263 0120 0090     		str	r0, [sp]
 264 0122 0494     		str	r4, [sp, #16]
 265 0124 18A8     		add	r0, sp, #96
 266 0126 0394     		str	r4, [sp, #12]
 267 0128 0294     		str	r4, [sp, #8]
 268 012a 0194     		str	r4, [sp, #4]
 697:..\..\..\lvgl\version_6.1.2\lvgl\src\lv_objx/lv_calendar.c ****     lv_draw_label(&header_area, mask, arrow_style, opa_scale, LV_SYMBOL_LEFT, LV_TXT_FLAG_NONE, NUL
 269              		.loc 1 697 0
 270 012c ADF86060 		strh	r6, [sp, #96]	@ movhi
 698:..\..\..\lvgl\version_6.1.2\lvgl\src\lv_objx/lv_calendar.c **** 
 271              		.loc 1 698 0
 272 0130 FFF7FEFF 		bl	lv_draw_label
 273              	.LVL32:
 701:..\..\..\lvgl\version_6.1.2\lvgl\src\lv_objx/lv_calendar.c ****     header_area.x1 = header_area.x2 - ext->style_header->body.padding.right -
 274              		.loc 1 701 0
 275 0134 EB69     		ldr	r3, [r5, #28]
 276 0136 95F90C10 		ldrsb	r1, [r5, #12]
 277 013a 2E6A     		ldr	r6, [r5, #32]
 702:..\..\..\lvgl\version_6.1.2\lvgl\src\lv_objx/lv_calendar.c ****                      lv_txt_get_width(LV_SYMBOL_RIGHT, (uint16_t)strlen(LV_SYMBOL_RIGHT), arrow_sty
 278              		.loc 1 702 0
 279 013c DA8C     		ldrh	r2, [r3, #38]
 280 013e BDF86450 		ldrh	r5, [sp, #100]
 281              	.LVL33:
 701:..\..\..\lvgl\version_6.1.2\lvgl\src\lv_objx/lv_calendar.c ****     header_area.x1 = header_area.x2 - ext->style_header->body.padding.right -
 282              		.loc 1 701 0
 283 0142 A142     		cmp	r1, r4
 284 0144 D8BF     		it	le
 285 0146 1E46     		movle	r6, r3
 286              	.LVL34:
ARM GAS  C:\Users\pearlstl\AppData\Local\Temp\ccHPSyCj.s 			page 23


 702:..\..\..\lvgl\version_6.1.2\lvgl\src\lv_objx/lv_calendar.c ****                      lv_txt_get_width(LV_SYMBOL_RIGHT, (uint16_t)strlen(LV_SYMBOL_RIGHT), arrow_sty
 287              		.loc 1 702 0
 288 0148 AD1A     		subs	r5, r5, r2
 703:..\..\..\lvgl\version_6.1.2\lvgl\src\lv_objx/lv_calendar.c ****                                       arrow_style->text.line_space, LV_TXT_FLAG_NONE);
 289              		.loc 1 703 0
 290 014a B6F93A30 		ldrsh	r3, [r6, #58]
 291 014e 726B     		ldr	r2, [r6, #52]
 292 0150 0094     		str	r4, [sp]
 293 0152 4846     		mov	r0, r9
 294 0154 0321     		movs	r1, #3
 295 0156 FFF7FEFF 		bl	lv_txt_get_width
 296              	.LVL35:
 702:..\..\..\lvgl\version_6.1.2\lvgl\src\lv_objx/lv_calendar.c ****                      lv_txt_get_width(LV_SYMBOL_RIGHT, (uint16_t)strlen(LV_SYMBOL_RIGHT), arrow_sty
 297              		.loc 1 702 0
 298 015a ADB2     		uxth	r5, r5
 705:..\..\..\lvgl\version_6.1.2\lvgl\src\lv_objx/lv_calendar.c **** }
 299              		.loc 1 705 0
 300 015c 3246     		mov	r2, r6
 301 015e 5146     		mov	r1, r10
 302 0160 3B46     		mov	r3, r7
 303 0162 CDF81480 		str	r8, [sp, #20]
 702:..\..\..\lvgl\version_6.1.2\lvgl\src\lv_objx/lv_calendar.c ****                      lv_txt_get_width(LV_SYMBOL_RIGHT, (uint16_t)strlen(LV_SYMBOL_RIGHT), arrow_sty
 304              		.loc 1 702 0
 305 0166 2D1A     		subs	r5, r5, r0
 705:..\..\..\lvgl\version_6.1.2\lvgl\src\lv_objx/lv_calendar.c **** }
 306              		.loc 1 705 0
 307 0168 CDF80090 		str	r9, [sp]
 308 016c 18A8     		add	r0, sp, #96
 309 016e 0494     		str	r4, [sp, #16]
 310 0170 0394     		str	r4, [sp, #12]
 311 0172 0294     		str	r4, [sp, #8]
 312 0174 0194     		str	r4, [sp, #4]
 702:..\..\..\lvgl\version_6.1.2\lvgl\src\lv_objx/lv_calendar.c ****                      lv_txt_get_width(LV_SYMBOL_RIGHT, (uint16_t)strlen(LV_SYMBOL_RIGHT), arrow_sty
 313              		.loc 1 702 0
 314 0176 ADF86050 		strh	r5, [sp, #96]	@ movhi
 705:..\..\..\lvgl\version_6.1.2\lvgl\src\lv_objx/lv_calendar.c **** }
 315              		.loc 1 705 0
 316 017a FFF7FEFF 		bl	lv_draw_label
 317              	.LVL36:
 318              	.LBE161:
 319              	.LBE160:
 320              	.LBB169:
 321              	.LBB170:
 715:..\..\..\lvgl\version_6.1.2\lvgl\src\lv_objx/lv_calendar.c ****     lv_bidi_dir_t bidi_dir = lv_obj_get_base_dir(calendar);
 322              		.loc 1 715 0
 323 017e 069D     		ldr	r5, [sp, #24]
 324 0180 2846     		mov	r0, r5
 325 0182 FFF7FEFF 		bl	lv_obj_get_ext_attr
 326              	.LVL37:
 327 0186 8246     		mov	r10, r0
 328              	.LVL38:
 716:..\..\..\lvgl\version_6.1.2\lvgl\src\lv_objx/lv_calendar.c ****     lv_opa_t opa_scale      = lv_obj_get_opa_scale(calendar);
 329              		.loc 1 716 0
 330 0188 2846     		mov	r0, r5
 331              	.LVL39:
 332 018a FFF7FEFF 		bl	lv_obj_get_base_dir
 333              	.LVL40:
ARM GAS  C:\Users\pearlstl\AppData\Local\Temp\ccHPSyCj.s 			page 24


 334 018e 0890     		str	r0, [sp, #32]
 335              	.LVL41:
 717:..\..\..\lvgl\version_6.1.2\lvgl\src\lv_objx/lv_calendar.c **** 
 336              		.loc 1 717 0
 337 0190 2846     		mov	r0, r5
 338 0192 FFF7FEFF 		bl	lv_obj_get_opa_scale
 339              	.LVL42:
 719:..\..\..\lvgl\version_6.1.2\lvgl\src\lv_objx/lv_calendar.c ****     lv_coord_t w =
 340              		.loc 1 719 0
 341 0196 DAF82430 		ldr	r3, [r10, #36]
 717:..\..\..\lvgl\version_6.1.2\lvgl\src\lv_objx/lv_calendar.c **** 
 342              		.loc 1 717 0
 343 019a 0990     		str	r0, [sp, #36]
 344              	.LVL43:
 721:..\..\..\lvgl\version_6.1.2\lvgl\src\lv_objx/lv_calendar.c ****     lv_coord_t box_w = w / 7;
 345              		.loc 1 721 0
 346 019c 2846     		mov	r0, r5
 719:..\..\..\lvgl\version_6.1.2\lvgl\src\lv_objx/lv_calendar.c ****     lv_coord_t w =
 347              		.loc 1 719 0
 348 019e B3F92490 		ldrsh	r9, [r3, #36]
 349              	.LVL44:
 721:..\..\..\lvgl\version_6.1.2\lvgl\src\lv_objx/lv_calendar.c ****     lv_coord_t box_w = w / 7;
 350              		.loc 1 721 0
 351 01a2 FFF7FEFF 		bl	lv_obj_get_width
 352              	.LVL45:
 353 01a6 DAF82420 		ldr	r2, [r10, #36]
 720:..\..\..\lvgl\version_6.1.2\lvgl\src\lv_objx/lv_calendar.c ****         lv_obj_get_width(calendar) - ext->style_day_names->body.padding.left - ext->style_day_names
 354              		.loc 1 720 0
 355 01aa 938C     		ldrh	r3, [r2, #36]
 356 01ac D78C     		ldrh	r7, [r2, #38]
 724:..\..\..\lvgl\version_6.1.2\lvgl\src\lv_objx/lv_calendar.c ****     label_area.y2 = label_area.y1 + lv_font_get_line_height(ext->style_day_names->text.font);
 357              		.loc 1 724 0
 358 01ae 2946     		mov	r1, r5
 720:..\..\..\lvgl\version_6.1.2\lvgl\src\lv_objx/lv_calendar.c ****         lv_obj_get_width(calendar) - ext->style_day_names->body.padding.left - ext->style_day_names
 359              		.loc 1 720 0
 360 01b0 C01A     		subs	r0, r0, r3
 361 01b2 C71B     		subs	r7, r0, r7
 362              	.LBB171:
 363              	.LBB172:
 646:..\..\..\lvgl\version_6.1.2\lvgl\src\lv_objx/lv_calendar.c **** 
 364              		.loc 1 646 0
 365 01b4 0846     		mov	r0, r1
 366              	.LBE172:
 367              	.LBE171:
 724:..\..\..\lvgl\version_6.1.2\lvgl\src\lv_objx/lv_calendar.c ****     label_area.y2 = label_area.y1 + lv_font_get_line_height(ext->style_day_names->text.font);
 368              		.loc 1 724 0
 369 01b6 6D8A     		ldrh	r5, [r5, #18]
 370              	.LBB174:
 371              	.LBB173:
 646:..\..\..\lvgl\version_6.1.2\lvgl\src\lv_objx/lv_calendar.c **** 
 372              		.loc 1 646 0
 373 01b8 0691     		str	r1, [sp, #24]
 374              	.LVL46:
 375 01ba FFF7FEFF 		bl	lv_obj_get_ext_attr
 376              	.LVL47:
 648:..\..\..\lvgl\version_6.1.2\lvgl\src\lv_objx/lv_calendar.c ****            ext->style_header->body.padding.bottom;
 377              		.loc 1 648 0
ARM GAS  C:\Users\pearlstl\AppData\Local\Temp\ccHPSyCj.s 			page 25


 378 01be C369     		ldr	r3, [r0, #28]
 379              	.LBE173:
 380              	.LBE174:
 724:..\..\..\lvgl\version_6.1.2\lvgl\src\lv_objx/lv_calendar.c ****     label_area.y2 = label_area.y1 + lv_font_get_line_height(ext->style_day_names->text.font);
 381              		.loc 1 724 0
 382 01c0 DAF824B0 		ldr	fp, [r10, #36]
 383 01c4 198C     		ldrh	r1, [r3, #32]
 384 01c6 588C     		ldrh	r0, [r3, #34]
 385 01c8 5B6B     		ldr	r3, [r3, #52]
 730:..\..\..\lvgl\version_6.1.2\lvgl\src\lv_objx/lv_calendar.c ****                       NULL, NULL, NULL, bidi_dir);
 386              		.loc 1 730 0
 387 01ca CDF828A0 		str	r10, [sp, #40]
 724:..\..\..\lvgl\version_6.1.2\lvgl\src\lv_objx/lv_calendar.c ****     label_area.y2 = label_area.y1 + lv_font_get_line_height(ext->style_day_names->text.font);
 388              		.loc 1 724 0
 389 01ce 0D44     		add	r5, r5, r1
 390 01d0 BBF82010 		ldrh	r1, [fp, #32]
 391 01d4 1B7A     		ldrb	r3, [r3, #8]	@ zero_extendqisi2
 392 01d6 0544     		add	r5, r5, r0
 393 01d8 2944     		add	r1, r1, r5
 394 01da 0B44     		add	r3, r3, r1
 395 01dc 2949     		ldr	r1, .L125+4
 396 01de DBF83400 		ldr	r0, [fp, #52]
 720:..\..\..\lvgl\version_6.1.2\lvgl\src\lv_objx/lv_calendar.c ****         lv_obj_get_width(calendar) - ext->style_day_names->body.padding.left - ext->style_day_names
 397              		.loc 1 720 0
 398 01e2 3FB2     		sxth	r7, r7
 399              	.LVL48:
 724:..\..\..\lvgl\version_6.1.2\lvgl\src\lv_objx/lv_calendar.c ****     label_area.y2 = label_area.y1 + lv_font_get_line_height(ext->style_day_names->text.font);
 400              		.loc 1 724 0
 401 01e4 9BB2     		uxth	r3, r3
 402 01e6 A742     		cmp	r7, r4
 403 01e8 ADF86A30 		strh	r3, [sp, #106]	@ movhi
 404              	.LVL49:
 405 01ec 81FB0721 		smull	r2, r1, r1, r7
 725:..\..\..\lvgl\version_6.1.2\lvgl\src\lv_objx/lv_calendar.c ****     uint32_t i;
 406              		.loc 1 725 0
 407 01f0 007A     		ldrb	r0, [r0, #8]	@ zero_extendqisi2
 408 01f2 3944     		add	r1, r1, r7
 409 01f4 B4BF     		ite	lt
 410 01f6 4FF00008 		movlt	r8, #0
 411 01fa 4FF00108 		movge	r8, #1
 412 01fe C8EBA101 		rsb	r1, r8, r1, asr #2
 413 0202 1FFA89F9 		uxth	r9, r9
 414 0206 1FFA81F8 		uxth	r8, r1
 415 020a 0344     		add	r3, r3, r0
 730:..\..\..\lvgl\version_6.1.2\lvgl\src\lv_objx/lv_calendar.c ****                       NULL, NULL, NULL, bidi_dir);
 416              		.loc 1 730 0
 417 020c CA46     		mov	r10, r9
 418              	.LVL50:
 725:..\..\..\lvgl\version_6.1.2\lvgl\src\lv_objx/lv_calendar.c ****     uint32_t i;
 419              		.loc 1 725 0
 420 020e ADF86E30 		strh	r3, [sp, #110]	@ movhi
 421              	.LVL51:
 730:..\..\..\lvgl\version_6.1.2\lvgl\src\lv_objx/lv_calendar.c ****                       NULL, NULL, NULL, bidi_dir);
 422              		.loc 1 730 0
 423 0212 C146     		mov	r9, r8
 424              	.LVL52:
 725:..\..\..\lvgl\version_6.1.2\lvgl\src\lv_objx/lv_calendar.c ****     uint32_t i;
ARM GAS  C:\Users\pearlstl\AppData\Local\Temp\ccHPSyCj.s 			page 26


 425              		.loc 1 725 0
 426 0214 2546     		mov	r5, r4
 730:..\..\..\lvgl\version_6.1.2\lvgl\src\lv_objx/lv_calendar.c ****                       NULL, NULL, NULL, bidi_dir);
 427              		.loc 1 730 0
 428 0216 B846     		mov	r8, r7
 429 0218 2646     		mov	r6, r4
 430 021a 069F     		ldr	r7, [sp, #24]
 431              	.LVL53:
 432 021c 15E0     		b	.L12
 433              	.LVL54:
 434              	.L107:
 435              	.LBB175:
 436              	.LBB176:
 911:..\..\..\lvgl\version_6.1.2\lvgl\src\lv_objx/lv_calendar.c **** }
 437              		.loc 1 911 0
 438 021e E158     		ldr	r1, [r4, r3]
 439              	.LVL55:
 440              	.LBE176:
 441              	.LBE175:
 730:..\..\..\lvgl\version_6.1.2\lvgl\src\lv_objx/lv_calendar.c ****                       NULL, NULL, NULL, bidi_dir);
 442              		.loc 1 730 0
 443 0220 089A     		ldr	r2, [sp, #32]
 444 0222 0592     		str	r2, [sp, #20]
 445 0224 0423     		movs	r3, #4
 446 0226 0091     		str	r1, [sp]
 447 0228 1C44     		add	r4, r4, r3
 448 022a 0193     		str	r3, [sp, #4]
 449 022c 0496     		str	r6, [sp, #16]
 450 022e 0396     		str	r6, [sp, #12]
 451 0230 0296     		str	r6, [sp, #8]
 452 0232 5A46     		mov	r2, fp
 453 0234 099B     		ldr	r3, [sp, #36]
 454 0236 0799     		ldr	r1, [sp, #28]
 455 0238 1AA8     		add	r0, sp, #104
 456 023a FFF7FEFF 		bl	lv_draw_label
 457              	.LVL56:
 727:..\..\..\lvgl\version_6.1.2\lvgl\src\lv_objx/lv_calendar.c ****         label_area.x1 = calendar->coords.x1 + (w * i) / 7 + l_pad;
 458              		.loc 1 727 0
 459 023e 1C2C     		cmp	r4, #28
 460 0240 4544     		add	r5, r5, r8
 461 0242 27D0     		beq	.L11
 462 0244 0A9B     		ldr	r3, [sp, #40]
 463 0246 D3F824B0 		ldr	fp, [r3, #36]
 464              	.L12:
 728:..\..\..\lvgl\version_6.1.2\lvgl\src\lv_objx/lv_calendar.c ****         label_area.x2 = label_area.x1 + box_w - 1;
 465              		.loc 1 728 0
 466 024a 0F4B     		ldr	r3, .L125+8
 467 024c 398A     		ldrh	r1, [r7, #16]
 468 024e A3FB0523 		umull	r2, r3, r3, r5
 469 0252 E81A     		subs	r0, r5, r3
 470 0254 03EB5000 		add	r0, r3, r0, lsr #1
 471 0258 0AEB0103 		add	r3, r10, r1
 472 025c 03EB9003 		add	r3, r3, r0, lsr #2
 473 0260 9BB2     		uxth	r3, r3
 729:..\..\..\lvgl\version_6.1.2\lvgl\src\lv_objx/lv_calendar.c ****         lv_draw_label(&label_area, mask, ext->style_day_names, opa_scale, get_day_name(calendar, i)
 474              		.loc 1 729 0
 475 0262 03EB0901 		add	r1, r3, r9
ARM GAS  C:\Users\pearlstl\AppData\Local\Temp\ccHPSyCj.s 			page 27


 476              	.LBB179:
 477              	.LBB177:
 907:..\..\..\lvgl\version_6.1.2\lvgl\src\lv_objx/lv_calendar.c ****     if(ext->day_names)
 478              		.loc 1 907 0
 479 0266 3846     		mov	r0, r7
 480              	.LBE177:
 481              	.LBE179:
 728:..\..\..\lvgl\version_6.1.2\lvgl\src\lv_objx/lv_calendar.c ****         label_area.x2 = label_area.x1 + box_w - 1;
 482              		.loc 1 728 0
 483 0268 ADF86830 		strh	r3, [sp, #104]	@ movhi
 729:..\..\..\lvgl\version_6.1.2\lvgl\src\lv_objx/lv_calendar.c ****         lv_draw_label(&label_area, mask, ext->style_day_names, opa_scale, get_day_name(calendar, i)
 484              		.loc 1 729 0
 485 026c ADF86C10 		strh	r1, [sp, #108]	@ movhi
 486              	.LVL57:
 487              	.LBB180:
 488              	.LBB178:
 907:..\..\..\lvgl\version_6.1.2\lvgl\src\lv_objx/lv_calendar.c ****     if(ext->day_names)
 489              		.loc 1 907 0
 490 0270 FFF7FEFF 		bl	lv_obj_get_ext_attr
 491              	.LVL58:
 908:..\..\..\lvgl\version_6.1.2\lvgl\src\lv_objx/lv_calendar.c ****         return ext->day_names[day];
 492              		.loc 1 908 0
 493 0274 4369     		ldr	r3, [r0, #20]
 494 0276 002B     		cmp	r3, #0
 495 0278 D1D1     		bne	.L107
 911:..\..\..\lvgl\version_6.1.2\lvgl\src\lv_objx/lv_calendar.c **** }
 496              		.loc 1 911 0
 497 027a 044B     		ldr	r3, .L125+12
 498 027c CFE7     		b	.L107
 499              	.L126:
 500 027e 00BF     		.align	2
 501              	.L125:
 502 0280 00000000 		.word	.LC0
 503 0284 93244992 		.word	-1840700269
 504 0288 25499224 		.word	613566757
 505 028c 30000000 		.word	.LANCHOR1+48
 506 0290 04000000 		.word	.LC1
 507              	.LVL59:
 508              	.L11:
 509              	.LBE178:
 510              	.LBE180:
 511              	.LBE170:
 512              	.LBE169:
 513              	.LBB181:
 514              	.LBB182:
 742:..\..\..\lvgl\version_6.1.2\lvgl\src\lv_objx/lv_calendar.c ****     lv_bidi_dir_t bidi_dir = lv_obj_get_base_dir(calendar);
 515              		.loc 1 742 0
 516 0294 069C     		ldr	r4, [sp, #24]
 517 0296 2046     		mov	r0, r4
 518 0298 FFF7FEFF 		bl	lv_obj_get_ext_attr
 519              	.LVL60:
 520 029c 8046     		mov	r8, r0
 521              	.LVL61:
 743:..\..\..\lvgl\version_6.1.2\lvgl\src\lv_objx/lv_calendar.c ****     const lv_style_t * style_bg = lv_calendar_get_style(calendar, LV_CALENDAR_STYLE_BG);
 522              		.loc 1 743 0
 523 029e 2046     		mov	r0, r4
 524              	.LVL62:
ARM GAS  C:\Users\pearlstl\AppData\Local\Temp\ccHPSyCj.s 			page 28


 525 02a0 FFF7FEFF 		bl	lv_obj_get_base_dir
 526              	.LVL63:
 527 02a4 0C90     		str	r0, [sp, #48]
 528              	.LVL64:
 529              	.LBB183:
 530              	.LBB184:
 416:..\..\..\lvgl\version_6.1.2\lvgl\src\lv_objx/lv_calendar.c **** 
 531              		.loc 1 416 0
 532 02a6 2046     		mov	r0, r4
 533 02a8 FFF7FEFF 		bl	lv_obj_get_ext_attr
 534              	.LVL65:
 419:..\..\..\lvgl\version_6.1.2\lvgl\src\lv_objx/lv_calendar.c ****         case LV_CALENDAR_STYLE_HEADER: style = ext->style_header; break;
 535              		.loc 1 419 0
 536 02ac 2046     		mov	r0, r4
 537 02ae FFF7FEFF 		bl	lv_obj_get_style
 538              	.LVL66:
 539 02b2 8146     		mov	r9, r0
 540              	.LBE184:
 541              	.LBE183:
 746:..\..\..\lvgl\version_6.1.2\lvgl\src\lv_objx/lv_calendar.c ****     label_area.y1      = calendar->coords.y1 + get_header_height(calendar) + ext->style_day_names->
 542              		.loc 1 746 0
 543 02b4 2046     		mov	r0, r4
 544 02b6 FFF7FEFF 		bl	lv_obj_get_opa_scale
 545              	.LVL67:
 546 02ba 0B90     		str	r0, [sp, #44]
 547              	.LVL68:
 548              	.LBB185:
 549              	.LBB186:
 646:..\..\..\lvgl\version_6.1.2\lvgl\src\lv_objx/lv_calendar.c **** 
 550              		.loc 1 646 0
 551 02bc 2046     		mov	r0, r4
 552 02be A246     		mov	r10, r4
 553              	.LBE186:
 554              	.LBE185:
 747:..\..\..\lvgl\version_6.1.2\lvgl\src\lv_objx/lv_calendar.c ****                     lv_font_get_line_height(ext->style_day_names->text.font) +
 555              		.loc 1 747 0
 556 02c0 0694     		str	r4, [sp, #24]
 557              	.LVL69:
 558 02c2 648A     		ldrh	r4, [r4, #18]
 559              	.LVL70:
 560              	.LBB188:
 561              	.LBB187:
 646:..\..\..\lvgl\version_6.1.2\lvgl\src\lv_objx/lv_calendar.c **** 
 562              		.loc 1 646 0
 563 02c4 FFF7FEFF 		bl	lv_obj_get_ext_attr
 564              	.LVL71:
 648:..\..\..\lvgl\version_6.1.2\lvgl\src\lv_objx/lv_calendar.c ****            ext->style_header->body.padding.bottom;
 565              		.loc 1 648 0
 566 02c8 C369     		ldr	r3, [r0, #28]
 567              	.LVL72:
 568              	.LBE187:
 569              	.LBE188:
 747:..\..\..\lvgl\version_6.1.2\lvgl\src\lv_objx/lv_calendar.c ****                     lv_font_get_line_height(ext->style_day_names->text.font) +
 570              		.loc 1 747 0
 571 02ca D8F82450 		ldr	r5, [r8, #36]
 572              	.LVL73:
 573 02ce 188C     		ldrh	r0, [r3, #32]
ARM GAS  C:\Users\pearlstl\AppData\Local\Temp\ccHPSyCj.s 			page 29


 574 02d0 598C     		ldrh	r1, [r3, #34]
 575 02d2 5E6B     		ldr	r6, [r3, #52]
 576 02d4 2A8C     		ldrh	r2, [r5, #32]
 577 02d6 6B8C     		ldrh	r3, [r5, #34]
 578 02d8 6D6B     		ldr	r5, [r5, #52]
 579              	.LVL74:
 580 02da 377A     		ldrb	r7, [r6, #8]	@ zero_extendqisi2
 581 02dc 2E7A     		ldrb	r6, [r5, #8]	@ zero_extendqisi2
 582 02de D9F83450 		ldr	r5, [r9, #52]
 583              	.LVL75:
 584 02e2 2044     		add	r0, r0, r4
 585 02e4 0844     		add	r0, r0, r1
 586 02e6 0244     		add	r2, r2, r0
 587 02e8 1344     		add	r3, r3, r2
 588 02ea 3B44     		add	r3, r3, r7
 589 02ec 3344     		add	r3, r3, r6
 590 02ee 9BB2     		uxth	r3, r3
 591 02f0 ADF86230 		strh	r3, [sp, #98]	@ movhi
 592              	.LVL76:
 750:..\..\..\lvgl\version_6.1.2\lvgl\src\lv_objx/lv_calendar.c **** 
 593              		.loc 1 750 0
 594 02f4 2A7A     		ldrb	r2, [r5, #8]	@ zero_extendqisi2
 595              	.LBB189:
 596              	.LBB190:
 931:..\..\..\lvgl\version_6.1.2\lvgl\src\lv_objx/lv_calendar.c **** }
 932:..\..\..\lvgl\version_6.1.2\lvgl\src\lv_objx/lv_calendar.c **** 
 933:..\..\..\lvgl\version_6.1.2\lvgl\src\lv_objx/lv_calendar.c **** /**
 934:..\..\..\lvgl\version_6.1.2\lvgl\src\lv_objx/lv_calendar.c ****  * Get the number of days in a month
 935:..\..\..\lvgl\version_6.1.2\lvgl\src\lv_objx/lv_calendar.c ****  * @param year a year
 936:..\..\..\lvgl\version_6.1.2\lvgl\src\lv_objx/lv_calendar.c ****  * @param month a month. The range is basically [1..12] but [-11..1] is also supported to handle
 937:..\..\..\lvgl\version_6.1.2\lvgl\src\lv_objx/lv_calendar.c ****  * previous year
 938:..\..\..\lvgl\version_6.1.2\lvgl\src\lv_objx/lv_calendar.c ****  * @return [28..31]
 939:..\..\..\lvgl\version_6.1.2\lvgl\src\lv_objx/lv_calendar.c ****  */
 940:..\..\..\lvgl\version_6.1.2\lvgl\src\lv_objx/lv_calendar.c **** static uint8_t get_month_length(int32_t year, int32_t month)
 941:..\..\..\lvgl\version_6.1.2\lvgl\src\lv_objx/lv_calendar.c **** {
 942:..\..\..\lvgl\version_6.1.2\lvgl\src\lv_objx/lv_calendar.c ****     month--; /*Range of months id [1..12] but range of indexes is [0..11]*/
 943:..\..\..\lvgl\version_6.1.2\lvgl\src\lv_objx/lv_calendar.c ****     if(month < 0) {
 944:..\..\..\lvgl\version_6.1.2\lvgl\src\lv_objx/lv_calendar.c ****         year--;             /*Already in the previous year (won't be less then -12 to skip a whole 
 945:..\..\..\lvgl\version_6.1.2\lvgl\src\lv_objx/lv_calendar.c ****         month = 12 + month; /*`month` is negative, the result will be < 12*/
 946:..\..\..\lvgl\version_6.1.2\lvgl\src\lv_objx/lv_calendar.c ****     }
 947:..\..\..\lvgl\version_6.1.2\lvgl\src\lv_objx/lv_calendar.c ****     if(month >= 12) {
 948:..\..\..\lvgl\version_6.1.2\lvgl\src\lv_objx/lv_calendar.c ****         year++;
 949:..\..\..\lvgl\version_6.1.2\lvgl\src\lv_objx/lv_calendar.c ****         month -= 12;
 950:..\..\..\lvgl\version_6.1.2\lvgl\src\lv_objx/lv_calendar.c ****     }
 951:..\..\..\lvgl\version_6.1.2\lvgl\src\lv_objx/lv_calendar.c **** 
 952:..\..\..\lvgl\version_6.1.2\lvgl\src\lv_objx/lv_calendar.c ****     /*month == 1 is february*/
 953:..\..\..\lvgl\version_6.1.2\lvgl\src\lv_objx/lv_calendar.c ****     return (month == 1) ? (28 + is_leap_year(year)) : 31 - month % 7 % 2;
 954:..\..\..\lvgl\version_6.1.2\lvgl\src\lv_objx/lv_calendar.c **** }
 955:..\..\..\lvgl\version_6.1.2\lvgl\src\lv_objx/lv_calendar.c **** 
 956:..\..\..\lvgl\version_6.1.2\lvgl\src\lv_objx/lv_calendar.c **** /**
 957:..\..\..\lvgl\version_6.1.2\lvgl\src\lv_objx/lv_calendar.c ****  * Tells whether a year is leap year or not
 958:..\..\..\lvgl\version_6.1.2\lvgl\src\lv_objx/lv_calendar.c ****  * @param year a year
 959:..\..\..\lvgl\version_6.1.2\lvgl\src\lv_objx/lv_calendar.c ****  * @return 0: not leap year; 1: leap year
 960:..\..\..\lvgl\version_6.1.2\lvgl\src\lv_objx/lv_calendar.c ****  */
 961:..\..\..\lvgl\version_6.1.2\lvgl\src\lv_objx/lv_calendar.c **** static uint8_t is_leap_year(uint32_t year)
 962:..\..\..\lvgl\version_6.1.2\lvgl\src\lv_objx/lv_calendar.c **** {
 963:..\..\..\lvgl\version_6.1.2\lvgl\src\lv_objx/lv_calendar.c ****     return (year % 4) || ((year % 100 == 0) && (year % 400)) ? 0 : 1;
ARM GAS  C:\Users\pearlstl\AppData\Local\Temp\ccHPSyCj.s 			page 30


 964:..\..\..\lvgl\version_6.1.2\lvgl\src\lv_objx/lv_calendar.c **** }
 965:..\..\..\lvgl\version_6.1.2\lvgl\src\lv_objx/lv_calendar.c **** 
 966:..\..\..\lvgl\version_6.1.2\lvgl\src\lv_objx/lv_calendar.c **** /**
 967:..\..\..\lvgl\version_6.1.2\lvgl\src\lv_objx/lv_calendar.c ****  * Get the day of the week
 968:..\..\..\lvgl\version_6.1.2\lvgl\src\lv_objx/lv_calendar.c ****  * @param year a year
 969:..\..\..\lvgl\version_6.1.2\lvgl\src\lv_objx/lv_calendar.c ****  * @param month a  month
 970:..\..\..\lvgl\version_6.1.2\lvgl\src\lv_objx/lv_calendar.c ****  * @param day a day
 971:..\..\..\lvgl\version_6.1.2\lvgl\src\lv_objx/lv_calendar.c ****  * @return [0..6] which means [Sun..Sat]
 972:..\..\..\lvgl\version_6.1.2\lvgl\src\lv_objx/lv_calendar.c ****  */
 973:..\..\..\lvgl\version_6.1.2\lvgl\src\lv_objx/lv_calendar.c **** static uint8_t get_day_of_week(uint32_t year, uint32_t month, uint32_t day)
 974:..\..\..\lvgl\version_6.1.2\lvgl\src\lv_objx/lv_calendar.c **** {
 975:..\..\..\lvgl\version_6.1.2\lvgl\src\lv_objx/lv_calendar.c ****     uint32_t a = month < 3 ? 1 : 0;
 976:..\..\..\lvgl\version_6.1.2\lvgl\src\lv_objx/lv_calendar.c ****     uint32_t b = year - a;
 977:..\..\..\lvgl\version_6.1.2\lvgl\src\lv_objx/lv_calendar.c **** 
 978:..\..\..\lvgl\version_6.1.2\lvgl\src\lv_objx/lv_calendar.c ****     uint32_t day_of_week = (day + (31 * (month - 2 + 12 * a) / 12) + b + (b / 4) - (b / 100) + (b /
 597              		.loc 1 978 0
 598 02f6 C24D     		ldr	r5, .L127
 599 02f8 C24E     		ldr	r6, .L127+4
 600              	.LBE190:
 601              	.LBE189:
 750:..\..\..\lvgl\version_6.1.2\lvgl\src\lv_objx/lv_calendar.c **** 
 602              		.loc 1 750 0
 603 02fa 1344     		add	r3, r3, r2
 752:..\..\..\lvgl\version_6.1.2\lvgl\src\lv_objx/lv_calendar.c ****     lv_coord_t h          = calendar->coords.y2 - label_area.y1 - style_bg->body.padding.bottom;
 604              		.loc 1 752 0
 605 02fc 5046     		mov	r0, r10
 750:..\..\..\lvgl\version_6.1.2\lvgl\src\lv_objx/lv_calendar.c **** 
 606              		.loc 1 750 0
 607 02fe ADF86630 		strh	r3, [sp, #102]	@ movhi
 608              	.LVL77:
 752:..\..\..\lvgl\version_6.1.2\lvgl\src\lv_objx/lv_calendar.c ****     lv_coord_t h          = calendar->coords.y2 - label_area.y1 - style_bg->body.padding.bottom;
 609              		.loc 1 752 0
 610 0302 FFF7FEFF 		bl	lv_obj_get_width
 611              	.LVL78:
 759:..\..\..\lvgl\version_6.1.2\lvgl\src\lv_objx/lv_calendar.c ****     day_draw_state_t draw_state; /*true: Not the prev. or next month is drawn*/
 612              		.loc 1 759 0
 613 0306 98F90630 		ldrsb	r3, [r8, #6]
 752:..\..\..\lvgl\version_6.1.2\lvgl\src\lv_objx/lv_calendar.c ****     lv_coord_t h          = calendar->coords.y2 - label_area.y1 - style_bg->body.padding.bottom;
 614              		.loc 1 752 0
 615 030a CDF82090 		str	r9, [sp, #32]
 759:..\..\..\lvgl\version_6.1.2\lvgl\src\lv_objx/lv_calendar.c ****     day_draw_state_t draw_state; /*true: Not the prev. or next month is drawn*/
 616              		.loc 1 759 0
 617 030e 1F46     		mov	r7, r3
 752:..\..\..\lvgl\version_6.1.2\lvgl\src\lv_objx/lv_calendar.c ****     lv_coord_t h          = calendar->coords.y2 - label_area.y1 - style_bg->body.padding.bottom;
 618              		.loc 1 752 0
 619 0310 5446     		mov	r4, r10
 620              	.LBB200:
 621              	.LBB191:
 975:..\..\..\lvgl\version_6.1.2\lvgl\src\lv_objx/lv_calendar.c ****     uint32_t b = year - a;
 622              		.loc 1 975 0
 623 0312 022F     		cmp	r7, #2
 624 0314 D9F83430 		ldr	r3, [r9, #52]
 625              	.LBE191:
 626              	.LBE200:
 752:..\..\..\lvgl\version_6.1.2\lvgl\src\lv_objx/lv_calendar.c ****     lv_coord_t h          = calendar->coords.y2 - label_area.y1 - style_bg->body.padding.bottom;
 627              		.loc 1 752 0
 628 0318 B9F924A0 		ldrsh	r10, [r9, #36]
ARM GAS  C:\Users\pearlstl\AppData\Local\Temp\ccHPSyCj.s 			page 31


 629              	.LVL79:
 630 031c B9F826B0 		ldrh	fp, [r9, #38]
 759:..\..\..\lvgl\version_6.1.2\lvgl\src\lv_objx/lv_calendar.c ****     day_draw_state_t draw_state; /*true: Not the prev. or next month is drawn*/
 631              		.loc 1 759 0
 632 0320 B8F804E0 		ldrh	lr, [r8, #4]
 755:..\..\..\lvgl\version_6.1.2\lvgl\src\lv_objx/lv_calendar.c **** 
 633              		.loc 1 755 0
 634 0324 B4F81690 		ldrh	r9, [r4, #22]
 635 0328 1A7A     		ldrb	r2, [r3, #8]	@ zero_extendqisi2
 636              	.LBB201:
 637              	.LBB192:
 638              		.loc 1 978 0
 639 032a 0997     		str	r7, [sp, #36]
 975:..\..\..\lvgl\version_6.1.2\lvgl\src\lv_objx/lv_calendar.c ****     uint32_t b = year - a;
 640              		.loc 1 975 0
 641 032c 3C46     		mov	r4, r7
 642              	.LVL80:
 643 032e 8CBF     		ite	hi
 644 0330 0024     		movhi	r4, #0
 645 0332 0124     		movls	r4, #1
 646              		.loc 1 978 0
 647 0334 6300     		lsls	r3, r4, #1
 648 0336 2344     		add	r3, r3, r4
 976:..\..\..\lvgl\version_6.1.2\lvgl\src\lv_objx/lv_calendar.c **** 
 649              		.loc 1 976 0
 650 0338 C4EB0E04 		rsb	r4, r4, lr
 651              		.loc 1 978 0
 652 033c 07EB8303 		add	r3, r7, r3, lsl #2
 653 0340 611C     		adds	r1, r4, #1
 654 0342 A5FB0475 		umull	r7, r5, r5, r4
 655 0346 01EB9401 		add	r1, r1, r4, lsr #2
 656 034a C3EB4313 		rsb	r3, r3, r3, lsl #5
 657 034e 01EBD511 		add	r1, r1, r5, lsr #7
 658 0352 3E3B     		subs	r3, r3, #62
 659 0354 A6FB0343 		umull	r4, r3, r6, r3
 660 0358 A1EB5511 		sub	r1, r1, r5, lsr #5
 661 035c DFF8B4C2 		ldr	ip, .L127+20
 662              	.LBE192:
 663              	.LBE201:
 755:..\..\..\lvgl\version_6.1.2\lvgl\src\lv_objx/lv_calendar.c **** 
 664              		.loc 1 755 0
 665 0360 BDF86260 		ldrh	r6, [sp, #98]
 666              	.LBB202:
 667              	.LBB193:
 668              		.loc 1 978 0
 669 0364 01EBD303 		add	r3, r1, r3, lsr #3
 670              	.LBE193:
 671              	.LBE202:
 752:..\..\..\lvgl\version_6.1.2\lvgl\src\lv_objx/lv_calendar.c ****     lv_coord_t h          = calendar->coords.y2 - label_area.y1 - style_bg->body.padding.bottom;
 672              		.loc 1 752 0
 673 0368 CAEB0000 		rsb	r0, r10, r0
 674              	.LBB203:
 675              	.LBB194:
 676              		.loc 1 978 0
 677 036c A3FB0C45 		umull	r4, r5, r3, ip
 678              	.LBE194:
 679              	.LBE203:
ARM GAS  C:\Users\pearlstl\AppData\Local\Temp\ccHPSyCj.s 			page 32


 752:..\..\..\lvgl\version_6.1.2\lvgl\src\lv_objx/lv_calendar.c ****     lv_coord_t h          = calendar->coords.y2 - label_area.y1 - style_bg->body.padding.bottom;
 680              		.loc 1 752 0
 681 0370 CBEB0004 		rsb	r4, fp, r0
 682 0374 27B2     		sxth	r7, r4
 755:..\..\..\lvgl\version_6.1.2\lvgl\src\lv_objx/lv_calendar.c **** 
 683              		.loc 1 755 0
 684 0376 A2EB8204 		sub	r4, r2, r2, lsl #2
 685 037a 089A     		ldr	r2, [sp, #32]
 754:..\..\..\lvgl\version_6.1.2\lvgl\src\lv_objx/lv_calendar.c ****     lv_coord_t vert_space = (h - (6 * lv_font_get_line_height(style_bg->text.font))) / 5;
 686              		.loc 1 754 0
 687 037c A249     		ldr	r1, .L127+8
 755:..\..\..\lvgl\version_6.1.2\lvgl\src\lv_objx/lv_calendar.c **** 
 688              		.loc 1 755 0
 689 037e 528C     		ldrh	r2, [r2, #34]
 752:..\..\..\lvgl\version_6.1.2\lvgl\src\lv_objx/lv_calendar.c ****     lv_coord_t h          = calendar->coords.y2 - label_area.y1 - style_bg->body.padding.bottom;
 690              		.loc 1 752 0
 691 0380 0D97     		str	r7, [sp, #52]
 692              	.LVL81:
 693              	.LBB204:
 694              	.LBB195:
 695              		.loc 1 978 0
 696 0382 581B     		subs	r0, r3, r5
 697 0384 05EB5000 		add	r0, r5, r0, lsr #1
 698              	.LBE195:
 699              	.LBE204:
 755:..\..\..\lvgl\version_6.1.2\lvgl\src\lv_objx/lv_calendar.c **** 
 700              		.loc 1 755 0
 701 0388 C6EB0906 		rsb	r6, r6, r9
 702 038c B61A     		subs	r6, r6, r2
 703              	.LBB205:
 704              	.LBB196:
 705              		.loc 1 978 0
 706 038e 8208     		lsrs	r2, r0, #2
 707              	.LBE196:
 708              	.LBE205:
 754:..\..\..\lvgl\version_6.1.2\lvgl\src\lv_objx/lv_calendar.c ****     lv_coord_t vert_space = (h - (6 * lv_font_get_line_height(style_bg->text.font))) / 5;
 709              		.loc 1 754 0
 710 0390 3D46     		mov	r5, r7
 711              	.LBB206:
 712              	.LBB197:
 713              		.loc 1 978 0
 714 0392 1392     		str	r2, [sp, #76]
 715              	.LBE197:
 716              	.LBE206:
 754:..\..\..\lvgl\version_6.1.2\lvgl\src\lv_objx/lv_calendar.c ****     lv_coord_t vert_space = (h - (6 * lv_font_get_line_height(style_bg->text.font))) / 5;
 717              		.loc 1 754 0
 718 0394 81FB0551 		smull	r5, r1, r1, r5
 719              	.LBB207:
 720              	.LBB198:
 721              		.loc 1 978 0
 722 0398 139A     		ldr	r2, [sp, #76]
 723              	.LBE198:
 724              	.LBE207:
 755:..\..\..\lvgl\version_6.1.2\lvgl\src\lv_objx/lv_calendar.c **** 
 725              		.loc 1 755 0
 726 039a 9C4D     		ldr	r5, .L127+12
 727 039c 6400     		lsls	r4, r4, #1
ARM GAS  C:\Users\pearlstl\AppData\Local\Temp\ccHPSyCj.s 			page 33


 754:..\..\..\lvgl\version_6.1.2\lvgl\src\lv_objx/lv_calendar.c ****     lv_coord_t vert_space = (h - (6 * lv_font_get_line_height(style_bg->text.font))) / 5;
 728              		.loc 1 754 0
 729 039e F817     		asrs	r0, r7, #31
 755:..\..\..\lvgl\version_6.1.2\lvgl\src\lv_objx/lv_calendar.c **** 
 730              		.loc 1 755 0
 731 03a0 04FA86F4 		sxtah	r4, r4, r6
 754:..\..\..\lvgl\version_6.1.2\lvgl\src\lv_objx/lv_calendar.c ****     lv_coord_t vert_space = (h - (6 * lv_font_get_line_height(style_bg->text.font))) / 5;
 732              		.loc 1 754 0
 733 03a4 3944     		add	r1, r1, r7
 734 03a6 C0EBA101 		rsb	r1, r0, r1, asr #2
 735              	.LBB208:
 736              	.LBB199:
 737              		.loc 1 978 0
 738 03aa C2EBC202 		rsb	r2, r2, r2, lsl #3
 739              	.LBE199:
 740              	.LBE208:
 755:..\..\..\lvgl\version_6.1.2\lvgl\src\lv_objx/lv_calendar.c **** 
 741              		.loc 1 755 0
 742 03ae 85FB0405 		smull	r0, r5, r5, r4
 743 03b2 E417     		asrs	r4, r4, #31
 754:..\..\..\lvgl\version_6.1.2\lvgl\src\lv_objx/lv_calendar.c ****     lv_coord_t vert_space = (h - (6 * lv_font_get_line_height(style_bg->text.font))) / 5;
 744              		.loc 1 754 0
 745 03b4 08B2     		sxth	r0, r1
 746              	.LVL82:
 764:..\..\..\lvgl\version_6.1.2\lvgl\src\lv_objx/lv_calendar.c ****         day_cnt    = 1;
 747              		.loc 1 764 0
 748 03b6 9B1A     		subs	r3, r3, r2
 755:..\..\..\lvgl\version_6.1.2\lvgl\src\lv_objx/lv_calendar.c **** 
 749              		.loc 1 755 0
 750 03b8 C4EB6501 		rsb	r1, r4, r5, asr #1
 751 03bc 1591     		str	r1, [sp, #84]
 752              	.LVL83:
 764:..\..\..\lvgl\version_6.1.2\lvgl\src\lv_objx/lv_calendar.c ****         day_cnt    = 1;
 753              		.loc 1 764 0
 754 03be 1393     		str	r3, [sp, #76]
 755 03c0 00F0D780 		beq	.L64
 756              	.LVL84:
 757              	.LBB209:
 758              	.LBB210:
 943:..\..\..\lvgl\version_6.1.2\lvgl\src\lv_objx/lv_calendar.c ****         year--;             /*Already in the previous year (won't be less then -12 to skip a whole 
 759              		.loc 1 943 0
 760 03c4 099B     		ldr	r3, [sp, #36]
 761 03c6 991E     		subs	r1, r3, #2
 762              	.LVL85:
 945:..\..\..\lvgl\version_6.1.2\lvgl\src\lv_objx/lv_calendar.c ****     }
 763              		.loc 1 945 0
 764 03c8 44BF     		itt	mi
 765 03ca 0C31     		addmi	r1, r1, #12
 766              	.LVL86:
 944:..\..\..\lvgl\version_6.1.2\lvgl\src\lv_objx/lv_calendar.c ****         month = 12 + month; /*`month` is negative, the result will be < 12*/
 767              		.loc 1 944 0
 768 03cc 0EF1FF3E 		addmi	lr, lr, #-1
 769              	.LVL87:
 947:..\..\..\lvgl\version_6.1.2\lvgl\src\lv_objx/lv_calendar.c ****         year++;
 770              		.loc 1 947 0
 771 03d0 0B29     		cmp	r1, #11
 949:..\..\..\lvgl\version_6.1.2\lvgl\src\lv_objx/lv_calendar.c ****     }
ARM GAS  C:\Users\pearlstl\AppData\Local\Temp\ccHPSyCj.s 			page 34


 772              		.loc 1 949 0
 773 03d2 C4BF     		itt	gt
 774 03d4 0C39     		subgt	r1, r1, #12
 775              	.LVL88:
 948:..\..\..\lvgl\version_6.1.2\lvgl\src\lv_objx/lv_calendar.c ****         month -= 12;
 776              		.loc 1 948 0
 777 03d6 0EF1010E 		addgt	lr, lr, #1
 778              	.LVL89:
 953:..\..\..\lvgl\version_6.1.2\lvgl\src\lv_objx/lv_calendar.c **** }
 779              		.loc 1 953 0
 780 03da 0129     		cmp	r1, #1
 781 03dc 00F04182 		beq	.L114
 782 03e0 894A     		ldr	r2, .L127+8
 783 03e2 8B4C     		ldr	r4, .L127+16
 784 03e4 81FB0223 		smull	r2, r3, r1, r2
 785 03e8 CA18     		adds	r2, r1, r3
 786 03ea CB17     		asrs	r3, r1, #31
 787 03ec C3EBA203 		rsb	r3, r3, r2, asr #2
 788 03f0 C3EBC303 		rsb	r3, r3, r3, lsl #3
 789 03f4 C91A     		subs	r1, r1, r3
 790              	.LVL90:
 791 03f6 0C40     		ands	r4, r4, r1
 792 03f8 002C     		cmp	r4, #0
 793 03fa C0F24A82 		blt	.L115
 794              	.L19:
 795 03fe C4F11F03 		rsb	r3, r4, #31
 796 0402 DBB2     		uxtb	r3, r3
 797              	.LVL91:
 798              	.L18:
 799              	.LBE210:
 800              	.LBE209:
 771:..\..\..\lvgl\version_6.1.2\lvgl\src\lv_objx/lv_calendar.c ****         act_style = ext->style_inactive_days;
 801              		.loc 1 771 0
 802 0404 139A     		ldr	r2, [sp, #76]
 803 0406 C2F10102 		rsb	r2, r2, #1
 804 040a 1344     		add	r3, r3, r2
 805 040c 5FFA83FB 		uxtb	fp, r3
 806              	.LVL92:
 772:..\..\..\lvgl\version_6.1.2\lvgl\src\lv_objx/lv_calendar.c ****     }
 807              		.loc 1 772 0
 808 0410 D8F82C30 		ldr	r3, [r8, #44]
 809 0414 0F93     		str	r3, [sp, #60]
 810              	.LVL93:
 769:..\..\..\lvgl\version_6.1.2\lvgl\src\lv_objx/lv_calendar.c ****         day_cnt = get_month_length(ext->showed_date.year, ext->showed_date.month - 1); /*Length of 
 811              		.loc 1 769 0
 812 0416 0024     		movs	r4, #0
 813              	.LVL94:
 814              	.L13:
 776:..\..\..\lvgl\version_6.1.2\lvgl\src\lv_objx/lv_calendar.c ****         month_of_today_shown = true;
 815              		.loc 1 776 0
 816 0418 D8F80020 		ldr	r2, [r8]
 817 041c D8F80410 		ldr	r1, [r8, #4]
 818 0420 22F07F42 		bic	r2, r2, #-16777216
 819 0424 21F07F41 		bic	r1, r1, #-16777216
 820 0428 0A92     		str	r2, [sp, #40]
 821              	.LVL95:
 822 042a 0991     		str	r1, [sp, #36]
ARM GAS  C:\Users\pearlstl\AppData\Local\Temp\ccHPSyCj.s 			page 35


 823              	.LVL96:
 824 042c 0A46     		mov	r2, r1
 825              	.LVL97:
 826              	.LBB216:
 787:..\..\..\lvgl\version_6.1.2\lvgl\src\lv_objx/lv_calendar.c ****            ((draw_state == DAY_DRAW_ACT_MONTH && ext->today.day >= day_cnt && ext->today.day < day_
 827              		.loc 1 787 0
 828 042e 0A99     		ldr	r1, [sp, #40]
 829              	.LBE216:
 784:..\..\..\lvgl\version_6.1.2\lvgl\src\lv_objx/lv_calendar.c **** 
 830              		.loc 1 784 0
 831 0430 0023     		movs	r3, #0
 832 0432 0138     		subs	r0, r0, #1
 833              	.LVL98:
 834 0434 1493     		str	r3, [sp, #80]
 835              	.LVL99:
 836              	.LBB257:
 787:..\..\..\lvgl\version_6.1.2\lvgl\src\lv_objx/lv_calendar.c ****            ((draw_state == DAY_DRAW_ACT_MONTH && ext->today.day >= day_cnt && ext->today.day < day_
 837              		.loc 1 787 0
 838 0436 8A42     		cmp	r2, r1
 839 0438 83B2     		uxth	r3, r0
 840 043a 0E93     		str	r3, [sp, #56]
 841              	.LBE257:
 776:..\..\..\lvgl\version_6.1.2\lvgl\src\lv_objx/lv_calendar.c ****         month_of_today_shown = true;
 842              		.loc 1 776 0
 843 043c 5346     		mov	r3, r10
 844              	.LBB258:
 787:..\..\..\lvgl\version_6.1.2\lvgl\src\lv_objx/lv_calendar.c ****            ((draw_state == DAY_DRAW_ACT_MONTH && ext->today.day >= day_cnt && ext->today.day < day_
 845              		.loc 1 787 0
 846 043e 40F07081 		bne	.L70
 847              	.LVL100:
 848              	.L124:
 849 0442 012C     		cmp	r4, #1
 850 0444 00F0AD81 		beq	.L116
 788:..\..\..\lvgl\version_6.1.2\lvgl\src\lv_objx/lv_calendar.c ****             (draw_state == DAY_DRAW_PREV_MONTH && ext->today.day <= 7 - month_start_day && week == 
 851              		.loc 1 788 0
 852 0448 002C     		cmp	r4, #0
 853 044a 40F06A81 		bne	.L70
 789:..\..\..\lvgl\version_6.1.2\lvgl\src\lv_objx/lv_calendar.c ****             lv_area_t week_box_area;
 854              		.loc 1 789 0
 855 044e 139A     		ldr	r2, [sp, #76]
 856 0450 98F90310 		ldrsb	r1, [r8, #3]
 857 0454 C2F10702 		rsb	r2, r2, #7
 858 0458 9142     		cmp	r1, r2
 859 045a 03DC     		bgt	.L72
 860 045c 149A     		ldr	r2, [sp, #80]
 861 045e 002A     		cmp	r2, #0
 862 0460 00F0A781 		beq	.L22
 863              	.L72:
 803:..\..\..\lvgl\version_6.1.2\lvgl\src\lv_objx/lv_calendar.c ****         }
 864              		.loc 1 803 0
 865 0464 1294     		str	r4, [sp, #72]
 866              	.L20:
 867              	.LVL101:
 868 0466 0025     		movs	r5, #0
 808:..\..\..\lvgl\version_6.1.2\lvgl\src\lv_objx/lv_calendar.c ****             /*The previous month is over*/
 869              		.loc 1 808 0
 870 0468 AA46     		mov	r10, r5
ARM GAS  C:\Users\pearlstl\AppData\Local\Temp\ccHPSyCj.s 			page 36


 871              	.LVL102:
 872              	.LBB217:
 810:..\..\..\lvgl\version_6.1.2\lvgl\src\lv_objx/lv_calendar.c ****                 draw_state = DAY_DRAW_ACT_MONTH;
 873              		.loc 1 810 0
 874 046a 002C     		cmp	r4, #0
 875 046c 78D1     		bne	.L23
 876              	.LVL103:
 877              	.L118:
 878 046e 139A     		ldr	r2, [sp, #76]
 879 0470 5245     		cmp	r2, r10
 880 0472 00F0D180 		beq	.L73
 881 0476 0BF10102 		add	r2, fp, #1
 882 047a 5E46     		mov	r6, fp
 883 047c 5FFA82FB 		uxtb	fp, r2
 884              	.LVL104:
 885              	.L25:
 823:..\..\..\lvgl\version_6.1.2\lvgl\src\lv_objx/lv_calendar.c ****                 calendar->coords.x1 + (w * day) / 7 + style_bg->body.padding.left;
 886              		.loc 1 823 0
 887 0480 644A     		ldr	r2, .L127+20
 888 0482 A2FB0521 		umull	r2, r1, r2, r5
 889 0486 069A     		ldr	r2, [sp, #24]
 890 0488 128A     		ldrh	r2, [r2, #16]
 891 048a 681A     		subs	r0, r5, r1
 892 048c 1344     		add	r3, r3, r2
 893 048e 01EB5001 		add	r1, r1, r0, lsr #1
 894 0492 03EB9103 		add	r3, r3, r1, lsr #2
 825:..\..\..\lvgl\version_6.1.2\lvgl\src\lv_objx/lv_calendar.c **** 
 895              		.loc 1 825 0
 896 0496 0E9A     		ldr	r2, [sp, #56]
 823:..\..\..\lvgl\version_6.1.2\lvgl\src\lv_objx/lv_calendar.c ****                 calendar->coords.x1 + (w * day) / 7 + style_bg->body.padding.left;
 897              		.loc 1 823 0
 898 0498 9BB2     		uxth	r3, r3
 825:..\..\..\lvgl\version_6.1.2\lvgl\src\lv_objx/lv_calendar.c **** 
 899              		.loc 1 825 0
 900 049a 9F18     		adds	r7, r3, r2
 901 049c 3FB2     		sxth	r7, r7
 823:..\..\..\lvgl\version_6.1.2\lvgl\src\lv_objx/lv_calendar.c ****                 calendar->coords.x1 + (w * day) / 7 + style_bg->body.padding.left;
 902              		.loc 1 823 0
 903 049e 1BB2     		sxth	r3, r3
 828:..\..\..\lvgl\version_6.1.2\lvgl\src\lv_objx/lv_calendar.c ****                 lv_area_t today_box_area;
 904              		.loc 1 828 0
 905 04a0 012C     		cmp	r4, #1
 825:..\..\..\lvgl\version_6.1.2\lvgl\src\lv_objx/lv_calendar.c **** 
 906              		.loc 1 825 0
 907 04a2 ADF86470 		strh	r7, [sp, #100]	@ movhi
 823:..\..\..\lvgl\version_6.1.2\lvgl\src\lv_objx/lv_calendar.c ****                 calendar->coords.x1 + (w * day) / 7 + style_bg->body.padding.left;
 908              		.loc 1 823 0
 909 04a6 ADF86030 		strh	r3, [sp, #96]	@ movhi
 828:..\..\..\lvgl\version_6.1.2\lvgl\src\lv_objx/lv_calendar.c ****                 lv_area_t today_box_area;
 910              		.loc 1 828 0
 911 04aa 78D0     		beq	.L117
 841:..\..\..\lvgl\version_6.1.2\lvgl\src\lv_objx/lv_calendar.c ****                is_highlighted(calendar, ext->showed_date.year - (ext->showed_date.month == 1 ? 1 : 
 912              		.loc 1 841 0
 913 04ac 002C     		cmp	r4, #0
 914 04ae 40F0E380 		bne	.L36
 842:..\..\..\lvgl\version_6.1.2\lvgl\src\lv_objx/lv_calendar.c ****                               ext->showed_date.month == 1 ? 12 : ext->showed_date.month - 1, day_cn
 915              		.loc 1 842 0
ARM GAS  C:\Users\pearlstl\AppData\Local\Temp\ccHPSyCj.s 			page 37


 916 04b2 98F90670 		ldrsb	r7, [r8, #6]
 917              	.LBB218:
 918              	.LBB219:
 883:..\..\..\lvgl\version_6.1.2\lvgl\src\lv_objx/lv_calendar.c **** 
 919              		.loc 1 883 0
 920 04b6 0698     		ldr	r0, [sp, #24]
 921              	.LBE219:
 922              	.LBE218:
 842:..\..\..\lvgl\version_6.1.2\lvgl\src\lv_objx/lv_calendar.c ****                               ext->showed_date.month == 1 ? 12 : ext->showed_date.month - 1, day_cn
 923              		.loc 1 842 0
 924 04b8 B8F80490 		ldrh	r9, [r8, #4]
 925              	.LVL105:
 926 04bc 012F     		cmp	r7, #1
 927 04be 14BF     		ite	ne
 928 04c0 07F1FF33 		addne	r3, r7, #-1
 929 04c4 0C23     		moveq	r3, #12
 930 04c6 1093     		str	r3, [sp, #64]
 931              	.LVL106:
 932              	.LBB221:
 933              	.LBB220:
 883:..\..\..\lvgl\version_6.1.2\lvgl\src\lv_objx/lv_calendar.c **** 
 934              		.loc 1 883 0
 935 04c8 FFF7FEFF 		bl	lv_obj_get_ext_attr
 936              	.LVL107:
 885:..\..\..\lvgl\version_6.1.2\lvgl\src\lv_objx/lv_calendar.c **** 
 937              		.loc 1 885 0
 938 04cc D0F808E0 		ldr	lr, [r0, #8]
 939 04d0 BEF1000F 		cmp	lr, #0
 940 04d4 53D0     		beq	.L38
 941 04d6 B0F80EC0 		ldrh	ip, [r0, #14]
 942              	.LVL108:
 888:..\..\..\lvgl\version_6.1.2\lvgl\src\lv_objx/lv_calendar.c ****         if(ext->highlighted_dates[i].year == year && ext->highlighted_dates[i].month == month &&
 943              		.loc 1 888 0
 944 04da BCF1000F 		cmp	ip, #0
 945 04de 4ED0     		beq	.L38
 946 04e0 1194     		str	r4, [sp, #68]
 947 04e2 7246     		mov	r2, lr
 948 04e4 0023     		movs	r3, #0
 949 04e6 109C     		ldr	r4, [sp, #64]
 950              	.LVL109:
 951 04e8 03E0     		b	.L41
 952              	.LVL110:
 953              	.L39:
 954 04ea 6345     		cmp	r3, ip
 955 04ec 02F10402 		add	r2, r2, #4
 956 04f0 44D0     		beq	.L108
 957              	.LVL111:
 958              	.L41:
 889:..\..\..\lvgl\version_6.1.2\lvgl\src\lv_objx/lv_calendar.c ****            ext->highlighted_dates[i].day == day) {
 959              		.loc 1 889 0
 960 04f2 3EF82310 		ldrh	r1, [lr, r3, lsl #2]
 961 04f6 012F     		cmp	r7, #1
 962 04f8 14BF     		ite	ne
 963 04fa 4846     		movne	r0, r9
 964 04fc A9F10100 		subeq	r0, r9, #1
 965 0500 8842     		cmp	r0, r1
 888:..\..\..\lvgl\version_6.1.2\lvgl\src\lv_objx/lv_calendar.c ****         if(ext->highlighted_dates[i].year == year && ext->highlighted_dates[i].month == month &&
ARM GAS  C:\Users\pearlstl\AppData\Local\Temp\ccHPSyCj.s 			page 38


 966              		.loc 1 888 0
 967 0502 03F10103 		add	r3, r3, #1
 968              	.LVL112:
 889:..\..\..\lvgl\version_6.1.2\lvgl\src\lv_objx/lv_calendar.c ****            ext->highlighted_dates[i].day == day) {
 969              		.loc 1 889 0
 970 0506 F0D1     		bne	.L39
 971 0508 92F90210 		ldrsb	r1, [r2, #2]
 972 050c 8C42     		cmp	r4, r1
 973 050e ECD1     		bne	.L39
 974 0510 92F90310 		ldrsb	r1, [r2, #3]
 975 0514 B142     		cmp	r1, r6
 976 0516 E8D1     		bne	.L39
 977              	.LVL113:
 978              	.L50:
 979 0518 119C     		ldr	r4, [sp, #68]
 980              	.L109:
 981              	.LBE220:
 982              	.LBE221:
 851:..\..\..\lvgl\version_6.1.2\lvgl\src\lv_objx/lv_calendar.c ****             } else if(month_of_today_shown && day_cnt == ext->today.day && draw_state == DAY_DRAW_A
 983              		.loc 1 851 0
 984 051a D8F82870 		ldr	r7, [r8, #40]
 985              	.LVL114:
 986              	.L52:
 860:..\..\..\lvgl\version_6.1.2\lvgl\src\lv_objx/lv_calendar.c ****             lv_draw_label(&label_area, mask, final_style, opa_scale, buf, LV_TXT_FLAG_CENTER, NULL,
 987              		.loc 1 860 0
 988 051e 3046     		mov	r0, r6
 989 0520 17A9     		add	r1, sp, #92
 990 0522 FFF7FEFF 		bl	lv_utils_num_to_str
 991              	.LVL115:
 861:..\..\..\lvgl\version_6.1.2\lvgl\src\lv_objx/lv_calendar.c **** 
 992              		.loc 1 861 0
 993 0526 0C9A     		ldr	r2, [sp, #48]
 994 0528 0592     		str	r2, [sp, #20]
 995 052a 0022     		movs	r2, #0
 996 052c 0423     		movs	r3, #4
 997 052e 0492     		str	r2, [sp, #16]
 998 0530 0392     		str	r2, [sp, #12]
 999 0532 0292     		str	r2, [sp, #8]
 1000 0534 17AA     		add	r2, sp, #92
 1001 0536 0092     		str	r2, [sp]
 1002 0538 0193     		str	r3, [sp, #4]
 1003 053a 0D9E     		ldr	r6, [sp, #52]
 1004 053c 0B9B     		ldr	r3, [sp, #44]
 1005 053e 0799     		ldr	r1, [sp, #28]
 1006              	.LBE217:
 808:..\..\..\lvgl\version_6.1.2\lvgl\src\lv_objx/lv_calendar.c ****             /*The previous month is over*/
 1007              		.loc 1 808 0
 1008 0540 0AF1010A 		add	r10, r10, #1
 1009              	.LVL116:
 1010              	.LBB249:
 861:..\..\..\lvgl\version_6.1.2\lvgl\src\lv_objx/lv_calendar.c **** 
 1011              		.loc 1 861 0
 1012 0544 3A46     		mov	r2, r7
 1013 0546 18A8     		add	r0, sp, #96
 1014 0548 FFF7FEFF 		bl	lv_draw_label
 1015              	.LVL117:
 1016              	.LBE249:
ARM GAS  C:\Users\pearlstl\AppData\Local\Temp\ccHPSyCj.s 			page 39


 808:..\..\..\lvgl\version_6.1.2\lvgl\src\lv_objx/lv_calendar.c ****             /*The previous month is over*/
 1017              		.loc 1 808 0
 1018 054c BAF1070F 		cmp	r10, #7
 1019 0550 3544     		add	r5, r5, r6
 1020 0552 00F0C980 		beq	.L53
 1021 0556 089B     		ldr	r3, [sp, #32]
 1022 0558 B3F92430 		ldrsh	r3, [r3, #36]
 1023              	.LVL118:
 1024              	.LBB250:
 810:..\..\..\lvgl\version_6.1.2\lvgl\src\lv_objx/lv_calendar.c ****                 draw_state = DAY_DRAW_ACT_MONTH;
 1025              		.loc 1 810 0
 1026 055c 002C     		cmp	r4, #0
 1027 055e 86D0     		beq	.L118
 1028              	.LVL119:
 1029              	.L23:
 816:..\..\..\lvgl\version_6.1.2\lvgl\src\lv_objx/lv_calendar.c ****                day_cnt > get_month_length(ext->showed_date.year, ext->showed_date.month)) {
 1030              		.loc 1 816 0
 1031 0560 012C     		cmp	r4, #1
 1032 0562 5DD0     		beq	.L24
 1033              	.LVL120:
 1034 0564 0BF10102 		add	r2, fp, #1
 1035 0568 5E46     		mov	r6, fp
 1036 056a 0224     		movs	r4, #2
 1037 056c 5FFA82FB 		uxtb	fp, r2
 1038              	.LVL121:
 1039 0570 86E7     		b	.L25
 1040              	.LVL122:
 1041              	.L64:
 1042              	.LBE250:
 1043              	.LBE258:
 766:..\..\..\lvgl\version_6.1.2\lvgl\src\lv_objx/lv_calendar.c ****         act_style  = style_bg;
 1044              		.loc 1 766 0
 1045 0572 0124     		movs	r4, #1
 764:..\..\..\lvgl\version_6.1.2\lvgl\src\lv_objx/lv_calendar.c ****         day_cnt    = 1;
 1046              		.loc 1 764 0
 1047 0574 089B     		ldr	r3, [sp, #32]
 1048 0576 0F93     		str	r3, [sp, #60]
 765:..\..\..\lvgl\version_6.1.2\lvgl\src\lv_objx/lv_calendar.c ****         draw_state = DAY_DRAW_ACT_MONTH;
 1049              		.loc 1 765 0
 1050 0578 A346     		mov	fp, r4
 1051 057a 4DE7     		b	.L13
 1052              	.LVL123:
 1053              	.L108:
 1054 057c 119C     		ldr	r4, [sp, #68]
 1055              	.L38:
 1056              	.LBB259:
 1057              	.LBB251:
 852:..\..\..\lvgl\version_6.1.2\lvgl\src\lv_objx/lv_calendar.c ****                 final_style = ext->style_today_box;
 1058              		.loc 1 852 0
 1059 057e 099B     		ldr	r3, [sp, #36]
 1060 0580 0A9A     		ldr	r2, [sp, #40]
 1061 0582 9342     		cmp	r3, r2
 1062 0584 04D1     		bne	.L44
 1063              	.L43:
 1064 0586 98F90330 		ldrsb	r3, [r8, #3]
 1065 058a B342     		cmp	r3, r6
 1066 058c 00F0E180 		beq	.L119
ARM GAS  C:\Users\pearlstl\AppData\Local\Temp\ccHPSyCj.s 			page 40


 1067              	.L44:
 854:..\..\..\lvgl\version_6.1.2\lvgl\src\lv_objx/lv_calendar.c ****                 final_style = ext->style_week_box;
 1068              		.loc 1 854 0
 1069 0590 129B     		ldr	r3, [sp, #72]
 1070 0592 13B1     		cbz	r3, .L81
 1071 0594 012C     		cmp	r4, #1
 1072 0596 00F0E280 		beq	.L120
 1073              	.L81:
 1074 059a 0F9F     		ldr	r7, [sp, #60]
 1075 059c BFE7     		b	.L52
 1076              	.LVL124:
 1077              	.L117:
 828:..\..\..\lvgl\version_6.1.2\lvgl\src\lv_objx/lv_calendar.c ****                 lv_area_t today_box_area;
 1078              		.loc 1 828 0
 1079 059e 099A     		ldr	r2, [sp, #36]
 1080 05a0 0A99     		ldr	r1, [sp, #40]
 1081 05a2 8A42     		cmp	r2, r1
 1082 05a4 40F0C080 		bne	.L34
 1083 05a8 98F90320 		ldrsb	r2, [r8, #3]
 1084 05ac B242     		cmp	r2, r6
 1085 05ae 00F02F81 		beq	.L121
 1086              	.L35:
 1087              	.LBB222:
 1088              	.LBB223:
 883:..\..\..\lvgl\version_6.1.2\lvgl\src\lv_objx/lv_calendar.c **** 
 1089              		.loc 1 883 0
 1090 05b2 0698     		ldr	r0, [sp, #24]
 1091              	.LBE223:
 1092              	.LBE222:
 846:..\..\..\lvgl\version_6.1.2\lvgl\src\lv_objx/lv_calendar.c ****                 final_style = ext->style_highlighted_days;
 1093              		.loc 1 846 0
 1094 05b4 B8F80470 		ldrh	r7, [r8, #4]
 1095 05b8 98F90690 		ldrsb	r9, [r8, #6]
 1096              	.LVL125:
 1097              	.LBB227:
 1098              	.LBB224:
 883:..\..\..\lvgl\version_6.1.2\lvgl\src\lv_objx/lv_calendar.c **** 
 1099              		.loc 1 883 0
 1100 05bc FFF7FEFF 		bl	lv_obj_get_ext_attr
 1101              	.LVL126:
 1102 05c0 0346     		mov	r3, r0
 1103              	.LVL127:
 885:..\..\..\lvgl\version_6.1.2\lvgl\src\lv_objx/lv_calendar.c **** 
 1104              		.loc 1 885 0
 1105 05c2 8068     		ldr	r0, [r0, #8]
 1106              	.LVL128:
 1107 05c4 0028     		cmp	r0, #0
 1108 05c6 DED0     		beq	.L43
 1109              	.LVL129:
 1110              	.L60:
 1111 05c8 B3F80EE0 		ldrh	lr, [r3, #14]
 1112              	.LVL130:
 888:..\..\..\lvgl\version_6.1.2\lvgl\src\lv_objx/lv_calendar.c ****         if(ext->highlighted_dates[i].year == year && ext->highlighted_dates[i].month == month &&
 1113              		.loc 1 888 0
 1114 05cc BEF1000F 		cmp	lr, #0
 1115 05d0 D5D0     		beq	.L38
 1116 05d2 0246     		mov	r2, r0
ARM GAS  C:\Users\pearlstl\AppData\Local\Temp\ccHPSyCj.s 			page 41


 1117 05d4 0023     		movs	r3, #0
 1118              	.LVL131:
 1119 05d6 03E0     		b	.L47
 1120              	.LVL132:
 1121              	.L45:
 1122 05d8 7345     		cmp	r3, lr
 1123 05da 02F10402 		add	r2, r2, #4
 1124 05de CED0     		beq	.L38
 1125              	.LVL133:
 1126              	.L47:
 889:..\..\..\lvgl\version_6.1.2\lvgl\src\lv_objx/lv_calendar.c ****            ext->highlighted_dates[i].day == day) {
 1127              		.loc 1 889 0
 1128 05e0 30F82310 		ldrh	r1, [r0, r3, lsl #2]
 1129 05e4 B942     		cmp	r1, r7
 888:..\..\..\lvgl\version_6.1.2\lvgl\src\lv_objx/lv_calendar.c ****         if(ext->highlighted_dates[i].year == year && ext->highlighted_dates[i].month == month &&
 1130              		.loc 1 888 0
 1131 05e6 03F10103 		add	r3, r3, #1
 1132              	.LVL134:
 889:..\..\..\lvgl\version_6.1.2\lvgl\src\lv_objx/lv_calendar.c ****            ext->highlighted_dates[i].day == day) {
 1133              		.loc 1 889 0
 1134 05ea F5D1     		bne	.L45
 1135 05ec 92F90210 		ldrsb	r1, [r2, #2]
 1136 05f0 4945     		cmp	r1, r9
 1137 05f2 F1D1     		bne	.L45
 1138 05f4 92F90310 		ldrsb	r1, [r2, #3]
 1139 05f8 B142     		cmp	r1, r6
 1140 05fa EDD1     		bne	.L45
 1141 05fc 8DE7     		b	.L109
 1142              	.L128:
 1143 05fe 00BF     		.align	2
 1144              	.L127:
 1145 0600 1F85EB51 		.word	1374389535
 1146 0604 ABAAAAAA 		.word	-1431655765
 1147 0608 93244992 		.word	-1840700269
 1148 060c 67666666 		.word	1717986919
 1149 0610 01000080 		.word	-2147483647
 1150 0614 25499224 		.word	613566757
 1151              	.LVL135:
 1152              	.L73:
 1153              	.LBE224:
 1154              	.LBE227:
 810:..\..\..\lvgl\version_6.1.2\lvgl\src\lv_objx/lv_calendar.c ****                 draw_state = DAY_DRAW_ACT_MONTH;
 1155              		.loc 1 810 0
 1156 0618 089A     		ldr	r2, [sp, #32]
 1157 061a 0F92     		str	r2, [sp, #60]
 1158              	.LVL136:
 812:..\..\..\lvgl\version_6.1.2\lvgl\src\lv_objx/lv_calendar.c ****                 act_style  = style_bg;
 1159              		.loc 1 812 0
 1160 061c 4FF0010B 		mov	fp, #1
 1161              	.LVL137:
 1162              	.L24:
 817:..\..\..\lvgl\version_6.1.2\lvgl\src\lv_objx/lv_calendar.c ****                 draw_state = DAY_DRAW_NEXT_MONTH;
 1163              		.loc 1 817 0
 1164 0620 98F90620 		ldrsb	r2, [r8, #6]
 1165 0624 B8F80410 		ldrh	r1, [r8, #4]
 1166              	.LVL138:
 1167              	.LBB228:
ARM GAS  C:\Users\pearlstl\AppData\Local\Temp\ccHPSyCj.s 			page 42


 1168              	.LBB229:
 943:..\..\..\lvgl\version_6.1.2\lvgl\src\lv_objx/lv_calendar.c ****         year--;             /*Already in the previous year (won't be less then -12 to skip a whole 
 1169              		.loc 1 943 0
 1170 0628 541E     		subs	r4, r2, #1
 1171              	.LVL139:
 945:..\..\..\lvgl\version_6.1.2\lvgl\src\lv_objx/lv_calendar.c ****     }
 1172              		.loc 1 945 0
 1173 062a 44BF     		itt	mi
 1174 062c 02F10B04 		addmi	r4, r2, #11
 1175              	.LVL140:
 944:..\..\..\lvgl\version_6.1.2\lvgl\src\lv_objx/lv_calendar.c ****         month = 12 + month; /*`month` is negative, the result will be < 12*/
 1176              		.loc 1 944 0
 1177 0630 01F1FF31 		addmi	r1, r1, #-1
 1178              	.LVL141:
 947:..\..\..\lvgl\version_6.1.2\lvgl\src\lv_objx/lv_calendar.c ****         year++;
 1179              		.loc 1 947 0
 1180 0634 0B2C     		cmp	r4, #11
 949:..\..\..\lvgl\version_6.1.2\lvgl\src\lv_objx/lv_calendar.c ****     }
 1181              		.loc 1 949 0
 1182 0636 C4BF     		itt	gt
 1183 0638 0C3C     		subgt	r4, r4, #12
 1184              	.LVL142:
 948:..\..\..\lvgl\version_6.1.2\lvgl\src\lv_objx/lv_calendar.c ****         month -= 12;
 1185              		.loc 1 948 0
 1186 063a 0131     		addgt	r1, r1, #1
 1187              	.LVL143:
 953:..\..\..\lvgl\version_6.1.2\lvgl\src\lv_objx/lv_calendar.c **** }
 1188              		.loc 1 953 0
 1189 063c 012C     		cmp	r4, #1
 1190 063e 00F09180 		beq	.L122
 1191 0642 974A     		ldr	r2, .L129
 1192              	.LVL144:
 1193 0644 84FB0201 		smull	r0, r1, r4, r2
 1194 0648 2144     		add	r1, r1, r4
 1195              	.LVL145:
 1196 064a E217     		asrs	r2, r4, #31
 1197              	.LVL146:
 1198 064c C2EBA102 		rsb	r2, r2, r1, asr #2
 1199 0650 C2EBC202 		rsb	r2, r2, r2, lsl #3
 1200 0654 9349     		ldr	r1, .L129+4
 1201 0656 A21A     		subs	r2, r4, r2
 1202 0658 1140     		ands	r1, r1, r2
 1203 065a 0029     		cmp	r1, #0
 1204 065c C0F29A80 		blt	.L123
 1205              	.L31:
 1206 0660 C1F11F01 		rsb	r1, r1, #31
 1207 0664 C9B2     		uxtb	r1, r1
 1208              	.LVL147:
 1209              	.L30:
 1210              	.LBE229:
 1211              	.LBE228:
 816:..\..\..\lvgl\version_6.1.2\lvgl\src\lv_objx/lv_calendar.c ****                day_cnt > get_month_length(ext->showed_date.year, ext->showed_date.month)) {
 1212              		.loc 1 816 0
 1213 0666 5945     		cmp	r1, fp
 1214 0668 6BD3     		bcc	.L32
 1215 066a 0BF10102 		add	r2, fp, #1
 1216 066e 5E46     		mov	r6, fp
ARM GAS  C:\Users\pearlstl\AppData\Local\Temp\ccHPSyCj.s 			page 43


 1217 0670 0124     		movs	r4, #1
 1218 0672 5FFA82FB 		uxtb	fp, r2
 1219              	.LVL148:
 1220 0676 03E7     		b	.L25
 1221              	.LVL149:
 1222              	.L36:
 848:..\..\..\lvgl\version_6.1.2\lvgl\src\lv_objx/lv_calendar.c ****                       is_highlighted(calendar, ext->showed_date.year + (ext->showed_date.month == 1
 1223              		.loc 1 848 0
 1224 0678 022C     		cmp	r4, #2
 1225 067a 80D1     		bne	.L38
 849:..\..\..\lvgl\version_6.1.2\lvgl\src\lv_objx/lv_calendar.c ****                                      ext->showed_date.month == 12 ? 1 : ext->showed_date.month + 1,
 1226              		.loc 1 849 0
 1227 067c 98F90670 		ldrsb	r7, [r8, #6]
 1228 0680 B8F80490 		ldrh	r9, [r8, #4]
 1229 0684 0C2F     		cmp	r7, #12
 1230 0686 00F08280 		beq	.L78
 1231 068a 7B1C     		adds	r3, r7, #1
 1232 068c 1093     		str	r3, [sp, #64]
 1233              	.L48:
 1234              	.LVL150:
 1235              	.LBB239:
 1236              	.LBB240:
 883:..\..\..\lvgl\version_6.1.2\lvgl\src\lv_objx/lv_calendar.c **** 
 1237              		.loc 1 883 0
 1238 068e 0698     		ldr	r0, [sp, #24]
 1239 0690 FFF7FEFF 		bl	lv_obj_get_ext_attr
 1240              	.LVL151:
 885:..\..\..\lvgl\version_6.1.2\lvgl\src\lv_objx/lv_calendar.c **** 
 1241              		.loc 1 885 0
 1242 0694 D0F808E0 		ldr	lr, [r0, #8]
 1243 0698 BEF1000F 		cmp	lr, #0
 1244 069c 3FF46FAF 		beq	.L38
 1245 06a0 B0F80EC0 		ldrh	ip, [r0, #14]
 1246              	.LVL152:
 888:..\..\..\lvgl\version_6.1.2\lvgl\src\lv_objx/lv_calendar.c ****         if(ext->highlighted_dates[i].year == year && ext->highlighted_dates[i].month == month &&
 1247              		.loc 1 888 0
 1248 06a4 BCF1000F 		cmp	ip, #0
 1249 06a8 3FF469AF 		beq	.L38
 1250 06ac 1194     		str	r4, [sp, #68]
 1251 06ae 7246     		mov	r2, lr
 1252 06b0 0023     		movs	r3, #0
 1253 06b2 109C     		ldr	r4, [sp, #64]
 1254              	.LVL153:
 1255 06b4 04E0     		b	.L51
 1256              	.LVL154:
 1257              	.L49:
 1258 06b6 6345     		cmp	r3, ip
 1259 06b8 02F10402 		add	r2, r2, #4
 1260 06bc 3FF45EAF 		beq	.L108
 1261              	.LVL155:
 1262              	.L51:
 889:..\..\..\lvgl\version_6.1.2\lvgl\src\lv_objx/lv_calendar.c ****            ext->highlighted_dates[i].day == day) {
 1263              		.loc 1 889 0
 1264 06c0 3EF82310 		ldrh	r1, [lr, r3, lsl #2]
 1265 06c4 0C2F     		cmp	r7, #12
 1266 06c6 14BF     		ite	ne
 1267 06c8 4846     		movne	r0, r9
ARM GAS  C:\Users\pearlstl\AppData\Local\Temp\ccHPSyCj.s 			page 44


 1268 06ca 09F10100 		addeq	r0, r9, #1
 1269 06ce 8842     		cmp	r0, r1
 888:..\..\..\lvgl\version_6.1.2\lvgl\src\lv_objx/lv_calendar.c ****         if(ext->highlighted_dates[i].year == year && ext->highlighted_dates[i].month == month &&
 1270              		.loc 1 888 0
 1271 06d0 03F10103 		add	r3, r3, #1
 1272              	.LVL156:
 889:..\..\..\lvgl\version_6.1.2\lvgl\src\lv_objx/lv_calendar.c ****            ext->highlighted_dates[i].day == day) {
 1273              		.loc 1 889 0
 1274 06d4 EFD1     		bne	.L49
 1275 06d6 92F90210 		ldrsb	r1, [r2, #2]
 1276 06da A142     		cmp	r1, r4
 1277 06dc EBD1     		bne	.L49
 1278 06de 92F90310 		ldrsb	r1, [r2, #3]
 1279 06e2 B142     		cmp	r1, r6
 1280 06e4 E7D1     		bne	.L49
 1281 06e6 17E7     		b	.L50
 1282              	.LVL157:
 1283              	.L53:
 1284 06e8 089D     		ldr	r5, [sp, #32]
 1285              	.LBE240:
 1286              	.LBE239:
 1287              	.LBE251:
 868:..\..\..\lvgl\version_6.1.2\lvgl\src\lv_objx/lv_calendar.c ****         label_area.y2 += vert_space + lv_font_get_line_height(style_bg->text.font);
 1288              		.loc 1 868 0
 1289 06ea 1598     		ldr	r0, [sp, #84]
 1290 06ec 6B6B     		ldr	r3, [r5, #52]
 1291 06ee BDF86210 		ldrh	r1, [sp, #98]
 1292 06f2 1B7A     		ldrb	r3, [r3, #8]	@ zero_extendqisi2
 869:..\..\..\lvgl\version_6.1.2\lvgl\src\lv_objx/lv_calendar.c ****     }
 1293              		.loc 1 869 0
 1294 06f4 BDF86620 		ldrh	r2, [sp, #102]
 868:..\..\..\lvgl\version_6.1.2\lvgl\src\lv_objx/lv_calendar.c ****         label_area.y2 += vert_space + lv_font_get_line_height(style_bg->text.font);
 1295              		.loc 1 868 0
 1296 06f8 0344     		add	r3, r3, r0
 1297              	.LBE259:
 784:..\..\..\lvgl\version_6.1.2\lvgl\src\lv_objx/lv_calendar.c **** 
 1298              		.loc 1 784 0
 1299 06fa 1498     		ldr	r0, [sp, #80]
 1300              	.LBB260:
 868:..\..\..\lvgl\version_6.1.2\lvgl\src\lv_objx/lv_calendar.c ****         label_area.y2 += vert_space + lv_font_get_line_height(style_bg->text.font);
 1301              		.loc 1 868 0
 1302 06fc 9BB2     		uxth	r3, r3
 1303              	.LBE260:
 784:..\..\..\lvgl\version_6.1.2\lvgl\src\lv_objx/lv_calendar.c **** 
 1304              		.loc 1 784 0
 1305 06fe 0130     		adds	r0, r0, #1
 1306              	.LBB261:
 868:..\..\..\lvgl\version_6.1.2\lvgl\src\lv_objx/lv_calendar.c ****         label_area.y2 += vert_space + lv_font_get_line_height(style_bg->text.font);
 1307              		.loc 1 868 0
 1308 0700 1944     		add	r1, r1, r3
 1309              	.LBE261:
 784:..\..\..\lvgl\version_6.1.2\lvgl\src\lv_objx/lv_calendar.c **** 
 1310              		.loc 1 784 0
 1311 0702 0628     		cmp	r0, #6
 1312              	.LBB262:
 869:..\..\..\lvgl\version_6.1.2\lvgl\src\lv_objx/lv_calendar.c ****     }
 1313              		.loc 1 869 0
ARM GAS  C:\Users\pearlstl\AppData\Local\Temp\ccHPSyCj.s 			page 45


 1314 0704 1344     		add	r3, r3, r2
 1315              	.LBE262:
 784:..\..\..\lvgl\version_6.1.2\lvgl\src\lv_objx/lv_calendar.c **** 
 1316              		.loc 1 784 0
 1317 0706 1490     		str	r0, [sp, #80]
 1318              	.LBB263:
 868:..\..\..\lvgl\version_6.1.2\lvgl\src\lv_objx/lv_calendar.c ****         label_area.y2 += vert_space + lv_font_get_line_height(style_bg->text.font);
 1319              		.loc 1 868 0
 1320 0708 ADF86210 		strh	r1, [sp, #98]	@ movhi
 1321              	.LVL158:
 869:..\..\..\lvgl\version_6.1.2\lvgl\src\lv_objx/lv_calendar.c ****     }
 1322              		.loc 1 869 0
 1323 070c ADF86630 		strh	r3, [sp, #102]	@ movhi
 1324              	.LBE263:
 784:..\..\..\lvgl\version_6.1.2\lvgl\src\lv_objx/lv_calendar.c **** 
 1325              		.loc 1 784 0
 1326 0710 3FF480AC 		beq	.L61
 1327 0714 099A     		ldr	r2, [sp, #36]
 1328              	.LVL159:
 1329              	.LBB264:
 787:..\..\..\lvgl\version_6.1.2\lvgl\src\lv_objx/lv_calendar.c ****            ((draw_state == DAY_DRAW_ACT_MONTH && ext->today.day >= day_cnt && ext->today.day < day_
 1330              		.loc 1 787 0
 1331 0716 0A99     		ldr	r1, [sp, #40]
 1332 0718 B5F92430 		ldrsh	r3, [r5, #36]
 1333 071c 8A42     		cmp	r2, r1
 1334 071e 3FF490AE 		beq	.L124
 1335              	.LVL160:
 1336              	.L70:
 803:..\..\..\lvgl\version_6.1.2\lvgl\src\lv_objx/lv_calendar.c ****         }
 1337              		.loc 1 803 0
 1338 0722 0022     		movs	r2, #0
 1339 0724 1292     		str	r2, [sp, #72]
 1340 0726 9EE6     		b	.L20
 1341              	.LVL161:
 1342              	.L34:
 1343              	.LBB252:
 1344              	.LBB241:
 1345              	.LBB225:
 883:..\..\..\lvgl\version_6.1.2\lvgl\src\lv_objx/lv_calendar.c **** 
 1346              		.loc 1 883 0
 1347 0728 0698     		ldr	r0, [sp, #24]
 1348              	.LBE225:
 1349              	.LBE241:
 846:..\..\..\lvgl\version_6.1.2\lvgl\src\lv_objx/lv_calendar.c ****                 final_style = ext->style_highlighted_days;
 1350              		.loc 1 846 0
 1351 072a B8F80470 		ldrh	r7, [r8, #4]
 1352 072e 98F90690 		ldrsb	r9, [r8, #6]
 1353              	.LVL162:
 1354              	.LBB242:
 1355              	.LBB226:
 883:..\..\..\lvgl\version_6.1.2\lvgl\src\lv_objx/lv_calendar.c **** 
 1356              		.loc 1 883 0
 1357 0732 FFF7FEFF 		bl	lv_obj_get_ext_attr
 1358              	.LVL163:
 1359 0736 0346     		mov	r3, r0
 1360              	.LVL164:
 885:..\..\..\lvgl\version_6.1.2\lvgl\src\lv_objx/lv_calendar.c **** 
ARM GAS  C:\Users\pearlstl\AppData\Local\Temp\ccHPSyCj.s 			page 46


 1361              		.loc 1 885 0
 1362 0738 8068     		ldr	r0, [r0, #8]
 1363              	.LVL165:
 1364 073a 0028     		cmp	r0, #0
 1365 073c 7FF444AF 		bne	.L60
 1366 0740 26E7     		b	.L44
 1367              	.LVL166:
 1368              	.L32:
 1369              	.LBE226:
 1370              	.LBE242:
 820:..\..\..\lvgl\version_6.1.2\lvgl\src\lv_objx/lv_calendar.c ****             }
 1371              		.loc 1 820 0
 1372 0742 4FF0020B 		mov	fp, #2
 1373 0746 D8F82C20 		ldr	r2, [r8, #44]
 1374 074a 0F92     		str	r2, [sp, #60]
 1375              	.LVL167:
 818:..\..\..\lvgl\version_6.1.2\lvgl\src\lv_objx/lv_calendar.c ****                 day_cnt    = 1;
 1376              		.loc 1 818 0
 1377 074c 5C46     		mov	r4, fp
 820:..\..\..\lvgl\version_6.1.2\lvgl\src\lv_objx/lv_calendar.c ****             }
 1378              		.loc 1 820 0
 1379 074e 0126     		movs	r6, #1
 1380 0750 96E6     		b	.L25
 1381              	.LVL168:
 1382              	.L119:
 852:..\..\..\lvgl\version_6.1.2\lvgl\src\lv_objx/lv_calendar.c ****                 final_style = ext->style_today_box;
 1383              		.loc 1 852 0
 1384 0752 012C     		cmp	r4, #1
 1385 0754 7FF421AF 		bne	.L81
 853:..\..\..\lvgl\version_6.1.2\lvgl\src\lv_objx/lv_calendar.c ****             else if(in_week_box && draw_state == DAY_DRAW_ACT_MONTH)
 1386              		.loc 1 853 0
 1387 0758 D8F83470 		ldr	r7, [r8, #52]
 1388              	.LVL169:
 1389 075c DFE6     		b	.L52
 1390              	.LVL170:
 1391              	.L120:
 855:..\..\..\lvgl\version_6.1.2\lvgl\src\lv_objx/lv_calendar.c ****             else
 1392              		.loc 1 855 0
 1393 075e D8F83070 		ldr	r7, [r8, #48]
 1394              	.LVL171:
 1395 0762 DCE6     		b	.L52
 1396              	.LVL172:
 1397              	.L122:
 1398              	.LBB243:
 1399              	.LBB236:
 1400              	.LBB230:
 1401              	.LBB231:
 963:..\..\..\lvgl\version_6.1.2\lvgl\src\lv_objx/lv_calendar.c **** }
 1402              		.loc 1 963 0
 1403 0764 8A07     		lsls	r2, r1, #30
 1404 0766 1AD1     		bne	.L74
 1405 0768 4F4A     		ldr	r2, .L129+8
 1406 076a A2FB0102 		umull	r0, r2, r2, r1
 1407 076e 5009     		lsrs	r0, r2, #5
 1408 0770 6424     		movs	r4, #100
 1409              	.LVL173:
 1410 0772 04FB1010 		mls	r0, r4, r0, r1
ARM GAS  C:\Users\pearlstl\AppData\Local\Temp\ccHPSyCj.s 			page 47


 1411 0776 0028     		cmp	r0, #0
 1412 0778 69D1     		bne	.L75
 1413 077a D209     		lsrs	r2, r2, #7
 1414 077c 4FF4C870 		mov	r0, #400
 1415 0780 00FB1211 		mls	r1, r0, r2, r1
 1416              	.LVL174:
 1417 0784 0029     		cmp	r1, #0
 1418 0786 14BF     		ite	ne
 1419 0788 1C21     		movne	r1, #28
 1420 078a 1D21     		moveq	r1, #29
 1421 078c 6BE7     		b	.L30
 1422              	.LVL175:
 1423              	.L78:
 1424              	.LBE231:
 1425              	.LBE230:
 1426              	.LBE236:
 1427              	.LBE243:
 849:..\..\..\lvgl\version_6.1.2\lvgl\src\lv_objx/lv_calendar.c ****                                      ext->showed_date.month == 12 ? 1 : ext->showed_date.month + 1,
 1428              		.loc 1 849 0
 1429 078e 0123     		movs	r3, #1
 1430 0790 1093     		str	r3, [sp, #64]
 1431 0792 7CE7     		b	.L48
 1432              	.LVL176:
 1433              	.L123:
 1434              	.LBB244:
 1435              	.LBB237:
 953:..\..\..\lvgl\version_6.1.2\lvgl\src\lv_objx/lv_calendar.c **** }
 1436              		.loc 1 953 0
 1437 0794 0139     		subs	r1, r1, #1
 1438 0796 61F00101 		orn	r1, r1, #1
 1439 079a 0131     		adds	r1, r1, #1
 1440 079c 60E7     		b	.L31
 1441              	.LVL177:
 1442              	.L74:
 1443              	.LBB234:
 1444              	.LBB232:
 963:..\..\..\lvgl\version_6.1.2\lvgl\src\lv_objx/lv_calendar.c **** }
 1445              		.loc 1 963 0
 1446 079e 1C21     		movs	r1, #28
 1447              	.LVL178:
 1448 07a0 61E7     		b	.L30
 1449              	.LVL179:
 1450              	.L116:
 1451              	.LBE232:
 1452              	.LBE234:
 1453              	.LBE237:
 1454              	.LBE244:
 1455              	.LBE252:
 788:..\..\..\lvgl\version_6.1.2\lvgl\src\lv_objx/lv_calendar.c ****             (draw_state == DAY_DRAW_PREV_MONTH && ext->today.day <= 7 - month_start_day && week == 
 1456              		.loc 1 788 0
 1457 07a2 98F90320 		ldrsb	r2, [r8, #3]
 1458 07a6 5A45     		cmp	r2, fp
 1459 07a8 BBDB     		blt	.L70
 1460 07aa 0BF10601 		add	r1, fp, #6
 1461 07ae 8A42     		cmp	r2, r1
 1462 07b0 B7DC     		bgt	.L70
 1463              	.L22:
ARM GAS  C:\Users\pearlstl\AppData\Local\Temp\ccHPSyCj.s 			page 48


 1464              	.LVL180:
 1465              	.LBB253:
 1466              	.LBB254:
 1467              	.LBB255:
 1468              		.file 2 "..\\..\\..\\lvgl\\version_6.1.2\\lvgl\\src\\lv_objx\\../lv_core/../lv_misc/lv_area.h"
   1:..\..\..\lvgl\version_6.1.2\lvgl\src\lv_objx\../lv_core/../lv_misc/lv_area.h **** /**
   2:..\..\..\lvgl\version_6.1.2\lvgl\src\lv_objx\../lv_core/../lv_misc/lv_area.h ****  * @file lv_area.h
   3:..\..\..\lvgl\version_6.1.2\lvgl\src\lv_objx\../lv_core/../lv_misc/lv_area.h ****  *
   4:..\..\..\lvgl\version_6.1.2\lvgl\src\lv_objx\../lv_core/../lv_misc/lv_area.h ****  */
   5:..\..\..\lvgl\version_6.1.2\lvgl\src\lv_objx\../lv_core/../lv_misc/lv_area.h **** 
   6:..\..\..\lvgl\version_6.1.2\lvgl\src\lv_objx\../lv_core/../lv_misc/lv_area.h **** #ifndef LV_AREA_H
   7:..\..\..\lvgl\version_6.1.2\lvgl\src\lv_objx\../lv_core/../lv_misc/lv_area.h **** #define LV_AREA_H
   8:..\..\..\lvgl\version_6.1.2\lvgl\src\lv_objx\../lv_core/../lv_misc/lv_area.h **** 
   9:..\..\..\lvgl\version_6.1.2\lvgl\src\lv_objx\../lv_core/../lv_misc/lv_area.h **** #ifdef __cplusplus
  10:..\..\..\lvgl\version_6.1.2\lvgl\src\lv_objx\../lv_core/../lv_misc/lv_area.h **** extern "C" {
  11:..\..\..\lvgl\version_6.1.2\lvgl\src\lv_objx\../lv_core/../lv_misc/lv_area.h **** #endif
  12:..\..\..\lvgl\version_6.1.2\lvgl\src\lv_objx\../lv_core/../lv_misc/lv_area.h **** 
  13:..\..\..\lvgl\version_6.1.2\lvgl\src\lv_objx\../lv_core/../lv_misc/lv_area.h **** /*********************
  14:..\..\..\lvgl\version_6.1.2\lvgl\src\lv_objx\../lv_core/../lv_misc/lv_area.h ****  *      INCLUDES
  15:..\..\..\lvgl\version_6.1.2\lvgl\src\lv_objx\../lv_core/../lv_misc/lv_area.h ****  *********************/
  16:..\..\..\lvgl\version_6.1.2\lvgl\src\lv_objx\../lv_core/../lv_misc/lv_area.h **** #include <string.h>
  17:..\..\..\lvgl\version_6.1.2\lvgl\src\lv_objx\../lv_core/../lv_misc/lv_area.h **** #include <stdbool.h>
  18:..\..\..\lvgl\version_6.1.2\lvgl\src\lv_objx\../lv_core/../lv_misc/lv_area.h **** #include <stdint.h>
  19:..\..\..\lvgl\version_6.1.2\lvgl\src\lv_objx\../lv_core/../lv_misc/lv_area.h **** #ifdef LV_CONF_INCLUDE_SIMPLE
  20:..\..\..\lvgl\version_6.1.2\lvgl\src\lv_objx\../lv_core/../lv_misc/lv_area.h **** #include "lv_conf.h"
  21:..\..\..\lvgl\version_6.1.2\lvgl\src\lv_objx\../lv_core/../lv_misc/lv_area.h **** #else
  22:..\..\..\lvgl\version_6.1.2\lvgl\src\lv_objx\../lv_core/../lv_misc/lv_area.h **** #include "../../../lv_conf.h"
  23:..\..\..\lvgl\version_6.1.2\lvgl\src\lv_objx\../lv_core/../lv_misc/lv_area.h **** #endif
  24:..\..\..\lvgl\version_6.1.2\lvgl\src\lv_objx\../lv_core/../lv_misc/lv_area.h **** 
  25:..\..\..\lvgl\version_6.1.2\lvgl\src\lv_objx\../lv_core/../lv_misc/lv_area.h **** /*********************
  26:..\..\..\lvgl\version_6.1.2\lvgl\src\lv_objx\../lv_core/../lv_misc/lv_area.h ****  *      DEFINES
  27:..\..\..\lvgl\version_6.1.2\lvgl\src\lv_objx\../lv_core/../lv_misc/lv_area.h ****  *********************/
  28:..\..\..\lvgl\version_6.1.2\lvgl\src\lv_objx\../lv_core/../lv_misc/lv_area.h **** /*To avoid overflow don't let the max ranges (reduce with 1000) */
  29:..\..\..\lvgl\version_6.1.2\lvgl\src\lv_objx\../lv_core/../lv_misc/lv_area.h **** #define LV_COORD_MAX ((lv_coord_t)((uint32_t)((uint32_t)1 << (8 * sizeof(lv_coord_t) - 1)) - 1000))
  30:..\..\..\lvgl\version_6.1.2\lvgl\src\lv_objx\../lv_core/../lv_misc/lv_area.h **** #define LV_COORD_MIN (-LV_COORD_MAX)
  31:..\..\..\lvgl\version_6.1.2\lvgl\src\lv_objx\../lv_core/../lv_misc/lv_area.h **** 
  32:..\..\..\lvgl\version_6.1.2\lvgl\src\lv_objx\../lv_core/../lv_misc/lv_area.h **** LV_EXPORT_CONST_INT(LV_COORD_MAX);
  33:..\..\..\lvgl\version_6.1.2\lvgl\src\lv_objx\../lv_core/../lv_misc/lv_area.h **** LV_EXPORT_CONST_INT(LV_COORD_MIN);
  34:..\..\..\lvgl\version_6.1.2\lvgl\src\lv_objx\../lv_core/../lv_misc/lv_area.h **** 
  35:..\..\..\lvgl\version_6.1.2\lvgl\src\lv_objx\../lv_core/../lv_misc/lv_area.h **** /**********************
  36:..\..\..\lvgl\version_6.1.2\lvgl\src\lv_objx\../lv_core/../lv_misc/lv_area.h ****  *      TYPEDEFS
  37:..\..\..\lvgl\version_6.1.2\lvgl\src\lv_objx\../lv_core/../lv_misc/lv_area.h ****  **********************/
  38:..\..\..\lvgl\version_6.1.2\lvgl\src\lv_objx\../lv_core/../lv_misc/lv_area.h **** 
  39:..\..\..\lvgl\version_6.1.2\lvgl\src\lv_objx\../lv_core/../lv_misc/lv_area.h **** /**
  40:..\..\..\lvgl\version_6.1.2\lvgl\src\lv_objx\../lv_core/../lv_misc/lv_area.h ****  * Represents a point on the screen.
  41:..\..\..\lvgl\version_6.1.2\lvgl\src\lv_objx\../lv_core/../lv_misc/lv_area.h ****  */
  42:..\..\..\lvgl\version_6.1.2\lvgl\src\lv_objx\../lv_core/../lv_misc/lv_area.h **** typedef struct
  43:..\..\..\lvgl\version_6.1.2\lvgl\src\lv_objx\../lv_core/../lv_misc/lv_area.h **** {
  44:..\..\..\lvgl\version_6.1.2\lvgl\src\lv_objx\../lv_core/../lv_misc/lv_area.h ****     lv_coord_t x;
  45:..\..\..\lvgl\version_6.1.2\lvgl\src\lv_objx\../lv_core/../lv_misc/lv_area.h ****     lv_coord_t y;
  46:..\..\..\lvgl\version_6.1.2\lvgl\src\lv_objx\../lv_core/../lv_misc/lv_area.h **** } lv_point_t;
  47:..\..\..\lvgl\version_6.1.2\lvgl\src\lv_objx\../lv_core/../lv_misc/lv_area.h **** 
  48:..\..\..\lvgl\version_6.1.2\lvgl\src\lv_objx\../lv_core/../lv_misc/lv_area.h **** /** Represents an area of the screen. */
  49:..\..\..\lvgl\version_6.1.2\lvgl\src\lv_objx\../lv_core/../lv_misc/lv_area.h **** typedef struct
  50:..\..\..\lvgl\version_6.1.2\lvgl\src\lv_objx\../lv_core/../lv_misc/lv_area.h **** {
  51:..\..\..\lvgl\version_6.1.2\lvgl\src\lv_objx\../lv_core/../lv_misc/lv_area.h ****     lv_coord_t x1;
  52:..\..\..\lvgl\version_6.1.2\lvgl\src\lv_objx\../lv_core/../lv_misc/lv_area.h ****     lv_coord_t y1;
ARM GAS  C:\Users\pearlstl\AppData\Local\Temp\ccHPSyCj.s 			page 49


  53:..\..\..\lvgl\version_6.1.2\lvgl\src\lv_objx\../lv_core/../lv_misc/lv_area.h ****     lv_coord_t x2;
  54:..\..\..\lvgl\version_6.1.2\lvgl\src\lv_objx\../lv_core/../lv_misc/lv_area.h ****     lv_coord_t y2;
  55:..\..\..\lvgl\version_6.1.2\lvgl\src\lv_objx\../lv_core/../lv_misc/lv_area.h **** } lv_area_t;
  56:..\..\..\lvgl\version_6.1.2\lvgl\src\lv_objx\../lv_core/../lv_misc/lv_area.h **** 
  57:..\..\..\lvgl\version_6.1.2\lvgl\src\lv_objx\../lv_core/../lv_misc/lv_area.h **** /**********************
  58:..\..\..\lvgl\version_6.1.2\lvgl\src\lv_objx\../lv_core/../lv_misc/lv_area.h ****  * GLOBAL PROTOTYPES
  59:..\..\..\lvgl\version_6.1.2\lvgl\src\lv_objx\../lv_core/../lv_misc/lv_area.h ****  **********************/
  60:..\..\..\lvgl\version_6.1.2\lvgl\src\lv_objx\../lv_core/../lv_misc/lv_area.h **** 
  61:..\..\..\lvgl\version_6.1.2\lvgl\src\lv_objx\../lv_core/../lv_misc/lv_area.h **** /**
  62:..\..\..\lvgl\version_6.1.2\lvgl\src\lv_objx\../lv_core/../lv_misc/lv_area.h ****  * Initialize an area
  63:..\..\..\lvgl\version_6.1.2\lvgl\src\lv_objx\../lv_core/../lv_misc/lv_area.h ****  * @param area_p pointer to an area
  64:..\..\..\lvgl\version_6.1.2\lvgl\src\lv_objx\../lv_core/../lv_misc/lv_area.h ****  * @param x1 left coordinate of the area
  65:..\..\..\lvgl\version_6.1.2\lvgl\src\lv_objx\../lv_core/../lv_misc/lv_area.h ****  * @param y1 top coordinate of the area
  66:..\..\..\lvgl\version_6.1.2\lvgl\src\lv_objx\../lv_core/../lv_misc/lv_area.h ****  * @param x2 right coordinate of the area
  67:..\..\..\lvgl\version_6.1.2\lvgl\src\lv_objx\../lv_core/../lv_misc/lv_area.h ****  * @param y2 bottom coordinate of the area
  68:..\..\..\lvgl\version_6.1.2\lvgl\src\lv_objx\../lv_core/../lv_misc/lv_area.h ****  */
  69:..\..\..\lvgl\version_6.1.2\lvgl\src\lv_objx\../lv_core/../lv_misc/lv_area.h **** void lv_area_set(lv_area_t * area_p, lv_coord_t x1, lv_coord_t y1, lv_coord_t x2, lv_coord_t y2);
  70:..\..\..\lvgl\version_6.1.2\lvgl\src\lv_objx\../lv_core/../lv_misc/lv_area.h **** 
  71:..\..\..\lvgl\version_6.1.2\lvgl\src\lv_objx\../lv_core/../lv_misc/lv_area.h **** /**
  72:..\..\..\lvgl\version_6.1.2\lvgl\src\lv_objx\../lv_core/../lv_misc/lv_area.h ****  * Copy an area
  73:..\..\..\lvgl\version_6.1.2\lvgl\src\lv_objx\../lv_core/../lv_misc/lv_area.h ****  * @param dest pointer to the destination area
  74:..\..\..\lvgl\version_6.1.2\lvgl\src\lv_objx\../lv_core/../lv_misc/lv_area.h ****  * @param src pointer to the source area
  75:..\..\..\lvgl\version_6.1.2\lvgl\src\lv_objx\../lv_core/../lv_misc/lv_area.h ****  */
  76:..\..\..\lvgl\version_6.1.2\lvgl\src\lv_objx\../lv_core/../lv_misc/lv_area.h **** inline static void lv_area_copy(lv_area_t * dest, const lv_area_t * src)
  77:..\..\..\lvgl\version_6.1.2\lvgl\src\lv_objx\../lv_core/../lv_misc/lv_area.h **** {
  78:..\..\..\lvgl\version_6.1.2\lvgl\src\lv_objx\../lv_core/../lv_misc/lv_area.h ****     memcpy(dest, src, sizeof(lv_area_t));
 1469              		.loc 2 78 0
 1470 07b2 18AA     		add	r2, sp, #96
 1471              	.LVL181:
 1472 07b4 92E80300 		ldmia	r2, {r0, r1}
 1473 07b8 1AAA     		add	r2, sp, #104
 1474              	.LVL182:
 1475 07ba 82E80300 		stmia	r2, {r0, r1}
 1476              	.LVL183:
 1477              	.LBE255:
 1478              	.LBE254:
 792:..\..\..\lvgl\version_6.1.2\lvgl\src\lv_objx/lv_calendar.c ****                 calendar->coords.x1 + style_bg->body.padding.left - ext->style_week_box->body.paddi
 1479              		.loc 1 792 0
 1480 07be 069E     		ldr	r6, [sp, #24]
 793:..\..\..\lvgl\version_6.1.2\lvgl\src\lv_objx/lv_calendar.c ****             week_box_area.x2 =
 1481              		.loc 1 793 0
 1482 07c0 D8F83020 		ldr	r2, [r8, #48]
 794:..\..\..\lvgl\version_6.1.2\lvgl\src\lv_objx/lv_calendar.c ****                 calendar->coords.x2 - style_bg->body.padding.right + ext->style_week_box->body.padd
 1483              		.loc 1 794 0
 1484 07c4 B78A     		ldrh	r7, [r6, #20]
 1485 07c6 D08C     		ldrh	r0, [r2, #38]
 792:..\..\..\lvgl\version_6.1.2\lvgl\src\lv_objx/lv_calendar.c ****                 calendar->coords.x1 + style_bg->body.padding.left - ext->style_week_box->body.paddi
 1486              		.loc 1 792 0
 1487 07c8 918C     		ldrh	r1, [r2, #36]
 1488 07ca 358A     		ldrh	r5, [r6, #16]
 794:..\..\..\lvgl\version_6.1.2\lvgl\src\lv_objx/lv_calendar.c ****                 calendar->coords.x2 - style_bg->body.padding.right + ext->style_week_box->body.padd
 1489              		.loc 1 794 0
 1490 07cc 0744     		add	r7, r7, r0
 1491 07ce 0898     		ldr	r0, [sp, #32]
 792:..\..\..\lvgl\version_6.1.2\lvgl\src\lv_objx/lv_calendar.c ****                 calendar->coords.x1 + style_bg->body.padding.left - ext->style_week_box->body.paddi
 1492              		.loc 1 792 0
 1493 07d0 691A     		subs	r1, r5, r1
ARM GAS  C:\Users\pearlstl\AppData\Local\Temp\ccHPSyCj.s 			page 50


 794:..\..\..\lvgl\version_6.1.2\lvgl\src\lv_objx/lv_calendar.c ****                 calendar->coords.x2 - style_bg->body.padding.right + ext->style_week_box->body.padd
 1494              		.loc 1 794 0
 1495 07d2 C68C     		ldrh	r6, [r0, #38]
 797:..\..\..\lvgl\version_6.1.2\lvgl\src\lv_objx/lv_calendar.c ****             week_box_area.y2 += ext->style_week_box->body.padding.bottom;
 1496              		.loc 1 797 0
 1497 07d4 BDF86A50 		ldrh	r5, [sp, #106]
 1498 07d8 108C     		ldrh	r0, [r2, #32]
 792:..\..\..\lvgl\version_6.1.2\lvgl\src\lv_objx/lv_calendar.c ****                 calendar->coords.x1 + style_bg->body.padding.left - ext->style_week_box->body.paddi
 1499              		.loc 1 792 0
 1500 07da 0B44     		add	r3, r3, r1
 797:..\..\..\lvgl\version_6.1.2\lvgl\src\lv_objx/lv_calendar.c ****             week_box_area.y2 += ext->style_week_box->body.padding.bottom;
 1501              		.loc 1 797 0
 1502 07dc 281A     		subs	r0, r5, r0
 798:..\..\..\lvgl\version_6.1.2\lvgl\src\lv_objx/lv_calendar.c ****             lv_draw_rect(&week_box_area, mask, ext->style_week_box, opa_scale);
 1503              		.loc 1 798 0
 1504 07de 518C     		ldrh	r1, [r2, #34]
 1505 07e0 BDF86E50 		ldrh	r5, [sp, #110]
 792:..\..\..\lvgl\version_6.1.2\lvgl\src\lv_objx/lv_calendar.c ****                 calendar->coords.x1 + style_bg->body.padding.left - ext->style_week_box->body.paddi
 1506              		.loc 1 792 0
 1507 07e4 ADF86830 		strh	r3, [sp, #104]	@ movhi
 794:..\..\..\lvgl\version_6.1.2\lvgl\src\lv_objx/lv_calendar.c ****                 calendar->coords.x2 - style_bg->body.padding.right + ext->style_week_box->body.padd
 1508              		.loc 1 794 0
 1509 07e8 BE1B     		subs	r6, r7, r6
 1510 07ea ADF86C60 		strh	r6, [sp, #108]	@ movhi
 799:..\..\..\lvgl\version_6.1.2\lvgl\src\lv_objx/lv_calendar.c **** 
 1511              		.loc 1 799 0
 1512 07ee 1AAE     		add	r6, sp, #104
 798:..\..\..\lvgl\version_6.1.2\lvgl\src\lv_objx/lv_calendar.c ****             lv_draw_rect(&week_box_area, mask, ext->style_week_box, opa_scale);
 1513              		.loc 1 798 0
 1514 07f0 0D44     		add	r5, r5, r1
 799:..\..\..\lvgl\version_6.1.2\lvgl\src\lv_objx/lv_calendar.c **** 
 1515              		.loc 1 799 0
 1516 07f2 0B9B     		ldr	r3, [sp, #44]
 797:..\..\..\lvgl\version_6.1.2\lvgl\src\lv_objx/lv_calendar.c ****             week_box_area.y2 += ext->style_week_box->body.padding.bottom;
 1517              		.loc 1 797 0
 1518 07f4 ADF86A00 		strh	r0, [sp, #106]	@ movhi
 799:..\..\..\lvgl\version_6.1.2\lvgl\src\lv_objx/lv_calendar.c **** 
 1519              		.loc 1 799 0
 1520 07f8 0799     		ldr	r1, [sp, #28]
 798:..\..\..\lvgl\version_6.1.2\lvgl\src\lv_objx/lv_calendar.c ****             lv_draw_rect(&week_box_area, mask, ext->style_week_box, opa_scale);
 1521              		.loc 1 798 0
 1522 07fa ADF86E50 		strh	r5, [sp, #110]	@ movhi
 799:..\..\..\lvgl\version_6.1.2\lvgl\src\lv_objx/lv_calendar.c **** 
 1523              		.loc 1 799 0
 1524 07fe 3046     		mov	r0, r6
 1525 0800 FFF7FEFF 		bl	lv_draw_rect
 1526              	.LVL184:
 1527 0804 0898     		ldr	r0, [sp, #32]
 801:..\..\..\lvgl\version_6.1.2\lvgl\src\lv_objx/lv_calendar.c ****         } else {
 1528              		.loc 1 801 0
 1529 0806 0123     		movs	r3, #1
 1530 0808 1293     		str	r3, [sp, #72]
 1531 080a B0F92430 		ldrsh	r3, [r0, #36]
 1532 080e 2AE6     		b	.L20
 1533              	.LVL185:
 1534              	.L121:
 1535              	.LBE253:
ARM GAS  C:\Users\pearlstl\AppData\Local\Temp\ccHPSyCj.s 			page 51


 1536              	.LBB256:
 1537              	.LBB245:
 1538              	.LBB246:
 1539              	.LBB247:
 1540              		.loc 2 78 0
 1541 0810 18AA     		add	r2, sp, #96
 1542              	.LVL186:
 1543 0812 92E80300 		ldmia	r2, {r0, r1}
 1544 0816 1AAA     		add	r2, sp, #104
 1545              	.LVL187:
 1546 0818 82E80300 		stmia	r2, {r0, r1}
 1547              	.LVL188:
 1548              	.LBE247:
 1549              	.LBE246:
 834:..\..\..\lvgl\version_6.1.2\lvgl\src\lv_objx/lv_calendar.c ****                 today_box_area.y2 = label_area.y2 + ext->style_today_box->body.padding.bottom;
 1550              		.loc 1 834 0
 1551 081c D8F83420 		ldr	r2, [r8, #52]
 1552 0820 BDF862E0 		ldrh	lr, [sp, #98]
 1553 0824 108C     		ldrh	r0, [r2, #32]
 835:..\..\..\lvgl\version_6.1.2\lvgl\src\lv_objx/lv_calendar.c ****                 lv_draw_rect(&today_box_area, mask, ext->style_today_box, opa_scale);
 1554              		.loc 1 835 0
 1555 0826 518C     		ldrh	r1, [r2, #34]
 831:..\..\..\lvgl\version_6.1.2\lvgl\src\lv_objx/lv_calendar.c ****                 today_box_area.x2 = label_area.x2;
 1556              		.loc 1 831 0
 1557 0828 ADF86830 		strh	r3, [sp, #104]	@ movhi
 835:..\..\..\lvgl\version_6.1.2\lvgl\src\lv_objx/lv_calendar.c ****                 lv_draw_rect(&today_box_area, mask, ext->style_today_box, opa_scale);
 1558              		.loc 1 835 0
 1559 082c BDF86630 		ldrh	r3, [sp, #102]
 832:..\..\..\lvgl\version_6.1.2\lvgl\src\lv_objx/lv_calendar.c **** 
 1560              		.loc 1 832 0
 1561 0830 ADF86C70 		strh	r7, [sp, #108]	@ movhi
 834:..\..\..\lvgl\version_6.1.2\lvgl\src\lv_objx/lv_calendar.c ****                 today_box_area.y2 = label_area.y2 + ext->style_today_box->body.padding.bottom;
 1562              		.loc 1 834 0
 1563 0834 C0EB0E00 		rsb	r0, r0, lr
 835:..\..\..\lvgl\version_6.1.2\lvgl\src\lv_objx/lv_calendar.c ****                 lv_draw_rect(&today_box_area, mask, ext->style_today_box, opa_scale);
 1564              		.loc 1 835 0
 1565 0838 5F18     		adds	r7, r3, r1
 834:..\..\..\lvgl\version_6.1.2\lvgl\src\lv_objx/lv_calendar.c ****                 today_box_area.y2 = label_area.y2 + ext->style_today_box->body.padding.bottom;
 1566              		.loc 1 834 0
 1567 083a ADF86A00 		strh	r0, [sp, #106]	@ movhi
 836:..\..\..\lvgl\version_6.1.2\lvgl\src\lv_objx/lv_calendar.c ****             }
 1568              		.loc 1 836 0
 1569 083e 0B9B     		ldr	r3, [sp, #44]
 1570 0840 0799     		ldr	r1, [sp, #28]
 835:..\..\..\lvgl\version_6.1.2\lvgl\src\lv_objx/lv_calendar.c ****                 lv_draw_rect(&today_box_area, mask, ext->style_today_box, opa_scale);
 1571              		.loc 1 835 0
 1572 0842 ADF86E70 		strh	r7, [sp, #110]	@ movhi
 836:..\..\..\lvgl\version_6.1.2\lvgl\src\lv_objx/lv_calendar.c ****             }
 1573              		.loc 1 836 0
 1574 0846 1AA8     		add	r0, sp, #104
 1575 0848 FFF7FEFF 		bl	lv_draw_rect
 1576              	.LVL189:
 1577 084c B1E6     		b	.L35
 1578              	.LVL190:
 1579              	.L75:
 1580              	.LBE245:
 1581              	.LBB248:
ARM GAS  C:\Users\pearlstl\AppData\Local\Temp\ccHPSyCj.s 			page 52


 1582              	.LBB238:
 1583              	.LBB235:
 1584              	.LBB233:
 963:..\..\..\lvgl\version_6.1.2\lvgl\src\lv_objx/lv_calendar.c **** }
 1585              		.loc 1 963 0
 1586 084e 1D21     		movs	r1, #29
 1587              	.LVL191:
 1588 0850 09E7     		b	.L30
 1589              	.LVL192:
 1590              	.L111:
 1591              	.LBE233:
 1592              	.LBE235:
 1593              	.LBE238:
 1594              	.LBE248:
 1595              	.LBE256:
 1596              	.LBE264:
 1597              	.LBE182:
 1598              	.LBE181:
 1599              	.LBE155:
 1600              	.LBB269:
 1601              	.LBB270:
 459:..\..\..\lvgl\version_6.1.2\lvgl\src\lv_objx/lv_calendar.c ****     }
 1602              		.loc 1 459 0
 1603 0852 164B     		ldr	r3, .L129+12
 1604 0854 1B68     		ldr	r3, [r3]
 1605 0856 9847     		blx	r3
 1606              	.LVL193:
 1607              	.LBE270:
 1608              	.LBE269:
 476:..\..\..\lvgl\version_6.1.2\lvgl\src\lv_objx/lv_calendar.c **** 
 1609              		.loc 1 476 0
 1610 0858 2BB0     		add	sp, sp, #172
 1611              		.cfi_remember_state
 1612              		.cfi_def_cfa_offset 36
 1613              		@ sp needed
 1614 085a BDE8F08F 		pop	{r4, r5, r6, r7, r8, r9, r10, fp, pc}
 1615              	.LVL194:
 1616              	.L113:
 1617              		.cfi_restore_state
 1618              	.LBB271:
 1619              	.LBB267:
 1620              	.LBB168:
 1621              	.LBB167:
 1622              	.LBB166:
 930:..\..\..\lvgl\version_6.1.2\lvgl\src\lv_objx/lv_calendar.c **** }
 1623              		.loc 1 930 0
 1624 085e 144B     		ldr	r3, .L129+16
 1625 0860 2EE4     		b	.L106
 1626              	.LVL195:
 1627              	.L114:
 1628              	.LBE166:
 1629              	.LBE167:
 1630              	.LBE168:
 1631              	.LBE267:
 1632              	.LBB268:
 1633              	.LBB266:
 1634              	.LBB265:
ARM GAS  C:\Users\pearlstl\AppData\Local\Temp\ccHPSyCj.s 			page 53


 1635              	.LBB215:
 1636              	.LBB211:
 1637              	.LBB212:
 963:..\..\..\lvgl\version_6.1.2\lvgl\src\lv_objx/lv_calendar.c **** }
 1638              		.loc 1 963 0
 1639 0862 1EF0030F 		tst	lr, #3
 1640 0866 12D1     		bne	.L65
 1641 0868 0F4B     		ldr	r3, .L129+8
 1642 086a A3FB0E23 		umull	r2, r3, r3, lr
 1643 086e 5A09     		lsrs	r2, r3, #5
 1644 0870 6421     		movs	r1, #100
 1645              	.LVL196:
 1646 0872 01FB12E2 		mls	r2, r1, r2, lr
 1647 0876 8AB9     		cbnz	r2, .L66
 1648 0878 DB09     		lsrs	r3, r3, #7
 1649 087a 4FF4C872 		mov	r2, #400
 1650 087e 02FB13EE 		mls	lr, r2, r3, lr
 1651              	.LVL197:
 1652 0882 BEF1000F 		cmp	lr, #0
 1653 0886 14BF     		ite	ne
 1654 0888 1C23     		movne	r3, #28
 1655 088a 1D23     		moveq	r3, #29
 1656 088c BAE5     		b	.L18
 1657              	.LVL198:
 1658              	.L65:
 1659 088e 1C23     		movs	r3, #28
 1660 0890 B8E5     		b	.L18
 1661              	.LVL199:
 1662              	.L115:
 1663              	.LBE212:
 1664              	.LBE211:
 953:..\..\..\lvgl\version_6.1.2\lvgl\src\lv_objx/lv_calendar.c **** }
 1665              		.loc 1 953 0
 1666 0892 013C     		subs	r4, r4, #1
 1667 0894 64F00104 		orn	r4, r4, #1
 1668 0898 0134     		adds	r4, r4, #1
 1669 089a B0E5     		b	.L19
 1670              	.LVL200:
 1671              	.L66:
 1672              	.LBB214:
 1673              	.LBB213:
 963:..\..\..\lvgl\version_6.1.2\lvgl\src\lv_objx/lv_calendar.c **** }
 1674              		.loc 1 963 0
 1675 089c 1D23     		movs	r3, #29
 1676 089e B1E5     		b	.L18
 1677              	.L130:
 1678              		.align	2
 1679              	.L129:
 1680 08a0 93244992 		.word	-1840700269
 1681 08a4 01000080 		.word	-2147483647
 1682 08a8 1F85EB51 		.word	1374389535
 1683 08ac 00000000 		.word	.LANCHOR0
 1684 08b0 00000000 		.word	.LANCHOR1
 1685              	.LBE213:
 1686              	.LBE214:
 1687              	.LBE215:
 1688              	.LBE265:
ARM GAS  C:\Users\pearlstl\AppData\Local\Temp\ccHPSyCj.s 			page 54


 1689              	.LBE266:
 1690              	.LBE268:
 1691              	.LBE271:
 1692              		.cfi_endproc
 1693              	.LFE46:
 1694              		.size	lv_calendar_design, .-lv_calendar_design
 1695              		.section	.text.lv_calendar_signal,"ax",%progbits
 1696              		.align	2
 1697              		.thumb
 1698              		.thumb_func
 1699              		.type	lv_calendar_signal, %function
 1700              	lv_calendar_signal:
 1701              	.LFB47:
 486:..\..\..\lvgl\version_6.1.2\lvgl\src\lv_objx/lv_calendar.c ****     lv_res_t res;
 1702              		.loc 1 486 0
 1703              		.cfi_startproc
 1704              		@ args = 0, pretend = 0, frame = 24
 1705              		@ frame_needed = 0, uses_anonymous_args = 0
 1706              	.LVL201:
 1707 0000 2DE9F047 		push	{r4, r5, r6, r7, r8, r9, r10, lr}
 1708              		.cfi_def_cfa_offset 32
 1709              		.cfi_offset 4, -32
 1710              		.cfi_offset 5, -28
 1711              		.cfi_offset 6, -24
 1712              		.cfi_offset 7, -20
 1713              		.cfi_offset 8, -16
 1714              		.cfi_offset 9, -12
 1715              		.cfi_offset 10, -8
 1716              		.cfi_offset 14, -4
 490:..\..\..\lvgl\version_6.1.2\lvgl\src\lv_objx/lv_calendar.c ****     if(res != LV_RES_OK) return res;
 1717              		.loc 1 490 0
 1718 0004 CB4B     		ldr	r3, .L221
 486:..\..\..\lvgl\version_6.1.2\lvgl\src\lv_objx/lv_calendar.c ****     lv_res_t res;
 1719              		.loc 1 486 0
 1720 0006 86B0     		sub	sp, sp, #24
 1721              		.cfi_def_cfa_offset 56
 490:..\..\..\lvgl\version_6.1.2\lvgl\src\lv_objx/lv_calendar.c ****     if(res != LV_RES_OK) return res;
 1722              		.loc 1 490 0
 1723 0008 5B68     		ldr	r3, [r3, #4]
 486:..\..\..\lvgl\version_6.1.2\lvgl\src\lv_objx/lv_calendar.c ****     lv_res_t res;
 1724              		.loc 1 486 0
 1725 000a 0646     		mov	r6, r0
 1726 000c 0D46     		mov	r5, r1
 1727 000e 1746     		mov	r7, r2
 490:..\..\..\lvgl\version_6.1.2\lvgl\src\lv_objx/lv_calendar.c ****     if(res != LV_RES_OK) return res;
 1728              		.loc 1 490 0
 1729 0010 9847     		blx	r3
 1730              	.LVL202:
 491:..\..\..\lvgl\version_6.1.2\lvgl\src\lv_objx/lv_calendar.c ****     if(sign == LV_SIGNAL_GET_TYPE) return lv_obj_handle_get_type_signal(param, LV_OBJX_NAME);
 1731              		.loc 1 491 0
 1732 0012 0128     		cmp	r0, #1
 490:..\..\..\lvgl\version_6.1.2\lvgl\src\lv_objx/lv_calendar.c ****     if(res != LV_RES_OK) return res;
 1733              		.loc 1 490 0
 1734 0014 0446     		mov	r4, r0
 1735              	.LVL203:
 491:..\..\..\lvgl\version_6.1.2\lvgl\src\lv_objx/lv_calendar.c ****     if(sign == LV_SIGNAL_GET_TYPE) return lv_obj_handle_get_type_signal(param, LV_OBJX_NAME);
 1736              		.loc 1 491 0
ARM GAS  C:\Users\pearlstl\AppData\Local\Temp\ccHPSyCj.s 			page 55


 1737 0016 02D0     		beq	.L204
 1738              	.LVL204:
 1739              	.L197:
 584:..\..\..\lvgl\version_6.1.2\lvgl\src\lv_objx/lv_calendar.c **** 
 1740              		.loc 1 584 0
 1741 0018 06B0     		add	sp, sp, #24
 1742              		.cfi_remember_state
 1743              		.cfi_def_cfa_offset 32
 1744              		@ sp needed
 1745 001a BDE8F087 		pop	{r4, r5, r6, r7, r8, r9, r10, pc}
 1746              	.LVL205:
 1747              	.L204:
 1748              		.cfi_restore_state
 492:..\..\..\lvgl\version_6.1.2\lvgl\src\lv_objx/lv_calendar.c **** 
 1749              		.loc 1 492 0
 1750 001e 072D     		cmp	r5, #7
 1751 0020 66D0     		beq	.L205
 494:..\..\..\lvgl\version_6.1.2\lvgl\src\lv_objx/lv_calendar.c ****         /*Nothing to cleanup. (No dynamically allocated memory in 'ext')*/
 1752              		.loc 1 494 0
 1753 0022 45B1     		cbz	r5, .L200
 496:..\..\..\lvgl\version_6.1.2\lvgl\src\lv_objx/lv_calendar.c ****         lv_calendar_ext_t * ext = lv_obj_get_ext_attr(calendar);
 1754              		.loc 1 496 0
 1755 0024 092D     		cmp	r5, #9
 1756 0026 0AD0     		beq	.L206
 533:..\..\..\lvgl\version_6.1.2\lvgl\src\lv_objx/lv_calendar.c ****         lv_calendar_ext_t * ext = lv_obj_get_ext_attr(calendar);
 1757              		.loc 1 533 0
 1758 0028 0A2D     		cmp	r5, #10
 1759 002a 00F08180 		beq	.L207
 538:..\..\..\lvgl\version_6.1.2\lvgl\src\lv_objx/lv_calendar.c ****         lv_calendar_ext_t * ext = lv_obj_get_ext_attr(calendar);
 1760              		.loc 1 538 0
 1761 002e 0B2D     		cmp	r5, #11
 1762 0030 63D0     		beq	.L208
 561:..\..\..\lvgl\version_6.1.2\lvgl\src\lv_objx/lv_calendar.c ****         uint8_t c               = *((uint8_t *)param);
 1763              		.loc 1 561 0
 1764 0032 122D     		cmp	r5, #18
 1765 0034 44D0     		beq	.L209
 1766              	.LVL206:
 1767              	.L200:
 1768              	.LBB303:
 579:..\..\..\lvgl\version_6.1.2\lvgl\src\lv_objx/lv_calendar.c ****         }
 1769              		.loc 1 579 0
 1770 0036 0120     		movs	r0, #1
 1771              	.LBE303:
 584:..\..\..\lvgl\version_6.1.2\lvgl\src\lv_objx/lv_calendar.c **** 
 1772              		.loc 1 584 0
 1773 0038 06B0     		add	sp, sp, #24
 1774              		.cfi_remember_state
 1775              		.cfi_def_cfa_offset 32
 1776              		@ sp needed
 1777 003a BDE8F087 		pop	{r4, r5, r6, r7, r8, r9, r10, pc}
 1778              	.LVL207:
 1779              	.L206:
 1780              		.cfi_restore_state
 1781              	.LBB304:
 497:..\..\..\lvgl\version_6.1.2\lvgl\src\lv_objx/lv_calendar.c ****         lv_area_t header_area;
 1782              		.loc 1 497 0
 1783 003e 3046     		mov	r0, r6
ARM GAS  C:\Users\pearlstl\AppData\Local\Temp\ccHPSyCj.s 			page 56


 1784              	.LVL208:
 1785 0040 FFF7FEFF 		bl	lv_obj_get_ext_attr
 1786              	.LVL209:
 499:..\..\..\lvgl\version_6.1.2\lvgl\src\lv_objx/lv_calendar.c ****         header_area.y2 = header_area.y1 + get_header_height(calendar);
 1787              		.loc 1 499 0
 1788 0044 3546     		mov	r5, r6
 497:..\..\..\lvgl\version_6.1.2\lvgl\src\lv_objx/lv_calendar.c ****         lv_area_t header_area;
 1789              		.loc 1 497 0
 1790 0046 0446     		mov	r4, r0
 1791              	.LVL210:
 1792              	.LBB305:
 1793              	.LBB306:
 1794              		.loc 2 78 0
 1795 0048 55F8100F 		ldr	r0, [r5, #16]!	@ unaligned
 1796              	.LVL211:
 1797 004c 6968     		ldr	r1, [r5, #4]	@ unaligned
 1798 004e 02AB     		add	r3, sp, #8
 1799              	.LVL212:
 1800 0050 03C3     		stmia	r3!, {r0, r1}
 1801              	.LVL213:
 1802              	.LBE306:
 1803              	.LBE305:
 1804              	.LBB307:
 1805              	.LBB308:
 646:..\..\..\lvgl\version_6.1.2\lvgl\src\lv_objx/lv_calendar.c **** 
 1806              		.loc 1 646 0
 1807 0052 3046     		mov	r0, r6
 1808              	.LBE308:
 1809              	.LBE307:
 500:..\..\..\lvgl\version_6.1.2\lvgl\src\lv_objx/lv_calendar.c **** 
 1810              		.loc 1 500 0
 1811 0054 BDF80A70 		ldrh	r7, [sp, #10]
 1812              	.LVL214:
 1813              	.LBB310:
 1814              	.LBB309:
 646:..\..\..\lvgl\version_6.1.2\lvgl\src\lv_objx/lv_calendar.c **** 
 1815              		.loc 1 646 0
 1816 0058 FFF7FEFF 		bl	lv_obj_get_ext_attr
 1817              	.LVL215:
 648:..\..\..\lvgl\version_6.1.2\lvgl\src\lv_objx/lv_calendar.c ****            ext->style_header->body.padding.bottom;
 1818              		.loc 1 648 0
 1819 005c C269     		ldr	r2, [r0, #28]
 1820              	.LVL216:
 1821              	.LBE309:
 1822              	.LBE310:
 500:..\..\..\lvgl\version_6.1.2\lvgl\src\lv_objx/lv_calendar.c **** 
 1823              		.loc 1 500 0
 1824 005e 118C     		ldrh	r1, [r2, #32]
 1825 0060 536B     		ldr	r3, [r2, #52]
 1826 0062 528C     		ldrh	r2, [r2, #34]
 1827              	.LVL217:
 1828 0064 187A     		ldrb	r0, [r3, #8]	@ zero_extendqisi2
 1829 0066 7B18     		adds	r3, r7, r1
 1830              	.LVL218:
 1831 0068 1344     		add	r3, r3, r2
 1832 006a 0344     		add	r3, r3, r0
 1833 006c ADF80E30 		strh	r3, [sp, #14]	@ movhi
ARM GAS  C:\Users\pearlstl\AppData\Local\Temp\ccHPSyCj.s 			page 57


 502:..\..\..\lvgl\version_6.1.2\lvgl\src\lv_objx/lv_calendar.c ****         lv_point_t p;
 1834              		.loc 1 502 0
 1835 0070 FFF7FEFF 		bl	lv_indev_get_act
 1836              	.LVL219:
 504:..\..\..\lvgl\version_6.1.2\lvgl\src\lv_objx/lv_calendar.c **** 
 1837              		.loc 1 504 0
 1838 0074 01A9     		add	r1, sp, #4
 1839 0076 FFF7FEFF 		bl	lv_indev_get_point
 1840              	.LVL220:
 507:..\..\..\lvgl\version_6.1.2\lvgl\src\lv_objx/lv_calendar.c ****             if(p.x < header_area.x1 + lv_area_get_width(&header_area) / 2) {
 1841              		.loc 1 507 0
 1842 007a 01A9     		add	r1, sp, #4
 1843 007c 02A8     		add	r0, sp, #8
 1844 007e FFF7FEFF 		bl	lv_area_is_point_on
 1845              	.LVL221:
 1846 0082 0028     		cmp	r0, #0
 1847 0084 75D0     		beq	.L136
 508:..\..\..\lvgl\version_6.1.2\lvgl\src\lv_objx/lv_calendar.c ****                 if(ext->btn_pressing != -1) lv_obj_invalidate(calendar);
 1848              		.loc 1 508 0
 1849 0086 BDF80C30 		ldrh	r3, [sp, #12]
 1850 008a BDF90820 		ldrsh	r2, [sp, #8]
 1851              	.LVL222:
 1852 008e BDF90410 		ldrsh	r1, [sp, #4]
 1853 0092 0133     		adds	r3, r3, #1
 1854 0094 9B1A     		subs	r3, r3, r2
 1855 0096 1BB2     		sxth	r3, r3
 1856 0098 03EBD373 		add	r3, r3, r3, lsr #31
 1857 009c 02EB6303 		add	r3, r2, r3, asr #1
 1858 00a0 9942     		cmp	r1, r3
 509:..\..\..\lvgl\version_6.1.2\lvgl\src\lv_objx/lv_calendar.c ****                 ext->btn_pressing = -1;
 1859              		.loc 1 509 0
 1860 00a2 94F90C30 		ldrsb	r3, [r4, #12]
 508:..\..\..\lvgl\version_6.1.2\lvgl\src\lv_objx/lv_calendar.c ****                 if(ext->btn_pressing != -1) lv_obj_invalidate(calendar);
 1861              		.loc 1 508 0
 1862 00a6 5CDA     		bge	.L137
 509:..\..\..\lvgl\version_6.1.2\lvgl\src\lv_objx/lv_calendar.c ****                 ext->btn_pressing = -1;
 1863              		.loc 1 509 0
 1864 00a8 0133     		adds	r3, r3, #1
 1865 00aa 02D0     		beq	.L138
 509:..\..\..\lvgl\version_6.1.2\lvgl\src\lv_objx/lv_calendar.c ****                 ext->btn_pressing = -1;
 1866              		.loc 1 509 0 is_stmt 0 discriminator 1
 1867 00ac 3046     		mov	r0, r6
 1868 00ae FFF7FEFF 		bl	lv_obj_invalidate
 1869              	.LVL223:
 1870              	.L138:
 510:..\..\..\lvgl\version_6.1.2\lvgl\src\lv_objx/lv_calendar.c ****             } else {
 1871              		.loc 1 510 0 is_stmt 1
 1872 00b2 FF23     		movs	r3, #255
 1873 00b4 2373     		strb	r3, [r4, #12]
 1874              	.L139:
 516:..\..\..\lvgl\version_6.1.2\lvgl\src\lv_objx/lv_calendar.c ****             ext->pressed_date.month = 0;
 1875              		.loc 1 516 0
 1876 00b6 0023     		movs	r3, #0
 1877 00b8 2382     		strh	r3, [r4, #16]	@ movhi
 517:..\..\..\lvgl\version_6.1.2\lvgl\src\lv_objx/lv_calendar.c ****             ext->pressed_date.day   = 0;
 1878              		.loc 1 517 0
 1879 00ba A374     		strb	r3, [r4, #18]
ARM GAS  C:\Users\pearlstl\AppData\Local\Temp\ccHPSyCj.s 			page 58


 518:..\..\..\lvgl\version_6.1.2\lvgl\src\lv_objx/lv_calendar.c ****         }
 1880              		.loc 1 518 0
 1881 00bc E374     		strb	r3, [r4, #19]
 1882 00be BAE7     		b	.L200
 1883              	.LVL224:
 1884              	.L209:
 1885              	.LBE304:
 1886              	.LBB372:
 562:..\..\..\lvgl\version_6.1.2\lvgl\src\lv_objx/lv_calendar.c ****         lv_calendar_ext_t * ext = lv_obj_get_ext_attr(calendar);
 1887              		.loc 1 562 0
 1888 00c0 3D78     		ldrb	r5, [r7]	@ zero_extendqisi2
 1889              	.LVL225:
 563:..\..\..\lvgl\version_6.1.2\lvgl\src\lv_objx/lv_calendar.c ****         if(c == LV_KEY_RIGHT || c == LV_KEY_UP) {
 1890              		.loc 1 563 0
 1891 00c2 3046     		mov	r0, r6
 1892              	.LVL226:
 1893 00c4 FFF7FEFF 		bl	lv_obj_get_ext_attr
 1894              	.LVL227:
 564:..\..\..\lvgl\version_6.1.2\lvgl\src\lv_objx/lv_calendar.c ****             if(ext->showed_date.month >= 12) {
 1895              		.loc 1 564 0
 1896 00c8 05F0FD03 		and	r3, r5, #253
 1897 00cc 112B     		cmp	r3, #17
 1898 00ce 3AD0     		beq	.L210
 572:..\..\..\lvgl\version_6.1.2\lvgl\src\lv_objx/lv_calendar.c ****             if(ext->showed_date.month <= 1) {
 1899              		.loc 1 572 0
 1900 00d0 142D     		cmp	r5, #20
 1901 00d2 01D0     		beq	.L172
 572:..\..\..\lvgl\version_6.1.2\lvgl\src\lv_objx/lv_calendar.c ****             if(ext->showed_date.month <= 1) {
 1902              		.loc 1 572 0 is_stmt 0 discriminator 1
 1903 00d4 122D     		cmp	r5, #18
 1904 00d6 AED1     		bne	.L200
 1905              	.L172:
 573:..\..\..\lvgl\version_6.1.2\lvgl\src\lv_objx/lv_calendar.c ****                 ext->showed_date.month = 12;
 1906              		.loc 1 573 0 is_stmt 1
 1907 00d8 90F90630 		ldrsb	r3, [r0, #6]
 1908 00dc 012B     		cmp	r3, #1
 1909 00de 40F38C81 		ble	.L211
 577:..\..\..\lvgl\version_6.1.2\lvgl\src\lv_objx/lv_calendar.c ****             }
 1910              		.loc 1 577 0
 1911 00e2 013B     		subs	r3, r3, #1
 1912 00e4 5BB2     		sxtb	r3, r3
 1913              	.L174:
 1914 00e6 8371     		strb	r3, [r0, #6]
 579:..\..\..\lvgl\version_6.1.2\lvgl\src\lv_objx/lv_calendar.c ****         }
 1915              		.loc 1 579 0
 1916 00e8 3046     		mov	r0, r6
 1917              	.LVL228:
 1918 00ea FFF7FEFF 		bl	lv_obj_invalidate
 1919              	.LVL229:
 1920 00ee A2E7     		b	.L200
 1921              	.LVL230:
 1922              	.L205:
 1923              	.LBE372:
 492:..\..\..\lvgl\version_6.1.2\lvgl\src\lv_objx/lv_calendar.c **** 
 1924              		.loc 1 492 0 discriminator 1
 1925 00f0 3846     		mov	r0, r7
 1926              	.LVL231:
ARM GAS  C:\Users\pearlstl\AppData\Local\Temp\ccHPSyCj.s 			page 59


 1927 00f2 9149     		ldr	r1, .L221+4
 1928 00f4 FFF7FEFF 		bl	lv_obj_handle_get_type_signal
 1929              	.LVL232:
 1930 00f8 8EE7     		b	.L197
 1931              	.LVL233:
 1932              	.L208:
 1933              	.LBB373:
 539:..\..\..\lvgl\version_6.1.2\lvgl\src\lv_objx/lv_calendar.c ****         if(ext->btn_pressing < 0) {
 1934              		.loc 1 539 0
 1935 00fa 3046     		mov	r0, r6
 1936              	.LVL234:
 1937 00fc FFF7FEFF 		bl	lv_obj_get_ext_attr
 1938              	.LVL235:
 540:..\..\..\lvgl\version_6.1.2\lvgl\src\lv_objx/lv_calendar.c ****             if(ext->showed_date.month <= 1) {
 1939              		.loc 1 540 0
 1940 0100 90F90C20 		ldrsb	r2, [r0, #12]
 1941 0104 002A     		cmp	r2, #0
 539:..\..\..\lvgl\version_6.1.2\lvgl\src\lv_objx/lv_calendar.c ****         if(ext->btn_pressing < 0) {
 1942              		.loc 1 539 0
 1943 0106 0546     		mov	r5, r0
 1944              	.LVL236:
 540:..\..\..\lvgl\version_6.1.2\lvgl\src\lv_objx/lv_calendar.c ****             if(ext->showed_date.month <= 1) {
 1945              		.loc 1 540 0
 1946 0108 C0F22481 		blt	.L212
 547:..\..\..\lvgl\version_6.1.2\lvgl\src\lv_objx/lv_calendar.c ****             if(ext->showed_date.month >= 12) {
 1947              		.loc 1 547 0
 1948 010c 00F02C81 		beq	.L164
 548:..\..\..\lvgl\version_6.1.2\lvgl\src\lv_objx/lv_calendar.c ****                 ext->showed_date.month = 1;
 1949              		.loc 1 548 0
 1950 0110 90F90630 		ldrsb	r3, [r0, #6]
 1951 0114 0B2B     		cmp	r3, #11
 1952 0116 40F32481 		ble	.L165
 550:..\..\..\lvgl\version_6.1.2\lvgl\src\lv_objx/lv_calendar.c ****             } else {
 1953              		.loc 1 550 0
 1954 011a 8388     		ldrh	r3, [r0, #4]
 549:..\..\..\lvgl\version_6.1.2\lvgl\src\lv_objx/lv_calendar.c ****                 ext->showed_date.year++;
 1955              		.loc 1 549 0
 1956 011c 8471     		strb	r4, [r0, #6]
 550:..\..\..\lvgl\version_6.1.2\lvgl\src\lv_objx/lv_calendar.c ****             } else {
 1957              		.loc 1 550 0
 1958 011e 0133     		adds	r3, r3, #1
 1959 0120 8380     		strh	r3, [r0, #4]	@ movhi
 1960              	.LVL237:
 1961              	.L163:
 559:..\..\..\lvgl\version_6.1.2\lvgl\src\lv_objx/lv_calendar.c ****         lv_obj_invalidate(calendar);
 1962              		.loc 1 559 0
 1963 0122 0023     		movs	r3, #0
 560:..\..\..\lvgl\version_6.1.2\lvgl\src\lv_objx/lv_calendar.c ****     } else if(sign == LV_SIGNAL_CONTROL) {
 1964              		.loc 1 560 0
 1965 0124 3046     		mov	r0, r6
 559:..\..\..\lvgl\version_6.1.2\lvgl\src\lv_objx/lv_calendar.c ****         lv_obj_invalidate(calendar);
 1966              		.loc 1 559 0
 1967 0126 2B73     		strb	r3, [r5, #12]
 560:..\..\..\lvgl\version_6.1.2\lvgl\src\lv_objx/lv_calendar.c ****     } else if(sign == LV_SIGNAL_CONTROL) {
 1968              		.loc 1 560 0
 1969 0128 FFF7FEFF 		bl	lv_obj_invalidate
 1970              	.LVL238:
ARM GAS  C:\Users\pearlstl\AppData\Local\Temp\ccHPSyCj.s 			page 60


 1971              	.LBE373:
 1972 012c 0120     		movs	r0, #1
 1973 012e 73E7     		b	.L197
 1974              	.LVL239:
 1975              	.L207:
 1976              	.LBB374:
 534:..\..\..\lvgl\version_6.1.2\lvgl\src\lv_objx/lv_calendar.c ****         ext->btn_pressing       = 0;
 1977              		.loc 1 534 0
 1978 0130 3046     		mov	r0, r6
 1979              	.LVL240:
 1980 0132 FFF7FEFF 		bl	lv_obj_get_ext_attr
 1981              	.LVL241:
 1982 0136 0346     		mov	r3, r0
 1983              	.LVL242:
 535:..\..\..\lvgl\version_6.1.2\lvgl\src\lv_objx/lv_calendar.c ****         lv_obj_invalidate(calendar);
 1984              		.loc 1 535 0
 1985 0138 0022     		movs	r2, #0
 536:..\..\..\lvgl\version_6.1.2\lvgl\src\lv_objx/lv_calendar.c **** 
 1986              		.loc 1 536 0
 1987 013a 3046     		mov	r0, r6
 1988              	.LVL243:
 535:..\..\..\lvgl\version_6.1.2\lvgl\src\lv_objx/lv_calendar.c ****         lv_obj_invalidate(calendar);
 1989              		.loc 1 535 0
 1990 013c 1A73     		strb	r2, [r3, #12]
 536:..\..\..\lvgl\version_6.1.2\lvgl\src\lv_objx/lv_calendar.c **** 
 1991              		.loc 1 536 0
 1992 013e FFF7FEFF 		bl	lv_obj_invalidate
 1993              	.LVL244:
 1994              	.LBE374:
 1995 0142 2046     		mov	r0, r4
 1996 0144 68E7     		b	.L197
 1997              	.LVL245:
 1998              	.L210:
 1999              	.LBB375:
 565:..\..\..\lvgl\version_6.1.2\lvgl\src\lv_objx/lv_calendar.c ****                 ext->showed_date.month = 1;
 2000              		.loc 1 565 0
 2001 0146 90F90630 		ldrsb	r3, [r0, #6]
 2002 014a 0B2B     		cmp	r3, #11
 2003 014c 40F3EF80 		ble	.L170
 567:..\..\..\lvgl\version_6.1.2\lvgl\src\lv_objx/lv_calendar.c ****             } else {
 2004              		.loc 1 567 0
 2005 0150 8388     		ldrh	r3, [r0, #4]
 2006 0152 0133     		adds	r3, r3, #1
 2007 0154 8380     		strh	r3, [r0, #4]	@ movhi
 2008              	.L171:
 2009 0156 8471     		strb	r4, [r0, #6]
 571:..\..\..\lvgl\version_6.1.2\lvgl\src\lv_objx/lv_calendar.c ****         } else if(c == LV_KEY_LEFT || c == LV_KEY_DOWN) {
 2010              		.loc 1 571 0
 2011 0158 3046     		mov	r0, r6
 2012              	.LVL246:
 2013 015a FFF7FEFF 		bl	lv_obj_invalidate
 2014              	.LVL247:
 2015 015e 0120     		movs	r0, #1
 2016 0160 5AE7     		b	.L197
 2017              	.LVL248:
 2018              	.L137:
 2019              	.LBE375:
ARM GAS  C:\Users\pearlstl\AppData\Local\Temp\ccHPSyCj.s 			page 61


 2020              	.LBB376:
 512:..\..\..\lvgl\version_6.1.2\lvgl\src\lv_objx/lv_calendar.c ****                 ext->btn_pressing = 1;
 2021              		.loc 1 512 0
 2022 0162 012B     		cmp	r3, #1
 2023 0164 02D0     		beq	.L140
 512:..\..\..\lvgl\version_6.1.2\lvgl\src\lv_objx/lv_calendar.c ****                 ext->btn_pressing = 1;
 2024              		.loc 1 512 0 is_stmt 0 discriminator 1
 2025 0166 3046     		mov	r0, r6
 2026 0168 FFF7FEFF 		bl	lv_obj_invalidate
 2027              	.LVL249:
 2028              	.L140:
 513:..\..\..\lvgl\version_6.1.2\lvgl\src\lv_objx/lv_calendar.c ****             }
 2029              		.loc 1 513 0 is_stmt 1
 2030 016c 0123     		movs	r3, #1
 2031 016e 2373     		strb	r3, [r4, #12]
 2032 0170 A1E7     		b	.L139
 2033              	.LVL250:
 2034              	.L136:
 2035              	.LBB311:
 2036              	.LBB312:
 2037              	.LBB313:
 2038              	.LBB314:
 2039              		.loc 2 78 0
 2040 0172 6968     		ldr	r1, [r5, #4]	@ unaligned
 2041 0174 2868     		ldr	r0, [r5]	@ unaligned
 2042 0176 04AB     		add	r3, sp, #16
 2043              	.LVL251:
 2044 0178 03C3     		stmia	r3!, {r0, r1}
 2045              	.LVL252:
 2046              	.LBE314:
 2047              	.LBE313:
 2048              	.LBB315:
 2049              	.LBB316:
 416:..\..\..\lvgl\version_6.1.2\lvgl\src\lv_objx/lv_calendar.c **** 
 2050              		.loc 1 416 0
 2051 017a 3046     		mov	r0, r6
 2052 017c FFF7FEFF 		bl	lv_obj_get_ext_attr
 2053              	.LVL253:
 419:..\..\..\lvgl\version_6.1.2\lvgl\src\lv_objx/lv_calendar.c ****         case LV_CALENDAR_STYLE_HEADER: style = ext->style_header; break;
 2054              		.loc 1 419 0
 2055 0180 3046     		mov	r0, r6
 2056 0182 FFF7FEFF 		bl	lv_obj_get_style
 2057              	.LVL254:
 2058 0186 0746     		mov	r7, r0
 2059              	.LVL255:
 2060              	.LBE316:
 2061              	.LBE315:
 600:..\..\..\lvgl\version_6.1.2\lvgl\src\lv_objx/lv_calendar.c ****     days_area.y1 =
 2062              		.loc 1 600 0
 2063 0188 BDF81430 		ldrh	r3, [sp, #20]
 599:..\..\..\lvgl\version_6.1.2\lvgl\src\lv_objx/lv_calendar.c ****     days_area.x2 -= style_bg->body.padding.right;
 2064              		.loc 1 599 0
 2065 018c BDF81000 		ldrh	r0, [sp, #16]
 600:..\..\..\lvgl\version_6.1.2\lvgl\src\lv_objx/lv_calendar.c ****     days_area.y1 =
 2066              		.loc 1 600 0
 2067 0190 F98C     		ldrh	r1, [r7, #38]
 599:..\..\..\lvgl\version_6.1.2\lvgl\src\lv_objx/lv_calendar.c ****     days_area.x2 -= style_bg->body.padding.right;
ARM GAS  C:\Users\pearlstl\AppData\Local\Temp\ccHPSyCj.s 			page 62


 2068              		.loc 1 599 0
 2069 0192 BA8C     		ldrh	r2, [r7, #36]
 601:..\..\..\lvgl\version_6.1.2\lvgl\src\lv_objx/lv_calendar.c ****         calendar->coords.y1 + get_header_height(calendar) + get_day_names_height(calendar) - style_
 2070              		.loc 1 601 0
 2071 0194 758A     		ldrh	r5, [r6, #18]
 2072              	.LVL256:
 599:..\..\..\lvgl\version_6.1.2\lvgl\src\lv_objx/lv_calendar.c ****     days_area.x2 -= style_bg->body.padding.right;
 2073              		.loc 1 599 0
 2074 0196 0244     		add	r2, r2, r0
 600:..\..\..\lvgl\version_6.1.2\lvgl\src\lv_objx/lv_calendar.c ****     days_area.y1 =
 2075              		.loc 1 600 0
 2076 0198 5B1A     		subs	r3, r3, r1
 2077              	.LBB317:
 2078              	.LBB318:
 646:..\..\..\lvgl\version_6.1.2\lvgl\src\lv_objx/lv_calendar.c **** 
 2079              		.loc 1 646 0
 2080 019a 3046     		mov	r0, r6
 2081              	.LBE318:
 2082              	.LBE317:
 599:..\..\..\lvgl\version_6.1.2\lvgl\src\lv_objx/lv_calendar.c ****     days_area.x2 -= style_bg->body.padding.right;
 2083              		.loc 1 599 0
 2084 019c ADF81020 		strh	r2, [sp, #16]	@ movhi
 600:..\..\..\lvgl\version_6.1.2\lvgl\src\lv_objx/lv_calendar.c ****     days_area.y1 =
 2085              		.loc 1 600 0
 2086 01a0 ADF81430 		strh	r3, [sp, #20]	@ movhi
 2087              	.LBB321:
 2088              	.LBB319:
 646:..\..\..\lvgl\version_6.1.2\lvgl\src\lv_objx/lv_calendar.c **** 
 2089              		.loc 1 646 0
 2090 01a4 FFF7FEFF 		bl	lv_obj_get_ext_attr
 2091              	.LVL257:
 648:..\..\..\lvgl\version_6.1.2\lvgl\src\lv_objx/lv_calendar.c ****            ext->style_header->body.padding.bottom;
 2092              		.loc 1 648 0
 2093 01a8 C169     		ldr	r1, [r0, #28]
 2094              	.LVL258:
 2095 01aa 0A8C     		ldrh	r2, [r1, #32]
 2096 01ac 4B8C     		ldrh	r3, [r1, #34]
 2097 01ae 496B     		ldr	r1, [r1, #52]
 2098              	.LVL259:
 2099 01b0 1544     		add	r5, r5, r2
 2100              	.LBE319:
 2101              	.LBE321:
 2102              	.LBB322:
 2103              	.LBB323:
 659:..\..\..\lvgl\version_6.1.2\lvgl\src\lv_objx/lv_calendar.c **** 
 2104              		.loc 1 659 0
 2105 01b2 3046     		mov	r0, r6
 2106              	.LVL260:
 2107 01b4 1D44     		add	r5, r5, r3
 2108              	.LBE323:
 2109              	.LBE322:
 2110              	.LBB325:
 2111              	.LBB320:
 648:..\..\..\lvgl\version_6.1.2\lvgl\src\lv_objx/lv_calendar.c ****            ext->style_header->body.padding.bottom;
 2112              		.loc 1 648 0
 2113 01b6 91F80880 		ldrb	r8, [r1, #8]	@ zero_extendqisi2
 2114              	.LBE320:
ARM GAS  C:\Users\pearlstl\AppData\Local\Temp\ccHPSyCj.s 			page 63


 2115              	.LBE325:
 2116              	.LBB326:
 2117              	.LBB324:
 659:..\..\..\lvgl\version_6.1.2\lvgl\src\lv_objx/lv_calendar.c **** 
 2118              		.loc 1 659 0
 2119 01ba FFF7FEFF 		bl	lv_obj_get_ext_attr
 2120              	.LVL261:
 661:..\..\..\lvgl\version_6.1.2\lvgl\src\lv_objx/lv_calendar.c ****            ext->style_day_names->body.padding.bottom;
 2121              		.loc 1 661 0
 2122 01be 406A     		ldr	r0, [r0, #36]
 2123              	.LBE324:
 2124              	.LBE326:
 601:..\..\..\lvgl\version_6.1.2\lvgl\src\lv_objx/lv_calendar.c ****         calendar->coords.y1 + get_header_height(calendar) + get_day_names_height(calendar) - style_
 2125              		.loc 1 601 0
 2126 01c0 3F8C     		ldrh	r7, [r7, #32]
 2127 01c2 028C     		ldrh	r2, [r0, #32]
 2128 01c4 418C     		ldrh	r1, [r0, #34]
 2129 01c6 436B     		ldr	r3, [r0, #52]
 2130 01c8 ADB2     		uxth	r5, r5
 2131              	.LVL262:
 2132 01ca 2A44     		add	r2, r2, r5
 2133 01cc 0A44     		add	r2, r2, r1
 2134 01ce 1B7A     		ldrb	r3, [r3, #8]	@ zero_extendqisi2
 2135              	.LVL263:
 2136 01d0 4244     		add	r2, r2, r8
 2137 01d2 1344     		add	r3, r3, r2
 2138 01d4 DB1B     		subs	r3, r3, r7
 604:..\..\..\lvgl\version_6.1.2\lvgl\src\lv_objx/lv_calendar.c ****         lv_coord_t w  = (days_area.x2 - days_area.x1 + 1) / 7;
 2139              		.loc 1 604 0
 2140 01d6 04A8     		add	r0, sp, #16
 2141              	.LVL264:
 2142 01d8 01A9     		add	r1, sp, #4
 2143              	.LVL265:
 601:..\..\..\lvgl\version_6.1.2\lvgl\src\lv_objx/lv_calendar.c ****         calendar->coords.y1 + get_header_height(calendar) + get_day_names_height(calendar) - style_
 2144              		.loc 1 601 0
 2145 01da ADF81230 		strh	r3, [sp, #18]	@ movhi
 604:..\..\..\lvgl\version_6.1.2\lvgl\src\lv_objx/lv_calendar.c ****         lv_coord_t w  = (days_area.x2 - days_area.x1 + 1) / 7;
 2146              		.loc 1 604 0
 2147 01de FFF7FEFF 		bl	lv_area_is_point_on
 2148              	.LVL266:
 2149 01e2 0028     		cmp	r0, #0
 2150 01e4 00F0CC80 		beq	.L142
 2151              	.LBB327:
 606:..\..\..\lvgl\version_6.1.2\lvgl\src\lv_objx/lv_calendar.c ****         uint8_t x_pos = 0;
 2152              		.loc 1 606 0
 2153 01e8 BDF91280 		ldrsh	r8, [sp, #18]
 611:..\..\..\lvgl\version_6.1.2\lvgl\src\lv_objx/lv_calendar.c ****         if(y_pos > 5) y_pos = 5;
 2154              		.loc 1 611 0
 2155 01ec BDF91600 		ldrsh	r0, [sp, #22]
 605:..\..\..\lvgl\version_6.1.2\lvgl\src\lv_objx/lv_calendar.c ****         lv_coord_t h  = (days_area.y2 - days_area.y1 + 1) / 6;
 2156              		.loc 1 605 0
 2157 01f0 BDF91070 		ldrsh	r7, [sp, #16]
 2158              	.LVL267:
 608:..\..\..\lvgl\version_6.1.2\lvgl\src\lv_objx/lv_calendar.c ****         if(x_pos > 6) x_pos = 6;
 2159              		.loc 1 608 0
 2160 01f4 BDF914C0 		ldrsh	ip, [sp, #20]
 2161              	.LVL268:
ARM GAS  C:\Users\pearlstl\AppData\Local\Temp\ccHPSyCj.s 			page 64


 611:..\..\..\lvgl\version_6.1.2\lvgl\src\lv_objx/lv_calendar.c ****         if(y_pos > 5) y_pos = 5;
 2162              		.loc 1 611 0
 2163 01f8 5049     		ldr	r1, .L221+8
 2164 01fa BDF90630 		ldrsh	r3, [sp, #6]
 608:..\..\..\lvgl\version_6.1.2\lvgl\src\lv_objx/lv_calendar.c ****         if(x_pos > 6) x_pos = 6;
 2165              		.loc 1 608 0
 2166 01fe 504D     		ldr	r5, .L221+12
 2167 0200 BDF90420 		ldrsh	r2, [sp, #4]
 611:..\..\..\lvgl\version_6.1.2\lvgl\src\lv_objx/lv_calendar.c ****         if(y_pos > 5) y_pos = 5;
 2168              		.loc 1 611 0
 2169 0204 C8EB0000 		rsb	r0, r8, r0
 2170              	.LVL269:
 2171 0208 0130     		adds	r0, r0, #1
 2172 020a 81FB001E 		smull	r1, lr, r1, r0
 608:..\..\..\lvgl\version_6.1.2\lvgl\src\lv_objx/lv_calendar.c ****         if(x_pos > 6) x_pos = 6;
 2173              		.loc 1 608 0
 2174 020e C7EB0C0C 		rsb	ip, r7, ip
 2175              	.LVL270:
 611:..\..\..\lvgl\version_6.1.2\lvgl\src\lv_objx/lv_calendar.c ****         if(y_pos > 5) y_pos = 5;
 2176              		.loc 1 611 0
 2177 0212 AEEBE070 		sub	r0, lr, r0, asr #31
 608:..\..\..\lvgl\version_6.1.2\lvgl\src\lv_objx/lv_calendar.c ****         if(x_pos > 6) x_pos = 6;
 2178              		.loc 1 608 0
 2179 0216 0CF10101 		add	r1, ip, #1
 611:..\..\..\lvgl\version_6.1.2\lvgl\src\lv_objx/lv_calendar.c ****         if(y_pos > 5) y_pos = 5;
 2180              		.loc 1 611 0
 2181 021a C8EB0303 		rsb	r3, r8, r3
 2182 021e 93FBF0F3 		sdiv	r3, r3, r0
 2183 0222 DBB2     		uxtb	r3, r3
 608:..\..\..\lvgl\version_6.1.2\lvgl\src\lv_objx/lv_calendar.c ****         if(x_pos > 6) x_pos = 6;
 2184              		.loc 1 608 0
 2185 0224 85FB01E5 		smull	lr, r5, r5, r1
 615:..\..\..\lvgl\version_6.1.2\lvgl\src\lv_objx/lv_calendar.c ****         lv_calendar_ext_t * ext = lv_obj_get_ext_attr(calendar);
 2186              		.loc 1 615 0
 2187 0228 052B     		cmp	r3, #5
 2188 022a 28BF     		it	cs
 2189 022c 0523     		movcs	r3, #5
 608:..\..\..\lvgl\version_6.1.2\lvgl\src\lv_objx/lv_calendar.c ****         if(x_pos > 6) x_pos = 6;
 2190              		.loc 1 608 0
 2191 022e 0D44     		add	r5, r5, r1
 2192 0230 C917     		asrs	r1, r1, #31
 2193 0232 D21B     		subs	r2, r2, r7
 615:..\..\..\lvgl\version_6.1.2\lvgl\src\lv_objx/lv_calendar.c ****         lv_calendar_ext_t * ext = lv_obj_get_ext_attr(calendar);
 2194              		.loc 1 615 0
 2195 0234 C3EBC303 		rsb	r3, r3, r3, lsl #3
 608:..\..\..\lvgl\version_6.1.2\lvgl\src\lv_objx/lv_calendar.c ****         if(x_pos > 6) x_pos = 6;
 2196              		.loc 1 608 0
 2197 0238 C1EBA505 		rsb	r5, r1, r5, asr #2
 616:..\..\..\lvgl\version_6.1.2\lvgl\src\lv_objx/lv_calendar.c ****         if(i_pos < get_day_of_week(ext->showed_date.year, ext->showed_date.month, 1)) {
 2198              		.loc 1 616 0
 2199 023c 3046     		mov	r0, r6
 608:..\..\..\lvgl\version_6.1.2\lvgl\src\lv_objx/lv_calendar.c ****         if(x_pos > 6) x_pos = 6;
 2200              		.loc 1 608 0
 2201 023e 92FBF5F5 		sdiv	r5, r2, r5
 2202 0242 EDB2     		uxtb	r5, r5
 2203              	.LVL271:
 615:..\..\..\lvgl\version_6.1.2\lvgl\src\lv_objx/lv_calendar.c ****         lv_calendar_ext_t * ext = lv_obj_get_ext_attr(calendar);
ARM GAS  C:\Users\pearlstl\AppData\Local\Temp\ccHPSyCj.s 			page 65


 2204              		.loc 1 615 0
 2205 0244 062D     		cmp	r5, #6
 2206 0246 94BF     		ite	ls
 2207 0248 5D19     		addls	r5, r3, r5
 2208 024a 9D1D     		addhi	r5, r3, #6
 2209              	.LVL272:
 616:..\..\..\lvgl\version_6.1.2\lvgl\src\lv_objx/lv_calendar.c ****         if(i_pos < get_day_of_week(ext->showed_date.year, ext->showed_date.month, 1)) {
 2210              		.loc 1 616 0
 2211 024c FFF7FEFF 		bl	lv_obj_get_ext_attr
 2212              	.LVL273:
 617:..\..\..\lvgl\version_6.1.2\lvgl\src\lv_objx/lv_calendar.c ****             ext->pressed_date.year  = ext->showed_date.year - (ext->showed_date.month == 1 ? 1 : 0)
 2213              		.loc 1 617 0
 2214 0250 90F90620 		ldrsb	r2, [r0, #6]
 2215 0254 8188     		ldrh	r1, [r0, #4]
 2216              	.LBB328:
 2217              	.LBB329:
 2218              		.loc 1 978 0
 2219 0256 DFF8F480 		ldr	r8, .L221+24
 2220 025a DFF8F4C0 		ldr	ip, .L221+28
 2221 025e 394F     		ldr	r7, .L221+16
 975:..\..\..\lvgl\version_6.1.2\lvgl\src\lv_objx/lv_calendar.c ****     uint32_t b = year - a;
 2222              		.loc 1 975 0
 2223 0260 022A     		cmp	r2, #2
 2224 0262 8CBF     		ite	hi
 2225 0264 4FF0000E 		movhi	lr, #0
 2226 0268 4FF0010E 		movls	lr, #1
 2227              		.loc 1 978 0
 2228 026c 4FEA4E03 		lsl	r3, lr, #1
 976:..\..\..\lvgl\version_6.1.2\lvgl\src\lv_objx/lv_calendar.c **** 
 2229              		.loc 1 976 0
 2230 0270 CEEB0109 		rsb	r9, lr, r1
 2231              		.loc 1 978 0
 2232 0274 7344     		add	r3, r3, lr
 2233 0276 02EB8303 		add	r3, r2, r3, lsl #2
 2234 027a A8FB09E8 		umull	lr, r8, r8, r9
 2235 027e 09F1010E 		add	lr, r9, #1
 2236 0282 0EEB990E 		add	lr, lr, r9, lsr #2
 2237 0286 C3EB4313 		rsb	r3, r3, r3, lsl #5
 2238 028a 0EEBD81E 		add	lr, lr, r8, lsr #7
 2239 028e 3E3B     		subs	r3, r3, #62
 2240 0290 AEEB581E 		sub	lr, lr, r8, lsr #5
 2241 0294 ACFB03C3 		umull	ip, r3, ip, r3
 2242 0298 0EEBD303 		add	r3, lr, r3, lsr #3
 2243 029c A3FB0789 		umull	r8, r9, r3, r7
 2244 02a0 C9EB0307 		rsb	r7, r9, r3
 2245 02a4 09EB5707 		add	r7, r9, r7, lsr #1
 2246 02a8 BF08     		lsrs	r7, r7, #2
 2247 02aa C7EBC707 		rsb	r7, r7, r7, lsl #3
 2248 02ae DF1B     		subs	r7, r3, r7
 2249              	.LBE329:
 2250              	.LBE328:
 615:..\..\..\lvgl\version_6.1.2\lvgl\src\lv_objx/lv_calendar.c ****         lv_calendar_ext_t * ext = lv_obj_get_ext_attr(calendar);
 2251              		.loc 1 615 0
 2252 02b0 EDB2     		uxtb	r5, r5
 2253              	.LVL274:
 2254              	.LBB331:
 2255              	.LBB330:
ARM GAS  C:\Users\pearlstl\AppData\Local\Temp\ccHPSyCj.s 			page 66


 979:..\..\..\lvgl\version_6.1.2\lvgl\src\lv_objx/lv_calendar.c **** 
 980:..\..\..\lvgl\version_6.1.2\lvgl\src\lv_objx/lv_calendar.c ****     return day_of_week;
 2256              		.loc 1 980 0
 2257 02b2 5FFA87FE 		uxtb	lr, r7
 2258              	.LVL275:
 2259              	.LBE330:
 2260              	.LBE331:
 617:..\..\..\lvgl\version_6.1.2\lvgl\src\lv_objx/lv_calendar.c ****             ext->pressed_date.year  = ext->showed_date.year - (ext->showed_date.month == 1 ? 1 : 0)
 2261              		.loc 1 617 0
 2262 02b6 7545     		cmp	r5, lr
 2263 02b8 6CD2     		bcs	.L143
 618:..\..\..\lvgl\version_6.1.2\lvgl\src\lv_objx/lv_calendar.c ****             ext->pressed_date.month = ext->showed_date.month == 1 ? 12 : (ext->showed_date.month - 
 2264              		.loc 1 618 0
 2265 02ba 012A     		cmp	r2, #1
 2266 02bc 0CBF     		ite	eq
 2267 02be 0123     		moveq	r3, #1
 2268 02c0 0023     		movne	r3, #0
 2269 02c2 A1EB0301 		sub	r1, r1, r3
 2270 02c6 8BB2     		uxth	r3, r1
 2271 02c8 0382     		strh	r3, [r0, #16]	@ movhi
 619:..\..\..\lvgl\version_6.1.2\lvgl\src\lv_objx/lv_calendar.c ****             ext->pressed_date.day   = get_month_length(ext->pressed_date.year, ext->pressed_date.mo
 2272              		.loc 1 619 0
 2273 02ca 00F0E880 		beq	.L144
 2274 02ce 013A     		subs	r2, r2, #1
 2275 02d0 52B2     		sxtb	r2, r2
 2276              	.LBB332:
 2277              	.LBB333:
 943:..\..\..\lvgl\version_6.1.2\lvgl\src\lv_objx/lv_calendar.c ****         year--;             /*Already in the previous year (won't be less then -12 to skip a whole 
 2278              		.loc 1 943 0
 2279 02d2 571E     		subs	r7, r2, #1
 945:..\..\..\lvgl\version_6.1.2\lvgl\src\lv_objx/lv_calendar.c ****     }
 2280              		.loc 1 945 0
 2281 02d4 48BF     		it	mi
 2282 02d6 02F10B07 		addmi	r7, r2, #11
 2283              	.LBE333:
 2284              	.LBE332:
 620:..\..\..\lvgl\version_6.1.2\lvgl\src\lv_objx/lv_calendar.c ****                                     get_day_of_week(ext->showed_date.year, ext->showed_date.month, 
 2285              		.loc 1 620 0
 2286 02da 1946     		mov	r1, r3
 2287              	.LVL276:
 2288              	.LBB345:
 2289              	.LBB340:
 944:..\..\..\lvgl\version_6.1.2\lvgl\src\lv_objx/lv_calendar.c ****         month = 12 + month; /*`month` is negative, the result will be < 12*/
 2290              		.loc 1 944 0
 2291 02dc 48BF     		it	mi
 2292 02de 03F1FF31 		addmi	r1, r3, #-1
 2293              	.LVL277:
 947:..\..\..\lvgl\version_6.1.2\lvgl\src\lv_objx/lv_calendar.c ****         year++;
 2294              		.loc 1 947 0
 2295 02e2 0B2F     		cmp	r7, #11
 949:..\..\..\lvgl\version_6.1.2\lvgl\src\lv_objx/lv_calendar.c ****     }
 2296              		.loc 1 949 0
 2297 02e4 C4BF     		itt	gt
 2298 02e6 0C3F     		subgt	r7, r7, #12
 2299              	.LVL278:
 948:..\..\..\lvgl\version_6.1.2\lvgl\src\lv_objx/lv_calendar.c ****         month -= 12;
 2300              		.loc 1 948 0
ARM GAS  C:\Users\pearlstl\AppData\Local\Temp\ccHPSyCj.s 			page 67


 2301 02e8 0131     		addgt	r1, r1, #1
 2302              	.LVL279:
 953:..\..\..\lvgl\version_6.1.2\lvgl\src\lv_objx/lv_calendar.c **** }
 2303              		.loc 1 953 0
 2304 02ea 012F     		cmp	r7, #1
 2305              	.LBE340:
 2306              	.LBE345:
 619:..\..\..\lvgl\version_6.1.2\lvgl\src\lv_objx/lv_calendar.c ****             ext->pressed_date.day   = get_month_length(ext->pressed_date.year, ext->pressed_date.mo
 2307              		.loc 1 619 0
 2308 02ec 8274     		strb	r2, [r0, #18]
 2309              	.LBB346:
 2310              	.LBB341:
 953:..\..\..\lvgl\version_6.1.2\lvgl\src\lv_objx/lv_calendar.c **** }
 2311              		.loc 1 953 0
 2312 02ee 00F0C280 		beq	.L213
 2313              	.LVL280:
 2314              	.L147:
 2315 02f2 134A     		ldr	r2, .L221+12
 2316 02f4 1449     		ldr	r1, .L221+20
 2317 02f6 87FB0223 		smull	r2, r3, r7, r2
 2318 02fa FA18     		adds	r2, r7, r3
 2319 02fc FB17     		asrs	r3, r7, #31
 2320 02fe C3EBA203 		rsb	r3, r3, r2, asr #2
 2321 0302 C3EBC303 		rsb	r3, r3, r3, lsl #3
 2322 0306 FB1A     		subs	r3, r7, r3
 2323 0308 1940     		ands	r1, r1, r3
 2324 030a 0029     		cmp	r1, #0
 2325 030c C0F2CD80 		blt	.L214
 2326              	.L150:
 2327 0310 C1F11F03 		rsb	r3, r1, #31
 2328 0314 DBB2     		uxtb	r3, r3
 2329              	.L149:
 2330              	.LVL281:
 2331              	.LBE341:
 2332              	.LBE346:
 620:..\..\..\lvgl\version_6.1.2\lvgl\src\lv_objx/lv_calendar.c ****                                     get_day_of_week(ext->showed_date.year, ext->showed_date.month, 
 2333              		.loc 1 620 0
 2334 0316 0135     		adds	r5, r5, #1
 2335              	.LVL282:
 2336 0318 CEEB050E 		rsb	lr, lr, r5
 2337 031c 7344     		add	r3, r3, lr
 2338 031e C374     		strb	r3, [r0, #19]
 2339              	.LVL283:
 2340              	.L151:
 2341              	.LBE327:
 2342              	.LBE312:
 2343              	.LBE311:
 522:..\..\..\lvgl\version_6.1.2\lvgl\src\lv_objx/lv_calendar.c ****             ext->btn_pressing = 0;
 2344              		.loc 1 522 0
 2345 0320 94F90C30 		ldrsb	r3, [r4, #12]
 2346 0324 002B     		cmp	r3, #0
 2347 0326 77D1     		bne	.L215
 2348              	.L180:
 523:..\..\..\lvgl\version_6.1.2\lvgl\src\lv_objx/lv_calendar.c ****         }
 2349              		.loc 1 523 0
 2350 0328 0023     		movs	r3, #0
 2351 032a 2373     		strb	r3, [r4, #12]
ARM GAS  C:\Users\pearlstl\AppData\Local\Temp\ccHPSyCj.s 			page 68


 2352 032c 83E6     		b	.L200
 2353              	.LVL284:
 2354              	.L170:
 2355              	.LBE376:
 2356              	.LBB377:
 569:..\..\..\lvgl\version_6.1.2\lvgl\src\lv_objx/lv_calendar.c ****             }
 2357              		.loc 1 569 0
 2358 032e 5C1C     		adds	r4, r3, #1
 2359 0330 64B2     		sxtb	r4, r4
 2360 0332 10E7     		b	.L171
 2361              	.L222:
 2362              		.align	2
 2363              	.L221:
 2364 0334 00000000 		.word	.LANCHOR0
 2365 0338 08000000 		.word	.LC2
 2366 033c ABAAAA2A 		.word	715827883
 2367 0340 93244992 		.word	-1840700269
 2368 0344 25499224 		.word	613566757
 2369 0348 01000080 		.word	-2147483647
 2370 034c 1F85EB51 		.word	1374389535
 2371 0350 ABAAAAAA 		.word	-1431655765
 2372              	.LVL285:
 2373              	.L212:
 2374              	.LBE377:
 2375              	.LBB378:
 541:..\..\..\lvgl\version_6.1.2\lvgl\src\lv_objx/lv_calendar.c ****                 ext->showed_date.month = 12;
 2376              		.loc 1 541 0
 2377 0354 90F90630 		ldrsb	r3, [r0, #6]
 2378 0358 012B     		cmp	r3, #1
 2379 035a 53DD     		ble	.L216
 545:..\..\..\lvgl\version_6.1.2\lvgl\src\lv_objx/lv_calendar.c ****             }
 2380              		.loc 1 545 0
 2381 035c 013B     		subs	r3, r3, #1
 2382 035e 8371     		strb	r3, [r0, #6]
 2383 0360 DFE6     		b	.L163
 2384              	.L165:
 552:..\..\..\lvgl\version_6.1.2\lvgl\src\lv_objx/lv_calendar.c ****             }
 2385              		.loc 1 552 0
 2386 0362 0133     		adds	r3, r3, #1
 2387 0364 8371     		strb	r3, [r0, #6]
 2388 0366 DCE6     		b	.L163
 2389              	.L164:
 554:..\..\..\lvgl\version_6.1.2\lvgl\src\lv_objx/lv_calendar.c ****             res = lv_event_send(calendar, LV_EVENT_VALUE_CHANGED, NULL);
 2390              		.loc 1 554 0
 2391 0368 038A     		ldrh	r3, [r0, #16]
 2392 036a 002B     		cmp	r3, #0
 2393 036c 3FF4D9AE 		beq	.L163
 555:..\..\..\lvgl\version_6.1.2\lvgl\src\lv_objx/lv_calendar.c ****             if(res != LV_RES_OK) return res;
 2394              		.loc 1 555 0
 2395 0370 0E21     		movs	r1, #14
 2396 0372 3046     		mov	r0, r6
 2397              	.LVL286:
 2398 0374 FFF7FEFF 		bl	lv_event_send
 2399              	.LVL287:
 556:..\..\..\lvgl\version_6.1.2\lvgl\src\lv_objx/lv_calendar.c ****         }
 2400              		.loc 1 556 0
 2401 0378 0128     		cmp	r0, #1
ARM GAS  C:\Users\pearlstl\AppData\Local\Temp\ccHPSyCj.s 			page 69


 2402 037a 7FF44DAE 		bne	.L197
 2403 037e D0E6     		b	.L163
 2404              	.LVL288:
 2405              	.L142:
 2406              	.LBE378:
 2407              	.LBB379:
 527:..\..\..\lvgl\version_6.1.2\lvgl\src\lv_objx/lv_calendar.c ****             ext->btn_pressing       = 0;
 2408              		.loc 1 527 0
 2409 0380 94F90C30 		ldrsb	r3, [r4, #12]
 2410 0384 002B     		cmp	r3, #0
 2411 0386 43D1     		bne	.L217
 2412              	.L178:
 528:..\..\..\lvgl\version_6.1.2\lvgl\src\lv_objx/lv_calendar.c ****             ext->pressed_date.year  = 0;
 2413              		.loc 1 528 0
 2414 0388 0023     		movs	r3, #0
 2415 038a 2373     		strb	r3, [r4, #12]
 529:..\..\..\lvgl\version_6.1.2\lvgl\src\lv_objx/lv_calendar.c ****             ext->pressed_date.month = 0;
 2416              		.loc 1 529 0
 2417 038c 2382     		strh	r3, [r4, #16]	@ movhi
 530:..\..\..\lvgl\version_6.1.2\lvgl\src\lv_objx/lv_calendar.c ****             ext->pressed_date.day   = 0;
 2418              		.loc 1 530 0
 2419 038e A374     		strb	r3, [r4, #18]
 531:..\..\..\lvgl\version_6.1.2\lvgl\src\lv_objx/lv_calendar.c ****         }
 2420              		.loc 1 531 0
 2421 0390 E374     		strb	r3, [r4, #19]
 2422 0392 50E6     		b	.L200
 2423              	.LVL289:
 2424              	.L143:
 2425              	.LBB370:
 2426              	.LBB368:
 2427              	.LBB366:
 2428              	.LBB347:
 2429              	.LBB348:
