ARM GAS  C:\Users\pearlstl\AppData\Local\Temp\ccbmNKPy.s 			page 1


   1              		.syntax unified
   2              		.cpu cortex-m4
   3              		.eabi_attribute 27, 1
   4              		.fpu fpv4-sp-d16
   5              		.eabi_attribute 20, 1
   6              		.eabi_attribute 21, 1
   7              		.eabi_attribute 23, 3
   8              		.eabi_attribute 24, 1
   9              		.eabi_attribute 25, 1
  10              		.eabi_attribute 26, 1
  11              		.eabi_attribute 30, 2
  12              		.eabi_attribute 34, 1
  13              		.eabi_attribute 18, 4
  14              		.thumb
  15              		.syntax unified
  16              		.file	"lv_circ.c"
  17              		.text
  18              	.Ltext0:
  19              		.cfi_sections	.debug_frame
  20              		.section	.text.lv_circ_init,"ax",%progbits
  21              		.align	2
  22              		.global	lv_circ_init
  23              		.thumb
  24              		.thumb_func
  25              		.type	lv_circ_init, %function
  26              	lv_circ_init:
  27              	.LFB3:
  28              		.file 1 "..\\..\\..\\lvgl\\version_6.1.2\\lvgl\\src\\lv_misc\\lv_circ.c"
   1:..\..\..\lvgl\version_6.1.2\lvgl\src\lv_misc/lv_circ.c **** /**
   2:..\..\..\lvgl\version_6.1.2\lvgl\src\lv_misc/lv_circ.c ****  * @file lv_circ.c
   3:..\..\..\lvgl\version_6.1.2\lvgl\src\lv_misc/lv_circ.c ****  * Circle drawing algorithm (with Bresenham)
   4:..\..\..\lvgl\version_6.1.2\lvgl\src\lv_misc/lv_circ.c ****  * Only a 1/8 circle is calculated. Use CIRC_OCT1_X, CIRC_OCT1_Y macros to get
   5:..\..\..\lvgl\version_6.1.2\lvgl\src\lv_misc/lv_circ.c ****  * the other octets.
   6:..\..\..\lvgl\version_6.1.2\lvgl\src\lv_misc/lv_circ.c ****  */
   7:..\..\..\lvgl\version_6.1.2\lvgl\src\lv_misc/lv_circ.c **** 
   8:..\..\..\lvgl\version_6.1.2\lvgl\src\lv_misc/lv_circ.c **** /*********************
   9:..\..\..\lvgl\version_6.1.2\lvgl\src\lv_misc/lv_circ.c ****  *      INCLUDES
  10:..\..\..\lvgl\version_6.1.2\lvgl\src\lv_misc/lv_circ.c ****  *********************/
  11:..\..\..\lvgl\version_6.1.2\lvgl\src\lv_misc/lv_circ.c **** #include "lv_circ.h"
  12:..\..\..\lvgl\version_6.1.2\lvgl\src\lv_misc/lv_circ.c **** 
  13:..\..\..\lvgl\version_6.1.2\lvgl\src\lv_misc/lv_circ.c **** /*********************
  14:..\..\..\lvgl\version_6.1.2\lvgl\src\lv_misc/lv_circ.c ****  *      DEFINES
  15:..\..\..\lvgl\version_6.1.2\lvgl\src\lv_misc/lv_circ.c ****  *********************/
  16:..\..\..\lvgl\version_6.1.2\lvgl\src\lv_misc/lv_circ.c **** 
  17:..\..\..\lvgl\version_6.1.2\lvgl\src\lv_misc/lv_circ.c **** /**********************
  18:..\..\..\lvgl\version_6.1.2\lvgl\src\lv_misc/lv_circ.c ****  *      TYPEDEFS
  19:..\..\..\lvgl\version_6.1.2\lvgl\src\lv_misc/lv_circ.c ****  **********************/
  20:..\..\..\lvgl\version_6.1.2\lvgl\src\lv_misc/lv_circ.c **** 
  21:..\..\..\lvgl\version_6.1.2\lvgl\src\lv_misc/lv_circ.c **** /**********************
  22:..\..\..\lvgl\version_6.1.2\lvgl\src\lv_misc/lv_circ.c ****  *  STATIC PROTOTYPES
  23:..\..\..\lvgl\version_6.1.2\lvgl\src\lv_misc/lv_circ.c ****  **********************/
  24:..\..\..\lvgl\version_6.1.2\lvgl\src\lv_misc/lv_circ.c **** 
  25:..\..\..\lvgl\version_6.1.2\lvgl\src\lv_misc/lv_circ.c **** /**********************
  26:..\..\..\lvgl\version_6.1.2\lvgl\src\lv_misc/lv_circ.c ****  *  STATIC VARIABLES
  27:..\..\..\lvgl\version_6.1.2\lvgl\src\lv_misc/lv_circ.c ****  **********************/
  28:..\..\..\lvgl\version_6.1.2\lvgl\src\lv_misc/lv_circ.c **** 
  29:..\..\..\lvgl\version_6.1.2\lvgl\src\lv_misc/lv_circ.c **** /**********************
ARM GAS  C:\Users\pearlstl\AppData\Local\Temp\ccbmNKPy.s 			page 2


  30:..\..\..\lvgl\version_6.1.2\lvgl\src\lv_misc/lv_circ.c ****  *      MACROS
  31:..\..\..\lvgl\version_6.1.2\lvgl\src\lv_misc/lv_circ.c ****  **********************/
  32:..\..\..\lvgl\version_6.1.2\lvgl\src\lv_misc/lv_circ.c **** 
  33:..\..\..\lvgl\version_6.1.2\lvgl\src\lv_misc/lv_circ.c **** /**********************
  34:..\..\..\lvgl\version_6.1.2\lvgl\src\lv_misc/lv_circ.c ****  *   GLOBAL FUNCTIONS
  35:..\..\..\lvgl\version_6.1.2\lvgl\src\lv_misc/lv_circ.c ****  **********************/
  36:..\..\..\lvgl\version_6.1.2\lvgl\src\lv_misc/lv_circ.c **** 
  37:..\..\..\lvgl\version_6.1.2\lvgl\src\lv_misc/lv_circ.c **** /**
  38:..\..\..\lvgl\version_6.1.2\lvgl\src\lv_misc/lv_circ.c ****  * Initialize the circle drawing
  39:..\..\..\lvgl\version_6.1.2\lvgl\src\lv_misc/lv_circ.c ****  * @param c pointer to a point. The coordinates will be calculated here
  40:..\..\..\lvgl\version_6.1.2\lvgl\src\lv_misc/lv_circ.c ****  * @param tmp point to a variable. It will store temporary data
  41:..\..\..\lvgl\version_6.1.2\lvgl\src\lv_misc/lv_circ.c ****  * @param radius radius of the circle
  42:..\..\..\lvgl\version_6.1.2\lvgl\src\lv_misc/lv_circ.c ****  */
  43:..\..\..\lvgl\version_6.1.2\lvgl\src\lv_misc/lv_circ.c **** void lv_circ_init(lv_point_t * c, lv_coord_t * tmp, lv_coord_t radius)
  44:..\..\..\lvgl\version_6.1.2\lvgl\src\lv_misc/lv_circ.c **** {
  29              		.loc 1 44 0
  30              		.cfi_startproc
  31              		@ args = 0, pretend = 0, frame = 0
  32              		@ frame_needed = 0, uses_anonymous_args = 0
  33              		@ link register save eliminated.
  34              	.LVL0:
  35 0000 10B4     		push	{r4}
  36              		.cfi_def_cfa_offset 4
  37              		.cfi_offset 4, -4
  45:..\..\..\lvgl\version_6.1.2\lvgl\src\lv_misc/lv_circ.c ****     c->x = radius;
  46:..\..\..\lvgl\version_6.1.2\lvgl\src\lv_misc/lv_circ.c ****     c->y = 0;
  47:..\..\..\lvgl\version_6.1.2\lvgl\src\lv_misc/lv_circ.c ****     *tmp = 1 - radius;
  38              		.loc 1 47 0
  39 0002 C2F10103 		rsb	r3, r2, #1
  46:..\..\..\lvgl\version_6.1.2\lvgl\src\lv_misc/lv_circ.c ****     *tmp = 1 - radius;
  40              		.loc 1 46 0
  41 0006 0024     		movs	r4, #0
  42 0008 4480     		strh	r4, [r0, #2]	@ movhi
  45:..\..\..\lvgl\version_6.1.2\lvgl\src\lv_misc/lv_circ.c ****     c->x = radius;
  43              		.loc 1 45 0
  44 000a 0280     		strh	r2, [r0]	@ movhi
  48:..\..\..\lvgl\version_6.1.2\lvgl\src\lv_misc/lv_circ.c **** }
  45              		.loc 1 48 0
  46 000c 5DF8044B 		ldr	r4, [sp], #4
  47              		.cfi_restore 4
  48              		.cfi_def_cfa_offset 0
  47:..\..\..\lvgl\version_6.1.2\lvgl\src\lv_misc/lv_circ.c **** }
  49              		.loc 1 47 0
  50 0010 0B80     		strh	r3, [r1]	@ movhi
  51              		.loc 1 48 0
  52 0012 7047     		bx	lr
  53              		.cfi_endproc
  54              	.LFE3:
  55              		.size	lv_circ_init, .-lv_circ_init
  56              		.section	.text.lv_circ_cont,"ax",%progbits
  57              		.align	2
  58              		.global	lv_circ_cont
  59              		.thumb
  60              		.thumb_func
  61              		.type	lv_circ_cont, %function
  62              	lv_circ_cont:
  63              	.LFB4:
ARM GAS  C:\Users\pearlstl\AppData\Local\Temp\ccbmNKPy.s 			page 3


  49:..\..\..\lvgl\version_6.1.2\lvgl\src\lv_misc/lv_circ.c **** 
  50:..\..\..\lvgl\version_6.1.2\lvgl\src\lv_misc/lv_circ.c **** /**
  51:..\..\..\lvgl\version_6.1.2\lvgl\src\lv_misc/lv_circ.c ****  * Test the circle drawing is ready or not
  52:..\..\..\lvgl\version_6.1.2\lvgl\src\lv_misc/lv_circ.c ****  * @param c same as in circ_init
  53:..\..\..\lvgl\version_6.1.2\lvgl\src\lv_misc/lv_circ.c ****  * @return true if the circle is not ready yet
  54:..\..\..\lvgl\version_6.1.2\lvgl\src\lv_misc/lv_circ.c ****  */
  55:..\..\..\lvgl\version_6.1.2\lvgl\src\lv_misc/lv_circ.c **** bool lv_circ_cont(lv_point_t * c)
  56:..\..\..\lvgl\version_6.1.2\lvgl\src\lv_misc/lv_circ.c **** {
  64              		.loc 1 56 0
  65              		.cfi_startproc
  66              		@ args = 0, pretend = 0, frame = 0
  67              		@ frame_needed = 0, uses_anonymous_args = 0
  68              		@ link register save eliminated.
  69              	.LVL1:
  57:..\..\..\lvgl\version_6.1.2\lvgl\src\lv_misc/lv_circ.c ****     return c->y <= c->x ? true : false;
  70              		.loc 1 57 0
  71 0000 B0F90220 		ldrsh	r2, [r0, #2]
  72 0004 B0F90000 		ldrsh	r0, [r0]
  73              	.LVL2:
  58:..\..\..\lvgl\version_6.1.2\lvgl\src\lv_misc/lv_circ.c **** }
  74              		.loc 1 58 0
  75 0008 8242     		cmp	r2, r0
  76 000a CCBF     		ite	gt
  77 000c 0020     		movgt	r0, #0
  78 000e 0120     		movle	r0, #1
  79 0010 7047     		bx	lr
  80              		.cfi_endproc
  81              	.LFE4:
  82              		.size	lv_circ_cont, .-lv_circ_cont
  83 0012 00BF     		.section	.text.lv_circ_next,"ax",%progbits
  84              		.align	2
  85              		.global	lv_circ_next
  86              		.thumb
  87              		.thumb_func
  88              		.type	lv_circ_next, %function
  89              	lv_circ_next:
  90              	.LFB5:
  59:..\..\..\lvgl\version_6.1.2\lvgl\src\lv_misc/lv_circ.c **** 
  60:..\..\..\lvgl\version_6.1.2\lvgl\src\lv_misc/lv_circ.c **** /**
  61:..\..\..\lvgl\version_6.1.2\lvgl\src\lv_misc/lv_circ.c ****  * Get the next point from the circle
  62:..\..\..\lvgl\version_6.1.2\lvgl\src\lv_misc/lv_circ.c ****  * @param c same as in circ_init. The next point stored here.
  63:..\..\..\lvgl\version_6.1.2\lvgl\src\lv_misc/lv_circ.c ****  * @param tmp same as in circ_init.
  64:..\..\..\lvgl\version_6.1.2\lvgl\src\lv_misc/lv_circ.c ****  */
  65:..\..\..\lvgl\version_6.1.2\lvgl\src\lv_misc/lv_circ.c **** void lv_circ_next(lv_point_t * c, lv_coord_t * tmp)
  66:..\..\..\lvgl\version_6.1.2\lvgl\src\lv_misc/lv_circ.c **** {
  91              		.loc 1 66 0
  92              		.cfi_startproc
  93              		@ args = 0, pretend = 0, frame = 0
  94              		@ frame_needed = 0, uses_anonymous_args = 0
  95              		@ link register save eliminated.
  96              	.LVL3:
  67:..\..\..\lvgl\version_6.1.2\lvgl\src\lv_misc/lv_circ.c ****     c->y++;
  97              		.loc 1 67 0
  98 0000 4388     		ldrh	r3, [r0, #2]
  99 0002 0133     		adds	r3, r3, #1
 100 0004 9BB2     		uxth	r3, r3
  66:..\..\..\lvgl\version_6.1.2\lvgl\src\lv_misc/lv_circ.c ****     c->y++;
ARM GAS  C:\Users\pearlstl\AppData\Local\Temp\ccbmNKPy.s 			page 4


 101              		.loc 1 66 0
 102 0006 10B4     		push	{r4}
 103              		.cfi_def_cfa_offset 4
 104              		.cfi_offset 4, -4
 105              		.loc 1 67 0
 106 0008 1CB2     		sxth	r4, r3
 107 000a 4480     		strh	r4, [r0, #2]	@ movhi
  68:..\..\..\lvgl\version_6.1.2\lvgl\src\lv_misc/lv_circ.c **** 
  69:..\..\..\lvgl\version_6.1.2\lvgl\src\lv_misc/lv_circ.c ****     if(*tmp <= 0) {
 108              		.loc 1 69 0
 109 000c B1F90020 		ldrsh	r2, [r1]
 110 0010 002A     		cmp	r2, #0
 111 0012 0CDD     		ble	.L9
  70:..\..\..\lvgl\version_6.1.2\lvgl\src\lv_misc/lv_circ.c ****         (*tmp) += 2 * c->y + 1; /*Change in decision criterion for y -> y+1*/
  71:..\..\..\lvgl\version_6.1.2\lvgl\src\lv_misc/lv_circ.c ****     } else {
  72:..\..\..\lvgl\version_6.1.2\lvgl\src\lv_misc/lv_circ.c ****         c->x--;
 112              		.loc 1 72 0
 113 0014 0388     		ldrh	r3, [r0]
 114 0016 013B     		subs	r3, r3, #1
 115 0018 1BB2     		sxth	r3, r3
 116 001a 0380     		strh	r3, [r0]	@ movhi
  73:..\..\..\lvgl\version_6.1.2\lvgl\src\lv_misc/lv_circ.c ****         (*tmp) += 2 * (c->y - c->x) + 1; /*Change for y -> y+1, x -> x-1*/
 117              		.loc 1 73 0
 118 001c 0A88     		ldrh	r2, [r1]
 119 001e E31A     		subs	r3, r4, r3
 120 0020 0132     		adds	r2, r2, #1
 121 0022 02EB4303 		add	r3, r2, r3, lsl #1
 122 0026 0B80     		strh	r3, [r1]	@ movhi
  74:..\..\..\lvgl\version_6.1.2\lvgl\src\lv_misc/lv_circ.c ****     }
  75:..\..\..\lvgl\version_6.1.2\lvgl\src\lv_misc/lv_circ.c **** }
 123              		.loc 1 75 0
 124 0028 5DF8044B 		ldr	r4, [sp], #4
 125              		.cfi_remember_state
 126              		.cfi_restore 4
 127              		.cfi_def_cfa_offset 0
 128 002c 7047     		bx	lr
 129              	.L9:
 130              		.cfi_restore_state
  70:..\..\..\lvgl\version_6.1.2\lvgl\src\lv_misc/lv_circ.c ****     } else {
 131              		.loc 1 70 0
 132 002e 02EB4303 		add	r3, r2, r3, lsl #1
 133 0032 0133     		adds	r3, r3, #1
 134 0034 0B80     		strh	r3, [r1]	@ movhi
 135              		.loc 1 75 0
 136 0036 5DF8044B 		ldr	r4, [sp], #4
 137              		.cfi_restore 4
 138              		.cfi_def_cfa_offset 0
 139 003a 7047     		bx	lr
 140              		.cfi_endproc
 141              	.LFE5:
 142              		.size	lv_circ_next, .-lv_circ_next
 143              		.text
 144              	.Letext0:
 145              		.file 2 "c:\\program files (x86)\\cypress\\psoc creator\\4.2\\psoc creator\\import\\gnu\\arm\\5.4.
 146              		.file 3 "c:\\program files (x86)\\cypress\\psoc creator\\4.2\\psoc creator\\import\\gnu\\arm\\5.4.
 147              		.file 4 "..\\..\\..\\lvgl\\version_6.1.2\\lvgl\\src\\lv_misc\\../../../lv_conf.h"
 148              		.file 5 "..\\..\\..\\lvgl\\version_6.1.2\\lvgl\\src\\lv_misc\\lv_area.h"
ARM GAS  C:\Users\pearlstl\AppData\Local\Temp\ccbmNKPy.s 			page 5

